	.text
	.file	"lencod.c"
	.section	.rodata.cst8,"aM",@progbits,8
	.p2align	3               # -- Begin function main
.LCPI0_0:
	.quad	4602678801158248403     # double 0.49999900000000003
.LCPI0_1:
	.quad	4607182418800017408     # double 1
	.text
	.globl	main
	.p2align	4, 0x90
	.type	main,@function
main:                                   # @main
	.cfi_startproc
# %bb.0:                                # %entry
	pushq	%rbp
	.cfi_def_cfa_offset 16
	.cfi_offset %rbp, -16
	movq	%rsp, %rbp
	.cfi_def_cfa_register %rbp
	subq	$48, %rsp
	movl	$0, -44(%rbp)
	movl	%edi, -28(%rbp)
	movq	%rsi, -40(%rbp)
	movl	$-1, p_in
	movl	$-1, p_dec
	movq	$0, p_trace
	movq	$0, p_log
	movq	$0, p_stat
	movl	$1, frame_statistic_start
	movl	-28(%rbp), %edi
	movq	-40(%rbp), %rsi
	callq	Configure
	callq	Init_QMatrix
	movb	$0, %al
	callq	Init_QOffsetMatrix
	movb	$0, %al
	callq	AllocNalPayloadBuffer
	callq	init_poc
	movb	$0, %al
	callq	GenerateParameterSets
	callq	init_img
	callq	malloc_picture
	movq	%rax, frame_pic
	movq	input, %rax
	cmpl	$0, 1296(%rax)
	je	.LBB0_2
# %bb.1:                                # %if.then
	callq	malloc_picture
	movq	%rax, frame_pic2
	callq	malloc_picture
	movq	%rax, frame_pic3
.LBB0_2:                                # %if.end
	movq	input, %rax
	cmpl	$0, 2880(%rax)
	je	.LBB0_4
# %bb.3:                                # %if.then3
	callq	malloc_picture
	movq	%rax, top_pic
	callq	malloc_picture
	movq	%rax, bottom_pic
.LBB0_4:                                # %if.end6
	movb	$0, %al
	callq	init_rdopt
	movq	input, %rax
	cmpl	$0, 1320(%rax)
	je	.LBB0_9
# %bb.5:                                # %if.then8
	movb	$0, %al
	callq	init_gop_structure
	movq	input, %rax
	cmpl	$3, 1320(%rax)
	jne	.LBB0_7
# %bb.6:                                # %if.then11
	movb	$0, %al
	callq	interpret_gop_structure
	jmp	.LBB0_8
.LBB0_7:                                # %if.else
	movb	$0, %al
	callq	create_pyramid
.LBB0_8:                                # %if.end12
	jmp	.LBB0_9
.LBB0_9:                                # %if.end13
	movq	input, %rdi
	movb	$0, %al
	callq	init_dpb
	movb	$0, %al
	callq	init_out_buffer
	movq	$0, enc_bottom_picture
	movq	$0, enc_top_picture
	movq	$0, enc_frame_picture
	movq	$0, enc_picture
	callq	init_global_buffers
	movb	$0, %al
	callq	create_context_memory
	movb	$0, %al
	callq	Init_Motion_Search_Module
	callq	information_init
	movq	input, %rax
	cmpl	$0, 3236(%rax)
	je	.LBB0_11
# %bb.10:                               # %if.then16
	movb	$0, %al
	callq	rc_init_seq
.LBB0_11:                               # %if.end17
	movq	input, %rax
	cmpl	$0, 3292(%rax)
	je	.LBB0_13
# %bb.12:                               # %if.then19
	movb	$0, %al
	callq	DefineThreshold
.LBB0_13:                               # %if.end20
	movl	$0, Iframe_ctr
	movl	$0, Pframe_ctr
	movl	$0, Bframe_ctr
	movl	$0, tot_time
	movq	input, %rax
	cmpl	$0, 2440(%rax)
	jle	.LBB0_15
# %bb.14:                               # %if.then22
	movq	input, %rax
	movl	2440(%rax), %eax
	movq	input, %rcx
	addl	20(%rcx), %eax
	movq	input, %rcx
	movl	20(%rcx), %ecx
	addl	$1, %ecx
	cltd
	idivl	%ecx
	addl	$1, %eax
	movq	input, %rcx
	movl	%eax, 8(%rcx)
.LBB0_15:                               # %if.end27
	movq	input, %rax
	movl	1236(%rax), %eax
	movl	%eax, initial_Bframes
	movb	$0, %al
	callq	PatchInputNoFrames
	movq	stats, %rax
	movl	$0, 1488(%rax)
	movb	$0, %al
	callq	start_sequence
	movq	stats, %rcx
	movl	%eax, 24(%rcx)
	movq	stats, %rax
	movl	1492(%rax), %eax
	movq	stats, %rcx
	addl	1488(%rcx), %eax
	movl	%eax, 1488(%rcx)
	movl	$0, start_frame_no_in_this_IGOP
	movq	img, %rax
	movl	$0, (%rax)
.LBB0_16:                               # %for.cond
                                        # =>This Inner Loop Header: Depth=1
	movq	img, %rax
	movl	(%rax), %eax
	movq	input, %rcx
	cmpl	8(%rcx), %eax
	jge	.LBB0_79
# %bb.17:                               # %for.body
                                        #   in Loop: Header=BB0_16 Depth=1
	movq	img, %rax
	movl	$1, 72496(%rax)
	movq	input, %rax
	cmpl	$0, 1224(%rax)
	je	.LBB0_20
# %bb.18:                               # %land.lhs.true
                                        #   in Loop: Header=BB0_16 Depth=1
	movq	input, %rax
	cmpl	$0, 1228(%rax)
	je	.LBB0_20
# %bb.19:                               # %cond.true
                                        #   in Loop: Header=BB0_16 Depth=1
	movq	img, %rax
	movl	(%rax), %eax
	subl	start_frame_no_in_this_IGOP, %eax
	movq	input, %rcx
	cltd
	idivl	1224(%rcx)
	jmp	.LBB0_21
.LBB0_20:                               # %cond.false
                                        #   in Loop: Header=BB0_16 Depth=1
	movq	img, %rax
	movl	(%rax), %edx
	subl	start_frame_no_in_this_IGOP, %edx
.LBB0_21:                               # %cond.end
                                        #   in Loop: Header=BB0_16 Depth=1
	movq	input, %rax
	movl	20(%rax), %eax
	addl	$1, %eax
	shll	$1, %eax
	imull	%eax, %edx
	movq	img, %rax
	movl	%edx, 72448(%rax)
	movq	input, %rax
	cmpl	$0, 2880(%rax)
	jne	.LBB0_24
# %bb.22:                               # %land.lhs.true45
                                        #   in Loop: Header=BB0_16 Depth=1
	movq	input, %rax
	cmpl	$0, 2884(%rax)
	jne	.LBB0_24
# %bb.23:                               # %if.then47
                                        #   in Loop: Header=BB0_16 Depth=1
	movq	img, %rax
	movl	72448(%rax), %eax
	movq	img, %rcx
	movl	%eax, 72452(%rcx)
	jmp	.LBB0_25
.LBB0_24:                               # %if.else49
                                        #   in Loop: Header=BB0_16 Depth=1
	movq	img, %rax
	movl	72448(%rax), %eax
	addl	$1, %eax
	movq	img, %rcx
	movl	%eax, 72452(%rcx)
.LBB0_25:                               # %if.end53
                                        #   in Loop: Header=BB0_16 Depth=1
	movq	img, %rax
	movl	72448(%rax), %eax
	movq	img, %rcx
	cmpl	72452(%rcx), %eax
	jge	.LBB0_27
# %bb.26:                               # %cond.true57
                                        #   in Loop: Header=BB0_16 Depth=1
	movq	img, %rax
	movl	72448(%rax), %eax
	jmp	.LBB0_28
.LBB0_27:                               # %cond.false59
                                        #   in Loop: Header=BB0_16 Depth=1
	movq	img, %rax
	movl	72452(%rax), %eax
.LBB0_28:                               # %cond.end61
                                        #   in Loop: Header=BB0_16 Depth=1
	movq	img, %rcx
	movl	%eax, 72456(%rcx)
	movq	input, %rax
	cmpl	$0, 1316(%rax)
	jne	.LBB0_30
# %bb.29:                               # %land.lhs.true64
                                        #   in Loop: Header=BB0_16 Depth=1
	movq	input, %rax
	cmpl	$0, 1320(%rax)
	je	.LBB0_32
.LBB0_30:                               # %lor.lhs.false
                                        #   in Loop: Header=BB0_16 Depth=1
	movq	input, %rax
	cmpl	$0, 1236(%rax)
	je	.LBB0_32
# %bb.31:                               # %lor.lhs.false69
                                        #   in Loop: Header=BB0_16 Depth=1
	movq	img, %rax
	cmpl	$2, (%rax)
	jge	.LBB0_37
.LBB0_32:                               # %if.then72
                                        #   in Loop: Header=BB0_16 Depth=1
	movq	input, %rax
	cmpl	$0, 1224(%rax)
	je	.LBB0_35
# %bb.33:                               # %land.lhs.true75
                                        #   in Loop: Header=BB0_16 Depth=1
	movq	input, %rax
	cmpl	$0, 1228(%rax)
	je	.LBB0_35
# %bb.34:                               # %cond.true78
                                        #   in Loop: Header=BB0_16 Depth=1
	movq	img, %rax
	movl	(%rax), %eax
	subl	start_frame_no_in_this_IGOP, %eax
	movq	input, %rcx
	cltd
	idivl	1224(%rcx)
	movl	%edx, %eax
	jmp	.LBB0_36
.LBB0_35:                               # %cond.false83
                                        #   in Loop: Header=BB0_16 Depth=1
	movq	img, %rax
	movl	(%rax), %eax
	subl	start_frame_no_in_this_IGOP, %eax
.LBB0_36:                               # %cond.end86
                                        #   in Loop: Header=BB0_16 Depth=1
	movl	log2_max_frame_num_minus4, %ecx
	addl	$4, %ecx
                                        # kill: def $cl killed $ecx
	movl	$1, %esi
	shll	%cl, %esi
	cltd
	idivl	%esi
	movq	img, %rax
	movl	%edx, 72464(%rax)
	jmp	.LBB0_43
.LBB0_37:                               # %if.else90
                                        #   in Loop: Header=BB0_16 Depth=1
	movq	img, %rax
	movl	72464(%rax), %ecx
	addl	$1, %ecx
	movl	%ecx, 72464(%rax)
	movq	input, %rax
	cmpl	$0, 1224(%rax)
	je	.LBB0_42
# %bb.38:                               # %land.lhs.true94
                                        #   in Loop: Header=BB0_16 Depth=1
	movq	input, %rax
	cmpl	$0, 1228(%rax)
	je	.LBB0_42
# %bb.39:                               # %if.then97
                                        #   in Loop: Header=BB0_16 Depth=1
	xorl	%ecx, %ecx
	movq	img, %rax
	movl	(%rax), %eax
	movq	input, %rsi
	cltd
	idivl	1224(%rsi)
	cmpl	%edx, %ecx
	jne	.LBB0_41
# %bb.40:                               # %if.then102
                                        #   in Loop: Header=BB0_16 Depth=1
	movq	img, %rax
	movl	$0, 72464(%rax)
.LBB0_41:                               # %if.end104
                                        #   in Loop: Header=BB0_16 Depth=1
	jmp	.LBB0_42
.LBB0_42:                               # %if.end105
                                        #   in Loop: Header=BB0_16 Depth=1
	movl	log2_max_frame_num_minus4, %ecx
	addl	$4, %ecx
                                        # kill: def $cl killed $ecx
	movl	$1, %esi
	shll	%cl, %esi
	movq	img, %rcx
	movl	72464(%rcx), %eax
	xorl	%edx, %edx
	divl	%esi
	movl	%edx, 72464(%rcx)
.LBB0_43:                               # %if.end110
                                        #   in Loop: Header=BB0_16 Depth=1
	movq	img, %rax
	movl	$0, 72436(%rax)
	movq	input, %rax
	cmpl	$0, 1316(%rax)
	je	.LBB0_47
# %bb.44:                               # %if.then113
                                        #   in Loop: Header=BB0_16 Depth=1
	movq	img, %rax
	cmpl	$0, (%rax)
	je	.LBB0_46
# %bb.45:                               # %if.then116
                                        #   in Loop: Header=BB0_16 Depth=1
	movq	input, %rax
	movl	1236(%rax), %eax
	shll	$1, %eax
	movq	img, %rcx
	movl	%eax, 72436(%rcx)
.LBB0_46:                               # %if.end121
                                        #   in Loop: Header=BB0_16 Depth=1
	jmp	.LBB0_47
.LBB0_47:                               # %if.end122
                                        #   in Loop: Header=BB0_16 Depth=1
	callq	SetImgType
	movq	input, %rax
	cmpl	$0, 1236(%rax)
	je	.LBB0_51
# %bb.48:                               # %land.lhs.true125
                                        #   in Loop: Header=BB0_16 Depth=1
	movq	input, %rax
	cmpl	$0, 2440(%rax)
	je	.LBB0_51
# %bb.49:                               # %land.lhs.true128
                                        #   in Loop: Header=BB0_16 Depth=1
	movq	img, %rax
	movl	(%rax), %eax
	subl	start_frame_no_in_this_IGOP, %eax
	addl	$1, %eax
	movq	input, %rcx
	cmpl	8(%rcx), %eax
	jne	.LBB0_51
# %bb.50:                               # %if.then134
                                        #   in Loop: Header=BB0_16 Depth=1
	vmovsd	.LCPI0_0(%rip), %xmm0   # xmm0 = mem[0],zero
	vmovsd	.LCPI0_1(%rip), %xmm1   # xmm1 = mem[0],zero
	movq	input, %rax
	movl	20(%rax), %eax
	addl	$1, %eax
	vcvtsi2ss	%eax, %xmm0, %xmm2
	vcvtss2sd	%xmm2, %xmm0, %xmm2
	movq	input, %rax
	vcvtsi2sdl	1236(%rax), %xmm0, %xmm3
	vaddsd	%xmm1, %xmm3, %xmm1
	vdivsd	%xmm1, %xmm2, %xmm1
	vaddsd	%xmm0, %xmm1, %xmm0
	vcvttsd2si	%xmm0, %eax
	movl	%eax, -24(%rbp)
	movq	input, %rax
	movl	2440(%rax), %eax
	movq	img, %rcx
	movl	(%rcx), %ecx
	subl	$1, %ecx
	movq	input, %rdx
	movl	20(%rdx), %edx
	addl	$1, %edx
	imull	%edx, %ecx
	subl	%ecx, %eax
	cltd
	idivl	-24(%rbp)
	subl	$1, %eax
	movq	input, %rcx
	movl	%eax, 1236(%rcx)
	movl	initial_Bframes, %eax
	movq	input, %rcx
	subl	1236(%rcx), %eax
	imull	$4294967294, %eax, %eax # imm = 0xFFFFFFFE
	movq	img, %rcx
	movl	%eax, 72436(%rcx)
	movq	img, %rax
	movl	72436(%rax), %eax
	movq	img, %rcx
	addl	72448(%rcx), %eax
	movl	%eax, 72448(%rcx)
	movq	img, %rax
	movl	72436(%rax), %eax
	movq	img, %rcx
	addl	72452(%rcx), %eax
	movl	%eax, 72452(%rcx)
.LBB0_51:                               # %if.end167
                                        #   in Loop: Header=BB0_16 Depth=1
	movq	img, %rax
	cmpl	$2, 24(%rax)
	jne	.LBB0_69
# %bb.52:                               # %if.then170
                                        #   in Loop: Header=BB0_16 Depth=1
	movq	input, %rax
	cmpl	$0, 3236(%rax)
	je	.LBB0_68
# %bb.53:                               # %if.then173
                                        #   in Loop: Header=BB0_16 Depth=1
	movq	input, %rax
	cmpl	$0, 1224(%rax)
	jne	.LBB0_55
# %bb.54:                               # %if.then177
                                        #   in Loop: Header=BB0_16 Depth=1
	movq	input, %rax
	movl	8(%rax), %eax
	movq	input, %rcx
	movl	8(%rcx), %ecx
	subl	$1, %ecx
	movq	input, %rdx
	imull	1236(%rdx), %ecx
	addl	%ecx, %eax
	movl	%eax, -4(%rbp)
	movq	input, %rax
	movl	8(%rax), %eax
	subl	$1, %eax
	movl	%eax, -12(%rbp)
	movq	input, %rax
	movl	8(%rax), %eax
	subl	$1, %eax
	movq	input, %rcx
	imull	1236(%rcx), %eax
	movl	%eax, -16(%rbp)
	jmp	.LBB0_67
.LBB0_55:                               # %if.else190
                                        #   in Loop: Header=BB0_16 Depth=1
	movq	input, %rax
	movl	1224(%rax), %eax
	movq	input, %rcx
	movl	1236(%rcx), %ecx
	addl	$1, %ecx
	imull	%ecx, %eax
	movl	%eax, -20(%rbp)
	movq	input, %rax
	movl	1236(%rax), %eax
	addl	$1, %eax
	movl	%eax, -8(%rbp)
	movq	img, %rax
	cmpl	$0, (%rax)
	jne	.LBB0_57
# %bb.56:                               # %cond.true200
                                        #   in Loop: Header=BB0_16 Depth=1
	movl	-20(%rbp), %eax
	movl	-8(%rbp), %ecx
	subl	$1, %ecx
	subl	%ecx, %eax
	jmp	.LBB0_58
.LBB0_57:                               # %cond.false203
                                        #   in Loop: Header=BB0_16 Depth=1
	movl	-20(%rbp), %eax
.LBB0_58:                               # %cond.end204
                                        #   in Loop: Header=BB0_16 Depth=1
	movl	%eax, -4(%rbp)
	movq	img, %rax
	movl	(%rax), %eax
	movq	input, %rcx
	cltd
	idivl	1224(%rcx)
	movl	%eax, %ecx
	movq	input, %rax
	movl	8(%rax), %eax
	movq	input, %rsi
	cltd
	idivl	1224(%rsi)
	cmpl	%eax, %ecx
	jl	.LBB0_63
# %bb.59:                               # %if.then214
                                        #   in Loop: Header=BB0_16 Depth=1
	movq	img, %rax
	cmpl	$0, (%rax)
	je	.LBB0_61
# %bb.60:                               # %if.then218
                                        #   in Loop: Header=BB0_16 Depth=1
	movq	input, %rax
	movl	8(%rax), %eax
	movq	img, %rcx
	subl	(%rcx), %eax
	movq	input, %rcx
	movl	8(%rcx), %ecx
	movq	img, %rdx
	subl	(%rdx), %ecx
	subl	$1, %ecx
	movq	input, %rdx
	imull	1236(%rdx), %ecx
	addl	%ecx, %eax
	movq	input, %rcx
	addl	1236(%rcx), %eax
	movl	%eax, -4(%rbp)
	jmp	.LBB0_62
.LBB0_61:                               # %if.else231
                                        #   in Loop: Header=BB0_16 Depth=1
	movq	input, %rax
	movl	8(%rax), %eax
	movq	input, %rcx
	movl	8(%rcx), %ecx
	subl	$1, %ecx
	movq	input, %rdx
	imull	1236(%rdx), %ecx
	addl	%ecx, %eax
	movl	%eax, -4(%rbp)
.LBB0_62:                               # %if.end238
                                        #   in Loop: Header=BB0_16 Depth=1
	jmp	.LBB0_63
.LBB0_63:                               # %if.end239
                                        #   in Loop: Header=BB0_16 Depth=1
	movq	img, %rax
	cmpl	$0, (%rax)
	jne	.LBB0_65
# %bb.64:                               # %if.then243
                                        #   in Loop: Header=BB0_16 Depth=1
	movl	-4(%rbp), %eax
	movl	-8(%rbp), %ecx
	subl	$1, %ecx
	shll	$1, %ecx
	addl	%ecx, %eax
	cltd
	idivl	-8(%rbp)
	subl	$1, %eax
	movl	%eax, -12(%rbp)
	jmp	.LBB0_66
.LBB0_65:                               # %if.else249
                                        #   in Loop: Header=BB0_16 Depth=1
	movl	-4(%rbp), %eax
	movl	-8(%rbp), %ecx
	subl	$1, %ecx
	addl	%ecx, %eax
	cltd
	idivl	-8(%rbp)
	subl	$1, %eax
	movl	%eax, -12(%rbp)
.LBB0_66:                               # %if.end254
                                        #   in Loop: Header=BB0_16 Depth=1
	movl	-4(%rbp), %eax
	subl	-12(%rbp), %eax
	subl	$1, %eax
	movl	%eax, -16(%rbp)
.LBB0_67:                               # %if.end257
                                        #   in Loop: Header=BB0_16 Depth=1
	movl	-12(%rbp), %edi
	movl	-16(%rbp), %esi
	callq	rc_init_GOP
.LBB0_68:                               # %if.end258
                                        #   in Loop: Header=BB0_16 Depth=1
	jmp	.LBB0_69
.LBB0_69:                               # %if.end259
                                        #   in Loop: Header=BB0_16 Depth=1
	movq	img, %rax
	movl	(%rax), %eax
	subl	start_frame_no_in_this_IGOP, %eax
	movq	input, %rcx
	movl	2912(%rcx), %ecx
	addl	$1, %ecx
	cltd
	idivl	%ecx
	cmpl	$0, %edx
	jne	.LBB0_71
# %bb.70:                               # %if.then266
                                        #   in Loop: Header=BB0_16 Depth=1
	movq	img, %rax
	movl	$0, 72384(%rax)
	jmp	.LBB0_72
.LBB0_71:                               # %if.else267
                                        #   in Loop: Header=BB0_16 Depth=1
	movq	img, %rax
	movl	$1, 72384(%rax)
.LBB0_72:                               # %if.end269
                                        #   in Loop: Header=BB0_16 Depth=1
	movb	$0, %al
	callq	encode_one_frame
	movq	input, %rax
	cmpl	$0, 3228(%rax)
	je	.LBB0_74
# %bb.73:                               # %if.then272
                                        #   in Loop: Header=BB0_16 Depth=1
	callq	report_frame_statistic
.LBB0_74:                               # %if.end273
                                        #   in Loop: Header=BB0_16 Depth=1
	movq	img, %rax
	movl	8(%rax), %ecx
	addl	$1, %ecx
	movl	%ecx, 8(%rax)
	movq	img, %rax
	movl	8(%rax), %eax
	movq	img, %rcx
	cmpl	72376(%rcx), %eax
	jge	.LBB0_76
# %bb.75:                               # %cond.true278
                                        #   in Loop: Header=BB0_16 Depth=1
	movq	img, %rax
	movl	8(%rax), %eax
	jmp	.LBB0_77
.LBB0_76:                               # %cond.false280
                                        #   in Loop: Header=BB0_16 Depth=1
	movq	img, %rax
	movl	72376(%rax), %eax
.LBB0_77:                               # %cond.end282
                                        #   in Loop: Header=BB0_16 Depth=1
	movq	img, %rcx
	movl	%eax, 8(%rcx)
	movb	$0, %al
	callq	encode_enhancement_layer
	callq	process_2nd_IGOP
# %bb.78:                               # %for.inc
                                        #   in Loop: Header=BB0_16 Depth=1
	movq	img, %rax
	movl	(%rax), %ecx
	addl	$1, %ecx
	movl	%ecx, (%rax)
	jmp	.LBB0_16
.LBB0_79:                               # %for.end
	movb	$0, %al
	callq	terminate_sequence
	movb	$0, %al
	callq	flush_dpb
	movl	p_in, %edi
	callq	close
	movl	$4294967295, %eax       # imm = 0xFFFFFFFF
	cmpl	p_dec, %eax
	je	.LBB0_81
# %bb.80:                               # %if.then291
	movl	p_dec, %edi
	callq	close
.LBB0_81:                               # %if.end293
	cmpq	$0, p_trace
	je	.LBB0_83
# %bb.82:                               # %if.then295
	movq	p_trace, %rdi
	callq	fclose
.LBB0_83:                               # %if.end297
	movb	$0, %al
	callq	Clear_Motion_Search_Module
	movb	$0, %al
	callq	RandomIntraUninit
	movb	$0, %al
	callq	FmoUninit
	movq	input, %rax
	cmpl	$0, 1320(%rax)
	je	.LBB0_85
# %bb.84:                               # %if.then300
	movb	$0, %al
	callq	clear_gop_structure
.LBB0_85:                               # %if.end301
	movb	$0, %al
	callq	clear_rdopt
	movb	$0, %al
	callq	calc_buffer
	callq	report
	movq	frame_pic, %rdi
	callq	free_picture
	movq	input, %rax
	cmpl	$0, 1296(%rax)
	je	.LBB0_87
# %bb.86:                               # %if.then304
	movq	frame_pic2, %rdi
	callq	free_picture
	movq	frame_pic3, %rdi
	callq	free_picture
.LBB0_87:                               # %if.end305
	cmpq	$0, top_pic
	je	.LBB0_89
# %bb.88:                               # %if.then307
	movq	top_pic, %rdi
	callq	free_picture
.LBB0_89:                               # %if.end308
	cmpq	$0, bottom_pic
	je	.LBB0_91
# %bb.90:                               # %if.then310
	movq	bottom_pic, %rdi
	callq	free_picture
.LBB0_91:                               # %if.end311
	movb	$0, %al
	callq	free_dpb
	movq	Co_located, %rdi
	callq	free_colocated
	movb	$0, %al
	callq	uninit_out_buffer
	callq	free_global_buffers
	callq	free_img
	movb	$0, %al
	callq	free_context_memory
	movb	$0, %al
	callq	FreeNalPayloadBuffer
	movb	$0, %al
	callq	FreeParameterSets
	xorl	%eax, %eax
	addq	$48, %rsp
	popq	%rbp
	.cfi_def_cfa %rsp, 8
	retq
.Lfunc_end0:
	.size	main, .Lfunc_end0-main
	.cfi_endproc
                                        # -- End function
	.globl	free_picture            # -- Begin function free_picture
	.p2align	4, 0x90
	.type	free_picture,@function
free_picture:                           # @free_picture
	.cfi_startproc
# %bb.0:                                # %entry
	pushq	%rbp
	.cfi_def_cfa_offset 16
	.cfi_offset %rbp, -16
	movq	%rsp, %rbp
	.cfi_def_cfa_register %rbp
	subq	$16, %rsp
	movq	%rdi, -8(%rbp)
	cmpq	$0, -8(%rbp)
	je	.LBB1_2
# %bb.1:                                # %if.then
	movq	-8(%rbp), %rdi
	callq	free_slice_list
	movq	-8(%rbp), %rdi
	callq	free
.LBB1_2:                                # %if.end
	addq	$16, %rsp
	popq	%rbp
	.cfi_def_cfa %rsp, 8
	retq
.Lfunc_end1:
	.size	free_picture, .Lfunc_end1-free_picture
	.cfi_endproc
                                        # -- End function
	.globl	report_stats_on_error   # -- Begin function report_stats_on_error
	.p2align	4, 0x90
	.type	report_stats_on_error,@function
report_stats_on_error:                  # @report_stats_on_error
	.cfi_startproc
# %bb.0:                                # %entry
	pushq	%rbp
	.cfi_def_cfa_offset 16
	.cfi_offset %rbp, -16
	movq	%rsp, %rbp
	.cfi_def_cfa_register %rbp
	movq	img, %rax
	movl	(%rax), %eax
	subl	$1, %eax
	movq	input, %rcx
	movl	%eax, 8(%rcx)
	movb	$0, %al
	callq	terminate_sequence
	movb	$0, %al
	callq	flush_dpb
	movl	p_in, %edi
	callq	close
	movl	$4294967295, %eax       # imm = 0xFFFFFFFF
	cmpl	p_dec, %eax
	je	.LBB2_2
# %bb.1:                                # %if.then
	movl	p_dec, %edi
	callq	close
.LBB2_2:                                # %if.end
	cmpq	$0, p_trace
	je	.LBB2_4
# %bb.3:                                # %if.then3
	movq	p_trace, %rdi
	callq	fclose
.LBB2_4:                                # %if.end5
	movb	$0, %al
	callq	Clear_Motion_Search_Module
	movb	$0, %al
	callq	RandomIntraUninit
	movb	$0, %al
	callq	FmoUninit
	movq	input, %rax
	cmpl	$0, 1320(%rax)
	je	.LBB2_6
# %bb.5:                                # %if.then7
	movb	$0, %al
	callq	clear_gop_structure
.LBB2_6:                                # %if.end8
	movb	$0, %al
	callq	clear_rdopt
	movb	$0, %al
	callq	calc_buffer
	movq	input, %rax
	cmpl	$0, 3228(%rax)
	je	.LBB2_8
# %bb.7:                                # %if.then10
	callq	report_frame_statistic
.LBB2_8:                                # %if.end11
	callq	report
	movq	frame_pic, %rdi
	callq	free_picture
	cmpq	$0, top_pic
	je	.LBB2_10
# %bb.9:                                # %if.then13
	movq	top_pic, %rdi
	callq	free_picture
.LBB2_10:                               # %if.end14
	cmpq	$0, bottom_pic
	je	.LBB2_12
# %bb.11:                               # %if.then16
	movq	bottom_pic, %rdi
	callq	free_picture
.LBB2_12:                               # %if.end17
	movb	$0, %al
	callq	free_dpb
	movq	Co_located, %rdi
	callq	free_colocated
	movb	$0, %al
	callq	uninit_out_buffer
	callq	free_global_buffers
	callq	free_img
	movb	$0, %al
	callq	free_context_memory
	movb	$0, %al
	callq	FreeNalPayloadBuffer
	movb	$0, %al
	callq	FreeParameterSets
	popq	%rbp
	.cfi_def_cfa %rsp, 8
	retq
.Lfunc_end2:
	.size	report_stats_on_error, .Lfunc_end2-report_stats_on_error
	.cfi_endproc
                                        # -- End function
	.globl	init_poc                # -- Begin function init_poc
	.p2align	4, 0x90
	.type	init_poc,@function
init_poc:                               # @init_poc
	.cfi_startproc
# %bb.0:                                # %entry
	pushq	%rbp
	.cfi_def_cfa_offset 16
	.cfi_offset %rbp, -16
	movq	%rsp, %rbp
	.cfi_def_cfa_register %rbp
	movq	input, %rax
	movl	3208(%rax), %eax
	movq	img, %rcx
	movl	%eax, 72404(%rcx)
	movq	img, %rax
	movl	$0, 72408(%rax)
	movq	img, %rax
	movl	$1, 72420(%rax)
	movq	input, %rax
	cmpl	$0, 1316(%rax)
	je	.LBB3_2
# %bb.1:                                # %if.then
	movq	img, %rax
	movl	$0, 72412(%rax)
	movq	img, %rax
	movl	$2, 72424(%rax)
	jmp	.LBB3_3
.LBB3_2:                                # %if.else
	movq	input, %rax
	imull	$4294967294, 1236(%rax), %eax # imm = 0xFFFFFFFE
	movq	img, %rcx
	movl	%eax, 72412(%rcx)
	movq	input, %rax
	movl	1236(%rax), %eax
	addl	$1, %eax
	shll	$1, %eax
	movq	img, %rcx
	movl	%eax, 72424(%rcx)
.LBB3_3:                                # %if.end
	movq	input, %rax
	cmpl	$0, 2880(%rax)
	jne	.LBB3_6
# %bb.4:                                # %land.lhs.true
	movq	input, %rax
	cmpl	$0, 2884(%rax)
	jne	.LBB3_6
# %bb.5:                                # %if.then8
	movq	img, %rax
	movl	$0, 72416(%rax)
	jmp	.LBB3_7
.LBB3_6:                                # %if.else9
	movq	img, %rax
	movl	$1, 72416(%rax)
.LBB3_7:                                # %if.end11
	movq	input, %rax
	cmpl	$0, 2880(%rax)
	jne	.LBB3_10
# %bb.8:                                # %land.lhs.true14
	movq	input, %rax
	cmpl	$0, 2884(%rax)
	jne	.LBB3_10
# %bb.9:                                # %if.then17
	movq	img, %rax
	movl	$0, 72492(%rax)
	movq	img, %rax
	movl	$0, 72432(%rax)
	jmp	.LBB3_11
.LBB3_10:                               # %if.else18
	movq	img, %rax
	movl	$1, 72492(%rax)
	movq	img, %rax
	movl	$1, 72432(%rax)
.LBB3_11:                               # %if.end21
	popq	%rbp
	.cfi_def_cfa %rsp, 8
	retq
.Lfunc_end3:
	.size	init_poc, .Lfunc_end3-init_poc
	.cfi_endproc
                                        # -- End function
	.globl	CAVLC_init              # -- Begin function CAVLC_init
	.p2align	4, 0x90
	.type	CAVLC_init,@function
CAVLC_init:                             # @CAVLC_init
	.cfi_startproc
# %bb.0:                                # %rand_bb
	pushq	%rbp
	.cfi_def_cfa_offset 16
	.cfi_offset %rbp, -16
	movq	%rsp, %rbp
	.cfi_def_cfa_register %rbp
	callq	get_urand
	cmpl	$0, %eax
	jne	.LBB4_7
# %bb.1:                                # %func_CAVLC_init.8
	callq	CAVLC_init.8
	popq	%rbp
	.cfi_def_cfa %rsp, 8
	retq
.LBB4_2:                                # %func_CAVLC_init.15
	.cfi_def_cfa %rbp, 16
	callq	CAVLC_init.15
	popq	%rbp
	.cfi_def_cfa %rsp, 8
	retq
.LBB4_3:                                # %func_CAVLC_init.25
	.cfi_def_cfa %rbp, 16
	callq	CAVLC_init.25
	popq	%rbp
	.cfi_def_cfa %rsp, 8
	retq
.LBB4_4:                                # %func_CAVLC_init.50
	.cfi_def_cfa %rbp, 16
	callq	CAVLC_init.50
	popq	%rbp
	.cfi_def_cfa %rsp, 8
	retq
.LBB4_5:                                # %func_CAVLC_init.59
	.cfi_def_cfa %rbp, 16
	callq	CAVLC_init.59
	popq	%rbp
	.cfi_def_cfa %rsp, 8
	retq
.LBB4_6:                                # %func_CAVLC_init.63
	.cfi_def_cfa %rbp, 16
	callq	CAVLC_init.63
	popq	%rbp
	.cfi_def_cfa %rsp, 8
	retq
.LBB4_7:                                # %ctrl0
	.cfi_def_cfa %rbp, 16
	cmpl	$1, %eax
	je	.LBB4_2
# %bb.8:                                # %ctrl1
	cmpl	$2, %eax
	je	.LBB4_3
# %bb.9:                                # %ctrl2
	cmpl	$3, %eax
	je	.LBB4_4
# %bb.10:                               # %ctrl3
	cmpl	$4, %eax
	je	.LBB4_5
	jmp	.LBB4_6
.Lfunc_end4:
	.size	CAVLC_init, .Lfunc_end4-CAVLC_init
	.cfi_endproc
                                        # -- End function
	.globl	init_img                # -- Begin function init_img
	.p2align	4, 0x90
	.type	init_img,@function
init_img:                               # @init_img
	.cfi_startproc
# %bb.0:                                # %rand_bb
	pushq	%rbp
	.cfi_def_cfa_offset 16
	.cfi_offset %rbp, -16
	movq	%rsp, %rbp
	.cfi_def_cfa_register %rbp
	callq	get_urand
	cmpl	$0, %eax
	jne	.LBB5_7
# %bb.1:                                # %func_init_img.11
	callq	init_img.11
	popq	%rbp
	.cfi_def_cfa %rsp, 8
	retq
.LBB5_2:                                # %func_init_img.13
	.cfi_def_cfa %rbp, 16
	callq	init_img.13
	popq	%rbp
	.cfi_def_cfa %rsp, 8
	retq
.LBB5_3:                                # %func_init_img.24
	.cfi_def_cfa %rbp, 16
	callq	init_img.24
	popq	%rbp
	.cfi_def_cfa %rsp, 8
	retq
.LBB5_4:                                # %func_init_img.26
	.cfi_def_cfa %rbp, 16
	callq	init_img.26
	popq	%rbp
	.cfi_def_cfa %rsp, 8
	retq
.LBB5_5:                                # %func_init_img.43
	.cfi_def_cfa %rbp, 16
	callq	init_img.43
	popq	%rbp
	.cfi_def_cfa %rsp, 8
	retq
.LBB5_6:                                # %func_init_img.57
	.cfi_def_cfa %rbp, 16
	callq	init_img.57
	popq	%rbp
	.cfi_def_cfa %rsp, 8
	retq
.LBB5_7:                                # %ctrl0
	.cfi_def_cfa %rbp, 16
	cmpl	$1, %eax
	je	.LBB5_2
# %bb.8:                                # %ctrl1
	cmpl	$2, %eax
	je	.LBB5_3
# %bb.9:                                # %ctrl2
	cmpl	$3, %eax
	je	.LBB5_4
# %bb.10:                               # %ctrl3
	cmpl	$4, %eax
	je	.LBB5_5
	jmp	.LBB5_6
.Lfunc_end5:
	.size	init_img, .Lfunc_end5-init_img
	.cfi_endproc
                                        # -- End function
	.globl	get_mem_mv              # -- Begin function get_mem_mv
	.p2align	4, 0x90
	.type	get_mem_mv,@function
get_mem_mv:                             # @get_mem_mv
	.cfi_startproc
# %bb.0:                                # %rand_bb
	pushq	%rbp
	.cfi_def_cfa_offset 16
	.cfi_offset %rbp, -16
	movq	%rsp, %rbp
	.cfi_def_cfa_register %rbp
	pushq	%rbx
	pushq	%rax
	.cfi_offset %rbx, -24
	movq	%rdi, %rbx
	callq	get_urand
	cmpl	$0, %eax
	jne	.LBB6_17
# %bb.1:                                # %func_get_mem_mv.12
	movq	%rbx, %rdi
	callq	get_mem_mv.12
	addq	$8, %rsp
	popq	%rbx
	popq	%rbp
	.cfi_def_cfa %rsp, 8
	retq
.LBB6_2:                                # %func_get_mem_mv.21
	.cfi_def_cfa %rbp, 16
	movq	%rbx, %rdi
	callq	get_mem_mv.21
	addq	$8, %rsp
	popq	%rbx
	popq	%rbp
	.cfi_def_cfa %rsp, 8
	retq
.LBB6_3:                                # %func_get_mem_mv.32
	.cfi_def_cfa %rbp, 16
	movq	%rbx, %rdi
	callq	get_mem_mv.32
	addq	$8, %rsp
	popq	%rbx
	popq	%rbp
	.cfi_def_cfa %rsp, 8
	retq
.LBB6_4:                                # %func_get_mem_mv.41
	.cfi_def_cfa %rbp, 16
	movq	%rbx, %rdi
	callq	get_mem_mv.41
	addq	$8, %rsp
	popq	%rbx
	popq	%rbp
	.cfi_def_cfa %rsp, 8
	retq
.LBB6_5:                                # %func_get_mem_mv.46
	.cfi_def_cfa %rbp, 16
	movq	%rbx, %rdi
	callq	get_mem_mv.46
	addq	$8, %rsp
	popq	%rbx
	popq	%rbp
	.cfi_def_cfa %rsp, 8
	retq
.LBB6_6:                                # %func_get_mem_mv.53
	.cfi_def_cfa %rbp, 16
	movq	%rbx, %rdi
	callq	get_mem_mv.53
	addq	$8, %rsp
	popq	%rbx
	popq	%rbp
	.cfi_def_cfa %rsp, 8
	retq
.LBB6_7:                                # %func_get_mem_mv.61
	.cfi_def_cfa %rbp, 16
	movq	%rbx, %rdi
	callq	get_mem_mv.61
	addq	$8, %rsp
	popq	%rbx
	popq	%rbp
	.cfi_def_cfa %rsp, 8
	retq
.LBB6_8:                                # %func_get_mem_mv.64
	.cfi_def_cfa %rbp, 16
	movq	%rbx, %rdi
	callq	get_mem_mv.64
	addq	$8, %rsp
	popq	%rbx
	popq	%rbp
	.cfi_def_cfa %rsp, 8
	retq
.LBB6_9:                                # %func_get_mem_mv.68
	.cfi_def_cfa %rbp, 16
	movq	%rbx, %rdi
	callq	get_mem_mv.68
	addq	$8, %rsp
	popq	%rbx
	popq	%rbp
	.cfi_def_cfa %rsp, 8
	retq
.LBB6_10:                               # %func_get_mem_mv.69
	.cfi_def_cfa %rbp, 16
	movq	%rbx, %rdi
	callq	get_mem_mv.69
	addq	$8, %rsp
	popq	%rbx
	popq	%rbp
	.cfi_def_cfa %rsp, 8
	retq
.LBB6_11:                               # %func_get_mem_mv.74
	.cfi_def_cfa %rbp, 16
	movq	%rbx, %rdi
	callq	get_mem_mv.74
	addq	$8, %rsp
	popq	%rbx
	popq	%rbp
	.cfi_def_cfa %rsp, 8
	retq
.LBB6_12:                               # %func_get_mem_mv.76
	.cfi_def_cfa %rbp, 16
	movq	%rbx, %rdi
	callq	get_mem_mv.76
	addq	$8, %rsp
	popq	%rbx
	popq	%rbp
	.cfi_def_cfa %rsp, 8
	retq
.LBB6_13:                               # %func_get_mem_mv.78
	.cfi_def_cfa %rbp, 16
	movq	%rbx, %rdi
	callq	get_mem_mv.78
	addq	$8, %rsp
	popq	%rbx
	popq	%rbp
	.cfi_def_cfa %rsp, 8
	retq
.LBB6_14:                               # %func_get_mem_mv.87
	.cfi_def_cfa %rbp, 16
	movq	%rbx, %rdi
	callq	get_mem_mv.87
	addq	$8, %rsp
	popq	%rbx
	popq	%rbp
	.cfi_def_cfa %rsp, 8
	retq
.LBB6_15:                               # %func_get_mem_mv.94
	.cfi_def_cfa %rbp, 16
	movq	%rbx, %rdi
	callq	get_mem_mv.94
	addq	$8, %rsp
	popq	%rbx
	popq	%rbp
	.cfi_def_cfa %rsp, 8
	retq
.LBB6_16:                               # %func_get_mem_mv.108
	.cfi_def_cfa %rbp, 16
	movq	%rbx, %rdi
	callq	get_mem_mv.108
	addq	$8, %rsp
	popq	%rbx
	popq	%rbp
	.cfi_def_cfa %rsp, 8
	retq
.LBB6_17:                               # %ctrl0
	.cfi_def_cfa %rbp, 16
	cmpl	$1, %eax
	je	.LBB6_2
# %bb.18:                               # %ctrl1
	cmpl	$2, %eax
	je	.LBB6_3
# %bb.19:                               # %ctrl2
	cmpl	$3, %eax
	je	.LBB6_4
# %bb.20:                               # %ctrl3
	cmpl	$4, %eax
	je	.LBB6_5
# %bb.21:                               # %ctrl4
	cmpl	$5, %eax
	je	.LBB6_6
# %bb.22:                               # %ctrl5
	cmpl	$6, %eax
	je	.LBB6_7
# %bb.23:                               # %ctrl6
	cmpl	$7, %eax
	je	.LBB6_8
# %bb.24:                               # %ctrl7
	cmpl	$8, %eax
	je	.LBB6_9
# %bb.25:                               # %ctrl8
	cmpl	$9, %eax
	je	.LBB6_10
# %bb.26:                               # %ctrl9
	cmpl	$10, %eax
	je	.LBB6_11
# %bb.27:                               # %ctrl10
	cmpl	$11, %eax
	je	.LBB6_12
# %bb.28:                               # %ctrl11
	cmpl	$12, %eax
	je	.LBB6_13
# %bb.29:                               # %ctrl12
	cmpl	$13, %eax
	je	.LBB6_14
# %bb.30:                               # %ctrl13
	cmpl	$14, %eax
	je	.LBB6_15
	jmp	.LBB6_16
.Lfunc_end6:
	.size	get_mem_mv, .Lfunc_end6-get_mem_mv
	.cfi_endproc
                                        # -- End function
	.globl	get_mem_ACcoeff         # -- Begin function get_mem_ACcoeff
	.p2align	4, 0x90
	.type	get_mem_ACcoeff,@function
get_mem_ACcoeff:                        # @get_mem_ACcoeff
	.cfi_startproc
# %bb.0:                                # %rand_bb
	pushq	%rbp
	.cfi_def_cfa_offset 16
	.cfi_offset %rbp, -16
	movq	%rsp, %rbp
	.cfi_def_cfa_register %rbp
	pushq	%rbx
	pushq	%rax
	.cfi_offset %rbx, -24
	movq	%rdi, %rbx
	callq	get_urand
	cmpl	$0, %eax
	jne	.LBB7_17
# %bb.1:                                # %func_get_mem_ACcoeff.3
	movq	%rbx, %rdi
	callq	get_mem_ACcoeff.3
	addq	$8, %rsp
	popq	%rbx
	popq	%rbp
	.cfi_def_cfa %rsp, 8
	retq
.LBB7_2:                                # %func_get_mem_ACcoeff.42
	.cfi_def_cfa %rbp, 16
	movq	%rbx, %rdi
	callq	get_mem_ACcoeff.42
	addq	$8, %rsp
	popq	%rbx
	popq	%rbp
	.cfi_def_cfa %rsp, 8
	retq
.LBB7_3:                                # %func_get_mem_ACcoeff.45
	.cfi_def_cfa %rbp, 16
	movq	%rbx, %rdi
	callq	get_mem_ACcoeff.45
	addq	$8, %rsp
	popq	%rbx
	popq	%rbp
	.cfi_def_cfa %rsp, 8
	retq
.LBB7_4:                                # %func_get_mem_ACcoeff.90
	.cfi_def_cfa %rbp, 16
	movq	%rbx, %rdi
	callq	get_mem_ACcoeff.90
	addq	$8, %rsp
	popq	%rbx
	popq	%rbp
	.cfi_def_cfa %rsp, 8
	retq
.LBB7_5:                                # %func_get_mem_ACcoeff.92
	.cfi_def_cfa %rbp, 16
	movq	%rbx, %rdi
	callq	get_mem_ACcoeff.92
	addq	$8, %rsp
	popq	%rbx
	popq	%rbp
	.cfi_def_cfa %rsp, 8
	retq
.LBB7_6:                                # %func_get_mem_ACcoeff.102
	.cfi_def_cfa %rbp, 16
	movq	%rbx, %rdi
	callq	get_mem_ACcoeff.102
	addq	$8, %rsp
	popq	%rbx
	popq	%rbp
	.cfi_def_cfa %rsp, 8
	retq
.LBB7_7:                                # %func_get_mem_ACcoeff.103
	.cfi_def_cfa %rbp, 16
	movq	%rbx, %rdi
	callq	get_mem_ACcoeff.103
	addq	$8, %rsp
	popq	%rbx
	popq	%rbp
	.cfi_def_cfa %rsp, 8
	retq
.LBB7_8:                                # %func_get_mem_ACcoeff.106
	.cfi_def_cfa %rbp, 16
	movq	%rbx, %rdi
	callq	get_mem_ACcoeff.106
	addq	$8, %rsp
	popq	%rbx
	popq	%rbp
	.cfi_def_cfa %rsp, 8
	retq
.LBB7_9:                                # %func_get_mem_ACcoeff.109
	.cfi_def_cfa %rbp, 16
	movq	%rbx, %rdi
	callq	get_mem_ACcoeff.109
	addq	$8, %rsp
	popq	%rbx
	popq	%rbp
	.cfi_def_cfa %rsp, 8
	retq
.LBB7_10:                               # %func_get_mem_ACcoeff.113
	.cfi_def_cfa %rbp, 16
	movq	%rbx, %rdi
	callq	get_mem_ACcoeff.113
	addq	$8, %rsp
	popq	%rbx
	popq	%rbp
	.cfi_def_cfa %rsp, 8
	retq
.LBB7_11:                               # %func_get_mem_ACcoeff.118
	.cfi_def_cfa %rbp, 16
	movq	%rbx, %rdi
	callq	get_mem_ACcoeff.118
	addq	$8, %rsp
	popq	%rbx
	popq	%rbp
	.cfi_def_cfa %rsp, 8
	retq
.LBB7_12:                               # %func_get_mem_ACcoeff.122
	.cfi_def_cfa %rbp, 16
	movq	%rbx, %rdi
	callq	get_mem_ACcoeff.122
	addq	$8, %rsp
	popq	%rbx
	popq	%rbp
	.cfi_def_cfa %rsp, 8
	retq
.LBB7_13:                               # %func_get_mem_ACcoeff.123
	.cfi_def_cfa %rbp, 16
	movq	%rbx, %rdi
	callq	get_mem_ACcoeff.123
	addq	$8, %rsp
	popq	%rbx
	popq	%rbp
	.cfi_def_cfa %rsp, 8
	retq
.LBB7_14:                               # %func_get_mem_ACcoeff.126
	.cfi_def_cfa %rbp, 16
	movq	%rbx, %rdi
	callq	get_mem_ACcoeff.126
	addq	$8, %rsp
	popq	%rbx
	popq	%rbp
	.cfi_def_cfa %rsp, 8
	retq
.LBB7_15:                               # %func_get_mem_ACcoeff.127
	.cfi_def_cfa %rbp, 16
	movq	%rbx, %rdi
	callq	get_mem_ACcoeff.127
	addq	$8, %rsp
	popq	%rbx
	popq	%rbp
	.cfi_def_cfa %rsp, 8
	retq
.LBB7_16:                               # %func_get_mem_ACcoeff.128
	.cfi_def_cfa %rbp, 16
	movq	%rbx, %rdi
	callq	get_mem_ACcoeff.128
	addq	$8, %rsp
	popq	%rbx
	popq	%rbp
	.cfi_def_cfa %rsp, 8
	retq
.LBB7_17:                               # %ctrl0
	.cfi_def_cfa %rbp, 16
	cmpl	$1, %eax
	je	.LBB7_2
# %bb.18:                               # %ctrl1
	cmpl	$2, %eax
	je	.LBB7_3
# %bb.19:                               # %ctrl2
	cmpl	$3, %eax
	je	.LBB7_4
# %bb.20:                               # %ctrl3
	cmpl	$4, %eax
	je	.LBB7_5
# %bb.21:                               # %ctrl4
	cmpl	$5, %eax
	je	.LBB7_6
# %bb.22:                               # %ctrl5
	cmpl	$6, %eax
	je	.LBB7_7
# %bb.23:                               # %ctrl6
	cmpl	$7, %eax
	je	.LBB7_8
# %bb.24:                               # %ctrl7
	cmpl	$8, %eax
	je	.LBB7_9
# %bb.25:                               # %ctrl8
	cmpl	$9, %eax
	je	.LBB7_10
# %bb.26:                               # %ctrl9
	cmpl	$10, %eax
	je	.LBB7_11
# %bb.27:                               # %ctrl10
	cmpl	$11, %eax
	je	.LBB7_12
# %bb.28:                               # %ctrl11
	cmpl	$12, %eax
	je	.LBB7_13
# %bb.29:                               # %ctrl12
	cmpl	$13, %eax
	je	.LBB7_14
# %bb.30:                               # %ctrl13
	cmpl	$14, %eax
	je	.LBB7_15
	jmp	.LBB7_16
.Lfunc_end7:
	.size	get_mem_ACcoeff, .Lfunc_end7-get_mem_ACcoeff
	.cfi_endproc
                                        # -- End function
	.globl	get_mem_DCcoeff         # -- Begin function get_mem_DCcoeff
	.p2align	4, 0x90
	.type	get_mem_DCcoeff,@function
get_mem_DCcoeff:                        # @get_mem_DCcoeff
	.cfi_startproc
# %bb.0:                                # %rand_bb
	pushq	%rbp
	.cfi_def_cfa_offset 16
	.cfi_offset %rbp, -16
	movq	%rsp, %rbp
	.cfi_def_cfa_register %rbp
	pushq	%rbx
	pushq	%rax
	.cfi_offset %rbx, -24
	movq	%rdi, %rbx
	callq	get_urand
	cmpl	$0, %eax
	jne	.LBB8_7
# %bb.1:                                # %func_get_mem_DCcoeff.2
	movq	%rbx, %rdi
	callq	get_mem_DCcoeff.2
	addq	$8, %rsp
	popq	%rbx
	popq	%rbp
	.cfi_def_cfa %rsp, 8
	retq
.LBB8_2:                                # %func_get_mem_DCcoeff.28
	.cfi_def_cfa %rbp, 16
	movq	%rbx, %rdi
	callq	get_mem_DCcoeff.28
	addq	$8, %rsp
	popq	%rbx
	popq	%rbp
	.cfi_def_cfa %rsp, 8
	retq
.LBB8_3:                                # %func_get_mem_DCcoeff.51
	.cfi_def_cfa %rbp, 16
	movq	%rbx, %rdi
	callq	get_mem_DCcoeff.51
	addq	$8, %rsp
	popq	%rbx
	popq	%rbp
	.cfi_def_cfa %rsp, 8
	retq
.LBB8_4:                                # %func_get_mem_DCcoeff.73
	.cfi_def_cfa %rbp, 16
	movq	%rbx, %rdi
	callq	get_mem_DCcoeff.73
	addq	$8, %rsp
	popq	%rbx
	popq	%rbp
	.cfi_def_cfa %rsp, 8
	retq
.LBB8_5:                                # %func_get_mem_DCcoeff.85
	.cfi_def_cfa %rbp, 16
	movq	%rbx, %rdi
	callq	get_mem_DCcoeff.85
	addq	$8, %rsp
	popq	%rbx
	popq	%rbp
	.cfi_def_cfa %rsp, 8
	retq
.LBB8_6:                                # %func_get_mem_DCcoeff.89
	.cfi_def_cfa %rbp, 16
	movq	%rbx, %rdi
	callq	get_mem_DCcoeff.89
	addq	$8, %rsp
	popq	%rbx
	popq	%rbp
	.cfi_def_cfa %rsp, 8
	retq
.LBB8_7:                                # %ctrl0
	.cfi_def_cfa %rbp, 16
	cmpl	$1, %eax
	je	.LBB8_2
# %bb.8:                                # %ctrl1
	cmpl	$2, %eax
	je	.LBB8_3
# %bb.9:                                # %ctrl2
	cmpl	$3, %eax
	je	.LBB8_4
# %bb.10:                               # %ctrl3
	cmpl	$4, %eax
	je	.LBB8_5
	jmp	.LBB8_6
.Lfunc_end8:
	.size	get_mem_DCcoeff, .Lfunc_end8-get_mem_DCcoeff
	.cfi_endproc
                                        # -- End function
	.globl	free_img                # -- Begin function free_img
	.p2align	4, 0x90
	.type	free_img,@function
free_img:                               # @free_img
	.cfi_startproc
# %bb.0:                                # %entry
	pushq	%rbp
	.cfi_def_cfa_offset 16
	.cfi_offset %rbp, -16
	movq	%rsp, %rbp
	.cfi_def_cfa_register %rbp
	movb	$0, %al
	callq	CloseSEIMessages
	movq	img, %rax
	movq	71920(%rax), %rdi
	callq	free_mem_mv
	movq	img, %rax
	movq	71928(%rax), %rdi
	callq	free_mem_mv
	movq	input, %rax
	cmpl	$0, 1256(%rax)
	je	.LBB9_2
# %bb.1:                                # %if.then
	movq	img, %rax
	movq	71936(%rax), %rdi
	callq	free_mem_mv
	movq	img, %rax
	movq	71944(%rax), %rdi
	callq	free_mem_mv
.LBB9_2:                                # %if.end
	movq	img, %rax
	movq	14136(%rax), %rdi
	callq	free_mem_ACcoeff
	movq	img, %rax
	movq	14144(%rax), %rdi
	callq	free_mem_DCcoeff
	movq	input, %rax
	cmpl	$0, 2884(%rax)
	je	.LBB9_6
# %bb.3:                                # %if.then2
	movq	rddata_top_frame_mb+3232, %rdi
	callq	free_mem_mv
	movq	rddata_top_frame_mb+3240, %rdi
	callq	free_mem_mv
	movq	rddata_bot_frame_mb+3232, %rdi
	callq	free_mem_mv
	movq	rddata_bot_frame_mb+3240, %rdi
	callq	free_mem_mv
	movq	rddata_top_field_mb+3232, %rdi
	callq	free_mem_mv
	movq	rddata_top_field_mb+3240, %rdi
	callq	free_mem_mv
	movq	rddata_bot_field_mb+3232, %rdi
	callq	free_mem_mv
	movq	rddata_bot_field_mb+3240, %rdi
	callq	free_mem_mv
	movq	input, %rax
	cmpl	$0, 1256(%rax)
	je	.LBB9_5
# %bb.4:                                # %if.then5
	movq	rddata_top_frame_mb+3248, %rdi
	callq	free_mem_mv
	movq	rddata_top_frame_mb+3256, %rdi
	callq	free_mem_mv
	movq	rddata_bot_frame_mb+3248, %rdi
	callq	free_mem_mv
	movq	rddata_bot_frame_mb+3256, %rdi
	callq	free_mem_mv
	movq	rddata_top_field_mb+3248, %rdi
	callq	free_mem_mv
	movq	rddata_top_field_mb+3256, %rdi
	callq	free_mem_mv
	movq	rddata_bot_field_mb+3248, %rdi
	callq	free_mem_mv
	movq	rddata_bot_field_mb+3256, %rdi
	callq	free_mem_mv
.LBB9_5:                                # %if.end6
	movq	rddata_top_frame_mb+3080, %rdi
	callq	free_mem_ACcoeff
	movq	rddata_top_frame_mb+3088, %rdi
	callq	free_mem_DCcoeff
	movq	rddata_bot_frame_mb+3080, %rdi
	callq	free_mem_ACcoeff
	movq	rddata_bot_frame_mb+3088, %rdi
	callq	free_mem_DCcoeff
	movq	rddata_top_field_mb+3080, %rdi
	callq	free_mem_ACcoeff
	movq	rddata_top_field_mb+3088, %rdi
	callq	free_mem_DCcoeff
	movq	rddata_bot_field_mb+3080, %rdi
	callq	free_mem_ACcoeff
	movq	rddata_bot_field_mb+3088, %rdi
	callq	free_mem_DCcoeff
.LBB9_6:                                # %if.end7
	movq	img, %rax
	movl	72684(%rax), %eax
	movq	img, %rcx
	cmpl	72688(%rcx), %eax
	jle	.LBB9_8
# %bb.7:                                # %if.then8
	xorl	%eax, %eax
	movq	img, %rcx
	movq	71776(%rcx), %rdi
	movq	img, %rcx
	movl	72684(%rcx), %ecx
	addl	$1, %ecx
	movslq	%ecx, %rcx
	subq	%rcx, %rax
	shlq	$2, %rax
	addq	%rax, %rdi
	callq	free
	jmp	.LBB9_9
.LBB9_8:                                # %if.else
	xorl	%eax, %eax
	movq	img, %rcx
	movq	71776(%rcx), %rdi
	movq	img, %rcx
	movl	72688(%rcx), %ecx
	addl	$1, %ecx
	movslq	%ecx, %rcx
	subq	%rcx, %rax
	shlq	$2, %rax
	addq	%rax, %rdi
	callq	free
.LBB9_9:                                # %if.end16
	movq	input, %rax
	cmpl	$0, 2884(%rax)
	je	.LBB9_11
# %bb.10:                               # %if.then19
	movq	rddata_bot_frame_mb+3136, %rdi
	callq	free_mem2Dint
	movq	rddata_top_field_mb+3136, %rdi
	callq	free_mem2Dint
	movq	rddata_bot_field_mb+3136, %rdi
	callq	free_mem2Dint
.LBB9_11:                               # %if.end20
	popq	%rbp
	.cfi_def_cfa %rsp, 8
	retq
.Lfunc_end9:
	.size	free_img, .Lfunc_end9-free_img
	.cfi_endproc
                                        # -- End function
	.globl	free_mem_mv             # -- Begin function free_mem_mv
	.p2align	4, 0x90
	.type	free_mem_mv,@function
free_mem_mv:                            # @free_mem_mv
	.cfi_startproc
# %bb.0:                                # %rand_bb
	pushq	%rbp
	.cfi_def_cfa_offset 16
	.cfi_offset %rbp, -16
	movq	%rsp, %rbp
	.cfi_def_cfa_register %rbp
	pushq	%rbx
	pushq	%rax
	.cfi_offset %rbx, -24
	movq	%rdi, %rbx
	callq	get_urand
	cmpl	$0, %eax
	jne	.LBB10_17
# %bb.1:                                # %func_free_mem_mv.9
	movq	%rbx, %rdi
	callq	free_mem_mv.9
	addq	$8, %rsp
	popq	%rbx
	popq	%rbp
	.cfi_def_cfa %rsp, 8
	retq
.LBB10_2:                               # %func_free_mem_mv.22
	.cfi_def_cfa %rbp, 16
	movq	%rbx, %rdi
	callq	free_mem_mv.22
	addq	$8, %rsp
	popq	%rbx
	popq	%rbp
	.cfi_def_cfa %rsp, 8
	retq
.LBB10_3:                               # %func_free_mem_mv.23
	.cfi_def_cfa %rbp, 16
	movq	%rbx, %rdi
	callq	free_mem_mv.23
	addq	$8, %rsp
	popq	%rbx
	popq	%rbp
	.cfi_def_cfa %rsp, 8
	retq
.LBB10_4:                               # %func_free_mem_mv.31
	.cfi_def_cfa %rbp, 16
	movq	%rbx, %rdi
	callq	free_mem_mv.31
	addq	$8, %rsp
	popq	%rbx
	popq	%rbp
	.cfi_def_cfa %rsp, 8
	retq
.LBB10_5:                               # %func_free_mem_mv.34
	.cfi_def_cfa %rbp, 16
	movq	%rbx, %rdi
	callq	free_mem_mv.34
	addq	$8, %rsp
	popq	%rbx
	popq	%rbp
	.cfi_def_cfa %rsp, 8
	retq
.LBB10_6:                               # %func_free_mem_mv.36
	.cfi_def_cfa %rbp, 16
	movq	%rbx, %rdi
	callq	free_mem_mv.36
	addq	$8, %rsp
	popq	%rbx
	popq	%rbp
	.cfi_def_cfa %rsp, 8
	retq
.LBB10_7:                               # %func_free_mem_mv.47
	.cfi_def_cfa %rbp, 16
	movq	%rbx, %rdi
	callq	free_mem_mv.47
	addq	$8, %rsp
	popq	%rbx
	popq	%rbp
	.cfi_def_cfa %rsp, 8
	retq
.LBB10_8:                               # %func_free_mem_mv.58
	.cfi_def_cfa %rbp, 16
	movq	%rbx, %rdi
	callq	free_mem_mv.58
	addq	$8, %rsp
	popq	%rbx
	popq	%rbp
	.cfi_def_cfa %rsp, 8
	retq
.LBB10_9:                               # %func_free_mem_mv.60
	.cfi_def_cfa %rbp, 16
	movq	%rbx, %rdi
	callq	free_mem_mv.60
	addq	$8, %rsp
	popq	%rbx
	popq	%rbp
	.cfi_def_cfa %rsp, 8
	retq
.LBB10_10:                              # %func_free_mem_mv.62
	.cfi_def_cfa %rbp, 16
	movq	%rbx, %rdi
	callq	free_mem_mv.62
	addq	$8, %rsp
	popq	%rbx
	popq	%rbp
	.cfi_def_cfa %rsp, 8
	retq
.LBB10_11:                              # %func_free_mem_mv.70
	.cfi_def_cfa %rbp, 16
	movq	%rbx, %rdi
	callq	free_mem_mv.70
	addq	$8, %rsp
	popq	%rbx
	popq	%rbp
	.cfi_def_cfa %rsp, 8
	retq
.LBB10_12:                              # %func_free_mem_mv.72
	.cfi_def_cfa %rbp, 16
	movq	%rbx, %rdi
	callq	free_mem_mv.72
	addq	$8, %rsp
	popq	%rbx
	popq	%rbp
	.cfi_def_cfa %rsp, 8
	retq
.LBB10_13:                              # %func_free_mem_mv.84
	.cfi_def_cfa %rbp, 16
	movq	%rbx, %rdi
	callq	free_mem_mv.84
	addq	$8, %rsp
	popq	%rbx
	popq	%rbp
	.cfi_def_cfa %rsp, 8
	retq
.LBB10_14:                              # %func_free_mem_mv.86
	.cfi_def_cfa %rbp, 16
	movq	%rbx, %rdi
	callq	free_mem_mv.86
	addq	$8, %rsp
	popq	%rbx
	popq	%rbp
	.cfi_def_cfa %rsp, 8
	retq
.LBB10_15:                              # %func_free_mem_mv.88
	.cfi_def_cfa %rbp, 16
	movq	%rbx, %rdi
	callq	free_mem_mv.88
	addq	$8, %rsp
	popq	%rbx
	popq	%rbp
	.cfi_def_cfa %rsp, 8
	retq
.LBB10_16:                              # %func_free_mem_mv.114
	.cfi_def_cfa %rbp, 16
	movq	%rbx, %rdi
	callq	free_mem_mv.114
	addq	$8, %rsp
	popq	%rbx
	popq	%rbp
	.cfi_def_cfa %rsp, 8
	retq
.LBB10_17:                              # %ctrl0
	.cfi_def_cfa %rbp, 16
	cmpl	$1, %eax
	je	.LBB10_2
# %bb.18:                               # %ctrl1
	cmpl	$2, %eax
	je	.LBB10_3
# %bb.19:                               # %ctrl2
	cmpl	$3, %eax
	je	.LBB10_4
# %bb.20:                               # %ctrl3
	cmpl	$4, %eax
	je	.LBB10_5
# %bb.21:                               # %ctrl4
	cmpl	$5, %eax
	je	.LBB10_6
# %bb.22:                               # %ctrl5
	cmpl	$6, %eax
	je	.LBB10_7
# %bb.23:                               # %ctrl6
	cmpl	$7, %eax
	je	.LBB10_8
# %bb.24:                               # %ctrl7
	cmpl	$8, %eax
	je	.LBB10_9
# %bb.25:                               # %ctrl8
	cmpl	$9, %eax
	je	.LBB10_10
# %bb.26:                               # %ctrl9
	cmpl	$10, %eax
	je	.LBB10_11
# %bb.27:                               # %ctrl10
	cmpl	$11, %eax
	je	.LBB10_12
# %bb.28:                               # %ctrl11
	cmpl	$12, %eax
	je	.LBB10_13
# %bb.29:                               # %ctrl12
	cmpl	$13, %eax
	je	.LBB10_14
# %bb.30:                               # %ctrl13
	cmpl	$14, %eax
	je	.LBB10_15
	jmp	.LBB10_16
.Lfunc_end10:
	.size	free_mem_mv, .Lfunc_end10-free_mem_mv
	.cfi_endproc
                                        # -- End function
	.globl	free_mem_ACcoeff        # -- Begin function free_mem_ACcoeff
	.p2align	4, 0x90
	.type	free_mem_ACcoeff,@function
free_mem_ACcoeff:                       # @free_mem_ACcoeff
	.cfi_startproc
# %bb.0:                                # %rand_bb
	pushq	%rbp
	.cfi_def_cfa_offset 16
	.cfi_offset %rbp, -16
	movq	%rsp, %rbp
	.cfi_def_cfa_register %rbp
	pushq	%rbx
	pushq	%rax
	.cfi_offset %rbx, -24
	movq	%rdi, %rbx
	callq	get_urand
	cmpl	$0, %eax
	jne	.LBB11_17
# %bb.1:                                # %func_free_mem_ACcoeff.38
	movq	%rbx, %rdi
	callq	free_mem_ACcoeff.38
	addq	$8, %rsp
	popq	%rbx
	popq	%rbp
	.cfi_def_cfa %rsp, 8
	retq
.LBB11_2:                               # %func_free_mem_ACcoeff.44
	.cfi_def_cfa %rbp, 16
	movq	%rbx, %rdi
	callq	free_mem_ACcoeff.44
	addq	$8, %rsp
	popq	%rbx
	popq	%rbp
	.cfi_def_cfa %rsp, 8
	retq
.LBB11_3:                               # %func_free_mem_ACcoeff.48
	.cfi_def_cfa %rbp, 16
	movq	%rbx, %rdi
	callq	free_mem_ACcoeff.48
	addq	$8, %rsp
	popq	%rbx
	popq	%rbp
	.cfi_def_cfa %rsp, 8
	retq
.LBB11_4:                               # %func_free_mem_ACcoeff.71
	.cfi_def_cfa %rbp, 16
	movq	%rbx, %rdi
	callq	free_mem_ACcoeff.71
	addq	$8, %rsp
	popq	%rbx
	popq	%rbp
	.cfi_def_cfa %rsp, 8
	retq
.LBB11_5:                               # %func_free_mem_ACcoeff.99
	.cfi_def_cfa %rbp, 16
	movq	%rbx, %rdi
	callq	free_mem_ACcoeff.99
	addq	$8, %rsp
	popq	%rbx
	popq	%rbp
	.cfi_def_cfa %rsp, 8
	retq
.LBB11_6:                               # %func_free_mem_ACcoeff.120
	.cfi_def_cfa %rbp, 16
	movq	%rbx, %rdi
	callq	free_mem_ACcoeff.120
	addq	$8, %rsp
	popq	%rbx
	popq	%rbp
	.cfi_def_cfa %rsp, 8
	retq
.LBB11_7:                               # %func_free_mem_ACcoeff.124
	.cfi_def_cfa %rbp, 16
	movq	%rbx, %rdi
	callq	free_mem_ACcoeff.124
	addq	$8, %rsp
	popq	%rbx
	popq	%rbp
	.cfi_def_cfa %rsp, 8
	retq
.LBB11_8:                               # %func_free_mem_ACcoeff.125
	.cfi_def_cfa %rbp, 16
	movq	%rbx, %rdi
	callq	free_mem_ACcoeff.125
	addq	$8, %rsp
	popq	%rbx
	popq	%rbp
	.cfi_def_cfa %rsp, 8
	retq
.LBB11_9:                               # %func_free_mem_ACcoeff.129
	.cfi_def_cfa %rbp, 16
	movq	%rbx, %rdi
	callq	free_mem_ACcoeff.129
	addq	$8, %rsp
	popq	%rbx
	popq	%rbp
	.cfi_def_cfa %rsp, 8
	retq
.LBB11_10:                              # %func_free_mem_ACcoeff.134
	.cfi_def_cfa %rbp, 16
	movq	%rbx, %rdi
	callq	free_mem_ACcoeff.134
	addq	$8, %rsp
	popq	%rbx
	popq	%rbp
	.cfi_def_cfa %rsp, 8
	retq
.LBB11_11:                              # %func_free_mem_ACcoeff.135
	.cfi_def_cfa %rbp, 16
	movq	%rbx, %rdi
	callq	free_mem_ACcoeff.135
	addq	$8, %rsp
	popq	%rbx
	popq	%rbp
	.cfi_def_cfa %rsp, 8
	retq
.LBB11_12:                              # %func_free_mem_ACcoeff.136
	.cfi_def_cfa %rbp, 16
	movq	%rbx, %rdi
	callq	free_mem_ACcoeff.136
	addq	$8, %rsp
	popq	%rbx
	popq	%rbp
	.cfi_def_cfa %rsp, 8
	retq
.LBB11_13:                              # %func_free_mem_ACcoeff.137
	.cfi_def_cfa %rbp, 16
	movq	%rbx, %rdi
	callq	free_mem_ACcoeff.137
	addq	$8, %rsp
	popq	%rbx
	popq	%rbp
	.cfi_def_cfa %rsp, 8
	retq
.LBB11_14:                              # %func_free_mem_ACcoeff.138
	.cfi_def_cfa %rbp, 16
	movq	%rbx, %rdi
	callq	free_mem_ACcoeff.138
	addq	$8, %rsp
	popq	%rbx
	popq	%rbp
	.cfi_def_cfa %rsp, 8
	retq
.LBB11_15:                              # %func_free_mem_ACcoeff.139
	.cfi_def_cfa %rbp, 16
	movq	%rbx, %rdi
	callq	free_mem_ACcoeff.139
	addq	$8, %rsp
	popq	%rbx
	popq	%rbp
	.cfi_def_cfa %rsp, 8
	retq
.LBB11_16:                              # %func_free_mem_ACcoeff.140
	.cfi_def_cfa %rbp, 16
	movq	%rbx, %rdi
	callq	free_mem_ACcoeff.140
	addq	$8, %rsp
	popq	%rbx
	popq	%rbp
	.cfi_def_cfa %rsp, 8
	retq
.LBB11_17:                              # %ctrl0
	.cfi_def_cfa %rbp, 16
	cmpl	$1, %eax
	je	.LBB11_2
# %bb.18:                               # %ctrl1
	cmpl	$2, %eax
	je	.LBB11_3
# %bb.19:                               # %ctrl2
	cmpl	$3, %eax
	je	.LBB11_4
# %bb.20:                               # %ctrl3
	cmpl	$4, %eax
	je	.LBB11_5
# %bb.21:                               # %ctrl4
	cmpl	$5, %eax
	je	.LBB11_6
# %bb.22:                               # %ctrl5
	cmpl	$6, %eax
	je	.LBB11_7
# %bb.23:                               # %ctrl6
	cmpl	$7, %eax
	je	.LBB11_8
# %bb.24:                               # %ctrl7
	cmpl	$8, %eax
	je	.LBB11_9
# %bb.25:                               # %ctrl8
	cmpl	$9, %eax
	je	.LBB11_10
# %bb.26:                               # %ctrl9
	cmpl	$10, %eax
	je	.LBB11_11
# %bb.27:                               # %ctrl10
	cmpl	$11, %eax
	je	.LBB11_12
# %bb.28:                               # %ctrl11
	cmpl	$12, %eax
	je	.LBB11_13
# %bb.29:                               # %ctrl12
	cmpl	$13, %eax
	je	.LBB11_14
# %bb.30:                               # %ctrl13
	cmpl	$14, %eax
	je	.LBB11_15
	jmp	.LBB11_16
.Lfunc_end11:
	.size	free_mem_ACcoeff, .Lfunc_end11-free_mem_ACcoeff
	.cfi_endproc
                                        # -- End function
	.globl	free_mem_DCcoeff        # -- Begin function free_mem_DCcoeff
	.p2align	4, 0x90
	.type	free_mem_DCcoeff,@function
free_mem_DCcoeff:                       # @free_mem_DCcoeff
	.cfi_startproc
# %bb.0:                                # %rand_bb
	pushq	%rbp
	.cfi_def_cfa_offset 16
	.cfi_offset %rbp, -16
	movq	%rsp, %rbp
	.cfi_def_cfa_register %rbp
	pushq	%rbx
	pushq	%rax
	.cfi_offset %rbx, -24
	movq	%rdi, %rbx
	callq	get_urand
	cmpl	$0, %eax
	jne	.LBB12_7
# %bb.1:                                # %func_free_mem_DCcoeff.16
	movq	%rbx, %rdi
	callq	free_mem_DCcoeff.16
	addq	$8, %rsp
	popq	%rbx
	popq	%rbp
	.cfi_def_cfa %rsp, 8
	retq
.LBB12_2:                               # %func_free_mem_DCcoeff.29
	.cfi_def_cfa %rbp, 16
	movq	%rbx, %rdi
	callq	free_mem_DCcoeff.29
	addq	$8, %rsp
	popq	%rbx
	popq	%rbp
	.cfi_def_cfa %rsp, 8
	retq
.LBB12_3:                               # %func_free_mem_DCcoeff.35
	.cfi_def_cfa %rbp, 16
	movq	%rbx, %rdi
	callq	free_mem_DCcoeff.35
	addq	$8, %rsp
	popq	%rbx
	popq	%rbp
	.cfi_def_cfa %rsp, 8
	retq
.LBB12_4:                               # %func_free_mem_DCcoeff.49
	.cfi_def_cfa %rbp, 16
	movq	%rbx, %rdi
	callq	free_mem_DCcoeff.49
	addq	$8, %rsp
	popq	%rbx
	popq	%rbp
	.cfi_def_cfa %rsp, 8
	retq
.LBB12_5:                               # %func_free_mem_DCcoeff.54
	.cfi_def_cfa %rbp, 16
	movq	%rbx, %rdi
	callq	free_mem_DCcoeff.54
	addq	$8, %rsp
	popq	%rbx
	popq	%rbp
	.cfi_def_cfa %rsp, 8
	retq
.LBB12_6:                               # %func_free_mem_DCcoeff.55
	.cfi_def_cfa %rbp, 16
	movq	%rbx, %rdi
	callq	free_mem_DCcoeff.55
	addq	$8, %rsp
	popq	%rbx
	popq	%rbp
	.cfi_def_cfa %rsp, 8
	retq
.LBB12_7:                               # %ctrl0
	.cfi_def_cfa %rbp, 16
	cmpl	$1, %eax
	je	.LBB12_2
# %bb.8:                                # %ctrl1
	cmpl	$2, %eax
	je	.LBB12_3
# %bb.9:                                # %ctrl2
	cmpl	$3, %eax
	je	.LBB12_4
# %bb.10:                               # %ctrl3
	cmpl	$4, %eax
	je	.LBB12_5
	jmp	.LBB12_6
.Lfunc_end12:
	.size	free_mem_DCcoeff, .Lfunc_end12-free_mem_DCcoeff
	.cfi_endproc
                                        # -- End function
	.globl	malloc_picture          # -- Begin function malloc_picture
	.p2align	4, 0x90
	.type	malloc_picture,@function
malloc_picture:                         # @malloc_picture
	.cfi_startproc
# %bb.0:                                # %entry
	pushq	%rbp
	.cfi_def_cfa_offset 16
	.cfi_offset %rbp, -16
	movq	%rsp, %rbp
	.cfi_def_cfa_register %rbp
	subq	$16, %rsp
	movl	$1, %edi
	movl	$824, %esi              # imm = 0x338
	callq	calloc
	movq	%rax, -8(%rbp)
	cmpq	$0, %rax
	jne	.LBB13_2
# %bb.1:                                # %if.then
	movabsq	$.L.str.3, %rdi
	callq	no_mem_exit
.LBB13_2:                               # %if.end
	movq	-8(%rbp), %rax
	addq	$16, %rsp
	popq	%rbp
	.cfi_def_cfa %rsp, 8
	retq
.Lfunc_end13:
	.size	malloc_picture, .Lfunc_end13-malloc_picture
	.cfi_endproc
                                        # -- End function
	.globl	report_frame_statistic  # -- Begin function report_frame_statistic
	.p2align	4, 0x90
	.type	report_frame_statistic,@function
report_frame_statistic:                 # @report_frame_statistic
	.cfi_startproc
# %bb.0:                                # %rand_bb
	pushq	%rbp
	.cfi_def_cfa_offset 16
	.cfi_offset %rbp, -16
	movq	%rsp, %rbp
	.cfi_def_cfa_register %rbp
	callq	get_urand
	cmpl	$0, %eax
	jne	.LBB14_17
# %bb.1:                                # %func_report_frame_statistic.6
	callq	report_frame_statistic.6
	popq	%rbp
	.cfi_def_cfa %rsp, 8
	retq
.LBB14_2:                               # %func_report_frame_statistic.17
	.cfi_def_cfa %rbp, 16
	callq	report_frame_statistic.17
	popq	%rbp
	.cfi_def_cfa %rsp, 8
	retq
.LBB14_3:                               # %func_report_frame_statistic.18
	.cfi_def_cfa %rbp, 16
	callq	report_frame_statistic.18
	popq	%rbp
	.cfi_def_cfa %rsp, 8
	retq
.LBB14_4:                               # %func_report_frame_statistic.37
	.cfi_def_cfa %rbp, 16
	callq	report_frame_statistic.37
	popq	%rbp
	.cfi_def_cfa %rsp, 8
	retq
.LBB14_5:                               # %func_report_frame_statistic.39
	.cfi_def_cfa %rbp, 16
	callq	report_frame_statistic.39
	popq	%rbp
	.cfi_def_cfa %rsp, 8
	retq
.LBB14_6:                               # %func_report_frame_statistic.40
	.cfi_def_cfa %rbp, 16
	callq	report_frame_statistic.40
	popq	%rbp
	.cfi_def_cfa %rsp, 8
	retq
.LBB14_7:                               # %func_report_frame_statistic.52
	.cfi_def_cfa %rbp, 16
	callq	report_frame_statistic.52
	popq	%rbp
	.cfi_def_cfa %rsp, 8
	retq
.LBB14_8:                               # %func_report_frame_statistic.56
	.cfi_def_cfa %rbp, 16
	callq	report_frame_statistic.56
	popq	%rbp
	.cfi_def_cfa %rsp, 8
	retq
.LBB14_9:                               # %func_report_frame_statistic.77
	.cfi_def_cfa %rbp, 16
	callq	report_frame_statistic.77
	popq	%rbp
	.cfi_def_cfa %rsp, 8
	retq
.LBB14_10:                              # %func_report_frame_statistic.79
	.cfi_def_cfa %rbp, 16
	callq	report_frame_statistic.79
	popq	%rbp
	.cfi_def_cfa %rsp, 8
	retq
.LBB14_11:                              # %func_report_frame_statistic.104
	.cfi_def_cfa %rbp, 16
	callq	report_frame_statistic.104
	popq	%rbp
	.cfi_def_cfa %rsp, 8
	retq
.LBB14_12:                              # %func_report_frame_statistic.107
	.cfi_def_cfa %rbp, 16
	callq	report_frame_statistic.107
	popq	%rbp
	.cfi_def_cfa %rsp, 8
	retq
.LBB14_13:                              # %func_report_frame_statistic.115
	.cfi_def_cfa %rbp, 16
	callq	report_frame_statistic.115
	popq	%rbp
	.cfi_def_cfa %rsp, 8
	retq
.LBB14_14:                              # %func_report_frame_statistic.130
	.cfi_def_cfa %rbp, 16
	callq	report_frame_statistic.130
	popq	%rbp
	.cfi_def_cfa %rsp, 8
	retq
.LBB14_15:                              # %func_report_frame_statistic.131
	.cfi_def_cfa %rbp, 16
	callq	report_frame_statistic.131
	popq	%rbp
	.cfi_def_cfa %rsp, 8
	retq
.LBB14_16:                              # %func_report_frame_statistic.133
	.cfi_def_cfa %rbp, 16
	callq	report_frame_statistic.133
	popq	%rbp
	.cfi_def_cfa %rsp, 8
	retq
.LBB14_17:                              # %ctrl0
	.cfi_def_cfa %rbp, 16
	cmpl	$1, %eax
	je	.LBB14_2
# %bb.18:                               # %ctrl1
	cmpl	$2, %eax
	je	.LBB14_3
# %bb.19:                               # %ctrl2
	cmpl	$3, %eax
	je	.LBB14_4
# %bb.20:                               # %ctrl3
	cmpl	$4, %eax
	je	.LBB14_5
# %bb.21:                               # %ctrl4
	cmpl	$5, %eax
	je	.LBB14_6
# %bb.22:                               # %ctrl5
	cmpl	$6, %eax
	je	.LBB14_7
# %bb.23:                               # %ctrl6
	cmpl	$7, %eax
	je	.LBB14_8
# %bb.24:                               # %ctrl7
	cmpl	$8, %eax
	je	.LBB14_9
# %bb.25:                               # %ctrl8
	cmpl	$9, %eax
	je	.LBB14_10
# %bb.26:                               # %ctrl9
	cmpl	$10, %eax
	je	.LBB14_11
# %bb.27:                               # %ctrl10
	cmpl	$11, %eax
	je	.LBB14_12
# %bb.28:                               # %ctrl11
	cmpl	$12, %eax
	je	.LBB14_13
# %bb.29:                               # %ctrl12
	cmpl	$13, %eax
	je	.LBB14_14
# %bb.30:                               # %ctrl13
	cmpl	$14, %eax
	je	.LBB14_15
	jmp	.LBB14_16
.Lfunc_end14:
	.size	report_frame_statistic, .Lfunc_end14-report_frame_statistic
	.cfi_endproc
                                        # -- End function
	.globl	report                  # -- Begin function report
	.p2align	4, 0x90
	.type	report,@function
report:                                 # @report
	.cfi_startproc
# %bb.0:                                # %rand_bb
	pushq	%rbp
	.cfi_def_cfa_offset 16
	.cfi_offset %rbp, -16
	movq	%rsp, %rbp
	.cfi_def_cfa_register %rbp
	callq	get_urand
	cmpl	$0, %eax
	jne	.LBB15_17
# %bb.1:                                # %func_report.1
	callq	report.1
	popq	%rbp
	.cfi_def_cfa %rsp, 8
	retq
.LBB15_2:                               # %func_report.10
	.cfi_def_cfa %rbp, 16
	callq	report.10
	popq	%rbp
	.cfi_def_cfa %rsp, 8
	retq
.LBB15_3:                               # %func_report.30
	.cfi_def_cfa %rbp, 16
	callq	report.30
	popq	%rbp
	.cfi_def_cfa %rsp, 8
	retq
.LBB15_4:                               # %func_report.33
	.cfi_def_cfa %rbp, 16
	callq	report.33
	popq	%rbp
	.cfi_def_cfa %rsp, 8
	retq
.LBB15_5:                               # %func_report.67
	.cfi_def_cfa %rbp, 16
	callq	report.67
	popq	%rbp
	.cfi_def_cfa %rsp, 8
	retq
.LBB15_6:                               # %func_report.80
	.cfi_def_cfa %rbp, 16
	callq	report.80
	popq	%rbp
	.cfi_def_cfa %rsp, 8
	retq
.LBB15_7:                               # %func_report.83
	.cfi_def_cfa %rbp, 16
	callq	report.83
	popq	%rbp
	.cfi_def_cfa %rsp, 8
	retq
.LBB15_8:                               # %func_report.98
	.cfi_def_cfa %rbp, 16
	callq	report.98
	popq	%rbp
	.cfi_def_cfa %rsp, 8
	retq
.LBB15_9:                               # %func_report.100
	.cfi_def_cfa %rbp, 16
	callq	report.100
	popq	%rbp
	.cfi_def_cfa %rsp, 8
	retq
.LBB15_10:                              # %func_report.101
	.cfi_def_cfa %rbp, 16
	callq	report.101
	popq	%rbp
	.cfi_def_cfa %rsp, 8
	retq
.LBB15_11:                              # %func_report.110
	.cfi_def_cfa %rbp, 16
	callq	report.110
	popq	%rbp
	.cfi_def_cfa %rsp, 8
	retq
.LBB15_12:                              # %func_report.112
	.cfi_def_cfa %rbp, 16
	callq	report.112
	popq	%rbp
	.cfi_def_cfa %rsp, 8
	retq
.LBB15_13:                              # %func_report.116
	.cfi_def_cfa %rbp, 16
	callq	report.116
	popq	%rbp
	.cfi_def_cfa %rsp, 8
	retq
.LBB15_14:                              # %func_report.119
	.cfi_def_cfa %rbp, 16
	callq	report.119
	popq	%rbp
	.cfi_def_cfa %rsp, 8
	retq
.LBB15_15:                              # %func_report.121
	.cfi_def_cfa %rbp, 16
	callq	report.121
	popq	%rbp
	.cfi_def_cfa %rsp, 8
	retq
.LBB15_16:                              # %func_report.132
	.cfi_def_cfa %rbp, 16
	callq	report.132
	popq	%rbp
	.cfi_def_cfa %rsp, 8
	retq
.LBB15_17:                              # %ctrl0
	.cfi_def_cfa %rbp, 16
	cmpl	$1, %eax
	je	.LBB15_2
# %bb.18:                               # %ctrl1
	cmpl	$2, %eax
	je	.LBB15_3
# %bb.19:                               # %ctrl2
	cmpl	$3, %eax
	je	.LBB15_4
# %bb.20:                               # %ctrl3
	cmpl	$4, %eax
	je	.LBB15_5
# %bb.21:                               # %ctrl4
	cmpl	$5, %eax
	je	.LBB15_6
# %bb.22:                               # %ctrl5
	cmpl	$6, %eax
	je	.LBB15_7
# %bb.23:                               # %ctrl6
	cmpl	$7, %eax
	je	.LBB15_8
# %bb.24:                               # %ctrl7
	cmpl	$8, %eax
	je	.LBB15_9
# %bb.25:                               # %ctrl8
	cmpl	$9, %eax
	je	.LBB15_10
# %bb.26:                               # %ctrl9
	cmpl	$10, %eax
	je	.LBB15_11
# %bb.27:                               # %ctrl10
	cmpl	$11, %eax
	je	.LBB15_12
# %bb.28:                               # %ctrl11
	cmpl	$12, %eax
	je	.LBB15_13
# %bb.29:                               # %ctrl12
	cmpl	$13, %eax
	je	.LBB15_14
# %bb.30:                               # %ctrl13
	cmpl	$14, %eax
	je	.LBB15_15
	jmp	.LBB15_16
.Lfunc_end15:
	.size	report, .Lfunc_end15-report
	.cfi_endproc
                                        # -- End function
	.globl	information_init        # -- Begin function information_init
	.p2align	4, 0x90
	.type	information_init,@function
information_init:                       # @information_init
	.cfi_startproc
# %bb.0:                                # %entry
	pushq	%rbp
	.cfi_def_cfa_offset 16
	.cfi_offset %rbp, -16
	movq	%rsp, %rbp
	.cfi_def_cfa_register %rbp
	subq	$48, %rsp
	leaq	-48(%rbp), %rdi
	movabsq	$.L__const.information_init.yuv_types, %rsi
	movl	$40, %edx
	callq	memcpy
	movabsq	$.L.str.186, %rdi
	movabsq	$.L.str.13, %rsi
	movabsq	$.L.str.14, %rdx
	movb	$0, %al
	callq	printf
	movq	input, %rsi
	addq	$224, %rsi
	movabsq	$.L.str.187, %rdi
	movb	$0, %al
	callq	printf
	movq	input, %rsi
	addq	$424, %rsi              # imm = 0x1A8
	movabsq	$.L.str.188, %rdi
	movb	$0, %al
	callq	printf
	cmpl	$-1, p_dec
	je	.LBB16_2
# %bb.1:                                # %if.then
	movq	input, %rsi
	addq	$624, %rsi              # imm = 0x270
	movabsq	$.L.str.189, %rdi
	movb	$0, %al
	callq	printf
.LBB16_2:                               # %if.end
	movq	img, %rax
	movslq	72700(%rax), %rax
	imulq	$10, %rax, %rax
	leaq	-48(%rbp), %rsi
	addq	%rax, %rsi
	movabsq	$.L.str.190, %rdi
	movb	$0, %al
	callq	printf
	movq	input, %rax
	movl	8(%rax), %esi
	movq	input, %rax
	movl	1236(%rax), %edx
	movq	input, %rax
	movl	8(%rax), %eax
	subl	$1, %eax
	imull	%eax, %edx
	movabsq	$.L.str.191, %rdi
	movb	$0, %al
	callq	printf
	movq	input, %rax
	movl	2880(%rax), %esi
	movq	input, %rax
	movl	2884(%rax), %edx
	movabsq	$.L.str.192, %rdi
	movb	$0, %al
	callq	printf
	movq	input, %rax
	movl	3220(%rax), %esi
	movabsq	$.L.str.193, %rdi
	movb	$0, %al
	callq	printf
	movabsq	$.L.str.26, %rdi
	movb	$0, %al
	callq	printf
	movabsq	$.L.str.194, %rdi
	movb	$0, %al
	callq	printf
	movabsq	$.L.str.26, %rdi
	movb	$0, %al
	callq	printf
	addq	$48, %rsp
	popq	%rbp
	.cfi_def_cfa %rsp, 8
	retq
.Lfunc_end16:
	.size	information_init, .Lfunc_end16-information_init
	.cfi_endproc
                                        # -- End function
	.globl	init_orig_buffers       # -- Begin function init_orig_buffers
	.p2align	4, 0x90
	.type	init_orig_buffers,@function
init_orig_buffers:                      # @init_orig_buffers
	.cfi_startproc
# %bb.0:                                # %entry
	pushq	%rbp
	.cfi_def_cfa_offset 16
	.cfi_offset %rbp, -16
	movq	%rsp, %rbp
	.cfi_def_cfa_register %rbp
	subq	$16, %rsp
	movl	$0, -4(%rbp)
	movq	img, %rax
	movl	60(%rax), %esi
	movq	img, %rax
	movl	52(%rax), %edx
	movabsq	$imgY_org_frm, %rdi
	callq	get_mem2Dpel
	addl	-4(%rbp), %eax
	movl	%eax, -4(%rbp)
	movq	img, %rax
	cmpl	$0, 72700(%rax)
	je	.LBB17_2
# %bb.1:                                # %if.then
	movq	img, %rax
	movl	64(%rax), %edx
	movq	img, %rax
	movl	56(%rax), %ecx
	movabsq	$imgUV_org_frm, %rdi
	movl	$2, %esi
	callq	get_mem3Dpel
	addl	-4(%rbp), %eax
	movl	%eax, -4(%rbp)
.LBB17_2:                               # %if.end
	movq	active_sps, %rax
	cmpl	$0, 1148(%rax)
	jne	.LBB17_10
# %bb.3:                                # %if.then3
	movq	imgY_org_frm, %rdi
	movq	img, %rax
	movl	60(%rax), %esi
	movq	img, %rax
	movl	52(%rax), %edx
	movabsq	$imgY_org_top, %rcx
	movabsq	$imgY_org_bot, %r8
	callq	init_top_bot_planes
	movq	img, %rax
	cmpl	$0, 72700(%rax)
	je	.LBB17_9
# %bb.4:                                # %if.then9
	movl	$2, %edi
	movl	$8, %esi
	callq	calloc
	movq	%rax, imgUV_org_top
	cmpq	$0, %rax
	jne	.LBB17_6
# %bb.5:                                # %if.then12
	movabsq	$.L.str.195, %rdi
	callq	no_mem_exit
.LBB17_6:                               # %if.end13
	movl	$2, %edi
	movl	$8, %esi
	callq	calloc
	movq	%rax, imgUV_org_bot
	cmpq	$0, %rax
	jne	.LBB17_8
# %bb.7:                                # %if.then16
	movabsq	$.L.str.196, %rdi
	callq	no_mem_exit
.LBB17_8:                               # %if.end17
	movslq	-4(%rbp), %rax
	addq	$32, %rax
	movl	%eax, -4(%rbp)
	movq	imgUV_org_frm, %rax
	movq	(%rax), %rdi
	movq	img, %rax
	movl	64(%rax), %esi
	movq	img, %rax
	movl	56(%rax), %edx
	movq	imgUV_org_top, %rcx
	movq	imgUV_org_bot, %r8
	callq	init_top_bot_planes
	addl	-4(%rbp), %eax
	movl	%eax, -4(%rbp)
	movq	imgUV_org_frm, %rax
	movq	8(%rax), %rdi
	movq	img, %rax
	movl	64(%rax), %esi
	movq	img, %rax
	movl	56(%rax), %edx
	movq	imgUV_org_top, %rcx
	addq	$8, %rcx
	movq	imgUV_org_bot, %r8
	addq	$8, %r8
	callq	init_top_bot_planes
	addl	-4(%rbp), %eax
	movl	%eax, -4(%rbp)
.LBB17_9:                               # %if.end33
	jmp	.LBB17_10
.LBB17_10:                              # %if.end34
	movl	-4(%rbp), %eax
	addq	$16, %rsp
	popq	%rbp
	.cfi_def_cfa %rsp, 8
	retq
.Lfunc_end17:
	.size	init_orig_buffers, .Lfunc_end17-init_orig_buffers
	.cfi_endproc
                                        # -- End function
	.globl	init_global_buffers     # -- Begin function init_global_buffers
	.p2align	4, 0x90
	.type	init_global_buffers,@function
init_global_buffers:                    # @init_global_buffers
	.cfi_startproc
# %bb.0:                                # %rand_bb
	pushq	%rbp
	.cfi_def_cfa_offset 16
	.cfi_offset %rbp, -16
	movq	%rsp, %rbp
	.cfi_def_cfa_register %rbp
	callq	get_urand
	cmpl	$0, %eax
	jne	.LBB18_2
# %bb.1:                                # %func_init_global_buffers.4
	callq	init_global_buffers.4
	popq	%rbp
	.cfi_def_cfa %rsp, 8
	retq
.LBB18_2:                               # %func_init_global_buffers.27
	.cfi_def_cfa %rbp, 16
	callq	init_global_buffers.27
	popq	%rbp
	.cfi_def_cfa %rsp, 8
	retq
.Lfunc_end18:
	.size	init_global_buffers, .Lfunc_end18-init_global_buffers
	.cfi_endproc
                                        # -- End function
	.globl	free_orig_planes        # -- Begin function free_orig_planes
	.p2align	4, 0x90
	.type	free_orig_planes,@function
free_orig_planes:                       # @free_orig_planes
	.cfi_startproc
# %bb.0:                                # %entry
	pushq	%rbp
	.cfi_def_cfa_offset 16
	.cfi_offset %rbp, -16
	movq	%rsp, %rbp
	.cfi_def_cfa_register %rbp
	movq	imgY_org_frm, %rdi
	callq	free_mem2Dpel
	movq	img, %rax
	cmpl	$0, 72700(%rax)
	je	.LBB19_2
# %bb.1:                                # %if.then
	movq	imgUV_org_frm, %rdi
	movl	$2, %esi
	callq	free_mem3Dpel
.LBB19_2:                               # %if.end
	movq	active_sps, %rax
	cmpl	$0, 1148(%rax)
	jne	.LBB19_6
# %bb.3:                                # %if.then1
	movq	imgY_org_top, %rdi
	movq	imgY_org_bot, %rsi
	callq	free_top_bot_planes
	movq	img, %rax
	cmpl	$0, 72700(%rax)
	je	.LBB19_5
# %bb.4:                                # %if.then4
	movq	imgUV_org_top, %rax
	movq	(%rax), %rdi
	movq	imgUV_org_bot, %rax
	movq	(%rax), %rsi
	callq	free_top_bot_planes
	movq	imgUV_org_top, %rax
	movq	8(%rax), %rdi
	movq	imgUV_org_bot, %rax
	movq	8(%rax), %rsi
	callq	free_top_bot_planes
	movq	imgUV_org_top, %rdi
	callq	free
	movq	imgUV_org_bot, %rdi
	callq	free
.LBB19_5:                               # %if.end8
	jmp	.LBB19_6
.LBB19_6:                               # %if.end9
	popq	%rbp
	.cfi_def_cfa %rsp, 8
	retq
.Lfunc_end19:
	.size	free_orig_planes, .Lfunc_end19-free_orig_planes
	.cfi_endproc
                                        # -- End function
	.globl	free_global_buffers     # -- Begin function free_global_buffers
	.p2align	4, 0x90
	.type	free_global_buffers,@function
free_global_buffers:                    # @free_global_buffers
	.cfi_startproc
# %bb.0:                                # %rand_bb
	pushq	%rbp
	.cfi_def_cfa_offset 16
	.cfi_offset %rbp, -16
	movq	%rsp, %rbp
	.cfi_def_cfa_register %rbp
	callq	get_urand
	cmpl	$0, %eax
	jne	.LBB20_2
# %bb.1:                                # %func_free_global_buffers.5
	callq	free_global_buffers.5
	popq	%rbp
	.cfi_def_cfa %rsp, 8
	retq
.LBB20_2:                               # %func_free_global_buffers.7
	.cfi_def_cfa %rbp, 16
	callq	free_global_buffers.7
	popq	%rbp
	.cfi_def_cfa %rsp, 8
	retq
.Lfunc_end20:
	.size	free_global_buffers, .Lfunc_end20-free_global_buffers
	.cfi_endproc
                                        # -- End function
	.globl	combine_field           # -- Begin function combine_field
	.p2align	4, 0x90
	.type	combine_field,@function
combine_field:                          # @combine_field
	.cfi_startproc
# %bb.0:                                # %entry
	pushq	%rbp
	.cfi_def_cfa_offset 16
	.cfi_offset %rbp, -16
	movq	%rsp, %rbp
	.cfi_def_cfa_register %rbp
	subq	$16, %rsp
	movl	$0, -4(%rbp)
.LBB21_1:                               # %for.cond
                                        # =>This Inner Loop Header: Depth=1
	movl	-4(%rbp), %ecx
	movq	img, %rax
	movl	60(%rax), %eax
	cltd
	movl	$2, %esi
	idivl	%esi
	cmpl	%eax, %ecx
	jge	.LBB21_4
# %bb.2:                                # %for.body
                                        #   in Loop: Header=BB21_1 Depth=1
	movq	imgY_com, %rax
	movl	-4(%rbp), %ecx
	shll	$1, %ecx
	movslq	%ecx, %rcx
	movq	(%rax,%rcx,8), %rdi
	movq	enc_top_picture, %rax
	movq	6424(%rax), %rax
	movslq	-4(%rbp), %rcx
	movq	(%rax,%rcx,8), %rsi
	movq	img, %rax
	movslq	52(%rax), %rdx
	shlq	$1, %rdx
	callq	memcpy
	movq	imgY_com, %rax
	movl	-4(%rbp), %ecx
	shll	$1, %ecx
	addl	$1, %ecx
	movslq	%ecx, %rcx
	movq	(%rax,%rcx,8), %rdi
	movq	enc_bottom_picture, %rax
	movq	6424(%rax), %rax
	movslq	-4(%rbp), %rcx
	movq	(%rax,%rcx,8), %rsi
	movq	img, %rax
	movslq	52(%rax), %rdx
	shlq	$1, %rdx
	callq	memcpy
# %bb.3:                                # %for.inc
                                        #   in Loop: Header=BB21_1 Depth=1
	movl	-4(%rbp), %eax
	addl	$1, %eax
	movl	%eax, -4(%rbp)
	jmp	.LBB21_1
.LBB21_4:                               # %for.end
	movq	img, %rax
	cmpl	$0, 72700(%rax)
	je	.LBB21_10
# %bb.5:                                # %if.then
	movl	$0, -4(%rbp)
.LBB21_6:                               # %for.cond15
                                        # =>This Inner Loop Header: Depth=1
	movl	-4(%rbp), %ecx
	movq	img, %rax
	movl	64(%rax), %eax
	cltd
	movl	$2, %esi
	idivl	%esi
	cmpl	%eax, %ecx
	jge	.LBB21_9
# %bb.7:                                # %for.body19
                                        #   in Loop: Header=BB21_6 Depth=1
	movq	imgUV_com, %rax
	movq	(%rax), %rax
	movl	-4(%rbp), %ecx
	shll	$1, %ecx
	movslq	%ecx, %rcx
	movq	(%rax,%rcx,8), %rdi
	movq	enc_top_picture, %rax
	movq	6464(%rax), %rax
	movq	(%rax), %rax
	movslq	-4(%rbp), %rcx
	movq	(%rax,%rcx,8), %rsi
	movq	img, %rax
	movslq	56(%rax), %rdx
	shlq	$1, %rdx
	callq	memcpy
	movq	imgUV_com, %rax
	movq	(%rax), %rax
	movl	-4(%rbp), %ecx
	shll	$1, %ecx
	addl	$1, %ecx
	movslq	%ecx, %rcx
	movq	(%rax,%rcx,8), %rdi
	movq	enc_bottom_picture, %rax
	movq	6464(%rax), %rax
	movq	(%rax), %rax
	movslq	-4(%rbp), %rcx
	movq	(%rax,%rcx,8), %rsi
	movq	img, %rax
	movslq	56(%rax), %rdx
	shlq	$1, %rdx
	callq	memcpy
	movq	imgUV_com, %rax
	movq	8(%rax), %rax
	movl	-4(%rbp), %ecx
	shll	$1, %ecx
	movslq	%ecx, %rcx
	movq	(%rax,%rcx,8), %rdi
	movq	enc_top_picture, %rax
	movq	6464(%rax), %rax
	movq	8(%rax), %rax
	movslq	-4(%rbp), %rcx
	movq	(%rax,%rcx,8), %rsi
	movq	img, %rax
	movslq	56(%rax), %rdx
	shlq	$1, %rdx
	callq	memcpy
	movq	imgUV_com, %rax
	movq	8(%rax), %rax
	movl	-4(%rbp), %ecx
	shll	$1, %ecx
	addl	$1, %ecx
	movslq	%ecx, %rcx
	movq	(%rax,%rcx,8), %rdi
	movq	enc_bottom_picture, %rax
	movq	6464(%rax), %rax
	movq	8(%rax), %rax
	movslq	-4(%rbp), %rcx
	movq	(%rax,%rcx,8), %rsi
	movq	img, %rax
	movslq	56(%rax), %rdx
	shlq	$1, %rdx
	callq	memcpy
# %bb.8:                                # %for.inc64
                                        #   in Loop: Header=BB21_6 Depth=1
	movl	-4(%rbp), %eax
	addl	$1, %eax
	movl	%eax, -4(%rbp)
	jmp	.LBB21_6
.LBB21_9:                               # %for.end66
	jmp	.LBB21_10
.LBB21_10:                              # %if.end
	addq	$16, %rsp
	popq	%rbp
	.cfi_def_cfa %rsp, 8
	retq
.Lfunc_end21:
	.size	combine_field, .Lfunc_end21-combine_field
	.cfi_endproc
                                        # -- End function
	.globl	decide_fld_frame        # -- Begin function decide_fld_frame
	.p2align	4, 0x90
	.type	decide_fld_frame,@function
decide_fld_frame:                       # @decide_fld_frame
	.cfi_startproc
# %bb.0:                                # %rand_bb
	pushq	%rbp
	.cfi_def_cfa_offset 16
	.cfi_offset %rbp, -16
	movq	%rsp, %rbp
	.cfi_def_cfa_register %rbp
	pushq	%r14
	pushq	%rbx
	subq	$16, %rsp
	.cfi_offset %rbx, -32
	.cfi_offset %r14, -24
	vmovsd	%xmm2, -32(%rbp)        # 8-byte Spill
	movl	%esi, %r14d
	movl	%edi, %ebx
	vmovss	%xmm1, -24(%rbp)        # 4-byte Spill
	vmovss	%xmm0, -20(%rbp)        # 4-byte Spill
	callq	get_urand
	cmpl	$0, %eax
	jne	.LBB22_17
# %bb.1:                                # %func_decide_fld_frame.14
	vmovss	-20(%rbp), %xmm0        # 4-byte Reload
                                        # xmm0 = mem[0],zero,zero,zero
	vmovss	-24(%rbp), %xmm1        # 4-byte Reload
                                        # xmm1 = mem[0],zero,zero,zero
	movl	%ebx, %edi
	movl	%r14d, %esi
	vmovsd	-32(%rbp), %xmm2        # 8-byte Reload
                                        # xmm2 = mem[0],zero
	callq	decide_fld_frame.14
	addq	$16, %rsp
	popq	%rbx
	popq	%r14
	popq	%rbp
	.cfi_def_cfa %rsp, 8
	retq
.LBB22_2:                               # %func_decide_fld_frame.19
	.cfi_def_cfa %rbp, 16
	vmovaps	%xmm5, %xmm0
	vmovaps	%xmm4, %xmm1
	movl	%ebx, %edi
	movl	%r14d, %esi
	vmovaps	%xmm3, %xmm2
	callq	decide_fld_frame.19
	addq	$16, %rsp
	popq	%rbx
	popq	%r14
	popq	%rbp
	.cfi_def_cfa %rsp, 8
	retq
.LBB22_3:                               # %func_decide_fld_frame.20
	.cfi_def_cfa %rbp, 16
	movl	%ebx, %edi
	movl	%r14d, %esi
	callq	decide_fld_frame.20
	addq	$16, %rsp
	popq	%rbx
	popq	%r14
	popq	%rbp
	.cfi_def_cfa %rsp, 8
	retq
.LBB22_4:                               # %func_decide_fld_frame.65
	.cfi_def_cfa %rbp, 16
	movl	%ebx, %edi
	movl	%r14d, %esi
	callq	decide_fld_frame.65
	addq	$16, %rsp
	popq	%rbx
	popq	%r14
	popq	%rbp
	.cfi_def_cfa %rsp, 8
	retq
.LBB22_5:                               # %func_decide_fld_frame.66
	.cfi_def_cfa %rbp, 16
	movl	%ebx, %edi
	movl	%r14d, %esi
	callq	decide_fld_frame.66
	addq	$16, %rsp
	popq	%rbx
	popq	%r14
	popq	%rbp
	.cfi_def_cfa %rsp, 8
	retq
.LBB22_6:                               # %func_decide_fld_frame.75
	.cfi_def_cfa %rbp, 16
	movl	%ebx, %edi
	movl	%r14d, %esi
	callq	decide_fld_frame.75
	addq	$16, %rsp
	popq	%rbx
	popq	%r14
	popq	%rbp
	.cfi_def_cfa %rsp, 8
	retq
.LBB22_7:                               # %func_decide_fld_frame.81
	.cfi_def_cfa %rbp, 16
	movl	%ebx, %edi
	movl	%r14d, %esi
	callq	decide_fld_frame.81
	addq	$16, %rsp
	popq	%rbx
	popq	%r14
	popq	%rbp
	.cfi_def_cfa %rsp, 8
	retq
.LBB22_8:                               # %func_decide_fld_frame.82
	.cfi_def_cfa %rbp, 16
	movl	%ebx, %edi
	movl	%r14d, %esi
	callq	decide_fld_frame.82
	addq	$16, %rsp
	popq	%rbx
	popq	%r14
	popq	%rbp
	.cfi_def_cfa %rsp, 8
	retq
.LBB22_9:                               # %func_decide_fld_frame.91
	.cfi_def_cfa %rbp, 16
	movl	%ebx, %edi
	movl	%r14d, %esi
	callq	decide_fld_frame.91
	addq	$16, %rsp
	popq	%rbx
	popq	%r14
	popq	%rbp
	.cfi_def_cfa %rsp, 8
	retq
.LBB22_10:                              # %func_decide_fld_frame.93
	.cfi_def_cfa %rbp, 16
	movl	%ebx, %edi
	movl	%r14d, %esi
	callq	decide_fld_frame.93
	addq	$16, %rsp
	popq	%rbx
	popq	%r14
	popq	%rbp
	.cfi_def_cfa %rsp, 8
	retq
.LBB22_11:                              # %func_decide_fld_frame.95
	.cfi_def_cfa %rbp, 16
	movl	%ebx, %edi
	movl	%r14d, %esi
	callq	decide_fld_frame.95
	addq	$16, %rsp
	popq	%rbx
	popq	%r14
	popq	%rbp
	.cfi_def_cfa %rsp, 8
	retq
.LBB22_12:                              # %func_decide_fld_frame.96
	.cfi_def_cfa %rbp, 16
	movl	%ebx, %edi
	movl	%r14d, %esi
	callq	decide_fld_frame.96
	addq	$16, %rsp
	popq	%rbx
	popq	%r14
	popq	%rbp
	.cfi_def_cfa %rsp, 8
	retq
.LBB22_13:                              # %func_decide_fld_frame.97
	.cfi_def_cfa %rbp, 16
	movl	%ebx, %edi
	movl	%r14d, %esi
	callq	decide_fld_frame.97
	addq	$16, %rsp
	popq	%rbx
	popq	%r14
	popq	%rbp
	.cfi_def_cfa %rsp, 8
	retq
.LBB22_14:                              # %func_decide_fld_frame.105
	.cfi_def_cfa %rbp, 16
	movl	%ebx, %edi
	movl	%r14d, %esi
	callq	decide_fld_frame.105
	addq	$16, %rsp
	popq	%rbx
	popq	%r14
	popq	%rbp
	.cfi_def_cfa %rsp, 8
	retq
.LBB22_15:                              # %func_decide_fld_frame.111
	.cfi_def_cfa %rbp, 16
	vmovaps	%xmm5, %xmm0
	vmovaps	%xmm4, %xmm1
	movl	%ebx, %edi
	movl	%r14d, %esi
	vmovaps	%xmm3, %xmm2
	callq	decide_fld_frame.111
	addq	$16, %rsp
	popq	%rbx
	popq	%r14
	popq	%rbp
	.cfi_def_cfa %rsp, 8
	retq
.LBB22_16:                              # %func_decide_fld_frame.117
	.cfi_def_cfa %rbp, 16
	vmovaps	%xmm5, %xmm0
	vmovaps	%xmm4, %xmm1
	movl	%ebx, %edi
	movl	%r14d, %esi
	vmovaps	%xmm3, %xmm2
	callq	decide_fld_frame.117
	addq	$16, %rsp
	popq	%rbx
	popq	%r14
	popq	%rbp
	.cfi_def_cfa %rsp, 8
	retq
.LBB22_17:                              # %ctrl0
	.cfi_def_cfa %rbp, 16
	vmovss	-20(%rbp), %xmm5        # 4-byte Reload
                                        # xmm5 = mem[0],zero,zero,zero
	vmovss	-24(%rbp), %xmm4        # 4-byte Reload
                                        # xmm4 = mem[0],zero,zero,zero
	vmovsd	-32(%rbp), %xmm3        # 8-byte Reload
                                        # xmm3 = mem[0],zero
	cmpl	$1, %eax
	je	.LBB22_2
# %bb.18:                               # %ctrl1
	cmpl	$2, %eax
	vmovaps	%xmm3, %xmm2
	vmovaps	%xmm4, %xmm1
	vmovaps	%xmm5, %xmm0
	je	.LBB22_3
# %bb.19:                               # %ctrl2
	cmpl	$3, %eax
	je	.LBB22_4
# %bb.20:                               # %ctrl3
	cmpl	$4, %eax
	je	.LBB22_5
# %bb.21:                               # %ctrl4
	cmpl	$5, %eax
	je	.LBB22_6
# %bb.22:                               # %ctrl5
	cmpl	$6, %eax
	je	.LBB22_7
# %bb.23:                               # %ctrl6
	cmpl	$7, %eax
	je	.LBB22_8
# %bb.24:                               # %ctrl7
	cmpl	$8, %eax
	je	.LBB22_9
# %bb.25:                               # %ctrl8
	cmpl	$9, %eax
	je	.LBB22_10
# %bb.26:                               # %ctrl9
	cmpl	$10, %eax
	je	.LBB22_11
# %bb.27:                               # %ctrl10
	cmpl	$11, %eax
	je	.LBB22_12
# %bb.28:                               # %ctrl11
	cmpl	$12, %eax
	je	.LBB22_13
# %bb.29:                               # %ctrl12
	cmpl	$13, %eax
	je	.LBB22_14
# %bb.30:                               # %ctrl13
	cmpl	$14, %eax
	je	.LBB22_15
	jmp	.LBB22_16
.Lfunc_end22:
	.size	decide_fld_frame, .Lfunc_end22-decide_fld_frame
	.cfi_endproc
                                        # -- End function
	.globl	process_2nd_IGOP        # -- Begin function process_2nd_IGOP
	.p2align	4, 0x90
	.type	process_2nd_IGOP,@function
process_2nd_IGOP:                       # @process_2nd_IGOP
	.cfi_startproc
# %bb.0:                                # %entry
	pushq	%rbp
	.cfi_def_cfa_offset 16
	.cfi_offset %rbp, -16
	movq	%rsp, %rbp
	.cfi_def_cfa_register %rbp
	movl	$0, -4(%rbp)
	movq	img, %rax
	movl	(%rax), %eax
	movq	input, %rcx
	movl	8(%rcx), %ecx
	subl	$1, %ecx
	cmpl	%ecx, %eax
	jne	.LBB23_2
# %bb.1:                                # %if.then
	movl	$1, -4(%rbp)
.LBB23_2:                               # %if.end
	movq	input, %rax
	cmpl	$0, 2916(%rax)
	jne	.LBB23_4
# %bb.3:                                # %if.then2
	jmp	.LBB23_8
.LBB23_4:                               # %if.end3
	cmpl	$0, -4(%rbp)
	je	.LBB23_6
# %bb.5:                                # %lor.lhs.false
	cmpl	$0, In2ndIGOP
	je	.LBB23_7
.LBB23_6:                               # %if.then5
	jmp	.LBB23_8
.LBB23_7:                               # %if.end6
	movl	$1, In2ndIGOP
	movq	input, %rax
	movl	8(%rax), %eax
	movl	%eax, start_frame_no_in_this_IGOP
	movq	input, %rax
	movl	8(%rax), %eax
	subl	$1, %eax
	movq	input, %rcx
	movl	20(%rcx), %ecx
	addl	$1, %ecx
	imull	%ecx, %eax
	addl	$1, %eax
	movl	%eax, start_tr_in_this_IGOP
	movq	input, %rax
	movl	8(%rax), %eax
	movq	input, %rcx
	addl	2916(%rcx), %eax
	movq	input, %rcx
	movl	%eax, 8(%rcx)
	movq	img, %rax
	movl	$0, 8(%rax)
.LBB23_8:                               # %return
	popq	%rbp
	.cfi_def_cfa %rsp, 8
	retq
.Lfunc_end23:
	.size	process_2nd_IGOP, .Lfunc_end23-process_2nd_IGOP
	.cfi_endproc
                                        # -- End function
	.globl	SetImgType              # -- Begin function SetImgType
	.p2align	4, 0x90
	.type	SetImgType,@function
SetImgType:                             # @SetImgType
	.cfi_startproc
# %bb.0:                                # %entry
	pushq	%rbp
	.cfi_def_cfa_offset 16
	.cfi_offset %rbp, -16
	movq	%rsp, %rbp
	.cfi_def_cfa_register %rbp
	movq	input, %rax
	cmpl	$0, 1224(%rax)
	jne	.LBB24_9
# %bb.1:                                # %if.then
	movq	img, %rax
	movl	(%rax), %eax
	subl	start_frame_no_in_this_IGOP, %eax
	cmpl	$0, %eax
	jne	.LBB24_3
# %bb.2:                                # %if.then2
	movq	img, %rax
	movl	$2, 24(%rax)
	jmp	.LBB24_8
.LBB24_3:                               # %if.else
	movq	img, %rax
	movl	$0, 24(%rax)
	movq	input, %rax
	cmpl	$0, 1272(%rax)
	je	.LBB24_7
# %bb.4:                                # %if.then4
	movq	img, %rax
	movl	(%rax), %eax
	subl	start_frame_no_in_this_IGOP, %eax
	movq	input, %rcx
	cltd
	idivl	1272(%rcx)
	cmpl	$0, %edx
	jne	.LBB24_6
# %bb.5:                                # %if.then9
	movq	img, %rax
	movl	$3, 24(%rax)
.LBB24_6:                               # %if.end
	jmp	.LBB24_7
.LBB24_7:                               # %if.end11
	jmp	.LBB24_8
.LBB24_8:                               # %if.end12
	jmp	.LBB24_17
.LBB24_9:                               # %if.else13
	movq	img, %rax
	movl	(%rax), %eax
	subl	start_frame_no_in_this_IGOP, %eax
	movq	input, %rcx
	cltd
	idivl	1224(%rcx)
	cmpl	$0, %edx
	jne	.LBB24_11
# %bb.10:                               # %if.then19
	movq	img, %rax
	movl	$2, 24(%rax)
	jmp	.LBB24_16
.LBB24_11:                              # %if.else21
	movq	img, %rax
	movl	$0, 24(%rax)
	movq	input, %rax
	cmpl	$0, 1272(%rax)
	je	.LBB24_15
# %bb.12:                               # %if.then25
	movq	img, %rax
	movl	(%rax), %eax
	subl	start_frame_no_in_this_IGOP, %eax
	movq	input, %rcx
	cltd
	idivl	1272(%rcx)
	cmpl	$0, %edx
	jne	.LBB24_14
# %bb.13:                               # %if.then31
	movq	img, %rax
	movl	$3, 24(%rax)
.LBB24_14:                              # %if.end33
	jmp	.LBB24_15
.LBB24_15:                              # %if.end34
	jmp	.LBB24_16
.LBB24_16:                              # %if.end35
	jmp	.LBB24_17
.LBB24_17:                              # %if.end36
	popq	%rbp
	.cfi_def_cfa %rsp, 8
	retq
.Lfunc_end24:
	.size	SetImgType, .Lfunc_end24-SetImgType
	.cfi_endproc
                                        # -- End function
	.section	.rodata.cst8,"aM",@progbits,8
	.p2align	3               # -- Begin function report.1
.LCPI25_0:
	.quad	4562254508917369340     # double 0.001
.LCPI25_2:
	.quad	4607182418800017408     # double 1
	.section	.rodata.cst4,"aM",@progbits,4
	.p2align	2
.LCPI25_1:
	.long	1148846080              # float 1000
	.text
	.globl	report.1
	.p2align	4, 0x90
	.type	report.1,@function
report.1:                               # @report.1
	.cfi_startproc
# %bb.0:                                # %entry
	pushq	%rbp
	.cfi_def_cfa_offset 16
	.cfi_offset %rbp, -16
	movq	%rsp, %rbp
	.cfi_def_cfa_register %rbp
	pushq	%r15
	pushq	%r14
	pushq	%rbx
	subq	$1272, %rsp             # imm = 0x4F8
	.cfi_offset %rbx, -40
	.cfi_offset %r14, -32
	.cfi_offset %r15, -24
	movl	$2133071512, -100(%rbp) # imm = 0x7F241698
	movl	Iframe_ctr, %eax
	movl	%eax, -64(%rbp)
	cmpl	$1, Pframe_ctr
	jle	.LBB25_2
# %bb.1:                                # %cond.true
	movl	Pframe_ctr, %eax
	jmp	.LBB25_3
.LBB25_2:                               # %cond.false
	movl	$1, %eax
	jmp	.LBB25_3
.LBB25_3:                               # %cond.end
	movl	%eax, -80(%rbp)
	movl	Bframe_ctr, %eax
	movl	%eax, -72(%rbp)
	movl	$0, -28(%rbp)
.LBB25_4:                               # %for.cond
                                        # =>This Inner Loop Header: Depth=1
	cmpl	$5, -28(%rbp)
	jge	.LBB25_7
# %bb.5:                                # %for.body
                                        #   in Loop: Header=BB25_4 Depth=1
	movslq	-28(%rbp), %rax
	movl	$0, -76(%rbp,%rax,8)
# %bb.6:                                # %for.inc
                                        #   in Loop: Header=BB25_4 Depth=1
	movl	-28(%rbp), %eax
	addl	$1, %eax
	movl	%eax, -28(%rbp)
	jmp	.LBB25_4
.LBB25_7:                               # %for.end
	movl	$0, -28(%rbp)
.LBB25_8:                               # %for.cond9
                                        # =>This Loop Header: Depth=1
                                        #     Child Loop BB25_10 Depth 2
	cmpl	$5, -28(%rbp)
	jge	.LBB25_15
# %bb.9:                                # %for.body11
                                        #   in Loop: Header=BB25_8 Depth=1
	movl	$0, -36(%rbp)
.LBB25_10:                              # %for.cond12
                                        #   Parent Loop BB25_8 Depth=1
                                        # =>  This Inner Loop Header: Depth=2
	cmpl	$15, -36(%rbp)
	jge	.LBB25_13
# %bb.11:                               # %for.body14
                                        #   in Loop: Header=BB25_10 Depth=2
	movq	stats, %rax
	addq	$1028, %rax             # imm = 0x404
	movslq	-28(%rbp), %rcx
	imulq	$60, %rcx, %rcx
	addq	%rcx, %rax
	movslq	-36(%rbp), %rcx
	movl	(%rax,%rcx,4), %eax
	movslq	-28(%rbp), %rcx
	addl	-76(%rbp,%rcx,8), %eax
	movl	%eax, -76(%rbp,%rcx,8)
# %bb.12:                               # %for.inc22
                                        #   in Loop: Header=BB25_10 Depth=2
	movl	-36(%rbp), %eax
	addl	$1, %eax
	movl	%eax, -36(%rbp)
	jmp	.LBB25_10
.LBB25_13:                              # %for.end24
                                        #   in Loop: Header=BB25_8 Depth=1
	movq	stats, %rax
	movslq	-28(%rbp), %rcx
	movl	1368(%rax,%rcx,4), %eax
	movslq	-28(%rbp), %rcx
	addl	-76(%rbp,%rcx,8), %eax
	movl	%eax, -76(%rbp,%rcx,8)
	movq	stats, %rax
	movslq	-28(%rbp), %rcx
	movl	1348(%rax,%rcx,4), %eax
	movslq	-28(%rbp), %rcx
	addl	-76(%rbp,%rcx,8), %eax
	movl	%eax, -76(%rbp,%rcx,8)
	movq	stats, %rax
	movslq	-28(%rbp), %rcx
	movl	1388(%rax,%rcx,4), %eax
	movslq	-28(%rbp), %rcx
	addl	-76(%rbp,%rcx,8), %eax
	movl	%eax, -76(%rbp,%rcx,8)
	movq	stats, %rax
	movslq	-28(%rbp), %rcx
	movl	1408(%rax,%rcx,4), %eax
	movslq	-28(%rbp), %rcx
	addl	-76(%rbp,%rcx,8), %eax
	movl	%eax, -76(%rbp,%rcx,8)
	movq	stats, %rax
	movslq	-28(%rbp), %rcx
	movl	1428(%rax,%rcx,4), %eax
	movslq	-28(%rbp), %rcx
	addl	-76(%rbp,%rcx,8), %eax
	movl	%eax, -76(%rbp,%rcx,8)
	movq	stats, %rax
	movslq	-28(%rbp), %rcx
	movl	1448(%rax,%rcx,4), %eax
	movslq	-28(%rbp), %rcx
	addl	-76(%rbp,%rcx,8), %eax
	movl	%eax, -76(%rbp,%rcx,8)
	movq	stats, %rax
	movslq	-28(%rbp), %rcx
	movl	1328(%rax,%rcx,4), %eax
	movslq	-28(%rbp), %rcx
	addl	-76(%rbp,%rcx,8), %eax
	movl	%eax, -76(%rbp,%rcx,8)
# %bb.14:                               # %for.inc67
                                        #   in Loop: Header=BB25_8 Depth=1
	movl	-28(%rbp), %eax
	addl	$1, %eax
	movl	%eax, -28(%rbp)
	jmp	.LBB25_8
.LBB25_15:                              # %for.end69
	movq	img, %rax
	vmovss	48(%rax), %xmm0         # xmm0 = mem[0],zero,zero,zero
	movq	input, %rax
	movl	1236(%rax), %eax
	addl	$1, %eax
	vcvtsi2ss	%eax, %xmm0, %xmm1
	vmulss	%xmm1, %xmm0, %xmm0
	movq	input, %rax
	movl	20(%rax), %eax
	addl	$1, %eax
	vcvtsi2ss	%eax, %xmm0, %xmm1
	vdivss	%xmm1, %xmm0, %xmm0
	vmovss	%xmm0, -32(%rbp)
	movq	stats, %rax
	vcvtsi2ssl	704(%rax), %xmm0, %xmm0
	vmulss	-32(%rbp), %xmm0, %xmm0
	movq	input, %rax
	movl	8(%rax), %eax
	addl	Bframe_ctr, %eax
	vcvtsi2ss	%eax, %xmm0, %xmm1
	vdivss	%xmm1, %xmm0, %xmm0
	movq	stats, %rax
	vmovss	%xmm0, 716(%rax)
	movq	stats, %rax
	vcvtsi2ssl	708(%rax), %xmm0, %xmm0
	vmulss	-32(%rbp), %xmm0, %xmm0
	movq	input, %rax
	movl	8(%rax), %eax
	addl	Bframe_ctr, %eax
	vcvtsi2ss	%eax, %xmm0, %xmm1
	vdivss	%xmm1, %xmm0, %xmm0
	movq	stats, %rax
	vmovss	%xmm0, 720(%rax)
	movq	stats, %rax
	vcvtsi2ssl	712(%rax), %xmm0, %xmm0
	vmulss	-32(%rbp), %xmm0, %xmm0
	movq	input, %rax
	movl	8(%rax), %eax
	addl	Bframe_ctr, %eax
	vcvtsi2ss	%eax, %xmm0, %xmm1
	vdivss	%xmm1, %xmm0, %xmm0
	movq	stats, %rax
	vmovss	%xmm0, 724(%rax)
	movq	stdout, %rdi
	movabsq	$.L.str.26, %rsi
	movb	$0, %al
	callq	fprintf
	movq	stdout, %rdi
	movq	img, %rax
	vmovss	48(%rax), %xmm0         # xmm0 = mem[0],zero,zero,zero
	movq	input, %rax
	movl	20(%rax), %eax
	addl	$1, %eax
	vcvtsi2ss	%eax, %xmm0, %xmm1
	vdivss	%xmm1, %xmm0, %xmm0
	vcvtss2sd	%xmm0, %xmm0, %xmm0
	movabsq	$.L.str.27, %rsi
	movb	$1, %al
	callq	fprintf
	movq	input, %rax
	cmpl	$0, 24(%rax)
	je	.LBB25_20
# %bb.16:                               # %if.then
	movq	input, %rax
	cmpl	$0, 28(%rax)
	je	.LBB25_18
# %bb.17:                               # %if.then98
	movq	stdout, %rdi
	movabsq	$.L.str.28, %rsi
	movb	$0, %al
	callq	fprintf
	jmp	.LBB25_19
.LBB25_18:                              # %if.else
	movq	stdout, %rdi
	movabsq	$.L.str.29, %rsi
	movb	$0, %al
	callq	fprintf
.LBB25_19:                              # %if.end
	jmp	.LBB25_21
.LBB25_20:                              # %if.else101
	movq	stdout, %rdi
	movabsq	$.L.str.30, %rsi
	movb	$0, %al
	callq	fprintf
.LBB25_21:                              # %if.end103
	movq	stdout, %rdi
	movq	input, %rax
	movl	64(%rax), %edx
	movq	input, %rax
	movl	68(%rax), %ecx
	movabsq	$.L.str.31, %rsi
	movb	$0, %al
	callq	fprintf
	movq	input, %rax
	cmpl	$0, 76(%rax)
	je	.LBB25_23
# %bb.22:                               # %if.then106
	movq	stdout, %rdi
	movabsq	$.L.str.32, %rsi
	movb	$0, %al
	callq	fprintf
	jmp	.LBB25_24
.LBB25_23:                              # %if.else108
	movq	stdout, %rdi
	movabsq	$.L.str.33, %rsi
	movb	$0, %al
	callq	fprintf
.LBB25_24:                              # %if.end110
	movq	stdout, %rdi
	movq	input, %rax
	movl	32(%rax), %edx
	movabsq	$.L.str.34, %rsi
	movb	$0, %al
	callq	fprintf
	movq	stdout, %rdi
	movq	input, %rax
	movl	36(%rax), %edx
	movabsq	$.L.str.35, %rsi
	movb	$0, %al
	callq	fprintf
	movq	stdout, %rdi
	movq	input, %rax
	cmpl	$0, 40(%rax)
	je	.LBB25_26
# %bb.25:                               # %cond.true114
	movq	input, %rax
	movl	40(%rax), %edx
	jmp	.LBB25_27
.LBB25_26:                              # %cond.false116
	movq	input, %rax
	movl	36(%rax), %edx
.LBB25_27:                              # %cond.end118
	movabsq	$.L.str.36, %rsi
	movb	$0, %al
	callq	fprintf
	movq	input, %rax
	cmpl	$0, 1236(%rax)
	je	.LBB25_35
# %bb.28:                               # %if.then124
	movq	stdout, %rdi
	movq	input, %rax
	cmpl	$0, 44(%rax)
	je	.LBB25_30
# %bb.29:                               # %cond.true126
	movq	input, %rax
	movl	44(%rax), %edx
	jmp	.LBB25_31
.LBB25_30:                              # %cond.false128
	movq	input, %rax
	movl	36(%rax), %edx
.LBB25_31:                              # %cond.end130
	movabsq	$.L.str.37, %rsi
	movb	$0, %al
	callq	fprintf
	movq	stdout, %rdi
	movq	input, %rax
	cmpl	$0, 48(%rax)
	je	.LBB25_33
# %bb.32:                               # %cond.true134
	movq	input, %rax
	movl	48(%rax), %edx
	jmp	.LBB25_34
.LBB25_33:                              # %cond.false136
	movq	input, %rax
	movl	36(%rax), %edx
.LBB25_34:                              # %cond.end138
	movabsq	$.L.str.38, %rsi
	movb	$0, %al
	callq	fprintf
.LBB25_35:                              # %if.end141
	vmovsd	.LCPI25_0(%rip), %xmm0  # xmm0 = mem[0],zero
	movq	stdout, %rdi
	vcvtsi2sdl	tot_time, %xmm0, %xmm1
	vmulsd	%xmm0, %xmm1, %xmm0
	movabsq	$.L.str.39, %rsi
	movb	$1, %al
	callq	fprintf
	vmovsd	.LCPI25_0(%rip), %xmm0  # xmm0 = mem[0],zero
	movq	stdout, %rdi
	vcvtsi2sdl	me_tot_time, %xmm0, %xmm1
	vmulsd	%xmm0, %xmm1, %xmm0
	movabsq	$.L.str.40, %rsi
	movb	$1, %al
	callq	fprintf
	movq	stdout, %rdi
	movabsq	$.L.str.41, %rsi
	movb	$0, %al
	callq	fprintf
	movq	input, %rax
	cmpl	$0, 1236(%rax)
	jle	.LBB25_38
# %bb.36:                               # %land.lhs.true
	movq	input, %rax
	cmpl	$0, 1320(%rax)
	je	.LBB25_38
# %bb.37:                               # %if.then153
	movq	stdout, %rdi
	movq	input, %rax
	movl	12(%rax), %edx
	movq	input, %rax
	movl	16(%rax), %ecx
	movq	input, %rax
	movl	1240(%rax), %r8d
	movabsq	$.L.str.42, %rsi
	movb	$0, %al
	callq	fprintf
	jmp	.LBB25_75
.LBB25_38:                              # %if.else155
	movq	input, %rax
	cmpl	$0, 1236(%rax)
	jle	.LBB25_69
# %bb.39:                               # %if.then159
	leaq	-208(%rbp), %rdi
	movl	$.L.str.43, %esi
	callq	strcpy
	movl	$0, -84(%rbp)
.LBB25_40:                              # %for.cond163
                                        # =>This Loop Header: Depth=1
                                        #     Child Loop BB25_42 Depth 2
	cmpl	$2, -84(%rbp)
	jge	.LBB25_59
# %bb.41:                               # %for.body166
                                        #   in Loop: Header=BB25_40 Depth=1
	movl	$0, -88(%rbp)
.LBB25_42:                              # %for.cond167
                                        #   Parent Loop BB25_40 Depth=1
                                        # =>  This Inner Loop Header: Depth=2
	movl	-88(%rbp), %eax
	movq	input, %rcx
	cmpl	1236(%rcx), %eax
	jge	.LBB25_54
# %bb.43:                               # %for.body171
                                        #   in Loop: Header=BB25_42 Depth=2
	movq	input, %rax
	cmpl	$0, 1316(%rax)
	je	.LBB25_48
# %bb.44:                               # %if.then173
                                        #   in Loop: Header=BB25_42 Depth=2
	xorl	%ebx, %ebx
	leaq	-208(%rbp), %r14
	movq	%r14, %rdi
	callq	strlen
	movl	$79, %ecx
	subq	%rax, %rcx
	cmpl	%ecx, %ebx
	jle	.LBB25_46
# %bb.45:                               # %cond.true180
                                        #   in Loop: Header=BB25_42 Depth=2
	xorl	%ecx, %ecx
	jmp	.LBB25_47
.LBB25_46:                              # %cond.false181
                                        #   in Loop: Header=BB25_42 Depth=2
	leaq	-208(%rbp), %rdi
	callq	strlen
	movl	$79, %ecx
	subq	%rax, %rcx
.LBB25_47:                              # %cond.end186
                                        #   in Loop: Header=BB25_42 Depth=2
	movslq	%ecx, %rdx
	movq	%r14, %rdi
	movabsq	$.L.str.44, %rsi
	callq	strncat
	jmp	.LBB25_52
.LBB25_48:                              # %if.else190
                                        #   in Loop: Header=BB25_42 Depth=2
	xorl	%ebx, %ebx
	leaq	-208(%rbp), %r14
	movq	%r14, %rdi
	callq	strlen
	movl	$79, %ecx
	subq	%rax, %rcx
	cmpl	%ecx, %ebx
	jle	.LBB25_50
# %bb.49:                               # %cond.true198
                                        #   in Loop: Header=BB25_42 Depth=2
	xorl	%ecx, %ecx
	jmp	.LBB25_51
.LBB25_50:                              # %cond.false199
                                        #   in Loop: Header=BB25_42 Depth=2
	leaq	-208(%rbp), %rdi
	callq	strlen
	movl	$79, %ecx
	subq	%rax, %rcx
.LBB25_51:                              # %cond.end204
                                        #   in Loop: Header=BB25_42 Depth=2
	movslq	%ecx, %rdx
	movq	%r14, %rdi
	movabsq	$.L.str.45, %rsi
	callq	strncat
.LBB25_52:                              # %if.end208
                                        #   in Loop: Header=BB25_42 Depth=2
	jmp	.LBB25_53
.LBB25_53:                              # %for.inc209
                                        #   in Loop: Header=BB25_42 Depth=2
	movl	-88(%rbp), %eax
	addl	$1, %eax
	movl	%eax, -88(%rbp)
	jmp	.LBB25_42
.LBB25_54:                              # %for.end211
                                        #   in Loop: Header=BB25_40 Depth=1
	xorl	%ebx, %ebx
	leaq	-208(%rbp), %r14
	movq	%r14, %rdi
	callq	strlen
	movl	$79, %ecx
	subq	%rax, %rcx
	cmpl	%ecx, %ebx
	jle	.LBB25_56
# %bb.55:                               # %cond.true219
                                        #   in Loop: Header=BB25_40 Depth=1
	xorl	%ecx, %ecx
	jmp	.LBB25_57
.LBB25_56:                              # %cond.false220
                                        #   in Loop: Header=BB25_40 Depth=1
	leaq	-208(%rbp), %rdi
	callq	strlen
	movl	$79, %ecx
	subq	%rax, %rcx
.LBB25_57:                              # %cond.end225
                                        #   in Loop: Header=BB25_40 Depth=1
	movslq	%ecx, %rdx
	movq	%r14, %rdi
	movabsq	$.L.str.46, %rsi
	callq	strncat
# %bb.58:                               # %for.inc229
                                        #   in Loop: Header=BB25_40 Depth=1
	movl	-84(%rbp), %eax
	addl	$1, %eax
	movl	%eax, -84(%rbp)
	jmp	.LBB25_40
.LBB25_59:                              # %for.end231
	movq	input, %rax
	cmpl	$0, 1316(%rax)
	je	.LBB25_67
# %bb.60:                               # %if.then234
	leaq	-208(%rbp), %rdx
	movq	stdout, %rdi
	movq	input, %rax
	movl	12(%rax), %ecx
	movq	input, %rax
	movl	16(%rax), %r8d
	movq	input, %rax
	movl	1240(%rax), %eax
	movq	input, %rsi
	addl	1244(%rsi), %eax
	cmpl	$0, %eax
	jge	.LBB25_62
# %bb.61:                               # %cond.true242
	xorl	%r9d, %r9d
	jmp	.LBB25_66
.LBB25_62:                              # %cond.false243
	movq	input, %rax
	movl	1240(%rax), %eax
	movq	input, %rsi
	addl	1244(%rsi), %eax
	cmpl	$51, %eax
	jle	.LBB25_64
# %bb.63:                               # %cond.true249
	movl	$51, %r9d
	jmp	.LBB25_65
.LBB25_64:                              # %cond.false250
	movq	input, %rax
	movl	1240(%rax), %r9d
	movq	input, %rax
	addl	1244(%rax), %r9d
.LBB25_65:                              # %cond.end254
.LBB25_66:                              # %cond.end256
	movabsq	$.L.str.47, %rsi
	movb	$0, %al
	callq	fprintf
	jmp	.LBB25_68
.LBB25_67:                              # %if.else259
	leaq	-208(%rbp), %rdx
	movq	stdout, %rdi
	movq	input, %rax
	movl	12(%rax), %ecx
	movq	input, %rax
	movl	16(%rax), %r8d
	movq	input, %rax
	movl	1240(%rax), %r9d
	movabsq	$.L.str.48, %rsi
	movb	$0, %al
	callq	fprintf
.LBB25_68:                              # %if.end265
	jmp	.LBB25_74
.LBB25_69:                              # %if.else266
	movq	input, %rax
	cmpl	$0, 1236(%rax)
	jne	.LBB25_72
# %bb.70:                               # %land.lhs.true270
	movq	input, %rax
	cmpl	$0, 1272(%rax)
	jne	.LBB25_72
# %bb.71:                               # %if.then273
	movq	stdout, %rdi
	movq	input, %rax
	movl	12(%rax), %edx
	movq	input, %rax
	movl	16(%rax), %ecx
	movabsq	$.L.str.49, %rsi
	movb	$0, %al
	callq	fprintf
	jmp	.LBB25_73
.LBB25_72:                              # %if.else277
	movq	stdout, %rdi
	movq	input, %rax
	movl	12(%rax), %edx
	movq	input, %rax
	movl	16(%rax), %ecx
	movq	input, %rax
	movl	1276(%rax), %r8d
	movq	input, %rax
	movl	1280(%rax), %r9d
	movabsq	$.L.str.50, %rsi
	movb	$0, %al
	callq	fprintf
.LBB25_73:                              # %if.end281
	jmp	.LBB25_74
.LBB25_74:                              # %if.end282
	jmp	.LBB25_75
.LBB25_75:                              # %if.end283
	movq	input, %rax
	cmpl	$0, 2356(%rax)
	jne	.LBB25_77
# %bb.76:                               # %if.then286
	movq	stdout, %rdi
	movabsq	$.L.str.51, %rsi
	movb	$0, %al
	callq	fprintf
	jmp	.LBB25_78
.LBB25_77:                              # %if.else288
	movq	stdout, %rdi
	movabsq	$.L.str.52, %rsi
	movb	$0, %al
	callq	fprintf
.LBB25_78:                              # %if.end290
	movq	stdout, %rdi
	movq	input, %rax
	movl	(%rax), %edx
	movq	input, %rax
	movl	4(%rax), %ecx
	movabsq	$.L.str.53, %rsi
	movb	$0, %al
	callq	fprintf
	movq	input, %rax
	cmpl	$2, 2436(%rax)
	jne	.LBB25_80
# %bb.79:                               # %if.then294
	movq	stdout, %rdi
	movabsq	$.L.str.54, %rsi
	movb	$0, %al
	callq	fprintf
	jmp	.LBB25_84
.LBB25_80:                              # %if.else296
	movq	input, %rax
	cmpl	$1, 2436(%rax)
	jne	.LBB25_82
# %bb.81:                               # %if.then300
	movq	stdout, %rdi
	movabsq	$.L.str.55, %rsi
	movb	$0, %al
	callq	fprintf
	jmp	.LBB25_83
.LBB25_82:                              # %if.else302
	movq	stdout, %rdi
	movabsq	$.L.str.56, %rsi
	movb	$0, %al
	callq	fprintf
.LBB25_83:                              # %if.end304
	jmp	.LBB25_84
.LBB25_84:                              # %if.end305
	movq	input, %rax
	cmpl	$0, 2464(%rax)
	je	.LBB25_86
# %bb.85:                               # %if.then307
	movq	stdout, %rdi
	movabsq	$.L.str.57, %rsi
	movb	$0, %al
	callq	fprintf
	jmp	.LBB25_87
.LBB25_86:                              # %if.else309
	movq	stdout, %rdi
	movabsq	$.L.str.58, %rsi
	movb	$0, %al
	callq	fprintf
.LBB25_87:                              # %if.end311
	movq	input(%rip), %rax
	movl	2364(%rax), %eax
	testl	%eax, %eax
	je	.LBB25_89
	jmp	.LBB25_88
.LBB25_88:                              # %if.end311
	subl	$1, %eax
	je	.LBB25_90
	jmp	.LBB25_91
.LBB25_89:                              # %sw.bb
	movq	stdout, %rdi
	movabsq	$.L.str.59, %rsi
	movb	$0, %al
	callq	fprintf
	jmp	.LBB25_92
.LBB25_90:                              # %sw.bb313
	movq	stdout, %rdi
	movabsq	$.L.str.60, %rsi
	movb	$0, %al
	callq	fprintf
	jmp	.LBB25_92
.LBB25_91:                              # %sw.default
	movq	stdout, %rdi
	movabsq	$.L.str.61, %rsi
	movb	$0, %al
	callq	fprintf
.LBB25_92:                              # %sw.epilog
	movq	input(%rip), %rax
	movl	2360(%rax), %eax
	testl	%eax, %eax
	je	.LBB25_94
	jmp	.LBB25_93
.LBB25_93:                              # %sw.epilog
	subl	$1, %eax
	je	.LBB25_95
	jmp	.LBB25_96
.LBB25_94:                              # %sw.bb316
	movq	stdout, %rdi
	movabsq	$.L.str.62, %rsi
	movb	$0, %al
	callq	fprintf
	jmp	.LBB25_97
.LBB25_95:                              # %sw.bb318
	movq	stdout, %rdi
	movabsq	$.L.str.63, %rsi
	movb	$0, %al
	callq	fprintf
	jmp	.LBB25_97
.LBB25_96:                              # %sw.default320
	movq	stdout, %rdi
	movabsq	$.L.str.64, %rsi
	movb	$0, %al
	callq	fprintf
.LBB25_97:                              # %sw.epilog322
	movq	input, %rax
	cmpl	$0, 3328(%rax)
	je	.LBB25_99
# %bb.98:                               # %if.then324
	movq	stdout, %rdi
	movabsq	$.L.str.65, %rsi
	movb	$0, %al
	callq	fprintf
	jmp	.LBB25_100
.LBB25_99:                              # %if.else326
	movq	stdout, %rdi
	movabsq	$.L.str.66, %rsi
	movb	$0, %al
	callq	fprintf
.LBB25_100:                             # %if.end328
	movq	stdout, %rdi
	movabsq	$.L.str.67, %rsi
	movb	$0, %al
	callq	fprintf
	movq	stdout, %rdi
	movq	snr, %rax
	vmovss	60(%rax), %xmm0         # xmm0 = mem[0],zero,zero,zero
	vcvtss2sd	%xmm0, %xmm0, %xmm0
	movabsq	$.L.str.68, %rsi
	movb	$1, %al
	callq	fprintf
	movq	stdout, %rdi
	movq	snr, %rax
	vmovss	64(%rax), %xmm0         # xmm0 = mem[0],zero,zero,zero
	vcvtss2sd	%xmm0, %xmm0, %xmm0
	movabsq	$.L.str.69, %rsi
	movb	$1, %al
	callq	fprintf
	movq	stdout, %rdi
	movq	snr, %rax
	vmovss	68(%rax), %xmm0         # xmm0 = mem[0],zero,zero,zero
	vcvtss2sd	%xmm0, %xmm0, %xmm0
	movabsq	$.L.str.70, %rsi
	movb	$1, %al
	callq	fprintf
	cmpl	$0, Bframe_ctr
	je	.LBB25_102
# %bb.101:                              # %if.then338
	movq	stdout, %rdi
	movq	stats, %rax
	movl	708(%rax), %edx
	movq	stats, %rax
	addl	704(%rax), %edx
	movq	stats, %rax
	addl	712(%rax), %edx
	movq	stats, %rax
	addl	1488(%rax), %edx
	movl	%edx, -40(%rbp)
	movq	stats, %rax
	movl	704(%rax), %ecx
	movq	stats, %rax
	movl	708(%rax), %r8d
	movq	stats, %rax
	movl	712(%rax), %r9d
	movq	stats, %rax
	movl	1488(%rax), %eax
	movabsq	$.L.str.71, %rsi
	movl	%eax, (%rsp)
	movb	$0, %al
	callq	fprintf
	vmovss	.LCPI25_1(%rip), %xmm1  # xmm1 = mem[0],zero,zero,zero
	movq	img, %rax
	vmovss	48(%rax), %xmm0         # xmm0 = mem[0],zero,zero,zero
	movq	input, %rax
	movl	1236(%rax), %eax
	addl	$1, %eax
	vcvtsi2ss	%eax, %xmm0, %xmm2
	vmulss	%xmm2, %xmm0, %xmm0
	movq	input, %rax
	movl	20(%rax), %eax
	addl	$1, %eax
	vcvtsi2ss	%eax, %xmm0, %xmm2
	vdivss	%xmm2, %xmm0, %xmm0
	vmovss	%xmm0, -32(%rbp)
	vcvtsi2ssl	-40(%rbp), %xmm0, %xmm0
	vmulss	-32(%rbp), %xmm0, %xmm0
	movq	input, %rax
	movl	8(%rax), %eax
	addl	Bframe_ctr, %eax
	vcvtsi2ss	%eax, %xmm0, %xmm2
	vdivss	%xmm2, %xmm0, %xmm0
	movq	stats, %rax
	vmovss	%xmm0, 12(%rax)
	movq	stdout, %rdi
	vmovss	-32(%rbp), %xmm0        # xmm0 = mem[0],zero,zero,zero
	vcvtss2sd	%xmm0, %xmm0, %xmm0
	movq	stats, %rax
	vmovss	12(%rax), %xmm2         # xmm2 = mem[0],zero,zero,zero
	vdivss	%xmm1, %xmm2, %xmm1
	vcvtss2sd	%xmm1, %xmm0, %xmm1
	movabsq	$.L.str.72, %rsi
	movb	$2, %al
	callq	fprintf
	jmp	.LBB25_106
.LBB25_102:                             # %if.else370
	movq	input, %rax
	cmpl	$0, 1272(%rax)
	jne	.LBB25_104
# %bb.103:                              # %if.then374
	movq	stdout, %rdi
	movq	stats, %rax
	movl	708(%rax), %edx
	movq	stats, %rax
	addl	704(%rax), %edx
	movq	stats, %rax
	addl	1488(%rax), %edx
	movl	%edx, -40(%rbp)
	movq	stats, %rax
	movl	704(%rax), %ecx
	movq	stats, %rax
	movl	708(%rax), %r8d
	movq	stats, %rax
	movl	1488(%rax), %r9d
	movabsq	$.L.str.73, %rsi
	movb	$0, %al
	callq	fprintf
	vmovss	.LCPI25_1(%rip), %xmm1  # xmm1 = mem[0],zero,zero,zero
	movq	img, %rax
	vmovss	48(%rax), %xmm0         # xmm0 = mem[0],zero,zero,zero
	movq	input, %rax
	movl	20(%rax), %eax
	addl	$1, %eax
	vcvtsi2ss	%eax, %xmm0, %xmm2
	vdivss	%xmm2, %xmm0, %xmm0
	vmovss	%xmm0, -32(%rbp)
	vcvtsi2ssl	-40(%rbp), %xmm0, %xmm0
	vmulss	-32(%rbp), %xmm0, %xmm0
	movq	input, %rax
	vcvtsi2ssl	8(%rax), %xmm0, %xmm2
	vdivss	%xmm2, %xmm0, %xmm0
	movq	stats, %rax
	vmovss	%xmm0, 12(%rax)
	movq	stdout, %rdi
	vmovss	-32(%rbp), %xmm0        # xmm0 = mem[0],zero,zero,zero
	vcvtss2sd	%xmm0, %xmm0, %xmm0
	movq	stats, %rax
	vmovss	12(%rax), %xmm2         # xmm2 = mem[0],zero,zero,zero
	vdivss	%xmm1, %xmm2, %xmm1
	vcvtss2sd	%xmm1, %xmm0, %xmm1
	movabsq	$.L.str.72, %rsi
	movb	$2, %al
	callq	fprintf
	jmp	.LBB25_105
.LBB25_104:                             # %if.else400
	movq	stdout, %rdi
	movq	stats, %rax
	movl	708(%rax), %edx
	movq	stats, %rax
	addl	704(%rax), %edx
	movq	stats, %rax
	addl	1488(%rax), %edx
	movl	%edx, -40(%rbp)
	movq	stats, %rax
	movl	704(%rax), %ecx
	movq	stats, %rax
	movl	708(%rax), %r8d
	movq	stats, %rax
	movl	1488(%rax), %r9d
	movabsq	$.L.str.73, %rsi
	movb	$0, %al
	callq	fprintf
	vmovss	.LCPI25_1(%rip), %xmm1  # xmm1 = mem[0],zero,zero,zero
	movq	img, %rax
	vmovss	48(%rax), %xmm0         # xmm0 = mem[0],zero,zero,zero
	movq	input, %rax
	movl	20(%rax), %eax
	addl	$1, %eax
	vcvtsi2ss	%eax, %xmm0, %xmm2
	vdivss	%xmm2, %xmm0, %xmm0
	vmovss	%xmm0, -32(%rbp)
	vcvtsi2ssl	-40(%rbp), %xmm0, %xmm0
	vmulss	-32(%rbp), %xmm0, %xmm0
	movq	input, %rax
	vcvtsi2ssl	8(%rax), %xmm0, %xmm2
	vdivss	%xmm2, %xmm0, %xmm0
	movq	stats, %rax
	vmovss	%xmm0, 12(%rax)
	movq	stdout, %rdi
	vmovss	-32(%rbp), %xmm0        # xmm0 = mem[0],zero,zero,zero
	vcvtss2sd	%xmm0, %xmm0, %xmm0
	movq	stats, %rax
	vmovss	12(%rax), %xmm2         # xmm2 = mem[0],zero,zero,zero
	vdivss	%xmm1, %xmm2, %xmm1
	vcvtss2sd	%xmm1, %xmm0, %xmm1
	movabsq	$.L.str.72, %rsi
	movb	$2, %al
	callq	fprintf
.LBB25_105:                             # %if.end426
	jmp	.LBB25_106
.LBB25_106:                             # %if.end427
	movq	stdout, %rdi
	movq	stats, %rax
	movl	28(%rax), %edx
	movabsq	$.L.str.74, %rsi
	movb	$0, %al
	callq	fprintf
	movq	stdout, %rdi
	movq	stats, %rax
	movl	1488(%rax), %edx
	movabsq	$.L.str.75, %rsi
	movb	$0, %al
	callq	fprintf
	movq	stdout, %rdi
	movabsq	$.L.str.26, %rsi
	movb	$0, %al
	callq	fprintf
	movq	stdout, %rdi
	movabsq	$.L.str.76, %rsi
	movabsq	$.L.str.77, %rdx
	movabsq	$.L.str.13, %rcx
	movb	$0, %al
	callq	fprintf
	movq	stdout, %rdi
	movabsq	$.L.str.25, %rsi
	movb	$0, %al
	callq	fprintf
	movabsq	$.L.str.78, %rdi
	movabsq	$.L.str.79, %rsi
	callq	fopen
	movq	%rax, p_stat
	cmpq	$0, %rax
	jne	.LBB25_108
# %bb.107:                              # %if.then437
	movabsq	$errortext, %rdi
	movl	$300, %esi              # imm = 0x12C
	movabsq	$.L.str.80, %rdx
	movabsq	$.L.str.78, %rcx
	movb	$0, %al
	callq	snprintf
	movabsq	$errortext, %rdi
	movl	$500, %esi              # imm = 0x1F4
	callq	error
.LBB25_108:                             # %if.end439
	movq	p_stat, %rdi
	movabsq	$.L.str.81, %rsi
	movb	$0, %al
	callq	fprintf
	movq	p_stat, %rdi
	movabsq	$.L.str.82, %rsi
	movb	$0, %al
	callq	fprintf
	movq	p_stat, %rdi
	movabsq	$.L.str.81, %rsi
	movb	$0, %al
	callq	fprintf
	movq	p_stat, %rdi
	movq	input, %rdx
	addq	$224, %rdx
	movabsq	$.L.str.83, %rsi
	movb	$0, %al
	callq	fprintf
	movq	p_stat, %rdi
	movq	input, %rax
	movl	8(%rax), %edx
	addl	Bframe_ctr, %edx
	movabsq	$.L.str.84, %rsi
	movb	$0, %al
	callq	fprintf
	movq	p_stat, %rdi
	vmovss	-32(%rbp), %xmm0        # xmm0 = mem[0],zero,zero,zero
	vcvtss2sd	%xmm0, %xmm0, %xmm0
	movabsq	$.L.str.85, %rsi
	movb	$1, %al
	callq	fprintf
	vmovss	.LCPI25_1(%rip), %xmm0  # xmm0 = mem[0],zero,zero,zero
	movq	p_stat, %rdi
	movq	stats, %rax
	vmovss	716(%rax), %xmm1        # xmm1 = mem[0],zero,zero,zero
	vdivss	%xmm0, %xmm1, %xmm0
	vcvtss2sd	%xmm0, %xmm0, %xmm0
	movabsq	$.L.str.86, %rsi
	movb	$1, %al
	callq	fprintf
	vmovss	.LCPI25_1(%rip), %xmm0  # xmm0 = mem[0],zero,zero,zero
	movq	p_stat, %rdi
	movq	stats, %rax
	vmovss	720(%rax), %xmm1        # xmm1 = mem[0],zero,zero,zero
	vdivss	%xmm0, %xmm1, %xmm0
	vcvtss2sd	%xmm0, %xmm0, %xmm0
	movabsq	$.L.str.87, %rsi
	movb	$1, %al
	callq	fprintf
	movq	input, %rax
	cmpl	$0, 1236(%rax)
	je	.LBB25_110
# %bb.109:                              # %if.then461
	vmovss	.LCPI25_1(%rip), %xmm0  # xmm0 = mem[0],zero,zero,zero
	movq	p_stat, %rdi
	movq	stats, %rax
	vmovss	724(%rax), %xmm1        # xmm1 = mem[0],zero,zero,zero
	vdivss	%xmm0, %xmm1, %xmm0
	vcvtss2sd	%xmm0, %xmm0, %xmm0
	movabsq	$.L.str.88, %rsi
	movb	$1, %al
	callq	fprintf
.LBB25_110:                             # %if.end466
	vmovss	.LCPI25_1(%rip), %xmm0  # xmm0 = mem[0],zero,zero,zero
	movq	p_stat, %rdi
	movq	stats, %rax
	vmovss	12(%rax), %xmm1         # xmm1 = mem[0],zero,zero,zero
	vdivss	%xmm0, %xmm1, %xmm0
	vcvtss2sd	%xmm0, %xmm0, %xmm0
	movabsq	$.L.str.89, %rsi
	movb	$1, %al
	callq	fprintf
	movq	input, %rax
	cmpl	$0, 24(%rax)
	je	.LBB25_115
# %bb.111:                              # %if.then473
	movq	input, %rax
	cmpl	$0, 28(%rax)
	je	.LBB25_113
# %bb.112:                              # %if.then476
	movq	p_stat, %rdi
	movabsq	$.L.str.90, %rsi
	movb	$0, %al
	callq	fprintf
	jmp	.LBB25_114
.LBB25_113:                             # %if.else478
	movq	p_stat, %rdi
	movabsq	$.L.str.91, %rsi
	movb	$0, %al
	callq	fprintf
.LBB25_114:                             # %if.end480
	jmp	.LBB25_116
.LBB25_115:                             # %if.else481
	movq	p_stat, %rdi
	movabsq	$.L.str.92, %rsi
	movb	$0, %al
	callq	fprintf
.LBB25_116:                             # %if.end483
	movq	p_stat, %rdi
	movq	input, %rax
	movl	64(%rax), %edx
	movq	input, %rax
	movl	68(%rax), %ecx
	movabsq	$.L.str.93, %rsi
	movb	$0, %al
	callq	fprintf
	movq	input, %rax
	cmpl	$0, 76(%rax)
	je	.LBB25_118
# %bb.117:                              # %if.then489
	movq	p_stat, %rdi
	movabsq	$.L.str.94, %rsi
	movb	$0, %al
	callq	fprintf
	jmp	.LBB25_119
.LBB25_118:                             # %if.else491
	movq	p_stat, %rdi
	movabsq	$.L.str.95, %rsi
	movb	$0, %al
	callq	fprintf
.LBB25_119:                             # %if.end493
	movq	p_stat, %rdi
	movq	input, %rax
	movl	32(%rax), %edx
	movabsq	$.L.str.96, %rsi
	movb	$0, %al
	callq	fprintf
	movq	p_stat, %rdi
	movq	input, %rax
	movl	36(%rax), %edx
	movabsq	$.L.str.97, %rsi
	movb	$0, %al
	callq	fprintf
	movq	p_stat, %rdi
	movq	input, %rax
	cmpl	$0, 40(%rax)
	je	.LBB25_121
# %bb.120:                              # %cond.true500
	movq	input, %rax
	movl	40(%rax), %edx
	jmp	.LBB25_122
.LBB25_121:                             # %cond.false502
	movq	input, %rax
	movl	36(%rax), %edx
.LBB25_122:                             # %cond.end504
	movabsq	$.L.str.98, %rsi
	movb	$0, %al
	callq	fprintf
	movq	input, %rax
	cmpl	$0, 1236(%rax)
	je	.LBB25_130
# %bb.123:                              # %if.then510
	movq	p_stat, %rdi
	movq	input, %rax
	cmpl	$0, 44(%rax)
	je	.LBB25_125
# %bb.124:                              # %cond.true513
	movq	input, %rax
	movl	44(%rax), %edx
	jmp	.LBB25_126
.LBB25_125:                             # %cond.false515
	movq	input, %rax
	movl	36(%rax), %edx
.LBB25_126:                             # %cond.end517
	movabsq	$.L.str.99, %rsi
	movb	$0, %al
	callq	fprintf
	movq	p_stat, %rdi
	movq	input, %rax
	cmpl	$0, 48(%rax)
	je	.LBB25_128
# %bb.127:                              # %cond.true522
	movq	input, %rax
	movl	48(%rax), %edx
	jmp	.LBB25_129
.LBB25_128:                             # %cond.false524
	movq	input, %rax
	movl	36(%rax), %edx
.LBB25_129:                             # %cond.end526
	movabsq	$.L.str.100, %rsi
	movb	$0, %al
	callq	fprintf
.LBB25_130:                             # %if.end529
	movq	input, %rax
	cmpl	$0, 2356(%rax)
	jne	.LBB25_132
# %bb.131:                              # %if.then533
	movq	p_stat, %rdi
	movabsq	$.L.str.101, %rsi
	movb	$0, %al
	callq	fprintf
	jmp	.LBB25_133
.LBB25_132:                             # %if.else535
	movq	p_stat, %rdi
	movabsq	$.L.str.102, %rsi
	movb	$0, %al
	callq	fprintf
.LBB25_133:                             # %if.end537
	movq	p_stat, %rdi
	movq	input, %rax
	movl	(%rax), %edx
	movq	input, %rax
	movl	4(%rax), %ecx
	movabsq	$.L.str.103, %rsi
	movb	$0, %al
	callq	fprintf
	movq	input, %rax
	cmpl	$0, 2884(%rax)
	je	.LBB25_135
# %bb.134:                              # %if.then542
	movq	p_stat, %rdi
	movabsq	$.L.str.104, %rsi
	movb	$0, %al
	callq	fprintf
.LBB25_135:                             # %if.end544
	movq	input, %rax
	cmpl	$2, 2436(%rax)
	jne	.LBB25_137
# %bb.136:                              # %if.then548
	movq	p_stat, %rdi
	movabsq	$.L.str.105, %rsi
	movb	$0, %al
	callq	fprintf
	jmp	.LBB25_141
.LBB25_137:                             # %if.else550
	movq	input, %rax
	cmpl	$1, 2436(%rax)
	jne	.LBB25_139
# %bb.138:                              # %if.then554
	movq	p_stat, %rdi
	movabsq	$.L.str.106, %rsi
	movb	$0, %al
	callq	fprintf
	jmp	.LBB25_140
.LBB25_139:                             # %if.else556
	movq	p_stat, %rdi
	movabsq	$.L.str.107, %rsi
	movb	$0, %al
	callq	fprintf
.LBB25_140:                             # %if.end558
	jmp	.LBB25_141
.LBB25_141:                             # %if.end559
	movq	input, %rax
	cmpl	$0, 2464(%rax)
	je	.LBB25_143
# %bb.142:                              # %if.then562
	movq	p_stat, %rdi
	movabsq	$.L.str.108, %rsi
	movb	$0, %al
	callq	fprintf
	jmp	.LBB25_144
.LBB25_143:                             # %if.else564
	movq	p_stat, %rdi
	movabsq	$.L.str.109, %rsi
	movb	$0, %al
	callq	fprintf
.LBB25_144:                             # %if.end566
	movq	p_stat, %rdi
	movabsq	$.L.str.110, %rsi
	movb	$0, %al
	callq	fprintf
	movq	p_stat, %rdi
	movabsq	$.L.str.111, %rsi
	movb	$0, %al
	callq	fprintf
	movq	p_stat, %rdi
	movabsq	$.L.str.110, %rsi
	movb	$0, %al
	callq	fprintf
	movq	p_stat, %rdi
	movabsq	$.L.str.112, %rsi
	movb	$0, %al
	callq	fprintf
	movq	p_stat, %rdi
	movq	snr, %rax
	vmovss	12(%rax), %xmm0         # xmm0 = mem[0],zero,zero,zero
	vcvtss2sd	%xmm0, %xmm0, %xmm0
	movabsq	$.L.str.113, %rsi
	movb	$1, %al
	callq	fprintf
	movq	p_stat, %rdi
	movq	snr, %rax
	vmovss	60(%rax), %xmm0         # xmm0 = mem[0],zero,zero,zero
	vcvtss2sd	%xmm0, %xmm0, %xmm0
	movabsq	$.L.str.114, %rsi
	movb	$1, %al
	callq	fprintf
	movq	p_stat, %rdi
	movabsq	$.L.str.115, %rsi
	movb	$0, %al
	callq	fprintf
	movq	p_stat, %rdi
	movq	snr, %rax
	vmovss	16(%rax), %xmm0         # xmm0 = mem[0],zero,zero,zero
	vcvtss2sd	%xmm0, %xmm0, %xmm0
	movq	snr, %rax
	vmovss	20(%rax), %xmm1         # xmm1 = mem[0],zero,zero,zero
	vcvtss2sd	%xmm1, %xmm0, %xmm1
	movabsq	$.L.str.116, %rsi
	movb	$2, %al
	callq	fprintf
	movq	p_stat, %rdi
	movq	snr, %rax
	vmovss	64(%rax), %xmm0         # xmm0 = mem[0],zero,zero,zero
	vcvtss2sd	%xmm0, %xmm0, %xmm0
	movq	snr, %rax
	vmovss	68(%rax), %xmm1         # xmm1 = mem[0],zero,zero,zero
	vcvtss2sd	%xmm1, %xmm0, %xmm1
	movabsq	$.L.str.117, %rsi
	movb	$2, %al
	callq	fprintf
	movq	p_stat, %rdi
	movabsq	$.L.str.118, %rsi
	movb	$0, %al
	callq	fprintf
	movq	p_stat, %rdi
	movq	input, %rax
	cmpl	$0, 12(%rax)
	jge	.LBB25_146
# %bb.145:                              # %cond.true589
	xorl	%edx, %edx
	movq	input, %rax
	subl	12(%rax), %edx
	jmp	.LBB25_147
.LBB25_146:                             # %cond.false592
	movq	input, %rax
	movl	12(%rax), %edx
.LBB25_147:                             # %cond.end594
	movabsq	$.L.str.119, %rsi
	movb	$0, %al
	callq	fprintf
	vmovsd	.LCPI25_2(%rip), %xmm1  # xmm1 = mem[0],zero
	movq	p_stat, %rdi
	movq	stats, %rax
	vcvtsi2ssl	4(%rax), %xmm0, %xmm0
	vcvtss2sd	%xmm0, %xmm0, %xmm0
	movq	stats, %rax
	vcvtsi2ssl	(%rax), %xmm0, %xmm2
	vcvtss2sd	%xmm2, %xmm0, %xmm2
	vucomisd	%xmm2, %xmm1
	jbe	.LBB25_149
# %bb.148:                              # %cond.true603
	vmovsd	.LCPI25_2(%rip), %xmm1  # xmm1 = mem[0],zero
	jmp	.LBB25_150
.LBB25_149:                             # %cond.false604
	movq	stats, %rax
	vcvtsi2ssl	(%rax), %xmm0, %xmm1
	vcvtss2sd	%xmm1, %xmm0, %xmm1
.LBB25_150:                             # %cond.end608
	vdivsd	%xmm1, %xmm0, %xmm0
	movabsq	$.L.str.114, %rsi
	movb	$1, %al
	callq	fprintf
	movq	p_stat, %rdi
	movabsq	$.L.str.120, %rsi
	movb	$0, %al
	callq	fprintf
	movq	p_stat, %rdi
	movabsq	$.L.str.121, %rsi
	movb	$0, %al
	callq	fprintf
	movq	p_stat, %rdi
	movabsq	$.L.str.122, %rsi
	movb	$0, %al
	callq	fprintf
	movq	p_stat, %rdi
	movq	snr, %rax
	vmovss	32(%rax), %xmm0         # xmm0 = mem[0],zero,zero,zero
	vcvtss2sd	%xmm0, %xmm0, %xmm0
	movq	snr, %rax
	vmovss	24(%rax), %xmm1         # xmm1 = mem[0],zero,zero,zero
	vcvtss2sd	%xmm1, %xmm0, %xmm1
	movq	snr, %rax
	vmovss	28(%rax), %xmm2         # xmm2 = mem[0],zero,zero,zero
	vcvtss2sd	%xmm2, %xmm0, %xmm2
	movabsq	$.L.str.123, %rsi
	movb	$3, %al
	callq	fprintf
	movq	p_stat, %rdi
	movq	snr, %rax
	vmovss	44(%rax), %xmm0         # xmm0 = mem[0],zero,zero,zero
	vcvtss2sd	%xmm0, %xmm0, %xmm0
	movq	snr, %rax
	vmovss	36(%rax), %xmm1         # xmm1 = mem[0],zero,zero,zero
	vcvtss2sd	%xmm1, %xmm0, %xmm1
	movq	snr, %rax
	vmovss	40(%rax), %xmm2         # xmm2 = mem[0],zero,zero,zero
	vcvtss2sd	%xmm2, %xmm0, %xmm2
	movabsq	$.L.str.124, %rsi
	movb	$3, %al
	callq	fprintf
	movq	p_stat, %rdi
	movq	snr, %rax
	vmovss	56(%rax), %xmm0         # xmm0 = mem[0],zero,zero,zero
	vcvtss2sd	%xmm0, %xmm0, %xmm0
	movq	snr, %rax
	vmovss	48(%rax), %xmm1         # xmm1 = mem[0],zero,zero,zero
	vcvtss2sd	%xmm1, %xmm0, %xmm1
	movq	snr, %rax
	vmovss	52(%rax), %xmm2         # xmm2 = mem[0],zero,zero,zero
	vcvtss2sd	%xmm2, %xmm0, %xmm2
	movabsq	$.L.str.125, %rsi
	movb	$3, %al
	callq	fprintf
	movq	p_stat, %rdi
	movabsq	$.L.str.126, %rsi
	movb	$0, %al
	callq	fprintf
	movq	p_stat, %rdi
	movabsq	$.L.str.127, %rsi
	movb	$0, %al
	callq	fprintf
	movq	p_stat, %rdi
	movabsq	$.L.str.128, %rsi
	movb	$0, %al
	callq	fprintf
	movq	p_stat, %rdi
	movq	stats, %rax
	movl	884(%rax), %edx
	movabsq	$.L.str.129, %rsi
	movb	$0, %al
	callq	fprintf
	movq	p_stat, %rdi
	movq	stats, %rax
	movl	900(%rax), %edx
	movabsq	$.L.str.130, %rsi
	movb	$0, %al
	callq	fprintf
	movq	p_stat, %rdi
	movq	stats, %rax
	movl	888(%rax), %edx
	movabsq	$.L.str.131, %rsi
	movb	$0, %al
	callq	fprintf
	movq	p_stat, %rdi
	movabsq	$.L.str.132, %rsi
	movb	$0, %al
	callq	fprintf
	movq	p_stat, %rdi
	movabsq	$.L.str.133, %rsi
	movb	$0, %al
	callq	fprintf
	movq	p_stat, %rdi
	movabsq	$.L.str.134, %rsi
	movb	$0, %al
	callq	fprintf
	movq	p_stat, %rdi
	movq	stats, %rax
	movl	728(%rax), %edx
	movq	stats, %rax
	vcvtsi2ssl	1028(%rax), %xmm0, %xmm0
	vcvtsi2ssl	-80(%rbp), %xmm0, %xmm1
	vdivss	%xmm1, %xmm0, %xmm0
	vcvtss2sd	%xmm0, %xmm0, %xmm0
	movabsq	$.L.str.135, %rsi
	movb	$1, %al
	callq	fprintf
	movq	p_stat, %rdi
	movq	stats, %rax
	movl	732(%rax), %edx
	movq	stats, %rax
	vcvtsi2ssl	1032(%rax), %xmm0, %xmm0
	vcvtsi2ssl	-80(%rbp), %xmm0, %xmm1
	vdivss	%xmm1, %xmm0, %xmm0
	vcvtss2sd	%xmm0, %xmm0, %xmm0
	movabsq	$.L.str.136, %rsi
	movb	$1, %al
	callq	fprintf
	movq	p_stat, %rdi
	movq	stats, %rax
	movl	736(%rax), %edx
	movq	stats, %rax
	vcvtsi2ssl	1036(%rax), %xmm0, %xmm0
	vcvtsi2ssl	-80(%rbp), %xmm0, %xmm1
	vdivss	%xmm1, %xmm0, %xmm0
	vcvtss2sd	%xmm0, %xmm0, %xmm0
	movabsq	$.L.str.137, %rsi
	movb	$1, %al
	callq	fprintf
	movq	p_stat, %rdi
	movq	stats, %rax
	movl	740(%rax), %edx
	movq	stats, %rax
	vcvtsi2ssl	1040(%rax), %xmm0, %xmm0
	vcvtsi2ssl	-80(%rbp), %xmm0, %xmm1
	vdivss	%xmm1, %xmm0, %xmm0
	vcvtss2sd	%xmm0, %xmm0, %xmm0
	movabsq	$.L.str.138, %rsi
	movb	$1, %al
	callq	fprintf
	movq	p_stat, %rdi
	movq	stats, %rax
	movl	760(%rax), %edx
	movq	stats, %rax
	vcvtsi2ssl	1060(%rax), %xmm0, %xmm0
	vcvtsi2ssl	-80(%rbp), %xmm0, %xmm1
	vdivss	%xmm1, %xmm0, %xmm0
	vcvtss2sd	%xmm0, %xmm0, %xmm0
	movabsq	$.L.str.139, %rsi
	movb	$1, %al
	callq	fprintf
	movq	p_stat, %rdi
	movq	stats, %rax
	movl	764(%rax), %edx
	movabsq	$.L.str.140, %rsi
	movb	$0, %al
	callq	fprintf
	movq	p_stat, %rdi
	movq	stats, %rax
	movl	780(%rax), %edx
	movabsq	$.L.str.141, %rsi
	movb	$0, %al
	callq	fprintf
	movq	p_stat, %rdi
	movq	stats, %rax
	movl	768(%rax), %edx
	movabsq	$.L.str.142, %rsi
	movb	$0, %al
	callq	fprintf
	movq	stats, %rax
	movl	1028(%rax), %eax
	movq	stats, %rcx
	addl	1032(%rcx), %eax
	movq	stats, %rcx
	addl	1036(%rcx), %eax
	movq	stats, %rcx
	addl	1040(%rcx), %eax
	movq	stats, %rcx
	addl	1060(%rcx), %eax
	vcvtsi2ss	%eax, %xmm0, %xmm0
	vcvtsi2ssl	-80(%rbp), %xmm0, %xmm1
	vdivss	%xmm1, %xmm0, %xmm0
	vmovss	%xmm0, -96(%rbp)
	movq	input, %rax
	cmpl	$0, 1236(%rax)
	je	.LBB25_153
# %bb.151:                              # %land.lhs.true764
	cmpl	$0, Bframe_ctr
	je	.LBB25_153
# %bb.152:                              # %if.then767
	movq	p_stat, %rdi
	movabsq	$.L.str.143, %rsi
	movb	$0, %al
	callq	fprintf
	movq	p_stat, %rdi
	movabsq	$.L.str.144, %rsi
	movb	$0, %al
	callq	fprintf
	movq	p_stat, %rdi
	movabsq	$.L.str.134, %rsi
	movb	$0, %al
	callq	fprintf
	movq	p_stat, %rdi
	movq	stats, %rax
	movl	788(%rax), %edx
	movq	stats, %rax
	vcvtsi2ssl	1088(%rax), %xmm0, %xmm0
	vcvtsi2ssl	Bframe_ctr, %xmm0, %xmm1
	vdivss	%xmm1, %xmm0, %xmm0
	vcvtss2sd	%xmm0, %xmm0, %xmm0
	movabsq	$.L.str.135, %rsi
	movb	$1, %al
	callq	fprintf
	movq	p_stat, %rdi
	movq	stats, %rax
	movl	792(%rax), %edx
	movq	stats, %rax
	vcvtsi2ssl	1092(%rax), %xmm0, %xmm0
	vcvtsi2ssl	Bframe_ctr, %xmm0, %xmm1
	vdivss	%xmm1, %xmm0, %xmm0
	vcvtss2sd	%xmm0, %xmm0, %xmm0
	movabsq	$.L.str.136, %rsi
	movb	$1, %al
	callq	fprintf
	movq	p_stat, %rdi
	movq	stats, %rax
	movl	796(%rax), %edx
	movq	stats, %rax
	vcvtsi2ssl	1096(%rax), %xmm0, %xmm0
	vcvtsi2ssl	Bframe_ctr, %xmm0, %xmm1
	vdivss	%xmm1, %xmm0, %xmm0
	vcvtss2sd	%xmm0, %xmm0, %xmm0
	movabsq	$.L.str.137, %rsi
	movb	$1, %al
	callq	fprintf
	movq	p_stat, %rdi
	movq	stats, %rax
	movl	800(%rax), %edx
	movq	stats, %rax
	vcvtsi2ssl	1100(%rax), %xmm0, %xmm0
	vcvtsi2ssl	Bframe_ctr, %xmm0, %xmm1
	vdivss	%xmm1, %xmm0, %xmm0
	vcvtss2sd	%xmm0, %xmm0, %xmm0
	movabsq	$.L.str.138, %rsi
	movb	$1, %al
	callq	fprintf
	movq	p_stat, %rdi
	movq	stats, %rax
	movl	820(%rax), %edx
	movq	stats, %rax
	vcvtsi2ssl	1120(%rax), %xmm0, %xmm0
	vcvtsi2ssl	Bframe_ctr, %xmm0, %xmm1
	vdivss	%xmm1, %xmm0, %xmm0
	vcvtss2sd	%xmm0, %xmm0, %xmm0
	movabsq	$.L.str.139, %rsi
	movb	$1, %al
	callq	fprintf
	movq	p_stat, %rdi
	movq	stats, %rax
	movl	824(%rax), %edx
	movabsq	$.L.str.140, %rsi
	movb	$0, %al
	callq	fprintf
	movq	p_stat, %rdi
	movq	stats, %rax
	movl	840(%rax), %edx
	movabsq	$.L.str.141, %rsi
	movb	$0, %al
	callq	fprintf
	movq	p_stat, %rdi
	movq	stats, %rax
	movl	828(%rax), %edx
	movabsq	$.L.str.142, %rsi
	movb	$0, %al
	callq	fprintf
	movq	stats, %rax
	movl	1088(%rax), %eax
	movq	stats, %rcx
	addl	1092(%rcx), %eax
	movq	stats, %rcx
	addl	1096(%rcx), %eax
	movq	stats, %rcx
	addl	1100(%rcx), %eax
	movq	stats, %rcx
	addl	1120(%rcx), %eax
	vcvtsi2ss	%eax, %xmm0, %xmm0
	vcvtsi2ssl	Bframe_ctr, %xmm0, %xmm1
	vdivss	%xmm1, %xmm0, %xmm0
	vmovss	%xmm0, -92(%rbp)
.LBB25_153:                             # %if.end861
	movq	p_stat, %rdi
	movabsq	$.L.str.145, %rsi
	movb	$0, %al
	callq	fprintf
	movq	p_stat, %rdi
	movabsq	$.L.str.146, %rsi
	movb	$0, %al
	callq	fprintf
	movq	p_stat, %rdi
	movabsq	$.L.str.147, %rsi
	movb	$0, %al
	callq	fprintf
	movq	p_stat, %rdi
	movabsq	$.L.str.148, %rsi
	movb	$0, %al
	callq	fprintf
	movq	p_stat, %rdi
	movq	stats, %rax
	vcvtsi2ssl	1376(%rax), %xmm0, %xmm0
	vcvtsi2ssl	-64(%rbp), %xmm0, %xmm1
	vdivss	%xmm1, %xmm0, %xmm0
	vcvtss2sd	%xmm0, %xmm0, %xmm0
	movabsq	$.L.str.149, %rsi
	movb	$1, %al
	callq	fprintf
	movq	p_stat, %rdi
	movq	stats, %rax
	vcvtsi2ssl	1368(%rax), %xmm0, %xmm0
	vcvtsi2ssl	-80(%rbp), %xmm0, %xmm1
	vdivss	%xmm1, %xmm0, %xmm0
	vcvtss2sd	%xmm0, %xmm0, %xmm0
	movabsq	$.L.str.149, %rsi
	movb	$1, %al
	callq	fprintf
	movq	input, %rax
	cmpl	$0, 1236(%rax)
	je	.LBB25_156
# %bb.154:                              # %land.lhs.true887
	cmpl	$0, Bframe_ctr
	je	.LBB25_156
# %bb.155:                              # %if.then890
	movq	p_stat, %rdi
	movq	stats, %rax
	vcvtsi2ssl	1372(%rax), %xmm0, %xmm0
	vcvtsi2ssl	Bframe_ctr, %xmm0, %xmm1
	vdivss	%xmm1, %xmm0, %xmm0
	vcvtss2sd	%xmm0, %xmm0, %xmm0
	movabsq	$.L.str.149, %rsi
	movb	$1, %al
	callq	fprintf
	jmp	.LBB25_157
.LBB25_156:                             # %if.else898
	movq	p_stat, %rdi
	movabsq	$.L.str.149, %rsi
	vxorps	%xmm0, %xmm0, %xmm0
	movb	$1, %al
	callq	fprintf
.LBB25_157:                             # %if.end900
	movq	p_stat, %rdi
	movabsq	$.L.str.25, %rsi
	movb	$0, %al
	callq	fprintf
	movq	p_stat, %rdi
	movabsq	$.L.str.150, %rsi
	movb	$0, %al
	callq	fprintf
	movq	p_stat, %rdi
	movq	stats, %rax
	vcvtsi2ssl	1356(%rax), %xmm0, %xmm0
	vcvtsi2ssl	-64(%rbp), %xmm0, %xmm1
	vdivss	%xmm1, %xmm0, %xmm0
	vcvtss2sd	%xmm0, %xmm0, %xmm0
	movabsq	$.L.str.149, %rsi
	movb	$1, %al
	callq	fprintf
	movq	p_stat, %rdi
	movq	stats, %rax
	vcvtsi2ssl	1348(%rax), %xmm0, %xmm0
	vcvtsi2ssl	-80(%rbp), %xmm0, %xmm1
	vdivss	%xmm1, %xmm0, %xmm0
	vcvtss2sd	%xmm0, %xmm0, %xmm0
	movabsq	$.L.str.149, %rsi
	movb	$1, %al
	callq	fprintf
	movq	input, %rax
	cmpl	$0, 1236(%rax)
	je	.LBB25_160
# %bb.158:                              # %land.lhs.true924
	cmpl	$0, Bframe_ctr
	je	.LBB25_160
# %bb.159:                              # %if.then927
	movq	p_stat, %rdi
	movq	stats, %rax
	vcvtsi2ssl	1352(%rax), %xmm0, %xmm0
	vcvtsi2ssl	Bframe_ctr, %xmm0, %xmm1
	vdivss	%xmm1, %xmm0, %xmm0
	vcvtss2sd	%xmm0, %xmm0, %xmm0
	movabsq	$.L.str.149, %rsi
	movb	$1, %al
	callq	fprintf
	jmp	.LBB25_161
.LBB25_160:                             # %if.else935
	movq	p_stat, %rdi
	movabsq	$.L.str.149, %rsi
	vxorps	%xmm0, %xmm0, %xmm0
	movb	$1, %al
	callq	fprintf
.LBB25_161:                             # %if.end937
	movq	p_stat, %rdi
	movabsq	$.L.str.25, %rsi
	movb	$0, %al
	callq	fprintf
	movq	p_stat, %rdi
	movabsq	$.L.str.151, %rsi
	movb	$0, %al
	callq	fprintf
	movq	p_stat, %rdi
	movabsq	$.L.str.152, %rsi
	movb	$0, %al
	callq	fprintf
	movq	p_stat, %rdi
	vmovss	-96(%rbp), %xmm0        # xmm0 = mem[0],zero,zero,zero
	vcvtss2sd	%xmm0, %xmm0, %xmm0
	movabsq	$.L.str.149, %rsi
	movb	$1, %al
	callq	fprintf
	movq	input, %rax
	cmpl	$0, 1236(%rax)
	je	.LBB25_164
# %bb.162:                              # %land.lhs.true947
	cmpl	$0, Bframe_ctr
	je	.LBB25_164
# %bb.163:                              # %if.then950
	movq	p_stat, %rdi
	vmovss	-92(%rbp), %xmm0        # xmm0 = mem[0],zero,zero,zero
	vcvtss2sd	%xmm0, %xmm0, %xmm0
	movabsq	$.L.str.149, %rsi
	movb	$1, %al
	callq	fprintf
	jmp	.LBB25_165
.LBB25_164:                             # %if.else954
	movq	p_stat, %rdi
	movabsq	$.L.str.149, %rsi
	vxorps	%xmm0, %xmm0, %xmm0
	movb	$1, %al
	callq	fprintf
.LBB25_165:                             # %if.end956
	movq	p_stat, %rdi
	movabsq	$.L.str.25, %rsi
	movb	$0, %al
	callq	fprintf
	movq	p_stat, %rdi
	movabsq	$.L.str.153, %rsi
	movb	$0, %al
	callq	fprintf
	movq	p_stat, %rdi
	movq	stats, %rax
	vcvtsi2ssl	1396(%rax), %xmm0, %xmm0
	vcvtsi2ssl	-64(%rbp), %xmm0, %xmm1
	vdivss	%xmm1, %xmm0, %xmm0
	vcvtss2sd	%xmm0, %xmm0, %xmm0
	movabsq	$.L.str.149, %rsi
	movb	$1, %al
	callq	fprintf
	movq	p_stat, %rdi
	movq	stats, %rax
	vcvtsi2ssl	1388(%rax), %xmm0, %xmm0
	vcvtsi2ssl	-80(%rbp), %xmm0, %xmm1
	vdivss	%xmm1, %xmm0, %xmm0
	vcvtss2sd	%xmm0, %xmm0, %xmm0
	movabsq	$.L.str.149, %rsi
	movb	$1, %al
	callq	fprintf
	movq	input, %rax
	cmpl	$0, 1236(%rax)
	je	.LBB25_168
# %bb.166:                              # %land.lhs.true980
	cmpl	$0, -72(%rbp)
	je	.LBB25_168
# %bb.167:                              # %if.then985
	movq	p_stat, %rdi
	movq	stats, %rax
	vcvtsi2ssl	1392(%rax), %xmm0, %xmm0
	vcvtsi2ssl	-72(%rbp), %xmm0, %xmm1
	vdivss	%xmm1, %xmm0, %xmm0
	vcvtss2sd	%xmm0, %xmm0, %xmm0
	movabsq	$.L.str.149, %rsi
	movb	$1, %al
	callq	fprintf
	jmp	.LBB25_169
.LBB25_168:                             # %if.else995
	movq	p_stat, %rdi
	movabsq	$.L.str.149, %rsi
	vxorps	%xmm0, %xmm0, %xmm0
	movb	$1, %al
	callq	fprintf
.LBB25_169:                             # %if.end997
	movq	p_stat, %rdi
	movabsq	$.L.str.25, %rsi
	movb	$0, %al
	callq	fprintf
	movq	input, %rax
	cmpl	$0, 1236(%rax)
	je	.LBB25_172
# %bb.170:                              # %land.lhs.true1002
	cmpl	$0, Bframe_ctr
	je	.LBB25_172
# %bb.171:                              # %if.then1005
	movq	p_stat, %rdi
	movq	stats, %rax
	vcvtsi2ssl	1416(%rax), %xmm0, %xmm0
	vcvtsi2ssl	-64(%rbp), %xmm0, %xmm1
	vdivss	%xmm1, %xmm0, %xmm0
	vcvtss2sd	%xmm0, %xmm0, %xmm0
	movq	stats, %rax
	vcvtsi2ssl	1408(%rax), %xmm0, %xmm1
	vcvtsi2ssl	-80(%rbp), %xmm0, %xmm2
	vdivss	%xmm2, %xmm1, %xmm1
	vcvtss2sd	%xmm1, %xmm0, %xmm1
	movq	stats, %rax
	vcvtsi2ssl	1412(%rax), %xmm0, %xmm2
	vcvtsi2ssl	Bframe_ctr, %xmm0, %xmm3
	vdivss	%xmm3, %xmm2, %xmm2
	vcvtss2sd	%xmm2, %xmm0, %xmm2
	movabsq	$.L.str.154, %rsi
	movb	$3, %al
	callq	fprintf
	jmp	.LBB25_173
.LBB25_172:                             # %if.else1029
	movq	p_stat, %rdi
	movq	stats, %rax
	vcvtsi2ssl	1416(%rax), %xmm0, %xmm0
	vcvtsi2ssl	-64(%rbp), %xmm0, %xmm1
	vdivss	%xmm1, %xmm0, %xmm0
	vcvtss2sd	%xmm0, %xmm0, %xmm0
	movq	stats, %rax
	vcvtsi2ssl	1408(%rax), %xmm0, %xmm1
	vcvtsi2ssl	-80(%rbp), %xmm0, %xmm2
	vdivss	%xmm2, %xmm1, %xmm1
	vcvtss2sd	%xmm1, %xmm0, %xmm1
	movabsq	$.L.str.154, %rsi
	vxorps	%xmm2, %xmm2, %xmm2
	movb	$3, %al
	callq	fprintf
.LBB25_173:                             # %if.end1047
	movq	input, %rax
	cmpl	$0, 1236(%rax)
	je	.LBB25_176
# %bb.174:                              # %land.lhs.true1051
	cmpl	$0, Bframe_ctr
	je	.LBB25_176
# %bb.175:                              # %if.then1054
	movq	p_stat, %rdi
	movq	stats, %rax
	vcvtsi2ssl	1436(%rax), %xmm0, %xmm0
	vcvtsi2ssl	-64(%rbp), %xmm0, %xmm1
	vdivss	%xmm1, %xmm0, %xmm0
	vcvtss2sd	%xmm0, %xmm0, %xmm0
	movq	stats, %rax
	vcvtsi2ssl	1428(%rax), %xmm0, %xmm1
	vcvtsi2ssl	-80(%rbp), %xmm0, %xmm2
	vdivss	%xmm2, %xmm1, %xmm1
	vcvtss2sd	%xmm1, %xmm0, %xmm1
	movq	stats, %rax
	vcvtsi2ssl	1432(%rax), %xmm0, %xmm2
	vcvtsi2ssl	Bframe_ctr, %xmm0, %xmm3
	vdivss	%xmm3, %xmm2, %xmm2
	vcvtss2sd	%xmm2, %xmm0, %xmm2
	movabsq	$.L.str.155, %rsi
	movb	$3, %al
	callq	fprintf
	jmp	.LBB25_177
.LBB25_176:                             # %if.else1078
	movq	p_stat, %rdi
	movq	stats, %rax
	vcvtsi2ssl	1436(%rax), %xmm0, %xmm0
	vcvtsi2ssl	-64(%rbp), %xmm0, %xmm1
	vdivss	%xmm1, %xmm0, %xmm0
	vcvtss2sd	%xmm0, %xmm0, %xmm0
	movq	stats, %rax
	vcvtsi2ssl	1428(%rax), %xmm0, %xmm1
	vcvtsi2ssl	-80(%rbp), %xmm0, %xmm2
	vdivss	%xmm2, %xmm1, %xmm1
	vcvtss2sd	%xmm1, %xmm0, %xmm1
	movabsq	$.L.str.155, %rsi
	vxorps	%xmm2, %xmm2, %xmm2
	movb	$3, %al
	callq	fprintf
.LBB25_177:                             # %if.end1096
	movq	input, %rax
	cmpl	$0, 1236(%rax)
	je	.LBB25_180
# %bb.178:                              # %land.lhs.true1100
	cmpl	$0, Bframe_ctr
	je	.LBB25_180
# %bb.179:                              # %if.then1103
	movq	p_stat, %rdi
	movq	stats, %rax
	vcvtsi2ssl	1456(%rax), %xmm0, %xmm0
	vcvtsi2ssl	-64(%rbp), %xmm0, %xmm1
	vdivss	%xmm1, %xmm0, %xmm0
	vcvtss2sd	%xmm0, %xmm0, %xmm0
	movq	stats, %rax
	vcvtsi2ssl	1448(%rax), %xmm0, %xmm1
	vcvtsi2ssl	-80(%rbp), %xmm0, %xmm2
	vdivss	%xmm2, %xmm1, %xmm1
	vcvtss2sd	%xmm1, %xmm0, %xmm1
	movq	stats, %rax
	vcvtsi2ssl	1452(%rax), %xmm0, %xmm2
	vcvtsi2ssl	Bframe_ctr, %xmm0, %xmm3
	vdivss	%xmm3, %xmm2, %xmm2
	vcvtss2sd	%xmm2, %xmm0, %xmm2
	movabsq	$.L.str.156, %rsi
	movb	$3, %al
	callq	fprintf
	jmp	.LBB25_181
.LBB25_180:                             # %if.else1127
	movq	p_stat, %rdi
	movq	stats, %rax
	vcvtsi2ssl	1456(%rax), %xmm0, %xmm0
	vcvtsi2ssl	-64(%rbp), %xmm0, %xmm1
	vdivss	%xmm1, %xmm0, %xmm0
	vcvtss2sd	%xmm0, %xmm0, %xmm0
	movq	stats, %rax
	vcvtsi2ssl	1448(%rax), %xmm0, %xmm1
	vcvtsi2ssl	-80(%rbp), %xmm0, %xmm2
	vdivss	%xmm2, %xmm1, %xmm1
	vcvtss2sd	%xmm1, %xmm0, %xmm1
	movabsq	$.L.str.156, %rsi
	vxorps	%xmm2, %xmm2, %xmm2
	movb	$3, %al
	callq	fprintf
.LBB25_181:                             # %if.end1145
	movq	input, %rax
	cmpl	$0, 1236(%rax)
	je	.LBB25_184
# %bb.182:                              # %land.lhs.true1149
	cmpl	$0, Bframe_ctr
	je	.LBB25_184
# %bb.183:                              # %if.then1152
	movq	p_stat, %rdi
	movq	stats, %rax
	vcvtsi2ssl	1336(%rax), %xmm0, %xmm0
	vcvtsi2ssl	-64(%rbp), %xmm0, %xmm1
	vdivss	%xmm1, %xmm0, %xmm0
	vcvtss2sd	%xmm0, %xmm0, %xmm0
	movq	stats, %rax
	vcvtsi2ssl	1328(%rax), %xmm0, %xmm1
	vcvtsi2ssl	-80(%rbp), %xmm0, %xmm2
	vdivss	%xmm2, %xmm1, %xmm1
	vcvtss2sd	%xmm1, %xmm0, %xmm1
	movq	stats, %rax
	vcvtsi2ssl	1332(%rax), %xmm0, %xmm2
	vcvtsi2ssl	Bframe_ctr, %xmm0, %xmm3
	vdivss	%xmm3, %xmm2, %xmm2
	vcvtss2sd	%xmm2, %xmm0, %xmm2
	movabsq	$.L.str.157, %rsi
	movb	$3, %al
	callq	fprintf
	jmp	.LBB25_185
.LBB25_184:                             # %if.else1176
	movq	p_stat, %rdi
	movq	stats, %rax
	vcvtsi2ssl	1336(%rax), %xmm0, %xmm0
	vcvtsi2ssl	-64(%rbp), %xmm0, %xmm1
	vdivss	%xmm1, %xmm0, %xmm0
	vcvtss2sd	%xmm0, %xmm0, %xmm0
	movq	stats, %rax
	vcvtsi2ssl	1328(%rax), %xmm0, %xmm1
	vcvtsi2ssl	-80(%rbp), %xmm0, %xmm2
	vdivss	%xmm2, %xmm1, %xmm1
	vcvtss2sd	%xmm1, %xmm0, %xmm1
	movabsq	$.L.str.157, %rsi
	vxorps	%xmm2, %xmm2, %xmm2
	movb	$3, %al
	callq	fprintf
.LBB25_185:                             # %if.end1194
	movq	p_stat, %rdi
	movabsq	$.L.str.147, %rsi
	movb	$0, %al
	callq	fprintf
	movq	p_stat, %rdi
	movabsq	$.L.str.158, %rsi
	movb	$0, %al
	callq	fprintf
	movq	p_stat, %rdi
	vcvtsi2ssl	-60(%rbp), %xmm0, %xmm0
	vcvtsi2ssl	-64(%rbp), %xmm0, %xmm1
	vdivss	%xmm1, %xmm0, %xmm0
	vcvtss2sd	%xmm0, %xmm0, %xmm0
	movabsq	$.L.str.149, %rsi
	movb	$1, %al
	callq	fprintf
	movq	p_stat, %rdi
	vcvtsi2ssl	-76(%rbp), %xmm0, %xmm0
	vcvtsi2ssl	-80(%rbp), %xmm0, %xmm1
	vdivss	%xmm1, %xmm0, %xmm0
	vcvtss2sd	%xmm0, %xmm0, %xmm0
	movabsq	$.L.str.149, %rsi
	movb	$1, %al
	callq	fprintf
	movq	input, %rax
	cmpl	$0, 1236(%rax)
	je	.LBB25_188
# %bb.186:                              # %land.lhs.true1218
	cmpl	$0, Bframe_ctr
	je	.LBB25_188
# %bb.187:                              # %if.then1221
	movq	p_stat, %rdi
	vcvtsi2ssl	-68(%rbp), %xmm0, %xmm0
	vcvtsi2ssl	Bframe_ctr, %xmm0, %xmm1
	vdivss	%xmm1, %xmm0, %xmm0
	vcvtss2sd	%xmm0, %xmm0, %xmm0
	movabsq	$.L.str.149, %rsi
	movb	$1, %al
	callq	fprintf
	jmp	.LBB25_189
.LBB25_188:                             # %if.else1229
	movq	p_stat, %rdi
	movabsq	$.L.str.149, %rsi
	vxorps	%xmm0, %xmm0, %xmm0
	movb	$1, %al
	callq	fprintf
.LBB25_189:                             # %if.end1231
	movq	p_stat, %rdi
	movabsq	$.L.str.25, %rsi
	movb	$0, %al
	callq	fprintf
	movq	p_stat, %rdi
	movabsq	$.L.str.147, %rsi
	movb	$0, %al
	callq	fprintf
	movq	p_stat, %rdi
	callq	fclose
	movabsq	$.L.str.159, %rdi
	movabsq	$.L.str.5, %rsi
	callq	fopen
	movq	%rax, p_log
	cmpq	$0, %rax
	jne	.LBB25_194
# %bb.190:                              # %if.then1238
	movabsq	$.L.str.159, %rdi
	movabsq	$.L.str.6, %rsi
	callq	fopen
	movq	%rax, p_log
	cmpq	$0, %rax
	jne	.LBB25_192
# %bb.191:                              # %if.then1242
	movabsq	$errortext, %rdi
	movl	$300, %esi              # imm = 0x12C
	movabsq	$.L.str.7, %rdx
	movabsq	$.L.str.159, %rcx
	movb	$0, %al
	callq	snprintf
	movabsq	$errortext, %rdi
	movl	$500, %esi              # imm = 0x1F4
	callq	error
	jmp	.LBB25_193
.LBB25_192:                             # %if.else1244
	movq	p_log, %rdi
	movabsq	$.L.str.160, %rsi
	movb	$0, %al
	callq	fprintf
	movq	p_log, %rdi
	movabsq	$.L.str.161, %rsi
	movb	$0, %al
	callq	fprintf
	movq	p_log, %rdi
	movabsq	$.L.str.160, %rsi
	movb	$0, %al
	callq	fprintf
	movq	p_log, %rdi
	movabsq	$.L.str.162, %rsi
	movb	$0, %al
	callq	fprintf
	movq	p_log, %rdi
	movabsq	$.L.str.160, %rsi
	movb	$0, %al
	callq	fprintf
.LBB25_193:                             # %if.end1250
	jmp	.LBB25_197
.LBB25_194:                             # %if.else1251
	movq	p_log, %rdi
	callq	fclose
	movabsq	$.L.str.159, %rdi
	movabsq	$.L.str.6, %rsi
	callq	fopen
	movq	%rax, p_log
	cmpq	$0, %rax
	jne	.LBB25_196
# %bb.195:                              # %if.then1256
	movabsq	$errortext, %rdi
	movl	$300, %esi              # imm = 0x12C
	movabsq	$.L.str.7, %rdx
	movabsq	$.L.str.159, %rcx
	movb	$0, %al
	callq	snprintf
	movabsq	$errortext, %rdi
	movl	$500, %esi              # imm = 0x1F4
	callq	error
.LBB25_196:                             # %if.end1258
	jmp	.LBB25_197
.LBB25_197:                             # %if.end1259
	movq	p_log, %rdi
	movabsq	$.L.str.163, %rsi
	movabsq	$.L.str.13, %rdx
	movabsq	$.L.str.14, %rcx
	movb	$0, %al
	callq	fprintf
	xorl	%edi, %edi
	callq	time
	movq	%rax, -120(%rbp)
	leaq	-120(%rbp), %rdi
	callq	time
	leaq	-120(%rbp), %rdi
	callq	localtime
	leaq	-1248(%rbp), %rdi
	movq	%rax, -112(%rbp)
	movq	-112(%rbp), %rcx
	movl	$1000, %esi             # imm = 0x3E8
	movabsq	$.L.str.15, %rdx
	callq	strftime
	leaq	-1248(%rbp), %rdx
	movq	p_log, %rdi
	movabsq	$.L.str.16, %rsi
	movb	$0, %al
	callq	fprintf
	leaq	-1248(%rbp), %rdi
	movq	-112(%rbp), %rcx
	movl	$1000, %esi             # imm = 0x3E8
	movabsq	$.L.str.17, %rdx
	callq	strftime
	leaq	-1248(%rbp), %rdx
	movq	p_log, %rdi
	movabsq	$.L.str.18, %rsi
	movb	$0, %al
	callq	fprintf
	movl	$0, -36(%rbp)
.LBB25_198:                             # %for.cond1272
                                        # =>This Inner Loop Header: Depth=1
	cmpl	$20, -36(%rbp)
	jge	.LBB25_204
# %bb.199:                              # %for.body1275
                                        #   in Loop: Header=BB25_198 Depth=1
	xorl	%r15d, %r15d
	movq	input, %r14
	addq	$224, %r14
	movl	-36(%rbp), %ebx
	movq	input, %rdi
	addq	$224, %rdi
	callq	strlen
	subl	$20, %eax
	cmpl	%eax, %r15d
	jle	.LBB25_201
# %bb.200:                              # %cond.true1284
                                        #   in Loop: Header=BB25_198 Depth=1
	xorl	%eax, %eax
	jmp	.LBB25_202
.LBB25_201:                             # %cond.false1285
                                        #   in Loop: Header=BB25_198 Depth=1
	movq	input, %rdi
	addq	$224, %rdi
	callq	strlen
	subl	$20, %eax
.LBB25_202:                             # %cond.end1291
                                        #   in Loop: Header=BB25_198 Depth=1
	addl	%eax, %ebx
	movslq	%ebx, %rax
	movb	(%r14,%rax), %al
	movslq	-36(%rbp), %rcx
	movb	%al, -240(%rbp,%rcx)
# %bb.203:                              # %for.inc1298
                                        #   in Loop: Header=BB25_198 Depth=1
	movl	-36(%rbp), %eax
	addl	$1, %eax
	movl	%eax, -36(%rbp)
	jmp	.LBB25_198
.LBB25_204:                             # %for.end1300
	leaq	-240(%rbp), %rdx
	movq	p_log, %rdi
	movabsq	$.L.str.19, %rsi
	movb	$0, %al
	callq	fprintf
	movq	p_log, %rdi
	movq	input, %rax
	movl	8(%rax), %edx
	movabsq	$.L.str.164, %rsi
	movb	$0, %al
	callq	fprintf
	movq	p_log, %rdi
	movq	input, %rax
	movl	2880(%rax), %edx
	movq	input, %rax
	movl	2884(%rax), %ecx
	movabsq	$.L.str.21, %rsi
	movb	$0, %al
	callq	fprintf
	movq	p_log, %rdi
	movq	input, %rax
	movl	12(%rax), %edx
	movabsq	$.L.str.165, %rsi
	movb	$0, %al
	callq	fprintf
	movq	p_log, %rdi
	movq	input, %rax
	movl	16(%rax), %edx
	movabsq	$.L.str.165, %rsi
	movb	$0, %al
	callq	fprintf
	movq	p_log, %rdi
	movq	input, %rax
	movl	1240(%rax), %edx
	movabsq	$.L.str.165, %rsi
	movb	$0, %al
	callq	fprintf
	movq	p_log, %rdi
	movq	input, %rax
	movl	64(%rax), %edx
	movq	input, %rax
	movl	68(%rax), %ecx
	movabsq	$.L.str.166, %rsi
	movb	$0, %al
	callq	fprintf
	movq	p_log, %rdi
	movq	input, %rax
	movl	1224(%rax), %edx
	movabsq	$.L.str.167, %rsi
	movb	$0, %al
	callq	fprintf
	movq	p_log, %rdi
	movq	input, %rax
	movl	1236(%rax), %edx
	movabsq	$.L.str.20, %rsi
	movb	$0, %al
	callq	fprintf
	movq	input, %rax
	cmpl	$1, 24(%rax)
	jne	.LBB25_206
# %bb.205:                              # %if.then1322
	movq	p_log, %rdi
	movabsq	$.L.str.168, %rsi
	movb	$0, %al
	callq	fprintf
	jmp	.LBB25_207
.LBB25_206:                             # %if.else1324
	movq	p_log, %rdi
	movabsq	$.L.str.169, %rsi
	movb	$0, %al
	callq	fprintf
.LBB25_207:                             # %if.end1326
	movq	p_log, %rdi
	movq	input, %rax
	movl	32(%rax), %edx
	movabsq	$.L.str.170, %rsi
	movb	$0, %al
	callq	fprintf
	movq	p_log, %rdi
	movq	input, %rax
	movl	36(%rax), %edx
	movabsq	$.L.str.171, %rsi
	movb	$0, %al
	callq	fprintf
	movq	p_log, %rdi
	movq	img, %rax
	vmovss	48(%rax), %xmm0         # xmm0 = mem[0],zero,zero,zero
	movq	input, %rax
	movl	1236(%rax), %eax
	addl	$1, %eax
	vcvtsi2ss	%eax, %xmm0, %xmm1
	vmulss	%xmm1, %xmm0, %xmm0
	movq	input, %rax
	movl	20(%rax), %eax
	addl	$1, %eax
	vcvtsi2ss	%eax, %xmm0, %xmm1
	vdivss	%xmm1, %xmm0, %xmm0
	vcvtss2sd	%xmm0, %xmm0, %xmm0
	movabsq	$.L.str.172, %rsi
	movb	$1, %al
	callq	fprintf
	movq	input, %rax
	cmpl	$0, 2356(%rax)
	jne	.LBB25_209
# %bb.208:                              # %if.then1345
	movq	p_log, %rdi
	movabsq	$.L.str.173, %rsi
	movb	$0, %al
	callq	fprintf
	jmp	.LBB25_210
.LBB25_209:                             # %if.else1347
	movq	p_log, %rdi
	movabsq	$.L.str.174, %rsi
	movb	$0, %al
	callq	fprintf
.LBB25_210:                             # %if.end1349
	movq	p_log, %rdi
	movq	input, %rax
	movl	2464(%rax), %edx
	movabsq	$.L.str.175, %rsi
	movb	$0, %al
	callq	fprintf
	movq	input, %rax
	cmpl	$1, 76(%rax)
	jne	.LBB25_212
# %bb.211:                              # %if.then1355
	movq	p_log, %rdi
	movabsq	$.L.str.176, %rsi
	movb	$0, %al
	callq	fprintf
	jmp	.LBB25_213
.LBB25_212:                             # %if.else1357
	movq	p_log, %rdi
	movabsq	$.L.str.177, %rsi
	movb	$0, %al
	callq	fprintf
.LBB25_213:                             # %if.end1359
	movq	p_log, %rdi
	movq	input, %rax
	movl	3220(%rax), %edx
	movabsq	$.L.str.178, %rsi
	movb	$0, %al
	callq	fprintf
	movq	p_log, %rdi
	movq	snr, %rax
	vmovss	12(%rax), %xmm0         # xmm0 = mem[0],zero,zero,zero
	vcvtss2sd	%xmm0, %xmm0, %xmm0
	movabsq	$.L.str.179, %rsi
	movb	$1, %al
	callq	fprintf
	movq	p_log, %rdi
	movq	snr, %rax
	vmovss	16(%rax), %xmm0         # xmm0 = mem[0],zero,zero,zero
	vcvtss2sd	%xmm0, %xmm0, %xmm0
	movabsq	$.L.str.179, %rsi
	movb	$1, %al
	callq	fprintf
	movq	p_log, %rdi
	movq	snr, %rax
	vmovss	20(%rax), %xmm0         # xmm0 = mem[0],zero,zero,zero
	vcvtss2sd	%xmm0, %xmm0, %xmm0
	movabsq	$.L.str.179, %rsi
	movb	$1, %al
	callq	fprintf
	movq	p_log, %rdi
	movq	snr, %rax
	vmovss	60(%rax), %xmm0         # xmm0 = mem[0],zero,zero,zero
	vcvtss2sd	%xmm0, %xmm0, %xmm0
	movabsq	$.L.str.179, %rsi
	movb	$1, %al
	callq	fprintf
	movq	p_log, %rdi
	movq	snr, %rax
	vmovss	64(%rax), %xmm0         # xmm0 = mem[0],zero,zero,zero
	vcvtss2sd	%xmm0, %xmm0, %xmm0
	movabsq	$.L.str.179, %rsi
	movb	$1, %al
	callq	fprintf
	movq	p_log, %rdi
	movq	snr, %rax
	vmovss	68(%rax), %xmm0         # xmm0 = mem[0],zero,zero,zero
	vcvtss2sd	%xmm0, %xmm0, %xmm0
	movabsq	$.L.str.179, %rsi
	movb	$1, %al
	callq	fprintf
	movq	p_log, %rdi
	movq	stats, %rax
	vmovss	716(%rax), %xmm0        # xmm0 = mem[0],zero,zero,zero
	vcvtss2sd	%xmm0, %xmm0, %xmm0
	movabsq	$.L.str.180, %rsi
	movb	$1, %al
	callq	fprintf
	movq	p_log, %rdi
	movq	stats, %rax
	vmovss	720(%rax), %xmm0        # xmm0 = mem[0],zero,zero,zero
	vcvtss2sd	%xmm0, %xmm0, %xmm0
	movabsq	$.L.str.180, %rsi
	movb	$1, %al
	callq	fprintf
	movq	p_log, %rdi
	movq	stats, %rax
	vmovss	724(%rax), %xmm0        # xmm0 = mem[0],zero,zero,zero
	vcvtss2sd	%xmm0, %xmm0, %xmm0
	movabsq	$.L.str.180, %rsi
	movb	$1, %al
	callq	fprintf
	movq	p_log, %rdi
	movq	stats, %rax
	vmovss	12(%rax), %xmm0         # xmm0 = mem[0],zero,zero,zero
	vcvtss2sd	%xmm0, %xmm0, %xmm0
	movabsq	$.L.str.181, %rsi
	movb	$1, %al
	callq	fprintf
	movq	p_log, %rdi
	movl	tot_time, %edx
	movabsq	$.L.str.182, %rsi
	movb	$0, %al
	callq	fprintf
	movq	p_log, %rdi
	movl	me_tot_time, %edx
	movabsq	$.L.str.183, %rsi
	movb	$0, %al
	callq	fprintf
	movq	p_log, %rdi
	callq	fclose
	movabsq	$.L.str.184, %rdi
	movabsq	$.L.str.6, %rsi
	callq	fopen
	movq	%rax, p_log
	movq	input, %rax
	cmpl	$0, 1236(%rax)
	je	.LBB25_216
# %bb.214:                              # %land.lhs.true1398
	cmpl	$0, Bframe_ctr
	je	.LBB25_216
# %bb.215:                              # %if.then1401
	xorl	%eax, %eax
	vmovsd	.LCPI25_0(%rip), %xmm3  # xmm3 = mem[0],zero
	movq	p_log, %rdi
	movq	input, %rax
	movl	8(%rax), %r10d
	movq	input, %rax
	movl	12(%rax), %ecx
	movq	input, %rax
	movl	16(%rax), %r8d
	movq	snr, %rax
	vmovss	12(%rax), %xmm0         # xmm0 = mem[0],zero,zero,zero
	vcvtss2sd	%xmm0, %xmm0, %xmm0
	movq	snr, %rax
	vmovss	16(%rax), %xmm1         # xmm1 = mem[0],zero,zero,zero
	vcvtss2sd	%xmm1, %xmm0, %xmm1
	movq	snr, %rax
	vmovss	20(%rax), %xmm2         # xmm2 = mem[0],zero,zero,zero
	vcvtss2sd	%xmm2, %xmm0, %xmm2
	movq	stats, %rax
	movl	704(%rax), %r9d
	movq	snr, %rax
	vmovss	60(%rax), %xmm4         # xmm4 = mem[0],zero,zero,zero
	vcvtss2sd	%xmm4, %xmm0, %xmm6
	movq	snr, %rax
	vmovss	64(%rax), %xmm4         # xmm4 = mem[0],zero,zero,zero
	vcvtss2sd	%xmm4, %xmm0, %xmm7
	movq	snr, %rax
	vmovss	68(%rax), %xmm4         # xmm4 = mem[0],zero,zero,zero
	vcvtss2sd	%xmm4, %xmm0, %xmm8
	movq	stats, %rax
	movl	704(%rax), %eax
	movq	stats, %rdx
	addl	16(%rdx), %eax
	movq	input, %rdx
	movl	8(%rdx), %esi
	addl	Bframe_ctr, %esi
	cltd
	idivl	%esi
	movl	%eax, %ebx
	movq	stats, %rax
	movl	712(%rax), %eax
	cltd
	idivl	Bframe_ctr
	vcvtsi2sdl	tot_time, %xmm0, %xmm4
	vmulsd	%xmm4, %xmm3, %xmm3
	movq	input, %rdx
	movl	8(%rdx), %edx
	addl	Bframe_ctr, %edx
	vcvtsi2sd	%edx, %xmm0, %xmm4
	vdivsd	%xmm4, %xmm3, %xmm9
	movabsq	$.L.str.185, %rsi
	movl	%r10d, %edx
	vxorps	%xmm3, %xmm3, %xmm3
	vxorps	%xmm4, %xmm4, %xmm4
	vxorps	%xmm5, %xmm5, %xmm5
	movl	$0, (%rsp)
	vmovsd	%xmm8, 8(%rsp)
	movl	%ebx, 16(%rsp)
	movl	%eax, 24(%rsp)
	vmovsd	%xmm9, 32(%rsp)
	movb	$8, %al
	callq	fprintf
	jmp	.LBB25_219
.LBB25_216:                             # %if.else1432
	movq	input, %rax
	cmpl	$0, 8(%rax)
	je	.LBB25_218
# %bb.217:                              # %if.then1436
	xorl	%eax, %eax
	vmovsd	.LCPI25_0(%rip), %xmm3  # xmm3 = mem[0],zero
	movq	p_log, %rdi
	movq	input, %rax
	movl	8(%rax), %r10d
	movq	input, %rax
	movl	12(%rax), %ecx
	movq	input, %rax
	movl	16(%rax), %r8d
	movq	snr, %rax
	vmovss	12(%rax), %xmm0         # xmm0 = mem[0],zero,zero,zero
	vcvtss2sd	%xmm0, %xmm0, %xmm0
	movq	snr, %rax
	vmovss	16(%rax), %xmm1         # xmm1 = mem[0],zero,zero,zero
	vcvtss2sd	%xmm1, %xmm0, %xmm1
	movq	snr, %rax
	vmovss	20(%rax), %xmm2         # xmm2 = mem[0],zero,zero,zero
	vcvtss2sd	%xmm2, %xmm0, %xmm2
	movq	stats, %rax
	movl	704(%rax), %r9d
	movq	snr, %rax
	vmovss	60(%rax), %xmm4         # xmm4 = mem[0],zero,zero,zero
	vcvtss2sd	%xmm4, %xmm0, %xmm6
	movq	snr, %rax
	vmovss	64(%rax), %xmm4         # xmm4 = mem[0],zero,zero,zero
	vcvtss2sd	%xmm4, %xmm0, %xmm7
	movq	snr, %rax
	vmovss	68(%rax), %xmm4         # xmm4 = mem[0],zero,zero,zero
	vcvtss2sd	%xmm4, %xmm0, %xmm8
	movq	stats, %rax
	movl	704(%rax), %eax
	movq	stats, %rdx
	addl	16(%rdx), %eax
	movq	input, %rsi
	cltd
	idivl	8(%rsi)
	vcvtsi2sdl	tot_time, %xmm0, %xmm4
	vmulsd	%xmm4, %xmm3, %xmm3
	movq	input, %rdx
	vcvtsi2sdl	8(%rdx), %xmm0, %xmm4
	vdivsd	%xmm4, %xmm3, %xmm9
	movabsq	$.L.str.185, %rsi
	movl	%r10d, %edx
	vxorps	%xmm3, %xmm3, %xmm3
	vxorps	%xmm4, %xmm4, %xmm4
	vxorps	%xmm5, %xmm5, %xmm5
	movl	$0, (%rsp)
	vmovsd	%xmm8, 8(%rsp)
	movl	%eax, 16(%rsp)
	movl	$0, 24(%rsp)
	vmovsd	%xmm9, 32(%rsp)
	movb	$8, %al
	callq	fprintf
.LBB25_218:                             # %if.end1464
	jmp	.LBB25_219
.LBB25_219:                             # %if.end1465
	movq	p_log, %rdi
	callq	fclose
	movq	input, %rax
	cmpl	$0, 3228(%rax)
	je	.LBB25_224
# %bb.220:                              # %if.then1468
	movabsq	$.L.str.4, %rdi
	movabsq	$.L.str.6, %rsi
	callq	fopen
	movq	%rax, p_log
	cmpq	$0, %rax
	jne	.LBB25_222
# %bb.221:                              # %if.then1472
	movabsq	$errortext, %rdi
	movl	$300, %esi              # imm = 0x12C
	movabsq	$.L.str.7, %rdx
	movabsq	$.L.str.8, %rcx
	movb	$0, %al
	callq	snprintf
	jmp	.LBB25_223
.LBB25_222:                             # %if.else1474
	movq	p_log, %rdi
	movabsq	$.L.str.9, %rsi
	movb	$0, %al
	callq	fprintf
	movq	p_log, %rdi
	callq	fclose
.LBB25_223:                             # %if.end1477
	jmp	.LBB25_224
.LBB25_224:                             # %if.end1478
	cmpl	$2133071512, -100(%rbp) # imm = 0x7F241698
	jne	.LBB25_226
.LBB25_225:
	addq	$1272, %rsp             # imm = 0x4F8
	popq	%rbx
	popq	%r14
	popq	%r15
	popq	%rbp
	.cfi_def_cfa %rsp, 8
	retq
.LBB25_226:                             # %func_exit
	.cfi_def_cfa %rbp, 16
	callq	detect_breach
	jmp	.LBB25_225
.Lfunc_end25:
	.size	report.1, .Lfunc_end25-report.1
	.cfi_endproc
                                        # -- End function
	.globl	get_mem_DCcoeff.2       # -- Begin function get_mem_DCcoeff.2
	.p2align	4, 0x90
	.type	get_mem_DCcoeff.2,@function
get_mem_DCcoeff.2:                      # @get_mem_DCcoeff.2
	.cfi_startproc
# %bb.0:                                # %entry
	pushq	%rbp
	.cfi_def_cfa_offset 16
	.cfi_offset %rbp, -16
	movq	%rsp, %rbp
	.cfi_def_cfa_register %rbp
	subq	$32, %rsp
	movl	$465151569, -20(%rbp)   # imm = 0x1BB9A651
	movq	%rdi, -16(%rbp)
	movl	$3, %edi
	movl	$8, %esi
	callq	calloc
	movq	-16(%rbp), %rcx
	movq	%rax, (%rcx)
	cmpq	$0, %rax
	jne	.LBB26_2
# %bb.1:                                # %if.then
	movabsq	$.L.str.201, %rdi
	callq	no_mem_exit
.LBB26_2:                               # %if.end
	movl	$0, -4(%rbp)
.LBB26_3:                               # %for.cond
                                        # =>This Loop Header: Depth=1
                                        #     Child Loop BB26_7 Depth 2
	cmpl	$3, -4(%rbp)
	jge	.LBB26_14
# %bb.4:                                # %for.body
                                        #   in Loop: Header=BB26_3 Depth=1
	movl	$2, %edi
	movl	$8, %esi
	callq	calloc
	movq	-16(%rbp), %rcx
	movq	(%rcx), %rcx
	movslq	-4(%rbp), %rdx
	movq	%rax, (%rcx,%rdx,8)
	cmpq	$0, %rax
	jne	.LBB26_6
# %bb.5:                                # %if.then4
                                        #   in Loop: Header=BB26_3 Depth=1
	movabsq	$.L.str.201, %rdi
	callq	no_mem_exit
.LBB26_6:                               # %if.end5
                                        #   in Loop: Header=BB26_3 Depth=1
	movl	$0, -8(%rbp)
.LBB26_7:                               # %for.cond6
                                        #   Parent Loop BB26_3 Depth=1
                                        # =>  This Inner Loop Header: Depth=2
	cmpl	$2, -8(%rbp)
	jge	.LBB26_12
# %bb.8:                                # %for.body8
                                        #   in Loop: Header=BB26_7 Depth=2
	movl	$65, %edi
	movl	$4, %esi
	callq	calloc
	movq	-16(%rbp), %rcx
	movq	(%rcx), %rcx
	movslq	-4(%rbp), %rdx
	movq	(%rcx,%rdx,8), %rcx
	movslq	-8(%rbp), %rdx
	movq	%rax, (%rcx,%rdx,8)
	cmpq	$0, %rax
	jne	.LBB26_10
# %bb.9:                                # %if.then15
                                        #   in Loop: Header=BB26_7 Depth=2
	movabsq	$.L.str.201, %rdi
	callq	no_mem_exit
.LBB26_10:                              # %if.end16
                                        #   in Loop: Header=BB26_7 Depth=2
	jmp	.LBB26_11
.LBB26_11:                              # %for.inc
                                        #   in Loop: Header=BB26_7 Depth=2
	movl	-8(%rbp), %eax
	addl	$1, %eax
	movl	%eax, -8(%rbp)
	jmp	.LBB26_7
.LBB26_12:                              # %for.end
                                        #   in Loop: Header=BB26_3 Depth=1
	jmp	.LBB26_13
.LBB26_13:                              # %for.inc17
                                        #   in Loop: Header=BB26_3 Depth=1
	movl	-4(%rbp), %eax
	addl	$1, %eax
	movl	%eax, -4(%rbp)
	jmp	.LBB26_3
.LBB26_14:                              # %for.end19
	cmpl	$465151569, -20(%rbp)   # imm = 0x1BB9A651
	jne	.LBB26_16
.LBB26_15:
	movl	$1560, %eax             # imm = 0x618
	addq	$32, %rsp
	popq	%rbp
	.cfi_def_cfa %rsp, 8
	retq
.LBB26_16:                              # %func_exit
	.cfi_def_cfa %rbp, 16
	callq	detect_breach
	jmp	.LBB26_15
.Lfunc_end26:
	.size	get_mem_DCcoeff.2, .Lfunc_end26-get_mem_DCcoeff.2
	.cfi_endproc
                                        # -- End function
	.globl	get_mem_ACcoeff.3       # -- Begin function get_mem_ACcoeff.3
	.p2align	4, 0x90
	.type	get_mem_ACcoeff.3,@function
get_mem_ACcoeff.3:                      # @get_mem_ACcoeff.3
	.cfi_startproc
# %bb.0:                                # %entry
	pushq	%rbp
	.cfi_def_cfa_offset 16
	.cfi_offset %rbp, -16
	movq	%rsp, %rbp
	.cfi_def_cfa_register %rbp
	pushq	%rbx
	subq	$40, %rsp
	.cfi_offset %rbx, -24
	movl	$238267403, -36(%rbp)   # imm = 0xE33AC0B
	movq	%rdi, -32(%rbp)
	movq	img, %rax
	movl	72692(%rax), %eax
	addl	$4, %eax
	movl	%eax, -24(%rbp)
	movslq	-24(%rbp), %rdi
	movl	$8, %esi
	callq	calloc
	movq	-32(%rbp), %rcx
	movq	%rax, (%rcx)
	cmpq	$0, %rax
	jne	.LBB27_2
# %bb.1:                                # %if.then
	movabsq	$.L.str.200, %rdi
	callq	no_mem_exit
.LBB27_2:                               # %if.end
	movl	$0, -12(%rbp)
.LBB27_3:                               # %for.cond
                                        # =>This Loop Header: Depth=1
                                        #     Child Loop BB27_7 Depth 2
                                        #       Child Loop BB27_11 Depth 3
	movl	-12(%rbp), %eax
	cmpl	-24(%rbp), %eax
	jge	.LBB27_20
# %bb.4:                                # %for.body
                                        #   in Loop: Header=BB27_3 Depth=1
	movl	$4, %edi
	movl	$8, %esi
	callq	calloc
	movq	-32(%rbp), %rcx
	movq	(%rcx), %rcx
	movslq	-12(%rbp), %rdx
	movq	%rax, (%rcx,%rdx,8)
	cmpq	$0, %rax
	jne	.LBB27_6
# %bb.5:                                # %if.then7
                                        #   in Loop: Header=BB27_3 Depth=1
	movabsq	$.L.str.200, %rdi
	callq	no_mem_exit
.LBB27_6:                               # %if.end8
                                        #   in Loop: Header=BB27_3 Depth=1
	movl	$0, -16(%rbp)
.LBB27_7:                               # %for.cond9
                                        #   Parent Loop BB27_3 Depth=1
                                        # =>  This Loop Header: Depth=2
                                        #       Child Loop BB27_11 Depth 3
	cmpl	$4, -16(%rbp)
	jge	.LBB27_18
# %bb.8:                                # %for.body12
                                        #   in Loop: Header=BB27_7 Depth=2
	movl	$2, %edi
	movl	$8, %esi
	callq	calloc
	movq	-32(%rbp), %rcx
	movq	(%rcx), %rcx
	movslq	-12(%rbp), %rdx
	movq	(%rcx,%rdx,8), %rcx
	movslq	-16(%rbp), %rdx
	movq	%rax, (%rcx,%rdx,8)
	cmpq	$0, %rax
	jne	.LBB27_10
# %bb.9:                                # %if.then20
                                        #   in Loop: Header=BB27_7 Depth=2
	movabsq	$.L.str.200, %rdi
	callq	no_mem_exit
.LBB27_10:                              # %if.end21
                                        #   in Loop: Header=BB27_7 Depth=2
	movl	$0, -20(%rbp)
.LBB27_11:                              # %for.cond22
                                        #   Parent Loop BB27_3 Depth=1
                                        #     Parent Loop BB27_7 Depth=2
                                        # =>    This Inner Loop Header: Depth=3
	cmpl	$2, -20(%rbp)
	jge	.LBB27_16
# %bb.12:                               # %for.body25
                                        #   in Loop: Header=BB27_11 Depth=3
	movl	$65, %edi
	movl	$4, %esi
	callq	calloc
	movq	-32(%rbp), %rcx
	movq	(%rcx), %rcx
	movslq	-12(%rbp), %rdx
	movq	(%rcx,%rdx,8), %rcx
	movslq	-16(%rbp), %rdx
	movq	(%rcx,%rdx,8), %rcx
	movslq	-20(%rbp), %rdx
	movq	%rax, (%rcx,%rdx,8)
	cmpq	$0, %rax
	jne	.LBB27_14
# %bb.13:                               # %if.then35
                                        #   in Loop: Header=BB27_11 Depth=3
	movabsq	$.L.str.200, %rdi
	callq	no_mem_exit
.LBB27_14:                              # %if.end36
                                        #   in Loop: Header=BB27_11 Depth=3
	jmp	.LBB27_15
.LBB27_15:                              # %for.inc
                                        #   in Loop: Header=BB27_11 Depth=3
	movl	-20(%rbp), %eax
	addl	$1, %eax
	movl	%eax, -20(%rbp)
	jmp	.LBB27_11
.LBB27_16:                              # %for.end
                                        #   in Loop: Header=BB27_7 Depth=2
	jmp	.LBB27_17
.LBB27_17:                              # %for.inc37
                                        #   in Loop: Header=BB27_7 Depth=2
	movl	-16(%rbp), %eax
	addl	$1, %eax
	movl	%eax, -16(%rbp)
	jmp	.LBB27_7
.LBB27_18:                              # %for.end39
                                        #   in Loop: Header=BB27_3 Depth=1
	jmp	.LBB27_19
.LBB27_19:                              # %for.inc40
                                        #   in Loop: Header=BB27_3 Depth=1
	movl	-12(%rbp), %eax
	addl	$1, %eax
	movl	%eax, -12(%rbp)
	jmp	.LBB27_3
.LBB27_20:                              # %for.end42
	movl	-24(%rbp), %eax
	shll	$2, %eax
	shll	$1, %eax
	imull	$65, %eax, %eax
	movslq	%eax, %rbx
	shlq	$2, %rbx
	cmpl	$238267403, -36(%rbp)   # imm = 0xE33AC0B
	jne	.LBB27_22
.LBB27_21:
	movl	%ebx, %eax
	addq	$40, %rsp
	popq	%rbx
	popq	%rbp
	.cfi_def_cfa %rsp, 8
	retq
.LBB27_22:                              # %func_exit
	.cfi_def_cfa %rbp, 16
	callq	detect_breach
	jmp	.LBB27_21
.Lfunc_end27:
	.size	get_mem_ACcoeff.3, .Lfunc_end27-get_mem_ACcoeff.3
	.cfi_endproc
                                        # -- End function
	.globl	init_global_buffers.4   # -- Begin function init_global_buffers.4
	.p2align	4, 0x90
	.type	init_global_buffers.4,@function
init_global_buffers.4:                  # @init_global_buffers.4
	.cfi_startproc
# %bb.0:                                # %entry
	pushq	%rbp
	.cfi_def_cfa_offset 16
	.cfi_offset %rbp, -16
	movq	%rsp, %rbp
	.cfi_def_cfa_register %rbp
	pushq	%rbx
	subq	$24, %rsp
	.cfi_offset %rbx, -24
	movl	$1136575597, -20(%rbp)  # imm = 0x43BEC46D
	movl	$0, -12(%rbp)
	movq	img, %rax
	movl	36(%rax), %eax
	shll	$1, %eax
	movslq	%eax, %rdi
	shlq	$2, %rdi
	callq	malloc
	movq	%rax, last_P_no_frm
	cmpq	$0, %rax
	jne	.LBB28_2
# %bb.1:                                # %if.then
	movabsq	$.L.str.197, %rdi
	callq	no_mem_exit
.LBB28_2:                               # %if.end
	movq	active_sps, %rax
	cmpl	$0, 1148(%rax)
	jne	.LBB28_6
# %bb.3:                                # %if.then3
	movq	img, %rax
	movl	36(%rax), %eax
	shll	$2, %eax
	movslq	%eax, %rdi
	shlq	$2, %rdi
	callq	malloc
	movq	%rax, last_P_no_fld
	cmpq	$0, %rax
	jne	.LBB28_5
# %bb.4:                                # %if.then11
	movabsq	$.L.str.197, %rdi
	callq	no_mem_exit
.LBB28_5:                               # %if.end12
	jmp	.LBB28_6
.LBB28_6:                               # %if.end13
	callq	init_orig_buffers
	addl	-12(%rbp), %eax
	movl	%eax, -12(%rbp)
	movq	input, %rax
	cmpl	$0, 1284(%rax)
	jne	.LBB28_9
# %bb.7:                                # %lor.lhs.false
	movq	input, %rax
	cmpl	$0, 1288(%rax)
	jne	.LBB28_9
# %bb.8:                                # %lor.lhs.false17
	movq	input, %rax
	cmpl	$0, 60(%rax)
	je	.LBB28_10
.LBB28_9:                               # %if.then19
	movabsq	$wp_weight, %rdi
	movl	$6, %esi
	movl	$15, %edx
	movl	$3, %ecx
	callq	get_mem3Dint
	addl	-12(%rbp), %eax
	movl	%eax, -12(%rbp)
	movabsq	$wp_offset, %rdi
	movl	$6, %esi
	movl	$15, %edx
	movl	$3, %ecx
	callq	get_mem3Dint
	addl	-12(%rbp), %eax
	movl	%eax, -12(%rbp)
	movabsq	$wbp_weight, %rdi
	movl	$6, %esi
	movl	$15, %edx
	movl	$15, %ecx
	movl	$3, %r8d
	callq	get_mem4Dint
	addl	-12(%rbp), %eax
	movl	%eax, -12(%rbp)
.LBB28_10:                              # %if.end26
	movq	input, %rax
	cmpl	$0, 1236(%rax)
	jne	.LBB28_12
# %bb.11:                               # %lor.lhs.false29
	movq	input, %rax
	cmpl	$0, 1316(%rax)
	jle	.LBB28_13
.LBB28_12:                              # %if.then32
	movq	img, %rax
	movl	52(%rax), %eax
	cltd
	movl	$4, %esi
	idivl	%esi
	movl	%eax, %ecx
	movq	img, %rax
	movl	60(%rax), %eax
	cltd
	idivl	%esi
	movabsq	$direct_ref_idx, %rdi
	movl	$2, %esi
	movl	%ecx, %edx
	movl	%eax, %ecx
	callq	get_mem3Dshort
	addl	-12(%rbp), %eax
	movl	%eax, -12(%rbp)
	movq	img, %rax
	movl	52(%rax), %eax
	cltd
	movl	$4, %ecx
	idivl	%ecx
	movl	%eax, %esi
	movq	img, %rax
	movl	60(%rax), %eax
	cltd
	idivl	%ecx
	movabsq	$direct_pdir, %rdi
	movl	%eax, %edx
	callq	get_mem2Dshort
	addl	-12(%rbp), %eax
	movl	%eax, -12(%rbp)
.LBB28_13:                              # %if.end42
	movq	img, %rax
	movl	60(%rax), %esi
	addl	$8, %esi
	movq	img, %rax
	movl	52(%rax), %edx
	addl	$8, %edx
	shll	$2, %edx
	movabsq	$img4Y_tmp, %rdi
	callq	get_mem2Dint
	addl	-12(%rbp), %eax
	movl	%eax, -12(%rbp)
	movq	input, %rax
	cmpl	$2, 2464(%rax)
	jne	.LBB28_21
# %bb.14:                               # %if.then52
	movq	decs, %rdi
	movl	$16, %esi
	movl	$16, %edx
	callq	get_mem2Dint
	addl	-12(%rbp), %eax
	movl	%eax, -12(%rbp)
	movq	input, %rax
	movslq	2904(%rax), %rdi
	movl	$8, %esi
	callq	calloc
	movq	decs, %rcx
	movq	%rax, 16(%rcx)
	cmpq	$0, %rax
	jne	.LBB28_16
# %bb.15:                               # %if.then59
	movabsq	$.L.str.198, %rdi
	callq	no_mem_exit
.LBB28_16:                              # %if.end60
	movl	$0, -16(%rbp)
.LBB28_17:                              # %for.cond
                                        # =>This Inner Loop Header: Depth=1
	movl	-16(%rbp), %eax
	movq	input, %rcx
	cmpl	2904(%rcx), %eax
	jge	.LBB28_20
# %bb.18:                               # %for.body
                                        #   in Loop: Header=BB28_17 Depth=1
	movq	decs, %rax
	movq	16(%rax), %rdi
	movslq	-16(%rbp), %rax
	shlq	$3, %rax
	addq	%rax, %rdi
	movq	img, %rax
	movl	36(%rax), %esi
	addl	$1, %esi
	movq	img, %rax
	movl	60(%rax), %edx
	movq	img, %rax
	movl	52(%rax), %ecx
	callq	get_mem3Dpel
	addl	-12(%rbp), %eax
	movl	%eax, -12(%rbp)
# %bb.19:                               # %for.inc
                                        #   in Loop: Header=BB28_17 Depth=1
	movl	-16(%rbp), %eax
	addl	$1, %eax
	movl	%eax, -16(%rbp)
	jmp	.LBB28_17
.LBB28_20:                              # %for.end
	movq	decs, %rdi
	addq	$32, %rdi
	movl	$4, %esi
	movl	$4, %edx
	callq	get_mem2Dpel
	addl	-12(%rbp), %eax
	movl	%eax, -12(%rbp)
	movq	decs, %rdi
	addq	$8, %rdi
	movq	input, %rax
	movl	2904(%rax), %esi
	movq	img, %rax
	movl	60(%rax), %edx
	movq	img, %rax
	movl	52(%rax), %ecx
	callq	get_mem3Dpel
	addl	-12(%rbp), %eax
	movl	%eax, -12(%rbp)
	movq	decs, %rdi
	addq	$24, %rdi
	movq	input, %rax
	movl	2904(%rax), %esi
	movq	img, %rax
	movl	60(%rax), %edx
	movq	img, %rax
	movl	52(%rax), %ecx
	callq	get_mem3Dpel
	addl	-12(%rbp), %eax
	movl	%eax, -12(%rbp)
	movq	decs, %rdi
	addq	$40, %rdi
	movq	img, %rax
	movl	60(%rax), %eax
	cltd
	movl	$16, %ecx
	idivl	%ecx
	movl	%eax, %esi
	movq	img, %rax
	movl	52(%rax), %eax
	cltd
	idivl	%ecx
	movl	%eax, %edx
	callq	get_mem2D
	addl	-12(%rbp), %eax
	movl	%eax, -12(%rbp)
	movq	decs, %rdi
	addq	$48, %rdi
	movq	img, %rax
	movl	52(%rax), %eax
	cltd
	movl	$16, %ecx
	idivl	%ecx
	movl	%eax, %esi
	movq	img, %rax
	movl	60(%rax), %eax
	cltd
	idivl	%ecx
	movl	%eax, %edx
	callq	get_mem2D
	addl	-12(%rbp), %eax
	movl	%eax, -12(%rbp)
.LBB28_21:                              # %if.end95
	movq	input, %rax
	cmpl	$0, 2908(%rax)
	je	.LBB28_23
# %bb.22:                               # %if.then97
	movq	img, %rax
	movl	60(%rax), %esi
	movq	img, %rax
	movl	52(%rax), %edx
	movabsq	$pixel_map, %rdi
	callq	get_mem2D
	addl	-12(%rbp), %eax
	movl	%eax, -12(%rbp)
	movq	img, %rax
	movl	60(%rax), %eax
	cltd
	movl	$8, %ecx
	idivl	%ecx
	movl	%eax, %esi
	movq	img, %rax
	movl	52(%rax), %eax
	cltd
	idivl	%ecx
	movabsq	$refresh_map, %rdi
	movl	%eax, %edx
	callq	get_mem2D
	addl	-12(%rbp), %eax
	movl	%eax, -12(%rbp)
.LBB28_23:                              # %if.end108
	movq	active_sps, %rax
	cmpl	$0, 1148(%rax)
	jne	.LBB28_27
# %bb.24:                               # %if.then111
	movq	img, %rax
	movl	60(%rax), %esi
	movq	img, %rax
	movl	52(%rax), %edx
	movabsq	$imgY_com, %rdi
	callq	get_mem2Dpel
	addl	-12(%rbp), %eax
	movl	%eax, -12(%rbp)
	movq	img, %rax
	cmpl	$0, 72700(%rax)
	je	.LBB28_26
# %bb.25:                               # %if.then118
	movq	img, %rax
	movl	64(%rax), %edx
	movq	img, %rax
	movl	56(%rax), %ecx
	movabsq	$imgUV_com, %rdi
	movl	$2, %esi
	callq	get_mem3Dpel
	addl	-12(%rbp), %eax
	movl	%eax, -12(%rbp)
.LBB28_26:                              # %if.end121
	jmp	.LBB28_27
.LBB28_27:                              # %if.end122
	movq	input, %rax
	cmpl	$0, 3292(%rax)
	je	.LBB28_29
# %bb.28:                               # %if.then124
	movb	$0, %al
	callq	get_mem_FME
	addl	-12(%rbp), %eax
	movl	%eax, -12(%rbp)
.LBB28_29:                              # %if.end127
	movq	input, %rax
	cmpl	$0, 3236(%rax)
	je	.LBB28_31
# %bb.30:                               # %if.then129
	movb	$0, %al
	callq	rc_alloc
.LBB28_31:                              # %if.end130
	movl	-12(%rbp), %ebx
	cmpl	$1136575597, -20(%rbp)  # imm = 0x43BEC46D
	jne	.LBB28_33
.LBB28_32:
	movl	%ebx, %eax
	addq	$24, %rsp
	popq	%rbx
	popq	%rbp
	.cfi_def_cfa %rsp, 8
	retq
.LBB28_33:                              # %func_exit
	.cfi_def_cfa %rbp, 16
	callq	detect_breach
	jmp	.LBB28_32
.Lfunc_end28:
	.size	init_global_buffers.4, .Lfunc_end28-init_global_buffers.4
	.cfi_endproc
                                        # -- End function
	.globl	free_global_buffers.5   # -- Begin function free_global_buffers.5
	.p2align	4, 0x90
	.type	free_global_buffers.5,@function
free_global_buffers.5:                  # @free_global_buffers.5
	.cfi_startproc
# %bb.0:                                # %entry
	pushq	%rbp
	.cfi_def_cfa_offset 16
	.cfi_offset %rbp, -16
	movq	%rsp, %rbp
	.cfi_def_cfa_register %rbp
	subq	$16, %rsp
	movl	$363291559, -12(%rbp)   # imm = 0x15A763A7
	movq	last_P_no_frm, %rdi
	callq	free
	movq	last_P_no_fld, %rdi
	callq	free
	callq	free_orig_planes
	movq	input, %rax
	cmpl	$0, 1284(%rax)
	jne	.LBB29_3
# %bb.1:                                # %lor.lhs.false
	movq	input, %rax
	cmpl	$0, 1288(%rax)
	jne	.LBB29_3
# %bb.2:                                # %lor.lhs.false2
	movq	input, %rax
	cmpl	$0, 60(%rax)
	je	.LBB29_4
.LBB29_3:                               # %if.then
	movq	wp_weight, %rdi
	movl	$6, %esi
	callq	free_mem3Dint
	movq	wp_offset, %rdi
	movl	$6, %esi
	callq	free_mem3Dint
	movq	wbp_weight, %rdi
	movl	$6, %esi
	movl	$15, %edx
	callq	free_mem4Dint
.LBB29_4:                               # %if.end
	movq	input, %rax
	cmpl	$0, 1236(%rax)
	jne	.LBB29_6
# %bb.5:                                # %lor.lhs.false4
	movq	input, %rax
	cmpl	$0, 1316(%rax)
	jle	.LBB29_7
.LBB29_6:                               # %if.then6
	movq	direct_ref_idx, %rdi
	movl	$2, %esi
	callq	free_mem3Dshort
	movq	direct_pdir, %rdi
	callq	free_mem2Dshort
.LBB29_7:                               # %if.end7
	movq	img4Y_tmp, %rdi
	callq	free_mem2Dint
	movq	img, %rax
	movq	104(%rax), %rdi
	callq	free_mem2Dint
	movq	img, %rax
	movq	112(%rax), %rdi
	callq	free_mem2Dint
	movq	img, %rax
	movq	14168(%rax), %rdi
	callq	free
	movq	rddata_top_frame_mb+3136, %rdi
	callq	free_mem2Dint
	movq	input, %rax
	cmpl	$0, 216(%rax)
	je	.LBB29_9
# %bb.8:                                # %if.then9
	movq	img, %rax
	movq	71784(%rax), %rdi
	callq	free
.LBB29_9:                               # %if.end10
	movq	input, %rax
	cmpl	$2, 2464(%rax)
	jne	.LBB29_19
# %bb.10:                               # %if.then12
	movq	decs, %rax
	movq	(%rax), %rax
	movq	(%rax), %rdi
	callq	free
	movq	decs, %rax
	movq	(%rax), %rdi
	callq	free
	movq	decs, %rax
	movq	32(%rax), %rax
	movq	(%rax), %rdi
	callq	free
	movq	decs, %rax
	movq	32(%rax), %rdi
	callq	free
	movl	$0, -4(%rbp)
.LBB29_11:                              # %for.cond
                                        # =>This Loop Header: Depth=1
                                        #     Child Loop BB29_13 Depth 2
	movl	-4(%rbp), %eax
	movq	input, %rcx
	cmpl	2904(%rcx), %eax
	jge	.LBB29_18
# %bb.12:                               # %for.body
                                        #   in Loop: Header=BB29_11 Depth=1
	movq	decs, %rax
	movq	8(%rax), %rax
	movslq	-4(%rbp), %rcx
	movq	(%rax,%rcx,8), %rax
	movq	(%rax), %rdi
	callq	free
	movq	decs, %rax
	movq	8(%rax), %rax
	movslq	-4(%rbp), %rcx
	movq	(%rax,%rcx,8), %rdi
	callq	free
	movq	decs, %rax
	movq	24(%rax), %rax
	movslq	-4(%rbp), %rcx
	movq	(%rax,%rcx,8), %rax
	movq	(%rax), %rdi
	callq	free
	movq	decs, %rax
	movq	24(%rax), %rax
	movslq	-4(%rbp), %rcx
	movq	(%rax,%rcx,8), %rdi
	callq	free
	movl	$0, -8(%rbp)
.LBB29_13:                              # %for.cond28
                                        #   Parent Loop BB29_11 Depth=1
                                        # =>  This Inner Loop Header: Depth=2
	movl	-8(%rbp), %eax
	movq	img, %rcx
	movl	36(%rcx), %ecx
	addl	$1, %ecx
	cmpl	%ecx, %eax
	jge	.LBB29_16
# %bb.14:                               # %for.body30
                                        #   in Loop: Header=BB29_13 Depth=2
	movq	decs, %rax
	movq	16(%rax), %rax
	movslq	-4(%rbp), %rcx
	movq	(%rax,%rcx,8), %rax
	movslq	-8(%rbp), %rcx
	movq	(%rax,%rcx,8), %rax
	movq	(%rax), %rdi
	callq	free
	movq	decs, %rax
	movq	16(%rax), %rax
	movslq	-4(%rbp), %rcx
	movq	(%rax,%rcx,8), %rax
	movslq	-8(%rbp), %rcx
	movq	(%rax,%rcx,8), %rdi
	callq	free
# %bb.15:                               # %for.inc
                                        #   in Loop: Header=BB29_13 Depth=2
	movl	-8(%rbp), %eax
	addl	$1, %eax
	movl	%eax, -8(%rbp)
	jmp	.LBB29_13
.LBB29_16:                              # %for.end
                                        #   in Loop: Header=BB29_11 Depth=1
	movq	decs, %rax
	movq	16(%rax), %rax
	movslq	-4(%rbp), %rcx
	movq	(%rax,%rcx,8), %rdi
	callq	free
# %bb.17:                               # %for.inc44
                                        #   in Loop: Header=BB29_11 Depth=1
	movl	-4(%rbp), %eax
	addl	$1, %eax
	movl	%eax, -4(%rbp)
	jmp	.LBB29_11
.LBB29_18:                              # %for.end46
	movq	decs, %rax
	movq	8(%rax), %rdi
	callq	free
	movq	decs, %rax
	movq	24(%rax), %rdi
	callq	free
	movq	decs, %rax
	movq	16(%rax), %rdi
	callq	free
	movq	decs, %rax
	movq	40(%rax), %rax
	movq	(%rax), %rdi
	callq	free
	movq	decs, %rax
	movq	40(%rax), %rdi
	callq	free
	movq	decs, %rax
	movq	48(%rax), %rax
	movq	(%rax), %rdi
	callq	free
	movq	decs, %rax
	movq	48(%rax), %rdi
	callq	free
.LBB29_19:                              # %if.end54
	movq	input, %rax
	cmpl	$0, 2908(%rax)
	je	.LBB29_21
# %bb.20:                               # %if.then56
	movq	pixel_map, %rax
	movq	(%rax), %rdi
	callq	free
	movq	pixel_map, %rdi
	callq	free
	movq	refresh_map, %rax
	movq	(%rax), %rdi
	callq	free
	movq	refresh_map, %rdi
	callq	free
.LBB29_21:                              # %if.end59
	movq	active_sps, %rax
	cmpl	$0, 1148(%rax)
	jne	.LBB29_25
# %bb.22:                               # %if.then61
	movq	imgY_com, %rdi
	callq	free_mem2Dpel
	movq	img, %rax
	cmpl	$0, 72700(%rax)
	je	.LBB29_24
# %bb.23:                               # %if.then63
	movq	imgUV_com, %rdi
	movl	$2, %esi
	callq	free_mem3Dpel
.LBB29_24:                              # %if.end64
	jmp	.LBB29_25
.LBB29_25:                              # %if.end65
	movq	img, %rax
	movq	128(%rax), %rdi
	movq	img, %rax
	movl	72488(%rax), %esi
	callq	free_mem3Dint
	movq	input, %rax
	cmpl	$0, 3292(%rax)
	je	.LBB29_27
# %bb.26:                               # %if.then67
	movb	$0, %al
	callq	free_mem_FME
.LBB29_27:                              # %if.end68
	movq	input, %rax
	cmpl	$0, 3236(%rax)
	je	.LBB29_29
# %bb.28:                               # %if.then70
	movb	$0, %al
	callq	rc_free
.LBB29_29:                              # %if.end71
	cmpl	$363291559, -12(%rbp)   # imm = 0x15A763A7
	jne	.LBB29_31
.LBB29_30:
	addq	$16, %rsp
	popq	%rbp
	.cfi_def_cfa %rsp, 8
	retq
.LBB29_31:                              # %func_exit
	.cfi_def_cfa %rbp, 16
	callq	detect_breach
	jmp	.LBB29_30
.Lfunc_end29:
	.size	free_global_buffers.5, .Lfunc_end29-free_global_buffers.5
	.cfi_endproc
                                        # -- End function
	.globl	report_frame_statistic.6 # -- Begin function report_frame_statistic.6
	.p2align	4, 0x90
	.type	report_frame_statistic.6,@function
report_frame_statistic.6:               # @report_frame_statistic.6
	.cfi_startproc
# %bb.0:                                # %entry
	pushq	%rbp
	.cfi_def_cfa_offset 16
	.cfi_offset %rbp, -16
	movq	%rsp, %rbp
	.cfi_def_cfa_register %rbp
	pushq	%r15
	pushq	%r14
	pushq	%rbx
	subq	$1080, %rsp             # imm = 0x438
	.cfi_offset %rbx, -40
	.cfi_offset %r14, -32
	.cfi_offset %r15, -24
	movl	$157478008, -44(%rbp)   # imm = 0x962EC78
	movq	$0, -32(%rbp)
	movabsq	$.L.str.4, %rdi
	movabsq	$.L.str.5, %rsi
	callq	fopen
	movq	%rax, -32(%rbp)
	cmpq	$0, %rax
	jne	.LBB30_5
# %bb.1:                                # %if.then
	movabsq	$.L.str.4, %rdi
	movabsq	$.L.str.6, %rsi
	callq	fopen
	movq	%rax, -32(%rbp)
	cmpq	$0, %rax
	jne	.LBB30_3
# %bb.2:                                # %if.then3
	movabsq	$errortext, %rdi
	movl	$300, %esi              # imm = 0x12C
	movabsq	$.L.str.7, %rdx
	movabsq	$.L.str.8, %rcx
	movb	$0, %al
	callq	snprintf
	movabsq	$errortext, %rdi
	movl	$500, %esi              # imm = 0x1F4
	callq	error
	jmp	.LBB30_4
.LBB30_3:                               # %if.else
	movq	-32(%rbp), %rdi
	movabsq	$.L.str.9, %rsi
	movb	$0, %al
	callq	fprintf
	movq	-32(%rbp), %rdi
	movabsq	$.L.str.10, %rsi
	movb	$0, %al
	callq	fprintf
	movq	-32(%rbp), %rdi
	movabsq	$.L.str.9, %rsi
	movb	$0, %al
	callq	fprintf
.LBB30_4:                               # %if.end
	jmp	.LBB30_8
.LBB30_5:                               # %if.else8
	movq	-32(%rbp), %rdi
	callq	fclose
	movabsq	$.L.str.4, %rdi
	movabsq	$.L.str.6, %rsi
	callq	fopen
	movq	%rax, -32(%rbp)
	cmpq	$0, %rax
	jne	.LBB30_7
# %bb.6:                                # %if.then12
	movabsq	$errortext, %rdi
	movl	$300, %esi              # imm = 0x12C
	movabsq	$.L.str.7, %rdx
	movabsq	$.L.str.8, %rcx
	movb	$0, %al
	callq	snprintf
	movabsq	$errortext, %rdi
	movl	$500, %esi              # imm = 0x1F4
	callq	error
.LBB30_7:                               # %if.end14
	jmp	.LBB30_8
.LBB30_8:                               # %if.end15
	cmpl	$0, frame_statistic_start
	je	.LBB30_10
# %bb.9:                                # %if.then16
	movq	-32(%rbp), %rdi
	movabsq	$.L.str.11, %rsi
	movb	$0, %al
	callq	fprintf
	movq	-32(%rbp), %rdi
	movabsq	$.L.str.9, %rsi
	movb	$0, %al
	callq	fprintf
.LBB30_10:                              # %if.end19
	movq	-32(%rbp), %rdi
	movabsq	$.L.str.12, %rsi
	movabsq	$.L.str.13, %rdx
	movabsq	$.L.str.14, %rcx
	movb	$0, %al
	callq	fprintf
	xorl	%edi, %edi
	callq	time
	movq	%rax, -64(%rbp)
	leaq	-64(%rbp), %rdi
	callq	time
	leaq	-64(%rbp), %rdi
	callq	localtime
	leaq	-1104(%rbp), %rdi
	movq	%rax, -56(%rbp)
	movq	-56(%rbp), %rcx
	movl	$1000, %esi             # imm = 0x3E8
	movabsq	$.L.str.15, %rdx
	callq	strftime
	leaq	-1104(%rbp), %rdx
	movq	-32(%rbp), %rdi
	movabsq	$.L.str.16, %rsi
	movb	$0, %al
	callq	fprintf
	leaq	-1104(%rbp), %rdi
	movq	-56(%rbp), %rcx
	movl	$1000, %esi             # imm = 0x3E8
	movabsq	$.L.str.17, %rdx
	callq	strftime
	leaq	-1104(%rbp), %rdx
	movq	-32(%rbp), %rdi
	movabsq	$.L.str.18, %rsi
	movb	$0, %al
	callq	fprintf
	movl	$0, -36(%rbp)
.LBB30_11:                              # %for.cond
                                        # =>This Inner Loop Header: Depth=1
	cmpl	$20, -36(%rbp)
	jge	.LBB30_17
# %bb.12:                               # %for.body
                                        #   in Loop: Header=BB30_11 Depth=1
	xorl	%r15d, %r15d
	movq	input, %r14
	addq	$224, %r14
	movl	-36(%rbp), %ebx
	movq	input, %rdi
	addq	$224, %rdi
	callq	strlen
	subq	$20, %rax
	cmpl	%eax, %r15d
	jle	.LBB30_14
# %bb.13:                               # %cond.true
                                        #   in Loop: Header=BB30_11 Depth=1
	xorl	%eax, %eax
	jmp	.LBB30_15
.LBB30_14:                              # %cond.false
                                        #   in Loop: Header=BB30_11 Depth=1
	movq	input, %rdi
	addq	$224, %rdi
	callq	strlen
	subq	$20, %rax
.LBB30_15:                              # %cond.end
                                        #   in Loop: Header=BB30_11 Depth=1
	addl	%eax, %ebx
	movslq	%ebx, %rax
	movb	(%r14,%rax), %al
	movslq	-36(%rbp), %rcx
	movb	%al, -96(%rbp,%rcx)
# %bb.16:                               # %for.inc
                                        #   in Loop: Header=BB30_11 Depth=1
	movl	-36(%rbp), %eax
	addl	$1, %eax
	movl	%eax, -36(%rbp)
	jmp	.LBB30_11
.LBB30_17:                              # %for.end
	leaq	-96(%rbp), %rdx
	movq	-32(%rbp), %rdi
	movabsq	$.L.str.19, %rsi
	movb	$0, %al
	callq	fprintf
	movq	-32(%rbp), %rdi
	movl	frame_no, %edx
	movabsq	$.L.str.20, %rsi
	movb	$0, %al
	callq	fprintf
	movq	-32(%rbp), %rdi
	movq	img, %rax
	movl	40(%rax), %edx
	movabsq	$.L.str.20, %rsi
	movb	$0, %al
	callq	fprintf
	movq	-32(%rbp), %rdi
	movq	input, %rax
	movl	2880(%rax), %edx
	movq	input, %rax
	movl	2884(%rax), %ecx
	movabsq	$.L.str.21, %rsi
	movb	$0, %al
	callq	fprintf
	movq	img, %rax
	cmpl	$0, 72464(%rax)
	jne	.LBB30_19
# %bb.18:                               # %if.then51
	movq	stats, %rax
	movl	704(%rax), %eax
	movl	%eax, -40(%rbp)
	jmp	.LBB30_20
.LBB30_19:                              # %if.else52
	movq	stats, %rax
	movl	20(%rax), %eax
	subl	report_frame_statistic.last_bit_ctr_n, %eax
	movl	%eax, -40(%rbp)
	movq	stats, %rax
	movl	20(%rax), %eax
	movl	%eax, report_frame_statistic.last_bit_ctr_n
.LBB30_20:                              # %if.end55
	movq	-32(%rbp), %rdi
	movl	-40(%rbp), %edx
	movabsq	$.L.str.22, %rsi
	movb	$0, %al
	callq	fprintf
	movq	-32(%rbp), %rdi
	movq	snr, %rax
	vmovss	(%rax), %xmm0           # xmm0 = mem[0],zero,zero,zero
	vcvtss2sd	%xmm0, %xmm0, %xmm0
	movq	snr, %rax
	vmovss	4(%rax), %xmm1          # xmm1 = mem[0],zero,zero,zero
	vcvtss2sd	%xmm1, %xmm0, %xmm1
	movq	snr, %rax
	vmovss	8(%rax), %xmm2          # xmm2 = mem[0],zero,zero,zero
	vcvtss2sd	%xmm2, %xmm0, %xmm2
	movabsq	$.L.str.23, %rsi
	movb	$3, %al
	callq	fprintf
	movq	-32(%rbp), %rdi
	movq	stats, %rax
	movl	884(%rax), %edx
	subl	report_frame_statistic.last_mode_use+156, %edx
	movabsq	$.L.str.24, %rsi
	movb	$0, %al
	callq	fprintf
	movq	-32(%rbp), %rdi
	movq	stats, %rax
	movl	900(%rax), %edx
	subl	report_frame_statistic.last_mode_use+172, %edx
	movabsq	$.L.str.24, %rsi
	movb	$0, %al
	callq	fprintf
	movq	-32(%rbp), %rdi
	movq	stats, %rax
	movl	888(%rax), %edx
	subl	report_frame_statistic.last_mode_use+160, %edx
	movabsq	$.L.str.24, %rsi
	movb	$0, %al
	callq	fprintf
	movq	-32(%rbp), %rdi
	movq	stats, %rax
	movl	672(%rax), %edx
	subl	report_frame_statistic.last_mode_chroma_use, %edx
	movabsq	$.L.str.24, %rsi
	movb	$0, %al
	callq	fprintf
	movq	-32(%rbp), %rdi
	movq	stats, %rax
	movl	676(%rax), %edx
	subl	report_frame_statistic.last_mode_chroma_use+4, %edx
	movabsq	$.L.str.24, %rsi
	movb	$0, %al
	callq	fprintf
	movq	-32(%rbp), %rdi
	movq	stats, %rax
	movl	680(%rax), %edx
	subl	report_frame_statistic.last_mode_chroma_use+8, %edx
	movabsq	$.L.str.24, %rsi
	movb	$0, %al
	callq	fprintf
	movq	-32(%rbp), %rdi
	movq	stats, %rax
	movl	684(%rax), %edx
	subl	report_frame_statistic.last_mode_chroma_use+12, %edx
	movabsq	$.L.str.24, %rsi
	movb	$0, %al
	callq	fprintf
	movq	-32(%rbp), %rdi
	movq	stats, %rax
	movl	764(%rax), %edx
	subl	report_frame_statistic.last_mode_use+36, %edx
	movabsq	$.L.str.24, %rsi
	movb	$0, %al
	callq	fprintf
	movq	-32(%rbp), %rdi
	movq	stats, %rax
	movl	780(%rax), %edx
	subl	report_frame_statistic.last_mode_use+52, %edx
	movabsq	$.L.str.24, %rsi
	movb	$0, %al
	callq	fprintf
	movq	-32(%rbp), %rdi
	movq	stats, %rax
	movl	768(%rax), %edx
	subl	report_frame_statistic.last_mode_use+40, %edx
	movabsq	$.L.str.24, %rsi
	movb	$0, %al
	callq	fprintf
	movq	-32(%rbp), %rdi
	movq	stats, %rax
	movl	728(%rax), %edx
	subl	report_frame_statistic.last_mode_use, %edx
	movabsq	$.L.str.24, %rsi
	movb	$0, %al
	callq	fprintf
	movq	-32(%rbp), %rdi
	movq	stats, %rax
	movl	732(%rax), %edx
	subl	report_frame_statistic.last_mode_use+4, %edx
	movabsq	$.L.str.24, %rsi
	movb	$0, %al
	callq	fprintf
	movq	-32(%rbp), %rdi
	movq	stats, %rax
	movl	736(%rax), %edx
	subl	report_frame_statistic.last_mode_use+8, %edx
	movabsq	$.L.str.24, %rsi
	movb	$0, %al
	callq	fprintf
	movq	-32(%rbp), %rdi
	movq	stats, %rax
	movl	740(%rax), %edx
	subl	report_frame_statistic.last_mode_use+12, %edx
	movabsq	$.L.str.24, %rsi
	movb	$0, %al
	callq	fprintf
	movq	-32(%rbp), %rdi
	movq	stats, %rax
	movl	76(%rax), %edx
	movabsq	$.L.str.24, %rsi
	movb	$0, %al
	callq	fprintf
	movq	-32(%rbp), %rdi
	movq	stats, %rax
	movl	376(%rax), %edx
	movabsq	$.L.str.24, %rsi
	movb	$0, %al
	callq	fprintf
	movq	-32(%rbp), %rdi
	movq	stats, %rax
	movl	80(%rax), %edx
	movabsq	$.L.str.24, %rsi
	movb	$0, %al
	callq	fprintf
	movq	-32(%rbp), %rdi
	movq	stats, %rax
	movl	380(%rax), %edx
	movabsq	$.L.str.24, %rsi
	movb	$0, %al
	callq	fprintf
	movq	-32(%rbp), %rdi
	movq	stats, %rax
	movl	84(%rax), %edx
	movabsq	$.L.str.24, %rsi
	movb	$0, %al
	callq	fprintf
	movq	-32(%rbp), %rdi
	movq	stats, %rax
	movl	384(%rax), %edx
	movabsq	$.L.str.24, %rsi
	movb	$0, %al
	callq	fprintf
	movq	-32(%rbp), %rdi
	movq	stats, %rax
	movl	760(%rax), %edx
	subl	report_frame_statistic.last_mode_use+32, %edx
	movabsq	$.L.str.24, %rsi
	movb	$0, %al
	callq	fprintf
	movq	-32(%rbp), %rdi
	movq	stats, %rax
	movl	744(%rax), %edx
	subl	report_frame_statistic.last_mode_use+16, %edx
	movabsq	$.L.str.24, %rsi
	movb	$0, %al
	callq	fprintf
	movq	-32(%rbp), %rdi
	movq	stats, %rax
	movl	88(%rax), %edx
	movabsq	$.L.str.24, %rsi
	movb	$0, %al
	callq	fprintf
	movq	-32(%rbp), %rdi
	movq	stats, %rax
	movl	388(%rax), %edx
	movabsq	$.L.str.24, %rsi
	movb	$0, %al
	callq	fprintf
	movq	-32(%rbp), %rdi
	movq	stats, %rax
	movl	748(%rax), %edx
	subl	report_frame_statistic.last_mode_use+20, %edx
	movabsq	$.L.str.24, %rsi
	movb	$0, %al
	callq	fprintf
	movq	-32(%rbp), %rdi
	movq	stats, %rax
	movl	752(%rax), %edx
	subl	report_frame_statistic.last_mode_use+24, %edx
	movabsq	$.L.str.24, %rsi
	movb	$0, %al
	callq	fprintf
	movq	-32(%rbp), %rdi
	movq	stats, %rax
	movl	756(%rax), %edx
	subl	report_frame_statistic.last_mode_use+28, %edx
	movabsq	$.L.str.24, %rsi
	movb	$0, %al
	callq	fprintf
	movq	-32(%rbp), %rdi
	movq	stats, %rax
	movl	824(%rax), %edx
	subl	report_frame_statistic.last_mode_use+96, %edx
	movabsq	$.L.str.24, %rsi
	movb	$0, %al
	callq	fprintf
	movq	-32(%rbp), %rdi
	movq	stats, %rax
	movl	840(%rax), %edx
	subl	report_frame_statistic.last_mode_use+112, %edx
	movabsq	$.L.str.24, %rsi
	movb	$0, %al
	callq	fprintf
	movq	-32(%rbp), %rdi
	movq	stats, %rax
	movl	828(%rax), %edx
	subl	report_frame_statistic.last_mode_use+100, %edx
	movabsq	$.L.str.24, %rsi
	movb	$0, %al
	callq	fprintf
	movq	-32(%rbp), %rdi
	movq	stats, %rax
	movl	788(%rax), %edx
	subl	report_frame_statistic.last_mode_use+60, %edx
	movabsq	$.L.str.24, %rsi
	movb	$0, %al
	callq	fprintf
	movq	-32(%rbp), %rdi
	movq	stats, %rax
	movl	792(%rax), %edx
	subl	report_frame_statistic.last_mode_use+64, %edx
	movabsq	$.L.str.24, %rsi
	movb	$0, %al
	callq	fprintf
	movq	-32(%rbp), %rdi
	movq	stats, %rax
	movl	796(%rax), %edx
	subl	report_frame_statistic.last_mode_use+68, %edx
	movabsq	$.L.str.24, %rsi
	movb	$0, %al
	callq	fprintf
	movq	-32(%rbp), %rdi
	movq	stats, %rax
	movl	800(%rax), %edx
	subl	report_frame_statistic.last_mode_use+72, %edx
	movabsq	$.L.str.24, %rsi
	movb	$0, %al
	callq	fprintf
	movq	-32(%rbp), %rdi
	movq	stats, %rax
	movl	132(%rax), %edx
	movabsq	$.L.str.24, %rsi
	movb	$0, %al
	callq	fprintf
	movq	-32(%rbp), %rdi
	movq	stats, %rax
	movl	432(%rax), %edx
	movabsq	$.L.str.24, %rsi
	movb	$0, %al
	callq	fprintf
	movq	-32(%rbp), %rdi
	movq	stats, %rax
	movl	136(%rax), %edx
	movabsq	$.L.str.24, %rsi
	movb	$0, %al
	callq	fprintf
	movq	-32(%rbp), %rdi
	movq	stats, %rax
	movl	436(%rax), %edx
	movabsq	$.L.str.24, %rsi
	movb	$0, %al
	callq	fprintf
	movq	-32(%rbp), %rdi
	movq	stats, %rax
	movl	140(%rax), %edx
	movabsq	$.L.str.24, %rsi
	movb	$0, %al
	callq	fprintf
	movq	-32(%rbp), %rdi
	movq	stats, %rax
	movl	440(%rax), %edx
	movabsq	$.L.str.24, %rsi
	movb	$0, %al
	callq	fprintf
	movq	-32(%rbp), %rdi
	movq	stats, %rax
	movl	144(%rax), %edx
	movabsq	$.L.str.24, %rsi
	movb	$0, %al
	callq	fprintf
	movq	-32(%rbp), %rdi
	movq	stats, %rax
	movl	444(%rax), %edx
	movabsq	$.L.str.24, %rsi
	movb	$0, %al
	callq	fprintf
	movq	-32(%rbp), %rdi
	movq	stats, %rax
	movl	820(%rax), %edx
	subl	report_frame_statistic.last_mode_use+92, %edx
	movabsq	$.L.str.24, %rsi
	movb	$0, %al
	callq	fprintf
	movq	-32(%rbp), %rdi
	movq	stats, %rax
	movl	40(%rax), %edx
	movq	stats, %rax
	addl	44(%rax), %edx
	movl	report_frame_statistic.last_b8_mode_0+8, %eax
	addl	report_frame_statistic.last_b8_mode_0+12, %eax
	subl	%eax, %edx
	movabsq	$.L.str.24, %rsi
	movb	$0, %al
	callq	fprintf
	movq	-32(%rbp), %rdi
	movq	stats, %rax
	movl	44(%rax), %edx
	subl	report_frame_statistic.last_b8_mode_0+12, %edx
	movabsq	$.L.str.24, %rsi
	movb	$0, %al
	callq	fprintf
	movq	-32(%rbp), %rdi
	movq	stats, %rax
	movl	40(%rax), %edx
	subl	report_frame_statistic.last_b8_mode_0+8, %edx
	movabsq	$.L.str.24, %rsi
	movb	$0, %al
	callq	fprintf
	movq	-32(%rbp), %rdi
	movq	stats, %rax
	movl	804(%rax), %edx
	subl	report_frame_statistic.last_mode_use+76, %edx
	movabsq	$.L.str.24, %rsi
	movb	$0, %al
	callq	fprintf
	movq	-32(%rbp), %rdi
	movq	stats, %rax
	movl	148(%rax), %edx
	movabsq	$.L.str.24, %rsi
	movb	$0, %al
	callq	fprintf
	movq	-32(%rbp), %rdi
	movq	stats, %rax
	movl	448(%rax), %edx
	movabsq	$.L.str.24, %rsi
	movb	$0, %al
	callq	fprintf
	movq	-32(%rbp), %rdi
	movq	stats, %rax
	movl	808(%rax), %edx
	subl	report_frame_statistic.last_mode_use+80, %edx
	movabsq	$.L.str.24, %rsi
	movb	$0, %al
	callq	fprintf
	movq	-32(%rbp), %rdi
	movq	stats, %rax
	movl	812(%rax), %edx
	subl	report_frame_statistic.last_mode_use+84, %edx
	movabsq	$.L.str.24, %rsi
	movb	$0, %al
	callq	fprintf
	movq	-32(%rbp), %rdi
	movq	stats, %rax
	movl	816(%rax), %edx
	subl	report_frame_statistic.last_mode_use+88, %edx
	movabsq	$.L.str.24, %rsi
	movb	$0, %al
	callq	fprintf
	movq	-32(%rbp), %rdi
	movabsq	$.L.str.25, %rsi
	movb	$0, %al
	callq	fprintf
	movq	stats, %rax
	movl	884(%rax), %eax
	movl	%eax, report_frame_statistic.last_mode_use+156
	movq	stats, %rax
	movl	900(%rax), %eax
	movl	%eax, report_frame_statistic.last_mode_use+172
	movq	stats, %rax
	movl	888(%rax), %eax
	movl	%eax, report_frame_statistic.last_mode_use+160
	movl	$0, -36(%rbp)
.LBB30_21:                              # %for.cond309
                                        # =>This Inner Loop Header: Depth=1
	cmpl	$15, -36(%rbp)
	jge	.LBB30_24
# %bb.22:                               # %for.body312
                                        #   in Loop: Header=BB30_21 Depth=1
	movq	stats, %rax
	movslq	-36(%rbp), %rcx
	movl	728(%rax,%rcx,4), %eax
	movslq	-36(%rbp), %rcx
	movl	%eax, report_frame_statistic.last_mode_use(,%rcx,4)
	movq	stats, %rax
	movslq	-36(%rbp), %rcx
	movl	788(%rax,%rcx,4), %eax
	movslq	-36(%rbp), %rcx
	movl	%eax, report_frame_statistic.last_mode_use+60(,%rcx,4)
	movq	stats, %rax
	movslq	-36(%rbp), %rcx
	movl	$0, 72(%rax,%rcx,4)
	movq	stats, %rax
	movslq	-36(%rbp), %rcx
	movl	$0, 132(%rax,%rcx,4)
	movq	stats, %rax
	movslq	-36(%rbp), %rcx
	movl	$0, 372(%rax,%rcx,4)
	movq	stats, %rax
	movslq	-36(%rbp), %rcx
	movl	$0, 432(%rax,%rcx,4)
# %bb.23:                               # %for.inc341
                                        #   in Loop: Header=BB30_21 Depth=1
	movl	-36(%rbp), %eax
	addl	$1, %eax
	movl	%eax, -36(%rbp)
	jmp	.LBB30_21
.LBB30_24:                              # %for.end343
	movq	stats, %rax
	movl	40(%rax), %eax
	movl	%eax, report_frame_statistic.last_b8_mode_0+8
	movq	stats, %rax
	movl	44(%rax), %eax
	movl	%eax, report_frame_statistic.last_b8_mode_0+12
	movl	$0, -36(%rbp)
.LBB30_25:                              # %for.cond350
                                        # =>This Inner Loop Header: Depth=1
	cmpl	$4, -36(%rbp)
	jge	.LBB30_28
# %bb.26:                               # %for.body353
                                        #   in Loop: Header=BB30_25 Depth=1
	movq	stats, %rax
	movslq	-36(%rbp), %rcx
	movl	672(%rax,%rcx,4), %eax
	movslq	-36(%rbp), %rcx
	movl	%eax, report_frame_statistic.last_mode_chroma_use(,%rcx,4)
# %bb.27:                               # %for.inc359
                                        #   in Loop: Header=BB30_25 Depth=1
	movl	-36(%rbp), %eax
	addl	$1, %eax
	movl	%eax, -36(%rbp)
	jmp	.LBB30_25
.LBB30_28:                              # %for.end361
	movl	$0, frame_statistic_start
	movq	-32(%rbp), %rdi
	callq	fclose
	cmpl	$157478008, -44(%rbp)   # imm = 0x962EC78
	jne	.LBB30_30
.LBB30_29:
	addq	$1080, %rsp             # imm = 0x438
	popq	%rbx
	popq	%r14
	popq	%r15
	popq	%rbp
	.cfi_def_cfa %rsp, 8
	retq
.LBB30_30:                              # %func_exit
	.cfi_def_cfa %rbp, 16
	callq	detect_breach
	jmp	.LBB30_29
.Lfunc_end30:
	.size	report_frame_statistic.6, .Lfunc_end30-report_frame_statistic.6
	.cfi_endproc
                                        # -- End function
	.globl	free_global_buffers.7   # -- Begin function free_global_buffers.7
	.p2align	4, 0x90
	.type	free_global_buffers.7,@function
free_global_buffers.7:                  # @free_global_buffers.7
	.cfi_startproc
# %bb.0:                                # %entry
	pushq	%rbp
	.cfi_def_cfa_offset 16
	.cfi_offset %rbp, -16
	movq	%rsp, %rbp
	.cfi_def_cfa_register %rbp
	subq	$16, %rsp
	movl	$2079732659, -12(%rbp)  # imm = 0x7BF633B3
	movq	last_P_no_frm, %rdi
	callq	free
	movq	last_P_no_fld, %rdi
	callq	free
	callq	free_orig_planes
	movq	input, %rax
	cmpl	$0, 1284(%rax)
	jne	.LBB31_3
# %bb.1:                                # %lor.lhs.false
	movq	input, %rax
	cmpl	$0, 1288(%rax)
	jne	.LBB31_3
# %bb.2:                                # %lor.lhs.false2
	movq	input, %rax
	cmpl	$0, 60(%rax)
	je	.LBB31_4
.LBB31_3:                               # %if.then
	movq	wp_weight, %rdi
	movl	$6, %esi
	callq	free_mem3Dint
	movq	wp_offset, %rdi
	movl	$6, %esi
	callq	free_mem3Dint
	movq	wbp_weight, %rdi
	movl	$6, %esi
	movl	$15, %edx
	callq	free_mem4Dint
.LBB31_4:                               # %if.end
	movq	input, %rax
	cmpl	$0, 1236(%rax)
	jne	.LBB31_6
# %bb.5:                                # %lor.lhs.false4
	movq	input, %rax
	cmpl	$0, 1316(%rax)
	jle	.LBB31_7
.LBB31_6:                               # %if.then6
	movq	direct_ref_idx, %rdi
	movl	$2, %esi
	callq	free_mem3Dshort
	movq	direct_pdir, %rdi
	callq	free_mem2Dshort
.LBB31_7:                               # %if.end7
	movq	img4Y_tmp, %rdi
	callq	free_mem2Dint
	movq	img, %rax
	movq	104(%rax), %rdi
	callq	free_mem2Dint
	movq	img, %rax
	movq	112(%rax), %rdi
	callq	free_mem2Dint
	movq	img, %rax
	movq	14168(%rax), %rdi
	callq	free
	movq	rddata_top_frame_mb+3136, %rdi
	callq	free_mem2Dint
	movq	input, %rax
	cmpl	$0, 216(%rax)
	je	.LBB31_9
# %bb.8:                                # %if.then9
	movq	img, %rax
	movq	71784(%rax), %rdi
	callq	free
.LBB31_9:                               # %if.end10
	movq	input, %rax
	cmpl	$2, 2464(%rax)
	jne	.LBB31_19
# %bb.10:                               # %if.then12
	movq	decs, %rax
	movq	(%rax), %rax
	movq	(%rax), %rdi
	callq	free
	movq	decs, %rax
	movq	(%rax), %rdi
	callq	free
	movq	decs, %rax
	movq	32(%rax), %rax
	movq	(%rax), %rdi
	callq	free
	movq	decs, %rax
	movq	32(%rax), %rdi
	callq	free
	movl	$0, -4(%rbp)
.LBB31_11:                              # %for.cond
                                        # =>This Loop Header: Depth=1
                                        #     Child Loop BB31_13 Depth 2
	movl	-4(%rbp), %eax
	movq	input, %rcx
	cmpl	2904(%rcx), %eax
	jge	.LBB31_18
# %bb.12:                               # %for.body
                                        #   in Loop: Header=BB31_11 Depth=1
	movq	decs, %rax
	movq	8(%rax), %rax
	movslq	-4(%rbp), %rcx
	movq	(%rax,%rcx,8), %rax
	movq	(%rax), %rdi
	callq	free
	movq	decs, %rax
	movq	8(%rax), %rax
	movslq	-4(%rbp), %rcx
	movq	(%rax,%rcx,8), %rdi
	callq	free
	movq	decs, %rax
	movq	24(%rax), %rax
	movslq	-4(%rbp), %rcx
	movq	(%rax,%rcx,8), %rax
	movq	(%rax), %rdi
	callq	free
	movq	decs, %rax
	movq	24(%rax), %rax
	movslq	-4(%rbp), %rcx
	movq	(%rax,%rcx,8), %rdi
	callq	free
	movl	$0, -8(%rbp)
.LBB31_13:                              # %for.cond28
                                        #   Parent Loop BB31_11 Depth=1
                                        # =>  This Inner Loop Header: Depth=2
	movl	-8(%rbp), %eax
	movq	img, %rcx
	movl	36(%rcx), %ecx
	addl	$1, %ecx
	cmpl	%ecx, %eax
	jge	.LBB31_16
# %bb.14:                               # %for.body30
                                        #   in Loop: Header=BB31_13 Depth=2
	movq	decs, %rax
	movq	16(%rax), %rax
	movslq	-4(%rbp), %rcx
	movq	(%rax,%rcx,8), %rax
	movslq	-8(%rbp), %rcx
	movq	(%rax,%rcx,8), %rax
	movq	(%rax), %rdi
	callq	free
	movq	decs, %rax
	movq	16(%rax), %rax
	movslq	-4(%rbp), %rcx
	movq	(%rax,%rcx,8), %rax
	movslq	-8(%rbp), %rcx
	movq	(%rax,%rcx,8), %rdi
	callq	free
# %bb.15:                               # %for.inc
                                        #   in Loop: Header=BB31_13 Depth=2
	movl	-8(%rbp), %eax
	addl	$1, %eax
	movl	%eax, -8(%rbp)
	jmp	.LBB31_13
.LBB31_16:                              # %for.end
                                        #   in Loop: Header=BB31_11 Depth=1
	movq	decs, %rax
	movq	16(%rax), %rax
	movslq	-4(%rbp), %rcx
	movq	(%rax,%rcx,8), %rdi
	callq	free
# %bb.17:                               # %for.inc44
                                        #   in Loop: Header=BB31_11 Depth=1
	movl	-4(%rbp), %eax
	addl	$1, %eax
	movl	%eax, -4(%rbp)
	jmp	.LBB31_11
.LBB31_18:                              # %for.end46
	movq	decs, %rax
	movq	8(%rax), %rdi
	callq	free
	movq	decs, %rax
	movq	24(%rax), %rdi
	callq	free
	movq	decs, %rax
	movq	16(%rax), %rdi
	callq	free
	movq	decs, %rax
	movq	40(%rax), %rax
	movq	(%rax), %rdi
	callq	free
	movq	decs, %rax
	movq	40(%rax), %rdi
	callq	free
	movq	decs, %rax
	movq	48(%rax), %rax
	movq	(%rax), %rdi
	callq	free
	movq	decs, %rax
	movq	48(%rax), %rdi
	callq	free
.LBB31_19:                              # %if.end54
	movq	input, %rax
	cmpl	$0, 2908(%rax)
	je	.LBB31_21
# %bb.20:                               # %if.then56
	movq	pixel_map, %rax
	movq	(%rax), %rdi
	callq	free
	movq	pixel_map, %rdi
	callq	free
	movq	refresh_map, %rax
	movq	(%rax), %rdi
	callq	free
	movq	refresh_map, %rdi
	callq	free
.LBB31_21:                              # %if.end59
	movq	active_sps, %rax
	cmpl	$0, 1148(%rax)
	jne	.LBB31_25
# %bb.22:                               # %if.then61
	movq	imgY_com, %rdi
	callq	free_mem2Dpel
	movq	img, %rax
	cmpl	$0, 72700(%rax)
	je	.LBB31_24
# %bb.23:                               # %if.then63
	movq	imgUV_com, %rdi
	movl	$2, %esi
	callq	free_mem3Dpel
.LBB31_24:                              # %if.end64
	jmp	.LBB31_25
.LBB31_25:                              # %if.end65
	movq	img, %rax
	movq	128(%rax), %rdi
	movq	img, %rax
	movl	72488(%rax), %esi
	callq	free_mem3Dint
	movq	input, %rax
	cmpl	$0, 3292(%rax)
	je	.LBB31_27
# %bb.26:                               # %if.then67
	movb	$0, %al
	callq	free_mem_FME
.LBB31_27:                              # %if.end68
	movq	input, %rax
	cmpl	$0, 3236(%rax)
	je	.LBB31_29
# %bb.28:                               # %if.then70
	movb	$0, %al
	callq	rc_free
.LBB31_29:                              # %if.end71
	cmpl	$2079732659, -12(%rbp)  # imm = 0x7BF633B3
	jne	.LBB31_31
.LBB31_30:
	addq	$16, %rsp
	popq	%rbp
	.cfi_def_cfa %rsp, 8
	retq
.LBB31_31:                              # %func_exit
	.cfi_def_cfa %rbp, 16
	callq	detect_breach
	jmp	.LBB31_30
.Lfunc_end31:
	.size	free_global_buffers.7, .Lfunc_end31-free_global_buffers.7
	.cfi_endproc
                                        # -- End function
	.globl	CAVLC_init.8            # -- Begin function CAVLC_init.8
	.p2align	4, 0x90
	.type	CAVLC_init.8,@function
CAVLC_init.8:                           # @CAVLC_init.8
	.cfi_startproc
# %bb.0:                                # %entry
	pushq	%rbp
	.cfi_def_cfa_offset 16
	.cfi_offset %rbp, -16
	movq	%rsp, %rbp
	.cfi_def_cfa_register %rbp
	subq	$16, %rsp
	movl	$840655782, -16(%rbp)   # imm = 0x321B63A6
	movl	$0, -4(%rbp)
.LBB32_1:                               # %for.cond
                                        # =>This Loop Header: Depth=1
                                        #     Child Loop BB32_3 Depth 2
                                        #       Child Loop BB32_5 Depth 3
	movl	-4(%rbp), %eax
	movq	img, %rcx
	cmpl	72484(%rcx), %eax
	jae	.LBB32_12
# %bb.2:                                # %for.body
                                        #   in Loop: Header=BB32_1 Depth=1
	movl	$0, -12(%rbp)
.LBB32_3:                               # %for.cond1
                                        #   Parent Loop BB32_1 Depth=1
                                        # =>  This Loop Header: Depth=2
                                        #       Child Loop BB32_5 Depth 3
	cmpl	$4, -12(%rbp)
	jae	.LBB32_10
# %bb.4:                                # %for.body3
                                        #   in Loop: Header=BB32_3 Depth=2
	movl	$0, -8(%rbp)
.LBB32_5:                               # %for.cond4
                                        #   Parent Loop BB32_1 Depth=1
                                        #     Parent Loop BB32_3 Depth=2
                                        # =>    This Inner Loop Header: Depth=3
	movl	-8(%rbp), %eax
	movq	img, %rcx
	movl	72692(%rcx), %ecx
	addl	$4, %ecx
	cmpl	%ecx, %eax
	jae	.LBB32_8
# %bb.6:                                # %for.body6
                                        #   in Loop: Header=BB32_5 Depth=3
	movq	img, %rax
	movq	128(%rax), %rax
	movl	-4(%rbp), %ecx
	movq	(%rax,%rcx,8), %rax
	movl	-12(%rbp), %ecx
	movq	(%rax,%rcx,8), %rax
	movl	-8(%rbp), %ecx
	movl	$0, (%rax,%rcx,4)
# %bb.7:                                # %for.inc
                                        #   in Loop: Header=BB32_5 Depth=3
	movl	-8(%rbp), %eax
	addl	$1, %eax
	movl	%eax, -8(%rbp)
	jmp	.LBB32_5
.LBB32_8:                               # %for.end
                                        #   in Loop: Header=BB32_3 Depth=2
	jmp	.LBB32_9
.LBB32_9:                               # %for.inc11
                                        #   in Loop: Header=BB32_3 Depth=2
	movl	-12(%rbp), %eax
	addl	$1, %eax
	movl	%eax, -12(%rbp)
	jmp	.LBB32_3
.LBB32_10:                              # %for.end13
                                        #   in Loop: Header=BB32_1 Depth=1
	jmp	.LBB32_11
.LBB32_11:                              # %for.inc14
                                        #   in Loop: Header=BB32_1 Depth=1
	movl	-4(%rbp), %eax
	addl	$1, %eax
	movl	%eax, -4(%rbp)
	jmp	.LBB32_1
.LBB32_12:                              # %for.end16
	cmpl	$840655782, -16(%rbp)   # imm = 0x321B63A6
	jne	.LBB32_14
.LBB32_13:
	addq	$16, %rsp
	popq	%rbp
	.cfi_def_cfa %rsp, 8
	retq
.LBB32_14:                              # %func_exit
	.cfi_def_cfa %rbp, 16
	callq	detect_breach
	jmp	.LBB32_13
.Lfunc_end32:
	.size	CAVLC_init.8, .Lfunc_end32-CAVLC_init.8
	.cfi_endproc
                                        # -- End function
	.globl	free_mem_mv.9           # -- Begin function free_mem_mv.9
	.p2align	4, 0x90
	.type	free_mem_mv.9,@function
free_mem_mv.9:                          # @free_mem_mv.9
	.cfi_startproc
# %bb.0:                                # %entry
	pushq	%rbp
	.cfi_def_cfa_offset 16
	.cfi_offset %rbp, -16
	movq	%rsp, %rbp
	.cfi_def_cfa_register %rbp
	subq	$48, %rsp
	movl	$507289999, -36(%rbp)   # imm = 0x1E3CA18F
	movq	%rdi, -32(%rbp)
	movl	$0, -4(%rbp)
.LBB33_1:                               # %for.cond
                                        # =>This Loop Header: Depth=1
                                        #     Child Loop BB33_3 Depth 2
                                        #       Child Loop BB33_5 Depth 3
                                        #         Child Loop BB33_7 Depth 4
                                        #           Child Loop BB33_9 Depth 5
	cmpl	$4, -4(%rbp)
	jge	.LBB33_20
# %bb.2:                                # %for.body
                                        #   in Loop: Header=BB33_1 Depth=1
	movl	$0, -8(%rbp)
.LBB33_3:                               # %for.cond1
                                        #   Parent Loop BB33_1 Depth=1
                                        # =>  This Loop Header: Depth=2
                                        #       Child Loop BB33_5 Depth 3
                                        #         Child Loop BB33_7 Depth 4
                                        #           Child Loop BB33_9 Depth 5
	cmpl	$4, -8(%rbp)
	jge	.LBB33_18
# %bb.4:                                # %for.body3
                                        #   in Loop: Header=BB33_3 Depth=2
	movl	$0, -12(%rbp)
.LBB33_5:                               # %for.cond4
                                        #   Parent Loop BB33_1 Depth=1
                                        #     Parent Loop BB33_3 Depth=2
                                        # =>    This Loop Header: Depth=3
                                        #         Child Loop BB33_7 Depth 4
                                        #           Child Loop BB33_9 Depth 5
	cmpl	$2, -12(%rbp)
	jge	.LBB33_16
# %bb.6:                                # %for.body6
                                        #   in Loop: Header=BB33_5 Depth=3
	movl	$0, -16(%rbp)
.LBB33_7:                               # %for.cond7
                                        #   Parent Loop BB33_1 Depth=1
                                        #     Parent Loop BB33_3 Depth=2
                                        #       Parent Loop BB33_5 Depth=3
                                        # =>      This Loop Header: Depth=4
                                        #           Child Loop BB33_9 Depth 5
	movl	-16(%rbp), %eax
	movq	img, %rcx
	cmpl	36(%rcx), %eax
	jge	.LBB33_14
# %bb.8:                                # %for.body9
                                        #   in Loop: Header=BB33_7 Depth=4
	movl	$0, -20(%rbp)
.LBB33_9:                               # %for.cond10
                                        #   Parent Loop BB33_1 Depth=1
                                        #     Parent Loop BB33_3 Depth=2
                                        #       Parent Loop BB33_5 Depth=3
                                        #         Parent Loop BB33_7 Depth=4
                                        # =>        This Inner Loop Header: Depth=5
	cmpl	$9, -20(%rbp)
	jge	.LBB33_12
# %bb.10:                               # %for.body12
                                        #   in Loop: Header=BB33_9 Depth=5
	movq	-32(%rbp), %rax
	movslq	-4(%rbp), %rcx
	movq	(%rax,%rcx,8), %rax
	movslq	-8(%rbp), %rcx
	movq	(%rax,%rcx,8), %rax
	movslq	-12(%rbp), %rcx
	movq	(%rax,%rcx,8), %rax
	movslq	-16(%rbp), %rcx
	movq	(%rax,%rcx,8), %rax
	movslq	-20(%rbp), %rcx
	movq	(%rax,%rcx,8), %rdi
	callq	free
# %bb.11:                               # %for.inc
                                        #   in Loop: Header=BB33_9 Depth=5
	movl	-20(%rbp), %eax
	addl	$1, %eax
	movl	%eax, -20(%rbp)
	jmp	.LBB33_9
.LBB33_12:                              # %for.end
                                        #   in Loop: Header=BB33_7 Depth=4
	movq	-32(%rbp), %rax
	movslq	-4(%rbp), %rcx
	movq	(%rax,%rcx,8), %rax
	movslq	-8(%rbp), %rcx
	movq	(%rax,%rcx,8), %rax
	movslq	-12(%rbp), %rcx
	movq	(%rax,%rcx,8), %rax
	movslq	-16(%rbp), %rcx
	movq	(%rax,%rcx,8), %rdi
	callq	free
# %bb.13:                               # %for.inc29
                                        #   in Loop: Header=BB33_7 Depth=4
	movl	-16(%rbp), %eax
	addl	$1, %eax
	movl	%eax, -16(%rbp)
	jmp	.LBB33_7
.LBB33_14:                              # %for.end31
                                        #   in Loop: Header=BB33_5 Depth=3
	movq	-32(%rbp), %rax
	movslq	-4(%rbp), %rcx
	movq	(%rax,%rcx,8), %rax
	movslq	-8(%rbp), %rcx
	movq	(%rax,%rcx,8), %rax
	movslq	-12(%rbp), %rcx
	movq	(%rax,%rcx,8), %rdi
	callq	free
# %bb.15:                               # %for.inc38
                                        #   in Loop: Header=BB33_5 Depth=3
	movl	-12(%rbp), %eax
	addl	$1, %eax
	movl	%eax, -12(%rbp)
	jmp	.LBB33_5
.LBB33_16:                              # %for.end40
                                        #   in Loop: Header=BB33_3 Depth=2
	movq	-32(%rbp), %rax
	movslq	-4(%rbp), %rcx
	movq	(%rax,%rcx,8), %rax
	movslq	-8(%rbp), %rcx
	movq	(%rax,%rcx,8), %rdi
	callq	free
# %bb.17:                               # %for.inc45
                                        #   in Loop: Header=BB33_3 Depth=2
	movl	-8(%rbp), %eax
	addl	$1, %eax
	movl	%eax, -8(%rbp)
	jmp	.LBB33_3
.LBB33_18:                              # %for.end47
                                        #   in Loop: Header=BB33_1 Depth=1
	movq	-32(%rbp), %rax
	movslq	-4(%rbp), %rcx
	movq	(%rax,%rcx,8), %rdi
	callq	free
# %bb.19:                               # %for.inc50
                                        #   in Loop: Header=BB33_1 Depth=1
	movl	-4(%rbp), %eax
	addl	$1, %eax
	movl	%eax, -4(%rbp)
	jmp	.LBB33_1
.LBB33_20:                              # %for.end52
	movq	-32(%rbp), %rdi
	callq	free
	cmpl	$507289999, -36(%rbp)   # imm = 0x1E3CA18F
	jne	.LBB33_22
.LBB33_21:
	addq	$48, %rsp
	popq	%rbp
	.cfi_def_cfa %rsp, 8
	retq
.LBB33_22:                              # %func_exit
	.cfi_def_cfa %rbp, 16
	callq	detect_breach
	jmp	.LBB33_21
.Lfunc_end33:
	.size	free_mem_mv.9, .Lfunc_end33-free_mem_mv.9
	.cfi_endproc
                                        # -- End function
	.section	.rodata.cst8,"aM",@progbits,8
	.p2align	3               # -- Begin function report.10
.LCPI34_0:
	.quad	4562254508917369340     # double 0.001
.LCPI34_2:
	.quad	4607182418800017408     # double 1
	.section	.rodata.cst4,"aM",@progbits,4
	.p2align	2
.LCPI34_1:
	.long	1148846080              # float 1000
	.text
	.globl	report.10
	.p2align	4, 0x90
	.type	report.10,@function
report.10:                              # @report.10
	.cfi_startproc
# %bb.0:                                # %entry
	pushq	%rbp
	.cfi_def_cfa_offset 16
	.cfi_offset %rbp, -16
	movq	%rsp, %rbp
	.cfi_def_cfa_register %rbp
	pushq	%r15
	pushq	%r14
	pushq	%rbx
	subq	$1272, %rsp             # imm = 0x4F8
	.cfi_offset %rbx, -40
	.cfi_offset %r14, -32
	.cfi_offset %r15, -24
	movl	$313313593, -100(%rbp)  # imm = 0x12ACC939
	movl	Iframe_ctr, %eax
	movl	%eax, -64(%rbp)
	cmpl	$1, Pframe_ctr
	jle	.LBB34_2
# %bb.1:                                # %cond.true
	movl	Pframe_ctr, %eax
	jmp	.LBB34_3
.LBB34_2:                               # %cond.false
	movl	$1, %eax
	jmp	.LBB34_3
.LBB34_3:                               # %cond.end
	movl	%eax, -80(%rbp)
	movl	Bframe_ctr, %eax
	movl	%eax, -72(%rbp)
	movl	$0, -28(%rbp)
.LBB34_4:                               # %for.cond
                                        # =>This Inner Loop Header: Depth=1
	cmpl	$5, -28(%rbp)
	jge	.LBB34_7
# %bb.5:                                # %for.body
                                        #   in Loop: Header=BB34_4 Depth=1
	movslq	-28(%rbp), %rax
	movl	$0, -76(%rbp,%rax,8)
# %bb.6:                                # %for.inc
                                        #   in Loop: Header=BB34_4 Depth=1
	movl	-28(%rbp), %eax
	addl	$1, %eax
	movl	%eax, -28(%rbp)
	jmp	.LBB34_4
.LBB34_7:                               # %for.end
	movl	$0, -28(%rbp)
.LBB34_8:                               # %for.cond9
                                        # =>This Loop Header: Depth=1
                                        #     Child Loop BB34_10 Depth 2
	cmpl	$5, -28(%rbp)
	jge	.LBB34_15
# %bb.9:                                # %for.body11
                                        #   in Loop: Header=BB34_8 Depth=1
	movl	$0, -36(%rbp)
.LBB34_10:                              # %for.cond12
                                        #   Parent Loop BB34_8 Depth=1
                                        # =>  This Inner Loop Header: Depth=2
	cmpl	$15, -36(%rbp)
	jge	.LBB34_13
# %bb.11:                               # %for.body14
                                        #   in Loop: Header=BB34_10 Depth=2
	movq	stats, %rax
	addq	$1028, %rax             # imm = 0x404
	movslq	-28(%rbp), %rcx
	imulq	$60, %rcx, %rcx
	addq	%rcx, %rax
	movslq	-36(%rbp), %rcx
	movl	(%rax,%rcx,4), %eax
	movslq	-28(%rbp), %rcx
	addl	-76(%rbp,%rcx,8), %eax
	movl	%eax, -76(%rbp,%rcx,8)
# %bb.12:                               # %for.inc22
                                        #   in Loop: Header=BB34_10 Depth=2
	movl	-36(%rbp), %eax
	addl	$1, %eax
	movl	%eax, -36(%rbp)
	jmp	.LBB34_10
.LBB34_13:                              # %for.end24
                                        #   in Loop: Header=BB34_8 Depth=1
	movq	stats, %rax
	movslq	-28(%rbp), %rcx
	movl	1368(%rax,%rcx,4), %eax
	movslq	-28(%rbp), %rcx
	addl	-76(%rbp,%rcx,8), %eax
	movl	%eax, -76(%rbp,%rcx,8)
	movq	stats, %rax
	movslq	-28(%rbp), %rcx
	movl	1348(%rax,%rcx,4), %eax
	movslq	-28(%rbp), %rcx
	addl	-76(%rbp,%rcx,8), %eax
	movl	%eax, -76(%rbp,%rcx,8)
	movq	stats, %rax
	movslq	-28(%rbp), %rcx
	movl	1388(%rax,%rcx,4), %eax
	movslq	-28(%rbp), %rcx
	addl	-76(%rbp,%rcx,8), %eax
	movl	%eax, -76(%rbp,%rcx,8)
	movq	stats, %rax
	movslq	-28(%rbp), %rcx
	movl	1408(%rax,%rcx,4), %eax
	movslq	-28(%rbp), %rcx
	addl	-76(%rbp,%rcx,8), %eax
	movl	%eax, -76(%rbp,%rcx,8)
	movq	stats, %rax
	movslq	-28(%rbp), %rcx
	movl	1428(%rax,%rcx,4), %eax
	movslq	-28(%rbp), %rcx
	addl	-76(%rbp,%rcx,8), %eax
	movl	%eax, -76(%rbp,%rcx,8)
	movq	stats, %rax
	movslq	-28(%rbp), %rcx
	movl	1448(%rax,%rcx,4), %eax
	movslq	-28(%rbp), %rcx
	addl	-76(%rbp,%rcx,8), %eax
	movl	%eax, -76(%rbp,%rcx,8)
	movq	stats, %rax
	movslq	-28(%rbp), %rcx
	movl	1328(%rax,%rcx,4), %eax
	movslq	-28(%rbp), %rcx
	addl	-76(%rbp,%rcx,8), %eax
	movl	%eax, -76(%rbp,%rcx,8)
# %bb.14:                               # %for.inc67
                                        #   in Loop: Header=BB34_8 Depth=1
	movl	-28(%rbp), %eax
	addl	$1, %eax
	movl	%eax, -28(%rbp)
	jmp	.LBB34_8
.LBB34_15:                              # %for.end69
	movq	img, %rax
	vmovss	48(%rax), %xmm0         # xmm0 = mem[0],zero,zero,zero
	movq	input, %rax
	movl	1236(%rax), %eax
	addl	$1, %eax
	vcvtsi2ss	%eax, %xmm0, %xmm1
	vmulss	%xmm1, %xmm0, %xmm0
	movq	input, %rax
	movl	20(%rax), %eax
	addl	$1, %eax
	vcvtsi2ss	%eax, %xmm0, %xmm1
	vdivss	%xmm1, %xmm0, %xmm0
	vmovss	%xmm0, -32(%rbp)
	movq	stats, %rax
	vcvtsi2ssl	704(%rax), %xmm0, %xmm0
	vmulss	-32(%rbp), %xmm0, %xmm0
	movq	input, %rax
	movl	8(%rax), %eax
	addl	Bframe_ctr, %eax
	vcvtsi2ss	%eax, %xmm0, %xmm1
	vdivss	%xmm1, %xmm0, %xmm0
	movq	stats, %rax
	vmovss	%xmm0, 716(%rax)
	movq	stats, %rax
	vcvtsi2ssl	708(%rax), %xmm0, %xmm0
	vmulss	-32(%rbp), %xmm0, %xmm0
	movq	input, %rax
	movl	8(%rax), %eax
	addl	Bframe_ctr, %eax
	vcvtsi2ss	%eax, %xmm0, %xmm1
	vdivss	%xmm1, %xmm0, %xmm0
	movq	stats, %rax
	vmovss	%xmm0, 720(%rax)
	movq	stats, %rax
	vcvtsi2ssl	712(%rax), %xmm0, %xmm0
	vmulss	-32(%rbp), %xmm0, %xmm0
	movq	input, %rax
	movl	8(%rax), %eax
	addl	Bframe_ctr, %eax
	vcvtsi2ss	%eax, %xmm0, %xmm1
	vdivss	%xmm1, %xmm0, %xmm0
	movq	stats, %rax
	vmovss	%xmm0, 724(%rax)
	movq	stdout, %rdi
	movabsq	$.L.str.26, %rsi
	movb	$0, %al
	callq	fprintf
	movq	stdout, %rdi
	movq	img, %rax
	vmovss	48(%rax), %xmm0         # xmm0 = mem[0],zero,zero,zero
	movq	input, %rax
	movl	20(%rax), %eax
	addl	$1, %eax
	vcvtsi2ss	%eax, %xmm0, %xmm1
	vdivss	%xmm1, %xmm0, %xmm0
	vcvtss2sd	%xmm0, %xmm0, %xmm0
	movabsq	$.L.str.27, %rsi
	movb	$1, %al
	callq	fprintf
	movq	input, %rax
	cmpl	$0, 24(%rax)
	je	.LBB34_20
# %bb.16:                               # %if.then
	movq	input, %rax
	cmpl	$0, 28(%rax)
	je	.LBB34_18
# %bb.17:                               # %if.then98
	movq	stdout, %rdi
	movabsq	$.L.str.28, %rsi
	movb	$0, %al
	callq	fprintf
	jmp	.LBB34_19
.LBB34_18:                              # %if.else
	movq	stdout, %rdi
	movabsq	$.L.str.29, %rsi
	movb	$0, %al
	callq	fprintf
.LBB34_19:                              # %if.end
	jmp	.LBB34_21
.LBB34_20:                              # %if.else101
	movq	stdout, %rdi
	movabsq	$.L.str.30, %rsi
	movb	$0, %al
	callq	fprintf
.LBB34_21:                              # %if.end103
	movq	stdout, %rdi
	movq	input, %rax
	movl	64(%rax), %edx
	movq	input, %rax
	movl	68(%rax), %ecx
	movabsq	$.L.str.31, %rsi
	movb	$0, %al
	callq	fprintf
	movq	input, %rax
	cmpl	$0, 76(%rax)
	je	.LBB34_23
# %bb.22:                               # %if.then106
	movq	stdout, %rdi
	movabsq	$.L.str.32, %rsi
	movb	$0, %al
	callq	fprintf
	jmp	.LBB34_24
.LBB34_23:                              # %if.else108
	movq	stdout, %rdi
	movabsq	$.L.str.33, %rsi
	movb	$0, %al
	callq	fprintf
.LBB34_24:                              # %if.end110
	movq	stdout, %rdi
	movq	input, %rax
	movl	32(%rax), %edx
	movabsq	$.L.str.34, %rsi
	movb	$0, %al
	callq	fprintf
	movq	stdout, %rdi
	movq	input, %rax
	movl	36(%rax), %edx
	movabsq	$.L.str.35, %rsi
	movb	$0, %al
	callq	fprintf
	movq	stdout, %rdi
	movq	input, %rax
	cmpl	$0, 40(%rax)
	je	.LBB34_26
# %bb.25:                               # %cond.true114
	movq	input, %rax
	movl	40(%rax), %edx
	jmp	.LBB34_27
.LBB34_26:                              # %cond.false116
	movq	input, %rax
	movl	36(%rax), %edx
.LBB34_27:                              # %cond.end118
	movabsq	$.L.str.36, %rsi
	movb	$0, %al
	callq	fprintf
	movq	input, %rax
	cmpl	$0, 1236(%rax)
	je	.LBB34_35
# %bb.28:                               # %if.then124
	movq	stdout, %rdi
	movq	input, %rax
	cmpl	$0, 44(%rax)
	je	.LBB34_30
# %bb.29:                               # %cond.true126
	movq	input, %rax
	movl	44(%rax), %edx
	jmp	.LBB34_31
.LBB34_30:                              # %cond.false128
	movq	input, %rax
	movl	36(%rax), %edx
.LBB34_31:                              # %cond.end130
	movabsq	$.L.str.37, %rsi
	movb	$0, %al
	callq	fprintf
	movq	stdout, %rdi
	movq	input, %rax
	cmpl	$0, 48(%rax)
	je	.LBB34_33
# %bb.32:                               # %cond.true134
	movq	input, %rax
	movl	48(%rax), %edx
	jmp	.LBB34_34
.LBB34_33:                              # %cond.false136
	movq	input, %rax
	movl	36(%rax), %edx
.LBB34_34:                              # %cond.end138
	movabsq	$.L.str.38, %rsi
	movb	$0, %al
	callq	fprintf
.LBB34_35:                              # %if.end141
	vmovsd	.LCPI34_0(%rip), %xmm0  # xmm0 = mem[0],zero
	movq	stdout, %rdi
	vcvtsi2sdl	tot_time, %xmm0, %xmm1
	vmulsd	%xmm0, %xmm1, %xmm0
	movabsq	$.L.str.39, %rsi
	movb	$1, %al
	callq	fprintf
	vmovsd	.LCPI34_0(%rip), %xmm0  # xmm0 = mem[0],zero
	movq	stdout, %rdi
	vcvtsi2sdl	me_tot_time, %xmm0, %xmm1
	vmulsd	%xmm0, %xmm1, %xmm0
	movabsq	$.L.str.40, %rsi
	movb	$1, %al
	callq	fprintf
	movq	stdout, %rdi
	movabsq	$.L.str.41, %rsi
	movb	$0, %al
	callq	fprintf
	movq	input, %rax
	cmpl	$0, 1236(%rax)
	jle	.LBB34_38
# %bb.36:                               # %land.lhs.true
	movq	input, %rax
	cmpl	$0, 1320(%rax)
	je	.LBB34_38
# %bb.37:                               # %if.then153
	movq	stdout, %rdi
	movq	input, %rax
	movl	12(%rax), %edx
	movq	input, %rax
	movl	16(%rax), %ecx
	movq	input, %rax
	movl	1240(%rax), %r8d
	movabsq	$.L.str.42, %rsi
	movb	$0, %al
	callq	fprintf
	jmp	.LBB34_75
.LBB34_38:                              # %if.else155
	movq	input, %rax
	cmpl	$0, 1236(%rax)
	jle	.LBB34_69
# %bb.39:                               # %if.then159
	leaq	-208(%rbp), %rdi
	movl	$.L.str.43, %esi
	callq	strcpy
	movl	$0, -84(%rbp)
.LBB34_40:                              # %for.cond163
                                        # =>This Loop Header: Depth=1
                                        #     Child Loop BB34_42 Depth 2
	cmpl	$2, -84(%rbp)
	jge	.LBB34_59
# %bb.41:                               # %for.body166
                                        #   in Loop: Header=BB34_40 Depth=1
	movl	$0, -88(%rbp)
.LBB34_42:                              # %for.cond167
                                        #   Parent Loop BB34_40 Depth=1
                                        # =>  This Inner Loop Header: Depth=2
	movl	-88(%rbp), %eax
	movq	input, %rcx
	cmpl	1236(%rcx), %eax
	jge	.LBB34_54
# %bb.43:                               # %for.body171
                                        #   in Loop: Header=BB34_42 Depth=2
	movq	input, %rax
	cmpl	$0, 1316(%rax)
	je	.LBB34_48
# %bb.44:                               # %if.then173
                                        #   in Loop: Header=BB34_42 Depth=2
	xorl	%ebx, %ebx
	leaq	-208(%rbp), %r14
	movq	%r14, %rdi
	callq	strlen
	movl	$79, %ecx
	subq	%rax, %rcx
	cmpl	%ecx, %ebx
	jle	.LBB34_46
# %bb.45:                               # %cond.true180
                                        #   in Loop: Header=BB34_42 Depth=2
	xorl	%ecx, %ecx
	jmp	.LBB34_47
.LBB34_46:                              # %cond.false181
                                        #   in Loop: Header=BB34_42 Depth=2
	leaq	-208(%rbp), %rdi
	callq	strlen
	movl	$79, %ecx
	subq	%rax, %rcx
.LBB34_47:                              # %cond.end186
                                        #   in Loop: Header=BB34_42 Depth=2
	movslq	%ecx, %rdx
	movq	%r14, %rdi
	movabsq	$.L.str.44, %rsi
	callq	strncat
	jmp	.LBB34_52
.LBB34_48:                              # %if.else190
                                        #   in Loop: Header=BB34_42 Depth=2
	xorl	%ebx, %ebx
	leaq	-208(%rbp), %r14
	movq	%r14, %rdi
	callq	strlen
	movl	$79, %ecx
	subq	%rax, %rcx
	cmpl	%ecx, %ebx
	jle	.LBB34_50
# %bb.49:                               # %cond.true198
                                        #   in Loop: Header=BB34_42 Depth=2
	xorl	%ecx, %ecx
	jmp	.LBB34_51
.LBB34_50:                              # %cond.false199
                                        #   in Loop: Header=BB34_42 Depth=2
	leaq	-208(%rbp), %rdi
	callq	strlen
	movl	$79, %ecx
	subq	%rax, %rcx
.LBB34_51:                              # %cond.end204
                                        #   in Loop: Header=BB34_42 Depth=2
	movslq	%ecx, %rdx
	movq	%r14, %rdi
	movabsq	$.L.str.45, %rsi
	callq	strncat
.LBB34_52:                              # %if.end208
                                        #   in Loop: Header=BB34_42 Depth=2
	jmp	.LBB34_53
.LBB34_53:                              # %for.inc209
                                        #   in Loop: Header=BB34_42 Depth=2
	movl	-88(%rbp), %eax
	addl	$1, %eax
	movl	%eax, -88(%rbp)
	jmp	.LBB34_42
.LBB34_54:                              # %for.end211
                                        #   in Loop: Header=BB34_40 Depth=1
	xorl	%ebx, %ebx
	leaq	-208(%rbp), %r14
	movq	%r14, %rdi
	callq	strlen
	movl	$79, %ecx
	subq	%rax, %rcx
	cmpl	%ecx, %ebx
	jle	.LBB34_56
# %bb.55:                               # %cond.true219
                                        #   in Loop: Header=BB34_40 Depth=1
	xorl	%ecx, %ecx
	jmp	.LBB34_57
.LBB34_56:                              # %cond.false220
                                        #   in Loop: Header=BB34_40 Depth=1
	leaq	-208(%rbp), %rdi
	callq	strlen
	movl	$79, %ecx
	subq	%rax, %rcx
.LBB34_57:                              # %cond.end225
                                        #   in Loop: Header=BB34_40 Depth=1
	movslq	%ecx, %rdx
	movq	%r14, %rdi
	movabsq	$.L.str.46, %rsi
	callq	strncat
# %bb.58:                               # %for.inc229
                                        #   in Loop: Header=BB34_40 Depth=1
	movl	-84(%rbp), %eax
	addl	$1, %eax
	movl	%eax, -84(%rbp)
	jmp	.LBB34_40
.LBB34_59:                              # %for.end231
	movq	input, %rax
	cmpl	$0, 1316(%rax)
	je	.LBB34_67
# %bb.60:                               # %if.then234
	leaq	-208(%rbp), %rdx
	movq	stdout, %rdi
	movq	input, %rax
	movl	12(%rax), %ecx
	movq	input, %rax
	movl	16(%rax), %r8d
	movq	input, %rax
	movl	1240(%rax), %eax
	movq	input, %rsi
	addl	1244(%rsi), %eax
	cmpl	$0, %eax
	jge	.LBB34_62
# %bb.61:                               # %cond.true242
	xorl	%r9d, %r9d
	jmp	.LBB34_66
.LBB34_62:                              # %cond.false243
	movq	input, %rax
	movl	1240(%rax), %eax
	movq	input, %rsi
	addl	1244(%rsi), %eax
	cmpl	$51, %eax
	jle	.LBB34_64
# %bb.63:                               # %cond.true249
	movl	$51, %r9d
	jmp	.LBB34_65
.LBB34_64:                              # %cond.false250
	movq	input, %rax
	movl	1240(%rax), %r9d
	movq	input, %rax
	addl	1244(%rax), %r9d
.LBB34_65:                              # %cond.end254
.LBB34_66:                              # %cond.end256
	movabsq	$.L.str.47, %rsi
	movb	$0, %al
	callq	fprintf
	jmp	.LBB34_68
.LBB34_67:                              # %if.else259
	leaq	-208(%rbp), %rdx
	movq	stdout, %rdi
	movq	input, %rax
	movl	12(%rax), %ecx
	movq	input, %rax
	movl	16(%rax), %r8d
	movq	input, %rax
	movl	1240(%rax), %r9d
	movabsq	$.L.str.48, %rsi
	movb	$0, %al
	callq	fprintf
.LBB34_68:                              # %if.end265
	jmp	.LBB34_74
.LBB34_69:                              # %if.else266
	movq	input, %rax
	cmpl	$0, 1236(%rax)
	jne	.LBB34_72
# %bb.70:                               # %land.lhs.true270
	movq	input, %rax
	cmpl	$0, 1272(%rax)
	jne	.LBB34_72
# %bb.71:                               # %if.then273
	movq	stdout, %rdi
	movq	input, %rax
	movl	12(%rax), %edx
	movq	input, %rax
	movl	16(%rax), %ecx
	movabsq	$.L.str.49, %rsi
	movb	$0, %al
	callq	fprintf
	jmp	.LBB34_73
.LBB34_72:                              # %if.else277
	movq	stdout, %rdi
	movq	input, %rax
	movl	12(%rax), %edx
	movq	input, %rax
	movl	16(%rax), %ecx
	movq	input, %rax
	movl	1276(%rax), %r8d
	movq	input, %rax
	movl	1280(%rax), %r9d
	movabsq	$.L.str.50, %rsi
	movb	$0, %al
	callq	fprintf
.LBB34_73:                              # %if.end281
	jmp	.LBB34_74
.LBB34_74:                              # %if.end282
	jmp	.LBB34_75
.LBB34_75:                              # %if.end283
	movq	input, %rax
	cmpl	$0, 2356(%rax)
	jne	.LBB34_77
# %bb.76:                               # %if.then286
	movq	stdout, %rdi
	movabsq	$.L.str.51, %rsi
	movb	$0, %al
	callq	fprintf
	jmp	.LBB34_78
.LBB34_77:                              # %if.else288
	movq	stdout, %rdi
	movabsq	$.L.str.52, %rsi
	movb	$0, %al
	callq	fprintf
.LBB34_78:                              # %if.end290
	movq	stdout, %rdi
	movq	input, %rax
	movl	(%rax), %edx
	movq	input, %rax
	movl	4(%rax), %ecx
	movabsq	$.L.str.53, %rsi
	movb	$0, %al
	callq	fprintf
	movq	input, %rax
	cmpl	$2, 2436(%rax)
	jne	.LBB34_80
# %bb.79:                               # %if.then294
	movq	stdout, %rdi
	movabsq	$.L.str.54, %rsi
	movb	$0, %al
	callq	fprintf
	jmp	.LBB34_84
.LBB34_80:                              # %if.else296
	movq	input, %rax
	cmpl	$1, 2436(%rax)
	jne	.LBB34_82
# %bb.81:                               # %if.then300
	movq	stdout, %rdi
	movabsq	$.L.str.55, %rsi
	movb	$0, %al
	callq	fprintf
	jmp	.LBB34_83
.LBB34_82:                              # %if.else302
	movq	stdout, %rdi
	movabsq	$.L.str.56, %rsi
	movb	$0, %al
	callq	fprintf
.LBB34_83:                              # %if.end304
	jmp	.LBB34_84
.LBB34_84:                              # %if.end305
	movq	input, %rax
	cmpl	$0, 2464(%rax)
	je	.LBB34_86
# %bb.85:                               # %if.then307
	movq	stdout, %rdi
	movabsq	$.L.str.57, %rsi
	movb	$0, %al
	callq	fprintf
	jmp	.LBB34_87
.LBB34_86:                              # %if.else309
	movq	stdout, %rdi
	movabsq	$.L.str.58, %rsi
	movb	$0, %al
	callq	fprintf
.LBB34_87:                              # %if.end311
	movq	input(%rip), %rax
	movl	2364(%rax), %eax
	testl	%eax, %eax
	je	.LBB34_89
	jmp	.LBB34_88
.LBB34_88:                              # %if.end311
	subl	$1, %eax
	je	.LBB34_90
	jmp	.LBB34_91
.LBB34_89:                              # %sw.bb
	movq	stdout, %rdi
	movabsq	$.L.str.59, %rsi
	movb	$0, %al
	callq	fprintf
	jmp	.LBB34_92
.LBB34_90:                              # %sw.bb313
	movq	stdout, %rdi
	movabsq	$.L.str.60, %rsi
	movb	$0, %al
	callq	fprintf
	jmp	.LBB34_92
.LBB34_91:                              # %sw.default
	movq	stdout, %rdi
	movabsq	$.L.str.61, %rsi
	movb	$0, %al
	callq	fprintf
.LBB34_92:                              # %sw.epilog
	movq	input(%rip), %rax
	movl	2360(%rax), %eax
	testl	%eax, %eax
	je	.LBB34_94
	jmp	.LBB34_93
.LBB34_93:                              # %sw.epilog
	subl	$1, %eax
	je	.LBB34_95
	jmp	.LBB34_96
.LBB34_94:                              # %sw.bb316
	movq	stdout, %rdi
	movabsq	$.L.str.62, %rsi
	movb	$0, %al
	callq	fprintf
	jmp	.LBB34_97
.LBB34_95:                              # %sw.bb318
	movq	stdout, %rdi
	movabsq	$.L.str.63, %rsi
	movb	$0, %al
	callq	fprintf
	jmp	.LBB34_97
.LBB34_96:                              # %sw.default320
	movq	stdout, %rdi
	movabsq	$.L.str.64, %rsi
	movb	$0, %al
	callq	fprintf
.LBB34_97:                              # %sw.epilog322
	movq	input, %rax
	cmpl	$0, 3328(%rax)
	je	.LBB34_99
# %bb.98:                               # %if.then324
	movq	stdout, %rdi
	movabsq	$.L.str.65, %rsi
	movb	$0, %al
	callq	fprintf
	jmp	.LBB34_100
.LBB34_99:                              # %if.else326
	movq	stdout, %rdi
	movabsq	$.L.str.66, %rsi
	movb	$0, %al
	callq	fprintf
.LBB34_100:                             # %if.end328
	movq	stdout, %rdi
	movabsq	$.L.str.67, %rsi
	movb	$0, %al
	callq	fprintf
	movq	stdout, %rdi
	movq	snr, %rax
	vmovss	60(%rax), %xmm0         # xmm0 = mem[0],zero,zero,zero
	vcvtss2sd	%xmm0, %xmm0, %xmm0
	movabsq	$.L.str.68, %rsi
	movb	$1, %al
	callq	fprintf
	movq	stdout, %rdi
	movq	snr, %rax
	vmovss	64(%rax), %xmm0         # xmm0 = mem[0],zero,zero,zero
	vcvtss2sd	%xmm0, %xmm0, %xmm0
	movabsq	$.L.str.69, %rsi
	movb	$1, %al
	callq	fprintf
	movq	stdout, %rdi
	movq	snr, %rax
	vmovss	68(%rax), %xmm0         # xmm0 = mem[0],zero,zero,zero
	vcvtss2sd	%xmm0, %xmm0, %xmm0
	movabsq	$.L.str.70, %rsi
	movb	$1, %al
	callq	fprintf
	cmpl	$0, Bframe_ctr
	je	.LBB34_102
# %bb.101:                              # %if.then338
	movq	stdout, %rdi
	movq	stats, %rax
	movl	708(%rax), %edx
	movq	stats, %rax
	addl	704(%rax), %edx
	movq	stats, %rax
	addl	712(%rax), %edx
	movq	stats, %rax
	addl	1488(%rax), %edx
	movl	%edx, -40(%rbp)
	movq	stats, %rax
	movl	704(%rax), %ecx
	movq	stats, %rax
	movl	708(%rax), %r8d
	movq	stats, %rax
	movl	712(%rax), %r9d
	movq	stats, %rax
	movl	1488(%rax), %eax
	movabsq	$.L.str.71, %rsi
	movl	%eax, (%rsp)
	movb	$0, %al
	callq	fprintf
	vmovss	.LCPI34_1(%rip), %xmm1  # xmm1 = mem[0],zero,zero,zero
	movq	img, %rax
	vmovss	48(%rax), %xmm0         # xmm0 = mem[0],zero,zero,zero
	movq	input, %rax
	movl	1236(%rax), %eax
	addl	$1, %eax
	vcvtsi2ss	%eax, %xmm0, %xmm2
	vmulss	%xmm2, %xmm0, %xmm0
	movq	input, %rax
	movl	20(%rax), %eax
	addl	$1, %eax
	vcvtsi2ss	%eax, %xmm0, %xmm2
	vdivss	%xmm2, %xmm0, %xmm0
	vmovss	%xmm0, -32(%rbp)
	vcvtsi2ssl	-40(%rbp), %xmm0, %xmm0
	vmulss	-32(%rbp), %xmm0, %xmm0
	movq	input, %rax
	movl	8(%rax), %eax
	addl	Bframe_ctr, %eax
	vcvtsi2ss	%eax, %xmm0, %xmm2
	vdivss	%xmm2, %xmm0, %xmm0
	movq	stats, %rax
	vmovss	%xmm0, 12(%rax)
	movq	stdout, %rdi
	vmovss	-32(%rbp), %xmm0        # xmm0 = mem[0],zero,zero,zero
	vcvtss2sd	%xmm0, %xmm0, %xmm0
	movq	stats, %rax
	vmovss	12(%rax), %xmm2         # xmm2 = mem[0],zero,zero,zero
	vdivss	%xmm1, %xmm2, %xmm1
	vcvtss2sd	%xmm1, %xmm0, %xmm1
	movabsq	$.L.str.72, %rsi
	movb	$2, %al
	callq	fprintf
	jmp	.LBB34_106
.LBB34_102:                             # %if.else370
	movq	input, %rax
	cmpl	$0, 1272(%rax)
	jne	.LBB34_104
# %bb.103:                              # %if.then374
	movq	stdout, %rdi
	movq	stats, %rax
	movl	708(%rax), %edx
	movq	stats, %rax
	addl	704(%rax), %edx
	movq	stats, %rax
	addl	1488(%rax), %edx
	movl	%edx, -40(%rbp)
	movq	stats, %rax
	movl	704(%rax), %ecx
	movq	stats, %rax
	movl	708(%rax), %r8d
	movq	stats, %rax
	movl	1488(%rax), %r9d
	movabsq	$.L.str.73, %rsi
	movb	$0, %al
	callq	fprintf
	vmovss	.LCPI34_1(%rip), %xmm1  # xmm1 = mem[0],zero,zero,zero
	movq	img, %rax
	vmovss	48(%rax), %xmm0         # xmm0 = mem[0],zero,zero,zero
	movq	input, %rax
	movl	20(%rax), %eax
	addl	$1, %eax
	vcvtsi2ss	%eax, %xmm0, %xmm2
	vdivss	%xmm2, %xmm0, %xmm0
	vmovss	%xmm0, -32(%rbp)
	vcvtsi2ssl	-40(%rbp), %xmm0, %xmm0
	vmulss	-32(%rbp), %xmm0, %xmm0
	movq	input, %rax
	vcvtsi2ssl	8(%rax), %xmm0, %xmm2
	vdivss	%xmm2, %xmm0, %xmm0
	movq	stats, %rax
	vmovss	%xmm0, 12(%rax)
	movq	stdout, %rdi
	vmovss	-32(%rbp), %xmm0        # xmm0 = mem[0],zero,zero,zero
	vcvtss2sd	%xmm0, %xmm0, %xmm0
	movq	stats, %rax
	vmovss	12(%rax), %xmm2         # xmm2 = mem[0],zero,zero,zero
	vdivss	%xmm1, %xmm2, %xmm1
	vcvtss2sd	%xmm1, %xmm0, %xmm1
	movabsq	$.L.str.72, %rsi
	movb	$2, %al
	callq	fprintf
	jmp	.LBB34_105
.LBB34_104:                             # %if.else400
	movq	stdout, %rdi
	movq	stats, %rax
	movl	708(%rax), %edx
	movq	stats, %rax
	addl	704(%rax), %edx
	movq	stats, %rax
	addl	1488(%rax), %edx
	movl	%edx, -40(%rbp)
	movq	stats, %rax
	movl	704(%rax), %ecx
	movq	stats, %rax
	movl	708(%rax), %r8d
	movq	stats, %rax
	movl	1488(%rax), %r9d
	movabsq	$.L.str.73, %rsi
	movb	$0, %al
	callq	fprintf
	vmovss	.LCPI34_1(%rip), %xmm1  # xmm1 = mem[0],zero,zero,zero
	movq	img, %rax
	vmovss	48(%rax), %xmm0         # xmm0 = mem[0],zero,zero,zero
	movq	input, %rax
	movl	20(%rax), %eax
	addl	$1, %eax
	vcvtsi2ss	%eax, %xmm0, %xmm2
	vdivss	%xmm2, %xmm0, %xmm0
	vmovss	%xmm0, -32(%rbp)
	vcvtsi2ssl	-40(%rbp), %xmm0, %xmm0
	vmulss	-32(%rbp), %xmm0, %xmm0
	movq	input, %rax
	vcvtsi2ssl	8(%rax), %xmm0, %xmm2
	vdivss	%xmm2, %xmm0, %xmm0
	movq	stats, %rax
	vmovss	%xmm0, 12(%rax)
	movq	stdout, %rdi
	vmovss	-32(%rbp), %xmm0        # xmm0 = mem[0],zero,zero,zero
	vcvtss2sd	%xmm0, %xmm0, %xmm0
	movq	stats, %rax
	vmovss	12(%rax), %xmm2         # xmm2 = mem[0],zero,zero,zero
	vdivss	%xmm1, %xmm2, %xmm1
	vcvtss2sd	%xmm1, %xmm0, %xmm1
	movabsq	$.L.str.72, %rsi
	movb	$2, %al
	callq	fprintf
.LBB34_105:                             # %if.end426
	jmp	.LBB34_106
.LBB34_106:                             # %if.end427
	movq	stdout, %rdi
	movq	stats, %rax
	movl	28(%rax), %edx
	movabsq	$.L.str.74, %rsi
	movb	$0, %al
	callq	fprintf
	movq	stdout, %rdi
	movq	stats, %rax
	movl	1488(%rax), %edx
	movabsq	$.L.str.75, %rsi
	movb	$0, %al
	callq	fprintf
	movq	stdout, %rdi
	movabsq	$.L.str.26, %rsi
	movb	$0, %al
	callq	fprintf
	movq	stdout, %rdi
	movabsq	$.L.str.76, %rsi
	movabsq	$.L.str.77, %rdx
	movabsq	$.L.str.13, %rcx
	movb	$0, %al
	callq	fprintf
	movq	stdout, %rdi
	movabsq	$.L.str.25, %rsi
	movb	$0, %al
	callq	fprintf
	movabsq	$.L.str.78, %rdi
	movabsq	$.L.str.79, %rsi
	callq	fopen
	movq	%rax, p_stat
	cmpq	$0, %rax
	jne	.LBB34_108
# %bb.107:                              # %if.then437
	movabsq	$errortext, %rdi
	movl	$300, %esi              # imm = 0x12C
	movabsq	$.L.str.80, %rdx
	movabsq	$.L.str.78, %rcx
	movb	$0, %al
	callq	snprintf
	movabsq	$errortext, %rdi
	movl	$500, %esi              # imm = 0x1F4
	callq	error
.LBB34_108:                             # %if.end439
	movq	p_stat, %rdi
	movabsq	$.L.str.81, %rsi
	movb	$0, %al
	callq	fprintf
	movq	p_stat, %rdi
	movabsq	$.L.str.82, %rsi
	movb	$0, %al
	callq	fprintf
	movq	p_stat, %rdi
	movabsq	$.L.str.81, %rsi
	movb	$0, %al
	callq	fprintf
	movq	p_stat, %rdi
	movq	input, %rdx
	addq	$224, %rdx
	movabsq	$.L.str.83, %rsi
	movb	$0, %al
	callq	fprintf
	movq	p_stat, %rdi
	movq	input, %rax
	movl	8(%rax), %edx
	addl	Bframe_ctr, %edx
	movabsq	$.L.str.84, %rsi
	movb	$0, %al
	callq	fprintf
	movq	p_stat, %rdi
	vmovss	-32(%rbp), %xmm0        # xmm0 = mem[0],zero,zero,zero
	vcvtss2sd	%xmm0, %xmm0, %xmm0
	movabsq	$.L.str.85, %rsi
	movb	$1, %al
	callq	fprintf
	vmovss	.LCPI34_1(%rip), %xmm0  # xmm0 = mem[0],zero,zero,zero
	movq	p_stat, %rdi
	movq	stats, %rax
	vmovss	716(%rax), %xmm1        # xmm1 = mem[0],zero,zero,zero
	vdivss	%xmm0, %xmm1, %xmm0
	vcvtss2sd	%xmm0, %xmm0, %xmm0
	movabsq	$.L.str.86, %rsi
	movb	$1, %al
	callq	fprintf
	vmovss	.LCPI34_1(%rip), %xmm0  # xmm0 = mem[0],zero,zero,zero
	movq	p_stat, %rdi
	movq	stats, %rax
	vmovss	720(%rax), %xmm1        # xmm1 = mem[0],zero,zero,zero
	vdivss	%xmm0, %xmm1, %xmm0
	vcvtss2sd	%xmm0, %xmm0, %xmm0
	movabsq	$.L.str.87, %rsi
	movb	$1, %al
	callq	fprintf
	movq	input, %rax
	cmpl	$0, 1236(%rax)
	je	.LBB34_110
# %bb.109:                              # %if.then461
	vmovss	.LCPI34_1(%rip), %xmm0  # xmm0 = mem[0],zero,zero,zero
	movq	p_stat, %rdi
	movq	stats, %rax
	vmovss	724(%rax), %xmm1        # xmm1 = mem[0],zero,zero,zero
	vdivss	%xmm0, %xmm1, %xmm0
	vcvtss2sd	%xmm0, %xmm0, %xmm0
	movabsq	$.L.str.88, %rsi
	movb	$1, %al
	callq	fprintf
.LBB34_110:                             # %if.end466
	vmovss	.LCPI34_1(%rip), %xmm0  # xmm0 = mem[0],zero,zero,zero
	movq	p_stat, %rdi
	movq	stats, %rax
	vmovss	12(%rax), %xmm1         # xmm1 = mem[0],zero,zero,zero
	vdivss	%xmm0, %xmm1, %xmm0
	vcvtss2sd	%xmm0, %xmm0, %xmm0
	movabsq	$.L.str.89, %rsi
	movb	$1, %al
	callq	fprintf
	movq	input, %rax
	cmpl	$0, 24(%rax)
	je	.LBB34_115
# %bb.111:                              # %if.then473
	movq	input, %rax
	cmpl	$0, 28(%rax)
	je	.LBB34_113
# %bb.112:                              # %if.then476
	movq	p_stat, %rdi
	movabsq	$.L.str.90, %rsi
	movb	$0, %al
	callq	fprintf
	jmp	.LBB34_114
.LBB34_113:                             # %if.else478
	movq	p_stat, %rdi
	movabsq	$.L.str.91, %rsi
	movb	$0, %al
	callq	fprintf
.LBB34_114:                             # %if.end480
	jmp	.LBB34_116
.LBB34_115:                             # %if.else481
	movq	p_stat, %rdi
	movabsq	$.L.str.92, %rsi
	movb	$0, %al
	callq	fprintf
.LBB34_116:                             # %if.end483
	movq	p_stat, %rdi
	movq	input, %rax
	movl	64(%rax), %edx
	movq	input, %rax
	movl	68(%rax), %ecx
	movabsq	$.L.str.93, %rsi
	movb	$0, %al
	callq	fprintf
	movq	input, %rax
	cmpl	$0, 76(%rax)
	je	.LBB34_118
# %bb.117:                              # %if.then489
	movq	p_stat, %rdi
	movabsq	$.L.str.94, %rsi
	movb	$0, %al
	callq	fprintf
	jmp	.LBB34_119
.LBB34_118:                             # %if.else491
	movq	p_stat, %rdi
	movabsq	$.L.str.95, %rsi
	movb	$0, %al
	callq	fprintf
.LBB34_119:                             # %if.end493
	movq	p_stat, %rdi
	movq	input, %rax
	movl	32(%rax), %edx
	movabsq	$.L.str.96, %rsi
	movb	$0, %al
	callq	fprintf
	movq	p_stat, %rdi
	movq	input, %rax
	movl	36(%rax), %edx
	movabsq	$.L.str.97, %rsi
	movb	$0, %al
	callq	fprintf
	movq	p_stat, %rdi
	movq	input, %rax
	cmpl	$0, 40(%rax)
	je	.LBB34_121
# %bb.120:                              # %cond.true500
	movq	input, %rax
	movl	40(%rax), %edx
	jmp	.LBB34_122
.LBB34_121:                             # %cond.false502
	movq	input, %rax
	movl	36(%rax), %edx
.LBB34_122:                             # %cond.end504
	movabsq	$.L.str.98, %rsi
	movb	$0, %al
	callq	fprintf
	movq	input, %rax
	cmpl	$0, 1236(%rax)
	je	.LBB34_130
# %bb.123:                              # %if.then510
	movq	p_stat, %rdi
	movq	input, %rax
	cmpl	$0, 44(%rax)
	je	.LBB34_125
# %bb.124:                              # %cond.true513
	movq	input, %rax
	movl	44(%rax), %edx
	jmp	.LBB34_126
.LBB34_125:                             # %cond.false515
	movq	input, %rax
	movl	36(%rax), %edx
.LBB34_126:                             # %cond.end517
	movabsq	$.L.str.99, %rsi
	movb	$0, %al
	callq	fprintf
	movq	p_stat, %rdi
	movq	input, %rax
	cmpl	$0, 48(%rax)
	je	.LBB34_128
# %bb.127:                              # %cond.true522
	movq	input, %rax
	movl	48(%rax), %edx
	jmp	.LBB34_129
.LBB34_128:                             # %cond.false524
	movq	input, %rax
	movl	36(%rax), %edx
.LBB34_129:                             # %cond.end526
	movabsq	$.L.str.100, %rsi
	movb	$0, %al
	callq	fprintf
.LBB34_130:                             # %if.end529
	movq	input, %rax
	cmpl	$0, 2356(%rax)
	jne	.LBB34_132
# %bb.131:                              # %if.then533
	movq	p_stat, %rdi
	movabsq	$.L.str.101, %rsi
	movb	$0, %al
	callq	fprintf
	jmp	.LBB34_133
.LBB34_132:                             # %if.else535
	movq	p_stat, %rdi
	movabsq	$.L.str.102, %rsi
	movb	$0, %al
	callq	fprintf
.LBB34_133:                             # %if.end537
	movq	p_stat, %rdi
	movq	input, %rax
	movl	(%rax), %edx
	movq	input, %rax
	movl	4(%rax), %ecx
	movabsq	$.L.str.103, %rsi
	movb	$0, %al
	callq	fprintf
	movq	input, %rax
	cmpl	$0, 2884(%rax)
	je	.LBB34_135
# %bb.134:                              # %if.then542
	movq	p_stat, %rdi
	movabsq	$.L.str.104, %rsi
	movb	$0, %al
	callq	fprintf
.LBB34_135:                             # %if.end544
	movq	input, %rax
	cmpl	$2, 2436(%rax)
	jne	.LBB34_137
# %bb.136:                              # %if.then548
	movq	p_stat, %rdi
	movabsq	$.L.str.105, %rsi
	movb	$0, %al
	callq	fprintf
	jmp	.LBB34_141
.LBB34_137:                             # %if.else550
	movq	input, %rax
	cmpl	$1, 2436(%rax)
	jne	.LBB34_139
# %bb.138:                              # %if.then554
	movq	p_stat, %rdi
	movabsq	$.L.str.106, %rsi
	movb	$0, %al
	callq	fprintf
	jmp	.LBB34_140
.LBB34_139:                             # %if.else556
	movq	p_stat, %rdi
	movabsq	$.L.str.107, %rsi
	movb	$0, %al
	callq	fprintf
.LBB34_140:                             # %if.end558
	jmp	.LBB34_141
.LBB34_141:                             # %if.end559
	movq	input, %rax
	cmpl	$0, 2464(%rax)
	je	.LBB34_143
# %bb.142:                              # %if.then562
	movq	p_stat, %rdi
	movabsq	$.L.str.108, %rsi
	movb	$0, %al
	callq	fprintf
	jmp	.LBB34_144
.LBB34_143:                             # %if.else564
	movq	p_stat, %rdi
	movabsq	$.L.str.109, %rsi
	movb	$0, %al
	callq	fprintf
.LBB34_144:                             # %if.end566
	movq	p_stat, %rdi
	movabsq	$.L.str.110, %rsi
	movb	$0, %al
	callq	fprintf
	movq	p_stat, %rdi
	movabsq	$.L.str.111, %rsi
	movb	$0, %al
	callq	fprintf
	movq	p_stat, %rdi
	movabsq	$.L.str.110, %rsi
	movb	$0, %al
	callq	fprintf
	movq	p_stat, %rdi
	movabsq	$.L.str.112, %rsi
	movb	$0, %al
	callq	fprintf
	movq	p_stat, %rdi
	movq	snr, %rax
	vmovss	12(%rax), %xmm0         # xmm0 = mem[0],zero,zero,zero
	vcvtss2sd	%xmm0, %xmm0, %xmm0
	movabsq	$.L.str.113, %rsi
	movb	$1, %al
	callq	fprintf
	movq	p_stat, %rdi
	movq	snr, %rax
	vmovss	60(%rax), %xmm0         # xmm0 = mem[0],zero,zero,zero
	vcvtss2sd	%xmm0, %xmm0, %xmm0
	movabsq	$.L.str.114, %rsi
	movb	$1, %al
	callq	fprintf
	movq	p_stat, %rdi
	movabsq	$.L.str.115, %rsi
	movb	$0, %al
	callq	fprintf
	movq	p_stat, %rdi
	movq	snr, %rax
	vmovss	16(%rax), %xmm0         # xmm0 = mem[0],zero,zero,zero
	vcvtss2sd	%xmm0, %xmm0, %xmm0
	movq	snr, %rax
	vmovss	20(%rax), %xmm1         # xmm1 = mem[0],zero,zero,zero
	vcvtss2sd	%xmm1, %xmm0, %xmm1
	movabsq	$.L.str.116, %rsi
	movb	$2, %al
	callq	fprintf
	movq	p_stat, %rdi
	movq	snr, %rax
	vmovss	64(%rax), %xmm0         # xmm0 = mem[0],zero,zero,zero
	vcvtss2sd	%xmm0, %xmm0, %xmm0
	movq	snr, %rax
	vmovss	68(%rax), %xmm1         # xmm1 = mem[0],zero,zero,zero
	vcvtss2sd	%xmm1, %xmm0, %xmm1
	movabsq	$.L.str.117, %rsi
	movb	$2, %al
	callq	fprintf
	movq	p_stat, %rdi
	movabsq	$.L.str.118, %rsi
	movb	$0, %al
	callq	fprintf
	movq	p_stat, %rdi
	movq	input, %rax
	cmpl	$0, 12(%rax)
	jge	.LBB34_146
# %bb.145:                              # %cond.true589
	xorl	%edx, %edx
	movq	input, %rax
	subl	12(%rax), %edx
	jmp	.LBB34_147
.LBB34_146:                             # %cond.false592
	movq	input, %rax
	movl	12(%rax), %edx
.LBB34_147:                             # %cond.end594
	movabsq	$.L.str.119, %rsi
	movb	$0, %al
	callq	fprintf
	vmovsd	.LCPI34_2(%rip), %xmm1  # xmm1 = mem[0],zero
	movq	p_stat, %rdi
	movq	stats, %rax
	vcvtsi2ssl	4(%rax), %xmm0, %xmm0
	vcvtss2sd	%xmm0, %xmm0, %xmm0
	movq	stats, %rax
	vcvtsi2ssl	(%rax), %xmm0, %xmm2
	vcvtss2sd	%xmm2, %xmm0, %xmm2
	vucomisd	%xmm2, %xmm1
	jbe	.LBB34_149
# %bb.148:                              # %cond.true603
	vmovsd	.LCPI34_2(%rip), %xmm1  # xmm1 = mem[0],zero
	jmp	.LBB34_150
.LBB34_149:                             # %cond.false604
	movq	stats, %rax
	vcvtsi2ssl	(%rax), %xmm0, %xmm1
	vcvtss2sd	%xmm1, %xmm0, %xmm1
.LBB34_150:                             # %cond.end608
	vdivsd	%xmm1, %xmm0, %xmm0
	movabsq	$.L.str.114, %rsi
	movb	$1, %al
	callq	fprintf
	movq	p_stat, %rdi
	movabsq	$.L.str.120, %rsi
	movb	$0, %al
	callq	fprintf
	movq	p_stat, %rdi
	movabsq	$.L.str.121, %rsi
	movb	$0, %al
	callq	fprintf
	movq	p_stat, %rdi
	movabsq	$.L.str.122, %rsi
	movb	$0, %al
	callq	fprintf
	movq	p_stat, %rdi
	movq	snr, %rax
	vmovss	32(%rax), %xmm0         # xmm0 = mem[0],zero,zero,zero
	vcvtss2sd	%xmm0, %xmm0, %xmm0
	movq	snr, %rax
	vmovss	24(%rax), %xmm1         # xmm1 = mem[0],zero,zero,zero
	vcvtss2sd	%xmm1, %xmm0, %xmm1
	movq	snr, %rax
	vmovss	28(%rax), %xmm2         # xmm2 = mem[0],zero,zero,zero
	vcvtss2sd	%xmm2, %xmm0, %xmm2
	movabsq	$.L.str.123, %rsi
	movb	$3, %al
	callq	fprintf
	movq	p_stat, %rdi
	movq	snr, %rax
	vmovss	44(%rax), %xmm0         # xmm0 = mem[0],zero,zero,zero
	vcvtss2sd	%xmm0, %xmm0, %xmm0
	movq	snr, %rax
	vmovss	36(%rax), %xmm1         # xmm1 = mem[0],zero,zero,zero
	vcvtss2sd	%xmm1, %xmm0, %xmm1
	movq	snr, %rax
	vmovss	40(%rax), %xmm2         # xmm2 = mem[0],zero,zero,zero
	vcvtss2sd	%xmm2, %xmm0, %xmm2
	movabsq	$.L.str.124, %rsi
	movb	$3, %al
	callq	fprintf
	movq	p_stat, %rdi
	movq	snr, %rax
	vmovss	56(%rax), %xmm0         # xmm0 = mem[0],zero,zero,zero
	vcvtss2sd	%xmm0, %xmm0, %xmm0
	movq	snr, %rax
	vmovss	48(%rax), %xmm1         # xmm1 = mem[0],zero,zero,zero
	vcvtss2sd	%xmm1, %xmm0, %xmm1
	movq	snr, %rax
	vmovss	52(%rax), %xmm2         # xmm2 = mem[0],zero,zero,zero
	vcvtss2sd	%xmm2, %xmm0, %xmm2
	movabsq	$.L.str.125, %rsi
	movb	$3, %al
	callq	fprintf
	movq	p_stat, %rdi
	movabsq	$.L.str.126, %rsi
	movb	$0, %al
	callq	fprintf
	movq	p_stat, %rdi
	movabsq	$.L.str.127, %rsi
	movb	$0, %al
	callq	fprintf
	movq	p_stat, %rdi
	movabsq	$.L.str.128, %rsi
	movb	$0, %al
	callq	fprintf
	movq	p_stat, %rdi
	movq	stats, %rax
	movl	884(%rax), %edx
	movabsq	$.L.str.129, %rsi
	movb	$0, %al
	callq	fprintf
	movq	p_stat, %rdi
	movq	stats, %rax
	movl	900(%rax), %edx
	movabsq	$.L.str.130, %rsi
	movb	$0, %al
	callq	fprintf
	movq	p_stat, %rdi
	movq	stats, %rax
	movl	888(%rax), %edx
	movabsq	$.L.str.131, %rsi
	movb	$0, %al
	callq	fprintf
	movq	p_stat, %rdi
	movabsq	$.L.str.132, %rsi
	movb	$0, %al
	callq	fprintf
	movq	p_stat, %rdi
	movabsq	$.L.str.133, %rsi
	movb	$0, %al
	callq	fprintf
	movq	p_stat, %rdi
	movabsq	$.L.str.134, %rsi
	movb	$0, %al
	callq	fprintf
	movq	p_stat, %rdi
	movq	stats, %rax
	movl	728(%rax), %edx
	movq	stats, %rax
	vcvtsi2ssl	1028(%rax), %xmm0, %xmm0
	vcvtsi2ssl	-80(%rbp), %xmm0, %xmm1
	vdivss	%xmm1, %xmm0, %xmm0
	vcvtss2sd	%xmm0, %xmm0, %xmm0
	movabsq	$.L.str.135, %rsi
	movb	$1, %al
	callq	fprintf
	movq	p_stat, %rdi
	movq	stats, %rax
	movl	732(%rax), %edx
	movq	stats, %rax
	vcvtsi2ssl	1032(%rax), %xmm0, %xmm0
	vcvtsi2ssl	-80(%rbp), %xmm0, %xmm1
	vdivss	%xmm1, %xmm0, %xmm0
	vcvtss2sd	%xmm0, %xmm0, %xmm0
	movabsq	$.L.str.136, %rsi
	movb	$1, %al
	callq	fprintf
	movq	p_stat, %rdi
	movq	stats, %rax
	movl	736(%rax), %edx
	movq	stats, %rax
	vcvtsi2ssl	1036(%rax), %xmm0, %xmm0
	vcvtsi2ssl	-80(%rbp), %xmm0, %xmm1
	vdivss	%xmm1, %xmm0, %xmm0
	vcvtss2sd	%xmm0, %xmm0, %xmm0
	movabsq	$.L.str.137, %rsi
	movb	$1, %al
	callq	fprintf
	movq	p_stat, %rdi
	movq	stats, %rax
	movl	740(%rax), %edx
	movq	stats, %rax
	vcvtsi2ssl	1040(%rax), %xmm0, %xmm0
	vcvtsi2ssl	-80(%rbp), %xmm0, %xmm1
	vdivss	%xmm1, %xmm0, %xmm0
	vcvtss2sd	%xmm0, %xmm0, %xmm0
	movabsq	$.L.str.138, %rsi
	movb	$1, %al
	callq	fprintf
	movq	p_stat, %rdi
	movq	stats, %rax
	movl	760(%rax), %edx
	movq	stats, %rax
	vcvtsi2ssl	1060(%rax), %xmm0, %xmm0
	vcvtsi2ssl	-80(%rbp), %xmm0, %xmm1
	vdivss	%xmm1, %xmm0, %xmm0
	vcvtss2sd	%xmm0, %xmm0, %xmm0
	movabsq	$.L.str.139, %rsi
	movb	$1, %al
	callq	fprintf
	movq	p_stat, %rdi
	movq	stats, %rax
	movl	764(%rax), %edx
	movabsq	$.L.str.140, %rsi
	movb	$0, %al
	callq	fprintf
	movq	p_stat, %rdi
	movq	stats, %rax
	movl	780(%rax), %edx
	movabsq	$.L.str.141, %rsi
	movb	$0, %al
	callq	fprintf
	movq	p_stat, %rdi
	movq	stats, %rax
	movl	768(%rax), %edx
	movabsq	$.L.str.142, %rsi
	movb	$0, %al
	callq	fprintf
	movq	stats, %rax
	movl	1028(%rax), %eax
	movq	stats, %rcx
	addl	1032(%rcx), %eax
	movq	stats, %rcx
	addl	1036(%rcx), %eax
	movq	stats, %rcx
	addl	1040(%rcx), %eax
	movq	stats, %rcx
	addl	1060(%rcx), %eax
	vcvtsi2ss	%eax, %xmm0, %xmm0
	vcvtsi2ssl	-80(%rbp), %xmm0, %xmm1
	vdivss	%xmm1, %xmm0, %xmm0
	vmovss	%xmm0, -96(%rbp)
	movq	input, %rax
	cmpl	$0, 1236(%rax)
	je	.LBB34_153
# %bb.151:                              # %land.lhs.true764
	cmpl	$0, Bframe_ctr
	je	.LBB34_153
# %bb.152:                              # %if.then767
	movq	p_stat, %rdi
	movabsq	$.L.str.143, %rsi
	movb	$0, %al
	callq	fprintf
	movq	p_stat, %rdi
	movabsq	$.L.str.144, %rsi
	movb	$0, %al
	callq	fprintf
	movq	p_stat, %rdi
	movabsq	$.L.str.134, %rsi
	movb	$0, %al
	callq	fprintf
	movq	p_stat, %rdi
	movq	stats, %rax
	movl	788(%rax), %edx
	movq	stats, %rax
	vcvtsi2ssl	1088(%rax), %xmm0, %xmm0
	vcvtsi2ssl	Bframe_ctr, %xmm0, %xmm1
	vdivss	%xmm1, %xmm0, %xmm0
	vcvtss2sd	%xmm0, %xmm0, %xmm0
	movabsq	$.L.str.135, %rsi
	movb	$1, %al
	callq	fprintf
	movq	p_stat, %rdi
	movq	stats, %rax
	movl	792(%rax), %edx
	movq	stats, %rax
	vcvtsi2ssl	1092(%rax), %xmm0, %xmm0
	vcvtsi2ssl	Bframe_ctr, %xmm0, %xmm1
	vdivss	%xmm1, %xmm0, %xmm0
	vcvtss2sd	%xmm0, %xmm0, %xmm0
	movabsq	$.L.str.136, %rsi
	movb	$1, %al
	callq	fprintf
	movq	p_stat, %rdi
	movq	stats, %rax
	movl	796(%rax), %edx
	movq	stats, %rax
	vcvtsi2ssl	1096(%rax), %xmm0, %xmm0
	vcvtsi2ssl	Bframe_ctr, %xmm0, %xmm1
	vdivss	%xmm1, %xmm0, %xmm0
	vcvtss2sd	%xmm0, %xmm0, %xmm0
	movabsq	$.L.str.137, %rsi
	movb	$1, %al
	callq	fprintf
	movq	p_stat, %rdi
	movq	stats, %rax
	movl	800(%rax), %edx
	movq	stats, %rax
	vcvtsi2ssl	1100(%rax), %xmm0, %xmm0
	vcvtsi2ssl	Bframe_ctr, %xmm0, %xmm1
	vdivss	%xmm1, %xmm0, %xmm0
	vcvtss2sd	%xmm0, %xmm0, %xmm0
	movabsq	$.L.str.138, %rsi
	movb	$1, %al
	callq	fprintf
	movq	p_stat, %rdi
	movq	stats, %rax
