	.text
	.file	"loopFilter.c"
	.globl	DeblockFrame            # -- Begin function DeblockFrame
	.p2align	4, 0x90
	.type	DeblockFrame,@function
DeblockFrame:                           # @DeblockFrame
	.cfi_startproc
# %bb.0:                                # %rand_bb
	pushq	%rbp
	.cfi_def_cfa_offset 16
	.cfi_offset %rbp, -16
	movq	%rsp, %rbp
	.cfi_def_cfa_register %rbp
	pushq	%r15
	pushq	%r14
	pushq	%rbx
	pushq	%rax
	.cfi_offset %rbx, -40
	.cfi_offset %r14, -32
	.cfi_offset %r15, -24
	movq	%rdx, %r14
	movq	%rsi, %r15
	movq	%rdi, %rbx
	callq	get_urand
	cmpl	$0, %eax
	jne	.LBB0_17
# %bb.1:                                # %func_DeblockFrame.4
	movq	%rbx, %rdi
	movq	%r15, %rsi
	movq	%r14, %rdx
	callq	DeblockFrame.4
	addq	$8, %rsp
	popq	%rbx
	popq	%r14
	popq	%r15
	popq	%rbp
	.cfi_def_cfa %rsp, 8
	retq
.LBB0_2:                                # %func_DeblockFrame.6
	.cfi_def_cfa %rbp, 16
	movq	%rbx, %rdi
	movq	%r15, %rsi
	movq	%r14, %rdx
	callq	DeblockFrame.6
	addq	$8, %rsp
	popq	%rbx
	popq	%r14
	popq	%r15
	popq	%rbp
	.cfi_def_cfa %rsp, 8
	retq
.LBB0_3:                                # %func_DeblockFrame.10
	.cfi_def_cfa %rbp, 16
	movq	%rbx, %rdi
	movq	%r15, %rsi
	movq	%r14, %rdx
	callq	DeblockFrame.10
	addq	$8, %rsp
	popq	%rbx
	popq	%r14
	popq	%r15
	popq	%rbp
	.cfi_def_cfa %rsp, 8
	retq
.LBB0_4:                                # %func_DeblockFrame.12
	.cfi_def_cfa %rbp, 16
	movq	%rbx, %rdi
	movq	%r15, %rsi
	movq	%r14, %rdx
	callq	DeblockFrame.12
	addq	$8, %rsp
	popq	%rbx
	popq	%r14
	popq	%r15
	popq	%rbp
	.cfi_def_cfa %rsp, 8
	retq
.LBB0_5:                                # %func_DeblockFrame.19
	.cfi_def_cfa %rbp, 16
	movq	%rbx, %rdi
	movq	%r15, %rsi
	movq	%r14, %rdx
	callq	DeblockFrame.19
	addq	$8, %rsp
	popq	%rbx
	popq	%r14
	popq	%r15
	popq	%rbp
	.cfi_def_cfa %rsp, 8
	retq
.LBB0_6:                                # %func_DeblockFrame.20
	.cfi_def_cfa %rbp, 16
	movq	%rbx, %rdi
	movq	%r15, %rsi
	movq	%r14, %rdx
	callq	DeblockFrame.20
	addq	$8, %rsp
	popq	%rbx
	popq	%r14
	popq	%r15
	popq	%rbp
	.cfi_def_cfa %rsp, 8
	retq
.LBB0_7:                                # %func_DeblockFrame.38
	.cfi_def_cfa %rbp, 16
	movq	%rbx, %rdi
	movq	%r15, %rsi
	movq	%r14, %rdx
	callq	DeblockFrame.38
	addq	$8, %rsp
	popq	%rbx
	popq	%r14
	popq	%r15
	popq	%rbp
	.cfi_def_cfa %rsp, 8
	retq
.LBB0_8:                                # %func_DeblockFrame.44
	.cfi_def_cfa %rbp, 16
	movq	%rbx, %rdi
	movq	%r15, %rsi
	movq	%r14, %rdx
	callq	DeblockFrame.44
	addq	$8, %rsp
	popq	%rbx
	popq	%r14
	popq	%r15
	popq	%rbp
	.cfi_def_cfa %rsp, 8
	retq
.LBB0_9:                                # %func_DeblockFrame.45
	.cfi_def_cfa %rbp, 16
	movq	%rbx, %rdi
	movq	%r15, %rsi
	movq	%r14, %rdx
	callq	DeblockFrame.45
	addq	$8, %rsp
	popq	%rbx
	popq	%r14
	popq	%r15
	popq	%rbp
	.cfi_def_cfa %rsp, 8
	retq
.LBB0_10:                               # %func_DeblockFrame.55
	.cfi_def_cfa %rbp, 16
	movq	%rbx, %rdi
	movq	%r15, %rsi
	movq	%r14, %rdx
	callq	DeblockFrame.55
	addq	$8, %rsp
	popq	%rbx
	popq	%r14
	popq	%r15
	popq	%rbp
	.cfi_def_cfa %rsp, 8
	retq
.LBB0_11:                               # %func_DeblockFrame.56
	.cfi_def_cfa %rbp, 16
	movq	%rbx, %rdi
	movq	%r15, %rsi
	movq	%r14, %rdx
	callq	DeblockFrame.56
	addq	$8, %rsp
	popq	%rbx
	popq	%r14
	popq	%r15
	popq	%rbp
	.cfi_def_cfa %rsp, 8
	retq
.LBB0_12:                               # %func_DeblockFrame.58
	.cfi_def_cfa %rbp, 16
	movq	%rbx, %rdi
	movq	%r15, %rsi
	movq	%r14, %rdx
	callq	DeblockFrame.58
	addq	$8, %rsp
	popq	%rbx
	popq	%r14
	popq	%r15
	popq	%rbp
	.cfi_def_cfa %rsp, 8
	retq
.LBB0_13:                               # %func_DeblockFrame.61
	.cfi_def_cfa %rbp, 16
	movq	%rbx, %rdi
	movq	%r15, %rsi
	movq	%r14, %rdx
	callq	DeblockFrame.61
	addq	$8, %rsp
	popq	%rbx
	popq	%r14
	popq	%r15
	popq	%rbp
	.cfi_def_cfa %rsp, 8
	retq
.LBB0_14:                               # %func_DeblockFrame.62
	.cfi_def_cfa %rbp, 16
	movq	%rbx, %rdi
	movq	%r15, %rsi
	movq	%r14, %rdx
	callq	DeblockFrame.62
	addq	$8, %rsp
	popq	%rbx
	popq	%r14
	popq	%r15
	popq	%rbp
	.cfi_def_cfa %rsp, 8
	retq
.LBB0_15:                               # %func_DeblockFrame.63
	.cfi_def_cfa %rbp, 16
	movq	%rbx, %rdi
	movq	%r15, %rsi
	movq	%r14, %rdx
	callq	DeblockFrame.63
	addq	$8, %rsp
	popq	%rbx
	popq	%r14
	popq	%r15
	popq	%rbp
	.cfi_def_cfa %rsp, 8
	retq
.LBB0_16:                               # %func_DeblockFrame.64
	.cfi_def_cfa %rbp, 16
	movq	%rbx, %rdi
	movq	%r15, %rsi
	movq	%r14, %rdx
	callq	DeblockFrame.64
	addq	$8, %rsp
	popq	%rbx
	popq	%r14
	popq	%r15
	popq	%rbp
	.cfi_def_cfa %rsp, 8
	retq
.LBB0_17:                               # %ctrl0
	.cfi_def_cfa %rbp, 16
	cmpl	$1, %eax
	je	.LBB0_2
# %bb.18:                               # %ctrl1
	cmpl	$2, %eax
	je	.LBB0_3
# %bb.19:                               # %ctrl2
	cmpl	$3, %eax
	je	.LBB0_4
# %bb.20:                               # %ctrl3
	cmpl	$4, %eax
	je	.LBB0_5
# %bb.21:                               # %ctrl4
	cmpl	$5, %eax
	je	.LBB0_6
# %bb.22:                               # %ctrl5
	cmpl	$6, %eax
	je	.LBB0_7
# %bb.23:                               # %ctrl6
	cmpl	$7, %eax
	je	.LBB0_8
# %bb.24:                               # %ctrl7
	cmpl	$8, %eax
	je	.LBB0_9
# %bb.25:                               # %ctrl8
	cmpl	$9, %eax
	je	.LBB0_10
# %bb.26:                               # %ctrl9
	cmpl	$10, %eax
	je	.LBB0_11
# %bb.27:                               # %ctrl10
	cmpl	$11, %eax
	je	.LBB0_12
# %bb.28:                               # %ctrl11
	cmpl	$12, %eax
	je	.LBB0_13
# %bb.29:                               # %ctrl12
	cmpl	$13, %eax
	je	.LBB0_14
# %bb.30:                               # %ctrl13
	cmpl	$14, %eax
	je	.LBB0_15
	jmp	.LBB0_16
.Lfunc_end0:
	.size	DeblockFrame, .Lfunc_end0-DeblockFrame
	.cfi_endproc
                                        # -- End function
	.globl	DeblockMb               # -- Begin function DeblockMb
	.p2align	4, 0x90
	.type	DeblockMb,@function
DeblockMb:                              # @DeblockMb
	.cfi_startproc
# %bb.0:                                # %rand_bb
	pushq	%rbp
	.cfi_def_cfa_offset 16
	.cfi_offset %rbp, -16
	movq	%rsp, %rbp
	.cfi_def_cfa_register %rbp
	pushq	%r15
	pushq	%r14
	pushq	%r12
	pushq	%rbx
	.cfi_offset %rbx, -48
	.cfi_offset %r12, -40
	.cfi_offset %r14, -32
	.cfi_offset %r15, -24
	movl	%ecx, %r14d
	movq	%rdx, %r15
	movq	%rsi, %r12
	movq	%rdi, %rbx
	callq	get_urand
	cmpl	$0, %eax
	jne	.LBB1_17
# %bb.1:                                # %func_DeblockMb.2
	movq	%rbx, %rdi
	movq	%r12, %rsi
	movq	%r15, %rdx
	movl	%r14d, %ecx
	callq	DeblockMb.2
	popq	%rbx
	popq	%r12
	popq	%r14
	popq	%r15
	popq	%rbp
	.cfi_def_cfa %rsp, 8
	retq
.LBB1_2:                                # %func_DeblockMb.5
	.cfi_def_cfa %rbp, 16
	movq	%rbx, %rdi
	movq	%r12, %rsi
	movq	%r15, %rdx
	movl	%r14d, %ecx
	callq	DeblockMb.5
	popq	%rbx
	popq	%r12
	popq	%r14
	popq	%r15
	popq	%rbp
	.cfi_def_cfa %rsp, 8
	retq
.LBB1_3:                                # %func_DeblockMb.15
	.cfi_def_cfa %rbp, 16
	movq	%rbx, %rdi
	movq	%r12, %rsi
	movq	%r15, %rdx
	movl	%r14d, %ecx
	callq	DeblockMb.15
	popq	%rbx
	popq	%r12
	popq	%r14
	popq	%r15
	popq	%rbp
	.cfi_def_cfa %rsp, 8
	retq
.LBB1_4:                                # %func_DeblockMb.17
	.cfi_def_cfa %rbp, 16
	movq	%rbx, %rdi
	movq	%r12, %rsi
	movq	%r15, %rdx
	movl	%r14d, %ecx
	callq	DeblockMb.17
	popq	%rbx
	popq	%r12
	popq	%r14
	popq	%r15
	popq	%rbp
	.cfi_def_cfa %rsp, 8
	retq
.LBB1_5:                                # %func_DeblockMb.21
	.cfi_def_cfa %rbp, 16
	movq	%rbx, %rdi
	movq	%r12, %rsi
	movq	%r15, %rdx
	movl	%r14d, %ecx
	callq	DeblockMb.21
	popq	%rbx
	popq	%r12
	popq	%r14
	popq	%r15
	popq	%rbp
	.cfi_def_cfa %rsp, 8
	retq
.LBB1_6:                                # %func_DeblockMb.22
	.cfi_def_cfa %rbp, 16
	movq	%rbx, %rdi
	movq	%r12, %rsi
	movq	%r15, %rdx
	movl	%r14d, %ecx
	callq	DeblockMb.22
	popq	%rbx
	popq	%r12
	popq	%r14
	popq	%r15
	popq	%rbp
	.cfi_def_cfa %rsp, 8
	retq
.LBB1_7:                                # %func_DeblockMb.23
	.cfi_def_cfa %rbp, 16
	movq	%rbx, %rdi
	movq	%r12, %rsi
	movq	%r15, %rdx
	movl	%r14d, %ecx
	callq	DeblockMb.23
	popq	%rbx
	popq	%r12
	popq	%r14
	popq	%r15
	popq	%rbp
	.cfi_def_cfa %rsp, 8
	retq
.LBB1_8:                                # %func_DeblockMb.24
	.cfi_def_cfa %rbp, 16
	movq	%rbx, %rdi
	movq	%r12, %rsi
	movq	%r15, %rdx
	movl	%r14d, %ecx
	callq	DeblockMb.24
	popq	%rbx
	popq	%r12
	popq	%r14
	popq	%r15
	popq	%rbp
	.cfi_def_cfa %rsp, 8
	retq
.LBB1_9:                                # %func_DeblockMb.26
	.cfi_def_cfa %rbp, 16
	movq	%rbx, %rdi
	movq	%r12, %rsi
	movq	%r15, %rdx
	movl	%r14d, %ecx
	callq	DeblockMb.26
	popq	%rbx
	popq	%r12
	popq	%r14
	popq	%r15
	popq	%rbp
	.cfi_def_cfa %rsp, 8
	retq
.LBB1_10:                               # %func_DeblockMb.36
	.cfi_def_cfa %rbp, 16
	movq	%rbx, %rdi
	movq	%r12, %rsi
	movq	%r15, %rdx
	movl	%r14d, %ecx
	callq	DeblockMb.36
	popq	%rbx
	popq	%r12
	popq	%r14
	popq	%r15
	popq	%rbp
	.cfi_def_cfa %rsp, 8
	retq
.LBB1_11:                               # %func_DeblockMb.40
	.cfi_def_cfa %rbp, 16
	movq	%rbx, %rdi
	movq	%r12, %rsi
	movq	%r15, %rdx
	movl	%r14d, %ecx
	callq	DeblockMb.40
	popq	%rbx
	popq	%r12
	popq	%r14
	popq	%r15
	popq	%rbp
	.cfi_def_cfa %rsp, 8
	retq
.LBB1_12:                               # %func_DeblockMb.41
	.cfi_def_cfa %rbp, 16
	movq	%rbx, %rdi
	movq	%r12, %rsi
	movq	%r15, %rdx
	movl	%r14d, %ecx
	callq	DeblockMb.41
	popq	%rbx
	popq	%r12
	popq	%r14
	popq	%r15
	popq	%rbp
	.cfi_def_cfa %rsp, 8
	retq
.LBB1_13:                               # %func_DeblockMb.43
	.cfi_def_cfa %rbp, 16
	movq	%rbx, %rdi
	movq	%r12, %rsi
	movq	%r15, %rdx
	movl	%r14d, %ecx
	callq	DeblockMb.43
	popq	%rbx
	popq	%r12
	popq	%r14
	popq	%r15
	popq	%rbp
	.cfi_def_cfa %rsp, 8
	retq
.LBB1_14:                               # %func_DeblockMb.48
	.cfi_def_cfa %rbp, 16
	movq	%rbx, %rdi
	movq	%r12, %rsi
	movq	%r15, %rdx
	movl	%r14d, %ecx
	callq	DeblockMb.48
	popq	%rbx
	popq	%r12
	popq	%r14
	popq	%r15
	popq	%rbp
	.cfi_def_cfa %rsp, 8
	retq
.LBB1_15:                               # %func_DeblockMb.49
	.cfi_def_cfa %rbp, 16
	movq	%rbx, %rdi
	movq	%r12, %rsi
	movq	%r15, %rdx
	movl	%r14d, %ecx
	callq	DeblockMb.49
	popq	%rbx
	popq	%r12
	popq	%r14
	popq	%r15
	popq	%rbp
	.cfi_def_cfa %rsp, 8
	retq
.LBB1_16:                               # %func_DeblockMb.51
	.cfi_def_cfa %rbp, 16
	movq	%rbx, %rdi
	movq	%r12, %rsi
	movq	%r15, %rdx
	movl	%r14d, %ecx
	callq	DeblockMb.51
	popq	%rbx
	popq	%r12
	popq	%r14
	popq	%r15
	popq	%rbp
	.cfi_def_cfa %rsp, 8
	retq
.LBB1_17:                               # %ctrl0
	.cfi_def_cfa %rbp, 16
	cmpl	$1, %eax
	je	.LBB1_2
# %bb.18:                               # %ctrl1
	cmpl	$2, %eax
	je	.LBB1_3
# %bb.19:                               # %ctrl2
	cmpl	$3, %eax
	je	.LBB1_4
# %bb.20:                               # %ctrl3
	cmpl	$4, %eax
	je	.LBB1_5
# %bb.21:                               # %ctrl4
	cmpl	$5, %eax
	je	.LBB1_6
# %bb.22:                               # %ctrl5
	cmpl	$6, %eax
	je	.LBB1_7
# %bb.23:                               # %ctrl6
	cmpl	$7, %eax
	je	.LBB1_8
# %bb.24:                               # %ctrl7
	cmpl	$8, %eax
	je	.LBB1_9
# %bb.25:                               # %ctrl8
	cmpl	$9, %eax
	je	.LBB1_10
# %bb.26:                               # %ctrl9
	cmpl	$10, %eax
	je	.LBB1_11
# %bb.27:                               # %ctrl10
	cmpl	$11, %eax
	je	.LBB1_12
# %bb.28:                               # %ctrl11
	cmpl	$12, %eax
	je	.LBB1_13
# %bb.29:                               # %ctrl12
	cmpl	$13, %eax
	je	.LBB1_14
# %bb.30:                               # %ctrl13
	cmpl	$14, %eax
	je	.LBB1_15
	jmp	.LBB1_16
.Lfunc_end1:
	.size	DeblockMb, .Lfunc_end1-DeblockMb
	.cfi_endproc
                                        # -- End function
	.globl	GetStrength             # -- Begin function GetStrength
	.p2align	4, 0x90
	.type	GetStrength,@function
GetStrength:                            # @GetStrength
	.cfi_startproc
# %bb.0:                                # %rand_bb
	pushq	%rbp
	.cfi_def_cfa_offset 16
	.cfi_offset %rbp, -16
	movq	%rsp, %rbp
	.cfi_def_cfa_register %rbp
	pushq	%r15
	pushq	%r14
	pushq	%r13
	pushq	%r12
	pushq	%rbx
	pushq	%rax
	.cfi_offset %rbx, -56
	.cfi_offset %r12, -48
	.cfi_offset %r13, -40
	.cfi_offset %r14, -32
	.cfi_offset %r15, -24
	movl	%r9d, -44(%rbp)         # 4-byte Spill
	movl	%r8d, %r12d
	movl	%ecx, %r13d
	movl	%edx, %ebx
	movq	%rsi, %r14
	movq	%rdi, %r15
	callq	get_urand
	cmpl	$0, %eax
	jne	.LBB2_17
# %bb.1:                                # %func_GetStrength.7
	movq	%r15, %rdi
	movq	%r14, %rsi
	movl	%ebx, %edx
	movl	%r13d, %ecx
	movl	%r12d, %r8d
	movl	-44(%rbp), %r9d         # 4-byte Reload
	callq	GetStrength.7
	addq	$8, %rsp
	popq	%rbx
	popq	%r12
	popq	%r13
	popq	%r14
	popq	%r15
	popq	%rbp
	.cfi_def_cfa %rsp, 8
	retq
.LBB2_2:                                # %func_GetStrength.8
	.cfi_def_cfa %rbp, 16
	movl	%r13d, %ecx
	movl	%r11d, %r8d
	movl	%r10d, %r9d
	callq	GetStrength.8
	addq	$8, %rsp
	popq	%rbx
	popq	%r12
	popq	%r13
	popq	%r14
	popq	%r15
	popq	%rbp
	.cfi_def_cfa %rsp, 8
	retq
.LBB2_3:                                # %func_GetStrength.14
	.cfi_def_cfa %rbp, 16
	movq	%rbx, %rdi
	movq	%r14, %rsi
	movl	%r12d, %edx
	movl	%r15d, %ecx
	callq	GetStrength.14
	addq	$8, %rsp
	popq	%rbx
	popq	%r12
	popq	%r13
	popq	%r14
	popq	%r15
	popq	%rbp
	.cfi_def_cfa %rsp, 8
	retq
.LBB2_4:                                # %func_GetStrength.16
	.cfi_def_cfa %rbp, 16
	movq	%rbx, %rdi
	movq	%r14, %rsi
	movl	%r12d, %edx
	movl	%r15d, %ecx
	callq	GetStrength.16
	addq	$8, %rsp
	popq	%rbx
	popq	%r12
	popq	%r13
	popq	%r14
	popq	%r15
	popq	%rbp
	.cfi_def_cfa %rsp, 8
	retq
.LBB2_5:                                # %func_GetStrength.18
	.cfi_def_cfa %rbp, 16
	movq	%rbx, %rdi
	movq	%r14, %rsi
	movl	%r12d, %edx
	movl	%r15d, %ecx
	callq	GetStrength.18
	addq	$8, %rsp
	popq	%rbx
	popq	%r12
	popq	%r13
	popq	%r14
	popq	%r15
	popq	%rbp
	.cfi_def_cfa %rsp, 8
	retq
.LBB2_6:                                # %func_GetStrength.25
	.cfi_def_cfa %rbp, 16
	movq	%rbx, %rdi
	movq	%r14, %rsi
	movl	%r12d, %edx
	movl	%r15d, %ecx
	callq	GetStrength.25
	addq	$8, %rsp
	popq	%rbx
	popq	%r12
	popq	%r13
	popq	%r14
	popq	%r15
	popq	%rbp
	.cfi_def_cfa %rsp, 8
	retq
.LBB2_7:                                # %func_GetStrength.27
	.cfi_def_cfa %rbp, 16
	movq	%rbx, %rdi
	movq	%r14, %rsi
	movl	%r12d, %edx
	movl	%r15d, %ecx
	callq	GetStrength.27
	addq	$8, %rsp
	popq	%rbx
	popq	%r12
	popq	%r13
	popq	%r14
	popq	%r15
	popq	%rbp
	.cfi_def_cfa %rsp, 8
	retq
.LBB2_8:                                # %func_GetStrength.28
	.cfi_def_cfa %rbp, 16
	movq	%rbx, %rdi
	movq	%r14, %rsi
	movl	%r12d, %edx
	movl	%r15d, %ecx
	callq	GetStrength.28
	addq	$8, %rsp
	popq	%rbx
	popq	%r12
	popq	%r13
	popq	%r14
	popq	%r15
	popq	%rbp
	.cfi_def_cfa %rsp, 8
	retq
.LBB2_9:                                # %func_GetStrength.30
	.cfi_def_cfa %rbp, 16
	movq	%rbx, %rdi
	movq	%r14, %rsi
	movl	%r12d, %edx
	movl	%r15d, %ecx
	callq	GetStrength.30
	addq	$8, %rsp
	popq	%rbx
	popq	%r12
	popq	%r13
	popq	%r14
	popq	%r15
	popq	%rbp
	.cfi_def_cfa %rsp, 8
	retq
.LBB2_10:                               # %func_GetStrength.32
	.cfi_def_cfa %rbp, 16
	movq	%rbx, %rdi
	movq	%r14, %rsi
	movl	%r12d, %edx
	movl	%r15d, %ecx
	callq	GetStrength.32
	addq	$8, %rsp
	popq	%rbx
	popq	%r12
	popq	%r13
	popq	%r14
	popq	%r15
	popq	%rbp
	.cfi_def_cfa %rsp, 8
	retq
.LBB2_11:                               # %func_GetStrength.34
	.cfi_def_cfa %rbp, 16
	movq	%rbx, %rdi
	movq	%r14, %rsi
	movl	%r12d, %edx
	movl	%r15d, %ecx
	callq	GetStrength.34
	addq	$8, %rsp
	popq	%rbx
	popq	%r12
	popq	%r13
	popq	%r14
	popq	%r15
	popq	%rbp
	.cfi_def_cfa %rsp, 8
	retq
.LBB2_12:                               # %func_GetStrength.35
	.cfi_def_cfa %rbp, 16
	movq	%rbx, %rdi
	movq	%r14, %rsi
	movl	%r12d, %edx
	movl	%r15d, %ecx
	callq	GetStrength.35
	addq	$8, %rsp
	popq	%rbx
	popq	%r12
	popq	%r13
	popq	%r14
	popq	%r15
	popq	%rbp
	.cfi_def_cfa %rsp, 8
	retq
.LBB2_13:                               # %func_GetStrength.37
	.cfi_def_cfa %rbp, 16
	movq	%rbx, %rdi
	movq	%r14, %rsi
	movl	%r12d, %edx
	movl	%r15d, %ecx
	callq	GetStrength.37
	addq	$8, %rsp
	popq	%rbx
	popq	%r12
	popq	%r13
	popq	%r14
	popq	%r15
	popq	%rbp
	.cfi_def_cfa %rsp, 8
	retq
.LBB2_14:                               # %func_GetStrength.42
	.cfi_def_cfa %rbp, 16
	movq	%rbx, %rdi
	movq	%r14, %rsi
	movl	%r12d, %edx
	movl	%r15d, %ecx
	callq	GetStrength.42
	addq	$8, %rsp
	popq	%rbx
	popq	%r12
	popq	%r13
	popq	%r14
	popq	%r15
	popq	%rbp
	.cfi_def_cfa %rsp, 8
	retq
.LBB2_15:                               # %func_GetStrength.47
	.cfi_def_cfa %rbp, 16
	movl	%r13d, %ecx
	movl	%r11d, %r8d
	movl	%r10d, %r9d
	callq	GetStrength.47
	addq	$8, %rsp
	popq	%rbx
	popq	%r12
	popq	%r13
	popq	%r14
	popq	%r15
	popq	%rbp
	.cfi_def_cfa %rsp, 8
	retq
.LBB2_16:                               # %func_GetStrength.50
	.cfi_def_cfa %rbp, 16
	movl	%r13d, %ecx
	movl	%r11d, %r8d
	movl	%r10d, %r9d
	callq	GetStrength.50
	addq	$8, %rsp
	popq	%rbx
	popq	%r12
	popq	%r13
	popq	%r14
	popq	%r15
	popq	%rbp
	.cfi_def_cfa %rsp, 8
	retq
.LBB2_17:                               # %ctrl0
	.cfi_def_cfa %rbp, 16
	movq	%r15, %rdi
	movq	%r14, %rsi
	movl	%ebx, %edx
	movl	%r12d, %r11d
	movl	-44(%rbp), %r10d        # 4-byte Reload
	cmpl	$1, %eax
	je	.LBB2_2
# %bb.18:                               # %ctrl1
	cmpl	$2, %eax
	movl	%r10d, %r9d
	movl	%r11d, %r8d
	movl	%r13d, %r15d
	movl	%edx, %r12d
	movq	%rsi, %r14
	movq	%rdi, %rbx
	je	.LBB2_3
# %bb.19:                               # %ctrl2
	cmpl	$3, %eax
	je	.LBB2_4
# %bb.20:                               # %ctrl3
	cmpl	$4, %eax
	je	.LBB2_5
# %bb.21:                               # %ctrl4
	cmpl	$5, %eax
	je	.LBB2_6
# %bb.22:                               # %ctrl5
	cmpl	$6, %eax
	je	.LBB2_7
# %bb.23:                               # %ctrl6
	cmpl	$7, %eax
	je	.LBB2_8
# %bb.24:                               # %ctrl7
	cmpl	$8, %eax
	je	.LBB2_9
# %bb.25:                               # %ctrl8
	cmpl	$9, %eax
	je	.LBB2_10
# %bb.26:                               # %ctrl9
	cmpl	$10, %eax
	je	.LBB2_11
# %bb.27:                               # %ctrl10
	cmpl	$11, %eax
	je	.LBB2_12
# %bb.28:                               # %ctrl11
	cmpl	$12, %eax
	je	.LBB2_13
# %bb.29:                               # %ctrl12
	cmpl	$13, %eax
	je	.LBB2_14
# %bb.30:                               # %ctrl13
	cmpl	$14, %eax
	je	.LBB2_15
	jmp	.LBB2_16
.Lfunc_end2:
	.size	GetStrength, .Lfunc_end2-GetStrength
	.cfi_endproc
                                        # -- End function
	.globl	EdgeLoop                # -- Begin function EdgeLoop
	.p2align	4, 0x90
	.type	EdgeLoop,@function
EdgeLoop:                               # @EdgeLoop
	.cfi_startproc
# %bb.0:                                # %rand_bb
	pushq	%rbp
	.cfi_def_cfa_offset 16
	.cfi_offset %rbp, -16
	movq	%rsp, %rbp
	.cfi_def_cfa_register %rbp
	pushq	%r15
	pushq	%r14
	pushq	%r13
	pushq	%r12
	pushq	%rbx
	subq	$56, %rsp
	.cfi_offset %rbx, -56
	.cfi_offset %r12, -48
	.cfi_offset %r13, -40
	.cfi_offset %r14, -32
	.cfi_offset %r15, -24
	movl	%r9d, -44(%rbp)         # 4-byte Spill
	movl	%r8d, %r15d
	movl	%ecx, %r12d
	movq	%rdx, %r13
	movq	%rsi, %r14
	movq	%rdi, %rbx
	callq	get_urand
	cmpl	$0, %eax
	jne	.LBB3_17
# %bb.1:                                # %func_EdgeLoop.1
	movq	%rbx, %rdi
	movq	%r14, %rsi
	movq	%r13, %rdx
	movl	%r12d, %ecx
	movl	%r15d, %r8d
	movl	-44(%rbp), %r9d         # 4-byte Reload
	movl	16(%rbp), %eax
	movl	%eax, (%rsp)
	movl	24(%rbp), %eax
	movl	%eax, 8(%rsp)
	movl	32(%rbp), %eax
	movl	%eax, 16(%rsp)
	movl	40(%rbp), %eax
	movl	%eax, 24(%rsp)
	movl	48(%rbp), %eax
	movl	%eax, 32(%rsp)
	callq	EdgeLoop.1
	addq	$56, %rsp
	popq	%rbx
	popq	%r12
	popq	%r13
	popq	%r14
	popq	%r15
	popq	%rbp
	.cfi_def_cfa %rsp, 8
	retq
.LBB3_2:                                # %func_EdgeLoop.3
	.cfi_def_cfa %rbp, 16
	movl	%r15d, %r8d
	movl	%ebx, %r9d
	movl	%r13d, (%rsp)
	movl	24(%rbp), %eax
	movl	%eax, 8(%rsp)
	movl	32(%rbp), %eax
	movl	%eax, 16(%rsp)
	movl	40(%rbp), %eax
	movl	%eax, 24(%rsp)
	movl	48(%rbp), %eax
	movl	%eax, 32(%rsp)
	callq	EdgeLoop.3
	addq	$56, %rsp
	popq	%rbx
	popq	%r12
	popq	%r13
	popq	%r14
	popq	%r15
	popq	%rbp
	.cfi_def_cfa %rsp, 8
	retq
.LBB3_3:                                # %func_EdgeLoop.9
	.cfi_def_cfa %rbp, 16
	movl	%r11d, (%rsp)
	movl	%r10d, 8(%rsp)
	movl	32(%rbp), %eax
	movl	%eax, 16(%rsp)
	movl	%r12d, 24(%rsp)
	movl	%r14d, 32(%rsp)
	callq	EdgeLoop.9
	addq	$56, %rsp
	popq	%rbx
	popq	%r12
	popq	%r13
	popq	%r14
	popq	%r15
	popq	%rbp
	.cfi_def_cfa %rsp, 8
	retq
.LBB3_4:                                # %func_EdgeLoop.11
	.cfi_def_cfa %rbp, 16
	movl	-48(%rbp), %r8d         # 4-byte Reload
	movl	-44(%rbp), %r9d         # 4-byte Reload
	movl	%r11d, (%rsp)
	movl	%r10d, 8(%rsp)
	movl	32(%rbp), %eax
	movl	%eax, 16(%rsp)
	movl	%r12d, 24(%rsp)
	movl	48(%rbp), %eax
	movl	%eax, 32(%rsp)
	callq	EdgeLoop.11
	addq	$56, %rsp
	popq	%rbx
	popq	%r12
	popq	%r13
	popq	%r14
	popq	%r15
	popq	%rbp
	.cfi_def_cfa %rsp, 8
	retq
.LBB3_5:                                # %func_EdgeLoop.13
	.cfi_def_cfa %rbp, 16
	movq	%r9, %rsi
	movl	-48(%rbp), %r8d         # 4-byte Reload
	movl	-44(%rbp), %r9d         # 4-byte Reload
	movl	%r11d, (%rsp)
	movl	%r10d, 8(%rsp)
	movl	32(%rbp), %eax
	movl	%eax, 16(%rsp)
	movl	%r12d, 24(%rsp)
	movl	48(%rbp), %eax
	movl	%eax, 32(%rsp)
	callq	EdgeLoop.13
	addq	$56, %rsp
	popq	%rbx
	popq	%r12
	popq	%r13
	popq	%r14
	popq	%r15
	popq	%rbp
	.cfi_def_cfa %rsp, 8
	retq
.LBB3_6:                                # %func_EdgeLoop.29
	.cfi_def_cfa %rbp, 16
	movq	%r9, %rsi
	movl	-48(%rbp), %r8d         # 4-byte Reload
	movl	-44(%rbp), %r9d         # 4-byte Reload
	movl	%r11d, (%rsp)
	movl	%r10d, 8(%rsp)
	movl	32(%rbp), %eax
	movl	%eax, 16(%rsp)
	movl	%r12d, 24(%rsp)
	movl	48(%rbp), %eax
	movl	%eax, 32(%rsp)
	callq	EdgeLoop.29
	addq	$56, %rsp
	popq	%rbx
	popq	%r12
	popq	%r13
	popq	%r14
	popq	%r15
	popq	%rbp
	.cfi_def_cfa %rsp, 8
	retq
.LBB3_7:                                # %func_EdgeLoop.31
	.cfi_def_cfa %rbp, 16
	movq	%r9, %rsi
	movl	-48(%rbp), %r8d         # 4-byte Reload
	movl	-44(%rbp), %r9d         # 4-byte Reload
	movl	%r11d, (%rsp)
	movl	%r10d, 8(%rsp)
	movl	32(%rbp), %eax
	movl	%eax, 16(%rsp)
	movl	%r12d, 24(%rsp)
	movl	48(%rbp), %eax
	movl	%eax, 32(%rsp)
	callq	EdgeLoop.31
	addq	$56, %rsp
	popq	%rbx
	popq	%r12
	popq	%r13
	popq	%r14
	popq	%r15
	popq	%rbp
	.cfi_def_cfa %rsp, 8
	retq
.LBB3_8:                                # %func_EdgeLoop.33
	.cfi_def_cfa %rbp, 16
	movq	%r9, %rsi
	movl	-48(%rbp), %r8d         # 4-byte Reload
	movl	-44(%rbp), %r9d         # 4-byte Reload
	movl	%r11d, (%rsp)
	movl	%r10d, 8(%rsp)
	movl	32(%rbp), %eax
	movl	%eax, 16(%rsp)
	movl	%r12d, 24(%rsp)
	movl	48(%rbp), %eax
	movl	%eax, 32(%rsp)
	callq	EdgeLoop.33
	addq	$56, %rsp
	popq	%rbx
	popq	%r12
	popq	%r13
	popq	%r14
	popq	%r15
	popq	%rbp
	.cfi_def_cfa %rsp, 8
	retq
.LBB3_9:                                # %func_EdgeLoop.39
	.cfi_def_cfa %rbp, 16
	movq	%r9, %rsi
	movl	-48(%rbp), %r8d         # 4-byte Reload
	movl	-44(%rbp), %r9d         # 4-byte Reload
	movl	%r11d, (%rsp)
	movl	%r10d, 8(%rsp)
	movl	32(%rbp), %eax
	movl	%eax, 16(%rsp)
	movl	%r12d, 24(%rsp)
	movl	48(%rbp), %eax
	movl	%eax, 32(%rsp)
	callq	EdgeLoop.39
	addq	$56, %rsp
	popq	%rbx
	popq	%r12
	popq	%r13
	popq	%r14
	popq	%r15
	popq	%rbp
	.cfi_def_cfa %rsp, 8
	retq
.LBB3_10:                               # %func_EdgeLoop.46
	.cfi_def_cfa %rbp, 16
	movq	%r9, %rsi
	movl	-48(%rbp), %r8d         # 4-byte Reload
	movl	-44(%rbp), %r9d         # 4-byte Reload
	movl	%r11d, (%rsp)
	movl	%r10d, 8(%rsp)
	movl	32(%rbp), %eax
	movl	%eax, 16(%rsp)
	movl	%r12d, 24(%rsp)
	movl	48(%rbp), %eax
	movl	%eax, 32(%rsp)
	callq	EdgeLoop.46
	addq	$56, %rsp
	popq	%rbx
	popq	%r12
	popq	%r13
	popq	%r14
	popq	%r15
	popq	%rbp
	.cfi_def_cfa %rsp, 8
	retq
.LBB3_11:                               # %func_EdgeLoop.52
	.cfi_def_cfa %rbp, 16
	movq	%r9, %rsi
	movl	-48(%rbp), %r8d         # 4-byte Reload
	movl	-44(%rbp), %r9d         # 4-byte Reload
	movl	%r11d, (%rsp)
	movl	%r10d, 8(%rsp)
	movl	32(%rbp), %eax
	movl	%eax, 16(%rsp)
	movl	%r12d, 24(%rsp)
	movl	48(%rbp), %eax
	movl	%eax, 32(%rsp)
	callq	EdgeLoop.52
	addq	$56, %rsp
	popq	%rbx
	popq	%r12
	popq	%r13
	popq	%r14
	popq	%r15
	popq	%rbp
	.cfi_def_cfa %rsp, 8
	retq
.LBB3_12:                               # %func_EdgeLoop.53
	.cfi_def_cfa %rbp, 16
	movq	%r9, %rsi
	movl	-48(%rbp), %r8d         # 4-byte Reload
	movl	-44(%rbp), %r9d         # 4-byte Reload
	movl	%r11d, (%rsp)
	movl	%r10d, 8(%rsp)
	movl	32(%rbp), %eax
	movl	%eax, 16(%rsp)
	movl	%r12d, 24(%rsp)
	movl	48(%rbp), %eax
	movl	%eax, 32(%rsp)
	callq	EdgeLoop.53
	addq	$56, %rsp
	popq	%rbx
	popq	%r12
	popq	%r13
	popq	%r14
	popq	%r15
	popq	%rbp
	.cfi_def_cfa %rsp, 8
	retq
.LBB3_13:                               # %func_EdgeLoop.54
	.cfi_def_cfa %rbp, 16
	movq	%r9, %rsi
	movl	-48(%rbp), %r8d         # 4-byte Reload
	movl	-44(%rbp), %r9d         # 4-byte Reload
	movl	%r11d, (%rsp)
	movl	%r10d, 8(%rsp)
	movl	32(%rbp), %eax
	movl	%eax, 16(%rsp)
	movl	%r12d, 24(%rsp)
	movl	48(%rbp), %eax
	movl	%eax, 32(%rsp)
	callq	EdgeLoop.54
	addq	$56, %rsp
	popq	%rbx
	popq	%r12
	popq	%r13
	popq	%r14
	popq	%r15
	popq	%rbp
	.cfi_def_cfa %rsp, 8
	retq
.LBB3_14:                               # %func_EdgeLoop.57
	.cfi_def_cfa %rbp, 16
	movq	%r9, %rsi
	movl	-48(%rbp), %r8d         # 4-byte Reload
	movl	-44(%rbp), %r9d         # 4-byte Reload
	movl	16(%rbp), %eax
	movl	%eax, (%rsp)
	movl	24(%rbp), %eax
	movl	%eax, 8(%rsp)
	movl	32(%rbp), %eax
	movl	%eax, 16(%rsp)
	movl	40(%rbp), %eax
	movl	%eax, 24(%rsp)
	movl	48(%rbp), %eax
	movl	%eax, 32(%rsp)
	callq	EdgeLoop.57
	addq	$56, %rsp
	popq	%rbx
	popq	%r12
	popq	%r13
	popq	%r14
	popq	%r15
	popq	%rbp
	.cfi_def_cfa %rsp, 8
	retq
.LBB3_15:                               # %func_EdgeLoop.59
	.cfi_def_cfa %rbp, 16
	movl	%r15d, %r8d
	movl	%ebx, %r9d
	movl	%r13d, (%rsp)
	movl	24(%rbp), %eax
	movl	%eax, 8(%rsp)
	movl	32(%rbp), %eax
	movl	%eax, 16(%rsp)
	movl	40(%rbp), %eax
	movl	%eax, 24(%rsp)
	movl	48(%rbp), %eax
	movl	%eax, 32(%rsp)
	callq	EdgeLoop.59
	addq	$56, %rsp
	popq	%rbx
	popq	%r12
	popq	%r13
	popq	%r14
	popq	%r15
	popq	%rbp
	.cfi_def_cfa %rsp, 8
	retq
.LBB3_16:                               # %func_EdgeLoop.60
	.cfi_def_cfa %rbp, 16
	movl	%r15d, %r8d
	movl	%ebx, %r9d
	movl	%r13d, (%rsp)
	movl	24(%rbp), %eax
	movl	%eax, 8(%rsp)
	movl	32(%rbp), %eax
	movl	%eax, 16(%rsp)
	movl	40(%rbp), %eax
	movl	%eax, 24(%rsp)
	movl	48(%rbp), %eax
	movl	%eax, 32(%rsp)
	callq	EdgeLoop.60
	addq	$56, %rsp
	popq	%rbx
	popq	%r12
	popq	%r13
	popq	%r14
	popq	%r15
	popq	%rbp
	.cfi_def_cfa %rsp, 8
	retq
.LBB3_17:                               # %ctrl0
	.cfi_def_cfa %rbp, 16
	movq	%rbx, %rdi
	movq	%r14, %rsi
	movq	%r13, %rdx
	movl	%r12d, %ecx
	movl	-44(%rbp), %ebx         # 4-byte Reload
	movl	16(%rbp), %r13d
	cmpl	$1, %eax
	je	.LBB3_2
# %bb.18:                               # %ctrl1
	cmpl	$2, %eax
	movl	48(%rbp), %r14d
	movl	40(%rbp), %r12d
	movl	24(%rbp), %r10d
	movl	%r13d, %r11d
	movl	%ebx, %r9d
	movl	%r15d, %r8d
	je	.LBB3_3
# %bb.19:                               # %ctrl2
	movl	%r8d, -48(%rbp)         # 4-byte Spill
	cmpl	$3, %eax
	je	.LBB3_4
# %bb.20:                               # %ctrl3
	cmpl	$4, %eax
	movq	%rsi, %r9
	je	.LBB3_5
# %bb.21:                               # %ctrl4
	cmpl	$5, %eax
	je	.LBB3_6
# %bb.22:                               # %ctrl5
	cmpl	$6, %eax
	je	.LBB3_7
# %bb.23:                               # %ctrl6
	cmpl	$7, %eax
	je	.LBB3_8
# %bb.24:                               # %ctrl7
	cmpl	$8, %eax
	je	.LBB3_9
# %bb.25:                               # %ctrl8
	cmpl	$9, %eax
	je	.LBB3_10
# %bb.26:                               # %ctrl9
	cmpl	$10, %eax
	je	.LBB3_11
# %bb.27:                               # %ctrl10
	cmpl	$11, %eax
	je	.LBB3_12
# %bb.28:                               # %ctrl11
	cmpl	$12, %eax
	je	.LBB3_13
# %bb.29:                               # %ctrl12
	cmpl	$13, %eax
	je	.LBB3_14
# %bb.30:                               # %ctrl13
	cmpl	$14, %eax
	je	.LBB3_15
	jmp	.LBB3_16
.Lfunc_end3:
	.size	EdgeLoop, .Lfunc_end3-EdgeLoop
	.cfi_endproc
                                        # -- End function
	.globl	EdgeLoop.1              # -- Begin function EdgeLoop.1
	.p2align	4, 0x90
	.type	EdgeLoop.1,@function
EdgeLoop.1:                             # @EdgeLoop.1
	.cfi_startproc
# %bb.0:                                # %entry
	pushq	%rbp
	.cfi_def_cfa_offset 16
	.cfi_offset %rbp, -16
	movq	%rsp, %rbp
	.cfi_def_cfa_register %rbp
	pushq	%rbx
	subq	$312, %rsp              # imm = 0x138
	.cfi_offset %rbx, -24
	movl	48(%rbp), %eax
	movl	40(%rbp), %eax
	movl	32(%rbp), %eax
	movl	24(%rbp), %eax
	movl	16(%rbp), %eax
	movl	$1137252667, -184(%rbp) # imm = 0x43C9193B
	movq	%rdi, -216(%rbp)
	movq	%rsi, -248(%rbp)
	movq	%rdx, -56(%rbp)
	movl	%ecx, -148(%rbp)
	movl	%r8d, -132(%rbp)
	movl	%r9d, -144(%rbp)
	movl	$0, -68(%rbp)
	movl	$0, -64(%rbp)
	movl	$0, -40(%rbp)
	movl	$0, -36(%rbp)
	movl	$0, -136(%rbp)
	movl	$0, -100(%rbp)
	movq	$0, -208(%rbp)
	movq	.L__const.EdgeLoop.pelnum_cr, %rax
	movq	%rax, -288(%rbp)
	movq	.L__const.EdgeLoop.pelnum_cr+8, %rax
	movq	%rax, -280(%rbp)
	movq	.L__const.EdgeLoop.pelnum_cr+16, %rax
	movq	%rax, -272(%rbp)
	movq	.L__const.EdgeLoop.pelnum_cr+24, %rax
	movq	%rax, -264(%rbp)
	cmpl	$0, 40(%rbp)
	jne	.LBB4_2
# %bb.1:                                # %if.then
	movq	-56(%rbp), %rax
	movl	72660(%rax), %ecx
	subl	$8, %ecx
                                        # kill: def $cl killed $ecx
	movl	$1, %eax
	shll	%cl, %eax
	movl	%eax, -108(%rbp)
	jmp	.LBB4_3
.LBB4_2:                                # %if.else
	movq	-56(%rbp), %rax
	movl	72664(%rax), %ecx
	subl	$8, %ecx
                                        # kill: def $cl killed $ecx
	movl	$1, %eax
	shll	%cl, %eax
	movl	%eax, -108(%rbp)
.LBB4_3:                                # %if.end
	cmpl	$0, 40(%rbp)
	je	.LBB4_5
# %bb.4:                                # %cond.true
	movslq	16(%rbp), %rax
	shlq	$4, %rax
	leaq	-288(%rbp), %rcx
	addq	%rax, %rcx
	movq	-56(%rbp), %rax
	movslq	72700(%rax), %rax
	movl	(%rcx,%rax,4), %eax
	jmp	.LBB4_6
.LBB4_5:                                # %cond.false
	movl	$16, %eax
	jmp	.LBB4_6
.LBB4_6:                                # %cond.end
	movl	%eax, -172(%rbp)
	movl	$0, -60(%rbp)
.LBB4_7:                                # %for.cond
                                        # =>This Inner Loop Header: Depth=1
	movl	-60(%rbp), %eax
	cmpl	-172(%rbp), %eax
	jge	.LBB4_159
# %bb.8:                                # %for.body
                                        #   in Loop: Header=BB4_7 Depth=1
	cmpl	$0, 16(%rbp)
	je	.LBB4_10
# %bb.9:                                # %cond.true7
                                        #   in Loop: Header=BB4_7 Depth=1
	movl	-60(%rbp), %eax
	jmp	.LBB4_11
.LBB4_10:                               # %cond.false8
                                        #   in Loop: Header=BB4_7 Depth=1
	movl	24(%rbp), %eax
	shll	$2, %eax
.LBB4_11:                               # %cond.end10
                                        #   in Loop: Header=BB4_7 Depth=1
	movl	%eax, -152(%rbp)
	cmpl	$0, 16(%rbp)
	je	.LBB4_16
# %bb.12:                               # %cond.true13
                                        #   in Loop: Header=BB4_7 Depth=1
	cmpl	$4, 24(%rbp)
	jge	.LBB4_14
# %bb.13:                               # %cond.true15
                                        #   in Loop: Header=BB4_7 Depth=1
	movl	24(%rbp), %eax
	shll	$2, %eax
	jmp	.LBB4_15
.LBB4_14:                               # %cond.false17
                                        #   in Loop: Header=BB4_7 Depth=1
	movl	$1, %eax
	jmp	.LBB4_15
.LBB4_15:                               # %cond.end18
                                        #   in Loop: Header=BB4_7 Depth=1
	jmp	.LBB4_17
.LBB4_16:                               # %cond.false20
                                        #   in Loop: Header=BB4_7 Depth=1
	movl	-60(%rbp), %eax
.LBB4_17:                               # %cond.end21
                                        #   in Loop: Header=BB4_7 Depth=1
	movl	%eax, -168(%rbp)
	movl	-148(%rbp), %edi
	movl	-152(%rbp), %esi
	movl	-168(%rbp), %edx
	movl	$1, %ecx
	subl	40(%rbp), %ecx
	leaq	-312(%rbp), %r8
	callq	getNeighbour
	movl	-148(%rbp), %edi
	movl	-152(%rbp), %esi
	movl	$1, %ecx
	movl	$1, %eax
	subl	16(%rbp), %eax
	subl	%eax, %esi
	movl	-168(%rbp), %edx
	subl	16(%rbp), %edx
	subl	40(%rbp), %ecx
	leaq	-240(%rbp), %r8
	callq	getNeighbour
	movl	-232(%rbp), %eax
	movl	%eax, -252(%rbp)
	movl	-228(%rbp), %eax
	movl	%eax, -256(%rbp)
	movq	-56(%rbp), %rax
	movq	14168(%rax), %rax
	movslq	-148(%rbp), %rcx
	imulq	$632, %rcx, %rcx        # imm = 0x278
	addq	%rcx, %rax
	movq	%rax, -120(%rbp)
	movq	-56(%rbp), %rax
	movq	14168(%rax), %rax
	movslq	-236(%rbp), %rcx
	imulq	$632, %rcx, %rcx        # imm = 0x278
	addq	%rcx, %rax
	movq	%rax, -128(%rbp)
	movq	-120(%rbp), %rax
	cmpl	$0, 532(%rax)
	movb	$1, %al
	jne	.LBB4_19
# %bb.18:                               # %lor.rhs
                                        #   in Loop: Header=BB4_7 Depth=1
	movq	-128(%rbp), %rax
	cmpl	$0, 532(%rax)
	setne	%al
.LBB4_19:                               # %lor.end
                                        #   in Loop: Header=BB4_7 Depth=1
	andb	$1, %al
	movzbl	%al, %eax
	movb	%al, fieldModeFilteringFlag
	cmpl	$0, 40(%rbp)
	je	.LBB4_26
# %bb.20:                               # %land.lhs.true
                                        #   in Loop: Header=BB4_7 Depth=1
	cmpl	$8, -172(%rbp)
	jne	.LBB4_26
# %bb.21:                               # %cond.true39
                                        #   in Loop: Header=BB4_7 Depth=1
	movq	-120(%rbp), %rax
	cmpl	$0, 532(%rax)
	je	.LBB4_24
# %bb.22:                               # %land.lhs.true42
                                        #   in Loop: Header=BB4_7 Depth=1
	movq	-128(%rbp), %rax
	cmpl	$0, 532(%rax)
	jne	.LBB4_24
# %bb.23:                               # %cond.true45
                                        #   in Loop: Header=BB4_7 Depth=1
	movl	-60(%rbp), %ecx
	shll	$1, %ecx
	jmp	.LBB4_25
.LBB4_24:                               # %cond.false47
                                        #   in Loop: Header=BB4_7 Depth=1
	movl	-60(%rbp), %ecx
	sarl	$1, %ecx
	shll	$2, %ecx
	movl	-60(%rbp), %eax
	cltd
	movl	$2, %esi
	idivl	%esi
	addl	%edx, %ecx
.LBB4_25:                               # %cond.end49
                                        #   in Loop: Header=BB4_7 Depth=1
	jmp	.LBB4_27
.LBB4_26:                               # %cond.false51
                                        #   in Loop: Header=BB4_7 Depth=1
	movl	-60(%rbp), %ecx
.LBB4_27:                               # %cond.end52
                                        #   in Loop: Header=BB4_7 Depth=1
	movl	%ecx, -192(%rbp)
	cmpl	$0, -240(%rbp)
	jne	.LBB4_29
# %bb.28:                               # %lor.lhs.false
                                        #   in Loop: Header=BB4_7 Depth=1
	movq	-120(%rbp), %rax
	cmpl	$0, 612(%rax)
	jne	.LBB4_157
.LBB4_29:                               # %if.then57
                                        #   in Loop: Header=BB4_7 Depth=1
	cmpl	$0, 16(%rbp)
	je	.LBB4_35
# %bb.30:                               # %cond.true59
                                        #   in Loop: Header=BB4_7 Depth=1
	movzbl	fieldModeFilteringFlag, %eax
	cmpl	$0, %eax
	je	.LBB4_33
# %bb.31:                               # %land.lhs.true62
                                        #   in Loop: Header=BB4_7 Depth=1
	movq	-120(%rbp), %rax
	cmpl	$0, 532(%rax)
	jne	.LBB4_33
# %bb.32:                               # %cond.true65
                                        #   in Loop: Header=BB4_7 Depth=1
	movl	32(%rbp), %eax
	shll	$1, %eax
	jmp	.LBB4_34
.LBB4_33:                               # %cond.false66
                                        #   in Loop: Header=BB4_7 Depth=1
	movl	32(%rbp), %eax
.LBB4_34:                               # %cond.end67
                                        #   in Loop: Header=BB4_7 Depth=1
	jmp	.LBB4_36
.LBB4_35:                               # %cond.false69
                                        #   in Loop: Header=BB4_7 Depth=1
	movl	$1, %eax
	jmp	.LBB4_36
.LBB4_36:                               # %cond.end70
                                        #   in Loop: Header=BB4_7 Depth=1
	movl	%eax, -80(%rbp)
	cmpl	$0, 16(%rbp)
	je	.LBB4_42
# %bb.37:                               # %cond.true73
                                        #   in Loop: Header=BB4_7 Depth=1
	movzbl	fieldModeFilteringFlag, %eax
	cmpl	$0, %eax
	je	.LBB4_40
# %bb.38:                               # %land.lhs.true76
                                        #   in Loop: Header=BB4_7 Depth=1
	movq	-128(%rbp), %rax
	cmpl	$0, 532(%rax)
	jne	.LBB4_40
# %bb.39:                               # %cond.true79
                                        #   in Loop: Header=BB4_7 Depth=1
	movl	32(%rbp), %eax
	shll	$1, %eax
	jmp	.LBB4_41
.LBB4_40:                               # %cond.false81
                                        #   in Loop: Header=BB4_7 Depth=1
	movl	32(%rbp), %eax
.LBB4_41:                               # %cond.end82
                                        #   in Loop: Header=BB4_7 Depth=1
	jmp	.LBB4_43
.LBB4_42:                               # %cond.false84
                                        #   in Loop: Header=BB4_7 Depth=1
	movl	$1, %eax
	jmp	.LBB4_43
.LBB4_43:                               # %cond.end85
                                        #   in Loop: Header=BB4_7 Depth=1
	movl	%eax, -72(%rbp)
	movq	-216(%rbp), %rax
	movslq	-292(%rbp), %rcx
	movq	(%rax,%rcx,8), %rax
	movslq	-296(%rbp), %rcx
	shlq	$1, %rcx
	addq	%rcx, %rax
	movq	%rax, -88(%rbp)
	movq	-216(%rbp), %rax
	movslq	-220(%rbp), %rcx
	movq	(%rax,%rcx,8), %rax
	movslq	-224(%rbp), %rcx
	shlq	$1, %rcx
	addq	%rcx, %rax
	movq	%rax, -96(%rbp)
	cmpl	$0, 40(%rbp)
	je	.LBB4_57
# %bb.44:                               # %cond.true98
                                        #   in Loop: Header=BB4_7 Depth=1
	movq	-128(%rbp), %rax
	movl	12(%rax), %eax
	movq	-56(%rbp), %rcx
	movslq	48(%rbp), %rdx
	addl	72716(%rcx,%rdx,4), %eax
	cmpl	$0, %eax
	jge	.LBB4_46
# %bb.45:                               # %cond.true104
                                        #   in Loop: Header=BB4_7 Depth=1
	xorl	%eax, %eax
	jmp	.LBB4_50
.LBB4_46:                               # %cond.false105
                                        #   in Loop: Header=BB4_7 Depth=1
	movq	-128(%rbp), %rax
	movl	12(%rax), %eax
	movq	-56(%rbp), %rcx
	movslq	48(%rbp), %rdx
	addl	72716(%rcx,%rdx,4), %eax
	cmpl	$51, %eax
	jle	.LBB4_48
# %bb.47:                               # %cond.true113
                                        #   in Loop: Header=BB4_7 Depth=1
	movl	$51, %eax
	jmp	.LBB4_49
.LBB4_48:                               # %cond.false114
                                        #   in Loop: Header=BB4_7 Depth=1
	movq	-128(%rbp), %rax
	movl	12(%rax), %eax
	movq	-56(%rbp), %rcx
	movslq	48(%rbp), %rdx
	addl	72716(%rcx,%rdx,4), %eax
.LBB4_49:                               # %cond.end120
                                        #   in Loop: Header=BB4_7 Depth=1
.LBB4_50:                               # %cond.end122
                                        #   in Loop: Header=BB4_7 Depth=1
	cltq
	movzbl	QP_SCALE_CR(,%rax), %eax
	movq	-120(%rbp), %rcx
	movl	12(%rcx), %ecx
	movq	-56(%rbp), %rdx
	movslq	48(%rbp), %rsi
	addl	72716(%rdx,%rsi,4), %ecx
	cmpl	$0, %ecx
	jge	.LBB4_52
# %bb.51:                               # %cond.true134
                                        #   in Loop: Header=BB4_7 Depth=1
	xorl	%ecx, %ecx
	jmp	.LBB4_56
.LBB4_52:                               # %cond.false135
                                        #   in Loop: Header=BB4_7 Depth=1
	movq	-120(%rbp), %rcx
	movl	12(%rcx), %ecx
	movq	-56(%rbp), %rdx
	movslq	48(%rbp), %rsi
	addl	72716(%rdx,%rsi,4), %ecx
	cmpl	$51, %ecx
	jle	.LBB4_54
# %bb.53:                               # %cond.true143
                                        #   in Loop: Header=BB4_7 Depth=1
	movl	$51, %ecx
	jmp	.LBB4_55
.LBB4_54:                               # %cond.false144
                                        #   in Loop: Header=BB4_7 Depth=1
	movq	-120(%rbp), %rcx
	movl	12(%rcx), %ecx
	movq	-56(%rbp), %rdx
	movslq	48(%rbp), %rsi
	addl	72716(%rdx,%rsi,4), %ecx
.LBB4_55:                               # %cond.end150
                                        #   in Loop: Header=BB4_7 Depth=1
.LBB4_56:                               # %cond.end152
                                        #   in Loop: Header=BB4_7 Depth=1
	movslq	%ecx, %rcx
	movzbl	QP_SCALE_CR(,%rcx), %ecx
	addl	%ecx, %eax
	addl	$1, %eax
	sarl	$1, %eax
	jmp	.LBB4_58
.LBB4_57:                               # %cond.false160
                                        #   in Loop: Header=BB4_7 Depth=1
	movq	-128(%rbp), %rax
	movl	12(%rax), %eax
	movq	-120(%rbp), %rcx
	addl	12(%rcx), %eax
	addl	$1, %eax
	sarl	$1, %eax
.LBB4_58:                               # %cond.end166
                                        #   in Loop: Header=BB4_7 Depth=1
	movl	%eax, -76(%rbp)
	movl	-76(%rbp), %eax
	addl	-132(%rbp), %eax
	cmpl	$0, %eax
	jge	.LBB4_60
# %bb.59:                               # %cond.true171
                                        #   in Loop: Header=BB4_7 Depth=1
	xorl	%eax, %eax
	jmp	.LBB4_64
.LBB4_60:                               # %cond.false172
                                        #   in Loop: Header=BB4_7 Depth=1
	movl	-76(%rbp), %eax
	addl	-132(%rbp), %eax
	cmpl	$51, %eax
	jle	.LBB4_62
# %bb.61:                               # %cond.true176
                                        #   in Loop: Header=BB4_7 Depth=1
	movl	$51, %eax
	jmp	.LBB4_63
.LBB4_62:                               # %cond.false177
                                        #   in Loop: Header=BB4_7 Depth=1
	movl	-76(%rbp), %eax
	addl	-132(%rbp), %eax
.LBB4_63:                               # %cond.end179
                                        #   in Loop: Header=BB4_7 Depth=1
.LBB4_64:                               # %cond.end181
                                        #   in Loop: Header=BB4_7 Depth=1
	movl	%eax, -176(%rbp)
	movl	-76(%rbp), %eax
	addl	-144(%rbp), %eax
	cmpl	$0, %eax
	jge	.LBB4_66
# %bb.65:                               # %cond.true186
                                        #   in Loop: Header=BB4_7 Depth=1
	xorl	%ecx, %ecx
	jmp	.LBB4_70
.LBB4_66:                               # %cond.false187
                                        #   in Loop: Header=BB4_7 Depth=1
	movl	-76(%rbp), %eax
	addl	-144(%rbp), %eax
	cmpl	$51, %eax
	jle	.LBB4_68
# %bb.67:                               # %cond.true191
                                        #   in Loop: Header=BB4_7 Depth=1
	movl	$51, %ecx
	jmp	.LBB4_69
.LBB4_68:                               # %cond.false192
                                        #   in Loop: Header=BB4_7 Depth=1
	movl	-76(%rbp), %ecx
	addl	-144(%rbp), %ecx
.LBB4_69:                               # %cond.end194
                                        #   in Loop: Header=BB4_7 Depth=1
.LBB4_70:                               # %cond.end196
                                        #   in Loop: Header=BB4_7 Depth=1
	xorl	%eax, %eax
	movl	%ecx, -196(%rbp)
	movslq	-176(%rbp), %rcx
	movzbl	ALPHA_TABLE(,%rcx), %ecx
	imull	-108(%rbp), %ecx
	movl	%ecx, -136(%rbp)
	movslq	-196(%rbp), %rcx
	movzbl	BETA_TABLE(,%rcx), %ecx
	imull	-108(%rbp), %ecx
	movl	%ecx, -100(%rbp)
	movslq	-176(%rbp), %rcx
	imulq	$5, %rcx, %rcx
	movabsq	$CLIP_TAB, %rdx
	addq	%rcx, %rdx
	movq	%rdx, -208(%rbp)
	movq	-96(%rbp), %rcx
	movzwl	(%rcx), %ecx
	movl	%ecx, -24(%rbp)
	movq	-88(%rbp), %rcx
	movzwl	(%rcx), %ecx
	movl	%ecx, -20(%rbp)
	movq	-96(%rbp), %rcx
	xorl	%edx, %edx
	subl	-72(%rbp), %edx
	movslq	%edx, %rdx
	movzwl	(%rcx,%rdx,2), %ecx
	movl	%ecx, -16(%rbp)
	movq	-88(%rbp), %rcx
	movslq	-80(%rbp), %rdx
	movzwl	(%rcx,%rdx,2), %ecx
	movl	%ecx, -12(%rbp)
	movq	-96(%rbp), %rcx
	xorl	%edx, %edx
	subl	-72(%rbp), %edx
	shll	$1, %edx
	movslq	%edx, %rdx
	movzwl	(%rcx,%rdx,2), %ecx
	movl	%ecx, -40(%rbp)
	movq	-88(%rbp), %rcx
	movl	-80(%rbp), %edx
	shll	$1, %edx
	movslq	%edx, %rdx
	movzwl	(%rcx,%rdx,2), %ecx
	movl	%ecx, -36(%rbp)
	movq	-96(%rbp), %rcx
	subl	-72(%rbp), %eax
	imull	$3, %eax, %eax
	cltq
	movzwl	(%rcx,%rax,2), %eax
	movl	%eax, -180(%rbp)
	movq	-88(%rbp), %rax
	imull	$3, -80(%rbp), %ecx
	movslq	%ecx, %rcx
	movzwl	(%rax,%rcx,2), %eax
	movl	%eax, -188(%rbp)
	movq	-248(%rbp), %rax
	movslq	-192(%rbp), %rcx
	movzbl	(%rax,%rcx), %eax
	movl	%eax, -160(%rbp)
	cmpl	$0, %eax
	je	.LBB4_156
# %bb.71:                               # %if.then241
                                        #   in Loop: Header=BB4_7 Depth=1
	movl	-20(%rbp), %edi
	subl	-24(%rbp), %edi
	movl	%edi, -140(%rbp)
	callq	abs
	movl	%eax, -156(%rbp)
	movl	-156(%rbp), %eax
	cmpl	-136(%rbp), %eax
	jge	.LBB4_155
# %bb.72:                               # %if.then245
                                        #   in Loop: Header=BB4_7 Depth=1
	movq	-208(%rbp), %rax
	movslq	-160(%rbp), %rcx
	movzbl	(%rax,%rcx), %eax
	imull	-108(%rbp), %eax
	movl	%eax, -44(%rbp)
	movl	-20(%rbp), %edi
	subl	-12(%rbp), %edi
	callq	abs
	movl	%eax, %ebx
	subl	-100(%rbp), %ebx
	movl	-24(%rbp), %edi
	subl	-16(%rbp), %edi
	callq	abs
	subl	-100(%rbp), %eax
	andl	%eax, %ebx
	cmpl	$0, %ebx
	jge	.LBB4_154
# %bb.73:                               # %if.then258
                                        #   in Loop: Header=BB4_7 Depth=1
	cmpl	$0, 40(%rbp)
	jne	.LBB4_75
# %bb.74:                               # %if.then260
                                        #   in Loop: Header=BB4_7 Depth=1
	movl	-20(%rbp), %edi
	subl	-36(%rbp), %edi
	callq	abs
	subl	-100(%rbp), %eax
	cmpl	$0, %eax
	setl	%al
	andb	$1, %al
	movzbl	%al, %eax
	movl	%eax, -64(%rbp)
	movl	-24(%rbp), %edi
	subl	-40(%rbp), %edi
	callq	abs
	subl	-100(%rbp), %eax
	cmpl	$0, %eax
	setl	%al
	andb	$1, %al
	movzbl	%al, %eax
	movl	%eax, -68(%rbp)
.LBB4_75:                               # %if.end271
                                        #   in Loop: Header=BB4_7 Depth=1
	movl	-24(%rbp), %eax
	addl	-20(%rbp), %eax
	movl	%eax, -32(%rbp)
	cmpl	$4, -160(%rbp)
	jne	.LBB4_98
# %bb.76:                               # %if.then275
                                        #   in Loop: Header=BB4_7 Depth=1
	cmpl	$0, 40(%rbp)
	je	.LBB4_78
# %bb.77:                               # %if.then277
                                        #   in Loop: Header=BB4_7 Depth=1
	movl	-12(%rbp), %eax
	shll	$1, %eax
	addl	-20(%rbp), %eax
	addl	-16(%rbp), %eax
	addl	$2, %eax
	sarl	$2, %eax
	movq	-88(%rbp), %rcx
	movw	%ax, (%rcx)
	movl	-16(%rbp), %eax
	shll	$1, %eax
	addl	-24(%rbp), %eax
	addl	-12(%rbp), %eax
	addl	$2, %eax
	sarl	$2, %eax
	movq	-96(%rbp), %rcx
	movw	%ax, (%rcx)
	jmp	.LBB4_97
.LBB4_78:                               # %if.else292
                                        #   in Loop: Header=BB4_7 Depth=1
	movl	-156(%rbp), %eax
	movl	-136(%rbp), %ecx
	sarl	$2, %ecx
	addl	$2, %ecx
	cmpl	%ecx, %eax
	setl	%al
	andb	$1, %al
	movzbl	%al, %eax
	movl	%eax, -164(%rbp)
	movl	-164(%rbp), %eax
	andl	-64(%rbp), %eax
	movl	%eax, -64(%rbp)
	movl	-164(%rbp), %eax
	andl	-68(%rbp), %eax
	movl	%eax, -68(%rbp)
	cmpl	$0, -64(%rbp)
	je	.LBB4_80
# %bb.79:                               # %cond.true300
                                        #   in Loop: Header=BB4_7 Depth=1
	movl	-16(%rbp), %eax
	movl	-12(%rbp), %ecx
	addl	-32(%rbp), %ecx
	shll	$1, %ecx
	addl	%ecx, %eax
	addl	-36(%rbp), %eax
	addl	$4, %eax
	sarl	$3, %eax
	jmp	.LBB4_81
.LBB4_80:                               # %cond.false307
                                        #   in Loop: Header=BB4_7 Depth=1
	movl	-12(%rbp), %eax
	shll	$1, %eax
	addl	-20(%rbp), %eax
	addl	-16(%rbp), %eax
	addl	$2, %eax
	sarl	$2, %eax
.LBB4_81:                               # %cond.end313
                                        #   in Loop: Header=BB4_7 Depth=1
	movq	-88(%rbp), %rcx
	movw	%ax, (%rcx)
	cmpl	$0, -68(%rbp)
	je	.LBB4_83
# %bb.82:                               # %cond.true318
                                        #   in Loop: Header=BB4_7 Depth=1
	movl	-12(%rbp), %eax
	movl	-16(%rbp), %ecx
	addl	-32(%rbp), %ecx
	shll	$1, %ecx
	addl	%ecx, %eax
	addl	-40(%rbp), %eax
	addl	$4, %eax
	sarl	$3, %eax
	jmp	.LBB4_84
.LBB4_83:                               # %cond.false325
                                        #   in Loop: Header=BB4_7 Depth=1
	movl	-16(%rbp), %eax
	shll	$1, %eax
	addl	-24(%rbp), %eax
	addl	-12(%rbp), %eax
	addl	$2, %eax
	sarl	$2, %eax
.LBB4_84:                               # %cond.end331
                                        #   in Loop: Header=BB4_7 Depth=1
	movq	-96(%rbp), %rcx
	movw	%ax, (%rcx)
	cmpl	$0, -64(%rbp)
	je	.LBB4_86
# %bb.85:                               # %cond.true336
                                        #   in Loop: Header=BB4_7 Depth=1
	movl	-36(%rbp), %eax
	addl	-20(%rbp), %eax
	addl	-12(%rbp), %eax
	addl	-24(%rbp), %eax
	addl	$2, %eax
	sarl	$2, %eax
	jmp	.LBB4_87
.LBB4_86:                               # %cond.false342
                                        #   in Loop: Header=BB4_7 Depth=1
	movl	-12(%rbp), %eax
.LBB4_87:                               # %cond.end343
                                        #   in Loop: Header=BB4_7 Depth=1
	movq	-88(%rbp), %rcx
	movslq	-80(%rbp), %rdx
	movw	%ax, (%rcx,%rdx,2)
	cmpl	$0, -68(%rbp)
	je	.LBB4_89
# %bb.88:                               # %cond.true349
                                        #   in Loop: Header=BB4_7 Depth=1
	movl	-40(%rbp), %eax
	addl	-16(%rbp), %eax
	addl	-24(%rbp), %eax
	addl	-20(%rbp), %eax
	addl	$2, %eax
	sarl	$2, %eax
	jmp	.LBB4_90
.LBB4_89:                               # %cond.false355
                                        #   in Loop: Header=BB4_7 Depth=1
	movl	-16(%rbp), %eax
.LBB4_90:                               # %cond.end356
                                        #   in Loop: Header=BB4_7 Depth=1
	xorl	%ecx, %ecx
	movq	-96(%rbp), %rdx
	subl	-72(%rbp), %ecx
	movslq	%ecx, %rcx
	movw	%ax, (%rdx,%rcx,2)
	cmpl	$0, -64(%rbp)
	je	.LBB4_92
# %bb.91:                               # %cond.true363
                                        #   in Loop: Header=BB4_7 Depth=1
	movl	-188(%rbp), %eax
	addl	-36(%rbp), %eax
	shll	$1, %eax
	addl	-36(%rbp), %eax
	addl	-12(%rbp), %eax
	addl	-32(%rbp), %eax
	addl	$4, %eax
	sarl	$3, %eax
	jmp	.LBB4_93
.LBB4_92:                               # %cond.false371
                                        #   in Loop: Header=BB4_7 Depth=1
	movl	-36(%rbp), %eax
.LBB4_93:                               # %cond.end372
                                        #   in Loop: Header=BB4_7 Depth=1
	movq	-88(%rbp), %rcx
	movl	-80(%rbp), %edx
	shll	$1, %edx
	movslq	%edx, %rdx
	movw	%ax, (%rcx,%rdx,2)
	cmpl	$0, -68(%rbp)
	je	.LBB4_95
# %bb.94:                               # %cond.true379
                                        #   in Loop: Header=BB4_7 Depth=1
	movl	-180(%rbp), %eax
	addl	-40(%rbp), %eax
	shll	$1, %eax
	addl	-40(%rbp), %eax
	addl	-16(%rbp), %eax
	addl	-32(%rbp), %eax
	addl	$4, %eax
	sarl	$3, %eax
	jmp	.LBB4_96
.LBB4_95:                               # %cond.false387
                                        #   in Loop: Header=BB4_7 Depth=1
	movl	-40(%rbp), %eax
.LBB4_96:                               # %cond.end388
                                        #   in Loop: Header=BB4_7 Depth=1
	xorl	%ecx, %ecx
	movq	-96(%rbp), %rdx
	subl	-72(%rbp), %ecx
	shll	$1, %ecx
	movslq	%ecx, %rcx
	movw	%ax, (%rdx,%rcx,2)
.LBB4_97:                               # %if.end395
                                        #   in Loop: Header=BB4_7 Depth=1
	jmp	.LBB4_153
.LBB4_98:                               # %if.else396
                                        #   in Loop: Header=BB4_7 Depth=1
	cmpl	$0, 40(%rbp)
	je	.LBB4_100
# %bb.99:                               # %cond.true398
                                        #   in Loop: Header=BB4_7 Depth=1
	movl	-44(%rbp), %eax
	addl	$1, %eax
	jmp	.LBB4_101
.LBB4_100:                              # %cond.false400
                                        #   in Loop: Header=BB4_7 Depth=1
	movl	-44(%rbp), %eax
	addl	-68(%rbp), %eax
	addl	-64(%rbp), %eax
.LBB4_101:                              # %cond.end403
                                        #   in Loop: Header=BB4_7 Depth=1
	xorl	%ecx, %ecx
	movl	%eax, -104(%rbp)
	movl	-140(%rbp), %eax
	shll	$2, %eax
	movl	-16(%rbp), %edx
	subl	-12(%rbp), %edx
	addl	%edx, %eax
	addl	$4, %eax
	sarl	$3, %eax
	subl	-104(%rbp), %ecx
	cmpl	%ecx, %eax
	jge	.LBB4_103
# %bb.102:                              # %cond.true413
                                        #   in Loop: Header=BB4_7 Depth=1
	xorl	%eax, %eax
	subl	-104(%rbp), %eax
	jmp	.LBB4_107
.LBB4_103:                              # %cond.false415
                                        #   in Loop: Header=BB4_7 Depth=1
	movl	-140(%rbp), %eax
	shll	$2, %eax
	movl	-16(%rbp), %ecx
	subl	-12(%rbp), %ecx
	addl	%ecx, %eax
	addl	$4, %eax
	sarl	$3, %eax
	cmpl	-104(%rbp), %eax
	jle	.LBB4_105
# %bb.104:                              # %cond.true423
                                        #   in Loop: Header=BB4_7 Depth=1
	movl	-104(%rbp), %eax
	jmp	.LBB4_106
.LBB4_105:                              # %cond.false424
                                        #   in Loop: Header=BB4_7 Depth=1
	movl	-140(%rbp), %eax
	shll	$2, %eax
	movl	-16(%rbp), %ecx
	subl	-12(%rbp), %ecx
	addl	%ecx, %eax
	addl	$4, %eax
	sarl	$3, %eax
.LBB4_106:                              # %cond.end430
                                        #   in Loop: Header=BB4_7 Depth=1
.LBB4_107:                              # %cond.end432
                                        #   in Loop: Header=BB4_7 Depth=1
	movl	%eax, -28(%rbp)
	cmpl	$0, 40(%rbp)
	jne	.LBB4_121
# %bb.108:                              # %if.then435
                                        #   in Loop: Header=BB4_7 Depth=1
	movl	-24(%rbp), %eax
	addl	-28(%rbp), %eax
	cmpl	$0, %eax
	jge	.LBB4_110
# %bb.109:                              # %cond.true439
                                        #   in Loop: Header=BB4_7 Depth=1
	xorl	%eax, %eax
	jmp	.LBB4_114
.LBB4_110:                              # %cond.false440
                                        #   in Loop: Header=BB4_7 Depth=1
	movl	-24(%rbp), %eax
	addl	-28(%rbp), %eax
	movq	-56(%rbp), %rcx
	cmpl	72684(%rcx), %eax
	jle	.LBB4_112
# %bb.111:                              # %cond.true444
                                        #   in Loop: Header=BB4_7 Depth=1
	movq	-56(%rbp), %rax
	movl	72684(%rax), %eax
	jmp	.LBB4_113
.LBB4_112:                              # %cond.false446
                                        #   in Loop: Header=BB4_7 Depth=1
	movl	-24(%rbp), %eax
	addl	-28(%rbp), %eax
.LBB4_113:                              # %cond.end448
                                        #   in Loop: Header=BB4_7 Depth=1
.LBB4_114:                              # %cond.end450
                                        #   in Loop: Header=BB4_7 Depth=1
	movq	-96(%rbp), %rcx
	movw	%ax, (%rcx)
	movl	-20(%rbp), %eax
	subl	-28(%rbp), %eax
	cmpl	$0, %eax
	jge	.LBB4_116
# %bb.115:                              # %cond.true457
                                        #   in Loop: Header=BB4_7 Depth=1
	xorl	%eax, %eax
	jmp	.LBB4_120
.LBB4_116:                              # %cond.false458
                                        #   in Loop: Header=BB4_7 Depth=1
	movl	-20(%rbp), %eax
	subl	-28(%rbp), %eax
	movq	-56(%rbp), %rcx
	cmpl	72684(%rcx), %eax
	jle	.LBB4_118
# %bb.117:                              # %cond.true463
                                        #   in Loop: Header=BB4_7 Depth=1
	movq	-56(%rbp), %rax
	movl	72684(%rax), %eax
	jmp	.LBB4_119
.LBB4_118:                              # %cond.false465
                                        #   in Loop: Header=BB4_7 Depth=1
	movl	-20(%rbp), %eax
	subl	-28(%rbp), %eax
.LBB4_119:                              # %cond.end467
                                        #   in Loop: Header=BB4_7 Depth=1
.LBB4_120:                              # %cond.end469
                                        #   in Loop: Header=BB4_7 Depth=1
	movq	-88(%rbp), %rcx
	movw	%ax, (%rcx)
	jmp	.LBB4_134
.LBB4_121:                              # %if.else473
                                        #   in Loop: Header=BB4_7 Depth=1
	movl	-24(%rbp), %eax
	addl	-28(%rbp), %eax
	cmpl	$0, %eax
	jge	.LBB4_123
# %bb.122:                              # %cond.true477
                                        #   in Loop: Header=BB4_7 Depth=1
	xorl	%eax, %eax
	jmp	.LBB4_127
.LBB4_123:                              # %cond.false478
                                        #   in Loop: Header=BB4_7 Depth=1
	movl	-24(%rbp), %eax
	addl	-28(%rbp), %eax
	movq	-56(%rbp), %rcx
	cmpl	72688(%rcx), %eax
	jle	.LBB4_125
# %bb.124:                              # %cond.true482
                                        #   in Loop: Header=BB4_7 Depth=1
	movq	-56(%rbp), %rax
	movl	72688(%rax), %eax
	jmp	.LBB4_126
.LBB4_125:                              # %cond.false484
                                        #   in Loop: Header=BB4_7 Depth=1
	movl	-24(%rbp), %eax
	addl	-28(%rbp), %eax
.LBB4_126:                              # %cond.end486
                                        #   in Loop: Header=BB4_7 Depth=1
.LBB4_127:                              # %cond.end488
                                        #   in Loop: Header=BB4_7 Depth=1
	movq	-96(%rbp), %rcx
	movw	%ax, (%rcx)
	movl	-20(%rbp), %eax
	subl	-28(%rbp), %eax
	cmpl	$0, %eax
	jge	.LBB4_129
# %bb.128:                              # %cond.true495
                                        #   in Loop: Header=BB4_7 Depth=1
	xorl	%eax, %eax
	jmp	.LBB4_133
.LBB4_129:                              # %cond.false496
                                        #   in Loop: Header=BB4_7 Depth=1
	movl	-20(%rbp), %eax
	subl	-28(%rbp), %eax
	movq	-56(%rbp), %rcx
	cmpl	72688(%rcx), %eax
	jle	.LBB4_131
# %bb.130:                              # %cond.true501
                                        #   in Loop: Header=BB4_7 Depth=1
	movq	-56(%rbp), %rax
	movl	72688(%rax), %eax
	jmp	.LBB4_132
.LBB4_131:                              # %cond.false503
                                        #   in Loop: Header=BB4_7 Depth=1
	movl	-20(%rbp), %eax
	subl	-28(%rbp), %eax
.LBB4_132:                              # %cond.end505
                                        #   in Loop: Header=BB4_7 Depth=1
.LBB4_133:                              # %cond.end507
                                        #   in Loop: Header=BB4_7 Depth=1
	movq	-88(%rbp), %rcx
	movw	%ax, (%rcx)
.LBB4_134:                              # %if.end511
                                        #   in Loop: Header=BB4_7 Depth=1
	cmpl	$0, 40(%rbp)
	jne	.LBB4_152
# %bb.135:                              # %if.then513
                                        #   in Loop: Header=BB4_7 Depth=1
	cmpl	$0, -68(%rbp)
	je	.LBB4_143
# %bb.136:                              # %if.then515
                                        #   in Loop: Header=BB4_7 Depth=1
	xorl	%eax, %eax
	movl	-40(%rbp), %ecx
	movl	-32(%rbp), %edx
	addl	$1, %edx
	sarl	$1, %edx
	addl	%edx, %ecx
	movl	-16(%rbp), %edx
	shll	$1, %edx
	subl	%edx, %ecx
	sarl	$1, %ecx
	subl	-44(%rbp), %eax
	cmpl	%eax, %ecx
	jge	.LBB4_138
# %bb.137:                              # %cond.true525
                                        #   in Loop: Header=BB4_7 Depth=1
	xorl	%eax, %eax
	subl	-44(%rbp), %eax
	jmp	.LBB4_142
.LBB4_138:                              # %cond.false527
                                        #   in Loop: Header=BB4_7 Depth=1
	movl	-40(%rbp), %eax
	movl	-32(%rbp), %ecx
	addl	$1, %ecx
	sarl	$1, %ecx
	addl	%ecx, %eax
	movl	-16(%rbp), %ecx
	shll	$1, %ecx
	subl	%ecx, %eax
	sarl	$1, %eax
	cmpl	-44(%rbp), %eax
	jle	.LBB4_140
# %bb.139:                              # %cond.true536
                                        #   in Loop: Header=BB4_7 Depth=1
	movl	-44(%rbp), %eax
	jmp	.LBB4_141
.LBB4_140:                              # %cond.false537
                                        #   in Loop: Header=BB4_7 Depth=1
	movl	-40(%rbp), %eax
	movl	-32(%rbp), %ecx
	addl	$1, %ecx
	sarl	$1, %ecx
	addl	%ecx, %eax
	movl	-16(%rbp), %ecx
	shll	$1, %ecx
	subl	%ecx, %eax
	sarl	$1, %eax
.LBB4_141:                              # %cond.end544
                                        #   in Loop: Header=BB4_7 Depth=1
.LBB4_142:                              # %cond.end546
                                        #   in Loop: Header=BB4_7 Depth=1
	xorl	%ecx, %ecx
	movq	-96(%rbp), %rdx
	subl	-72(%rbp), %ecx
	movslq	%ecx, %rcx
	movzwl	(%rdx,%rcx,2), %esi
	addl	%eax, %esi
	movw	%si, (%rdx,%rcx,2)
.LBB4_143:                              # %if.end554
                                        #   in Loop: Header=BB4_7 Depth=1
	cmpl	$0, -64(%rbp)
	je	.LBB4_151
# %bb.144:                              # %if.then556
                                        #   in Loop: Header=BB4_7 Depth=1
	xorl	%eax, %eax
	movl	-36(%rbp), %ecx
	movl	-32(%rbp), %edx
	addl	$1, %edx
	sarl	$1, %edx
	addl	%edx, %ecx
	movl	-12(%rbp), %edx
	shll	$1, %edx
	subl	%edx, %ecx
	sarl	$1, %ecx
	subl	-44(%rbp), %eax
	cmpl	%eax, %ecx
	jge	.LBB4_146
# %bb.145:                              # %cond.true566
                                        #   in Loop: Header=BB4_7 Depth=1
	xorl	%eax, %eax
	subl	-44(%rbp), %eax
	jmp	.LBB4_150
.LBB4_146:                              # %cond.false568
                                        #   in Loop: Header=BB4_7 Depth=1
	movl	-36(%rbp), %eax
	movl	-32(%rbp), %ecx
	addl	$1, %ecx
	sarl	$1, %ecx
	addl	%ecx, %eax
	movl	-12(%rbp), %ecx
	shll	$1, %ecx
	subl	%ecx, %eax
	sarl	$1, %eax
	cmpl	-44(%rbp), %eax
	jle	.LBB4_148
# %bb.147:                              # %cond.true577
                                        #   in Loop: Header=BB4_7 Depth=1
	movl	-44(%rbp), %eax
	jmp	.LBB4_149
.LBB4_148:                              # %cond.false578
                                        #   in Loop: Header=BB4_7 Depth=1
	movl	-36(%rbp), %eax
	movl	-32(%rbp), %ecx
	addl	$1, %ecx
	sarl	$1, %ecx
	addl	%ecx, %eax
	movl	-12(%rbp), %ecx
	shll	$1, %ecx
	subl	%ecx, %eax
	sarl	$1, %eax
.LBB4_149:                              # %cond.end585
                                        #   in Loop: Header=BB4_7 Depth=1
.LBB4_150:                              # %cond.end587
                                        #   in Loop: Header=BB4_7 Depth=1
	movq	-88(%rbp), %rcx
	movslq	-80(%rbp), %rdx
	movzwl	(%rcx,%rdx,2), %esi
	addl	%eax, %esi
	movw	%si, (%rcx,%rdx,2)
.LBB4_151:                              # %if.end594
                                        #   in Loop: Header=BB4_7 Depth=1
	jmp	.LBB4_152
.LBB4_152:                              # %if.end595
                                        #   in Loop: Header=BB4_7 Depth=1
	jmp	.LBB4_153
.LBB4_153:                              # %if.end596
                                        #   in Loop: Header=BB4_7 Depth=1
	jmp	.LBB4_154
.LBB4_154:                              # %if.end597
                                        #   in Loop: Header=BB4_7 Depth=1
	jmp	.LBB4_155
.LBB4_155:                              # %if.end598
                                        #   in Loop: Header=BB4_7 Depth=1
	jmp	.LBB4_156
.LBB4_156:                              # %if.end599
                                        #   in Loop: Header=BB4_7 Depth=1
	jmp	.LBB4_157
.LBB4_157:                              # %if.end600
                                        #   in Loop: Header=BB4_7 Depth=1
	jmp	.LBB4_158
.LBB4_158:                              # %for.inc
                                        #   in Loop: Header=BB4_7 Depth=1
	movl	-60(%rbp), %eax
	addl	$1, %eax
	movl	%eax, -60(%rbp)
	jmp	.LBB4_7
.LBB4_159:                              # %for.end
	cmpl	$1137252667, -184(%rbp) # imm = 0x43C9193B
	jne	.LBB4_161
.LBB4_160:
	addq	$312, %rsp              # imm = 0x138
	popq	%rbx
	popq	%rbp
	.cfi_def_cfa %rsp, 8
	retq
.LBB4_161:                              # %func_exit
	.cfi_def_cfa %rbp, 16
	callq	detect_breach
	jmp	.LBB4_160
.Lfunc_end4:
	.size	EdgeLoop.1, .Lfunc_end4-EdgeLoop.1
	.cfi_endproc
                                        # -- End function
	.globl	DeblockMb.2             # -- Begin function DeblockMb.2
	.p2align	4, 0x90
	.type	DeblockMb.2,@function
DeblockMb.2:                            # @DeblockMb.2
	.cfi_startproc
# %bb.0:                                # %entry
	pushq	%rbp
	.cfi_def_cfa_offset 16
	.cfi_offset %rbp, -16
	movq	%rsp, %rbp
	.cfi_def_cfa_register %rbp
	subq	$176, %rsp
	movl	$901993070, -112(%rbp)  # imm = 0x35C3526E
	movq	%rdi, -16(%rbp)
	movq	%rsi, -136(%rbp)
	movq	%rdx, -64(%rbp)
	movl	%ecx, -20(%rbp)
	movq	.L__const.DeblockMb.filterNon8x8LumaEdgesFlag, %rax
	movq	%rax, -128(%rbp)
	movq	.L__const.DeblockMb.filterNon8x8LumaEdgesFlag+8, %rax
	movq	%rax, -120(%rbp)
	movl	$4, -52(%rbp)
	movq	-16(%rbp), %rax
	movl	$1, 72636(%rax)
	movl	-20(%rbp), %edi
	leaq	-108(%rbp), %rsi
	leaq	-72(%rbp), %rdx
	callq	get_mb_pos
	cmpl	$0, -108(%rbp)
	setne	%al
	andb	$1, %al
	movzbl	%al, %eax
	movl	%eax, -68(%rbp)
	cmpl	$0, -72(%rbp)
	setne	%al
	andb	$1, %al
	movzbl	%al, %eax
	movl	%eax, -48(%rbp)
	movq	-16(%rbp), %rax
	movq	14168(%rax), %rax
	movslq	-20(%rbp), %rcx
	imulq	$632, %rcx, %rcx        # imm = 0x278
	addq	%rcx, %rax
	movq	%rax, -32(%rbp)
	movq	-32(%rbp), %rax
	cmpl	$13, 72(%rax)
	jne	.LBB5_2
# %bb.1:                                # %if.then
	jmp	.LBB5_2
.LBB5_2:                                # %if.end
	movq	-32(%rbp), %rax
	cmpl	$0, 572(%rax)
	setne	%al
	xorb	$-1, %al
	andb	$1, %al
	movzbl	%al, %eax
	movl	%eax, -116(%rbp)
	movl	%eax, -124(%rbp)
	movq	-16(%rbp), %rax
	cmpl	$0, 72400(%rax)
	je	.LBB5_6
# %bb.3:                                # %land.lhs.true
	cmpl	$16, -72(%rbp)
	jne	.LBB5_6
# %bb.4:                                # %land.lhs.true10
	movq	-32(%rbp), %rax
	cmpl	$0, 532(%rax)
	je	.LBB5_6
# %bb.5:                                # %if.then12
	movl	$0, -48(%rbp)
.LBB5_6:                                # %if.end13
	movq	-16(%rbp), %rax
	cmpl	$0, 28(%rax)
	movb	$1, %al
	jne	.LBB5_10
# %bb.7:                                # %lor.rhs
	xorl	%eax, %eax
	movq	-16(%rbp), %rcx
	cmpl	$0, 72400(%rcx)
	je	.LBB5_9
# %bb.8:                                # %land.rhs
	movq	-32(%rbp), %rax
	cmpl	$0, 532(%rax)
	setne	%al
.LBB5_9:                                # %land.end
.LBB5_10:                               # %lor.end
	andb	$1, %al
	movzbl	%al, %eax
	movl	%eax, -100(%rbp)
	cmpl	$0, -100(%rbp)
	je	.LBB5_12
# %bb.11:                               # %if.then21
	movl	$2, -52(%rbp)
.LBB5_12:                               # %if.end22
	movq	-32(%rbp), %rax
	cmpl	$1, 612(%rax)
	jne	.LBB5_14
# %bb.13:                               # %if.then25
	movq	-16(%rbp), %rax
	movl	$0, 72636(%rax)
	jmp	.LBB5_61
.LBB5_14:                               # %if.end27
	movq	-32(%rbp), %rax
	cmpl	$2, 612(%rax)
	jne	.LBB5_21
# %bb.15:                               # %if.then31
	movq	-32(%rbp), %rax
	movl	552(%rax), %eax
	movl	%eax, -68(%rbp)
	movq	-16(%rbp), %rax
	cmpl	$0, 72400(%rax)
	je	.LBB5_19
# %bb.16:                               # %land.lhs.true34
	movq	-32(%rbp), %rax
	cmpl	$0, 532(%rax)
	jne	.LBB5_19
# %bb.17:                               # %land.lhs.true37
	movl	-20(%rbp), %eax
	cltd
	movl	$2, %ecx
	idivl	%ecx
	cmpl	$0, %edx
	je	.LBB5_19
# %bb.18:                               # %if.then39
	movl	$1, -48(%rbp)
	jmp	.LBB5_20
.LBB5_19:                               # %if.else
	movq	-32(%rbp), %rax
	movl	556(%rax), %eax
	movl	%eax, -48(%rbp)
.LBB5_20:                               # %if.end40
	jmp	.LBB5_21
.LBB5_21:                               # %if.end41
	movl	-20(%rbp), %eax
	movq	-16(%rbp), %rcx
	movl	%eax, 12(%rcx)
	movb	$0, %al
	callq	CheckAvailabilityOfNeighbors
	movl	$0, -4(%rbp)
.LBB5_22:                               # %for.cond
                                        # =>This Loop Header: Depth=1
                                        #     Child Loop BB5_29 Depth 2
                                        #       Child Loop BB5_33 Depth 3
	cmpl	$2, -4(%rbp)
	jge	.LBB5_60
# %bb.23:                               # %for.body
                                        #   in Loop: Header=BB5_22 Depth=1
	cmpl	$0, -4(%rbp)
	je	.LBB5_25
# %bb.24:                               # %land.lhs.true45
                                        #   in Loop: Header=BB5_22 Depth=1
	cmpl	$0, -48(%rbp)
	movb	$1, %al
	jne	.LBB5_28
.LBB5_25:                               # %lor.rhs47
                                        #   in Loop: Header=BB5_22 Depth=1
	xorl	%eax, %eax
	cmpl	$0, -4(%rbp)
	jne	.LBB5_27
# %bb.26:                               # %land.rhs49
                                        #   in Loop: Header=BB5_22 Depth=1
	cmpl	$0, -68(%rbp)
	setne	%al
.LBB5_27:                               # %land.end51
                                        #   in Loop: Header=BB5_22 Depth=1
.LBB5_28:                               # %lor.end52
                                        #   in Loop: Header=BB5_22 Depth=1
	andb	$1, %al
	movzbl	%al, %eax
	movl	%eax, -104(%rbp)
	movl	$0, -36(%rbp)
.LBB5_29:                               # %for.cond54
                                        #   Parent Loop BB5_22 Depth=1
                                        # =>  This Loop Header: Depth=2
                                        #       Child Loop BB5_33 Depth 3
	cmpl	$4, -36(%rbp)
	jge	.LBB5_58
# %bb.30:                               # %for.body57
                                        #   in Loop: Header=BB5_29 Depth=2
	cmpl	$0, -36(%rbp)
	jne	.LBB5_32
# %bb.31:                               # %lor.lhs.false
                                        #   in Loop: Header=BB5_29 Depth=2
	cmpl	$0, -104(%rbp)
	je	.LBB5_56
.LBB5_32:                               # %if.then60
                                        #   in Loop: Header=BB5_29 Depth=2
	leaq	-96(%rbp), %rdi
	movslq	-4(%rbp), %rax
	shlq	$4, %rax
	movabsq	$chroma_edge, %rcx
	addq	%rax, %rcx
	movslq	-36(%rbp), %rax
	shlq	$2, %rax
	addq	%rax, %rcx
	movq	-16(%rbp), %rax
	movslq	72700(%rax), %rax
	movsbl	(%rcx,%rax), %eax
	movl	%eax, -40(%rbp)
	movq	-16(%rbp), %rsi
	movl	-20(%rbp), %edx
	movl	-4(%rbp), %ecx
	movl	-36(%rbp), %r8d
	movl	-52(%rbp), %r9d
	callq	GetStrength
	movzbl	-96(%rbp), %eax
	movl	%eax, -56(%rbp)
	movl	$1, -44(%rbp)
.LBB5_33:                               # %for.cond70
                                        #   Parent Loop BB5_22 Depth=1
                                        #     Parent Loop BB5_29 Depth=2
                                        # =>    This Inner Loop Header: Depth=3
	cmpl	$16, -44(%rbp)
	jge	.LBB5_36
# %bb.34:                               # %for.body73
                                        #   in Loop: Header=BB5_33 Depth=3
	movslq	-44(%rbp), %rax
	movzbl	-96(%rbp,%rax), %eax
	addl	-56(%rbp), %eax
	movl	%eax, -56(%rbp)
# %bb.35:                               # %for.inc
                                        #   in Loop: Header=BB5_33 Depth=3
	movl	-44(%rbp), %eax
	addl	$1, %eax
	movl	%eax, -44(%rbp)
	jmp	.LBB5_33
.LBB5_36:                               # %for.end
                                        #   in Loop: Header=BB5_29 Depth=2
	cmpl	$0, -56(%rbp)
	je	.LBB5_43
# %bb.37:                               # %if.then78
                                        #   in Loop: Header=BB5_29 Depth=2
	movslq	-36(%rbp), %rax
	cmpl	$0, -128(%rbp,%rax,4)
	je	.LBB5_39
# %bb.38:                               # %if.then82
                                        #   in Loop: Header=BB5_29 Depth=2
	xorl	%eax, %eax
	leaq	-96(%rbp), %rsi
	movq	-136(%rbp), %rdi
	movq	-16(%rbp), %rdx
	movl	-20(%rbp), %ecx
	movq	-32(%rbp), %rax
	movl	616(%rax), %r8d
	movq	-32(%rbp), %rax
	movl	620(%rax), %r9d
	movl	-4(%rbp), %r11d
	movl	-36(%rbp), %r10d
	movq	-16(%rbp), %rax
	movl	52(%rax), %eax
	movl	%r11d, (%rsp)
	movl	%r10d, 8(%rsp)
	movl	%eax, 16(%rsp)
	movl	$0, 24(%rsp)
	movl	$0, 32(%rsp)
	callq	EdgeLoop
.LBB5_39:                               # %if.end84
                                        #   in Loop: Header=BB5_29 Depth=2
	cmpq	$0, -64(%rbp)
	je	.LBB5_42
# %bb.40:                               # %land.lhs.true87
                                        #   in Loop: Header=BB5_29 Depth=2
	cmpl	$0, -40(%rbp)
	jl	.LBB5_42
# %bb.41:                               # %if.then90
                                        #   in Loop: Header=BB5_29 Depth=2
	xorl	%eax, %eax
	leaq	-96(%rbp), %rsi
	movq	-64(%rbp), %rax
	movq	(%rax), %rdi
	movq	-16(%rbp), %rdx
	movl	-20(%rbp), %ecx
	movq	-32(%rbp), %rax
	movl	616(%rax), %r8d
	movq	-32(%rbp), %rax
	movl	620(%rax), %r9d
	movl	-4(%rbp), %r11d
	movl	-40(%rbp), %r10d
	movq	-16(%rbp), %rax
	movl	56(%rax), %eax
	movl	%r11d, (%rsp)
	movl	%r10d, 8(%rsp)
	movl	%eax, 16(%rsp)
	movl	$1, 24(%rsp)
	movl	$0, 32(%rsp)
	callq	EdgeLoop
	leaq	-96(%rbp), %rsi
	movq	-64(%rbp), %rax
	movq	8(%rax), %rdi
	movq	-16(%rbp), %rdx
	movl	-20(%rbp), %ecx
	movq	-32(%rbp), %rax
	movl	616(%rax), %r8d
	movq	-32(%rbp), %rax
	movl	620(%rax), %r9d
	movl	-4(%rbp), %r11d
	movl	-40(%rbp), %r10d
	movq	-16(%rbp), %rax
	movl	56(%rax), %eax
	movl	%r11d, (%rsp)
	movl	%r10d, 8(%rsp)
	movl	%eax, 16(%rsp)
	movl	$1, 24(%rsp)
	movl	$1, 32(%rsp)
	callq	EdgeLoop
.LBB5_42:                               # %if.end100
                                        #   in Loop: Header=BB5_29 Depth=2
	jmp	.LBB5_43
.LBB5_43:                               # %if.end101
                                        #   in Loop: Header=BB5_29 Depth=2
	cmpl	$0, -4(%rbp)
	je	.LBB5_55
# %bb.44:                               # %land.lhs.true103
                                        #   in Loop: Header=BB5_29 Depth=2
	cmpl	$0, -36(%rbp)
	jne	.LBB5_55
# %bb.45:                               # %land.lhs.true105
                                        #   in Loop: Header=BB5_29 Depth=2
	movq	-32(%rbp), %rax
	cmpl	$0, 532(%rax)
	jne	.LBB5_55
# %bb.46:                               # %land.lhs.true108
                                        #   in Loop: Header=BB5_29 Depth=2
	movzbl	mixedModeEdgeFlag, %eax
	cmpl	$0, %eax
	je	.LBB5_55
# %bb.47:                               # %if.then111
                                        #   in Loop: Header=BB5_29 Depth=2
	leaq	-96(%rbp), %rdi
	movq	-16(%rbp), %rax
	movl	$2, 72636(%rax)
	movq	-16(%rbp), %rsi
	movl	-20(%rbp), %edx
	movl	-4(%rbp), %ecx
	movl	-52(%rbp), %r9d
	movl	$4, %r8d
	callq	GetStrength
	cmpl	$0, -96(%rbp)
	je	.LBB5_54
# %bb.48:                               # %if.then116
                                        #   in Loop: Header=BB5_29 Depth=2
	movslq	-36(%rbp), %rax
	cmpl	$0, -128(%rbp,%rax,4)
	je	.LBB5_50
# %bb.49:                               # %if.then120
                                        #   in Loop: Header=BB5_29 Depth=2
	xorl	%eax, %eax
	leaq	-96(%rbp), %rsi
	movq	-136(%rbp), %rdi
	movq	-16(%rbp), %rdx
	movl	-20(%rbp), %ecx
	movq	-32(%rbp), %rax
	movl	616(%rax), %r8d
	movq	-32(%rbp), %rax
	movl	620(%rax), %r9d
	movl	-4(%rbp), %r10d
	movq	-16(%rbp), %rax
	movl	52(%rax), %eax
	movl	%r10d, (%rsp)
	movl	$4, 8(%rsp)
	movl	%eax, 16(%rsp)
	movl	$0, 24(%rsp)
	movl	$0, 32(%rsp)
	callq	EdgeLoop
.LBB5_50:                               # %if.end125
                                        #   in Loop: Header=BB5_29 Depth=2
	cmpq	$0, -64(%rbp)
	je	.LBB5_53
# %bb.51:                               # %land.lhs.true128
                                        #   in Loop: Header=BB5_29 Depth=2
	cmpl	$0, -40(%rbp)
	jl	.LBB5_53
# %bb.52:                               # %if.then131
                                        #   in Loop: Header=BB5_29 Depth=2
	xorl	%eax, %eax
	leaq	-96(%rbp), %rsi
	movq	-64(%rbp), %rax
	movq	(%rax), %rdi
	movq	-16(%rbp), %rdx
	movl	-20(%rbp), %ecx
	movq	-32(%rbp), %rax
	movl	616(%rax), %r8d
	movq	-32(%rbp), %rax
	movl	620(%rax), %r9d
	movl	-4(%rbp), %r10d
	movq	-16(%rbp), %rax
	movl	56(%rax), %eax
	movl	%r10d, (%rsp)
	movl	$4, 8(%rsp)
	movl	%eax, 16(%rsp)
	movl	$1, 24(%rsp)
	movl	$0, 32(%rsp)
	callq	EdgeLoop
	leaq	-96(%rbp), %rsi
	movq	-64(%rbp), %rax
	movq	8(%rax), %rdi
	movq	-16(%rbp), %rdx
	movl	-20(%rbp), %ecx
	movq	-32(%rbp), %rax
	movl	616(%rax), %r8d
	movq	-32(%rbp), %rax
	movl	620(%rax), %r9d
	movl	-4(%rbp), %r10d
	movq	-16(%rbp), %rax
	movl	56(%rax), %eax
	movl	%r10d, (%rsp)
	movl	$4, 8(%rsp)
	movl	%eax, 16(%rsp)
	movl	$1, 24(%rsp)
	movl	$1, 32(%rsp)
	callq	EdgeLoop
.LBB5_53:                               # %if.end142
                                        #   in Loop: Header=BB5_29 Depth=2
	jmp	.LBB5_54
.LBB5_54:                               # %if.end143
                                        #   in Loop: Header=BB5_29 Depth=2
	movq	-16(%rbp), %rax
	movl	$1, 72636(%rax)
.LBB5_55:                               # %if.end145
                                        #   in Loop: Header=BB5_29 Depth=2
	jmp	.LBB5_56
.LBB5_56:                               # %if.end146
                                        #   in Loop: Header=BB5_29 Depth=2
	jmp	.LBB5_57
.LBB5_57:                               # %for.inc147
                                        #   in Loop: Header=BB5_29 Depth=2
	movl	-36(%rbp), %eax
	addl	$1, %eax
	movl	%eax, -36(%rbp)
	jmp	.LBB5_29
.LBB5_58:                               # %for.end149
                                        #   in Loop: Header=BB5_22 Depth=1
	jmp	.LBB5_59
.LBB5_59:                               # %for.inc150
                                        #   in Loop: Header=BB5_22 Depth=1
	movl	-4(%rbp), %eax
	addl	$1, %eax
	movl	%eax, -4(%rbp)
	jmp	.LBB5_22
.LBB5_60:                               # %for.end152
	movq	-16(%rbp), %rax
	movl	$0, 72636(%rax)
.LBB5_61:                               # %return
	cmpl	$901993070, -112(%rbp)  # imm = 0x35C3526E
	jne	.LBB5_63
.LBB5_62:
	addq	$176, %rsp
	popq	%rbp
	.cfi_def_cfa %rsp, 8
	retq
.LBB5_63:                               # %func_exit
	.cfi_def_cfa %rbp, 16
	callq	detect_breach
	jmp	.LBB5_62
.Lfunc_end5:
	.size	DeblockMb.2, .Lfunc_end5-DeblockMb.2
	.cfi_endproc
                                        # -- End function
	.globl	EdgeLoop.3              # -- Begin function EdgeLoop.3
	.p2align	4, 0x90
	.type	EdgeLoop.3,@function
EdgeLoop.3:                             # @EdgeLoop.3
	.cfi_startproc
# %bb.0:                                # %entry
	pushq	%rbp
	.cfi_def_cfa_offset 16
	.cfi_offset %rbp, -16
	movq	%rsp, %rbp
	.cfi_def_cfa_register %rbp
	pushq	%rbx
	subq	$312, %rsp              # imm = 0x138
	.cfi_offset %rbx, -24
	movl	48(%rbp), %eax
	movl	40(%rbp), %eax
	movl	32(%rbp), %eax
	movl	24(%rbp), %eax
	movl	16(%rbp), %eax
	movl	$1266047083, -188(%rbp) # imm = 0x4B76586B
	movq	%rdi, -216(%rbp)
	movq	%rsi, -248(%rbp)
	movq	%rdx, -56(%rbp)
	movl	%ecx, -148(%rbp)
	movl	%r8d, -132(%rbp)
	movl	%r9d, -144(%rbp)
	movl	$0, -64(%rbp)
	movl	$0, -68(%rbp)
	movl	$0, -36(%rbp)
	movl	$0, -32(%rbp)
	movl	$0, -140(%rbp)
	movl	$0, -100(%rbp)
	movq	$0, -208(%rbp)
	movq	.L__const.EdgeLoop.pelnum_cr, %rax
	movq	%rax, -288(%rbp)
	movq	.L__const.EdgeLoop.pelnum_cr+8, %rax
	movq	%rax, -280(%rbp)
	movq	.L__const.EdgeLoop.pelnum_cr+16, %rax
	movq	%rax, -272(%rbp)
	movq	.L__const.EdgeLoop.pelnum_cr+24, %rax
	movq	%rax, -264(%rbp)
	cmpl	$0, 40(%rbp)
	jne	.LBB6_2
# %bb.1:                                # %if.then
	movq	-56(%rbp), %rax
	movl	72660(%rax), %ecx
	subl	$8, %ecx
                                        # kill: def $cl killed $ecx
	movl	$1, %eax
	shll	%cl, %eax
	movl	%eax, -104(%rbp)
	jmp	.LBB6_3
.LBB6_2:                                # %if.else
	movq	-56(%rbp), %rax
	movl	72664(%rax), %ecx
	subl	$8, %ecx
                                        # kill: def $cl killed $ecx
	movl	$1, %eax
	shll	%cl, %eax
	movl	%eax, -104(%rbp)
.LBB6_3:                                # %if.end
	cmpl	$0, 40(%rbp)
	je	.LBB6_5
# %bb.4:                                # %cond.true
	movslq	16(%rbp), %rax
	shlq	$4, %rax
	leaq	-288(%rbp), %rcx
	addq	%rax, %rcx
	movq	-56(%rbp), %rax
	movslq	72700(%rax), %rax
	movl	(%rcx,%rax,4), %eax
	jmp	.LBB6_6
.LBB6_5:                                # %cond.false
	movl	$16, %eax
	jmp	.LBB6_6
.LBB6_6:                                # %cond.end
	movl	%eax, -160(%rbp)
	movl	$0, -60(%rbp)
.LBB6_7:                                # %for.cond
                                        # =>This Inner Loop Header: Depth=1
	movl	-60(%rbp), %eax
	cmpl	-160(%rbp), %eax
	jge	.LBB6_159
# %bb.8:                                # %for.body
                                        #   in Loop: Header=BB6_7 Depth=1
	cmpl	$0, 16(%rbp)
	je	.LBB6_10
# %bb.9:                                # %cond.true7
                                        #   in Loop: Header=BB6_7 Depth=1
	movl	-60(%rbp), %eax
	jmp	.LBB6_11
.LBB6_10:                               # %cond.false8
                                        #   in Loop: Header=BB6_7 Depth=1
	movl	24(%rbp), %eax
	shll	$2, %eax
.LBB6_11:                               # %cond.end10
                                        #   in Loop: Header=BB6_7 Depth=1
	movl	%eax, -152(%rbp)
	cmpl	$0, 16(%rbp)
	je	.LBB6_16
# %bb.12:                               # %cond.true13
                                        #   in Loop: Header=BB6_7 Depth=1
	cmpl	$4, 24(%rbp)
	jge	.LBB6_14
# %bb.13:                               # %cond.true15
                                        #   in Loop: Header=BB6_7 Depth=1
	movl	24(%rbp), %eax
	shll	$2, %eax
	jmp	.LBB6_15
.LBB6_14:                               # %cond.false17
                                        #   in Loop: Header=BB6_7 Depth=1
	movl	$1, %eax
	jmp	.LBB6_15
.LBB6_15:                               # %cond.end18
                                        #   in Loop: Header=BB6_7 Depth=1
	jmp	.LBB6_17
.LBB6_16:                               # %cond.false20
                                        #   in Loop: Header=BB6_7 Depth=1
	movl	-60(%rbp), %eax
.LBB6_17:                               # %cond.end21
                                        #   in Loop: Header=BB6_7 Depth=1
	movl	%eax, -168(%rbp)
	movl	-148(%rbp), %edi
	movl	-152(%rbp), %esi
	movl	-168(%rbp), %edx
	movl	$1, %ecx
	subl	40(%rbp), %ecx
	leaq	-312(%rbp), %r8
	callq	getNeighbour
	movl	-148(%rbp), %edi
	movl	-152(%rbp), %esi
	movl	$1, %ecx
	movl	$1, %eax
	subl	16(%rbp), %eax
	subl	%eax, %esi
	movl	-168(%rbp), %edx
	subl	16(%rbp), %edx
	subl	40(%rbp), %ecx
	leaq	-240(%rbp), %r8
	callq	getNeighbour
	movl	-232(%rbp), %eax
	movl	%eax, -256(%rbp)
	movl	-228(%rbp), %eax
	movl	%eax, -252(%rbp)
	movq	-56(%rbp), %rax
	movq	14168(%rax), %rax
	movslq	-148(%rbp), %rcx
	imulq	$632, %rcx, %rcx        # imm = 0x278
	addq	%rcx, %rax
	movq	%rax, -120(%rbp)
	movq	-56(%rbp), %rax
	movq	14168(%rax), %rax
	movslq	-236(%rbp), %rcx
	imulq	$632, %rcx, %rcx        # imm = 0x278
	addq	%rcx, %rax
	movq	%rax, -128(%rbp)
	movq	-120(%rbp), %rax
	cmpl	$0, 532(%rax)
	movb	$1, %al
	jne	.LBB6_19
# %bb.18:                               # %lor.rhs
                                        #   in Loop: Header=BB6_7 Depth=1
	movq	-128(%rbp), %rax
	cmpl	$0, 532(%rax)
	setne	%al
.LBB6_19:                               # %lor.end
                                        #   in Loop: Header=BB6_7 Depth=1
	andb	$1, %al
	movzbl	%al, %eax
	movb	%al, fieldModeFilteringFlag
	cmpl	$0, 40(%rbp)
	je	.LBB6_26
# %bb.20:                               # %land.lhs.true
                                        #   in Loop: Header=BB6_7 Depth=1
	cmpl	$8, -160(%rbp)
	jne	.LBB6_26
# %bb.21:                               # %cond.true39
                                        #   in Loop: Header=BB6_7 Depth=1
	movq	-120(%rbp), %rax
	cmpl	$0, 532(%rax)
	je	.LBB6_24
# %bb.22:                               # %land.lhs.true42
                                        #   in Loop: Header=BB6_7 Depth=1
	movq	-128(%rbp), %rax
	cmpl	$0, 532(%rax)
	jne	.LBB6_24
# %bb.23:                               # %cond.true45
                                        #   in Loop: Header=BB6_7 Depth=1
	movl	-60(%rbp), %ecx
	shll	$1, %ecx
	jmp	.LBB6_25
.LBB6_24:                               # %cond.false47
                                        #   in Loop: Header=BB6_7 Depth=1
	movl	-60(%rbp), %ecx
	sarl	$1, %ecx
	shll	$2, %ecx
	movl	-60(%rbp), %eax
	cltd
	movl	$2, %esi
	idivl	%esi
	addl	%edx, %ecx
.LBB6_25:                               # %cond.end49
                                        #   in Loop: Header=BB6_7 Depth=1
	jmp	.LBB6_27
.LBB6_26:                               # %cond.false51
                                        #   in Loop: Header=BB6_7 Depth=1
	movl	-60(%rbp), %ecx
.LBB6_27:                               # %cond.end52
                                        #   in Loop: Header=BB6_7 Depth=1
	movl	%ecx, -184(%rbp)
	cmpl	$0, -240(%rbp)
	jne	.LBB6_29
# %bb.28:                               # %lor.lhs.false
                                        #   in Loop: Header=BB6_7 Depth=1
	movq	-120(%rbp), %rax
	cmpl	$0, 612(%rax)
	jne	.LBB6_157
.LBB6_29:                               # %if.then57
                                        #   in Loop: Header=BB6_7 Depth=1
	cmpl	$0, 16(%rbp)
	je	.LBB6_35
# %bb.30:                               # %cond.true59
                                        #   in Loop: Header=BB6_7 Depth=1
	movzbl	fieldModeFilteringFlag, %eax
	cmpl	$0, %eax
	je	.LBB6_33
# %bb.31:                               # %land.lhs.true62
                                        #   in Loop: Header=BB6_7 Depth=1
	movq	-120(%rbp), %rax
	cmpl	$0, 532(%rax)
	jne	.LBB6_33
# %bb.32:                               # %cond.true65
                                        #   in Loop: Header=BB6_7 Depth=1
	movl	32(%rbp), %eax
	shll	$1, %eax
	jmp	.LBB6_34
.LBB6_33:                               # %cond.false66
                                        #   in Loop: Header=BB6_7 Depth=1
	movl	32(%rbp), %eax
.LBB6_34:                               # %cond.end67
                                        #   in Loop: Header=BB6_7 Depth=1
	jmp	.LBB6_36
.LBB6_35:                               # %cond.false69
                                        #   in Loop: Header=BB6_7 Depth=1
	movl	$1, %eax
	jmp	.LBB6_36
.LBB6_36:                               # %cond.end70
                                        #   in Loop: Header=BB6_7 Depth=1
	movl	%eax, -72(%rbp)
	cmpl	$0, 16(%rbp)
	je	.LBB6_42
# %bb.37:                               # %cond.true73
                                        #   in Loop: Header=BB6_7 Depth=1
	movzbl	fieldModeFilteringFlag, %eax
	cmpl	$0, %eax
	je	.LBB6_40
# %bb.38:                               # %land.lhs.true76
                                        #   in Loop: Header=BB6_7 Depth=1
	movq	-128(%rbp), %rax
	cmpl	$0, 532(%rax)
	jne	.LBB6_40
# %bb.39:                               # %cond.true79
                                        #   in Loop: Header=BB6_7 Depth=1
	movl	32(%rbp), %eax
	shll	$1, %eax
	jmp	.LBB6_41
.LBB6_40:                               # %cond.false81
                                        #   in Loop: Header=BB6_7 Depth=1
	movl	32(%rbp), %eax
.LBB6_41:                               # %cond.end82
                                        #   in Loop: Header=BB6_7 Depth=1
	jmp	.LBB6_43
.LBB6_42:                               # %cond.false84
                                        #   in Loop: Header=BB6_7 Depth=1
	movl	$1, %eax
	jmp	.LBB6_43
.LBB6_43:                               # %cond.end85
                                        #   in Loop: Header=BB6_7 Depth=1
	movl	%eax, -80(%rbp)
	movq	-216(%rbp), %rax
	movslq	-292(%rbp), %rcx
	movq	(%rax,%rcx,8), %rax
	movslq	-296(%rbp), %rcx
	shlq	$1, %rcx
	addq	%rcx, %rax
	movq	%rax, -96(%rbp)
	movq	-216(%rbp), %rax
	movslq	-220(%rbp), %rcx
	movq	(%rax,%rcx,8), %rax
	movslq	-224(%rbp), %rcx
	shlq	$1, %rcx
	addq	%rcx, %rax
	movq	%rax, -88(%rbp)
	cmpl	$0, 40(%rbp)
	je	.LBB6_57
# %bb.44:                               # %cond.true98
                                        #   in Loop: Header=BB6_7 Depth=1
	movq	-128(%rbp), %rax
	movl	12(%rax), %eax
	movq	-56(%rbp), %rcx
	movslq	48(%rbp), %rdx
	addl	72716(%rcx,%rdx,4), %eax
	cmpl	$0, %eax
	jge	.LBB6_46
# %bb.45:                               # %cond.true104
                                        #   in Loop: Header=BB6_7 Depth=1
	xorl	%eax, %eax
	jmp	.LBB6_50
.LBB6_46:                               # %cond.false105
                                        #   in Loop: Header=BB6_7 Depth=1
	movq	-128(%rbp), %rax
	movl	12(%rax), %eax
	movq	-56(%rbp), %rcx
	movslq	48(%rbp), %rdx
	addl	72716(%rcx,%rdx,4), %eax
	cmpl	$51, %eax
	jle	.LBB6_48
# %bb.47:                               # %cond.true113
                                        #   in Loop: Header=BB6_7 Depth=1
	movl	$51, %eax
	jmp	.LBB6_49
.LBB6_48:                               # %cond.false114
                                        #   in Loop: Header=BB6_7 Depth=1
	movq	-128(%rbp), %rax
	movl	12(%rax), %eax
	movq	-56(%rbp), %rcx
	movslq	48(%rbp), %rdx
	addl	72716(%rcx,%rdx,4), %eax
.LBB6_49:                               # %cond.end120
                                        #   in Loop: Header=BB6_7 Depth=1
.LBB6_50:                               # %cond.end122
                                        #   in Loop: Header=BB6_7 Depth=1
	cltq
	movzbl	QP_SCALE_CR(,%rax), %eax
	movq	-120(%rbp), %rcx
	movl	12(%rcx), %ecx
	movq	-56(%rbp), %rdx
	movslq	48(%rbp), %rsi
	addl	72716(%rdx,%rsi,4), %ecx
	cmpl	$0, %ecx
	jge	.LBB6_52
# %bb.51:                               # %cond.true134
                                        #   in Loop: Header=BB6_7 Depth=1
	xorl	%ecx, %ecx
	jmp	.LBB6_56
.LBB6_52:                               # %cond.false135
                                        #   in Loop: Header=BB6_7 Depth=1
	movq	-120(%rbp), %rcx
	movl	12(%rcx), %ecx
	movq	-56(%rbp), %rdx
	movslq	48(%rbp), %rsi
	addl	72716(%rdx,%rsi,4), %ecx
	cmpl	$51, %ecx
	jle	.LBB6_54
# %bb.53:                               # %cond.true143
                                        #   in Loop: Header=BB6_7 Depth=1
	movl	$51, %ecx
	jmp	.LBB6_55
.LBB6_54:                               # %cond.false144
                                        #   in Loop: Header=BB6_7 Depth=1
	movq	-120(%rbp), %rcx
	movl	12(%rcx), %ecx
	movq	-56(%rbp), %rdx
	movslq	48(%rbp), %rsi
	addl	72716(%rdx,%rsi,4), %ecx
.LBB6_55:                               # %cond.end150
                                        #   in Loop: Header=BB6_7 Depth=1
.LBB6_56:                               # %cond.end152
                                        #   in Loop: Header=BB6_7 Depth=1
	movslq	%ecx, %rcx
	movzbl	QP_SCALE_CR(,%rcx), %ecx
	addl	%ecx, %eax
	addl	$1, %eax
	sarl	$1, %eax
	jmp	.LBB6_58
.LBB6_57:                               # %cond.false160
                                        #   in Loop: Header=BB6_7 Depth=1
	movq	-128(%rbp), %rax
	movl	12(%rax), %eax
	movq	-120(%rbp), %rcx
	addl	12(%rcx), %eax
	addl	$1, %eax
	sarl	$1, %eax
.LBB6_58:                               # %cond.end166
                                        #   in Loop: Header=BB6_7 Depth=1
	movl	%eax, -76(%rbp)
	movl	-76(%rbp), %eax
	addl	-132(%rbp), %eax
	cmpl	$0, %eax
	jge	.LBB6_60
# %bb.59:                               # %cond.true171
                                        #   in Loop: Header=BB6_7 Depth=1
	xorl	%eax, %eax
	jmp	.LBB6_64
.LBB6_60:                               # %cond.false172
                                        #   in Loop: Header=BB6_7 Depth=1
	movl	-76(%rbp), %eax
	addl	-132(%rbp), %eax
	cmpl	$51, %eax
	jle	.LBB6_62
# %bb.61:                               # %cond.true176
                                        #   in Loop: Header=BB6_7 Depth=1
	movl	$51, %eax
	jmp	.LBB6_63
.LBB6_62:                               # %cond.false177
                                        #   in Loop: Header=BB6_7 Depth=1
	movl	-76(%rbp), %eax
	addl	-132(%rbp), %eax
.LBB6_63:                               # %cond.end179
                                        #   in Loop: Header=BB6_7 Depth=1
.LBB6_64:                               # %cond.end181
                                        #   in Loop: Header=BB6_7 Depth=1
	movl	%eax, -164(%rbp)
	movl	-76(%rbp), %eax
	addl	-144(%rbp), %eax
	cmpl	$0, %eax
	jge	.LBB6_66
# %bb.65:                               # %cond.true186
                                        #   in Loop: Header=BB6_7 Depth=1
	xorl	%ecx, %ecx
	jmp	.LBB6_70
.LBB6_66:                               # %cond.false187
                                        #   in Loop: Header=BB6_7 Depth=1
	movl	-76(%rbp), %eax
	addl	-144(%rbp), %eax
	cmpl	$51, %eax
	jle	.LBB6_68
# %bb.67:                               # %cond.true191
                                        #   in Loop: Header=BB6_7 Depth=1
	movl	$51, %ecx
	jmp	.LBB6_69
.LBB6_68:                               # %cond.false192
                                        #   in Loop: Header=BB6_7 Depth=1
	movl	-76(%rbp), %ecx
	addl	-144(%rbp), %ecx
.LBB6_69:                               # %cond.end194
                                        #   in Loop: Header=BB6_7 Depth=1
.LBB6_70:                               # %cond.end196
                                        #   in Loop: Header=BB6_7 Depth=1
	xorl	%eax, %eax
	movl	%ecx, -196(%rbp)
	movslq	-164(%rbp), %rcx
	movzbl	ALPHA_TABLE(,%rcx), %ecx
	imull	-104(%rbp), %ecx
	movl	%ecx, -140(%rbp)
	movslq	-196(%rbp), %rcx
	movzbl	BETA_TABLE(,%rcx), %ecx
	imull	-104(%rbp), %ecx
	movl	%ecx, -100(%rbp)
	movslq	-164(%rbp), %rcx
	imulq	$5, %rcx, %rcx
	movabsq	$CLIP_TAB, %rdx
	addq	%rcx, %rdx
	movq	%rdx, -208(%rbp)
	movq	-88(%rbp), %rcx
	movzwl	(%rcx), %ecx
	movl	%ecx, -20(%rbp)
	movq	-96(%rbp), %rcx
	movzwl	(%rcx), %ecx
	movl	%ecx, -24(%rbp)
	movq	-88(%rbp), %rcx
	xorl	%edx, %edx
	subl	-80(%rbp), %edx
	movslq	%edx, %rdx
	movzwl	(%rcx,%rdx,2), %ecx
	movl	%ecx, -16(%rbp)
	movq	-96(%rbp), %rcx
	movslq	-72(%rbp), %rdx
	movzwl	(%rcx,%rdx,2), %ecx
	movl	%ecx, -12(%rbp)
	movq	-88(%rbp), %rcx
	xorl	%edx, %edx
	subl	-80(%rbp), %edx
	shll	$1, %edx
	movslq	%edx, %rdx
	movzwl	(%rcx,%rdx,2), %ecx
	movl	%ecx, -36(%rbp)
	movq	-96(%rbp), %rcx
	movl	-72(%rbp), %edx
	shll	$1, %edx
	movslq	%edx, %rdx
	movzwl	(%rcx,%rdx,2), %ecx
	movl	%ecx, -32(%rbp)
	movq	-88(%rbp), %rcx
	subl	-80(%rbp), %eax
	imull	$3, %eax, %eax
	cltq
	movzwl	(%rcx,%rax,2), %eax
	movl	%eax, -192(%rbp)
	movq	-96(%rbp), %rax
	imull	$3, -72(%rbp), %ecx
	movslq	%ecx, %rcx
	movzwl	(%rax,%rcx,2), %eax
	movl	%eax, -180(%rbp)
	movq	-248(%rbp), %rax
	movslq	-184(%rbp), %rcx
	movzbl	(%rax,%rcx), %eax
	movl	%eax, -156(%rbp)
	cmpl	$0, %eax
	je	.LBB6_156
# %bb.71:                               # %if.then241
                                        #   in Loop: Header=BB6_7 Depth=1
	movl	-24(%rbp), %edi
	subl	-20(%rbp), %edi
	movl	%edi, -136(%rbp)
	callq	abs
	movl	%eax, -176(%rbp)
	movl	-176(%rbp), %eax
	cmpl	-140(%rbp), %eax
	jge	.LBB6_155
# %bb.72:                               # %if.then245
                                        #   in Loop: Header=BB6_7 Depth=1
	movq	-208(%rbp), %rax
	movslq	-156(%rbp), %rcx
	movzbl	(%rax,%rcx), %eax
	imull	-104(%rbp), %eax
	movl	%eax, -44(%rbp)
	movl	-24(%rbp), %edi
	subl	-12(%rbp), %edi
	callq	abs
	movl	%eax, %ebx
	subl	-100(%rbp), %ebx
	movl	-20(%rbp), %edi
	subl	-16(%rbp), %edi
	callq	abs
	subl	-100(%rbp), %eax
	andl	%eax, %ebx
	cmpl	$0, %ebx
	jge	.LBB6_154
# %bb.73:                               # %if.then258
                                        #   in Loop: Header=BB6_7 Depth=1
	cmpl	$0, 40(%rbp)
	jne	.LBB6_75
# %bb.74:                               # %if.then260
                                        #   in Loop: Header=BB6_7 Depth=1
	movl	-24(%rbp), %edi
	subl	-32(%rbp), %edi
	callq	abs
	subl	-100(%rbp), %eax
	cmpl	$0, %eax
	setl	%al
	andb	$1, %al
	movzbl	%al, %eax
	movl	%eax, -68(%rbp)
	movl	-20(%rbp), %edi
	subl	-36(%rbp), %edi
	callq	abs
	subl	-100(%rbp), %eax
	cmpl	$0, %eax
	setl	%al
	andb	$1, %al
	movzbl	%al, %eax
	movl	%eax, -64(%rbp)
.LBB6_75:                               # %if.end271
                                        #   in Loop: Header=BB6_7 Depth=1
	movl	-20(%rbp), %eax
	addl	-24(%rbp), %eax
	movl	%eax, -40(%rbp)
	cmpl	$4, -156(%rbp)
	jne	.LBB6_98
# %bb.76:                               # %if.then275
                                        #   in Loop: Header=BB6_7 Depth=1
	cmpl	$0, 40(%rbp)
	je	.LBB6_78
# %bb.77:                               # %if.then277
                                        #   in Loop: Header=BB6_7 Depth=1
	movl	-12(%rbp), %eax
	shll	$1, %eax
	addl	-24(%rbp), %eax
	addl	-16(%rbp), %eax
	addl	$2, %eax
	sarl	$2, %eax
	movq	-96(%rbp), %rcx
	movw	%ax, (%rcx)
	movl	-16(%rbp), %eax
	shll	$1, %eax
	addl	-20(%rbp), %eax
	addl	-12(%rbp), %eax
	addl	$2, %eax
	sarl	$2, %eax
	movq	-88(%rbp), %rcx
	movw	%ax, (%rcx)
	jmp	.LBB6_97
.LBB6_78:                               # %if.else292
                                        #   in Loop: Header=BB6_7 Depth=1
	movl	-176(%rbp), %eax
	movl	-140(%rbp), %ecx
	sarl	$2, %ecx
	addl	$2, %ecx
	cmpl	%ecx, %eax
	setl	%al
	andb	$1, %al
	movzbl	%al, %eax
	movl	%eax, -172(%rbp)
	movl	-172(%rbp), %eax
	andl	-68(%rbp), %eax
	movl	%eax, -68(%rbp)
	movl	-172(%rbp), %eax
	andl	-64(%rbp), %eax
	movl	%eax, -64(%rbp)
	cmpl	$0, -68(%rbp)
	je	.LBB6_80
# %bb.79:                               # %cond.true300
                                        #   in Loop: Header=BB6_7 Depth=1
	movl	-16(%rbp), %eax
	movl	-12(%rbp), %ecx
	addl	-40(%rbp), %ecx
	shll	$1, %ecx
	addl	%ecx, %eax
	addl	-32(%rbp), %eax
	addl	$4, %eax
	sarl	$3, %eax
	jmp	.LBB6_81
.LBB6_80:                               # %cond.false307
                                        #   in Loop: Header=BB6_7 Depth=1
	movl	-12(%rbp), %eax
	shll	$1, %eax
	addl	-24(%rbp), %eax
	addl	-16(%rbp), %eax
	addl	$2, %eax
	sarl	$2, %eax
.LBB6_81:                               # %cond.end313
                                        #   in Loop: Header=BB6_7 Depth=1
	movq	-96(%rbp), %rcx
	movw	%ax, (%rcx)
	cmpl	$0, -64(%rbp)
	je	.LBB6_83
# %bb.82:                               # %cond.true318
                                        #   in Loop: Header=BB6_7 Depth=1
	movl	-12(%rbp), %eax
	movl	-16(%rbp), %ecx
	addl	-40(%rbp), %ecx
	shll	$1, %ecx
	addl	%ecx, %eax
	addl	-36(%rbp), %eax
	addl	$4, %eax
	sarl	$3, %eax
	jmp	.LBB6_84
.LBB6_83:                               # %cond.false325
                                        #   in Loop: Header=BB6_7 Depth=1
	movl	-16(%rbp), %eax
	shll	$1, %eax
	addl	-20(%rbp), %eax
	addl	-12(%rbp), %eax
	addl	$2, %eax
	sarl	$2, %eax
.LBB6_84:                               # %cond.end331
                                        #   in Loop: Header=BB6_7 Depth=1
	movq	-88(%rbp), %rcx
	movw	%ax, (%rcx)
	cmpl	$0, -68(%rbp)
	je	.LBB6_86
# %bb.85:                               # %cond.true336
                                        #   in Loop: Header=BB6_7 Depth=1
	movl	-32(%rbp), %eax
	addl	-24(%rbp), %eax
	addl	-12(%rbp), %eax
	addl	-20(%rbp), %eax
	addl	$2, %eax
	sarl	$2, %eax
	jmp	.LBB6_87
.LBB6_86:                               # %cond.false342
                                        #   in Loop: Header=BB6_7 Depth=1
	movl	-12(%rbp), %eax
.LBB6_87:                               # %cond.end343
                                        #   in Loop: Header=BB6_7 Depth=1
	movq	-96(%rbp), %rcx
	movslq	-72(%rbp), %rdx
	movw	%ax, (%rcx,%rdx,2)
	cmpl	$0, -64(%rbp)
	je	.LBB6_89
# %bb.88:                               # %cond.true349
                                        #   in Loop: Header=BB6_7 Depth=1
	movl	-36(%rbp), %eax
	addl	-16(%rbp), %eax
	addl	-20(%rbp), %eax
	addl	-24(%rbp), %eax
	addl	$2, %eax
	sarl	$2, %eax
	jmp	.LBB6_90
.LBB6_89:                               # %cond.false355
                                        #   in Loop: Header=BB6_7 Depth=1
	movl	-16(%rbp), %eax
.LBB6_90:                               # %cond.end356
                                        #   in Loop: Header=BB6_7 Depth=1
	xorl	%ecx, %ecx
	movq	-88(%rbp), %rdx
	subl	-80(%rbp), %ecx
	movslq	%ecx, %rcx
	movw	%ax, (%rdx,%rcx,2)
	cmpl	$0, -68(%rbp)
	je	.LBB6_92
# %bb.91:                               # %cond.true363
                                        #   in Loop: Header=BB6_7 Depth=1
	movl	-180(%rbp), %eax
	addl	-32(%rbp), %eax
	shll	$1, %eax
	addl	-32(%rbp), %eax
	addl	-12(%rbp), %eax
	addl	-40(%rbp), %eax
	addl	$4, %eax
	sarl	$3, %eax
	jmp	.LBB6_93
.LBB6_92:                               # %cond.false371
                                        #   in Loop: Header=BB6_7 Depth=1
	movl	-32(%rbp), %eax
.LBB6_93:                               # %cond.end372
                                        #   in Loop: Header=BB6_7 Depth=1
	movq	-96(%rbp), %rcx
	movl	-72(%rbp), %edx
	shll	$1, %edx
	movslq	%edx, %rdx
	movw	%ax, (%rcx,%rdx,2)
	cmpl	$0, -64(%rbp)
	je	.LBB6_95
# %bb.94:                               # %cond.true379
                                        #   in Loop: Header=BB6_7 Depth=1
	movl	-192(%rbp), %eax
	addl	-36(%rbp), %eax
	shll	$1, %eax
	addl	-36(%rbp), %eax
	addl	-16(%rbp), %eax
	addl	-40(%rbp), %eax
	addl	$4, %eax
	sarl	$3, %eax
	jmp	.LBB6_96
.LBB6_95:                               # %cond.false387
                                        #   in Loop: Header=BB6_7 Depth=1
	movl	-36(%rbp), %eax
.LBB6_96:                               # %cond.end388
                                        #   in Loop: Header=BB6_7 Depth=1
	xorl	%ecx, %ecx
	movq	-88(%rbp), %rdx
	subl	-80(%rbp), %ecx
	shll	$1, %ecx
	movslq	%ecx, %rcx
	movw	%ax, (%rdx,%rcx,2)
.LBB6_97:                               # %if.end395
                                        #   in Loop: Header=BB6_7 Depth=1
	jmp	.LBB6_153
.LBB6_98:                               # %if.else396
                                        #   in Loop: Header=BB6_7 Depth=1
	cmpl	$0, 40(%rbp)
	je	.LBB6_100
# %bb.99:                               # %cond.true398
                                        #   in Loop: Header=BB6_7 Depth=1
	movl	-44(%rbp), %eax
	addl	$1, %eax
	jmp	.LBB6_101
.LBB6_100:                              # %cond.false400
                                        #   in Loop: Header=BB6_7 Depth=1
	movl	-44(%rbp), %eax
	addl	-64(%rbp), %eax
	addl	-68(%rbp), %eax
.LBB6_101:                              # %cond.end403
                                        #   in Loop: Header=BB6_7 Depth=1
	xorl	%ecx, %ecx
	movl	%eax, -108(%rbp)
	movl	-136(%rbp), %eax
	shll	$2, %eax
	movl	-16(%rbp), %edx
	subl	-12(%rbp), %edx
	addl	%edx, %eax
	addl	$4, %eax
	sarl	$3, %eax
	subl	-108(%rbp), %ecx
	cmpl	%ecx, %eax
	jge	.LBB6_103
# %bb.102:                              # %cond.true413
                                        #   in Loop: Header=BB6_7 Depth=1
	xorl	%eax, %eax
	subl	-108(%rbp), %eax
	jmp	.LBB6_107
.LBB6_103:                              # %cond.false415
                                        #   in Loop: Header=BB6_7 Depth=1
	movl	-136(%rbp), %eax
	shll	$2, %eax
	movl	-16(%rbp), %ecx
	subl	-12(%rbp), %ecx
	addl	%ecx, %eax
	addl	$4, %eax
	sarl	$3, %eax
	cmpl	-108(%rbp), %eax
	jle	.LBB6_105
# %bb.104:                              # %cond.true423
                                        #   in Loop: Header=BB6_7 Depth=1
	movl	-108(%rbp), %eax
	jmp	.LBB6_106
.LBB6_105:                              # %cond.false424
                                        #   in Loop: Header=BB6_7 Depth=1
	movl	-136(%rbp), %eax
	shll	$2, %eax
	movl	-16(%rbp), %ecx
	subl	-12(%rbp), %ecx
	addl	%ecx, %eax
	addl	$4, %eax
	sarl	$3, %eax
.LBB6_106:                              # %cond.end430
                                        #   in Loop: Header=BB6_7 Depth=1
.LBB6_107:                              # %cond.end432
                                        #   in Loop: Header=BB6_7 Depth=1
	movl	%eax, -28(%rbp)
	cmpl	$0, 40(%rbp)
	jne	.LBB6_121
# %bb.108:                              # %if.then435
                                        #   in Loop: Header=BB6_7 Depth=1
	movl	-20(%rbp), %eax
	addl	-28(%rbp), %eax
	cmpl	$0, %eax
	jge	.LBB6_110
# %bb.109:                              # %cond.true439
                                        #   in Loop: Header=BB6_7 Depth=1
	xorl	%eax, %eax
	jmp	.LBB6_114
.LBB6_110:                              # %cond.false440
                                        #   in Loop: Header=BB6_7 Depth=1
	movl	-20(%rbp), %eax
	addl	-28(%rbp), %eax
	movq	-56(%rbp), %rcx
	cmpl	72684(%rcx), %eax
	jle	.LBB6_112
# %bb.111:                              # %cond.true444
                                        #   in Loop: Header=BB6_7 Depth=1
	movq	-56(%rbp), %rax
	movl	72684(%rax), %eax
	jmp	.LBB6_113
.LBB6_112:                              # %cond.false446
                                        #   in Loop: Header=BB6_7 Depth=1
	movl	-20(%rbp), %eax
	addl	-28(%rbp), %eax
.LBB6_113:                              # %cond.end448
                                        #   in Loop: Header=BB6_7 Depth=1
.LBB6_114:                              # %cond.end450
                                        #   in Loop: Header=BB6_7 Depth=1
	movq	-88(%rbp), %rcx
	movw	%ax, (%rcx)
	movl	-24(%rbp), %eax
	subl	-28(%rbp), %eax
	cmpl	$0, %eax
	jge	.LBB6_116
# %bb.115:                              # %cond.true457
                                        #   in Loop: Header=BB6_7 Depth=1
	xorl	%eax, %eax
	jmp	.LBB6_120
.LBB6_116:                              # %cond.false458
                                        #   in Loop: Header=BB6_7 Depth=1
	movl	-24(%rbp), %eax
	subl	-28(%rbp), %eax
	movq	-56(%rbp), %rcx
	cmpl	72684(%rcx), %eax
	jle	.LBB6_118
# %bb.117:                              # %cond.true463
                                        #   in Loop: Header=BB6_7 Depth=1
	movq	-56(%rbp), %rax
	movl	72684(%rax), %eax
	jmp	.LBB6_119
.LBB6_118:                              # %cond.false465
                                        #   in Loop: Header=BB6_7 Depth=1
	movl	-24(%rbp), %eax
	subl	-28(%rbp), %eax
.LBB6_119:                              # %cond.end467
                                        #   in Loop: Header=BB6_7 Depth=1
.LBB6_120:                              # %cond.end469
                                        #   in Loop: Header=BB6_7 Depth=1
	movq	-96(%rbp), %rcx
	movw	%ax, (%rcx)
	jmp	.LBB6_134
.LBB6_121:                              # %if.else473
                                        #   in Loop: Header=BB6_7 Depth=1
	movl	-20(%rbp), %eax
	addl	-28(%rbp), %eax
	cmpl	$0, %eax
	jge	.LBB6_123
# %bb.122:                              # %cond.true477
                                        #   in Loop: Header=BB6_7 Depth=1
	xorl	%eax, %eax
	jmp	.LBB6_127
.LBB6_123:                              # %cond.false478
                                        #   in Loop: Header=BB6_7 Depth=1
	movl	-20(%rbp), %eax
	addl	-28(%rbp), %eax
	movq	-56(%rbp), %rcx
	cmpl	72688(%rcx), %eax
	jle	.LBB6_125
# %bb.124:                              # %cond.true482
                                        #   in Loop: Header=BB6_7 Depth=1
	movq	-56(%rbp), %rax
	movl	72688(%rax), %eax
	jmp	.LBB6_126
.LBB6_125:                              # %cond.false484
                                        #   in Loop: Header=BB6_7 Depth=1
	movl	-20(%rbp), %eax
	addl	-28(%rbp), %eax
.LBB6_126:                              # %cond.end486
                                        #   in Loop: Header=BB6_7 Depth=1
.LBB6_127:                              # %cond.end488
                                        #   in Loop: Header=BB6_7 Depth=1
	movq	-88(%rbp), %rcx
	movw	%ax, (%rcx)
	movl	-24(%rbp), %eax
	subl	-28(%rbp), %eax
	cmpl	$0, %eax
	jge	.LBB6_129
# %bb.128:                              # %cond.true495
                                        #   in Loop: Header=BB6_7 Depth=1
	xorl	%eax, %eax
	jmp	.LBB6_133
.LBB6_129:                              # %cond.false496
                                        #   in Loop: Header=BB6_7 Depth=1
	movl	-24(%rbp), %eax
	subl	-28(%rbp), %eax
	movq	-56(%rbp), %rcx
	cmpl	72688(%rcx), %eax
	jle	.LBB6_131
# %bb.130:                              # %cond.true501
                                        #   in Loop: Header=BB6_7 Depth=1
	movq	-56(%rbp), %rax
	movl	72688(%rax), %eax
	jmp	.LBB6_132
.LBB6_131:                              # %cond.false503
                                        #   in Loop: Header=BB6_7 Depth=1
	movl	-24(%rbp), %eax
	subl	-28(%rbp), %eax
.LBB6_132:                              # %cond.end505
                                        #   in Loop: Header=BB6_7 Depth=1
.LBB6_133:                              # %cond.end507
                                        #   in Loop: Header=BB6_7 Depth=1
	movq	-96(%rbp), %rcx
	movw	%ax, (%rcx)
.LBB6_134:                              # %if.end511
                                        #   in Loop: Header=BB6_7 Depth=1
	cmpl	$0, 40(%rbp)
	jne	.LBB6_152
# %bb.135:                              # %if.then513
                                        #   in Loop: Header=BB6_7 Depth=1
	cmpl	$0, -64(%rbp)
	je	.LBB6_143
# %bb.136:                              # %if.then515
                                        #   in Loop: Header=BB6_7 Depth=1
	xorl	%eax, %eax
	movl	-36(%rbp), %ecx
	movl	-40(%rbp), %edx
	addl	$1, %edx
	sarl	$1, %edx
	addl	%edx, %ecx
	movl	-16(%rbp), %edx
	shll	$1, %edx
	subl	%edx, %ecx
	sarl	$1, %ecx
	subl	-44(%rbp), %eax
	cmpl	%eax, %ecx
	jge	.LBB6_138
# %bb.137:                              # %cond.true525
                                        #   in Loop: Header=BB6_7 Depth=1
	xorl	%eax, %eax
	subl	-44(%rbp), %eax
	jmp	.LBB6_142
.LBB6_138:                              # %cond.false527
                                        #   in Loop: Header=BB6_7 Depth=1
	movl	-36(%rbp), %eax
	movl	-40(%rbp), %ecx
	addl	$1, %ecx
	sarl	$1, %ecx
	addl	%ecx, %eax
	movl	-16(%rbp), %ecx
	shll	$1, %ecx
	subl	%ecx, %eax
	sarl	$1, %eax
	cmpl	-44(%rbp), %eax
	jle	.LBB6_140
# %bb.139:                              # %cond.true536
                                        #   in Loop: Header=BB6_7 Depth=1
	movl	-44(%rbp), %eax
	jmp	.LBB6_141
.LBB6_140:                              # %cond.false537
                                        #   in Loop: Header=BB6_7 Depth=1
	movl	-36(%rbp), %eax
	movl	-40(%rbp), %ecx
	addl	$1, %ecx
	sarl	$1, %ecx
	addl	%ecx, %eax
	movl	-16(%rbp), %ecx
	shll	$1, %ecx
	subl	%ecx, %eax
	sarl	$1, %eax
.LBB6_141:                              # %cond.end544
                                        #   in Loop: Header=BB6_7 Depth=1
.LBB6_142:                              # %cond.end546
                                        #   in Loop: Header=BB6_7 Depth=1
	xorl	%ecx, %ecx
	movq	-88(%rbp), %rdx
	subl	-80(%rbp), %ecx
	movslq	%ecx, %rcx
	movzwl	(%rdx,%rcx,2), %esi
	addl	%eax, %esi
	movw	%si, (%rdx,%rcx,2)
.LBB6_143:                              # %if.end554
                                        #   in Loop: Header=BB6_7 Depth=1
	cmpl	$0, -68(%rbp)
	je	.LBB6_151
# %bb.144:                              # %if.then556
                                        #   in Loop: Header=BB6_7 Depth=1
	xorl	%eax, %eax
	movl	-32(%rbp), %ecx
	movl	-40(%rbp), %edx
	addl	$1, %edx
	sarl	$1, %edx
	addl	%edx, %ecx
	movl	-12(%rbp), %edx
	shll	$1, %edx
	subl	%edx, %ecx
	sarl	$1, %ecx
	subl	-44(%rbp), %eax
	cmpl	%eax, %ecx
	jge	.LBB6_146
# %bb.145:                              # %cond.true566
                                        #   in Loop: Header=BB6_7 Depth=1
	xorl	%eax, %eax
	subl	-44(%rbp), %eax
	jmp	.LBB6_150
.LBB6_146:                              # %cond.false568
                                        #   in Loop: Header=BB6_7 Depth=1
	movl	-32(%rbp), %eax
	movl	-40(%rbp), %ecx
	addl	$1, %ecx
	sarl	$1, %ecx
	addl	%ecx, %eax
	movl	-12(%rbp), %ecx
	shll	$1, %ecx
	subl	%ecx, %eax
	sarl	$1, %eax
	cmpl	-44(%rbp), %eax
	jle	.LBB6_148
# %bb.147:                              # %cond.true577
                                        #   in Loop: Header=BB6_7 Depth=1
	movl	-44(%rbp), %eax
	jmp	.LBB6_149
.LBB6_148:                              # %cond.false578
                                        #   in Loop: Header=BB6_7 Depth=1
	movl	-32(%rbp), %eax
	movl	-40(%rbp), %ecx
	addl	$1, %ecx
	sarl	$1, %ecx
	addl	%ecx, %eax
	movl	-12(%rbp), %ecx
	shll	$1, %ecx
	subl	%ecx, %eax
	sarl	$1, %eax
.LBB6_149:                              # %cond.end585
                                        #   in Loop: Header=BB6_7 Depth=1
.LBB6_150:                              # %cond.end587
                                        #   in Loop: Header=BB6_7 Depth=1
	movq	-96(%rbp), %rcx
	movslq	-72(%rbp), %rdx
	movzwl	(%rcx,%rdx,2), %esi
	addl	%eax, %esi
	movw	%si, (%rcx,%rdx,2)
.LBB6_151:                              # %if.end594
                                        #   in Loop: Header=BB6_7 Depth=1
	jmp	.LBB6_152
.LBB6_152:                              # %if.end595
                                        #   in Loop: Header=BB6_7 Depth=1
	jmp	.LBB6_153
.LBB6_153:                              # %if.end596
                                        #   in Loop: Header=BB6_7 Depth=1
	jmp	.LBB6_154
.LBB6_154:                              # %if.end597
                                        #   in Loop: Header=BB6_7 Depth=1
	jmp	.LBB6_155
.LBB6_155:                              # %if.end598
                                        #   in Loop: Header=BB6_7 Depth=1
	jmp	.LBB6_156
.LBB6_156:                              # %if.end599
                                        #   in Loop: Header=BB6_7 Depth=1
	jmp	.LBB6_157
.LBB6_157:                              # %if.end600
                                        #   in Loop: Header=BB6_7 Depth=1
	jmp	.LBB6_158
.LBB6_158:                              # %for.inc
                                        #   in Loop: Header=BB6_7 Depth=1
	movl	-60(%rbp), %eax
	addl	$1, %eax
	movl	%eax, -60(%rbp)
	jmp	.LBB6_7
.LBB6_159:                              # %for.end
	cmpl	$1266047083, -188(%rbp) # imm = 0x4B76586B
	jne	.LBB6_161
.LBB6_160:
	addq	$312, %rsp              # imm = 0x138
	popq	%rbx
	popq	%rbp
	.cfi_def_cfa %rsp, 8
	retq
.LBB6_161:                              # %func_exit
	.cfi_def_cfa %rbp, 16
	callq	detect_breach
	jmp	.LBB6_160
.Lfunc_end6:
	.size	EdgeLoop.3, .Lfunc_end6-EdgeLoop.3
	.cfi_endproc
                                        # -- End function
	.globl	DeblockFrame.4          # -- Begin function DeblockFrame.4
	.p2align	4, 0x90
	.type	DeblockFrame.4,@function
DeblockFrame.4:                         # @DeblockFrame.4
	.cfi_startproc
# %bb.0:                                # %entry
	pushq	%rbp
	.cfi_def_cfa_offset 16
	.cfi_offset %rbp, -16
	movq	%rsp, %rbp
	.cfi_def_cfa_register %rbp
	subq	$32, %rsp
	movl	$1950402362, -8(%rbp)   # imm = 0x7440C73A
	movq	%rdi, -16(%rbp)
	movq	%rsi, -24(%rbp)
	movq	%rdx, -32(%rbp)
	movl	$0, -4(%rbp)
.LBB7_1:                                # %for.cond
                                        # =>This Inner Loop Header: Depth=1
	movl	-4(%rbp), %eax
	movq	-16(%rbp), %rcx
	cmpl	72484(%rcx), %eax
	jae	.LBB7_4
# %bb.2:                                # %for.body
                                        #   in Loop: Header=BB7_1 Depth=1
	movq	-16(%rbp), %rdi
	movq	-24(%rbp), %rsi
	movq	-32(%rbp), %rdx
	movl	-4(%rbp), %ecx
	callq	DeblockMb
# %bb.3:                                # %for.inc
                                        #   in Loop: Header=BB7_1 Depth=1
	movl	-4(%rbp), %eax
	addl	$1, %eax
	movl	%eax, -4(%rbp)
	jmp	.LBB7_1
.LBB7_4:                                # %for.end
	cmpl	$1950402362, -8(%rbp)   # imm = 0x7440C73A
	jne	.LBB7_6
.LBB7_5:
	addq	$32, %rsp
	popq	%rbp
	.cfi_def_cfa %rsp, 8
	retq
.LBB7_6:                                # %func_exit
	.cfi_def_cfa %rbp, 16
	callq	detect_breach
	jmp	.LBB7_5
.Lfunc_end7:
	.size	DeblockFrame.4, .Lfunc_end7-DeblockFrame.4
	.cfi_endproc
                                        # -- End function
	.globl	DeblockMb.5             # -- Begin function DeblockMb.5
	.p2align	4, 0x90
	.type	DeblockMb.5,@function
DeblockMb.5:                            # @DeblockMb.5
	.cfi_startproc
# %bb.0:                                # %entry
	pushq	%rbp
	.cfi_def_cfa_offset 16
	.cfi_offset %rbp, -16
	movq	%rsp, %rbp
	.cfi_def_cfa_register %rbp
	subq	$176, %rsp
	movl	$1750070322, -112(%rbp) # imm = 0x684FF432
	movq	%rdi, -16(%rbp)
	movq	%rsi, -136(%rbp)
	movq	%rdx, -64(%rbp)
	movl	%ecx, -20(%rbp)
	movq	.L__const.DeblockMb.filterNon8x8LumaEdgesFlag, %rax
	movq	%rax, -128(%rbp)
	movq	.L__const.DeblockMb.filterNon8x8LumaEdgesFlag+8, %rax
	movq	%rax, -120(%rbp)
	movl	$4, -52(%rbp)
	movq	-16(%rbp), %rax
	movl	$1, 72636(%rax)
	movl	-20(%rbp), %edi
	leaq	-100(%rbp), %rsi
	leaq	-72(%rbp), %rdx
	callq	get_mb_pos
	cmpl	$0, -100(%rbp)
	setne	%al
	andb	$1, %al
	movzbl	%al, %eax
	movl	%eax, -68(%rbp)
	cmpl	$0, -72(%rbp)
	setne	%al
	andb	$1, %al
	movzbl	%al, %eax
	movl	%eax, -48(%rbp)
	movq	-16(%rbp), %rax
	movq	14168(%rax), %rax
	movslq	-20(%rbp), %rcx
	imulq	$632, %rcx, %rcx        # imm = 0x278
	addq	%rcx, %rax
	movq	%rax, -32(%rbp)
	movq	-32(%rbp), %rax
	cmpl	$13, 72(%rax)
	jne	.LBB8_2
# %bb.1:                                # %if.then
	jmp	.LBB8_2
.LBB8_2:                                # %if.end
	movq	-32(%rbp), %rax
	cmpl	$0, 572(%rax)
	setne	%al
	xorb	$-1, %al
	andb	$1, %al
	movzbl	%al, %eax
	movl	%eax, -116(%rbp)
	movl	%eax, -124(%rbp)
	movq	-16(%rbp), %rax
	cmpl	$0, 72400(%rax)
	je	.LBB8_6
# %bb.3:                                # %land.lhs.true
	cmpl	$16, -72(%rbp)
	jne	.LBB8_6
# %bb.4:                                # %land.lhs.true10
	movq	-32(%rbp), %rax
	cmpl	$0, 532(%rax)
	je	.LBB8_6
# %bb.5:                                # %if.then12
	movl	$0, -48(%rbp)
.LBB8_6:                                # %if.end13
	movq	-16(%rbp), %rax
	cmpl	$0, 28(%rax)
	movb	$1, %al
	jne	.LBB8_10
# %bb.7:                                # %lor.rhs
	xorl	%eax, %eax
	movq	-16(%rbp), %rcx
	cmpl	$0, 72400(%rcx)
	je	.LBB8_9
# %bb.8:                                # %land.rhs
	movq	-32(%rbp), %rax
	cmpl	$0, 532(%rax)
	setne	%al
.LBB8_9:                                # %land.end
.LBB8_10:                               # %lor.end
	andb	$1, %al
	movzbl	%al, %eax
	movl	%eax, -108(%rbp)
	cmpl	$0, -108(%rbp)
	je	.LBB8_12
# %bb.11:                               # %if.then21
	movl	$2, -52(%rbp)
.LBB8_12:                               # %if.end22
	movq	-32(%rbp), %rax
	cmpl	$1, 612(%rax)
	jne	.LBB8_14
# %bb.13:                               # %if.then25
	movq	-16(%rbp), %rax
	movl	$0, 72636(%rax)
	jmp	.LBB8_61
.LBB8_14:                               # %if.end27
	movq	-32(%rbp), %rax
	cmpl	$2, 612(%rax)
	jne	.LBB8_21
# %bb.15:                               # %if.then31
	movq	-32(%rbp), %rax
	movl	552(%rax), %eax
	movl	%eax, -68(%rbp)
	movq	-16(%rbp), %rax
	cmpl	$0, 72400(%rax)
	je	.LBB8_19
# %bb.16:                               # %land.lhs.true34
	movq	-32(%rbp), %rax
	cmpl	$0, 532(%rax)
	jne	.LBB8_19
# %bb.17:                               # %land.lhs.true37
	movl	-20(%rbp), %eax
	cltd
	movl	$2, %ecx
	idivl	%ecx
	cmpl	$0, %edx
	je	.LBB8_19
# %bb.18:                               # %if.then39
	movl	$1, -48(%rbp)
	jmp	.LBB8_20
.LBB8_19:                               # %if.else
	movq	-32(%rbp), %rax
	movl	556(%rax), %eax
	movl	%eax, -48(%rbp)
.LBB8_20:                               # %if.end40
	jmp	.LBB8_21
.LBB8_21:                               # %if.end41
	movl	-20(%rbp), %eax
	movq	-16(%rbp), %rcx
	movl	%eax, 12(%rcx)
	movb	$0, %al
	callq	CheckAvailabilityOfNeighbors
	movl	$0, -4(%rbp)
.LBB8_22:                               # %for.cond
                                        # =>This Loop Header: Depth=1
                                        #     Child Loop BB8_29 Depth 2
                                        #       Child Loop BB8_33 Depth 3
	cmpl	$2, -4(%rbp)
	jge	.LBB8_60
# %bb.23:                               # %for.body
                                        #   in Loop: Header=BB8_22 Depth=1
	cmpl	$0, -4(%rbp)
	je	.LBB8_25
# %bb.24:                               # %land.lhs.true45
                                        #   in Loop: Header=BB8_22 Depth=1
	cmpl	$0, -48(%rbp)
	movb	$1, %al
	jne	.LBB8_28
.LBB8_25:                               # %lor.rhs47
                                        #   in Loop: Header=BB8_22 Depth=1
	xorl	%eax, %eax
	cmpl	$0, -4(%rbp)
	jne	.LBB8_27
# %bb.26:                               # %land.rhs49
                                        #   in Loop: Header=BB8_22 Depth=1
	cmpl	$0, -68(%rbp)
	setne	%al
.LBB8_27:                               # %land.end51
                                        #   in Loop: Header=BB8_22 Depth=1
.LBB8_28:                               # %lor.end52
                                        #   in Loop: Header=BB8_22 Depth=1
	andb	$1, %al
	movzbl	%al, %eax
	movl	%eax, -104(%rbp)
	movl	$0, -36(%rbp)
.LBB8_29:                               # %for.cond54
                                        #   Parent Loop BB8_22 Depth=1
                                        # =>  This Loop Header: Depth=2
                                        #       Child Loop BB8_33 Depth 3
	cmpl	$4, -36(%rbp)
	jge	.LBB8_58
# %bb.30:                               # %for.body57
                                        #   in Loop: Header=BB8_29 Depth=2
	cmpl	$0, -36(%rbp)
	jne	.LBB8_32
# %bb.31:                               # %lor.lhs.false
                                        #   in Loop: Header=BB8_29 Depth=2
	cmpl	$0, -104(%rbp)
	je	.LBB8_56
.LBB8_32:                               # %if.then60
                                        #   in Loop: Header=BB8_29 Depth=2
	leaq	-96(%rbp), %rdi
	movslq	-4(%rbp), %rax
	shlq	$4, %rax
	movabsq	$chroma_edge, %rcx
	addq	%rax, %rcx
	movslq	-36(%rbp), %rax
	shlq	$2, %rax
	addq	%rax, %rcx
	movq	-16(%rbp), %rax
	movslq	72700(%rax), %rax
	movsbl	(%rcx,%rax), %eax
	movl	%eax, -44(%rbp)
	movq	-16(%rbp), %rsi
	movl	-20(%rbp), %edx
	movl	-4(%rbp), %ecx
	movl	-36(%rbp), %r8d
	movl	-52(%rbp), %r9d
	callq	GetStrength
	movzbl	-96(%rbp), %eax
	movl	%eax, -56(%rbp)
	movl	$1, -40(%rbp)
.LBB8_33:                               # %for.cond70
                                        #   Parent Loop BB8_22 Depth=1
                                        #     Parent Loop BB8_29 Depth=2
                                        # =>    This Inner Loop Header: Depth=3
	cmpl	$16, -40(%rbp)
	jge	.LBB8_36
# %bb.34:                               # %for.body73
                                        #   in Loop: Header=BB8_33 Depth=3
	movslq	-40(%rbp), %rax
	movzbl	-96(%rbp,%rax), %eax
	addl	-56(%rbp), %eax
	movl	%eax, -56(%rbp)
# %bb.35:                               # %for.inc
                                        #   in Loop: Header=BB8_33 Depth=3
	movl	-40(%rbp), %eax
	addl	$1, %eax
	movl	%eax, -40(%rbp)
	jmp	.LBB8_33
.LBB8_36:                               # %for.end
                                        #   in Loop: Header=BB8_29 Depth=2
	cmpl	$0, -56(%rbp)
	je	.LBB8_43
# %bb.37:                               # %if.then78
                                        #   in Loop: Header=BB8_29 Depth=2
	movslq	-36(%rbp), %rax
	cmpl	$0, -128(%rbp,%rax,4)
	je	.LBB8_39
# %bb.38:                               # %if.then82
                                        #   in Loop: Header=BB8_29 Depth=2
	xorl	%eax, %eax
	leaq	-96(%rbp), %rsi
	movq	-136(%rbp), %rdi
	movq	-16(%rbp), %rdx
	movl	-20(%rbp), %ecx
	movq	-32(%rbp), %rax
	movl	616(%rax), %r8d
	movq	-32(%rbp), %rax
	movl	620(%rax), %r9d
	movl	-4(%rbp), %r11d
	movl	-36(%rbp), %r10d
	movq	-16(%rbp), %rax
	movl	52(%rax), %eax
	movl	%r11d, (%rsp)
	movl	%r10d, 8(%rsp)
	movl	%eax, 16(%rsp)
	movl	$0, 24(%rsp)
	movl	$0, 32(%rsp)
	callq	EdgeLoop
.LBB8_39:                               # %if.end84
                                        #   in Loop: Header=BB8_29 Depth=2
	cmpq	$0, -64(%rbp)
	je	.LBB8_42
# %bb.40:                               # %land.lhs.true87
                                        #   in Loop: Header=BB8_29 Depth=2
	cmpl	$0, -44(%rbp)
	jl	.LBB8_42
# %bb.41:                               # %if.then90
                                        #   in Loop: Header=BB8_29 Depth=2
	xorl	%eax, %eax
	leaq	-96(%rbp), %rsi
	movq	-64(%rbp), %rax
	movq	(%rax), %rdi
	movq	-16(%rbp), %rdx
	movl	-20(%rbp), %ecx
	movq	-32(%rbp), %rax
	movl	616(%rax), %r8d
	movq	-32(%rbp), %rax
	movl	620(%rax), %r9d
	movl	-4(%rbp), %r11d
	movl	-44(%rbp), %r10d
	movq	-16(%rbp), %rax
	movl	56(%rax), %eax
	movl	%r11d, (%rsp)
	movl	%r10d, 8(%rsp)
	movl	%eax, 16(%rsp)
	movl	$1, 24(%rsp)
	movl	$0, 32(%rsp)
	callq	EdgeLoop
	leaq	-96(%rbp), %rsi
	movq	-64(%rbp), %rax
	movq	8(%rax), %rdi
	movq	-16(%rbp), %rdx
	movl	-20(%rbp), %ecx
	movq	-32(%rbp), %rax
	movl	616(%rax), %r8d
	movq	-32(%rbp), %rax
	movl	620(%rax), %r9d
	movl	-4(%rbp), %r11d
	movl	-44(%rbp), %r10d
	movq	-16(%rbp), %rax
	movl	56(%rax), %eax
	movl	%r11d, (%rsp)
	movl	%r10d, 8(%rsp)
	movl	%eax, 16(%rsp)
	movl	$1, 24(%rsp)
	movl	$1, 32(%rsp)
	callq	EdgeLoop
.LBB8_42:                               # %if.end100
                                        #   in Loop: Header=BB8_29 Depth=2
	jmp	.LBB8_43
.LBB8_43:                               # %if.end101
                                        #   in Loop: Header=BB8_29 Depth=2
	cmpl	$0, -4(%rbp)
	je	.LBB8_55
# %bb.44:                               # %land.lhs.true103
                                        #   in Loop: Header=BB8_29 Depth=2
	cmpl	$0, -36(%rbp)
	jne	.LBB8_55
# %bb.45:                               # %land.lhs.true105
                                        #   in Loop: Header=BB8_29 Depth=2
	movq	-32(%rbp), %rax
	cmpl	$0, 532(%rax)
	jne	.LBB8_55
# %bb.46:                               # %land.lhs.true108
                                        #   in Loop: Header=BB8_29 Depth=2
	movzbl	mixedModeEdgeFlag, %eax
	cmpl	$0, %eax
	je	.LBB8_55
# %bb.47:                               # %if.then111
                                        #   in Loop: Header=BB8_29 Depth=2
	leaq	-96(%rbp), %rdi
	movq	-16(%rbp), %rax
	movl	$2, 72636(%rax)
	movq	-16(%rbp), %rsi
	movl	-20(%rbp), %edx
	movl	-4(%rbp), %ecx
	movl	-52(%rbp), %r9d
	movl	$4, %r8d
	callq	GetStrength
	cmpl	$0, -96(%rbp)
	je	.LBB8_54
# %bb.48:                               # %if.then116
                                        #   in Loop: Header=BB8_29 Depth=2
	movslq	-36(%rbp), %rax
	cmpl	$0, -128(%rbp,%rax,4)
	je	.LBB8_50
# %bb.49:                               # %if.then120
                                        #   in Loop: Header=BB8_29 Depth=2
	xorl	%eax, %eax
	leaq	-96(%rbp), %rsi
	movq	-136(%rbp), %rdi
	movq	-16(%rbp), %rdx
	movl	-20(%rbp), %ecx
	movq	-32(%rbp), %rax
	movl	616(%rax), %r8d
	movq	-32(%rbp), %rax
	movl	620(%rax), %r9d
	movl	-4(%rbp), %r10d
	movq	-16(%rbp), %rax
	movl	52(%rax), %eax
	movl	%r10d, (%rsp)
	movl	$4, 8(%rsp)
	movl	%eax, 16(%rsp)
	movl	$0, 24(%rsp)
	movl	$0, 32(%rsp)
	callq	EdgeLoop
.LBB8_50:                               # %if.end125
                                        #   in Loop: Header=BB8_29 Depth=2
	cmpq	$0, -64(%rbp)
	je	.LBB8_53
# %bb.51:                               # %land.lhs.true128
                                        #   in Loop: Header=BB8_29 Depth=2
	cmpl	$0, -44(%rbp)
	jl	.LBB8_53
# %bb.52:                               # %if.then131
                                        #   in Loop: Header=BB8_29 Depth=2
	xorl	%eax, %eax
	leaq	-96(%rbp), %rsi
	movq	-64(%rbp), %rax
	movq	(%rax), %rdi
	movq	-16(%rbp), %rdx
	movl	-20(%rbp), %ecx
	movq	-32(%rbp), %rax
	movl	616(%rax), %r8d
	movq	-32(%rbp), %rax
	movl	620(%rax), %r9d
	movl	-4(%rbp), %r10d
	movq	-16(%rbp), %rax
	movl	56(%rax), %eax
	movl	%r10d, (%rsp)
	movl	$4, 8(%rsp)
	movl	%eax, 16(%rsp)
	movl	$1, 24(%rsp)
	movl	$0, 32(%rsp)
	callq	EdgeLoop
	leaq	-96(%rbp), %rsi
	movq	-64(%rbp), %rax
	movq	8(%rax), %rdi
	movq	-16(%rbp), %rdx
	movl	-20(%rbp), %ecx
	movq	-32(%rbp), %rax
	movl	616(%rax), %r8d
	movq	-32(%rbp), %rax
	movl	620(%rax), %r9d
	movl	-4(%rbp), %r10d
	movq	-16(%rbp), %rax
	movl	56(%rax), %eax
	movl	%r10d, (%rsp)
	movl	$4, 8(%rsp)
	movl	%eax, 16(%rsp)
	movl	$1, 24(%rsp)
	movl	$1, 32(%rsp)
	callq	EdgeLoop
.LBB8_53:                               # %if.end142
                                        #   in Loop: Header=BB8_29 Depth=2
	jmp	.LBB8_54
.LBB8_54:                               # %if.end143
                                        #   in Loop: Header=BB8_29 Depth=2
	movq	-16(%rbp), %rax
	movl	$1, 72636(%rax)
.LBB8_55:                               # %if.end145
                                        #   in Loop: Header=BB8_29 Depth=2
	jmp	.LBB8_56
.LBB8_56:                               # %if.end146
                                        #   in Loop: Header=BB8_29 Depth=2
	jmp	.LBB8_57
.LBB8_57:                               # %for.inc147
                                        #   in Loop: Header=BB8_29 Depth=2
	movl	-36(%rbp), %eax
	addl	$1, %eax
	movl	%eax, -36(%rbp)
	jmp	.LBB8_29
.LBB8_58:                               # %for.end149
                                        #   in Loop: Header=BB8_22 Depth=1
	jmp	.LBB8_59
.LBB8_59:                               # %for.inc150
                                        #   in Loop: Header=BB8_22 Depth=1
	movl	-4(%rbp), %eax
	addl	$1, %eax
	movl	%eax, -4(%rbp)
	jmp	.LBB8_22
.LBB8_60:                               # %for.end152
	movq	-16(%rbp), %rax
	movl	$0, 72636(%rax)
.LBB8_61:                               # %return
	cmpl	$1750070322, -112(%rbp) # imm = 0x684FF432
	jne	.LBB8_63
.LBB8_62:
	addq	$176, %rsp
	popq	%rbp
	.cfi_def_cfa %rsp, 8
	retq
.LBB8_63:                               # %func_exit
	.cfi_def_cfa %rbp, 16
	callq	detect_breach
	jmp	.LBB8_62
.Lfunc_end8:
	.size	DeblockMb.5, .Lfunc_end8-DeblockMb.5
	.cfi_endproc
                                        # -- End function
	.globl	DeblockFrame.6          # -- Begin function DeblockFrame.6
	.p2align	4, 0x90
	.type	DeblockFrame.6,@function
DeblockFrame.6:                         # @DeblockFrame.6
	.cfi_startproc
# %bb.0:                                # %entry
	pushq	%rbp
	.cfi_def_cfa_offset 16
	.cfi_offset %rbp, -16
	movq	%rsp, %rbp
	.cfi_def_cfa_register %rbp
	subq	$32, %rsp
	movl	$850907532, -8(%rbp)    # imm = 0x32B7D18C
	movq	%rdi, -16(%rbp)
	movq	%rsi, -32(%rbp)
	movq	%rdx, -24(%rbp)
	movl	$0, -4(%rbp)
.LBB9_1:                                # %for.cond
                                        # =>This Inner Loop Header: Depth=1
	movl	-4(%rbp), %eax
	movq	-16(%rbp), %rcx
	cmpl	72484(%rcx), %eax
	jae	.LBB9_4
# %bb.2:                                # %for.body
                                        #   in Loop: Header=BB9_1 Depth=1
	movq	-16(%rbp), %rdi
	movq	-32(%rbp), %rsi
	movq	-24(%rbp), %rdx
	movl	-4(%rbp), %ecx
	callq	DeblockMb
# %bb.3:                                # %for.inc
                                        #   in Loop: Header=BB9_1 Depth=1
	movl	-4(%rbp), %eax
	addl	$1, %eax
	movl	%eax, -4(%rbp)
	jmp	.LBB9_1
.LBB9_4:                                # %for.end
	cmpl	$850907532, -8(%rbp)    # imm = 0x32B7D18C
	jne	.LBB9_6
.LBB9_5:
	addq	$32, %rsp
	popq	%rbp
	.cfi_def_cfa %rsp, 8
	retq
.LBB9_6:                                # %func_exit
	.cfi_def_cfa %rbp, 16
	callq	detect_breach
	jmp	.LBB9_5
.Lfunc_end9:
	.size	DeblockFrame.6, .Lfunc_end9-DeblockFrame.6
	.cfi_endproc
                                        # -- End function
	.globl	GetStrength.7           # -- Begin function GetStrength.7
	.p2align	4, 0x90
	.type	GetStrength.7,@function
GetStrength.7:                          # @GetStrength.7
	.cfi_startproc
# %bb.0:                                # %entry
	pushq	%rbp
	.cfi_def_cfa_offset 16
	.cfi_offset %rbp, -16
	movq	%rsp, %rbp
	.cfi_def_cfa_register %rbp
	pushq	%rbx
	subq	$216, %rsp
	.cfi_offset %rbx, -24
	movl	$48507444, -136(%rbp)   # imm = 0x2E42A34
	movq	%rdi, -72(%rbp)
	movq	%rsi, -56(%rbp)
	movl	%edx, -96(%rbp)
	movl	%ecx, -60(%rbp)
	movl	%r8d, -64(%rbp)
	movl	%r9d, -32(%rbp)
	movq	enc_picture, %rax
	movq	6504(%rax), %rax
	movq	(%rax), %rax
	movq	%rax, -40(%rbp)
	movq	enc_picture, %rax
	movq	6504(%rax), %rax
	movq	8(%rax), %rax
	movq	%rax, -48(%rbp)
	movq	enc_picture, %rax
	movq	6480(%rax), %rax
	movq	(%rax), %rax
	movq	%rax, -160(%rbp)
	movq	enc_picture, %rax
	movq	6480(%rax), %rax
	movq	8(%rax), %rax
	movq	%rax, -168(%rbp)
	movq	enc_picture, %rax
	movq	6488(%rax), %rax
	movq	(%rax), %rax
	movq	%rax, -192(%rbp)
	movq	enc_picture, %rax
	movq	6488(%rax), %rax
	movq	8(%rax), %rax
	movq	%rax, -184(%rbp)
	movq	-56(%rbp), %rax
	movq	14168(%rax), %rax
	movslq	-96(%rbp), %rcx
	imulq	$632, %rcx, %rcx        # imm = 0x278
	addq	%rcx, %rax
	movq	%rax, -80(%rbp)
	movl	$0, -28(%rbp)
.LBB10_1:                               # %for.cond
                                        # =>This Inner Loop Header: Depth=1
	cmpl	$16, -28(%rbp)
	jge	.LBB10_81
# %bb.2:                                # %for.body
                                        #   in Loop: Header=BB10_1 Depth=1
	cmpl	$0, -60(%rbp)
	je	.LBB10_4
# %bb.3:                                # %cond.true
                                        #   in Loop: Header=BB10_1 Depth=1
	movl	-28(%rbp), %eax
	jmp	.LBB10_5
.LBB10_4:                               # %cond.false
                                        #   in Loop: Header=BB10_1 Depth=1
	movl	-64(%rbp), %eax
	shll	$2, %eax
.LBB10_5:                               # %cond.end
                                        #   in Loop: Header=BB10_1 Depth=1
	movl	%eax, -100(%rbp)
	cmpl	$0, -60(%rbp)
	je	.LBB10_10
# %bb.6:                                # %cond.true11
                                        #   in Loop: Header=BB10_1 Depth=1
	cmpl	$4, -64(%rbp)
	jge	.LBB10_8
# %bb.7:                                # %cond.true13
                                        #   in Loop: Header=BB10_1 Depth=1
	movl	-64(%rbp), %eax
	shll	$2, %eax
	jmp	.LBB10_9
.LBB10_8:                               # %cond.false15
                                        #   in Loop: Header=BB10_1 Depth=1
	movl	$1, %eax
	jmp	.LBB10_9
.LBB10_9:                               # %cond.end16
                                        #   in Loop: Header=BB10_1 Depth=1
	jmp	.LBB10_11
.LBB10_10:                              # %cond.false18
                                        #   in Loop: Header=BB10_1 Depth=1
	movl	-28(%rbp), %eax
.LBB10_11:                              # %cond.end19
                                        #   in Loop: Header=BB10_1 Depth=1
	movl	%eax, -104(%rbp)
	movl	-96(%rbp), %edi
	movl	-100(%rbp), %esi
	movl	$1, %eax
	subl	-60(%rbp), %eax
	subl	%eax, %esi
	movl	-104(%rbp), %edx
	subl	-60(%rbp), %edx
	movl	$1, %ecx
	leaq	-216(%rbp), %r8
	callq	getNeighbour
	movl	-208(%rbp), %eax
	movl	%eax, -140(%rbp)
	movl	-204(%rbp), %eax
	movl	%eax, -144(%rbp)
	movq	-56(%rbp), %rax
	movq	14168(%rax), %rax
	movslq	-212(%rbp), %rcx
	imulq	$632, %rcx, %rcx        # imm = 0x278
	addq	%rcx, %rax
	movq	%rax, -88(%rbp)
	movq	-80(%rbp), %rax
	movl	532(%rax), %eax
	movq	-88(%rbp), %rcx
	cmpl	532(%rcx), %eax
	setne	%al
	andb	$1, %al
	movzbl	%al, %eax
	movb	%al, mixedModeEdgeFlag
	movl	-104(%rbp), %eax
	sarl	$2, %eax
	shll	$2, %eax
	movl	-100(%rbp), %ecx
	sarl	$2, %ecx
	addl	%ecx, %eax
	movl	%eax, -92(%rbp)
	movl	-144(%rbp), %eax
	sarl	$2, %eax
	shll	$2, %eax
	movl	-140(%rbp), %ecx
	sarl	$2, %ecx
	addl	%ecx, %eax
	movl	%eax, -148(%rbp)
	movq	-56(%rbp), %rax
	cmpl	$3, 24(%rax)
	je	.LBB10_13
# %bb.12:                               # %lor.lhs.false
                                        #   in Loop: Header=BB10_1 Depth=1
	movq	-56(%rbp), %rax
	cmpl	$4, 24(%rax)
	jne	.LBB10_25
.LBB10_13:                              # %if.then
                                        #   in Loop: Header=BB10_1 Depth=1
	xorl	%eax, %eax
	cmpl	$0, -64(%rbp)
	jne	.LBB10_24
# %bb.14:                               # %land.rhs
                                        #   in Loop: Header=BB10_1 Depth=1
	movq	-56(%rbp), %rax
	cmpl	$0, 72400(%rax)
	jne	.LBB10_16
# %bb.15:                               # %land.lhs.true
                                        #   in Loop: Header=BB10_1 Depth=1
	movq	-56(%rbp), %rax
	cmpl	$0, 28(%rax)
	movb	$1, %al
	je	.LBB10_23
.LBB10_16:                              # %lor.lhs.false45
                                        #   in Loop: Header=BB10_1 Depth=1
	movq	-56(%rbp), %rax
	cmpl	$0, 72400(%rax)
	je	.LBB10_19
# %bb.17:                               # %land.lhs.true48
                                        #   in Loop: Header=BB10_1 Depth=1
	movq	-88(%rbp), %rax
	cmpl	$0, 532(%rax)
	jne	.LBB10_19
# %bb.18:                               # %land.lhs.true51
                                        #   in Loop: Header=BB10_1 Depth=1
	movq	-80(%rbp), %rax
	cmpl	$0, 532(%rax)
	movb	$1, %al
	je	.LBB10_23
.LBB10_19:                              # %lor.rhs
                                        #   in Loop: Header=BB10_1 Depth=1
	movq	-56(%rbp), %rax
	cmpl	$0, 72400(%rax)
	jne	.LBB10_21
# %bb.20:                               # %lor.lhs.false56
                                        #   in Loop: Header=BB10_1 Depth=1
	xorl	%eax, %eax
	movq	-56(%rbp), %rcx
	cmpl	$0, 28(%rcx)
	je	.LBB10_22
.LBB10_21:                              # %land.rhs60
                                        #   in Loop: Header=BB10_1 Depth=1
	cmpl	$0, -60(%rbp)
	setne	%al
	xorb	$-1, %al
.LBB10_22:                              # %land.end
                                        #   in Loop: Header=BB10_1 Depth=1
.LBB10_23:                              # %lor.end
                                        #   in Loop: Header=BB10_1 Depth=1
.LBB10_24:                              # %land.end62
                                        #   in Loop: Header=BB10_1 Depth=1
	testb	$1, %al
	movl	$4, %eax
	movl	$3, %ecx
	cmovnel	%eax, %ecx
	movq	-72(%rbp), %rax
	movslq	-28(%rbp), %rdx
	movb	%cl, (%rax,%rdx)
	jmp	.LBB10_79
.LBB10_25:                              # %if.else
                                        #   in Loop: Header=BB10_1 Depth=1
	xorl	%eax, %eax
	cmpl	$0, -64(%rbp)
	jne	.LBB10_36
# %bb.26:                               # %land.rhs69
                                        #   in Loop: Header=BB10_1 Depth=1
	movq	-56(%rbp), %rax
	cmpl	$0, 72400(%rax)
	jne	.LBB10_28
# %bb.27:                               # %land.lhs.true72
                                        #   in Loop: Header=BB10_1 Depth=1
	movq	-56(%rbp), %rax
	cmpl	$0, 28(%rax)
	movb	$1, %al
	je	.LBB10_35
.LBB10_28:                              # %lor.lhs.false76
                                        #   in Loop: Header=BB10_1 Depth=1
	movq	-56(%rbp), %rax
	cmpl	$0, 72400(%rax)
	je	.LBB10_31
# %bb.29:                               # %land.lhs.true79
                                        #   in Loop: Header=BB10_1 Depth=1
	movq	-88(%rbp), %rax
	cmpl	$0, 532(%rax)
	jne	.LBB10_31
# %bb.30:                               # %land.lhs.true82
                                        #   in Loop: Header=BB10_1 Depth=1
	movq	-80(%rbp), %rax
	cmpl	$0, 532(%rax)
	movb	$1, %al
	je	.LBB10_35
.LBB10_31:                              # %lor.rhs85
                                        #   in Loop: Header=BB10_1 Depth=1
	movq	-56(%rbp), %rax
	cmpl	$0, 72400(%rax)
	jne	.LBB10_33
# %bb.32:                               # %lor.lhs.false88
                                        #   in Loop: Header=BB10_1 Depth=1
	xorl	%eax, %eax
	movq	-56(%rbp), %rcx
	cmpl	$0, 28(%rcx)
	je	.LBB10_34
.LBB10_33:                              # %land.rhs92
                                        #   in Loop: Header=BB10_1 Depth=1
	cmpl	$0, -60(%rbp)
	setne	%al
	xorb	$-1, %al
.LBB10_34:                              # %land.end95
                                        #   in Loop: Header=BB10_1 Depth=1
.LBB10_35:                              # %lor.end96
                                        #   in Loop: Header=BB10_1 Depth=1
.LBB10_36:                              # %land.end97
                                        #   in Loop: Header=BB10_1 Depth=1
	testb	$1, %al
	movl	$4, %eax
	movl	$3, %ecx
	cmovnel	%eax, %ecx
	movq	-72(%rbp), %rax
	movslq	-28(%rbp), %rdx
	movb	%cl, (%rax,%rdx)
	movq	-88(%rbp), %rax
	cmpl	$9, 72(%rax)
	je	.LBB10_78
# %bb.37:                               # %lor.lhs.false104
                                        #   in Loop: Header=BB10_1 Depth=1
	movq	-88(%rbp), %rax
	cmpl	$10, 72(%rax)
	je	.LBB10_78
# %bb.38:                               # %lor.lhs.false108
                                        #   in Loop: Header=BB10_1 Depth=1
	movq	-88(%rbp), %rax
	cmpl	$14, 72(%rax)
	je	.LBB10_78
# %bb.39:                               # %lor.lhs.false112
                                        #   in Loop: Header=BB10_1 Depth=1
	movq	-88(%rbp), %rax
	cmpl	$13, 72(%rax)
	je	.LBB10_78
# %bb.40:                               # %land.lhs.true116
                                        #   in Loop: Header=BB10_1 Depth=1
	movq	-80(%rbp), %rax
	cmpl	$9, 72(%rax)
	je	.LBB10_78
# %bb.41:                               # %lor.lhs.false120
                                        #   in Loop: Header=BB10_1 Depth=1
	movq	-80(%rbp), %rax
	cmpl	$10, 72(%rax)
	je	.LBB10_78
# %bb.42:                               # %lor.lhs.false124
                                        #   in Loop: Header=BB10_1 Depth=1
	movq	-80(%rbp), %rax
	cmpl	$14, 72(%rax)
	je	.LBB10_78
# %bb.43:                               # %lor.lhs.false128
                                        #   in Loop: Header=BB10_1 Depth=1
	movq	-80(%rbp), %rax
	cmpl	$13, 72(%rax)
	je	.LBB10_78
# %bb.44:                               # %if.then132
                                        #   in Loop: Header=BB10_1 Depth=1
	movq	-80(%rbp), %rax
	movq	464(%rax), %rax
	movl	-92(%rbp), %ecx
                                        # kill: def $cl killed $ecx
	movl	$1, %edx
	shll	%cl, %edx
	movslq	%edx, %rcx
	andq	%rcx, %rax
	cmpq	$0, %rax
	jne	.LBB10_46
# %bb.45:                               # %lor.lhs.false137
                                        #   in Loop: Header=BB10_1 Depth=1
	movq	-88(%rbp), %rax
	movq	464(%rax), %rax
	movl	-148(%rbp), %ecx
                                        # kill: def $cl killed $ecx
	movl	$1, %edx
	shll	%cl, %edx
	movslq	%edx, %rcx
	andq	%rcx, %rax
	cmpq	$0, %rax
	je	.LBB10_47
.LBB10_46:                              # %if.then144
                                        #   in Loop: Header=BB10_1 Depth=1
	movq	-72(%rbp), %rax
	movslq	-28(%rbp), %rcx
	movb	$2, (%rax,%rcx)
	jmp	.LBB10_77
.LBB10_47:                              # %if.else147
                                        #   in Loop: Header=BB10_1 Depth=1
	cmpb	$0, mixedModeEdgeFlag
	je	.LBB10_49
# %bb.48:                               # %if.then149
                                        #   in Loop: Header=BB10_1 Depth=1
	movq	-72(%rbp), %rax
	movslq	-28(%rbp), %rcx
	movb	$1, (%rax,%rcx)
	jmp	.LBB10_76
.LBB10_49:                              # %if.else152
                                        #   in Loop: Header=BB10_1 Depth=1
	movl	-96(%rbp), %edi
	leaq	-152(%rbp), %rsi
	leaq	-132(%rbp), %rdx
	callq	get_mb_block_pos
	movl	-132(%rbp), %eax
	shll	$2, %eax
	movl	-92(%rbp), %ecx
	sarl	$2, %ecx
	addl	%ecx, %eax
	movl	%eax, -20(%rbp)
	movl	-152(%rbp), %eax
	shll	$2, %eax
	movl	-92(%rbp), %ecx
	andl	$3, %ecx
	addl	%ecx, %eax
	movl	%eax, -12(%rbp)
	movl	-196(%rbp), %eax
	sarl	$2, %eax
	movl	%eax, -16(%rbp)
	movl	-200(%rbp), %eax
	sarl	$2, %eax
	movl	%eax, -24(%rbp)
	movq	-160(%rbp), %rax
	movslq	-12(%rbp), %rcx
	movq	(%rax,%rcx,8), %rax
	movslq	-20(%rbp), %rcx
	movswl	(%rax,%rcx,2), %eax
	cmpl	$0, %eax
	jge	.LBB10_51
# %bb.50:                               # %cond.true168
                                        #   in Loop: Header=BB10_1 Depth=1
	movq	$-1, %rax
	jmp	.LBB10_52
.LBB10_51:                              # %cond.false169
                                        #   in Loop: Header=BB10_1 Depth=1
	movq	-192(%rbp), %rax
	movslq	-12(%rbp), %rcx
	movq	(%rax,%rcx,8), %rax
	movslq	-20(%rbp), %rcx
	movq	(%rax,%rcx,8), %rax
.LBB10_52:                              # %cond.end174
                                        #   in Loop: Header=BB10_1 Depth=1
	movq	%rax, -112(%rbp)
	movq	-160(%rbp), %rax
	movslq	-24(%rbp), %rcx
	movq	(%rax,%rcx,8), %rax
	movslq	-16(%rbp), %rcx
	movswl	(%rax,%rcx,2), %eax
	cmpl	$0, %eax
	jge	.LBB10_54
# %bb.53:                               # %cond.true183
                                        #   in Loop: Header=BB10_1 Depth=1
	movq	$-1, %rax
	jmp	.LBB10_55
.LBB10_54:                              # %cond.false184
                                        #   in Loop: Header=BB10_1 Depth=1
	movq	-192(%rbp), %rax
	movslq	-24(%rbp), %rcx
	movq	(%rax,%rcx,8), %rax
	movslq	-16(%rbp), %rcx
	movq	(%rax,%rcx,8), %rax
.LBB10_55:                              # %cond.end189
                                        #   in Loop: Header=BB10_1 Depth=1
	movq	%rax, -128(%rbp)
	movq	-168(%rbp), %rax
	movslq	-12(%rbp), %rcx
	movq	(%rax,%rcx,8), %rax
	movslq	-20(%rbp), %rcx
	movswl	(%rax,%rcx,2), %eax
	cmpl	$0, %eax
	jge	.LBB10_57
# %bb.56:                               # %cond.true198
                                        #   in Loop: Header=BB10_1 Depth=1
	movq	$-1, %rax
	jmp	.LBB10_58
.LBB10_57:                              # %cond.false199
                                        #   in Loop: Header=BB10_1 Depth=1
	movq	-184(%rbp), %rax
	movslq	-12(%rbp), %rcx
	movq	(%rax,%rcx,8), %rax
	movslq	-20(%rbp), %rcx
	movq	(%rax,%rcx,8), %rax
.LBB10_58:                              # %cond.end204
                                        #   in Loop: Header=BB10_1 Depth=1
	movq	%rax, -120(%rbp)
	movq	-168(%rbp), %rax
	movslq	-24(%rbp), %rcx
	movq	(%rax,%rcx,8), %rax
	movslq	-16(%rbp), %rcx
	movswl	(%rax,%rcx,2), %eax
	cmpl	$0, %eax
	jge	.LBB10_60
# %bb.59:                               # %cond.true213
                                        #   in Loop: Header=BB10_1 Depth=1
	movq	$-1, %rax
	jmp	.LBB10_61
.LBB10_60:                              # %cond.false214
                                        #   in Loop: Header=BB10_1 Depth=1
	movq	-184(%rbp), %rax
	movslq	-24(%rbp), %rcx
	movq	(%rax,%rcx,8), %rax
	movslq	-16(%rbp), %rcx
	movq	(%rax,%rcx,8), %rax
.LBB10_61:                              # %cond.end219
                                        #   in Loop: Header=BB10_1 Depth=1
	movq	%rax, -176(%rbp)
	movq	-112(%rbp), %rax
	cmpq	-128(%rbp), %rax
	jne	.LBB10_63
# %bb.62:                               # %land.lhs.true223
                                        #   in Loop: Header=BB10_1 Depth=1
	movq	-120(%rbp), %rax
	cmpq	-176(%rbp), %rax
	je	.LBB10_65
.LBB10_63:                              # %lor.lhs.false226
                                        #   in Loop: Header=BB10_1 Depth=1
	movq	-112(%rbp), %rax
	cmpq	-176(%rbp), %rax
	jne	.LBB10_74
# %bb.64:                               # %land.lhs.true229
                                        #   in Loop: Header=BB10_1 Depth=1
	movq	-120(%rbp), %rax
	cmpq	-128(%rbp), %rax
	jne	.LBB10_74
.LBB10_65:                              # %if.then232
                                        #   in Loop: Header=BB10_1 Depth=1
	movq	-72(%rbp), %rax
	movslq	-28(%rbp), %rcx
	movb	$0, (%rax,%rcx)
	movq	-112(%rbp), %rax
	cmpq	-120(%rbp), %rax
	je	.LBB10_70
# %bb.66:                               # %if.then237
                                        #   in Loop: Header=BB10_1 Depth=1
	movq	-112(%rbp), %rax
	cmpq	-128(%rbp), %rax
	jne	.LBB10_68
# %bb.67:                               # %if.then240
                                        #   in Loop: Header=BB10_1 Depth=1
	movq	-40(%rbp), %rax
	movslq	-12(%rbp), %rcx
	movq	(%rax,%rcx,8), %rax
	movslq	-20(%rbp), %rcx
	movq	(%rax,%rcx,8), %rax
	movswl	(%rax), %edi
	movq	-40(%rbp), %rax
	movslq	-24(%rbp), %rcx
	movq	(%rax,%rcx,8), %rax
	movslq	-16(%rbp), %rcx
	movq	(%rax,%rcx,8), %rax
	movswl	(%rax), %eax
	subl	%eax, %edi
	callq	abs
	cmpl	$4, %eax
	setge	%al
	andb	$1, %al
	movzbl	%al, %ebx
	movq	-40(%rbp), %rax
	movslq	-12(%rbp), %rcx
	movq	(%rax,%rcx,8), %rax
	movslq	-20(%rbp), %rcx
	movq	(%rax,%rcx,8), %rax
	movswl	2(%rax), %edi
	movq	-40(%rbp), %rax
	movslq	-24(%rbp), %rcx
	movq	(%rax,%rcx,8), %rax
	movslq	-16(%rbp), %rcx
	movq	(%rax,%rcx,8), %rax
	movswl	2(%rax), %eax
	subl	%eax, %edi
	callq	abs
	cmpl	-32(%rbp), %eax
	setge	%al
	andb	$1, %al
	movzbl	%al, %eax
	orl	%eax, %ebx
	movq	-48(%rbp), %rax
	movslq	-12(%rbp), %rcx
	movq	(%rax,%rcx,8), %rax
	movslq	-20(%rbp), %rcx
	movq	(%rax,%rcx,8), %rax
	movswl	(%rax), %edi
	movq	-48(%rbp), %rax
	movslq	-24(%rbp), %rcx
	movq	(%rax,%rcx,8), %rax
	movslq	-16(%rbp), %rcx
	movq	(%rax,%rcx,8), %rax
	movswl	(%rax), %eax
	subl	%eax, %edi
	callq	abs
	cmpl	$4, %eax
	setge	%al
	andb	$1, %al
	movzbl	%al, %eax
	orl	%eax, %ebx
	movq	-48(%rbp), %rax
	movslq	-12(%rbp), %rcx
	movq	(%rax,%rcx,8), %rax
	movslq	-20(%rbp), %rcx
	movq	(%rax,%rcx,8), %rax
	movswl	2(%rax), %edi
	movq	-48(%rbp), %rax
	movslq	-24(%rbp), %rcx
	movq	(%rax,%rcx,8), %rax
	movslq	-16(%rbp), %rcx
	movq	(%rax,%rcx,8), %rax
	movswl	2(%rax), %eax
	subl	%eax, %edi
	callq	abs
	cmpl	-32(%rbp), %eax
	setge	%al
	andb	$1, %al
	movzbl	%al, %eax
	orl	%eax, %ebx
	movq	-72(%rbp), %rax
	movslq	-28(%rbp), %rcx
	movb	%bl, (%rax,%rcx)
	jmp	.LBB10_69
.LBB10_68:                              # %if.else309
                                        #   in Loop: Header=BB10_1 Depth=1
	movq	-40(%rbp), %rax
	movslq	-12(%rbp), %rcx
	movq	(%rax,%rcx,8), %rax
	movslq	-20(%rbp), %rcx
	movq	(%rax,%rcx,8), %rax
	movswl	(%rax), %edi
	movq	-48(%rbp), %rax
	movslq	-24(%rbp), %rcx
	movq	(%rax,%rcx,8), %rax
	movslq	-16(%rbp), %rcx
	movq	(%rax,%rcx,8), %rax
	movswl	(%rax), %eax
	subl	%eax, %edi
	callq	abs
	cmpl	$4, %eax
	setge	%al
	andb	$1, %al
	movzbl	%al, %ebx
	movq	-40(%rbp), %rax
	movslq	-12(%rbp), %rcx
	movq	(%rax,%rcx,8), %rax
	movslq	-20(%rbp), %rcx
	movq	(%rax,%rcx,8), %rax
	movswl	2(%rax), %edi
	movq	-48(%rbp), %rax
	movslq	-24(%rbp), %rcx
	movq	(%rax,%rcx,8), %rax
	movslq	-16(%rbp), %rcx
	movq	(%rax,%rcx,8), %rax
	movswl	2(%rax), %eax
	subl	%eax, %edi
	callq	abs
	cmpl	-32(%rbp), %eax
	setge	%al
	andb	$1, %al
	movzbl	%al, %eax
	orl	%eax, %ebx
	movq	-48(%rbp), %rax
	movslq	-12(%rbp), %rcx
	movq	(%rax,%rcx,8), %rax
	movslq	-20(%rbp), %rcx
	movq	(%rax,%rcx,8), %rax
	movswl	(%rax), %edi
	movq	-40(%rbp), %rax
	movslq	-24(%rbp), %rcx
	movq	(%rax,%rcx,8), %rax
	movslq	-16(%rbp), %rcx
	movq	(%rax,%rcx,8), %rax
	movswl	(%rax), %eax
	subl	%eax, %edi
	callq	abs
	cmpl	$4, %eax
	setge	%al
	andb	$1, %al
	movzbl	%al, %eax
	orl	%eax, %ebx
	movq	-48(%rbp), %rax
	movslq	-12(%rbp), %rcx
	movq	(%rax,%rcx,8), %rax
	movslq	-20(%rbp), %rcx
	movq	(%rax,%rcx,8), %rax
	movswl	2(%rax), %edi
	movq	-40(%rbp), %rax
	movslq	-24(%rbp), %rcx
	movq	(%rax,%rcx,8), %rax
	movslq	-16(%rbp), %rcx
	movq	(%rax,%rcx,8), %rax
	movswl	2(%rax), %eax
	subl	%eax, %edi
	callq	abs
	cmpl	-32(%rbp), %eax
	setge	%al
	andb	$1, %al
	movzbl	%al, %eax
	orl	%eax, %ebx
	movq	-72(%rbp), %rax
	movslq	-28(%rbp), %rcx
	movb	%bl, (%rax,%rcx)
.LBB10_69:                              # %if.end
                                        #   in Loop: Header=BB10_1 Depth=1
	jmp	.LBB10_73
.LBB10_70:                              # %if.else380
                                        #   in Loop: Header=BB10_1 Depth=1
	movq	-40(%rbp), %rax
	movslq	-12(%rbp), %rcx
	movq	(%rax,%rcx,8), %rax
	movslq	-20(%rbp), %rcx
	movq	(%rax,%rcx,8), %rax
	movswl	(%rax), %edi
	movq	-40(%rbp), %rax
	movslq	-24(%rbp), %rcx
	movq	(%rax,%rcx,8), %rax
	movslq	-16(%rbp), %rcx
	movq	(%rax,%rcx,8), %rax
	movswl	(%rax), %eax
	subl	%eax, %edi
	callq	abs
	cmpl	$4, %eax
	setge	%al
	andb	$1, %al
	movzbl	%al, %ebx
	movq	-40(%rbp), %rax
	movslq	-12(%rbp), %rcx
	movq	(%rax,%rcx,8), %rax
	movslq	-20(%rbp), %rcx
	movq	(%rax,%rcx,8), %rax
	movswl	2(%rax), %edi
	movq	-40(%rbp), %rax
	movslq	-24(%rbp), %rcx
	movq	(%rax,%rcx,8), %rax
	movslq	-16(%rbp), %rcx
	movq	(%rax,%rcx,8), %rax
	movswl	2(%rax), %eax
	subl	%eax, %edi
	callq	abs
	cmpl	-32(%rbp), %eax
	setge	%al
	andb	$1, %al
	movzbl	%al, %eax
	orl	%eax, %ebx
	movq	-48(%rbp), %rax
	movslq	-12(%rbp), %rcx
	movq	(%rax,%rcx,8), %rax
	movslq	-20(%rbp), %rcx
	movq	(%rax,%rcx,8), %rax
	movswl	(%rax), %edi
	movq	-48(%rbp), %rax
	movslq	-24(%rbp), %rcx
	movq	(%rax,%rcx,8), %rax
	movslq	-16(%rbp), %rcx
	movq	(%rax,%rcx,8), %rax
	movswl	(%rax), %eax
	subl	%eax, %edi
	callq	abs
	cmpl	$4, %eax
	setge	%al
	andb	$1, %al
	movzbl	%al, %eax
	orl	%eax, %ebx
	movq	-48(%rbp), %rax
	movslq	-12(%rbp), %rcx
	movq	(%rax,%rcx,8), %rax
	movslq	-20(%rbp), %rcx
	movq	(%rax,%rcx,8), %rax
	movswl	2(%rax), %edi
	movq	-48(%rbp), %rax
	movslq	-24(%rbp), %rcx
	movq	(%rax,%rcx,8), %rax
	movslq	-16(%rbp), %rcx
	movq	(%rax,%rcx,8), %rax
	movswl	2(%rax), %eax
	subl	%eax, %edi
	callq	abs
	xorl	%ecx, %ecx
	cmpl	-32(%rbp), %eax
	setge	%al
	andb	$1, %al
	movzbl	%al, %eax
	orl	%eax, %ebx
	cmpl	$0, %ebx
	je	.LBB10_72
# %bb.71:                               # %land.rhs449
                                        #   in Loop: Header=BB10_1 Depth=1
	movq	-40(%rbp), %rax
	movslq	-12(%rbp), %rcx
	movq	(%rax,%rcx,8), %rax
	movslq	-20(%rbp), %rcx
	movq	(%rax,%rcx,8), %rax
	movswl	(%rax), %edi
	movq	-48(%rbp), %rax
	movslq	-24(%rbp), %rcx
	movq	(%rax,%rcx,8), %rax
	movslq	-16(%rbp), %rcx
	movq	(%rax,%rcx,8), %rax
	movswl	(%rax), %eax
	subl	%eax, %edi
	callq	abs
	cmpl	$4, %eax
	setge	%al
	andb	$1, %al
	movzbl	%al, %ebx
	movq	-40(%rbp), %rax
	movslq	-12(%rbp), %rcx
	movq	(%rax,%rcx,8), %rax
	movslq	-20(%rbp), %rcx
	movq	(%rax,%rcx,8), %rax
	movswl	2(%rax), %edi
	movq	-48(%rbp), %rax
	movslq	-24(%rbp), %rcx
	movq	(%rax,%rcx,8), %rax
	movslq	-16(%rbp), %rcx
	movq	(%rax,%rcx,8), %rax
	movswl	2(%rax), %eax
	subl	%eax, %edi
	callq	abs
	cmpl	-32(%rbp), %eax
	setge	%al
	andb	$1, %al
	movzbl	%al, %eax
	orl	%eax, %ebx
	movq	-48(%rbp), %rax
	movslq	-12(%rbp), %rcx
	movq	(%rax,%rcx,8), %rax
	movslq	-20(%rbp), %rcx
	movq	(%rax,%rcx,8), %rax
	movswl	(%rax), %edi
	movq	-40(%rbp), %rax
	movslq	-24(%rbp), %rcx
	movq	(%rax,%rcx,8), %rax
	movslq	-16(%rbp), %rcx
	movq	(%rax,%rcx,8), %rax
	movswl	(%rax), %eax
	subl	%eax, %edi
	callq	abs
	cmpl	$4, %eax
	setge	%al
	andb	$1, %al
	movzbl	%al, %eax
	orl	%eax, %ebx
	movq	-48(%rbp), %rax
	movslq	-12(%rbp), %rcx
	movq	(%rax,%rcx,8), %rax
	movslq	-20(%rbp), %rcx
	movq	(%rax,%rcx,8), %rax
	movswl	2(%rax), %edi
	movq	-40(%rbp), %rax
	movslq	-24(%rbp), %rcx
	movq	(%rax,%rcx,8), %rax
	movslq	-16(%rbp), %rcx
	movq	(%rax,%rcx,8), %rax
	movswl	2(%rax), %eax
	subl	%eax, %edi
	callq	abs
	cmpl	-32(%rbp), %eax
	setge	%al
	andb	$1, %al
	movzbl	%al, %eax
	orl	%eax, %ebx
	cmpl	$0, %ebx
	setne	%cl
.LBB10_72:                              # %land.end518
                                        #   in Loop: Header=BB10_1 Depth=1
	andb	$1, %cl
	movzbl	%cl, %eax
	movq	-72(%rbp), %rcx
	movslq	-28(%rbp), %rdx
	movb	%al, (%rcx,%rdx)
.LBB10_73:                              # %if.end522
                                        #   in Loop: Header=BB10_1 Depth=1
	jmp	.LBB10_75
.LBB10_74:                              # %if.else523
                                        #   in Loop: Header=BB10_1 Depth=1
	movq	-72(%rbp), %rax
	movslq	-28(%rbp), %rcx
	movb	$1, (%rax,%rcx)
.LBB10_75:                              # %if.end526
                                        #   in Loop: Header=BB10_1 Depth=1
	jmp	.LBB10_76
.LBB10_76:                              # %if.end527
                                        #   in Loop: Header=BB10_1 Depth=1
	jmp	.LBB10_77
.LBB10_77:                              # %if.end528
                                        #   in Loop: Header=BB10_1 Depth=1
	jmp	.LBB10_78
.LBB10_78:                              # %if.end529
                                        #   in Loop: Header=BB10_1 Depth=1
	jmp	.LBB10_79
.LBB10_79:                              # %if.end530
                                        #   in Loop: Header=BB10_1 Depth=1
	jmp	.LBB10_80
.LBB10_80:                              # %for.inc
                                        #   in Loop: Header=BB10_1 Depth=1
	movl	-28(%rbp), %eax
	addl	$1, %eax
	movl	%eax, -28(%rbp)
	jmp	.LBB10_1
.LBB10_81:                              # %for.end
	cmpl	$48507444, -136(%rbp)   # imm = 0x2E42A34
	jne	.LBB10_83
.LBB10_82:
	addq	$216, %rsp
	popq	%rbx
	popq	%rbp
	.cfi_def_cfa %rsp, 8
	retq
.LBB10_83:                              # %func_exit
	.cfi_def_cfa %rbp, 16
	callq	detect_breach
	jmp	.LBB10_82
.Lfunc_end10:
	.size	GetStrength.7, .Lfunc_end10-GetStrength.7
	.cfi_endproc
                                        # -- End function
	.globl	GetStrength.8           # -- Begin function GetStrength.8
	.p2align	4, 0x90
	.type	GetStrength.8,@function
GetStrength.8:                          # @GetStrength.8
	.cfi_startproc
# %bb.0:                                # %entry
	pushq	%rbp
	.cfi_def_cfa_offset 16
	.cfi_offset %rbp, -16
	movq	%rsp, %rbp
	.cfi_def_cfa_register %rbp
	pushq	%rbx
	subq	$216, %rsp
	.cfi_offset %rbx, -24
	movl	$567541831, -152(%rbp)  # imm = 0x21D40047
	movq	%rdi, -72(%rbp)
	movq	%rsi, -56(%rbp)
	movl	%edx, -92(%rbp)
	movl	%ecx, -60(%rbp)
	movl	%r8d, -64(%rbp)
	movl	%r9d, -32(%rbp)
	movq	enc_picture, %rax
	movq	6504(%rax), %rax
	movq	(%rax), %rax
	movq	%rax, -48(%rbp)
	movq	enc_picture, %rax
	movq	6504(%rax), %rax
	movq	8(%rax), %rax
	movq	%rax, -40(%rbp)
	movq	enc_picture, %rax
	movq	6480(%rax), %rax
	movq	(%rax), %rax
	movq	%rax, -184(%rbp)
	movq	enc_picture, %rax
	movq	6480(%rax), %rax
	movq	8(%rax), %rax
	movq	%rax, -192(%rbp)
	movq	enc_picture, %rax
	movq	6488(%rax), %rax
	movq	(%rax), %rax
	movq	%rax, -160(%rbp)
	movq	enc_picture, %rax
	movq	6488(%rax), %rax
	movq	8(%rax), %rax
	movq	%rax, -168(%rbp)
	movq	-56(%rbp), %rax
	movq	14168(%rax), %rax
	movslq	-92(%rbp), %rcx
	imulq	$632, %rcx, %rcx        # imm = 0x278
	addq	%rcx, %rax
	movq	%rax, -88(%rbp)
	movl	$0, -28(%rbp)
.LBB11_1:                               # %for.cond
                                        # =>This Inner Loop Header: Depth=1
	cmpl	$16, -28(%rbp)
	jge	.LBB11_81
# %bb.2:                                # %for.body
                                        #   in Loop: Header=BB11_1 Depth=1
	cmpl	$0, -60(%rbp)
	je	.LBB11_4
# %bb.3:                                # %cond.true
                                        #   in Loop: Header=BB11_1 Depth=1
	movl	-28(%rbp), %eax
	jmp	.LBB11_5
.LBB11_4:                               # %cond.false
                                        #   in Loop: Header=BB11_1 Depth=1
	movl	-64(%rbp), %eax
	shll	$2, %eax
.LBB11_5:                               # %cond.end
                                        #   in Loop: Header=BB11_1 Depth=1
	movl	%eax, -100(%rbp)
	cmpl	$0, -60(%rbp)
	je	.LBB11_10
# %bb.6:                                # %cond.true11
                                        #   in Loop: Header=BB11_1 Depth=1
	cmpl	$4, -64(%rbp)
	jge	.LBB11_8
# %bb.7:                                # %cond.true13
                                        #   in Loop: Header=BB11_1 Depth=1
	movl	-64(%rbp), %eax
	shll	$2, %eax
	jmp	.LBB11_9
.LBB11_8:                               # %cond.false15
                                        #   in Loop: Header=BB11_1 Depth=1
	movl	$1, %eax
	jmp	.LBB11_9
.LBB11_9:                               # %cond.end16
                                        #   in Loop: Header=BB11_1 Depth=1
	jmp	.LBB11_11
.LBB11_10:                              # %cond.false18
                                        #   in Loop: Header=BB11_1 Depth=1
	movl	-28(%rbp), %eax
.LBB11_11:                              # %cond.end19
                                        #   in Loop: Header=BB11_1 Depth=1
	movl	%eax, -104(%rbp)
	movl	-92(%rbp), %edi
	movl	-100(%rbp), %esi
	movl	$1, %eax
	subl	-60(%rbp), %eax
	subl	%eax, %esi
	movl	-104(%rbp), %edx
	subl	-60(%rbp), %edx
	movl	$1, %ecx
	leaq	-216(%rbp), %r8
	callq	getNeighbour
	movl	-208(%rbp), %eax
	movl	%eax, -144(%rbp)
	movl	-204(%rbp), %eax
	movl	%eax, -148(%rbp)
	movq	-56(%rbp), %rax
	movq	14168(%rax), %rax
	movslq	-212(%rbp), %rcx
	imulq	$632, %rcx, %rcx        # imm = 0x278
	addq	%rcx, %rax
	movq	%rax, -80(%rbp)
	movq	-88(%rbp), %rax
	movl	532(%rax), %eax
	movq	-80(%rbp), %rcx
	cmpl	532(%rcx), %eax
	setne	%al
	andb	$1, %al
	movzbl	%al, %eax
	movb	%al, mixedModeEdgeFlag
	movl	-104(%rbp), %eax
	sarl	$2, %eax
	shll	$2, %eax
	movl	-100(%rbp), %ecx
	sarl	$2, %ecx
	addl	%ecx, %eax
	movl	%eax, -96(%rbp)
	movl	-148(%rbp), %eax
	sarl	$2, %eax
	shll	$2, %eax
	movl	-144(%rbp), %ecx
	sarl	$2, %ecx
	addl	%ecx, %eax
	movl	%eax, -132(%rbp)
	movq	-56(%rbp), %rax
	cmpl	$3, 24(%rax)
	je	.LBB11_13
# %bb.12:                               # %lor.lhs.false
                                        #   in Loop: Header=BB11_1 Depth=1
	movq	-56(%rbp), %rax
	cmpl	$4, 24(%rax)
	jne	.LBB11_25
.LBB11_13:                              # %if.then
                                        #   in Loop: Header=BB11_1 Depth=1
	xorl	%eax, %eax
	cmpl	$0, -64(%rbp)
	jne	.LBB11_24
# %bb.14:                               # %land.rhs
                                        #   in Loop: Header=BB11_1 Depth=1
	movq	-56(%rbp), %rax
	cmpl	$0, 72400(%rax)
	jne	.LBB11_16
# %bb.15:                               # %land.lhs.true
                                        #   in Loop: Header=BB11_1 Depth=1
	movq	-56(%rbp), %rax
	cmpl	$0, 28(%rax)
	movb	$1, %al
	je	.LBB11_23
.LBB11_16:                              # %lor.lhs.false45
                                        #   in Loop: Header=BB11_1 Depth=1
	movq	-56(%rbp), %rax
	cmpl	$0, 72400(%rax)
	je	.LBB11_19
# %bb.17:                               # %land.lhs.true48
                                        #   in Loop: Header=BB11_1 Depth=1
	movq	-80(%rbp), %rax
	cmpl	$0, 532(%rax)
	jne	.LBB11_19
# %bb.18:                               # %land.lhs.true51
                                        #   in Loop: Header=BB11_1 Depth=1
	movq	-88(%rbp), %rax
	cmpl	$0, 532(%rax)
	movb	$1, %al
	je	.LBB11_23
.LBB11_19:                              # %lor.rhs
                                        #   in Loop: Header=BB11_1 Depth=1
	movq	-56(%rbp), %rax
	cmpl	$0, 72400(%rax)
	jne	.LBB11_21
# %bb.20:                               # %lor.lhs.false56
                                        #   in Loop: Header=BB11_1 Depth=1
	xorl	%eax, %eax
	movq	-56(%rbp), %rcx
	cmpl	$0, 28(%rcx)
	je	.LBB11_22
.LBB11_21:                              # %land.rhs60
                                        #   in Loop: Header=BB11_1 Depth=1
	cmpl	$0, -60(%rbp)
	setne	%al
	xorb	$-1, %al
.LBB11_22:                              # %land.end
                                        #   in Loop: Header=BB11_1 Depth=1
.LBB11_23:                              # %lor.end
                                        #   in Loop: Header=BB11_1 Depth=1
.LBB11_24:                              # %land.end62
                                        #   in Loop: Header=BB11_1 Depth=1
	testb	$1, %al
	movl	$4, %eax
	movl	$3, %ecx
	cmovnel	%eax, %ecx
	movq	-72(%rbp), %rax
	movslq	-28(%rbp), %rdx
	movb	%cl, (%rax,%rdx)
	jmp	.LBB11_79
.LBB11_25:                              # %if.else
                                        #   in Loop: Header=BB11_1 Depth=1
	xorl	%eax, %eax
	cmpl	$0, -64(%rbp)
	jne	.LBB11_36
# %bb.26:                               # %land.rhs69
                                        #   in Loop: Header=BB11_1 Depth=1
	movq	-56(%rbp), %rax
	cmpl	$0, 72400(%rax)
	jne	.LBB11_28
# %bb.27:                               # %land.lhs.true72
                                        #   in Loop: Header=BB11_1 Depth=1
	movq	-56(%rbp), %rax
	cmpl	$0, 28(%rax)
	movb	$1, %al
	je	.LBB11_35
.LBB11_28:                              # %lor.lhs.false76
                                        #   in Loop: Header=BB11_1 Depth=1
	movq	-56(%rbp), %rax
	cmpl	$0, 72400(%rax)
	je	.LBB11_31
# %bb.29:                               # %land.lhs.true79
                                        #   in Loop: Header=BB11_1 Depth=1
	movq	-80(%rbp), %rax
	cmpl	$0, 532(%rax)
	jne	.LBB11_31
# %bb.30:                               # %land.lhs.true82
                                        #   in Loop: Header=BB11_1 Depth=1
	movq	-88(%rbp), %rax
	cmpl	$0, 532(%rax)
	movb	$1, %al
	je	.LBB11_35
.LBB11_31:                              # %lor.rhs85
                                        #   in Loop: Header=BB11_1 Depth=1
	movq	-56(%rbp), %rax
	cmpl	$0, 72400(%rax)
	jne	.LBB11_33
# %bb.32:                               # %lor.lhs.false88
                                        #   in Loop: Header=BB11_1 Depth=1
	xorl	%eax, %eax
	movq	-56(%rbp), %rcx
	cmpl	$0, 28(%rcx)
	je	.LBB11_34
.LBB11_33:                              # %land.rhs92
                                        #   in Loop: Header=BB11_1 Depth=1
	cmpl	$0, -60(%rbp)
	setne	%al
	xorb	$-1, %al
.LBB11_34:                              # %land.end95
                                        #   in Loop: Header=BB11_1 Depth=1
.LBB11_35:                              # %lor.end96
                                        #   in Loop: Header=BB11_1 Depth=1
.LBB11_36:                              # %land.end97
                                        #   in Loop: Header=BB11_1 Depth=1
	testb	$1, %al
	movl	$4, %eax
	movl	$3, %ecx
	cmovnel	%eax, %ecx
	movq	-72(%rbp), %rax
	movslq	-28(%rbp), %rdx
	movb	%cl, (%rax,%rdx)
	movq	-80(%rbp), %rax
	cmpl	$9, 72(%rax)
	je	.LBB11_78
# %bb.37:                               # %lor.lhs.false104
                                        #   in Loop: Header=BB11_1 Depth=1
	movq	-80(%rbp), %rax
	cmpl	$10, 72(%rax)
	je	.LBB11_78
# %bb.38:                               # %lor.lhs.false108
                                        #   in Loop: Header=BB11_1 Depth=1
	movq	-80(%rbp), %rax
	cmpl	$14, 72(%rax)
	je	.LBB11_78
# %bb.39:                               # %lor.lhs.false112
                                        #   in Loop: Header=BB11_1 Depth=1
	movq	-80(%rbp), %rax
	cmpl	$13, 72(%rax)
	je	.LBB11_78
# %bb.40:                               # %land.lhs.true116
                                        #   in Loop: Header=BB11_1 Depth=1
	movq	-88(%rbp), %rax
	cmpl	$9, 72(%rax)
	je	.LBB11_78
# %bb.41:                               # %lor.lhs.false120
                                        #   in Loop: Header=BB11_1 Depth=1
	movq	-88(%rbp), %rax
	cmpl	$10, 72(%rax)
	je	.LBB11_78
# %bb.42:                               # %lor.lhs.false124
                                        #   in Loop: Header=BB11_1 Depth=1
	movq	-88(%rbp), %rax
	cmpl	$14, 72(%rax)
	je	.LBB11_78
# %bb.43:                               # %lor.lhs.false128
                                        #   in Loop: Header=BB11_1 Depth=1
	movq	-88(%rbp), %rax
	cmpl	$13, 72(%rax)
	je	.LBB11_78
# %bb.44:                               # %if.then132
                                        #   in Loop: Header=BB11_1 Depth=1
	movq	-88(%rbp), %rax
	movq	464(%rax), %rax
	movl	-96(%rbp), %ecx
                                        # kill: def $cl killed $ecx
	movl	$1, %edx
	shll	%cl, %edx
	movslq	%edx, %rcx
	andq	%rcx, %rax
	cmpq	$0, %rax
	jne	.LBB11_46
# %bb.45:                               # %lor.lhs.false137
                                        #   in Loop: Header=BB11_1 Depth=1
	movq	-80(%rbp), %rax
	movq	464(%rax), %rax
	movl	-132(%rbp), %ecx
                                        # kill: def $cl killed $ecx
	movl	$1, %edx
	shll	%cl, %edx
	movslq	%edx, %rcx
	andq	%rcx, %rax
	cmpq	$0, %rax
	je	.LBB11_47
.LBB11_46:                              # %if.then144
                                        #   in Loop: Header=BB11_1 Depth=1
	movq	-72(%rbp), %rax
	movslq	-28(%rbp), %rcx
	movb	$2, (%rax,%rcx)
	jmp	.LBB11_77
.LBB11_47:                              # %if.else147
                                        #   in Loop: Header=BB11_1 Depth=1
	cmpb	$0, mixedModeEdgeFlag
	je	.LBB11_49
# %bb.48:                               # %if.then149
                                        #   in Loop: Header=BB11_1 Depth=1
	movq	-72(%rbp), %rax
	movslq	-28(%rbp), %rcx
	movb	$1, (%rax,%rcx)
	jmp	.LBB11_76
.LBB11_49:                              # %if.else152
                                        #   in Loop: Header=BB11_1 Depth=1
	movl	-92(%rbp), %edi
	leaq	-140(%rbp), %rsi
	leaq	-136(%rbp), %rdx
	callq	get_mb_block_pos
	movl	-136(%rbp), %eax
	shll	$2, %eax
	movl	-96(%rbp), %ecx
	sarl	$2, %ecx
	addl	%ecx, %eax
	movl	%eax, -16(%rbp)
	movl	-140(%rbp), %eax
	shll	$2, %eax
	movl	-96(%rbp), %ecx
	andl	$3, %ecx
	addl	%ecx, %eax
	movl	%eax, -12(%rbp)
	movl	-196(%rbp), %eax
	sarl	$2, %eax
	movl	%eax, -20(%rbp)
	movl	-200(%rbp), %eax
	sarl	$2, %eax
	movl	%eax, -24(%rbp)
	movq	-184(%rbp), %rax
	movslq	-12(%rbp), %rcx
	movq	(%rax,%rcx,8), %rax
	movslq	-16(%rbp), %rcx
	movswl	(%rax,%rcx,2), %eax
	cmpl	$0, %eax
	jge	.LBB11_51
# %bb.50:                               # %cond.true168
                                        #   in Loop: Header=BB11_1 Depth=1
	movq	$-1, %rax
	jmp	.LBB11_52
.LBB11_51:                              # %cond.false169
                                        #   in Loop: Header=BB11_1 Depth=1
	movq	-160(%rbp), %rax
	movslq	-12(%rbp), %rcx
	movq	(%rax,%rcx,8), %rax
	movslq	-16(%rbp), %rcx
	movq	(%rax,%rcx,8), %rax
.LBB11_52:                              # %cond.end174
                                        #   in Loop: Header=BB11_1 Depth=1
	movq	%rax, -112(%rbp)
	movq	-184(%rbp), %rax
	movslq	-24(%rbp), %rcx
	movq	(%rax,%rcx,8), %rax
	movslq	-20(%rbp), %rcx
	movswl	(%rax,%rcx,2), %eax
	cmpl	$0, %eax
	jge	.LBB11_54
# %bb.53:                               # %cond.true183
                                        #   in Loop: Header=BB11_1 Depth=1
	movq	$-1, %rax
	jmp	.LBB11_55
.LBB11_54:                              # %cond.false184
                                        #   in Loop: Header=BB11_1 Depth=1
	movq	-160(%rbp), %rax
	movslq	-24(%rbp), %rcx
	movq	(%rax,%rcx,8), %rax
	movslq	-20(%rbp), %rcx
	movq	(%rax,%rcx,8), %rax
.LBB11_55:                              # %cond.end189
                                        #   in Loop: Header=BB11_1 Depth=1
	movq	%rax, -128(%rbp)
	movq	-192(%rbp), %rax
	movslq	-12(%rbp), %rcx
	movq	(%rax,%rcx,8), %rax
	movslq	-16(%rbp), %rcx
	movswl	(%rax,%rcx,2), %eax
	cmpl	$0, %eax
	jge	.LBB11_57
# %bb.56:                               # %cond.true198
                                        #   in Loop: Header=BB11_1 Depth=1
	movq	$-1, %rax
	jmp	.LBB11_58
.LBB11_57:                              # %cond.false199
                                        #   in Loop: Header=BB11_1 Depth=1
	movq	-168(%rbp), %rax
	movslq	-12(%rbp), %rcx
	movq	(%rax,%rcx,8), %rax
	movslq	-16(%rbp), %rcx
	movq	(%rax,%rcx,8), %rax
.LBB11_58:                              # %cond.end204
                                        #   in Loop: Header=BB11_1 Depth=1
	movq	%rax, -120(%rbp)
	movq	-192(%rbp), %rax
	movslq	-24(%rbp), %rcx
	movq	(%rax,%rcx,8), %rax
	movslq	-20(%rbp), %rcx
	movswl	(%rax,%rcx,2), %eax
	cmpl	$0, %eax
	jge	.LBB11_60
# %bb.59:                               # %cond.true213
                                        #   in Loop: Header=BB11_1 Depth=1
	movq	$-1, %rax
	jmp	.LBB11_61
.LBB11_60:                              # %cond.false214
                                        #   in Loop: Header=BB11_1 Depth=1
	movq	-168(%rbp), %rax
	movslq	-24(%rbp), %rcx
	movq	(%rax,%rcx,8), %rax
	movslq	-20(%rbp), %rcx
	movq	(%rax,%rcx,8), %rax
.LBB11_61:                              # %cond.end219
                                        #   in Loop: Header=BB11_1 Depth=1
	movq	%rax, -176(%rbp)
	movq	-112(%rbp), %rax
	cmpq	-128(%rbp), %rax
	jne	.LBB11_63
# %bb.62:                               # %land.lhs.true223
                                        #   in Loop: Header=BB11_1 Depth=1
	movq	-120(%rbp), %rax
	cmpq	-176(%rbp), %rax
	je	.LBB11_65
.LBB11_63:                              # %lor.lhs.false226
                                        #   in Loop: Header=BB11_1 Depth=1
	movq	-112(%rbp), %rax
	cmpq	-176(%rbp), %rax
	jne	.LBB11_74
# %bb.64:                               # %land.lhs.true229
                                        #   in Loop: Header=BB11_1 Depth=1
	movq	-120(%rbp), %rax
	cmpq	-128(%rbp), %rax
	jne	.LBB11_74
.LBB11_65:                              # %if.then232
                                        #   in Loop: Header=BB11_1 Depth=1
	movq	-72(%rbp), %rax
	movslq	-28(%rbp), %rcx
	movb	$0, (%rax,%rcx)
	movq	-112(%rbp), %rax
	cmpq	-120(%rbp), %rax
	je	.LBB11_70
# %bb.66:                               # %if.then237
                                        #   in Loop: Header=BB11_1 Depth=1
	movq	-112(%rbp), %rax
	cmpq	-128(%rbp), %rax
	jne	.LBB11_68
# %bb.67:                               # %if.then240
                                        #   in Loop: Header=BB11_1 Depth=1
	movq	-48(%rbp), %rax
	movslq	-12(%rbp), %rcx
	movq	(%rax,%rcx,8), %rax
	movslq	-16(%rbp), %rcx
	movq	(%rax,%rcx,8), %rax
	movswl	(%rax), %edi
	movq	-48(%rbp), %rax
	movslq	-24(%rbp), %rcx
	movq	(%rax,%rcx,8), %rax
	movslq	-20(%rbp), %rcx
	movq	(%rax,%rcx,8), %rax
	movswl	(%rax), %eax
	subl	%eax, %edi
	callq	abs
	cmpl	$4, %eax
	setge	%al
	andb	$1, %al
	movzbl	%al, %ebx
	movq	-48(%rbp), %rax
	movslq	-12(%rbp), %rcx
	movq	(%rax,%rcx,8), %rax
	movslq	-16(%rbp), %rcx
	movq	(%rax,%rcx,8), %rax
	movswl	2(%rax), %edi
	movq	-48(%rbp), %rax
	movslq	-24(%rbp), %rcx
	movq	(%rax,%rcx,8), %rax
	movslq	-20(%rbp), %rcx
	movq	(%rax,%rcx,8), %rax
	movswl	2(%rax), %eax
	subl	%eax, %edi
	callq	abs
	cmpl	-32(%rbp), %eax
	setge	%al
	andb	$1, %al
	movzbl	%al, %eax
	orl	%eax, %ebx
	movq	-40(%rbp), %rax
	movslq	-12(%rbp), %rcx
	movq	(%rax,%rcx,8), %rax
	movslq	-16(%rbp), %rcx
	movq	(%rax,%rcx,8), %rax
	movswl	(%rax), %edi
	movq	-40(%rbp), %rax
	movslq	-24(%rbp), %rcx
	movq	(%rax,%rcx,8), %rax
	movslq	-20(%rbp), %rcx
	movq	(%rax,%rcx,8), %rax
	movswl	(%rax), %eax
	subl	%eax, %edi
	callq	abs
	cmpl	$4, %eax
	setge	%al
	andb	$1, %al
	movzbl	%al, %eax
	orl	%eax, %ebx
	movq	-40(%rbp), %rax
	movslq	-12(%rbp), %rcx
	movq	(%rax,%rcx,8), %rax
	movslq	-16(%rbp), %rcx
	movq	(%rax,%rcx,8), %rax
	movswl	2(%rax), %edi
	movq	-40(%rbp), %rax
	movslq	-24(%rbp), %rcx
	movq	(%rax,%rcx,8), %rax
	movslq	-20(%rbp), %rcx
	movq	(%rax,%rcx,8), %rax
	movswl	2(%rax), %eax
	subl	%eax, %edi
	callq	abs
	cmpl	-32(%rbp), %eax
	setge	%al
	andb	$1, %al
	movzbl	%al, %eax
	orl	%eax, %ebx
	movq	-72(%rbp), %rax
	movslq	-28(%rbp), %rcx
	movb	%bl, (%rax,%rcx)
	jmp	.LBB11_69
.LBB11_68:                              # %if.else309
                                        #   in Loop: Header=BB11_1 Depth=1
	movq	-48(%rbp), %rax
	movslq	-12(%rbp), %rcx
	movq	(%rax,%rcx,8), %rax
	movslq	-16(%rbp), %rcx
	movq	(%rax,%rcx,8), %rax
	movswl	(%rax), %edi
	movq	-40(%rbp), %rax
	movslq	-24(%rbp), %rcx
	movq	(%rax,%rcx,8), %rax
	movslq	-20(%rbp), %rcx
	movq	(%rax,%rcx,8), %rax
	movswl	(%rax), %eax
	subl	%eax, %edi
	callq	abs
	cmpl	$4, %eax
	setge	%al
	andb	$1, %al
	movzbl	%al, %ebx
	movq	-48(%rbp), %rax
	movslq	-12(%rbp), %rcx
	movq	(%rax,%rcx,8), %rax
	movslq	-16(%rbp), %rcx
	movq	(%rax,%rcx,8), %rax
	movswl	2(%rax), %edi
	movq	-40(%rbp), %rax
	movslq	-24(%rbp), %rcx
	movq	(%rax,%rcx,8), %rax
	movslq	-20(%rbp), %rcx
	movq	(%rax,%rcx,8), %rax
	movswl	2(%rax), %eax
	subl	%eax, %edi
	callq	abs
	cmpl	-32(%rbp), %eax
	setge	%al
	andb	$1, %al
	movzbl	%al, %eax
	orl	%eax, %ebx
	movq	-40(%rbp), %rax
	movslq	-12(%rbp), %rcx
	movq	(%rax,%rcx,8), %rax
	movslq	-16(%rbp), %rcx
	movq	(%rax,%rcx,8), %rax
	movswl	(%rax), %edi
	movq	-48(%rbp), %rax
	movslq	-24(%rbp), %rcx
	movq	(%rax,%rcx,8), %rax
	movslq	-20(%rbp), %rcx
	movq	(%rax,%rcx,8), %rax
	movswl	(%rax), %eax
	subl	%eax, %edi
	callq	abs
	cmpl	$4, %eax
	setge	%al
	andb	$1, %al
	movzbl	%al, %eax
	orl	%eax, %ebx
	movq	-40(%rbp), %rax
	movslq	-12(%rbp), %rcx
	movq	(%rax,%rcx,8), %rax
	movslq	-16(%rbp), %rcx
	movq	(%rax,%rcx,8), %rax
	movswl	2(%rax), %edi
	movq	-48(%rbp), %rax
	movslq	-24(%rbp), %rcx
	movq	(%rax,%rcx,8), %rax
	movslq	-20(%rbp), %rcx
	movq	(%rax,%rcx,8), %rax
	movswl	2(%rax), %eax
	subl	%eax, %edi
	callq	abs
	cmpl	-32(%rbp), %eax
	setge	%al
	andb	$1, %al
	movzbl	%al, %eax
	orl	%eax, %ebx
	movq	-72(%rbp), %rax
	movslq	-28(%rbp), %rcx
	movb	%bl, (%rax,%rcx)
.LBB11_69:                              # %if.end
                                        #   in Loop: Header=BB11_1 Depth=1
	jmp	.LBB11_73
.LBB11_70:                              # %if.else380
                                        #   in Loop: Header=BB11_1 Depth=1
	movq	-48(%rbp), %rax
	movslq	-12(%rbp), %rcx
	movq	(%rax,%rcx,8), %rax
	movslq	-16(%rbp), %rcx
	movq	(%rax,%rcx,8), %rax
	movswl	(%rax), %edi
	movq	-48(%rbp), %rax
	movslq	-24(%rbp), %rcx
	movq	(%rax,%rcx,8), %rax
	movslq	-20(%rbp), %rcx
	movq	(%rax,%rcx,8), %rax
	movswl	(%rax), %eax
	subl	%eax, %edi
	callq	abs
	cmpl	$4, %eax
	setge	%al
	andb	$1, %al
	movzbl	%al, %ebx
	movq	-48(%rbp), %rax
	movslq	-12(%rbp), %rcx
	movq	(%rax,%rcx,8), %rax
	movslq	-16(%rbp), %rcx
	movq	(%rax,%rcx,8), %rax
	movswl	2(%rax), %edi
	movq	-48(%rbp), %rax
	movslq	-24(%rbp), %rcx
	movq	(%rax,%rcx,8), %rax
	movslq	-20(%rbp), %rcx
	movq	(%rax,%rcx,8), %rax
	movswl	2(%rax), %eax
	subl	%eax, %edi
	callq	abs
	cmpl	-32(%rbp), %eax
	setge	%al
	andb	$1, %al
	movzbl	%al, %eax
	orl	%eax, %ebx
	movq	-40(%rbp), %rax
	movslq	-12(%rbp), %rcx
	movq	(%rax,%rcx,8), %rax
	movslq	-16(%rbp), %rcx
	movq	(%rax,%rcx,8), %rax
	movswl	(%rax), %edi
	movq	-40(%rbp), %rax
	movslq	-24(%rbp), %rcx
	movq	(%rax,%rcx,8), %rax
	movslq	-20(%rbp), %rcx
	movq	(%rax,%rcx,8), %rax
	movswl	(%rax), %eax
	subl	%eax, %edi
	callq	abs
	cmpl	$4, %eax
	setge	%al
	andb	$1, %al
	movzbl	%al, %eax
	orl	%eax, %ebx
	movq	-40(%rbp), %rax
	movslq	-12(%rbp), %rcx
	movq	(%rax,%rcx,8), %rax
	movslq	-16(%rbp), %rcx
	movq	(%rax,%rcx,8), %rax
	movswl	2(%rax), %edi
	movq	-40(%rbp), %rax
	movslq	-24(%rbp), %rcx
	movq	(%rax,%rcx,8), %rax
	movslq	-20(%rbp), %rcx
	movq	(%rax,%rcx,8), %rax
	movswl	2(%rax), %eax
	subl	%eax, %edi
	callq	abs
	xorl	%ecx, %ecx
	cmpl	-32(%rbp), %eax
	setge	%al
	andb	$1, %al
	movzbl	%al, %eax
	orl	%eax, %ebx
	cmpl	$0, %ebx
	je	.LBB11_72
# %bb.71:                               # %land.rhs449
                                        #   in Loop: Header=BB11_1 Depth=1
	movq	-48(%rbp), %rax
	movslq	-12(%rbp), %rcx
	movq	(%rax,%rcx,8), %rax
	movslq	-16(%rbp), %rcx
	movq	(%rax,%rcx,8), %rax
	movswl	(%rax), %edi
	movq	-40(%rbp), %rax
	movslq	-24(%rbp), %rcx
	movq	(%rax,%rcx,8), %rax
	movslq	-20(%rbp), %rcx
	movq	(%rax,%rcx,8), %rax
	movswl	(%rax), %eax
	subl	%eax, %edi
	callq	abs
	cmpl	$4, %eax
	setge	%al
	andb	$1, %al
	movzbl	%al, %ebx
	movq	-48(%rbp), %rax
	movslq	-12(%rbp), %rcx
	movq	(%rax,%rcx,8), %rax
	movslq	-16(%rbp), %rcx
	movq	(%rax,%rcx,8), %rax
	movswl	2(%rax), %edi
	movq	-40(%rbp), %rax
	movslq	-24(%rbp), %rcx
	movq	(%rax,%rcx,8), %rax
	movslq	-20(%rbp), %rcx
	movq	(%rax,%rcx,8), %rax
	movswl	2(%rax), %eax
	subl	%eax, %edi
	callq	abs
	cmpl	-32(%rbp), %eax
	setge	%al
	andb	$1, %al
	movzbl	%al, %eax
	orl	%eax, %ebx
	movq	-40(%rbp), %rax
	movslq	-12(%rbp), %rcx
	movq	(%rax,%rcx,8), %rax
	movslq	-16(%rbp), %rcx
	movq	(%rax,%rcx,8), %rax
	movswl	(%rax), %edi
	movq	-48(%rbp), %rax
	movslq	-24(%rbp), %rcx
	movq	(%rax,%rcx,8), %rax
	movslq	-20(%rbp), %rcx
	movq	(%rax,%rcx,8), %rax
	movswl	(%rax), %eax
	subl	%eax, %edi
	callq	abs
	cmpl	$4, %eax
	setge	%al
	andb	$1, %al
	movzbl	%al, %eax
	orl	%eax, %ebx
	movq	-40(%rbp), %rax
	movslq	-12(%rbp), %rcx
	movq	(%rax,%rcx,8), %rax
	movslq	-16(%rbp), %rcx
	movq	(%rax,%rcx,8), %rax
	movswl	2(%rax), %edi
	movq	-48(%rbp), %rax
	movslq	-24(%rbp), %rcx
	movq	(%rax,%rcx,8), %rax
	movslq	-20(%rbp), %rcx
	movq	(%rax,%rcx,8), %rax
	movswl	2(%rax), %eax
	subl	%eax, %edi
	callq	abs
	cmpl	-32(%rbp), %eax
	setge	%al
	andb	$1, %al
	movzbl	%al, %eax
	orl	%eax, %ebx
	cmpl	$0, %ebx
	setne	%cl
.LBB11_72:                              # %land.end518
                                        #   in Loop: Header=BB11_1 Depth=1
	andb	$1, %cl
	movzbl	%cl, %eax
	movq	-72(%rbp), %rcx
	movslq	-28(%rbp), %rdx
	movb	%al, (%rcx,%rdx)
.LBB11_73:                              # %if.end522
                                        #   in Loop: Header=BB11_1 Depth=1
	jmp	.LBB11_75
.LBB11_74:                              # %if.else523
                                        #   in Loop: Header=BB11_1 Depth=1
	movq	-72(%rbp), %rax
	movslq	-28(%rbp), %rcx
	movb	$1, (%rax,%rcx)
.LBB11_75:                              # %if.end526
                                        #   in Loop: Header=BB11_1 Depth=1
	jmp	.LBB11_76
.LBB11_76:                              # %if.end527
                                        #   in Loop: Header=BB11_1 Depth=1
	jmp	.LBB11_77
.LBB11_77:                              # %if.end528
                                        #   in Loop: Header=BB11_1 Depth=1
	jmp	.LBB11_78
.LBB11_78:                              # %if.end529
                                        #   in Loop: Header=BB11_1 Depth=1
	jmp	.LBB11_79
.LBB11_79:                              # %if.end530
                                        #   in Loop: Header=BB11_1 Depth=1
	jmp	.LBB11_80
.LBB11_80:                              # %for.inc
                                        #   in Loop: Header=BB11_1 Depth=1
	movl	-28(%rbp), %eax
	addl	$1, %eax
	movl	%eax, -28(%rbp)
	jmp	.LBB11_1
.LBB11_81:                              # %for.end
	cmpl	$567541831, -152(%rbp)  # imm = 0x21D40047
	jne	.LBB11_83
.LBB11_82:
	addq	$216, %rsp
	popq	%rbx
	popq	%rbp
	.cfi_def_cfa %rsp, 8
	retq
.LBB11_83:                              # %func_exit
	.cfi_def_cfa %rbp, 16
	callq	detect_breach
	jmp	.LBB11_82
.Lfunc_end11:
	.size	GetStrength.8, .Lfunc_end11-GetStrength.8
	.cfi_endproc
                                        # -- End function
	.globl	EdgeLoop.9              # -- Begin function EdgeLoop.9
	.p2align	4, 0x90
	.type	EdgeLoop.9,@function
EdgeLoop.9:                             # @EdgeLoop.9
	.cfi_startproc
# %bb.0:                                # %entry
	pushq	%rbp
	.cfi_def_cfa_offset 16
	.cfi_offset %rbp, -16
	movq	%rsp, %rbp
	.cfi_def_cfa_register %rbp
	pushq	%rbx
	subq	$312, %rsp              # imm = 0x138
	.cfi_offset %rbx, -24
	movl	48(%rbp), %eax
	movl	40(%rbp), %eax
	movl	32(%rbp), %eax
	movl	24(%rbp), %eax
	movl	16(%rbp), %eax
	movl	$472683470, -196(%rbp)  # imm = 0x1C2C93CE
	movq	%rdi, -216(%rbp)
	movq	%rsi, -248(%rbp)
	movq	%rdx, -56(%rbp)
	movl	%ecx, -140(%rbp)
	movl	%r8d, -136(%rbp)
	movl	%r9d, -132(%rbp)
	movl	$0, -68(%rbp)
	movl	$0, -64(%rbp)
	movl	$0, -36(%rbp)
	movl	$0, -32(%rbp)
	movl	$0, -148(%rbp)
	movl	$0, -100(%rbp)
	movq	$0, -208(%rbp)
	movq	.L__const.EdgeLoop.pelnum_cr, %rax
	movq	%rax, -288(%rbp)
	movq	.L__const.EdgeLoop.pelnum_cr+8, %rax
	movq	%rax, -280(%rbp)
	movq	.L__const.EdgeLoop.pelnum_cr+16, %rax
	movq	%rax, -272(%rbp)
	movq	.L__const.EdgeLoop.pelnum_cr+24, %rax
	movq	%rax, -264(%rbp)
	cmpl	$0, 40(%rbp)
	jne	.LBB12_2
# %bb.1:                                # %if.then
	movq	-56(%rbp), %rax
	movl	72660(%rax), %ecx
	subl	$8, %ecx
                                        # kill: def $cl killed $ecx
	movl	$1, %eax
	shll	%cl, %eax
	movl	%eax, -108(%rbp)
	jmp	.LBB12_3
.LBB12_2:                               # %if.else
	movq	-56(%rbp), %rax
	movl	72664(%rax), %ecx
	subl	$8, %ecx
                                        # kill: def $cl killed $ecx
	movl	$1, %eax
	shll	%cl, %eax
	movl	%eax, -108(%rbp)
.LBB12_3:                               # %if.end
	cmpl	$0, 40(%rbp)
	je	.LBB12_5
# %bb.4:                                # %cond.true
	movslq	16(%rbp), %rax
	shlq	$4, %rax
	leaq	-288(%rbp), %rcx
	addq	%rax, %rcx
	movq	-56(%rbp), %rax
	movslq	72700(%rax), %rax
	movl	(%rcx,%rax,4), %eax
	jmp	.LBB12_6
.LBB12_5:                               # %cond.false
	movl	$16, %eax
	jmp	.LBB12_6
.LBB12_6:                               # %cond.end
	movl	%eax, -168(%rbp)
	movl	$0, -60(%rbp)
.LBB12_7:                               # %for.cond
                                        # =>This Inner Loop Header: Depth=1
	movl	-60(%rbp), %eax
	cmpl	-168(%rbp), %eax
	jge	.LBB12_159
# %bb.8:                                # %for.body
                                        #   in Loop: Header=BB12_7 Depth=1
	cmpl	$0, 16(%rbp)
	je	.LBB12_10
# %bb.9:                                # %cond.true7
                                        #   in Loop: Header=BB12_7 Depth=1
	movl	-60(%rbp), %eax
	jmp	.LBB12_11
.LBB12_10:                              # %cond.false8
                                        #   in Loop: Header=BB12_7 Depth=1
	movl	24(%rbp), %eax
	shll	$2, %eax
.LBB12_11:                              # %cond.end10
                                        #   in Loop: Header=BB12_7 Depth=1
	movl	%eax, -152(%rbp)
	cmpl	$0, 16(%rbp)
	je	.LBB12_16
# %bb.12:                               # %cond.true13
                                        #   in Loop: Header=BB12_7 Depth=1
	cmpl	$4, 24(%rbp)
	jge	.LBB12_14
# %bb.13:                               # %cond.true15
                                        #   in Loop: Header=BB12_7 Depth=1
	movl	24(%rbp), %eax
	shll	$2, %eax
	jmp	.LBB12_15
.LBB12_14:                              # %cond.false17
                                        #   in Loop: Header=BB12_7 Depth=1
	movl	$1, %eax
	jmp	.LBB12_15
.LBB12_15:                              # %cond.end18
                                        #   in Loop: Header=BB12_7 Depth=1
	jmp	.LBB12_17
.LBB12_16:                              # %cond.false20
                                        #   in Loop: Header=BB12_7 Depth=1
	movl	-60(%rbp), %eax
.LBB12_17:                              # %cond.end21
                                        #   in Loop: Header=BB12_7 Depth=1
	movl	%eax, -156(%rbp)
	movl	-140(%rbp), %edi
	movl	-152(%rbp), %esi
	movl	-156(%rbp), %edx
	movl	$1, %ecx
	subl	40(%rbp), %ecx
	leaq	-312(%rbp), %r8
	callq	getNeighbour
	movl	-140(%rbp), %edi
	movl	-152(%rbp), %esi
	movl	$1, %ecx
	movl	$1, %eax
	subl	16(%rbp), %eax
	subl	%eax, %esi
	movl	-156(%rbp), %edx
	subl	16(%rbp), %edx
	subl	40(%rbp), %ecx
	leaq	-240(%rbp), %r8
	callq	getNeighbour
	movl	-232(%rbp), %eax
	movl	%eax, -256(%rbp)
	movl	-228(%rbp), %eax
	movl	%eax, -252(%rbp)
	movq	-56(%rbp), %rax
	movq	14168(%rax), %rax
	movslq	-140(%rbp), %rcx
	imulq	$632, %rcx, %rcx        # imm = 0x278
	addq	%rcx, %rax
	movq	%rax, -120(%rbp)
	movq	-56(%rbp), %rax
	movq	14168(%rax), %rax
	movslq	-236(%rbp), %rcx
	imulq	$632, %rcx, %rcx        # imm = 0x278
	addq	%rcx, %rax
	movq	%rax, -128(%rbp)
	movq	-120(%rbp), %rax
	cmpl	$0, 532(%rax)
	movb	$1, %al
	jne	.LBB12_19
# %bb.18:                               # %lor.rhs
                                        #   in Loop: Header=BB12_7 Depth=1
	movq	-128(%rbp), %rax
	cmpl	$0, 532(%rax)
	setne	%al
.LBB12_19:                              # %lor.end
                                        #   in Loop: Header=BB12_7 Depth=1
	andb	$1, %al
	movzbl	%al, %eax
	movb	%al, fieldModeFilteringFlag
	cmpl	$0, 40(%rbp)
	je	.LBB12_26
# %bb.20:                               # %land.lhs.true
                                        #   in Loop: Header=BB12_7 Depth=1
	cmpl	$8, -168(%rbp)
	jne	.LBB12_26
# %bb.21:                               # %cond.true39
                                        #   in Loop: Header=BB12_7 Depth=1
	movq	-120(%rbp), %rax
	cmpl	$0, 532(%rax)
	je	.LBB12_24
# %bb.22:                               # %land.lhs.true42
                                        #   in Loop: Header=BB12_7 Depth=1
	movq	-128(%rbp), %rax
	cmpl	$0, 532(%rax)
	jne	.LBB12_24
# %bb.23:                               # %cond.true45
                                        #   in Loop: Header=BB12_7 Depth=1
	movl	-60(%rbp), %ecx
	shll	$1, %ecx
	jmp	.LBB12_25
.LBB12_24:                              # %cond.false47
                                        #   in Loop: Header=BB12_7 Depth=1
	movl	-60(%rbp), %ecx
	sarl	$1, %ecx
	shll	$2, %ecx
	movl	-60(%rbp), %eax
	cltd
	movl	$2, %esi
	idivl	%esi
	addl	%edx, %ecx
.LBB12_25:                              # %cond.end49
                                        #   in Loop: Header=BB12_7 Depth=1
	jmp	.LBB12_27
.LBB12_26:                              # %cond.false51
                                        #   in Loop: Header=BB12_7 Depth=1
	movl	-60(%rbp), %ecx
.LBB12_27:                              # %cond.end52
                                        #   in Loop: Header=BB12_7 Depth=1
	movl	%ecx, -180(%rbp)
	cmpl	$0, -240(%rbp)
	jne	.LBB12_29
# %bb.28:                               # %lor.lhs.false
                                        #   in Loop: Header=BB12_7 Depth=1
	movq	-120(%rbp), %rax
	cmpl	$0, 612(%rax)
	jne	.LBB12_157
.LBB12_29:                              # %if.then57
                                        #   in Loop: Header=BB12_7 Depth=1
	cmpl	$0, 16(%rbp)
	je	.LBB12_35
# %bb.30:                               # %cond.true59
                                        #   in Loop: Header=BB12_7 Depth=1
	movzbl	fieldModeFilteringFlag, %eax
	cmpl	$0, %eax
	je	.LBB12_33
# %bb.31:                               # %land.lhs.true62
                                        #   in Loop: Header=BB12_7 Depth=1
	movq	-120(%rbp), %rax
	cmpl	$0, 532(%rax)
	jne	.LBB12_33
# %bb.32:                               # %cond.true65
                                        #   in Loop: Header=BB12_7 Depth=1
	movl	32(%rbp), %eax
	shll	$1, %eax
	jmp	.LBB12_34
.LBB12_33:                              # %cond.false66
                                        #   in Loop: Header=BB12_7 Depth=1
	movl	32(%rbp), %eax
.LBB12_34:                              # %cond.end67
                                        #   in Loop: Header=BB12_7 Depth=1
	jmp	.LBB12_36
.LBB12_35:                              # %cond.false69
                                        #   in Loop: Header=BB12_7 Depth=1
	movl	$1, %eax
	jmp	.LBB12_36
.LBB12_36:                              # %cond.end70
                                        #   in Loop: Header=BB12_7 Depth=1
	movl	%eax, -76(%rbp)
	cmpl	$0, 16(%rbp)
	je	.LBB12_42
# %bb.37:                               # %cond.true73
                                        #   in Loop: Header=BB12_7 Depth=1
	movzbl	fieldModeFilteringFlag, %eax
	cmpl	$0, %eax
	je	.LBB12_40
# %bb.38:                               # %land.lhs.true76
                                        #   in Loop: Header=BB12_7 Depth=1
	movq	-128(%rbp), %rax
	cmpl	$0, 532(%rax)
	jne	.LBB12_40
# %bb.39:                               # %cond.true79
                                        #   in Loop: Header=BB12_7 Depth=1
	movl	32(%rbp), %eax
	shll	$1, %eax
	jmp	.LBB12_41
.LBB12_40:                              # %cond.false81
                                        #   in Loop: Header=BB12_7 Depth=1
	movl	32(%rbp), %eax
.LBB12_41:                              # %cond.end82
                                        #   in Loop: Header=BB12_7 Depth=1
	jmp	.LBB12_43
.LBB12_42:                              # %cond.false84
                                        #   in Loop: Header=BB12_7 Depth=1
	movl	$1, %eax
	jmp	.LBB12_43
.LBB12_43:                              # %cond.end85
                                        #   in Loop: Header=BB12_7 Depth=1
	movl	%eax, -80(%rbp)
	movq	-216(%rbp), %rax
	movslq	-292(%rbp), %rcx
	movq	(%rax,%rcx,8), %rax
	movslq	-296(%rbp), %rcx
	shlq	$1, %rcx
	addq	%rcx, %rax
	movq	%rax, -88(%rbp)
	movq	-216(%rbp), %rax
	movslq	-220(%rbp), %rcx
	movq	(%rax,%rcx,8), %rax
	movslq	-224(%rbp), %rcx
	shlq	$1, %rcx
	addq	%rcx, %rax
	movq	%rax, -96(%rbp)
	cmpl	$0, 40(%rbp)
	je	.LBB12_57
# %bb.44:                               # %cond.true98
                                        #   in Loop: Header=BB12_7 Depth=1
	movq	-128(%rbp), %rax
	movl	12(%rax), %eax
	movq	-56(%rbp), %rcx
	movslq	48(%rbp), %rdx
	addl	72716(%rcx,%rdx,4), %eax
	cmpl	$0, %eax
	jge	.LBB12_46
# %bb.45:                               # %cond.true104
                                        #   in Loop: Header=BB12_7 Depth=1
	xorl	%eax, %eax
	jmp	.LBB12_50
.LBB12_46:                              # %cond.false105
                                        #   in Loop: Header=BB12_7 Depth=1
	movq	-128(%rbp), %rax
	movl	12(%rax), %eax
	movq	-56(%rbp), %rcx
	movslq	48(%rbp), %rdx
	addl	72716(%rcx,%rdx,4), %eax
	cmpl	$51, %eax
	jle	.LBB12_48
# %bb.47:                               # %cond.true113
                                        #   in Loop: Header=BB12_7 Depth=1
	movl	$51, %eax
	jmp	.LBB12_49
.LBB12_48:                              # %cond.false114
                                        #   in Loop: Header=BB12_7 Depth=1
	movq	-128(%rbp), %rax
	movl	12(%rax), %eax
	movq	-56(%rbp), %rcx
	movslq	48(%rbp), %rdx
	addl	72716(%rcx,%rdx,4), %eax
.LBB12_49:                              # %cond.end120
                                        #   in Loop: Header=BB12_7 Depth=1
.LBB12_50:                              # %cond.end122
                                        #   in Loop: Header=BB12_7 Depth=1
	cltq
	movzbl	QP_SCALE_CR(,%rax), %eax
	movq	-120(%rbp), %rcx
	movl	12(%rcx), %ecx
	movq	-56(%rbp), %rdx
	movslq	48(%rbp), %rsi
	addl	72716(%rdx,%rsi,4), %ecx
	cmpl	$0, %ecx
	jge	.LBB12_52
# %bb.51:                               # %cond.true134
                                        #   in Loop: Header=BB12_7 Depth=1
	xorl	%ecx, %ecx
	jmp	.LBB12_56
.LBB12_52:                              # %cond.false135
                                        #   in Loop: Header=BB12_7 Depth=1
	movq	-120(%rbp), %rcx
	movl	12(%rcx), %ecx
	movq	-56(%rbp), %rdx
	movslq	48(%rbp), %rsi
	addl	72716(%rdx,%rsi,4), %ecx
	cmpl	$51, %ecx
	jle	.LBB12_54
# %bb.53:                               # %cond.true143
                                        #   in Loop: Header=BB12_7 Depth=1
	movl	$51, %ecx
	jmp	.LBB12_55
.LBB12_54:                              # %cond.false144
                                        #   in Loop: Header=BB12_7 Depth=1
	movq	-120(%rbp), %rcx
	movl	12(%rcx), %ecx
	movq	-56(%rbp), %rdx
	movslq	48(%rbp), %rsi
	addl	72716(%rdx,%rsi,4), %ecx
.LBB12_55:                              # %cond.end150
                                        #   in Loop: Header=BB12_7 Depth=1
.LBB12_56:                              # %cond.end152
                                        #   in Loop: Header=BB12_7 Depth=1
	movslq	%ecx, %rcx
	movzbl	QP_SCALE_CR(,%rcx), %ecx
	addl	%ecx, %eax
	addl	$1, %eax
	sarl	$1, %eax
	jmp	.LBB12_58
.LBB12_57:                              # %cond.false160
                                        #   in Loop: Header=BB12_7 Depth=1
	movq	-128(%rbp), %rax
	movl	12(%rax), %eax
	movq	-120(%rbp), %rcx
	addl	12(%rcx), %eax
	addl	$1, %eax
	sarl	$1, %eax
.LBB12_58:                              # %cond.end166
                                        #   in Loop: Header=BB12_7 Depth=1
	movl	%eax, -72(%rbp)
	movl	-72(%rbp), %eax
	addl	-136(%rbp), %eax
	cmpl	$0, %eax
	jge	.LBB12_60
# %bb.59:                               # %cond.true171
                                        #   in Loop: Header=BB12_7 Depth=1
	xorl	%eax, %eax
	jmp	.LBB12_64
.LBB12_60:                              # %cond.false172
                                        #   in Loop: Header=BB12_7 Depth=1
	movl	-72(%rbp), %eax
	addl	-136(%rbp), %eax
	cmpl	$51, %eax
	jle	.LBB12_62
# %bb.61:                               # %cond.true176
                                        #   in Loop: Header=BB12_7 Depth=1
	movl	$51, %eax
	jmp	.LBB12_63
.LBB12_62:                              # %cond.false177
                                        #   in Loop: Header=BB12_7 Depth=1
	movl	-72(%rbp), %eax
	addl	-136(%rbp), %eax
.LBB12_63:                              # %cond.end179
                                        #   in Loop: Header=BB12_7 Depth=1
.LBB12_64:                              # %cond.end181
                                        #   in Loop: Header=BB12_7 Depth=1
	movl	%eax, -176(%rbp)
	movl	-72(%rbp), %eax
	addl	-132(%rbp), %eax
	cmpl	$0, %eax
	jge	.LBB12_66
# %bb.65:                               # %cond.true186
                                        #   in Loop: Header=BB12_7 Depth=1
	xorl	%ecx, %ecx
	jmp	.LBB12_70
.LBB12_66:                              # %cond.false187
                                        #   in Loop: Header=BB12_7 Depth=1
	movl	-72(%rbp), %eax
	addl	-132(%rbp), %eax
	cmpl	$51, %eax
	jle	.LBB12_68
# %bb.67:                               # %cond.true191
                                        #   in Loop: Header=BB12_7 Depth=1
	movl	$51, %ecx
	jmp	.LBB12_69
.LBB12_68:                              # %cond.false192
                                        #   in Loop: Header=BB12_7 Depth=1
	movl	-72(%rbp), %ecx
	addl	-132(%rbp), %ecx
.LBB12_69:                              # %cond.end194
                                        #   in Loop: Header=BB12_7 Depth=1
.LBB12_70:                              # %cond.end196
                                        #   in Loop: Header=BB12_7 Depth=1
	xorl	%eax, %eax
	movl	%ecx, -188(%rbp)
	movslq	-176(%rbp), %rcx
	movzbl	ALPHA_TABLE(,%rcx), %ecx
	imull	-108(%rbp), %ecx
	movl	%ecx, -148(%rbp)
	movslq	-188(%rbp), %rcx
	movzbl	BETA_TABLE(,%rcx), %ecx
	imull	-108(%rbp), %ecx
	movl	%ecx, -100(%rbp)
	movslq	-176(%rbp), %rcx
	imulq	$5, %rcx, %rcx
	movabsq	$CLIP_TAB, %rdx
	addq	%rcx, %rdx
	movq	%rdx, -208(%rbp)
	movq	-96(%rbp), %rcx
	movzwl	(%rcx), %ecx
	movl	%ecx, -20(%rbp)
	movq	-88(%rbp), %rcx
	movzwl	(%rcx), %ecx
	movl	%ecx, -24(%rbp)
	movq	-96(%rbp), %rcx
	xorl	%edx, %edx
	subl	-80(%rbp), %edx
	movslq	%edx, %rdx
	movzwl	(%rcx,%rdx,2), %ecx
	movl	%ecx, -12(%rbp)
	movq	-88(%rbp), %rcx
	movslq	-76(%rbp), %rdx
	movzwl	(%rcx,%rdx,2), %ecx
	movl	%ecx, -16(%rbp)
	movq	-96(%rbp), %rcx
	xorl	%edx, %edx
	subl	-80(%rbp), %edx
	shll	$1, %edx
	movslq	%edx, %rdx
	movzwl	(%rcx,%rdx,2), %ecx
	movl	%ecx, -36(%rbp)
	movq	-88(%rbp), %rcx
	movl	-76(%rbp), %edx
	shll	$1, %edx
	movslq	%edx, %rdx
	movzwl	(%rcx,%rdx,2), %ecx
	movl	%ecx, -32(%rbp)
	movq	-96(%rbp), %rcx
	subl	-80(%rbp), %eax
	imull	$3, %eax, %eax
	cltq
	movzwl	(%rcx,%rax,2), %eax
	movl	%eax, -184(%rbp)
	movq	-88(%rbp), %rax
	imull	$3, -76(%rbp), %ecx
	movslq	%ecx, %rcx
	movzwl	(%rax,%rcx,2), %eax
	movl	%eax, -192(%rbp)
	movq	-248(%rbp), %rax
	movslq	-180(%rbp), %rcx
	movzbl	(%rax,%rcx), %eax
	movl	%eax, -164(%rbp)
	cmpl	$0, %eax
	je	.LBB12_156
# %bb.71:                               # %if.then241
                                        #   in Loop: Header=BB12_7 Depth=1
	movl	-24(%rbp), %edi
	subl	-20(%rbp), %edi
	movl	%edi, -144(%rbp)
	callq	abs
	movl	%eax, -172(%rbp)
	movl	-172(%rbp), %eax
	cmpl	-148(%rbp), %eax
	jge	.LBB12_155
# %bb.72:                               # %if.then245
                                        #   in Loop: Header=BB12_7 Depth=1
	movq	-208(%rbp), %rax
	movslq	-164(%rbp), %rcx
	movzbl	(%rax,%rcx), %eax
	imull	-108(%rbp), %eax
	movl	%eax, -40(%rbp)
	movl	-24(%rbp), %edi
	subl	-16(%rbp), %edi
	callq	abs
	movl	%eax, %ebx
	subl	-100(%rbp), %ebx
	movl	-20(%rbp), %edi
	subl	-12(%rbp), %edi
	callq	abs
	subl	-100(%rbp), %eax
	andl	%eax, %ebx
	cmpl	$0, %ebx
	jge	.LBB12_154
# %bb.73:                               # %if.then258
                                        #   in Loop: Header=BB12_7 Depth=1
	cmpl	$0, 40(%rbp)
	jne	.LBB12_75
# %bb.74:                               # %if.then260
                                        #   in Loop: Header=BB12_7 Depth=1
	movl	-24(%rbp), %edi
	subl	-32(%rbp), %edi
	callq	abs
	subl	-100(%rbp), %eax
	cmpl	$0, %eax
	setl	%al
	andb	$1, %al
	movzbl	%al, %eax
	movl	%eax, -64(%rbp)
	movl	-20(%rbp), %edi
	subl	-36(%rbp), %edi
	callq	abs
	subl	-100(%rbp), %eax
	cmpl	$0, %eax
	setl	%al
	andb	$1, %al
	movzbl	%al, %eax
	movl	%eax, -68(%rbp)
.LBB12_75:                              # %if.end271
                                        #   in Loop: Header=BB12_7 Depth=1
	movl	-20(%rbp), %eax
	addl	-24(%rbp), %eax
	movl	%eax, -44(%rbp)
	cmpl	$4, -164(%rbp)
	jne	.LBB12_98
# %bb.76:                               # %if.then275
                                        #   in Loop: Header=BB12_7 Depth=1
	cmpl	$0, 40(%rbp)
	je	.LBB12_78
# %bb.77:                               # %if.then277
                                        #   in Loop: Header=BB12_7 Depth=1
	movl	-16(%rbp), %eax
	shll	$1, %eax
	addl	-24(%rbp), %eax
	addl	-12(%rbp), %eax
	addl	$2, %eax
	sarl	$2, %eax
	movq	-88(%rbp), %rcx
	movw	%ax, (%rcx)
	movl	-12(%rbp), %eax
	shll	$1, %eax
	addl	-20(%rbp), %eax
	addl	-16(%rbp), %eax
	addl	$2, %eax
	sarl	$2, %eax
	movq	-96(%rbp), %rcx
	movw	%ax, (%rcx)
	jmp	.LBB12_97
.LBB12_78:                              # %if.else292
                                        #   in Loop: Header=BB12_7 Depth=1
	movl	-172(%rbp), %eax
	movl	-148(%rbp), %ecx
	sarl	$2, %ecx
	addl	$2, %ecx
	cmpl	%ecx, %eax
	setl	%al
	andb	$1, %al
	movzbl	%al, %eax
	movl	%eax, -160(%rbp)
	movl	-160(%rbp), %eax
	andl	-64(%rbp), %eax
	movl	%eax, -64(%rbp)
	movl	-160(%rbp), %eax
	andl	-68(%rbp), %eax
	movl	%eax, -68(%rbp)
	cmpl	$0, -64(%rbp)
	je	.LBB12_80
# %bb.79:                               # %cond.true300
                                        #   in Loop: Header=BB12_7 Depth=1
	movl	-12(%rbp), %eax
	movl	-16(%rbp), %ecx
	addl	-44(%rbp), %ecx
	shll	$1, %ecx
	addl	%ecx, %eax
	addl	-32(%rbp), %eax
	addl	$4, %eax
	sarl	$3, %eax
	jmp	.LBB12_81
.LBB12_80:                              # %cond.false307
                                        #   in Loop: Header=BB12_7 Depth=1
	movl	-16(%rbp), %eax
	shll	$1, %eax
	addl	-24(%rbp), %eax
	addl	-12(%rbp), %eax
	addl	$2, %eax
	sarl	$2, %eax
.LBB12_81:                              # %cond.end313
                                        #   in Loop: Header=BB12_7 Depth=1
	movq	-88(%rbp), %rcx
	movw	%ax, (%rcx)
	cmpl	$0, -68(%rbp)
	je	.LBB12_83
# %bb.82:                               # %cond.true318
                                        #   in Loop: Header=BB12_7 Depth=1
	movl	-16(%rbp), %eax
	movl	-12(%rbp), %ecx
	addl	-44(%rbp), %ecx
	shll	$1, %ecx
	addl	%ecx, %eax
	addl	-36(%rbp), %eax
	addl	$4, %eax
	sarl	$3, %eax
	jmp	.LBB12_84
.LBB12_83:                              # %cond.false325
                                        #   in Loop: Header=BB12_7 Depth=1
	movl	-12(%rbp), %eax
	shll	$1, %eax
	addl	-20(%rbp), %eax
	addl	-16(%rbp), %eax
	addl	$2, %eax
	sarl	$2, %eax
.LBB12_84:                              # %cond.end331
                                        #   in Loop: Header=BB12_7 Depth=1
	movq	-96(%rbp), %rcx
	movw	%ax, (%rcx)
	cmpl	$0, -64(%rbp)
	je	.LBB12_86
# %bb.85:                               # %cond.true336
                                        #   in Loop: Header=BB12_7 Depth=1
	movl	-32(%rbp), %eax
	addl	-24(%rbp), %eax
	addl	-16(%rbp), %eax
	addl	-20(%rbp), %eax
	addl	$2, %eax
	sarl	$2, %eax
	jmp	.LBB12_87
.LBB12_86:                              # %cond.false342
                                        #   in Loop: Header=BB12_7 Depth=1
	movl	-16(%rbp), %eax
.LBB12_87:                              # %cond.end343
                                        #   in Loop: Header=BB12_7 Depth=1
	movq	-88(%rbp), %rcx
	movslq	-76(%rbp), %rdx
	movw	%ax, (%rcx,%rdx,2)
	cmpl	$0, -68(%rbp)
	je	.LBB12_89
# %bb.88:                               # %cond.true349
                                        #   in Loop: Header=BB12_7 Depth=1
	movl	-36(%rbp), %eax
	addl	-12(%rbp), %eax
	addl	-20(%rbp), %eax
	addl	-24(%rbp), %eax
	addl	$2, %eax
	sarl	$2, %eax
	jmp	.LBB12_90
.LBB12_89:                              # %cond.false355
                                        #   in Loop: Header=BB12_7 Depth=1
	movl	-12(%rbp), %eax
.LBB12_90:                              # %cond.end356
                                        #   in Loop: Header=BB12_7 Depth=1
	xorl	%ecx, %ecx
	movq	-96(%rbp), %rdx
	subl	-80(%rbp), %ecx
	movslq	%ecx, %rcx
	movw	%ax, (%rdx,%rcx,2)
	cmpl	$0, -64(%rbp)
	je	.LBB12_92
# %bb.91:                               # %cond.true363
                                        #   in Loop: Header=BB12_7 Depth=1
	movl	-192(%rbp), %eax
	addl	-32(%rbp), %eax
	shll	$1, %eax
	addl	-32(%rbp), %eax
	addl	-16(%rbp), %eax
	addl	-44(%rbp), %eax
	addl	$4, %eax
	sarl	$3, %eax
	jmp	.LBB12_93
.LBB12_92:                              # %cond.false371
                                        #   in Loop: Header=BB12_7 Depth=1
	movl	-32(%rbp), %eax
.LBB12_93:                              # %cond.end372
                                        #   in Loop: Header=BB12_7 Depth=1
	movq	-88(%rbp), %rcx
	movl	-76(%rbp), %edx
	shll	$1, %edx
	movslq	%edx, %rdx
	movw	%ax, (%rcx,%rdx,2)
	cmpl	$0, -68(%rbp)
	je	.LBB12_95
# %bb.94:                               # %cond.true379
                                        #   in Loop: Header=BB12_7 Depth=1
	movl	-184(%rbp), %eax
	addl	-36(%rbp), %eax
	shll	$1, %eax
	addl	-36(%rbp), %eax
	addl	-12(%rbp), %eax
	addl	-44(%rbp), %eax
	addl	$4, %eax
	sarl	$3, %eax
	jmp	.LBB12_96
.LBB12_95:                              # %cond.false387
                                        #   in Loop: Header=BB12_7 Depth=1
	movl	-36(%rbp), %eax
.LBB12_96:                              # %cond.end388
                                        #   in Loop: Header=BB12_7 Depth=1
	xorl	%ecx, %ecx
	movq	-96(%rbp), %rdx
	subl	-80(%rbp), %ecx
	shll	$1, %ecx
	movslq	%ecx, %rcx
	movw	%ax, (%rdx,%rcx,2)
.LBB12_97:                              # %if.end395
                                        #   in Loop: Header=BB12_7 Depth=1
	jmp	.LBB12_153
.LBB12_98:                              # %if.else396
                                        #   in Loop: Header=BB12_7 Depth=1
	cmpl	$0, 40(%rbp)
	je	.LBB12_100
# %bb.99:                               # %cond.true398
                                        #   in Loop: Header=BB12_7 Depth=1
	movl	-40(%rbp), %eax
	addl	$1, %eax
	jmp	.LBB12_101
.LBB12_100:                             # %cond.false400
                                        #   in Loop: Header=BB12_7 Depth=1
	movl	-40(%rbp), %eax
	addl	-68(%rbp), %eax
	addl	-64(%rbp), %eax
.LBB12_101:                             # %cond.end403
                                        #   in Loop: Header=BB12_7 Depth=1
	xorl	%ecx, %ecx
	movl	%eax, -104(%rbp)
	movl	-144(%rbp), %eax
	shll	$2, %eax
	movl	-12(%rbp), %edx
	subl	-16(%rbp), %edx
	addl	%edx, %eax
	addl	$4, %eax
	sarl	$3, %eax
	subl	-104(%rbp), %ecx
	cmpl	%ecx, %eax
	jge	.LBB12_103
# %bb.102:                              # %cond.true413
                                        #   in Loop: Header=BB12_7 Depth=1
	xorl	%eax, %eax
	subl	-104(%rbp), %eax
	jmp	.LBB12_107
.LBB12_103:                             # %cond.false415
                                        #   in Loop: Header=BB12_7 Depth=1
	movl	-144(%rbp), %eax
	shll	$2, %eax
	movl	-12(%rbp), %ecx
	subl	-16(%rbp), %ecx
	addl	%ecx, %eax
	addl	$4, %eax
	sarl	$3, %eax
	cmpl	-104(%rbp), %eax
	jle	.LBB12_105
# %bb.104:                              # %cond.true423
                                        #   in Loop: Header=BB12_7 Depth=1
	movl	-104(%rbp), %eax
	jmp	.LBB12_106
.LBB12_105:                             # %cond.false424
                                        #   in Loop: Header=BB12_7 Depth=1
	movl	-144(%rbp), %eax
	shll	$2, %eax
	movl	-12(%rbp), %ecx
	subl	-16(%rbp), %ecx
	addl	%ecx, %eax
	addl	$4, %eax
	sarl	$3, %eax
.LBB12_106:                             # %cond.end430
                                        #   in Loop: Header=BB12_7 Depth=1
.LBB12_107:                             # %cond.end432
                                        #   in Loop: Header=BB12_7 Depth=1
	movl	%eax, -28(%rbp)
	cmpl	$0, 40(%rbp)
	jne	.LBB12_121
# %bb.108:                              # %if.then435
                                        #   in Loop: Header=BB12_7 Depth=1
	movl	-20(%rbp), %eax
	addl	-28(%rbp), %eax
	cmpl	$0, %eax
	jge	.LBB12_110
# %bb.109:                              # %cond.true439
                                        #   in Loop: Header=BB12_7 Depth=1
	xorl	%eax, %eax
	jmp	.LBB12_114
.LBB12_110:                             # %cond.false440
                                        #   in Loop: Header=BB12_7 Depth=1
	movl	-20(%rbp), %eax
	addl	-28(%rbp), %eax
	movq	-56(%rbp), %rcx
	cmpl	72684(%rcx), %eax
	jle	.LBB12_112
# %bb.111:                              # %cond.true444
                                        #   in Loop: Header=BB12_7 Depth=1
	movq	-56(%rbp), %rax
	movl	72684(%rax), %eax
	jmp	.LBB12_113
.LBB12_112:                             # %cond.false446
                                        #   in Loop: Header=BB12_7 Depth=1
	movl	-20(%rbp), %eax
	addl	-28(%rbp), %eax
.LBB12_113:                             # %cond.end448
                                        #   in Loop: Header=BB12_7 Depth=1
.LBB12_114:                             # %cond.end450
                                        #   in Loop: Header=BB12_7 Depth=1
	movq	-96(%rbp), %rcx
	movw	%ax, (%rcx)
	movl	-24(%rbp), %eax
	subl	-28(%rbp), %eax
	cmpl	$0, %eax
	jge	.LBB12_116
# %bb.115:                              # %cond.true457
                                        #   in Loop: Header=BB12_7 Depth=1
	xorl	%eax, %eax
	jmp	.LBB12_120
.LBB12_116:                             # %cond.false458
                                        #   in Loop: Header=BB12_7 Depth=1
	movl	-24(%rbp), %eax
	subl	-28(%rbp), %eax
	movq	-56(%rbp), %rcx
	cmpl	72684(%rcx), %eax
	jle	.LBB12_118
# %bb.117:                              # %cond.true463
                                        #   in Loop: Header=BB12_7 Depth=1
	movq	-56(%rbp), %rax
	movl	72684(%rax), %eax
	jmp	.LBB12_119
.LBB12_118:                             # %cond.false465
                                        #   in Loop: Header=BB12_7 Depth=1
	movl	-24(%rbp), %eax
	subl	-28(%rbp), %eax
.LBB12_119:                             # %cond.end467
                                        #   in Loop: Header=BB12_7 Depth=1
.LBB12_120:                             # %cond.end469
                                        #   in Loop: Header=BB12_7 Depth=1
	movq	-88(%rbp), %rcx
	movw	%ax, (%rcx)
	jmp	.LBB12_134
.LBB12_121:                             # %if.else473
                                        #   in Loop: Header=BB12_7 Depth=1
	movl	-20(%rbp), %eax
	addl	-28(%rbp), %eax
	cmpl	$0, %eax
	jge	.LBB12_123
# %bb.122:                              # %cond.true477
                                        #   in Loop: Header=BB12_7 Depth=1
	xorl	%eax, %eax
	jmp	.LBB12_127
.LBB12_123:                             # %cond.false478
                                        #   in Loop: Header=BB12_7 Depth=1
	movl	-20(%rbp), %eax
	addl	-28(%rbp), %eax
	movq	-56(%rbp), %rcx
	cmpl	72688(%rcx), %eax
	jle	.LBB12_125
# %bb.124:                              # %cond.true482
                                        #   in Loop: Header=BB12_7 Depth=1
	movq	-56(%rbp), %rax
	movl	72688(%rax), %eax
	jmp	.LBB12_126
.LBB12_125:                             # %cond.false484
                                        #   in Loop: Header=BB12_7 Depth=1
	movl	-20(%rbp), %eax
	addl	-28(%rbp), %eax
.LBB12_126:                             # %cond.end486
                                        #   in Loop: Header=BB12_7 Depth=1
.LBB12_127:                             # %cond.end488
                                        #   in Loop: Header=BB12_7 Depth=1
	movq	-96(%rbp), %rcx
	movw	%ax, (%rcx)
	movl	-24(%rbp), %eax
	subl	-28(%rbp), %eax
	cmpl	$0, %eax
	jge	.LBB12_129
# %bb.128:                              # %cond.true495
                                        #   in Loop: Header=BB12_7 Depth=1
	xorl	%eax, %eax
	jmp	.LBB12_133
.LBB12_129:                             # %cond.false496
                                        #   in Loop: Header=BB12_7 Depth=1
	movl	-24(%rbp), %eax
	subl	-28(%rbp), %eax
	movq	-56(%rbp), %rcx
	cmpl	72688(%rcx), %eax
	jle	.LBB12_131
# %bb.130:                              # %cond.true501
                                        #   in Loop: Header=BB12_7 Depth=1
	movq	-56(%rbp), %rax
	movl	72688(%rax), %eax
	jmp	.LBB12_132
.LBB12_131:                             # %cond.false503
                                        #   in Loop: Header=BB12_7 Depth=1
	movl	-24(%rbp), %eax
	subl	-28(%rbp), %eax
.LBB12_132:                             # %cond.end505
                                        #   in Loop: Header=BB12_7 Depth=1
.LBB12_133:                             # %cond.end507
                                        #   in Loop: Header=BB12_7 Depth=1
	movq	-88(%rbp), %rcx
	movw	%ax, (%rcx)
.LBB12_134:                             # %if.end511
                                        #   in Loop: Header=BB12_7 Depth=1
	cmpl	$0, 40(%rbp)
	jne	.LBB12_152
# %bb.135:                              # %if.then513
                                        #   in Loop: Header=BB12_7 Depth=1
	cmpl	$0, -68(%rbp)
	je	.LBB12_143
# %bb.136:                              # %if.then515
                                        #   in Loop: Header=BB12_7 Depth=1
	xorl	%eax, %eax
	movl	-36(%rbp), %ecx
	movl	-44(%rbp), %edx
	addl	$1, %edx
	sarl	$1, %edx
	addl	%edx, %ecx
	movl	-12(%rbp), %edx
	shll	$1, %edx
	subl	%edx, %ecx
	sarl	$1, %ecx
	subl	-40(%rbp), %eax
	cmpl	%eax, %ecx
	jge	.LBB12_138
# %bb.137:                              # %cond.true525
                                        #   in Loop: Header=BB12_7 Depth=1
	xorl	%eax, %eax
	subl	-40(%rbp), %eax
	jmp	.LBB12_142
.LBB12_138:                             # %cond.false527
                                        #   in Loop: Header=BB12_7 Depth=1
	movl	-36(%rbp), %eax
	movl	-44(%rbp), %ecx
	addl	$1, %ecx
	sarl	$1, %ecx
	addl	%ecx, %eax
	movl	-12(%rbp), %ecx
	shll	$1, %ecx
	subl	%ecx, %eax
	sarl	$1, %eax
	cmpl	-40(%rbp), %eax
	jle	.LBB12_140
# %bb.139:                              # %cond.true536
                                        #   in Loop: Header=BB12_7 Depth=1
	movl	-40(%rbp), %eax
	jmp	.LBB12_141
.LBB12_140:                             # %cond.false537
                                        #   in Loop: Header=BB12_7 Depth=1
	movl	-36(%rbp), %eax
	movl	-44(%rbp), %ecx
	addl	$1, %ecx
	sarl	$1, %ecx
	addl	%ecx, %eax
	movl	-12(%rbp), %ecx
	shll	$1, %ecx
	subl	%ecx, %eax
	sarl	$1, %eax
.LBB12_141:                             # %cond.end544
                                        #   in Loop: Header=BB12_7 Depth=1
.LBB12_142:                             # %cond.end546
                                        #   in Loop: Header=BB12_7 Depth=1
	xorl	%ecx, %ecx
	movq	-96(%rbp), %rdx
	subl	-80(%rbp), %ecx
	movslq	%ecx, %rcx
	movzwl	(%rdx,%rcx,2), %esi
	addl	%eax, %esi
	movw	%si, (%rdx,%rcx,2)
.LBB12_143:                             # %if.end554
                                        #   in Loop: Header=BB12_7 Depth=1
	cmpl	$0, -64(%rbp)
	je	.LBB12_151
# %bb.144:                              # %if.then556
                                        #   in Loop: Header=BB12_7 Depth=1
	xorl	%eax, %eax
	movl	-32(%rbp), %ecx
	movl	-44(%rbp), %edx
	addl	$1, %edx
	sarl	$1, %edx
	addl	%edx, %ecx
	movl	-16(%rbp), %edx
	shll	$1, %edx
	subl	%edx, %ecx
	sarl	$1, %ecx
	subl	-40(%rbp), %eax
	cmpl	%eax, %ecx
	jge	.LBB12_146
# %bb.145:                              # %cond.true566
                                        #   in Loop: Header=BB12_7 Depth=1
	xorl	%eax, %eax
	subl	-40(%rbp), %eax
	jmp	.LBB12_150
.LBB12_146:                             # %cond.false568
                                        #   in Loop: Header=BB12_7 Depth=1
	movl	-32(%rbp), %eax
	movl	-44(%rbp), %ecx
	addl	$1, %ecx
	sarl	$1, %ecx
	addl	%ecx, %eax
	movl	-16(%rbp), %ecx
	shll	$1, %ecx
	subl	%ecx, %eax
	sarl	$1, %eax
	cmpl	-40(%rbp), %eax
	jle	.LBB12_148
# %bb.147:                              # %cond.true577
                                        #   in Loop: Header=BB12_7 Depth=1
	movl	-40(%rbp), %eax
	jmp	.LBB12_149
.LBB12_148:                             # %cond.false578
                                        #   in Loop: Header=BB12_7 Depth=1
	movl	-32(%rbp), %eax
	movl	-44(%rbp), %ecx
	addl	$1, %ecx
	sarl	$1, %ecx
	addl	%ecx, %eax
	movl	-16(%rbp), %ecx
	shll	$1, %ecx
	subl	%ecx, %eax
	sarl	$1, %eax
.LBB12_149:                             # %cond.end585
                                        #   in Loop: Header=BB12_7 Depth=1
.LBB12_150:                             # %cond.end587
                                        #   in Loop: Header=BB12_7 Depth=1
	movq	-88(%rbp), %rcx
	movslq	-76(%rbp), %rdx
	movzwl	(%rcx,%rdx,2), %esi
	addl	%eax, %esi
	movw	%si, (%rcx,%rdx,2)
.LBB12_151:                             # %if.end594
                                        #   in Loop: Header=BB12_7 Depth=1
	jmp	.LBB12_152
.LBB12_152:                             # %if.end595
                                        #   in Loop: Header=BB12_7 Depth=1
	jmp	.LBB12_153
.LBB12_153:                             # %if.end596
                                        #   in Loop: Header=BB12_7 Depth=1
	jmp	.LBB12_154
.LBB12_154:                             # %if.end597
                                        #   in Loop: Header=BB12_7 Depth=1
	jmp	.LBB12_155
.LBB12_155:                             # %if.end598
                                        #   in Loop: Header=BB12_7 Depth=1
	jmp	.LBB12_156
.LBB12_156:                             # %if.end599
                                        #   in Loop: Header=BB12_7 Depth=1
	jmp	.LBB12_157
.LBB12_157:                             # %if.end600
                                        #   in Loop: Header=BB12_7 Depth=1
	jmp	.LBB12_158
.LBB12_158:                             # %for.inc
                                        #   in Loop: Header=BB12_7 Depth=1
	movl	-60(%rbp), %eax
	addl	$1, %eax
	movl	%eax, -60(%rbp)
	jmp	.LBB12_7
.LBB12_159:                             # %for.end
	cmpl	$472683470, -196(%rbp)  # imm = 0x1C2C93CE
	jne	.LBB12_161
.LBB12_160:
	addq	$312, %rsp              # imm = 0x138
	popq	%rbx
	popq	%rbp
	.cfi_def_cfa %rsp, 8
	retq
.LBB12_161:                             # %func_exit
	.cfi_def_cfa %rbp, 16
	callq	detect_breach
	jmp	.LBB12_160
.Lfunc_end12:
	.size	EdgeLoop.9, .Lfunc_end12-EdgeLoop.9
	.cfi_endproc
                                        # -- End function
	.globl	DeblockFrame.10         # -- Begin function DeblockFrame.10
	.p2align	4, 0x90
	.type	DeblockFrame.10,@function
DeblockFrame.10:                        # @DeblockFrame.10
	.cfi_startproc
# %bb.0:                                # %entry
	pushq	%rbp
	.cfi_def_cfa_offset 16
	.cfi_offset %rbp, -16
	movq	%rsp, %rbp
	.cfi_def_cfa_register %rbp
	subq	$32, %rsp
	movl	$1796967161, -8(%rbp)   # imm = 0x6B1B8AF9
	movq	%rdi, -16(%rbp)
	movq	%rsi, -32(%rbp)
	movq	%rdx, -24(%rbp)
	movl	$0, -4(%rbp)
.LBB13_1:                               # %for.cond
                                        # =>This Inner Loop Header: Depth=1
	movl	-4(%rbp), %eax
	movq	-16(%rbp), %rcx
	cmpl	72484(%rcx), %eax
	jae	.LBB13_4
# %bb.2:                                # %for.body
                                        #   in Loop: Header=BB13_1 Depth=1
	movq	-16(%rbp), %rdi
	movq	-32(%rbp), %rsi
	movq	-24(%rbp), %rdx
	movl	-4(%rbp), %ecx
	callq	DeblockMb
# %bb.3:                                # %for.inc
                                        #   in Loop: Header=BB13_1 Depth=1
	movl	-4(%rbp), %eax
	addl	$1, %eax
	movl	%eax, -4(%rbp)
	jmp	.LBB13_1
.LBB13_4:                               # %for.end
	cmpl	$1796967161, -8(%rbp)   # imm = 0x6B1B8AF9
	jne	.LBB13_6
.LBB13_5:
	addq	$32, %rsp
	popq	%rbp
	.cfi_def_cfa %rsp, 8
	retq
.LBB13_6:                               # %func_exit
	.cfi_def_cfa %rbp, 16
	callq	detect_breach
	jmp	.LBB13_5
.Lfunc_end13:
	.size	DeblockFrame.10, .Lfunc_end13-DeblockFrame.10
	.cfi_endproc
                                        # -- End function
	.globl	EdgeLoop.11             # -- Begin function EdgeLoop.11
	.p2align	4, 0x90
	.type	EdgeLoop.11,@function
EdgeLoop.11:                            # @EdgeLoop.11
	.cfi_startproc
# %bb.0:                                # %entry
	pushq	%rbp
	.cfi_def_cfa_offset 16
	.cfi_offset %rbp, -16
	movq	%rsp, %rbp
	.cfi_def_cfa_register %rbp
	pushq	%rbx
	subq	$312, %rsp              # imm = 0x138
	.cfi_offset %rbx, -24
	movl	48(%rbp), %eax
	movl	40(%rbp), %eax
	movl	32(%rbp), %eax
	movl	24(%rbp), %eax
	movl	16(%rbp), %eax
	movl	$319259014, -180(%rbp)  # imm = 0x13078186
	movq	%rdi, -216(%rbp)
	movq	%rsi, -248(%rbp)
	movq	%rdx, -56(%rbp)
	movl	%ecx, -136(%rbp)
	movl	%r8d, -148(%rbp)
	movl	%r9d, -144(%rbp)
	movl	$0, -68(%rbp)
	movl	$0, -64(%rbp)
	movl	$0, -36(%rbp)
	movl	$0, -32(%rbp)
	movl	$0, -132(%rbp)
	movl	$0, -100(%rbp)
	movq	$0, -208(%rbp)
	movq	.L__const.EdgeLoop.pelnum_cr, %rax
	movq	%rax, -288(%rbp)
	movq	.L__const.EdgeLoop.pelnum_cr+8, %rax
	movq	%rax, -280(%rbp)
	movq	.L__const.EdgeLoop.pelnum_cr+16, %rax
	movq	%rax, -272(%rbp)
	movq	.L__const.EdgeLoop.pelnum_cr+24, %rax
	movq	%rax, -264(%rbp)
	cmpl	$0, 40(%rbp)
	jne	.LBB14_2
# %bb.1:                                # %if.then
	movq	-56(%rbp), %rax
	movl	72660(%rax), %ecx
	subl	$8, %ecx
                                        # kill: def $cl killed $ecx
	movl	$1, %eax
	shll	%cl, %eax
	movl	%eax, -108(%rbp)
	jmp	.LBB14_3
.LBB14_2:                               # %if.else
	movq	-56(%rbp), %rax
	movl	72664(%rax), %ecx
	subl	$8, %ecx
                                        # kill: def $cl killed $ecx
	movl	$1, %eax
	shll	%cl, %eax
	movl	%eax, -108(%rbp)
.LBB14_3:                               # %if.end
	cmpl	$0, 40(%rbp)
	je	.LBB14_5
# %bb.4:                                # %cond.true
	movslq	16(%rbp), %rax
	shlq	$4, %rax
	leaq	-288(%rbp), %rcx
	addq	%rax, %rcx
	movq	-56(%rbp), %rax
	movslq	72700(%rax), %rax
	movl	(%rcx,%rax,4), %eax
	jmp	.LBB14_6
.LBB14_5:                               # %cond.false
	movl	$16, %eax
	jmp	.LBB14_6
.LBB14_6:                               # %cond.end
	movl	%eax, -168(%rbp)
	movl	$0, -60(%rbp)
.LBB14_7:                               # %for.cond
                                        # =>This Inner Loop Header: Depth=1
	movl	-60(%rbp), %eax
	cmpl	-168(%rbp), %eax
	jge	.LBB14_159
# %bb.8:                                # %for.body
                                        #   in Loop: Header=BB14_7 Depth=1
	cmpl	$0, 16(%rbp)
	je	.LBB14_10
# %bb.9:                                # %cond.true7
                                        #   in Loop: Header=BB14_7 Depth=1
	movl	-60(%rbp), %eax
	jmp	.LBB14_11
.LBB14_10:                              # %cond.false8
                                        #   in Loop: Header=BB14_7 Depth=1
	movl	24(%rbp), %eax
	shll	$2, %eax
.LBB14_11:                              # %cond.end10
                                        #   in Loop: Header=BB14_7 Depth=1
	movl	%eax, -156(%rbp)
	cmpl	$0, 16(%rbp)
	je	.LBB14_16
# %bb.12:                               # %cond.true13
                                        #   in Loop: Header=BB14_7 Depth=1
	cmpl	$4, 24(%rbp)
	jge	.LBB14_14
# %bb.13:                               # %cond.true15
                                        #   in Loop: Header=BB14_7 Depth=1
	movl	24(%rbp), %eax
	shll	$2, %eax
	jmp	.LBB14_15
.LBB14_14:                              # %cond.false17
                                        #   in Loop: Header=BB14_7 Depth=1
	movl	$1, %eax
	jmp	.LBB14_15
.LBB14_15:                              # %cond.end18
                                        #   in Loop: Header=BB14_7 Depth=1
	jmp	.LBB14_17
.LBB14_16:                              # %cond.false20
                                        #   in Loop: Header=BB14_7 Depth=1
	movl	-60(%rbp), %eax
.LBB14_17:                              # %cond.end21
                                        #   in Loop: Header=BB14_7 Depth=1
	movl	%eax, -164(%rbp)
	movl	-136(%rbp), %edi
	movl	-156(%rbp), %esi
	movl	-164(%rbp), %edx
	movl	$1, %ecx
	subl	40(%rbp), %ecx
	leaq	-312(%rbp), %r8
	callq	getNeighbour
	movl	-136(%rbp), %edi
	movl	-156(%rbp), %esi
	movl	$1, %ecx
	movl	$1, %eax
	subl	16(%rbp), %eax
	subl	%eax, %esi
	movl	-164(%rbp), %edx
	subl	16(%rbp), %edx
	subl	40(%rbp), %ecx
	leaq	-240(%rbp), %r8
	callq	getNeighbour
	movl	-232(%rbp), %eax
	movl	%eax, -252(%rbp)
	movl	-228(%rbp), %eax
	movl	%eax, -256(%rbp)
	movq	-56(%rbp), %rax
	movq	14168(%rax), %rax
	movslq	-136(%rbp), %rcx
	imulq	$632, %rcx, %rcx        # imm = 0x278
	addq	%rcx, %rax
	movq	%rax, -120(%rbp)
	movq	-56(%rbp), %rax
	movq	14168(%rax), %rax
	movslq	-236(%rbp), %rcx
	imulq	$632, %rcx, %rcx        # imm = 0x278
	addq	%rcx, %rax
	movq	%rax, -128(%rbp)
	movq	-120(%rbp), %rax
	cmpl	$0, 532(%rax)
	movb	$1, %al
	jne	.LBB14_19
# %bb.18:                               # %lor.rhs
                                        #   in Loop: Header=BB14_7 Depth=1
	movq	-128(%rbp), %rax
	cmpl	$0, 532(%rax)
	setne	%al
.LBB14_19:                              # %lor.end
                                        #   in Loop: Header=BB14_7 Depth=1
	andb	$1, %al
	movzbl	%al, %eax
	movb	%al, fieldModeFilteringFlag
	cmpl	$0, 40(%rbp)
	je	.LBB14_26
# %bb.20:                               # %land.lhs.true
                                        #   in Loop: Header=BB14_7 Depth=1
	cmpl	$8, -168(%rbp)
	jne	.LBB14_26
# %bb.21:                               # %cond.true39
                                        #   in Loop: Header=BB14_7 Depth=1
	movq	-120(%rbp), %rax
	cmpl	$0, 532(%rax)
	je	.LBB14_24
# %bb.22:                               # %land.lhs.true42
                                        #   in Loop: Header=BB14_7 Depth=1
	movq	-128(%rbp), %rax
	cmpl	$0, 532(%rax)
	jne	.LBB14_24
# %bb.23:                               # %cond.true45
                                        #   in Loop: Header=BB14_7 Depth=1
	movl	-60(%rbp), %ecx
	shll	$1, %ecx
	jmp	.LBB14_25
.LBB14_24:                              # %cond.false47
                                        #   in Loop: Header=BB14_7 Depth=1
	movl	-60(%rbp), %ecx
	sarl	$1, %ecx
	shll	$2, %ecx
	movl	-60(%rbp), %eax
	cltd
	movl	$2, %esi
	idivl	%esi
	addl	%edx, %ecx
.LBB14_25:                              # %cond.end49
                                        #   in Loop: Header=BB14_7 Depth=1
	jmp	.LBB14_27
.LBB14_26:                              # %cond.false51
                                        #   in Loop: Header=BB14_7 Depth=1
	movl	-60(%rbp), %ecx
.LBB14_27:                              # %cond.end52
                                        #   in Loop: Header=BB14_7 Depth=1
	movl	%ecx, -184(%rbp)
	cmpl	$0, -240(%rbp)
	jne	.LBB14_29
# %bb.28:                               # %lor.lhs.false
                                        #   in Loop: Header=BB14_7 Depth=1
	movq	-120(%rbp), %rax
	cmpl	$0, 612(%rax)
	jne	.LBB14_157
.LBB14_29:                              # %if.then57
                                        #   in Loop: Header=BB14_7 Depth=1
	cmpl	$0, 16(%rbp)
	je	.LBB14_35
# %bb.30:                               # %cond.true59
                                        #   in Loop: Header=BB14_7 Depth=1
	movzbl	fieldModeFilteringFlag, %eax
	cmpl	$0, %eax
	je	.LBB14_33
# %bb.31:                               # %land.lhs.true62
                                        #   in Loop: Header=BB14_7 Depth=1
	movq	-120(%rbp), %rax
	cmpl	$0, 532(%rax)
	jne	.LBB14_33
# %bb.32:                               # %cond.true65
                                        #   in Loop: Header=BB14_7 Depth=1
	movl	32(%rbp), %eax
	shll	$1, %eax
	jmp	.LBB14_34
.LBB14_33:                              # %cond.false66
                                        #   in Loop: Header=BB14_7 Depth=1
	movl	32(%rbp), %eax
.LBB14_34:                              # %cond.end67
                                        #   in Loop: Header=BB14_7 Depth=1
	jmp	.LBB14_36
.LBB14_35:                              # %cond.false69
                                        #   in Loop: Header=BB14_7 Depth=1
	movl	$1, %eax
	jmp	.LBB14_36
.LBB14_36:                              # %cond.end70
                                        #   in Loop: Header=BB14_7 Depth=1
	movl	%eax, -72(%rbp)
	cmpl	$0, 16(%rbp)
	je	.LBB14_42
# %bb.37:                               # %cond.true73
                                        #   in Loop: Header=BB14_7 Depth=1
	movzbl	fieldModeFilteringFlag, %eax
	cmpl	$0, %eax
	je	.LBB14_40
# %bb.38:                               # %land.lhs.true76
                                        #   in Loop: Header=BB14_7 Depth=1
	movq	-128(%rbp), %rax
	cmpl	$0, 532(%rax)
	jne	.LBB14_40
# %bb.39:                               # %cond.true79
                                        #   in Loop: Header=BB14_7 Depth=1
	movl	32(%rbp), %eax
	shll	$1, %eax
	jmp	.LBB14_41
.LBB14_40:                              # %cond.false81
                                        #   in Loop: Header=BB14_7 Depth=1
	movl	32(%rbp), %eax
.LBB14_41:                              # %cond.end82
                                        #   in Loop: Header=BB14_7 Depth=1
	jmp	.LBB14_43
.LBB14_42:                              # %cond.false84
                                        #   in Loop: Header=BB14_7 Depth=1
	movl	$1, %eax
	jmp	.LBB14_43
.LBB14_43:                              # %cond.end85
                                        #   in Loop: Header=BB14_7 Depth=1
	movl	%eax, -76(%rbp)
	movq	-216(%rbp), %rax
	movslq	-292(%rbp), %rcx
	movq	(%rax,%rcx,8), %rax
	movslq	-296(%rbp), %rcx
	shlq	$1, %rcx
	addq	%rcx, %rax
	movq	%rax, -88(%rbp)
	movq	-216(%rbp), %rax
	movslq	-220(%rbp), %rcx
	movq	(%rax,%rcx,8), %rax
	movslq	-224(%rbp), %rcx
	shlq	$1, %rcx
	addq	%rcx, %rax
	movq	%rax, -96(%rbp)
	cmpl	$0, 40(%rbp)
	je	.LBB14_57
# %bb.44:                               # %cond.true98
                                        #   in Loop: Header=BB14_7 Depth=1
	movq	-128(%rbp), %rax
	movl	12(%rax), %eax
	movq	-56(%rbp), %rcx
	movslq	48(%rbp), %rdx
	addl	72716(%rcx,%rdx,4), %eax
	cmpl	$0, %eax
	jge	.LBB14_46
# %bb.45:                               # %cond.true104
                                        #   in Loop: Header=BB14_7 Depth=1
	xorl	%eax, %eax
	jmp	.LBB14_50
.LBB14_46:                              # %cond.false105
                                        #   in Loop: Header=BB14_7 Depth=1
	movq	-128(%rbp), %rax
	movl	12(%rax), %eax
	movq	-56(%rbp), %rcx
	movslq	48(%rbp), %rdx
	addl	72716(%rcx,%rdx,4), %eax
	cmpl	$51, %eax
	jle	.LBB14_48
# %bb.47:                               # %cond.true113
                                        #   in Loop: Header=BB14_7 Depth=1
	movl	$51, %eax
	jmp	.LBB14_49
.LBB14_48:                              # %cond.false114
                                        #   in Loop: Header=BB14_7 Depth=1
	movq	-128(%rbp), %rax
	movl	12(%rax), %eax
	movq	-56(%rbp), %rcx
	movslq	48(%rbp), %rdx
	addl	72716(%rcx,%rdx,4), %eax
.LBB14_49:                              # %cond.end120
                                        #   in Loop: Header=BB14_7 Depth=1
.LBB14_50:                              # %cond.end122
                                        #   in Loop: Header=BB14_7 Depth=1
	cltq
	movzbl	QP_SCALE_CR(,%rax), %eax
	movq	-120(%rbp), %rcx
	movl	12(%rcx), %ecx
	movq	-56(%rbp), %rdx
	movslq	48(%rbp), %rsi
	addl	72716(%rdx,%rsi,4), %ecx
	cmpl	$0, %ecx
	jge	.LBB14_52
# %bb.51:                               # %cond.true134
                                        #   in Loop: Header=BB14_7 Depth=1
	xorl	%ecx, %ecx
	jmp	.LBB14_56
.LBB14_52:                              # %cond.false135
                                        #   in Loop: Header=BB14_7 Depth=1
	movq	-120(%rbp), %rcx
	movl	12(%rcx), %ecx
	movq	-56(%rbp), %rdx
	movslq	48(%rbp), %rsi
	addl	72716(%rdx,%rsi,4), %ecx
	cmpl	$51, %ecx
	jle	.LBB14_54
# %bb.53:                               # %cond.true143
                                        #   in Loop: Header=BB14_7 Depth=1
	movl	$51, %ecx
	jmp	.LBB14_55
.LBB14_54:                              # %cond.false144
                                        #   in Loop: Header=BB14_7 Depth=1
	movq	-120(%rbp), %rcx
	movl	12(%rcx), %ecx
	movq	-56(%rbp), %rdx
	movslq	48(%rbp), %rsi
	addl	72716(%rdx,%rsi,4), %ecx
.LBB14_55:                              # %cond.end150
                                        #   in Loop: Header=BB14_7 Depth=1
.LBB14_56:                              # %cond.end152
                                        #   in Loop: Header=BB14_7 Depth=1
	movslq	%ecx, %rcx
	movzbl	QP_SCALE_CR(,%rcx), %ecx
	addl	%ecx, %eax
	addl	$1, %eax
	sarl	$1, %eax
	jmp	.LBB14_58
.LBB14_57:                              # %cond.false160
                                        #   in Loop: Header=BB14_7 Depth=1
	movq	-128(%rbp), %rax
	movl	12(%rax), %eax
	movq	-120(%rbp), %rcx
	addl	12(%rcx), %eax
	addl	$1, %eax
	sarl	$1, %eax
.LBB14_58:                              # %cond.end166
                                        #   in Loop: Header=BB14_7 Depth=1
	movl	%eax, -80(%rbp)
	movl	-80(%rbp), %eax
	addl	-148(%rbp), %eax
	cmpl	$0, %eax
	jge	.LBB14_60
# %bb.59:                               # %cond.true171
                                        #   in Loop: Header=BB14_7 Depth=1
	xorl	%eax, %eax
	jmp	.LBB14_64
.LBB14_60:                              # %cond.false172
                                        #   in Loop: Header=BB14_7 Depth=1
	movl	-80(%rbp), %eax
	addl	-148(%rbp), %eax
	cmpl	$51, %eax
	jle	.LBB14_62
# %bb.61:                               # %cond.true176
                                        #   in Loop: Header=BB14_7 Depth=1
	movl	$51, %eax
	jmp	.LBB14_63
.LBB14_62:                              # %cond.false177
                                        #   in Loop: Header=BB14_7 Depth=1
	movl	-80(%rbp), %eax
	addl	-148(%rbp), %eax
.LBB14_63:                              # %cond.end179
                                        #   in Loop: Header=BB14_7 Depth=1
.LBB14_64:                              # %cond.end181
                                        #   in Loop: Header=BB14_7 Depth=1
	movl	%eax, -152(%rbp)
	movl	-80(%rbp), %eax
	addl	-144(%rbp), %eax
	cmpl	$0, %eax
	jge	.LBB14_66
# %bb.65:                               # %cond.true186
                                        #   in Loop: Header=BB14_7 Depth=1
	xorl	%ecx, %ecx
	jmp	.LBB14_70
.LBB14_66:                              # %cond.false187
                                        #   in Loop: Header=BB14_7 Depth=1
	movl	-80(%rbp), %eax
	addl	-144(%rbp), %eax
	cmpl	$51, %eax
	jle	.LBB14_68
# %bb.67:                               # %cond.true191
                                        #   in Loop: Header=BB14_7 Depth=1
	movl	$51, %ecx
	jmp	.LBB14_69
.LBB14_68:                              # %cond.false192
                                        #   in Loop: Header=BB14_7 Depth=1
	movl	-80(%rbp), %ecx
	addl	-144(%rbp), %ecx
.LBB14_69:                              # %cond.end194
                                        #   in Loop: Header=BB14_7 Depth=1
.LBB14_70:                              # %cond.end196
                                        #   in Loop: Header=BB14_7 Depth=1
	xorl	%eax, %eax
	movl	%ecx, -188(%rbp)
	movslq	-152(%rbp), %rcx
	movzbl	ALPHA_TABLE(,%rcx), %ecx
	imull	-108(%rbp), %ecx
	movl	%ecx, -132(%rbp)
	movslq	-188(%rbp), %rcx
	movzbl	BETA_TABLE(,%rcx), %ecx
	imull	-108(%rbp), %ecx
	movl	%ecx, -100(%rbp)
	movslq	-152(%rbp), %rcx
	imulq	$5, %rcx, %rcx
	movabsq	$CLIP_TAB, %rdx
	addq	%rcx, %rdx
	movq	%rdx, -208(%rbp)
	movq	-96(%rbp), %rcx
	movzwl	(%rcx), %ecx
	movl	%ecx, -24(%rbp)
	movq	-88(%rbp), %rcx
	movzwl	(%rcx), %ecx
	movl	%ecx, -20(%rbp)
	movq	-96(%rbp), %rcx
	xorl	%edx, %edx
	subl	-76(%rbp), %edx
	movslq	%edx, %rdx
	movzwl	(%rcx,%rdx,2), %ecx
	movl	%ecx, -16(%rbp)
	movq	-88(%rbp), %rcx
	movslq	-72(%rbp), %rdx
	movzwl	(%rcx,%rdx,2), %ecx
	movl	%ecx, -12(%rbp)
	movq	-96(%rbp), %rcx
	xorl	%edx, %edx
	subl	-76(%rbp), %edx
	shll	$1, %edx
	movslq	%edx, %rdx
	movzwl	(%rcx,%rdx,2), %ecx
	movl	%ecx, -36(%rbp)
	movq	-88(%rbp), %rcx
	movl	-72(%rbp), %edx
	shll	$1, %edx
	movslq	%edx, %rdx
	movzwl	(%rcx,%rdx,2), %ecx
	movl	%ecx, -32(%rbp)
	movq	-96(%rbp), %rcx
	subl	-76(%rbp), %eax
	imull	$3, %eax, %eax
	cltq
	movzwl	(%rcx,%rax,2), %eax
	movl	%eax, -192(%rbp)
	movq	-88(%rbp), %rax
	imull	$3, -72(%rbp), %ecx
	movslq	%ecx, %rcx
	movzwl	(%rax,%rcx,2), %eax
	movl	%eax, -196(%rbp)
	movq	-248(%rbp), %rax
	movslq	-184(%rbp), %rcx
	movzbl	(%rax,%rcx), %eax
	movl	%eax, -176(%rbp)
	cmpl	$0, %eax
	je	.LBB14_156
# %bb.71:                               # %if.then241
                                        #   in Loop: Header=BB14_7 Depth=1
	movl	-20(%rbp), %edi
	subl	-24(%rbp), %edi
	movl	%edi, -140(%rbp)
	callq	abs
	movl	%eax, -172(%rbp)
	movl	-172(%rbp), %eax
	cmpl	-132(%rbp), %eax
	jge	.LBB14_155
# %bb.72:                               # %if.then245
                                        #   in Loop: Header=BB14_7 Depth=1
	movq	-208(%rbp), %rax
	movslq	-176(%rbp), %rcx
	movzbl	(%rax,%rcx), %eax
	imull	-108(%rbp), %eax
	movl	%eax, -44(%rbp)
	movl	-20(%rbp), %edi
	subl	-12(%rbp), %edi
	callq	abs
	movl	%eax, %ebx
	subl	-100(%rbp), %ebx
	movl	-24(%rbp), %edi
	subl	-16(%rbp), %edi
	callq	abs
	subl	-100(%rbp), %eax
	andl	%eax, %ebx
	cmpl	$0, %ebx
	jge	.LBB14_154
# %bb.73:                               # %if.then258
                                        #   in Loop: Header=BB14_7 Depth=1
	cmpl	$0, 40(%rbp)
	jne	.LBB14_75
# %bb.74:                               # %if.then260
                                        #   in Loop: Header=BB14_7 Depth=1
	movl	-20(%rbp), %edi
	subl	-32(%rbp), %edi
	callq	abs
	subl	-100(%rbp), %eax
	cmpl	$0, %eax
	setl	%al
	andb	$1, %al
	movzbl	%al, %eax
	movl	%eax, -64(%rbp)
	movl	-24(%rbp), %edi
	subl	-36(%rbp), %edi
	callq	abs
	subl	-100(%rbp), %eax
	cmpl	$0, %eax
	setl	%al
	andb	$1, %al
	movzbl	%al, %eax
	movl	%eax, -68(%rbp)
.LBB14_75:                              # %if.end271
                                        #   in Loop: Header=BB14_7 Depth=1
	movl	-24(%rbp), %eax
	addl	-20(%rbp), %eax
	movl	%eax, -40(%rbp)
	cmpl	$4, -176(%rbp)
	jne	.LBB14_98
# %bb.76:                               # %if.then275
                                        #   in Loop: Header=BB14_7 Depth=1
	cmpl	$0, 40(%rbp)
	je	.LBB14_78
# %bb.77:                               # %if.then277
                                        #   in Loop: Header=BB14_7 Depth=1
	movl	-12(%rbp), %eax
	shll	$1, %eax
	addl	-20(%rbp), %eax
	addl	-16(%rbp), %eax
	addl	$2, %eax
	sarl	$2, %eax
	movq	-88(%rbp), %rcx
	movw	%ax, (%rcx)
	movl	-16(%rbp), %eax
	shll	$1, %eax
	addl	-24(%rbp), %eax
	addl	-12(%rbp), %eax
	addl	$2, %eax
	sarl	$2, %eax
	movq	-96(%rbp), %rcx
	movw	%ax, (%rcx)
	jmp	.LBB14_97
.LBB14_78:                              # %if.else292
                                        #   in Loop: Header=BB14_7 Depth=1
	movl	-172(%rbp), %eax
	movl	-132(%rbp), %ecx
	sarl	$2, %ecx
	addl	$2, %ecx
	cmpl	%ecx, %eax
	setl	%al
	andb	$1, %al
	movzbl	%al, %eax
	movl	%eax, -160(%rbp)
	movl	-160(%rbp), %eax
	andl	-64(%rbp), %eax
	movl	%eax, -64(%rbp)
	movl	-160(%rbp), %eax
	andl	-68(%rbp), %eax
	movl	%eax, -68(%rbp)
	cmpl	$0, -64(%rbp)
	je	.LBB14_80
# %bb.79:                               # %cond.true300
                                        #   in Loop: Header=BB14_7 Depth=1
	movl	-16(%rbp), %eax
	movl	-12(%rbp), %ecx
	addl	-40(%rbp), %ecx
	shll	$1, %ecx
	addl	%ecx, %eax
	addl	-32(%rbp), %eax
	addl	$4, %eax
	sarl	$3, %eax
	jmp	.LBB14_81
.LBB14_80:                              # %cond.false307
                                        #   in Loop: Header=BB14_7 Depth=1
	movl	-12(%rbp), %eax
	shll	$1, %eax
	addl	-20(%rbp), %eax
	addl	-16(%rbp), %eax
	addl	$2, %eax
	sarl	$2, %eax
.LBB14_81:                              # %cond.end313
                                        #   in Loop: Header=BB14_7 Depth=1
	movq	-88(%rbp), %rcx
	movw	%ax, (%rcx)
	cmpl	$0, -68(%rbp)
	je	.LBB14_83
# %bb.82:                               # %cond.true318
                                        #   in Loop: Header=BB14_7 Depth=1
	movl	-12(%rbp), %eax
	movl	-16(%rbp), %ecx
	addl	-40(%rbp), %ecx
	shll	$1, %ecx
	addl	%ecx, %eax
	addl	-36(%rbp), %eax
	addl	$4, %eax
	sarl	$3, %eax
	jmp	.LBB14_84
.LBB14_83:                              # %cond.false325
                                        #   in Loop: Header=BB14_7 Depth=1
	movl	-16(%rbp), %eax
	shll	$1, %eax
	addl	-24(%rbp), %eax
	addl	-12(%rbp), %eax
	addl	$2, %eax
	sarl	$2, %eax
.LBB14_84:                              # %cond.end331
                                        #   in Loop: Header=BB14_7 Depth=1
	movq	-96(%rbp), %rcx
	movw	%ax, (%rcx)
	cmpl	$0, -64(%rbp)
	je	.LBB14_86
# %bb.85:                               # %cond.true336
                                        #   in Loop: Header=BB14_7 Depth=1
	movl	-32(%rbp), %eax
	addl	-20(%rbp), %eax
	addl	-12(%rbp), %eax
	addl	-24(%rbp), %eax
	addl	$2, %eax
	sarl	$2, %eax
	jmp	.LBB14_87
.LBB14_86:                              # %cond.false342
                                        #   in Loop: Header=BB14_7 Depth=1
	movl	-12(%rbp), %eax
.LBB14_87:                              # %cond.end343
                                        #   in Loop: Header=BB14_7 Depth=1
	movq	-88(%rbp), %rcx
	movslq	-72(%rbp), %rdx
	movw	%ax, (%rcx,%rdx,2)
	cmpl	$0, -68(%rbp)
	je	.LBB14_89
# %bb.88:                               # %cond.true349
                                        #   in Loop: Header=BB14_7 Depth=1
	movl	-36(%rbp), %eax
	addl	-16(%rbp), %eax
	addl	-24(%rbp), %eax
	addl	-20(%rbp), %eax
	addl	$2, %eax
	sarl	$2, %eax
	jmp	.LBB14_90
.LBB14_89:                              # %cond.false355
                                        #   in Loop: Header=BB14_7 Depth=1
	movl	-16(%rbp), %eax
.LBB14_90:                              # %cond.end356
                                        #   in Loop: Header=BB14_7 Depth=1
	xorl	%ecx, %ecx
	movq	-96(%rbp), %rdx
	subl	-76(%rbp), %ecx
	movslq	%ecx, %rcx
	movw	%ax, (%rdx,%rcx,2)
	cmpl	$0, -64(%rbp)
	je	.LBB14_92
# %bb.91:                               # %cond.true363
                                        #   in Loop: Header=BB14_7 Depth=1
	movl	-196(%rbp), %eax
	addl	-32(%rbp), %eax
	shll	$1, %eax
	addl	-32(%rbp), %eax
	addl	-12(%rbp), %eax
	addl	-40(%rbp), %eax
	addl	$4, %eax
	sarl	$3, %eax
	jmp	.LBB14_93
.LBB14_92:                              # %cond.false371
                                        #   in Loop: Header=BB14_7 Depth=1
	movl	-32(%rbp), %eax
.LBB14_93:                              # %cond.end372
                                        #   in Loop: Header=BB14_7 Depth=1
	movq	-88(%rbp), %rcx
	movl	-72(%rbp), %edx
	shll	$1, %edx
	movslq	%edx, %rdx
	movw	%ax, (%rcx,%rdx,2)
	cmpl	$0, -68(%rbp)
	je	.LBB14_95
# %bb.94:                               # %cond.true379
                                        #   in Loop: Header=BB14_7 Depth=1
	movl	-192(%rbp), %eax
	addl	-36(%rbp), %eax
	shll	$1, %eax
	addl	-36(%rbp), %eax
	addl	-16(%rbp), %eax
	addl	-40(%rbp), %eax
	addl	$4, %eax
	sarl	$3, %eax
	jmp	.LBB14_96
.LBB14_95:                              # %cond.false387
                                        #   in Loop: Header=BB14_7 Depth=1
	movl	-36(%rbp), %eax
.LBB14_96:                              # %cond.end388
                                        #   in Loop: Header=BB14_7 Depth=1
	xorl	%ecx, %ecx
	movq	-96(%rbp), %rdx
	subl	-76(%rbp), %ecx
	shll	$1, %ecx
	movslq	%ecx, %rcx
	movw	%ax, (%rdx,%rcx,2)
.LBB14_97:                              # %if.end395
                                        #   in Loop: Header=BB14_7 Depth=1
	jmp	.LBB14_153
.LBB14_98:                              # %if.else396
                                        #   in Loop: Header=BB14_7 Depth=1
	cmpl	$0, 40(%rbp)
	je	.LBB14_100
# %bb.99:                               # %cond.true398
                                        #   in Loop: Header=BB14_7 Depth=1
	movl	-44(%rbp), %eax
	addl	$1, %eax
	jmp	.LBB14_101
.LBB14_100:                             # %cond.false400
                                        #   in Loop: Header=BB14_7 Depth=1
	movl	-44(%rbp), %eax
	addl	-68(%rbp), %eax
	addl	-64(%rbp), %eax
.LBB14_101:                             # %cond.end403
                                        #   in Loop: Header=BB14_7 Depth=1
	xorl	%ecx, %ecx
	movl	%eax, -104(%rbp)
	movl	-140(%rbp), %eax
	shll	$2, %eax
	movl	-16(%rbp), %edx
	subl	-12(%rbp), %edx
	addl	%edx, %eax
	addl	$4, %eax
	sarl	$3, %eax
	subl	-104(%rbp), %ecx
	cmpl	%ecx, %eax
	jge	.LBB14_103
# %bb.102:                              # %cond.true413
                                        #   in Loop: Header=BB14_7 Depth=1
	xorl	%eax, %eax
	subl	-104(%rbp), %eax
	jmp	.LBB14_107
.LBB14_103:                             # %cond.false415
                                        #   in Loop: Header=BB14_7 Depth=1
	movl	-140(%rbp), %eax
	shll	$2, %eax
	movl	-16(%rbp), %ecx
	subl	-12(%rbp), %ecx
	addl	%ecx, %eax
	addl	$4, %eax
	sarl	$3, %eax
	cmpl	-104(%rbp), %eax
	jle	.LBB14_105
# %bb.104:                              # %cond.true423
                                        #   in Loop: Header=BB14_7 Depth=1
	movl	-104(%rbp), %eax
	jmp	.LBB14_106
.LBB14_105:                             # %cond.false424
                                        #   in Loop: Header=BB14_7 Depth=1
	movl	-140(%rbp), %eax
	shll	$2, %eax
	movl	-16(%rbp), %ecx
	subl	-12(%rbp), %ecx
	addl	%ecx, %eax
	addl	$4, %eax
	sarl	$3, %eax
.LBB14_106:                             # %cond.end430
                                        #   in Loop: Header=BB14_7 Depth=1
.LBB14_107:                             # %cond.end432
                                        #   in Loop: Header=BB14_7 Depth=1
	movl	%eax, -28(%rbp)
	cmpl	$0, 40(%rbp)
	jne	.LBB14_121
# %bb.108:                              # %if.then435
                                        #   in Loop: Header=BB14_7 Depth=1
	movl	-24(%rbp), %eax
	addl	-28(%rbp), %eax
	cmpl	$0, %eax
	jge	.LBB14_110
# %bb.109:                              # %cond.true439
                                        #   in Loop: Header=BB14_7 Depth=1
	xorl	%eax, %eax
	jmp	.LBB14_114
.LBB14_110:                             # %cond.false440
                                        #   in Loop: Header=BB14_7 Depth=1
	movl	-24(%rbp), %eax
	addl	-28(%rbp), %eax
	movq	-56(%rbp), %rcx
	cmpl	72684(%rcx), %eax
	jle	.LBB14_112
# %bb.111:                              # %cond.true444
                                        #   in Loop: Header=BB14_7 Depth=1
	movq	-56(%rbp), %rax
	movl	72684(%rax), %eax
	jmp	.LBB14_113
.LBB14_112:                             # %cond.false446
                                        #   in Loop: Header=BB14_7 Depth=1
	movl	-24(%rbp), %eax
	addl	-28(%rbp), %eax
.LBB14_113:                             # %cond.end448
                                        #   in Loop: Header=BB14_7 Depth=1
.LBB14_114:                             # %cond.end450
                                        #   in Loop: Header=BB14_7 Depth=1
	movq	-96(%rbp), %rcx
	movw	%ax, (%rcx)
	movl	-20(%rbp), %eax
	subl	-28(%rbp), %eax
	cmpl	$0, %eax
	jge	.LBB14_116
# %bb.115:                              # %cond.true457
                                        #   in Loop: Header=BB14_7 Depth=1
	xorl	%eax, %eax
	jmp	.LBB14_120
.LBB14_116:                             # %cond.false458
                                        #   in Loop: Header=BB14_7 Depth=1
	movl	-20(%rbp), %eax
	subl	-28(%rbp), %eax
	movq	-56(%rbp), %rcx
	cmpl	72684(%rcx), %eax
	jle	.LBB14_118
# %bb.117:                              # %cond.true463
                                        #   in Loop: Header=BB14_7 Depth=1
	movq	-56(%rbp), %rax
	movl	72684(%rax), %eax
	jmp	.LBB14_119
.LBB14_118:                             # %cond.false465
                                        #   in Loop: Header=BB14_7 Depth=1
	movl	-20(%rbp), %eax
	subl	-28(%rbp), %eax
.LBB14_119:                             # %cond.end467
                                        #   in Loop: Header=BB14_7 Depth=1
.LBB14_120:                             # %cond.end469
                                        #   in Loop: Header=BB14_7 Depth=1
	movq	-88(%rbp), %rcx
	movw	%ax, (%rcx)
	jmp	.LBB14_134
.LBB14_121:                             # %if.else473
                                        #   in Loop: Header=BB14_7 Depth=1
	movl	-24(%rbp), %eax
	addl	-28(%rbp), %eax
	cmpl	$0, %eax
	jge	.LBB14_123
# %bb.122:                              # %cond.true477
                                        #   in Loop: Header=BB14_7 Depth=1
	xorl	%eax, %eax
	jmp	.LBB14_127
.LBB14_123:                             # %cond.false478
                                        #   in Loop: Header=BB14_7 Depth=1
	movl	-24(%rbp), %eax
	addl	-28(%rbp), %eax
	movq	-56(%rbp), %rcx
	cmpl	72688(%rcx), %eax
	jle	.LBB14_125
# %bb.124:                              # %cond.true482
                                        #   in Loop: Header=BB14_7 Depth=1
	movq	-56(%rbp), %rax
	movl	72688(%rax), %eax
	jmp	.LBB14_126
.LBB14_125:                             # %cond.false484
                                        #   in Loop: Header=BB14_7 Depth=1
	movl	-24(%rbp), %eax
	addl	-28(%rbp), %eax
.LBB14_126:                             # %cond.end486
                                        #   in Loop: Header=BB14_7 Depth=1
.LBB14_127:                             # %cond.end488
                                        #   in Loop: Header=BB14_7 Depth=1
	movq	-96(%rbp), %rcx
	movw	%ax, (%rcx)
	movl	-20(%rbp), %eax
	subl	-28(%rbp), %eax
	cmpl	$0, %eax
	jge	.LBB14_129
# %bb.128:                              # %cond.true495
                                        #   in Loop: Header=BB14_7 Depth=1
	xorl	%eax, %eax
	jmp	.LBB14_133
.LBB14_129:                             # %cond.false496
                                        #   in Loop: Header=BB14_7 Depth=1
	movl	-20(%rbp), %eax
	subl	-28(%rbp), %eax
	movq	-56(%rbp), %rcx
	cmpl	72688(%rcx), %eax
	jle	.LBB14_131
# %bb.130:                              # %cond.true501
                                        #   in Loop: Header=BB14_7 Depth=1
	movq	-56(%rbp), %rax
	movl	72688(%rax), %eax
	jmp	.LBB14_132
.LBB14_131:                             # %cond.false503
                                        #   in Loop: Header=BB14_7 Depth=1
	movl	-20(%rbp), %eax
	subl	-28(%rbp), %eax
.LBB14_132:                             # %cond.end505
                                        #   in Loop: Header=BB14_7 Depth=1
.LBB14_133:                             # %cond.end507
                                        #   in Loop: Header=BB14_7 Depth=1
	movq	-88(%rbp), %rcx
	movw	%ax, (%rcx)
.LBB14_134:                             # %if.end511
                                        #   in Loop: Header=BB14_7 Depth=1
	cmpl	$0, 40(%rbp)
	jne	.LBB14_152
# %bb.135:                              # %if.then513
                                        #   in Loop: Header=BB14_7 Depth=1
	cmpl	$0, -68(%rbp)
	je	.LBB14_143
# %bb.136:                              # %if.then515
                                        #   in Loop: Header=BB14_7 Depth=1
	xorl	%eax, %eax
	movl	-36(%rbp), %ecx
	movl	-40(%rbp), %edx
	addl	$1, %edx
	sarl	$1, %edx
	addl	%edx, %ecx
	movl	-16(%rbp), %edx
	shll	$1, %edx
	subl	%edx, %ecx
	sarl	$1, %ecx
	subl	-44(%rbp), %eax
	cmpl	%eax, %ecx
	jge	.LBB14_138
# %bb.137:                              # %cond.true525
                                        #   in Loop: Header=BB14_7 Depth=1
	xorl	%eax, %eax
	subl	-44(%rbp), %eax
	jmp	.LBB14_142
.LBB14_138:                             # %cond.false527
                                        #   in Loop: Header=BB14_7 Depth=1
	movl	-36(%rbp), %eax
	movl	-40(%rbp), %ecx
	addl	$1, %ecx
	sarl	$1, %ecx
	addl	%ecx, %eax
	movl	-16(%rbp), %ecx
	shll	$1, %ecx
	subl	%ecx, %eax
	sarl	$1, %eax
	cmpl	-44(%rbp), %eax
	jle	.LBB14_140
# %bb.139:                              # %cond.true536
                                        #   in Loop: Header=BB14_7 Depth=1
	movl	-44(%rbp), %eax
	jmp	.LBB14_141
.LBB14_140:                             # %cond.false537
                                        #   in Loop: Header=BB14_7 Depth=1
	movl	-36(%rbp), %eax
	movl	-40(%rbp), %ecx
