	.text
	.file	"macroblock.c"
	.globl	set_MB_parameters       # -- Begin function set_MB_parameters
	.p2align	4, 0x90
	.type	set_MB_parameters,@function
set_MB_parameters:                      # @set_MB_parameters
	.cfi_startproc
# %bb.0:                                # %entry
	pushq	%rbp
	.cfi_def_cfa_offset 16
	.cfi_offset %rbp, -16
	movq	%rsp, %rbp
	.cfi_def_cfa_register %rbp
	subq	$16, %rsp
	movl	%edi, -4(%rbp)
	movl	-4(%rbp), %eax
	movq	img, %rcx
	movl	%eax, 12(%rcx)
	movl	-4(%rbp), %edi
	movq	img, %rsi
	addq	$136, %rsi
	movq	img, %rdx
	addq	$140, %rdx
	callq	get_mb_block_pos
	movq	img, %rax
	movl	136(%rax), %eax
	shll	$2, %eax
	movq	img, %rcx
	movl	%eax, 144(%rcx)
	movq	img, %rax
	movl	140(%rax), %eax
	shll	$2, %eax
	movq	img, %rcx
	movl	%eax, 148(%rcx)
	movq	img, %rax
	movl	144(%rax), %eax
	shll	$2, %eax
	movq	img, %rcx
	movl	%eax, 152(%rcx)
	movq	img, %rax
	movl	148(%rax), %eax
	shll	$2, %eax
	movq	img, %rcx
	movl	%eax, 156(%rcx)
	movq	img, %rax
	movl	152(%rax), %eax
	movq	img, %rcx
	movl	%eax, 168(%rcx)
	movq	img, %rax
	cmpl	$0, 72400(%rax)
	je	.LBB0_11
# %bb.1:                                # %if.then
	movq	img, %rax
	movq	14168(%rax), %rax
	movslq	-4(%rbp), %rcx
	imulq	$632, %rcx, %rcx        # imm = 0x278
	addq	%rcx, %rax
	cmpl	$0, 532(%rax)
	je	.LBB0_9
# %bb.2:                                # %if.then10
	movl	-4(%rbp), %eax
	cltd
	movl	$2, %ecx
	idivl	%ecx
	cmpl	$0, %edx
	je	.LBB0_4
# %bb.3:                                # %cond.true
	movq	imgY_org_bot, %rax
	jmp	.LBB0_5
.LBB0_4:                                # %cond.false
	movq	imgY_org_top, %rax
.LBB0_5:                                # %cond.end
	movq	%rax, imgY_org
	movl	-4(%rbp), %eax
	cltd
	movl	$2, %ecx
	idivl	%ecx
	cmpl	$0, %edx
	je	.LBB0_7
# %bb.6:                                # %cond.true14
	movq	imgUV_org_bot, %rax
	jmp	.LBB0_8
.LBB0_7:                                # %cond.false15
	movq	imgUV_org_top, %rax
.LBB0_8:                                # %cond.end16
	movq	%rax, imgUV_org
	movq	img, %rax
	movl	140(%rax), %eax
	sarl	$1, %eax
	shll	$4, %eax
	movq	img, %rcx
	movl	%eax, 172(%rcx)
	jmp	.LBB0_10
.LBB0_9:                                # %if.else
	movq	imgY_org_frm, %rax
	movq	%rax, imgY_org
	movq	imgUV_org_frm, %rax
	movq	%rax, imgUV_org
	movq	img, %rax
	movl	148(%rax), %eax
	shll	$2, %eax
	movq	img, %rcx
	movl	%eax, 172(%rcx)
.LBB0_10:                               # %if.end
	jmp	.LBB0_12
.LBB0_11:                               # %if.else23
	movq	img, %rax
	movl	148(%rax), %eax
	shll	$2, %eax
	movq	img, %rcx
	movl	%eax, 172(%rcx)
.LBB0_12:                               # %if.end27
	movq	img, %rax
	cmpl	$0, 72700(%rax)
	je	.LBB0_14
# %bb.13:                               # %if.then28
	movq	img, %rax
	movl	152(%rax), %ecx
	movq	img, %rsi
	movl	$16, %eax
	cltd
	idivl	72708(%rsi)
	movl	%eax, %esi
	movl	%ecx, %eax
	cltd
	idivl	%esi
	movq	img, %rcx
	movl	%eax, 160(%rcx)
	movq	img, %rax
	movl	156(%rax), %ecx
	movq	img, %rsi
	movl	$16, %eax
	cltd
	idivl	72712(%rsi)
	movl	%eax, %esi
	movl	%ecx, %eax
	cltd
	idivl	%esi
	movq	img, %rcx
	movl	%eax, 164(%rcx)
	movq	img, %rax
	movl	168(%rax), %ecx
	movq	img, %rsi
	movl	$16, %eax
	cltd
	idivl	72708(%rsi)
	movl	%eax, %esi
	movl	%ecx, %eax
	cltd
	idivl	%esi
	movq	img, %rcx
	movl	%eax, 176(%rcx)
	movq	img, %rax
	movl	172(%rax), %ecx
	movq	img, %rsi
	movl	$16, %eax
	cltd
	idivl	72712(%rsi)
	movl	%eax, %esi
	movl	%ecx, %eax
	cltd
	idivl	%esi
	movq	img, %rcx
	movl	%eax, 180(%rcx)
.LBB0_14:                               # %if.end42
	addq	$16, %rsp
	popq	%rbp
	.cfi_def_cfa %rsp, 8
	retq
.Lfunc_end0:
	.size	set_MB_parameters, .Lfunc_end0-set_MB_parameters
	.cfi_endproc
                                        # -- End function
	.globl	clip1a                  # -- Begin function clip1a
	.p2align	4, 0x90
	.type	clip1a,@function
clip1a:                                 # @clip1a
	.cfi_startproc
# %bb.0:                                # %entry
	pushq	%rbp
	.cfi_def_cfa_offset 16
	.cfi_offset %rbp, -16
	movq	%rsp, %rbp
	.cfi_def_cfa_register %rbp
	movl	%edi, -4(%rbp)
	movl	-4(%rbp), %eax
	movq	img, %rcx
	cmpl	72684(%rcx), %eax
	jle	.LBB1_2
# %bb.1:                                # %cond.true
	movq	img, %rax
	movl	72684(%rax), %eax
	jmp	.LBB1_6
.LBB1_2:                                # %cond.false
	cmpl	$0, -4(%rbp)
	jge	.LBB1_4
# %bb.3:                                # %cond.true3
	xorl	%eax, %eax
	jmp	.LBB1_5
.LBB1_4:                                # %cond.false4
	movl	-4(%rbp), %eax
.LBB1_5:                                # %cond.end
.LBB1_6:                                # %cond.end5
	popq	%rbp
	.cfi_def_cfa %rsp, 8
	retq
.Lfunc_end1:
	.size	clip1a, .Lfunc_end1-clip1a
	.cfi_endproc
                                        # -- End function
	.globl	clip1a_chr              # -- Begin function clip1a_chr
	.p2align	4, 0x90
	.type	clip1a_chr,@function
clip1a_chr:                             # @clip1a_chr
	.cfi_startproc
# %bb.0:                                # %entry
	pushq	%rbp
	.cfi_def_cfa_offset 16
	.cfi_offset %rbp, -16
	movq	%rsp, %rbp
	.cfi_def_cfa_register %rbp
	movl	%edi, -4(%rbp)
	movl	-4(%rbp), %eax
	movq	img, %rcx
	cmpl	72688(%rcx), %eax
	jle	.LBB2_2
# %bb.1:                                # %cond.true
	movq	img, %rax
	movl	72688(%rax), %eax
	jmp	.LBB2_6
.LBB2_2:                                # %cond.false
	cmpl	$0, -4(%rbp)
	jge	.LBB2_4
# %bb.3:                                # %cond.true3
	xorl	%eax, %eax
	jmp	.LBB2_5
.LBB2_4:                                # %cond.false4
	movl	-4(%rbp), %eax
.LBB2_5:                                # %cond.end
.LBB2_6:                                # %cond.end5
	popq	%rbp
	.cfi_def_cfa %rsp, 8
	retq
.Lfunc_end2:
	.size	clip1a_chr, .Lfunc_end2-clip1a_chr
	.cfi_endproc
                                        # -- End function
	.globl	proceed2nextMacroblock  # -- Begin function proceed2nextMacroblock
	.p2align	4, 0x90
	.type	proceed2nextMacroblock,@function
proceed2nextMacroblock:                 # @proceed2nextMacroblock
	.cfi_startproc
# %bb.0:                                # %rand_bb
	pushq	%rbp
	.cfi_def_cfa_offset 16
	.cfi_offset %rbp, -16
	movq	%rsp, %rbp
	.cfi_def_cfa_register %rbp
	callq	get_rand
	cmpl	$0, %eax
	jne	.LBB3_7
# %bb.1:                                # %func_proceed2nextMacroblock.33
	callq	proceed2nextMacroblock.33
	popq	%rbp
	.cfi_def_cfa %rsp, 8
	retq
.LBB3_2:                                # %func_proceed2nextMacroblock.36
	.cfi_def_cfa %rbp, 16
	callq	proceed2nextMacroblock.36
	popq	%rbp
	.cfi_def_cfa %rsp, 8
	retq
.LBB3_3:                                # %func_proceed2nextMacroblock.93
	.cfi_def_cfa %rbp, 16
	callq	proceed2nextMacroblock.93
	popq	%rbp
	.cfi_def_cfa %rsp, 8
	retq
.LBB3_4:                                # %func_proceed2nextMacroblock.101
	.cfi_def_cfa %rbp, 16
	callq	proceed2nextMacroblock.101
	popq	%rbp
	.cfi_def_cfa %rsp, 8
	retq
.LBB3_5:                                # %func_proceed2nextMacroblock.129
	.cfi_def_cfa %rbp, 16
	callq	proceed2nextMacroblock.129
	popq	%rbp
	.cfi_def_cfa %rsp, 8
	retq
.LBB3_6:                                # %func_proceed2nextMacroblock.225
	.cfi_def_cfa %rbp, 16
	callq	proceed2nextMacroblock.225
	popq	%rbp
	.cfi_def_cfa %rsp, 8
	retq
.LBB3_7:                                # %ctrl0
	.cfi_def_cfa %rbp, 16
	cmpl	$1, %eax
	je	.LBB3_2
# %bb.8:                                # %ctrl1
	cmpl	$2, %eax
	je	.LBB3_3
# %bb.9:                                # %ctrl2
	cmpl	$3, %eax
	je	.LBB3_4
# %bb.10:                               # %ctrl3
	cmpl	$4, %eax
	je	.LBB3_5
	jmp	.LBB3_6
.Lfunc_end3:
	.size	proceed2nextMacroblock, .Lfunc_end3-proceed2nextMacroblock
	.cfi_endproc
                                        # -- End function
	.globl	start_macroblock        # -- Begin function start_macroblock
	.p2align	4, 0x90
	.type	start_macroblock,@function
start_macroblock:                       # @start_macroblock
	.cfi_startproc
# %bb.0:                                # %rand_bb
	pushq	%rbp
	.cfi_def_cfa_offset 16
	.cfi_offset %rbp, -16
	movq	%rsp, %rbp
	.cfi_def_cfa_register %rbp
	pushq	%r14
	pushq	%rbx
	.cfi_offset %rbx, -32
	.cfi_offset %r14, -24
	movl	%esi, %r14d
	movl	%edi, %ebx
	callq	get_rand
	cmpl	$0, %eax
	jne	.LBB4_9
# %bb.1:                                # %func_start_macroblock.16
	movl	%ebx, %edi
	movl	%r14d, %esi
	callq	start_macroblock.16
	popq	%rbx
	popq	%r14
	popq	%rbp
	.cfi_def_cfa %rsp, 8
	retq
.LBB4_2:                                # %func_start_macroblock.29
	.cfi_def_cfa %rbp, 16
	movl	%ebx, %edi
	movl	%r14d, %esi
	callq	start_macroblock.29
	popq	%rbx
	popq	%r14
	popq	%rbp
	.cfi_def_cfa %rsp, 8
	retq
.LBB4_3:                                # %func_start_macroblock.78
	.cfi_def_cfa %rbp, 16
	movl	%ebx, %edi
	movl	%r14d, %esi
	callq	start_macroblock.78
	popq	%rbx
	popq	%r14
	popq	%rbp
	.cfi_def_cfa %rsp, 8
	retq
.LBB4_4:                                # %func_start_macroblock.119
	.cfi_def_cfa %rbp, 16
	movl	%ebx, %edi
	movl	%r14d, %esi
	callq	start_macroblock.119
	popq	%rbx
	popq	%r14
	popq	%rbp
	.cfi_def_cfa %rsp, 8
	retq
.LBB4_5:                                # %func_start_macroblock.169
	.cfi_def_cfa %rbp, 16
	movl	%ebx, %edi
	movl	%r14d, %esi
	callq	start_macroblock.169
	popq	%rbx
	popq	%r14
	popq	%rbp
	.cfi_def_cfa %rsp, 8
	retq
.LBB4_6:                                # %func_start_macroblock.182
	.cfi_def_cfa %rbp, 16
	movl	%ebx, %edi
	movl	%r14d, %esi
	callq	start_macroblock.182
	popq	%rbx
	popq	%r14
	popq	%rbp
	.cfi_def_cfa %rsp, 8
	retq
.LBB4_7:                                # %func_start_macroblock.192
	.cfi_def_cfa %rbp, 16
	movl	%ebx, %edi
	movl	%r14d, %esi
	callq	start_macroblock.192
	popq	%rbx
	popq	%r14
	popq	%rbp
	.cfi_def_cfa %rsp, 8
	retq
.LBB4_8:                                # %func_start_macroblock.200
	.cfi_def_cfa %rbp, 16
	movl	%ebx, %edi
	movl	%r14d, %esi
	callq	start_macroblock.200
	popq	%rbx
	popq	%r14
	popq	%rbp
	.cfi_def_cfa %rsp, 8
	retq
.LBB4_9:                                # %ctrl0
	.cfi_def_cfa %rbp, 16
	cmpl	$1, %eax
	je	.LBB4_2
# %bb.10:                               # %ctrl1
	cmpl	$2, %eax
	je	.LBB4_3
# %bb.11:                               # %ctrl2
	cmpl	$3, %eax
	je	.LBB4_4
# %bb.12:                               # %ctrl3
	cmpl	$4, %eax
	je	.LBB4_5
# %bb.13:                               # %ctrl4
	cmpl	$5, %eax
	je	.LBB4_6
# %bb.14:                               # %ctrl5
	cmpl	$6, %eax
	je	.LBB4_7
	jmp	.LBB4_8
.Lfunc_end4:
	.size	start_macroblock, .Lfunc_end4-start_macroblock
	.cfi_endproc
                                        # -- End function
	.globl	terminate_macroblock    # -- Begin function terminate_macroblock
	.p2align	4, 0x90
	.type	terminate_macroblock,@function
terminate_macroblock:                   # @terminate_macroblock
	.cfi_startproc
# %bb.0:                                # %rand_bb
	pushq	%rbp
	.cfi_def_cfa_offset 16
	.cfi_offset %rbp, -16
	movq	%rsp, %rbp
	.cfi_def_cfa_register %rbp
	pushq	%r14
	pushq	%rbx
	.cfi_offset %rbx, -32
	.cfi_offset %r14, -24
	movq	%rsi, %r14
	movq	%rdi, %rbx
	callq	get_rand
	cmpl	$0, %eax
	jne	.LBB5_9
# %bb.1:                                # %func_terminate_macroblock.42
	movq	%rbx, %rdi
	movq	%r14, %rsi
	callq	terminate_macroblock.42
	popq	%rbx
	popq	%r14
	popq	%rbp
	.cfi_def_cfa %rsp, 8
	retq
.LBB5_2:                                # %func_terminate_macroblock.103
	.cfi_def_cfa %rbp, 16
	movq	%rbx, %rdi
	movq	%r14, %rsi
	callq	terminate_macroblock.103
	popq	%rbx
	popq	%r14
	popq	%rbp
	.cfi_def_cfa %rsp, 8
	retq
.LBB5_3:                                # %func_terminate_macroblock.135
	.cfi_def_cfa %rbp, 16
	movq	%rbx, %rdi
	movq	%r14, %rsi
	callq	terminate_macroblock.135
	popq	%rbx
	popq	%r14
	popq	%rbp
	.cfi_def_cfa %rsp, 8
	retq
.LBB5_4:                                # %func_terminate_macroblock.144
	.cfi_def_cfa %rbp, 16
	movq	%rbx, %rdi
	movq	%r14, %rsi
	callq	terminate_macroblock.144
	popq	%rbx
	popq	%r14
	popq	%rbp
	.cfi_def_cfa %rsp, 8
	retq
.LBB5_5:                                # %func_terminate_macroblock.147
	.cfi_def_cfa %rbp, 16
	movq	%rbx, %rdi
	movq	%r14, %rsi
	callq	terminate_macroblock.147
	popq	%rbx
	popq	%r14
	popq	%rbp
	.cfi_def_cfa %rsp, 8
	retq
.LBB5_6:                                # %func_terminate_macroblock.195
	.cfi_def_cfa %rbp, 16
	movq	%rbx, %rdi
	movq	%r14, %rsi
	callq	terminate_macroblock.195
	popq	%rbx
	popq	%r14
	popq	%rbp
	.cfi_def_cfa %rsp, 8
	retq
.LBB5_7:                                # %func_terminate_macroblock.202
	.cfi_def_cfa %rbp, 16
	movq	%rbx, %rdi
	movq	%r14, %rsi
	callq	terminate_macroblock.202
	popq	%rbx
	popq	%r14
	popq	%rbp
	.cfi_def_cfa %rsp, 8
	retq
.LBB5_8:                                # %func_terminate_macroblock.207
	.cfi_def_cfa %rbp, 16
	movq	%rbx, %rdi
	movq	%r14, %rsi
	callq	terminate_macroblock.207
	popq	%rbx
	popq	%r14
	popq	%rbp
	.cfi_def_cfa %rsp, 8
	retq
.LBB5_9:                                # %ctrl0
	.cfi_def_cfa %rbp, 16
	cmpl	$1, %eax
	je	.LBB5_2
# %bb.10:                               # %ctrl1
	cmpl	$2, %eax
	je	.LBB5_3
# %bb.11:                               # %ctrl2
	cmpl	$3, %eax
	je	.LBB5_4
# %bb.12:                               # %ctrl3
	cmpl	$4, %eax
	je	.LBB5_5
# %bb.13:                               # %ctrl4
	cmpl	$5, %eax
	je	.LBB5_6
# %bb.14:                               # %ctrl5
	cmpl	$6, %eax
	je	.LBB5_7
	jmp	.LBB5_8
.Lfunc_end5:
	.size	terminate_macroblock, .Lfunc_end5-terminate_macroblock
	.cfi_endproc
                                        # -- End function
	.globl	slice_too_big           # -- Begin function slice_too_big
	.p2align	4, 0x90
	.type	slice_too_big,@function
slice_too_big:                          # @slice_too_big
	.cfi_startproc
# %bb.0:                                # %rand_bb
	pushq	%rbp
	.cfi_def_cfa_offset 16
	.cfi_offset %rbp, -16
	movq	%rsp, %rbp
	.cfi_def_cfa_register %rbp
	pushq	%rbx
	pushq	%rax
	.cfi_offset %rbx, -24
	movl	%edi, %ebx
	callq	get_rand
	cmpl	$0, %eax
	jne	.LBB6_9
# %bb.1:                                # %func_slice_too_big.9
	movl	%ebx, %edi
	callq	slice_too_big.9
	addq	$8, %rsp
	popq	%rbx
	popq	%rbp
	.cfi_def_cfa %rsp, 8
	retq
.LBB6_2:                                # %func_slice_too_big.25
	.cfi_def_cfa %rbp, 16
	movl	%ebx, %edi
	callq	slice_too_big.25
	addq	$8, %rsp
	popq	%rbx
	popq	%rbp
	.cfi_def_cfa %rsp, 8
	retq
.LBB6_3:                                # %func_slice_too_big.46
	.cfi_def_cfa %rbp, 16
	movl	%ebx, %edi
	callq	slice_too_big.46
	addq	$8, %rsp
	popq	%rbx
	popq	%rbp
	.cfi_def_cfa %rsp, 8
	retq
.LBB6_4:                                # %func_slice_too_big.54
	.cfi_def_cfa %rbp, 16
	movl	%ebx, %edi
	callq	slice_too_big.54
	addq	$8, %rsp
	popq	%rbx
	popq	%rbp
	.cfi_def_cfa %rsp, 8
	retq
.LBB6_5:                                # %func_slice_too_big.81
	.cfi_def_cfa %rbp, 16
	movl	%ebx, %edi
	callq	slice_too_big.81
	addq	$8, %rsp
	popq	%rbx
	popq	%rbp
	.cfi_def_cfa %rsp, 8
	retq
.LBB6_6:                                # %func_slice_too_big.87
	.cfi_def_cfa %rbp, 16
	movl	%ebx, %edi
	callq	slice_too_big.87
	addq	$8, %rsp
	popq	%rbx
	popq	%rbp
	.cfi_def_cfa %rsp, 8
	retq
.LBB6_7:                                # %func_slice_too_big.126
	.cfi_def_cfa %rbp, 16
	movl	%ebx, %edi
	callq	slice_too_big.126
	addq	$8, %rsp
	popq	%rbx
	popq	%rbp
	.cfi_def_cfa %rsp, 8
	retq
.LBB6_8:                                # %func_slice_too_big.194
	.cfi_def_cfa %rbp, 16
	movl	%ebx, %edi
	callq	slice_too_big.194
	addq	$8, %rsp
	popq	%rbx
	popq	%rbp
	.cfi_def_cfa %rsp, 8
	retq
.LBB6_9:                                # %ctrl0
	.cfi_def_cfa %rbp, 16
	cmpl	$1, %eax
	je	.LBB6_2
# %bb.10:                               # %ctrl1
	cmpl	$2, %eax
	je	.LBB6_3
# %bb.11:                               # %ctrl2
	cmpl	$3, %eax
	je	.LBB6_4
# %bb.12:                               # %ctrl3
	cmpl	$4, %eax
	je	.LBB6_5
# %bb.13:                               # %ctrl4
	cmpl	$5, %eax
	je	.LBB6_6
# %bb.14:                               # %ctrl5
	cmpl	$6, %eax
	je	.LBB6_7
	jmp	.LBB6_8
.Lfunc_end6:
	.size	slice_too_big, .Lfunc_end6-slice_too_big
	.cfi_endproc
                                        # -- End function
	.globl	OneComponentLumaPrediction4x4 # -- Begin function OneComponentLumaPrediction4x4
	.p2align	4, 0x90
	.type	OneComponentLumaPrediction4x4,@function
OneComponentLumaPrediction4x4:          # @OneComponentLumaPrediction4x4
	.cfi_startproc
# %bb.0:                                # %rand_bb
	pushq	%rbp
	.cfi_def_cfa_offset 16
	.cfi_offset %rbp, -16
	movq	%rsp, %rbp
	.cfi_def_cfa_register %rbp
	pushq	%r15
	pushq	%r14
	pushq	%r13
	pushq	%r12
	pushq	%rbx
	pushq	%rax
	.cfi_offset %rbx, -56
	.cfi_offset %r12, -48
	.cfi_offset %r13, -40
	.cfi_offset %r14, -32
	.cfi_offset %r15, -24
	movq	%r9, -48(%rbp)          # 8-byte Spill
	movl	%r8d, %r12d
	movq	%rcx, %r13
	movl	%edx, %ebx
	movl	%esi, %r14d
	movq	%rdi, %r15
	callq	get_rand
	cmpl	$0, %eax
	jne	.LBB7_9
# %bb.1:                                # %func_OneComponentLumaPrediction4x4.79
	movq	%r15, %rdi
	movl	%r14d, %esi
	movl	%ebx, %edx
	movq	%r13, %rcx
	movswl	%r12w, %r8d
	movq	-48(%rbp), %r9          # 8-byte Reload
	callq	OneComponentLumaPrediction4x4.79
	addq	$8, %rsp
	popq	%rbx
	popq	%r12
	popq	%r13
	popq	%r14
	popq	%r15
	popq	%rbp
	.cfi_def_cfa %rsp, 8
	retq
.LBB7_2:                                # %func_OneComponentLumaPrediction4x4.91
	.cfi_def_cfa %rbp, 16
	movq	%r15, %rdi
	movl	%r14d, %esi
	movl	%ebx, %edx
	movq	%r13, %rcx
	movswl	%r12w, %r8d
	callq	OneComponentLumaPrediction4x4.91
	addq	$8, %rsp
	popq	%rbx
	popq	%r12
	popq	%r13
	popq	%r14
	popq	%r15
	popq	%rbp
	.cfi_def_cfa %rsp, 8
	retq
.LBB7_3:                                # %func_OneComponentLumaPrediction4x4.92
	.cfi_def_cfa %rbp, 16
	movq	%r15, %rdi
	movl	%r14d, %esi
	movl	%ebx, %edx
	movq	%r13, %rcx
	movswl	%r12w, %r8d
	callq	OneComponentLumaPrediction4x4.92
	addq	$8, %rsp
	popq	%rbx
	popq	%r12
	popq	%r13
	popq	%r14
	popq	%r15
	popq	%rbp
	.cfi_def_cfa %rsp, 8
	retq
.LBB7_4:                                # %func_OneComponentLumaPrediction4x4.178
	.cfi_def_cfa %rbp, 16
	movq	%r15, %rdi
	movl	%r14d, %esi
	movl	%ebx, %edx
	movq	%r13, %rcx
	movswl	%r12w, %r8d
	callq	OneComponentLumaPrediction4x4.178
	addq	$8, %rsp
	popq	%rbx
	popq	%r12
	popq	%r13
	popq	%r14
	popq	%r15
	popq	%rbp
	.cfi_def_cfa %rsp, 8
	retq
.LBB7_5:                                # %func_OneComponentLumaPrediction4x4.190
	.cfi_def_cfa %rbp, 16
	movq	%r15, %rdi
	movl	%r14d, %esi
	movl	%ebx, %edx
	movq	%r13, %rcx
	movswl	%r12w, %r8d
	callq	OneComponentLumaPrediction4x4.190
	addq	$8, %rsp
	popq	%rbx
	popq	%r12
	popq	%r13
	popq	%r14
	popq	%r15
	popq	%rbp
	.cfi_def_cfa %rsp, 8
	retq
.LBB7_6:                                # %func_OneComponentLumaPrediction4x4.191
	.cfi_def_cfa %rbp, 16
	movq	%r15, %rdi
	movl	%r14d, %esi
	movl	%ebx, %edx
	movq	%r13, %rcx
	movswl	%r12w, %r8d
	callq	OneComponentLumaPrediction4x4.191
	addq	$8, %rsp
	popq	%rbx
	popq	%r12
	popq	%r13
	popq	%r14
	popq	%r15
	popq	%rbp
	.cfi_def_cfa %rsp, 8
	retq
.LBB7_7:                                # %func_OneComponentLumaPrediction4x4.199
	.cfi_def_cfa %rbp, 16
	movswl	%r12w, %r8d
	callq	OneComponentLumaPrediction4x4.199
	addq	$8, %rsp
	popq	%rbx
	popq	%r12
	popq	%r13
	popq	%r14
	popq	%r15
	popq	%rbp
	.cfi_def_cfa %rsp, 8
	retq
.LBB7_8:                                # %func_OneComponentLumaPrediction4x4.214
	.cfi_def_cfa %rbp, 16
	movswl	%r12w, %r8d
	callq	OneComponentLumaPrediction4x4.214
	addq	$8, %rsp
	popq	%rbx
	popq	%r12
	popq	%r13
	popq	%r14
	popq	%r15
	popq	%rbp
	.cfi_def_cfa %rsp, 8
	retq
.LBB7_9:                                # %ctrl0
	.cfi_def_cfa %rbp, 16
	movq	-48(%rbp), %r9          # 8-byte Reload
	cmpl	$1, %eax
	je	.LBB7_2
# %bb.10:                               # %ctrl1
	cmpl	$2, %eax
	je	.LBB7_3
# %bb.11:                               # %ctrl2
	cmpl	$3, %eax
	je	.LBB7_4
# %bb.12:                               # %ctrl3
	cmpl	$4, %eax
	je	.LBB7_5
# %bb.13:                               # %ctrl4
	cmpl	$5, %eax
	je	.LBB7_6
# %bb.14:                               # %ctrl5
	cmpl	$6, %eax
	movq	%r13, %rcx
	movl	%ebx, %edx
	movl	%r14d, %esi
	movq	%r15, %rdi
	je	.LBB7_7
	jmp	.LBB7_8
.Lfunc_end7:
	.size	OneComponentLumaPrediction4x4, .Lfunc_end7-OneComponentLumaPrediction4x4
	.cfi_endproc
                                        # -- End function
	.globl	copyblock4x4            # -- Begin function copyblock4x4
	.p2align	4, 0x90
	.type	copyblock4x4,@function
copyblock4x4:                           # @copyblock4x4
	.cfi_startproc
# %bb.0:                                # %rand_bb
	pushq	%rbp
	.cfi_def_cfa_offset 16
	.cfi_offset %rbp, -16
	movq	%rsp, %rbp
	.cfi_def_cfa_register %rbp
	pushq	%r14
	pushq	%rbx
	.cfi_offset %rbx, -32
	.cfi_offset %r14, -24
	movq	%rsi, %r14
	movq	%rdi, %rbx
	callq	get_rand
	cmpl	$0, %eax
	jne	.LBB8_2
# %bb.1:                                # %func_copyblock4x4.6
	movq	%rbx, %rdi
	movq	%r14, %rsi
	callq	copyblock4x4.6
	popq	%rbx
	popq	%r14
	popq	%rbp
	.cfi_def_cfa %rsp, 8
	retq
.LBB8_2:                                # %func_copyblock4x4.28
	.cfi_def_cfa %rbp, 16
	movq	%rbx, %rdi
	movq	%r14, %rsi
	callq	copyblock4x4.28
	popq	%rbx
	popq	%r14
	popq	%rbp
	.cfi_def_cfa %rsp, 8
	retq
.Lfunc_end8:
	.size	copyblock4x4, .Lfunc_end8-copyblock4x4
	.cfi_endproc
                                        # -- End function
	.globl	LumaPrediction4x4       # -- Begin function LumaPrediction4x4
	.p2align	4, 0x90
	.type	LumaPrediction4x4,@function
LumaPrediction4x4:                      # @LumaPrediction4x4
	.cfi_startproc
# %bb.0:                                # %rand_bb
	pushq	%rbp
	.cfi_def_cfa_offset 16
	.cfi_offset %rbp, -16
	movq	%rsp, %rbp
	.cfi_def_cfa_register %rbp
	pushq	%r15
	pushq	%r14
	pushq	%r13
	pushq	%r12
	pushq	%rbx
	subq	$24, %rsp
	.cfi_offset %rbx, -56
	.cfi_offset %r12, -48
	.cfi_offset %r13, -40
	.cfi_offset %r14, -32
	.cfi_offset %r15, -24
	movl	%r9d, -44(%rbp)         # 4-byte Spill
	movl	%r8d, %r13d
	movl	%ecx, %r15d
	movl	%edx, %ebx
	movl	%esi, %r14d
	movl	%edi, %r12d
	callq	get_rand
	cmpl	$0, %eax
	jne	.LBB9_9
# %bb.1:                                # %func_LumaPrediction4x4.65
	movl	%r12d, %edi
	movl	%r14d, %esi
	movl	%ebx, %edx
	movl	%r15d, %ecx
	movl	%r13d, %r8d
	movswl	-44(%rbp), %r9d         # 2-byte Folded Reload
	movswl	16(%rbp), %eax
	movl	%eax, (%rsp)
	callq	LumaPrediction4x4.65
	addq	$24, %rsp
	popq	%rbx
	popq	%r12
	popq	%r13
	popq	%r14
	popq	%r15
	popq	%rbp
	.cfi_def_cfa %rsp, 8
	retq
.LBB9_2:                                # %func_LumaPrediction4x4.96
	.cfi_def_cfa %rbp, 16
	movl	%r14d, %esi
	movl	%ebx, %edx
	movl	%r15d, %ecx
	movl	%r13d, %r8d
	movswl	%r12w, %r9d
	movswl	%r10w, %eax
	movl	%eax, (%rsp)
	callq	LumaPrediction4x4.96
	addq	$24, %rsp
	popq	%rbx
	popq	%r12
	popq	%r13
	popq	%r14
	popq	%r15
	popq	%rbp
	.cfi_def_cfa %rsp, 8
	retq
.LBB9_3:                                # %func_LumaPrediction4x4.109
	.cfi_def_cfa %rbp, 16
	movl	%r14d, %esi
	movl	%ebx, %edx
	movl	%r15d, %ecx
	movl	%r13d, %r8d
	movswl	%r12w, %r9d
	movswl	%r10w, %eax
	movl	%eax, (%rsp)
	callq	LumaPrediction4x4.109
	addq	$24, %rsp
	popq	%rbx
	popq	%r12
	popq	%r13
	popq	%r14
	popq	%r15
	popq	%rbp
	.cfi_def_cfa %rsp, 8
	retq
.LBB9_4:                                # %func_LumaPrediction4x4.158
	.cfi_def_cfa %rbp, 16
	movl	%r14d, %esi
	movl	%ebx, %edx
	movl	%r15d, %ecx
	movl	%r13d, %r8d
	movswl	%r12w, %r9d
	movswl	%r10w, %eax
	movl	%eax, (%rsp)
	callq	LumaPrediction4x4.158
	addq	$24, %rsp
	popq	%rbx
	popq	%r12
	popq	%r13
	popq	%r14
	popq	%r15
	popq	%rbp
	.cfi_def_cfa %rsp, 8
	retq
.LBB9_5:                                # %func_LumaPrediction4x4.171
	.cfi_def_cfa %rbp, 16
	movl	%r14d, %esi
	movl	%ebx, %edx
	movl	%r15d, %ecx
	movl	%r13d, %r8d
	movswl	%r12w, %r9d
	movswl	%r10w, %eax
	movl	%eax, (%rsp)
	callq	LumaPrediction4x4.171
	addq	$24, %rsp
	popq	%rbx
	popq	%r12
	popq	%r13
	popq	%r14
	popq	%r15
	popq	%rbp
	.cfi_def_cfa %rsp, 8
	retq
.LBB9_6:                                # %func_LumaPrediction4x4.248
	.cfi_def_cfa %rbp, 16
	movl	%r14d, %esi
	movl	%ebx, %edx
	movl	%r15d, %ecx
	movl	%r13d, %r8d
	movswl	%r12w, %r9d
	movswl	%r10w, %eax
	movl	%eax, (%rsp)
	callq	LumaPrediction4x4.248
	addq	$24, %rsp
	popq	%rbx
	popq	%r12
	popq	%r13
	popq	%r14
	popq	%r15
	popq	%rbp
	.cfi_def_cfa %rsp, 8
	retq
.LBB9_7:                                # %func_LumaPrediction4x4.254
	.cfi_def_cfa %rbp, 16
	movswl	%r12w, %r9d
	movswl	%r10w, %eax
	movl	%eax, (%rsp)
	callq	LumaPrediction4x4.254
	addq	$24, %rsp
	popq	%rbx
	popq	%r12
	popq	%r13
	popq	%r14
	popq	%r15
	popq	%rbp
	.cfi_def_cfa %rsp, 8
	retq
.LBB9_8:                                # %func_LumaPrediction4x4.288
	.cfi_def_cfa %rbp, 16
	movswl	%r12w, %r9d
	movswl	%r10w, %eax
	movl	%eax, (%rsp)
	callq	LumaPrediction4x4.288
	addq	$24, %rsp
	popq	%rbx
	popq	%r12
	popq	%r13
	popq	%r14
	popq	%r15
	popq	%rbp
	.cfi_def_cfa %rsp, 8
	retq
.LBB9_9:                                # %ctrl0
	.cfi_def_cfa %rbp, 16
	movl	%r12d, %edi
	movl	-44(%rbp), %r12d        # 4-byte Reload
	movw	16(%rbp), %r10w
	cmpl	$1, %eax
	je	.LBB9_2
# %bb.10:                               # %ctrl1
	cmpl	$2, %eax
	je	.LBB9_3
# %bb.11:                               # %ctrl2
	cmpl	$3, %eax
	je	.LBB9_4
# %bb.12:                               # %ctrl3
	cmpl	$4, %eax
	je	.LBB9_5
# %bb.13:                               # %ctrl4
	cmpl	$5, %eax
	je	.LBB9_6
# %bb.14:                               # %ctrl5
	cmpl	$6, %eax
	movl	%r13d, %r8d
	movl	%r15d, %ecx
	movl	%ebx, %edx
	movl	%r14d, %esi
	je	.LBB9_7
	jmp	.LBB9_8
.Lfunc_end9:
	.size	LumaPrediction4x4, .Lfunc_end9-LumaPrediction4x4
	.cfi_endproc
                                        # -- End function
	.globl	LumaPrediction4x4Bi     # -- Begin function LumaPrediction4x4Bi
	.p2align	4, 0x90
	.type	LumaPrediction4x4Bi,@function
LumaPrediction4x4Bi:                    # @LumaPrediction4x4Bi
	.cfi_startproc
# %bb.0:                                # %rand_bb
	pushq	%rbp
	.cfi_def_cfa_offset 16
	.cfi_offset %rbp, -16
	movq	%rsp, %rbp
	.cfi_def_cfa_register %rbp
	pushq	%r15
	pushq	%r14
	pushq	%r13
	pushq	%r12
	pushq	%rbx
	subq	$24, %rsp
	.cfi_offset %rbx, -56
	.cfi_offset %r12, -48
	.cfi_offset %r13, -40
	.cfi_offset %r14, -32
	.cfi_offset %r15, -24
	movl	%r9d, -44(%rbp)         # 4-byte Spill
	movl	%r8d, %r13d
	movl	%ecx, %r12d
	movl	%edx, %ebx
	movl	%esi, %r14d
	movl	%edi, %r15d
	callq	get_rand
	cmpl	$0, %eax
	jne	.LBB10_9
# %bb.1:                                # %func_LumaPrediction4x4Bi.18
	movl	%r15d, %edi
	movl	%r14d, %esi
	movl	%ebx, %edx
	movl	%r12d, %ecx
	movl	%r13d, %r8d
	movswl	-44(%rbp), %r9d         # 2-byte Folded Reload
	movswl	16(%rbp), %eax
	movl	%eax, (%rsp)
	movl	24(%rbp), %eax
	movl	%eax, 8(%rsp)
	callq	LumaPrediction4x4Bi.18
	addq	$24, %rsp
	popq	%rbx
	popq	%r12
	popq	%r13
	popq	%r14
	popq	%r15
	popq	%rbp
	.cfi_def_cfa %rsp, 8
	retq
.LBB10_2:                               # %func_LumaPrediction4x4Bi.51
	.cfi_def_cfa %rbp, 16
	movl	%r14d, %esi
	movl	%ebx, %edx
	movl	%r12d, %ecx
	movl	%r13d, %r8d
	movswl	%r15w, %r9d
	movswl	%r11w, %eax
	movl	%eax, (%rsp)
	movl	%r10d, 8(%rsp)
	callq	LumaPrediction4x4Bi.51
	addq	$24, %rsp
	popq	%rbx
	popq	%r12
	popq	%r13
	popq	%r14
	popq	%r15
	popq	%rbp
	.cfi_def_cfa %rsp, 8
	retq
.LBB10_3:                               # %func_LumaPrediction4x4Bi.71
	.cfi_def_cfa %rbp, 16
	movl	%r14d, %esi
	movl	%ebx, %edx
	movl	%r12d, %ecx
	movl	%r13d, %r8d
	movswl	%r15w, %r9d
	movswl	%r11w, %eax
	movl	%eax, (%rsp)
	movl	%r10d, 8(%rsp)
	callq	LumaPrediction4x4Bi.71
	addq	$24, %rsp
	popq	%rbx
	popq	%r12
	popq	%r13
	popq	%r14
	popq	%r15
	popq	%rbp
	.cfi_def_cfa %rsp, 8
	retq
.LBB10_4:                               # %func_LumaPrediction4x4Bi.86
	.cfi_def_cfa %rbp, 16
	movl	%r14d, %esi
	movl	%ebx, %edx
	movl	%r12d, %ecx
	movl	%r13d, %r8d
	movswl	%r15w, %r9d
	movswl	%r11w, %eax
	movl	%eax, (%rsp)
	movl	%r10d, 8(%rsp)
	callq	LumaPrediction4x4Bi.86
	addq	$24, %rsp
	popq	%rbx
	popq	%r12
	popq	%r13
	popq	%r14
	popq	%r15
	popq	%rbp
	.cfi_def_cfa %rsp, 8
	retq
.LBB10_5:                               # %func_LumaPrediction4x4Bi.128
	.cfi_def_cfa %rbp, 16
	movl	%r14d, %esi
	movl	%ebx, %edx
	movl	%r12d, %ecx
	movl	%r13d, %r8d
	movswl	%r15w, %r9d
	movswl	%r11w, %eax
	movl	%eax, (%rsp)
	movl	%r10d, 8(%rsp)
	callq	LumaPrediction4x4Bi.128
	addq	$24, %rsp
	popq	%rbx
	popq	%r12
	popq	%r13
	popq	%r14
	popq	%r15
	popq	%rbp
	.cfi_def_cfa %rsp, 8
	retq
.LBB10_6:                               # %func_LumaPrediction4x4Bi.140
	.cfi_def_cfa %rbp, 16
	movl	%r14d, %esi
	movl	%ebx, %edx
	movl	%r12d, %ecx
	movl	%r13d, %r8d
	movswl	%r15w, %r9d
	movswl	%r11w, %eax
	movl	%eax, (%rsp)
	movl	%r10d, 8(%rsp)
	callq	LumaPrediction4x4Bi.140
	addq	$24, %rsp
	popq	%rbx
	popq	%r12
	popq	%r13
	popq	%r14
	popq	%r15
	popq	%rbp
	.cfi_def_cfa %rsp, 8
	retq
.LBB10_7:                               # %func_LumaPrediction4x4Bi.151
	.cfi_def_cfa %rbp, 16
	movswl	%r15w, %r9d
	movswl	%r11w, %eax
	movl	%eax, (%rsp)
	movl	%r10d, 8(%rsp)
	callq	LumaPrediction4x4Bi.151
	addq	$24, %rsp
	popq	%rbx
	popq	%r12
	popq	%r13
	popq	%r14
	popq	%r15
	popq	%rbp
	.cfi_def_cfa %rsp, 8
	retq
.LBB10_8:                               # %func_LumaPrediction4x4Bi.188
	.cfi_def_cfa %rbp, 16
	movswl	%r15w, %r9d
	movswl	%r11w, %eax
	movl	%eax, (%rsp)
	movl	%r10d, 8(%rsp)
	callq	LumaPrediction4x4Bi.188
	addq	$24, %rsp
	popq	%rbx
	popq	%r12
	popq	%r13
	popq	%r14
	popq	%r15
	popq	%rbp
	.cfi_def_cfa %rsp, 8
	retq
.LBB10_9:                               # %ctrl0
	.cfi_def_cfa %rbp, 16
	movl	%r15d, %edi
	movl	-44(%rbp), %r15d        # 4-byte Reload
	movw	16(%rbp), %r11w
	movl	24(%rbp), %r10d
	cmpl	$1, %eax
	je	.LBB10_2
# %bb.10:                               # %ctrl1
	cmpl	$2, %eax
	je	.LBB10_3
# %bb.11:                               # %ctrl2
	cmpl	$3, %eax
	je	.LBB10_4
# %bb.12:                               # %ctrl3
	cmpl	$4, %eax
	je	.LBB10_5
# %bb.13:                               # %ctrl4
	cmpl	$5, %eax
	je	.LBB10_6
# %bb.14:                               # %ctrl5
	cmpl	$6, %eax
	movl	%r13d, %r8d
	movl	%r12d, %ecx
	movl	%ebx, %edx
	movl	%r14d, %esi
	je	.LBB10_7
	jmp	.LBB10_8
.Lfunc_end10:
	.size	LumaPrediction4x4Bi, .Lfunc_end10-LumaPrediction4x4Bi
	.cfi_endproc
                                        # -- End function
	.globl	LumaResidualCoding8x8   # -- Begin function LumaResidualCoding8x8
	.p2align	4, 0x90
	.type	LumaResidualCoding8x8,@function
LumaResidualCoding8x8:                  # @LumaResidualCoding8x8
	.cfi_startproc
# %bb.0:                                # %rand_bb
	pushq	%rbp
	.cfi_def_cfa_offset 16
	.cfi_offset %rbp, -16
	movq	%rsp, %rbp
	.cfi_def_cfa_register %rbp
	pushq	%r15
	pushq	%r14
	pushq	%r13
	pushq	%r12
	pushq	%rbx
	subq	$24, %rsp
	.cfi_offset %rbx, -56
	.cfi_offset %r12, -48
	.cfi_offset %r13, -40
	.cfi_offset %r14, -32
	.cfi_offset %r15, -24
	movl	%r9d, -44(%rbp)         # 4-byte Spill
	movl	%r8d, %r13d
	movl	%ecx, %r15d
	movl	%edx, %ebx
	movq	%rsi, %r14
	movq	%rdi, %r12
	callq	get_rand
	cmpl	$0, %eax
	jne	.LBB11_9
# %bb.1:                                # %func_LumaResidualCoding8x8.11
	movq	%r12, %rdi
	movq	%r14, %rsi
	movl	%ebx, %edx
	movswl	%r15w, %ecx
	movl	%r13d, %r8d
	movl	-44(%rbp), %r9d         # 4-byte Reload
	movswl	16(%rbp), %eax
	movl	%eax, (%rsp)
	movswl	24(%rbp), %eax
	movl	%eax, 8(%rsp)
	callq	LumaResidualCoding8x8.11
	addq	$24, %rsp
	popq	%rbx
	popq	%r12
	popq	%r13
	popq	%r14
	popq	%r15
	popq	%rbp
	.cfi_def_cfa %rsp, 8
	retq
.LBB11_2:                               # %func_LumaResidualCoding8x8.35
	.cfi_def_cfa %rbp, 16
	movq	%r12, %rdi
	movq	%r14, %rsi
	movl	%ebx, %edx
	movswl	%r15w, %ecx
	movl	%r13d, %r8d
	movswl	%r11w, %eax
	movl	%eax, (%rsp)
	movswl	%r10w, %eax
	movl	%eax, 8(%rsp)
	callq	LumaResidualCoding8x8.35
	addq	$24, %rsp
	popq	%rbx
	popq	%r12
	popq	%r13
	popq	%r14
	popq	%r15
	popq	%rbp
	.cfi_def_cfa %rsp, 8
	retq
.LBB11_3:                               # %func_LumaResidualCoding8x8.75
	.cfi_def_cfa %rbp, 16
	movq	%r12, %rdi
	movq	%r14, %rsi
	movl	%ebx, %edx
	movswl	%r15w, %ecx
	movl	%r13d, %r8d
	movswl	%r11w, %eax
	movl	%eax, (%rsp)
	movswl	%r10w, %eax
	movl	%eax, 8(%rsp)
	callq	LumaResidualCoding8x8.75
	addq	$24, %rsp
	popq	%rbx
	popq	%r12
	popq	%r13
	popq	%r14
	popq	%r15
	popq	%rbp
	.cfi_def_cfa %rsp, 8
	retq
.LBB11_4:                               # %func_LumaResidualCoding8x8.94
	.cfi_def_cfa %rbp, 16
	movq	%r12, %rdi
	movq	%r14, %rsi
	movl	%ebx, %edx
	movswl	%r15w, %ecx
	movl	%r13d, %r8d
	movswl	%r11w, %eax
	movl	%eax, (%rsp)
	movswl	%r10w, %eax
	movl	%eax, 8(%rsp)
	callq	LumaResidualCoding8x8.94
	addq	$24, %rsp
	popq	%rbx
	popq	%r12
	popq	%r13
	popq	%r14
	popq	%r15
	popq	%rbp
	.cfi_def_cfa %rsp, 8
	retq
.LBB11_5:                               # %func_LumaResidualCoding8x8.173
	.cfi_def_cfa %rbp, 16
	movq	%r12, %rdi
	movq	%r14, %rsi
	movl	%ebx, %edx
	movswl	%r15w, %ecx
	movl	%r13d, %r8d
	movswl	%r11w, %eax
	movl	%eax, (%rsp)
	movswl	%r10w, %eax
	movl	%eax, 8(%rsp)
	callq	LumaResidualCoding8x8.173
	addq	$24, %rsp
	popq	%rbx
	popq	%r12
	popq	%r13
	popq	%r14
	popq	%r15
	popq	%rbp
	.cfi_def_cfa %rsp, 8
	retq
.LBB11_6:                               # %func_LumaResidualCoding8x8.175
	.cfi_def_cfa %rbp, 16
	movq	%r12, %rdi
	movq	%r14, %rsi
	movl	%ebx, %edx
	movswl	%r15w, %ecx
	movl	%r13d, %r8d
	movswl	%r11w, %eax
	movl	%eax, (%rsp)
	movswl	%r10w, %eax
	movl	%eax, 8(%rsp)
	callq	LumaResidualCoding8x8.175
	addq	$24, %rsp
	popq	%rbx
	popq	%r12
	popq	%r13
	popq	%r14
	popq	%r15
	popq	%rbp
	.cfi_def_cfa %rsp, 8
	retq
.LBB11_7:                               # %func_LumaResidualCoding8x8.180
	.cfi_def_cfa %rbp, 16
	movswl	%r15w, %ecx
	movswl	%r11w, %eax
	movl	%eax, (%rsp)
	movswl	%r10w, %eax
	movl	%eax, 8(%rsp)
	callq	LumaResidualCoding8x8.180
	addq	$24, %rsp
	popq	%rbx
	popq	%r12
	popq	%r13
	popq	%r14
	popq	%r15
	popq	%rbp
	.cfi_def_cfa %rsp, 8
	retq
.LBB11_8:                               # %func_LumaResidualCoding8x8.259
	.cfi_def_cfa %rbp, 16
	movswl	%r15w, %ecx
	movswl	%r11w, %eax
	movl	%eax, (%rsp)
	movswl	%r10w, %eax
	movl	%eax, 8(%rsp)
	callq	LumaResidualCoding8x8.259
	addq	$24, %rsp
	popq	%rbx
	popq	%r12
	popq	%r13
	popq	%r14
	popq	%r15
	popq	%rbp
	.cfi_def_cfa %rsp, 8
	retq
.LBB11_9:                               # %ctrl0
	.cfi_def_cfa %rbp, 16
	movw	16(%rbp), %r11w
	movl	-44(%rbp), %r9d         # 4-byte Reload
	movw	24(%rbp), %r10w
	cmpl	$1, %eax
	je	.LBB11_2
# %bb.10:                               # %ctrl1
	cmpl	$2, %eax
	je	.LBB11_3
# %bb.11:                               # %ctrl2
	cmpl	$3, %eax
	je	.LBB11_4
# %bb.12:                               # %ctrl3
	cmpl	$4, %eax
	je	.LBB11_5
# %bb.13:                               # %ctrl4
	cmpl	$5, %eax
	je	.LBB11_6
# %bb.14:                               # %ctrl5
	cmpl	$6, %eax
	movl	%r13d, %r8d
	movl	%ebx, %edx
	movq	%r14, %rsi
	movq	%r12, %rdi
	je	.LBB11_7
	jmp	.LBB11_8
.Lfunc_end11:
	.size	LumaResidualCoding8x8, .Lfunc_end11-LumaResidualCoding8x8
	.cfi_endproc
                                        # -- End function
	.globl	ChromaPrediction4x4     # -- Begin function ChromaPrediction4x4
	.p2align	4, 0x90
	.type	ChromaPrediction4x4,@function
ChromaPrediction4x4:                    # @ChromaPrediction4x4
	.cfi_startproc
# %bb.0:                                # %rand_bb
	pushq	%rbp
	.cfi_def_cfa_offset 16
	.cfi_offset %rbp, -16
	movq	%rsp, %rbp
	.cfi_def_cfa_register %rbp
	pushq	%r15
	pushq	%r14
	pushq	%r13
	pushq	%r12
	pushq	%rbx
	subq	$24, %rsp
	.cfi_offset %rbx, -56
	.cfi_offset %r12, -48
	.cfi_offset %r13, -40
	.cfi_offset %r14, -32
	.cfi_offset %r15, -24
	movl	%r9d, -44(%rbp)         # 4-byte Spill
	movl	%r8d, %r15d
	movl	%ecx, %r12d
	movl	%edx, %ebx
	movl	%esi, %r14d
	movl	%edi, %r13d
	callq	get_rand
	cmpl	$0, %eax
	jne	.LBB12_9
# %bb.1:                                # %func_ChromaPrediction4x4.32
	movl	%r13d, %edi
	movl	%r14d, %esi
	movl	%ebx, %edx
	movl	%r12d, %ecx
	movl	%r15d, %r8d
	movl	-44(%rbp), %r9d         # 4-byte Reload
	movswl	16(%rbp), %eax
	movl	%eax, (%rsp)
	movswl	24(%rbp), %eax
	movl	%eax, 8(%rsp)
	callq	ChromaPrediction4x4.32
	addq	$24, %rsp
	popq	%rbx
	popq	%r12
	popq	%r13
	popq	%r14
	popq	%r15
	popq	%rbp
	.cfi_def_cfa %rsp, 8
	retq
.LBB12_2:                               # %func_ChromaPrediction4x4.69
	.cfi_def_cfa %rbp, 16
	movl	%r13d, %edi
	movl	%r14d, %esi
	movl	%ebx, %edx
	movl	%r12d, %ecx
	movl	%r15d, %r8d
	movswl	%r11w, %eax
	movl	%eax, (%rsp)
	movswl	%r10w, %eax
	movl	%eax, 8(%rsp)
	callq	ChromaPrediction4x4.69
	addq	$24, %rsp
	popq	%rbx
	popq	%r12
	popq	%r13
	popq	%r14
	popq	%r15
	popq	%rbp
	.cfi_def_cfa %rsp, 8
	retq
.LBB12_3:                               # %func_ChromaPrediction4x4.77
	.cfi_def_cfa %rbp, 16
	movl	%r13d, %edi
	movl	%r14d, %esi
	movl	%ebx, %edx
	movl	%r12d, %ecx
	movl	%r15d, %r8d
	movswl	%r11w, %eax
	movl	%eax, (%rsp)
	movswl	%r10w, %eax
	movl	%eax, 8(%rsp)
	callq	ChromaPrediction4x4.77
	addq	$24, %rsp
	popq	%rbx
	popq	%r12
	popq	%r13
	popq	%r14
	popq	%r15
	popq	%rbp
	.cfi_def_cfa %rsp, 8
	retq
.LBB12_4:                               # %func_ChromaPrediction4x4.88
	.cfi_def_cfa %rbp, 16
	movl	%r13d, %edi
	movl	%r14d, %esi
	movl	%ebx, %edx
	movl	%r12d, %ecx
	movl	%r15d, %r8d
	movswl	%r11w, %eax
	movl	%eax, (%rsp)
	movswl	%r10w, %eax
	movl	%eax, 8(%rsp)
	callq	ChromaPrediction4x4.88
	addq	$24, %rsp
	popq	%rbx
	popq	%r12
	popq	%r13
	popq	%r14
	popq	%r15
	popq	%rbp
	.cfi_def_cfa %rsp, 8
	retq
.LBB12_5:                               # %func_ChromaPrediction4x4.139
	.cfi_def_cfa %rbp, 16
	movl	%r13d, %edi
	movl	%r14d, %esi
	movl	%ebx, %edx
	movl	%r12d, %ecx
	movl	%r15d, %r8d
	movswl	%r11w, %eax
	movl	%eax, (%rsp)
	movswl	%r10w, %eax
	movl	%eax, 8(%rsp)
	callq	ChromaPrediction4x4.139
	addq	$24, %rsp
	popq	%rbx
	popq	%r12
	popq	%r13
	popq	%r14
	popq	%r15
	popq	%rbp
	.cfi_def_cfa %rsp, 8
	retq
.LBB12_6:                               # %func_ChromaPrediction4x4.152
	.cfi_def_cfa %rbp, 16
	movl	%r13d, %edi
	movl	%r14d, %esi
	movl	%ebx, %edx
	movl	%r12d, %ecx
	movl	%r15d, %r8d
	movswl	%r11w, %eax
	movl	%eax, (%rsp)
	movswl	%r10w, %eax
	movl	%eax, 8(%rsp)
	callq	ChromaPrediction4x4.152
	addq	$24, %rsp
	popq	%rbx
	popq	%r12
	popq	%r13
	popq	%r14
	popq	%r15
	popq	%rbp
	.cfi_def_cfa %rsp, 8
	retq
.LBB12_7:                               # %func_ChromaPrediction4x4.201
	.cfi_def_cfa %rbp, 16
	movswl	%r11w, %eax
	movl	%eax, (%rsp)
	movswl	%r10w, %eax
	movl	%eax, 8(%rsp)
	callq	ChromaPrediction4x4.201
	addq	$24, %rsp
	popq	%rbx
	popq	%r12
	popq	%r13
	popq	%r14
	popq	%r15
	popq	%rbp
	.cfi_def_cfa %rsp, 8
	retq
.LBB12_8:                               # %func_ChromaPrediction4x4.228
	.cfi_def_cfa %rbp, 16
	movswl	%r11w, %eax
	movl	%eax, (%rsp)
	movswl	%r10w, %eax
	movl	%eax, 8(%rsp)
	callq	ChromaPrediction4x4.228
	addq	$24, %rsp
	popq	%rbx
	popq	%r12
	popq	%r13
	popq	%r14
	popq	%r15
	popq	%rbp
	.cfi_def_cfa %rsp, 8
	retq
.LBB12_9:                               # %ctrl0
	.cfi_def_cfa %rbp, 16
	movl	-44(%rbp), %r9d         # 4-byte Reload
	movw	16(%rbp), %r11w
	movw	24(%rbp), %r10w
	cmpl	$1, %eax
	je	.LBB12_2
# %bb.10:                               # %ctrl1
	cmpl	$2, %eax
	je	.LBB12_3
# %bb.11:                               # %ctrl2
	cmpl	$3, %eax
	je	.LBB12_4
# %bb.12:                               # %ctrl3
	cmpl	$4, %eax
	je	.LBB12_5
# %bb.13:                               # %ctrl4
	cmpl	$5, %eax
	je	.LBB12_6
# %bb.14:                               # %ctrl5
	cmpl	$6, %eax
	movl	%r15d, %r8d
	movl	%r12d, %ecx
	movl	%ebx, %edx
	movl	%r14d, %esi
	movl	%r13d, %edi
	je	.LBB12_7
	jmp	.LBB12_8
.Lfunc_end12:
	.size	ChromaPrediction4x4, .Lfunc_end12-ChromaPrediction4x4
	.cfi_endproc
                                        # -- End function
	.globl	SetModesAndRefframe     # -- Begin function SetModesAndRefframe
	.p2align	4, 0x90
	.type	SetModesAndRefframe,@function
SetModesAndRefframe:                    # @SetModesAndRefframe
	.cfi_startproc
# %bb.0:                                # %rand_bb
	pushq	%rbp
	.cfi_def_cfa_offset 16
	.cfi_offset %rbp, -16
	movq	%rsp, %rbp
	.cfi_def_cfa_register %rbp
	pushq	%r15
	pushq	%r14
	pushq	%r13
	pushq	%r12
	pushq	%rbx
	pushq	%rax
	.cfi_offset %rbx, -56
	.cfi_offset %r12, -48
	.cfi_offset %r13, -40
	.cfi_offset %r14, -32
	.cfi_offset %r15, -24
	movq	%r9, -48(%rbp)          # 8-byte Spill
	movq	%r8, %r12
	movq	%rcx, %r13
	movq	%rdx, %rbx
	movq	%rsi, %r14
	movl	%edi, %r15d
	callq	get_rand
	cmpl	$0, %eax
	jne	.LBB13_9
# %bb.1:                                # %func_SetModesAndRefframe.12
	movl	%r15d, %edi
	movq	%r14, %rsi
	movq	%rbx, %rdx
	movq	%r13, %rcx
	movq	%r12, %r8
	movq	-48(%rbp), %r9          # 8-byte Reload
	callq	SetModesAndRefframe.12
	addq	$8, %rsp
	popq	%rbx
	popq	%r12
	popq	%r13
	popq	%r14
	popq	%r15
	popq	%rbp
	.cfi_def_cfa %rsp, 8
	retq
.LBB13_2:                               # %func_SetModesAndRefframe.20
	.cfi_def_cfa %rbp, 16
	movl	%r15d, %edi
	movq	%r14, %rsi
	movq	%rbx, %rdx
	movq	%r13, %rcx
	movq	%r12, %r8
	callq	SetModesAndRefframe.20
	addq	$8, %rsp
	popq	%rbx
	popq	%r12
	popq	%r13
	popq	%r14
	popq	%r15
	popq	%rbp
	.cfi_def_cfa %rsp, 8
	retq
.LBB13_3:                               # %func_SetModesAndRefframe.73
	.cfi_def_cfa %rbp, 16
	movl	%r15d, %edi
	movq	%r14, %rsi
	movq	%rbx, %rdx
	movq	%r13, %rcx
	movq	%r12, %r8
	callq	SetModesAndRefframe.73
	addq	$8, %rsp
	popq	%rbx
	popq	%r12
	popq	%r13
	popq	%r14
	popq	%r15
	popq	%rbp
	.cfi_def_cfa %rsp, 8
	retq
.LBB13_4:                               # %func_SetModesAndRefframe.112
	.cfi_def_cfa %rbp, 16
	movl	%r15d, %edi
	movq	%r14, %rsi
	movq	%rbx, %rdx
	movq	%r13, %rcx
	movq	%r12, %r8
	callq	SetModesAndRefframe.112
	addq	$8, %rsp
	popq	%rbx
	popq	%r12
	popq	%r13
	popq	%r14
	popq	%r15
	popq	%rbp
	.cfi_def_cfa %rsp, 8
	retq
.LBB13_5:                               # %func_SetModesAndRefframe.143
	.cfi_def_cfa %rbp, 16
	movl	%r15d, %edi
	movq	%r14, %rsi
	movq	%rbx, %rdx
	movq	%r13, %rcx
	movq	%r12, %r8
	callq	SetModesAndRefframe.143
	addq	$8, %rsp
	popq	%rbx
	popq	%r12
	popq	%r13
	popq	%r14
	popq	%r15
	popq	%rbp
	.cfi_def_cfa %rsp, 8
	retq
.LBB13_6:                               # %func_SetModesAndRefframe.148
	.cfi_def_cfa %rbp, 16
	movl	%r15d, %edi
	movq	%r14, %rsi
	movq	%rbx, %rdx
	movq	%r13, %rcx
	movq	%r12, %r8
	callq	SetModesAndRefframe.148
	addq	$8, %rsp
	popq	%rbx
	popq	%r12
	popq	%r13
	popq	%r14
	popq	%r15
	popq	%rbp
	.cfi_def_cfa %rsp, 8
	retq
.LBB13_7:                               # %func_SetModesAndRefframe.162
	.cfi_def_cfa %rbp, 16
	callq	SetModesAndRefframe.162
	addq	$8, %rsp
	popq	%rbx
	popq	%r12
	popq	%r13
	popq	%r14
	popq	%r15
	popq	%rbp
	.cfi_def_cfa %rsp, 8
	retq
.LBB13_8:                               # %func_SetModesAndRefframe.241
	.cfi_def_cfa %rbp, 16
	callq	SetModesAndRefframe.241
	addq	$8, %rsp
	popq	%rbx
	popq	%r12
	popq	%r13
	popq	%r14
	popq	%r15
	popq	%rbp
	.cfi_def_cfa %rsp, 8
	retq
.LBB13_9:                               # %ctrl0
	.cfi_def_cfa %rbp, 16
	movq	-48(%rbp), %r9          # 8-byte Reload
	cmpl	$1, %eax
	je	.LBB13_2
# %bb.10:                               # %ctrl1
	cmpl	$2, %eax
	je	.LBB13_3
# %bb.11:                               # %ctrl2
	cmpl	$3, %eax
	je	.LBB13_4
# %bb.12:                               # %ctrl3
	cmpl	$4, %eax
	je	.LBB13_5
# %bb.13:                               # %ctrl4
	cmpl	$5, %eax
	je	.LBB13_6
# %bb.14:                               # %ctrl5
	cmpl	$6, %eax
	movq	%r12, %r8
	movq	%r13, %rcx
	movq	%rbx, %rdx
	movq	%r14, %rsi
	movl	%r15d, %edi
	je	.LBB13_7
	jmp	.LBB13_8
.Lfunc_end13:
	.size	SetModesAndRefframe, .Lfunc_end13-SetModesAndRefframe
	.cfi_endproc
                                        # -- End function
	.globl	LumaResidualCoding      # -- Begin function LumaResidualCoding
	.p2align	4, 0x90
	.type	LumaResidualCoding,@function
LumaResidualCoding:                     # @LumaResidualCoding
	.cfi_startproc
# %bb.0:                                # %rand_bb
	pushq	%rbp
	.cfi_def_cfa_offset 16
	.cfi_offset %rbp, -16
	movq	%rsp, %rbp
	.cfi_def_cfa_register %rbp
	callq	get_rand
	cmpl	$0, %eax
	jne	.LBB14_9
# %bb.1:                                # %func_LumaResidualCoding.10
	callq	LumaResidualCoding.10
	popq	%rbp
	.cfi_def_cfa %rsp, 8
	retq
.LBB14_2:                               # %func_LumaResidualCoding.83
	.cfi_def_cfa %rbp, 16
	callq	LumaResidualCoding.83
	popq	%rbp
	.cfi_def_cfa %rsp, 8
	retq
.LBB14_3:                               # %func_LumaResidualCoding.217
	.cfi_def_cfa %rbp, 16
	callq	LumaResidualCoding.217
	popq	%rbp
	.cfi_def_cfa %rsp, 8
	retq
.LBB14_4:                               # %func_LumaResidualCoding.232
	.cfi_def_cfa %rbp, 16
	callq	LumaResidualCoding.232
	popq	%rbp
	.cfi_def_cfa %rsp, 8
	retq
.LBB14_5:                               # %func_LumaResidualCoding.233
	.cfi_def_cfa %rbp, 16
	callq	LumaResidualCoding.233
	popq	%rbp
	.cfi_def_cfa %rsp, 8
	retq
.LBB14_6:                               # %func_LumaResidualCoding.238
	.cfi_def_cfa %rbp, 16
	callq	LumaResidualCoding.238
	popq	%rbp
	.cfi_def_cfa %rsp, 8
	retq
.LBB14_7:                               # %func_LumaResidualCoding.264
	.cfi_def_cfa %rbp, 16
	callq	LumaResidualCoding.264
	popq	%rbp
	.cfi_def_cfa %rsp, 8
	retq
.LBB14_8:                               # %func_LumaResidualCoding.266
	.cfi_def_cfa %rbp, 16
	callq	LumaResidualCoding.266
	popq	%rbp
	.cfi_def_cfa %rsp, 8
	retq
.LBB14_9:                               # %ctrl0
	.cfi_def_cfa %rbp, 16
	cmpl	$1, %eax
	je	.LBB14_2
# %bb.10:                               # %ctrl1
	cmpl	$2, %eax
	je	.LBB14_3
# %bb.11:                               # %ctrl2
	cmpl	$3, %eax
	je	.LBB14_4
# %bb.12:                               # %ctrl3
	cmpl	$4, %eax
	je	.LBB14_5
# %bb.13:                               # %ctrl4
	cmpl	$5, %eax
	je	.LBB14_6
# %bb.14:                               # %ctrl5
	cmpl	$6, %eax
	je	.LBB14_7
	jmp	.LBB14_8
.Lfunc_end14:
	.size	LumaResidualCoding, .Lfunc_end14-LumaResidualCoding
	.cfi_endproc
                                        # -- End function
	.globl	TransformDecision       # -- Begin function TransformDecision
	.p2align	4, 0x90
	.type	TransformDecision,@function
TransformDecision:                      # @TransformDecision
	.cfi_startproc
# %bb.0:                                # %rand_bb
	pushq	%rbp
	.cfi_def_cfa_offset 16
	.cfi_offset %rbp, -16
	movq	%rsp, %rbp
	.cfi_def_cfa_register %rbp
	pushq	%r14
	pushq	%rbx
	.cfi_offset %rbx, -32
	.cfi_offset %r14, -24
	movq	%rsi, %r14
	movl	%edi, %ebx
	callq	get_rand
	cmpl	$0, %eax
	jne	.LBB15_9
# %bb.1:                                # %func_TransformDecision.13
	movl	%ebx, %edi
	movq	%r14, %rsi
	callq	TransformDecision.13
	popq	%rbx
	popq	%r14
	popq	%rbp
	.cfi_def_cfa %rsp, 8
	retq
.LBB15_2:                               # %func_TransformDecision.30
	.cfi_def_cfa %rbp, 16
	movl	%ebx, %edi
	movq	%r14, %rsi
	callq	TransformDecision.30
	popq	%rbx
	popq	%r14
	popq	%rbp
	.cfi_def_cfa %rsp, 8
	retq
.LBB15_3:                               # %func_TransformDecision.66
	.cfi_def_cfa %rbp, 16
	movl	%ebx, %edi
	movq	%r14, %rsi
	callq	TransformDecision.66
	popq	%rbx
	popq	%r14
	popq	%rbp
	.cfi_def_cfa %rsp, 8
	retq
.LBB15_4:                               # %func_TransformDecision.107
	.cfi_def_cfa %rbp, 16
	movl	%ebx, %edi
	movq	%r14, %rsi
	callq	TransformDecision.107
	popq	%rbx
	popq	%r14
	popq	%rbp
	.cfi_def_cfa %rsp, 8
	retq
.LBB15_5:                               # %func_TransformDecision.111
	.cfi_def_cfa %rbp, 16
	movl	%ebx, %edi
	movq	%r14, %rsi
	callq	TransformDecision.111
	popq	%rbx
	popq	%r14
	popq	%rbp
	.cfi_def_cfa %rsp, 8
	retq
.LBB15_6:                               # %func_TransformDecision.132
	.cfi_def_cfa %rbp, 16
	movl	%ebx, %edi
	movq	%r14, %rsi
	callq	TransformDecision.132
	popq	%rbx
	popq	%r14
	popq	%rbp
	.cfi_def_cfa %rsp, 8
	retq
.LBB15_7:                               # %func_TransformDecision.134
	.cfi_def_cfa %rbp, 16
	movl	%ebx, %edi
	movq	%r14, %rsi
	callq	TransformDecision.134
	popq	%rbx
	popq	%r14
	popq	%rbp
	.cfi_def_cfa %rsp, 8
	retq
.LBB15_8:                               # %func_TransformDecision.146
	.cfi_def_cfa %rbp, 16
	movl	%ebx, %edi
	movq	%r14, %rsi
	callq	TransformDecision.146
	popq	%rbx
	popq	%r14
	popq	%rbp
	.cfi_def_cfa %rsp, 8
	retq
.LBB15_9:                               # %ctrl0
	.cfi_def_cfa %rbp, 16
	cmpl	$1, %eax
	je	.LBB15_2
# %bb.10:                               # %ctrl1
	cmpl	$2, %eax
	je	.LBB15_3
# %bb.11:                               # %ctrl2
	cmpl	$3, %eax
	je	.LBB15_4
# %bb.12:                               # %ctrl3
	cmpl	$4, %eax
	je	.LBB15_5
# %bb.13:                               # %ctrl4
	cmpl	$5, %eax
	je	.LBB15_6
# %bb.14:                               # %ctrl5
	cmpl	$6, %eax
	je	.LBB15_7
	jmp	.LBB15_8
.Lfunc_end15:
	.size	TransformDecision, .Lfunc_end15-TransformDecision
	.cfi_endproc
                                        # -- End function
	.globl	OneComponentChromaPrediction4x4 # -- Begin function OneComponentChromaPrediction4x4
	.p2align	4, 0x90
	.type	OneComponentChromaPrediction4x4,@function
OneComponentChromaPrediction4x4:        # @OneComponentChromaPrediction4x4
	.cfi_startproc
# %bb.0:                                # %rand_bb
	pushq	%rbp
	.cfi_def_cfa_offset 16
	.cfi_offset %rbp, -16
	movq	%rsp, %rbp
	.cfi_def_cfa_register %rbp
	pushq	%r15
	pushq	%r14
	pushq	%r13
	pushq	%r12
	pushq	%rbx
	subq	$24, %rsp
	.cfi_offset %rbx, -56
	.cfi_offset %r12, -48
	.cfi_offset %r13, -40
	.cfi_offset %r14, -32
	.cfi_offset %r15, -24
	movl	%r9d, -44(%rbp)         # 4-byte Spill
	movl	%r8d, %r15d
	movq	%rcx, %r12
	movl	%edx, %ebx
	movl	%esi, %r14d
	movq	%rdi, %r13
	callq	get_rand
	cmpl	$0, %eax
	jne	.LBB16_9
# %bb.1:                                # %func_OneComponentChromaPrediction4x4.67
	movq	%r13, %rdi
	movl	%r14d, %esi
	movl	%ebx, %edx
	movq	%r12, %rcx
	movl	%r15d, %r8d
	movswl	-44(%rbp), %r9d         # 2-byte Folded Reload
	movl	16(%rbp), %eax
	movl	%eax, (%rsp)
	movl	24(%rbp), %eax
	movl	%eax, 8(%rsp)
	callq	OneComponentChromaPrediction4x4.67
	addq	$24, %rsp
	popq	%rbx
	popq	%r12
	popq	%r13
	popq	%r14
	popq	%r15
	popq	%rbp
	.cfi_def_cfa %rsp, 8
	retq
.LBB16_2:                               # %func_OneComponentChromaPrediction4x4.183
	.cfi_def_cfa %rbp, 16
	movl	%r14d, %esi
	movl	%ebx, %edx
	movq	%r12, %rcx
	movl	%r15d, %r8d
	movswl	%r13w, %r9d
	movl	%r11d, (%rsp)
	movl	%r10d, 8(%rsp)
	callq	OneComponentChromaPrediction4x4.183
	addq	$24, %rsp
	popq	%rbx
	popq	%r12
	popq	%r13
	popq	%r14
	popq	%r15
	popq	%rbp
	.cfi_def_cfa %rsp, 8
	retq
.LBB16_3:                               # %func_OneComponentChromaPrediction4x4.213
	.cfi_def_cfa %rbp, 16
	movl	%r14d, %esi
	movl	%ebx, %edx
	movq	%r12, %rcx
	movl	%r15d, %r8d
	movswl	%r13w, %r9d
	movl	%r11d, (%rsp)
	movl	%r10d, 8(%rsp)
	callq	OneComponentChromaPrediction4x4.213
	addq	$24, %rsp
	popq	%rbx
	popq	%r12
	popq	%r13
	popq	%r14
	popq	%r15
	popq	%rbp
	.cfi_def_cfa %rsp, 8
	retq
.LBB16_4:                               # %func_OneComponentChromaPrediction4x4.224
	.cfi_def_cfa %rbp, 16
	movl	%r14d, %esi
	movl	%ebx, %edx
	movq	%r12, %rcx
	movl	%r15d, %r8d
	movswl	%r13w, %r9d
	movl	%r11d, (%rsp)
	movl	%r10d, 8(%rsp)
	callq	OneComponentChromaPrediction4x4.224
	addq	$24, %rsp
	popq	%rbx
	popq	%r12
	popq	%r13
	popq	%r14
	popq	%r15
	popq	%rbp
	.cfi_def_cfa %rsp, 8
	retq
.LBB16_5:                               # %func_OneComponentChromaPrediction4x4.240
	.cfi_def_cfa %rbp, 16
	movl	%r14d, %esi
	movl	%ebx, %edx
	movq	%r12, %rcx
	movl	%r15d, %r8d
	movswl	%r13w, %r9d
	movl	%r11d, (%rsp)
	movl	%r10d, 8(%rsp)
	callq	OneComponentChromaPrediction4x4.240
	addq	$24, %rsp
	popq	%rbx
	popq	%r12
	popq	%r13
	popq	%r14
	popq	%r15
	popq	%rbp
	.cfi_def_cfa %rsp, 8
	retq
.LBB16_6:                               # %func_OneComponentChromaPrediction4x4.252
	.cfi_def_cfa %rbp, 16
	movl	%r14d, %esi
	movl	%ebx, %edx
	movq	%r12, %rcx
	movl	%r15d, %r8d
	movswl	%r13w, %r9d
	movl	%r11d, (%rsp)
	movl	%r10d, 8(%rsp)
	callq	OneComponentChromaPrediction4x4.252
	addq	$24, %rsp
	popq	%rbx
	popq	%r12
	popq	%r13
	popq	%r14
	popq	%r15
	popq	%rbp
	.cfi_def_cfa %rsp, 8
	retq
.LBB16_7:                               # %func_OneComponentChromaPrediction4x4.258
	.cfi_def_cfa %rbp, 16
	movswl	%r13w, %r9d
	movl	%r11d, (%rsp)
	movl	%r10d, 8(%rsp)
	callq	OneComponentChromaPrediction4x4.258
	addq	$24, %rsp
	popq	%rbx
	popq	%r12
	popq	%r13
	popq	%r14
	popq	%r15
	popq	%rbp
	.cfi_def_cfa %rsp, 8
	retq
.LBB16_8:                               # %func_OneComponentChromaPrediction4x4.269
	.cfi_def_cfa %rbp, 16
	movswl	%r13w, %r9d
	movl	%r11d, (%rsp)
	movl	%r10d, 8(%rsp)
	callq	OneComponentChromaPrediction4x4.269
	addq	$24, %rsp
	popq	%rbx
	popq	%r12
	popq	%r13
	popq	%r14
	popq	%r15
	popq	%rbp
	.cfi_def_cfa %rsp, 8
	retq
.LBB16_9:                               # %ctrl0
	.cfi_def_cfa %rbp, 16
	movq	%r13, %rdi
	movl	-44(%rbp), %r13d        # 4-byte Reload
	movl	16(%rbp), %r11d
	movl	24(%rbp), %r10d
	cmpl	$1, %eax
	je	.LBB16_2
# %bb.10:                               # %ctrl1
	cmpl	$2, %eax
	je	.LBB16_3
# %bb.11:                               # %ctrl2
	cmpl	$3, %eax
	je	.LBB16_4
# %bb.12:                               # %ctrl3
	cmpl	$4, %eax
	je	.LBB16_5
# %bb.13:                               # %ctrl4
	cmpl	$5, %eax
	je	.LBB16_6
# %bb.14:                               # %ctrl5
	cmpl	$6, %eax
	movl	%r15d, %r8d
	movq	%r12, %rcx
	movl	%ebx, %edx
	movl	%r14d, %esi
	je	.LBB16_7
	jmp	.LBB16_8
.Lfunc_end16:
	.size	OneComponentChromaPrediction4x4, .Lfunc_end16-OneComponentChromaPrediction4x4
	.cfi_endproc
                                        # -- End function
	.globl	IntraChromaPrediction4x4 # -- Begin function IntraChromaPrediction4x4
	.p2align	4, 0x90
	.type	IntraChromaPrediction4x4,@function
IntraChromaPrediction4x4:               # @IntraChromaPrediction4x4
	.cfi_startproc
# %bb.0:                                # %rand_bb
	pushq	%rbp
	.cfi_def_cfa_offset 16
	.cfi_offset %rbp, -16
	movq	%rsp, %rbp
	.cfi_def_cfa_register %rbp
	pushq	%r15
	pushq	%r14
	pushq	%rbx
	pushq	%rax
	.cfi_offset %rbx, -40
	.cfi_offset %r14, -32
	.cfi_offset %r15, -24
	movl	%edx, %r14d
	movl	%esi, %r15d
	movl	%edi, %ebx
	callq	get_rand
	cmpl	$0, %eax
	jne	.LBB17_9
# %bb.1:                                # %func_IntraChromaPrediction4x4.21
	movl	%ebx, %edi
	movl	%r15d, %esi
	movl	%r14d, %edx
	callq	IntraChromaPrediction4x4.21
	addq	$8, %rsp
	popq	%rbx
	popq	%r14
	popq	%r15
	popq	%rbp
	.cfi_def_cfa %rsp, 8
	retq
.LBB17_2:                               # %func_IntraChromaPrediction4x4.44
	.cfi_def_cfa %rbp, 16
	movl	%ebx, %edi
	movl	%r15d, %esi
	movl	%r14d, %edx
	callq	IntraChromaPrediction4x4.44
	addq	$8, %rsp
	popq	%rbx
	popq	%r14
	popq	%r15
	popq	%rbp
	.cfi_def_cfa %rsp, 8
	retq
.LBB17_3:                               # %func_IntraChromaPrediction4x4.59
	.cfi_def_cfa %rbp, 16
	movl	%ebx, %edi
	movl	%r15d, %esi
	movl	%r14d, %edx
	callq	IntraChromaPrediction4x4.59
	addq	$8, %rsp
	popq	%rbx
	popq	%r14
	popq	%r15
	popq	%rbp
	.cfi_def_cfa %rsp, 8
	retq
.LBB17_4:                               # %func_IntraChromaPrediction4x4.80
	.cfi_def_cfa %rbp, 16
	movl	%ebx, %edi
	movl	%r15d, %esi
	movl	%r14d, %edx
	callq	IntraChromaPrediction4x4.80
	addq	$8, %rsp
	popq	%rbx
	popq	%r14
	popq	%r15
	popq	%rbp
	.cfi_def_cfa %rsp, 8
	retq
.LBB17_5:                               # %func_IntraChromaPrediction4x4.116
	.cfi_def_cfa %rbp, 16
	movl	%ebx, %edi
	movl	%r15d, %esi
	movl	%r14d, %edx
	callq	IntraChromaPrediction4x4.116
	addq	$8, %rsp
	popq	%rbx
	popq	%r14
	popq	%r15
	popq	%rbp
	.cfi_def_cfa %rsp, 8
	retq
.LBB17_6:                               # %func_IntraChromaPrediction4x4.124
	.cfi_def_cfa %rbp, 16
	movl	%ebx, %edi
	movl	%r15d, %esi
	movl	%r14d, %edx
	callq	IntraChromaPrediction4x4.124
	addq	$8, %rsp
	popq	%rbx
	popq	%r14
	popq	%r15
	popq	%rbp
	.cfi_def_cfa %rsp, 8
	retq
.LBB17_7:                               # %func_IntraChromaPrediction4x4.197
	.cfi_def_cfa %rbp, 16
	movl	%ebx, %edi
	movl	%r15d, %esi
	movl	%r14d, %edx
	callq	IntraChromaPrediction4x4.197
	addq	$8, %rsp
	popq	%rbx
	popq	%r14
	popq	%r15
	popq	%rbp
	.cfi_def_cfa %rsp, 8
	retq
.LBB17_8:                               # %func_IntraChromaPrediction4x4.206
	.cfi_def_cfa %rbp, 16
	movl	%ebx, %edi
	movl	%r15d, %esi
	movl	%r14d, %edx
	callq	IntraChromaPrediction4x4.206
	addq	$8, %rsp
	popq	%rbx
	popq	%r14
	popq	%r15
	popq	%rbp
	.cfi_def_cfa %rsp, 8
	retq
.LBB17_9:                               # %ctrl0
	.cfi_def_cfa %rbp, 16
	cmpl	$1, %eax
	je	.LBB17_2
# %bb.10:                               # %ctrl1
	cmpl	$2, %eax
	je	.LBB17_3
# %bb.11:                               # %ctrl2
	cmpl	$3, %eax
	je	.LBB17_4
# %bb.12:                               # %ctrl3
	cmpl	$4, %eax
	je	.LBB17_5
# %bb.13:                               # %ctrl4
	cmpl	$5, %eax
	je	.LBB17_6
# %bb.14:                               # %ctrl5
	cmpl	$6, %eax
	je	.LBB17_7
	jmp	.LBB17_8
.Lfunc_end17:
	.size	IntraChromaPrediction4x4, .Lfunc_end17-IntraChromaPrediction4x4
	.cfi_endproc
                                        # -- End function
	.globl	ChromaResidualCoding    # -- Begin function ChromaResidualCoding
	.p2align	4, 0x90
	.type	ChromaResidualCoding,@function
ChromaResidualCoding:                   # @ChromaResidualCoding
	.cfi_startproc
# %bb.0:                                # %rand_bb
	pushq	%rbp
	.cfi_def_cfa_offset 16
	.cfi_offset %rbp, -16
	movq	%rsp, %rbp
	.cfi_def_cfa_register %rbp
	pushq	%rbx
	pushq	%rax
	.cfi_offset %rbx, -24
	movq	%rdi, %rbx
	callq	get_rand
	cmpl	$0, %eax
	jne	.LBB18_9
# %bb.1:                                # %func_ChromaResidualCoding.47
	movq	%rbx, %rdi
	callq	ChromaResidualCoding.47
	addq	$8, %rsp
	popq	%rbx
	popq	%rbp
	.cfi_def_cfa %rsp, 8
	retq
.LBB18_2:                               # %func_ChromaResidualCoding.196
	.cfi_def_cfa %rbp, 16
	movq	%rbx, %rdi
	callq	ChromaResidualCoding.196
	addq	$8, %rsp
	popq	%rbx
	popq	%rbp
	.cfi_def_cfa %rsp, 8
	retq
.LBB18_3:                               # %func_ChromaResidualCoding.209
	.cfi_def_cfa %rbp, 16
	movq	%rbx, %rdi
	callq	ChromaResidualCoding.209
	addq	$8, %rsp
	popq	%rbx
	popq	%rbp
	.cfi_def_cfa %rsp, 8
	retq
.LBB18_4:                               # %func_ChromaResidualCoding.255
	.cfi_def_cfa %rbp, 16
	movq	%rbx, %rdi
	callq	ChromaResidualCoding.255
	addq	$8, %rsp
	popq	%rbx
	popq	%rbp
	.cfi_def_cfa %rsp, 8
	retq
.LBB18_5:                               # %func_ChromaResidualCoding.260
	.cfi_def_cfa %rbp, 16
	movq	%rbx, %rdi
	callq	ChromaResidualCoding.260
	addq	$8, %rsp
	popq	%rbx
	popq	%rbp
	.cfi_def_cfa %rsp, 8
	retq
.LBB18_6:                               # %func_ChromaResidualCoding.276
	.cfi_def_cfa %rbp, 16
	movq	%rbx, %rdi
	callq	ChromaResidualCoding.276
	addq	$8, %rsp
	popq	%rbx
	popq	%rbp
	.cfi_def_cfa %rsp, 8
	retq
.LBB18_7:                               # %func_ChromaResidualCoding.280
	.cfi_def_cfa %rbp, 16
	movq	%rbx, %rdi
	callq	ChromaResidualCoding.280
	addq	$8, %rsp
	popq	%rbx
	popq	%rbp
	.cfi_def_cfa %rsp, 8
	retq
.LBB18_8:                               # %func_ChromaResidualCoding.282
	.cfi_def_cfa %rbp, 16
	movq	%rbx, %rdi
	callq	ChromaResidualCoding.282
	addq	$8, %rsp
	popq	%rbx
	popq	%rbp
	.cfi_def_cfa %rsp, 8
	retq
.LBB18_9:                               # %ctrl0
	.cfi_def_cfa %rbp, 16
	cmpl	$1, %eax
	je	.LBB18_2
# %bb.10:                               # %ctrl1
	cmpl	$2, %eax
	je	.LBB18_3
# %bb.11:                               # %ctrl2
	cmpl	$3, %eax
	je	.LBB18_4
# %bb.12:                               # %ctrl3
	cmpl	$4, %eax
	je	.LBB18_5
# %bb.13:                               # %ctrl4
	cmpl	$5, %eax
	je	.LBB18_6
# %bb.14:                               # %ctrl5
	cmpl	$6, %eax
	je	.LBB18_7
	jmp	.LBB18_8
.Lfunc_end18:
	.size	ChromaResidualCoding, .Lfunc_end18-ChromaResidualCoding
	.cfi_endproc
                                        # -- End function
	.globl	IntraChromaPrediction   # -- Begin function IntraChromaPrediction
	.p2align	4, 0x90
	.type	IntraChromaPrediction,@function
IntraChromaPrediction:                  # @IntraChromaPrediction
	.cfi_startproc
# %bb.0:                                # %rand_bb
	pushq	%rbp
	.cfi_def_cfa_offset 16
	.cfi_offset %rbp, -16
	movq	%rsp, %rbp
	.cfi_def_cfa_register %rbp
	pushq	%r15
	pushq	%r14
	pushq	%rbx
	pushq	%rax
	.cfi_offset %rbx, -40
	.cfi_offset %r14, -32
	.cfi_offset %r15, -24
	movq	%rdx, %r14
	movq	%rsi, %r15
	movq	%rdi, %rbx
	callq	get_rand
	cmpl	$0, %eax
	jne	.LBB19_9
# %bb.1:                                # %func_IntraChromaPrediction.8
	movq	%rbx, %rdi
	movq	%r15, %rsi
	movq	%r14, %rdx
	callq	IntraChromaPrediction.8
	addq	$8, %rsp
	popq	%rbx
	popq	%r14
	popq	%r15
	popq	%rbp
	.cfi_def_cfa %rsp, 8
	retq
.LBB19_2:                               # %func_IntraChromaPrediction.14
	.cfi_def_cfa %rbp, 16
	movq	%rbx, %rdi
	movq	%r15, %rsi
	movq	%r14, %rdx
	callq	IntraChromaPrediction.14
	addq	$8, %rsp
	popq	%rbx
	popq	%r14
	popq	%r15
	popq	%rbp
	.cfi_def_cfa %rsp, 8
	retq
.LBB19_3:                               # %func_IntraChromaPrediction.39
	.cfi_def_cfa %rbp, 16
	movq	%rbx, %rdi
	movq	%r15, %rsi
	movq	%r14, %rdx
	callq	IntraChromaPrediction.39
	addq	$8, %rsp
	popq	%rbx
	popq	%r14
	popq	%r15
	popq	%rbp
	.cfi_def_cfa %rsp, 8
	retq
.LBB19_4:                               # %func_IntraChromaPrediction.57
	.cfi_def_cfa %rbp, 16
	movq	%rbx, %rdi
	movq	%r15, %rsi
	movq	%r14, %rdx
	callq	IntraChromaPrediction.57
	addq	$8, %rsp
	popq	%rbx
	popq	%r14
	popq	%r15
	popq	%rbp
	.cfi_def_cfa %rsp, 8
	retq
.LBB19_5:                               # %func_IntraChromaPrediction.166
	.cfi_def_cfa %rbp, 16
	movq	%rbx, %rdi
	movq	%r15, %rsi
	movq	%r14, %rdx
	callq	IntraChromaPrediction.166
	addq	$8, %rsp
	popq	%rbx
	popq	%r14
	popq	%r15
	popq	%rbp
	.cfi_def_cfa %rsp, 8
	retq
.LBB19_6:                               # %func_IntraChromaPrediction.208
	.cfi_def_cfa %rbp, 16
	movq	%rbx, %rdi
	movq	%r15, %rsi
	movq	%r14, %rdx
	callq	IntraChromaPrediction.208
	addq	$8, %rsp
	popq	%rbx
	popq	%r14
	popq	%r15
	popq	%rbp
	.cfi_def_cfa %rsp, 8
	retq
.LBB19_7:                               # %func_IntraChromaPrediction.218
	.cfi_def_cfa %rbp, 16
	movq	%rbx, %rdi
	movq	%r15, %rsi
	movq	%r14, %rdx
	callq	IntraChromaPrediction.218
	addq	$8, %rsp
	popq	%rbx
	popq	%r14
	popq	%r15
	popq	%rbp
	.cfi_def_cfa %rsp, 8
	retq
.LBB19_8:                               # %func_IntraChromaPrediction.235
	.cfi_def_cfa %rbp, 16
	movq	%rbx, %rdi
	movq	%r15, %rsi
	movq	%r14, %rdx
	callq	IntraChromaPrediction.235
	addq	$8, %rsp
	popq	%rbx
	popq	%r14
	popq	%r15
	popq	%rbp
	.cfi_def_cfa %rsp, 8
	retq
.LBB19_9:                               # %ctrl0
	.cfi_def_cfa %rbp, 16
	cmpl	$1, %eax
	je	.LBB19_2
# %bb.10:                               # %ctrl1
	cmpl	$2, %eax
	je	.LBB19_3
# %bb.11:                               # %ctrl2
	cmpl	$3, %eax
	je	.LBB19_4
# %bb.12:                               # %ctrl3
	cmpl	$4, %eax
	je	.LBB19_5
# %bb.13:                               # %ctrl4
	cmpl	$5, %eax
	je	.LBB19_6
# %bb.14:                               # %ctrl5
	cmpl	$6, %eax
	je	.LBB19_7
	jmp	.LBB19_8
.Lfunc_end19:
	.size	IntraChromaPrediction, .Lfunc_end19-IntraChromaPrediction
	.cfi_endproc
                                        # -- End function
	.globl	ZeroRef                 # -- Begin function ZeroRef
	.p2align	4, 0x90
	.type	ZeroRef,@function
ZeroRef:                                # @ZeroRef
	.cfi_startproc
# %bb.0:                                # %rand_bb
	pushq	%rbp
	.cfi_def_cfa_offset 16
	.cfi_offset %rbp, -16
	movq	%rsp, %rbp
	.cfi_def_cfa_register %rbp
	pushq	%rbx
	pushq	%rax
	.cfi_offset %rbx, -24
	movq	%rdi, %rbx
	callq	get_rand
	cmpl	$0, %eax
	jne	.LBB20_9
# %bb.1:                                # %func_ZeroRef.60
	movq	%rbx, %rdi
	callq	ZeroRef.60
	addq	$8, %rsp
	popq	%rbx
	popq	%rbp
	.cfi_def_cfa %rsp, 8
	retq
.LBB20_2:                               # %func_ZeroRef.95
	.cfi_def_cfa %rbp, 16
	movq	%rbx, %rdi
	callq	ZeroRef.95
	addq	$8, %rsp
	popq	%rbx
	popq	%rbp
	.cfi_def_cfa %rsp, 8
	retq
.LBB20_3:                               # %func_ZeroRef.219
	.cfi_def_cfa %rbp, 16
	movq	%rbx, %rdi
	callq	ZeroRef.219
	addq	$8, %rsp
	popq	%rbx
	popq	%rbp
	.cfi_def_cfa %rsp, 8
	retq
.LBB20_4:                               # %func_ZeroRef.271
	.cfi_def_cfa %rbp, 16
	movq	%rbx, %rdi
	callq	ZeroRef.271
	addq	$8, %rsp
	popq	%rbx
	popq	%rbp
	.cfi_def_cfa %rsp, 8
	retq
.LBB20_5:                               # %func_ZeroRef.283
	.cfi_def_cfa %rbp, 16
	movq	%rbx, %rdi
	callq	ZeroRef.283
	addq	$8, %rsp
	popq	%rbx
	popq	%rbp
	.cfi_def_cfa %rsp, 8
	retq
.LBB20_6:                               # %func_ZeroRef.285
	.cfi_def_cfa %rbp, 16
	movq	%rbx, %rdi
	callq	ZeroRef.285
	addq	$8, %rsp
	popq	%rbx
	popq	%rbp
	.cfi_def_cfa %rsp, 8
	retq
.LBB20_7:                               # %func_ZeroRef.286
	.cfi_def_cfa %rbp, 16
	movq	%rbx, %rdi
	callq	ZeroRef.286
	addq	$8, %rsp
	popq	%rbx
	popq	%rbp
	.cfi_def_cfa %rsp, 8
	retq
.LBB20_8:                               # %func_ZeroRef.287
	.cfi_def_cfa %rbp, 16
	movq	%rbx, %rdi
	callq	ZeroRef.287
	addq	$8, %rsp
	popq	%rbx
	popq	%rbp
	.cfi_def_cfa %rsp, 8
	retq
.LBB20_9:                               # %ctrl0
	.cfi_def_cfa %rbp, 16
	cmpl	$1, %eax
	je	.LBB20_2
# %bb.10:                               # %ctrl1
	cmpl	$2, %eax
	je	.LBB20_3
# %bb.11:                               # %ctrl2
	cmpl	$3, %eax
	je	.LBB20_4
# %bb.12:                               # %ctrl3
	cmpl	$4, %eax
	je	.LBB20_5
# %bb.13:                               # %ctrl4
	cmpl	$5, %eax
	je	.LBB20_6
# %bb.14:                               # %ctrl5
	cmpl	$6, %eax
	je	.LBB20_7
	jmp	.LBB20_8
.Lfunc_end20:
	.size	ZeroRef, .Lfunc_end20-ZeroRef
	.cfi_endproc
                                        # -- End function
	.globl	MBType2Value            # -- Begin function MBType2Value
	.p2align	4, 0x90
	.type	MBType2Value,@function
MBType2Value:                           # @MBType2Value
	.cfi_startproc
# %bb.0:                                # %rand_bb
	pushq	%rbp
	.cfi_def_cfa_offset 16
	.cfi_offset %rbp, -16
	movq	%rsp, %rbp
	.cfi_def_cfa_register %rbp
	pushq	%rbx
	pushq	%rax
	.cfi_offset %rbx, -24
	movq	%rdi, %rbx
	callq	get_rand
	cmpl	$0, %eax
	jne	.LBB21_9
# %bb.1:                                # %func_MBType2Value.3
	movq	%rbx, %rdi
	callq	MBType2Value.3
	addq	$8, %rsp
	popq	%rbx
	popq	%rbp
	.cfi_def_cfa %rsp, 8
	retq
.LBB21_2:                               # %func_MBType2Value.90
	.cfi_def_cfa %rbp, 16
	movq	%rbx, %rdi
	callq	MBType2Value.90
	addq	$8, %rsp
	popq	%rbx
	popq	%rbp
	.cfi_def_cfa %rsp, 8
	retq
.LBB21_3:                               # %func_MBType2Value.141
	.cfi_def_cfa %rbp, 16
	movq	%rbx, %rdi
	callq	MBType2Value.141
	addq	$8, %rsp
	popq	%rbx
	popq	%rbp
	.cfi_def_cfa %rsp, 8
	retq
.LBB21_4:                               # %func_MBType2Value.172
	.cfi_def_cfa %rbp, 16
	movq	%rbx, %rdi
	callq	MBType2Value.172
	addq	$8, %rsp
	popq	%rbx
	popq	%rbp
	.cfi_def_cfa %rsp, 8
	retq
.LBB21_5:                               # %func_MBType2Value.227
	.cfi_def_cfa %rbp, 16
	movq	%rbx, %rdi
	callq	MBType2Value.227
	addq	$8, %rsp
	popq	%rbx
	popq	%rbp
	.cfi_def_cfa %rsp, 8
	retq
.LBB21_6:                               # %func_MBType2Value.270
	.cfi_def_cfa %rbp, 16
	movq	%rbx, %rdi
	callq	MBType2Value.270
	addq	$8, %rsp
	popq	%rbx
	popq	%rbp
	.cfi_def_cfa %rsp, 8
	retq
.LBB21_7:                               # %func_MBType2Value.274
	.cfi_def_cfa %rbp, 16
	movq	%rbx, %rdi
	callq	MBType2Value.274
	addq	$8, %rsp
	popq	%rbx
	popq	%rbp
	.cfi_def_cfa %rsp, 8
	retq
.LBB21_8:                               # %func_MBType2Value.284
	.cfi_def_cfa %rbp, 16
	movq	%rbx, %rdi
	callq	MBType2Value.284
	addq	$8, %rsp
	popq	%rbx
	popq	%rbp
	.cfi_def_cfa %rsp, 8
	retq
.LBB21_9:                               # %ctrl0
	.cfi_def_cfa %rbp, 16
	cmpl	$1, %eax
	je	.LBB21_2
# %bb.10:                               # %ctrl1
	cmpl	$2, %eax
	je	.LBB21_3
# %bb.11:                               # %ctrl2
	cmpl	$3, %eax
	je	.LBB21_4
# %bb.12:                               # %ctrl3
	cmpl	$4, %eax
	je	.LBB21_5
# %bb.13:                               # %ctrl4
	cmpl	$5, %eax
	je	.LBB21_6
# %bb.14:                               # %ctrl5
	cmpl	$6, %eax
	je	.LBB21_7
	jmp	.LBB21_8
.Lfunc_end21:
	.size	MBType2Value, .Lfunc_end21-MBType2Value
	.cfi_endproc
                                        # -- End function
	.globl	writeIntra4x4Modes      # -- Begin function writeIntra4x4Modes
	.p2align	4, 0x90
	.type	writeIntra4x4Modes,@function
writeIntra4x4Modes:                     # @writeIntra4x4Modes
	.cfi_startproc
# %bb.0:                                # %rand_bb
	pushq	%rbp
	.cfi_def_cfa_offset 16
	.cfi_offset %rbp, -16
	movq	%rsp, %rbp
	.cfi_def_cfa_register %rbp
	pushq	%rbx
	pushq	%rax
	.cfi_offset %rbx, -24
	movl	%edi, %ebx
	callq	get_rand
	cmpl	$0, %eax
	jne	.LBB22_9
# %bb.1:                                # %func_writeIntra4x4Modes.48
	movl	%ebx, %edi
	callq	writeIntra4x4Modes.48
	addq	$8, %rsp
	popq	%rbx
	popq	%rbp
	.cfi_def_cfa %rsp, 8
	retq
.LBB22_2:                               # %func_writeIntra4x4Modes.52
	.cfi_def_cfa %rbp, 16
	movl	%ebx, %edi
	callq	writeIntra4x4Modes.52
	addq	$8, %rsp
	popq	%rbx
	popq	%rbp
	.cfi_def_cfa %rsp, 8
	retq
.LBB22_3:                               # %func_writeIntra4x4Modes.99
	.cfi_def_cfa %rbp, 16
	movl	%ebx, %edi
	callq	writeIntra4x4Modes.99
	addq	$8, %rsp
	popq	%rbx
	popq	%rbp
	.cfi_def_cfa %rsp, 8
	retq
.LBB22_4:                               # %func_writeIntra4x4Modes.121
	.cfi_def_cfa %rbp, 16
	movl	%ebx, %edi
	callq	writeIntra4x4Modes.121
	addq	$8, %rsp
	popq	%rbx
	popq	%rbp
	.cfi_def_cfa %rsp, 8
	retq
.LBB22_5:                               # %func_writeIntra4x4Modes.122
	.cfi_def_cfa %rbp, 16
	movl	%ebx, %edi
	callq	writeIntra4x4Modes.122
	addq	$8, %rsp
	popq	%rbx
	popq	%rbp
	.cfi_def_cfa %rsp, 8
	retq
.LBB22_6:                               # %func_writeIntra4x4Modes.123
	.cfi_def_cfa %rbp, 16
	movl	%ebx, %edi
	callq	writeIntra4x4Modes.123
	addq	$8, %rsp
	popq	%rbx
	popq	%rbp
	.cfi_def_cfa %rsp, 8
	retq
.LBB22_7:                               # %func_writeIntra4x4Modes.163
	.cfi_def_cfa %rbp, 16
	movl	%ebx, %edi
	callq	writeIntra4x4Modes.163
	addq	$8, %rsp
	popq	%rbx
	popq	%rbp
	.cfi_def_cfa %rsp, 8
	retq
.LBB22_8:                               # %func_writeIntra4x4Modes.186
	.cfi_def_cfa %rbp, 16
	movl	%ebx, %edi
	callq	writeIntra4x4Modes.186
	addq	$8, %rsp
	popq	%rbx
	popq	%rbp
	.cfi_def_cfa %rsp, 8
	retq
.LBB22_9:                               # %ctrl0
	.cfi_def_cfa %rbp, 16
	cmpl	$1, %eax
	je	.LBB22_2
# %bb.10:                               # %ctrl1
	cmpl	$2, %eax
	je	.LBB22_3
# %bb.11:                               # %ctrl2
	cmpl	$3, %eax
	je	.LBB22_4
# %bb.12:                               # %ctrl3
	cmpl	$4, %eax
	je	.LBB22_5
# %bb.13:                               # %ctrl4
	cmpl	$5, %eax
	je	.LBB22_6
# %bb.14:                               # %ctrl5
	cmpl	$6, %eax
	je	.LBB22_7
	jmp	.LBB22_8
.Lfunc_end22:
	.size	writeIntra4x4Modes, .Lfunc_end22-writeIntra4x4Modes
	.cfi_endproc
                                        # -- End function
	.globl	B8Mode2Value            # -- Begin function B8Mode2Value
	.p2align	4, 0x90
	.type	B8Mode2Value,@function
B8Mode2Value:                           # @B8Mode2Value
	.cfi_startproc
# %bb.0:                                # %rand_bb
	pushq	%rbp
	.cfi_def_cfa_offset 16
	.cfi_offset %rbp, -16
	movq	%rsp, %rbp
	.cfi_def_cfa_register %rbp
	pushq	%r14
	pushq	%rbx
	.cfi_offset %rbx, -32
	.cfi_offset %r14, -24
	movl	%esi, %r14d
	movl	%edi, %ebx
	callq	get_rand
	cmpl	$0, %eax
	jne	.LBB23_7
# %bb.1:                                # %func_B8Mode2Value.4
	movl	%ebx, %edi
	movl	%r14d, %esi
	callq	B8Mode2Value.4
	popq	%rbx
	popq	%r14
	popq	%rbp
	.cfi_def_cfa %rsp, 8
	retq
.LBB23_2:                               # %func_B8Mode2Value.43
	.cfi_def_cfa %rbp, 16
	movl	%ebx, %edi
	movl	%r14d, %esi
	callq	B8Mode2Value.43
	popq	%rbx
	popq	%r14
	popq	%rbp
	.cfi_def_cfa %rsp, 8
	retq
.LBB23_3:                               # %func_B8Mode2Value.62
	.cfi_def_cfa %rbp, 16
	movl	%ebx, %edi
	movl	%r14d, %esi
	callq	B8Mode2Value.62
	popq	%rbx
	popq	%r14
	popq	%rbp
	.cfi_def_cfa %rsp, 8
	retq
.LBB23_4:                               # %func_B8Mode2Value.108
	.cfi_def_cfa %rbp, 16
	movl	%ebx, %edi
	movl	%r14d, %esi
	callq	B8Mode2Value.108
	popq	%rbx
	popq	%r14
	popq	%rbp
	.cfi_def_cfa %rsp, 8
	retq
.LBB23_5:                               # %func_B8Mode2Value.115
	.cfi_def_cfa %rbp, 16
	movl	%ebx, %edi
	movl	%r14d, %esi
	callq	B8Mode2Value.115
	popq	%rbx
	popq	%r14
	popq	%rbp
	.cfi_def_cfa %rsp, 8
	retq
.LBB23_6:                               # %func_B8Mode2Value.198
	.cfi_def_cfa %rbp, 16
	movl	%ebx, %edi
	movl	%r14d, %esi
	callq	B8Mode2Value.198
	popq	%rbx
	popq	%r14
	popq	%rbp
	.cfi_def_cfa %rsp, 8
	retq
.LBB23_7:                               # %ctrl0
	.cfi_def_cfa %rbp, 16
	cmpl	$1, %eax
	je	.LBB23_2
# %bb.8:                                # %ctrl1
	cmpl	$2, %eax
	je	.LBB23_3
# %bb.9:                                # %ctrl2
	cmpl	$3, %eax
	je	.LBB23_4
# %bb.10:                               # %ctrl3
	cmpl	$4, %eax
	je	.LBB23_5
	jmp	.LBB23_6
.Lfunc_end23:
	.size	B8Mode2Value, .Lfunc_end23-B8Mode2Value
	.cfi_endproc
                                        # -- End function
	.globl	writeMBLayer            # -- Begin function writeMBLayer
	.p2align	4, 0x90
	.type	writeMBLayer,@function
writeMBLayer:                           # @writeMBLayer
	.cfi_startproc
# %bb.0:                                # %rand_bb
	pushq	%rbp
	.cfi_def_cfa_offset 16
	.cfi_offset %rbp, -16
	movq	%rsp, %rbp
	.cfi_def_cfa_register %rbp
	pushq	%rbx
	pushq	%rax
	.cfi_offset %rbx, -24
	movl	%edi, %ebx
	callq	get_rand
	cmpl	$0, %eax
	jne	.LBB24_9
# %bb.1:                                # %func_writeMBLayer.15
	movl	%ebx, %edi
	callq	writeMBLayer.15
	addq	$8, %rsp
	popq	%rbx
	popq	%rbp
	.cfi_def_cfa %rsp, 8
	retq
.LBB24_2:                               # %func_writeMBLayer.97
	.cfi_def_cfa %rbp, 16
	movl	%ebx, %edi
	callq	writeMBLayer.97
	addq	$8, %rsp
	popq	%rbx
	popq	%rbp
	.cfi_def_cfa %rsp, 8
	retq
.LBB24_3:                               # %func_writeMBLayer.113
	.cfi_def_cfa %rbp, 16
	movl	%ebx, %edi
	callq	writeMBLayer.113
	addq	$8, %rsp
	popq	%rbx
	popq	%rbp
	.cfi_def_cfa %rsp, 8
	retq
.LBB24_4:                               # %func_writeMBLayer.156
	.cfi_def_cfa %rbp, 16
	movl	%ebx, %edi
	callq	writeMBLayer.156
	addq	$8, %rsp
	popq	%rbx
	popq	%rbp
	.cfi_def_cfa %rsp, 8
	retq
.LBB24_5:                               # %func_writeMBLayer.210
	.cfi_def_cfa %rbp, 16
	movl	%ebx, %edi
	callq	writeMBLayer.210
	addq	$8, %rsp
	popq	%rbx
	popq	%rbp
	.cfi_def_cfa %rsp, 8
	retq
.LBB24_6:                               # %func_writeMBLayer.234
	.cfi_def_cfa %rbp, 16
	movl	%ebx, %edi
	callq	writeMBLayer.234
	addq	$8, %rsp
	popq	%rbx
	popq	%rbp
	.cfi_def_cfa %rsp, 8
	retq
.LBB24_7:                               # %func_writeMBLayer.245
	.cfi_def_cfa %rbp, 16
	movl	%ebx, %edi
	callq	writeMBLayer.245
	addq	$8, %rsp
	popq	%rbx
	popq	%rbp
	.cfi_def_cfa %rsp, 8
	retq
.LBB24_8:                               # %func_writeMBLayer.251
	.cfi_def_cfa %rbp, 16
	movl	%ebx, %edi
	callq	writeMBLayer.251
	addq	$8, %rsp
	popq	%rbx
	popq	%rbp
	.cfi_def_cfa %rsp, 8
	retq
.LBB24_9:                               # %ctrl0
	.cfi_def_cfa %rbp, 16
	cmpl	$1, %eax
	je	.LBB24_2
# %bb.10:                               # %ctrl1
	cmpl	$2, %eax
	je	.LBB24_3
# %bb.11:                               # %ctrl2
	cmpl	$3, %eax
	je	.LBB24_4
# %bb.12:                               # %ctrl3
	cmpl	$4, %eax
	je	.LBB24_5
# %bb.13:                               # %ctrl4
	cmpl	$5, %eax
	je	.LBB24_6
# %bb.14:                               # %ctrl5
	cmpl	$6, %eax
	je	.LBB24_7
	jmp	.LBB24_8
.Lfunc_end24:
	.size	writeMBLayer, .Lfunc_end24-writeMBLayer
	.cfi_endproc
                                        # -- End function
	.globl	write_terminating_bit   # -- Begin function write_terminating_bit
	.p2align	4, 0x90
	.type	write_terminating_bit,@function
write_terminating_bit:                  # @write_terminating_bit
	.cfi_startproc
# %bb.0:                                # %rand_bb
	pushq	%rbp
	.cfi_def_cfa_offset 16
	.cfi_offset %rbp, -16
	movq	%rsp, %rbp
	.cfi_def_cfa_register %rbp
	pushq	%rbx
	pushq	%rax
	.cfi_offset %rbx, -24
	movl	%edi, %ebx
	callq	get_rand
	cmpl	$0, %eax
	jne	.LBB25_9
# %bb.1:                                # %func_write_terminating_bit.5
	movswl	%bx, %edi
	callq	write_terminating_bit.5
	addq	$8, %rsp
	popq	%rbx
	popq	%rbp
	.cfi_def_cfa %rsp, 8
	retq
.LBB25_2:                               # %func_write_terminating_bit.17
	.cfi_def_cfa %rbp, 16
	movswl	%bx, %edi
	callq	write_terminating_bit.17
	addq	$8, %rsp
	popq	%rbx
	popq	%rbp
	.cfi_def_cfa %rsp, 8
	retq
.LBB25_3:                               # %func_write_terminating_bit.58
	.cfi_def_cfa %rbp, 16
	movswl	%bx, %edi
	callq	write_terminating_bit.58
	addq	$8, %rsp
	popq	%rbx
	popq	%rbp
	.cfi_def_cfa %rsp, 8
	retq
.LBB25_4:                               # %func_write_terminating_bit.155
	.cfi_def_cfa %rbp, 16
	movswl	%bx, %edi
	callq	write_terminating_bit.155
	addq	$8, %rsp
	popq	%rbx
	popq	%rbp
	.cfi_def_cfa %rsp, 8
	retq
.LBB25_5:                               # %func_write_terminating_bit.185
	.cfi_def_cfa %rbp, 16
	movswl	%bx, %edi
	callq	write_terminating_bit.185
	addq	$8, %rsp
	popq	%rbx
	popq	%rbp
	.cfi_def_cfa %rsp, 8
	retq
.LBB25_6:                               # %func_write_terminating_bit.212
	.cfi_def_cfa %rbp, 16
	movswl	%bx, %edi
	callq	write_terminating_bit.212
	addq	$8, %rsp
	popq	%rbx
	popq	%rbp
	.cfi_def_cfa %rsp, 8
	retq
.LBB25_7:                               # %func_write_terminating_bit.222
	.cfi_def_cfa %rbp, 16
	movswl	%bx, %edi
	callq	write_terminating_bit.222
	addq	$8, %rsp
	popq	%rbx
	popq	%rbp
	.cfi_def_cfa %rsp, 8
	retq
.LBB25_8:                               # %func_write_terminating_bit.242
	.cfi_def_cfa %rbp, 16
	movswl	%bx, %edi
	callq	write_terminating_bit.242
	addq	$8, %rsp
	popq	%rbx
	popq	%rbp
	.cfi_def_cfa %rsp, 8
	retq
.LBB25_9:                               # %ctrl0
	.cfi_def_cfa %rbp, 16
	cmpl	$1, %eax
	je	.LBB25_2
# %bb.10:                               # %ctrl1
	cmpl	$2, %eax
	je	.LBB25_3
# %bb.11:                               # %ctrl2
	cmpl	$3, %eax
	je	.LBB25_4
# %bb.12:                               # %ctrl3
	cmpl	$4, %eax
	je	.LBB25_5
# %bb.13:                               # %ctrl4
	cmpl	$5, %eax
	je	.LBB25_6
# %bb.14:                               # %ctrl5
	cmpl	$6, %eax
	je	.LBB25_7
	jmp	.LBB25_8
.Lfunc_end25:
	.size	write_terminating_bit, .Lfunc_end25-write_terminating_bit
	.cfi_endproc
                                        # -- End function
	.globl	writeChromaIntraPredMode # -- Begin function writeChromaIntraPredMode
	.p2align	4, 0x90
	.type	writeChromaIntraPredMode,@function
writeChromaIntraPredMode:               # @writeChromaIntraPredMode
	.cfi_startproc
# %bb.0:                                # %rand_bb
	pushq	%rbp
	.cfi_def_cfa_offset 16
	.cfi_offset %rbp, -16
	movq	%rsp, %rbp
	.cfi_def_cfa_register %rbp
	callq	get_rand
	cmpl	$0, %eax
	jne	.LBB26_9
# %bb.1:                                # %func_writeChromaIntraPredMode.41
	callq	writeChromaIntraPredMode.41
	popq	%rbp
	.cfi_def_cfa %rsp, 8
	retq
.LBB26_2:                               # %func_writeChromaIntraPredMode.76
	.cfi_def_cfa %rbp, 16
	callq	writeChromaIntraPredMode.76
	popq	%rbp
	.cfi_def_cfa %rsp, 8
	retq
.LBB26_3:                               # %func_writeChromaIntraPredMode.114
	.cfi_def_cfa %rbp, 16
	callq	writeChromaIntraPredMode.114
	popq	%rbp
	.cfi_def_cfa %rsp, 8
	retq
.LBB26_4:                               # %func_writeChromaIntraPredMode.118
	.cfi_def_cfa %rbp, 16
	callq	writeChromaIntraPredMode.118
	popq	%rbp
	.cfi_def_cfa %rsp, 8
	retq
.LBB26_5:                               # %func_writeChromaIntraPredMode.130
	.cfi_def_cfa %rbp, 16
	callq	writeChromaIntraPredMode.130
	popq	%rbp
	.cfi_def_cfa %rsp, 8
	retq
.LBB26_6:                               # %func_writeChromaIntraPredMode.131
	.cfi_def_cfa %rbp, 16
	callq	writeChromaIntraPredMode.131
	popq	%rbp
	.cfi_def_cfa %rsp, 8
	retq
.LBB26_7:                               # %func_writeChromaIntraPredMode.165
	.cfi_def_cfa %rbp, 16
	callq	writeChromaIntraPredMode.165
	popq	%rbp
	.cfi_def_cfa %rsp, 8
	retq
.LBB26_8:                               # %func_writeChromaIntraPredMode.177
	.cfi_def_cfa %rbp, 16
	callq	writeChromaIntraPredMode.177
	popq	%rbp
	.cfi_def_cfa %rsp, 8
	retq
.LBB26_9:                               # %ctrl0
	.cfi_def_cfa %rbp, 16
	cmpl	$1, %eax
	je	.LBB26_2
# %bb.10:                               # %ctrl1
	cmpl	$2, %eax
	je	.LBB26_3
# %bb.11:                               # %ctrl2
	cmpl	$3, %eax
	je	.LBB26_4
# %bb.12:                               # %ctrl3
	cmpl	$4, %eax
	je	.LBB26_5
# %bb.13:                               # %ctrl4
	cmpl	$5, %eax
	je	.LBB26_6
# %bb.14:                               # %ctrl5
	cmpl	$6, %eax
	je	.LBB26_7
	jmp	.LBB26_8
.Lfunc_end26:
	.size	writeChromaIntraPredMode, .Lfunc_end26-writeChromaIntraPredMode
	.cfi_endproc
                                        # -- End function
	.globl	set_last_dquant         # -- Begin function set_last_dquant
	.p2align	4, 0x90
	.type	set_last_dquant,@function
set_last_dquant:                        # @set_last_dquant
	.cfi_startproc
# %bb.0:                                # %entry
	pushq	%rbp
	.cfi_def_cfa_offset 16
	.cfi_offset %rbp, -16
	movq	%rsp, %rbp
	.cfi_def_cfa_register %rbp
	movq	img, %rax
	movq	14168(%rax), %rax
	movq	img, %rcx
	movslq	12(%rcx), %rcx
	imulq	$632, %rcx, %rcx        # imm = 0x278
	addq	%rcx, %rax
	movq	%rax, -8(%rbp)
	movq	-8(%rbp), %rax
	cmpl	$9, 72(%rax)
	je	.LBB27_4
# %bb.1:                                # %land.lhs.true
	movq	-8(%rbp), %rax
	cmpl	$10, 72(%rax)
	je	.LBB27_4
# %bb.2:                                # %land.lhs.true3
	movq	-8(%rbp), %rax
	cmpl	$13, 72(%rax)
	je	.LBB27_4
# %bb.3:                                # %land.lhs.true6
	movq	-8(%rbp), %rax
	cmpl	$0, 72(%rax)
	jne	.LBB27_9
.LBB27_4:                               # %lor.lhs.false
	movq	-8(%rbp), %rax
	cmpl	$9, 72(%rax)
	je	.LBB27_9
# %bb.5:                                # %lor.lhs.false11
	movq	-8(%rbp), %rax
	cmpl	$10, 72(%rax)
	je	.LBB27_9
# %bb.6:                                # %lor.lhs.false14
	movq	-8(%rbp), %rax
	cmpl	$13, 72(%rax)
	je	.LBB27_9
# %bb.7:                                # %lor.lhs.false17
	movq	img, %rax
	cmpl	$1, 24(%rax)
	jne	.LBB27_10
# %bb.8:                                # %land.lhs.true19
	movq	-8(%rbp), %rax
	cmpl	$0, 460(%rax)
	je	.LBB27_10
.LBB27_9:                               # %if.then
	movq	-8(%rbp), %rax
	movl	8(%rax), %eax
	movl	%eax, last_dquant
	jmp	.LBB27_11
.LBB27_10:                              # %if.else
	movl	$0, last_dquant
.LBB27_11:                              # %if.end
	popq	%rbp
	.cfi_def_cfa %rsp, 8
	retq
.Lfunc_end27:
	.size	set_last_dquant, .Lfunc_end27-set_last_dquant
	.cfi_endproc
                                        # -- End function
	.globl	write_one_macroblock    # -- Begin function write_one_macroblock
	.p2align	4, 0x90
	.type	write_one_macroblock,@function
write_one_macroblock:                   # @write_one_macroblock
	.cfi_startproc
# %bb.0:                                # %rand_bb
	pushq	%rbp
	.cfi_def_cfa_offset 16
	.cfi_offset %rbp, -16
	movq	%rsp, %rbp
	.cfi_def_cfa_register %rbp
	pushq	%rbx
	pushq	%rax
	.cfi_offset %rbx, -24
	movl	%edi, %ebx
	callq	get_rand
	cmpl	$0, %eax
	jne	.LBB28_9
# %bb.1:                                # %func_write_one_macroblock.34
	movl	%ebx, %edi
	callq	write_one_macroblock.34
	addq	$8, %rsp
	popq	%rbx
	popq	%rbp
	.cfi_def_cfa %rsp, 8
	retq
.LBB28_2:                               # %func_write_one_macroblock.50
	.cfi_def_cfa %rbp, 16
	movl	%ebx, %edi
	callq	write_one_macroblock.50
	addq	$8, %rsp
	popq	%rbx
	popq	%rbp
	.cfi_def_cfa %rsp, 8
	retq
.LBB28_3:                               # %func_write_one_macroblock.193
	.cfi_def_cfa %rbp, 16
	movl	%ebx, %edi
	callq	write_one_macroblock.193
	addq	$8, %rsp
	popq	%rbx
	popq	%rbp
	.cfi_def_cfa %rsp, 8
	retq
.LBB28_4:                               # %func_write_one_macroblock.205
	.cfi_def_cfa %rbp, 16
	movl	%ebx, %edi
	callq	write_one_macroblock.205
	addq	$8, %rsp
	popq	%rbx
	popq	%rbp
	.cfi_def_cfa %rsp, 8
	retq
.LBB28_5:                               # %func_write_one_macroblock.247
	.cfi_def_cfa %rbp, 16
	movl	%ebx, %edi
	callq	write_one_macroblock.247
	addq	$8, %rsp
	popq	%rbx
	popq	%rbp
	.cfi_def_cfa %rsp, 8
	retq
.LBB28_6:                               # %func_write_one_macroblock.249
	.cfi_def_cfa %rbp, 16
	movl	%ebx, %edi
	callq	write_one_macroblock.249
	addq	$8, %rsp
	popq	%rbx
	popq	%rbp
	.cfi_def_cfa %rsp, 8
	retq
.LBB28_7:                               # %func_write_one_macroblock.256
	.cfi_def_cfa %rbp, 16
	movl	%ebx, %edi
	callq	write_one_macroblock.256
	addq	$8, %rsp
	popq	%rbx
	popq	%rbp
	.cfi_def_cfa %rsp, 8
	retq
.LBB28_8:                               # %func_write_one_macroblock.268
	.cfi_def_cfa %rbp, 16
	movl	%ebx, %edi
	callq	write_one_macroblock.268
	addq	$8, %rsp
	popq	%rbx
	popq	%rbp
	.cfi_def_cfa %rsp, 8
	retq
.LBB28_9:                               # %ctrl0
	.cfi_def_cfa %rbp, 16
	cmpl	$1, %eax
	je	.LBB28_2
# %bb.10:                               # %ctrl1
	cmpl	$2, %eax
	je	.LBB28_3
# %bb.11:                               # %ctrl2
	cmpl	$3, %eax
	je	.LBB28_4
# %bb.12:                               # %ctrl3
	cmpl	$4, %eax
	je	.LBB28_5
# %bb.13:                               # %ctrl4
	cmpl	$5, %eax
	je	.LBB28_6
# %bb.14:                               # %ctrl5
	cmpl	$6, %eax
	je	.LBB28_7
	jmp	.LBB28_8
.Lfunc_end28:
	.size	write_one_macroblock, .Lfunc_end28-write_one_macroblock
	.cfi_endproc
                                        # -- End function
	.globl	BType2CtxRef            # -- Begin function BType2CtxRef
	.p2align	4, 0x90
	.type	BType2CtxRef,@function
BType2CtxRef:                           # @BType2CtxRef
	.cfi_startproc
# %bb.0:                                # %rand_bb
	pushq	%rbp
	.cfi_def_cfa_offset 16
	.cfi_offset %rbp, -16
	movq	%rsp, %rbp
	.cfi_def_cfa_register %rbp
	pushq	%rbx
	pushq	%rax
	.cfi_offset %rbx, -24
	movl	%edi, %ebx
	callq	get_rand
	cmpl	$0, %eax
	jne	.LBB29_2
# %bb.1:                                # %func_BType2CtxRef.179
	movl	%ebx, %edi
	callq	BType2CtxRef.179
	addq	$8, %rsp
	popq	%rbx
	popq	%rbp
	.cfi_def_cfa %rsp, 8
	retq
.LBB29_2:                               # %func_BType2CtxRef.220
	.cfi_def_cfa %rbp, 16
	movl	%ebx, %edi
	callq	BType2CtxRef.220
	addq	$8, %rsp
	popq	%rbx
	popq	%rbp
	.cfi_def_cfa %rsp, 8
	retq
.Lfunc_end29:
	.size	BType2CtxRef, .Lfunc_end29-BType2CtxRef
	.cfi_endproc
                                        # -- End function
	.globl	writeReferenceFrame     # -- Begin function writeReferenceFrame
	.p2align	4, 0x90
	.type	writeReferenceFrame,@function
writeReferenceFrame:                    # @writeReferenceFrame
	.cfi_startproc
# %bb.0:                                # %rand_bb
	pushq	%rbp
	.cfi_def_cfa_offset 16
	.cfi_offset %rbp, -16
	movq	%rsp, %rbp
	.cfi_def_cfa_register %rbp
	pushq	%r15
	pushq	%r14
	pushq	%r13
	pushq	%r12
	pushq	%rbx
	pushq	%rax
	.cfi_offset %rbx, -56
	.cfi_offset %r12, -48
	.cfi_offset %r13, -40
	.cfi_offset %r14, -32
	.cfi_offset %r15, -24
	movl	%r8d, %r14d
	movl	%ecx, %r15d
	movl	%edx, %r12d
	movl	%esi, %r13d
	movl	%edi, %ebx
	callq	get_rand
	cmpl	$0, %eax
	jne	.LBB30_9
# %bb.1:                                # %func_writeReferenceFrame.2
	movl	%ebx, %edi
	movl	%r13d, %esi
	movl	%r12d, %edx
	movl	%r15d, %ecx
	movl	%r14d, %r8d
	callq	writeReferenceFrame.2
	addq	$8, %rsp
	popq	%rbx
	popq	%r12
	popq	%r13
	popq	%r14
	popq	%r15
	popq	%rbp
	.cfi_def_cfa %rsp, 8
	retq
.LBB30_2:                               # %func_writeReferenceFrame.7
	.cfi_def_cfa %rbp, 16
	movl	%ebx, %edi
	movl	%r13d, %esi
	movl	%r12d, %edx
	movl	%r15d, %ecx
	movl	%r14d, %r8d
	callq	writeReferenceFrame.7
	addq	$8, %rsp
	popq	%rbx
	popq	%r12
	popq	%r13
	popq	%r14
	popq	%r15
	popq	%rbp
	.cfi_def_cfa %rsp, 8
	retq
.LBB30_3:                               # %func_writeReferenceFrame.22
	.cfi_def_cfa %rbp, 16
	movl	%ebx, %edi
	movl	%r13d, %esi
	movl	%r12d, %edx
	movl	%r15d, %ecx
	movl	%r14d, %r8d
	callq	writeReferenceFrame.22
	addq	$8, %rsp
	popq	%rbx
	popq	%r12
	popq	%r13
	popq	%r14
	popq	%r15
	popq	%rbp
	.cfi_def_cfa %rsp, 8
	retq
.LBB30_4:                               # %func_writeReferenceFrame.27
	.cfi_def_cfa %rbp, 16
	movl	%ebx, %edi
	movl	%r13d, %esi
	movl	%r12d, %edx
	movl	%r15d, %ecx
	movl	%r14d, %r8d
	callq	writeReferenceFrame.27
	addq	$8, %rsp
	popq	%rbx
	popq	%r12
	popq	%r13
	popq	%r14
	popq	%r15
	popq	%rbp
	.cfi_def_cfa %rsp, 8
	retq
.LBB30_5:                               # %func_writeReferenceFrame.49
	.cfi_def_cfa %rbp, 16
	movl	%ebx, %edi
	movl	%r13d, %esi
	movl	%r12d, %edx
	movl	%r15d, %ecx
	movl	%r14d, %r8d
	callq	writeReferenceFrame.49
	addq	$8, %rsp
	popq	%rbx
	popq	%r12
	popq	%r13
	popq	%r14
	popq	%r15
	popq	%rbp
	.cfi_def_cfa %rsp, 8
	retq
.LBB30_6:                               # %func_writeReferenceFrame.63
	.cfi_def_cfa %rbp, 16
	movl	%ebx, %edi
	movl	%r13d, %esi
	movl	%r12d, %edx
	movl	%r15d, %ecx
	movl	%r14d, %r8d
	callq	writeReferenceFrame.63
	addq	$8, %rsp
	popq	%rbx
	popq	%r12
	popq	%r13
	popq	%r14
	popq	%r15
	popq	%rbp
	.cfi_def_cfa %rsp, 8
	retq
.LBB30_7:                               # %func_writeReferenceFrame.102
	.cfi_def_cfa %rbp, 16
	movl	%ebx, %edi
	movl	%r13d, %esi
	movl	%r12d, %edx
	movl	%r15d, %ecx
	movl	%r14d, %r8d
	callq	writeReferenceFrame.102
	addq	$8, %rsp
	popq	%rbx
	popq	%r12
	popq	%r13
	popq	%r14
	popq	%r15
	popq	%rbp
	.cfi_def_cfa %rsp, 8
	retq
.LBB30_8:                               # %func_writeReferenceFrame.176
	.cfi_def_cfa %rbp, 16
	movl	%ebx, %edi
	movl	%r13d, %esi
	movl	%r12d, %edx
	movl	%r15d, %ecx
	movl	%r14d, %r8d
	callq	writeReferenceFrame.176
	addq	$8, %rsp
	popq	%rbx
	popq	%r12
	popq	%r13
	popq	%r14
	popq	%r15
	popq	%rbp
	.cfi_def_cfa %rsp, 8
	retq
.LBB30_9:                               # %ctrl0
	.cfi_def_cfa %rbp, 16
	cmpl	$1, %eax
	je	.LBB30_2
# %bb.10:                               # %ctrl1
	cmpl	$2, %eax
	je	.LBB30_3
# %bb.11:                               # %ctrl2
	cmpl	$3, %eax
	je	.LBB30_4
# %bb.12:                               # %ctrl3
	cmpl	$4, %eax
	je	.LBB30_5
# %bb.13:                               # %ctrl4
	cmpl	$5, %eax
	je	.LBB30_6
# %bb.14:                               # %ctrl5
	cmpl	$6, %eax
	je	.LBB30_7
	jmp	.LBB30_8
.Lfunc_end30:
	.size	writeReferenceFrame, .Lfunc_end30-writeReferenceFrame
	.cfi_endproc
                                        # -- End function
	.globl	writeMotionVector8x8    # -- Begin function writeMotionVector8x8
	.p2align	4, 0x90
	.type	writeMotionVector8x8,@function
writeMotionVector8x8:                   # @writeMotionVector8x8
	.cfi_startproc
# %bb.0:                                # %rand_bb
	pushq	%rbp
	.cfi_def_cfa_offset 16
	.cfi_offset %rbp, -16
	movq	%rsp, %rbp
	.cfi_def_cfa_register %rbp
	pushq	%r15
	pushq	%r14
	pushq	%r13
	pushq	%r12
	pushq	%rbx
	subq	$24, %rsp
	.cfi_offset %rbx, -56
	.cfi_offset %r12, -48
	.cfi_offset %r13, -40
	.cfi_offset %r14, -32
	.cfi_offset %r15, -24
	movl	%r9d, -44(%rbp)         # 4-byte Spill
	movl	%r8d, %r13d
	movl	%ecx, %r15d
	movl	%edx, %ebx
	movl	%esi, %r14d
	movl	%edi, %r12d
	callq	get_rand
	cmpl	$0, %eax
	jne	.LBB31_9
# %bb.1:                                # %func_writeMotionVector8x8.31
	movl	%r12d, %edi
	movl	%r14d, %esi
	movl	%ebx, %edx
	movl	%r15d, %ecx
	movl	%r13d, %r8d
	movl	-44(%rbp), %r9d         # 4-byte Reload
	movl	16(%rbp), %eax
	movl	%eax, (%rsp)
	callq	writeMotionVector8x8.31
	addq	$24, %rsp
	popq	%rbx
	popq	%r12
	popq	%r13
	popq	%r14
	popq	%r15
	popq	%rbp
	.cfi_def_cfa %rsp, 8
	retq
.LBB31_2:                               # %func_writeMotionVector8x8.82
	.cfi_def_cfa %rbp, 16
	movl	%r12d, %edi
	movl	%r14d, %esi
	movl	%ebx, %edx
	movl	%r15d, %ecx
	movl	%r13d, %r8d
	movl	%r10d, (%rsp)
	callq	writeMotionVector8x8.82
	addq	$24, %rsp
	popq	%rbx
	popq	%r12
	popq	%r13
	popq	%r14
	popq	%r15
	popq	%rbp
	.cfi_def_cfa %rsp, 8
	retq
.LBB31_3:                               # %func_writeMotionVector8x8.104
	.cfi_def_cfa %rbp, 16
	movl	%r12d, %edi
	movl	%r14d, %esi
	movl	%ebx, %edx
	movl	%r15d, %ecx
	movl	%r13d, %r8d
	movl	%r10d, (%rsp)
	callq	writeMotionVector8x8.104
	addq	$24, %rsp
	popq	%rbx
	popq	%r12
	popq	%r13
	popq	%r14
	popq	%r15
	popq	%rbp
	.cfi_def_cfa %rsp, 8
	retq
.LBB31_4:                               # %func_writeMotionVector8x8.106
	.cfi_def_cfa %rbp, 16
	movl	%r12d, %edi
	movl	%r14d, %esi
	movl	%ebx, %edx
	movl	%r15d, %ecx
	movl	%r13d, %r8d
	movl	%r10d, (%rsp)
	callq	writeMotionVector8x8.106
	addq	$24, %rsp
	popq	%rbx
	popq	%r12
	popq	%r13
	popq	%r14
	popq	%r15
	popq	%rbp
	.cfi_def_cfa %rsp, 8
	retq
.LBB31_5:                               # %func_writeMotionVector8x8.154
	.cfi_def_cfa %rbp, 16
	movl	%r12d, %edi
	movl	%r14d, %esi
	movl	%ebx, %edx
	movl	%r15d, %ecx
	movl	%r13d, %r8d
	movl	%r10d, (%rsp)
	callq	writeMotionVector8x8.154
	addq	$24, %rsp
	popq	%rbx
	popq	%r12
	popq	%r13
	popq	%r14
	popq	%r15
	popq	%rbp
	.cfi_def_cfa %rsp, 8
	retq
.LBB31_6:                               # %func_writeMotionVector8x8.157
	.cfi_def_cfa %rbp, 16
	movl	%r12d, %edi
	movl	%r14d, %esi
	movl	%ebx, %edx
	movl	%r15d, %ecx
	movl	%r13d, %r8d
	movl	%r10d, (%rsp)
	callq	writeMotionVector8x8.157
	addq	$24, %rsp
	popq	%rbx
	popq	%r12
	popq	%r13
	popq	%r14
	popq	%r15
	popq	%rbp
	.cfi_def_cfa %rsp, 8
	retq
.LBB31_7:                               # %func_writeMotionVector8x8.204
	.cfi_def_cfa %rbp, 16
	movl	%r10d, (%rsp)
	callq	writeMotionVector8x8.204
	addq	$24, %rsp
	popq	%rbx
	popq	%r12
	popq	%r13
	popq	%r14
	popq	%r15
	popq	%rbp
	.cfi_def_cfa %rsp, 8
	retq
.LBB31_8:                               # %func_writeMotionVector8x8.229
	.cfi_def_cfa %rbp, 16
	movl	%r10d, (%rsp)
	callq	writeMotionVector8x8.229
	addq	$24, %rsp
	popq	%rbx
	popq	%r12
	popq	%r13
	popq	%r14
	popq	%r15
	popq	%rbp
	.cfi_def_cfa %rsp, 8
	retq
.LBB31_9:                               # %ctrl0
	.cfi_def_cfa %rbp, 16
	movl	-44(%rbp), %r9d         # 4-byte Reload
	movl	16(%rbp), %r10d
	cmpl	$1, %eax
	je	.LBB31_2
# %bb.10:                               # %ctrl1
	cmpl	$2, %eax
	je	.LBB31_3
# %bb.11:                               # %ctrl2
	cmpl	$3, %eax
	je	.LBB31_4
# %bb.12:                               # %ctrl3
	cmpl	$4, %eax
	je	.LBB31_5
# %bb.13:                               # %ctrl4
	cmpl	$5, %eax
	je	.LBB31_6
# %bb.14:                               # %ctrl5
	cmpl	$6, %eax
	movl	%r13d, %r8d
	movl	%r15d, %ecx
	movl	%ebx, %edx
	movl	%r14d, %esi
	movl	%r12d, %edi
	je	.LBB31_7
	jmp	.LBB31_8
.Lfunc_end31:
	.size	writeMotionVector8x8, .Lfunc_end31-writeMotionVector8x8
	.cfi_endproc
                                        # -- End function
	.globl	writeMotionInfo2NAL     # -- Begin function writeMotionInfo2NAL
	.p2align	4, 0x90
	.type	writeMotionInfo2NAL,@function
writeMotionInfo2NAL:                    # @writeMotionInfo2NAL
	.cfi_startproc
# %bb.0:                                # %rand_bb
	pushq	%rbp
	.cfi_def_cfa_offset 16
	.cfi_offset %rbp, -16
	movq	%rsp, %rbp
	.cfi_def_cfa_register %rbp
	callq	get_rand
	cmpl	$0, %eax
	jne	.LBB32_9
# %bb.1:                                # %func_writeMotionInfo2NAL.53
	callq	writeMotionInfo2NAL.53
	popq	%rbp
	.cfi_def_cfa %rsp, 8
	retq
.LBB32_2:                               # %func_writeMotionInfo2NAL.74
	.cfi_def_cfa %rbp, 16
	callq	writeMotionInfo2NAL.74
	popq	%rbp
	.cfi_def_cfa %rsp, 8
	retq
.LBB32_3:                               # %func_writeMotionInfo2NAL.145
	.cfi_def_cfa %rbp, 16
	callq	writeMotionInfo2NAL.145
	popq	%rbp
	.cfi_def_cfa %rsp, 8
	retq
.LBB32_4:                               # %func_writeMotionInfo2NAL.223
	.cfi_def_cfa %rbp, 16
	callq	writeMotionInfo2NAL.223
	popq	%rbp
	.cfi_def_cfa %rsp, 8
	retq
.LBB32_5:                               # %func_writeMotionInfo2NAL.263
	.cfi_def_cfa %rbp, 16
	callq	writeMotionInfo2NAL.263
	popq	%rbp
	.cfi_def_cfa %rsp, 8
	retq
.LBB32_6:                               # %func_writeMotionInfo2NAL.277
	.cfi_def_cfa %rbp, 16
	callq	writeMotionInfo2NAL.277
	popq	%rbp
	.cfi_def_cfa %rsp, 8
	retq
.LBB32_7:                               # %func_writeMotionInfo2NAL.279
	.cfi_def_cfa %rbp, 16
	callq	writeMotionInfo2NAL.279
	popq	%rbp
	.cfi_def_cfa %rsp, 8
	retq
.LBB32_8:                               # %func_writeMotionInfo2NAL.281
	.cfi_def_cfa %rbp, 16
	callq	writeMotionInfo2NAL.281
	popq	%rbp
	.cfi_def_cfa %rsp, 8
	retq
.LBB32_9:                               # %ctrl0
	.cfi_def_cfa %rbp, 16
	cmpl	$1, %eax
	je	.LBB32_2
# %bb.10:                               # %ctrl1
	cmpl	$2, %eax
	je	.LBB32_3
# %bb.11:                               # %ctrl2
	cmpl	$3, %eax
	je	.LBB32_4
# %bb.12:                               # %ctrl3
	cmpl	$4, %eax
	je	.LBB32_5
# %bb.13:                               # %ctrl4
	cmpl	$5, %eax
	je	.LBB32_6
# %bb.14:                               # %ctrl5
	cmpl	$6, %eax
	je	.LBB32_7
	jmp	.LBB32_8
.Lfunc_end32:
	.size	writeMotionInfo2NAL, .Lfunc_end32-writeMotionInfo2NAL
	.cfi_endproc
                                        # -- End function
	.globl	writeChromaCoeff        # -- Begin function writeChromaCoeff
	.p2align	4, 0x90
	.type	writeChromaCoeff,@function
writeChromaCoeff:                       # @writeChromaCoeff
	.cfi_startproc
# %bb.0:                                # %rand_bb
	pushq	%rbp
	.cfi_def_cfa_offset 16
	.cfi_offset %rbp, -16
	movq	%rsp, %rbp
	.cfi_def_cfa_register %rbp
	callq	get_rand
	cmpl	$0, %eax
	jne	.LBB33_9
# %bb.1:                                # %func_writeChromaCoeff.37
	callq	writeChromaCoeff.37
	popq	%rbp
	.cfi_def_cfa %rsp, 8
	retq
.LBB33_2:                               # %func_writeChromaCoeff.89
	.cfi_def_cfa %rbp, 16
	callq	writeChromaCoeff.89
	popq	%rbp
	.cfi_def_cfa %rsp, 8
	retq
.LBB33_3:                               # %func_writeChromaCoeff.160
	.cfi_def_cfa %rbp, 16
	callq	writeChromaCoeff.160
	popq	%rbp
	.cfi_def_cfa %rsp, 8
	retq
.LBB33_4:                               # %func_writeChromaCoeff.181
	.cfi_def_cfa %rbp, 16
	callq	writeChromaCoeff.181
	popq	%rbp
	.cfi_def_cfa %rsp, 8
	retq
.LBB33_5:                               # %func_writeChromaCoeff.189
	.cfi_def_cfa %rbp, 16
	callq	writeChromaCoeff.189
	popq	%rbp
	.cfi_def_cfa %rsp, 8
	retq
.LBB33_6:                               # %func_writeChromaCoeff.211
	.cfi_def_cfa %rbp, 16
	callq	writeChromaCoeff.211
	popq	%rbp
	.cfi_def_cfa %rsp, 8
	retq
.LBB33_7:                               # %func_writeChromaCoeff.226
	.cfi_def_cfa %rbp, 16
	callq	writeChromaCoeff.226
	popq	%rbp
	.cfi_def_cfa %rsp, 8
	retq
.LBB33_8:                               # %func_writeChromaCoeff.243
	.cfi_def_cfa %rbp, 16
	callq	writeChromaCoeff.243
	popq	%rbp
	.cfi_def_cfa %rsp, 8
	retq
.LBB33_9:                               # %ctrl0
	.cfi_def_cfa %rbp, 16
	cmpl	$1, %eax
	je	.LBB33_2
# %bb.10:                               # %ctrl1
	cmpl	$2, %eax
	je	.LBB33_3
# %bb.11:                               # %ctrl2
	cmpl	$3, %eax
	je	.LBB33_4
# %bb.12:                               # %ctrl3
	cmpl	$4, %eax
	je	.LBB33_5
# %bb.13:                               # %ctrl4
	cmpl	$5, %eax
	je	.LBB33_6
# %bb.14:                               # %ctrl5
	cmpl	$6, %eax
	je	.LBB33_7
	jmp	.LBB33_8
.Lfunc_end33:
	.size	writeChromaCoeff, .Lfunc_end33-writeChromaCoeff
	.cfi_endproc
                                        # -- End function
	.globl	writeCoeff4x4_CAVLC     # -- Begin function writeCoeff4x4_CAVLC
	.p2align	4, 0x90
	.type	writeCoeff4x4_CAVLC,@function
writeCoeff4x4_CAVLC:                    # @writeCoeff4x4_CAVLC
	.cfi_startproc
# %bb.0:                                # %rand_bb
	pushq	%rbp
	.cfi_def_cfa_offset 16
	.cfi_offset %rbp, -16
	movq	%rsp, %rbp
	.cfi_def_cfa_register %rbp
	pushq	%r15
	pushq	%r14
	pushq	%r12
	pushq	%rbx
	.cfi_offset %rbx, -48
	.cfi_offset %r12, -40
	.cfi_offset %r14, -32
	.cfi_offset %r15, -24
	movl	%ecx, %r14d
	movl	%edx, %r15d
	movl	%esi, %r12d
	movl	%edi, %ebx
	callq	get_rand
	cmpl	$0, %eax
	jne	.LBB34_9
# %bb.1:                                # %func_writeCoeff4x4_CAVLC.1
	movl	%ebx, %edi
	movl	%r12d, %esi
	movl	%r15d, %edx
	movl	%r14d, %ecx
	callq	writeCoeff4x4_CAVLC.1
	popq	%rbx
	popq	%r12
	popq	%r14
	popq	%r15
	popq	%rbp
	.cfi_def_cfa %rsp, 8
	retq
.LBB34_2:                               # %func_writeCoeff4x4_CAVLC.70
	.cfi_def_cfa %rbp, 16
	movl	%ebx, %edi
	movl	%r12d, %esi
	movl	%r15d, %edx
	movl	%r14d, %ecx
	callq	writeCoeff4x4_CAVLC.70
	popq	%rbx
	popq	%r12
	popq	%r14
	popq	%r15
	popq	%rbp
	.cfi_def_cfa %rsp, 8
	retq
.LBB34_3:                               # %func_writeCoeff4x4_CAVLC.98
	.cfi_def_cfa %rbp, 16
	movl	%ebx, %edi
	movl	%r12d, %esi
	movl	%r15d, %edx
	movl	%r14d, %ecx
	callq	writeCoeff4x4_CAVLC.98
	popq	%rbx
	popq	%r12
	popq	%r14
	popq	%r15
	popq	%rbp
	.cfi_def_cfa %rsp, 8
	retq
.LBB34_4:                               # %func_writeCoeff4x4_CAVLC.100
	.cfi_def_cfa %rbp, 16
	movl	%ebx, %edi
	movl	%r12d, %esi
	movl	%r15d, %edx
	movl	%r14d, %ecx
	callq	writeCoeff4x4_CAVLC.100
	popq	%rbx
	popq	%r12
	popq	%r14
	popq	%r15
	popq	%rbp
	.cfi_def_cfa %rsp, 8
	retq
.LBB34_5:                               # %func_writeCoeff4x4_CAVLC.117
	.cfi_def_cfa %rbp, 16
	movl	%ebx, %edi
	movl	%r12d, %esi
	movl	%r15d, %edx
	movl	%r14d, %ecx
	callq	writeCoeff4x4_CAVLC.117
	popq	%rbx
	popq	%r12
	popq	%r14
	popq	%r15
	popq	%rbp
	.cfi_def_cfa %rsp, 8
	retq
.LBB34_6:                               # %func_writeCoeff4x4_CAVLC.170
	.cfi_def_cfa %rbp, 16
	movl	%ebx, %edi
	movl	%r12d, %esi
	movl	%r15d, %edx
	movl	%r14d, %ecx
	callq	writeCoeff4x4_CAVLC.170
	popq	%rbx
	popq	%r12
	popq	%r14
	popq	%r15
	popq	%rbp
	.cfi_def_cfa %rsp, 8
	retq
.LBB34_7:                               # %func_writeCoeff4x4_CAVLC.184
	.cfi_def_cfa %rbp, 16
	movl	%ebx, %edi
	movl	%r12d, %esi
	movl	%r15d, %edx
	movl	%r14d, %ecx
	callq	writeCoeff4x4_CAVLC.184
	popq	%rbx
	popq	%r12
	popq	%r14
	popq	%r15
	popq	%rbp
	.cfi_def_cfa %rsp, 8
	retq
.LBB34_8:                               # %func_writeCoeff4x4_CAVLC.215
	.cfi_def_cfa %rbp, 16
	movl	%ebx, %edi
	movl	%r12d, %esi
	movl	%r15d, %edx
	movl	%r14d, %ecx
	callq	writeCoeff4x4_CAVLC.215
	popq	%rbx
	popq	%r12
	popq	%r14
	popq	%r15
	popq	%rbp
	.cfi_def_cfa %rsp, 8
	retq
.LBB34_9:                               # %ctrl0
	.cfi_def_cfa %rbp, 16
	cmpl	$1, %eax
	je	.LBB34_2
# %bb.10:                               # %ctrl1
	cmpl	$2, %eax
	je	.LBB34_3
# %bb.11:                               # %ctrl2
	cmpl	$3, %eax
	je	.LBB34_4
# %bb.12:                               # %ctrl3
	cmpl	$4, %eax
	je	.LBB34_5
# %bb.13:                               # %ctrl4
	cmpl	$5, %eax
	je	.LBB34_6
# %bb.14:                               # %ctrl5
	cmpl	$6, %eax
	je	.LBB34_7
	jmp	.LBB34_8
.Lfunc_end34:
	.size	writeCoeff4x4_CAVLC, .Lfunc_end34-writeCoeff4x4_CAVLC
	.cfi_endproc
                                        # -- End function
	.globl	writeLumaCoeff4x4_CABAC # -- Begin function writeLumaCoeff4x4_CABAC
	.p2align	4, 0x90
	.type	writeLumaCoeff4x4_CABAC,@function
writeLumaCoeff4x4_CABAC:                # @writeLumaCoeff4x4_CABAC
	.cfi_startproc
# %bb.0:                                # %rand_bb
	pushq	%rbp
	.cfi_def_cfa_offset 16
	.cfi_offset %rbp, -16
	movq	%rsp, %rbp
	.cfi_def_cfa_register %rbp
	pushq	%r15
	pushq	%r14
	pushq	%rbx
	pushq	%rax
	.cfi_offset %rbx, -40
	.cfi_offset %r14, -32
	.cfi_offset %r15, -24
	movl	%edx, %r14d
	movl	%esi, %r15d
	movl	%edi, %ebx
	callq	get_rand
	cmpl	$0, %eax
	jne	.LBB35_9
# %bb.1:                                # %func_writeLumaCoeff4x4_CABAC.19
	movl	%ebx, %edi
	movl	%r15d, %esi
	movl	%r14d, %edx
	callq	writeLumaCoeff4x4_CABAC.19
	addq	$8, %rsp
	popq	%rbx
	popq	%r14
	popq	%r15
	popq	%rbp
	.cfi_def_cfa %rsp, 8
	retq
.LBB35_2:                               # %func_writeLumaCoeff4x4_CABAC.56
	.cfi_def_cfa %rbp, 16
	movl	%ebx, %edi
	movl	%r15d, %esi
	movl	%r14d, %edx
	callq	writeLumaCoeff4x4_CABAC.56
	addq	$8, %rsp
	popq	%rbx
	popq	%r14
	popq	%r15
	popq	%rbp
	.cfi_def_cfa %rsp, 8
	retq
.LBB35_3:                               # %func_writeLumaCoeff4x4_CABAC.85
	.cfi_def_cfa %rbp, 16
	movl	%ebx, %edi
	movl	%r15d, %esi
	movl	%r14d, %edx
	callq	writeLumaCoeff4x4_CABAC.85
	addq	$8, %rsp
	popq	%rbx
	popq	%r14
	popq	%r15
	popq	%rbp
	.cfi_def_cfa %rsp, 8
	retq
.LBB35_4:                               # %func_writeLumaCoeff4x4_CABAC.236
	.cfi_def_cfa %rbp, 16
	movl	%ebx, %edi
	movl	%r15d, %esi
	movl	%r14d, %edx
	callq	writeLumaCoeff4x4_CABAC.236
	addq	$8, %rsp
	popq	%rbx
	popq	%r14
	popq	%r15
	popq	%rbp
	.cfi_def_cfa %rsp, 8
	retq
.LBB35_5:                               # %func_writeLumaCoeff4x4_CABAC.253
	.cfi_def_cfa %rbp, 16
	movl	%ebx, %edi
	movl	%r15d, %esi
	movl	%r14d, %edx
	callq	writeLumaCoeff4x4_CABAC.253
	addq	$8, %rsp
	popq	%rbx
	popq	%r14
	popq	%r15
	popq	%rbp
	.cfi_def_cfa %rsp, 8
	retq
.LBB35_6:                               # %func_writeLumaCoeff4x4_CABAC.262
	.cfi_def_cfa %rbp, 16
	movl	%ebx, %edi
	movl	%r15d, %esi
	movl	%r14d, %edx
	callq	writeLumaCoeff4x4_CABAC.262
	addq	$8, %rsp
	popq	%rbx
	popq	%r14
	popq	%r15
	popq	%rbp
	.cfi_def_cfa %rsp, 8
	retq
.LBB35_7:                               # %func_writeLumaCoeff4x4_CABAC.267
	.cfi_def_cfa %rbp, 16
	movl	%ebx, %edi
	movl	%r15d, %esi
	movl	%r14d, %edx
	callq	writeLumaCoeff4x4_CABAC.267
	addq	$8, %rsp
	popq	%rbx
	popq	%r14
	popq	%r15
	popq	%rbp
	.cfi_def_cfa %rsp, 8
	retq
.LBB35_8:                               # %func_writeLumaCoeff4x4_CABAC.272
	.cfi_def_cfa %rbp, 16
	movl	%ebx, %edi
	movl	%r15d, %esi
	movl	%r14d, %edx
	callq	writeLumaCoeff4x4_CABAC.272
	addq	$8, %rsp
	popq	%rbx
	popq	%r14
	popq	%r15
	popq	%rbp
	.cfi_def_cfa %rsp, 8
	retq
.LBB35_9:                               # %ctrl0
	.cfi_def_cfa %rbp, 16
	cmpl	$1, %eax
	je	.LBB35_2
# %bb.10:                               # %ctrl1
	cmpl	$2, %eax
	je	.LBB35_3
# %bb.11:                               # %ctrl2
	cmpl	$3, %eax
	je	.LBB35_4
# %bb.12:                               # %ctrl3
	cmpl	$4, %eax
	je	.LBB35_5
# %bb.13:                               # %ctrl4
	cmpl	$5, %eax
	je	.LBB35_6
# %bb.14:                               # %ctrl5
	cmpl	$6, %eax
	je	.LBB35_7
	jmp	.LBB35_8
.Lfunc_end35:
	.size	writeLumaCoeff4x4_CABAC, .Lfunc_end35-writeLumaCoeff4x4_CABAC
	.cfi_endproc
                                        # -- End function
	.globl	writeLumaCoeff8x8_CABAC # -- Begin function writeLumaCoeff8x8_CABAC
	.p2align	4, 0x90
	.type	writeLumaCoeff8x8_CABAC,@function
writeLumaCoeff8x8_CABAC:                # @writeLumaCoeff8x8_CABAC
	.cfi_startproc
# %bb.0:                                # %rand_bb
	pushq	%rbp
	.cfi_def_cfa_offset 16
	.cfi_offset %rbp, -16
	movq	%rsp, %rbp
	.cfi_def_cfa_register %rbp
	pushq	%r14
	pushq	%rbx
	.cfi_offset %rbx, -32
	.cfi_offset %r14, -24
	movl	%esi, %r14d
	movl	%edi, %ebx
	callq	get_rand
	cmpl	$0, %eax
	jne	.LBB36_9
# %bb.1:                                # %func_writeLumaCoeff8x8_CABAC.40
	movl	%ebx, %edi
	movl	%r14d, %esi
	callq	writeLumaCoeff8x8_CABAC.40
	popq	%rbx
	popq	%r14
	popq	%rbp
	.cfi_def_cfa %rsp, 8
	retq
.LBB36_2:                               # %func_writeLumaCoeff8x8_CABAC.72
	.cfi_def_cfa %rbp, 16
	movl	%ebx, %edi
	movl	%r14d, %esi
	callq	writeLumaCoeff8x8_CABAC.72
	popq	%rbx
	popq	%r14
	popq	%rbp
	.cfi_def_cfa %rsp, 8
	retq
.LBB36_3:                               # %func_writeLumaCoeff8x8_CABAC.84
	.cfi_def_cfa %rbp, 16
	movl	%ebx, %edi
	movl	%r14d, %esi
	callq	writeLumaCoeff8x8_CABAC.84
	popq	%rbx
	popq	%r14
	popq	%rbp
	.cfi_def_cfa %rsp, 8
	retq
.LBB36_4:                               # %func_writeLumaCoeff8x8_CABAC.105
	.cfi_def_cfa %rbp, 16
	movl	%ebx, %edi
	movl	%r14d, %esi
	callq	writeLumaCoeff8x8_CABAC.105
	popq	%rbx
	popq	%r14
	popq	%rbp
	.cfi_def_cfa %rsp, 8
	retq
.LBB36_5:                               # %func_writeLumaCoeff8x8_CABAC.110
	.cfi_def_cfa %rbp, 16
	movl	%ebx, %edi
	movl	%r14d, %esi
	callq	writeLumaCoeff8x8_CABAC.110
	popq	%rbx
	popq	%r14
	popq	%rbp
	.cfi_def_cfa %rsp, 8
	retq
.LBB36_6:                               # %func_writeLumaCoeff8x8_CABAC.142
	.cfi_def_cfa %rbp, 16
	movl	%ebx, %edi
	movl	%r14d, %esi
	callq	writeLumaCoeff8x8_CABAC.142
	popq	%rbx
	popq	%r14
	popq	%rbp
	.cfi_def_cfa %rsp, 8
	retq
.LBB36_7:                               # %func_writeLumaCoeff8x8_CABAC.159
	.cfi_def_cfa %rbp, 16
	movl	%ebx, %edi
	movl	%r14d, %esi
	callq	writeLumaCoeff8x8_CABAC.159
	popq	%rbx
	popq	%r14
	popq	%rbp
	.cfi_def_cfa %rsp, 8
	retq
.LBB36_8:                               # %func_writeLumaCoeff8x8_CABAC.203
	.cfi_def_cfa %rbp, 16
	movl	%ebx, %edi
	movl	%r14d, %esi
	callq	writeLumaCoeff8x8_CABAC.203
	popq	%rbx
	popq	%r14
	popq	%rbp
	.cfi_def_cfa %rsp, 8
	retq
.LBB36_9:                               # %ctrl0
	.cfi_def_cfa %rbp, 16
	cmpl	$1, %eax
	je	.LBB36_2
# %bb.10:                               # %ctrl1
	cmpl	$2, %eax
	je	.LBB36_3
# %bb.11:                               # %ctrl2
	cmpl	$3, %eax
	je	.LBB36_4
# %bb.12:                               # %ctrl3
	cmpl	$4, %eax
	je	.LBB36_5
# %bb.13:                               # %ctrl4
	cmpl	$5, %eax
	je	.LBB36_6
# %bb.14:                               # %ctrl5
	cmpl	$6, %eax
	je	.LBB36_7
	jmp	.LBB36_8
.Lfunc_end36:
	.size	writeLumaCoeff8x8_CABAC, .Lfunc_end36-writeLumaCoeff8x8_CABAC
	.cfi_endproc
                                        # -- End function
	.globl	writeLumaCoeff8x8       # -- Begin function writeLumaCoeff8x8
	.p2align	4, 0x90
	.type	writeLumaCoeff8x8,@function
writeLumaCoeff8x8:                      # @writeLumaCoeff8x8
	.cfi_startproc
# %bb.0:                                # %rand_bb
	pushq	%rbp
	.cfi_def_cfa_offset 16
	.cfi_offset %rbp, -16
	movq	%rsp, %rbp
	.cfi_def_cfa_register %rbp
	pushq	%r15
	pushq	%r14
	pushq	%rbx
	pushq	%rax
	.cfi_offset %rbx, -40
	.cfi_offset %r14, -32
	.cfi_offset %r15, -24
	movl	%edx, %r14d
	movl	%esi, %r15d
	movl	%edi, %ebx
	callq	get_rand
	cmpl	$0, %eax
	jne	.LBB37_9
# %bb.1:                                # %func_writeLumaCoeff8x8.149
	movl	%ebx, %edi
	movl	%r15d, %esi
	movl	%r14d, %edx
	callq	writeLumaCoeff8x8.149
	addq	$8, %rsp
	popq	%rbx
	popq	%r14
	popq	%r15
	popq	%rbp
	.cfi_def_cfa %rsp, 8
	retq
.LBB37_2:                               # %func_writeLumaCoeff8x8.168
	.cfi_def_cfa %rbp, 16
	movl	%ebx, %edi
	movl	%r15d, %esi
	movl	%r14d, %edx
	callq	writeLumaCoeff8x8.168
	addq	$8, %rsp
	popq	%rbx
	popq	%r14
	popq	%r15
	popq	%rbp
	.cfi_def_cfa %rsp, 8
	retq
.LBB37_3:                               # %func_writeLumaCoeff8x8.244
	.cfi_def_cfa %rbp, 16
	movl	%ebx, %edi
	movl	%r15d, %esi
	movl	%r14d, %edx
	callq	writeLumaCoeff8x8.244
	addq	$8, %rsp
	popq	%rbx
	popq	%r14
	popq	%r15
	popq	%rbp
	.cfi_def_cfa %rsp, 8
	retq
.LBB37_4:                               # %func_writeLumaCoeff8x8.261
	.cfi_def_cfa %rbp, 16
	movl	%ebx, %edi
	movl	%r15d, %esi
	movl	%r14d, %edx
	callq	writeLumaCoeff8x8.261
	addq	$8, %rsp
	popq	%rbx
	popq	%r14
	popq	%r15
	popq	%rbp
	.cfi_def_cfa %rsp, 8
	retq
.LBB37_5:                               # %func_writeLumaCoeff8x8.265
	.cfi_def_cfa %rbp, 16
	movl	%ebx, %edi
	movl	%r15d, %esi
	movl	%r14d, %edx
	callq	writeLumaCoeff8x8.265
	addq	$8, %rsp
	popq	%rbx
	popq	%r14
	popq	%r15
	popq	%rbp
	.cfi_def_cfa %rsp, 8
	retq
.LBB37_6:                               # %func_writeLumaCoeff8x8.273
	.cfi_def_cfa %rbp, 16
	movl	%ebx, %edi
	movl	%r15d, %esi
	movl	%r14d, %edx
	callq	writeLumaCoeff8x8.273
	addq	$8, %rsp
	popq	%rbx
	popq	%r14
	popq	%r15
	popq	%rbp
	.cfi_def_cfa %rsp, 8
	retq
.LBB37_7:                               # %func_writeLumaCoeff8x8.275
	.cfi_def_cfa %rbp, 16
	movl	%ebx, %edi
	movl	%r15d, %esi
	movl	%r14d, %edx
	callq	writeLumaCoeff8x8.275
	addq	$8, %rsp
	popq	%rbx
	popq	%r14
	popq	%r15
	popq	%rbp
	.cfi_def_cfa %rsp, 8
	retq
.LBB37_8:                               # %func_writeLumaCoeff8x8.278
	.cfi_def_cfa %rbp, 16
	movl	%ebx, %edi
	movl	%r15d, %esi
	movl	%r14d, %edx
	callq	writeLumaCoeff8x8.278
	addq	$8, %rsp
	popq	%rbx
	popq	%r14
	popq	%r15
	popq	%rbp
	.cfi_def_cfa %rsp, 8
	retq
.LBB37_9:                               # %ctrl0
	.cfi_def_cfa %rbp, 16
	cmpl	$1, %eax
	je	.LBB37_2
# %bb.10:                               # %ctrl1
	cmpl	$2, %eax
	je	.LBB37_3
# %bb.11:                               # %ctrl2
	cmpl	$3, %eax
	je	.LBB37_4
# %bb.12:                               # %ctrl3
	cmpl	$4, %eax
	je	.LBB37_5
# %bb.13:                               # %ctrl4
	cmpl	$5, %eax
	je	.LBB37_6
# %bb.14:                               # %ctrl5
	cmpl	$6, %eax
	je	.LBB37_7
	jmp	.LBB37_8
.Lfunc_end37:
	.size	writeLumaCoeff8x8, .Lfunc_end37-writeLumaCoeff8x8
	.cfi_endproc
                                        # -- End function
	.globl	writeCBPandLumaCoeff    # -- Begin function writeCBPandLumaCoeff
	.p2align	4, 0x90
	.type	writeCBPandLumaCoeff,@function
writeCBPandLumaCoeff:                   # @writeCBPandLumaCoeff
	.cfi_startproc
# %bb.0:                                # %rand_bb
	pushq	%rbp
	.cfi_def_cfa_offset 16
	.cfi_offset %rbp, -16
	movq	%rsp, %rbp
	.cfi_def_cfa_register %rbp
	callq	get_rand
	cmpl	$0, %eax
	jne	.LBB38_9
# %bb.1:                                # %func_writeCBPandLumaCoeff.23
	callq	writeCBPandLumaCoeff.23
	popq	%rbp
	.cfi_def_cfa %rsp, 8
	retq
.LBB38_2:                               # %func_writeCBPandLumaCoeff.26
	.cfi_def_cfa %rbp, 16
	callq	writeCBPandLumaCoeff.26
	popq	%rbp
	.cfi_def_cfa %rsp, 8
	retq
.LBB38_3:                               # %func_writeCBPandLumaCoeff.38
	.cfi_def_cfa %rbp, 16
	callq	writeCBPandLumaCoeff.38
	popq	%rbp
	.cfi_def_cfa %rsp, 8
	retq
.LBB38_4:                               # %func_writeCBPandLumaCoeff.45
	.cfi_def_cfa %rbp, 16
	callq	writeCBPandLumaCoeff.45
	popq	%rbp
	.cfi_def_cfa %rsp, 8
	retq
.LBB38_5:                               # %func_writeCBPandLumaCoeff.55
	.cfi_def_cfa %rbp, 16
	callq	writeCBPandLumaCoeff.55
	popq	%rbp
	.cfi_def_cfa %rsp, 8
	retq
.LBB38_6:                               # %func_writeCBPandLumaCoeff.61
	.cfi_def_cfa %rbp, 16
	callq	writeCBPandLumaCoeff.61
	popq	%rbp
	.cfi_def_cfa %rsp, 8
	retq
.LBB38_7:                               # %func_writeCBPandLumaCoeff.138
	.cfi_def_cfa %rbp, 16
	callq	writeCBPandLumaCoeff.138
	popq	%rbp
	.cfi_def_cfa %rsp, 8
	retq
.LBB38_8:                               # %func_writeCBPandLumaCoeff.167
	.cfi_def_cfa %rbp, 16
	callq	writeCBPandLumaCoeff.167
	popq	%rbp
	.cfi_def_cfa %rsp, 8
	retq
.LBB38_9:                               # %ctrl0
	.cfi_def_cfa %rbp, 16
	cmpl	$1, %eax
	je	.LBB38_2
# %bb.10:                               # %ctrl1
	cmpl	$2, %eax
	je	.LBB38_3
# %bb.11:                               # %ctrl2
	cmpl	$3, %eax
	je	.LBB38_4
# %bb.12:                               # %ctrl3
	cmpl	$4, %eax
	je	.LBB38_5
# %bb.13:                               # %ctrl4
	cmpl	$5, %eax
	je	.LBB38_6
# %bb.14:                               # %ctrl5
	cmpl	$6, %eax
	je	.LBB38_7
	jmp	.LBB38_8
.Lfunc_end38:
	.size	writeCBPandLumaCoeff, .Lfunc_end38-writeCBPandLumaCoeff
	.cfi_endproc
                                        # -- End function
	.globl	predict_nnz             # -- Begin function predict_nnz
	.p2align	4, 0x90
	.type	predict_nnz,@function
predict_nnz:                            # @predict_nnz
	.cfi_startproc
# %bb.0:                                # %rand_bb
	pushq	%rbp
	.cfi_def_cfa_offset 16
	.cfi_offset %rbp, -16
	movq	%rsp, %rbp
	.cfi_def_cfa_register %rbp
	pushq	%r14
	pushq	%rbx
	.cfi_offset %rbx, -32
	.cfi_offset %r14, -24
	movl	%esi, %r14d
	movl	%edi, %ebx
	callq	get_rand
	cmpl	$0, %eax
	jne	.LBB39_9
# %bb.1:                                # %func_predict_nnz.64
	movl	%ebx, %edi
	movl	%r14d, %esi
	callq	predict_nnz.64
	popq	%rbx
	popq	%r14
	popq	%rbp
	.cfi_def_cfa %rsp, 8
	retq
.LBB39_2:                               # %func_predict_nnz.68
	.cfi_def_cfa %rbp, 16
	movl	%ebx, %edi
	movl	%r14d, %esi
	callq	predict_nnz.68
	popq	%rbx
	popq	%r14
	popq	%rbp
	.cfi_def_cfa %rsp, 8
	retq
.LBB39_3:                               # %func_predict_nnz.127
	.cfi_def_cfa %rbp, 16
	movl	%ebx, %edi
	movl	%r14d, %esi
	callq	predict_nnz.127
	popq	%rbx
	popq	%r14
	popq	%rbp
	.cfi_def_cfa %rsp, 8
	retq
.LBB39_4:                               # %func_predict_nnz.136
	.cfi_def_cfa %rbp, 16
	movl	%ebx, %edi
	movl	%r14d, %esi
	callq	predict_nnz.136
	popq	%rbx
	popq	%r14
	popq	%rbp
	.cfi_def_cfa %rsp, 8
	retq
.LBB39_5:                               # %func_predict_nnz.137
	.cfi_def_cfa %rbp, 16
	movl	%ebx, %edi
	movl	%r14d, %esi
	callq	predict_nnz.137
	popq	%rbx
	popq	%r14
	popq	%rbp
	.cfi_def_cfa %rsp, 8
	retq
.LBB39_6:                               # %func_predict_nnz.161
	.cfi_def_cfa %rbp, 16
	movl	%ebx, %edi
	movl	%r14d, %esi
	callq	predict_nnz.161
	popq	%rbx
	popq	%r14
	popq	%rbp
	.cfi_def_cfa %rsp, 8
	retq
.LBB39_7:                               # %func_predict_nnz.174
	.cfi_def_cfa %rbp, 16
	movl	%ebx, %edi
	movl	%r14d, %esi
	callq	predict_nnz.174
	popq	%rbx
	popq	%r14
	popq	%rbp
	.cfi_def_cfa %rsp, 8
	retq
.LBB39_8:                               # %func_predict_nnz.187
	.cfi_def_cfa %rbp, 16
	movl	%ebx, %edi
	movl	%r14d, %esi
	callq	predict_nnz.187
	popq	%rbx
	popq	%r14
	popq	%rbp
	.cfi_def_cfa %rsp, 8
	retq
.LBB39_9:                               # %ctrl0
	.cfi_def_cfa %rbp, 16
	cmpl	$1, %eax
	je	.LBB39_2
# %bb.10:                               # %ctrl1
	cmpl	$2, %eax
	je	.LBB39_3
# %bb.11:                               # %ctrl2
	cmpl	$3, %eax
	je	.LBB39_4
# %bb.12:                               # %ctrl3
	cmpl	$4, %eax
	je	.LBB39_5
# %bb.13:                               # %ctrl4
	cmpl	$5, %eax
	je	.LBB39_6
# %bb.14:                               # %ctrl5
	cmpl	$6, %eax
	je	.LBB39_7
	jmp	.LBB39_8
.Lfunc_end39:
	.size	predict_nnz, .Lfunc_end39-predict_nnz
	.cfi_endproc
                                        # -- End function
	.globl	predict_nnz_chroma      # -- Begin function predict_nnz_chroma
	.p2align	4, 0x90
	.type	predict_nnz_chroma,@function
predict_nnz_chroma:                     # @predict_nnz_chroma
	.cfi_startproc
# %bb.0:                                # %rand_bb
	pushq	%rbp
	.cfi_def_cfa_offset 16
	.cfi_offset %rbp, -16
	movq	%rsp, %rbp
	.cfi_def_cfa_register %rbp
	pushq	%r14
	pushq	%rbx
	.cfi_offset %rbx, -32
	.cfi_offset %r14, -24
	movl	%esi, %r14d
	movl	%edi, %ebx
	callq	get_rand
	cmpl	$0, %eax
	jne	.LBB40_9
# %bb.1:                                # %func_predict_nnz_chroma.125
	movl	%ebx, %edi
	movl	%r14d, %esi
	callq	predict_nnz_chroma.125
	popq	%rbx
	popq	%r14
	popq	%rbp
	.cfi_def_cfa %rsp, 8
	retq
.LBB40_2:                               # %func_predict_nnz_chroma.153
	.cfi_def_cfa %rbp, 16
	movl	%ebx, %edi
	movl	%r14d, %esi
	callq	predict_nnz_chroma.153
	popq	%rbx
	popq	%r14
	popq	%rbp
	.cfi_def_cfa %rsp, 8
	retq
.LBB40_3:                               # %func_predict_nnz_chroma.216
	.cfi_def_cfa %rbp, 16
	movl	%ebx, %edi
	movl	%r14d, %esi
	callq	predict_nnz_chroma.216
	popq	%rbx
	popq	%r14
	popq	%rbp
	.cfi_def_cfa %rsp, 8
	retq
.LBB40_4:                               # %func_predict_nnz_chroma.221
	.cfi_def_cfa %rbp, 16
	movl	%ebx, %edi
	movl	%r14d, %esi
	callq	predict_nnz_chroma.221
	popq	%rbx
	popq	%r14
	popq	%rbp
	.cfi_def_cfa %rsp, 8
	retq
.LBB40_5:                               # %func_predict_nnz_chroma.230
	.cfi_def_cfa %rbp, 16
	movl	%ebx, %edi
	movl	%r14d, %esi
	callq	predict_nnz_chroma.230
	popq	%rbx
	popq	%r14
	popq	%rbp
	.cfi_def_cfa %rsp, 8
	retq
.LBB40_6:                               # %func_predict_nnz_chroma.231
	.cfi_def_cfa %rbp, 16
	movl	%ebx, %edi
	movl	%r14d, %esi
	callq	predict_nnz_chroma.231
	popq	%rbx
	popq	%r14
	popq	%rbp
	.cfi_def_cfa %rsp, 8
	retq
.LBB40_7:                               # %func_predict_nnz_chroma.239
	.cfi_def_cfa %rbp, 16
	movl	%ebx, %edi
	movl	%r14d, %esi
	callq	predict_nnz_chroma.239
	popq	%rbx
	popq	%r14
	popq	%rbp
	.cfi_def_cfa %rsp, 8
	retq
.LBB40_8:                               # %func_predict_nnz_chroma.250
	.cfi_def_cfa %rbp, 16
	movl	%ebx, %edi
	movl	%r14d, %esi
	callq	predict_nnz_chroma.250
	popq	%rbx
	popq	%r14
	popq	%rbp
	.cfi_def_cfa %rsp, 8
	retq
.LBB40_9:                               # %ctrl0
	.cfi_def_cfa %rbp, 16
	cmpl	$1, %eax
	je	.LBB40_2
# %bb.10:                               # %ctrl1
	cmpl	$2, %eax
	je	.LBB40_3
# %bb.11:                               # %ctrl2
	cmpl	$3, %eax
	je	.LBB40_4
# %bb.12:                               # %ctrl3
	cmpl	$4, %eax
	je	.LBB40_5
# %bb.13:                               # %ctrl4
	cmpl	$5, %eax
	je	.LBB40_6
# %bb.14:                               # %ctrl5
	cmpl	$6, %eax
	je	.LBB40_7
	jmp	.LBB40_8
.Lfunc_end40:
	.size	predict_nnz_chroma, .Lfunc_end40-predict_nnz_chroma
	.cfi_endproc
                                        # -- End function
	.globl	find_sad_16x16          # -- Begin function find_sad_16x16
	.p2align	4, 0x90
	.type	find_sad_16x16,@function
find_sad_16x16:                         # @find_sad_16x16
	.cfi_startproc
# %bb.0:                                # %rand_bb
	pushq	%rbp
	.cfi_def_cfa_offset 16
	.cfi_offset %rbp, -16
	movq	%rsp, %rbp
	.cfi_def_cfa_register %rbp
	pushq	%rbx
	pushq	%rax
	.cfi_offset %rbx, -24
	movq	%rdi, %rbx
	callq	get_rand
	cmpl	$0, %eax
	jne	.LBB41_9
# %bb.1:                                # %func_find_sad_16x16.24
	movq	%rbx, %rdi
	callq	find_sad_16x16.24
	addq	$8, %rsp
	popq	%rbx
	popq	%rbp
	.cfi_def_cfa %rsp, 8
	retq
.LBB41_2:                               # %func_find_sad_16x16.120
	.cfi_def_cfa %rbp, 16
	movq	%rbx, %rdi
	callq	find_sad_16x16.120
	addq	$8, %rsp
	popq	%rbx
	popq	%rbp
	.cfi_def_cfa %rsp, 8
	retq
.LBB41_3:                               # %func_find_sad_16x16.133
	.cfi_def_cfa %rbp, 16
	movq	%rbx, %rdi
	callq	find_sad_16x16.133
	addq	$8, %rsp
	popq	%rbx
	popq	%rbp
	.cfi_def_cfa %rsp, 8
	retq
.LBB41_4:                               # %func_find_sad_16x16.150
	.cfi_def_cfa %rbp, 16
	movq	%rbx, %rdi
	callq	find_sad_16x16.150
	addq	$8, %rsp
	popq	%rbx
	popq	%rbp
	.cfi_def_cfa %rsp, 8
	retq
.LBB41_5:                               # %func_find_sad_16x16.164
	.cfi_def_cfa %rbp, 16
	movq	%rbx, %rdi
	callq	find_sad_16x16.164
	addq	$8, %rsp
	popq	%rbx
	popq	%rbp
	.cfi_def_cfa %rsp, 8
	retq
.LBB41_6:                               # %func_find_sad_16x16.237
	.cfi_def_cfa %rbp, 16
	movq	%rbx, %rdi
	callq	find_sad_16x16.237
	addq	$8, %rsp
	popq	%rbx
	popq	%rbp
	.cfi_def_cfa %rsp, 8
	retq
.LBB41_7:                               # %func_find_sad_16x16.246
	.cfi_def_cfa %rbp, 16
	movq	%rbx, %rdi
	callq	find_sad_16x16.246
	addq	$8, %rsp
	popq	%rbx
	popq	%rbp
	.cfi_def_cfa %rsp, 8
	retq
.LBB41_8:                               # %func_find_sad_16x16.257
	.cfi_def_cfa %rbp, 16
	movq	%rbx, %rdi
	callq	find_sad_16x16.257
	addq	$8, %rsp
	popq	%rbx
	popq	%rbp
	.cfi_def_cfa %rsp, 8
	retq
.LBB41_9:                               # %ctrl0
	.cfi_def_cfa %rbp, 16
	cmpl	$1, %eax
	je	.LBB41_2
# %bb.10:                               # %ctrl1
	cmpl	$2, %eax
	je	.LBB41_3
# %bb.11:                               # %ctrl2
	cmpl	$3, %eax
	je	.LBB41_4
# %bb.12:                               # %ctrl3
	cmpl	$4, %eax
	je	.LBB41_5
# %bb.13:                               # %ctrl4
	cmpl	$5, %eax
	je	.LBB41_6
# %bb.14:                               # %ctrl5
	cmpl	$6, %eax
	je	.LBB41_7
	jmp	.LBB41_8
.Lfunc_end41:
	.size	find_sad_16x16, .Lfunc_end41-find_sad_16x16
	.cfi_endproc
                                        # -- End function
	.globl	writeCoeff4x4_CAVLC.1   # -- Begin function writeCoeff4x4_CAVLC.1
	.p2align	4, 0x90
	.type	writeCoeff4x4_CAVLC.1,@function
writeCoeff4x4_CAVLC.1:                  # @writeCoeff4x4_CAVLC.1
	.cfi_startproc
# %bb.0:                                # %entry
	pushq	%rbp
	.cfi_def_cfa_offset 16
	.cfi_offset %rbp, -16
	movq	%rsp, %rbp
	.cfi_def_cfa_register %rbp
	pushq	%rbx
	subq	$232, %rsp
	.cfi_offset %rbx, -24
	movl	$69003258, -168(%rbp)   # imm = 0x41CE7FA
	movl	%edi, -172(%rbp)
	movl	%esi, -56(%rbp)
	movl	%edx, -48(%rbp)
	movl	%ecx, -76(%rbp)
	movl	$0, -36(%rbp)
	movq	img(%rip), %rax
	movq	14168(%rax), %rcx
	movslq	12(%rax), %rax
	imulq	$632, %rax, %rax        # imm = 0x278
	addq	%rax, %rcx
	movq	%rcx, -64(%rbp)
	movq	img(%rip), %rax
	movq	-64(%rbp), %rcx
	movslq	(%rcx), %rcx
	leaq	(%rcx,%rcx,2), %rcx
	shlq	$4, %rcx
	leaq	14176(%rax,%rcx), %rax
	movq	%rax, -16(%rbp)
	movq	-64(%rbp), %rax
	addq	$20, %rax
	movq	%rax, -152(%rbp)
	movq	img(%rip), %rax
	movq	14160(%rax), %rax
	movq	%rax, -200(%rbp)
	movq	input(%rip), %rax
	movslq	2364(%rax), %rax
	movq	assignSE2partition(,%rax,8), %rax
	movq	%rax, -208(%rbp)
	movl	$0, -24(%rbp)
	movl	$0, -52(%rbp)
	movl	$0, -72(%rbp)
	movl	$0, -80(%rbp)
	movl	$0, -160(%rbp)
	vmovdqu	.L__const.writeCoeff4x4_CAVLC.incVlc+12(%rip), %xmm0
	vmovdqu	%xmm0, -228(%rbp)
	vmovdqa	.L__const.writeCoeff4x4_CAVLC.incVlc(%rip), %xmm0
	vmovdqa	%xmm0, -240(%rbp)
	movq	$0, -120(%rbp)
	movq	$0, -136(%rbp)
	movl	-172(%rbp), %eax
	movq	%rax, %rcx
	subq	$7, %rcx
	ja	.LBB42_22
# %bb.1:                                # %entry
	movq	.LJTI42_0(,%rax,8), %rax
	jmpq	*%rax
.LBB42_2:                               # %sw.bb
	leaq	-187(%rbp), %rdi
	movl	$16, -72(%rbp)
	movl	$5, -52(%rbp)
	movq	img, %rax
	movq	14136(%rax), %rax
	movslq	-56(%rbp), %rcx
	movq	(%rax,%rcx,8), %rax
	movslq	-48(%rbp), %rcx
	movq	(%rax,%rcx,8), %rax
	movq	(%rax), %rax
	movq	%rax, -120(%rbp)
	movq	img, %rax
	movq	14136(%rax), %rax
	movslq	-56(%rbp), %rcx
	movq	(%rax,%rcx,8), %rax
	movslq	-48(%rbp), %rcx
	movq	(%rax,%rcx,8), %rax
	movq	8(%rax), %rax
	movq	%rax, -136(%rbp)
	movabsq	$.L.str.1, %rsi
	movabsq	$.L.str.2, %rdx
	movb	$0, %al
	callq	sprintf
	movq	-64(%rbp), %rax
	cmpl	$9, 72(%rax)
	je	.LBB42_5
# %bb.3:                                # %lor.lhs.false
	movq	-64(%rbp), %rax
	cmpl	$10, 72(%rax)
	je	.LBB42_5
# %bb.4:                                # %lor.lhs.false19
	movq	-64(%rbp), %rax
	cmpl	$13, 72(%rax)
	jne	.LBB42_6
.LBB42_5:                               # %if.then
	movl	$9, -24(%rbp)
	jmp	.LBB42_7
.LBB42_6:                               # %if.else
	movl	$14, -24(%rbp)
.LBB42_7:                               # %if.end
	jmp	.LBB42_23
.LBB42_8:                               # %sw.bb22
	leaq	-187(%rbp), %rdi
	movl	$16, -72(%rbp)
	movl	$5, -52(%rbp)
	movq	img, %rax
	movq	14144(%rax), %rax
	movq	(%rax), %rax
	movq	(%rax), %rax
	movq	%rax, -120(%rbp)
	movq	img, %rax
	movq	14144(%rax), %rax
	movq	(%rax), %rax
	movq	8(%rax), %rax
	movq	%rax, -136(%rbp)
	movabsq	$.L.str.1, %rsi
	movabsq	$.L.str.3, %rdx
	movb	$0, %al
	callq	sprintf
	movl	$7, -24(%rbp)
	jmp	.LBB42_23
.LBB42_9:                               # %sw.bb30
	leaq	-187(%rbp), %rdi
	movl	$15, -72(%rbp)
	movl	$5, -52(%rbp)
	movq	img, %rax
	movq	14136(%rax), %rax
	movslq	-56(%rbp), %rcx
	movq	(%rax,%rcx,8), %rax
	movslq	-48(%rbp), %rcx
	movq	(%rax,%rcx,8), %rax
	movq	(%rax), %rax
	movq	%rax, -120(%rbp)
	movq	img, %rax
	movq	14136(%rax), %rax
	movslq	-56(%rbp), %rcx
	movq	(%rax,%rcx,8), %rax
	movslq	-48(%rbp), %rcx
	movq	(%rax,%rcx,8), %rax
	movq	8(%rax), %rax
	movq	%rax, -136(%rbp)
	movabsq	$.L.str.1, %rsi
	movabsq	$.L.str.4, %rdx
	movb	$0, %al
	callq	sprintf
	movl	$9, -24(%rbp)
	jmp	.LBB42_23
.LBB42_10:                              # %sw.bb45
	leaq	-187(%rbp), %rdi
	movq	img, %rax
	movl	72696(%rax), %eax
	movl	%eax, -72(%rbp)
	movl	$6, -52(%rbp)
	movl	$1, -80(%rbp)
	movq	img, %rax
	movq	14144(%rax), %rax
	movl	-76(%rbp), %ecx
	addl	$1, %ecx
	movslq	%ecx, %rcx
	movq	(%rax,%rcx,8), %rax
	movq	(%rax), %rax
	movq	%rax, -120(%rbp)
	movq	img, %rax
	movq	14144(%rax), %rax
	movl	-76(%rbp), %ecx
	addl	$1, %ecx
	movslq	%ecx, %rcx
	movq	(%rax,%rcx,8), %rax
	movq	8(%rax), %rax
	movq	%rax, -136(%rbp)
	movabsq	$.L.str.1, %rsi
	movabsq	$.L.str.5, %rdx
	movb	$0, %al
	callq	sprintf
	movq	-64(%rbp), %rax
	cmpl	$9, 72(%rax)
	je	.LBB42_13
# %bb.11:                               # %lor.lhs.false59
	movq	-64(%rbp), %rax
	cmpl	$10, 72(%rax)
	je	.LBB42_13
# %bb.12:                               # %lor.lhs.false62
	movq	-64(%rbp), %rax
	cmpl	$13, 72(%rax)
	jne	.LBB42_14
.LBB42_13:                              # %if.then65
	movl	$8, -24(%rbp)
	jmp	.LBB42_15
.LBB42_14:                              # %if.else66
	movl	$13, -24(%rbp)
.LBB42_15:                              # %if.end67
	jmp	.LBB42_23
.LBB42_16:                              # %sw.bb68
	leaq	-187(%rbp), %rdi
	movl	$15, -72(%rbp)
	movl	$6, -52(%rbp)
	movl	$1, -160(%rbp)
	movq	img, %rax
	movq	14136(%rax), %rax
	movslq	-56(%rbp), %rcx
	movq	(%rax,%rcx,8), %rax
	movslq	-48(%rbp), %rcx
	movq	(%rax,%rcx,8), %rax
	movq	(%rax), %rax
	movq	%rax, -120(%rbp)
	movq	img, %rax
	movq	14136(%rax), %rax
	movslq	-56(%rbp), %rcx
	movq	(%rax,%rcx,8), %rax
	movslq	-48(%rbp), %rcx
	movq	(%rax,%rcx,8), %rax
	movq	8(%rax), %rax
	movq	%rax, -136(%rbp)
	movabsq	$.L.str.1, %rsi
	movabsq	$.L.str.6, %rdx
	movb	$0, %al
	callq	sprintf
	movq	-64(%rbp), %rax
	cmpl	$9, 72(%rax)
	je	.LBB42_19
# %bb.17:                               # %lor.lhs.false85
	movq	-64(%rbp), %rax
	cmpl	$10, 72(%rax)
	je	.LBB42_19
# %bb.18:                               # %lor.lhs.false88
	movq	-64(%rbp), %rax
	cmpl	$13, 72(%rax)
	jne	.LBB42_20
.LBB42_19:                              # %if.then91
	movl	$10, -24(%rbp)
	jmp	.LBB42_21
.LBB42_20:                              # %if.else92
	movl	$15, -24(%rbp)
.LBB42_21:                              # %if.end93
	jmp	.LBB42_23
.LBB42_22:                              # %sw.default
	movabsq	$.L.str.7, %rdi
	movl	$600, %esi              # imm = 0x258
	callq	error
.LBB42_23:                              # %sw.epilog
	movq	-200(%rbp), %rax
	movq	24(%rax), %rax
	movq	-208(%rbp), %rcx
	movslq	-24(%rbp), %rdx
	movslq	(%rcx,%rdx,4), %rcx
	imulq	$120, %rcx, %rcx
	addq	%rcx, %rax
	movq	%rax, -128(%rbp)
	movl	$0, -40(%rbp)
	movl	$0, -28(%rbp)
	movl	$0, -164(%rbp)
	movl	$0, -68(%rbp)
	movl	$0, -112(%rbp)
	movl	$1, -44(%rbp)
	movl	$0, -20(%rbp)
.LBB42_24:                              # %for.cond
                                        # =>This Inner Loop Header: Depth=1
	movl	-20(%rbp), %eax
	cmpl	$0, -80(%rbp)
	je	.LBB42_26
# %bb.25:                               # %cond.true
                                        #   in Loop: Header=BB42_24 Depth=1
	movq	img, %rcx
	movl	72696(%rcx), %ecx
	jmp	.LBB42_27
.LBB42_26:                              # %cond.false
                                        #   in Loop: Header=BB42_24 Depth=1
	movl	$16, %ecx
	jmp	.LBB42_27
.LBB42_27:                              # %cond.end
                                        #   in Loop: Header=BB42_24 Depth=1
	xorl	%edx, %edx
	cmpl	%ecx, %eax
	jg	.LBB42_29
# %bb.28:                               # %land.rhs
                                        #   in Loop: Header=BB42_24 Depth=1
	cmpl	$0, -44(%rbp)
	setne	%dl
.LBB42_29:                              # %land.end
                                        #   in Loop: Header=BB42_24 Depth=1
	testb	$1, %dl
	jne	.LBB42_30
	jmp	.LBB42_41
.LBB42_30:                              # %for.body
                                        #   in Loop: Header=BB42_24 Depth=1
	movq	-120(%rbp), %rax
	movslq	-20(%rbp), %rcx
	movl	(%rax,%rcx,4), %eax
	movl	%eax, -44(%rbp)
	movq	-136(%rbp), %rax
	movslq	-20(%rbp), %rcx
	movl	(%rax,%rcx,4), %eax
	movl	%eax, -84(%rbp)
	cmpl	$0, -44(%rbp)
	je	.LBB42_39
# %bb.31:                               # %if.then106
                                        #   in Loop: Header=BB42_24 Depth=1
	cmpl	$0, -84(%rbp)
	je	.LBB42_33
# %bb.32:                               # %if.then108
                                        #   in Loop: Header=BB42_24 Depth=1
	movl	-84(%rbp), %eax
	addl	-112(%rbp), %eax
	movl	%eax, -112(%rbp)
.LBB42_33:                              # %if.end110
                                        #   in Loop: Header=BB42_24 Depth=1
	movl	-44(%rbp), %edi
	callq	abs
	cmpl	$1, %eax
	jne	.LBB42_37
# %bb.34:                               # %if.then113
                                        #   in Loop: Header=BB42_24 Depth=1
	movl	-28(%rbp), %eax
	addl	$1, %eax
	movl	%eax, -28(%rbp)
	movl	-164(%rbp), %eax
	addl	$1, %eax
	movl	%eax, -164(%rbp)
	cmpl	$3, -28(%rbp)
	jle	.LBB42_36
# %bb.35:                               # %if.then116
                                        #   in Loop: Header=BB42_24 Depth=1
	movl	$3, -28(%rbp)
.LBB42_36:                              # %if.end117
                                        #   in Loop: Header=BB42_24 Depth=1
	jmp	.LBB42_38
.LBB42_37:                              # %if.else118
                                        #   in Loop: Header=BB42_24 Depth=1
	movl	$0, -28(%rbp)
.LBB42_38:                              # %if.end119
                                        #   in Loop: Header=BB42_24 Depth=1
	movl	-40(%rbp), %eax
	addl	$1, %eax
	movl	%eax, -40(%rbp)
	movl	-20(%rbp), %eax
	movl	%eax, -68(%rbp)
.LBB42_39:                              # %if.end121
                                        #   in Loop: Header=BB42_24 Depth=1
	jmp	.LBB42_40
.LBB42_40:                              # %for.inc
                                        #   in Loop: Header=BB42_24 Depth=1
	movl	-20(%rbp), %eax
	addl	$1, %eax
	movl	%eax, -20(%rbp)
	jmp	.LBB42_24
.LBB42_41:                              # %for.end
	cmpl	$0, -80(%rbp)
	jne	.LBB42_61
# %bb.42:                               # %if.then124
	cmpl	$0, -160(%rbp)
	jne	.LBB42_50
# %bb.43:                               # %if.then126
	movl	-56(%rbp), %eax
	andl	$1, %eax
	cmpl	$0, %eax
	jne	.LBB42_45
# %bb.44:                               # %cond.true128
	xorl	%ecx, %ecx
	movl	-48(%rbp), %eax
	andl	$1, %eax
	cmpl	$0, %eax
	movl	$1, %eax
	cmovel	%ecx, %eax
	jmp	.LBB42_46
.LBB42_45:                              # %cond.false132
	movl	-48(%rbp), %eax
	andl	$1, %eax
	cmpl	$0, %eax
	movl	$2, %ecx
	movl	$3, %eax
	cmovel	%ecx, %eax
.LBB42_46:                              # %cond.end136
	movl	%eax, -104(%rbp)
	cmpl	$2, -56(%rbp)
	jge	.LBB42_48
# %bb.47:                               # %cond.true139
	xorl	%ecx, %ecx
	movl	-48(%rbp), %eax
	cmpl	$2, %eax
	movl	$1, %eax
	cmovll	%ecx, %eax
	jmp	.LBB42_49
.LBB42_48:                              # %cond.false142
	movl	-48(%rbp), %eax
	cmpl	$2, %eax
	movl	$2, %ecx
	movl	$3, %eax
	cmovll	%ecx, %eax
.LBB42_49:                              # %cond.end145
	movl	%eax, -100(%rbp)
	movl	-104(%rbp), %edi
	movl	-100(%rbp), %esi
	callq	predict_nnz
	movl	%eax, -108(%rbp)
	jmp	.LBB42_51
.LBB42_50:                              # %if.else148
	movl	-76(%rbp), %eax
	sarl	$4, %eax
	movl	%eax, -104(%rbp)
	movl	-76(%rbp), %eax
	andl	$15, %eax
	movl	%eax, -100(%rbp)
	movl	-104(%rbp), %edi
	movl	-100(%rbp), %esi
	callq	predict_nnz_chroma
	movl	%eax, -108(%rbp)
.LBB42_51:                              # %if.end151
	movl	-40(%rbp), %eax
	movq	img, %rcx
	movq	128(%rcx), %rcx
	movq	img, %rdx
	movslq	12(%rdx), %rdx
	movq	(%rcx,%rdx,8), %rcx
	movslq	-104(%rbp), %rdx
	movq	(%rcx,%rdx,8), %rcx
	movslq	-100(%rbp), %rdx
	movl	%eax, (%rcx,%rdx,4)
	cmpl	$2, -108(%rbp)
	jge	.LBB42_53
# %bb.52:                               # %if.then160
	movl	$0, -96(%rbp)
	jmp	.LBB42_60
.LBB42_53:                              # %if.else161
	cmpl	$4, -108(%rbp)
	jge	.LBB42_55
# %bb.54:                               # %if.then163
	movl	$1, -96(%rbp)
	jmp	.LBB42_59
.LBB42_55:                              # %if.else164
	cmpl	$8, -108(%rbp)
	jge	.LBB42_57
# %bb.56:                               # %if.then166
	movl	$2, -96(%rbp)
	jmp	.LBB42_58
.LBB42_57:                              # %if.else167
	movl	$3, -96(%rbp)
.LBB42_58:                              # %if.end168
	jmp	.LBB42_59
.LBB42_59:                              # %if.end169
	jmp	.LBB42_60
.LBB42_60:                              # %if.end170
	jmp	.LBB42_62
.LBB42_61:                              # %if.else171
	movl	$0, -96(%rbp)
	movl	-76(%rbp), %eax
	movl	%eax, -104(%rbp)
	movl	-76(%rbp), %eax
	movl	%eax, -100(%rbp)
.LBB42_62:                              # %if.end172
	movl	-24(%rbp), %eax
	movq	-16(%rbp), %rcx
	movl	%eax, (%rcx)
	movl	-40(%rbp), %eax
	movq	-16(%rbp), %rcx
	movl	%eax, 4(%rcx)
	movl	-28(%rbp), %eax
	movq	-16(%rbp), %rcx
	movl	%eax, 8(%rcx)
	movl	-96(%rbp), %eax
	movq	-16(%rbp), %rcx
	movl	%eax, 12(%rcx)
	cmpl	$0, -80(%rbp)
	jne	.LBB42_64
# %bb.63:                               # %if.then175
	movq	-16(%rbp), %rdi
	movq	-128(%rbp), %rsi
	callq	writeSyntaxElement_NumCoeffTrailingOnes
	jmp	.LBB42_65
.LBB42_64:                              # %if.else177
	movq	-16(%rbp), %rdi
	movq	-128(%rbp), %rsi
	callq	writeSyntaxElement_NumCoeffTrailingOnesChromaDC
.LBB42_65:                              # %if.end179
	movq	-16(%rbp), %rax
	movl	12(%rax), %eax
	movq	-152(%rbp), %rcx
	movslq	-52(%rbp), %rdx
	addl	(%rcx,%rdx,4), %eax
	movl	%eax, (%rcx,%rdx,4)
	movq	-16(%rbp), %rax
	movl	12(%rax), %eax
	addl	-36(%rbp), %eax
	movl	%eax, -36(%rbp)
	movq	-16(%rbp), %rax
	addq	$48, %rax
	movq	%rax, -16(%rbp)
	movq	-64(%rbp), %rax
	movl	(%rax), %ecx
	addl	$1, %ecx
	movl	%ecx, (%rax)
	cmpl	$0, -40(%rbp)
	jne	.LBB42_67
# %bb.66:                               # %if.then189
	movl	-36(%rbp), %eax
	movl	%eax, -156(%rbp)
	jmp	.LBB42_122
.LBB42_67:                              # %if.end190
	cmpl	$0, -40(%rbp)
	je	.LBB42_121
# %bb.68:                               # %if.then192
	movl	$0, -88(%rbp)
	movl	-68(%rbp), %eax
	movl	%eax, -20(%rbp)
.LBB42_69:                              # %for.cond193
                                        # =>This Inner Loop Header: Depth=1
	movl	-20(%rbp), %eax
	movl	-68(%rbp), %ecx
	subl	-28(%rbp), %ecx
	cmpl	%ecx, %eax
	jle	.LBB42_76
# %bb.70:                               # %for.body195
                                        #   in Loop: Header=BB42_69 Depth=1
	movq	-120(%rbp), %rax
	movslq	-20(%rbp), %rcx
	movl	(%rax,%rcx,4), %eax
	movl	%eax, -44(%rbp)
	movl	-44(%rbp), %edi
	callq	abs
	cmpl	$1, %eax
	jle	.LBB42_72
# %bb.71:                               # %if.then200
	movabsq	$.L.str.8, %rdi
	movb	$0, %al
	callq	printf
	movl	$4294967295, %edi       # imm = 0xFFFFFFFF
	callq	exit
.LBB42_72:                              # %if.end202
                                        #   in Loop: Header=BB42_69 Depth=1
	movl	-88(%rbp), %eax
	shll	$1, %eax
	movl	%eax, -88(%rbp)
	cmpl	$0, -44(%rbp)
	jge	.LBB42_74
# %bb.73:                               # %if.then204
                                        #   in Loop: Header=BB42_69 Depth=1
	movl	-88(%rbp), %eax
	orl	$1, %eax
	movl	%eax, -88(%rbp)
.LBB42_74:                              # %if.end205
                                        #   in Loop: Header=BB42_69 Depth=1
	jmp	.LBB42_75
.LBB42_75:                              # %for.inc206
                                        #   in Loop: Header=BB42_69 Depth=1
	movl	-20(%rbp), %eax
	addl	$-1, %eax
	movl	%eax, -20(%rbp)
	jmp	.LBB42_69
.LBB42_76:                              # %for.end207
	cmpl	$0, -28(%rbp)
	je	.LBB42_78
# %bb.77:                               # %if.then209
	movl	-24(%rbp), %eax
	movq	-16(%rbp), %rcx
	movl	%eax, (%rcx)
	movl	-28(%rbp), %eax
	movq	-16(%rbp), %rcx
	movl	%eax, 8(%rcx)
	movl	-88(%rbp), %eax
	movq	-16(%rbp), %rcx
	movl	%eax, 4(%rcx)
	movq	-16(%rbp), %rdi
	movq	-128(%rbp), %rsi
	callq	writeSyntaxElement_VLC
	movq	-16(%rbp), %rax
	movl	12(%rax), %eax
	movq	-152(%rbp), %rcx
	movslq	-52(%rbp), %rdx
	addl	(%rcx,%rdx,4), %eax
	movl	%eax, (%rcx,%rdx,4)
	movq	-16(%rbp), %rax
	movl	12(%rax), %eax
	addl	-36(%rbp), %eax
	movl	%eax, -36(%rbp)
	movq	-16(%rbp), %rax
	addq	$48, %rax
	movq	%rax, -16(%rbp)
	movq	-64(%rbp), %rax
	movl	(%rax), %ecx
	addl	$1, %ecx
	movl	%ecx, (%rax)
.LBB42_78:                              # %if.end223
	movl	$1, -144(%rbp)
	cmpl	$3, -40(%rbp)
	jle	.LBB42_81
# %bb.79:                               # %land.lhs.true
	cmpl	$3, -28(%rbp)
	jne	.LBB42_81
# %bb.80:                               # %if.then226
	movl	$0, -144(%rbp)
.LBB42_81:                              # %if.end227
	cmpl	$10, -40(%rbp)
	jle	.LBB42_84
# %bb.82:                               # %land.lhs.true229
	cmpl	$3, -28(%rbp)
	jge	.LBB42_84
# %bb.83:                               # %if.then231
	movl	$1, -32(%rbp)
	jmp	.LBB42_85
.LBB42_84:                              # %if.else232
	movl	$0, -32(%rbp)
.LBB42_85:                              # %if.end233
	movl	-68(%rbp), %eax
	subl	-28(%rbp), %eax
	movl	%eax, -20(%rbp)
.LBB42_86:                              # %for.cond235
                                        # =>This Inner Loop Header: Depth=1
	cmpl	$0, -20(%rbp)
	jl	.LBB42_102
# %bb.87:                               # %for.body237
                                        #   in Loop: Header=BB42_86 Depth=1
	movq	-120(%rbp), %rax
	movslq	-20(%rbp), %rcx
	movl	(%rax,%rcx,4), %eax
	movl	%eax, -44(%rbp)
	movl	-44(%rbp), %eax
	movq	-16(%rbp), %rcx
	movl	%eax, 4(%rcx)
	movl	-24(%rbp), %eax
	movq	-16(%rbp), %rcx
	movl	%eax, (%rcx)
	cmpl	$0, -144(%rbp)
	je	.LBB42_92
# %bb.88:                               # %if.then243
                                        #   in Loop: Header=BB42_86 Depth=1
	movq	-16(%rbp), %rax
	cmpl	$0, 4(%rax)
	jle	.LBB42_90
# %bb.89:                               # %if.then246
                                        #   in Loop: Header=BB42_86 Depth=1
	movq	-16(%rbp), %rax
	movl	4(%rax), %ecx
	addl	$-1, %ecx
	movl	%ecx, 4(%rax)
	jmp	.LBB42_91
.LBB42_90:                              # %if.else249
                                        #   in Loop: Header=BB42_86 Depth=1
	movq	-16(%rbp), %rax
	movl	4(%rax), %ecx
	addl	$1, %ecx
	movl	%ecx, 4(%rax)
.LBB42_91:                              # %if.end252
                                        #   in Loop: Header=BB42_86 Depth=1
	movl	$0, -144(%rbp)
.LBB42_92:                              # %if.end253
                                        #   in Loop: Header=BB42_86 Depth=1
	cmpl	$0, -32(%rbp)
	jne	.LBB42_94
# %bb.93:                               # %if.then255
                                        #   in Loop: Header=BB42_86 Depth=1
	movq	-16(%rbp), %rdi
	movq	-128(%rbp), %rsi
	callq	writeSyntaxElement_Level_VLC1
	jmp	.LBB42_95
.LBB42_94:                              # %if.else257
                                        #   in Loop: Header=BB42_86 Depth=1
	movq	-16(%rbp), %rdi
	movl	-32(%rbp), %esi
	movq	-128(%rbp), %rdx
	callq	writeSyntaxElement_Level_VLCN
.LBB42_95:                              # %if.end259
                                        #   in Loop: Header=BB42_86 Depth=1
	movl	-44(%rbp), %edi
	callq	abs
	movslq	-32(%rbp), %rcx
	cmpl	-240(%rbp,%rcx,4), %eax
	jle	.LBB42_97
# %bb.96:                               # %if.then264
                                        #   in Loop: Header=BB42_86 Depth=1
	movl	-32(%rbp), %eax
	addl	$1, %eax
	movl	%eax, -32(%rbp)
.LBB42_97:                              # %if.end266
                                        #   in Loop: Header=BB42_86 Depth=1
	movl	-20(%rbp), %eax
	movl	-68(%rbp), %ecx
	subl	-28(%rbp), %ecx
	cmpl	%ecx, %eax
	jne	.LBB42_100
# %bb.98:                               # %land.lhs.true269
                                        #   in Loop: Header=BB42_86 Depth=1
	movl	-44(%rbp), %edi
	callq	abs
	cmpl	$3, %eax
	jle	.LBB42_100
# %bb.99:                               # %if.then272
                                        #   in Loop: Header=BB42_86 Depth=1
	movl	$2, -32(%rbp)
.LBB42_100:                             # %if.end273
                                        #   in Loop: Header=BB42_86 Depth=1
	movq	-16(%rbp), %rax
	movl	12(%rax), %eax
	movq	-152(%rbp), %rcx
	movslq	-52(%rbp), %rdx
	addl	(%rcx,%rdx,4), %eax
	movl	%eax, (%rcx,%rdx,4)
	movq	-16(%rbp), %rax
	movl	12(%rax), %eax
	addl	-36(%rbp), %eax
	movl	%eax, -36(%rbp)
	movq	-16(%rbp), %rax
	addq	$48, %rax
	movq	%rax, -16(%rbp)
	movq	-64(%rbp), %rax
	movl	(%rax), %ecx
	addl	$1, %ecx
	movl	%ecx, (%rax)
# %bb.101:                              # %for.inc283
                                        #   in Loop: Header=BB42_86 Depth=1
	movl	-20(%rbp), %eax
	addl	$-1, %eax
	movl	%eax, -20(%rbp)
	jmp	.LBB42_86
.LBB42_102:                             # %for.end285
	movl	-40(%rbp), %eax
	cmpl	-72(%rbp), %eax
	jge	.LBB42_107
# %bb.103:                              # %if.then287
	movl	-24(%rbp), %eax
	movq	-16(%rbp), %rcx
	movl	%eax, (%rcx)
	movl	-112(%rbp), %eax
	movq	-16(%rbp), %rcx
	movl	%eax, 4(%rcx)
	movl	-40(%rbp), %eax
	subl	$1, %eax
	movl	%eax, -32(%rbp)
	movl	-32(%rbp), %eax
	movq	-16(%rbp), %rcx
	movl	%eax, 12(%rcx)
	cmpl	$0, -80(%rbp)
	jne	.LBB42_105
# %bb.104:                              # %if.then293
	movq	-16(%rbp), %rdi
	movq	-128(%rbp), %rsi
	callq	writeSyntaxElement_TotalZeros
	jmp	.LBB42_106
.LBB42_105:                             # %if.else295
	movq	-16(%rbp), %rdi
	movq	-128(%rbp), %rsi
	callq	writeSyntaxElement_TotalZerosChromaDC
.LBB42_106:                             # %if.end297
	movq	-16(%rbp), %rax
	movl	12(%rax), %eax
	movq	-152(%rbp), %rcx
	movslq	-52(%rbp), %rdx
	addl	(%rcx,%rdx,4), %eax
	movl	%eax, (%rcx,%rdx,4)
	movq	-16(%rbp), %rax
	movl	12(%rax), %eax
	addl	-36(%rbp), %eax
	movl	%eax, -36(%rbp)
	movq	-16(%rbp), %rax
	addq	$48, %rax
	movq	%rax, -16(%rbp)
	movq	-64(%rbp), %rax
	movl	(%rax), %ecx
	addl	$1, %ecx
	movl	%ecx, (%rax)
.LBB42_107:                             # %if.end307
	movl	-112(%rbp), %eax
	movl	%eax, -92(%rbp)
	movl	-40(%rbp), %eax
	movl	%eax, -140(%rbp)
	movl	-68(%rbp), %eax
	movl	%eax, -20(%rbp)
.LBB42_108:                             # %for.cond308
                                        # =>This Inner Loop Header: Depth=1
	cmpl	$0, -20(%rbp)
	jl	.LBB42_119
# %bb.109:                              # %for.body310
                                        #   in Loop: Header=BB42_108 Depth=1
	movq	-136(%rbp), %rax
	movslq	-20(%rbp), %rcx
	movl	(%rax,%rcx,4), %eax
	movl	%eax, -84(%rbp)
	movl	-84(%rbp), %eax
	movq	-16(%rbp), %rcx
	movl	%eax, 4(%rcx)
	movl	-24(%rbp), %eax
	movq	-16(%rbp), %rcx
	movl	%eax, (%rcx)
	cmpl	$1, -40(%rbp)
	jle	.LBB42_111
# %bb.110:                              # %lor.lhs.false316
                                        #   in Loop: Header=BB42_108 Depth=1
	cmpl	$0, -92(%rbp)
	jne	.LBB42_112
.LBB42_111:                             # %if.then318
	jmp	.LBB42_120
.LBB42_112:                             # %if.end319
                                        #   in Loop: Header=BB42_108 Depth=1
	cmpl	$1, -140(%rbp)
	jle	.LBB42_117
# %bb.113:                              # %land.lhs.true321
                                        #   in Loop: Header=BB42_108 Depth=1
	cmpl	$0, -92(%rbp)
	je	.LBB42_117
# %bb.114:                              # %if.then323
                                        #   in Loop: Header=BB42_108 Depth=1
	movl	-92(%rbp), %eax
	subl	$1, %eax
	movl	%eax, -32(%rbp)
	cmpl	$6, -32(%rbp)
	jle	.LBB42_116
# %bb.115:                              # %if.then326
                                        #   in Loop: Header=BB42_108 Depth=1
	movl	$6, -32(%rbp)
.LBB42_116:                             # %if.end327
                                        #   in Loop: Header=BB42_108 Depth=1
	movl	-32(%rbp), %eax
	movq	-16(%rbp), %rcx
	movl	%eax, 12(%rcx)
	movq	-16(%rbp), %rdi
	movq	-128(%rbp), %rsi
	callq	writeSyntaxElement_Run
	movq	-16(%rbp), %rax
	movl	12(%rax), %eax
	movq	-152(%rbp), %rcx
	movslq	-52(%rbp), %rdx
	addl	(%rcx,%rdx,4), %eax
	movl	%eax, (%rcx,%rdx,4)
	movq	-16(%rbp), %rax
	movl	12(%rax), %eax
	addl	-36(%rbp), %eax
	movl	%eax, -36(%rbp)
	movl	-84(%rbp), %eax
	movl	-92(%rbp), %ecx
	subl	%eax, %ecx
	movl	%ecx, -92(%rbp)
	movl	-140(%rbp), %eax
	addl	$-1, %eax
	movl	%eax, -140(%rbp)
	movq	-16(%rbp), %rax
	addq	$48, %rax
	movq	%rax, -16(%rbp)
	movq	-64(%rbp), %rax
	movl	(%rax), %ecx
	addl	$1, %ecx
	movl	%ecx, (%rax)
.LBB42_117:                             # %if.end341
                                        #   in Loop: Header=BB42_108 Depth=1
	jmp	.LBB42_118
.LBB42_118:                             # %for.inc342
                                        #   in Loop: Header=BB42_108 Depth=1
	movl	-20(%rbp), %eax
	addl	$-1, %eax
	movl	%eax, -20(%rbp)
	jmp	.LBB42_108
.LBB42_119:                             # %for.end344.loopexit
	jmp	.LBB42_120
.LBB42_120:                             # %for.end344
	jmp	.LBB42_121
.LBB42_121:                             # %if.end345
	movl	-36(%rbp), %eax
	movl	%eax, -156(%rbp)
.LBB42_122:                             # %return
	movl	-156(%rbp), %ebx
	cmpl	$69003258, -168(%rbp)   # imm = 0x41CE7FA
	jne	.LBB42_124
.LBB42_123:
	movl	%ebx, %eax
	addq	$232, %rsp
	popq	%rbx
	popq	%rbp
	.cfi_def_cfa %rsp, 8
	retq
.LBB42_124:                             # %func_exit
	.cfi_def_cfa %rbp, 16
	callq	detect_breach
	jmp	.LBB42_123
.Lfunc_end42:
	.size	writeCoeff4x4_CAVLC.1, .Lfunc_end42-writeCoeff4x4_CAVLC.1
	.cfi_endproc
	.section	.rodata,"a",@progbits
	.p2align	3
.LJTI42_0:
	.quad	.LBB42_2
	.quad	.LBB42_8
	.quad	.LBB42_9
	.quad	.LBB42_22
	.quad	.LBB42_22
	.quad	.LBB42_22
	.quad	.LBB42_10
	.quad	.LBB42_16
                                        # -- End function
	.text
	.globl	writeReferenceFrame.2   # -- Begin function writeReferenceFrame.2
	.p2align	4, 0x90
	.type	writeReferenceFrame.2,@function
writeReferenceFrame.2:                  # @writeReferenceFrame.2
	.cfi_startproc
# %bb.0:                                # %entry
	pushq	%rbp
	.cfi_def_cfa_offset 16
	.cfi_offset %rbp, -16
	movq	%rsp, %rbp
	.cfi_def_cfa_register %rbp
	pushq	%rbx
	subq	$104, %rsp
	.cfi_offset %rbx, -24
	movl	$2125407554, -80(%rbp)  # imm = 0x7EAF2542
	movl	%edi, -72(%rbp)
	movl	%esi, -68(%rbp)
	movl	%edx, -76(%rbp)
	movl	%ecx, -48(%rbp)
	movl	%r8d, -84(%rbp)
	movq	img, %rax
	movq	14168(%rax), %rax
	movq	img, %rcx
	movslq	12(%rcx), %rcx
	imulq	$632, %rcx, %rcx        # imm = 0x278
	addq	%rcx, %rax
	movq	%rax, -64(%rbp)
	movq	img, %rax
	addq	$14176, %rax            # imm = 0x3760
	movq	-64(%rbp), %rcx
	movslq	(%rcx), %rcx
	imulq	$48, %rcx, %rcx
	addq	%rcx, %rax
	movq	%rax, -16(%rbp)
	movq	img, %rax
	movq	14160(%rax), %rax
	movq	%rax, -104(%rbp)
	movq	-64(%rbp), %rax
	addq	$20, %rax
	movq	%rax, -96(%rbp)
	movq	input, %rax
	movslq	2364(%rax), %rax
	movq	assignSE2partition(,%rax,8), %rax
	movq	%rax, -112(%rbp)
	movl	$0, -20(%rbp)
	movq	img, %rax
	cmpl	$0, 72400(%rax)
	je	.LBB43_3
# %bb.1:                                # %land.lhs.true
	movq	-64(%rbp), %rax
	cmpl	$0, 532(%rax)
	je	.LBB43_3
# %bb.2:                                # %cond.true
	movq	img, %rax
	movl	12(%rax), %eax
	cltd
	movl	$2, %ecx
	idivl	%ecx
	cmpl	$0, %edx
	movl	$4, %eax
	cmovnel	%eax, %ecx
	jmp	.LBB43_4
.LBB43_3:                               # %cond.false
	xorl	%ecx, %ecx
	jmp	.LBB43_4
.LBB43_4:                               # %cond.end
	movl	%ecx, -36(%rbp)
	cmpl	$0, -48(%rbp)
	je	.LBB43_6
# %bb.5:                                # %cond.true10
	movl	-36(%rbp), %eax
	addl	$0, %eax
	cltq
	movl	listXsize(,%rax,4), %eax
	jmp	.LBB43_7
.LBB43_6:                               # %cond.false13
	movl	-36(%rbp), %eax
	addl	$1, %eax
	cltq
	movl	listXsize(,%rax,4), %eax
.LBB43_7:                               # %cond.end17
	movl	%eax, -52(%rbp)
	movl	$0, -44(%rbp)
	cmpl	$1, -52(%rbp)
	jne	.LBB43_9
# %bb.8:                                # %if.then
	movl	$0, -40(%rbp)
	jmp	.LBB43_18
.LBB43_9:                               # %if.end
	cmpl	$2, -52(%rbp)
	jne	.LBB43_11
# %bb.10:                               # %if.then20
	movl	$1, -44(%rbp)
.LBB43_11:                              # %if.end21
	movl	-84(%rbp), %eax
	movq	-16(%rbp), %rcx
	movl	%eax, 4(%rcx)
	movq	-16(%rbp), %rax
	movl	$0, 8(%rax)
	movq	-16(%rbp), %rax
	movl	$3, (%rax)
	movq	-104(%rbp), %rax
	movq	24(%rax), %rax
	movq	-112(%rbp), %rcx
	movq	-16(%rbp), %rdx
	movslq	(%rdx), %rdx
	movslq	(%rcx,%rdx,4), %rcx
	imulq	$120, %rcx, %rcx
	addq	%rcx, %rax
	movq	%rax, -32(%rbp)
	movq	input, %rax
	cmpl	$0, 2356(%rax)
	jne	.LBB43_16
# %bb.12:                               # %if.then28
	cmpl	$0, -44(%rbp)
	je	.LBB43_14
# %bb.13:                               # %if.then30
	movq	-16(%rbp), %rax
	movl	$1, %ecx
	subl	4(%rax), %ecx
	movq	-16(%rbp), %rax
	movl	%ecx, 20(%rax)
	movq	-16(%rbp), %rax
	movl	$1, 12(%rax)
	movq	-16(%rbp), %rdi
	movq	-32(%rbp), %rax
	movq	(%rax), %rsi
	callq	writeSyntaxElement2Buf_Fixed
	jmp	.LBB43_15
.LBB43_14:                              # %if.else
	movq	-16(%rbp), %rax
	movabsq	$ue_linfo, %rcx
	movq	%rcx, 32(%rax)
	movq	-32(%rbp), %rax
	movq	112(%rax), %rax
	movq	-16(%rbp), %rdi
	movq	-32(%rbp), %rsi
	callq	*%rax
.LBB43_15:                              # %if.end33
	jmp	.LBB43_17
.LBB43_16:                              # %if.else34
	movl	-72(%rbp), %edi
	callq	BType2CtxRef
	xorl	%ecx, %ecx
	movq	-16(%rbp), %rdx
	movl	%eax, 24(%rdx)
	movl	-68(%rbp), %eax
	movq	img, %rdx
	movl	%eax, 72(%rdx)
	movl	-76(%rbp), %eax
	movq	img, %rdx
	movl	%eax, 76(%rdx)
	movq	-16(%rbp), %rax
	movabsq	$writeRefFrame_CABAC, %rdx
	movq	%rdx, 40(%rax)
	movl	-48(%rbp), %eax
	cmpl	$0, %eax
	movl	$1, %eax
	cmovnel	%ecx, %eax
	movq	-16(%rbp), %rcx
	movl	%eax, 8(%rcx)
	movq	-32(%rbp), %rax
	movq	112(%rax), %rax
	movq	-16(%rbp), %rdi
	movq	-32(%rbp), %rsi
	callq	*%rax
.LBB43_17:                              # %if.end41
	movq	-16(%rbp), %rax
	movl	12(%rax), %eax
	movq	-96(%rbp), %rcx
	addl	12(%rcx), %eax
	movl	%eax, 12(%rcx)
	movq	-16(%rbp), %rax
	movl	12(%rax), %eax
	addl	-20(%rbp), %eax
	movl	%eax, -20(%rbp)
	movq	-16(%rbp), %rax
	addq	$48, %rax
	movq	%rax, -16(%rbp)
	movq	-64(%rbp), %rax
	movl	(%rax), %ecx
	addl	$1, %ecx
	movl	%ecx, (%rax)
	movl	-20(%rbp), %eax
	movl	%eax, -40(%rbp)
.LBB43_18:                              # %return
	movl	-40(%rbp), %ebx
	cmpl	$2125407554, -80(%rbp)  # imm = 0x7EAF2542
	jne	.LBB43_20
.LBB43_19:
	movl	%ebx, %eax
	addq	$104, %rsp
	popq	%rbx
	popq	%rbp
	.cfi_def_cfa %rsp, 8
	retq
.LBB43_20:                              # %func_exit
	.cfi_def_cfa %rbp, 16
	callq	detect_breach
	jmp	.LBB43_19
.Lfunc_end43:
	.size	writeReferenceFrame.2, .Lfunc_end43-writeReferenceFrame.2
	.cfi_endproc
                                        # -- End function
	.globl	MBType2Value.3          # -- Begin function MBType2Value.3
	.p2align	4, 0x90
	.type	MBType2Value.3,@function
MBType2Value.3:                         # @MBType2Value.3
	.cfi_startproc
# %bb.0:                                # %entry
	pushq	%rbp
	.cfi_def_cfa_offset 16
	.cfi_offset %rbp, -16
	movq	%rsp, %rbp
	.cfi_def_cfa_register %rbp
	pushq	%rbx
	subq	$40, %rsp
	.cfi_offset %rbx, -24
	movl	$273966130, -36(%rbp)   # imm = 0x10546432
	movq	%rdi, -24(%rbp)
	movq	img, %rax
	cmpl	$1, 24(%rax)
	je	.LBB44_12
# %bb.1:                                # %if.then
	movq	-24(%rbp), %rax
	cmpl	$13, 72(%rax)
	je	.LBB44_3
# %bb.2:                                # %lor.lhs.false
	movq	-24(%rbp), %rax
	cmpl	$9, 72(%rax)
	jne	.LBB44_4
.LBB44_3:                               # %if.then4
	xorl	%eax, %eax
	movq	img, %rcx
	movl	24(%rcx), %ecx
	cmpl	$2, %ecx
	movl	$6, %ecx
	cmovel	%eax, %ecx
	movl	%ecx, -12(%rbp)
	jmp	.LBB44_26
.LBB44_4:                               # %if.else
	movq	-24(%rbp), %rax
	cmpl	$10, 72(%rax)
	jne	.LBB44_6
# %bb.5:                                # %if.then9
	xorl	%eax, %eax
	movq	img, %rcx
	movl	24(%rcx), %ecx
	cmpl	$2, %ecx
	movl	$6, %ecx
	cmovel	%eax, %ecx
	movq	img, %rax
	addl	72380(%rax), %ecx
	movl	%ecx, -12(%rbp)
	jmp	.LBB44_26
.LBB44_6:                               # %if.else13
	movq	-24(%rbp), %rax
	cmpl	$8, 72(%rax)
	jne	.LBB44_11
# %bb.7:                                # %if.then16
	movq	input, %rax
	cmpl	$0, 2356(%rax)
	jne	.LBB44_10
# %bb.8:                                # %land.lhs.true
	movq	-24(%rbp), %rdi
	callq	ZeroRef
	cmpl	$0, %eax
	je	.LBB44_10
# %bb.9:                                # %if.then18
	movl	$5, -12(%rbp)
	jmp	.LBB44_26
.LBB44_10:                              # %if.else19
	movl	$4, -12(%rbp)
	jmp	.LBB44_26
.LBB44_11:                              # %if.else20
	movq	-24(%rbp), %rax
	movl	72(%rax), %eax
	movl	%eax, -12(%rbp)
	jmp	.LBB44_26
.LBB44_12:                              # %if.else22
	movq	-24(%rbp), %rax
	movl	72(%rax), %eax
	movl	%eax, -16(%rbp)
	movq	-24(%rbp), %rax
	movl	488(%rax), %eax
	movl	%eax, -28(%rbp)
	movq	-24(%rbp), %rax
	movl	500(%rax), %eax
	movl	%eax, -32(%rbp)
	cmpl	$0, -16(%rbp)
	jne	.LBB44_14
# %bb.13:                               # %if.then27
	movl	$0, -12(%rbp)
	jmp	.LBB44_26
.LBB44_14:                              # %if.else28
	cmpl	$9, -16(%rbp)
	je	.LBB44_16
# %bb.15:                               # %lor.lhs.false30
	cmpl	$13, -16(%rbp)
	jne	.LBB44_17
.LBB44_16:                              # %if.then32
	movl	$23, -12(%rbp)
	jmp	.LBB44_26
.LBB44_17:                              # %if.else33
	cmpl	$10, -16(%rbp)
	jne	.LBB44_19
# %bb.18:                               # %if.then35
	movq	img, %rax
	movl	72380(%rax), %eax
	addl	$23, %eax
	movl	%eax, -12(%rbp)
	jmp	.LBB44_26
.LBB44_19:                              # %if.else38
	cmpl	$8, -16(%rbp)
	jne	.LBB44_21
# %bb.20:                               # %if.then40
	movl	$22, -12(%rbp)
	jmp	.LBB44_26
.LBB44_21:                              # %if.else41
	cmpl	$1, -16(%rbp)
	jne	.LBB44_23
# %bb.22:                               # %if.then43
	movslq	-28(%rbp), %rax
	movl	MBType2Value.dir1offset(,%rax,4), %eax
	movl	%eax, -12(%rbp)
	jmp	.LBB44_26
.LBB44_23:                              # %if.else45
	cmpl	$2, -16(%rbp)
	jne	.LBB44_25
# %bb.24:                               # %if.then47
	movslq	-28(%rbp), %rax
	imulq	$12, %rax, %rax
	movabsq	$MBType2Value.dir2offset, %rcx
	addq	%rax, %rcx
	movslq	-32(%rbp), %rax
	movl	(%rcx,%rax,4), %eax
	addl	$4, %eax
	movl	%eax, -12(%rbp)
	jmp	.LBB44_26
.LBB44_25:                              # %if.else53
	movslq	-28(%rbp), %rax
	imulq	$12, %rax, %rax
	movabsq	$MBType2Value.dir2offset, %rcx
	addq	%rax, %rcx
	movslq	-32(%rbp), %rax
	movl	(%rcx,%rax,4), %eax
	addl	$5, %eax
	movl	%eax, -12(%rbp)
.LBB44_26:                              # %return
	movl	-12(%rbp), %ebx
	cmpl	$273966130, -36(%rbp)   # imm = 0x10546432
	jne	.LBB44_28
.LBB44_27:
	movl	%ebx, %eax
	addq	$40, %rsp
	popq	%rbx
	popq	%rbp
	.cfi_def_cfa %rsp, 8
	retq
.LBB44_28:                              # %func_exit
	.cfi_def_cfa %rbp, 16
	callq	detect_breach
	jmp	.LBB44_27
.Lfunc_end44:
	.size	MBType2Value.3, .Lfunc_end44-MBType2Value.3
	.cfi_endproc
                                        # -- End function
	.globl	B8Mode2Value.4          # -- Begin function B8Mode2Value.4
	.p2align	4, 0x90
	.type	B8Mode2Value.4,@function
B8Mode2Value.4:                         # @B8Mode2Value.4
	.cfi_startproc
# %bb.0:                                # %entry
	pushq	%rbp
	.cfi_def_cfa_offset 16
	.cfi_offset %rbp, -16
	movq	%rsp, %rbp
	.cfi_def_cfa_register %rbp
	pushq	%rbx
	subq	$24, %rsp
	.cfi_offset %rbx, -24
	movl	$173054359, -20(%rbp)   # imm = 0xA509997
	movl	%edi, -12(%rbp)
	movl	%esi, -24(%rbp)
	movq	img, %rax
	cmpl	$1, 24(%rax)
	je	.LBB45_2
# %bb.1:                                # %if.then
	movl	-12(%rbp), %eax
	subl	$4, %eax
	movl	%eax, -16(%rbp)
	jmp	.LBB45_3
.LBB45_2:                               # %if.else
	movslq	-12(%rbp), %rax
	movl	B8Mode2Value.b8start(,%rax,4), %eax
	movslq	-12(%rbp), %rcx
	movl	B8Mode2Value.b8inc(,%rcx,4), %ecx
	imull	-24(%rbp), %ecx
	addl	%ecx, %eax
	movl	%eax, -16(%rbp)
.LBB45_3:                               # %return
	movl	-16(%rbp), %ebx
	cmpl	$173054359, -20(%rbp)   # imm = 0xA509997
	jne	.LBB45_5
.LBB45_4:
	movl	%ebx, %eax
	addq	$24, %rsp
	popq	%rbx
	popq	%rbp
	.cfi_def_cfa %rsp, 8
	retq
.LBB45_5:                               # %func_exit
	.cfi_def_cfa %rbp, 16
	callq	detect_breach
	jmp	.LBB45_4
.Lfunc_end45:
	.size	B8Mode2Value.4, .Lfunc_end45-B8Mode2Value.4
	.cfi_endproc
                                        # -- End function
	.globl	write_terminating_bit.5 # -- Begin function write_terminating_bit.5
	.p2align	4, 0x90
	.type	write_terminating_bit.5,@function
write_terminating_bit.5:                # @write_terminating_bit.5
	.cfi_startproc
# %bb.0:                                # %entry
	pushq	%rbp
	.cfi_def_cfa_offset 16
	.cfi_offset %rbp, -16
	movq	%rsp, %rbp
	.cfi_def_cfa_register %rbp
	subq	$32, %rsp
	movl	$2055445297, -8(%rbp)   # imm = 0x7A839B31
	movw	%di, -2(%rbp)
	movq	input, %rax
	movslq	2364(%rax), %rax
	movq	assignSE2partition(,%rax,8), %rax
	movq	%rax, -32(%rbp)
	movq	img, %rax
	movq	14160(%rax), %rax
	movq	24(%rax), %rax
	movq	-32(%rbp), %rcx
	movslq	8(%rcx), %rcx
	imulq	$120, %rcx, %rcx
	addq	%rcx, %rax
	movq	%rax, -16(%rbp)
	movq	-16(%rbp), %rax
	movq	(%rax), %rax
	movl	$1, 40(%rax)
	movq	-16(%rbp), %rax
	addq	$8, %rax
	movq	%rax, -24(%rbp)
	movq	-24(%rbp), %rdi
	movswl	-2(%rbp), %esi
	callq	biari_encode_symbol_final
	cmpl	$2055445297, -8(%rbp)   # imm = 0x7A839B31
	jne	.LBB46_2
.LBB46_1:
	addq	$32, %rsp
	popq	%rbp
	.cfi_def_cfa %rsp, 8
	retq
.LBB46_2:                               # %func_exit
	.cfi_def_cfa %rbp, 16
	callq	detect_breach
	jmp	.LBB46_1
.Lfunc_end46:
	.size	write_terminating_bit.5, .Lfunc_end46-write_terminating_bit.5
	.cfi_endproc
                                        # -- End function
	.globl	copyblock4x4.6          # -- Begin function copyblock4x4.6
	.p2align	4, 0x90
	.type	copyblock4x4.6,@function
copyblock4x4.6:                         # @copyblock4x4.6
	.cfi_startproc
# %bb.0:                                # %entry
	pushq	%rbp
	.cfi_def_cfa_offset 16
	.cfi_offset %rbp, -16
	movq	%rsp, %rbp
	.cfi_def_cfa_register %rbp
	subq	$32, %rsp
	movl	$1636514590, -20(%rbp)  # imm = 0x618B3B1E
	movq	%rdi, -8(%rbp)
	movq	%rsi, -16(%rbp)
	movq	-16(%rbp), %rax
	movl	(%rax), %eax
	movq	-8(%rbp), %rcx
	movq	%rcx, %rdx
	addq	$4, %rdx
	movq	%rdx, -8(%rbp)
	movl	%eax, (%rcx)
	movq	-16(%rbp), %rax
	movl	16(%rax), %eax
	movq	-8(%rbp), %rcx
	movq	%rcx, %rdx
	addq	$4, %rdx
	movq	%rdx, -8(%rbp)
	movl	%eax, (%rcx)
	movq	-16(%rbp), %rax
	movl	32(%rax), %eax
	movq	-8(%rbp), %rcx
	movq	%rcx, %rdx
	addq	$4, %rdx
	movq	%rdx, -8(%rbp)
	movl	%eax, (%rcx)
	movq	-16(%rbp), %rax
	movl	48(%rax), %eax
	movq	-8(%rbp), %rcx
	movq	%rcx, %rdx
	addq	$4, %rdx
	movq	%rdx, -8(%rbp)
	movl	%eax, (%rcx)
	movq	-16(%rbp), %rax
	movl	4(%rax), %eax
	movq	-8(%rbp), %rcx
	movq	%rcx, %rdx
	addq	$4, %rdx
	movq	%rdx, -8(%rbp)
	movl	%eax, (%rcx)
	movq	-16(%rbp), %rax
	movl	20(%rax), %eax
	movq	-8(%rbp), %rcx
	movq	%rcx, %rdx
	addq	$4, %rdx
	movq	%rdx, -8(%rbp)
	movl	%eax, (%rcx)
	movq	-16(%rbp), %rax
	movl	36(%rax), %eax
	movq	-8(%rbp), %rcx
	movq	%rcx, %rdx
	addq	$4, %rdx
	movq	%rdx, -8(%rbp)
	movl	%eax, (%rcx)
	movq	-16(%rbp), %rax
	movl	52(%rax), %eax
	movq	-8(%rbp), %rcx
	movq	%rcx, %rdx
	addq	$4, %rdx
	movq	%rdx, -8(%rbp)
	movl	%eax, (%rcx)
	movq	-16(%rbp), %rax
	movl	8(%rax), %eax
	movq	-8(%rbp), %rcx
	movq	%rcx, %rdx
	addq	$4, %rdx
	movq	%rdx, -8(%rbp)
	movl	%eax, (%rcx)
	movq	-16(%rbp), %rax
	movl	24(%rax), %eax
	movq	-8(%rbp), %rcx
	movq	%rcx, %rdx
	addq	$4, %rdx
	movq	%rdx, -8(%rbp)
	movl	%eax, (%rcx)
	movq	-16(%rbp), %rax
	movl	40(%rax), %eax
	movq	-8(%rbp), %rcx
	movq	%rcx, %rdx
	addq	$4, %rdx
	movq	%rdx, -8(%rbp)
	movl	%eax, (%rcx)
	movq	-16(%rbp), %rax
	movl	56(%rax), %eax
	movq	-8(%rbp), %rcx
	movq	%rcx, %rdx
	addq	$4, %rdx
	movq	%rdx, -8(%rbp)
	movl	%eax, (%rcx)
	movq	-16(%rbp), %rax
	movl	12(%rax), %eax
	movq	-8(%rbp), %rcx
	movq	%rcx, %rdx
	addq	$4, %rdx
	movq	%rdx, -8(%rbp)
	movl	%eax, (%rcx)
	movq	-16(%rbp), %rax
	movl	28(%rax), %eax
	movq	-8(%rbp), %rcx
	movq	%rcx, %rdx
	addq	$4, %rdx
	movq	%rdx, -8(%rbp)
	movl	%eax, (%rcx)
	movq	-16(%rbp), %rax
	movl	44(%rax), %eax
	movq	-8(%rbp), %rcx
	movq	%rcx, %rdx
	addq	$4, %rdx
	movq	%rdx, -8(%rbp)
	movl	%eax, (%rcx)
	movq	-16(%rbp), %rax
	movl	60(%rax), %eax
	movq	-8(%rbp), %rcx
	movq	%rcx, %rdx
	addq	$4, %rdx
	movq	%rdx, -8(%rbp)
	movl	%eax, (%rcx)
	cmpl	$1636514590, -20(%rbp)  # imm = 0x618B3B1E
	jne	.LBB47_2
.LBB47_1:
	addq	$32, %rsp
	popq	%rbp
	.cfi_def_cfa %rsp, 8
	retq
.LBB47_2:                               # %func_exit
	.cfi_def_cfa %rbp, 16
	callq	detect_breach
	jmp	.LBB47_1
.Lfunc_end47:
	.size	copyblock4x4.6, .Lfunc_end47-copyblock4x4.6
	.cfi_endproc
                                        # -- End function
	.globl	writeReferenceFrame.7   # -- Begin function writeReferenceFrame.7
	.p2align	4, 0x90
	.type	writeReferenceFrame.7,@function
writeReferenceFrame.7:                  # @writeReferenceFrame.7
	.cfi_startproc
# %bb.0:                                # %entry
	pushq	%rbp
	.cfi_def_cfa_offset 16
	.cfi_offset %rbp, -16
	movq	%rsp, %rbp
	.cfi_def_cfa_register %rbp
	pushq	%rbx
	subq	$104, %rsp
	.cfi_offset %rbx, -24
	movl	$1507796308, -84(%rbp)  # imm = 0x59DF2554
	movl	%edi, -72(%rbp)
	movl	%esi, -68(%rbp)
	movl	%edx, -80(%rbp)
	movl	%ecx, -52(%rbp)
	movl	%r8d, -76(%rbp)
	movq	img, %rax
	movq	14168(%rax), %rax
	movq	img, %rcx
	movslq	12(%rcx), %rcx
	imulq	$632, %rcx, %rcx        # imm = 0x278
	addq	%rcx, %rax
	movq	%rax, -64(%rbp)
	movq	img, %rax
	addq	$14176, %rax            # imm = 0x3760
	movq	-64(%rbp), %rcx
	movslq	(%rcx), %rcx
	imulq	$48, %rcx, %rcx
	addq	%rcx, %rax
	movq	%rax, -16(%rbp)
	movq	img, %rax
	movq	14160(%rax), %rax
	movq	%rax, -112(%rbp)
	movq	-64(%rbp), %rax
	addq	$20, %rax
	movq	%rax, -96(%rbp)
	movq	input, %rax
	movslq	2364(%rax), %rax
	movq	assignSE2partition(,%rax,8), %rax
	movq	%rax, -104(%rbp)
	movl	$0, -20(%rbp)
	movq	img, %rax
	cmpl	$0, 72400(%rax)
	je	.LBB48_3
# %bb.1:                                # %land.lhs.true
	movq	-64(%rbp), %rax
	cmpl	$0, 532(%rax)
	je	.LBB48_3
# %bb.2:                                # %cond.true
	movq	img, %rax
	movl	12(%rax), %eax
	cltd
	movl	$2, %ecx
	idivl	%ecx
	cmpl	$0, %edx
	movl	$4, %eax
	cmovnel	%eax, %ecx
	jmp	.LBB48_4
.LBB48_3:                               # %cond.false
	xorl	%ecx, %ecx
	jmp	.LBB48_4
.LBB48_4:                               # %cond.end
	movl	%ecx, -44(%rbp)
	cmpl	$0, -52(%rbp)
	je	.LBB48_6
# %bb.5:                                # %cond.true10
	movl	-44(%rbp), %eax
	addl	$0, %eax
	cltq
	movl	listXsize(,%rax,4), %eax
	jmp	.LBB48_7
.LBB48_6:                               # %cond.false13
	movl	-44(%rbp), %eax
	addl	$1, %eax
	cltq
	movl	listXsize(,%rax,4), %eax
.LBB48_7:                               # %cond.end17
	movl	%eax, -36(%rbp)
	movl	$0, -48(%rbp)
	cmpl	$1, -36(%rbp)
	jne	.LBB48_9
# %bb.8:                                # %if.then
	movl	$0, -40(%rbp)
	jmp	.LBB48_18
.LBB48_9:                               # %if.end
	cmpl	$2, -36(%rbp)
	jne	.LBB48_11
# %bb.10:                               # %if.then20
	movl	$1, -48(%rbp)
.LBB48_11:                              # %if.end21
	movl	-76(%rbp), %eax
	movq	-16(%rbp), %rcx
	movl	%eax, 4(%rcx)
	movq	-16(%rbp), %rax
	movl	$0, 8(%rax)
	movq	-16(%rbp), %rax
	movl	$3, (%rax)
	movq	-112(%rbp), %rax
	movq	24(%rax), %rax
	movq	-104(%rbp), %rcx
	movq	-16(%rbp), %rdx
	movslq	(%rdx), %rdx
	movslq	(%rcx,%rdx,4), %rcx
	imulq	$120, %rcx, %rcx
	addq	%rcx, %rax
	movq	%rax, -32(%rbp)
	movq	input, %rax
	cmpl	$0, 2356(%rax)
	jne	.LBB48_16
# %bb.12:                               # %if.then28
	cmpl	$0, -48(%rbp)
	je	.LBB48_14
# %bb.13:                               # %if.then30
	movq	-16(%rbp), %rax
	movl	$1, %ecx
	subl	4(%rax), %ecx
	movq	-16(%rbp), %rax
	movl	%ecx, 20(%rax)
	movq	-16(%rbp), %rax
	movl	$1, 12(%rax)
	movq	-16(%rbp), %rdi
	movq	-32(%rbp), %rax
	movq	(%rax), %rsi
	callq	writeSyntaxElement2Buf_Fixed
	jmp	.LBB48_15
.LBB48_14:                              # %if.else
	movq	-16(%rbp), %rax
	movabsq	$ue_linfo, %rcx
	movq	%rcx, 32(%rax)
	movq	-32(%rbp), %rax
	movq	112(%rax), %rax
	movq	-16(%rbp), %rdi
	movq	-32(%rbp), %rsi
	callq	*%rax
.LBB48_15:                              # %if.end33
	jmp	.LBB48_17
.LBB48_16:                              # %if.else34
	movl	-72(%rbp), %edi
	callq	BType2CtxRef
	xorl	%ecx, %ecx
	movq	-16(%rbp), %rdx
	movl	%eax, 24(%rdx)
	movl	-68(%rbp), %eax
	movq	img, %rdx
	movl	%eax, 72(%rdx)
	movl	-80(%rbp), %eax
	movq	img, %rdx
	movl	%eax, 76(%rdx)
	movq	-16(%rbp), %rax
	movabsq	$writeRefFrame_CABAC, %rdx
	movq	%rdx, 40(%rax)
	movl	-52(%rbp), %eax
	cmpl	$0, %eax
	movl	$1, %eax
	cmovnel	%ecx, %eax
	movq	-16(%rbp), %rcx
	movl	%eax, 8(%rcx)
	movq	-32(%rbp), %rax
	movq	112(%rax), %rax
	movq	-16(%rbp), %rdi
	movq	-32(%rbp), %rsi
	callq	*%rax
.LBB48_17:                              # %if.end41
	movq	-16(%rbp), %rax
	movl	12(%rax), %eax
	movq	-96(%rbp), %rcx
	addl	12(%rcx), %eax
	movl	%eax, 12(%rcx)
	movq	-16(%rbp), %rax
	movl	12(%rax), %eax
	addl	-20(%rbp), %eax
	movl	%eax, -20(%rbp)
	movq	-16(%rbp), %rax
	addq	$48, %rax
	movq	%rax, -16(%rbp)
	movq	-64(%rbp), %rax
	movl	(%rax), %ecx
	addl	$1, %ecx
	movl	%ecx, (%rax)
	movl	-20(%rbp), %eax
	movl	%eax, -40(%rbp)
.LBB48_18:                              # %return
	movl	-40(%rbp), %ebx
	cmpl	$1507796308, -84(%rbp)  # imm = 0x59DF2554
	jne	.LBB48_20
.LBB48_19:
	movl	%ebx, %eax
	addq	$104, %rsp
	popq	%rbx
	popq	%rbp
	.cfi_def_cfa %rsp, 8
	retq
.LBB48_20:                              # %func_exit
	.cfi_def_cfa %rbp, 16
	callq	detect_breach
	jmp	.LBB48_19
.Lfunc_end48:
	.size	writeReferenceFrame.7, .Lfunc_end48-writeReferenceFrame.7
	.cfi_endproc
                                        # -- End function
	.globl	IntraChromaPrediction.8 # -- Begin function IntraChromaPrediction.8
	.p2align	4, 0x90
	.type	IntraChromaPrediction.8,@function
IntraChromaPrediction.8:                # @IntraChromaPrediction.8
	.cfi_startproc
# %bb.0:                                # %entry
	pushq	%rbp
	.cfi_def_cfa_offset 16
	.cfi_offset %rbp, -16
	movq	%rsp, %rbp
	.cfi_def_cfa_register %rbp
	subq	$1008, %rsp             # imm = 0x3F0
	movabsq	$.L__const.IntraChromaPrediction.block_pos, %rax
	movl	$1347196059, -164(%rbp) # imm = 0x504C949B
	movq	%rdi, -192(%rbp)
	movq	%rsi, -176(%rbp)
	movq	%rdx, -184(%rbp)
	movq	img, %rcx
	movq	14168(%rcx), %rcx
	movq	img, %rdx
	movslq	12(%rdx), %rdx
	imulq	$632, %rdx, %rdx        # imm = 0x278
	addq	%rdx, %rcx
	movq	%rcx, -200(%rbp)
	movq	img, %rcx
	movl	12(%rcx), %ecx
	movl	%ecx, -120(%rbp)
	movl	$0, -132(%rbp)
	movq	img, %rcx
	movl	72708(%rcx), %ecx
	movl	%ecx, -16(%rbp)
	movq	img, %rcx
	movl	72712(%rcx), %ecx
	movl	%ecx, -12(%rbp)
	movq	img, %rcx
	movl	72700(%rcx), %ecx
	subl	$1, %ecx
	movl	%ecx, -116(%rbp)
	leaq	-1008(%rbp), %rdi
	movq	%rax, %rsi
	movl	$192, %edx
	callq	memcpy
	movl	$0, -4(%rbp)
.LBB49_1:                               # %for.cond
                                        # =>This Inner Loop Header: Depth=1
	movl	-4(%rbp), %eax
	movl	-12(%rbp), %ecx
	addl	$1, %ecx
	cmpl	%ecx, %eax
	jge	.LBB49_4
# %bb.2:                                # %for.body
                                        #   in Loop: Header=BB49_1 Depth=1
	movl	-120(%rbp), %edi
	movl	-4(%rbp), %edx
	subl	$1, %edx
	movslq	-4(%rbp), %rax
	imulq	$24, %rax, %rax
	leaq	-752(%rbp), %r8
	addq	%rax, %r8
	movl	$4294967295, %esi       # imm = 0xFFFFFFFF
	xorl	%ecx, %ecx
	callq	getNeighbour
# %bb.3:                                # %for.inc
                                        #   in Loop: Header=BB49_1 Depth=1
	movl	-4(%rbp), %eax
	addl	$1, %eax
	movl	%eax, -4(%rbp)
	jmp	.LBB49_1
.LBB49_4:                               # %for.end
	movl	-120(%rbp), %edi
	xorl	%esi, %esi
	movl	$4294967295, %edx       # imm = 0xFFFFFFFF
	xorl	%ecx, %ecx
	leaq	-160(%rbp), %r8
	callq	getNeighbour
	movl	-160(%rbp), %eax
	movl	%eax, -20(%rbp)
	movl	-752(%rbp), %eax
	movl	%eax, -96(%rbp)
	movl	-728(%rbp), %eax
	movl	%eax, -28(%rbp)
	movl	%eax, -32(%rbp)
	movq	input, %rax
	cmpl	$0, 216(%rax)
	je	.LBB49_26
# %bb.5:                                # %if.then
	cmpl	$0, -160(%rbp)
	je	.LBB49_7
# %bb.6:                                # %cond.true
	movq	img, %rax
	movq	71784(%rax), %rax
	movslq	-156(%rbp), %rcx
	movl	(%rax,%rcx,4), %eax
	jmp	.LBB49_8
.LBB49_7:                               # %cond.false
	xorl	%eax, %eax
	jmp	.LBB49_8
.LBB49_8:                               # %cond.end
	movl	%eax, -20(%rbp)
	movl	$0, -4(%rbp)
	movl	$1, -32(%rbp)
.LBB49_9:                               # %for.cond16
                                        # =>This Inner Loop Header: Depth=1
	movl	-4(%rbp), %ecx
	movl	-12(%rbp), %eax
	cltd
	movl	$2, %esi
	idivl	%esi
	cmpl	%eax, %ecx
	jge	.LBB49_15
# %bb.10:                               # %for.body18
                                        #   in Loop: Header=BB49_9 Depth=1
	movl	-4(%rbp), %eax
	addl	$1, %eax
	cltq
	imulq	$24, %rax, %rax
	leaq	-752(%rbp), %rcx
	addq	%rax, %rcx
	cmpl	$0, (%rcx)
	je	.LBB49_12
# %bb.11:                               # %cond.true24
                                        #   in Loop: Header=BB49_9 Depth=1
	movq	img, %rax
	movq	71784(%rax), %rax
	movl	-4(%rbp), %ecx
	addl	$1, %ecx
	movslq	%ecx, %rcx
	imulq	$24, %rcx, %rcx
	leaq	-752(%rbp), %rdx
	addq	%rcx, %rdx
	movslq	4(%rdx), %rcx
	movl	(%rax,%rcx,4), %eax
	jmp	.LBB49_13
.LBB49_12:                              # %cond.false32
                                        #   in Loop: Header=BB49_9 Depth=1
	xorl	%eax, %eax
	jmp	.LBB49_13
.LBB49_13:                              # %cond.end33
                                        #   in Loop: Header=BB49_9 Depth=1
	andl	-32(%rbp), %eax
	movl	%eax, -32(%rbp)
# %bb.14:                               # %for.inc36
                                        #   in Loop: Header=BB49_9 Depth=1
	movl	-4(%rbp), %eax
	addl	$1, %eax
	movl	%eax, -4(%rbp)
	jmp	.LBB49_9
.LBB49_15:                              # %for.end38
	movl	-12(%rbp), %eax
	cltd
	movl	$2, %ecx
	idivl	%ecx
	movl	%eax, -4(%rbp)
	movl	$1, -28(%rbp)
.LBB49_16:                              # %for.cond41
                                        # =>This Inner Loop Header: Depth=1
	movl	-4(%rbp), %eax
	cmpl	-12(%rbp), %eax
	jge	.LBB49_22
# %bb.17:                               # %for.body43
                                        #   in Loop: Header=BB49_16 Depth=1
	movl	-4(%rbp), %eax
	addl	$1, %eax
	cltq
	imulq	$24, %rax, %rax
	leaq	-752(%rbp), %rcx
	addq	%rax, %rcx
	cmpl	$0, (%rcx)
	je	.LBB49_19
# %bb.18:                               # %cond.true49
                                        #   in Loop: Header=BB49_16 Depth=1
	movq	img, %rax
	movq	71784(%rax), %rax
	movl	-4(%rbp), %ecx
	addl	$1, %ecx
	movslq	%ecx, %rcx
	imulq	$24, %rcx, %rcx
	leaq	-752(%rbp), %rdx
	addq	%rcx, %rdx
	movslq	4(%rdx), %rcx
	movl	(%rax,%rcx,4), %eax
	jmp	.LBB49_20
.LBB49_19:                              # %cond.false57
                                        #   in Loop: Header=BB49_16 Depth=1
	xorl	%eax, %eax
	jmp	.LBB49_20
.LBB49_20:                              # %cond.end58
                                        #   in Loop: Header=BB49_16 Depth=1
	andl	-28(%rbp), %eax
	movl	%eax, -28(%rbp)
# %bb.21:                               # %for.inc62
                                        #   in Loop: Header=BB49_16 Depth=1
	movl	-4(%rbp), %eax
	addl	$1, %eax
	movl	%eax, -4(%rbp)
	jmp	.LBB49_16
.LBB49_22:                              # %for.end64
	cmpl	$0, -752(%rbp)
	je	.LBB49_24
# %bb.23:                               # %cond.true68
	movq	img, %rax
	movq	71784(%rax), %rax
	movslq	-748(%rbp), %rcx
	movl	(%rax,%rcx,4), %eax
	jmp	.LBB49_25
.LBB49_24:                              # %cond.false74
	xorl	%eax, %eax
	jmp	.LBB49_25
.LBB49_25:                              # %cond.end75
	movl	%eax, -96(%rbp)
.LBB49_26:                              # %if.end
	cmpq	$0, -192(%rbp)
	je	.LBB49_28
# %bb.27:                               # %if.then78
	movl	-20(%rbp), %eax
	movq	-192(%rbp), %rcx
	movl	%eax, (%rcx)
.LBB49_28:                              # %if.end79
	cmpq	$0, -176(%rbp)
	je	.LBB49_32
# %bb.29:                               # %if.then81
	xorl	%eax, %eax
	cmpl	$0, -32(%rbp)
	je	.LBB49_31
# %bb.30:                               # %land.rhs
	cmpl	$0, -28(%rbp)
	setne	%al
.LBB49_31:                              # %land.end
	andb	$1, %al
	movzbl	%al, %eax
	movq	-176(%rbp), %rcx
	movl	%eax, (%rcx)
.LBB49_32:                              # %if.end86
	cmpq	$0, -184(%rbp)
	je	.LBB49_34
# %bb.33:                               # %if.then88
	movl	-96(%rbp), %eax
	movq	-184(%rbp), %rcx
	movl	%eax, (%rcx)
.LBB49_34:                              # %if.end89
	movl	$0, -24(%rbp)
.LBB49_35:                              # %for.cond90
                                        # =>This Loop Header: Depth=1
                                        #     Child Loop BB49_37 Depth 2
                                        #       Child Loop BB49_39 Depth 3
                                        #         Child Loop BB49_104 Depth 4
                                        #         Child Loop BB49_110 Depth 4
                                        #         Child Loop BB49_85 Depth 4
                                        #         Child Loop BB49_91 Depth 4
                                        #         Child Loop BB49_66 Depth 4
                                        #         Child Loop BB49_72 Depth 4
                                        #         Child Loop BB49_44 Depth 4
                                        #         Child Loop BB49_50 Depth 4
                                        #         Child Loop BB49_125 Depth 4
                                        #           Child Loop BB49_127 Depth 5
                                        #     Child Loop BB49_138 Depth 2
                                        #     Child Loop BB49_142 Depth 2
                                        #       Child Loop BB49_144 Depth 3
                                        #     Child Loop BB49_153 Depth 2
                                        #     Child Loop BB49_157 Depth 2
                                        #       Child Loop BB49_159 Depth 3
                                        #     Child Loop BB49_170 Depth 2
                                        #     Child Loop BB49_174 Depth 2
                                        #     Child Loop BB49_178 Depth 2
                                        #       Child Loop BB49_180 Depth 3
	cmpl	$2, -24(%rbp)
	jge	.LBB49_197
# %bb.36:                               # %for.body92
                                        #   in Loop: Header=BB49_35 Depth=1
	movq	enc_picture, %rax
	movq	6464(%rax), %rax
	movslq	-24(%rbp), %rcx
	movq	(%rax,%rcx,8), %rax
	movq	%rax, -80(%rbp)
	movl	$0, -84(%rbp)
.LBB49_37:                              # %for.cond95
                                        #   Parent Loop BB49_35 Depth=1
                                        # =>  This Loop Header: Depth=2
                                        #       Child Loop BB49_39 Depth 3
                                        #         Child Loop BB49_104 Depth 4
                                        #         Child Loop BB49_110 Depth 4
                                        #         Child Loop BB49_85 Depth 4
                                        #         Child Loop BB49_91 Depth 4
                                        #         Child Loop BB49_66 Depth 4
                                        #         Child Loop BB49_72 Depth 4
                                        #         Child Loop BB49_44 Depth 4
                                        #         Child Loop BB49_50 Depth 4
                                        #         Child Loop BB49_125 Depth 4
                                        #           Child Loop BB49_127 Depth 5
	movl	-84(%rbp), %ecx
	movq	img, %rax
	movl	72692(%rax), %eax
	cltd
	movl	$2, %esi
	idivl	%esi
	cmpl	%eax, %ecx
	jge	.LBB49_136
# %bb.38:                               # %for.body98
                                        #   in Loop: Header=BB49_37 Depth=2
	movl	$0, -88(%rbp)
.LBB49_39:                              # %for.cond99
                                        #   Parent Loop BB49_35 Depth=1
                                        #     Parent Loop BB49_37 Depth=2
                                        # =>    This Loop Header: Depth=3
                                        #         Child Loop BB49_104 Depth 4
                                        #         Child Loop BB49_110 Depth 4
                                        #         Child Loop BB49_85 Depth 4
                                        #         Child Loop BB49_91 Depth 4
                                        #         Child Loop BB49_66 Depth 4
                                        #         Child Loop BB49_72 Depth 4
                                        #         Child Loop BB49_44 Depth 4
                                        #         Child Loop BB49_50 Depth 4
                                        #         Child Loop BB49_125 Depth 4
                                        #           Child Loop BB49_127 Depth 5
	cmpl	$4, -88(%rbp)
	jge	.LBB49_134
# %bb.40:                               # %for.body101
                                        #   in Loop: Header=BB49_39 Depth=3
	movslq	-116(%rbp), %rax
	shlq	$5, %rax
	movslq	-84(%rbp), %rcx
	leaq	(%rax,%rcx,4), %rax
	movslq	-88(%rbp), %rcx
	movzbl	subblk_offset_y(%rcx,%rax), %eax
	movl	%eax, -44(%rbp)
	movslq	-116(%rbp), %rax
	shlq	$5, %rax
	movslq	-84(%rbp), %rcx
	leaq	(%rax,%rcx,4), %rax
	movslq	-88(%rbp), %rcx
	movzbl	subblk_offset_x(%rcx,%rax), %eax
	movl	%eax, -48(%rbp)
	movl	-48(%rbp), %eax
	movl	%eax, -52(%rbp)
	movl	-44(%rbp), %eax
	addl	$1, %eax
	movl	%eax, -56(%rbp)
	movq	img(%rip), %rax
	movl	72680(%rax), %eax
	movl	%eax, -36(%rbp)
	movl	$0, -60(%rbp)
	movl	$0, -68(%rbp)
	movl	$0, -64(%rbp)
	movl	$0, -72(%rbp)
	movslq	-116(%rbp), %rax
	shlq	$6, %rax
	leaq	-1008(%rbp,%rax), %rax
	movslq	-84(%rbp), %rcx
	shlq	$4, %rcx
	addq	%rcx, %rax
	movslq	-88(%rbp), %rcx
	movl	(%rax,%rcx,4), %eax
	movq	%rax, %rcx
	subq	$3, %rcx
	ja	.LBB49_124
# %bb.41:                               # %for.body101
                                        #   in Loop: Header=BB49_39 Depth=3
	movq	.LJTI49_0(,%rax,8), %rax
	jmpq	*%rax
.LBB49_42:                              # %sw.bb
                                        #   in Loop: Header=BB49_39 Depth=3
	cmpl	$0, -20(%rbp)
	je	.LBB49_48
# %bb.43:                               # %if.then123
                                        #   in Loop: Header=BB49_39 Depth=3
	movl	-52(%rbp), %eax
	movl	%eax, -4(%rbp)
.LBB49_44:                              # %for.cond124
                                        #   Parent Loop BB49_35 Depth=1
                                        #     Parent Loop BB49_37 Depth=2
                                        #       Parent Loop BB49_39 Depth=3
                                        # =>      This Inner Loop Header: Depth=4
	movl	-4(%rbp), %eax
	movl	-52(%rbp), %ecx
	addl	$4, %ecx
	cmpl	%ecx, %eax
	jge	.LBB49_47
# %bb.45:                               # %for.body128
                                        #   in Loop: Header=BB49_44 Depth=4
	movq	-80(%rbp), %rax
	movslq	-140(%rbp), %rcx
	movq	(%rax,%rcx,8), %rax
	movl	-144(%rbp), %ecx
	addl	-4(%rbp), %ecx
	movslq	%ecx, %rcx
	movzwl	(%rax,%rcx,2), %eax
	addl	-72(%rbp), %eax
	movl	%eax, -72(%rbp)
# %bb.46:                               # %for.inc136
                                        #   in Loop: Header=BB49_44 Depth=4
	movl	-4(%rbp), %eax
	addl	$1, %eax
	movl	%eax, -4(%rbp)
	jmp	.LBB49_44
.LBB49_47:                              # %for.end138
                                        #   in Loop: Header=BB49_39 Depth=3
	jmp	.LBB49_48
.LBB49_48:                              # %if.end139
                                        #   in Loop: Header=BB49_39 Depth=3
	cmpl	$0, -32(%rbp)
	je	.LBB49_54
# %bb.49:                               # %if.then142
                                        #   in Loop: Header=BB49_39 Depth=3
	movl	-56(%rbp), %eax
	movl	%eax, -4(%rbp)
.LBB49_50:                              # %for.cond143
                                        #   Parent Loop BB49_35 Depth=1
                                        #     Parent Loop BB49_37 Depth=2
                                        #       Parent Loop BB49_39 Depth=3
                                        # =>      This Inner Loop Header: Depth=4
	movl	-4(%rbp), %eax
	movl	-56(%rbp), %ecx
	addl	$4, %ecx
	cmpl	%ecx, %eax
	jge	.LBB49_53
# %bb.51:                               # %for.body147
                                        #   in Loop: Header=BB49_50 Depth=4
	movq	-80(%rbp), %rax
	movslq	-4(%rbp), %rcx
	imulq	$24, %rcx, %rcx
	leaq	-752(%rbp), %rdx
	movq	%rdx, %rsi
	addq	%rcx, %rsi
	movslq	20(%rsi), %rcx
	movq	(%rax,%rcx,8), %rax
	movslq	-4(%rbp), %rcx
	imulq	$24, %rcx, %rcx
	addq	%rcx, %rdx
	movslq	16(%rdx), %rcx
	movzwl	(%rax,%rcx,2), %eax
	addl	-68(%rbp), %eax
	movl	%eax, -68(%rbp)
# %bb.52:                               # %for.inc160
                                        #   in Loop: Header=BB49_50 Depth=4
	movl	-4(%rbp), %eax
	addl	$1, %eax
	movl	%eax, -4(%rbp)
	jmp	.LBB49_50
.LBB49_53:                              # %for.end162
                                        #   in Loop: Header=BB49_39 Depth=3
	jmp	.LBB49_54
.LBB49_54:                              # %if.end163
                                        #   in Loop: Header=BB49_39 Depth=3
	cmpl	$0, -20(%rbp)
	je	.LBB49_57
# %bb.55:                               # %land.lhs.true
                                        #   in Loop: Header=BB49_39 Depth=3
	cmpl	$0, -32(%rbp)
	je	.LBB49_57
# %bb.56:                               # %if.then167
                                        #   in Loop: Header=BB49_39 Depth=3
	movl	-72(%rbp), %eax
	addl	-68(%rbp), %eax
	addl	$4, %eax
	sarl	$3, %eax
	movl	%eax, -36(%rbp)
	jmp	.LBB49_63
.LBB49_57:                              # %if.else
                                        #   in Loop: Header=BB49_39 Depth=3
	cmpl	$0, -20(%rbp)
	je	.LBB49_59
# %bb.58:                               # %if.then171
                                        #   in Loop: Header=BB49_39 Depth=3
	movl	-72(%rbp), %eax
	addl	$2, %eax
	sarl	$2, %eax
	movl	%eax, -36(%rbp)
	jmp	.LBB49_62
.LBB49_59:                              # %if.else174
                                        #   in Loop: Header=BB49_39 Depth=3
	cmpl	$0, -32(%rbp)
	je	.LBB49_61
# %bb.60:                               # %if.then177
                                        #   in Loop: Header=BB49_39 Depth=3
	movl	-68(%rbp), %eax
	addl	$2, %eax
	sarl	$2, %eax
	movl	%eax, -36(%rbp)
.LBB49_61:                              # %if.end180
                                        #   in Loop: Header=BB49_39 Depth=3
	jmp	.LBB49_62
.LBB49_62:                              # %if.end181
                                        #   in Loop: Header=BB49_39 Depth=3
	jmp	.LBB49_63
.LBB49_63:                              # %if.end182
                                        #   in Loop: Header=BB49_39 Depth=3
	jmp	.LBB49_124
.LBB49_64:                              # %sw.bb183
                                        #   in Loop: Header=BB49_39 Depth=3
	cmpl	$0, -20(%rbp)
	je	.LBB49_70
# %bb.65:                               # %if.then185
                                        #   in Loop: Header=BB49_39 Depth=3
	movl	-52(%rbp), %eax
	movl	%eax, -4(%rbp)
.LBB49_66:                              # %for.cond186
                                        #   Parent Loop BB49_35 Depth=1
                                        #     Parent Loop BB49_37 Depth=2
                                        #       Parent Loop BB49_39 Depth=3
                                        # =>      This Inner Loop Header: Depth=4
	movl	-4(%rbp), %eax
	movl	-52(%rbp), %ecx
	addl	$4, %ecx
	cmpl	%ecx, %eax
	jge	.LBB49_69
# %bb.67:                               # %for.body190
                                        #   in Loop: Header=BB49_66 Depth=4
	movq	-80(%rbp), %rax
	movslq	-140(%rbp), %rcx
	movq	(%rax,%rcx,8), %rax
	movl	-144(%rbp), %ecx
	addl	-4(%rbp), %ecx
	movslq	%ecx, %rcx
	movzwl	(%rax,%rcx,2), %eax
	addl	-64(%rbp), %eax
	movl	%eax, -64(%rbp)
# %bb.68:                               # %for.inc200
                                        #   in Loop: Header=BB49_66 Depth=4
	movl	-4(%rbp), %eax
	addl	$1, %eax
	movl	%eax, -4(%rbp)
	jmp	.LBB49_66
.LBB49_69:                              # %for.end202
                                        #   in Loop: Header=BB49_39 Depth=3
	jmp	.LBB49_77
.LBB49_70:                              # %if.else203
                                        #   in Loop: Header=BB49_39 Depth=3
	cmpl	$0, -32(%rbp)
	je	.LBB49_76
# %bb.71:                               # %if.then206
                                        #   in Loop: Header=BB49_39 Depth=3
	movl	-56(%rbp), %eax
	movl	%eax, -4(%rbp)
.LBB49_72:                              # %for.cond207
                                        #   Parent Loop BB49_35 Depth=1
                                        #     Parent Loop BB49_37 Depth=2
                                        #       Parent Loop BB49_39 Depth=3
                                        # =>      This Inner Loop Header: Depth=4
	movl	-4(%rbp), %eax
	movl	-56(%rbp), %ecx
	addl	$4, %ecx
	cmpl	%ecx, %eax
	jge	.LBB49_75
# %bb.73:                               # %for.body211
                                        #   in Loop: Header=BB49_72 Depth=4
	movq	-80(%rbp), %rax
	movslq	-4(%rbp), %rcx
	imulq	$24, %rcx, %rcx
	leaq	-752(%rbp), %rdx
	movq	%rdx, %rsi
	addq	%rcx, %rsi
	movslq	20(%rsi), %rcx
	movq	(%rax,%rcx,8), %rax
	movslq	-4(%rbp), %rcx
	imulq	$24, %rcx, %rcx
	addq	%rcx, %rdx
	movslq	16(%rdx), %rcx
	movzwl	(%rax,%rcx,2), %eax
	addl	-68(%rbp), %eax
	movl	%eax, -68(%rbp)
# %bb.74:                               # %for.inc224
                                        #   in Loop: Header=BB49_72 Depth=4
	movl	-4(%rbp), %eax
	addl	$1, %eax
	movl	%eax, -4(%rbp)
	jmp	.LBB49_72
.LBB49_75:                              # %for.end226
                                        #   in Loop: Header=BB49_39 Depth=3
	jmp	.LBB49_76
.LBB49_76:                              # %if.end227
                                        #   in Loop: Header=BB49_39 Depth=3
	jmp	.LBB49_77
.LBB49_77:                              # %if.end228
                                        #   in Loop: Header=BB49_39 Depth=3
	cmpl	$0, -20(%rbp)
	je	.LBB49_79
# %bb.78:                               # %if.then230
                                        #   in Loop: Header=BB49_39 Depth=3
	movl	-64(%rbp), %eax
	addl	$2, %eax
	sarl	$2, %eax
	movl	%eax, -36(%rbp)
	jmp	.LBB49_82
.LBB49_79:                              # %if.else233
                                        #   in Loop: Header=BB49_39 Depth=3
	cmpl	$0, -32(%rbp)
	je	.LBB49_81
# %bb.80:                               # %if.then236
                                        #   in Loop: Header=BB49_39 Depth=3
	movl	-68(%rbp), %eax
	addl	$2, %eax
	sarl	$2, %eax
	movl	%eax, -36(%rbp)
.LBB49_81:                              # %if.end239
                                        #   in Loop: Header=BB49_39 Depth=3
	jmp	.LBB49_82
.LBB49_82:                              # %if.end240
                                        #   in Loop: Header=BB49_39 Depth=3
	jmp	.LBB49_124
.LBB49_83:                              # %sw.bb241
                                        #   in Loop: Header=BB49_39 Depth=3
	cmpl	$0, -28(%rbp)
	je	.LBB49_89
# %bb.84:                               # %if.then244
                                        #   in Loop: Header=BB49_39 Depth=3
	movl	-56(%rbp), %eax
	movl	%eax, -4(%rbp)
.LBB49_85:                              # %for.cond245
                                        #   Parent Loop BB49_35 Depth=1
                                        #     Parent Loop BB49_37 Depth=2
                                        #       Parent Loop BB49_39 Depth=3
                                        # =>      This Inner Loop Header: Depth=4
	movl	-4(%rbp), %eax
	movl	-56(%rbp), %ecx
	addl	$4, %ecx
	cmpl	%ecx, %eax
	jge	.LBB49_88
# %bb.86:                               # %for.body249
                                        #   in Loop: Header=BB49_85 Depth=4
	movq	-80(%rbp), %rax
	movslq	-4(%rbp), %rcx
	imulq	$24, %rcx, %rcx
	leaq	-752(%rbp), %rdx
	movq	%rdx, %rsi
	addq	%rcx, %rsi
	movslq	20(%rsi), %rcx
	movq	(%rax,%rcx,8), %rax
	movslq	-4(%rbp), %rcx
	imulq	$24, %rcx, %rcx
	addq	%rcx, %rdx
	movslq	16(%rdx), %rcx
	movzwl	(%rax,%rcx,2), %eax
	addl	-60(%rbp), %eax
	movl	%eax, -60(%rbp)
# %bb.87:                               # %for.inc262
                                        #   in Loop: Header=BB49_85 Depth=4
	movl	-4(%rbp), %eax
	addl	$1, %eax
	movl	%eax, -4(%rbp)
	jmp	.LBB49_85
.LBB49_88:                              # %for.end264
                                        #   in Loop: Header=BB49_39 Depth=3
	jmp	.LBB49_96
.LBB49_89:                              # %if.else265
                                        #   in Loop: Header=BB49_39 Depth=3
	cmpl	$0, -20(%rbp)
	je	.LBB49_95
# %bb.90:                               # %if.then267
                                        #   in Loop: Header=BB49_39 Depth=3
	movl	-52(%rbp), %eax
	movl	%eax, -4(%rbp)
.LBB49_91:                              # %for.cond268
                                        #   Parent Loop BB49_35 Depth=1
                                        #     Parent Loop BB49_37 Depth=2
                                        #       Parent Loop BB49_39 Depth=3
                                        # =>      This Inner Loop Header: Depth=4
	movl	-4(%rbp), %eax
	movl	-52(%rbp), %ecx
	addl	$4, %ecx
	cmpl	%ecx, %eax
	jge	.LBB49_94
# %bb.92:                               # %for.body272
                                        #   in Loop: Header=BB49_91 Depth=4
	movq	-80(%rbp), %rax
	movslq	-140(%rbp), %rcx
	movq	(%rax,%rcx,8), %rax
	movl	-144(%rbp), %ecx
	addl	-4(%rbp), %ecx
	movslq	%ecx, %rcx
	movzwl	(%rax,%rcx,2), %eax
	addl	-72(%rbp), %eax
	movl	%eax, -72(%rbp)
# %bb.93:                               # %for.inc282
                                        #   in Loop: Header=BB49_91 Depth=4
	movl	-4(%rbp), %eax
	addl	$1, %eax
	movl	%eax, -4(%rbp)
	jmp	.LBB49_91
.LBB49_94:                              # %for.end284
                                        #   in Loop: Header=BB49_39 Depth=3
	jmp	.LBB49_95
.LBB49_95:                              # %if.end285
                                        #   in Loop: Header=BB49_39 Depth=3
	jmp	.LBB49_96
.LBB49_96:                              # %if.end286
                                        #   in Loop: Header=BB49_39 Depth=3
	cmpl	$0, -28(%rbp)
	je	.LBB49_98
# %bb.97:                               # %if.then289
                                        #   in Loop: Header=BB49_39 Depth=3
	movl	-60(%rbp), %eax
	addl	$2, %eax
	sarl	$2, %eax
	movl	%eax, -36(%rbp)
	jmp	.LBB49_101
.LBB49_98:                              # %if.else292
                                        #   in Loop: Header=BB49_39 Depth=3
	cmpl	$0, -20(%rbp)
	je	.LBB49_100
# %bb.99:                               # %if.then294
                                        #   in Loop: Header=BB49_39 Depth=3
	movl	-72(%rbp), %eax
	addl	$2, %eax
	sarl	$2, %eax
	movl	%eax, -36(%rbp)
.LBB49_100:                             # %if.end297
                                        #   in Loop: Header=BB49_39 Depth=3
	jmp	.LBB49_101
.LBB49_101:                             # %if.end298
                                        #   in Loop: Header=BB49_39 Depth=3
	jmp	.LBB49_124
.LBB49_102:                             # %sw.bb299
                                        #   in Loop: Header=BB49_39 Depth=3
	cmpl	$0, -20(%rbp)
	je	.LBB49_108
# %bb.103:                              # %if.then301
                                        #   in Loop: Header=BB49_39 Depth=3
	movl	-52(%rbp), %eax
	movl	%eax, -4(%rbp)
.LBB49_104:                             # %for.cond302
                                        #   Parent Loop BB49_35 Depth=1
                                        #     Parent Loop BB49_37 Depth=2
                                        #       Parent Loop BB49_39 Depth=3
                                        # =>      This Inner Loop Header: Depth=4
	movl	-4(%rbp), %eax
	movl	-52(%rbp), %ecx
	addl	$4, %ecx
	cmpl	%ecx, %eax
	jge	.LBB49_107
# %bb.105:                              # %for.body306
                                        #   in Loop: Header=BB49_104 Depth=4
	movq	-80(%rbp), %rax
	movslq	-140(%rbp), %rcx
	movq	(%rax,%rcx,8), %rax
	movl	-144(%rbp), %ecx
	addl	-4(%rbp), %ecx
	movslq	%ecx, %rcx
	movzwl	(%rax,%rcx,2), %eax
	addl	-64(%rbp), %eax
	movl	%eax, -64(%rbp)
# %bb.106:                              # %for.inc316
                                        #   in Loop: Header=BB49_104 Depth=4
	movl	-4(%rbp), %eax
	addl	$1, %eax
	movl	%eax, -4(%rbp)
	jmp	.LBB49_104
.LBB49_107:                             # %for.end318
                                        #   in Loop: Header=BB49_39 Depth=3
	jmp	.LBB49_108
.LBB49_108:                             # %if.end319
                                        #   in Loop: Header=BB49_39 Depth=3
	cmpl	$0, -28(%rbp)
	je	.LBB49_114
# %bb.109:                              # %if.then322
                                        #   in Loop: Header=BB49_39 Depth=3
	movl	-56(%rbp), %eax
	movl	%eax, -4(%rbp)
.LBB49_110:                             # %for.cond323
                                        #   Parent Loop BB49_35 Depth=1
                                        #     Parent Loop BB49_37 Depth=2
                                        #       Parent Loop BB49_39 Depth=3
                                        # =>      This Inner Loop Header: Depth=4
	movl	-4(%rbp), %eax
	movl	-56(%rbp), %ecx
	addl	$4, %ecx
	cmpl	%ecx, %eax
	jge	.LBB49_113
# %bb.111:                              # %for.body327
                                        #   in Loop: Header=BB49_110 Depth=4
	movq	-80(%rbp), %rax
	movslq	-4(%rbp), %rcx
	imulq	$24, %rcx, %rcx
	leaq	-752(%rbp), %rdx
	movq	%rdx, %rsi
	addq	%rcx, %rsi
	movslq	20(%rsi), %rcx
	movq	(%rax,%rcx,8), %rax
	movslq	-4(%rbp), %rcx
	imulq	$24, %rcx, %rcx
	addq	%rcx, %rdx
	movslq	16(%rdx), %rcx
	movzwl	(%rax,%rcx,2), %eax
	addl	-60(%rbp), %eax
	movl	%eax, -60(%rbp)
# %bb.112:                              # %for.inc340
                                        #   in Loop: Header=BB49_110 Depth=4
	movl	-4(%rbp), %eax
	addl	$1, %eax
	movl	%eax, -4(%rbp)
	jmp	.LBB49_110
.LBB49_113:                             # %for.end342
                                        #   in Loop: Header=BB49_39 Depth=3
	jmp	.LBB49_114
.LBB49_114:                             # %if.end343
                                        #   in Loop: Header=BB49_39 Depth=3
	cmpl	$0, -20(%rbp)
	je	.LBB49_117
# %bb.115:                              # %land.lhs.true345
                                        #   in Loop: Header=BB49_39 Depth=3
	cmpl	$0, -28(%rbp)
	je	.LBB49_117
# %bb.116:                              # %if.then348
                                        #   in Loop: Header=BB49_39 Depth=3
	movl	-64(%rbp), %eax
	addl	-60(%rbp), %eax
	addl	$4, %eax
	sarl	$3, %eax
	movl	%eax, -36(%rbp)
	jmp	.LBB49_123
.LBB49_117:                             # %if.else352
                                        #   in Loop: Header=BB49_39 Depth=3
	cmpl	$0, -20(%rbp)
	je	.LBB49_119
# %bb.118:                              # %if.then354
                                        #   in Loop: Header=BB49_39 Depth=3
	movl	-64(%rbp), %eax
	addl	$2, %eax
	sarl	$2, %eax
	movl	%eax, -36(%rbp)
	jmp	.LBB49_122
.LBB49_119:                             # %if.else357
                                        #   in Loop: Header=BB49_39 Depth=3
	cmpl	$0, -28(%rbp)
	je	.LBB49_121
# %bb.120:                              # %if.then360
                                        #   in Loop: Header=BB49_39 Depth=3
	movl	-60(%rbp), %eax
	addl	$2, %eax
	sarl	$2, %eax
	movl	%eax, -36(%rbp)
.LBB49_121:                             # %if.end363
                                        #   in Loop: Header=BB49_39 Depth=3
	jmp	.LBB49_122
.LBB49_122:                             # %if.end364
                                        #   in Loop: Header=BB49_39 Depth=3
	jmp	.LBB49_123
.LBB49_123:                             # %if.end365
                                        #   in Loop: Header=BB49_39 Depth=3
	jmp	.LBB49_124
.LBB49_124:                             # %sw.epilog
                                        #   in Loop: Header=BB49_39 Depth=3
	movl	-44(%rbp), %eax
	movl	%eax, -8(%rbp)
.LBB49_125:                             # %for.cond366
                                        #   Parent Loop BB49_35 Depth=1
                                        #     Parent Loop BB49_37 Depth=2
                                        #       Parent Loop BB49_39 Depth=3
                                        # =>      This Loop Header: Depth=4
                                        #           Child Loop BB49_127 Depth 5
	movl	-8(%rbp), %eax
	movl	-44(%rbp), %ecx
	addl	$4, %ecx
	cmpl	%ecx, %eax
	jge	.LBB49_132
# %bb.126:                              # %for.body370
                                        #   in Loop: Header=BB49_125 Depth=4
	movl	-48(%rbp), %eax
	movl	%eax, -4(%rbp)
.LBB49_127:                             # %for.cond371
                                        #   Parent Loop BB49_35 Depth=1
                                        #     Parent Loop BB49_37 Depth=2
                                        #       Parent Loop BB49_39 Depth=3
                                        #         Parent Loop BB49_125 Depth=4
                                        # =>        This Inner Loop Header: Depth=5
	movl	-4(%rbp), %eax
	movl	-48(%rbp), %ecx
	addl	$4, %ecx
	cmpl	%ecx, %eax
	jge	.LBB49_130
# %bb.128:                              # %for.body375
                                        #   in Loop: Header=BB49_127 Depth=5
	movl	-36(%rbp), %eax
	movq	img, %rcx
	addq	$8504, %rcx             # imm = 0x2138
	movslq	-24(%rbp), %rdx
	shlq	$11, %rdx
	addq	%rdx, %rcx
	movslq	-4(%rbp), %rdx
	shlq	$5, %rdx
	addq	%rdx, %rcx
	movslq	-8(%rbp), %rdx
	movw	%ax, (%rcx,%rdx,2)
# %bb.129:                              # %for.inc384
                                        #   in Loop: Header=BB49_127 Depth=5
	movl	-4(%rbp), %eax
	addl	$1, %eax
	movl	%eax, -4(%rbp)
	jmp	.LBB49_127
.LBB49_130:                             # %for.end386
                                        #   in Loop: Header=BB49_125 Depth=4
	jmp	.LBB49_131
.LBB49_131:                             # %for.inc387
                                        #   in Loop: Header=BB49_125 Depth=4
	movl	-8(%rbp), %eax
	addl	$1, %eax
	movl	%eax, -8(%rbp)
	jmp	.LBB49_125
.LBB49_132:                             # %for.end389
                                        #   in Loop: Header=BB49_39 Depth=3
	jmp	.LBB49_133
.LBB49_133:                             # %for.inc390
                                        #   in Loop: Header=BB49_39 Depth=3
	movl	-88(%rbp), %eax
	addl	$1, %eax
	movl	%eax, -88(%rbp)
	jmp	.LBB49_39
.LBB49_134:                             # %for.end392
                                        #   in Loop: Header=BB49_37 Depth=2
	jmp	.LBB49_135
.LBB49_135:                             # %for.inc393
                                        #   in Loop: Header=BB49_37 Depth=2
	movl	-84(%rbp), %eax
	addl	$1, %eax
	movl	%eax, -84(%rbp)
	jmp	.LBB49_37
.LBB49_136:                             # %for.end395
                                        #   in Loop: Header=BB49_35 Depth=1
	cmpl	$0, -20(%rbp)
	je	.LBB49_150
# %bb.137:                              # %if.then397
                                        #   in Loop: Header=BB49_35 Depth=1
	movl	$0, -4(%rbp)
.LBB49_138:                             # %for.cond398
                                        #   Parent Loop BB49_35 Depth=1
                                        # =>  This Inner Loop Header: Depth=2
	movl	-4(%rbp), %eax
	cmpl	-16(%rbp), %eax
	jge	.LBB49_141
# %bb.139:                              # %for.body401
                                        #   in Loop: Header=BB49_138 Depth=2
	movq	-80(%rbp), %rax
	movslq	-140(%rbp), %rcx
	movq	(%rax,%rcx,8), %rax
	movl	-144(%rbp), %ecx
	addl	-4(%rbp), %ecx
	movslq	%ecx, %rcx
	movzwl	(%rax,%rcx,2), %eax
	movslq	-4(%rbp), %rcx
	movl	%eax, -272(%rbp,%rcx,4)
# %bb.140:                              # %for.inc412
                                        #   in Loop: Header=BB49_138 Depth=2
	movl	-4(%rbp), %eax
	addl	$1, %eax
	movl	%eax, -4(%rbp)
	jmp	.LBB49_138
.LBB49_141:                             # %for.end414
                                        #   in Loop: Header=BB49_35 Depth=1
	movl	$0, -4(%rbp)
.LBB49_142:                             # %for.cond415
                                        #   Parent Loop BB49_35 Depth=1
                                        # =>  This Loop Header: Depth=2
                                        #       Child Loop BB49_144 Depth 3
	movl	-4(%rbp), %eax
	cmpl	-16(%rbp), %eax
	jge	.LBB49_149
# %bb.143:                              # %for.body418
                                        #   in Loop: Header=BB49_142 Depth=2
	movl	$0, -8(%rbp)
.LBB49_144:                             # %for.cond419
                                        #   Parent Loop BB49_35 Depth=1
                                        #     Parent Loop BB49_142 Depth=2
                                        # =>    This Inner Loop Header: Depth=3
	movl	-8(%rbp), %eax
	cmpl	-12(%rbp), %eax
	jge	.LBB49_147
# %bb.145:                              # %for.body422
                                        #   in Loop: Header=BB49_144 Depth=3
	movslq	-4(%rbp), %rax
	movl	-272(%rbp,%rax,4), %eax
	movq	img, %rcx
	addq	$8504, %rcx             # imm = 0x2138
	movslq	-24(%rbp), %rdx
	shlq	$11, %rdx
	addq	%rdx, %rcx
	addq	$1024, %rcx             # imm = 0x400
	movslq	-4(%rbp), %rdx
	shlq	$5, %rdx
	addq	%rdx, %rcx
	movslq	-8(%rbp), %rdx
	movw	%ax, (%rcx,%rdx,2)
# %bb.146:                              # %for.inc434
                                        #   in Loop: Header=BB49_144 Depth=3
	movl	-8(%rbp), %eax
	addl	$1, %eax
	movl	%eax, -8(%rbp)
	jmp	.LBB49_144
.LBB49_147:                             # %for.end436
                                        #   in Loop: Header=BB49_142 Depth=2
	jmp	.LBB49_148
.LBB49_148:                             # %for.inc437
                                        #   in Loop: Header=BB49_142 Depth=2
	movl	-4(%rbp), %eax
	addl	$1, %eax
	movl	%eax, -4(%rbp)
	jmp	.LBB49_142
.LBB49_149:                             # %for.end439
                                        #   in Loop: Header=BB49_35 Depth=1
	jmp	.LBB49_150
.LBB49_150:                             # %if.end440
                                        #   in Loop: Header=BB49_35 Depth=1
	cmpl	$0, -32(%rbp)
	je	.LBB49_165
# %bb.151:                              # %land.lhs.true443
                                        #   in Loop: Header=BB49_35 Depth=1
	cmpl	$0, -28(%rbp)
	je	.LBB49_165
# %bb.152:                              # %if.then446
                                        #   in Loop: Header=BB49_35 Depth=1
	movl	$0, -4(%rbp)
.LBB49_153:                             # %for.cond447
                                        #   Parent Loop BB49_35 Depth=1
                                        # =>  This Inner Loop Header: Depth=2
	movl	-4(%rbp), %eax
	cmpl	-12(%rbp), %eax
	jge	.LBB49_156
# %bb.154:                              # %for.body450
                                        #   in Loop: Header=BB49_153 Depth=2
	movq	-80(%rbp), %rax
	movl	-4(%rbp), %ecx
	addl	$1, %ecx
	movslq	%ecx, %rcx
	imulq	$24, %rcx, %rcx
	leaq	-752(%rbp), %rdx
	movq	%rdx, %rsi
	addq	%rcx, %rsi
	movslq	20(%rsi), %rcx
	movq	(%rax,%rcx,8), %rax
	movl	-4(%rbp), %ecx
	addl	$1, %ecx
	movslq	%ecx, %rcx
	imulq	$24, %rcx, %rcx
	addq	%rcx, %rdx
	movslq	16(%rdx), %rcx
	movzwl	(%rax,%rcx,2), %eax
	movslq	-4(%rbp), %rcx
	movl	%eax, -336(%rbp,%rcx,4)
# %bb.155:                              # %for.inc466
                                        #   in Loop: Header=BB49_153 Depth=2
	movl	-4(%rbp), %eax
	addl	$1, %eax
	movl	%eax, -4(%rbp)
	jmp	.LBB49_153
.LBB49_156:                             # %for.end468
                                        #   in Loop: Header=BB49_35 Depth=1
	movl	$0, -4(%rbp)
.LBB49_157:                             # %for.cond469
                                        #   Parent Loop BB49_35 Depth=1
                                        # =>  This Loop Header: Depth=2
                                        #       Child Loop BB49_159 Depth 3
	movl	-4(%rbp), %eax
	cmpl	-16(%rbp), %eax
	jge	.LBB49_164
# %bb.158:                              # %for.body472
                                        #   in Loop: Header=BB49_157 Depth=2
	movl	$0, -8(%rbp)
.LBB49_159:                             # %for.cond473
                                        #   Parent Loop BB49_35 Depth=1
                                        #     Parent Loop BB49_157 Depth=2
                                        # =>    This Inner Loop Header: Depth=3
	movl	-8(%rbp), %eax
	cmpl	-12(%rbp), %eax
	jge	.LBB49_162
# %bb.160:                              # %for.body476
                                        #   in Loop: Header=BB49_159 Depth=3
	movslq	-8(%rbp), %rax
	movl	-336(%rbp,%rax,4), %eax
	movq	img, %rcx
	addq	$8504, %rcx             # imm = 0x2138
	movslq	-24(%rbp), %rdx
	shlq	$11, %rdx
	addq	%rdx, %rcx
	addq	$512, %rcx              # imm = 0x200
	movslq	-4(%rbp), %rdx
	shlq	$5, %rdx
	addq	%rdx, %rcx
	movslq	-8(%rbp), %rdx
	movw	%ax, (%rcx,%rdx,2)
# %bb.161:                              # %for.inc488
                                        #   in Loop: Header=BB49_159 Depth=3
	movl	-8(%rbp), %eax
	addl	$1, %eax
	movl	%eax, -8(%rbp)
	jmp	.LBB49_159
.LBB49_162:                             # %for.end490
                                        #   in Loop: Header=BB49_157 Depth=2
	jmp	.LBB49_163
.LBB49_163:                             # %for.inc491
                                        #   in Loop: Header=BB49_157 Depth=2
	movl	-4(%rbp), %eax
	addl	$1, %eax
	movl	%eax, -4(%rbp)
	jmp	.LBB49_157
.LBB49_164:                             # %for.end493
                                        #   in Loop: Header=BB49_35 Depth=1
	jmp	.LBB49_165
.LBB49_165:                             # %if.end494
                                        #   in Loop: Header=BB49_35 Depth=1
	cmpl	$0, -32(%rbp)
	je	.LBB49_195
# %bb.166:                              # %land.lhs.true497
                                        #   in Loop: Header=BB49_35 Depth=1
	cmpl	$0, -28(%rbp)
	je	.LBB49_195
# %bb.167:                              # %land.lhs.true500
                                        #   in Loop: Header=BB49_35 Depth=1
	cmpl	$0, -20(%rbp)
	je	.LBB49_195
# %bb.168:                              # %land.lhs.true502
                                        #   in Loop: Header=BB49_35 Depth=1
	cmpl	$0, -96(%rbp)
	je	.LBB49_195
# %bb.169:                              # %if.then504
                                        #   in Loop: Header=BB49_35 Depth=1
	movl	-16(%rbp), %eax
	cltd
	movl	$2, %ecx
	idivl	%ecx
	movl	-16(%rbp), %ecx
	subl	$1, %ecx
	movslq	%ecx, %rcx
	movl	-272(%rbp,%rcx,4), %ecx
	movq	-80(%rbp), %rdx
	movslq	-732(%rbp), %rsi
	movq	(%rdx,%rsi,8), %rdx
	movslq	-736(%rbp), %rsi
	movzwl	(%rdx,%rsi,2), %edx
	subl	%edx, %ecx
	imull	%ecx, %eax
	movl	%eax, -124(%rbp)
	movl	$0, -4(%rbp)
.LBB49_170:                             # %for.cond519
                                        #   Parent Loop BB49_35 Depth=1
                                        # =>  This Inner Loop Header: Depth=2
	movl	-4(%rbp), %ecx
	movl	-16(%rbp), %eax
	cltd
	movl	$2, %esi
	idivl	%esi
	subl	$1, %eax
	cmpl	%eax, %ecx
	jge	.LBB49_173
# %bb.171:                              # %for.body524
                                        #   in Loop: Header=BB49_170 Depth=2
	movl	-4(%rbp), %ecx
	addl	$1, %ecx
	movl	-16(%rbp), %eax
	cltd
	movl	$2, %esi
	idivl	%esi
	addl	-4(%rbp), %eax
	cltq
	movl	-272(%rbp,%rax,4), %edi
	movl	-16(%rbp), %eax
	cltd
	idivl	%esi
	subl	$2, %eax
	subl	-4(%rbp), %eax
	cltq
	subl	-272(%rbp,%rax,4), %edi
	imull	%edi, %ecx
	addl	-124(%rbp), %ecx
	movl	%ecx, -124(%rbp)
# %bb.172:                              # %for.inc538
                                        #   in Loop: Header=BB49_170 Depth=2
	movl	-4(%rbp), %eax
	addl	$1, %eax
	movl	%eax, -4(%rbp)
	jmp	.LBB49_170
.LBB49_173:                             # %for.end540
                                        #   in Loop: Header=BB49_35 Depth=1
	movl	-12(%rbp), %eax
	cltd
	movl	$2, %ecx
	idivl	%ecx
	movl	-12(%rbp), %ecx
	subl	$1, %ecx
	movslq	%ecx, %rcx
	movl	-336(%rbp,%rcx,4), %ecx
	movq	-80(%rbp), %rdx
	movslq	-732(%rbp), %rsi
	movq	(%rdx,%rsi,8), %rdx
	movslq	-736(%rbp), %rsi
	movzwl	(%rdx,%rsi,2), %edx
	subl	%edx, %ecx
	imull	%ecx, %eax
	movl	%eax, -128(%rbp)
	movl	$0, -4(%rbp)
.LBB49_174:                             # %for.cond556
                                        #   Parent Loop BB49_35 Depth=1
                                        # =>  This Inner Loop Header: Depth=2
	movl	-4(%rbp), %ecx
	movl	-12(%rbp), %eax
	cltd
	movl	$2, %esi
	idivl	%esi
	subl	$1, %eax
	cmpl	%eax, %ecx
	jge	.LBB49_177
# %bb.175:                              # %for.body561
                                        #   in Loop: Header=BB49_174 Depth=2
	movl	-4(%rbp), %ecx
	addl	$1, %ecx
	movl	-12(%rbp), %eax
	cltd
	movl	$2, %esi
	idivl	%esi
	addl	-4(%rbp), %eax
	cltq
	movl	-336(%rbp,%rax,4), %edi
	movl	-12(%rbp), %eax
	cltd
	idivl	%esi
	subl	$2, %eax
	subl	-4(%rbp), %eax
	cltq
	subl	-336(%rbp,%rax,4), %edi
	imull	%edi, %ecx
	addl	-128(%rbp), %ecx
	movl	%ecx, -128(%rbp)
# %bb.176:                              # %for.inc575
                                        #   in Loop: Header=BB49_174 Depth=2
	movl	-4(%rbp), %eax
	addl	$1, %eax
	movl	%eax, -4(%rbp)
	jmp	.LBB49_174
.LBB49_177:                             # %for.end577
                                        #   in Loop: Header=BB49_35 Depth=1
	movl	-16(%rbp), %eax
	cmpl	$8, %eax
	movl	$17, %esi
	movl	$5, %edx
	movl	$5, %edi
	cmovel	%esi, %edi
	imull	-124(%rbp), %edi
	movl	-16(%rbp), %eax
	shll	$1, %eax
	addl	%eax, %edi
	movl	-16(%rbp), %eax
	cmpl	$8, %eax
	movl	$6, %eax
	movl	$6, %ecx
	cmovel	%edx, %ecx
                                        # kill: def $cl killed $ecx
	sarl	%cl, %edi
	movl	%edi, -108(%rbp)
	movl	-12(%rbp), %ecx
	cmpl	$8, %ecx
	movl	$5, %edi
	cmovel	%esi, %edi
	imull	-128(%rbp), %edi
	movl	-12(%rbp), %ecx
	shll	$1, %ecx
	addl	%ecx, %edi
	movl	-12(%rbp), %ecx
	cmpl	$8, %ecx
	cmovel	%edx, %eax
	movl	%eax, %ecx
                                        # kill: def $cl killed $ecx
	sarl	%cl, %edi
	movl	%edi, -104(%rbp)
	movl	-16(%rbp), %eax
	subl	$1, %eax
	cltq
	movl	-272(%rbp,%rax,4), %eax
	movl	-12(%rbp), %ecx
	subl	$1, %ecx
	movslq	%ecx, %rcx
	addl	-336(%rbp,%rcx,4), %eax
	shll	$4, %eax
	movl	%eax, -100(%rbp)
	movl	$0, -8(%rbp)
.LBB49_178:                             # %for.cond606
                                        #   Parent Loop BB49_35 Depth=1
                                        # =>  This Loop Header: Depth=2
                                        #       Child Loop BB49_180 Depth 3
	movl	-8(%rbp), %eax
	cmpl	-12(%rbp), %eax
	jge	.LBB49_194
# %bb.179:                              # %for.body609
                                        #   in Loop: Header=BB49_178 Depth=2
	movl	$0, -4(%rbp)
.LBB49_180:                             # %for.cond610
                                        #   Parent Loop BB49_35 Depth=1
                                        #     Parent Loop BB49_178 Depth=2
                                        # =>    This Inner Loop Header: Depth=3
	movl	-4(%rbp), %eax
	cmpl	-16(%rbp), %eax
	jge	.LBB49_192
# %bb.181:                              # %for.body613
                                        #   in Loop: Header=BB49_180 Depth=3
	movq	img, %rax
	movl	72688(%rax), %r8d
	movl	-100(%rbp), %esi
	movl	-4(%rbp), %edi
	movl	-16(%rbp), %eax
	cltd
	movl	$2, %ecx
	idivl	%ecx
	subl	%eax, %edi
	addl	$1, %edi
	imull	-108(%rbp), %edi
	addl	%edi, %esi
	movl	-8(%rbp), %edi
	movl	-12(%rbp), %eax
	cltd
	idivl	%ecx
	subl	%eax, %edi
	addl	$1, %edi
	imull	-104(%rbp), %edi
	addl	%edi, %esi
	addl	$16, %esi
	sarl	$5, %esi
	cmpl	%esi, %r8d
	jge	.LBB49_183
# %bb.182:                              # %cond.true628
                                        #   in Loop: Header=BB49_180 Depth=3
	movq	img, %rax
	movl	72688(%rax), %ecx
	jmp	.LBB49_184
.LBB49_183:                             # %cond.false630
                                        #   in Loop: Header=BB49_180 Depth=3
	movl	-100(%rbp), %ecx
	movl	-4(%rbp), %esi
	movl	-16(%rbp), %eax
	cltd
	movl	$2, %edi
	idivl	%edi
	subl	%eax, %esi
	addl	$1, %esi
	imull	-108(%rbp), %esi
	addl	%esi, %ecx
	movl	-8(%rbp), %esi
	movl	-12(%rbp), %eax
	cltd
	idivl	%edi
	subl	%eax, %esi
	addl	$1, %esi
	imull	-104(%rbp), %esi
	addl	%esi, %ecx
	addl	$16, %ecx
	sarl	$5, %ecx
.LBB49_184:                             # %cond.end643
                                        #   in Loop: Header=BB49_180 Depth=3
	xorl	%eax, %eax
	cmpl	%ecx, %eax
	jle	.LBB49_186
# %bb.185:                              # %cond.true647
                                        #   in Loop: Header=BB49_180 Depth=3
	xorl	%ecx, %ecx
	jmp	.LBB49_190
.LBB49_186:                             # %cond.false648
                                        #   in Loop: Header=BB49_180 Depth=3
	movq	img, %rax
	movl	72688(%rax), %r8d
	movl	-100(%rbp), %esi
	movl	-4(%rbp), %edi
	movl	-16(%rbp), %eax
	cltd
	movl	$2, %ecx
	idivl	%ecx
	subl	%eax, %edi
	addl	$1, %edi
	imull	-108(%rbp), %edi
	addl	%edi, %esi
	movl	-8(%rbp), %edi
	movl	-12(%rbp), %eax
	cltd
	idivl	%ecx
	subl	%eax, %edi
	addl	$1, %edi
	imull	-104(%rbp), %edi
	addl	%edi, %esi
	addl	$16, %esi
	sarl	$5, %esi
	cmpl	%esi, %r8d
	jge	.LBB49_188
# %bb.187:                              # %cond.true664
                                        #   in Loop: Header=BB49_180 Depth=3
	movq	img, %rax
	movl	72688(%rax), %ecx
	jmp	.LBB49_189
.LBB49_188:                             # %cond.false666
                                        #   in Loop: Header=BB49_180 Depth=3
	movl	-100(%rbp), %ecx
	movl	-4(%rbp), %esi
	movl	-16(%rbp), %eax
	cltd
	movl	$2, %edi
	idivl	%edi
	subl	%eax, %esi
	addl	$1, %esi
	imull	-108(%rbp), %esi
	addl	%esi, %ecx
	movl	-8(%rbp), %esi
	movl	-12(%rbp), %eax
	cltd
	idivl	%edi
	subl	%eax, %esi
	addl	$1, %esi
	imull	-104(%rbp), %esi
	addl	%esi, %ecx
	addl	$16, %ecx
	sarl	$5, %ecx
.LBB49_189:                             # %cond.end679
                                        #   in Loop: Header=BB49_180 Depth=3
.LBB49_190:                             # %cond.end681
                                        #   in Loop: Header=BB49_180 Depth=3
	movq	img, %rax
	addq	$8504, %rax             # imm = 0x2138
	movslq	-24(%rbp), %rdx
	shlq	$11, %rdx
	addq	%rdx, %rax
	addq	$1536, %rax             # imm = 0x600
	movslq	-4(%rbp), %rdx
	shlq	$5, %rdx
	addq	%rdx, %rax
	movslq	-8(%rbp), %rdx
	movw	%cx, (%rax,%rdx,2)
# %bb.191:                              # %for.inc692
                                        #   in Loop: Header=BB49_180 Depth=3
	movl	-4(%rbp), %eax
	addl	$1, %eax
	movl	%eax, -4(%rbp)
	jmp	.LBB49_180
.LBB49_192:                             # %for.end694
                                        #   in Loop: Header=BB49_178 Depth=2
	jmp	.LBB49_193
.LBB49_193:                             # %for.inc695
                                        #   in Loop: Header=BB49_178 Depth=2
	movl	-8(%rbp), %eax
	addl	$1, %eax
	movl	%eax, -8(%rbp)
	jmp	.LBB49_178
.LBB49_194:                             # %for.end697
                                        #   in Loop: Header=BB49_35 Depth=1
	jmp	.LBB49_195
.LBB49_195:                             # %if.end698
                                        #   in Loop: Header=BB49_35 Depth=1
	jmp	.LBB49_196
.LBB49_196:                             # %for.inc699
                                        #   in Loop: Header=BB49_35 Depth=1
	movl	-24(%rbp), %eax
	addl	$1, %eax
	movl	%eax, -24(%rbp)
	jmp	.LBB49_35
.LBB49_197:                             # %for.end701
	movq	input, %rax
	cmpl	$0, 2464(%rax)
	jne	.LBB49_243
# %bb.198:                              # %if.then703
	movl	$2147483647, -136(%rbp) # imm = 0x7FFFFFFF
	movl	$0, -4(%rbp)
.LBB49_199:                             # %for.cond704
                                        # =>This Inner Loop Header: Depth=1
	movl	-4(%rbp), %eax
	cmpl	-12(%rbp), %eax
	jge	.LBB49_202
# %bb.200:                              # %for.body707
                                        #   in Loop: Header=BB49_199 Depth=1
	movl	-120(%rbp), %edi
	movl	-4(%rbp), %edx
	movslq	-4(%rbp), %rax
	imulq	$24, %rax, %rax
	leaq	-752(%rbp), %r8
	addq	%rax, %r8
	xorl	%esi, %esi
	xorl	%ecx, %ecx
	callq	getNeighbour
# %bb.201:                              # %for.inc710
                                        #   in Loop: Header=BB49_199 Depth=1
	movl	-4(%rbp), %eax
	addl	$1, %eax
	movl	%eax, -4(%rbp)
	jmp	.LBB49_199
.LBB49_202:                             # %for.end712
	movl	$0, -40(%rbp)
.LBB49_203:                             # %for.cond713
                                        # =>This Loop Header: Depth=1
                                        #     Child Loop BB49_219 Depth 2
                                        #       Child Loop BB49_221 Depth 3
                                        #         Child Loop BB49_223 Depth 4
                                        #           Child Loop BB49_225 Depth 5
                                        #             Child Loop BB49_227 Depth 6
	cmpl	$3, -40(%rbp)
	jg	.LBB49_242
# %bb.204:                              # %for.body716
                                        #   in Loop: Header=BB49_203 Depth=1
	movq	input, %rax
	cmpl	$1, 2420(%rax)
	jne	.LBB49_207
# %bb.205:                              # %land.lhs.true719
                                        #   in Loop: Header=BB49_203 Depth=1
	cmpl	$0, -40(%rbp)
	je	.LBB49_207
# %bb.206:                              # %if.then722
                                        #   in Loop: Header=BB49_203 Depth=1
	jmp	.LBB49_241
.LBB49_207:                             # %if.end723
                                        #   in Loop: Header=BB49_203 Depth=1
	cmpl	$2, -40(%rbp)
	jne	.LBB49_209
# %bb.208:                              # %land.lhs.true726
                                        #   in Loop: Header=BB49_203 Depth=1
	cmpl	$0, -20(%rbp)
	je	.LBB49_217
.LBB49_209:                             # %lor.lhs.false
                                        #   in Loop: Header=BB49_203 Depth=1
	cmpl	$1, -40(%rbp)
	jne	.LBB49_212
# %bb.210:                              # %land.lhs.true730
                                        #   in Loop: Header=BB49_203 Depth=1
	cmpl	$0, -32(%rbp)
	je	.LBB49_217
# %bb.211:                              # %lor.lhs.false733
                                        #   in Loop: Header=BB49_203 Depth=1
	cmpl	$0, -28(%rbp)
	je	.LBB49_217
.LBB49_212:                             # %lor.lhs.false736
                                        #   in Loop: Header=BB49_203 Depth=1
	cmpl	$3, -40(%rbp)
	jne	.LBB49_218
# %bb.213:                              # %land.lhs.true739
                                        #   in Loop: Header=BB49_203 Depth=1
	cmpl	$0, -32(%rbp)
	je	.LBB49_217
# %bb.214:                              # %lor.lhs.false742
                                        #   in Loop: Header=BB49_203 Depth=1
	cmpl	$0, -28(%rbp)
	je	.LBB49_217
# %bb.215:                              # %lor.lhs.false745
                                        #   in Loop: Header=BB49_203 Depth=1
	cmpl	$0, -20(%rbp)
	je	.LBB49_217
# %bb.216:                              # %lor.lhs.false747
                                        #   in Loop: Header=BB49_203 Depth=1
	cmpl	$0, -96(%rbp)
	jne	.LBB49_218
.LBB49_217:                             # %if.then749
                                        #   in Loop: Header=BB49_203 Depth=1
	jmp	.LBB49_241
.LBB49_218:                             # %if.end750
                                        #   in Loop: Header=BB49_203 Depth=1
	movl	$0, -92(%rbp)
	movl	$0, -24(%rbp)
.LBB49_219:                             # %for.cond751
                                        #   Parent Loop BB49_203 Depth=1
                                        # =>  This Loop Header: Depth=2
                                        #       Child Loop BB49_221 Depth 3
                                        #         Child Loop BB49_223 Depth 4
                                        #           Child Loop BB49_225 Depth 5
                                        #             Child Loop BB49_227 Depth 6
	cmpl	$2, -24(%rbp)
	jge	.LBB49_238
# %bb.220:                              # %for.body754
                                        #   in Loop: Header=BB49_219 Depth=2
	movq	imgUV_org, %rax
	movslq	-24(%rbp), %rcx
	movq	(%rax,%rcx,8), %rax
	movq	%rax, -80(%rbp)
	movl	$0, -44(%rbp)
.LBB49_221:                             # %for.cond757
                                        #   Parent Loop BB49_203 Depth=1
                                        #     Parent Loop BB49_219 Depth=2
                                        # =>    This Loop Header: Depth=3
                                        #         Child Loop BB49_223 Depth 4
                                        #           Child Loop BB49_225 Depth 5
                                        #             Child Loop BB49_227 Depth 6
	movl	-44(%rbp), %eax
	cmpl	-12(%rbp), %eax
	jge	.LBB49_236
# %bb.222:                              # %for.body760
                                        #   in Loop: Header=BB49_221 Depth=3
	movl	$0, -48(%rbp)
.LBB49_223:                             # %for.cond761
                                        #   Parent Loop BB49_203 Depth=1
                                        #     Parent Loop BB49_219 Depth=2
                                        #       Parent Loop BB49_221 Depth=3
                                        # =>      This Loop Header: Depth=4
                                        #           Child Loop BB49_225 Depth 5
                                        #             Child Loop BB49_227 Depth 6
	movl	-48(%rbp), %eax
	cmpl	-16(%rbp), %eax
	jge	.LBB49_234
# %bb.224:                              # %for.body764
                                        #   in Loop: Header=BB49_223 Depth=4
	movl	$0, -112(%rbp)
	movl	-44(%rbp), %eax
	movl	%eax, -8(%rbp)
.LBB49_225:                             # %for.cond765
                                        #   Parent Loop BB49_203 Depth=1
                                        #     Parent Loop BB49_219 Depth=2
                                        #       Parent Loop BB49_221 Depth=3
                                        #         Parent Loop BB49_223 Depth=4
                                        # =>        This Loop Header: Depth=5
                                        #             Child Loop BB49_227 Depth 6
	movl	-8(%rbp), %eax
	movl	-44(%rbp), %ecx
	addl	$4, %ecx
	cmpl	%ecx, %eax
	jge	.LBB49_232
# %bb.226:                              # %for.body769
                                        #   in Loop: Header=BB49_225 Depth=5
	movl	-48(%rbp), %eax
	movl	%eax, -4(%rbp)
.LBB49_227:                             # %for.cond770
                                        #   Parent Loop BB49_203 Depth=1
                                        #     Parent Loop BB49_219 Depth=2
                                        #       Parent Loop BB49_221 Depth=3
                                        #         Parent Loop BB49_223 Depth=4
                                        #           Parent Loop BB49_225 Depth=5
                                        # =>          This Inner Loop Header: Depth=6
	movl	-4(%rbp), %eax
	movl	-48(%rbp), %ecx
	addl	$4, %ecx
	cmpl	%ecx, %eax
	jge	.LBB49_230
# %bb.228:                              # %for.body774
                                        #   in Loop: Header=BB49_227 Depth=6
	movq	-80(%rbp), %rax
	movslq	-8(%rbp), %rcx
	imulq	$24, %rcx, %rcx
	leaq	-752(%rbp), %rdx
	movq	%rdx, %rsi
	addq	%rcx, %rsi
	movslq	20(%rsi), %rcx
	movq	(%rax,%rcx,8), %rax
	movslq	-8(%rbp), %rcx
	imulq	$24, %rcx, %rcx
	addq	%rcx, %rdx
	movl	16(%rdx), %ecx
	addl	-4(%rbp), %ecx
	movslq	%ecx, %rcx
	movzwl	(%rax,%rcx,2), %eax
	movq	img, %rcx
	addq	$8504, %rcx             # imm = 0x2138
	movslq	-24(%rbp), %rdx
	shlq	$11, %rdx
	addq	%rdx, %rcx
	movslq	-40(%rbp), %rdx
	shlq	$9, %rdx
	addq	%rdx, %rcx
	movslq	-4(%rbp), %rdx
	shlq	$5, %rdx
	addq	%rdx, %rcx
	movslq	-8(%rbp), %rdx
	movzwl	(%rcx,%rdx,2), %ecx
	subl	%ecx, %eax
	movslq	-112(%rbp), %rcx
	movl	%eax, -816(%rbp,%rcx,4)
# %bb.229:                              # %for.inc800
                                        #   in Loop: Header=BB49_227 Depth=6
	movl	-4(%rbp), %eax
	addl	$1, %eax
	movl	%eax, -4(%rbp)
	movl	-112(%rbp), %eax
	addl	$1, %eax
	movl	%eax, -112(%rbp)
	jmp	.LBB49_227
.LBB49_230:                             # %for.end803
                                        #   in Loop: Header=BB49_225 Depth=5
	jmp	.LBB49_231
.LBB49_231:                             # %for.inc804
                                        #   in Loop: Header=BB49_225 Depth=5
	movl	-8(%rbp), %eax
	addl	$1, %eax
	movl	%eax, -8(%rbp)
	jmp	.LBB49_225
.LBB49_232:                             # %for.end806
                                        #   in Loop: Header=BB49_223 Depth=4
	leaq	-816(%rbp), %rdi
	movq	input, %rax
	movl	24(%rax), %esi
	callq	SATD
	addl	-92(%rbp), %eax
	movl	%eax, -92(%rbp)
# %bb.233:                              # %for.inc808
                                        #   in Loop: Header=BB49_223 Depth=4
	movl	-48(%rbp), %eax
	addl	$4, %eax
	movl	%eax, -48(%rbp)
	jmp	.LBB49_223
.LBB49_234:                             # %for.end810
                                        #   in Loop: Header=BB49_221 Depth=3
	jmp	.LBB49_235
.LBB49_235:                             # %for.inc811
                                        #   in Loop: Header=BB49_221 Depth=3
	movl	-44(%rbp), %eax
	addl	$4, %eax
	movl	%eax, -44(%rbp)
	jmp	.LBB49_221
.LBB49_236:                             # %for.end813
                                        #   in Loop: Header=BB49_219 Depth=2
	jmp	.LBB49_237
.LBB49_237:                             # %for.inc814
                                        #   in Loop: Header=BB49_219 Depth=2
	movl	-24(%rbp), %eax
	addl	$1, %eax
	movl	%eax, -24(%rbp)
	jmp	.LBB49_219
.LBB49_238:                             # %for.end816
                                        #   in Loop: Header=BB49_203 Depth=1
	movl	-92(%rbp), %eax
	cmpl	-136(%rbp), %eax
	jge	.LBB49_240
# %bb.239:                              # %if.then819
                                        #   in Loop: Header=BB49_203 Depth=1
	movl	-40(%rbp), %eax
	movl	%eax, -132(%rbp)
	movl	-92(%rbp), %eax
	movl	%eax, -136(%rbp)
.LBB49_240:                             # %if.end820
                                        #   in Loop: Header=BB49_203 Depth=1
	jmp	.LBB49_241
.LBB49_241:                             # %for.inc821
                                        #   in Loop: Header=BB49_203 Depth=1
	movl	-40(%rbp), %eax
	addl	$1, %eax
	movl	%eax, -40(%rbp)
	jmp	.LBB49_203
.LBB49_242:                             # %for.end823
	movl	-132(%rbp), %eax
	movq	-200(%rbp), %rcx
	movl	%eax, 524(%rcx)
.LBB49_243:                             # %if.end824
	cmpl	$1347196059, -164(%rbp) # imm = 0x504C949B
	jne	.LBB49_245
.LBB49_244:
	addq	$1008, %rsp             # imm = 0x3F0
	popq	%rbp
	.cfi_def_cfa %rsp, 8
	retq
.LBB49_245:                             # %func_exit
	.cfi_def_cfa %rbp, 16
	callq	detect_breach
	jmp	.LBB49_244
.Lfunc_end49:
	.size	IntraChromaPrediction.8, .Lfunc_end49-IntraChromaPrediction.8
	.cfi_endproc
	.section	.rodata,"a",@progbits
	.p2align	3
.LJTI49_0:
	.quad	.LBB49_42
	.quad	.LBB49_64
	.quad	.LBB49_83
	.quad	.LBB49_102
                                        # -- End function
	.text
	.globl	slice_too_big.9         # -- Begin function slice_too_big.9
	.p2align	4, 0x90
	.type	slice_too_big.9,@function
slice_too_big.9:                        # @slice_too_big.9
	.cfi_startproc
# %bb.0:                                # %entry
	pushq	%rbp
	.cfi_def_cfa_offset 16
	.cfi_offset %rbp, -16
	movq	%rsp, %rbp
	.cfi_def_cfa_register %rbp
	pushq	%rbx
	subq	$56, %rsp
	.cfi_offset %rbx, -24
	movl	$460323770, -56(%rbp)   # imm = 0x1B6FFBBA
	movl	%edi, -52(%rbp)
	movq	img, %rax
	movq	14160(%rax), %rax
	movq	%rax, -32(%rbp)
	movq	input, %rax
	cmpl	$0, 2356(%rax)
	jne	.LBB50_12
# %bb.1:                                # %if.then
	movl	$0, -12(%rbp)
.LBB50_2:                               # %for.cond
                                        # =>This Inner Loop Header: Depth=1
	movl	-12(%rbp), %eax
	movq	-32(%rbp), %rcx
	cmpl	16(%rcx), %eax
	jge	.LBB50_11
# %bb.3:                                # %for.body
                                        #   in Loop: Header=BB50_2 Depth=1
	movq	-32(%rbp), %rax
	movq	24(%rax), %rax
	movslq	-12(%rbp), %rcx
	imulq	$120, %rcx, %rcx
	addq	%rcx, %rax
	movq	%rax, -40(%rbp)
	movq	-40(%rbp), %rax
	movq	(%rax), %rax
	movq	%rax, -48(%rbp)
	movq	-48(%rbp), %rax
	movl	(%rax), %eax
	movl	%eax, -16(%rbp)
	movq	-48(%rbp), %rax
	cmpl	$8, 4(%rax)
	jge	.LBB50_5
# %bb.4:                                # %if.then3
                                        #   in Loop: Header=BB50_2 Depth=1
	movl	-16(%rbp), %eax
	addl	$1, %eax
	movl	%eax, -16(%rbp)
.LBB50_5:                               # %if.end
                                        #   in Loop: Header=BB50_2 Depth=1
	movq	-48(%rbp), %rax
	movl	4(%rax), %eax
	cmpl	-52(%rbp), %eax
	jge	.LBB50_7
# %bb.6:                                # %if.then6
                                        #   in Loop: Header=BB50_2 Depth=1
	movl	-16(%rbp), %eax
	addl	$1, %eax
	movl	%eax, -16(%rbp)
.LBB50_7:                               # %if.end8
                                        #   in Loop: Header=BB50_2 Depth=1
	movl	-16(%rbp), %eax
	movq	input, %rcx
	cmpl	212(%rcx), %eax
	jle	.LBB50_9
# %bb.8:                                # %if.then10
	movl	$1, -20(%rbp)
	jmp	.LBB50_21
.LBB50_9:                               # %if.end11
                                        #   in Loop: Header=BB50_2 Depth=1
	jmp	.LBB50_10
.LBB50_10:                              # %for.inc
                                        #   in Loop: Header=BB50_2 Depth=1
	movl	-12(%rbp), %eax
	addl	$1, %eax
	movl	%eax, -12(%rbp)
	jmp	.LBB50_2
.LBB50_11:                              # %for.end
	jmp	.LBB50_12
.LBB50_12:                              # %if.end13
	movq	input, %rax
	cmpl	$1, 2356(%rax)
	jne	.LBB50_20
# %bb.13:                               # %if.then16
	movl	$0, -12(%rbp)
.LBB50_14:                              # %for.cond17
                                        # =>This Inner Loop Header: Depth=1
	movl	-12(%rbp), %eax
	movq	-32(%rbp), %rcx
	cmpl	16(%rcx), %eax
	jge	.LBB50_19
# %bb.15:                               # %for.body20
                                        #   in Loop: Header=BB50_14 Depth=1
	movq	-32(%rbp), %rax
	movq	24(%rax), %rax
	movslq	-12(%rbp), %rcx
	imulq	$120, %rcx, %rcx
	addq	%rcx, %rax
	movq	%rax, -40(%rbp)
	movq	-40(%rbp), %rax
	addq	$8, %rax
	movq	%rax, -64(%rbp)
	movq	-64(%rbp), %rdi
	callq	arienco_bits_written
	movq	input, %rcx
	movl	212(%rcx), %ecx
	shll	$3, %ecx
	cmpl	%ecx, %eax
	jle	.LBB50_17
# %bb.16:                               # %if.then26
	movl	$1, -20(%rbp)
	jmp	.LBB50_21
.LBB50_17:                              # %if.end27
                                        #   in Loop: Header=BB50_14 Depth=1
	jmp	.LBB50_18
.LBB50_18:                              # %for.inc28
                                        #   in Loop: Header=BB50_14 Depth=1
	movl	-12(%rbp), %eax
	addl	$1, %eax
	movl	%eax, -12(%rbp)
	jmp	.LBB50_14
.LBB50_19:                              # %for.end30
	jmp	.LBB50_20
.LBB50_20:                              # %if.end31
	movl	$0, -20(%rbp)
.LBB50_21:                              # %return
	movl	-20(%rbp), %ebx
	cmpl	$460323770, -56(%rbp)   # imm = 0x1B6FFBBA
	jne	.LBB50_23
.LBB50_22:
	movl	%ebx, %eax
	addq	$56, %rsp
	popq	%rbx
	popq	%rbp
	.cfi_def_cfa %rsp, 8
	retq
.LBB50_23:                              # %func_exit
	.cfi_def_cfa %rbp, 16
	callq	detect_breach
	jmp	.LBB50_22
.Lfunc_end50:
	.size	slice_too_big.9, .Lfunc_end50-slice_too_big.9
	.cfi_endproc
                                        # -- End function
	.globl	LumaResidualCoding.10   # -- Begin function LumaResidualCoding.10
	.p2align	4, 0x90
	.type	LumaResidualCoding.10,@function
LumaResidualCoding.10:                  # @LumaResidualCoding.10
	.cfi_startproc
# %bb.0:                                # %entry
	pushq	%rbp
	.cfi_def_cfa_offset 16
	.cfi_offset %rbp, -16
	movq	%rsp, %rbp
	.cfi_def_cfa_register %rbp
	subq	$80, %rsp
	movl	$118840825, -52(%rbp)   # imm = 0x7155DF9
	movq	img, %rax
	movq	14168(%rax), %rax
	movq	img, %rcx
	movslq	12(%rcx), %rcx
	imulq	$632, %rcx, %rcx        # imm = 0x278
	addq	%rcx, %rax
	movq	%rax, -32(%rbp)
	movq	-32(%rbp), %rax
	movl	$0, 460(%rax)
	movq	-32(%rbp), %rax
	movq	$0, 464(%rax)
	movl	$0, -16(%rbp)
	movl	$0, -12(%rbp)
.LBB51_1:                               # %for.cond
                                        # =>This Inner Loop Header: Depth=1
	cmpl	$4, -12(%rbp)
	jge	.LBB51_4
# %bb.2:                                # %for.body
                                        #   in Loop: Header=BB51_1 Depth=1
	movl	-12(%rbp), %edi
	leaq	-22(%rbp), %rsi
	leaq	-36(%rbp), %rdx
	leaq	-48(%rbp), %rcx
	leaq	-20(%rbp), %r8
	leaq	-18(%rbp), %r9
	callq	SetModesAndRefframe
	movq	-32(%rbp), %rdi
	addq	$460, %rdi              # imm = 0x1CC
	movq	-32(%rbp), %rsi
	addq	$464, %rsi              # imm = 0x1D0
	movl	-12(%rbp), %edx
	movw	-22(%rbp), %ax
	movl	-36(%rbp), %r8d
	movl	-48(%rbp), %r9d
	movw	-20(%rbp), %r10w
	movswl	%ax, %ecx
	movswl	%r10w, %eax
	movl	%eax, (%rsp)
	movswl	-18(%rbp), %eax
	movl	%eax, 8(%rsp)
	callq	LumaResidualCoding8x8
	addl	-16(%rbp), %eax
	movl	%eax, -16(%rbp)
# %bb.3:                                # %for.inc
                                        #   in Loop: Header=BB51_1 Depth=1
	movl	-12(%rbp), %eax
	addl	$1, %eax
	movl	%eax, -12(%rbp)
	jmp	.LBB51_1
.LBB51_4:                               # %for.end
	cmpl	$5, -16(%rbp)
	jg	.LBB51_33
# %bb.5:                                # %land.lhs.true
	movq	img, %rax
	movl	40(%rax), %eax
	movq	img, %rcx
	addl	72668(%rcx), %eax
	cmpl	$0, %eax
	jne	.LBB51_7
# %bb.6:                                # %lor.lhs.false
	movq	img, %rax
	cmpl	$0, 72704(%rax)
	jne	.LBB51_33
.LBB51_7:                               # %if.then
	movq	-32(%rbp), %rax
	movl	460(%rax), %ecx
	andl	$16777200, %ecx         # imm = 0xFFFFF0
	movl	%ecx, 460(%rax)
	movq	-32(%rbp), %rax
	movq	464(%rax), %rcx
	andq	$16711680, %rcx         # imm = 0xFF0000
	movq	%rcx, 464(%rax)
	movl	$0, -8(%rbp)
.LBB51_8:                               # %for.cond10
                                        # =>This Loop Header: Depth=1
                                        #     Child Loop BB51_10 Depth 2
	cmpl	$16, -8(%rbp)
	jge	.LBB51_18
# %bb.9:                                # %for.body12
                                        #   in Loop: Header=BB51_8 Depth=1
	movl	$0, -4(%rbp)
.LBB51_10:                              # %for.cond13
                                        #   Parent Loop BB51_8 Depth=1
                                        # =>  This Inner Loop Header: Depth=2
	cmpl	$16, -4(%rbp)
	jge	.LBB51_16
# %bb.11:                               # %for.body15
                                        #   in Loop: Header=BB51_10 Depth=2
	movq	img, %rax
	cmpl	$0, 72724(%rax)
	jne	.LBB51_13
# %bb.12:                               # %if.then16
                                        #   in Loop: Header=BB51_10 Depth=2
	movq	img, %rax
	addq	$12600, %rax            # imm = 0x3138
	movslq	-8(%rbp), %rcx
	shlq	$5, %rcx
	addq	%rcx, %rax
	movslq	-4(%rbp), %rcx
	movw	(%rax,%rcx,2), %ax
	movq	enc_picture, %rcx
	movq	6424(%rcx), %rcx
	movq	img, %rdx
	movl	156(%rdx), %edx
	addl	-4(%rbp), %edx
	movslq	%edx, %rdx
	movq	(%rcx,%rdx,8), %rcx
	movq	img, %rdx
	movl	152(%rdx), %edx
	addl	-8(%rbp), %edx
	movslq	%edx, %rdx
	movw	%ax, (%rcx,%rdx,2)
	jmp	.LBB51_14
.LBB51_13:                              # %if.else
                                        #   in Loop: Header=BB51_10 Depth=2
	movslq	-8(%rbp), %rax
	shlq	$6, %rax
	movabsq	$rec_resG, %rcx
	addq	%rax, %rcx
	movslq	-4(%rbp), %rax
	movl	$0, (%rcx,%rax,4)
.LBB51_14:                              # %if.end
                                        #   in Loop: Header=BB51_10 Depth=2
	jmp	.LBB51_15
.LBB51_15:                              # %for.inc31
                                        #   in Loop: Header=BB51_10 Depth=2
	movl	-4(%rbp), %eax
	addl	$1, %eax
	movl	%eax, -4(%rbp)
	jmp	.LBB51_10
.LBB51_16:                              # %for.end33
                                        #   in Loop: Header=BB51_8 Depth=1
	jmp	.LBB51_17
.LBB51_17:                              # %for.inc34
                                        #   in Loop: Header=BB51_8 Depth=1
	movl	-8(%rbp), %eax
	addl	$1, %eax
	movl	%eax, -8(%rbp)
	jmp	.LBB51_8
.LBB51_18:                              # %for.end36
	movq	img, %rax
	cmpl	$3, 24(%rax)
	jne	.LBB51_32
# %bb.19:                               # %if.then38
	movl	$0, -12(%rbp)
.LBB51_20:                              # %for.cond39
                                        # =>This Loop Header: Depth=1
                                        #     Child Loop BB51_22 Depth 2
                                        #       Child Loop BB51_24 Depth 3
	cmpl	$4, -12(%rbp)
	jge	.LBB51_31
# %bb.21:                               # %for.body41
                                        #   in Loop: Header=BB51_20 Depth=1
	movl	-12(%rbp), %eax
	andl	$1, %eax
	shll	$3, %eax
	movl	%eax, -44(%rbp)
	movl	-12(%rbp), %eax
	andl	$2, %eax
	shll	$2, %eax
	movl	%eax, -40(%rbp)
	movl	$0, -8(%rbp)
.LBB51_22:                              # %for.cond45
                                        #   Parent Loop BB51_20 Depth=1
                                        # =>  This Loop Header: Depth=2
                                        #       Child Loop BB51_24 Depth 3
	cmpl	$8, -8(%rbp)
	jge	.LBB51_29
# %bb.23:                               # %for.body47
                                        #   in Loop: Header=BB51_22 Depth=2
	movl	$0, -4(%rbp)
.LBB51_24:                              # %for.cond48
                                        #   Parent Loop BB51_20 Depth=1
                                        #     Parent Loop BB51_22 Depth=2
                                        # =>    This Inner Loop Header: Depth=3
	cmpl	$8, -4(%rbp)
	jge	.LBB51_27
# %bb.25:                               # %for.body50
                                        #   in Loop: Header=BB51_24 Depth=3
	movl	-44(%rbp), %edi
	addl	-8(%rbp), %edi
	movl	-40(%rbp), %esi
	addl	-4(%rbp), %esi
	callq	copyblock_sp
# %bb.26:                               # %for.inc53
                                        #   in Loop: Header=BB51_24 Depth=3
	movl	-4(%rbp), %eax
	addl	$4, %eax
	movl	%eax, -4(%rbp)
	jmp	.LBB51_24
.LBB51_27:                              # %for.end55
                                        #   in Loop: Header=BB51_22 Depth=2
	jmp	.LBB51_28
.LBB51_28:                              # %for.inc56
                                        #   in Loop: Header=BB51_22 Depth=2
	movl	-8(%rbp), %eax
	addl	$4, %eax
	movl	%eax, -8(%rbp)
	jmp	.LBB51_22
.LBB51_29:                              # %for.end58
                                        #   in Loop: Header=BB51_20 Depth=1
	jmp	.LBB51_30
.LBB51_30:                              # %for.inc59
                                        #   in Loop: Header=BB51_20 Depth=1
	movl	-12(%rbp), %eax
	addl	$1, %eax
	movl	%eax, -12(%rbp)
	jmp	.LBB51_20
.LBB51_31:                              # %for.end61
	jmp	.LBB51_32
.LBB51_32:                              # %if.end62
	jmp	.LBB51_33
.LBB51_33:                              # %if.end63
	cmpl	$118840825, -52(%rbp)   # imm = 0x7155DF9
	jne	.LBB51_35
.LBB51_34:
	addq	$80, %rsp
	popq	%rbp
	.cfi_def_cfa %rsp, 8
	retq
.LBB51_35:                              # %func_exit
	.cfi_def_cfa %rbp, 16
	callq	detect_breach
	jmp	.LBB51_34
.Lfunc_end51:
	.size	LumaResidualCoding.10, .Lfunc_end51-LumaResidualCoding.10
	.cfi_endproc
                                        # -- End function
	.globl	LumaResidualCoding8x8.11 # -- Begin function LumaResidualCoding8x8.11
	.p2align	4, 0x90
	.type	LumaResidualCoding8x8.11,@function
LumaResidualCoding8x8.11:               # @LumaResidualCoding8x8.11
	.cfi_startproc
# %bb.0:                                # %entry
	pushq	%rbp
	.cfi_def_cfa_offset 16
	.cfi_offset %rbp, -16
	movq	%rsp, %rbp
	.cfi_def_cfa_register %rbp
	pushq	%rbx
	subq	$152, %rsp
	.cfi_offset %rbx, -24
	movw	24(%rbp), %ax
	movw	16(%rbp), %ax
	xorl	%ebx, %ebx
	movl	$1000689479, -128(%rbp) # imm = 0x3BA54F47
	movq	%rdi, -104(%rbp)
	movq	%rsi, -112(%rbp)
	movl	%edx, -36(%rbp)
	movw	%cx, -46(%rbp)
	movl	%r8d, -84(%rbp)
	movl	%r9d, -64(%rbp)
	movl	$0, -32(%rbp)
	movl	$0, -28(%rbp)
	movl	-36(%rbp), %eax
	cltd
	movl	$2, %ecx
	idivl	%ecx
	shll	$3, %eax
	movl	%eax, -44(%rbp)
	movl	-36(%rbp), %eax
	cltd
	idivl	%ecx
	shll	$3, %edx
	movl	%edx, -40(%rbp)
	movl	-36(%rbp), %ecx
                                        # kill: def $cl killed $ecx
	movl	$1, %eax
	shll	%cl, %eax
	movl	%eax, -68(%rbp)
	movl	$0, -116(%rbp)
	cmpl	$0, -84(%rbp)
	jne	.LBB52_3
# %bb.1:                                # %land.lhs.true
	xorl	%ebx, %ebx
	cmpl	$0, -64(%rbp)
	jne	.LBB52_3
# %bb.2:                                # %land.rhs
	movq	img, %rax
	cmpl	$1, 24(%rax)
	setne	%bl
.LBB52_3:                               # %land.end
	andb	$1, %bl
	movzbl	%bl, %eax
	movl	%eax, -72(%rbp)
	movq	img, %rax
	movq	14168(%rax), %rax
	movq	img, %rcx
	movslq	12(%rcx), %rcx
	imulq	$632, %rcx, %rcx        # imm = 0x278
	addq	%rcx, %rax
	movq	%rax, -136(%rbp)
	movq	-136(%rbp), %rax
	movl	572(%rax), %eax
	movl	%eax, -76(%rbp)
	movq	img, %rax
	cmpl	$1, 24(%rax)
	jne	.LBB52_5
# %bb.4:                                # %if.then
	movl	$1, -116(%rbp)
.LBB52_5:                               # %if.end
	movl	$0, -60(%rbp)
	movl	-44(%rbp), %eax
	movl	%eax, -20(%rbp)
.LBB52_6:                               # %for.cond
                                        # =>This Loop Header: Depth=1
                                        #     Child Loop BB52_8 Depth 2
                                        #       Child Loop BB52_11 Depth 3
                                        #         Child Loop BB52_13 Depth 4
                                        #       Child Loop BB52_19 Depth 3
                                        #         Child Loop BB52_21 Depth 4
                                        #       Child Loop BB52_29 Depth 3
                                        #         Child Loop BB52_31 Depth 4
                                        #       Child Loop BB52_40 Depth 3
                                        #         Child Loop BB52_42 Depth 4
                                        #       Child Loop BB52_57 Depth 3
                                        #         Child Loop BB52_59 Depth 4
                                        #       Child Loop BB52_67 Depth 3
                                        #         Child Loop BB52_69 Depth 4
                                        #       Child Loop BB52_84 Depth 3
                                        #         Child Loop BB52_86 Depth 4
	movl	-20(%rbp), %eax
	movl	-44(%rbp), %ecx
	addl	$8, %ecx
	cmpl	%ecx, %eax
	jge	.LBB52_99
# %bb.7:                                # %for.body
                                        #   in Loop: Header=BB52_6 Depth=1
	movq	img, %rax
	movl	172(%rax), %eax
	addl	-20(%rbp), %eax
	movl	%eax, -52(%rbp)
	movl	$0, -80(%rbp)
	movl	-40(%rbp), %eax
	movl	%eax, -24(%rbp)
.LBB52_8:                               # %for.cond9
                                        #   Parent Loop BB52_6 Depth=1
                                        # =>  This Loop Header: Depth=2
                                        #       Child Loop BB52_11 Depth 3
                                        #         Child Loop BB52_13 Depth 4
                                        #       Child Loop BB52_19 Depth 3
                                        #         Child Loop BB52_21 Depth 4
                                        #       Child Loop BB52_29 Depth 3
                                        #         Child Loop BB52_31 Depth 4
                                        #       Child Loop BB52_40 Depth 3
                                        #         Child Loop BB52_42 Depth 4
                                        #       Child Loop BB52_57 Depth 3
                                        #         Child Loop BB52_59 Depth 4
                                        #       Child Loop BB52_67 Depth 3
                                        #         Child Loop BB52_69 Depth 4
                                        #       Child Loop BB52_84 Depth 3
                                        #         Child Loop BB52_86 Depth 4
	movl	-24(%rbp), %eax
	movl	-40(%rbp), %ecx
	addl	$8, %ecx
	cmpl	%ecx, %eax
	jge	.LBB52_97
# %bb.9:                                # %for.body12
                                        #   in Loop: Header=BB52_8 Depth=2
	movq	img, %rax
	movl	168(%rax), %eax
	addl	-24(%rbp), %eax
	movl	%eax, -56(%rbp)
	movl	-24(%rbp), %eax
	sarl	$2, %eax
	addl	-20(%rbp), %eax
	movl	%eax, -96(%rbp)
	movq	img, %rax
	cmpl	$0, 72724(%rax)
	je	.LBB52_27
# %bb.10:                               # %if.then15
                                        #   in Loop: Header=BB52_8 Depth=2
	movl	-24(%rbp), %esi
	movl	-20(%rbp), %edx
	movswl	-46(%rbp), %ecx
	movl	-84(%rbp), %r8d
	movl	-64(%rbp), %r9d
	movw	16(%rbp), %ax
	xorl	%edi, %edi
	cwtl
	movl	%eax, (%rsp)
	movswl	24(%rbp), %eax
	movl	%eax, 8(%rsp)
	callq	ChromaPrediction4x4
	movl	$0, -16(%rbp)
.LBB52_11:                              # %for.cond16
                                        #   Parent Loop BB52_6 Depth=1
                                        #     Parent Loop BB52_8 Depth=2
                                        # =>    This Loop Header: Depth=3
                                        #         Child Loop BB52_13 Depth 4
	cmpl	$4, -16(%rbp)
	jge	.LBB52_18
# %bb.12:                               # %for.body19
                                        #   in Loop: Header=BB52_11 Depth=3
	movl	$0, -12(%rbp)
.LBB52_13:                              # %for.cond20
                                        #   Parent Loop BB52_6 Depth=1
                                        #     Parent Loop BB52_8 Depth=2
                                        #       Parent Loop BB52_11 Depth=3
                                        # =>      This Inner Loop Header: Depth=4
	cmpl	$4, -12(%rbp)
	jge	.LBB52_16
# %bb.14:                               # %for.body23
                                        #   in Loop: Header=BB52_13 Depth=4
	movabsq	$mprRGB, %rax
	addq	$1024, %rax             # imm = 0x400
	movq	img, %rcx
	addq	$12600, %rcx            # imm = 0x3138
	movl	-12(%rbp), %edx
	addl	-24(%rbp), %edx
	movslq	%edx, %rdx
	shlq	$5, %rdx
	addq	%rdx, %rcx
	movl	-16(%rbp), %edx
	addl	-20(%rbp), %edx
	movslq	%edx, %rdx
	movzwl	(%rcx,%rdx,2), %ecx
	movl	-12(%rbp), %edx
	addl	-24(%rbp), %edx
	movslq	%edx, %rdx
	shlq	$6, %rdx
	addq	%rdx, %rax
	movl	-16(%rbp), %edx
	addl	-20(%rbp), %edx
	movslq	%edx, %rdx
	movl	%ecx, (%rax,%rdx,4)
# %bb.15:                               # %for.inc
                                        #   in Loop: Header=BB52_13 Depth=4
	movl	-12(%rbp), %eax
	addl	$1, %eax
	movl	%eax, -12(%rbp)
	jmp	.LBB52_13
