	.text
	.file	"macroblock.c"
	.globl	set_MB_parameters       # -- Begin function set_MB_parameters
	.p2align	4, 0x90
	.type	set_MB_parameters,@function
set_MB_parameters:                      # @set_MB_parameters
	.cfi_startproc
# %bb.0:                                # %entry
	pushq	%rbp
	.cfi_def_cfa_offset 16
	.cfi_offset %rbp, -16
	movq	%rsp, %rbp
	.cfi_def_cfa_register %rbp
	subq	$16, %rsp
	movl	%edi, -4(%rbp)
	movl	-4(%rbp), %eax
	movq	img, %rcx
	movl	%eax, 12(%rcx)
	movl	-4(%rbp), %edi
	movq	img, %rsi
	addq	$136, %rsi
	movq	img, %rdx
	addq	$140, %rdx
	callq	get_mb_block_pos
	movq	img, %rax
	movl	136(%rax), %eax
	shll	$2, %eax
	movq	img, %rcx
	movl	%eax, 144(%rcx)
	movq	img, %rax
	movl	140(%rax), %eax
	shll	$2, %eax
	movq	img, %rcx
	movl	%eax, 148(%rcx)
	movq	img, %rax
	movl	144(%rax), %eax
	shll	$2, %eax
	movq	img, %rcx
	movl	%eax, 152(%rcx)
	movq	img, %rax
	movl	148(%rax), %eax
	shll	$2, %eax
	movq	img, %rcx
	movl	%eax, 156(%rcx)
	movq	img, %rax
	movl	152(%rax), %eax
	movq	img, %rcx
	movl	%eax, 168(%rcx)
	movq	img, %rax
	cmpl	$0, 72400(%rax)
	je	.LBB0_11
# %bb.1:                                # %if.then
	movq	img, %rax
	movq	14168(%rax), %rax
	movslq	-4(%rbp), %rcx
	imulq	$632, %rcx, %rcx        # imm = 0x278
	addq	%rcx, %rax
	cmpl	$0, 532(%rax)
	je	.LBB0_9
# %bb.2:                                # %if.then10
	movl	-4(%rbp), %eax
	cltd
	movl	$2, %ecx
	idivl	%ecx
	cmpl	$0, %edx
	je	.LBB0_4
# %bb.3:                                # %cond.true
	movq	imgY_org_bot, %rax
	jmp	.LBB0_5
.LBB0_4:                                # %cond.false
	movq	imgY_org_top, %rax
.LBB0_5:                                # %cond.end
	movq	%rax, imgY_org
	movl	-4(%rbp), %eax
	cltd
	movl	$2, %ecx
	idivl	%ecx
	cmpl	$0, %edx
	je	.LBB0_7
# %bb.6:                                # %cond.true14
	movq	imgUV_org_bot, %rax
	jmp	.LBB0_8
.LBB0_7:                                # %cond.false15
	movq	imgUV_org_top, %rax
.LBB0_8:                                # %cond.end16
	movq	%rax, imgUV_org
	movq	img, %rax
	movl	140(%rax), %eax
	sarl	$1, %eax
	shll	$4, %eax
	movq	img, %rcx
	movl	%eax, 172(%rcx)
	jmp	.LBB0_10
.LBB0_9:                                # %if.else
	movq	imgY_org_frm, %rax
	movq	%rax, imgY_org
	movq	imgUV_org_frm, %rax
	movq	%rax, imgUV_org
	movq	img, %rax
	movl	148(%rax), %eax
	shll	$2, %eax
	movq	img, %rcx
	movl	%eax, 172(%rcx)
.LBB0_10:                               # %if.end
	jmp	.LBB0_12
.LBB0_11:                               # %if.else23
	movq	img, %rax
	movl	148(%rax), %eax
	shll	$2, %eax
	movq	img, %rcx
	movl	%eax, 172(%rcx)
.LBB0_12:                               # %if.end27
	movq	img, %rax
	cmpl	$0, 72700(%rax)
	je	.LBB0_14
# %bb.13:                               # %if.then28
	movq	img, %rax
	movl	152(%rax), %ecx
	movq	img, %rsi
	movl	$16, %eax
	cltd
	idivl	72708(%rsi)
	movl	%eax, %esi
	movl	%ecx, %eax
	cltd
	idivl	%esi
	movq	img, %rcx
	movl	%eax, 160(%rcx)
	movq	img, %rax
	movl	156(%rax), %ecx
	movq	img, %rsi
	movl	$16, %eax
	cltd
	idivl	72712(%rsi)
	movl	%eax, %esi
	movl	%ecx, %eax
	cltd
	idivl	%esi
	movq	img, %rcx
	movl	%eax, 164(%rcx)
	movq	img, %rax
	movl	168(%rax), %ecx
	movq	img, %rsi
	movl	$16, %eax
	cltd
	idivl	72708(%rsi)
	movl	%eax, %esi
	movl	%ecx, %eax
	cltd
	idivl	%esi
	movq	img, %rcx
	movl	%eax, 176(%rcx)
	movq	img, %rax
	movl	172(%rax), %ecx
	movq	img, %rsi
	movl	$16, %eax
	cltd
	idivl	72712(%rsi)
	movl	%eax, %esi
	movl	%ecx, %eax
	cltd
	idivl	%esi
	movq	img, %rcx
	movl	%eax, 180(%rcx)
.LBB0_14:                               # %if.end42
	addq	$16, %rsp
	popq	%rbp
	.cfi_def_cfa %rsp, 8
	retq
.Lfunc_end0:
	.size	set_MB_parameters, .Lfunc_end0-set_MB_parameters
	.cfi_endproc
                                        # -- End function
	.globl	clip1a                  # -- Begin function clip1a
	.p2align	4, 0x90
	.type	clip1a,@function
clip1a:                                 # @clip1a
	.cfi_startproc
# %bb.0:                                # %entry
	pushq	%rbp
	.cfi_def_cfa_offset 16
	.cfi_offset %rbp, -16
	movq	%rsp, %rbp
	.cfi_def_cfa_register %rbp
	movl	%edi, -4(%rbp)
	movl	-4(%rbp), %eax
	movq	img, %rcx
	cmpl	72684(%rcx), %eax
	jle	.LBB1_2
# %bb.1:                                # %cond.true
	movq	img, %rax
	movl	72684(%rax), %eax
	jmp	.LBB1_6
.LBB1_2:                                # %cond.false
	cmpl	$0, -4(%rbp)
	jge	.LBB1_4
# %bb.3:                                # %cond.true3
	xorl	%eax, %eax
	jmp	.LBB1_5
.LBB1_4:                                # %cond.false4
	movl	-4(%rbp), %eax
.LBB1_5:                                # %cond.end
.LBB1_6:                                # %cond.end5
	popq	%rbp
	.cfi_def_cfa %rsp, 8
	retq
.Lfunc_end1:
	.size	clip1a, .Lfunc_end1-clip1a
	.cfi_endproc
                                        # -- End function
	.globl	clip1a_chr              # -- Begin function clip1a_chr
	.p2align	4, 0x90
	.type	clip1a_chr,@function
clip1a_chr:                             # @clip1a_chr
	.cfi_startproc
# %bb.0:                                # %entry
	pushq	%rbp
	.cfi_def_cfa_offset 16
	.cfi_offset %rbp, -16
	movq	%rsp, %rbp
	.cfi_def_cfa_register %rbp
	movl	%edi, -4(%rbp)
	movl	-4(%rbp), %eax
	movq	img, %rcx
	cmpl	72688(%rcx), %eax
	jle	.LBB2_2
# %bb.1:                                # %cond.true
	movq	img, %rax
	movl	72688(%rax), %eax
	jmp	.LBB2_6
.LBB2_2:                                # %cond.false
	cmpl	$0, -4(%rbp)
	jge	.LBB2_4
# %bb.3:                                # %cond.true3
	xorl	%eax, %eax
	jmp	.LBB2_5
.LBB2_4:                                # %cond.false4
	movl	-4(%rbp), %eax
.LBB2_5:                                # %cond.end
.LBB2_6:                                # %cond.end5
	popq	%rbp
	.cfi_def_cfa %rsp, 8
	retq
.Lfunc_end2:
	.size	clip1a_chr, .Lfunc_end2-clip1a_chr
	.cfi_endproc
                                        # -- End function
	.globl	proceed2nextMacroblock  # -- Begin function proceed2nextMacroblock
	.p2align	4, 0x90
	.type	proceed2nextMacroblock,@function
proceed2nextMacroblock:                 # @proceed2nextMacroblock
	.cfi_startproc
# %bb.0:                                # %entry
	pushq	%rbp
	.cfi_def_cfa_offset 16
	.cfi_offset %rbp, -16
	movq	%rsp, %rbp
	.cfi_def_cfa_register %rbp
	movq	img, %rax
	movq	14168(%rax), %rax
	movq	img, %rcx
	movslq	12(%rcx), %rcx
	imulq	$632, %rcx, %rcx        # imm = 0x278
	addq	%rcx, %rax
	movq	%rax, -8(%rbp)
	movq	-8(%rbp), %rax
	addq	$20, %rax
	movq	%rax, -24(%rbp)
	movq	-24(%rbp), %rax
	movl	8(%rax), %eax
	movq	stats, %rcx
	movq	img, %rdx
	movslq	24(%rdx), %rdx
	addl	1348(%rcx,%rdx,4), %eax
	movl	%eax, 1348(%rcx,%rdx,4)
	movq	-24(%rbp), %rax
	movl	20(%rax), %eax
	movq	stats, %rcx
	movq	img, %rdx
	movslq	24(%rdx), %rdx
	addl	1408(%rcx,%rdx,4), %eax
	movl	%eax, 1408(%rcx,%rdx,4)
	movq	-24(%rbp), %rax
	movl	16(%rax), %eax
	movq	stats, %rcx
	movq	img, %rdx
	movslq	24(%rdx), %rdx
	addl	1388(%rcx,%rdx,4), %eax
	movl	%eax, 1388(%rcx,%rdx,4)
	movq	-24(%rbp), %rax
	movl	24(%rax), %eax
	movq	stats, %rcx
	movq	img, %rdx
	movslq	24(%rdx), %rdx
	addl	1428(%rcx,%rdx,4), %eax
	movl	%eax, 1428(%rcx,%rdx,4)
	movq	-24(%rbp), %rax
	movl	28(%rax), %eax
	movq	stats, %rcx
	movq	img, %rdx
	movslq	24(%rdx), %rdx
	addl	1448(%rcx,%rdx,4), %eax
	movl	%eax, 1448(%rcx,%rdx,4)
	movq	-8(%rbp), %rax
	cmpl	$9, 72(%rax)
	je	.LBB3_3
# %bb.1:                                # %lor.lhs.false
	movq	-8(%rbp), %rax
	cmpl	$10, 72(%rax)
	je	.LBB3_3
# %bb.2:                                # %lor.lhs.false26
	movq	-8(%rbp), %rax
	cmpl	$13, 72(%rax)
	jne	.LBB3_9
.LBB3_3:                                # %if.then
	movq	stats, %rax
	movq	-8(%rbp), %rcx
	movslq	524(%rcx), %rcx
	movl	672(%rax,%rcx,4), %edx
	addl	$1, %edx
	movl	%edx, 672(%rax,%rcx,4)
	movq	-8(%rbp), %rax
	movl	460(%rax), %eax
	andl	$15, %eax
	cmpl	$0, %eax
	je	.LBB3_8
# %bb.4:                                # %if.then32
	movq	-8(%rbp), %rax
	cmpl	$0, 572(%rax)
	je	.LBB3_6
# %bb.5:                                # %if.then33
	movq	stats, %rax
	addq	$72, %rax
	movq	img, %rcx
	movslq	24(%rcx), %rcx
	imulq	$60, %rcx, %rcx
	addq	%rcx, %rax
	movq	-8(%rbp), %rcx
	movslq	72(%rcx), %rcx
	movl	(%rax,%rcx,4), %edx
	addl	$1, %edx
	movl	%edx, (%rax,%rcx,4)
	jmp	.LBB3_7
.LBB3_6:                                # %if.else
	movq	stats, %rax
	addq	$372, %rax              # imm = 0x174
	movq	img, %rcx
	movslq	24(%rcx), %rcx
	imulq	$60, %rcx, %rcx
	addq	%rcx, %rax
	movq	-8(%rbp), %rcx
	movslq	72(%rcx), %rcx
	movl	(%rax,%rcx,4), %edx
	addl	$1, %edx
	movl	%edx, (%rax,%rcx,4)
.LBB3_7:                                # %if.end
	jmp	.LBB3_8
.LBB3_8:                                # %if.end48
	jmp	.LBB3_9
.LBB3_9:                                # %if.end49
	movq	stats, %rax
	addq	$728, %rax              # imm = 0x2D8
	movq	img, %rcx
	movslq	24(%rcx), %rcx
	imulq	$60, %rcx, %rcx
	addq	%rcx, %rax
	movq	-8(%rbp), %rcx
	movslq	72(%rcx), %rcx
	movl	(%rax,%rcx,4), %edx
	addl	$1, %edx
	movl	%edx, (%rax,%rcx,4)
	movq	-24(%rbp), %rax
	movl	12(%rax), %eax
	movq	stats, %rcx
	addq	$1028, %rcx             # imm = 0x404
	movq	img, %rdx
	movslq	24(%rdx), %rdx
	imulq	$60, %rdx, %rdx
	addq	%rdx, %rcx
	movq	-8(%rbp), %rdx
	movslq	72(%rdx), %rdx
	addl	(%rcx,%rdx,4), %eax
	movl	%eax, (%rcx,%rdx,4)
	movq	img, %rax
	cmpl	$2, 24(%rax)
	je	.LBB3_35
# %bb.10:                               # %if.then67
	movq	-8(%rbp), %rax
	cmpl	$8, 72(%rax)
	jne	.LBB3_26
# %bb.11:                               # %if.then70
	movl	$0, -12(%rbp)
.LBB3_12:                               # %for.cond
                                        # =>This Inner Loop Header: Depth=1
	cmpl	$4, -12(%rbp)
	jge	.LBB3_25
# %bb.13:                               # %for.body
                                        #   in Loop: Header=BB3_12 Depth=1
	movq	-8(%rbp), %rax
	movslq	-12(%rbp), %rcx
	cmpl	$0, 472(%rax,%rcx,4)
	jle	.LBB3_15
# %bb.14:                               # %if.then75
                                        #   in Loop: Header=BB3_12 Depth=1
	movq	stats, %rax
	addq	$728, %rax              # imm = 0x2D8
	movq	img, %rcx
	movslq	24(%rcx), %rcx
	imulq	$60, %rcx, %rcx
	addq	%rcx, %rax
	movq	-8(%rbp), %rcx
	movslq	-12(%rbp), %rdx
	movslq	472(%rcx,%rdx,4), %rcx
	movl	(%rax,%rcx,4), %edx
	addl	$1, %edx
	movl	%edx, (%rax,%rcx,4)
	jmp	.LBB3_16
.LBB3_15:                               # %if.else86
                                        #   in Loop: Header=BB3_12 Depth=1
	movq	stats, %rax
	addq	$32, %rax
	movq	img, %rcx
	movslq	24(%rcx), %rcx
	shlq	$3, %rcx
	addq	%rcx, %rax
	movq	-8(%rbp), %rcx
	movslq	572(%rcx), %rcx
	movl	(%rax,%rcx,4), %edx
	addl	$1, %edx
	movl	%edx, (%rax,%rcx,4)
.LBB3_16:                               # %if.end94
                                        #   in Loop: Header=BB3_12 Depth=1
	movq	-8(%rbp), %rax
	movslq	-12(%rbp), %rcx
	cmpl	$4, 472(%rax,%rcx,4)
	jne	.LBB3_23
# %bb.17:                               # %if.then99
                                        #   in Loop: Header=BB3_12 Depth=1
	movq	-8(%rbp), %rax
	cmpl	$0, 572(%rax)
	je	.LBB3_19
# %bb.18:                               # %land.lhs.true
                                        #   in Loop: Header=BB3_12 Depth=1
	movq	-8(%rbp), %rax
	movl	460(%rax), %eax
	andl	$15, %eax
	cmpl	$0, %eax
	jne	.LBB3_20
.LBB3_19:                               # %lor.lhs.false105
                                        #   in Loop: Header=BB3_12 Depth=1
	movq	input, %rax
	cmpl	$2, 3220(%rax)
	jne	.LBB3_21
.LBB3_20:                               # %if.then107
                                        #   in Loop: Header=BB3_12 Depth=1
	movq	stats, %rax
	addq	$72, %rax
	movq	img, %rcx
	movslq	24(%rcx), %rcx
	imulq	$60, %rcx, %rcx
	addq	%rcx, %rax
	movl	16(%rax), %ecx
	addl	$1, %ecx
	movl	%ecx, 16(%rax)
	jmp	.LBB3_22
.LBB3_21:                               # %if.else114
                                        #   in Loop: Header=BB3_12 Depth=1
	movq	stats, %rax
	addq	$372, %rax              # imm = 0x174
	movq	img, %rcx
	movslq	24(%rcx), %rcx
	imulq	$60, %rcx, %rcx
	addq	%rcx, %rax
	movl	16(%rax), %ecx
	addl	$1, %ecx
	movl	%ecx, 16(%rax)
.LBB3_22:                               # %if.end121
                                        #   in Loop: Header=BB3_12 Depth=1
	jmp	.LBB3_23
.LBB3_23:                               # %if.end122
                                        #   in Loop: Header=BB3_12 Depth=1
	jmp	.LBB3_24
.LBB3_24:                               # %for.inc
                                        #   in Loop: Header=BB3_12 Depth=1
	movl	-12(%rbp), %eax
	addl	$1, %eax
	movl	%eax, -12(%rbp)
	jmp	.LBB3_12
.LBB3_25:                               # %for.end
	jmp	.LBB3_34
.LBB3_26:                               # %if.else124
	movq	-8(%rbp), %rax
	cmpl	$0, 72(%rax)
	jl	.LBB3_33
# %bb.27:                               # %land.lhs.true127
	movq	-8(%rbp), %rax
	cmpl	$3, 72(%rax)
	jg	.LBB3_33
# %bb.28:                               # %land.lhs.true130
	movq	-8(%rbp), %rax
	movl	460(%rax), %eax
	andl	$15, %eax
	cmpl	$0, %eax
	je	.LBB3_33
# %bb.29:                               # %if.then134
	movq	-8(%rbp), %rax
	cmpl	$0, 572(%rax)
	je	.LBB3_31
# %bb.30:                               # %if.then137
	movq	stats, %rax
	addq	$72, %rax
	movq	img, %rcx
	movslq	24(%rcx), %rcx
	imulq	$60, %rcx, %rcx
	addq	%rcx, %rax
	movq	-8(%rbp), %rcx
	movslq	72(%rcx), %rcx
	movl	(%rax,%rcx,4), %edx
	addl	$1, %edx
	movl	%edx, (%rax,%rcx,4)
	jmp	.LBB3_32
.LBB3_31:                               # %if.else146
	movq	stats, %rax
	addq	$372, %rax              # imm = 0x174
	movq	img, %rcx
	movslq	24(%rcx), %rcx
	imulq	$60, %rcx, %rcx
	addq	%rcx, %rax
	movq	-8(%rbp), %rcx
	movslq	72(%rcx), %rcx
	movl	(%rax,%rcx,4), %edx
	addl	$1, %edx
	movl	%edx, (%rax,%rcx,4)
.LBB3_32:                               # %if.end155
	jmp	.LBB3_33
.LBB3_33:                               # %if.end156
	jmp	.LBB3_34
.LBB3_34:                               # %if.end157
	jmp	.LBB3_35
.LBB3_35:                               # %if.end158
	movq	img, %rax
	cmpl	$0, 24(%rax)
	je	.LBB3_37
# %bb.36:                               # %lor.lhs.false161
	movq	img, %rax
	cmpl	$3, 24(%rax)
	jne	.LBB3_38
.LBB3_37:                               # %if.then164
	movq	stats, %rax
	movl	(%rax), %ecx
	addl	$1, %ecx
	movl	%ecx, (%rax)
	movq	-8(%rbp), %rax
	movl	12(%rax), %eax
	movq	stats, %rcx
	addl	4(%rcx), %eax
	movl	%eax, 4(%rcx)
.LBB3_38:                               # %if.end167
	popq	%rbp
	.cfi_def_cfa %rsp, 8
	retq
.Lfunc_end3:
	.size	proceed2nextMacroblock, .Lfunc_end3-proceed2nextMacroblock
	.cfi_endproc
                                        # -- End function
	.globl	start_macroblock        # -- Begin function start_macroblock
	.p2align	4, 0x90
	.type	start_macroblock,@function
start_macroblock:                       # @start_macroblock
	.cfi_startproc
# %bb.0:                                # %entry
	pushq	%rbp
	.cfi_def_cfa_offset 16
	.cfi_offset %rbp, -16
	movq	%rsp, %rbp
	.cfi_def_cfa_register %rbp
	subq	$112, %rsp
	movl	%edi, -56(%rbp)
	movl	%esi, -68(%rbp)
	movq	input, %rax
	cmpl	$2, 208(%rax)
	movb	$1, %al
	je	.LBB4_2
# %bb.1:                                # %lor.rhs
	movq	input, %rax
	cmpl	$3, 208(%rax)
	sete	%al
.LBB4_2:                                # %lor.end
	andb	$1, %al
	movzbl	%al, %eax
	movl	%eax, -84(%rbp)
	movq	img, %rax
	movq	14168(%rax), %rax
	movslq	-56(%rbp), %rcx
	imulq	$632, %rcx, %rcx        # imm = 0x278
	addq	%rcx, %rax
	movq	%rax, -8(%rbp)
	movq	img, %rax
	movq	14160(%rax), %rax
	movq	%rax, -80(%rbp)
	movq	img, %rax
	movl	72668(%rax), %eax
	cltd
	movl	$2, %ecx
	idivl	%ecx
	addl	$25, %eax
	movl	%eax, -44(%rbp)
	movq	img, %rax
	movl	72668(%rax), %eax
	cltd
	idivl	%ecx
	addl	$26, %eax
	movl	%eax, -40(%rbp)
	movl	-68(%rbp), %eax
	movq	-8(%rbp), %rcx
	movl	%eax, 532(%rcx)
	movl	-68(%rbp), %eax
	movq	enc_picture, %rcx
	movq	6472(%rcx), %rcx
	movslq	-56(%rbp), %rdx
	movb	%al, (%rcx,%rdx)
	movl	-56(%rbp), %edi
	callq	set_MB_parameters
	cmpl	$0, -84(%rbp)
	je	.LBB4_12
# %bb.3:                                # %if.then
	movq	img, %rax
	cmpl	$0, 120(%rax)
	jne	.LBB4_11
# %bb.4:                                # %if.then11
	movl	$0, -12(%rbp)
.LBB4_5:                                # %for.cond
                                        # =>This Inner Loop Header: Depth=1
	movl	-12(%rbp), %eax
	movq	-80(%rbp), %rcx
	cmpl	16(%rcx), %eax
	jge	.LBB4_10
# %bb.6:                                # %for.body
                                        #   in Loop: Header=BB4_5 Depth=1
	movq	-80(%rbp), %rax
	movq	24(%rax), %rax
	movslq	-12(%rbp), %rcx
	imulq	$120, %rcx, %rcx
	addq	%rcx, %rax
	movq	%rax, -104(%rbp)
	movq	-104(%rbp), %rax
	movq	(%rax), %rax
	movq	%rax, -64(%rbp)
	movq	-64(%rbp), %rax
	movl	4(%rax), %eax
	movq	-64(%rbp), %rcx
	movl	%eax, 16(%rcx)
	movq	-64(%rbp), %rax
	movl	(%rax), %eax
	movq	-64(%rbp), %rcx
	movl	%eax, 12(%rcx)
	movq	-64(%rbp), %rax
	movb	8(%rax), %al
	movq	-64(%rbp), %rcx
	movb	%al, 20(%rcx)
	movq	input, %rax
	cmpl	$1, 2356(%rax)
	jne	.LBB4_8
# %bb.7:                                # %if.then18
                                        #   in Loop: Header=BB4_5 Depth=1
	movq	-104(%rbp), %rax
	addq	$8, %rax
	movq	%rax, -32(%rbp)
	movq	-32(%rbp), %rax
	movl	(%rax), %eax
	movq	-32(%rbp), %rcx
	movl	%eax, 40(%rcx)
	movq	-32(%rbp), %rax
	movl	4(%rax), %eax
	movq	-32(%rbp), %rcx
	movl	%eax, 44(%rcx)
	movq	-32(%rbp), %rax
	movl	8(%rax), %eax
	movq	-32(%rbp), %rcx
	movl	%eax, 48(%rcx)
	movq	-32(%rbp), %rax
	movl	12(%rax), %eax
	movq	-32(%rbp), %rcx
	movl	%eax, 52(%rcx)
	movq	-32(%rbp), %rax
	movl	16(%rax), %eax
	movq	-32(%rbp), %rcx
	movl	%eax, 56(%rcx)
	movq	-32(%rbp), %rax
	movq	24(%rax), %rax
	movq	-32(%rbp), %rcx
	movq	%rax, 64(%rcx)
	movq	-32(%rbp), %rax
	movq	32(%rax), %rax
	movq	-32(%rbp), %rcx
	movq	%rax, 72(%rcx)
	movq	-32(%rbp), %rax
	movl	80(%rax), %eax
	movq	-32(%rbp), %rcx
	movl	%eax, 84(%rcx)
	movq	-32(%rbp), %rax
	movl	96(%rax), %eax
	movq	-32(%rbp), %rcx
	movl	%eax, 100(%rcx)
	movq	-32(%rbp), %rax
	movl	88(%rax), %eax
	movq	-32(%rbp), %rcx
	movl	%eax, 92(%rcx)
.LBB4_8:                                # %if.end
                                        #   in Loop: Header=BB4_5 Depth=1
	jmp	.LBB4_9
.LBB4_9:                                # %for.inc
                                        #   in Loop: Header=BB4_5 Depth=1
	movl	-12(%rbp), %eax
	addl	$1, %eax
	movl	%eax, -12(%rbp)
	jmp	.LBB4_5
.LBB4_10:                               # %for.end
	jmp	.LBB4_11
.LBB4_11:                               # %if.end19
	jmp	.LBB4_12
.LBB4_12:                               # %if.end20
	movq	img, %rax
	movl	20(%rax), %eax
	movq	-8(%rbp), %rcx
	movl	%eax, 4(%rcx)
	movq	img, %rax
	movl	44(%rax), %eax
	movq	-8(%rbp), %rcx
	movl	%eax, 16(%rcx)
	movq	input, %rax
	cmpl	$0, 3236(%rax)
	je	.LBB4_98
# %bb.13:                               # %if.then23
	movq	img, %rax
	movl	12(%rax), %edi
	callq	FmoGetPreviousMBNr
	movl	%eax, -52(%rbp)
	cmpl	$-1, -52(%rbp)
	jle	.LBB4_15
# %bb.14:                               # %if.then26
	movq	img, %rax
	movq	14168(%rax), %rax
	movslq	-52(%rbp), %rcx
	imulq	$632, %rcx, %rcx        # imm = 0x278
	addq	%rcx, %rax
	movl	12(%rax), %eax
	movq	-8(%rbp), %rcx
	movl	%eax, 592(%rcx)
	movq	img, %rax
	movq	14168(%rax), %rax
	movslq	-52(%rbp), %rcx
	imulq	$632, %rcx, %rcx        # imm = 0x278
	addq	%rcx, %rax
	movl	8(%rax), %eax
	movq	-8(%rbp), %rcx
	movl	%eax, 596(%rcx)
	jmp	.LBB4_16
.LBB4_15:                               # %if.else
	movq	-80(%rbp), %rax
	movl	4(%rax), %eax
	movq	-8(%rbp), %rcx
	movl	%eax, 592(%rcx)
	movq	-8(%rbp), %rax
	movl	$0, 596(%rax)
.LBB4_16:                               # %if.end36
	movq	input, %rax
	movl	3248(%rax), %eax
	movq	img, %rcx
	cmpl	72608(%rcx), %eax
	jne	.LBB4_18
# %bb.17:                               # %if.then39
	movq	-8(%rbp), %rax
	movl	$0, 8(%rax)
	movq	img, %rax
	movl	40(%rax), %eax
	movq	-8(%rbp), %rcx
	movl	%eax, 12(%rcx)
	jmp	.LBB4_97
.LBB4_18:                               # %if.else43
	movq	img, %rax
	cmpl	$2, 24(%rax)
	je	.LBB4_20
# %bb.19:                               # %lor.lhs.false
	movq	img, %rax
	cmpl	$1, 24(%rax)
	jne	.LBB4_21
.LBB4_20:                               # %if.then49
	movq	-8(%rbp), %rax
	movl	$0, 8(%rax)
	movq	img, %rax
	movl	40(%rax), %eax
	movq	-8(%rbp), %rcx
	movl	%eax, 12(%rcx)
	jmp	.LBB4_96
.LBB4_21:                               # %if.else53
	movq	img, %rax
	cmpl	$0, 24(%rax)
	jne	.LBB4_95
# %bb.22:                               # %if.then57
	movq	img, %rax
	cmpl	$0, 72624(%rax)
	jne	.LBB4_40
# %bb.23:                               # %if.then59
	movq	-8(%rbp), %rax
	cmpl	$0, 532(%rax)
	jne	.LBB4_35
# %bb.24:                               # %if.then62
	movq	img, %rax
	cmpl	$0, 12(%rax)
	jne	.LBB4_26
# %bb.25:                               # %if.then66
	movq	-8(%rbp), %rax
	movl	$0, 8(%rax)
	movq	img, %rax
	movl	40(%rax), %eax
	movq	-8(%rbp), %rcx
	movl	%eax, 12(%rcx)
	movq	-8(%rbp), %rax
	movl	8(%rax), %eax
	movl	%eax, DELTA_QP2
	movl	%eax, DELTA_QP
	movq	-8(%rbp), %rax
	movl	12(%rax), %eax
	movl	%eax, QP2
	movl	%eax, QP
	jmp	.LBB4_34
.LBB4_26:                               # %if.else72
	movq	input, %rax
	cmpl	$0, 2884(%rax)
	je	.LBB4_28
# %bb.27:                               # %land.lhs.true
	movq	img, %rax
	cmpl	$0, 72628(%rax)
	jne	.LBB4_32
.LBB4_28:                               # %if.then75
	movq	img, %rax
	movq	14168(%rax), %rax
	movq	img, %rcx
	movl	12(%rcx), %ecx
	subl	$1, %ecx
	movslq	%ecx, %rcx
	imulq	$632, %rcx, %rcx        # imm = 0x278
	addq	%rcx, %rax
	cmpl	$1, 600(%rax)
	jne	.LBB4_30
# %bb.29:                               # %if.then82
	movq	-8(%rbp), %rax
	movl	$0, 8(%rax)
	movq	img, %rax
	movl	40(%rax), %eax
	movq	-8(%rbp), %rcx
	movl	%eax, 12(%rcx)
	jmp	.LBB4_31
.LBB4_30:                               # %if.else86
	movq	img, %rax
	movq	14168(%rax), %rax
	movq	img, %rcx
	movl	12(%rcx), %ecx
	subl	$1, %ecx
	movslq	%ecx, %rcx
	imulq	$632, %rcx, %rcx        # imm = 0x278
	addq	%rcx, %rax
	movl	592(%rax), %eax
	movq	-8(%rbp), %rcx
	movl	%eax, 12(%rcx)
	movq	-8(%rbp), %rax
	movl	12(%rax), %eax
	movq	img, %rcx
	movq	14168(%rcx), %rcx
	movq	img, %rdx
	movl	12(%rdx), %edx
	subl	$1, %edx
	movslq	%edx, %rdx
	imulq	$632, %rdx, %rdx        # imm = 0x278
	addq	%rdx, %rcx
	subl	12(%rcx), %eax
	movq	-8(%rbp), %rcx
	movl	%eax, 8(%rcx)
	movq	-8(%rbp), %rax
	movl	12(%rax), %eax
	movq	img, %rcx
	movl	%eax, 40(%rcx)
.LBB4_31:                               # %if.end105
	movq	-8(%rbp), %rax
	movl	8(%rax), %eax
	movl	%eax, DELTA_QP2
	movl	%eax, DELTA_QP
	movq	-8(%rbp), %rax
	movl	12(%rax), %eax
	movl	%eax, QP2
	movl	%eax, QP
	jmp	.LBB4_33
.LBB4_32:                               # %if.else108
	movq	-8(%rbp), %rax
	movl	$0, 8(%rax)
	movq	img, %rax
	movl	40(%rax), %eax
	movq	-8(%rbp), %rcx
	movl	%eax, 12(%rcx)
.LBB4_33:                               # %if.end112
	jmp	.LBB4_34
.LBB4_34:                               # %if.end113
	jmp	.LBB4_39
.LBB4_35:                               # %if.else114
	movq	img, %rax
	cmpl	$0, 72628(%rax)
	jne	.LBB4_37
# %bb.36:                               # %if.then117
	movl	DELTA_QP2, %eax
	movq	-8(%rbp), %rcx
	movl	%eax, 8(%rcx)
	movl	QP2, %eax
	movq	img, %rcx
	movl	%eax, 40(%rcx)
	movq	-8(%rbp), %rcx
	movl	%eax, 12(%rcx)
	jmp	.LBB4_38
.LBB4_37:                               # %if.else121
	movq	img, %rax
	movl	40(%rax), %eax
	movq	-8(%rbp), %rcx
	movl	%eax, 12(%rcx)
	movq	-8(%rbp), %rax
	movl	$0, 8(%rax)
.LBB4_38:                               # %if.end125
	jmp	.LBB4_39
.LBB4_39:                               # %if.end126
	jmp	.LBB4_47
.LBB4_40:                               # %if.else127
	movq	img, %rax
	cmpl	$0, 72628(%rax)
	jne	.LBB4_45
# %bb.41:                               # %if.then130
	movq	img, %rax
	cmpl	$0, 72632(%rax)
	je	.LBB4_43
# %bb.42:                               # %if.then132
	movl	DELTA_QP, %eax
	movq	-8(%rbp), %rcx
	movl	%eax, 8(%rcx)
	movl	QP, %eax
	movq	-8(%rbp), %rcx
	movl	%eax, 12(%rcx)
	movq	img, %rcx
	movl	%eax, 40(%rcx)
	jmp	.LBB4_44
.LBB4_43:                               # %if.else136
	movl	DELTA_QP2, %eax
	movq	-8(%rbp), %rcx
	movl	%eax, 8(%rcx)
	movl	QP2, %eax
	movq	-8(%rbp), %rcx
	movl	%eax, 12(%rcx)
	movq	img, %rcx
	movl	%eax, 40(%rcx)
.LBB4_44:                               # %if.end140
	jmp	.LBB4_46
.LBB4_45:                               # %if.else141
	movq	-8(%rbp), %rax
	movl	$0, 8(%rax)
	movq	img, %rax
	movl	40(%rax), %eax
	movq	-8(%rbp), %rcx
	movl	%eax, 12(%rcx)
.LBB4_46:                               # %if.end145
	jmp	.LBB4_47
.LBB4_47:                               # %if.end146
	movq	input, %rax
	cmpl	$0, 2884(%rax)
	je	.LBB4_49
# %bb.48:                               # %land.lhs.true149
	movq	img, %rax
	cmpl	$0, 72628(%rax)
	jne	.LBB4_93
.LBB4_49:                               # %if.then152
	movq	-8(%rbp), %rax
	cmpl	$0, 532(%rax)
	jne	.LBB4_91
# %bb.50:                               # %if.then155
	movq	img, %rax
	cmpl	$0, 72616(%rax)
	jle	.LBB4_75
# %bb.51:                               # %land.lhs.true158
	movq	img, %rax
	movl	72616(%rax), %eax
	movq	img, %rcx
	cltd
	idivl	72620(%rcx)
	cmpl	$0, %edx
	jne	.LBB4_75
# %bb.52:                               # %if.then162
	movq	active_sps, %rax
	cmpl	$0, 1148(%rax)
	je	.LBB4_54
# %bb.53:                               # %if.then164
	movb	$0, %al
	callq	updateRCModel
	movq	img, %rax
	movl	72596(%rax), %edi
	callq	updateQuantizationParameter
	movq	img, %rcx
	movl	%eax, 72592(%rcx)
	jmp	.LBB4_74
.LBB4_54:                               # %if.else166
	movq	input, %rax
	cmpl	$2, 2880(%rax)
	jne	.LBB4_58
# %bb.55:                               # %land.lhs.true169
	movq	input, %rax
	cmpl	$0, 2884(%rax)
	jne	.LBB4_58
# %bb.56:                               # %land.lhs.true172
	movq	img, %rax
	cmpl	$0, 72612(%rax)
	jne	.LBB4_58
# %bb.57:                               # %if.then175
	movb	$0, %al
	callq	updateRCModel
	movq	img, %rax
	movl	72596(%rax), %edi
	callq	updateQuantizationParameter
	movq	img, %rcx
	movl	%eax, 72592(%rcx)
	jmp	.LBB4_73
.LBB4_58:                               # %if.else179
	movq	input, %rax
	cmpl	$1, 2880(%rax)
	jne	.LBB4_62
# %bb.59:                               # %land.lhs.true183
	movq	input, %rax
	cmpl	$0, 2884(%rax)
	jne	.LBB4_62
# %bb.60:                               # %land.lhs.true186
	movq	img, %rax
	cmpl	$0, 72612(%rax)
	jne	.LBB4_62
# %bb.61:                               # %if.then190
	movb	$0, %al
	callq	updateRCModel
	movq	img, %rax
	movl	72596(%rax), %edi
	callq	updateQuantizationParameter
	movq	img, %rcx
	movl	%eax, 72592(%rcx)
	jmp	.LBB4_72
.LBB4_62:                               # %if.else194
	movq	input, %rax
	cmpl	$0, 2884(%rax)
	je	.LBB4_66
# %bb.63:                               # %land.lhs.true197
	movq	img, %rax
	cmpl	$0, 72612(%rax)
	jne	.LBB4_66
# %bb.64:                               # %land.lhs.true201
	movq	img, %rax
	cmpl	$1, 72600(%rax)
	jne	.LBB4_66
# %bb.65:                               # %if.then204
	movb	$0, %al
	callq	updateRCModel
	movq	img, %rax
	movl	72596(%rax), %edi
	callq	updateQuantizationParameter
	movq	img, %rcx
	movl	%eax, 72592(%rcx)
	jmp	.LBB4_71
.LBB4_66:                               # %if.else208
	movq	input, %rax
	cmpl	$0, 2884(%rax)
	je	.LBB4_70
# %bb.67:                               # %land.lhs.true211
	movq	img, %rax
	cmpl	$0, 72612(%rax)
	jne	.LBB4_70
# %bb.68:                               # %land.lhs.true215
	movq	img, %rax
	cmpl	$0, 72600(%rax)
	jne	.LBB4_70
# %bb.69:                               # %if.then219
	movb	$0, %al
	callq	updateRCModel
	movq	img, %rax
	movl	72596(%rax), %edi
	callq	updateQuantizationParameter
	movq	img, %rcx
	movl	%eax, 72592(%rcx)
.LBB4_70:                               # %if.end223
	jmp	.LBB4_71
.LBB4_71:                               # %if.end224
	jmp	.LBB4_72
.LBB4_72:                               # %if.end225
	jmp	.LBB4_73
.LBB4_73:                               # %if.end226
	jmp	.LBB4_74
.LBB4_74:                               # %if.end227
	jmp	.LBB4_75
.LBB4_75:                               # %if.end228
	movq	img, %rax
	cmpl	$0, 12(%rax)
	jne	.LBB4_77
# %bb.76:                               # %if.then232
	movq	img, %rax
	movl	40(%rax), %eax
	movq	img, %rcx
	movl	%eax, 72592(%rcx)
.LBB4_77:                               # %if.end235
	movq	img, %rax
	movl	72592(%rax), %eax
	movq	-8(%rbp), %rcx
	movl	%eax, 604(%rcx)
	movq	-8(%rbp), %rax
	movl	604(%rax), %eax
	movq	-8(%rbp), %rcx
	movl	12(%rcx), %ecx
	addl	-44(%rbp), %ecx
	cmpl	%ecx, %eax
	jle	.LBB4_79
# %bb.78:                               # %if.then242
	movq	-8(%rbp), %rax
	movl	12(%rax), %eax
	addl	-44(%rbp), %eax
	movq	-8(%rbp), %rcx
	movl	%eax, 604(%rcx)
	jmp	.LBB4_82
.LBB4_79:                               # %if.else246
	movq	-8(%rbp), %rax
	movl	604(%rax), %eax
	movq	-8(%rbp), %rcx
	movl	12(%rcx), %ecx
	subl	-40(%rbp), %ecx
	cmpl	%ecx, %eax
	jge	.LBB4_81
# %bb.80:                               # %if.then252
	movq	-8(%rbp), %rax
	movl	12(%rax), %eax
	subl	-40(%rbp), %eax
	movq	-8(%rbp), %rcx
	movl	%eax, 604(%rcx)
.LBB4_81:                               # %if.end256
	jmp	.LBB4_82
.LBB4_82:                               # %if.end257
	xorl	%eax, %eax
	movq	-8(%rbp), %rcx
	movl	8(%rcx), %ecx
	movq	-8(%rbp), %rdx
	addl	604(%rdx), %ecx
	movq	-8(%rbp), %rdx
	subl	12(%rdx), %ecx
	movl	%ecx, dq
	movl	dq, %ecx
	subl	-40(%rbp), %eax
	cmpl	%eax, %ecx
	jge	.LBB4_84
# %bb.83:                               # %if.then266
	xorl	%eax, %eax
	xorl	%ecx, %ecx
	subl	-40(%rbp), %ecx
	movl	%ecx, dq
	movl	dq, %ecx
	movq	-8(%rbp), %rdx
	subl	8(%rdx), %ecx
	movl	%ecx, predict_error
	movq	img, %rcx
	movl	40(%rcx), %ecx
	addl	predict_error, %ecx
	movq	img, %rdx
	movl	%ecx, 40(%rdx)
	subl	-40(%rbp), %eax
	movq	-8(%rbp), %rcx
	movl	%eax, 8(%rcx)
	jmp	.LBB4_88
.LBB4_84:                               # %if.else275
	movl	dq, %eax
	cmpl	-44(%rbp), %eax
	jle	.LBB4_86
# %bb.85:                               # %if.then278
	movl	-44(%rbp), %eax
	movl	%eax, dq
	movl	dq, %eax
	movq	-8(%rbp), %rcx
	subl	8(%rcx), %eax
	movl	%eax, predict_error
	movq	img, %rax
	movl	40(%rax), %eax
	addl	predict_error, %eax
	movq	img, %rcx
	movl	%eax, 40(%rcx)
	movl	-44(%rbp), %eax
	movq	-8(%rbp), %rcx
	movl	%eax, 8(%rcx)
	jmp	.LBB4_87
.LBB4_86:                               # %if.else285
	movl	dq, %eax
	movq	-8(%rbp), %rcx
	movl	%eax, 8(%rcx)
	movq	-8(%rbp), %rax
	movl	604(%rax), %eax
	movq	-8(%rbp), %rcx
	subl	12(%rcx), %eax
	movl	%eax, predict_error
	movq	-8(%rbp), %rax
	movl	604(%rax), %eax
	movq	img, %rcx
	movl	%eax, 40(%rcx)
.LBB4_87:                               # %if.end292
	jmp	.LBB4_88
.LBB4_88:                               # %if.end293
	movq	img, %rax
	movl	40(%rax), %eax
	movq	-8(%rbp), %rcx
	movl	%eax, 12(%rcx)
	movq	input, %rax
	cmpl	$0, 2884(%rax)
	je	.LBB4_90
# %bb.89:                               # %if.then298
	movq	-8(%rbp), %rax
	movl	8(%rax), %eax
	movl	%eax, DELTA_QP2
	movl	%eax, DELTA_QP
	movq	-8(%rbp), %rax
	movl	12(%rax), %eax
	movl	%eax, QP2
	movl	%eax, QP
	movq	-8(%rbp), %rax
	movl	8(%rax), %eax
	movl	%eax, DELTA_QP2
.LBB4_90:                               # %if.end302
	movl	predict_error, %eax
	movq	-8(%rbp), %rcx
	movl	%eax, 608(%rcx)
	jmp	.LBB4_92
.LBB4_91:                               # %if.else303
	movq	-8(%rbp), %rax
	movl	608(%rax), %eax
	movl	%eax, predict_error
.LBB4_92:                               # %if.end305
	jmp	.LBB4_94
.LBB4_93:                               # %if.else306
	movq	img, %rax
	movl	40(%rax), %eax
	movq	-8(%rbp), %rcx
	movl	%eax, 592(%rcx)
.LBB4_94:                               # %if.end309
	jmp	.LBB4_95
.LBB4_95:                               # %if.end310
	jmp	.LBB4_96
.LBB4_96:                               # %if.end311
	jmp	.LBB4_97
.LBB4_97:                               # %if.end312
	jmp	.LBB4_102
.LBB4_98:                               # %if.else313
	movq	img, %rax
	movq	14160(%rax), %rax
	movq	%rax, -96(%rbp)
	movq	img, %rax
	movl	12(%rax), %edi
	callq	FmoGetPreviousMBNr
	movl	%eax, -48(%rbp)
	cmpl	$-1, -48(%rbp)
	jle	.LBB4_100
# %bb.99:                               # %if.then320
	movq	img, %rax
	movq	14168(%rax), %rax
	movslq	-48(%rbp), %rcx
	imulq	$632, %rcx, %rcx        # imm = 0x278
	addq	%rcx, %rax
	movl	12(%rax), %eax
	movq	-8(%rbp), %rcx
	movl	%eax, 592(%rcx)
	movq	img, %rax
	movq	14168(%rax), %rax
	movslq	-48(%rbp), %rcx
	imulq	$632, %rcx, %rcx        # imm = 0x278
	addq	%rcx, %rax
	movl	8(%rax), %eax
	movq	-8(%rbp), %rcx
	movl	%eax, 596(%rcx)
	jmp	.LBB4_101
.LBB4_100:                              # %if.else331
	movq	-96(%rbp), %rax
	movl	4(%rax), %eax
	movq	-8(%rbp), %rcx
	movl	%eax, 592(%rcx)
	movq	-8(%rbp), %rax
	movl	$0, 596(%rax)
.LBB4_101:                              # %if.end335
	movq	-96(%rbp), %rax
	movl	4(%rax), %eax
	movq	-8(%rbp), %rcx
	movl	%eax, 12(%rcx)
	movq	-8(%rbp), %rax
	movl	12(%rax), %eax
	movq	-8(%rbp), %rcx
	subl	592(%rcx), %eax
	movq	-8(%rbp), %rcx
	movl	%eax, 8(%rcx)
	movq	-8(%rbp), %rax
	movl	8(%rax), %eax
	movl	%eax, DELTA_QP2
	movl	%eax, DELTA_QP
	movq	-8(%rbp), %rax
	movl	12(%rax), %eax
	movl	%eax, QP2
	movl	%eax, QP
.LBB4_102:                              # %if.end344
	movq	-8(%rbp), %rax
	movl	$0, (%rax)
	movq	active_pps, %rax
	cmpl	$0, 220(%rax)
	je	.LBB4_104
# %bb.103:                              # %if.then346
	movq	img, %rax
	movl	71984(%rax), %eax
	movq	-8(%rbp), %rcx
	movl	%eax, 612(%rcx)
	movq	img, %rax
	movl	71988(%rax), %eax
	movq	-8(%rbp), %rcx
	movl	%eax, 616(%rcx)
	movq	img, %rax
	movl	71992(%rax), %eax
	movq	-8(%rbp), %rcx
	movl	%eax, 620(%rcx)
	jmp	.LBB4_105
.LBB4_104:                              # %if.else350
	movq	-8(%rbp), %rax
	movl	$0, 612(%rax)
	movq	-8(%rbp), %rax
	movl	$0, 616(%rax)
	movq	-8(%rbp), %rax
	movl	$0, 620(%rax)
.LBB4_105:                              # %if.end354
	movb	$0, %al
	callq	CheckAvailabilityOfNeighbors
	movq	input, %rax
	cmpl	$1, 2356(%rax)
	jne	.LBB4_107
# %bb.106:                              # %if.then358
	movb	$0, %al
	callq	CheckAvailabilityOfNeighborsCABAC
.LBB4_107:                              # %if.end359
	movl	$0, -16(%rbp)
.LBB4_108:                              # %for.cond360
                                        # =>This Loop Header: Depth=1
                                        #     Child Loop BB4_110 Depth 2
                                        #       Child Loop BB4_112 Depth 3
                                        #         Child Loop BB4_114 Depth 4
	cmpl	$2, -16(%rbp)
	jge	.LBB4_123
# %bb.109:                              # %for.body363
                                        #   in Loop: Header=BB4_108 Depth=1
	movl	$0, -20(%rbp)
.LBB4_110:                              # %for.cond364
                                        #   Parent Loop BB4_108 Depth=1
                                        # =>  This Loop Header: Depth=2
                                        #       Child Loop BB4_112 Depth 3
                                        #         Child Loop BB4_114 Depth 4
	cmpl	$4, -20(%rbp)
	jge	.LBB4_121
# %bb.111:                              # %for.body367
                                        #   in Loop: Header=BB4_110 Depth=2
	movl	$0, -12(%rbp)
.LBB4_112:                              # %for.cond368
                                        #   Parent Loop BB4_108 Depth=1
                                        #     Parent Loop BB4_110 Depth=2
                                        # =>    This Loop Header: Depth=3
                                        #         Child Loop BB4_114 Depth 4
	cmpl	$4, -12(%rbp)
	jge	.LBB4_119
# %bb.113:                              # %for.body371
                                        #   in Loop: Header=BB4_112 Depth=3
	movl	$0, -36(%rbp)
.LBB4_114:                              # %for.cond372
                                        #   Parent Loop BB4_108 Depth=1
                                        #     Parent Loop BB4_110 Depth=2
                                        #       Parent Loop BB4_112 Depth=3
                                        # =>      This Inner Loop Header: Depth=4
	cmpl	$2, -36(%rbp)
	jge	.LBB4_117
# %bb.115:                              # %for.body375
                                        #   in Loop: Header=BB4_114 Depth=4
	movq	enc_picture, %rax
	movq	6504(%rax), %rax
	movslq	-16(%rbp), %rcx
	movq	(%rax,%rcx,8), %rax
	movq	img, %rcx
	movl	144(%rcx), %ecx
	addl	-12(%rbp), %ecx
	movslq	%ecx, %rcx
	movq	(%rax,%rcx,8), %rax
	movq	img, %rcx
	movl	148(%rcx), %ecx
	addl	-20(%rbp), %ecx
	movslq	%ecx, %rcx
	movq	(%rax,%rcx,8), %rax
	movslq	-36(%rbp), %rcx
	movw	$0, (%rax,%rcx,2)
# %bb.116:                              # %for.inc386
                                        #   in Loop: Header=BB4_114 Depth=4
	movl	-36(%rbp), %eax
	addl	$1, %eax
	movl	%eax, -36(%rbp)
	jmp	.LBB4_114
.LBB4_117:                              # %for.end388
                                        #   in Loop: Header=BB4_112 Depth=3
	jmp	.LBB4_118
.LBB4_118:                              # %for.inc389
                                        #   in Loop: Header=BB4_112 Depth=3
	movl	-12(%rbp), %eax
	addl	$1, %eax
	movl	%eax, -12(%rbp)
	jmp	.LBB4_112
.LBB4_119:                              # %for.end391
                                        #   in Loop: Header=BB4_110 Depth=2
	jmp	.LBB4_120
.LBB4_120:                              # %for.inc392
                                        #   in Loop: Header=BB4_110 Depth=2
	movl	-20(%rbp), %eax
	addl	$1, %eax
	movl	%eax, -20(%rbp)
	jmp	.LBB4_110
.LBB4_121:                              # %for.end394
                                        #   in Loop: Header=BB4_108 Depth=1
	jmp	.LBB4_122
.LBB4_122:                              # %for.inc395
                                        #   in Loop: Header=BB4_108 Depth=1
	movl	-16(%rbp), %eax
	addl	$1, %eax
	movl	%eax, -16(%rbp)
	jmp	.LBB4_108
.LBB4_123:                              # %for.end397
	movl	$0, -20(%rbp)
.LBB4_124:                              # %for.cond398
                                        # =>This Loop Header: Depth=1
                                        #     Child Loop BB4_126 Depth 2
                                        #       Child Loop BB4_128 Depth 3
	cmpl	$4, -20(%rbp)
	jge	.LBB4_135
# %bb.125:                              # %for.body401
                                        #   in Loop: Header=BB4_124 Depth=1
	movl	$0, -12(%rbp)
.LBB4_126:                              # %for.cond402
                                        #   Parent Loop BB4_124 Depth=1
                                        # =>  This Loop Header: Depth=2
                                        #       Child Loop BB4_128 Depth 3
	cmpl	$4, -12(%rbp)
	jge	.LBB4_133
# %bb.127:                              # %for.body405
                                        #   in Loop: Header=BB4_126 Depth=2
	movl	$0, -16(%rbp)
.LBB4_128:                              # %for.cond406
                                        #   Parent Loop BB4_124 Depth=1
                                        #     Parent Loop BB4_126 Depth=2
                                        # =>    This Inner Loop Header: Depth=3
	cmpl	$2, -16(%rbp)
	jge	.LBB4_131
# %bb.129:                              # %for.body409
                                        #   in Loop: Header=BB4_128 Depth=3
	movq	enc_picture, %rax
	movq	6480(%rax), %rax
	movslq	-16(%rbp), %rcx
	movq	(%rax,%rcx,8), %rax
	movq	img, %rcx
	movl	144(%rcx), %ecx
	addl	-12(%rbp), %ecx
	movslq	%ecx, %rcx
	movq	(%rax,%rcx,8), %rax
	movq	img, %rcx
	movl	148(%rcx), %ecx
	addl	-20(%rbp), %ecx
	movslq	%ecx, %rcx
	movw	$-1, (%rax,%rcx,2)
	movq	enc_picture, %rax
	movq	6488(%rax), %rax
	movslq	-16(%rbp), %rcx
	movq	(%rax,%rcx,8), %rax
	movq	img, %rcx
	movl	144(%rcx), %ecx
	addl	-12(%rbp), %ecx
	movslq	%ecx, %rcx
	movq	(%rax,%rcx,8), %rax
	movq	img, %rcx
	movl	148(%rcx), %ecx
	addl	-20(%rbp), %ecx
	movslq	%ecx, %rcx
	movq	$-1, (%rax,%rcx,8)
# %bb.130:                              # %for.inc430
                                        #   in Loop: Header=BB4_128 Depth=3
	movl	-16(%rbp), %eax
	addl	$1, %eax
	movl	%eax, -16(%rbp)
	jmp	.LBB4_128
.LBB4_131:                              # %for.end432
                                        #   in Loop: Header=BB4_126 Depth=2
	jmp	.LBB4_132
.LBB4_132:                              # %for.inc433
                                        #   in Loop: Header=BB4_126 Depth=2
	movl	-12(%rbp), %eax
	addl	$1, %eax
	movl	%eax, -12(%rbp)
	jmp	.LBB4_126
.LBB4_133:                              # %for.end435
                                        #   in Loop: Header=BB4_124 Depth=1
	jmp	.LBB4_134
.LBB4_134:                              # %for.inc436
                                        #   in Loop: Header=BB4_124 Depth=1
	movl	-20(%rbp), %eax
	addl	$1, %eax
	movl	%eax, -20(%rbp)
	jmp	.LBB4_124
.LBB4_135:                              # %for.end438
	movq	-8(%rbp), %rax
	movl	$0, 72(%rax)
	movq	-8(%rbp), %rax
	movq	$0, 464(%rax)
	movq	-8(%rbp), %rax
	movl	$0, 460(%rax)
	movl	$0, -16(%rbp)
.LBB4_136:                              # %for.cond439
                                        # =>This Loop Header: Depth=1
                                        #     Child Loop BB4_138 Depth 2
                                        #       Child Loop BB4_140 Depth 3
                                        #         Child Loop BB4_142 Depth 4
	cmpl	$2, -16(%rbp)
	jge	.LBB4_151
# %bb.137:                              # %for.body442
                                        #   in Loop: Header=BB4_136 Depth=1
	movl	$0, -20(%rbp)
.LBB4_138:                              # %for.cond443
                                        #   Parent Loop BB4_136 Depth=1
                                        # =>  This Loop Header: Depth=2
                                        #       Child Loop BB4_140 Depth 3
                                        #         Child Loop BB4_142 Depth 4
	cmpl	$4, -20(%rbp)
	jge	.LBB4_149
# %bb.139:                              # %for.body446
                                        #   in Loop: Header=BB4_138 Depth=2
	movl	$0, -12(%rbp)
.LBB4_140:                              # %for.cond447
                                        #   Parent Loop BB4_136 Depth=1
                                        #     Parent Loop BB4_138 Depth=2
                                        # =>    This Loop Header: Depth=3
                                        #         Child Loop BB4_142 Depth 4
	cmpl	$4, -12(%rbp)
	jge	.LBB4_147
# %bb.141:                              # %for.body450
                                        #   in Loop: Header=BB4_140 Depth=3
	movl	$0, -36(%rbp)
.LBB4_142:                              # %for.cond451
                                        #   Parent Loop BB4_136 Depth=1
                                        #     Parent Loop BB4_138 Depth=2
                                        #       Parent Loop BB4_140 Depth=3
                                        # =>      This Inner Loop Header: Depth=4
	cmpl	$2, -36(%rbp)
	jge	.LBB4_145
# %bb.143:                              # %for.body454
                                        #   in Loop: Header=BB4_142 Depth=4
	movq	-8(%rbp), %rax
	addq	$76, %rax
	movslq	-16(%rbp), %rcx
	shlq	$7, %rcx
	addq	%rcx, %rax
	movslq	-20(%rbp), %rcx
	shlq	$5, %rcx
	addq	%rcx, %rax
	movslq	-12(%rbp), %rcx
	shlq	$3, %rcx
	addq	%rcx, %rax
	movslq	-36(%rbp), %rcx
	movl	$0, (%rax,%rcx,4)
# %bb.144:                              # %for.inc463
                                        #   in Loop: Header=BB4_142 Depth=4
	movl	-36(%rbp), %eax
	addl	$1, %eax
	movl	%eax, -36(%rbp)
	jmp	.LBB4_142
.LBB4_145:                              # %for.end465
                                        #   in Loop: Header=BB4_140 Depth=3
	jmp	.LBB4_146
.LBB4_146:                              # %for.inc466
                                        #   in Loop: Header=BB4_140 Depth=3
	movl	-12(%rbp), %eax
	addl	$1, %eax
	movl	%eax, -12(%rbp)
	jmp	.LBB4_140
.LBB4_147:                              # %for.end468
                                        #   in Loop: Header=BB4_138 Depth=2
	jmp	.LBB4_148
.LBB4_148:                              # %for.inc469
                                        #   in Loop: Header=BB4_138 Depth=2
	movl	-20(%rbp), %eax
	addl	$1, %eax
	movl	%eax, -20(%rbp)
	jmp	.LBB4_138
.LBB4_149:                              # %for.end471
                                        #   in Loop: Header=BB4_136 Depth=1
	jmp	.LBB4_150
.LBB4_150:                              # %for.inc472
                                        #   in Loop: Header=BB4_136 Depth=1
	movl	-16(%rbp), %eax
	addl	$1, %eax
	movl	%eax, -16(%rbp)
	jmp	.LBB4_136
.LBB4_151:                              # %for.end474
	movq	-8(%rbp), %rax
	movq	$0, 504(%rax)
	movq	-8(%rbp), %rax
	movl	$0, 524(%rax)
	movl	$0, -12(%rbp)
.LBB4_152:                              # %for.cond475
                                        # =>This Inner Loop Header: Depth=1
	cmpl	$16, -12(%rbp)
	jge	.LBB4_155
# %bb.153:                              # %for.body478
                                        #   in Loop: Header=BB4_152 Depth=1
	movq	-8(%rbp), %rax
	movslq	-12(%rbp), %rcx
	movl	$2, 332(%rax,%rcx,4)
# %bb.154:                              # %for.inc481
                                        #   in Loop: Header=BB4_152 Depth=1
	movl	-12(%rbp), %eax
	addl	$1, %eax
	movl	%eax, -12(%rbp)
	jmp	.LBB4_152
.LBB4_155:                              # %for.end483
	movl	$0, -12(%rbp)
.LBB4_156:                              # %for.cond484
                                        # =>This Inner Loop Header: Depth=1
	cmpl	$16, -12(%rbp)
	jge	.LBB4_159
# %bb.157:                              # %for.body487
                                        #   in Loop: Header=BB4_156 Depth=1
	movq	-8(%rbp), %rax
	movslq	-12(%rbp), %rcx
	movl	$2, 396(%rax,%rcx,4)
# %bb.158:                              # %for.inc490
                                        #   in Loop: Header=BB4_156 Depth=1
	movl	-12(%rbp), %eax
	addl	$1, %eax
	movl	%eax, -12(%rbp)
	jmp	.LBB4_156
.LBB4_159:                              # %for.end492
	movq	input, %rax
	cmpl	$0, 216(%rax)
	je	.LBB4_161
# %bb.160:                              # %if.then494
	movq	img, %rax
	movq	71784(%rax), %rax
	movq	img, %rcx
	movslq	12(%rcx), %rcx
	movl	$1, (%rax,%rcx,4)
.LBB4_161:                              # %if.end498
	movq	img, %rax
	movl	71984(%rax), %eax
	movq	-8(%rbp), %rcx
	movl	%eax, 512(%rcx)
	movq	img, %rax
	movl	71988(%rax), %eax
	movq	-8(%rbp), %rcx
	movl	%eax, 516(%rcx)
	movq	img, %rax
	movl	71992(%rax), %eax
	movq	-8(%rbp), %rcx
	movl	%eax, 520(%rcx)
	movq	img, %rax
	cmpl	$0, 12(%rax)
	jne	.LBB4_163
# %bb.162:                              # %if.then505
	movq	-8(%rbp), %rax
	movl	$0, 20(%rax)
	jmp	.LBB4_166
.LBB4_163:                              # %if.else507
	movq	-8(%rbp), %rax
	movl	4(%rax), %eax
	movq	img, %rcx
	movq	14168(%rcx), %rcx
	movq	img, %rdx
	movl	12(%rdx), %edx
	subl	$1, %edx
	movslq	%edx, %rdx
	imulq	$632, %rdx, %rdx        # imm = 0x278
	addq	%rdx, %rcx
	cmpl	4(%rcx), %eax
	jne	.LBB4_165
# %bb.164:                              # %if.then517
	movq	-8(%rbp), %rax
	movl	$0, 20(%rax)
.LBB4_165:                              # %if.end520
	jmp	.LBB4_166
.LBB4_166:                              # %if.end521
	movq	-8(%rbp), %rax
	movl	$0, 28(%rax)
	movq	-8(%rbp), %rax
	movl	$0, 40(%rax)
	movq	-8(%rbp), %rax
	movl	$0, 32(%rax)
	movq	-8(%rbp), %rax
	movl	$0, 36(%rax)
	movq	-8(%rbp), %rax
	movl	$0, 48(%rax)
	movq	-8(%rbp), %rax
	movl	$0, 44(%rax)
	movq	input, %rax
	cmpl	$0, 3292(%rax)
	jne	.LBB4_168
# %bb.167:                              # %if.then535
	movb	$0, %al
	callq	ResetFastFullIntegerSearch
.LBB4_168:                              # %if.end536
	addq	$112, %rsp
	popq	%rbp
	.cfi_def_cfa %rsp, 8
	retq
.Lfunc_end4:
	.size	start_macroblock, .Lfunc_end4-start_macroblock
	.cfi_endproc
                                        # -- End function
	.globl	terminate_macroblock    # -- Begin function terminate_macroblock
	.p2align	4, 0x90
	.type	terminate_macroblock,@function
terminate_macroblock:                   # @terminate_macroblock
	.cfi_startproc
# %bb.0:                                # %entry
	pushq	%rbp
	.cfi_def_cfa_offset 16
	.cfi_offset %rbp, -16
	movq	%rsp, %rbp
	.cfi_def_cfa_register %rbp
	pushq	%rbx
	subq	$104, %rsp
	.cfi_offset %rbx, -24
	movq	%rdi, -64(%rbp)
	movq	%rsi, -80(%rbp)
	movq	img, %rax
	movq	14160(%rax), %rax
	movq	%rax, -56(%rbp)
	movq	img, %rax
	movq	14168(%rax), %rax
	movq	img, %rcx
	movslq	12(%rcx), %rcx
	imulq	$632, %rcx, %rcx        # imm = 0x278
	addq	%rcx, %rax
	movq	%rax, -104(%rbp)
	movq	img, %rax
	addq	$14176, %rax            # imm = 0x3760
	movq	-104(%rbp), %rcx
	movslq	(%rcx), %rcx
	imulq	$48, %rcx, %rcx
	addq	%rcx, %rax
	movq	%rax, -24(%rbp)
	movq	input, %rax
	movslq	2364(%rax), %rax
	movq	assignSE2partition(,%rax,8), %rax
	movq	%rax, -96(%rbp)
	movl	$0, -36(%rbp)
	movq	input, %rax
	cmpl	$2, 208(%rax)
	movb	$1, %al
	je	.LBB5_2
# %bb.1:                                # %lor.rhs
	movq	input, %rax
	cmpl	$3, 208(%rax)
	sete	%al
.LBB5_2:                                # %lor.end
	andb	$1, %al
	movzbl	%al, %eax
	movl	%eax, -108(%rbp)
	movl	$0, -68(%rbp)
	movq	img, %rax
	cmpl	$0, 12(%rax)
	je	.LBB5_4
# %bb.3:                                # %lor.lhs.false
	movq	img, %rax
	movl	12(%rax), %edi
	callq	FmoGetPreviousMBNr
	cmpl	$0, %eax
	jge	.LBB5_5
.LBB5_4:                                # %if.then
	movl	$1, -68(%rbp)
	jmp	.LBB5_8
.LBB5_5:                                # %if.else
	movq	img, %rax
	movq	14168(%rax), %rbx
	movq	img, %rax
	movl	12(%rax), %edi
	callq	FmoGetPreviousMBNr
	cltq
	imulq	$632, %rax, %rax        # imm = 0x278
	addq	%rax, %rbx
	movl	4(%rbx), %eax
	movq	img, %rcx
	cmpl	20(%rcx), %eax
	je	.LBB5_7
# %bb.6:                                # %if.then17
	movl	$1, -68(%rbp)
.LBB5_7:                                # %if.end
	jmp	.LBB5_8
.LBB5_8:                                # %if.end18
	movq	-80(%rbp), %rax
	movl	$0, (%rax)
	movq	input(%rip), %rax
	movl	208(%rax), %eax
	movq	%rax, %rcx
	subq	$3, %rcx
	ja	.LBB5_45
# %bb.9:                                # %if.end18
	movq	.LJTI5_0(,%rax,8), %rax
	jmpq	*%rax
.LBB5_10:                               # %sw.bb
	movq	-56(%rbp), %rax
	movl	20(%rax), %ecx
	addl	$1, %ecx
	movl	%ecx, 20(%rax)
	movq	-80(%rbp), %rax
	movl	$0, (%rax)
	movq	-56(%rbp), %rax
	movl	20(%rax), %eax
	movq	img, %rcx
	cmpl	16(%rcx), %eax
	jne	.LBB5_12
# %bb.11:                               # %if.then22
	movq	-64(%rbp), %rax
	movl	$1, (%rax)
.LBB5_12:                               # %if.end23
	movq	img, %rax
	movl	12(%rax), %ebx
	movq	img, %rax
	movl	12(%rax), %edi
	callq	FmoMB2SliceGroup
	movl	%eax, %edi
	callq	FmoGetLastCodedMBOfSliceGroup
	cmpl	%eax, %ebx
	sete	%al
	andb	$1, %al
	movzbl	%al, %eax
	movq	-64(%rbp), %rcx
	orl	(%rcx), %eax
	movl	%eax, (%rcx)
	jmp	.LBB5_46
.LBB5_13:                               # %sw.bb29
	movq	-56(%rbp), %rax
	movl	20(%rax), %ecx
	addl	$1, %ecx
	movl	%ecx, 20(%rax)
	movq	-80(%rbp), %rax
	movl	$0, (%rax)
	movq	img, %rax
	movl	12(%rax), %ebx
	movq	img, %rax
	movl	12(%rax), %edi
	callq	FmoMB2SliceGroup
	movl	%eax, %edi
	callq	FmoGetLastCodedMBOfSliceGroup
	cmpl	%eax, %ebx
	sete	%al
	andb	$1, %al
	movzbl	%al, %eax
	movq	-64(%rbp), %rcx
	movl	%eax, (%rcx)
	movq	-56(%rbp), %rax
	movl	20(%rax), %eax
	movq	input, %rcx
	cmpl	212(%rcx), %eax
	setge	%al
	andb	$1, %al
	movzbl	%al, %eax
	movq	-64(%rbp), %rcx
	orl	(%rcx), %eax
	movl	%eax, (%rcx)
	jmp	.LBB5_46
.LBB5_14:                               # %sw.bb42
	movq	img, %rax
	cmpl	$0, 120(%rax)
	je	.LBB5_16
# %bb.15:                               # %if.then43
	movq	img, %rax
	movl	120(%rax), %eax
	movq	-24(%rbp), %rcx
	movl	%eax, 4(%rcx)
	movq	-24(%rbp), %rax
	movl	$0, 8(%rax)
	movq	-24(%rbp), %rax
	movabsq	$ue_linfo, %rcx
	movq	%rcx, 32(%rax)
	movq	-24(%rbp), %rax
	movl	$2, (%rax)
	movq	-56(%rbp), %rax
	movq	24(%rax), %rax
	movq	-96(%rbp), %rcx
	movq	-24(%rbp), %rdx
	movslq	(%rdx), %rdx
	movslq	(%rcx,%rdx,4), %rcx
	imulq	$120, %rcx, %rcx
	addq	%rcx, %rax
	movq	%rax, -48(%rbp)
	movq	-48(%rbp), %rax
	movq	112(%rax), %rax
	movq	-24(%rbp), %rdi
	movq	-48(%rbp), %rsi
	callq	*%rax
	movq	-24(%rbp), %rax
	movl	12(%rax), %eax
	movl	%eax, -36(%rbp)
	movq	-48(%rbp), %rax
	movq	(%rax), %rax
	movq	%rax, -16(%rbp)
	movq	-16(%rbp), %rax
	movl	4(%rax), %eax
	movq	-16(%rbp), %rcx
	movl	%eax, 28(%rcx)
	movq	-16(%rbp), %rax
	movl	(%rax), %eax
	movq	-16(%rbp), %rcx
	movl	%eax, 24(%rcx)
	movq	-16(%rbp), %rax
	movb	8(%rax), %al
	movq	-16(%rbp), %rcx
	movb	%al, 21(%rcx)
	movq	-16(%rbp), %rax
	movl	16(%rax), %eax
	movq	-16(%rbp), %rcx
	movl	%eax, 4(%rcx)
	movq	-16(%rbp), %rax
	movl	12(%rax), %eax
	movq	-16(%rbp), %rcx
	movl	%eax, (%rcx)
	movq	-16(%rbp), %rax
	movb	20(%rax), %al
	movq	-16(%rbp), %rcx
	movb	%al, 8(%rcx)
	movl	$1, terminate_macroblock.skip
.LBB5_16:                               # %if.end54
	cmpl	$0, -68(%rbp)
	jne	.LBB5_23
# %bb.17:                               # %if.then56
	movl	-36(%rbp), %edi
	callq	slice_too_big
	cmpl	$0, %eax
	je	.LBB5_19
# %bb.18:                               # %if.then59
	movq	-80(%rbp), %rax
	movl	$1, (%rax)
	movq	-64(%rbp), %rax
	movl	$1, (%rax)
	jmp	.LBB5_22
.LBB5_19:                               # %if.else60
	movq	img, %rax
	cmpl	$0, 120(%rax)
	jne	.LBB5_21
# %bb.20:                               # %if.then63
	movl	$0, terminate_macroblock.skip
.LBB5_21:                               # %if.end64
	jmp	.LBB5_22
.LBB5_22:                               # %if.end65
	jmp	.LBB5_23
.LBB5_23:                               # %if.end66
	movq	-80(%rbp), %rax
	cmpl	$0, (%rax)
	jne	.LBB5_28
# %bb.24:                               # %land.lhs.true
	movq	img, %rax
	movl	12(%rax), %ebx
	movq	img, %rax
	movl	12(%rax), %edi
	callq	FmoMB2SliceGroup
	movl	%eax, %edi
	callq	FmoGetLastCodedMBOfSliceGroup
	cmpl	%eax, %ebx
	jne	.LBB5_28
# %bb.25:                               # %if.then75
	movq	-64(%rbp), %rax
	movl	$1, (%rax)
	movq	img, %rax
	cmpl	$0, 120(%rax)
	jne	.LBB5_27
# %bb.26:                               # %if.then78
	movl	$0, terminate_macroblock.skip
.LBB5_27:                               # %if.end79
	jmp	.LBB5_28
.LBB5_28:                               # %if.end80
	cmpl	$0, -68(%rbp)
	je	.LBB5_33
# %bb.29:                               # %land.lhs.true82
	movl	-36(%rbp), %edi
	callq	slice_too_big
	cmpl	$0, %eax
	je	.LBB5_33
# %bb.30:                               # %if.then85
	movq	-64(%rbp), %rax
	movl	$1, (%rax)
	movq	img, %rax
	cmpl	$0, 120(%rax)
	jne	.LBB5_32
# %bb.31:                               # %if.then88
	movl	$0, terminate_macroblock.skip
.LBB5_32:                               # %if.end89
	jmp	.LBB5_33
.LBB5_33:                               # %if.end90
	movq	-80(%rbp), %rax
	cmpl	$0, (%rax)
	jne	.LBB5_35
# %bb.34:                               # %if.then92
	movq	-56(%rbp), %rax
	movl	20(%rax), %ecx
	addl	$1, %ecx
	movl	%ecx, 20(%rax)
.LBB5_35:                               # %if.end95
	jmp	.LBB5_46
.LBB5_36:                               # %sw.bb96
	movq	img, %rax
	cmpl	$0, 12(%rax)
	jle	.LBB5_41
# %bb.37:                               # %land.lhs.true100
	cmpl	$0, -68(%rbp)
	jne	.LBB5_41
# %bb.38:                               # %if.then102
	movq	-56(%rbp), %rax
	movq	120(%rax), %rax
	movl	-36(%rbp), %edi
	callq	*%rax
	cmpl	$0, %eax
	je	.LBB5_40
# %bb.39:                               # %if.then105
	movq	-80(%rbp), %rax
	movl	$1, (%rax)
	movq	-64(%rbp), %rax
	movl	$1, (%rax)
.LBB5_40:                               # %if.end106
	jmp	.LBB5_41
.LBB5_41:                               # %if.end107
	movq	-80(%rbp), %rax
	cmpl	$0, (%rax)
	jne	.LBB5_44
# %bb.42:                               # %land.lhs.true110
	movq	img, %rax
	movl	12(%rax), %ebx
	movq	img, %rax
	movl	12(%rax), %edi
	callq	FmoMB2SliceGroup
	movl	%eax, %edi
	callq	FmoGetLastCodedMBOfSliceGroup
	cmpl	%eax, %ebx
	jne	.LBB5_44
# %bb.43:                               # %if.then117
	movq	-64(%rbp), %rax
	movl	$1, (%rax)
.LBB5_44:                               # %if.end118
	jmp	.LBB5_46
.LBB5_45:                               # %sw.default
	movq	input, %rax
	movl	208(%rax), %ecx
	movabsq	$errortext, %rdi
	movl	$300, %esi              # imm = 0x12C
	movabsq	$.L.str, %rdx
	movb	$0, %al
	callq	snprintf
	movabsq	$errortext, %rdi
	movl	$600, %esi              # imm = 0x258
	callq	error
.LBB5_46:                               # %sw.epilog
	movq	-80(%rbp), %rax
	cmpl	$1, (%rax)
	jne	.LBB5_54
# %bb.47:                               # %if.then123
	movl	$0, -84(%rbp)
.LBB5_48:                               # %for.cond
                                        # =>This Inner Loop Header: Depth=1
	movl	-84(%rbp), %eax
	movq	-56(%rbp), %rcx
	cmpl	16(%rcx), %eax
	jge	.LBB5_53
# %bb.49:                               # %for.body
                                        #   in Loop: Header=BB5_48 Depth=1
	movq	-56(%rbp), %rax
	movq	24(%rax), %rax
	movslq	-84(%rbp), %rcx
	imulq	$120, %rcx, %rcx
	addq	%rcx, %rax
	movq	%rax, -48(%rbp)
	movq	-48(%rbp), %rax
	movq	(%rax), %rax
	movq	%rax, -16(%rbp)
	movq	-16(%rbp), %rax
	movl	16(%rax), %eax
	movq	-16(%rbp), %rcx
	movl	%eax, 4(%rcx)
	movq	-16(%rbp), %rax
	movl	12(%rax), %eax
	movq	-16(%rbp), %rcx
	movl	%eax, (%rcx)
	movq	-16(%rbp), %rax
	movb	20(%rax), %al
	movq	-16(%rbp), %rcx
	movb	%al, 8(%rcx)
	movq	input, %rax
	cmpl	$1, 2356(%rax)
	jne	.LBB5_51
# %bb.50:                               # %if.then138
                                        #   in Loop: Header=BB5_48 Depth=1
	movq	-48(%rbp), %rax
	addq	$8, %rax
	movq	%rax, -32(%rbp)
	movq	-32(%rbp), %rax
	movl	40(%rax), %eax
	movq	-32(%rbp), %rcx
	movl	%eax, (%rcx)
	movq	-32(%rbp), %rax
	movl	44(%rax), %eax
	movq	-32(%rbp), %rcx
	movl	%eax, 4(%rcx)
	movq	-32(%rbp), %rax
	movl	48(%rax), %eax
	movq	-32(%rbp), %rcx
	movl	%eax, 8(%rcx)
	movq	-32(%rbp), %rax
	movl	52(%rax), %eax
	movq	-32(%rbp), %rcx
	movl	%eax, 12(%rcx)
	movq	-32(%rbp), %rax
	movl	56(%rax), %eax
	movq	-32(%rbp), %rcx
	movl	%eax, 16(%rcx)
	movq	-32(%rbp), %rax
	movq	64(%rax), %rax
	movq	-32(%rbp), %rcx
	movq	%rax, 24(%rcx)
	movq	-32(%rbp), %rax
	movq	72(%rax), %rax
	movq	-32(%rbp), %rcx
	movq	%rax, 32(%rcx)
	movq	-32(%rbp), %rax
	movl	84(%rax), %eax
	movq	-32(%rbp), %rcx
	movl	%eax, 80(%rcx)
	movq	-32(%rbp), %rax
	movl	100(%rax), %eax
	movq	-32(%rbp), %rcx
	movl	%eax, 96(%rcx)
	movq	-32(%rbp), %rax
	movl	92(%rax), %eax
	movq	-32(%rbp), %rcx
	movl	%eax, 88(%rcx)
.LBB5_51:                               # %if.end139
                                        #   in Loop: Header=BB5_48 Depth=1
	jmp	.LBB5_52
.LBB5_52:                               # %for.inc
                                        #   in Loop: Header=BB5_48 Depth=1
	movl	-84(%rbp), %eax
	addl	$1, %eax
	movl	%eax, -84(%rbp)
	jmp	.LBB5_48
.LBB5_53:                               # %for.end
	jmp	.LBB5_54
.LBB5_54:                               # %if.end141
	movq	-64(%rbp), %rax
	cmpl	$1, (%rax)
	jne	.LBB5_63
# %bb.55:                               # %land.lhs.true144
	cmpl	$1, terminate_macroblock.skip
	jne	.LBB5_63
# %bb.56:                               # %if.then147
	movq	img, %rax
	cmpl	$0, 120(%rax)
	je	.LBB5_61
# %bb.57:                               # %land.lhs.true150
	movq	-80(%rbp), %rax
	cmpl	$1, (%rax)
	jne	.LBB5_61
# %bb.58:                               # %if.then153
	movq	img, %rax
	movl	120(%rax), %ecx
	addl	$-1, %ecx
	movl	%ecx, 120(%rax)
	movq	img, %rax
	cmpl	$0, 120(%rax)
	je	.LBB5_60
# %bb.59:                               # %if.then157
	movq	img, %rax
	movl	120(%rax), %eax
	movq	-24(%rbp), %rcx
	movl	%eax, 4(%rcx)
	movq	-24(%rbp), %rax
	movl	$0, 8(%rax)
	movq	-24(%rbp), %rax
	movabsq	$ue_linfo, %rcx
	movq	%rcx, 32(%rax)
	movq	-24(%rbp), %rax
	movl	$2, (%rax)
	movq	-56(%rbp), %rax
	movq	24(%rax), %rax
	movq	-96(%rbp), %rcx
	movq	-24(%rbp), %rdx
	movslq	(%rdx), %rdx
	movslq	(%rcx,%rdx,4), %rcx
	imulq	$120, %rcx, %rcx
	addq	%rcx, %rax
	movq	%rax, -48(%rbp)
	movq	-48(%rbp), %rax
	movq	112(%rax), %rax
	movq	-24(%rbp), %rdi
	movq	-48(%rbp), %rsi
	callq	*%rax
	movq	-24(%rbp), %rax
	movl	12(%rax), %eax
	movl	%eax, -36(%rbp)
	movl	-36(%rbp), %eax
	movq	-104(%rbp), %rcx
	addl	28(%rcx), %eax
	movl	%eax, 28(%rcx)
	movq	img, %rax
	movl	$0, 120(%rax)
.LBB5_60:                               # %if.end174
	jmp	.LBB5_62
.LBB5_61:                               # %if.else175
	movq	-56(%rbp), %rax
	movq	24(%rax), %rax
	movq	-96(%rbp), %rcx
	movslq	8(%rcx), %rcx
	imulq	$120, %rcx, %rcx
	addq	%rcx, %rax
	movq	%rax, -48(%rbp)
	movq	-48(%rbp), %rax
	movq	(%rax), %rax
	movq	%rax, -16(%rbp)
	movq	-16(%rbp), %rax
	movl	28(%rax), %eax
	movq	-16(%rbp), %rcx
	movl	%eax, 4(%rcx)
	movq	-16(%rbp), %rax
	movl	24(%rax), %eax
	movq	-16(%rbp), %rcx
	movl	%eax, (%rcx)
	movq	-16(%rbp), %rax
	movb	21(%rax), %al
	movq	-16(%rbp), %rcx
	movb	%al, 8(%rcx)
	movq	img, %rax
	movl	$0, 120(%rax)
	movl	$0, terminate_macroblock.skip
.LBB5_62:                               # %if.end188
	jmp	.LBB5_63
.LBB5_63:                               # %if.end189
	movq	-64(%rbp), %rax
	cmpl	$1, (%rax)
	jne	.LBB5_67
# %bb.64:                               # %land.lhs.true192
	movq	img, %rax
	cmpl	$0, 120(%rax)
	je	.LBB5_67
# %bb.65:                               # %land.lhs.true195
	cmpl	$0, -108(%rbp)
	jne	.LBB5_67
# %bb.66:                               # %if.then197
	movq	img, %rax
	movl	120(%rax), %eax
	movq	-24(%rbp), %rcx
	movl	%eax, 4(%rcx)
	movq	-24(%rbp), %rax
	movl	$0, 8(%rax)
	movq	-24(%rbp), %rax
	movabsq	$ue_linfo, %rcx
	movq	%rcx, 32(%rax)
	movq	-24(%rbp), %rax
	movl	$2, (%rax)
	movq	-56(%rbp), %rax
	movq	24(%rax), %rax
	movq	-96(%rbp), %rcx
	movq	-24(%rbp), %rdx
	movslq	(%rdx), %rdx
	movslq	(%rcx,%rdx,4), %rcx
	imulq	$120, %rcx, %rcx
	addq	%rcx, %rax
	movq	%rax, -48(%rbp)
	movq	-48(%rbp), %rax
	movq	112(%rax), %rax
	movq	-24(%rbp), %rdi
	movq	-48(%rbp), %rsi
	callq	*%rax
	movq	-104(%rbp), %rax
	movl	(%rax), %ecx
	addl	$1, %ecx
	movl	%ecx, (%rax)
	movq	-24(%rbp), %rax
	movl	12(%rax), %eax
	movl	%eax, -36(%rbp)
	movl	-36(%rbp), %eax
	movq	-104(%rbp), %rcx
	addl	28(%rcx), %eax
	movl	%eax, 28(%rcx)
	movq	img, %rax
	movl	$0, 120(%rax)
.LBB5_67:                               # %if.end218
	addq	$104, %rsp
	popq	%rbx
	popq	%rbp
	.cfi_def_cfa %rsp, 8
	retq
.Lfunc_end5:
	.size	terminate_macroblock, .Lfunc_end5-terminate_macroblock
	.cfi_endproc
	.section	.rodata,"a",@progbits
	.p2align	3
.LJTI5_0:
	.quad	.LBB5_10
	.quad	.LBB5_13
	.quad	.LBB5_14
	.quad	.LBB5_36
                                        # -- End function
	.text
	.globl	slice_too_big           # -- Begin function slice_too_big
	.p2align	4, 0x90
	.type	slice_too_big,@function
slice_too_big:                          # @slice_too_big
	.cfi_startproc
# %bb.0:                                # %entry
	pushq	%rbp
	.cfi_def_cfa_offset 16
	.cfi_offset %rbp, -16
	movq	%rsp, %rbp
	.cfi_def_cfa_register %rbp
	subq	$64, %rsp
	movl	%edi, -44(%rbp)
	movq	img, %rax
	movq	14160(%rax), %rax
	movq	%rax, -24(%rbp)
	movq	input, %rax
	cmpl	$0, 2356(%rax)
	jne	.LBB6_12
# %bb.1:                                # %if.then
	movl	$0, -4(%rbp)
.LBB6_2:                                # %for.cond
                                        # =>This Inner Loop Header: Depth=1
	movl	-4(%rbp), %eax
	movq	-24(%rbp), %rcx
	cmpl	16(%rcx), %eax
	jge	.LBB6_11
# %bb.3:                                # %for.body
                                        #   in Loop: Header=BB6_2 Depth=1
	movq	-24(%rbp), %rax
	movq	24(%rax), %rax
	movslq	-4(%rbp), %rcx
	imulq	$120, %rcx, %rcx
	addq	%rcx, %rax
	movq	%rax, -40(%rbp)
	movq	-40(%rbp), %rax
	movq	(%rax), %rax
	movq	%rax, -32(%rbp)
	movq	-32(%rbp), %rax
	movl	(%rax), %eax
	movl	%eax, -8(%rbp)
	movq	-32(%rbp), %rax
	cmpl	$8, 4(%rax)
	jge	.LBB6_5
# %bb.4:                                # %if.then3
                                        #   in Loop: Header=BB6_2 Depth=1
	movl	-8(%rbp), %eax
	addl	$1, %eax
	movl	%eax, -8(%rbp)
.LBB6_5:                                # %if.end
                                        #   in Loop: Header=BB6_2 Depth=1
	movq	-32(%rbp), %rax
	movl	4(%rax), %eax
	cmpl	-44(%rbp), %eax
	jge	.LBB6_7
# %bb.6:                                # %if.then6
                                        #   in Loop: Header=BB6_2 Depth=1
	movl	-8(%rbp), %eax
	addl	$1, %eax
	movl	%eax, -8(%rbp)
.LBB6_7:                                # %if.end8
                                        #   in Loop: Header=BB6_2 Depth=1
	movl	-8(%rbp), %eax
	movq	input, %rcx
	cmpl	212(%rcx), %eax
	jle	.LBB6_9
# %bb.8:                                # %if.then10
	movl	$1, -12(%rbp)
	jmp	.LBB6_21
.LBB6_9:                                # %if.end11
                                        #   in Loop: Header=BB6_2 Depth=1
	jmp	.LBB6_10
.LBB6_10:                               # %for.inc
                                        #   in Loop: Header=BB6_2 Depth=1
	movl	-4(%rbp), %eax
	addl	$1, %eax
	movl	%eax, -4(%rbp)
	jmp	.LBB6_2
.LBB6_11:                               # %for.end
	jmp	.LBB6_12
.LBB6_12:                               # %if.end13
	movq	input, %rax
	cmpl	$1, 2356(%rax)
	jne	.LBB6_20
# %bb.13:                               # %if.then16
	movl	$0, -4(%rbp)
.LBB6_14:                               # %for.cond17
                                        # =>This Inner Loop Header: Depth=1
	movl	-4(%rbp), %eax
	movq	-24(%rbp), %rcx
	cmpl	16(%rcx), %eax
	jge	.LBB6_19
# %bb.15:                               # %for.body20
                                        #   in Loop: Header=BB6_14 Depth=1
	movq	-24(%rbp), %rax
	movq	24(%rax), %rax
	movslq	-4(%rbp), %rcx
	imulq	$120, %rcx, %rcx
	addq	%rcx, %rax
	movq	%rax, -40(%rbp)
	movq	-40(%rbp), %rax
	addq	$8, %rax
	movq	%rax, -56(%rbp)
	movq	-56(%rbp), %rdi
	callq	arienco_bits_written
	movq	input, %rcx
	movl	212(%rcx), %ecx
	shll	$3, %ecx
	cmpl	%ecx, %eax
	jle	.LBB6_17
# %bb.16:                               # %if.then26
	movl	$1, -12(%rbp)
	jmp	.LBB6_21
.LBB6_17:                               # %if.end27
                                        #   in Loop: Header=BB6_14 Depth=1
	jmp	.LBB6_18
.LBB6_18:                               # %for.inc28
                                        #   in Loop: Header=BB6_14 Depth=1
	movl	-4(%rbp), %eax
	addl	$1, %eax
	movl	%eax, -4(%rbp)
	jmp	.LBB6_14
.LBB6_19:                               # %for.end30
	jmp	.LBB6_20
.LBB6_20:                               # %if.end31
	movl	$0, -12(%rbp)
.LBB6_21:                               # %return
	movl	-12(%rbp), %eax
	addq	$64, %rsp
	popq	%rbp
	.cfi_def_cfa %rsp, 8
	retq
.Lfunc_end6:
	.size	slice_too_big, .Lfunc_end6-slice_too_big
	.cfi_endproc
                                        # -- End function
	.globl	OneComponentLumaPrediction4x4 # -- Begin function OneComponentLumaPrediction4x4
	.p2align	4, 0x90
	.type	OneComponentLumaPrediction4x4,@function
OneComponentLumaPrediction4x4:          # @OneComponentLumaPrediction4x4
	.cfi_startproc
# %bb.0:                                # %entry
	pushq	%rbp
	.cfi_def_cfa_offset 16
	.cfi_offset %rbp, -16
	movq	%rsp, %rbp
	.cfi_def_cfa_register %rbp
	subq	$96, %rsp
	movq	%rdi, -16(%rbp)
	movl	%esi, -88(%rbp)
	movl	%edx, -84(%rbp)
	movq	%rcx, -96(%rbp)
	movw	%r8w, -34(%rbp)
	movq	%r9, -80(%rbp)
	movl	$4, -40(%rbp)
	movl	-84(%rbp), %eax
	shll	$2, %eax
	movq	-96(%rbp), %rcx
	movswl	2(%rcx), %ecx
	addl	%ecx, %eax
	movl	%eax, -64(%rbp)
	movl	-64(%rbp), %eax
	addl	-40(%rbp), %eax
	movl	%eax, -60(%rbp)
	movl	-60(%rbp), %eax
	addl	-40(%rbp), %eax
	movl	%eax, -56(%rbp)
	movl	-56(%rbp), %eax
	addl	-40(%rbp), %eax
	movl	%eax, -72(%rbp)
	movl	-88(%rbp), %eax
	shll	$2, %eax
	movq	-96(%rbp), %rcx
	movswl	(%rcx), %ecx
	addl	%ecx, %eax
	movl	%eax, -52(%rbp)
	movl	-52(%rbp), %eax
	addl	-40(%rbp), %eax
	movl	%eax, -48(%rbp)
	movl	-48(%rbp), %eax
	addl	-40(%rbp), %eax
	movl	%eax, -44(%rbp)
	movl	-44(%rbp), %eax
	addl	-40(%rbp), %eax
	movl	%eax, -68(%rbp)
	movabsq	$UMVPelY_14, %rax
	movq	%rax, -24(%rbp)
	movq	-80(%rbp), %rax
	movswq	-34(%rbp), %rcx
	movq	(%rax,%rcx,8), %rax
	movl	6392(%rax), %eax
	movl	%eax, -8(%rbp)
	movq	-80(%rbp), %rax
	movswq	-34(%rbp), %rcx
	movq	(%rax,%rcx,8), %rax
	movl	6396(%rax), %eax
	movl	%eax, -4(%rbp)
	movq	-80(%rbp), %rax
	movswq	-34(%rbp), %rcx
	movq	(%rax,%rcx,8), %rax
	movq	6448(%rax), %rax
	movq	%rax, -32(%rbp)
	movq	-24(%rbp), %rax
	movq	-32(%rbp), %rdi
	movl	-64(%rbp), %esi
	movl	-52(%rbp), %edx
	movl	-4(%rbp), %ecx
	movl	-8(%rbp), %r8d
	callq	*%rax
	movzwl	%ax, %eax
	movq	-16(%rbp), %rcx
	movq	%rcx, %rdx
	addq	$4, %rdx
	movq	%rdx, -16(%rbp)
	movl	%eax, (%rcx)
	movq	-24(%rbp), %rax
	movq	-32(%rbp), %rdi
	movl	-64(%rbp), %esi
	movl	-48(%rbp), %edx
	movl	-4(%rbp), %ecx
	movl	-8(%rbp), %r8d
	callq	*%rax
	movzwl	%ax, %eax
	movq	-16(%rbp), %rcx
	movq	%rcx, %rdx
	addq	$4, %rdx
	movq	%rdx, -16(%rbp)
	movl	%eax, (%rcx)
	movq	-24(%rbp), %rax
	movq	-32(%rbp), %rdi
	movl	-64(%rbp), %esi
	movl	-44(%rbp), %edx
	movl	-4(%rbp), %ecx
	movl	-8(%rbp), %r8d
	callq	*%rax
	movzwl	%ax, %eax
	movq	-16(%rbp), %rcx
	movq	%rcx, %rdx
	addq	$4, %rdx
	movq	%rdx, -16(%rbp)
	movl	%eax, (%rcx)
	movq	-24(%rbp), %rax
	movq	-32(%rbp), %rdi
	movl	-64(%rbp), %esi
	movl	-68(%rbp), %edx
	movl	-4(%rbp), %ecx
	movl	-8(%rbp), %r8d
	callq	*%rax
	movzwl	%ax, %eax
	movq	-16(%rbp), %rcx
	movq	%rcx, %rdx
	addq	$4, %rdx
	movq	%rdx, -16(%rbp)
	movl	%eax, (%rcx)
	movq	-24(%rbp), %rax
	movq	-32(%rbp), %rdi
	movl	-60(%rbp), %esi
	movl	-52(%rbp), %edx
	movl	-4(%rbp), %ecx
	movl	-8(%rbp), %r8d
	callq	*%rax
	movzwl	%ax, %eax
	movq	-16(%rbp), %rcx
	movq	%rcx, %rdx
	addq	$4, %rdx
	movq	%rdx, -16(%rbp)
	movl	%eax, (%rcx)
	movq	-24(%rbp), %rax
	movq	-32(%rbp), %rdi
	movl	-60(%rbp), %esi
	movl	-48(%rbp), %edx
	movl	-4(%rbp), %ecx
	movl	-8(%rbp), %r8d
	callq	*%rax
	movzwl	%ax, %eax
	movq	-16(%rbp), %rcx
	movq	%rcx, %rdx
	addq	$4, %rdx
	movq	%rdx, -16(%rbp)
	movl	%eax, (%rcx)
	movq	-24(%rbp), %rax
	movq	-32(%rbp), %rdi
	movl	-60(%rbp), %esi
	movl	-44(%rbp), %edx
	movl	-4(%rbp), %ecx
	movl	-8(%rbp), %r8d
	callq	*%rax
	movzwl	%ax, %eax
	movq	-16(%rbp), %rcx
	movq	%rcx, %rdx
	addq	$4, %rdx
	movq	%rdx, -16(%rbp)
	movl	%eax, (%rcx)
	movq	-24(%rbp), %rax
	movq	-32(%rbp), %rdi
	movl	-60(%rbp), %esi
	movl	-68(%rbp), %edx
	movl	-4(%rbp), %ecx
	movl	-8(%rbp), %r8d
	callq	*%rax
	movzwl	%ax, %eax
	movq	-16(%rbp), %rcx
	movq	%rcx, %rdx
	addq	$4, %rdx
	movq	%rdx, -16(%rbp)
	movl	%eax, (%rcx)
	movq	-24(%rbp), %rax
	movq	-32(%rbp), %rdi
	movl	-56(%rbp), %esi
	movl	-52(%rbp), %edx
	movl	-4(%rbp), %ecx
	movl	-8(%rbp), %r8d
	callq	*%rax
	movzwl	%ax, %eax
	movq	-16(%rbp), %rcx
	movq	%rcx, %rdx
	addq	$4, %rdx
	movq	%rdx, -16(%rbp)
	movl	%eax, (%rcx)
	movq	-24(%rbp), %rax
	movq	-32(%rbp), %rdi
	movl	-56(%rbp), %esi
	movl	-48(%rbp), %edx
	movl	-4(%rbp), %ecx
	movl	-8(%rbp), %r8d
	callq	*%rax
	movzwl	%ax, %eax
	movq	-16(%rbp), %rcx
	movq	%rcx, %rdx
	addq	$4, %rdx
	movq	%rdx, -16(%rbp)
	movl	%eax, (%rcx)
	movq	-24(%rbp), %rax
	movq	-32(%rbp), %rdi
	movl	-56(%rbp), %esi
	movl	-44(%rbp), %edx
	movl	-4(%rbp), %ecx
	movl	-8(%rbp), %r8d
	callq	*%rax
	movzwl	%ax, %eax
	movq	-16(%rbp), %rcx
	movq	%rcx, %rdx
	addq	$4, %rdx
	movq	%rdx, -16(%rbp)
	movl	%eax, (%rcx)
	movq	-24(%rbp), %rax
	movq	-32(%rbp), %rdi
	movl	-56(%rbp), %esi
	movl	-68(%rbp), %edx
	movl	-4(%rbp), %ecx
	movl	-8(%rbp), %r8d
	callq	*%rax
	movzwl	%ax, %eax
	movq	-16(%rbp), %rcx
	movq	%rcx, %rdx
	addq	$4, %rdx
	movq	%rdx, -16(%rbp)
	movl	%eax, (%rcx)
	movq	-24(%rbp), %rax
	movq	-32(%rbp), %rdi
	movl	-72(%rbp), %esi
	movl	-52(%rbp), %edx
	movl	-4(%rbp), %ecx
	movl	-8(%rbp), %r8d
	callq	*%rax
	movzwl	%ax, %eax
	movq	-16(%rbp), %rcx
	movq	%rcx, %rdx
	addq	$4, %rdx
	movq	%rdx, -16(%rbp)
	movl	%eax, (%rcx)
	movq	-24(%rbp), %rax
	movq	-32(%rbp), %rdi
	movl	-72(%rbp), %esi
	movl	-48(%rbp), %edx
	movl	-4(%rbp), %ecx
	movl	-8(%rbp), %r8d
	callq	*%rax
	movzwl	%ax, %eax
	movq	-16(%rbp), %rcx
	movq	%rcx, %rdx
	addq	$4, %rdx
	movq	%rdx, -16(%rbp)
	movl	%eax, (%rcx)
	movq	-24(%rbp), %rax
	movq	-32(%rbp), %rdi
	movl	-72(%rbp), %esi
	movl	-44(%rbp), %edx
	movl	-4(%rbp), %ecx
	movl	-8(%rbp), %r8d
	callq	*%rax
	movzwl	%ax, %eax
	movq	-16(%rbp), %rcx
	movq	%rcx, %rdx
	addq	$4, %rdx
	movq	%rdx, -16(%rbp)
	movl	%eax, (%rcx)
	movq	-24(%rbp), %rax
	movq	-32(%rbp), %rdi
	movl	-72(%rbp), %esi
	movl	-68(%rbp), %edx
	movl	-4(%rbp), %ecx
	movl	-8(%rbp), %r8d
	callq	*%rax
	movzwl	%ax, %eax
	movq	-16(%rbp), %rcx
	movq	%rcx, %rdx
	addq	$4, %rdx
	movq	%rdx, -16(%rbp)
	movl	%eax, (%rcx)
	addq	$96, %rsp
	popq	%rbp
	.cfi_def_cfa %rsp, 8
	retq
.Lfunc_end7:
	.size	OneComponentLumaPrediction4x4, .Lfunc_end7-OneComponentLumaPrediction4x4
	.cfi_endproc
                                        # -- End function
	.globl	copyblock4x4            # -- Begin function copyblock4x4
	.p2align	4, 0x90
	.type	copyblock4x4,@function
copyblock4x4:                           # @copyblock4x4
	.cfi_startproc
# %bb.0:                                # %entry
	pushq	%rbp
	.cfi_def_cfa_offset 16
	.cfi_offset %rbp, -16
	movq	%rsp, %rbp
	.cfi_def_cfa_register %rbp
	movq	%rdi, -8(%rbp)
	movq	%rsi, -16(%rbp)
	movq	-16(%rbp), %rax
	movl	(%rax), %eax
	movq	-8(%rbp), %rcx
	movq	%rcx, %rdx
	addq	$4, %rdx
	movq	%rdx, -8(%rbp)
	movl	%eax, (%rcx)
	movq	-16(%rbp), %rax
	movl	16(%rax), %eax
	movq	-8(%rbp), %rcx
	movq	%rcx, %rdx
	addq	$4, %rdx
	movq	%rdx, -8(%rbp)
	movl	%eax, (%rcx)
	movq	-16(%rbp), %rax
	movl	32(%rax), %eax
	movq	-8(%rbp), %rcx
	movq	%rcx, %rdx
	addq	$4, %rdx
	movq	%rdx, -8(%rbp)
	movl	%eax, (%rcx)
	movq	-16(%rbp), %rax
	movl	48(%rax), %eax
	movq	-8(%rbp), %rcx
	movq	%rcx, %rdx
	addq	$4, %rdx
	movq	%rdx, -8(%rbp)
	movl	%eax, (%rcx)
	movq	-16(%rbp), %rax
	movl	4(%rax), %eax
	movq	-8(%rbp), %rcx
	movq	%rcx, %rdx
	addq	$4, %rdx
	movq	%rdx, -8(%rbp)
	movl	%eax, (%rcx)
	movq	-16(%rbp), %rax
	movl	20(%rax), %eax
	movq	-8(%rbp), %rcx
	movq	%rcx, %rdx
	addq	$4, %rdx
	movq	%rdx, -8(%rbp)
	movl	%eax, (%rcx)
	movq	-16(%rbp), %rax
	movl	36(%rax), %eax
	movq	-8(%rbp), %rcx
	movq	%rcx, %rdx
	addq	$4, %rdx
	movq	%rdx, -8(%rbp)
	movl	%eax, (%rcx)
	movq	-16(%rbp), %rax
	movl	52(%rax), %eax
	movq	-8(%rbp), %rcx
	movq	%rcx, %rdx
	addq	$4, %rdx
	movq	%rdx, -8(%rbp)
	movl	%eax, (%rcx)
	movq	-16(%rbp), %rax
	movl	8(%rax), %eax
	movq	-8(%rbp), %rcx
	movq	%rcx, %rdx
	addq	$4, %rdx
	movq	%rdx, -8(%rbp)
	movl	%eax, (%rcx)
	movq	-16(%rbp), %rax
	movl	24(%rax), %eax
	movq	-8(%rbp), %rcx
	movq	%rcx, %rdx
	addq	$4, %rdx
	movq	%rdx, -8(%rbp)
	movl	%eax, (%rcx)
	movq	-16(%rbp), %rax
	movl	40(%rax), %eax
	movq	-8(%rbp), %rcx
	movq	%rcx, %rdx
	addq	$4, %rdx
	movq	%rdx, -8(%rbp)
	movl	%eax, (%rcx)
	movq	-16(%rbp), %rax
	movl	56(%rax), %eax
	movq	-8(%rbp), %rcx
	movq	%rcx, %rdx
	addq	$4, %rdx
	movq	%rdx, -8(%rbp)
	movl	%eax, (%rcx)
	movq	-16(%rbp), %rax
	movl	12(%rax), %eax
	movq	-8(%rbp), %rcx
	movq	%rcx, %rdx
	addq	$4, %rdx
	movq	%rdx, -8(%rbp)
	movl	%eax, (%rcx)
	movq	-16(%rbp), %rax
	movl	28(%rax), %eax
	movq	-8(%rbp), %rcx
	movq	%rcx, %rdx
	addq	$4, %rdx
	movq	%rdx, -8(%rbp)
	movl	%eax, (%rcx)
	movq	-16(%rbp), %rax
	movl	44(%rax), %eax
	movq	-8(%rbp), %rcx
	movq	%rcx, %rdx
	addq	$4, %rdx
	movq	%rdx, -8(%rbp)
	movl	%eax, (%rcx)
	movq	-16(%rbp), %rax
	movl	60(%rax), %eax
	movq	-8(%rbp), %rcx
	movq	%rcx, %rdx
	addq	$4, %rdx
	movq	%rdx, -8(%rbp)
	movl	%eax, (%rcx)
	popq	%rbp
	.cfi_def_cfa %rsp, 8
	retq
.Lfunc_end8:
	.size	copyblock4x4, .Lfunc_end8-copyblock4x4
	.cfi_endproc
                                        # -- End function
	.globl	LumaPrediction4x4       # -- Begin function LumaPrediction4x4
	.p2align	4, 0x90
	.type	LumaPrediction4x4,@function
LumaPrediction4x4:                      # @LumaPrediction4x4
	.cfi_startproc
# %bb.0:                                # %entry
	pushq	%rbp
	.cfi_def_cfa_offset 16
	.cfi_offset %rbp, -16
	movq	%rsp, %rbp
	.cfi_def_cfa_register %rbp
	subq	$112, %rsp
	movw	16(%rbp), %ax
	movl	%edi, -24(%rbp)
	movl	%esi, -20(%rbp)
	movl	%edx, -16(%rbp)
	movl	%ecx, -76(%rbp)
	movl	%r8d, -72(%rbp)
	movw	%r9w, -10(%rbp)
	movl	-24(%rbp), %eax
	addl	$4, %eax
	movl	%eax, -32(%rbp)
	movl	-20(%rbp), %eax
	addl	$4, %eax
	movl	%eax, -28(%rbp)
	movq	img, %rax
	movl	168(%rax), %eax
	addl	-24(%rbp), %eax
	movl	%eax, -68(%rbp)
	movq	img, %rax
	movl	172(%rax), %eax
	addl	-20(%rbp), %eax
	movl	%eax, -64(%rbp)
	movl	-24(%rbp), %eax
	sarl	$2, %eax
	movl	%eax, -60(%rbp)
	movl	-20(%rbp), %eax
	sarl	$2, %eax
	movl	%eax, -56(%rbp)
	movabsq	$LumaPrediction4x4.fw_pred, %rax
	movq	%rax, -48(%rbp)
	movabsq	$LumaPrediction4x4.bw_pred, %rax
	movq	%rax, -40(%rbp)
	movq	img, %rax
	movq	14168(%rax), %rax
	movq	img, %rcx
	movslq	12(%rcx), %rcx
	imulq	$632, %rcx, %rcx        # imm = 0x278
	addq	%rcx, %rax
	movq	%rax, -96(%rbp)
	movq	active_pps, %rax
	cmpl	$0, 192(%rax)
	je	.LBB9_3
# %bb.1:                                # %land.lhs.true
	movq	img, %rax
	cmpl	$0, 24(%rax)
	movb	$1, %al
	je	.LBB9_6
# %bb.2:                                # %lor.lhs.false
	movq	img, %rax
	cmpl	$3, 24(%rax)
	movb	$1, %al
	je	.LBB9_6
.LBB9_3:                                # %lor.rhs
	xorl	%eax, %eax
	movq	active_pps, %rcx
	cmpl	$0, 196(%rcx)
	je	.LBB9_5
# %bb.4:                                # %land.rhs
	movq	img, %rax
	cmpl	$1, 24(%rax)
	sete	%al
.LBB9_5:                                # %land.end
.LBB9_6:                                # %lor.end
	andb	$1, %al
	movzbl	%al, %eax
	movl	%eax, -100(%rbp)
	movq	img, %rax
	movq	71928(%rax), %rax
	movq	%rax, -88(%rbp)
	movq	img, %rax
	cmpl	$0, 72400(%rax)
	je	.LBB9_9
# %bb.7:                                # %land.lhs.true11
	movq	-96(%rbp), %rax
	cmpl	$0, 532(%rax)
	je	.LBB9_9
# %bb.8:                                # %cond.true
	movq	img, %rax
	movl	12(%rax), %eax
	cltd
	movl	$2, %ecx
	idivl	%ecx
	cmpl	$0, %edx
	movl	$4, %eax
	cmovnel	%eax, %ecx
	jmp	.LBB9_10
.LBB9_9:                                # %cond.false
	xorl	%ecx, %ecx
	jmp	.LBB9_10
.LBB9_10:                               # %cond.end
	movl	%ecx, -52(%rbp)
	movq	-96(%rbp), %rax
	cmpl	$0, 580(%rax)
	je	.LBB9_20
# %bb.11:                               # %land.lhs.true17
	movswl	-10(%rbp), %eax
	cmpl	$0, %eax
	jne	.LBB9_20
# %bb.12:                               # %land.lhs.true20
	movswl	16(%rbp), %eax
	cmpl	$0, %eax
	jne	.LBB9_20
# %bb.13:                               # %land.lhs.true24
	cmpl	$2, -16(%rbp)
	jne	.LBB9_20
# %bb.14:                               # %land.lhs.true27
	cmpl	$1, -76(%rbp)
	jne	.LBB9_20
# %bb.15:                               # %land.lhs.true30
	cmpl	$1, -72(%rbp)
	jne	.LBB9_20
# %bb.16:                               # %if.then
	movq	-96(%rbp), %rax
	cmpl	$1, 580(%rax)
	jne	.LBB9_18
# %bb.17:                               # %cond.true36
	movq	img, %rax
	movq	71936(%rax), %rax
	jmp	.LBB9_19
.LBB9_18:                               # %cond.false37
	movq	img, %rax
	movq	71944(%rax), %rax
.LBB9_19:                               # %cond.end38
	movq	%rax, -88(%rbp)
.LBB9_20:                               # %if.end
	cmpl	$0, -16(%rbp)
	je	.LBB9_22
# %bb.21:                               # %lor.lhs.false42
	cmpl	$2, -16(%rbp)
	jne	.LBB9_23
.LBB9_22:                               # %if.then45
	movl	-68(%rbp), %esi
	movl	-64(%rbp), %edx
	movq	-88(%rbp), %rax
	movslq	-60(%rbp), %rcx
	movq	(%rax,%rcx,8), %rax
	movslq	-56(%rbp), %rcx
	movq	(%rax,%rcx,8), %rax
	movq	(%rax), %rax
	movswq	-10(%rbp), %rcx
	movq	(%rax,%rcx,8), %rax
	movslq	-76(%rbp), %rcx
	movq	(%rax,%rcx,8), %rcx
	movw	-10(%rbp), %ax
	movl	-52(%rbp), %edi
	addl	$0, %edi
	movslq	%edi, %rdi
	movq	listX(,%rdi,8), %r9
	movabsq	$LumaPrediction4x4.fw_pred, %rdi
	movswl	%ax, %r8d
	callq	OneComponentLumaPrediction4x4
.LBB9_23:                               # %if.end58
	cmpl	$1, -16(%rbp)
	je	.LBB9_25
# %bb.24:                               # %lor.lhs.false61
	cmpl	$2, -16(%rbp)
	jne	.LBB9_26
.LBB9_25:                               # %if.then64
	movl	-68(%rbp), %esi
	movl	-64(%rbp), %edx
	movq	-88(%rbp), %rax
	movslq	-60(%rbp), %rcx
	movq	(%rax,%rcx,8), %rax
	movslq	-56(%rbp), %rcx
	movq	(%rax,%rcx,8), %rax
	movq	8(%rax), %rax
	movswq	16(%rbp), %rcx
	movq	(%rax,%rcx,8), %rax
	movslq	-72(%rbp), %rcx
	movq	(%rax,%rcx,8), %rcx
	movw	16(%rbp), %ax
	movl	-52(%rbp), %edi
	addl	$1, %edi
	movslq	%edi, %rdi
	movq	listX(,%rdi,8), %r9
	movabsq	$LumaPrediction4x4.bw_pred, %rdi
	movswl	%ax, %r8d
	callq	OneComponentLumaPrediction4x4
.LBB9_26:                               # %if.end77
	cmpl	$0, -100(%rbp)
	je	.LBB9_58
# %bb.27:                               # %if.then79
	cmpl	$2, -16(%rbp)
	jne	.LBB9_37
# %bb.28:                               # %if.then82
	movl	-20(%rbp), %eax
	movl	%eax, -4(%rbp)
.LBB9_29:                               # %for.cond
                                        # =>This Loop Header: Depth=1
                                        #     Child Loop BB9_31 Depth 2
	movl	-4(%rbp), %eax
	cmpl	-28(%rbp), %eax
	jge	.LBB9_36
# %bb.30:                               # %for.body
                                        #   in Loop: Header=BB9_29 Depth=1
	movl	-24(%rbp), %eax
	movl	%eax, -8(%rbp)
.LBB9_31:                               # %for.cond85
                                        #   Parent Loop BB9_29 Depth=1
                                        # =>  This Inner Loop Header: Depth=2
	movl	-8(%rbp), %eax
	cmpl	-32(%rbp), %eax
	jge	.LBB9_34
# %bb.32:                               # %for.body88
                                        #   in Loop: Header=BB9_31 Depth=2
	movq	wbp_weight, %rax
	movq	(%rax), %rax
	movswq	-10(%rbp), %rcx
	movq	(%rax,%rcx,8), %rax
	movswq	16(%rbp), %rcx
	movq	(%rax,%rcx,8), %rax
	movl	(%rax), %edi
	movq	-48(%rbp), %rax
	movq	%rax, %rcx
	addq	$4, %rcx
	movq	%rcx, -48(%rbp)
	imull	(%rax), %edi
	movq	wbp_weight, %rax
	movq	8(%rax), %rax
	movswq	-10(%rbp), %rcx
	movq	(%rax,%rcx,8), %rax
	movswq	16(%rbp), %rcx
	movq	(%rax,%rcx,8), %rax
	movl	(%rax), %eax
	movq	-40(%rbp), %rcx
	movq	%rcx, %rdx
	addq	$4, %rdx
	movq	%rdx, -40(%rbp)
	imull	(%rcx), %eax
	addl	%eax, %edi
	movl	wp_luma_round, %eax
	shll	$1, %eax
	addl	%eax, %edi
	movl	luma_log_weight_denom, %ecx
	addl	$1, %ecx
                                        # kill: def $cl killed $ecx
	sarl	%cl, %edi
	movq	wp_offset, %rax
	movq	(%rax), %rax
	movswq	-10(%rbp), %rcx
	movq	(%rax,%rcx,8), %rax
	movl	(%rax), %eax
	movq	wp_offset, %rcx
	movq	8(%rcx), %rcx
	movswq	16(%rbp), %rdx
	movq	(%rcx,%rdx,8), %rcx
	addl	(%rcx), %eax
	addl	$1, %eax
	sarl	$1, %eax
	addl	%eax, %edi
	callq	clip1a
	movq	img, %rcx
	addq	$12600, %rcx            # imm = 0x3138
	movslq	-8(%rbp), %rdx
	shlq	$5, %rdx
	addq	%rdx, %rcx
	movslq	-4(%rbp), %rdx
	movw	%ax, (%rcx,%rdx,2)
# %bb.33:                               # %for.inc
                                        #   in Loop: Header=BB9_31 Depth=2
	movl	-8(%rbp), %eax
	addl	$1, %eax
	movl	%eax, -8(%rbp)
	jmp	.LBB9_31
.LBB9_34:                               # %for.end
                                        #   in Loop: Header=BB9_29 Depth=1
	jmp	.LBB9_35
.LBB9_35:                               # %for.inc125
                                        #   in Loop: Header=BB9_29 Depth=1
	movl	-4(%rbp), %eax
	addl	$1, %eax
	movl	%eax, -4(%rbp)
	jmp	.LBB9_29
.LBB9_36:                               # %for.end127
	jmp	.LBB9_57
.LBB9_37:                               # %if.else
	cmpl	$0, -16(%rbp)
	jne	.LBB9_47
# %bb.38:                               # %if.then130
	movl	-20(%rbp), %eax
	movl	%eax, -4(%rbp)
.LBB9_39:                               # %for.cond131
                                        # =>This Loop Header: Depth=1
                                        #     Child Loop BB9_41 Depth 2
	movl	-4(%rbp), %eax
	cmpl	-28(%rbp), %eax
	jge	.LBB9_46
# %bb.40:                               # %for.body134
                                        #   in Loop: Header=BB9_39 Depth=1
	movl	-24(%rbp), %eax
	movl	%eax, -8(%rbp)
.LBB9_41:                               # %for.cond135
                                        #   Parent Loop BB9_39 Depth=1
                                        # =>  This Inner Loop Header: Depth=2
	movl	-8(%rbp), %eax
	cmpl	-32(%rbp), %eax
	jge	.LBB9_44
# %bb.42:                               # %for.body138
                                        #   in Loop: Header=BB9_41 Depth=2
	movq	wp_weight, %rax
	movq	(%rax), %rax
	movswq	-10(%rbp), %rcx
	movq	(%rax,%rcx,8), %rax
	movl	(%rax), %edi
	movq	-48(%rbp), %rax
	movq	%rax, %rcx
	addq	$4, %rcx
	movq	%rcx, -48(%rbp)
	imull	(%rax), %edi
	addl	wp_luma_round, %edi
	movl	luma_log_weight_denom, %ecx
                                        # kill: def $cl killed $ecx
	sarl	%cl, %edi
	movq	wp_offset, %rax
	movq	(%rax), %rax
	movswq	-10(%rbp), %rcx
	movq	(%rax,%rcx,8), %rax
	addl	(%rax), %edi
	callq	clip1a
	movq	img, %rcx
	addq	$12600, %rcx            # imm = 0x3138
	movslq	-8(%rbp), %rdx
	shlq	$5, %rdx
	addq	%rdx, %rcx
	movslq	-4(%rbp), %rdx
	movw	%ax, (%rcx,%rdx,2)
# %bb.43:                               # %for.inc159
                                        #   in Loop: Header=BB9_41 Depth=2
	movl	-8(%rbp), %eax
	addl	$1, %eax
	movl	%eax, -8(%rbp)
	jmp	.LBB9_41
.LBB9_44:                               # %for.end161
                                        #   in Loop: Header=BB9_39 Depth=1
	jmp	.LBB9_45
.LBB9_45:                               # %for.inc162
                                        #   in Loop: Header=BB9_39 Depth=1
	movl	-4(%rbp), %eax
	addl	$1, %eax
	movl	%eax, -4(%rbp)
	jmp	.LBB9_39
.LBB9_46:                               # %for.end164
	jmp	.LBB9_56
.LBB9_47:                               # %if.else165
	movl	-20(%rbp), %eax
	movl	%eax, -4(%rbp)
.LBB9_48:                               # %for.cond166
                                        # =>This Loop Header: Depth=1
                                        #     Child Loop BB9_50 Depth 2
	movl	-4(%rbp), %eax
	cmpl	-28(%rbp), %eax
	jge	.LBB9_55
# %bb.49:                               # %for.body169
                                        #   in Loop: Header=BB9_48 Depth=1
	movl	-24(%rbp), %eax
	movl	%eax, -8(%rbp)
.LBB9_50:                               # %for.cond170
                                        #   Parent Loop BB9_48 Depth=1
                                        # =>  This Inner Loop Header: Depth=2
	movl	-8(%rbp), %eax
	cmpl	-32(%rbp), %eax
	jge	.LBB9_53
# %bb.51:                               # %for.body173
                                        #   in Loop: Header=BB9_50 Depth=2
	movq	wp_weight, %rax
	movq	8(%rax), %rax
	movswq	16(%rbp), %rcx
	movq	(%rax,%rcx,8), %rax
	movl	(%rax), %edi
	movq	-40(%rbp), %rax
	movq	%rax, %rcx
	addq	$4, %rcx
	movq	%rcx, -40(%rbp)
	imull	(%rax), %edi
	addl	wp_luma_round, %edi
	movl	luma_log_weight_denom, %ecx
                                        # kill: def $cl killed $ecx
	sarl	%cl, %edi
	movq	wp_offset, %rax
	movq	8(%rax), %rax
	movswq	16(%rbp), %rcx
	movq	(%rax,%rcx,8), %rax
	addl	(%rax), %edi
	callq	clip1a
	movq	img, %rcx
	addq	$12600, %rcx            # imm = 0x3138
	movslq	-8(%rbp), %rdx
	shlq	$5, %rdx
	addq	%rdx, %rcx
	movslq	-4(%rbp), %rdx
	movw	%ax, (%rcx,%rdx,2)
# %bb.52:                               # %for.inc194
                                        #   in Loop: Header=BB9_50 Depth=2
	movl	-8(%rbp), %eax
	addl	$1, %eax
	movl	%eax, -8(%rbp)
	jmp	.LBB9_50
.LBB9_53:                               # %for.end196
                                        #   in Loop: Header=BB9_48 Depth=1
	jmp	.LBB9_54
.LBB9_54:                               # %for.inc197
                                        #   in Loop: Header=BB9_48 Depth=1
	movl	-4(%rbp), %eax
	addl	$1, %eax
	movl	%eax, -4(%rbp)
	jmp	.LBB9_48
.LBB9_55:                               # %for.end199
	jmp	.LBB9_56
.LBB9_56:                               # %if.end200
	jmp	.LBB9_57
.LBB9_57:                               # %if.end201
	jmp	.LBB9_89
.LBB9_58:                               # %if.else202
	cmpl	$2, -16(%rbp)
	jne	.LBB9_68
# %bb.59:                               # %if.then205
	movl	-20(%rbp), %eax
	movl	%eax, -4(%rbp)
.LBB9_60:                               # %for.cond206
                                        # =>This Loop Header: Depth=1
                                        #     Child Loop BB9_62 Depth 2
	movl	-4(%rbp), %eax
	cmpl	-28(%rbp), %eax
	jge	.LBB9_67
# %bb.61:                               # %for.body209
                                        #   in Loop: Header=BB9_60 Depth=1
	movl	-24(%rbp), %eax
	movl	%eax, -8(%rbp)
.LBB9_62:                               # %for.cond210
                                        #   Parent Loop BB9_60 Depth=1
                                        # =>  This Inner Loop Header: Depth=2
	movl	-8(%rbp), %eax
	cmpl	-32(%rbp), %eax
	jge	.LBB9_65
# %bb.63:                               # %for.body213
                                        #   in Loop: Header=BB9_62 Depth=2
	movq	-48(%rbp), %rax
	movq	%rax, %rcx
	addq	$4, %rcx
	movq	%rcx, -48(%rbp)
	movl	(%rax), %eax
	movq	-40(%rbp), %rcx
	movq	%rcx, %rdx
	addq	$4, %rdx
	movq	%rdx, -40(%rbp)
	addl	(%rcx), %eax
	addl	$1, %eax
	cltd
	movl	$2, %ecx
	idivl	%ecx
	movq	img, %rcx
	addq	$12600, %rcx            # imm = 0x3138
	movslq	-8(%rbp), %rdx
	shlq	$5, %rdx
	addq	%rdx, %rcx
	movslq	-4(%rbp), %rdx
	movw	%ax, (%rcx,%rdx,2)
# %bb.64:                               # %for.inc224
                                        #   in Loop: Header=BB9_62 Depth=2
	movl	-8(%rbp), %eax
	addl	$1, %eax
	movl	%eax, -8(%rbp)
	jmp	.LBB9_62
.LBB9_65:                               # %for.end226
                                        #   in Loop: Header=BB9_60 Depth=1
	jmp	.LBB9_66
.LBB9_66:                               # %for.inc227
                                        #   in Loop: Header=BB9_60 Depth=1
	movl	-4(%rbp), %eax
	addl	$1, %eax
	movl	%eax, -4(%rbp)
	jmp	.LBB9_60
.LBB9_67:                               # %for.end229
	jmp	.LBB9_88
.LBB9_68:                               # %if.else230
	cmpl	$0, -16(%rbp)
	jne	.LBB9_78
# %bb.69:                               # %if.then233
	movl	-20(%rbp), %eax
	movl	%eax, -4(%rbp)
.LBB9_70:                               # %for.cond234
                                        # =>This Loop Header: Depth=1
                                        #     Child Loop BB9_72 Depth 2
	movl	-4(%rbp), %eax
	cmpl	-28(%rbp), %eax
	jge	.LBB9_77
# %bb.71:                               # %for.body237
                                        #   in Loop: Header=BB9_70 Depth=1
	movl	-24(%rbp), %eax
	movl	%eax, -8(%rbp)
.LBB9_72:                               # %for.cond238
                                        #   Parent Loop BB9_70 Depth=1
                                        # =>  This Inner Loop Header: Depth=2
	movl	-8(%rbp), %eax
	cmpl	-32(%rbp), %eax
	jge	.LBB9_75
# %bb.73:                               # %for.body241
                                        #   in Loop: Header=BB9_72 Depth=2
	movq	-48(%rbp), %rax
	movq	%rax, %rcx
	addq	$4, %rcx
	movq	%rcx, -48(%rbp)
	movl	(%rax), %eax
	movq	img, %rcx
	addq	$12600, %rcx            # imm = 0x3138
	movslq	-8(%rbp), %rdx
	shlq	$5, %rdx
	addq	%rdx, %rcx
	movslq	-4(%rbp), %rdx
	movw	%ax, (%rcx,%rdx,2)
# %bb.74:                               # %for.inc249
                                        #   in Loop: Header=BB9_72 Depth=2
	movl	-8(%rbp), %eax
	addl	$1, %eax
	movl	%eax, -8(%rbp)
	jmp	.LBB9_72
.LBB9_75:                               # %for.end251
                                        #   in Loop: Header=BB9_70 Depth=1
	jmp	.LBB9_76
.LBB9_76:                               # %for.inc252
                                        #   in Loop: Header=BB9_70 Depth=1
	movl	-4(%rbp), %eax
	addl	$1, %eax
	movl	%eax, -4(%rbp)
	jmp	.LBB9_70
.LBB9_77:                               # %for.end254
	jmp	.LBB9_87
.LBB9_78:                               # %if.else255
	movl	-20(%rbp), %eax
	movl	%eax, -4(%rbp)
.LBB9_79:                               # %for.cond256
                                        # =>This Loop Header: Depth=1
                                        #     Child Loop BB9_81 Depth 2
	movl	-4(%rbp), %eax
	cmpl	-28(%rbp), %eax
	jge	.LBB9_86
# %bb.80:                               # %for.body259
                                        #   in Loop: Header=BB9_79 Depth=1
	movl	-24(%rbp), %eax
	movl	%eax, -8(%rbp)
.LBB9_81:                               # %for.cond260
                                        #   Parent Loop BB9_79 Depth=1
                                        # =>  This Inner Loop Header: Depth=2
	movl	-8(%rbp), %eax
	cmpl	-32(%rbp), %eax
	jge	.LBB9_84
# %bb.82:                               # %for.body263
                                        #   in Loop: Header=BB9_81 Depth=2
	movq	-40(%rbp), %rax
	movq	%rax, %rcx
	addq	$4, %rcx
	movq	%rcx, -40(%rbp)
	movl	(%rax), %eax
	movq	img, %rcx
	addq	$12600, %rcx            # imm = 0x3138
	movslq	-8(%rbp), %rdx
	shlq	$5, %rdx
	addq	%rdx, %rcx
	movslq	-4(%rbp), %rdx
	movw	%ax, (%rcx,%rdx,2)
# %bb.83:                               # %for.inc271
                                        #   in Loop: Header=BB9_81 Depth=2
	movl	-8(%rbp), %eax
	addl	$1, %eax
	movl	%eax, -8(%rbp)
	jmp	.LBB9_81
.LBB9_84:                               # %for.end273
                                        #   in Loop: Header=BB9_79 Depth=1
	jmp	.LBB9_85
.LBB9_85:                               # %for.inc274
                                        #   in Loop: Header=BB9_79 Depth=1
	movl	-4(%rbp), %eax
	addl	$1, %eax
	movl	%eax, -4(%rbp)
	jmp	.LBB9_79
.LBB9_86:                               # %for.end276
	jmp	.LBB9_87
.LBB9_87:                               # %if.end277
	jmp	.LBB9_88
.LBB9_88:                               # %if.end278
	jmp	.LBB9_89
.LBB9_89:                               # %if.end279
	addq	$112, %rsp
	popq	%rbp
	.cfi_def_cfa %rsp, 8
	retq
.Lfunc_end9:
	.size	LumaPrediction4x4, .Lfunc_end9-LumaPrediction4x4
	.cfi_endproc
                                        # -- End function
	.globl	LumaPrediction4x4Bi     # -- Begin function LumaPrediction4x4Bi
	.p2align	4, 0x90
	.type	LumaPrediction4x4Bi,@function
LumaPrediction4x4Bi:                    # @LumaPrediction4x4Bi
	.cfi_startproc
# %bb.0:                                # %entry
	pushq	%rbp
	.cfi_def_cfa_offset 16
	.cfi_offset %rbp, -16
	movq	%rsp, %rbp
	.cfi_def_cfa_register %rbp
	subq	$96, %rsp
	movl	24(%rbp), %eax
	movw	16(%rbp), %ax
	movl	%edi, -20(%rbp)
	movl	%esi, -16(%rbp)
	movl	%edx, -24(%rbp)
	movl	%ecx, -80(%rbp)
	movl	%r8d, -76(%rbp)
	movw	%r9w, -10(%rbp)
	movl	-20(%rbp), %eax
	addl	$4, %eax
	movl	%eax, -32(%rbp)
	movl	-16(%rbp), %eax
	addl	$4, %eax
	movl	%eax, -28(%rbp)
	movq	img, %rax
	movl	168(%rax), %eax
	addl	-20(%rbp), %eax
	movl	%eax, -68(%rbp)
	movq	img, %rax
	movl	172(%rax), %eax
	addl	-16(%rbp), %eax
	movl	%eax, -64(%rbp)
	movl	-20(%rbp), %eax
	sarl	$2, %eax
	movl	%eax, -60(%rbp)
	movl	-16(%rbp), %eax
	sarl	$2, %eax
	movl	%eax, -56(%rbp)
	movabsq	$LumaPrediction4x4Bi.fw_pred, %rax
	movq	%rax, -48(%rbp)
	movabsq	$LumaPrediction4x4Bi.bw_pred, %rax
	movq	%rax, -40(%rbp)
	movq	img, %rax
	movq	14168(%rax), %rax
	movq	img, %rcx
	movslq	12(%rcx), %rcx
	imulq	$632, %rcx, %rcx        # imm = 0x278
	addq	%rcx, %rax
	movq	%rax, -96(%rbp)
	movq	active_pps, %rax
	cmpl	$0, 192(%rax)
	je	.LBB10_3
# %bb.1:                                # %land.lhs.true
	movq	img, %rax
	cmpl	$0, 24(%rax)
	movb	$1, %al
	je	.LBB10_6
# %bb.2:                                # %lor.lhs.false
	movq	img, %rax
	cmpl	$3, 24(%rax)
	movb	$1, %al
	je	.LBB10_6
.LBB10_3:                               # %lor.rhs
	xorl	%eax, %eax
	movq	active_pps, %rcx
	cmpl	$0, 196(%rcx)
	je	.LBB10_5
# %bb.4:                                # %land.rhs
	movq	img, %rax
	cmpl	$1, 24(%rax)
	sete	%al
.LBB10_5:                               # %land.end
.LBB10_6:                               # %lor.end
	andb	$1, %al
	movzbl	%al, %eax
	movl	%eax, -72(%rbp)
	movq	img, %rax
	cmpl	$0, 72400(%rax)
	je	.LBB10_9
# %bb.7:                                # %land.lhs.true11
	movq	-96(%rbp), %rax
	cmpl	$0, 532(%rax)
	je	.LBB10_9
# %bb.8:                                # %cond.true
	movq	img, %rax
	movl	12(%rax), %eax
	cltd
	movl	$2, %ecx
	idivl	%ecx
	cmpl	$0, %edx
	movl	$4, %eax
	cmovnel	%eax, %ecx
	jmp	.LBB10_10
.LBB10_9:                               # %cond.false
	xorl	%ecx, %ecx
	jmp	.LBB10_10
.LBB10_10:                              # %cond.end
	movl	%ecx, -52(%rbp)
	cmpl	$0, 24(%rbp)
	je	.LBB10_12
# %bb.11:                               # %cond.true17
	movq	img, %rax
	movq	71936(%rax), %rax
	jmp	.LBB10_13
.LBB10_12:                              # %cond.false18
	movq	img, %rax
	movq	71944(%rax), %rax
.LBB10_13:                              # %cond.end19
	movq	%rax, -88(%rbp)
	cmpl	$0, -24(%rbp)
	je	.LBB10_15
# %bb.14:                               # %lor.lhs.false22
	cmpl	$2, -24(%rbp)
	jne	.LBB10_16
.LBB10_15:                              # %if.then
	movl	-68(%rbp), %esi
	movl	-64(%rbp), %edx
	movq	-88(%rbp), %rax
	movslq	-60(%rbp), %rcx
	movq	(%rax,%rcx,8), %rax
	movslq	-56(%rbp), %rcx
	movq	(%rax,%rcx,8), %rax
	movq	(%rax), %rax
	movswq	-10(%rbp), %rcx
	movq	(%rax,%rcx,8), %rax
	movslq	-80(%rbp), %rcx
	movq	(%rax,%rcx,8), %rcx
	movw	-10(%rbp), %ax
	movl	-52(%rbp), %edi
	addl	$0, %edi
	movslq	%edi, %rdi
	movq	listX(,%rdi,8), %r9
	movabsq	$LumaPrediction4x4Bi.fw_pred, %rdi
	movswl	%ax, %r8d
	callq	OneComponentLumaPrediction4x4
.LBB10_16:                              # %if.end
	cmpl	$1, -24(%rbp)
	je	.LBB10_18
# %bb.17:                               # %lor.lhs.false37
	cmpl	$2, -24(%rbp)
	jne	.LBB10_19
.LBB10_18:                              # %if.then39
	movl	-68(%rbp), %esi
	movl	-64(%rbp), %edx
	movq	-88(%rbp), %rax
	movslq	-60(%rbp), %rcx
	movq	(%rax,%rcx,8), %rax
	movslq	-56(%rbp), %rcx
	movq	(%rax,%rcx,8), %rax
	movq	8(%rax), %rax
	movswq	16(%rbp), %rcx
	movq	(%rax,%rcx,8), %rax
	movslq	-76(%rbp), %rcx
	movq	(%rax,%rcx,8), %rcx
	movw	16(%rbp), %ax
	movl	-52(%rbp), %edi
	addl	$1, %edi
	movslq	%edi, %rdi
	movq	listX(,%rdi,8), %r9
	movabsq	$LumaPrediction4x4Bi.bw_pred, %rdi
	movswl	%ax, %r8d
	callq	OneComponentLumaPrediction4x4
.LBB10_19:                              # %if.end52
	cmpl	$0, -72(%rbp)
	je	.LBB10_51
# %bb.20:                               # %if.then54
	cmpl	$2, -24(%rbp)
	jne	.LBB10_30
# %bb.21:                               # %if.then56
	movl	-16(%rbp), %eax
	movl	%eax, -4(%rbp)
.LBB10_22:                              # %for.cond
                                        # =>This Loop Header: Depth=1
                                        #     Child Loop BB10_24 Depth 2
	movl	-4(%rbp), %eax
	cmpl	-28(%rbp), %eax
	jge	.LBB10_29
# %bb.23:                               # %for.body
                                        #   in Loop: Header=BB10_22 Depth=1
	movl	-20(%rbp), %eax
	movl	%eax, -8(%rbp)
.LBB10_24:                              # %for.cond58
                                        #   Parent Loop BB10_22 Depth=1
                                        # =>  This Inner Loop Header: Depth=2
	movl	-8(%rbp), %eax
	cmpl	-32(%rbp), %eax
	jge	.LBB10_27
# %bb.25:                               # %for.body60
                                        #   in Loop: Header=BB10_24 Depth=2
	movq	wbp_weight, %rax
	movq	(%rax), %rax
	movswq	-10(%rbp), %rcx
	movq	(%rax,%rcx,8), %rax
	movswq	16(%rbp), %rcx
	movq	(%rax,%rcx,8), %rax
	movl	(%rax), %edi
	movq	-48(%rbp), %rax
	movq	%rax, %rcx
	addq	$4, %rcx
	movq	%rcx, -48(%rbp)
	imull	(%rax), %edi
	movq	wbp_weight, %rax
	movq	8(%rax), %rax
	movswq	-10(%rbp), %rcx
	movq	(%rax,%rcx,8), %rax
	movswq	16(%rbp), %rcx
	movq	(%rax,%rcx,8), %rax
	movl	(%rax), %eax
	movq	-40(%rbp), %rcx
	movq	%rcx, %rdx
	addq	$4, %rdx
	movq	%rdx, -40(%rbp)
	imull	(%rcx), %eax
	addl	%eax, %edi
	movl	wp_luma_round, %eax
	shll	$1, %eax
	addl	%eax, %edi
	movl	luma_log_weight_denom, %ecx
	addl	$1, %ecx
                                        # kill: def $cl killed $ecx
	sarl	%cl, %edi
	movq	wp_offset, %rax
	movq	(%rax), %rax
	movswq	-10(%rbp), %rcx
	movq	(%rax,%rcx,8), %rax
	movl	(%rax), %eax
	movq	wp_offset, %rcx
	movq	8(%rcx), %rcx
	movswq	16(%rbp), %rdx
	movq	(%rcx,%rdx,8), %rcx
	addl	(%rcx), %eax
	addl	$1, %eax
	sarl	$1, %eax
	addl	%eax, %edi
	callq	clip1a
	movq	img, %rcx
	addq	$12600, %rcx            # imm = 0x3138
	movslq	-8(%rbp), %rdx
	shlq	$5, %rdx
	addq	%rdx, %rcx
	movslq	-4(%rbp), %rdx
	movw	%ax, (%rcx,%rdx,2)
# %bb.26:                               # %for.inc
                                        #   in Loop: Header=BB10_24 Depth=2
	movl	-8(%rbp), %eax
	addl	$1, %eax
	movl	%eax, -8(%rbp)
	jmp	.LBB10_24
.LBB10_27:                              # %for.end
                                        #   in Loop: Header=BB10_22 Depth=1
	jmp	.LBB10_28
.LBB10_28:                              # %for.inc96
                                        #   in Loop: Header=BB10_22 Depth=1
	movl	-4(%rbp), %eax
	addl	$1, %eax
	movl	%eax, -4(%rbp)
	jmp	.LBB10_22
.LBB10_29:                              # %for.end98
	jmp	.LBB10_50
.LBB10_30:                              # %if.else
	cmpl	$0, -24(%rbp)
	jne	.LBB10_40
# %bb.31:                               # %if.then101
	movl	-16(%rbp), %eax
	movl	%eax, -4(%rbp)
.LBB10_32:                              # %for.cond102
                                        # =>This Loop Header: Depth=1
                                        #     Child Loop BB10_34 Depth 2
	movl	-4(%rbp), %eax
	cmpl	-28(%rbp), %eax
	jge	.LBB10_39
# %bb.33:                               # %for.body105
                                        #   in Loop: Header=BB10_32 Depth=1
	movl	-20(%rbp), %eax
	movl	%eax, -8(%rbp)
.LBB10_34:                              # %for.cond106
                                        #   Parent Loop BB10_32 Depth=1
                                        # =>  This Inner Loop Header: Depth=2
	movl	-8(%rbp), %eax
	cmpl	-32(%rbp), %eax
	jge	.LBB10_37
# %bb.35:                               # %for.body109
                                        #   in Loop: Header=BB10_34 Depth=2
	movq	wp_weight, %rax
	movq	(%rax), %rax
	movswq	-10(%rbp), %rcx
	movq	(%rax,%rcx,8), %rax
	movl	(%rax), %edi
	movq	-48(%rbp), %rax
	movq	%rax, %rcx
	addq	$4, %rcx
	movq	%rcx, -48(%rbp)
	imull	(%rax), %edi
	addl	wp_luma_round, %edi
	movl	luma_log_weight_denom, %ecx
                                        # kill: def $cl killed $ecx
	sarl	%cl, %edi
	movq	wp_offset, %rax
	movq	(%rax), %rax
	movswq	-10(%rbp), %rcx
	movq	(%rax,%rcx,8), %rax
	addl	(%rax), %edi
	callq	clip1a
	movq	img, %rcx
	addq	$12600, %rcx            # imm = 0x3138
	movslq	-8(%rbp), %rdx
	shlq	$5, %rdx
	addq	%rdx, %rcx
	movslq	-4(%rbp), %rdx
	movw	%ax, (%rcx,%rdx,2)
# %bb.36:                               # %for.inc130
                                        #   in Loop: Header=BB10_34 Depth=2
	movl	-8(%rbp), %eax
	addl	$1, %eax
	movl	%eax, -8(%rbp)
	jmp	.LBB10_34
.LBB10_37:                              # %for.end132
                                        #   in Loop: Header=BB10_32 Depth=1
	jmp	.LBB10_38
.LBB10_38:                              # %for.inc133
                                        #   in Loop: Header=BB10_32 Depth=1
	movl	-4(%rbp), %eax
	addl	$1, %eax
	movl	%eax, -4(%rbp)
	jmp	.LBB10_32
.LBB10_39:                              # %for.end135
	jmp	.LBB10_49
.LBB10_40:                              # %if.else136
	movl	-16(%rbp), %eax
	movl	%eax, -4(%rbp)
.LBB10_41:                              # %for.cond137
                                        # =>This Loop Header: Depth=1
                                        #     Child Loop BB10_43 Depth 2
	movl	-4(%rbp), %eax
	cmpl	-28(%rbp), %eax
	jge	.LBB10_48
# %bb.42:                               # %for.body140
                                        #   in Loop: Header=BB10_41 Depth=1
	movl	-20(%rbp), %eax
	movl	%eax, -8(%rbp)
.LBB10_43:                              # %for.cond141
                                        #   Parent Loop BB10_41 Depth=1
                                        # =>  This Inner Loop Header: Depth=2
	movl	-8(%rbp), %eax
	cmpl	-32(%rbp), %eax
	jge	.LBB10_46
# %bb.44:                               # %for.body144
                                        #   in Loop: Header=BB10_43 Depth=2
	movq	wp_weight, %rax
	movq	8(%rax), %rax
	movswq	16(%rbp), %rcx
	movq	(%rax,%rcx,8), %rax
	movl	(%rax), %edi
	movq	-40(%rbp), %rax
	movq	%rax, %rcx
	addq	$4, %rcx
	movq	%rcx, -40(%rbp)
	imull	(%rax), %edi
	addl	wp_luma_round, %edi
	movl	luma_log_weight_denom, %ecx
                                        # kill: def $cl killed $ecx
	sarl	%cl, %edi
	movq	wp_offset, %rax
	movq	8(%rax), %rax
	movswq	16(%rbp), %rcx
	movq	(%rax,%rcx,8), %rax
	addl	(%rax), %edi
	callq	clip1a
	movq	img, %rcx
	addq	$12600, %rcx            # imm = 0x3138
	movslq	-8(%rbp), %rdx
	shlq	$5, %rdx
	addq	%rdx, %rcx
	movslq	-4(%rbp), %rdx
	movw	%ax, (%rcx,%rdx,2)
# %bb.45:                               # %for.inc165
                                        #   in Loop: Header=BB10_43 Depth=2
	movl	-8(%rbp), %eax
	addl	$1, %eax
	movl	%eax, -8(%rbp)
	jmp	.LBB10_43
.LBB10_46:                              # %for.end167
                                        #   in Loop: Header=BB10_41 Depth=1
	jmp	.LBB10_47
.LBB10_47:                              # %for.inc168
                                        #   in Loop: Header=BB10_41 Depth=1
	movl	-4(%rbp), %eax
	addl	$1, %eax
	movl	%eax, -4(%rbp)
	jmp	.LBB10_41
.LBB10_48:                              # %for.end170
	jmp	.LBB10_49
.LBB10_49:                              # %if.end171
	jmp	.LBB10_50
.LBB10_50:                              # %if.end172
	jmp	.LBB10_82
.LBB10_51:                              # %if.else173
	cmpl	$2, -24(%rbp)
	jne	.LBB10_61
# %bb.52:                               # %if.then176
	movl	-16(%rbp), %eax
	movl	%eax, -4(%rbp)
.LBB10_53:                              # %for.cond177
                                        # =>This Loop Header: Depth=1
                                        #     Child Loop BB10_55 Depth 2
	movl	-4(%rbp), %eax
	cmpl	-28(%rbp), %eax
	jge	.LBB10_60
# %bb.54:                               # %for.body180
                                        #   in Loop: Header=BB10_53 Depth=1
	movl	-20(%rbp), %eax
	movl	%eax, -8(%rbp)
.LBB10_55:                              # %for.cond181
                                        #   Parent Loop BB10_53 Depth=1
                                        # =>  This Inner Loop Header: Depth=2
	movl	-8(%rbp), %eax
	cmpl	-32(%rbp), %eax
	jge	.LBB10_58
# %bb.56:                               # %for.body184
                                        #   in Loop: Header=BB10_55 Depth=2
	movq	-48(%rbp), %rax
	movq	%rax, %rcx
	addq	$4, %rcx
	movq	%rcx, -48(%rbp)
	movl	(%rax), %eax
	movq	-40(%rbp), %rcx
	movq	%rcx, %rdx
	addq	$4, %rdx
	movq	%rdx, -40(%rbp)
	addl	(%rcx), %eax
	addl	$1, %eax
	cltd
	movl	$2, %ecx
	idivl	%ecx
	movq	img, %rcx
	addq	$12600, %rcx            # imm = 0x3138
	movslq	-8(%rbp), %rdx
	shlq	$5, %rdx
	addq	%rdx, %rcx
	movslq	-4(%rbp), %rdx
	movw	%ax, (%rcx,%rdx,2)
# %bb.57:                               # %for.inc195
                                        #   in Loop: Header=BB10_55 Depth=2
	movl	-8(%rbp), %eax
	addl	$1, %eax
	movl	%eax, -8(%rbp)
	jmp	.LBB10_55
.LBB10_58:                              # %for.end197
                                        #   in Loop: Header=BB10_53 Depth=1
	jmp	.LBB10_59
.LBB10_59:                              # %for.inc198
                                        #   in Loop: Header=BB10_53 Depth=1
	movl	-4(%rbp), %eax
	addl	$1, %eax
	movl	%eax, -4(%rbp)
	jmp	.LBB10_53
.LBB10_60:                              # %for.end200
	jmp	.LBB10_81
.LBB10_61:                              # %if.else201
	cmpl	$0, -24(%rbp)
	jne	.LBB10_71
# %bb.62:                               # %if.then204
	movl	-16(%rbp), %eax
	movl	%eax, -4(%rbp)
.LBB10_63:                              # %for.cond205
                                        # =>This Loop Header: Depth=1
                                        #     Child Loop BB10_65 Depth 2
	movl	-4(%rbp), %eax
	cmpl	-28(%rbp), %eax
	jge	.LBB10_70
# %bb.64:                               # %for.body208
                                        #   in Loop: Header=BB10_63 Depth=1
	movl	-20(%rbp), %eax
	movl	%eax, -8(%rbp)
.LBB10_65:                              # %for.cond209
                                        #   Parent Loop BB10_63 Depth=1
                                        # =>  This Inner Loop Header: Depth=2
	movl	-8(%rbp), %eax
	cmpl	-32(%rbp), %eax
	jge	.LBB10_68
# %bb.66:                               # %for.body212
                                        #   in Loop: Header=BB10_65 Depth=2
	movq	-48(%rbp), %rax
	movq	%rax, %rcx
	addq	$4, %rcx
	movq	%rcx, -48(%rbp)
	movl	(%rax), %eax
	movq	img, %rcx
	addq	$12600, %rcx            # imm = 0x3138
	movslq	-8(%rbp), %rdx
	shlq	$5, %rdx
	addq	%rdx, %rcx
	movslq	-4(%rbp), %rdx
	movw	%ax, (%rcx,%rdx,2)
# %bb.67:                               # %for.inc220
                                        #   in Loop: Header=BB10_65 Depth=2
	movl	-8(%rbp), %eax
	addl	$1, %eax
	movl	%eax, -8(%rbp)
	jmp	.LBB10_65
.LBB10_68:                              # %for.end222
                                        #   in Loop: Header=BB10_63 Depth=1
	jmp	.LBB10_69
.LBB10_69:                              # %for.inc223
                                        #   in Loop: Header=BB10_63 Depth=1
	movl	-4(%rbp), %eax
	addl	$1, %eax
	movl	%eax, -4(%rbp)
	jmp	.LBB10_63
.LBB10_70:                              # %for.end225
	jmp	.LBB10_80
.LBB10_71:                              # %if.else226
	movl	-16(%rbp), %eax
	movl	%eax, -4(%rbp)
.LBB10_72:                              # %for.cond227
                                        # =>This Loop Header: Depth=1
                                        #     Child Loop BB10_74 Depth 2
	movl	-4(%rbp), %eax
	cmpl	-28(%rbp), %eax
	jge	.LBB10_79
# %bb.73:                               # %for.body230
                                        #   in Loop: Header=BB10_72 Depth=1
	movl	-20(%rbp), %eax
	movl	%eax, -8(%rbp)
.LBB10_74:                              # %for.cond231
                                        #   Parent Loop BB10_72 Depth=1
                                        # =>  This Inner Loop Header: Depth=2
	movl	-8(%rbp), %eax
	cmpl	-32(%rbp), %eax
	jge	.LBB10_77
# %bb.75:                               # %for.body234
                                        #   in Loop: Header=BB10_74 Depth=2
	movq	-40(%rbp), %rax
	movq	%rax, %rcx
	addq	$4, %rcx
	movq	%rcx, -40(%rbp)
	movl	(%rax), %eax
	movq	img, %rcx
	addq	$12600, %rcx            # imm = 0x3138
	movslq	-8(%rbp), %rdx
	shlq	$5, %rdx
	addq	%rdx, %rcx
	movslq	-4(%rbp), %rdx
	movw	%ax, (%rcx,%rdx,2)
# %bb.76:                               # %for.inc242
                                        #   in Loop: Header=BB10_74 Depth=2
	movl	-8(%rbp), %eax
	addl	$1, %eax
	movl	%eax, -8(%rbp)
	jmp	.LBB10_74
.LBB10_77:                              # %for.end244
                                        #   in Loop: Header=BB10_72 Depth=1
	jmp	.LBB10_78
.LBB10_78:                              # %for.inc245
                                        #   in Loop: Header=BB10_72 Depth=1
	movl	-4(%rbp), %eax
	addl	$1, %eax
	movl	%eax, -4(%rbp)
	jmp	.LBB10_72
.LBB10_79:                              # %for.end247
	jmp	.LBB10_80
.LBB10_80:                              # %if.end248
	jmp	.LBB10_81
.LBB10_81:                              # %if.end249
	jmp	.LBB10_82
.LBB10_82:                              # %if.end250
	addq	$96, %rsp
	popq	%rbp
	.cfi_def_cfa %rsp, 8
	retq
.Lfunc_end10:
	.size	LumaPrediction4x4Bi, .Lfunc_end10-LumaPrediction4x4Bi
	.cfi_endproc
                                        # -- End function
	.globl	LumaResidualCoding8x8   # -- Begin function LumaResidualCoding8x8
	.p2align	4, 0x90
	.type	LumaResidualCoding8x8,@function
LumaResidualCoding8x8:                  # @LumaResidualCoding8x8
	.cfi_startproc
# %bb.0:                                # %entry
	pushq	%rbp
	.cfi_def_cfa_offset 16
	.cfi_offset %rbp, -16
	movq	%rsp, %rbp
	.cfi_def_cfa_register %rbp
	subq	$144, %rsp
	movw	24(%rbp), %ax
	movw	16(%rbp), %ax
	xorl	%r10d, %r10d
	movq	%rdi, -104(%rbp)
	movq	%rsi, -96(%rbp)
	movl	%edx, -28(%rbp)
	movw	%cx, -38(%rbp)
	movl	%r8d, -76(%rbp)
	movl	%r9d, -72(%rbp)
	movl	$0, -24(%rbp)
	movl	$0, -20(%rbp)
	movl	-28(%rbp), %eax
	cltd
	movl	$2, %ecx
	idivl	%ecx
	shll	$3, %eax
	movl	%eax, -36(%rbp)
	movl	-28(%rbp), %eax
	cltd
	idivl	%ecx
	shll	$3, %edx
	movl	%edx, -32(%rbp)
	movl	-28(%rbp), %ecx
                                        # kill: def $cl killed $ecx
	movl	$1, %eax
	shll	%cl, %eax
	movl	%eax, -68(%rbp)
	movl	$0, -116(%rbp)
	cmpl	$0, -76(%rbp)
	jne	.LBB11_3
# %bb.1:                                # %land.lhs.true
	xorl	%r10d, %r10d
	cmpl	$0, -72(%rbp)
	jne	.LBB11_3
# %bb.2:                                # %land.rhs
	movq	img, %rax
	cmpl	$1, 24(%rax)
	setne	%r10b
.LBB11_3:                               # %land.end
	andb	$1, %r10b
	movzbl	%r10b, %eax
	movl	%eax, -56(%rbp)
	movq	img, %rax
	movq	14168(%rax), %rax
	movq	img, %rcx
	movslq	12(%rcx), %rcx
	imulq	$632, %rcx, %rcx        # imm = 0x278
	addq	%rcx, %rax
	movq	%rax, -128(%rbp)
	movq	-128(%rbp), %rax
	movl	572(%rax), %eax
	movl	%eax, -52(%rbp)
	movq	img, %rax
	cmpl	$1, 24(%rax)
	jne	.LBB11_5
# %bb.4:                                # %if.then
	movl	$1, -116(%rbp)
.LBB11_5:                               # %if.end
	movl	$0, -60(%rbp)
	movl	-36(%rbp), %eax
	movl	%eax, -16(%rbp)
.LBB11_6:                               # %for.cond
                                        # =>This Loop Header: Depth=1
                                        #     Child Loop BB11_8 Depth 2
                                        #       Child Loop BB11_11 Depth 3
                                        #         Child Loop BB11_13 Depth 4
                                        #       Child Loop BB11_19 Depth 3
                                        #         Child Loop BB11_21 Depth 4
                                        #       Child Loop BB11_29 Depth 3
                                        #         Child Loop BB11_31 Depth 4
                                        #       Child Loop BB11_40 Depth 3
                                        #         Child Loop BB11_42 Depth 4
                                        #       Child Loop BB11_57 Depth 3
                                        #         Child Loop BB11_59 Depth 4
                                        #       Child Loop BB11_67 Depth 3
                                        #         Child Loop BB11_69 Depth 4
                                        #       Child Loop BB11_84 Depth 3
                                        #         Child Loop BB11_86 Depth 4
	movl	-16(%rbp), %eax
	movl	-36(%rbp), %ecx
	addl	$8, %ecx
	cmpl	%ecx, %eax
	jge	.LBB11_99
# %bb.7:                                # %for.body
                                        #   in Loop: Header=BB11_6 Depth=1
	movq	img, %rax
	movl	172(%rax), %eax
	addl	-16(%rbp), %eax
	movl	%eax, -48(%rbp)
	movl	$0, -64(%rbp)
	movl	-32(%rbp), %eax
	movl	%eax, -12(%rbp)
.LBB11_8:                               # %for.cond9
                                        #   Parent Loop BB11_6 Depth=1
                                        # =>  This Loop Header: Depth=2
                                        #       Child Loop BB11_11 Depth 3
                                        #         Child Loop BB11_13 Depth 4
                                        #       Child Loop BB11_19 Depth 3
                                        #         Child Loop BB11_21 Depth 4
                                        #       Child Loop BB11_29 Depth 3
                                        #         Child Loop BB11_31 Depth 4
                                        #       Child Loop BB11_40 Depth 3
                                        #         Child Loop BB11_42 Depth 4
                                        #       Child Loop BB11_57 Depth 3
                                        #         Child Loop BB11_59 Depth 4
                                        #       Child Loop BB11_67 Depth 3
                                        #         Child Loop BB11_69 Depth 4
                                        #       Child Loop BB11_84 Depth 3
                                        #         Child Loop BB11_86 Depth 4
	movl	-12(%rbp), %eax
	movl	-32(%rbp), %ecx
	addl	$8, %ecx
	cmpl	%ecx, %eax
	jge	.LBB11_97
# %bb.9:                                # %for.body12
                                        #   in Loop: Header=BB11_8 Depth=2
	movq	img, %rax
	movl	168(%rax), %eax
	addl	-12(%rbp), %eax
	movl	%eax, -44(%rbp)
	movl	-12(%rbp), %eax
	sarl	$2, %eax
	addl	-16(%rbp), %eax
	movl	%eax, -88(%rbp)
	movq	img, %rax
	cmpl	$0, 72724(%rax)
	je	.LBB11_27
# %bb.10:                               # %if.then15
                                        #   in Loop: Header=BB11_8 Depth=2
	movl	-12(%rbp), %esi
	movl	-16(%rbp), %edx
	movswl	-38(%rbp), %ecx
	movl	-76(%rbp), %r8d
	movl	-72(%rbp), %r9d
	movw	16(%rbp), %ax
	xorl	%edi, %edi
	cwtl
	movl	%eax, (%rsp)
	movswl	24(%rbp), %eax
	movl	%eax, 8(%rsp)
	callq	ChromaPrediction4x4
	movl	$0, -4(%rbp)
.LBB11_11:                              # %for.cond16
                                        #   Parent Loop BB11_6 Depth=1
                                        #     Parent Loop BB11_8 Depth=2
                                        # =>    This Loop Header: Depth=3
                                        #         Child Loop BB11_13 Depth 4
	cmpl	$4, -4(%rbp)
	jge	.LBB11_18
# %bb.12:                               # %for.body19
                                        #   in Loop: Header=BB11_11 Depth=3
	movl	$0, -8(%rbp)
.LBB11_13:                              # %for.cond20
                                        #   Parent Loop BB11_6 Depth=1
                                        #     Parent Loop BB11_8 Depth=2
                                        #       Parent Loop BB11_11 Depth=3
                                        # =>      This Inner Loop Header: Depth=4
	cmpl	$4, -8(%rbp)
	jge	.LBB11_16
# %bb.14:                               # %for.body23
                                        #   in Loop: Header=BB11_13 Depth=4
	movabsq	$mprRGB, %rax
	addq	$1024, %rax             # imm = 0x400
	movq	img, %rcx
	addq	$12600, %rcx            # imm = 0x3138
	movl	-8(%rbp), %edx
	addl	-12(%rbp), %edx
	movslq	%edx, %rdx
	shlq	$5, %rdx
	addq	%rdx, %rcx
	movl	-4(%rbp), %edx
	addl	-16(%rbp), %edx
	movslq	%edx, %rdx
	movzwl	(%rcx,%rdx,2), %ecx
	movl	-8(%rbp), %edx
	addl	-12(%rbp), %edx
	movslq	%edx, %rdx
	shlq	$6, %rdx
	addq	%rdx, %rax
	movl	-4(%rbp), %edx
	addl	-16(%rbp), %edx
	movslq	%edx, %rdx
	movl	%ecx, (%rax,%rdx,4)
# %bb.15:                               # %for.inc
                                        #   in Loop: Header=BB11_13 Depth=4
	movl	-8(%rbp), %eax
	addl	$1, %eax
	movl	%eax, -8(%rbp)
	jmp	.LBB11_13
.LBB11_16:                              # %for.end
                                        #   in Loop: Header=BB11_11 Depth=3
	jmp	.LBB11_17
.LBB11_17:                              # %for.inc37
                                        #   in Loop: Header=BB11_11 Depth=3
	movl	-4(%rbp), %eax
	addl	$1, %eax
	movl	%eax, -4(%rbp)
	jmp	.LBB11_11
.LBB11_18:                              # %for.end39
                                        #   in Loop: Header=BB11_8 Depth=2
	movl	-12(%rbp), %esi
	movl	-16(%rbp), %edx
	movswl	-38(%rbp), %ecx
	movl	-76(%rbp), %r8d
	movl	-72(%rbp), %r9d
	movw	16(%rbp), %ax
	movl	$1, %edi
	cwtl
	movl	%eax, (%rsp)
	movswl	24(%rbp), %eax
	movl	%eax, 8(%rsp)
	callq	ChromaPrediction4x4
	movl	$0, -4(%rbp)
.LBB11_19:                              # %for.cond41
                                        #   Parent Loop BB11_6 Depth=1
                                        #     Parent Loop BB11_8 Depth=2
                                        # =>    This Loop Header: Depth=3
                                        #         Child Loop BB11_21 Depth 4
	cmpl	$4, -4(%rbp)
	jge	.LBB11_26
# %bb.20:                               # %for.body44
                                        #   in Loop: Header=BB11_19 Depth=3
	movl	$0, -8(%rbp)
.LBB11_21:                              # %for.cond45
                                        #   Parent Loop BB11_6 Depth=1
                                        #     Parent Loop BB11_8 Depth=2
                                        #       Parent Loop BB11_19 Depth=3
                                        # =>      This Inner Loop Header: Depth=4
	cmpl	$4, -8(%rbp)
	jge	.LBB11_24
# %bb.22:                               # %for.body48
                                        #   in Loop: Header=BB11_21 Depth=4
	movabsq	$mprRGB, %rax
	addq	$2048, %rax             # imm = 0x800
	movq	img, %rcx
	addq	$12600, %rcx            # imm = 0x3138
	movl	-8(%rbp), %edx
	addl	-12(%rbp), %edx
	movslq	%edx, %rdx
	shlq	$5, %rdx
	addq	%rdx, %rcx
	movl	-4(%rbp), %edx
	addl	-16(%rbp), %edx
	movslq	%edx, %rdx
	movzwl	(%rcx,%rdx,2), %ecx
	movl	-8(%rbp), %edx
	addl	-12(%rbp), %edx
	movslq	%edx, %rdx
	shlq	$6, %rdx
	addq	%rdx, %rax
	movl	-4(%rbp), %edx
	addl	-16(%rbp), %edx
	movslq	%edx, %rdx
	movl	%ecx, (%rax,%rdx,4)
# %bb.23:                               # %for.inc63
                                        #   in Loop: Header=BB11_21 Depth=4
	movl	-8(%rbp), %eax
	addl	$1, %eax
	movl	%eax, -8(%rbp)
	jmp	.LBB11_21
.LBB11_24:                              # %for.end65
                                        #   in Loop: Header=BB11_19 Depth=3
	jmp	.LBB11_25
.LBB11_25:                              # %for.inc66
                                        #   in Loop: Header=BB11_19 Depth=3
	movl	-4(%rbp), %eax
	addl	$1, %eax
	movl	%eax, -4(%rbp)
	jmp	.LBB11_19
.LBB11_26:                              # %for.end68
                                        #   in Loop: Header=BB11_8 Depth=2
	jmp	.LBB11_27
.LBB11_27:                              # %if.end69
                                        #   in Loop: Header=BB11_8 Depth=2
	movl	-12(%rbp), %edi
	movl	-16(%rbp), %esi
	movswl	-38(%rbp), %edx
	movl	-76(%rbp), %ecx
	movl	-72(%rbp), %r8d
	movw	16(%rbp), %ax
	movswl	%ax, %r9d
	movswl	24(%rbp), %eax
	movl	%eax, (%rsp)
	callq	LumaPrediction4x4
	movq	img, %rax
	cmpl	$0, 72724(%rax)
	je	.LBB11_37
# %bb.28:                               # %if.then73
                                        #   in Loop: Header=BB11_8 Depth=2
	movl	$0, -4(%rbp)
.LBB11_29:                              # %for.cond74
                                        #   Parent Loop BB11_6 Depth=1
                                        #     Parent Loop BB11_8 Depth=2
                                        # =>    This Loop Header: Depth=3
                                        #         Child Loop BB11_31 Depth 4
	cmpl	$4, -4(%rbp)
	jge	.LBB11_36
# %bb.30:                               # %for.body77
                                        #   in Loop: Header=BB11_29 Depth=3
	movl	$0, -8(%rbp)
.LBB11_31:                              # %for.cond78
                                        #   Parent Loop BB11_6 Depth=1
                                        #     Parent Loop BB11_8 Depth=2
                                        #       Parent Loop BB11_29 Depth=3
                                        # =>      This Inner Loop Header: Depth=4
	cmpl	$4, -8(%rbp)
	jge	.LBB11_34
# %bb.32:                               # %for.body81
                                        #   in Loop: Header=BB11_31 Depth=4
	movq	img, %rax
	addq	$12600, %rax            # imm = 0x3138
	movl	-8(%rbp), %ecx
	addl	-12(%rbp), %ecx
	movslq	%ecx, %rcx
	shlq	$5, %rcx
	addq	%rcx, %rax
	movl	-4(%rbp), %ecx
	addl	-16(%rbp), %ecx
	movslq	%ecx, %rcx
	movzwl	(%rax,%rcx,2), %eax
	movl	-8(%rbp), %ecx
	addl	-12(%rbp), %ecx
	movslq	%ecx, %rcx
	shlq	$6, %rcx
	movabsq	$mprRGB, %rdx
	addq	%rcx, %rdx
	movl	-4(%rbp), %ecx
	addl	-16(%rbp), %ecx
	movslq	%ecx, %rcx
	movl	%eax, (%rdx,%rcx,4)
# %bb.33:                               # %for.inc96
                                        #   in Loop: Header=BB11_31 Depth=4
	movl	-8(%rbp), %eax
	addl	$1, %eax
	movl	%eax, -8(%rbp)
	jmp	.LBB11_31
.LBB11_34:                              # %for.end98
                                        #   in Loop: Header=BB11_29 Depth=3
	jmp	.LBB11_35
.LBB11_35:                              # %for.inc99
                                        #   in Loop: Header=BB11_29 Depth=3
	movl	-4(%rbp), %eax
	addl	$1, %eax
	movl	%eax, -4(%rbp)
	jmp	.LBB11_29
.LBB11_36:                              # %for.end101
                                        #   in Loop: Header=BB11_8 Depth=2
	jmp	.LBB11_37
.LBB11_37:                              # %if.end102
                                        #   in Loop: Header=BB11_8 Depth=2
	movq	img, %rax
	cmpl	$0, 72724(%rax)
	jne	.LBB11_66
# %bb.38:                               # %if.then105
                                        #   in Loop: Header=BB11_8 Depth=2
	cmpl	$0, -52(%rbp)
	jne	.LBB11_56
# %bb.39:                               # %if.then107
                                        #   in Loop: Header=BB11_8 Depth=2
	movl	$0, -4(%rbp)
.LBB11_40:                              # %for.cond108
                                        #   Parent Loop BB11_6 Depth=1
                                        #     Parent Loop BB11_8 Depth=2
                                        # =>    This Loop Header: Depth=3
                                        #         Child Loop BB11_42 Depth 4
	cmpl	$4, -4(%rbp)
	jge	.LBB11_47
# %bb.41:                               # %for.body111
                                        #   in Loop: Header=BB11_40 Depth=3
	movl	$0, -8(%rbp)
.LBB11_42:                              # %for.cond112
                                        #   Parent Loop BB11_6 Depth=1
                                        #     Parent Loop BB11_8 Depth=2
                                        #       Parent Loop BB11_40 Depth=3
                                        # =>      This Inner Loop Header: Depth=4
	cmpl	$4, -8(%rbp)
	jge	.LBB11_45
# %bb.43:                               # %for.body115
                                        #   in Loop: Header=BB11_42 Depth=4
	movq	imgY_org, %rax
	movl	-48(%rbp), %ecx
	addl	-4(%rbp), %ecx
	movslq	%ecx, %rcx
	movq	(%rax,%rcx,8), %rax
	movl	-44(%rbp), %ecx
	addl	-8(%rbp), %ecx
	movslq	%ecx, %rcx
	movzwl	(%rax,%rcx,2), %eax
	movq	img, %rcx
	addq	$12600, %rcx            # imm = 0x3138
	movl	-8(%rbp), %edx
	addl	-12(%rbp), %edx
	movslq	%edx, %rdx
	shlq	$5, %rdx
	addq	%rdx, %rcx
	movl	-4(%rbp), %edx
	addl	-16(%rbp), %edx
	movslq	%edx, %rdx
	movzwl	(%rcx,%rdx,2), %ecx
	subl	%ecx, %eax
	movq	img, %rcx
	addq	$13112, %rcx            # imm = 0x3338
	movslq	-8(%rbp), %rdx
	shlq	$6, %rdx
	addq	%rdx, %rcx
	movslq	-4(%rbp), %rdx
	movl	%eax, (%rcx,%rdx,4)
# %bb.44:                               # %for.inc135
                                        #   in Loop: Header=BB11_42 Depth=4
	movl	-8(%rbp), %eax
	addl	$1, %eax
	movl	%eax, -8(%rbp)
	jmp	.LBB11_42
.LBB11_45:                              # %for.end137
                                        #   in Loop: Header=BB11_40 Depth=3
	jmp	.LBB11_46
.LBB11_46:                              # %for.inc138
                                        #   in Loop: Header=BB11_40 Depth=3
	movl	-4(%rbp), %eax
	addl	$1, %eax
	movl	%eax, -4(%rbp)
	jmp	.LBB11_40
.LBB11_47:                              # %for.end140
                                        #   in Loop: Header=BB11_8 Depth=2
	movq	img, %rax
	cmpl	$1, 72392(%rax)
	je	.LBB11_55
# %bb.48:                               # %land.lhs.true143
                                        #   in Loop: Header=BB11_8 Depth=2
	cmpl	$0, -56(%rbp)
	jne	.LBB11_55
# %bb.49:                               # %if.then145
                                        #   in Loop: Header=BB11_8 Depth=2
	movq	img, %rax
	cmpl	$3, 24(%rax)
	je	.LBB11_51
# %bb.50:                               # %if.then149
                                        #   in Loop: Header=BB11_8 Depth=2
	movl	-12(%rbp), %edi
	movl	-16(%rbp), %esi
	leaq	-20(%rbp), %rdx
	xorl	%ecx, %ecx
	callq	dct_luma
	movl	%eax, -24(%rbp)
	jmp	.LBB11_52
.LBB11_51:                              # %if.else
                                        #   in Loop: Header=BB11_8 Depth=2
	movl	-12(%rbp), %edi
	movl	-16(%rbp), %esi
	leaq	-20(%rbp), %rdx
	callq	dct_luma_sp
	movl	%eax, -24(%rbp)
.LBB11_52:                              # %if.end151
                                        #   in Loop: Header=BB11_8 Depth=2
	cmpl	$0, -24(%rbp)
	je	.LBB11_54
# %bb.53:                               # %if.then153
                                        #   in Loop: Header=BB11_8 Depth=2
	movl	-88(%rbp), %ecx
                                        # kill: def $cl killed $ecx
	movl	$1, %eax
	shll	%cl, %eax
	cltq
	movq	-96(%rbp), %rcx
	orq	(%rcx), %rax
	movq	%rax, (%rcx)
	movl	-68(%rbp), %eax
	movq	-104(%rbp), %rcx
	orl	(%rcx), %eax
	movl	%eax, (%rcx)
.LBB11_54:                              # %if.end157
                                        #   in Loop: Header=BB11_8 Depth=2
	jmp	.LBB11_55
.LBB11_55:                              # %if.end158
                                        #   in Loop: Header=BB11_8 Depth=2
	jmp	.LBB11_65
.LBB11_56:                              # %if.else159
                                        #   in Loop: Header=BB11_8 Depth=2
	movl	$0, -4(%rbp)
.LBB11_57:                              # %for.cond160
                                        #   Parent Loop BB11_6 Depth=1
                                        #     Parent Loop BB11_8 Depth=2
                                        # =>    This Loop Header: Depth=3
                                        #         Child Loop BB11_59 Depth 4
	cmpl	$4, -4(%rbp)
	jge	.LBB11_64
# %bb.58:                               # %for.body163
                                        #   in Loop: Header=BB11_57 Depth=3
	movl	$0, -8(%rbp)
.LBB11_59:                              # %for.cond164
                                        #   Parent Loop BB11_6 Depth=1
                                        #     Parent Loop BB11_8 Depth=2
                                        #       Parent Loop BB11_57 Depth=3
                                        # =>      This Inner Loop Header: Depth=4
	cmpl	$4, -8(%rbp)
	jge	.LBB11_62
# %bb.60:                               # %for.body167
                                        #   in Loop: Header=BB11_59 Depth=4
	movq	imgY_org, %rax
	movl	-48(%rbp), %ecx
	addl	-4(%rbp), %ecx
	movslq	%ecx, %rcx
	movq	(%rax,%rcx,8), %rax
	movl	-44(%rbp), %ecx
	addl	-8(%rbp), %ecx
	movslq	%ecx, %rcx
	movzwl	(%rax,%rcx,2), %eax
	movq	img, %rcx
	addq	$12600, %rcx            # imm = 0x3138
	movl	-8(%rbp), %edx
	addl	-12(%rbp), %edx
	movslq	%edx, %rdx
	shlq	$5, %rdx
	addq	%rdx, %rcx
	movl	-4(%rbp), %edx
	addl	-16(%rbp), %edx
	movslq	%edx, %rdx
	movzwl	(%rcx,%rdx,2), %ecx
	subl	%ecx, %eax
	movq	img, %rcx
	addq	$13112, %rcx            # imm = 0x3338
	movl	-8(%rbp), %edx
	addl	-64(%rbp), %edx
	movslq	%edx, %rdx
	shlq	$6, %rdx
	addq	%rdx, %rcx
	movl	-4(%rbp), %edx
	addl	-60(%rbp), %edx
	movslq	%edx, %rdx
	movl	%eax, (%rcx,%rdx,4)
# %bb.61:                               # %for.inc191
                                        #   in Loop: Header=BB11_59 Depth=4
	movl	-8(%rbp), %eax
	addl	$1, %eax
	movl	%eax, -8(%rbp)
	jmp	.LBB11_59
.LBB11_62:                              # %for.end193
                                        #   in Loop: Header=BB11_57 Depth=3
	jmp	.LBB11_63
.LBB11_63:                              # %for.inc194
                                        #   in Loop: Header=BB11_57 Depth=3
	movl	-4(%rbp), %eax
	addl	$1, %eax
	movl	%eax, -4(%rbp)
	jmp	.LBB11_57
.LBB11_64:                              # %for.end196
                                        #   in Loop: Header=BB11_8 Depth=2
	jmp	.LBB11_65
.LBB11_65:                              # %if.end197
                                        #   in Loop: Header=BB11_8 Depth=2
	jmp	.LBB11_95
.LBB11_66:                              # %if.else198
                                        #   in Loop: Header=BB11_8 Depth=2
	movl	$0, -4(%rbp)
.LBB11_67:                              # %for.cond199
                                        #   Parent Loop BB11_6 Depth=1
                                        #     Parent Loop BB11_8 Depth=2
                                        # =>    This Loop Header: Depth=3
                                        #         Child Loop BB11_69 Depth 4
	cmpl	$4, -4(%rbp)
	jge	.LBB11_77
# %bb.68:                               # %for.body202
                                        #   in Loop: Header=BB11_67 Depth=3
	movl	$0, -8(%rbp)
.LBB11_69:                              # %for.cond203
                                        #   Parent Loop BB11_6 Depth=1
                                        #     Parent Loop BB11_8 Depth=2
                                        #       Parent Loop BB11_67 Depth=3
                                        # =>      This Inner Loop Header: Depth=4
	cmpl	$4, -8(%rbp)
	jge	.LBB11_75
# %bb.70:                               # %for.body206
                                        #   in Loop: Header=BB11_69 Depth=4
	movabsq	$mprRGB, %rcx
	movq	%rcx, %rax
	addq	$2048, %rax             # imm = 0x800
	movq	%rcx, %rdx
	addq	$1024, %rdx             # imm = 0x400
	movq	imgUV_org, %rsi
	movq	(%rsi), %rsi
	movl	-48(%rbp), %edi
	addl	-4(%rbp), %edi
	movslq	%edi, %rdi
	movq	(%rsi,%rdi,8), %rsi
	movl	-44(%rbp), %edi
	addl	-8(%rbp), %edi
	movslq	%edi, %rdi
	movzwl	(%rsi,%rdi,2), %esi
	movl	-8(%rbp), %edi
	addl	-12(%rbp), %edi
	movslq	%edi, %rdi
	shlq	$6, %rdi
	addq	%rdi, %rdx
	movl	-4(%rbp), %edi
	addl	-16(%rbp), %edi
	movslq	%edi, %rdi
	subl	(%rdx,%rdi,4), %esi
	movl	%esi, -84(%rbp)
	movq	imgY_org, %rdx
	movl	-48(%rbp), %esi
	addl	-4(%rbp), %esi
	movslq	%esi, %rsi
	movq	(%rdx,%rsi,8), %rdx
	movl	-44(%rbp), %esi
	addl	-8(%rbp), %esi
	movslq	%esi, %rsi
	movzwl	(%rdx,%rsi,2), %edx
	movl	-8(%rbp), %esi
	addl	-12(%rbp), %esi
	movslq	%esi, %rsi
	shlq	$6, %rsi
	addq	%rsi, %rcx
	movl	-4(%rbp), %esi
	addl	-16(%rbp), %esi
	movslq	%esi, %rsi
	subl	(%rcx,%rsi,4), %edx
	movl	%edx, -108(%rbp)
	movq	imgUV_org, %rcx
	movq	8(%rcx), %rcx
	movl	-48(%rbp), %edx
	addl	-4(%rbp), %edx
	movslq	%edx, %rdx
	movq	(%rcx,%rdx,8), %rcx
	movl	-44(%rbp), %edx
	addl	-8(%rbp), %edx
	movslq	%edx, %rdx
	movzwl	(%rcx,%rdx,2), %ecx
	movl	-8(%rbp), %edx
	addl	-12(%rbp), %edx
	movslq	%edx, %rdx
	shlq	$6, %rdx
	addq	%rdx, %rax
	movl	-4(%rbp), %edx
	addl	-16(%rbp), %edx
	movslq	%edx, %rdx
	subl	(%rax,%rdx,4), %ecx
	movl	%ecx, -112(%rbp)
	movl	-112(%rbp), %eax
	subl	-84(%rbp), %eax
	movl	-8(%rbp), %ecx
	addl	-12(%rbp), %ecx
	movslq	%ecx, %rcx
	shlq	$6, %rcx
	movabsq	$resTrans_R, %rdx
	movq	%rdx, %rsi
	addq	%rcx, %rsi
	movl	-4(%rbp), %ecx
	addl	-16(%rbp), %ecx
	movslq	%ecx, %rcx
	movl	%eax, (%rsi,%rcx,4)
	movl	-84(%rbp), %eax
	movl	-8(%rbp), %ecx
	addl	-12(%rbp), %ecx
	movslq	%ecx, %rcx
	shlq	$6, %rcx
	addq	%rcx, %rdx
	movl	-4(%rbp), %ecx
	addl	-16(%rbp), %ecx
	movslq	%ecx, %rcx
	movl	(%rdx,%rcx,4), %ecx
	sarl	$1, %ecx
	addl	%ecx, %eax
	movl	%eax, -80(%rbp)
	movl	-108(%rbp), %eax
	subl	-80(%rbp), %eax
	movl	-8(%rbp), %ecx
	addl	-12(%rbp), %ecx
	movslq	%ecx, %rcx
	shlq	$6, %rcx
	movabsq	$resTrans_B, %rdx
	movq	%rdx, %rsi
	addq	%rcx, %rsi
	movl	-4(%rbp), %ecx
	addl	-16(%rbp), %ecx
	movslq	%ecx, %rcx
	movl	%eax, (%rsi,%rcx,4)
	movl	-80(%rbp), %eax
	movl	-8(%rbp), %ecx
	addl	-12(%rbp), %ecx
	movslq	%ecx, %rcx
	shlq	$6, %rcx
	addq	%rcx, %rdx
	movl	-4(%rbp), %ecx
	addl	-16(%rbp), %ecx
	movslq	%ecx, %rcx
	movl	(%rdx,%rcx,4), %ecx
	sarl	$1, %ecx
	addl	%ecx, %eax
	movl	-8(%rbp), %ecx
	addl	-12(%rbp), %ecx
	movslq	%ecx, %rcx
	shlq	$6, %rcx
	movabsq	$resTrans_G, %rdx
	addq	%rcx, %rdx
	movl	-4(%rbp), %ecx
	addl	-16(%rbp), %ecx
	movslq	%ecx, %rcx
	movl	%eax, (%rdx,%rcx,4)
	cmpl	$0, -52(%rbp)
	jne	.LBB11_72
# %bb.71:                               # %if.then288
                                        #   in Loop: Header=BB11_69 Depth=4
	movl	-8(%rbp), %eax
	addl	-12(%rbp), %eax
	cltq
	shlq	$6, %rax
	movabsq	$resTrans_G, %rcx
	addq	%rax, %rcx
	movl	-4(%rbp), %eax
	addl	-16(%rbp), %eax
	cltq
	movl	(%rcx,%rax,4), %eax
	movq	img, %rcx
	addq	$13112, %rcx            # imm = 0x3338
	movslq	-8(%rbp), %rdx
	shlq	$6, %rdx
	addq	%rdx, %rcx
	movslq	-4(%rbp), %rdx
	movl	%eax, (%rcx,%rdx,4)
	jmp	.LBB11_73
.LBB11_72:                              # %if.else300
                                        #   in Loop: Header=BB11_69 Depth=4
	movl	-8(%rbp), %eax
	addl	-12(%rbp), %eax
	cltq
	shlq	$6, %rax
	movabsq	$resTrans_G, %rcx
	addq	%rax, %rcx
	movl	-4(%rbp), %eax
	addl	-16(%rbp), %eax
	cltq
	movl	(%rcx,%rax,4), %eax
	movq	img, %rcx
	addq	$13112, %rcx            # imm = 0x3338
	movl	-8(%rbp), %edx
	addl	-64(%rbp), %edx
	movslq	%edx, %rdx
	shlq	$6, %rdx
	addq	%rdx, %rcx
	movl	-4(%rbp), %edx
	addl	-60(%rbp), %edx
	movslq	%edx, %rdx
	movl	%eax, (%rcx,%rdx,4)
.LBB11_73:                              # %if.end314
                                        #   in Loop: Header=BB11_69 Depth=4
	jmp	.LBB11_74
.LBB11_74:                              # %for.inc315
                                        #   in Loop: Header=BB11_69 Depth=4
	movl	-8(%rbp), %eax
	addl	$1, %eax
	movl	%eax, -8(%rbp)
	jmp	.LBB11_69
.LBB11_75:                              # %for.end317
                                        #   in Loop: Header=BB11_67 Depth=3
	jmp	.LBB11_76
.LBB11_76:                              # %for.inc318
                                        #   in Loop: Header=BB11_67 Depth=3
	movl	-4(%rbp), %eax
	addl	$1, %eax
	movl	%eax, -4(%rbp)
	jmp	.LBB11_67
.LBB11_77:                              # %for.end320
                                        #   in Loop: Header=BB11_8 Depth=2
	movq	img, %rax
	cmpl	$1, 72392(%rax)
	je	.LBB11_94
# %bb.78:                               # %land.lhs.true324
                                        #   in Loop: Header=BB11_8 Depth=2
	cmpl	$0, -56(%rbp)
	jne	.LBB11_94
# %bb.79:                               # %land.lhs.true326
                                        #   in Loop: Header=BB11_8 Depth=2
	cmpl	$0, -52(%rbp)
	jne	.LBB11_94
# %bb.80:                               # %if.then328
                                        #   in Loop: Header=BB11_8 Depth=2
	movq	img, %rax
	cmpl	$3, 24(%rax)
	je	.LBB11_82
# %bb.81:                               # %if.then332
                                        #   in Loop: Header=BB11_8 Depth=2
	movl	-12(%rbp), %edi
	movl	-16(%rbp), %esi
	leaq	-20(%rbp), %rdx
	xorl	%ecx, %ecx
	callq	dct_luma
	movl	%eax, -24(%rbp)
	jmp	.LBB11_83
.LBB11_82:                              # %if.else334
                                        #   in Loop: Header=BB11_8 Depth=2
	movl	-12(%rbp), %edi
	movl	-16(%rbp), %esi
	leaq	-20(%rbp), %rdx
	callq	dct_luma_sp
	movl	%eax, -24(%rbp)
.LBB11_83:                              # %if.end336
                                        #   in Loop: Header=BB11_8 Depth=2
	movl	$0, -4(%rbp)
.LBB11_84:                              # %for.cond337
                                        #   Parent Loop BB11_6 Depth=1
                                        #     Parent Loop BB11_8 Depth=2
                                        # =>    This Loop Header: Depth=3
                                        #         Child Loop BB11_86 Depth 4
	cmpl	$4, -4(%rbp)
	jge	.LBB11_91
# %bb.85:                               # %for.body340
                                        #   in Loop: Header=BB11_84 Depth=3
	movl	$0, -8(%rbp)
.LBB11_86:                              # %for.cond341
                                        #   Parent Loop BB11_6 Depth=1
                                        #     Parent Loop BB11_8 Depth=2
                                        #       Parent Loop BB11_84 Depth=3
                                        # =>      This Inner Loop Header: Depth=4
	cmpl	$4, -8(%rbp)
	jge	.LBB11_89
# %bb.87:                               # %for.body344
                                        #   in Loop: Header=BB11_86 Depth=4
	movq	img, %rax
	addq	$13112, %rax            # imm = 0x3338
	movslq	-8(%rbp), %rcx
	shlq	$6, %rcx
	addq	%rcx, %rax
	movslq	-4(%rbp), %rcx
	movl	(%rax,%rcx,4), %eax
	movl	-8(%rbp), %ecx
	addl	-12(%rbp), %ecx
	movslq	%ecx, %rcx
	shlq	$6, %rcx
	movabsq	$rec_resG, %rdx
	addq	%rcx, %rdx
	movl	-4(%rbp), %ecx
	addl	-16(%rbp), %ecx
	movslq	%ecx, %rcx
	movl	%eax, (%rdx,%rcx,4)
# %bb.88:                               # %for.inc356
                                        #   in Loop: Header=BB11_86 Depth=4
	movl	-8(%rbp), %eax
	addl	$1, %eax
	movl	%eax, -8(%rbp)
	jmp	.LBB11_86
.LBB11_89:                              # %for.end358
                                        #   in Loop: Header=BB11_84 Depth=3
	jmp	.LBB11_90
.LBB11_90:                              # %for.inc359
                                        #   in Loop: Header=BB11_84 Depth=3
	movl	-4(%rbp), %eax
	addl	$1, %eax
	movl	%eax, -4(%rbp)
	jmp	.LBB11_84
.LBB11_91:                              # %for.end361
                                        #   in Loop: Header=BB11_8 Depth=2
	cmpl	$0, -24(%rbp)
	je	.LBB11_93
# %bb.92:                               # %if.then363
                                        #   in Loop: Header=BB11_8 Depth=2
	movl	-88(%rbp), %ecx
                                        # kill: def $cl killed $ecx
	movl	$1, %eax
	shll	%cl, %eax
	cltq
	movq	-96(%rbp), %rcx
	orq	(%rcx), %rax
	movq	%rax, (%rcx)
	movl	-68(%rbp), %eax
	movq	-104(%rbp), %rcx
	orl	(%rcx), %eax
	movl	%eax, (%rcx)
.LBB11_93:                              # %if.end368
                                        #   in Loop: Header=BB11_8 Depth=2
	jmp	.LBB11_94
.LBB11_94:                              # %if.end369
                                        #   in Loop: Header=BB11_8 Depth=2
	jmp	.LBB11_95
.LBB11_95:                              # %if.end370
                                        #   in Loop: Header=BB11_8 Depth=2
	jmp	.LBB11_96
.LBB11_96:                              # %for.inc371
                                        #   in Loop: Header=BB11_8 Depth=2
	movl	-64(%rbp), %eax
	addl	$4, %eax
	movl	%eax, -64(%rbp)
	movl	-12(%rbp), %eax
	addl	$4, %eax
	movl	%eax, -12(%rbp)
	jmp	.LBB11_8
.LBB11_97:                              # %for.end374
                                        #   in Loop: Header=BB11_6 Depth=1
	jmp	.LBB11_98
.LBB11_98:                              # %for.inc375
                                        #   in Loop: Header=BB11_6 Depth=1
	movl	-60(%rbp), %eax
	addl	$4, %eax
	movl	%eax, -60(%rbp)
	movl	-16(%rbp), %eax
	addl	$4, %eax
	movl	%eax, -16(%rbp)
	jmp	.LBB11_6
.LBB11_99:                              # %for.end378
	cmpl	$0, -52(%rbp)
	je	.LBB11_118
# %bb.100:                              # %if.then380
	movq	img, %rax
	cmpl	$1, 72392(%rax)
	je	.LBB11_117
# %bb.101:                              # %land.lhs.true384
	cmpl	$0, -56(%rbp)
	jne	.LBB11_117
# %bb.102:                              # %if.then386
	movq	img, %rax
	cmpl	$3, 24(%rax)
	je	.LBB11_104
# %bb.103:                              # %if.then390
	movl	-28(%rbp), %edi
	leaq	-20(%rbp), %rsi
	xorl	%edx, %edx
	callq	dct_luma8x8
	movl	%eax, -24(%rbp)
.LBB11_104:                             # %if.end392
	movq	img, %rax
	cmpl	$0, 72724(%rax)
	je	.LBB11_114
# %bb.105:                              # %if.then395
	movl	$0, -4(%rbp)
.LBB11_106:                             # %for.cond396
                                        # =>This Loop Header: Depth=1
                                        #     Child Loop BB11_108 Depth 2
	cmpl	$8, -4(%rbp)
	jge	.LBB11_113
# %bb.107:                              # %for.body399
                                        #   in Loop: Header=BB11_106 Depth=1
	movl	$0, -8(%rbp)
.LBB11_108:                             # %for.cond400
                                        #   Parent Loop BB11_106 Depth=1
                                        # =>  This Inner Loop Header: Depth=2
	cmpl	$8, -8(%rbp)
	jge	.LBB11_111
# %bb.109:                              # %for.body403
                                        #   in Loop: Header=BB11_108 Depth=2
	movq	img, %rax
	addq	$13112, %rax            # imm = 0x3338
	movslq	-8(%rbp), %rcx
	shlq	$6, %rcx
	addq	%rcx, %rax
	movslq	-4(%rbp), %rcx
	movl	(%rax,%rcx,4), %eax
	movl	-32(%rbp), %ecx
	addl	-8(%rbp), %ecx
	movslq	%ecx, %rcx
	shlq	$6, %rcx
	movabsq	$rec_resG, %rdx
	addq	%rcx, %rdx
	movl	-36(%rbp), %ecx
	addl	-4(%rbp), %ecx
	movslq	%ecx, %rcx
	movl	%eax, (%rdx,%rcx,4)
# %bb.110:                              # %for.inc415
                                        #   in Loop: Header=BB11_108 Depth=2
	movl	-8(%rbp), %eax
	addl	$1, %eax
	movl	%eax, -8(%rbp)
	jmp	.LBB11_108
.LBB11_111:                             # %for.end417
                                        #   in Loop: Header=BB11_106 Depth=1
	jmp	.LBB11_112
.LBB11_112:                             # %for.inc418
                                        #   in Loop: Header=BB11_106 Depth=1
	movl	-4(%rbp), %eax
	addl	$1, %eax
	movl	%eax, -4(%rbp)
	jmp	.LBB11_106
.LBB11_113:                             # %for.end420
	jmp	.LBB11_114
.LBB11_114:                             # %if.end421
	cmpl	$0, -24(%rbp)
	je	.LBB11_116
# %bb.115:                              # %if.then423
	movl	-28(%rbp), %ecx
	shll	$2, %ecx
	movl	-28(%rbp), %eax
	cltd
	movl	$2, %esi
	idivl	%esi
	shll	$1, %edx
	subl	%edx, %ecx
                                        # kill: def $cl killed $ecx
	movl	$51, %eax
	shll	%cl, %eax
	cltq
	movq	-96(%rbp), %rcx
	orq	(%rcx), %rax
	movq	%rax, (%rcx)
	movl	-68(%rbp), %eax
	movq	-104(%rbp), %rcx
	orl	(%rcx), %eax
	movl	%eax, (%rcx)
.LBB11_116:                             # %if.end431
	jmp	.LBB11_117
.LBB11_117:                             # %if.end432
	jmp	.LBB11_118
.LBB11_118:                             # %if.end433
	movq	img, %rax
	cmpl	$1, 72392(%rax)
	je	.LBB11_145
# %bb.119:                              # %land.lhs.true437
	cmpl	$0, -56(%rbp)
	jne	.LBB11_145
# %bb.120:                              # %land.lhs.true439
	cmpl	$4, -20(%rbp)
	jg	.LBB11_145
# %bb.121:                              # %land.lhs.true442
	movq	img, %rax
	movl	40(%rax), %eax
	movq	img, %rcx
	addl	72668(%rcx), %eax
	cmpl	$0, %eax
	jne	.LBB11_123
# %bb.122:                              # %lor.lhs.false
	movq	img, %rax
	cmpl	$0, 72704(%rax)
	jne	.LBB11_145
.LBB11_123:                             # %if.then448
	movl	$0, -20(%rbp)
	movl	$63, %eax
	subl	-68(%rbp), %eax
	movq	-104(%rbp), %rcx
	andl	(%rcx), %eax
	movl	%eax, (%rcx)
	movl	-28(%rbp), %ecx
	shll	$2, %ecx
	movl	-28(%rbp), %eax
	cltd
	movl	$2, %esi
	idivl	%esi
	shll	$1, %edx
	subl	%edx, %ecx
                                        # kill: def $cl killed $ecx
	movl	$51, %eax
	shll	%cl, %eax
	xorl	$-1, %eax
	cltq
	movq	-96(%rbp), %rcx
	andq	(%rcx), %rax
	movq	%rax, (%rcx)
	movl	-32(%rbp), %eax
	movl	%eax, -8(%rbp)
.LBB11_124:                             # %for.cond457
                                        # =>This Loop Header: Depth=1
                                        #     Child Loop BB11_126 Depth 2
	movl	-8(%rbp), %eax
	movl	-32(%rbp), %ecx
	addl	$8, %ecx
	cmpl	%ecx, %eax
	jge	.LBB11_134
# %bb.125:                              # %for.body461
                                        #   in Loop: Header=BB11_124 Depth=1
	movl	-36(%rbp), %eax
	movl	%eax, -4(%rbp)
.LBB11_126:                             # %for.cond462
                                        #   Parent Loop BB11_124 Depth=1
                                        # =>  This Inner Loop Header: Depth=2
	movl	-4(%rbp), %eax
	movl	-36(%rbp), %ecx
	addl	$8, %ecx
	cmpl	%ecx, %eax
	jge	.LBB11_132
# %bb.127:                              # %for.body466
                                        #   in Loop: Header=BB11_126 Depth=2
	movq	img, %rax
	cmpl	$0, 72724(%rax)
	jne	.LBB11_129
# %bb.128:                              # %if.then469
                                        #   in Loop: Header=BB11_126 Depth=2
	movq	img, %rax
	addq	$12600, %rax            # imm = 0x3138
	movslq	-8(%rbp), %rcx
	shlq	$5, %rcx
	addq	%rcx, %rax
	movslq	-4(%rbp), %rcx
	movw	(%rax,%rcx,2), %ax
	movq	enc_picture, %rcx
	movq	6424(%rcx), %rcx
	movq	img, %rdx
	movl	156(%rdx), %edx
	addl	-4(%rbp), %edx
	movslq	%edx, %rdx
	movq	(%rcx,%rdx,8), %rcx
	movq	img, %rdx
	movl	152(%rdx), %edx
	addl	-8(%rbp), %edx
	movslq	%edx, %rdx
	movw	%ax, (%rcx,%rdx,2)
	jmp	.LBB11_130
.LBB11_129:                             # %if.else481
                                        #   in Loop: Header=BB11_126 Depth=2
	movslq	-8(%rbp), %rax
	shlq	$6, %rax
	movabsq	$rec_resG, %rcx
	addq	%rax, %rcx
	movslq	-4(%rbp), %rax
	movl	$0, (%rcx,%rax,4)
.LBB11_130:                             # %if.end486
                                        #   in Loop: Header=BB11_126 Depth=2
	jmp	.LBB11_131
.LBB11_131:                             # %for.inc487
                                        #   in Loop: Header=BB11_126 Depth=2
	movl	-4(%rbp), %eax
	addl	$1, %eax
	movl	%eax, -4(%rbp)
	jmp	.LBB11_126
.LBB11_132:                             # %for.end489
                                        #   in Loop: Header=BB11_124 Depth=1
	jmp	.LBB11_133
.LBB11_133:                             # %for.inc490
                                        #   in Loop: Header=BB11_124 Depth=1
	movl	-8(%rbp), %eax
	addl	$1, %eax
	movl	%eax, -8(%rbp)
	jmp	.LBB11_124
.LBB11_134:                             # %for.end492
	movq	img, %rax
	cmpl	$3, 24(%rax)
	jne	.LBB11_144
# %bb.135:                              # %if.then496
	movl	-32(%rbp), %eax
	movl	%eax, -8(%rbp)
.LBB11_136:                             # %for.cond497
                                        # =>This Loop Header: Depth=1
                                        #     Child Loop BB11_138 Depth 2
	movl	-8(%rbp), %eax
	movl	-32(%rbp), %ecx
	addl	$8, %ecx
	cmpl	%ecx, %eax
	jge	.LBB11_143
# %bb.137:                              # %for.body501
                                        #   in Loop: Header=BB11_136 Depth=1
	movl	-36(%rbp), %eax
	movl	%eax, -4(%rbp)
.LBB11_138:                             # %for.cond502
                                        #   Parent Loop BB11_136 Depth=1
                                        # =>  This Inner Loop Header: Depth=2
	movl	-4(%rbp), %eax
	movl	-36(%rbp), %ecx
	addl	$8, %ecx
	cmpl	%ecx, %eax
	jge	.LBB11_141
# %bb.139:                              # %for.body506
                                        #   in Loop: Header=BB11_138 Depth=2
	movl	-8(%rbp), %edi
	movl	-4(%rbp), %esi
	callq	copyblock_sp
# %bb.140:                              # %for.inc507
                                        #   in Loop: Header=BB11_138 Depth=2
	movl	-4(%rbp), %eax
	addl	$4, %eax
	movl	%eax, -4(%rbp)
	jmp	.LBB11_138
.LBB11_141:                             # %for.end509
                                        #   in Loop: Header=BB11_136 Depth=1
	jmp	.LBB11_142
.LBB11_142:                             # %for.inc510
                                        #   in Loop: Header=BB11_136 Depth=1
	movl	-8(%rbp), %eax
	addl	$4, %eax
	movl	%eax, -8(%rbp)
	jmp	.LBB11_136
.LBB11_143:                             # %for.end512
	jmp	.LBB11_144
.LBB11_144:                             # %if.end513
	jmp	.LBB11_145
.LBB11_145:                             # %if.end514
	movl	-20(%rbp), %eax
	addq	$144, %rsp
	popq	%rbp
	.cfi_def_cfa %rsp, 8
	retq
.Lfunc_end11:
	.size	LumaResidualCoding8x8, .Lfunc_end11-LumaResidualCoding8x8
	.cfi_endproc
                                        # -- End function
	.globl	ChromaPrediction4x4     # -- Begin function ChromaPrediction4x4
	.p2align	4, 0x90
	.type	ChromaPrediction4x4,@function
ChromaPrediction4x4:                    # @ChromaPrediction4x4
	.cfi_startproc
# %bb.0:                                # %entry
	pushq	%rbp
	.cfi_def_cfa_offset 16
	.cfi_offset %rbp, -16
	movq	%rsp, %rbp
	.cfi_def_cfa_register %rbp
	subq	$96, %rsp
	movw	24(%rbp), %ax
	movw	16(%rbp), %ax
	movl	%edi, -12(%rbp)
	movl	%esi, -24(%rbp)
	movl	%edx, -20(%rbp)
	movl	%ecx, -16(%rbp)
	movl	%r8d, -56(%rbp)
	movl	%r9d, -52(%rbp)
	movl	-24(%rbp), %eax
	addl	$4, %eax
	movl	%eax, -32(%rbp)
	movl	-20(%rbp), %eax
	addl	$4, %eax
	movl	%eax, -28(%rbp)
	movabsq	$ChromaPrediction4x4.fw_pred, %rax
	movq	%rax, -48(%rbp)
	movabsq	$ChromaPrediction4x4.bw_pred, %rax
	movq	%rax, -40(%rbp)
	movq	img, %rax
	movq	71928(%rax), %rax
	movq	%rax, -64(%rbp)
	movq	img, %rax
	movq	14168(%rax), %rax
	movq	img, %rcx
	movslq	12(%rcx), %rcx
	imulq	$632, %rcx, %rcx        # imm = 0x278
	addq	%rcx, %rax
	movq	%rax, -80(%rbp)
	movq	active_pps, %rax
	cmpl	$0, 192(%rax)
	je	.LBB12_3
# %bb.1:                                # %land.lhs.true
	movq	img, %rax
	cmpl	$0, 24(%rax)
	movb	$1, %al
	je	.LBB12_6
# %bb.2:                                # %lor.lhs.false
	movq	img, %rax
	cmpl	$3, 24(%rax)
	movb	$1, %al
	je	.LBB12_6
.LBB12_3:                               # %lor.rhs
	xorl	%eax, %eax
	movq	active_pps, %rcx
	cmpl	$0, 196(%rcx)
	je	.LBB12_5
# %bb.4:                                # %land.rhs
	movq	img, %rax
	cmpl	$1, 24(%rax)
	sete	%al
.LBB12_5:                               # %land.end
.LBB12_6:                               # %lor.end
	andb	$1, %al
	movzbl	%al, %eax
	movl	%eax, -68(%rbp)
	movq	-80(%rbp), %rax
	cmpl	$0, 580(%rax)
	je	.LBB12_16
# %bb.7:                                # %land.lhs.true8
	movswl	16(%rbp), %eax
	cmpl	$0, %eax
	jne	.LBB12_16
# %bb.8:                                # %land.lhs.true11
	movswl	24(%rbp), %eax
	cmpl	$0, %eax
	jne	.LBB12_16
# %bb.9:                                # %land.lhs.true15
	cmpl	$2, -16(%rbp)
	jne	.LBB12_16
# %bb.10:                               # %land.lhs.true18
	cmpl	$1, -56(%rbp)
	jne	.LBB12_16
# %bb.11:                               # %land.lhs.true21
	cmpl	$1, -52(%rbp)
	jne	.LBB12_16
# %bb.12:                               # %if.then
	movq	-80(%rbp), %rax
	cmpl	$1, 580(%rax)
	jne	.LBB12_14
# %bb.13:                               # %cond.true
	movq	img, %rax
	movq	71936(%rax), %rax
	jmp	.LBB12_15
.LBB12_14:                              # %cond.false
	movq	img, %rax
	movq	71944(%rax), %rax
.LBB12_15:                              # %cond.end
	movq	%rax, -64(%rbp)
.LBB12_16:                              # %if.end
	cmpl	$-1, -16(%rbp)
	jne	.LBB12_18
# %bb.17:                               # %if.then29
	movl	-12(%rbp), %edi
	movl	-24(%rbp), %esi
	movl	-20(%rbp), %edx
	callq	IntraChromaPrediction4x4
	jmp	.LBB12_87
.LBB12_18:                              # %if.end30
	cmpl	$0, -16(%rbp)
	je	.LBB12_20
# %bb.19:                               # %lor.lhs.false33
	cmpl	$2, -16(%rbp)
	jne	.LBB12_21
.LBB12_20:                              # %if.then36
	movl	-24(%rbp), %esi
	movl	-20(%rbp), %edx
	movq	-64(%rbp), %rcx
	movw	16(%rbp), %ax
	movl	-56(%rbp), %r10d
	movl	-12(%rbp), %r11d
	movabsq	$ChromaPrediction4x4.fw_pred, %rdi
	movl	$0, %r8d
	movswl	%ax, %r9d
	movl	%r10d, (%rsp)
	movl	%r11d, 8(%rsp)
	callq	OneComponentChromaPrediction4x4
.LBB12_21:                              # %if.end37
	cmpl	$1, -16(%rbp)
	je	.LBB12_23
# %bb.22:                               # %lor.lhs.false40
	cmpl	$2, -16(%rbp)
	jne	.LBB12_24
.LBB12_23:                              # %if.then43
	movl	-24(%rbp), %esi
	movl	-20(%rbp), %edx
	movq	-64(%rbp), %rcx
	movw	24(%rbp), %ax
	movl	-52(%rbp), %r10d
	movl	-12(%rbp), %r11d
	movabsq	$ChromaPrediction4x4.bw_pred, %rdi
	movl	$1, %r8d
	movswl	%ax, %r9d
	movl	%r10d, (%rsp)
	movl	%r11d, 8(%rsp)
	callq	OneComponentChromaPrediction4x4
.LBB12_24:                              # %if.end44
	cmpl	$0, -68(%rbp)
	je	.LBB12_56
# %bb.25:                               # %if.then46
	cmpl	$2, -16(%rbp)
	jne	.LBB12_35
# %bb.26:                               # %if.then49
	movl	-20(%rbp), %eax
	movl	%eax, -4(%rbp)
.LBB12_27:                              # %for.cond
                                        # =>This Loop Header: Depth=1
                                        #     Child Loop BB12_29 Depth 2
	movl	-4(%rbp), %eax
	cmpl	-28(%rbp), %eax
	jge	.LBB12_34
# %bb.28:                               # %for.body
                                        #   in Loop: Header=BB12_27 Depth=1
	movl	-24(%rbp), %eax
	movl	%eax, -8(%rbp)
.LBB12_29:                              # %for.cond52
                                        #   Parent Loop BB12_27 Depth=1
                                        # =>  This Inner Loop Header: Depth=2
	movl	-8(%rbp), %eax
	cmpl	-32(%rbp), %eax
	jge	.LBB12_32
# %bb.30:                               # %for.body55
                                        #   in Loop: Header=BB12_29 Depth=2
	movq	wbp_weight, %rax
	movq	(%rax), %rax
	movswq	16(%rbp), %rcx
	movq	(%rax,%rcx,8), %rax
	movswq	24(%rbp), %rcx
	movq	(%rax,%rcx,8), %rax
	movl	-12(%rbp), %ecx
	addl	$1, %ecx
	movslq	%ecx, %rcx
	movl	(%rax,%rcx,4), %edi
	movq	-48(%rbp), %rax
	movq	%rax, %rcx
	addq	$4, %rcx
	movq	%rcx, -48(%rbp)
	imull	(%rax), %edi
	movq	wbp_weight, %rax
	movq	8(%rax), %rax
	movswq	16(%rbp), %rcx
	movq	(%rax,%rcx,8), %rax
	movswq	24(%rbp), %rcx
	movq	(%rax,%rcx,8), %rax
	movl	-12(%rbp), %ecx
	addl	$1, %ecx
	movslq	%ecx, %rcx
	movl	(%rax,%rcx,4), %eax
	movq	-40(%rbp), %rcx
	movq	%rcx, %rdx
	addq	$4, %rdx
	movq	%rdx, -40(%rbp)
	imull	(%rcx), %eax
	addl	%eax, %edi
	movl	wp_chroma_round, %eax
	shll	$1, %eax
	addl	%eax, %edi
	movl	chroma_log_weight_denom, %ecx
	addl	$1, %ecx
                                        # kill: def $cl killed $ecx
	sarl	%cl, %edi
	movq	wp_offset, %rax
	movq	(%rax), %rax
	movswq	16(%rbp), %rcx
	movq	(%rax,%rcx,8), %rax
	movl	-12(%rbp), %ecx
	addl	$1, %ecx
	movslq	%ecx, %rcx
	movl	(%rax,%rcx,4), %eax
	movq	wp_offset, %rcx
	movq	8(%rcx), %rcx
	movswq	24(%rbp), %rdx
	movq	(%rcx,%rdx,8), %rcx
	movl	-12(%rbp), %edx
	addl	$1, %edx
	movslq	%edx, %rdx
	addl	(%rcx,%rdx,4), %eax
	addl	$1, %eax
	sarl	$1, %eax
	addl	%eax, %edi
	callq	clip1a_chr
	movq	img, %rcx
	addq	$12600, %rcx            # imm = 0x3138
	movslq	-8(%rbp), %rdx
	shlq	$5, %rdx
	addq	%rdx, %rcx
	movslq	-4(%rbp), %rdx
	movw	%ax, (%rcx,%rdx,2)
# %bb.31:                               # %for.inc
                                        #   in Loop: Header=BB12_29 Depth=2
	movl	-8(%rbp), %eax
	addl	$1, %eax
	movl	%eax, -8(%rbp)
	jmp	.LBB12_29
.LBB12_32:                              # %for.end
                                        #   in Loop: Header=BB12_27 Depth=1
	jmp	.LBB12_33
.LBB12_33:                              # %for.inc99
                                        #   in Loop: Header=BB12_27 Depth=1
	movl	-4(%rbp), %eax
	addl	$1, %eax
	movl	%eax, -4(%rbp)
	jmp	.LBB12_27
.LBB12_34:                              # %for.end101
	jmp	.LBB12_55
.LBB12_35:                              # %if.else
	cmpl	$0, -16(%rbp)
	jne	.LBB12_45
# %bb.36:                               # %if.then104
	movl	-20(%rbp), %eax
	movl	%eax, -4(%rbp)
.LBB12_37:                              # %for.cond105
                                        # =>This Loop Header: Depth=1
                                        #     Child Loop BB12_39 Depth 2
	movl	-4(%rbp), %eax
	cmpl	-28(%rbp), %eax
	jge	.LBB12_44
# %bb.38:                               # %for.body108
                                        #   in Loop: Header=BB12_37 Depth=1
	movl	-24(%rbp), %eax
	movl	%eax, -8(%rbp)
.LBB12_39:                              # %for.cond109
                                        #   Parent Loop BB12_37 Depth=1
                                        # =>  This Inner Loop Header: Depth=2
	movl	-8(%rbp), %eax
	cmpl	-32(%rbp), %eax
	jge	.LBB12_42
# %bb.40:                               # %for.body112
                                        #   in Loop: Header=BB12_39 Depth=2
	movq	wp_weight, %rax
	movq	(%rax), %rax
	movswq	16(%rbp), %rcx
	movq	(%rax,%rcx,8), %rax
	movl	-12(%rbp), %ecx
	addl	$1, %ecx
	movslq	%ecx, %rcx
	movl	(%rax,%rcx,4), %edi
	movq	-48(%rbp), %rax
	movq	%rax, %rcx
	addq	$4, %rcx
	movq	%rcx, -48(%rbp)
	imull	(%rax), %edi
	addl	wp_chroma_round, %edi
	movl	chroma_log_weight_denom, %ecx
                                        # kill: def $cl killed $ecx
	sarl	%cl, %edi
	movq	wp_offset, %rax
	movq	(%rax), %rax
	movswq	16(%rbp), %rcx
	movq	(%rax,%rcx,8), %rax
	movl	-12(%rbp), %ecx
	addl	$1, %ecx
	movslq	%ecx, %rcx
	addl	(%rax,%rcx,4), %edi
	callq	clip1a_chr
	movq	img, %rcx
	addq	$12600, %rcx            # imm = 0x3138
	movslq	-8(%rbp), %rdx
	shlq	$5, %rdx
	addq	%rdx, %rcx
	movslq	-4(%rbp), %rdx
	movw	%ax, (%rcx,%rdx,2)
# %bb.41:                               # %for.inc137
                                        #   in Loop: Header=BB12_39 Depth=2
	movl	-8(%rbp), %eax
	addl	$1, %eax
	movl	%eax, -8(%rbp)
	jmp	.LBB12_39
.LBB12_42:                              # %for.end139
                                        #   in Loop: Header=BB12_37 Depth=1
	jmp	.LBB12_43
.LBB12_43:                              # %for.inc140
                                        #   in Loop: Header=BB12_37 Depth=1
	movl	-4(%rbp), %eax
	addl	$1, %eax
	movl	%eax, -4(%rbp)
	jmp	.LBB12_37
.LBB12_44:                              # %for.end142
	jmp	.LBB12_54
.LBB12_45:                              # %if.else143
	movl	-20(%rbp), %eax
	movl	%eax, -4(%rbp)
.LBB12_46:                              # %for.cond144
                                        # =>This Loop Header: Depth=1
                                        #     Child Loop BB12_48 Depth 2
	movl	-4(%rbp), %eax
	cmpl	-28(%rbp), %eax
	jge	.LBB12_53
# %bb.47:                               # %for.body147
                                        #   in Loop: Header=BB12_46 Depth=1
	movl	-24(%rbp), %eax
	movl	%eax, -8(%rbp)
.LBB12_48:                              # %for.cond148
                                        #   Parent Loop BB12_46 Depth=1
                                        # =>  This Inner Loop Header: Depth=2
	movl	-8(%rbp), %eax
	cmpl	-32(%rbp), %eax
	jge	.LBB12_51
# %bb.49:                               # %for.body151
                                        #   in Loop: Header=BB12_48 Depth=2
	movq	wp_weight, %rax
	movq	8(%rax), %rax
	movswq	24(%rbp), %rcx
	movq	(%rax,%rcx,8), %rax
	movl	-12(%rbp), %ecx
	addl	$1, %ecx
	movslq	%ecx, %rcx
	movl	(%rax,%rcx,4), %edi
	movq	-40(%rbp), %rax
	movq	%rax, %rcx
	addq	$4, %rcx
	movq	%rcx, -40(%rbp)
	imull	(%rax), %edi
	addl	wp_chroma_round, %edi
	movl	chroma_log_weight_denom, %ecx
                                        # kill: def $cl killed $ecx
	sarl	%cl, %edi
	movq	wp_offset, %rax
	movq	8(%rax), %rax
	movswq	24(%rbp), %rcx
	movq	(%rax,%rcx,8), %rax
	movl	-12(%rbp), %ecx
	addl	$1, %ecx
	movslq	%ecx, %rcx
	addl	(%rax,%rcx,4), %edi
	callq	clip1a_chr
	movq	img, %rcx
	addq	$12600, %rcx            # imm = 0x3138
	movslq	-8(%rbp), %rdx
	shlq	$5, %rdx
	addq	%rdx, %rcx
	movslq	-4(%rbp), %rdx
	movw	%ax, (%rcx,%rdx,2)
# %bb.50:                               # %for.inc176
                                        #   in Loop: Header=BB12_48 Depth=2
	movl	-8(%rbp), %eax
	addl	$1, %eax
	movl	%eax, -8(%rbp)
	jmp	.LBB12_48
.LBB12_51:                              # %for.end178
                                        #   in Loop: Header=BB12_46 Depth=1
	jmp	.LBB12_52
.LBB12_52:                              # %for.inc179
                                        #   in Loop: Header=BB12_46 Depth=1
	movl	-4(%rbp), %eax
	addl	$1, %eax
	movl	%eax, -4(%rbp)
	jmp	.LBB12_46
.LBB12_53:                              # %for.end181
	jmp	.LBB12_54
.LBB12_54:                              # %if.end182
	jmp	.LBB12_55
.LBB12_55:                              # %if.end183
	jmp	.LBB12_87
.LBB12_56:                              # %if.else184
	cmpl	$2, -16(%rbp)
	jne	.LBB12_66
# %bb.57:                               # %if.then187
	movl	-20(%rbp), %eax
	movl	%eax, -4(%rbp)
.LBB12_58:                              # %for.cond188
                                        # =>This Loop Header: Depth=1
                                        #     Child Loop BB12_60 Depth 2
	movl	-4(%rbp), %eax
	cmpl	-28(%rbp), %eax
	jge	.LBB12_65
# %bb.59:                               # %for.body191
                                        #   in Loop: Header=BB12_58 Depth=1
	movl	-24(%rbp), %eax
	movl	%eax, -8(%rbp)
.LBB12_60:                              # %for.cond192
                                        #   Parent Loop BB12_58 Depth=1
                                        # =>  This Inner Loop Header: Depth=2
	movl	-8(%rbp), %eax
	cmpl	-32(%rbp), %eax
	jge	.LBB12_63
# %bb.61:                               # %for.body195
                                        #   in Loop: Header=BB12_60 Depth=2
	movq	-48(%rbp), %rax
	movq	%rax, %rcx
	addq	$4, %rcx
	movq	%rcx, -48(%rbp)
	movl	(%rax), %eax
	movq	-40(%rbp), %rcx
	movq	%rcx, %rdx
	addq	$4, %rdx
	movq	%rdx, -40(%rbp)
	addl	(%rcx), %eax
	addl	$1, %eax
	cltd
	movl	$2, %ecx
	idivl	%ecx
	movq	img, %rcx
	addq	$12600, %rcx            # imm = 0x3138
	movslq	-8(%rbp), %rdx
	shlq	$5, %rdx
	addq	%rdx, %rcx
	movslq	-4(%rbp), %rdx
	movw	%ax, (%rcx,%rdx,2)
# %bb.62:                               # %for.inc206
                                        #   in Loop: Header=BB12_60 Depth=2
	movl	-8(%rbp), %eax
	addl	$1, %eax
	movl	%eax, -8(%rbp)
	jmp	.LBB12_60
.LBB12_63:                              # %for.end208
                                        #   in Loop: Header=BB12_58 Depth=1
	jmp	.LBB12_64
.LBB12_64:                              # %for.inc209
                                        #   in Loop: Header=BB12_58 Depth=1
	movl	-4(%rbp), %eax
	addl	$1, %eax
	movl	%eax, -4(%rbp)
	jmp	.LBB12_58
.LBB12_65:                              # %for.end211
	jmp	.LBB12_86
.LBB12_66:                              # %if.else212
	cmpl	$0, -16(%rbp)
	jne	.LBB12_76
# %bb.67:                               # %if.then215
	movl	-20(%rbp), %eax
	movl	%eax, -4(%rbp)
.LBB12_68:                              # %for.cond216
                                        # =>This Loop Header: Depth=1
                                        #     Child Loop BB12_70 Depth 2
	movl	-4(%rbp), %eax
	cmpl	-28(%rbp), %eax
	jge	.LBB12_75
# %bb.69:                               # %for.body219
                                        #   in Loop: Header=BB12_68 Depth=1
	movl	-24(%rbp), %eax
	movl	%eax, -8(%rbp)
.LBB12_70:                              # %for.cond220
                                        #   Parent Loop BB12_68 Depth=1
                                        # =>  This Inner Loop Header: Depth=2
	movl	-8(%rbp), %eax
	cmpl	-32(%rbp), %eax
	jge	.LBB12_73
# %bb.71:                               # %for.body223
                                        #   in Loop: Header=BB12_70 Depth=2
	movq	-48(%rbp), %rax
	movq	%rax, %rcx
	addq	$4, %rcx
	movq	%rcx, -48(%rbp)
	movl	(%rax), %eax
	movq	img, %rcx
	addq	$12600, %rcx            # imm = 0x3138
	movslq	-8(%rbp), %rdx
	shlq	$5, %rdx
	addq	%rdx, %rcx
	movslq	-4(%rbp), %rdx
	movw	%ax, (%rcx,%rdx,2)
# %bb.72:                               # %for.inc231
                                        #   in Loop: Header=BB12_70 Depth=2
	movl	-8(%rbp), %eax
	addl	$1, %eax
	movl	%eax, -8(%rbp)
	jmp	.LBB12_70
.LBB12_73:                              # %for.end233
                                        #   in Loop: Header=BB12_68 Depth=1
	jmp	.LBB12_74
.LBB12_74:                              # %for.inc234
                                        #   in Loop: Header=BB12_68 Depth=1
	movl	-4(%rbp), %eax
	addl	$1, %eax
	movl	%eax, -4(%rbp)
	jmp	.LBB12_68
.LBB12_75:                              # %for.end236
	jmp	.LBB12_85
.LBB12_76:                              # %if.else237
	movl	-20(%rbp), %eax
	movl	%eax, -4(%rbp)
.LBB12_77:                              # %for.cond238
                                        # =>This Loop Header: Depth=1
                                        #     Child Loop BB12_79 Depth 2
	movl	-4(%rbp), %eax
	cmpl	-28(%rbp), %eax
	jge	.LBB12_84
# %bb.78:                               # %for.body241
                                        #   in Loop: Header=BB12_77 Depth=1
	movl	-24(%rbp), %eax
	movl	%eax, -8(%rbp)
.LBB12_79:                              # %for.cond242
                                        #   Parent Loop BB12_77 Depth=1
                                        # =>  This Inner Loop Header: Depth=2
	movl	-8(%rbp), %eax
	cmpl	-32(%rbp), %eax
	jge	.LBB12_82
# %bb.80:                               # %for.body245
                                        #   in Loop: Header=BB12_79 Depth=2
	movq	-40(%rbp), %rax
	movq	%rax, %rcx
	addq	$4, %rcx
	movq	%rcx, -40(%rbp)
	movl	(%rax), %eax
	movq	img, %rcx
	addq	$12600, %rcx            # imm = 0x3138
	movslq	-8(%rbp), %rdx
	shlq	$5, %rdx
	addq	%rdx, %rcx
	movslq	-4(%rbp), %rdx
	movw	%ax, (%rcx,%rdx,2)
# %bb.81:                               # %for.inc253
                                        #   in Loop: Header=BB12_79 Depth=2
	movl	-8(%rbp), %eax
	addl	$1, %eax
	movl	%eax, -8(%rbp)
	jmp	.LBB12_79
.LBB12_82:                              # %for.end255
                                        #   in Loop: Header=BB12_77 Depth=1
	jmp	.LBB12_83
.LBB12_83:                              # %for.inc256
                                        #   in Loop: Header=BB12_77 Depth=1
	movl	-4(%rbp), %eax
	addl	$1, %eax
	movl	%eax, -4(%rbp)
	jmp	.LBB12_77
.LBB12_84:                              # %for.end258
	jmp	.LBB12_85
.LBB12_85:                              # %if.end259
	jmp	.LBB12_86
.LBB12_86:                              # %if.end260
	jmp	.LBB12_87
.LBB12_87:                              # %if.end261
	addq	$96, %rsp
	popq	%rbp
	.cfi_def_cfa %rsp, 8
	retq
.Lfunc_end12:
	.size	ChromaPrediction4x4, .Lfunc_end12-ChromaPrediction4x4
	.cfi_endproc
                                        # -- End function
	.globl	SetModesAndRefframe     # -- Begin function SetModesAndRefframe
	.p2align	4, 0x90
	.type	SetModesAndRefframe,@function
SetModesAndRefframe:                    # @SetModesAndRefframe
	.cfi_startproc
# %bb.0:                                # %entry
	pushq	%rbp
	.cfi_def_cfa_offset 16
	.cfi_offset %rbp, -16
	movq	%rsp, %rbp
	.cfi_def_cfa_register %rbp
	movl	%edi, -4(%rbp)
	movq	%rsi, -64(%rbp)
	movq	%rdx, -56(%rbp)
	movq	%rcx, -48(%rbp)
	movq	%r8, -40(%rbp)
	movq	%r9, -32(%rbp)
	movq	img, %rax
	movq	14168(%rax), %rax
	movq	img, %rcx
	movslq	12(%rcx), %rcx
	imulq	$632, %rcx, %rcx        # imm = 0x278
	addq	%rcx, %rax
	movq	%rax, -24(%rbp)
	movl	-4(%rbp), %eax
	cltd
	movl	$2, %ecx
	idivl	%ecx
	shll	$1, %eax
	movl	%eax, -12(%rbp)
	movl	-4(%rbp), %eax
	cltd
	idivl	%ecx
	shll	$1, %edx
	movl	%edx, -8(%rbp)
	movq	-32(%rbp), %rax
	movw	$-1, (%rax)
	movq	-40(%rbp), %rax
	movw	$-1, (%rax)
	movq	-48(%rbp), %rax
	movl	$-1, (%rax)
	movq	-56(%rbp), %rax
	movl	$-1, (%rax)
	movq	-24(%rbp), %rax
	movslq	-4(%rbp), %rcx
	movl	488(%rax,%rcx,4), %eax
	movq	-64(%rbp), %rcx
	movw	%ax, (%rcx)
	movq	img, %rax
	cmpl	$1, 24(%rax)
	je	.LBB13_2
# %bb.1:                                # %if.then
	movq	enc_picture, %rax
	movq	6480(%rax), %rax
	movq	(%rax), %rax
	movq	img, %rcx
	movl	144(%rcx), %ecx
	addl	-8(%rbp), %ecx
	movslq	%ecx, %rcx
	movq	(%rax,%rcx,8), %rax
	movq	img, %rcx
	movl	148(%rcx), %ecx
	addl	-12(%rbp), %ecx
	movslq	%ecx, %rcx
	movw	(%rax,%rcx,2), %ax
	movq	-40(%rbp), %rcx
	movw	%ax, (%rcx)
	movq	-32(%rbp), %rax
	movw	$0, (%rax)
	movq	-24(%rbp), %rax
	movslq	-4(%rbp), %rcx
	movl	472(%rax,%rcx,4), %eax
	movq	-56(%rbp), %rcx
	movl	%eax, (%rcx)
	movq	-48(%rbp), %rax
	movl	$0, (%rax)
	jmp	.LBB13_12
.LBB13_2:                               # %if.else
	movq	-24(%rbp), %rax
	movslq	-4(%rbp), %rcx
	cmpl	$-1, 488(%rax,%rcx,4)
	jne	.LBB13_4
# %bb.3:                                # %if.then18
	movq	-40(%rbp), %rax
	movw	$-1, (%rax)
	movq	-32(%rbp), %rax
	movw	$-1, (%rax)
	movq	-56(%rbp), %rax
	movl	$0, (%rax)
	movq	-48(%rbp), %rax
	movl	$0, (%rax)
	jmp	.LBB13_11
.LBB13_4:                               # %if.else19
	movq	-24(%rbp), %rax
	movslq	-4(%rbp), %rcx
	cmpl	$0, 488(%rax,%rcx,4)
	jne	.LBB13_6
# %bb.5:                                # %if.then25
	movq	enc_picture, %rax
	movq	6480(%rax), %rax
	movq	(%rax), %rax
	movq	img, %rcx
	movl	144(%rcx), %ecx
	addl	-8(%rbp), %ecx
	movslq	%ecx, %rcx
	movq	(%rax,%rcx,8), %rax
	movq	img, %rcx
	movl	148(%rcx), %ecx
	addl	-12(%rbp), %ecx
	movslq	%ecx, %rcx
	movw	(%rax,%rcx,2), %ax
	movq	-40(%rbp), %rcx
	movw	%ax, (%rcx)
	movq	-32(%rbp), %rax
	movw	$0, (%rax)
	movq	-24(%rbp), %rax
	movslq	-4(%rbp), %rcx
	movl	472(%rax,%rcx,4), %eax
	movq	-56(%rbp), %rcx
	movl	%eax, (%rcx)
	movq	-48(%rbp), %rax
	movl	$0, (%rax)
	jmp	.LBB13_10
.LBB13_6:                               # %if.else39
	movq	-24(%rbp), %rax
	movslq	-4(%rbp), %rcx
	cmpl	$1, 488(%rax,%rcx,4)
	jne	.LBB13_8
# %bb.7:                                # %if.then45
	movq	-40(%rbp), %rax
	movw	$0, (%rax)
	movq	enc_picture, %rax
	movq	6480(%rax), %rax
	movq	8(%rax), %rax
	movq	img, %rcx
	movl	144(%rcx), %ecx
	addl	-8(%rbp), %ecx
	movslq	%ecx, %rcx
	movq	(%rax,%rcx,8), %rax
	movq	img, %rcx
	movl	148(%rcx), %ecx
	addl	-12(%rbp), %ecx
	movslq	%ecx, %rcx
	movw	(%rax,%rcx,2), %ax
	movq	-32(%rbp), %rcx
	movw	%ax, (%rcx)
	movq	-56(%rbp), %rax
	movl	$0, (%rax)
	movq	-24(%rbp), %rax
	movslq	-4(%rbp), %rcx
	movl	472(%rax,%rcx,4), %eax
	movq	-48(%rbp), %rcx
	movl	%eax, (%rcx)
	jmp	.LBB13_9
.LBB13_8:                               # %if.else59
	movq	enc_picture, %rax
	movq	6480(%rax), %rax
	movq	(%rax), %rax
	movq	img, %rcx
	movl	144(%rcx), %ecx
	addl	-8(%rbp), %ecx
	movslq	%ecx, %rcx
	movq	(%rax,%rcx,8), %rax
	movq	img, %rcx
	movl	148(%rcx), %ecx
	addl	-12(%rbp), %ecx
	movslq	%ecx, %rcx
	movw	(%rax,%rcx,2), %ax
	movq	-40(%rbp), %rcx
	movw	%ax, (%rcx)
	movq	enc_picture, %rax
	movq	6480(%rax), %rax
	movq	8(%rax), %rax
	movq	img, %rcx
	movl	144(%rcx), %ecx
	addl	-8(%rbp), %ecx
	movslq	%ecx, %rcx
	movq	(%rax,%rcx,8), %rax
	movq	img, %rcx
	movl	148(%rcx), %ecx
	addl	-12(%rbp), %ecx
	movslq	%ecx, %rcx
	movw	(%rax,%rcx,2), %ax
	movq	-32(%rbp), %rcx
	movw	%ax, (%rcx)
	movq	-24(%rbp), %rax
	movslq	-4(%rbp), %rcx
	movl	472(%rax,%rcx,4), %eax
	movq	-56(%rbp), %rcx
	movl	%eax, (%rcx)
	movq	-24(%rbp), %rax
	movslq	-4(%rbp), %rcx
	movl	472(%rax,%rcx,4), %eax
	movq	-48(%rbp), %rcx
	movl	%eax, (%rcx)
.LBB13_9:                               # %if.end
	jmp	.LBB13_10
.LBB13_10:                              # %if.end86
	jmp	.LBB13_11
.LBB13_11:                              # %if.end87
	jmp	.LBB13_12
.LBB13_12:                              # %if.end88
	popq	%rbp
	.cfi_def_cfa %rsp, 8
	retq
.Lfunc_end13:
	.size	SetModesAndRefframe, .Lfunc_end13-SetModesAndRefframe
	.cfi_endproc
                                        # -- End function
	.globl	LumaResidualCoding      # -- Begin function LumaResidualCoding
	.p2align	4, 0x90
	.type	LumaResidualCoding,@function
LumaResidualCoding:                     # @LumaResidualCoding
	.cfi_startproc
# %bb.0:                                # %entry
	pushq	%rbp
	.cfi_def_cfa_offset 16
	.cfi_offset %rbp, -16
	movq	%rsp, %rbp
	.cfi_def_cfa_register %rbp
	subq	$64, %rsp
	movq	img, %rax
	movq	14168(%rax), %rax
	movq	img, %rcx
	movslq	12(%rcx), %rcx
	imulq	$632, %rcx, %rcx        # imm = 0x278
	addq	%rcx, %rax
	movq	%rax, -32(%rbp)
	movq	-32(%rbp), %rax
	movl	$0, 460(%rax)
	movq	-32(%rbp), %rax
	movq	$0, 464(%rax)
	movl	$0, -16(%rbp)
	movl	$0, -4(%rbp)
.LBB14_1:                               # %for.cond
                                        # =>This Inner Loop Header: Depth=1
	cmpl	$4, -4(%rbp)
	jge	.LBB14_4
# %bb.2:                                # %for.body
                                        #   in Loop: Header=BB14_1 Depth=1
	movl	-4(%rbp), %edi
	leaq	-22(%rbp), %rsi
	leaq	-40(%rbp), %rdx
	leaq	-36(%rbp), %rcx
	leaq	-20(%rbp), %r8
	leaq	-18(%rbp), %r9
	callq	SetModesAndRefframe
	movq	-32(%rbp), %rdi
	addq	$460, %rdi              # imm = 0x1CC
	movq	-32(%rbp), %rsi
	addq	$464, %rsi              # imm = 0x1D0
	movl	-4(%rbp), %edx
	movw	-22(%rbp), %ax
	movl	-40(%rbp), %r8d
	movl	-36(%rbp), %r9d
	movw	-20(%rbp), %r10w
	movswl	%ax, %ecx
	movswl	%r10w, %eax
	movl	%eax, (%rsp)
	movswl	-18(%rbp), %eax
	movl	%eax, 8(%rsp)
	callq	LumaResidualCoding8x8
	addl	-16(%rbp), %eax
	movl	%eax, -16(%rbp)
# %bb.3:                                # %for.inc
                                        #   in Loop: Header=BB14_1 Depth=1
	movl	-4(%rbp), %eax
	addl	$1, %eax
	movl	%eax, -4(%rbp)
	jmp	.LBB14_1
.LBB14_4:                               # %for.end
	cmpl	$5, -16(%rbp)
	jg	.LBB14_33
# %bb.5:                                # %land.lhs.true
	movq	img, %rax
	movl	40(%rax), %eax
	movq	img, %rcx
	addl	72668(%rcx), %eax
	cmpl	$0, %eax
	jne	.LBB14_7
# %bb.6:                                # %lor.lhs.false
	movq	img, %rax
	cmpl	$0, 72704(%rax)
	jne	.LBB14_33
.LBB14_7:                               # %if.then
	movq	-32(%rbp), %rax
	movl	460(%rax), %ecx
	andl	$16777200, %ecx         # imm = 0xFFFFF0
	movl	%ecx, 460(%rax)
	movq	-32(%rbp), %rax
	movq	464(%rax), %rcx
	andq	$16711680, %rcx         # imm = 0xFF0000
	movq	%rcx, 464(%rax)
	movl	$0, -12(%rbp)
.LBB14_8:                               # %for.cond10
                                        # =>This Loop Header: Depth=1
                                        #     Child Loop BB14_10 Depth 2
	cmpl	$16, -12(%rbp)
	jge	.LBB14_18
# %bb.9:                                # %for.body12
                                        #   in Loop: Header=BB14_8 Depth=1
	movl	$0, -8(%rbp)
.LBB14_10:                              # %for.cond13
                                        #   Parent Loop BB14_8 Depth=1
                                        # =>  This Inner Loop Header: Depth=2
	cmpl	$16, -8(%rbp)
	jge	.LBB14_16
# %bb.11:                               # %for.body15
                                        #   in Loop: Header=BB14_10 Depth=2
	movq	img, %rax
	cmpl	$0, 72724(%rax)
	jne	.LBB14_13
# %bb.12:                               # %if.then16
                                        #   in Loop: Header=BB14_10 Depth=2
	movq	img, %rax
	addq	$12600, %rax            # imm = 0x3138
	movslq	-12(%rbp), %rcx
	shlq	$5, %rcx
	addq	%rcx, %rax
	movslq	-8(%rbp), %rcx
	movw	(%rax,%rcx,2), %ax
	movq	enc_picture, %rcx
	movq	6424(%rcx), %rcx
	movq	img, %rdx
	movl	156(%rdx), %edx
	addl	-8(%rbp), %edx
	movslq	%edx, %rdx
	movq	(%rcx,%rdx,8), %rcx
	movq	img, %rdx
	movl	152(%rdx), %edx
	addl	-12(%rbp), %edx
	movslq	%edx, %rdx
	movw	%ax, (%rcx,%rdx,2)
	jmp	.LBB14_14
.LBB14_13:                              # %if.else
                                        #   in Loop: Header=BB14_10 Depth=2
	movslq	-12(%rbp), %rax
	shlq	$6, %rax
	movabsq	$rec_resG, %rcx
	addq	%rax, %rcx
	movslq	-8(%rbp), %rax
	movl	$0, (%rcx,%rax,4)
.LBB14_14:                              # %if.end
                                        #   in Loop: Header=BB14_10 Depth=2
	jmp	.LBB14_15
.LBB14_15:                              # %for.inc31
                                        #   in Loop: Header=BB14_10 Depth=2
	movl	-8(%rbp), %eax
	addl	$1, %eax
	movl	%eax, -8(%rbp)
	jmp	.LBB14_10
.LBB14_16:                              # %for.end33
                                        #   in Loop: Header=BB14_8 Depth=1
	jmp	.LBB14_17
.LBB14_17:                              # %for.inc34
                                        #   in Loop: Header=BB14_8 Depth=1
	movl	-12(%rbp), %eax
	addl	$1, %eax
	movl	%eax, -12(%rbp)
	jmp	.LBB14_8
.LBB14_18:                              # %for.end36
	movq	img, %rax
	cmpl	$3, 24(%rax)
	jne	.LBB14_32
# %bb.19:                               # %if.then38
	movl	$0, -4(%rbp)
.LBB14_20:                              # %for.cond39
                                        # =>This Loop Header: Depth=1
                                        #     Child Loop BB14_22 Depth 2
                                        #       Child Loop BB14_24 Depth 3
	cmpl	$4, -4(%rbp)
	jge	.LBB14_31
# %bb.21:                               # %for.body41
                                        #   in Loop: Header=BB14_20 Depth=1
	movl	-4(%rbp), %eax
	andl	$1, %eax
	shll	$3, %eax
	movl	%eax, -48(%rbp)
	movl	-4(%rbp), %eax
	andl	$2, %eax
	shll	$2, %eax
	movl	%eax, -44(%rbp)
	movl	$0, -12(%rbp)
.LBB14_22:                              # %for.cond45
                                        #   Parent Loop BB14_20 Depth=1
                                        # =>  This Loop Header: Depth=2
                                        #       Child Loop BB14_24 Depth 3
	cmpl	$8, -12(%rbp)
	jge	.LBB14_29
# %bb.23:                               # %for.body47
                                        #   in Loop: Header=BB14_22 Depth=2
	movl	$0, -8(%rbp)
.LBB14_24:                              # %for.cond48
                                        #   Parent Loop BB14_20 Depth=1
                                        #     Parent Loop BB14_22 Depth=2
                                        # =>    This Inner Loop Header: Depth=3
	cmpl	$8, -8(%rbp)
	jge	.LBB14_27
# %bb.25:                               # %for.body50
                                        #   in Loop: Header=BB14_24 Depth=3
	movl	-48(%rbp), %edi
	addl	-12(%rbp), %edi
	movl	-44(%rbp), %esi
	addl	-8(%rbp), %esi
	callq	copyblock_sp
# %bb.26:                               # %for.inc53
                                        #   in Loop: Header=BB14_24 Depth=3
	movl	-8(%rbp), %eax
	addl	$4, %eax
	movl	%eax, -8(%rbp)
	jmp	.LBB14_24
.LBB14_27:                              # %for.end55
                                        #   in Loop: Header=BB14_22 Depth=2
	jmp	.LBB14_28
.LBB14_28:                              # %for.inc56
                                        #   in Loop: Header=BB14_22 Depth=2
	movl	-12(%rbp), %eax
	addl	$4, %eax
	movl	%eax, -12(%rbp)
	jmp	.LBB14_22
.LBB14_29:                              # %for.end58
                                        #   in Loop: Header=BB14_20 Depth=1
	jmp	.LBB14_30
.LBB14_30:                              # %for.inc59
                                        #   in Loop: Header=BB14_20 Depth=1
	movl	-4(%rbp), %eax
	addl	$1, %eax
	movl	%eax, -4(%rbp)
	jmp	.LBB14_20
.LBB14_31:                              # %for.end61
	jmp	.LBB14_32
.LBB14_32:                              # %if.end62
	jmp	.LBB14_33
.LBB14_33:                              # %if.end63
	addq	$64, %rsp
	popq	%rbp
	.cfi_def_cfa %rsp, 8
	retq
.Lfunc_end14:
	.size	LumaResidualCoding, .Lfunc_end14-LumaResidualCoding
	.cfi_endproc
                                        # -- End function
	.globl	TransformDecision       # -- Begin function TransformDecision
	.p2align	4, 0x90
	.type	TransformDecision,@function
TransformDecision:                      # @TransformDecision
	.cfi_startproc
# %bb.0:                                # %entry
	pushq	%rbp
	.cfi_def_cfa_offset 16
	.cfi_offset %rbp, -16
	movq	%rsp, %rbp
	.cfi_def_cfa_register %rbp
	subq	$368, %rsp              # imm = 0x170
	movl	%edi, -36(%rbp)
	movq	%rsi, -88(%rbp)
	movl	$0, -28(%rbp)
	movl	$0, -24(%rbp)
	cmpl	$-1, -36(%rbp)
	jne	.LBB15_2
# %bb.1:                                # %if.then
	movl	$0, -4(%rbp)
	movl	$4, -52(%rbp)
	jmp	.LBB15_3
.LBB15_2:                               # %if.else
	movl	-36(%rbp), %eax
	movl	%eax, -4(%rbp)
	movl	-36(%rbp), %eax
	addl	$1, %eax
	movl	%eax, -52(%rbp)
.LBB15_3:                               # %if.end
	jmp	.LBB15_4
.LBB15_4:                               # %for.cond
                                        # =>This Loop Header: Depth=1
                                        #     Child Loop BB15_6 Depth 2
                                        #       Child Loop BB15_8 Depth 3
                                        #         Child Loop BB15_10 Depth 4
                                        #           Child Loop BB15_12 Depth 5
	movl	-4(%rbp), %eax
	cmpl	-52(%rbp), %eax
	jge	.LBB15_23
# %bb.5:                                # %for.body
                                        #   in Loop: Header=BB15_4 Depth=1
	movl	-4(%rbp), %edi
	leaq	-46(%rbp), %rsi
	leaq	-68(%rbp), %rdx
	leaq	-64(%rbp), %rcx
	leaq	-44(%rbp), %r8
	leaq	-42(%rbp), %r9
	callq	SetModesAndRefframe
	movl	-4(%rbp), %eax
	cltd
	movl	$2, %ecx
	idivl	%ecx
	shll	$3, %eax
	movl	%eax, -60(%rbp)
	movl	-4(%rbp), %eax
	cltd
	idivl	%ecx
	shll	$3, %edx
	movl	%edx, -56(%rbp)
	movl	$0, -32(%rbp)
	movl	-60(%rbp), %eax
	movl	%eax, -12(%rbp)
.LBB15_6:                               # %for.cond3
                                        #   Parent Loop BB15_4 Depth=1
                                        # =>  This Loop Header: Depth=2
                                        #       Child Loop BB15_8 Depth 3
                                        #         Child Loop BB15_10 Depth 4
                                        #           Child Loop BB15_12 Depth 5
	movl	-12(%rbp), %eax
	movl	-60(%rbp), %ecx
	addl	$8, %ecx
	cmpl	%ecx, %eax
	jge	.LBB15_21
# %bb.7:                                # %for.body6
                                        #   in Loop: Header=BB15_6 Depth=2
	movq	img, %rax
	movl	172(%rax), %eax
	addl	-12(%rbp), %eax
	movl	%eax, -76(%rbp)
	movl	-56(%rbp), %eax
	movl	%eax, -8(%rbp)
.LBB15_8:                               # %for.cond8
                                        #   Parent Loop BB15_4 Depth=1
                                        #     Parent Loop BB15_6 Depth=2
                                        # =>    This Loop Header: Depth=3
                                        #         Child Loop BB15_10 Depth 4
                                        #           Child Loop BB15_12 Depth 5
	movl	-8(%rbp), %eax
	movl	-56(%rbp), %ecx
	addl	$8, %ecx
	cmpl	%ecx, %eax
	jge	.LBB15_19
# %bb.9:                                # %for.body11
                                        #   in Loop: Header=BB15_8 Depth=3
	movq	img, %rax
	movl	168(%rax), %eax
	addl	-8(%rbp), %eax
	movl	%eax, -72(%rbp)
	movl	-8(%rbp), %edi
	movl	-12(%rbp), %esi
	movswl	-46(%rbp), %edx
	movl	-68(%rbp), %ecx
	movl	-64(%rbp), %r8d
	movw	-44(%rbp), %ax
	movswl	%ax, %r9d
	movswl	-42(%rbp), %eax
	movl	%eax, (%rsp)
	callq	LumaPrediction4x4
	movslq	-32(%rbp), %rax
	shlq	$2, %rax
	leaq	-352(%rbp), %rcx
	addq	%rax, %rcx
	movq	%rcx, -96(%rbp)
	movl	$0, -16(%rbp)
.LBB15_10:                              # %for.cond13
                                        #   Parent Loop BB15_4 Depth=1
                                        #     Parent Loop BB15_6 Depth=2
                                        #       Parent Loop BB15_8 Depth=3
                                        # =>      This Loop Header: Depth=4
                                        #           Child Loop BB15_12 Depth 5
	cmpl	$4, -16(%rbp)
	jge	.LBB15_17
# %bb.11:                               # %for.body16
                                        #   in Loop: Header=BB15_10 Depth=4
	movl	$0, -20(%rbp)
.LBB15_12:                              # %for.cond17
                                        #   Parent Loop BB15_4 Depth=1
                                        #     Parent Loop BB15_6 Depth=2
                                        #       Parent Loop BB15_8 Depth=3
                                        #         Parent Loop BB15_10 Depth=4
                                        # =>        This Inner Loop Header: Depth=5
	cmpl	$4, -20(%rbp)
	jge	.LBB15_15
# %bb.13:                               # %for.body20
                                        #   in Loop: Header=BB15_12 Depth=5
	movq	imgY_org, %rax
	movl	-76(%rbp), %ecx
	addl	-16(%rbp), %ecx
	movslq	%ecx, %rcx
	movq	(%rax,%rcx,8), %rax
	movl	-72(%rbp), %ecx
	addl	-20(%rbp), %ecx
	movslq	%ecx, %rcx
	movzwl	(%rax,%rcx,2), %eax
	movq	img, %rcx
	addq	$12600, %rcx            # imm = 0x3138
	movl	-20(%rbp), %edx
	addl	-8(%rbp), %edx
	movslq	%edx, %rdx
	shlq	$5, %rdx
	addq	%rdx, %rcx
	movl	-16(%rbp), %edx
	addl	-12(%rbp), %edx
	movslq	%edx, %rdx
	movzwl	(%rcx,%rdx,2), %ecx
	subl	%ecx, %eax
	movslq	-32(%rbp), %rcx
	movl	%eax, -352(%rbp,%rcx,4)
# %bb.14:                               # %for.inc
                                        #   in Loop: Header=BB15_12 Depth=5
	movl	-20(%rbp), %eax
	addl	$1, %eax
	movl	%eax, -20(%rbp)
	movl	-32(%rbp), %eax
	addl	$1, %eax
	movl	%eax, -32(%rbp)
	jmp	.LBB15_12
.LBB15_15:                              # %for.end
                                        #   in Loop: Header=BB15_10 Depth=4
	jmp	.LBB15_16
.LBB15_16:                              # %for.inc38
                                        #   in Loop: Header=BB15_10 Depth=4
	movl	-16(%rbp), %eax
	addl	$1, %eax
	movl	%eax, -16(%rbp)
	jmp	.LBB15_10
.LBB15_17:                              # %for.end40
                                        #   in Loop: Header=BB15_8 Depth=3
	movq	-96(%rbp), %rdi
	movq	input, %rax
	movl	24(%rax), %esi
	callq	SATD
	addl	-24(%rbp), %eax
	movl	%eax, -24(%rbp)
# %bb.18:                               # %for.inc42
                                        #   in Loop: Header=BB15_8 Depth=3
	movl	-8(%rbp), %eax
	addl	$4, %eax
	movl	%eax, -8(%rbp)
	jmp	.LBB15_8
.LBB15_19:                              # %for.end44
                                        #   in Loop: Header=BB15_6 Depth=2
	jmp	.LBB15_20
.LBB15_20:                              # %for.inc45
                                        #   in Loop: Header=BB15_6 Depth=2
	movl	-12(%rbp), %eax
	addl	$4, %eax
	movl	%eax, -12(%rbp)
	jmp	.LBB15_6
.LBB15_21:                              # %for.end47
                                        #   in Loop: Header=BB15_4 Depth=1
	leaq	-352(%rbp), %rdi
	movq	input, %rax
	movl	24(%rax), %esi
	callq	SATD8X8
	addl	-28(%rbp), %eax
	movl	%eax, -28(%rbp)
# %bb.22:                               # %for.inc51
                                        #   in Loop: Header=BB15_4 Depth=1
	movl	-4(%rbp), %eax
	addl	$1, %eax
	movl	%eax, -4(%rbp)
	jmp	.LBB15_4
.LBB15_23:                              # %for.end53
	movq	input, %rax
	cmpl	$2, 3220(%rax)
	jne	.LBB15_25
# %bb.24:                               # %if.then56
	movl	$1, -40(%rbp)
	jmp	.LBB15_28
.LBB15_25:                              # %if.else57
	movl	-28(%rbp), %eax
	cmpl	-24(%rbp), %eax
	jge	.LBB15_27
# %bb.26:                               # %if.then60
	movl	$1, -40(%rbp)
	jmp	.LBB15_28
.LBB15_27:                              # %if.else61
	movq	-88(%rbp), %rax
	movl	(%rax), %eax
	subl	-28(%rbp), %eax
	addl	-24(%rbp), %eax
	movq	-88(%rbp), %rcx
	movl	%eax, (%rcx)
	movl	$0, -40(%rbp)
.LBB15_28:                              # %return
	movl	-40(%rbp), %eax
	addq	$368, %rsp              # imm = 0x170
	popq	%rbp
	.cfi_def_cfa %rsp, 8
	retq
.Lfunc_end15:
	.size	TransformDecision, .Lfunc_end15-TransformDecision
	.cfi_endproc
                                        # -- End function
	.globl	OneComponentChromaPrediction4x4 # -- Begin function OneComponentChromaPrediction4x4
	.p2align	4, 0x90
	.type	OneComponentChromaPrediction4x4,@function
OneComponentChromaPrediction4x4:        # @OneComponentChromaPrediction4x4
	.cfi_startproc
# %bb.0:                                # %entry
	pushq	%rbp
	.cfi_def_cfa_offset 16
	.cfi_offset %rbp, -16
	movq	%rsp, %rbp
	.cfi_def_cfa_register %rbp
	subq	$16, %rsp
	movl	24(%rbp), %eax
	movl	16(%rbp), %eax
	xorl	%r10d, %r10d
	movq	%rdi, -136(%rbp)
	movl	%esi, -92(%rbp)
	movl	%edx, -88(%rbp)
	movq	%rcx, -144(%rbp)
	movl	%r8d, -84(%rbp)
	movw	%r9w, -22(%rbp)
	movq	img, %rcx
	movl	$64, %eax
	cltd
	idivl	72708(%rcx)
	movl	%eax, -8(%rbp)
	movl	-8(%rbp), %eax
	subl	$1, %eax
	movl	%eax, -32(%rbp)
	movq	img, %rcx
	movl	$64, %eax
	cltd
	idivl	72712(%rcx)
	movl	%eax, -4(%rbp)
	movl	-4(%rbp), %eax
	subl	$1, %eax
	movl	%eax, -28(%rbp)
	movl	-8(%rbp), %eax
	imull	-4(%rbp), %eax
	movl	%eax, -56(%rbp)
	movl	-56(%rbp), %eax
	sarl	$1, %eax
	movl	%eax, -112(%rbp)
	movq	img, %rax
	cmpl	$0, 72400(%rax)
	je	.LBB16_2
# %bb.1:                                # %land.rhs
	movq	img, %rax
	movq	14168(%rax), %rax
	movq	img, %rcx
	movslq	12(%rcx), %rcx
	imulq	$632, %rcx, %rcx        # imm = 0x278
	addq	%rcx, %rax
	cmpl	$0, 532(%rax)
	setne	%r10b
.LBB16_2:                               # %land.end
	andb	$1, %r10b
	movzbl	%r10b, %eax
	movl	%eax, -108(%rbp)
	cmpl	$0, -108(%rbp)
	je	.LBB16_7
# %bb.3:                                # %if.then
	movq	img, %rax
	movl	12(%rax), %eax
	cltd
	movl	$2, %ecx
	idivl	%ecx
	cmpl	$0, %edx
	je	.LBB16_5
# %bb.4:                                # %if.then7
	movl	$4, -44(%rbp)
	jmp	.LBB16_6
.LBB16_5:                               # %if.else
	movl	$2, -44(%rbp)
.LBB16_6:                               # %if.end
	movq	img, %rax
	movl	64(%rax), %eax
	cltd
	movl	$2, %ecx
	idivl	%ecx
	subl	$1, %eax
	movl	%eax, -16(%rbp)
	jmp	.LBB16_8
.LBB16_7:                               # %if.else10
	movl	$0, -44(%rbp)
	movq	img, %rax
	movl	64(%rax), %eax
	subl	$1, %eax
	movl	%eax, -16(%rbp)
.LBB16_8:                               # %if.end13
	movl	-84(%rbp), %eax
	addl	-44(%rbp), %eax
	cltq
	movq	listX(,%rax,8), %rax
	movq	%rax, -120(%rbp)
	movq	-120(%rbp), %rax
	movswq	-22(%rbp), %rcx
	movq	(%rax,%rcx,8), %rax
	movq	6464(%rax), %rax
	movslq	24(%rbp), %rcx
	movq	(%rax,%rcx,8), %rax
	movq	%rax, -104(%rbp)
	movl	$0, -36(%rbp)
.LBB16_9:                               # %for.cond
                                        # =>This Loop Header: Depth=1
                                        #     Child Loop BB16_11 Depth 2
	cmpl	$4, -36(%rbp)
	jge	.LBB16_52
# %bb.10:                               # %for.body
                                        #   in Loop: Header=BB16_9 Depth=1
	movl	$0, -40(%rbp)
.LBB16_11:                              # %for.cond20
                                        #   Parent Loop BB16_9 Depth=1
                                        # =>  This Inner Loop Header: Depth=2
	cmpl	$4, -40(%rbp)
	jge	.LBB16_50
# %bb.12:                               # %for.body22
                                        #   in Loop: Header=BB16_11 Depth=2
	movq	-144(%rbp), %rdi
	movl	-40(%rbp), %ecx
	addl	-92(%rbp), %ecx
	movq	img, %rax
	movl	72708(%rax), %eax
	cltd
	movl	$4, %r8d
	idivl	%r8d
	movl	%eax, %esi
	movl	%ecx, %eax
	cltd
	idivl	%esi
	cltq
	movq	(%rdi,%rax,8), %rdi
	movl	-36(%rbp), %ecx
	addl	-88(%rbp), %ecx
	movq	img, %rax
	movl	72712(%rax), %eax
	cltd
	idivl	%r8d
	movl	%eax, %esi
	movl	%ecx, %eax
	cltd
	idivl	%esi
	cltq
	movq	(%rdi,%rax,8), %rax
	movslq	-84(%rbp), %rcx
	movq	(%rax,%rcx,8), %rax
	movswq	-22(%rbp), %rcx
	movq	(%rax,%rcx,8), %rax
	movslq	16(%rbp), %rcx
	movq	(%rax,%rcx,8), %rax
	movq	%rax, -128(%rbp)
	movl	-40(%rbp), %eax
	addl	-92(%rbp), %eax
	movq	img, %rcx
	addl	176(%rcx), %eax
	imull	-8(%rbp), %eax
	movq	-128(%rbp), %rcx
	movswl	(%rcx), %ecx
	addl	%ecx, %eax
	movl	%eax, -20(%rbp)
	movl	-36(%rbp), %eax
	addl	-88(%rbp), %eax
	movq	img, %rcx
	addl	180(%rcx), %eax
	imull	-4(%rbp), %eax
	movq	-128(%rbp), %rcx
	movswl	2(%rcx), %ecx
	addl	%ecx, %eax
	movl	%eax, -12(%rbp)
	movq	-120(%rbp), %rax
	movswq	-22(%rbp), %rcx
	movq	(%rax,%rcx,8), %rax
	movl	6408(%rax), %eax
	addl	-12(%rbp), %eax
	movl	%eax, -12(%rbp)
	movq	img, %rax
	movl	56(%rax), %ecx
	subl	$1, %ecx
	movl	-20(%rbp), %eax
	cltd
	idivl	-8(%rbp)
	cmpl	%eax, %ecx
	jge	.LBB16_14
# %bb.13:                               # %cond.true
                                        #   in Loop: Header=BB16_11 Depth=2
	movq	img, %rax
	movl	56(%rax), %eax
	subl	$1, %eax
	jmp	.LBB16_15
.LBB16_14:                              # %cond.false
                                        #   in Loop: Header=BB16_11 Depth=2
	movl	-20(%rbp), %eax
	cltd
	idivl	-8(%rbp)
.LBB16_15:                              # %cond.end
                                        #   in Loop: Header=BB16_11 Depth=2
	xorl	%ecx, %ecx
	cmpl	%eax, %ecx
	jle	.LBB16_17
# %bb.16:                               # %cond.true64
                                        #   in Loop: Header=BB16_11 Depth=2
	xorl	%eax, %eax
	jmp	.LBB16_21
.LBB16_17:                              # %cond.false65
                                        #   in Loop: Header=BB16_11 Depth=2
	movq	img, %rax
	movl	56(%rax), %ecx
	subl	$1, %ecx
	movl	-20(%rbp), %eax
	cltd
	idivl	-8(%rbp)
	cmpl	%eax, %ecx
	jge	.LBB16_19
# %bb.18:                               # %cond.true71
                                        #   in Loop: Header=BB16_11 Depth=2
	movq	img, %rax
	movl	56(%rax), %eax
	subl	$1, %eax
	jmp	.LBB16_20
.LBB16_19:                              # %cond.false74
                                        #   in Loop: Header=BB16_11 Depth=2
	movl	-20(%rbp), %eax
	cltd
	idivl	-8(%rbp)
.LBB16_20:                              # %cond.end76
                                        #   in Loop: Header=BB16_11 Depth=2
.LBB16_21:                              # %cond.end78
                                        #   in Loop: Header=BB16_11 Depth=2
	movl	%eax, -80(%rbp)
	movl	-16(%rbp), %ecx
	movl	-12(%rbp), %eax
	cltd
	idivl	-4(%rbp)
	cmpl	%eax, %ecx
	jge	.LBB16_23
# %bb.22:                               # %cond.true83
                                        #   in Loop: Header=BB16_11 Depth=2
	movl	-16(%rbp), %eax
	jmp	.LBB16_24
.LBB16_23:                              # %cond.false84
                                        #   in Loop: Header=BB16_11 Depth=2
	movl	-12(%rbp), %eax
	cltd
	idivl	-4(%rbp)
.LBB16_24:                              # %cond.end86
                                        #   in Loop: Header=BB16_11 Depth=2
	xorl	%ecx, %ecx
	cmpl	%eax, %ecx
	jle	.LBB16_26
# %bb.25:                               # %cond.true90
                                        #   in Loop: Header=BB16_11 Depth=2
	xorl	%eax, %eax
	jmp	.LBB16_30
.LBB16_26:                              # %cond.false91
                                        #   in Loop: Header=BB16_11 Depth=2
	movl	-16(%rbp), %ecx
	movl	-12(%rbp), %eax
	cltd
	idivl	-4(%rbp)
	cmpl	%eax, %ecx
	jge	.LBB16_28
# %bb.27:                               # %cond.true95
                                        #   in Loop: Header=BB16_11 Depth=2
	movl	-16(%rbp), %eax
	jmp	.LBB16_29
.LBB16_28:                              # %cond.false96
                                        #   in Loop: Header=BB16_11 Depth=2
	movl	-12(%rbp), %eax
	cltd
	idivl	-4(%rbp)
.LBB16_29:                              # %cond.end98
                                        #   in Loop: Header=BB16_11 Depth=2
.LBB16_30:                              # %cond.end100
                                        #   in Loop: Header=BB16_11 Depth=2
	movl	%eax, -76(%rbp)
	movq	img, %rax
	movl	56(%rax), %ecx
	subl	$1, %ecx
	movl	-20(%rbp), %eax
	addl	-32(%rbp), %eax
	cltd
	idivl	-8(%rbp)
	cmpl	%eax, %ecx
	jge	.LBB16_32
# %bb.31:                               # %cond.true108
                                        #   in Loop: Header=BB16_11 Depth=2
	movq	img, %rax
	movl	56(%rax), %eax
	subl	$1, %eax
	jmp	.LBB16_33
.LBB16_32:                              # %cond.false111
                                        #   in Loop: Header=BB16_11 Depth=2
	movl	-20(%rbp), %eax
	addl	-32(%rbp), %eax
	cltd
	idivl	-8(%rbp)
.LBB16_33:                              # %cond.end114
                                        #   in Loop: Header=BB16_11 Depth=2
	xorl	%ecx, %ecx
	cmpl	%eax, %ecx
	jle	.LBB16_35
# %bb.34:                               # %cond.true118
                                        #   in Loop: Header=BB16_11 Depth=2
	xorl	%eax, %eax
	jmp	.LBB16_39
.LBB16_35:                              # %cond.false119
                                        #   in Loop: Header=BB16_11 Depth=2
	movq	img, %rax
	movl	56(%rax), %ecx
	subl	$1, %ecx
	movl	-20(%rbp), %eax
	addl	-32(%rbp), %eax
	cltd
	idivl	-8(%rbp)
	cmpl	%eax, %ecx
	jge	.LBB16_37
# %bb.36:                               # %cond.true126
                                        #   in Loop: Header=BB16_11 Depth=2
	movq	img, %rax
	movl	56(%rax), %eax
	subl	$1, %eax
	jmp	.LBB16_38
.LBB16_37:                              # %cond.false129
                                        #   in Loop: Header=BB16_11 Depth=2
	movl	-20(%rbp), %eax
	addl	-32(%rbp), %eax
	cltd
	idivl	-8(%rbp)
.LBB16_38:                              # %cond.end132
                                        #   in Loop: Header=BB16_11 Depth=2
.LBB16_39:                              # %cond.end134
                                        #   in Loop: Header=BB16_11 Depth=2
	movl	%eax, -72(%rbp)
	movl	-16(%rbp), %ecx
	movl	-12(%rbp), %eax
	addl	-28(%rbp), %eax
	cltd
	idivl	-4(%rbp)
	cmpl	%eax, %ecx
	jge	.LBB16_41
# %bb.40:                               # %cond.true140
                                        #   in Loop: Header=BB16_11 Depth=2
	movl	-16(%rbp), %eax
	jmp	.LBB16_42
.LBB16_41:                              # %cond.false141
                                        #   in Loop: Header=BB16_11 Depth=2
	movl	-12(%rbp), %eax
	addl	-28(%rbp), %eax
	cltd
	idivl	-4(%rbp)
.LBB16_42:                              # %cond.end144
                                        #   in Loop: Header=BB16_11 Depth=2
	xorl	%ecx, %ecx
	cmpl	%eax, %ecx
	jle	.LBB16_44
# %bb.43:                               # %cond.true148
                                        #   in Loop: Header=BB16_11 Depth=2
	xorl	%eax, %eax
	jmp	.LBB16_48
.LBB16_44:                              # %cond.false149
                                        #   in Loop: Header=BB16_11 Depth=2
	movl	-16(%rbp), %ecx
	movl	-12(%rbp), %eax
	addl	-28(%rbp), %eax
	cltd
	idivl	-4(%rbp)
	cmpl	%eax, %ecx
	jge	.LBB16_46
# %bb.45:                               # %cond.true154
                                        #   in Loop: Header=BB16_11 Depth=2
	movl	-16(%rbp), %eax
	jmp	.LBB16_47
.LBB16_46:                              # %cond.false155
                                        #   in Loop: Header=BB16_11 Depth=2
	movl	-12(%rbp), %eax
	addl	-28(%rbp), %eax
	cltd
	idivl	-4(%rbp)
.LBB16_47:                              # %cond.end158
                                        #   in Loop: Header=BB16_11 Depth=2
.LBB16_48:                              # %cond.end160
                                        #   in Loop: Header=BB16_11 Depth=2
	movl	%eax, -68(%rbp)
	movl	-20(%rbp), %eax
	andl	-32(%rbp), %eax
	movl	%eax, -52(%rbp)
	movl	-8(%rbp), %eax
	subl	-52(%rbp), %eax
	movl	%eax, -64(%rbp)
	movl	-12(%rbp), %eax
	andl	-28(%rbp), %eax
	movl	%eax, -48(%rbp)
	movl	-4(%rbp), %eax
	subl	-48(%rbp), %eax
	movl	%eax, -60(%rbp)
	movl	-64(%rbp), %eax
	imull	-60(%rbp), %eax
	movq	-104(%rbp), %rcx
	movslq	-76(%rbp), %rdx
	movq	(%rcx,%rdx,8), %rcx
	movslq	-80(%rbp), %rdx
	movzwl	(%rcx,%rdx,2), %ecx
	imull	%ecx, %eax
	movl	-52(%rbp), %ecx
	imull	-60(%rbp), %ecx
	movq	-104(%rbp), %rdx
	movslq	-76(%rbp), %rsi
	movq	(%rdx,%rsi,8), %rdx
	movslq	-72(%rbp), %rsi
	movzwl	(%rdx,%rsi,2), %edx
	imull	%edx, %ecx
	addl	%ecx, %eax
	movl	-64(%rbp), %ecx
	imull	-48(%rbp), %ecx
	movq	-104(%rbp), %rdx
	movslq	-68(%rbp), %rsi
	movq	(%rdx,%rsi,8), %rdx
	movslq	-80(%rbp), %rsi
	movzwl	(%rdx,%rsi,2), %edx
	imull	%edx, %ecx
	addl	%ecx, %eax
	movl	-52(%rbp), %ecx
	imull	-48(%rbp), %ecx
	movq	-104(%rbp), %rdx
	movslq	-68(%rbp), %rsi
	movq	(%rdx,%rsi,8), %rdx
	movslq	-72(%rbp), %rsi
	movzwl	(%rdx,%rsi,2), %edx
	imull	%edx, %ecx
	addl	%ecx, %eax
	addl	-112(%rbp), %eax
	cltd
	idivl	-56(%rbp)
	movq	-136(%rbp), %rcx
	movq	%rcx, %rdx
	addq	$4, %rdx
	movq	%rdx, -136(%rbp)
	movl	%eax, (%rcx)
# %bb.49:                               # %for.inc
                                        #   in Loop: Header=BB16_11 Depth=2
	movl	-40(%rbp), %eax
	addl	$1, %eax
	movl	%eax, -40(%rbp)
	jmp	.LBB16_11
.LBB16_50:                              # %for.end
                                        #   in Loop: Header=BB16_9 Depth=1
	jmp	.LBB16_51
.LBB16_51:                              # %for.inc198
                                        #   in Loop: Header=BB16_9 Depth=1
	movl	-36(%rbp), %eax
	addl	$1, %eax
	movl	%eax, -36(%rbp)
	jmp	.LBB16_9
.LBB16_52:                              # %for.end200
	addq	$16, %rsp
	popq	%rbp
	.cfi_def_cfa %rsp, 8
	retq
.Lfunc_end16:
	.size	OneComponentChromaPrediction4x4, .Lfunc_end16-OneComponentChromaPrediction4x4
	.cfi_endproc
                                        # -- End function
	.globl	IntraChromaPrediction4x4 # -- Begin function IntraChromaPrediction4x4
	.p2align	4, 0x90
	.type	IntraChromaPrediction4x4,@function
IntraChromaPrediction4x4:               # @IntraChromaPrediction4x4
	.cfi_startproc
# %bb.0:                                # %entry
	pushq	%rbp
	.cfi_def_cfa_offset 16
	.cfi_offset %rbp, -16
	movq	%rsp, %rbp
	.cfi_def_cfa_register %rbp
	movl	%edi, -24(%rbp)
	movl	%esi, -16(%rbp)
	movl	%edx, -12(%rbp)
	movq	img, %rax
	movq	14168(%rax), %rax
	movq	img, %rcx
	movslq	12(%rcx), %rcx
	imulq	$632, %rcx, %rcx        # imm = 0x278
	addq	%rcx, %rax
	movl	524(%rax), %eax
	movl	%eax, -20(%rbp)
	movl	-12(%rbp), %eax
	movl	%eax, -4(%rbp)
.LBB17_1:                               # %for.cond
                                        # =>This Loop Header: Depth=1
                                        #     Child Loop BB17_3 Depth 2
	movl	-4(%rbp), %eax
	movl	-12(%rbp), %ecx
	addl	$4, %ecx
	cmpl	%ecx, %eax
	jge	.LBB17_8
# %bb.2:                                # %for.body
                                        #   in Loop: Header=BB17_1 Depth=1
	movl	-16(%rbp), %eax
	movl	%eax, -8(%rbp)
.LBB17_3:                               # %for.cond1
                                        #   Parent Loop BB17_1 Depth=1
                                        # =>  This Inner Loop Header: Depth=2
	movl	-8(%rbp), %eax
	movl	-16(%rbp), %ecx
	addl	$4, %ecx
	cmpl	%ecx, %eax
	jge	.LBB17_6
# %bb.4:                                # %for.body4
                                        #   in Loop: Header=BB17_3 Depth=2
	movq	img, %rax
	addq	$8504, %rax             # imm = 0x2138
	movslq	-24(%rbp), %rcx
	shlq	$11, %rcx
	addq	%rcx, %rax
	movslq	-20(%rbp), %rcx
	shlq	$9, %rcx
	addq	%rcx, %rax
	movslq	-8(%rbp), %rcx
	shlq	$5, %rcx
	addq	%rcx, %rax
	movslq	-4(%rbp), %rcx
	movw	(%rax,%rcx,2), %ax
	movq	img, %rcx
	addq	$12600, %rcx            # imm = 0x3138
	movslq	-8(%rbp), %rdx
	shlq	$5, %rdx
	addq	%rdx, %rcx
	movslq	-4(%rbp), %rdx
	movw	%ax, (%rcx,%rdx,2)
# %bb.5:                                # %for.inc
                                        #   in Loop: Header=BB17_3 Depth=2
	movl	-8(%rbp), %eax
	addl	$1, %eax
	movl	%eax, -8(%rbp)
	jmp	.LBB17_3
.LBB17_6:                               # %for.end
                                        #   in Loop: Header=BB17_1 Depth=1
	jmp	.LBB17_7
.LBB17_7:                               # %for.inc17
                                        #   in Loop: Header=BB17_1 Depth=1
	movl	-4(%rbp), %eax
	addl	$1, %eax
	movl	%eax, -4(%rbp)
	jmp	.LBB17_1
.LBB17_8:                               # %for.end19
	popq	%rbp
	.cfi_def_cfa %rsp, 8
	retq
.Lfunc_end17:
	.size	IntraChromaPrediction4x4, .Lfunc_end17-IntraChromaPrediction4x4
	.cfi_endproc
                                        # -- End function
	.globl	ChromaResidualCoding    # -- Begin function ChromaResidualCoding
	.p2align	4, 0x90
	.type	ChromaResidualCoding,@function
ChromaResidualCoding:                   # @ChromaResidualCoding
	.cfi_startproc
# %bb.0:                                # %entry
	pushq	%rbp
	.cfi_def_cfa_offset 16
	.cfi_offset %rbp, -16
	movq	%rsp, %rbp
	.cfi_def_cfa_register %rbp
	subq	$288, %rsp              # imm = 0x120
	xorl	%eax, %eax
	movq	%rdi, -48(%rbp)
	movq	img, %rcx
	movq	14168(%rcx), %rcx
	movq	img, %rdx
	movslq	12(%rdx), %rdx
	imulq	$632, %rdx, %rdx        # imm = 0x278
	addq	%rdx, %rcx
	cmpl	$0, 72(%rcx)
	jne	.LBB18_4
# %bb.1:                                # %land.rhs
	movq	img, %rax
	cmpl	$0, 24(%rax)
	movb	$1, %al
	je	.LBB18_3
# %bb.2:                                # %lor.rhs
	movq	img, %rax
	cmpl	$3, 24(%rax)
	sete	%al
.LBB18_3:                               # %lor.end
.LBB18_4:                               # %land.end
	movabsq	$.L__const.ChromaResidualCoding.block8x8_idx, %rsi
	andb	$1, %al
	movzbl	%al, %eax
	movl	%eax, -36(%rbp)
	movq	img, %rax
	movl	72700(%rax), %eax
	subl	$1, %eax
	movl	%eax, -68(%rbp)
	leaq	-272(%rbp), %rdi
	movl	$192, %edx
	callq	memcpy
	movq	-48(%rbp), %rax
	movl	$0, (%rax)
	movl	$0, -12(%rbp)
.LBB18_5:                               # %for.cond
                                        # =>This Loop Header: Depth=1
                                        #     Child Loop BB18_7 Depth 2
                                        #       Child Loop BB18_9 Depth 3
                                        #     Child Loop BB18_16 Depth 2
                                        #       Child Loop BB18_18 Depth 3
                                        #     Child Loop BB18_33 Depth 2
                                        #       Child Loop BB18_35 Depth 3
                                        #     Child Loop BB18_43 Depth 2
                                        #       Child Loop BB18_45 Depth 3
                                        #     Child Loop BB18_58 Depth 2
                                        #       Child Loop BB18_60 Depth 3
                                        #     Child Loop BB18_87 Depth 2
                                        #       Child Loop BB18_89 Depth 3
	cmpl	$2, -12(%rbp)
	jge	.LBB18_102
# %bb.6:                                # %for.body
                                        #   in Loop: Header=BB18_5 Depth=1
	movl	$0, -64(%rbp)
	movl	$0, -24(%rbp)
.LBB18_7:                               # %for.cond5
                                        #   Parent Loop BB18_5 Depth=1
                                        # =>  This Loop Header: Depth=2
                                        #       Child Loop BB18_9 Depth 3
	movl	-24(%rbp), %eax
	movq	img, %rcx
	cmpl	72712(%rcx), %eax
	jge	.LBB18_14
# %bb.8:                                # %for.body7
                                        #   in Loop: Header=BB18_7 Depth=2
	movl	$0, -20(%rbp)
.LBB18_9:                               # %for.cond8
                                        #   Parent Loop BB18_5 Depth=1
                                        #     Parent Loop BB18_7 Depth=2
                                        # =>    This Inner Loop Header: Depth=3
	movl	-20(%rbp), %eax
	movq	img, %rcx
	cmpl	72708(%rcx), %eax
	jge	.LBB18_12
# %bb.10:                               # %for.body10
                                        #   in Loop: Header=BB18_9 Depth=3
	movslq	-68(%rbp), %rax
	shlq	$6, %rax
	leaq	-272(%rbp), %rcx
	addq	%rax, %rcx
	movl	-24(%rbp), %eax
	sarl	$2, %eax
	cltq
	shlq	$4, %rax
	addq	%rax, %rcx
	movl	-20(%rbp), %eax
	sarl	$2, %eax
	cltq
	movl	(%rcx,%rax,4), %eax
	movl	%eax, -64(%rbp)
	movl	-64(%rbp), %edi
	leaq	-54(%rbp), %rsi
	leaq	-76(%rbp), %rdx
	leaq	-72(%rbp), %rcx
	leaq	-52(%rbp), %r8
	leaq	-50(%rbp), %r9
	callq	SetModesAndRefframe
	movl	-12(%rbp), %edi
	movl	-20(%rbp), %esi
	movl	-24(%rbp), %edx
	movswl	-54(%rbp), %ecx
	movl	-76(%rbp), %r8d
	movl	-72(%rbp), %r9d
	movw	-52(%rbp), %ax
	cwtl
	movl	%eax, (%rsp)
	movswl	-50(%rbp), %eax
	movl	%eax, 8(%rsp)
	callq	ChromaPrediction4x4
# %bb.11:                               # %for.inc
                                        #   in Loop: Header=BB18_9 Depth=3
	movl	-20(%rbp), %eax
	addl	$4, %eax
	movl	%eax, -20(%rbp)
	jmp	.LBB18_9
.LBB18_12:                              # %for.end
                                        #   in Loop: Header=BB18_7 Depth=2
	jmp	.LBB18_13
.LBB18_13:                              # %for.inc18
                                        #   in Loop: Header=BB18_7 Depth=2
	movl	-24(%rbp), %eax
	addl	$4, %eax
	movl	%eax, -24(%rbp)
	jmp	.LBB18_7
.LBB18_14:                              # %for.end20
                                        #   in Loop: Header=BB18_5 Depth=1
	movq	img, %rax
	cmpl	$0, 72392(%rax)
	je	.LBB18_30
# %bb.15:                               # %if.then
                                        #   in Loop: Header=BB18_5 Depth=1
	movl	$0, -8(%rbp)
.LBB18_16:                              # %for.cond21
                                        #   Parent Loop BB18_5 Depth=1
                                        # =>  This Loop Header: Depth=2
                                        #       Child Loop BB18_18 Depth 3
	movl	-8(%rbp), %eax
	movq	img, %rcx
	cmpl	72712(%rcx), %eax
	jge	.LBB18_29
# %bb.17:                               # %for.body25
                                        #   in Loop: Header=BB18_16 Depth=2
	movl	$0, -4(%rbp)
.LBB18_18:                              # %for.cond26
                                        #   Parent Loop BB18_5 Depth=1
                                        #     Parent Loop BB18_16 Depth=2
                                        # =>    This Inner Loop Header: Depth=3
	movl	-4(%rbp), %eax
	movq	img, %rcx
	cmpl	72708(%rcx), %eax
	jge	.LBB18_27
# %bb.19:                               # %for.body30
                                        #   in Loop: Header=BB18_18 Depth=3
	movq	img, %rax
	cmpl	$0, 72724(%rax)
	jne	.LBB18_21
# %bb.20:                               # %if.then32
                                        #   in Loop: Header=BB18_18 Depth=3
	movq	img, %rax
	addq	$12600, %rax            # imm = 0x3138
	movslq	-4(%rbp), %rcx
	shlq	$5, %rcx
	addq	%rcx, %rax
	movslq	-8(%rbp), %rcx
	movw	(%rax,%rcx,2), %ax
	movq	enc_picture, %rcx
	movq	6464(%rcx), %rcx
	movslq	-12(%rbp), %rdx
	movq	(%rcx,%rdx,8), %rcx
	movq	img, %rdx
	movl	164(%rdx), %edx
	addl	-8(%rbp), %edx
	movslq	%edx, %rdx
	movq	(%rcx,%rdx,8), %rcx
	movq	img, %rdx
	movl	160(%rdx), %edx
	addl	-4(%rbp), %edx
	movslq	%edx, %rdx
	movw	%ax, (%rcx,%rdx,2)
	jmp	.LBB18_25
.LBB18_21:                              # %if.else
                                        #   in Loop: Header=BB18_18 Depth=3
	cmpl	$0, -12(%rbp)
	jne	.LBB18_23
# %bb.22:                               # %if.then47
                                        #   in Loop: Header=BB18_18 Depth=3
	movslq	-4(%rbp), %rax
	shlq	$6, %rax
	movabsq	$rec_resR, %rcx
	addq	%rax, %rcx
	movslq	-8(%rbp), %rax
	movl	$0, (%rcx,%rax,4)
	jmp	.LBB18_24
.LBB18_23:                              # %if.else52
                                        #   in Loop: Header=BB18_18 Depth=3
	movslq	-4(%rbp), %rax
	shlq	$6, %rax
	movabsq	$rec_resB, %rcx
	addq	%rax, %rcx
	movslq	-8(%rbp), %rax
	movl	$0, (%rcx,%rax,4)
.LBB18_24:                              # %if.end
                                        #   in Loop: Header=BB18_18 Depth=3
	jmp	.LBB18_25
.LBB18_25:                              # %if.end57
                                        #   in Loop: Header=BB18_18 Depth=3
	jmp	.LBB18_26
.LBB18_26:                              # %for.inc58
                                        #   in Loop: Header=BB18_18 Depth=3
	movl	-4(%rbp), %eax
	addl	$1, %eax
	movl	%eax, -4(%rbp)
	jmp	.LBB18_18
.LBB18_27:                              # %for.end59
                                        #   in Loop: Header=BB18_16 Depth=2
	jmp	.LBB18_28
.LBB18_28:                              # %for.inc60
                                        #   in Loop: Header=BB18_16 Depth=2
	movl	-8(%rbp), %eax
	addl	$1, %eax
	movl	%eax, -8(%rbp)
	jmp	.LBB18_16
.LBB18_29:                              # %for.end62
                                        #   in Loop: Header=BB18_5 Depth=1
	jmp	.LBB18_74
.LBB18_30:                              # %if.else63
                                        #   in Loop: Header=BB18_5 Depth=1
	cmpl	$0, -36(%rbp)
	je	.LBB18_41
# %bb.31:                               # %land.lhs.true
                                        #   in Loop: Header=BB18_5 Depth=1
	movq	img, %rax
	cmpl	$3, 24(%rax)
	jne	.LBB18_41
# %bb.32:                               # %if.then68
                                        #   in Loop: Header=BB18_5 Depth=1
	movl	$0, -8(%rbp)
.LBB18_33:                              # %for.cond69
                                        #   Parent Loop BB18_5 Depth=1
                                        # =>  This Loop Header: Depth=2
                                        #       Child Loop BB18_35 Depth 3
	cmpl	$8, -8(%rbp)
	jge	.LBB18_40
# %bb.34:                               # %for.body72
                                        #   in Loop: Header=BB18_33 Depth=2
	movl	$0, -4(%rbp)
.LBB18_35:                              # %for.cond73
                                        #   Parent Loop BB18_5 Depth=1
                                        #     Parent Loop BB18_33 Depth=2
                                        # =>    This Inner Loop Header: Depth=3
	cmpl	$8, -4(%rbp)
	jge	.LBB18_38
# %bb.36:                               # %for.body76
                                        #   in Loop: Header=BB18_35 Depth=3
	movq	img, %rax
	addq	$13112, %rax            # imm = 0x3338
	movslq	-4(%rbp), %rcx
	shlq	$6, %rcx
	addq	%rcx, %rax
	movslq	-8(%rbp), %rcx
	movl	$0, (%rax,%rcx,4)
# %bb.37:                               # %for.inc81
                                        #   in Loop: Header=BB18_35 Depth=3
	movl	-4(%rbp), %eax
	addl	$1, %eax
	movl	%eax, -4(%rbp)
	jmp	.LBB18_35
.LBB18_38:                              # %for.end83
                                        #   in Loop: Header=BB18_33 Depth=2
	jmp	.LBB18_39
.LBB18_39:                              # %for.inc84
                                        #   in Loop: Header=BB18_33 Depth=2
	movl	-8(%rbp), %eax
	addl	$1, %eax
	movl	%eax, -8(%rbp)
	jmp	.LBB18_33
.LBB18_40:                              # %for.end86
                                        #   in Loop: Header=BB18_5 Depth=1
	jmp	.LBB18_73
.LBB18_41:                              # %if.else87
                                        #   in Loop: Header=BB18_5 Depth=1
	cmpl	$0, -36(%rbp)
	je	.LBB18_57
# %bb.42:                               # %if.then89
                                        #   in Loop: Header=BB18_5 Depth=1
	movl	$0, -8(%rbp)
.LBB18_43:                              # %for.cond90
                                        #   Parent Loop BB18_5 Depth=1
                                        # =>  This Loop Header: Depth=2
                                        #       Child Loop BB18_45 Depth 3
	movl	-8(%rbp), %eax
	movq	img, %rcx
	cmpl	72712(%rcx), %eax
	jge	.LBB18_56
# %bb.44:                               # %for.body94
                                        #   in Loop: Header=BB18_43 Depth=2
	movl	$0, -4(%rbp)
.LBB18_45:                              # %for.cond95
                                        #   Parent Loop BB18_5 Depth=1
                                        #     Parent Loop BB18_43 Depth=2
                                        # =>    This Inner Loop Header: Depth=3
	movl	-4(%rbp), %eax
	movq	img, %rcx
	cmpl	72708(%rcx), %eax
	jge	.LBB18_54
# %bb.46:                               # %for.body99
                                        #   in Loop: Header=BB18_45 Depth=3
	movq	img, %rax
	cmpl	$0, 72724(%rax)
	jne	.LBB18_48
# %bb.47:                               # %if.then102
                                        #   in Loop: Header=BB18_45 Depth=3
	movq	img, %rax
	addq	$12600, %rax            # imm = 0x3138
	movslq	-4(%rbp), %rcx
	shlq	$5, %rcx
	addq	%rcx, %rax
	movslq	-8(%rbp), %rcx
	movw	(%rax,%rcx,2), %ax
	movq	enc_picture, %rcx
	movq	6464(%rcx), %rcx
	movslq	-12(%rbp), %rdx
	movq	(%rcx,%rdx,8), %rcx
	movq	img, %rdx
	movl	164(%rdx), %edx
	addl	-8(%rbp), %edx
	movslq	%edx, %rdx
	movq	(%rcx,%rdx,8), %rcx
	movq	img, %rdx
	movl	160(%rdx), %edx
	addl	-4(%rbp), %edx
	movslq	%edx, %rdx
	movw	%ax, (%rcx,%rdx,2)
	jmp	.LBB18_52
.LBB18_48:                              # %if.else119
                                        #   in Loop: Header=BB18_45 Depth=3
	cmpl	$0, -12(%rbp)
	jne	.LBB18_50
# %bb.49:                               # %if.then122
                                        #   in Loop: Header=BB18_45 Depth=3
	movslq	-4(%rbp), %rax
	shlq	$6, %rax
	movabsq	$rec_resR, %rcx
	addq	%rax, %rcx
	movslq	-8(%rbp), %rax
	movl	$0, (%rcx,%rax,4)
	jmp	.LBB18_51
.LBB18_50:                              # %if.else127
                                        #   in Loop: Header=BB18_45 Depth=3
	movslq	-4(%rbp), %rax
	shlq	$6, %rax
	movabsq	$rec_resB, %rcx
	addq	%rax, %rcx
	movslq	-8(%rbp), %rax
	movl	$0, (%rcx,%rax,4)
.LBB18_51:                              # %if.end132
                                        #   in Loop: Header=BB18_45 Depth=3
	jmp	.LBB18_52
.LBB18_52:                              # %if.end133
                                        #   in Loop: Header=BB18_45 Depth=3
	jmp	.LBB18_53
.LBB18_53:                              # %for.inc134
                                        #   in Loop: Header=BB18_45 Depth=3
	movl	-4(%rbp), %eax
	addl	$1, %eax
	movl	%eax, -4(%rbp)
	jmp	.LBB18_45
.LBB18_54:                              # %for.end136
                                        #   in Loop: Header=BB18_43 Depth=2
	jmp	.LBB18_55
.LBB18_55:                              # %for.inc137
                                        #   in Loop: Header=BB18_43 Depth=2
	movl	-8(%rbp), %eax
	addl	$1, %eax
	movl	%eax, -8(%rbp)
	jmp	.LBB18_43
.LBB18_56:                              # %for.end139
                                        #   in Loop: Header=BB18_5 Depth=1
	jmp	.LBB18_72
.LBB18_57:                              # %if.else140
                                        #   in Loop: Header=BB18_5 Depth=1
	movl	$0, -8(%rbp)
.LBB18_58:                              # %for.cond141
                                        #   Parent Loop BB18_5 Depth=1
                                        # =>  This Loop Header: Depth=2
                                        #       Child Loop BB18_60 Depth 3
	movl	-8(%rbp), %eax
	movq	img, %rcx
	cmpl	72712(%rcx), %eax
	jge	.LBB18_71
# %bb.59:                               # %for.body145
                                        #   in Loop: Header=BB18_58 Depth=2
	movl	$0, -4(%rbp)
.LBB18_60:                              # %for.cond146
                                        #   Parent Loop BB18_5 Depth=1
                                        #     Parent Loop BB18_58 Depth=2
                                        # =>    This Inner Loop Header: Depth=3
	movl	-4(%rbp), %eax
	movq	img, %rcx
	cmpl	72708(%rcx), %eax
	jge	.LBB18_69
# %bb.61:                               # %for.body150
                                        #   in Loop: Header=BB18_60 Depth=3
	movq	img, %rax
	cmpl	$0, 72724(%rax)
	jne	.LBB18_63
# %bb.62:                               # %if.then153
                                        #   in Loop: Header=BB18_60 Depth=3
	movq	imgUV_org, %rax
	movslq	-12(%rbp), %rcx
	movq	(%rax,%rcx,8), %rax
	movq	img, %rcx
	movl	180(%rcx), %ecx
	addl	-8(%rbp), %ecx
	movslq	%ecx, %rcx
	movq	(%rax,%rcx,8), %rax
	movq	img, %rcx
	movl	176(%rcx), %ecx
	addl	-4(%rbp), %ecx
	movslq	%ecx, %rcx
	movzwl	(%rax,%rcx,2), %eax
	movq	img, %rcx
	addq	$12600, %rcx            # imm = 0x3138
	movslq	-4(%rbp), %rdx
	shlq	$5, %rdx
	addq	%rdx, %rcx
	movslq	-8(%rbp), %rdx
	movzwl	(%rcx,%rdx,2), %ecx
	subl	%ecx, %eax
	movq	img, %rcx
	addq	$13112, %rcx            # imm = 0x3338
	movslq	-4(%rbp), %rdx
	shlq	$6, %rdx
	addq	%rdx, %rcx
	movslq	-8(%rbp), %rdx
	movl	%eax, (%rcx,%rdx,4)
	jmp	.LBB18_67
.LBB18_63:                              # %if.else175
                                        #   in Loop: Header=BB18_60 Depth=3
	cmpl	$0, -12(%rbp)
	jne	.LBB18_65
# %bb.64:                               # %if.then178
                                        #   in Loop: Header=BB18_60 Depth=3
	movslq	-4(%rbp), %rax
	shlq	$6, %rax
	movabsq	$resTrans_R, %rcx
	addq	%rax, %rcx
	movslq	-8(%rbp), %rax
	movl	(%rcx,%rax,4), %eax
	movq	img, %rcx
	addq	$13112, %rcx            # imm = 0x3338
	movslq	-4(%rbp), %rdx
	shlq	$6, %rdx
	addq	%rdx, %rcx
	movslq	-8(%rbp), %rdx
	movl	%eax, (%rcx,%rdx,4)
	jmp	.LBB18_66
.LBB18_65:                              # %if.else188
                                        #   in Loop: Header=BB18_60 Depth=3
	movslq	-4(%rbp), %rax
	shlq	$6, %rax
	movabsq	$resTrans_B, %rcx
	addq	%rax, %rcx
	movslq	-8(%rbp), %rax
	movl	(%rcx,%rax,4), %eax
	movq	img, %rcx
	addq	$13112, %rcx            # imm = 0x3338
	movslq	-4(%rbp), %rdx
	shlq	$6, %rdx
	addq	%rdx, %rcx
	movslq	-8(%rbp), %rdx
	movl	%eax, (%rcx,%rdx,4)
.LBB18_66:                              # %if.end198
                                        #   in Loop: Header=BB18_60 Depth=3
	jmp	.LBB18_67
.LBB18_67:                              # %if.end199
                                        #   in Loop: Header=BB18_60 Depth=3
	jmp	.LBB18_68
.LBB18_68:                              # %for.inc200
                                        #   in Loop: Header=BB18_60 Depth=3
	movl	-4(%rbp), %eax
	addl	$1, %eax
	movl	%eax, -4(%rbp)
	jmp	.LBB18_60
.LBB18_69:                              # %for.end202
                                        #   in Loop: Header=BB18_58 Depth=2
	jmp	.LBB18_70
.LBB18_70:                              # %for.inc203
                                        #   in Loop: Header=BB18_58 Depth=2
	movl	-8(%rbp), %eax
	addl	$1, %eax
	movl	%eax, -8(%rbp)
	jmp	.LBB18_58
.LBB18_71:                              # %for.end205
                                        #   in Loop: Header=BB18_5 Depth=1
	jmp	.LBB18_72
.LBB18_72:                              # %if.end206
                                        #   in Loop: Header=BB18_5 Depth=1
	jmp	.LBB18_73
.LBB18_73:                              # %if.end207
                                        #   in Loop: Header=BB18_5 Depth=1
	jmp	.LBB18_74
.LBB18_74:                              # %if.end208
                                        #   in Loop: Header=BB18_5 Depth=1
	cmpl	$0, -36(%rbp)
	je	.LBB18_77
# %bb.75:                               # %land.lhs.true210
                                        #   in Loop: Header=BB18_5 Depth=1
	movq	img, %rax
	cmpl	$3, 24(%rax)
	jne	.LBB18_77
# %bb.76:                               # %if.then214
                                        #   in Loop: Header=BB18_5 Depth=1
	movl	-12(%rbp), %edi
	movq	-48(%rbp), %rax
	movl	(%rax), %esi
	callq	dct_chroma_sp
	movq	-48(%rbp), %rcx
	movl	%eax, (%rcx)
	jmp	.LBB18_100
.LBB18_77:                              # %if.else215
                                        #   in Loop: Header=BB18_5 Depth=1
	movq	img, %rax
	cmpl	$0, 72392(%rax)
	jne	.LBB18_99
# %bb.78:                               # %land.lhs.true218
                                        #   in Loop: Header=BB18_5 Depth=1
	cmpl	$0, -36(%rbp)
	jne	.LBB18_99
# %bb.79:                               # %if.then220
                                        #   in Loop: Header=BB18_5 Depth=1
	movq	img, %rax
	cmpl	$3, 24(%rax)
	jne	.LBB18_83
# %bb.80:                               # %lor.lhs.false
                                        #   in Loop: Header=BB18_5 Depth=1
	movq	img, %rax
	movq	14168(%rax), %rax
	movq	img, %rcx
	movslq	12(%rcx), %rcx
	imulq	$632, %rcx, %rcx        # imm = 0x278
	addq	%rcx, %rax
	cmpl	$9, 72(%rax)
	je	.LBB18_83
# %bb.81:                               # %lor.lhs.false231
                                        #   in Loop: Header=BB18_5 Depth=1
	movq	img, %rax
	movq	14168(%rax), %rax
	movq	img, %rcx
	movslq	12(%rcx), %rcx
	imulq	$632, %rcx, %rcx        # imm = 0x278
	addq	%rcx, %rax
	cmpl	$10, 72(%rax)
	je	.LBB18_83
# %bb.82:                               # %lor.lhs.false239
                                        #   in Loop: Header=BB18_5 Depth=1
	movq	img, %rax
	movq	14168(%rax), %rax
	movq	img, %rcx
	movslq	12(%rcx), %rcx
	imulq	$632, %rcx, %rcx        # imm = 0x278
	addq	%rcx, %rax
	cmpl	$13, 72(%rax)
	jne	.LBB18_84
.LBB18_83:                              # %if.then247
                                        #   in Loop: Header=BB18_5 Depth=1
	movl	-12(%rbp), %edi
	movq	-48(%rbp), %rax
	movl	(%rax), %esi
	callq	dct_chroma
	movq	-48(%rbp), %rcx
	movl	%eax, (%rcx)
	jmp	.LBB18_85
.LBB18_84:                              # %if.else249
                                        #   in Loop: Header=BB18_5 Depth=1
	movl	-12(%rbp), %edi
	movq	-48(%rbp), %rax
	movl	(%rax), %esi
	callq	dct_chroma_sp
	movq	-48(%rbp), %rcx
	movl	%eax, (%rcx)
.LBB18_85:                              # %if.end251
                                        #   in Loop: Header=BB18_5 Depth=1
	movq	img, %rax
	cmpl	$0, 72724(%rax)
	je	.LBB18_98
# %bb.86:                               # %if.then254
                                        #   in Loop: Header=BB18_5 Depth=1
	movl	$0, -8(%rbp)
.LBB18_87:                              # %for.cond255
                                        #   Parent Loop BB18_5 Depth=1
                                        # =>  This Loop Header: Depth=2
                                        #       Child Loop BB18_89 Depth 3
	movl	-8(%rbp), %eax
	movq	img, %rcx
	cmpl	72712(%rcx), %eax
	jge	.LBB18_97
# %bb.88:                               # %for.body259
                                        #   in Loop: Header=BB18_87 Depth=2
	movl	$0, -4(%rbp)
.LBB18_89:                              # %for.cond260
                                        #   Parent Loop BB18_5 Depth=1
                                        #     Parent Loop BB18_87 Depth=2
                                        # =>    This Inner Loop Header: Depth=3
	movl	-4(%rbp), %eax
	movq	img, %rcx
	cmpl	72708(%rcx), %eax
	jge	.LBB18_95
# %bb.90:                               # %for.body264
                                        #   in Loop: Header=BB18_89 Depth=3
	cmpl	$0, -12(%rbp)
	jne	.LBB18_92
# %bb.91:                               # %if.then267
                                        #   in Loop: Header=BB18_89 Depth=3
	movq	img, %rax
	addq	$13112, %rax            # imm = 0x3338
	movslq	-4(%rbp), %rcx
	shlq	$6, %rcx
	addq	%rcx, %rax
	movslq	-8(%rbp), %rcx
	movl	(%rax,%rcx,4), %eax
	movslq	-4(%rbp), %rcx
	shlq	$6, %rcx
	movabsq	$rec_resR, %rdx
	addq	%rcx, %rdx
	movslq	-8(%rbp), %rcx
	movl	%eax, (%rdx,%rcx,4)
	jmp	.LBB18_93
.LBB18_92:                              # %if.else277
                                        #   in Loop: Header=BB18_89 Depth=3
	movq	img, %rax
	addq	$13112, %rax            # imm = 0x3338
	movslq	-4(%rbp), %rcx
	shlq	$6, %rcx
	addq	%rcx, %rax
	movslq	-8(%rbp), %rcx
	movl	(%rax,%rcx,4), %eax
	movslq	-4(%rbp), %rcx
	shlq	$6, %rcx
	movabsq	$rec_resB, %rdx
	addq	%rcx, %rdx
	movslq	-8(%rbp), %rcx
	movl	%eax, (%rdx,%rcx,4)
.LBB18_93:                              # %if.end287
                                        #   in Loop: Header=BB18_89 Depth=3
	jmp	.LBB18_94
.LBB18_94:                              # %for.inc288
                                        #   in Loop: Header=BB18_89 Depth=3
	movl	-4(%rbp), %eax
	addl	$1, %eax
	movl	%eax, -4(%rbp)
	jmp	.LBB18_89
.LBB18_95:                              # %for.end290
                                        #   in Loop: Header=BB18_87 Depth=2
	jmp	.LBB18_96
.LBB18_96:                              # %for.inc291
                                        #   in Loop: Header=BB18_87 Depth=2
	movl	-8(%rbp), %eax
	addl	$1, %eax
	movl	%eax, -8(%rbp)
	jmp	.LBB18_87
.LBB18_97:                              # %for.end293
                                        #   in Loop: Header=BB18_5 Depth=1
	jmp	.LBB18_98
.LBB18_98:                              # %if.end294
                                        #   in Loop: Header=BB18_5 Depth=1
	jmp	.LBB18_99
.LBB18_99:                              # %if.end295
                                        #   in Loop: Header=BB18_5 Depth=1
	jmp	.LBB18_100
.LBB18_100:                             # %if.end296
                                        #   in Loop: Header=BB18_5 Depth=1
	jmp	.LBB18_101
.LBB18_101:                             # %for.inc297
                                        #   in Loop: Header=BB18_5 Depth=1
	movl	-12(%rbp), %eax
	addl	$1, %eax
	movl	%eax, -12(%rbp)
	jmp	.LBB18_5
.LBB18_102:                             # %for.end299
	movq	-48(%rbp), %rax
	movl	(%rax), %eax
	shll	$4, %eax
	movq	img, %rcx
	movq	14168(%rcx), %rcx
	movq	img, %rdx
	movslq	12(%rdx), %rdx
	imulq	$632, %rdx, %rdx        # imm = 0x278
	addq	%rdx, %rcx
	addl	460(%rcx), %eax
	movl	%eax, 460(%rcx)
	movq	img, %rax
	cmpl	$0, 72724(%rax)
	je	.LBB18_139
# %bb.103:                              # %if.then307
	movl	$0, -8(%rbp)
.LBB18_104:                             # %for.cond308
                                        # =>This Loop Header: Depth=1
                                        #     Child Loop BB18_106 Depth 2
	cmpl	$16, -8(%rbp)
	jge	.LBB18_138
# %bb.105:                              # %for.body311
                                        #   in Loop: Header=BB18_104 Depth=1
	movl	$0, -4(%rbp)
.LBB18_106:                             # %for.cond312
                                        #   Parent Loop BB18_104 Depth=1
                                        # =>  This Inner Loop Header: Depth=2
	cmpl	$16, -4(%rbp)
	jge	.LBB18_136
# %bb.107:                              # %for.body315
                                        #   in Loop: Header=BB18_106 Depth=2
	xorl	%r8d, %r8d
	movabsq	$mprRGB, %rcx
	addq	$1024, %rcx             # imm = 0x400
	movslq	-4(%rbp), %rdx
	shlq	$6, %rdx
	movabsq	$rec_resG, %rsi
	addq	%rdx, %rsi
	movslq	-8(%rbp), %rdx
	movl	(%rsi,%rdx,4), %edx
	movslq	-4(%rbp), %rsi
	shlq	$6, %rsi
	movabsq	$rec_resB, %rax
	movq	%rax, %rdi
	addq	%rsi, %rdi
	movslq	-8(%rbp), %rsi
	movl	(%rdi,%rsi,4), %esi
	sarl	$1, %esi
	subl	%esi, %edx
	movl	%edx, -60(%rbp)
	movslq	-4(%rbp), %rdx
	shlq	$6, %rdx
	addq	%rdx, %rax
	movslq	-8(%rbp), %rdx
	movl	(%rax,%rdx,4), %eax
	addl	-60(%rbp), %eax
	movl	%eax, -28(%rbp)
	movl	-60(%rbp), %eax
	movslq	-4(%rbp), %rdx
	shlq	$6, %rdx
	movabsq	$rec_resR, %rsi
	movq	%rsi, %rdi
	addq	%rdx, %rdi
	movslq	-8(%rbp), %rdx
	movl	(%rdi,%rdx,4), %edx
	sarl	$1, %edx
	subl	%edx, %eax
	movl	%eax, -16(%rbp)
	movl	-16(%rbp), %eax
	movslq	-4(%rbp), %rdx
	shlq	$6, %rdx
	addq	%rdx, %rsi
	movslq	-8(%rbp), %rdx
	addl	(%rsi,%rdx,4), %eax
	movl	%eax, -32(%rbp)
	movq	img, %rax
	movl	72688(%rax), %edx
	movl	-16(%rbp), %eax
	movslq	-4(%rbp), %rsi
	shlq	$6, %rsi
	addq	%rsi, %rcx
	movslq	-8(%rbp), %rsi
	addl	(%rcx,%rsi,4), %eax
	cmpl	%eax, %r8d
	jle	.LBB18_109
# %bb.108:                              # %cond.true
                                        #   in Loop: Header=BB18_106 Depth=2
	xorl	%eax, %eax
	jmp	.LBB18_110
.LBB18_109:                             # %cond.false
                                        #   in Loop: Header=BB18_106 Depth=2
	movabsq	$mprRGB, %rcx
	addq	$1024, %rcx             # imm = 0x400
	movl	-16(%rbp), %eax
	movslq	-4(%rbp), %rsi
	shlq	$6, %rsi
	addq	%rsi, %rcx
	movslq	-8(%rbp), %rsi
	addl	(%rcx,%rsi,4), %eax
.LBB18_110:                             # %cond.end
                                        #   in Loop: Header=BB18_106 Depth=2
	cmpl	%eax, %edx
	jge	.LBB18_112
# %bb.111:                              # %cond.true356
                                        #   in Loop: Header=BB18_106 Depth=2
	movq	img, %rax
	movl	72688(%rax), %eax
	jmp	.LBB18_116
.LBB18_112:                             # %cond.false358
                                        #   in Loop: Header=BB18_106 Depth=2
	xorl	%eax, %eax
	movabsq	$mprRGB, %rcx
	addq	$1024, %rcx             # imm = 0x400
	movl	-16(%rbp), %edx
	movslq	-4(%rbp), %rsi
	shlq	$6, %rsi
	addq	%rsi, %rcx
	movslq	-8(%rbp), %rsi
	addl	(%rcx,%rsi,4), %edx
	cmpl	%edx, %eax
	jle	.LBB18_114
# %bb.113:                              # %cond.true366
                                        #   in Loop: Header=BB18_106 Depth=2
	xorl	%eax, %eax
	jmp	.LBB18_115
.LBB18_114:                             # %cond.false367
                                        #   in Loop: Header=BB18_106 Depth=2
	movabsq	$mprRGB, %rcx
	addq	$1024, %rcx             # imm = 0x400
	movl	-16(%rbp), %eax
	movslq	-4(%rbp), %rdx
	shlq	$6, %rdx
	addq	%rdx, %rcx
	movslq	-8(%rbp), %rdx
	addl	(%rcx,%rdx,4), %eax
.LBB18_115:                             # %cond.end373
                                        #   in Loop: Header=BB18_106 Depth=2
.LBB18_116:                             # %cond.end375
                                        #   in Loop: Header=BB18_106 Depth=2
	xorl	%ecx, %ecx
	movq	enc_picture, %rdx
	movq	6464(%rdx), %rdx
	movq	(%rdx), %rdx
	movq	img, %rsi
	movl	156(%rsi), %esi
	addl	-8(%rbp), %esi
	movslq	%esi, %rsi
	movq	(%rdx,%rsi,8), %rdx
	movq	img, %rsi
	movl	152(%rsi), %esi
	addl	-4(%rbp), %esi
	movslq	%esi, %rsi
	movw	%ax, (%rdx,%rsi,2)
	movq	img, %rax
	movl	72684(%rax), %eax
	movl	-28(%rbp), %edx
	movslq	-4(%rbp), %rsi
	shlq	$6, %rsi
	movabsq	$mprRGB, %rdi
	addq	%rsi, %rdi
	movslq	-8(%rbp), %rsi
	addl	(%rdi,%rsi,4), %edx
	cmpl	%edx, %ecx
	jle	.LBB18_118
# %bb.117:                              # %cond.true393
                                        #   in Loop: Header=BB18_106 Depth=2
	xorl	%ecx, %ecx
	jmp	.LBB18_119
.LBB18_118:                             # %cond.false394
                                        #   in Loop: Header=BB18_106 Depth=2
	movl	-28(%rbp), %ecx
	movslq	-4(%rbp), %rdx
	shlq	$6, %rdx
	movabsq	$mprRGB, %rsi
	addq	%rdx, %rsi
	movslq	-8(%rbp), %rdx
	addl	(%rsi,%rdx,4), %ecx
.LBB18_119:                             # %cond.end400
                                        #   in Loop: Header=BB18_106 Depth=2
	cmpl	%ecx, %eax
	jge	.LBB18_121
# %bb.120:                              # %cond.true404
                                        #   in Loop: Header=BB18_106 Depth=2
	movq	img, %rax
	movl	72684(%rax), %eax
	jmp	.LBB18_125
.LBB18_121:                             # %cond.false406
                                        #   in Loop: Header=BB18_106 Depth=2
	xorl	%eax, %eax
	movl	-28(%rbp), %ecx
	movslq	-4(%rbp), %rdx
	shlq	$6, %rdx
	movabsq	$mprRGB, %rsi
	addq	%rdx, %rsi
	movslq	-8(%rbp), %rdx
	addl	(%rsi,%rdx,4), %ecx
	cmpl	%ecx, %eax
	jle	.LBB18_123
# %bb.122:                              # %cond.true414
                                        #   in Loop: Header=BB18_106 Depth=2
	xorl	%eax, %eax
	jmp	.LBB18_124
.LBB18_123:                             # %cond.false415
                                        #   in Loop: Header=BB18_106 Depth=2
	movl	-28(%rbp), %eax
	movslq	-4(%rbp), %rcx
	shlq	$6, %rcx
	movabsq	$mprRGB, %rdx
	addq	%rcx, %rdx
	movslq	-8(%rbp), %rcx
	addl	(%rdx,%rcx,4), %eax
.LBB18_124:                             # %cond.end421
                                        #   in Loop: Header=BB18_106 Depth=2
.LBB18_125:                             # %cond.end423
                                        #   in Loop: Header=BB18_106 Depth=2
	xorl	%ecx, %ecx
	movabsq	$mprRGB, %rdx
	addq	$2048, %rdx             # imm = 0x800
	movq	enc_picture, %rsi
	movq	6424(%rsi), %rsi
	movq	img, %rdi
	movl	156(%rdi), %edi
	addl	-8(%rbp), %edi
	movslq	%edi, %rdi
	movq	(%rsi,%rdi,8), %rsi
	movq	img, %rdi
	movl	152(%rdi), %edi
	addl	-4(%rbp), %edi
	movslq	%edi, %rdi
	movw	%ax, (%rsi,%rdi,2)
	movq	img, %rax
	movl	72688(%rax), %eax
	movl	-32(%rbp), %esi
	movslq	-4(%rbp), %rdi
	shlq	$6, %rdi
	addq	%rdi, %rdx
	movslq	-8(%rbp), %rdi
	addl	(%rdx,%rdi,4), %esi
	cmpl	%esi, %ecx
	jle	.LBB18_127
# %bb.126:                              # %cond.true442
                                        #   in Loop: Header=BB18_106 Depth=2
	xorl	%ecx, %ecx
	jmp	.LBB18_128
.LBB18_127:                             # %cond.false443
                                        #   in Loop: Header=BB18_106 Depth=2
	movabsq	$mprRGB, %rdx
	addq	$2048, %rdx             # imm = 0x800
	movl	-32(%rbp), %ecx
	movslq	-4(%rbp), %rsi
	shlq	$6, %rsi
	addq	%rsi, %rdx
	movslq	-8(%rbp), %rsi
	addl	(%rdx,%rsi,4), %ecx
.LBB18_128:                             # %cond.end449
                                        #   in Loop: Header=BB18_106 Depth=2
	cmpl	%ecx, %eax
	jge	.LBB18_130
# %bb.129:                              # %cond.true453
                                        #   in Loop: Header=BB18_106 Depth=2
	movq	img, %rax
	movl	72688(%rax), %eax
	jmp	.LBB18_134
.LBB18_130:                             # %cond.false455
                                        #   in Loop: Header=BB18_106 Depth=2
	xorl	%eax, %eax
	movabsq	$mprRGB, %rcx
	addq	$2048, %rcx             # imm = 0x800
	movl	-32(%rbp), %edx
	movslq	-4(%rbp), %rsi
	shlq	$6, %rsi
	addq	%rsi, %rcx
	movslq	-8(%rbp), %rsi
	addl	(%rcx,%rsi,4), %edx
	cmpl	%edx, %eax
	jle	.LBB18_132
# %bb.131:                              # %cond.true463
                                        #   in Loop: Header=BB18_106 Depth=2
	xorl	%eax, %eax
	jmp	.LBB18_133
.LBB18_132:                             # %cond.false464
                                        #   in Loop: Header=BB18_106 Depth=2
	movabsq	$mprRGB, %rcx
	addq	$2048, %rcx             # imm = 0x800
	movl	-32(%rbp), %eax
	movslq	-4(%rbp), %rdx
	shlq	$6, %rdx
	addq	%rdx, %rcx
	movslq	-8(%rbp), %rdx
	addl	(%rcx,%rdx,4), %eax
.LBB18_133:                             # %cond.end470
                                        #   in Loop: Header=BB18_106 Depth=2
.LBB18_134:                             # %cond.end472
                                        #   in Loop: Header=BB18_106 Depth=2
	movq	enc_picture, %rcx
	movq	6464(%rcx), %rcx
	movq	8(%rcx), %rcx
	movq	img, %rdx
	movl	156(%rdx), %edx
	addl	-8(%rbp), %edx
	movslq	%edx, %rdx
	movq	(%rcx,%rdx,8), %rcx
	movq	img, %rdx
	movl	152(%rdx), %edx
	addl	-4(%rbp), %edx
	movslq	%edx, %rdx
	movw	%ax, (%rcx,%rdx,2)
# %bb.135:                              # %for.inc485
                                        #   in Loop: Header=BB18_106 Depth=2
	movl	-4(%rbp), %eax
	addl	$1, %eax
	movl	%eax, -4(%rbp)
	jmp	.LBB18_106
.LBB18_136:                             # %for.end487
                                        #   in Loop: Header=BB18_104 Depth=1
	jmp	.LBB18_137
.LBB18_137:                             # %for.inc488
                                        #   in Loop: Header=BB18_104 Depth=1
	movl	-8(%rbp), %eax
	addl	$1, %eax
	movl	%eax, -8(%rbp)
	jmp	.LBB18_104
.LBB18_138:                             # %for.end490
	jmp	.LBB18_139
.LBB18_139:                             # %if.end491
	addq	$288, %rsp              # imm = 0x120
	popq	%rbp
	.cfi_def_cfa %rsp, 8
	retq
.Lfunc_end18:
	.size	ChromaResidualCoding, .Lfunc_end18-ChromaResidualCoding
	.cfi_endproc
                                        # -- End function
	.globl	IntraChromaPrediction   # -- Begin function IntraChromaPrediction
	.p2align	4, 0x90
	.type	IntraChromaPrediction,@function
IntraChromaPrediction:                  # @IntraChromaPrediction
	.cfi_startproc
# %bb.0:                                # %entry
	pushq	%rbp
	.cfi_def_cfa_offset 16
	.cfi_offset %rbp, -16
	movq	%rsp, %rbp
	.cfi_def_cfa_register %rbp
	subq	$992, %rsp              # imm = 0x3E0
	movabsq	$.L__const.IntraChromaPrediction.block_pos, %rax
	movq	%rdi, -184(%rbp)
	movq	%rsi, -176(%rbp)
	movq	%rdx, -168(%rbp)
	movq	img, %rcx
	movq	14168(%rcx), %rcx
	movq	img, %rdx
	movslq	12(%rdx), %rdx
	imulq	$632, %rdx, %rdx        # imm = 0x278
	addq	%rdx, %rcx
	movq	%rcx, -192(%rbp)
	movq	img, %rcx
	movl	12(%rcx), %ecx
	movl	%ecx, -124(%rbp)
	movl	$0, -136(%rbp)
	movq	img, %rcx
	movl	72708(%rcx), %ecx
	movl	%ecx, -16(%rbp)
	movq	img, %rcx
	movl	72712(%rcx), %ecx
	movl	%ecx, -12(%rbp)
	movq	img, %rcx
	movl	72700(%rcx), %ecx
	subl	$1, %ecx
	movl	%ecx, -112(%rbp)
	leaq	-992(%rbp), %rdi
	movq	%rax, %rsi
	movl	$192, %edx
	callq	memcpy
	movl	$0, -4(%rbp)
.LBB19_1:                               # %for.cond
                                        # =>This Inner Loop Header: Depth=1
	movl	-4(%rbp), %eax
	movl	-12(%rbp), %ecx
	addl	$1, %ecx
	cmpl	%ecx, %eax
	jge	.LBB19_4
# %bb.2:                                # %for.body
                                        #   in Loop: Header=BB19_1 Depth=1
	movl	-124(%rbp), %edi
	movl	-4(%rbp), %edx
	subl	$1, %edx
	movslq	-4(%rbp), %rax
	imulq	$24, %rax, %rax
	leaq	-736(%rbp), %r8
	addq	%rax, %r8
	movl	$4294967295, %esi       # imm = 0xFFFFFFFF
	xorl	%ecx, %ecx
	callq	getNeighbour
# %bb.3:                                # %for.inc
                                        #   in Loop: Header=BB19_1 Depth=1
	movl	-4(%rbp), %eax
	addl	$1, %eax
	movl	%eax, -4(%rbp)
	jmp	.LBB19_1
.LBB19_4:                               # %for.end
	movl	-124(%rbp), %edi
	xorl	%esi, %esi
	movl	$4294967295, %edx       # imm = 0xFFFFFFFF
	xorl	%ecx, %ecx
	leaq	-160(%rbp), %r8
	callq	getNeighbour
	movl	-160(%rbp), %eax
	movl	%eax, -20(%rbp)
	movl	-736(%rbp), %eax
	movl	%eax, -108(%rbp)
	movl	-712(%rbp), %eax
	movl	%eax, -28(%rbp)
	movl	%eax, -32(%rbp)
	movq	input, %rax
	cmpl	$0, 216(%rax)
	je	.LBB19_26
# %bb.5:                                # %if.then
	cmpl	$0, -160(%rbp)
	je	.LBB19_7
# %bb.6:                                # %cond.true
	movq	img, %rax
	movq	71784(%rax), %rax
	movslq	-156(%rbp), %rcx
	movl	(%rax,%rcx,4), %eax
	jmp	.LBB19_8
.LBB19_7:                               # %cond.false
	xorl	%eax, %eax
	jmp	.LBB19_8
.LBB19_8:                               # %cond.end
	movl	%eax, -20(%rbp)
	movl	$0, -4(%rbp)
	movl	$1, -32(%rbp)
.LBB19_9:                               # %for.cond16
                                        # =>This Inner Loop Header: Depth=1
	movl	-4(%rbp), %ecx
	movl	-12(%rbp), %eax
	cltd
	movl	$2, %esi
	idivl	%esi
	cmpl	%eax, %ecx
	jge	.LBB19_15
# %bb.10:                               # %for.body18
                                        #   in Loop: Header=BB19_9 Depth=1
	movl	-4(%rbp), %eax
	addl	$1, %eax
	cltq
	imulq	$24, %rax, %rax
	leaq	-736(%rbp), %rcx
	addq	%rax, %rcx
	cmpl	$0, (%rcx)
	je	.LBB19_12
# %bb.11:                               # %cond.true24
                                        #   in Loop: Header=BB19_9 Depth=1
	movq	img, %rax
	movq	71784(%rax), %rax
	movl	-4(%rbp), %ecx
	addl	$1, %ecx
	movslq	%ecx, %rcx
	imulq	$24, %rcx, %rcx
	leaq	-736(%rbp), %rdx
	addq	%rcx, %rdx
	movslq	4(%rdx), %rcx
	movl	(%rax,%rcx,4), %eax
	jmp	.LBB19_13
.LBB19_12:                              # %cond.false32
                                        #   in Loop: Header=BB19_9 Depth=1
	xorl	%eax, %eax
	jmp	.LBB19_13
.LBB19_13:                              # %cond.end33
                                        #   in Loop: Header=BB19_9 Depth=1
	andl	-32(%rbp), %eax
	movl	%eax, -32(%rbp)
# %bb.14:                               # %for.inc36
                                        #   in Loop: Header=BB19_9 Depth=1
	movl	-4(%rbp), %eax
	addl	$1, %eax
	movl	%eax, -4(%rbp)
	jmp	.LBB19_9
.LBB19_15:                              # %for.end38
	movl	-12(%rbp), %eax
	cltd
	movl	$2, %ecx
	idivl	%ecx
	movl	%eax, -4(%rbp)
	movl	$1, -28(%rbp)
.LBB19_16:                              # %for.cond41
                                        # =>This Inner Loop Header: Depth=1
	movl	-4(%rbp), %eax
	cmpl	-12(%rbp), %eax
	jge	.LBB19_22
# %bb.17:                               # %for.body43
                                        #   in Loop: Header=BB19_16 Depth=1
	movl	-4(%rbp), %eax
	addl	$1, %eax
	cltq
	imulq	$24, %rax, %rax
	leaq	-736(%rbp), %rcx
	addq	%rax, %rcx
	cmpl	$0, (%rcx)
	je	.LBB19_19
# %bb.18:                               # %cond.true49
                                        #   in Loop: Header=BB19_16 Depth=1
	movq	img, %rax
	movq	71784(%rax), %rax
	movl	-4(%rbp), %ecx
	addl	$1, %ecx
	movslq	%ecx, %rcx
	imulq	$24, %rcx, %rcx
	leaq	-736(%rbp), %rdx
	addq	%rcx, %rdx
	movslq	4(%rdx), %rcx
	movl	(%rax,%rcx,4), %eax
	jmp	.LBB19_20
.LBB19_19:                              # %cond.false57
                                        #   in Loop: Header=BB19_16 Depth=1
	xorl	%eax, %eax
	jmp	.LBB19_20
.LBB19_20:                              # %cond.end58
                                        #   in Loop: Header=BB19_16 Depth=1
	andl	-28(%rbp), %eax
	movl	%eax, -28(%rbp)
# %bb.21:                               # %for.inc62
                                        #   in Loop: Header=BB19_16 Depth=1
	movl	-4(%rbp), %eax
	addl	$1, %eax
	movl	%eax, -4(%rbp)
	jmp	.LBB19_16
.LBB19_22:                              # %for.end64
	cmpl	$0, -736(%rbp)
	je	.LBB19_24
# %bb.23:                               # %cond.true68
	movq	img, %rax
	movq	71784(%rax), %rax
	movslq	-732(%rbp), %rcx
	movl	(%rax,%rcx,4), %eax
	jmp	.LBB19_25
.LBB19_24:                              # %cond.false74
	xorl	%eax, %eax
	jmp	.LBB19_25
.LBB19_25:                              # %cond.end75
	movl	%eax, -108(%rbp)
.LBB19_26:                              # %if.end
	cmpq	$0, -184(%rbp)
	je	.LBB19_28
# %bb.27:                               # %if.then78
	movl	-20(%rbp), %eax
	movq	-184(%rbp), %rcx
	movl	%eax, (%rcx)
.LBB19_28:                              # %if.end79
	cmpq	$0, -176(%rbp)
	je	.LBB19_32
# %bb.29:                               # %if.then81
	xorl	%eax, %eax
	cmpl	$0, -32(%rbp)
	je	.LBB19_31
# %bb.30:                               # %land.rhs
	cmpl	$0, -28(%rbp)
	setne	%al
.LBB19_31:                              # %land.end
	andb	$1, %al
	movzbl	%al, %eax
	movq	-176(%rbp), %rcx
	movl	%eax, (%rcx)
.LBB19_32:                              # %if.end86
	cmpq	$0, -168(%rbp)
	je	.LBB19_34
# %bb.33:                               # %if.then88
	movl	-108(%rbp), %eax
	movq	-168(%rbp), %rcx
	movl	%eax, (%rcx)
.LBB19_34:                              # %if.end89
	movl	$0, -24(%rbp)
.LBB19_35:                              # %for.cond90
                                        # =>This Loop Header: Depth=1
                                        #     Child Loop BB19_37 Depth 2
                                        #       Child Loop BB19_39 Depth 3
                                        #         Child Loop BB19_104 Depth 4
                                        #         Child Loop BB19_110 Depth 4
                                        #         Child Loop BB19_85 Depth 4
                                        #         Child Loop BB19_91 Depth 4
                                        #         Child Loop BB19_66 Depth 4
                                        #         Child Loop BB19_72 Depth 4
                                        #         Child Loop BB19_44 Depth 4
                                        #         Child Loop BB19_50 Depth 4
                                        #         Child Loop BB19_125 Depth 4
                                        #           Child Loop BB19_127 Depth 5
                                        #     Child Loop BB19_138 Depth 2
                                        #     Child Loop BB19_142 Depth 2
                                        #       Child Loop BB19_144 Depth 3
                                        #     Child Loop BB19_153 Depth 2
                                        #     Child Loop BB19_157 Depth 2
                                        #       Child Loop BB19_159 Depth 3
                                        #     Child Loop BB19_170 Depth 2
                                        #     Child Loop BB19_174 Depth 2
                                        #     Child Loop BB19_178 Depth 2
                                        #       Child Loop BB19_180 Depth 3
	cmpl	$2, -24(%rbp)
	jge	.LBB19_197
# %bb.36:                               # %for.body92
                                        #   in Loop: Header=BB19_35 Depth=1
	movq	enc_picture, %rax
	movq	6464(%rax), %rax
	movslq	-24(%rbp), %rcx
	movq	(%rax,%rcx,8), %rax
	movq	%rax, -80(%rbp)
	movl	$0, -88(%rbp)
.LBB19_37:                              # %for.cond95
                                        #   Parent Loop BB19_35 Depth=1
                                        # =>  This Loop Header: Depth=2
                                        #       Child Loop BB19_39 Depth 3
                                        #         Child Loop BB19_104 Depth 4
                                        #         Child Loop BB19_110 Depth 4
                                        #         Child Loop BB19_85 Depth 4
                                        #         Child Loop BB19_91 Depth 4
                                        #         Child Loop BB19_66 Depth 4
                                        #         Child Loop BB19_72 Depth 4
