	.text
	.file	"macroblock.c"
	.globl	set_MB_parameters       # -- Begin function set_MB_parameters
	.p2align	4, 0x90
	.type	set_MB_parameters,@function
set_MB_parameters:                      # @set_MB_parameters
	.cfi_startproc
# %bb.0:                                # %entry
	pushq	%rbp
	.cfi_def_cfa_offset 16
	.cfi_offset %rbp, -16
	movq	%rsp, %rbp
	.cfi_def_cfa_register %rbp
	subq	$16, %rsp
	movl	%edi, -4(%rbp)
	movl	-4(%rbp), %eax
	movq	img, %rcx
	movl	%eax, 12(%rcx)
	movl	-4(%rbp), %edi
	movq	img, %rsi
	addq	$136, %rsi
	movq	img, %rdx
	addq	$140, %rdx
	callq	get_mb_block_pos
	movq	img, %rax
	movl	136(%rax), %eax
	shll	$2, %eax
	movq	img, %rcx
	movl	%eax, 144(%rcx)
	movq	img, %rax
	movl	140(%rax), %eax
	shll	$2, %eax
	movq	img, %rcx
	movl	%eax, 148(%rcx)
	movq	img, %rax
	movl	144(%rax), %eax
	shll	$2, %eax
	movq	img, %rcx
	movl	%eax, 152(%rcx)
	movq	img, %rax
	movl	148(%rax), %eax
	shll	$2, %eax
	movq	img, %rcx
	movl	%eax, 156(%rcx)
	movq	img, %rax
	movl	152(%rax), %eax
	movq	img, %rcx
	movl	%eax, 168(%rcx)
	movq	img, %rax
	cmpl	$0, 72400(%rax)
	je	.LBB0_11
# %bb.1:                                # %if.then
	movq	img, %rax
	movq	14168(%rax), %rax
	movslq	-4(%rbp), %rcx
	imulq	$632, %rcx, %rcx        # imm = 0x278
	addq	%rcx, %rax
	cmpl	$0, 532(%rax)
	je	.LBB0_9
# %bb.2:                                # %if.then10
	movl	-4(%rbp), %eax
	cltd
	movl	$2, %ecx
	idivl	%ecx
	cmpl	$0, %edx
	je	.LBB0_4
# %bb.3:                                # %cond.true
	movq	imgY_org_bot, %rax
	jmp	.LBB0_5
.LBB0_4:                                # %cond.false
	movq	imgY_org_top, %rax
.LBB0_5:                                # %cond.end
	movq	%rax, imgY_org
	movl	-4(%rbp), %eax
	cltd
	movl	$2, %ecx
	idivl	%ecx
	cmpl	$0, %edx
	je	.LBB0_7
# %bb.6:                                # %cond.true14
	movq	imgUV_org_bot, %rax
	jmp	.LBB0_8
.LBB0_7:                                # %cond.false15
	movq	imgUV_org_top, %rax
.LBB0_8:                                # %cond.end16
	movq	%rax, imgUV_org
	movq	img, %rax
	movl	140(%rax), %eax
	sarl	$1, %eax
	shll	$4, %eax
	movq	img, %rcx
	movl	%eax, 172(%rcx)
	jmp	.LBB0_10
.LBB0_9:                                # %if.else
	movq	imgY_org_frm, %rax
	movq	%rax, imgY_org
	movq	imgUV_org_frm, %rax
	movq	%rax, imgUV_org
	movq	img, %rax
	movl	148(%rax), %eax
	shll	$2, %eax
	movq	img, %rcx
	movl	%eax, 172(%rcx)
.LBB0_10:                               # %if.end
	jmp	.LBB0_12
.LBB0_11:                               # %if.else23
	movq	img, %rax
	movl	148(%rax), %eax
	shll	$2, %eax
	movq	img, %rcx
	movl	%eax, 172(%rcx)
.LBB0_12:                               # %if.end27
	movq	img, %rax
	cmpl	$0, 72700(%rax)
	je	.LBB0_14
# %bb.13:                               # %if.then28
	movq	img, %rax
	movl	152(%rax), %ecx
	movq	img, %rsi
	movl	$16, %eax
	cltd
	idivl	72708(%rsi)
	movl	%eax, %esi
	movl	%ecx, %eax
	cltd
	idivl	%esi
	movq	img, %rcx
	movl	%eax, 160(%rcx)
	movq	img, %rax
	movl	156(%rax), %ecx
	movq	img, %rsi
	movl	$16, %eax
	cltd
	idivl	72712(%rsi)
	movl	%eax, %esi
	movl	%ecx, %eax
	cltd
	idivl	%esi
	movq	img, %rcx
	movl	%eax, 164(%rcx)
	movq	img, %rax
	movl	168(%rax), %ecx
	movq	img, %rsi
	movl	$16, %eax
	cltd
	idivl	72708(%rsi)
	movl	%eax, %esi
	movl	%ecx, %eax
	cltd
	idivl	%esi
	movq	img, %rcx
	movl	%eax, 176(%rcx)
	movq	img, %rax
	movl	172(%rax), %ecx
	movq	img, %rsi
	movl	$16, %eax
	cltd
	idivl	72712(%rsi)
	movl	%eax, %esi
	movl	%ecx, %eax
	cltd
	idivl	%esi
	movq	img, %rcx
	movl	%eax, 180(%rcx)
.LBB0_14:                               # %if.end42
	addq	$16, %rsp
	popq	%rbp
	.cfi_def_cfa %rsp, 8
	retq
.Lfunc_end0:
	.size	set_MB_parameters, .Lfunc_end0-set_MB_parameters
	.cfi_endproc
                                        # -- End function
	.globl	clip1a                  # -- Begin function clip1a
	.p2align	4, 0x90
	.type	clip1a,@function
clip1a:                                 # @clip1a
	.cfi_startproc
# %bb.0:                                # %entry
	pushq	%rbp
	.cfi_def_cfa_offset 16
	.cfi_offset %rbp, -16
	movq	%rsp, %rbp
	.cfi_def_cfa_register %rbp
	movl	%edi, -4(%rbp)
	movl	-4(%rbp), %eax
	movq	img, %rcx
	cmpl	72684(%rcx), %eax
	jle	.LBB1_2
# %bb.1:                                # %cond.true
	movq	img, %rax
	movl	72684(%rax), %eax
	jmp	.LBB1_6
.LBB1_2:                                # %cond.false
	cmpl	$0, -4(%rbp)
	jge	.LBB1_4
# %bb.3:                                # %cond.true3
	xorl	%eax, %eax
	jmp	.LBB1_5
.LBB1_4:                                # %cond.false4
	movl	-4(%rbp), %eax
.LBB1_5:                                # %cond.end
.LBB1_6:                                # %cond.end5
	popq	%rbp
	.cfi_def_cfa %rsp, 8
	retq
.Lfunc_end1:
	.size	clip1a, .Lfunc_end1-clip1a
	.cfi_endproc
                                        # -- End function
	.globl	clip1a_chr              # -- Begin function clip1a_chr
	.p2align	4, 0x90
	.type	clip1a_chr,@function
clip1a_chr:                             # @clip1a_chr
	.cfi_startproc
# %bb.0:                                # %entry
	pushq	%rbp
	.cfi_def_cfa_offset 16
	.cfi_offset %rbp, -16
	movq	%rsp, %rbp
	.cfi_def_cfa_register %rbp
	movl	%edi, -4(%rbp)
	movl	-4(%rbp), %eax
	movq	img, %rcx
	cmpl	72688(%rcx), %eax
	jle	.LBB2_2
# %bb.1:                                # %cond.true
	movq	img, %rax
	movl	72688(%rax), %eax
	jmp	.LBB2_6
.LBB2_2:                                # %cond.false
	cmpl	$0, -4(%rbp)
	jge	.LBB2_4
# %bb.3:                                # %cond.true3
	xorl	%eax, %eax
	jmp	.LBB2_5
.LBB2_4:                                # %cond.false4
	movl	-4(%rbp), %eax
.LBB2_5:                                # %cond.end
.LBB2_6:                                # %cond.end5
	popq	%rbp
	.cfi_def_cfa %rsp, 8
	retq
.Lfunc_end2:
	.size	clip1a_chr, .Lfunc_end2-clip1a_chr
	.cfi_endproc
                                        # -- End function
	.globl	proceed2nextMacroblock  # -- Begin function proceed2nextMacroblock
	.p2align	4, 0x90
	.type	proceed2nextMacroblock,@function
proceed2nextMacroblock:                 # @proceed2nextMacroblock
	.cfi_startproc
# %bb.0:                                # %rand_bb
	pushq	%rbp
	.cfi_def_cfa_offset 16
	.cfi_offset %rbp, -16
	movq	%rsp, %rbp
	.cfi_def_cfa_register %rbp
	callq	get_rand
	cmpl	$0, %eax
	jne	.LBB3_7
# %bb.1:                                # %func_proceed2nextMacroblock.22
	callq	proceed2nextMacroblock.22
	popq	%rbp
	.cfi_def_cfa %rsp, 8
	retq
.LBB3_2:                                # %func_proceed2nextMacroblock.93
	.cfi_def_cfa %rbp, 16
	callq	proceed2nextMacroblock.93
	popq	%rbp
	.cfi_def_cfa %rsp, 8
	retq
.LBB3_3:                                # %func_proceed2nextMacroblock.113
	.cfi_def_cfa %rbp, 16
	callq	proceed2nextMacroblock.113
	popq	%rbp
	.cfi_def_cfa %rsp, 8
	retq
.LBB3_4:                                # %func_proceed2nextMacroblock.128
	.cfi_def_cfa %rbp, 16
	callq	proceed2nextMacroblock.128
	popq	%rbp
	.cfi_def_cfa %rsp, 8
	retq
.LBB3_5:                                # %func_proceed2nextMacroblock.158
	.cfi_def_cfa %rbp, 16
	callq	proceed2nextMacroblock.158
	popq	%rbp
	.cfi_def_cfa %rsp, 8
	retq
.LBB3_6:                                # %func_proceed2nextMacroblock.184
	.cfi_def_cfa %rbp, 16
	callq	proceed2nextMacroblock.184
	popq	%rbp
	.cfi_def_cfa %rsp, 8
	retq
.LBB3_7:                                # %ctrl0
	.cfi_def_cfa %rbp, 16
	cmpl	$1, %eax
	je	.LBB3_2
# %bb.8:                                # %ctrl1
	cmpl	$2, %eax
	je	.LBB3_3
# %bb.9:                                # %ctrl2
	cmpl	$3, %eax
	je	.LBB3_4
# %bb.10:                               # %ctrl3
	cmpl	$4, %eax
	je	.LBB3_5
	jmp	.LBB3_6
.Lfunc_end3:
	.size	proceed2nextMacroblock, .Lfunc_end3-proceed2nextMacroblock
	.cfi_endproc
                                        # -- End function
	.globl	start_macroblock        # -- Begin function start_macroblock
	.p2align	4, 0x90
	.type	start_macroblock,@function
start_macroblock:                       # @start_macroblock
	.cfi_startproc
# %bb.0:                                # %rand_bb
	pushq	%rbp
	.cfi_def_cfa_offset 16
	.cfi_offset %rbp, -16
	movq	%rsp, %rbp
	.cfi_def_cfa_register %rbp
	pushq	%r14
	pushq	%rbx
	.cfi_offset %rbx, -32
	.cfi_offset %r14, -24
	movl	%esi, %r14d
	movl	%edi, %ebx
	callq	get_rand
	cmpl	$0, %eax
	jne	.LBB4_9
# %bb.1:                                # %func_start_macroblock.9
	movl	%ebx, %edi
	movl	%r14d, %esi
	callq	start_macroblock.9
	popq	%rbx
	popq	%r14
	popq	%rbp
	.cfi_def_cfa %rsp, 8
	retq
.LBB4_2:                                # %func_start_macroblock.53
	.cfi_def_cfa %rbp, 16
	movl	%ebx, %edi
	movl	%r14d, %esi
	callq	start_macroblock.53
	popq	%rbx
	popq	%r14
	popq	%rbp
	.cfi_def_cfa %rsp, 8
	retq
.LBB4_3:                                # %func_start_macroblock.172
	.cfi_def_cfa %rbp, 16
	movl	%ebx, %edi
	movl	%r14d, %esi
	callq	start_macroblock.172
	popq	%rbx
	popq	%r14
	popq	%rbp
	.cfi_def_cfa %rsp, 8
	retq
.LBB4_4:                                # %func_start_macroblock.187
	.cfi_def_cfa %rbp, 16
	movl	%ebx, %edi
	movl	%r14d, %esi
	callq	start_macroblock.187
	popq	%rbx
	popq	%r14
	popq	%rbp
	.cfi_def_cfa %rsp, 8
	retq
.LBB4_5:                                # %func_start_macroblock.208
	.cfi_def_cfa %rbp, 16
	movl	%ebx, %edi
	movl	%r14d, %esi
	callq	start_macroblock.208
	popq	%rbx
	popq	%r14
	popq	%rbp
	.cfi_def_cfa %rsp, 8
	retq
.LBB4_6:                                # %func_start_macroblock.211
	.cfi_def_cfa %rbp, 16
	movl	%ebx, %edi
	movl	%r14d, %esi
	callq	start_macroblock.211
	popq	%rbx
	popq	%r14
	popq	%rbp
	.cfi_def_cfa %rsp, 8
	retq
.LBB4_7:                                # %func_start_macroblock.233
	.cfi_def_cfa %rbp, 16
	movl	%ebx, %edi
	movl	%r14d, %esi
	callq	start_macroblock.233
	popq	%rbx
	popq	%r14
	popq	%rbp
	.cfi_def_cfa %rsp, 8
	retq
.LBB4_8:                                # %func_start_macroblock.279
	.cfi_def_cfa %rbp, 16
	movl	%ebx, %edi
	movl	%r14d, %esi
	callq	start_macroblock.279
	popq	%rbx
	popq	%r14
	popq	%rbp
	.cfi_def_cfa %rsp, 8
	retq
.LBB4_9:                                # %ctrl0
	.cfi_def_cfa %rbp, 16
	cmpl	$1, %eax
	je	.LBB4_2
# %bb.10:                               # %ctrl1
	cmpl	$2, %eax
	je	.LBB4_3
# %bb.11:                               # %ctrl2
	cmpl	$3, %eax
	je	.LBB4_4
# %bb.12:                               # %ctrl3
	cmpl	$4, %eax
	je	.LBB4_5
# %bb.13:                               # %ctrl4
	cmpl	$5, %eax
	je	.LBB4_6
# %bb.14:                               # %ctrl5
	cmpl	$6, %eax
	je	.LBB4_7
	jmp	.LBB4_8
.Lfunc_end4:
	.size	start_macroblock, .Lfunc_end4-start_macroblock
	.cfi_endproc
                                        # -- End function
	.globl	terminate_macroblock    # -- Begin function terminate_macroblock
	.p2align	4, 0x90
	.type	terminate_macroblock,@function
terminate_macroblock:                   # @terminate_macroblock
	.cfi_startproc
# %bb.0:                                # %rand_bb
	pushq	%rbp
	.cfi_def_cfa_offset 16
	.cfi_offset %rbp, -16
	movq	%rsp, %rbp
	.cfi_def_cfa_register %rbp
	pushq	%r14
	pushq	%rbx
	.cfi_offset %rbx, -32
	.cfi_offset %r14, -24
	movq	%rsi, %r14
	movq	%rdi, %rbx
	callq	get_rand
	cmpl	$0, %eax
	jne	.LBB5_9
# %bb.1:                                # %func_terminate_macroblock.34
	movq	%rbx, %rdi
	movq	%r14, %rsi
	callq	terminate_macroblock.34
	popq	%rbx
	popq	%r14
	popq	%rbp
	.cfi_def_cfa %rsp, 8
	retq
.LBB5_2:                                # %func_terminate_macroblock.62
	.cfi_def_cfa %rbp, 16
	movq	%rbx, %rdi
	movq	%r14, %rsi
	callq	terminate_macroblock.62
	popq	%rbx
	popq	%r14
	popq	%rbp
	.cfi_def_cfa %rsp, 8
	retq
.LBB5_3:                                # %func_terminate_macroblock.70
	.cfi_def_cfa %rbp, 16
	movq	%rbx, %rdi
	movq	%r14, %rsi
	callq	terminate_macroblock.70
	popq	%rbx
	popq	%r14
	popq	%rbp
	.cfi_def_cfa %rsp, 8
	retq
.LBB5_4:                                # %func_terminate_macroblock.153
	.cfi_def_cfa %rbp, 16
	movq	%rbx, %rdi
	movq	%r14, %rsi
	callq	terminate_macroblock.153
	popq	%rbx
	popq	%r14
	popq	%rbp
	.cfi_def_cfa %rsp, 8
	retq
.LBB5_5:                                # %func_terminate_macroblock.166
	.cfi_def_cfa %rbp, 16
	movq	%rbx, %rdi
	movq	%r14, %rsi
	callq	terminate_macroblock.166
	popq	%rbx
	popq	%r14
	popq	%rbp
	.cfi_def_cfa %rsp, 8
	retq
.LBB5_6:                                # %func_terminate_macroblock.173
	.cfi_def_cfa %rbp, 16
	movq	%rbx, %rdi
	movq	%r14, %rsi
	callq	terminate_macroblock.173
	popq	%rbx
	popq	%r14
	popq	%rbp
	.cfi_def_cfa %rsp, 8
	retq
.LBB5_7:                                # %func_terminate_macroblock.178
	.cfi_def_cfa %rbp, 16
	movq	%rbx, %rdi
	movq	%r14, %rsi
	callq	terminate_macroblock.178
	popq	%rbx
	popq	%r14
	popq	%rbp
	.cfi_def_cfa %rsp, 8
	retq
.LBB5_8:                                # %func_terminate_macroblock.272
	.cfi_def_cfa %rbp, 16
	movq	%rbx, %rdi
	movq	%r14, %rsi
	callq	terminate_macroblock.272
	popq	%rbx
	popq	%r14
	popq	%rbp
	.cfi_def_cfa %rsp, 8
	retq
.LBB5_9:                                # %ctrl0
	.cfi_def_cfa %rbp, 16
	cmpl	$1, %eax
	je	.LBB5_2
# %bb.10:                               # %ctrl1
	cmpl	$2, %eax
	je	.LBB5_3
# %bb.11:                               # %ctrl2
	cmpl	$3, %eax
	je	.LBB5_4
# %bb.12:                               # %ctrl3
	cmpl	$4, %eax
	je	.LBB5_5
# %bb.13:                               # %ctrl4
	cmpl	$5, %eax
	je	.LBB5_6
# %bb.14:                               # %ctrl5
	cmpl	$6, %eax
	je	.LBB5_7
	jmp	.LBB5_8
.Lfunc_end5:
	.size	terminate_macroblock, .Lfunc_end5-terminate_macroblock
	.cfi_endproc
                                        # -- End function
	.globl	slice_too_big           # -- Begin function slice_too_big
	.p2align	4, 0x90
	.type	slice_too_big,@function
slice_too_big:                          # @slice_too_big
	.cfi_startproc
# %bb.0:                                # %rand_bb
	pushq	%rbp
	.cfi_def_cfa_offset 16
	.cfi_offset %rbp, -16
	movq	%rsp, %rbp
	.cfi_def_cfa_register %rbp
	pushq	%rbx
	pushq	%rax
	.cfi_offset %rbx, -24
	movl	%edi, %ebx
	callq	get_rand
	cmpl	$0, %eax
	jne	.LBB6_9
# %bb.1:                                # %func_slice_too_big.1
	movl	%ebx, %edi
	callq	slice_too_big.1
	addq	$8, %rsp
	popq	%rbx
	popq	%rbp
	.cfi_def_cfa %rsp, 8
	retq
.LBB6_2:                                # %func_slice_too_big.4
	.cfi_def_cfa %rbp, 16
	movl	%ebx, %edi
	callq	slice_too_big.4
	addq	$8, %rsp
	popq	%rbx
	popq	%rbp
	.cfi_def_cfa %rsp, 8
	retq
.LBB6_3:                                # %func_slice_too_big.33
	.cfi_def_cfa %rbp, 16
	movl	%ebx, %edi
	callq	slice_too_big.33
	addq	$8, %rsp
	popq	%rbx
	popq	%rbp
	.cfi_def_cfa %rsp, 8
	retq
.LBB6_4:                                # %func_slice_too_big.72
	.cfi_def_cfa %rbp, 16
	movl	%ebx, %edi
	callq	slice_too_big.72
	addq	$8, %rsp
	popq	%rbx
	popq	%rbp
	.cfi_def_cfa %rsp, 8
	retq
.LBB6_5:                                # %func_slice_too_big.109
	.cfi_def_cfa %rbp, 16
	movl	%ebx, %edi
	callq	slice_too_big.109
	addq	$8, %rsp
	popq	%rbx
	popq	%rbp
	.cfi_def_cfa %rsp, 8
	retq
.LBB6_6:                                # %func_slice_too_big.140
	.cfi_def_cfa %rbp, 16
	movl	%ebx, %edi
	callq	slice_too_big.140
	addq	$8, %rsp
	popq	%rbx
	popq	%rbp
	.cfi_def_cfa %rsp, 8
	retq
.LBB6_7:                                # %func_slice_too_big.142
	.cfi_def_cfa %rbp, 16
	movl	%ebx, %edi
	callq	slice_too_big.142
	addq	$8, %rsp
	popq	%rbx
	popq	%rbp
	.cfi_def_cfa %rsp, 8
	retq
.LBB6_8:                                # %func_slice_too_big.143
	.cfi_def_cfa %rbp, 16
	movl	%ebx, %edi
	callq	slice_too_big.143
	addq	$8, %rsp
	popq	%rbx
	popq	%rbp
	.cfi_def_cfa %rsp, 8
	retq
.LBB6_9:                                # %ctrl0
	.cfi_def_cfa %rbp, 16
	cmpl	$1, %eax
	je	.LBB6_2
# %bb.10:                               # %ctrl1
	cmpl	$2, %eax
	je	.LBB6_3
# %bb.11:                               # %ctrl2
	cmpl	$3, %eax
	je	.LBB6_4
# %bb.12:                               # %ctrl3
	cmpl	$4, %eax
	je	.LBB6_5
# %bb.13:                               # %ctrl4
	cmpl	$5, %eax
	je	.LBB6_6
# %bb.14:                               # %ctrl5
	cmpl	$6, %eax
	je	.LBB6_7
	jmp	.LBB6_8
.Lfunc_end6:
	.size	slice_too_big, .Lfunc_end6-slice_too_big
	.cfi_endproc
                                        # -- End function
	.globl	OneComponentLumaPrediction4x4 # -- Begin function OneComponentLumaPrediction4x4
	.p2align	4, 0x90
	.type	OneComponentLumaPrediction4x4,@function
OneComponentLumaPrediction4x4:          # @OneComponentLumaPrediction4x4
	.cfi_startproc
# %bb.0:                                # %rand_bb
	pushq	%rbp
	.cfi_def_cfa_offset 16
	.cfi_offset %rbp, -16
	movq	%rsp, %rbp
	.cfi_def_cfa_register %rbp
	pushq	%r15
	pushq	%r14
	pushq	%r13
	pushq	%r12
	pushq	%rbx
	pushq	%rax
	.cfi_offset %rbx, -56
	.cfi_offset %r12, -48
	.cfi_offset %r13, -40
	.cfi_offset %r14, -32
	.cfi_offset %r15, -24
	movq	%r9, -48(%rbp)          # 8-byte Spill
	movl	%r8d, %r12d
	movq	%rcx, %r13
	movl	%edx, %ebx
	movl	%esi, %r14d
	movq	%rdi, %r15
	callq	get_rand
	cmpl	$0, %eax
	jne	.LBB7_9
# %bb.1:                                # %func_OneComponentLumaPrediction4x4.5
	movq	%r15, %rdi
	movl	%r14d, %esi
	movl	%ebx, %edx
	movq	%r13, %rcx
	movswl	%r12w, %r8d
	movq	-48(%rbp), %r9          # 8-byte Reload
	callq	OneComponentLumaPrediction4x4.5
	addq	$8, %rsp
	popq	%rbx
	popq	%r12
	popq	%r13
	popq	%r14
	popq	%r15
	popq	%rbp
	.cfi_def_cfa %rsp, 8
	retq
.LBB7_2:                                # %func_OneComponentLumaPrediction4x4.45
	.cfi_def_cfa %rbp, 16
	movq	%r15, %rdi
	movl	%r14d, %esi
	movl	%ebx, %edx
	movq	%r13, %rcx
	movswl	%r12w, %r8d
	callq	OneComponentLumaPrediction4x4.45
	addq	$8, %rsp
	popq	%rbx
	popq	%r12
	popq	%r13
	popq	%r14
	popq	%r15
	popq	%rbp
	.cfi_def_cfa %rsp, 8
	retq
.LBB7_3:                                # %func_OneComponentLumaPrediction4x4.65
	.cfi_def_cfa %rbp, 16
	movq	%r15, %rdi
	movl	%r14d, %esi
	movl	%ebx, %edx
	movq	%r13, %rcx
	movswl	%r12w, %r8d
	callq	OneComponentLumaPrediction4x4.65
	addq	$8, %rsp
	popq	%rbx
	popq	%r12
	popq	%r13
	popq	%r14
	popq	%r15
	popq	%rbp
	.cfi_def_cfa %rsp, 8
	retq
.LBB7_4:                                # %func_OneComponentLumaPrediction4x4.160
	.cfi_def_cfa %rbp, 16
	movq	%r15, %rdi
	movl	%r14d, %esi
	movl	%ebx, %edx
	movq	%r13, %rcx
	movswl	%r12w, %r8d
	callq	OneComponentLumaPrediction4x4.160
	addq	$8, %rsp
	popq	%rbx
	popq	%r12
	popq	%r13
	popq	%r14
	popq	%r15
	popq	%rbp
	.cfi_def_cfa %rsp, 8
	retq
.LBB7_5:                                # %func_OneComponentLumaPrediction4x4.177
	.cfi_def_cfa %rbp, 16
	movq	%r15, %rdi
	movl	%r14d, %esi
	movl	%ebx, %edx
	movq	%r13, %rcx
	movswl	%r12w, %r8d
	callq	OneComponentLumaPrediction4x4.177
	addq	$8, %rsp
	popq	%rbx
	popq	%r12
	popq	%r13
	popq	%r14
	popq	%r15
	popq	%rbp
	.cfi_def_cfa %rsp, 8
	retq
.LBB7_6:                                # %func_OneComponentLumaPrediction4x4.247
	.cfi_def_cfa %rbp, 16
	movq	%r15, %rdi
	movl	%r14d, %esi
	movl	%ebx, %edx
	movq	%r13, %rcx
	movswl	%r12w, %r8d
	callq	OneComponentLumaPrediction4x4.247
	addq	$8, %rsp
	popq	%rbx
	popq	%r12
	popq	%r13
	popq	%r14
	popq	%r15
	popq	%rbp
	.cfi_def_cfa %rsp, 8
	retq
.LBB7_7:                                # %func_OneComponentLumaPrediction4x4.266
	.cfi_def_cfa %rbp, 16
	movswl	%r12w, %r8d
	callq	OneComponentLumaPrediction4x4.266
	addq	$8, %rsp
	popq	%rbx
	popq	%r12
	popq	%r13
	popq	%r14
	popq	%r15
	popq	%rbp
	.cfi_def_cfa %rsp, 8
	retq
.LBB7_8:                                # %func_OneComponentLumaPrediction4x4.277
	.cfi_def_cfa %rbp, 16
	movswl	%r12w, %r8d
	callq	OneComponentLumaPrediction4x4.277
	addq	$8, %rsp
	popq	%rbx
	popq	%r12
	popq	%r13
	popq	%r14
	popq	%r15
	popq	%rbp
	.cfi_def_cfa %rsp, 8
	retq
.LBB7_9:                                # %ctrl0
	.cfi_def_cfa %rbp, 16
	movq	-48(%rbp), %r9          # 8-byte Reload
	cmpl	$1, %eax
	je	.LBB7_2
# %bb.10:                               # %ctrl1
	cmpl	$2, %eax
	je	.LBB7_3
# %bb.11:                               # %ctrl2
	cmpl	$3, %eax
	je	.LBB7_4
# %bb.12:                               # %ctrl3
	cmpl	$4, %eax
	je	.LBB7_5
# %bb.13:                               # %ctrl4
	cmpl	$5, %eax
	je	.LBB7_6
# %bb.14:                               # %ctrl5
	cmpl	$6, %eax
	movq	%r13, %rcx
	movl	%ebx, %edx
	movl	%r14d, %esi
	movq	%r15, %rdi
	je	.LBB7_7
	jmp	.LBB7_8
.Lfunc_end7:
	.size	OneComponentLumaPrediction4x4, .Lfunc_end7-OneComponentLumaPrediction4x4
	.cfi_endproc
                                        # -- End function
	.globl	copyblock4x4            # -- Begin function copyblock4x4
	.p2align	4, 0x90
	.type	copyblock4x4,@function
copyblock4x4:                           # @copyblock4x4
	.cfi_startproc
# %bb.0:                                # %rand_bb
	pushq	%rbp
	.cfi_def_cfa_offset 16
	.cfi_offset %rbp, -16
	movq	%rsp, %rbp
	.cfi_def_cfa_register %rbp
	pushq	%r14
	pushq	%rbx
	.cfi_offset %rbx, -32
	.cfi_offset %r14, -24
	movq	%rsi, %r14
	movq	%rdi, %rbx
	callq	get_rand
	cmpl	$0, %eax
	jne	.LBB8_2
# %bb.1:                                # %func_copyblock4x4.60
	movq	%rbx, %rdi
	movq	%r14, %rsi
	callq	copyblock4x4.60
	popq	%rbx
	popq	%r14
	popq	%rbp
	.cfi_def_cfa %rsp, 8
	retq
.LBB8_2:                                # %func_copyblock4x4.80
	.cfi_def_cfa %rbp, 16
	movq	%rbx, %rdi
	movq	%r14, %rsi
	callq	copyblock4x4.80
	popq	%rbx
	popq	%r14
	popq	%rbp
	.cfi_def_cfa %rsp, 8
	retq
.Lfunc_end8:
	.size	copyblock4x4, .Lfunc_end8-copyblock4x4
	.cfi_endproc
                                        # -- End function
	.globl	LumaPrediction4x4       # -- Begin function LumaPrediction4x4
	.p2align	4, 0x90
	.type	LumaPrediction4x4,@function
LumaPrediction4x4:                      # @LumaPrediction4x4
	.cfi_startproc
# %bb.0:                                # %rand_bb
	pushq	%rbp
	.cfi_def_cfa_offset 16
	.cfi_offset %rbp, -16
	movq	%rsp, %rbp
	.cfi_def_cfa_register %rbp
	pushq	%r15
	pushq	%r14
	pushq	%r13
	pushq	%r12
	pushq	%rbx
	subq	$24, %rsp
	.cfi_offset %rbx, -56
	.cfi_offset %r12, -48
	.cfi_offset %r13, -40
	.cfi_offset %r14, -32
	.cfi_offset %r15, -24
	movl	%r9d, -44(%rbp)         # 4-byte Spill
	movl	%r8d, %r13d
	movl	%ecx, %r15d
	movl	%edx, %ebx
	movl	%esi, %r14d
	movl	%edi, %r12d
	callq	get_rand
	cmpl	$0, %eax
	jne	.LBB9_9
# %bb.1:                                # %func_LumaPrediction4x4.3
	movl	%r12d, %edi
	movl	%r14d, %esi
	movl	%ebx, %edx
	movl	%r15d, %ecx
	movl	%r13d, %r8d
	movswl	-44(%rbp), %r9d         # 2-byte Folded Reload
	movswl	16(%rbp), %eax
	movl	%eax, (%rsp)
	callq	LumaPrediction4x4.3
	addq	$24, %rsp
	popq	%rbx
	popq	%r12
	popq	%r13
	popq	%r14
	popq	%r15
	popq	%rbp
	.cfi_def_cfa %rsp, 8
	retq
.LBB9_2:                                # %func_LumaPrediction4x4.8
	.cfi_def_cfa %rbp, 16
	movl	%r14d, %esi
	movl	%ebx, %edx
	movl	%r15d, %ecx
	movl	%r13d, %r8d
	movswl	%r12w, %r9d
	movswl	%r10w, %eax
	movl	%eax, (%rsp)
	callq	LumaPrediction4x4.8
	addq	$24, %rsp
	popq	%rbx
	popq	%r12
	popq	%r13
	popq	%r14
	popq	%r15
	popq	%rbp
	.cfi_def_cfa %rsp, 8
	retq
.LBB9_3:                                # %func_LumaPrediction4x4.11
	.cfi_def_cfa %rbp, 16
	movl	%r14d, %esi
	movl	%ebx, %edx
	movl	%r15d, %ecx
	movl	%r13d, %r8d
	movswl	%r12w, %r9d
	movswl	%r10w, %eax
	movl	%eax, (%rsp)
	callq	LumaPrediction4x4.11
	addq	$24, %rsp
	popq	%rbx
	popq	%r12
	popq	%r13
	popq	%r14
	popq	%r15
	popq	%rbp
	.cfi_def_cfa %rsp, 8
	retq
.LBB9_4:                                # %func_LumaPrediction4x4.27
	.cfi_def_cfa %rbp, 16
	movl	%r14d, %esi
	movl	%ebx, %edx
	movl	%r15d, %ecx
	movl	%r13d, %r8d
	movswl	%r12w, %r9d
	movswl	%r10w, %eax
	movl	%eax, (%rsp)
	callq	LumaPrediction4x4.27
	addq	$24, %rsp
	popq	%rbx
	popq	%r12
	popq	%r13
	popq	%r14
	popq	%r15
	popq	%rbp
	.cfi_def_cfa %rsp, 8
	retq
.LBB9_5:                                # %func_LumaPrediction4x4.55
	.cfi_def_cfa %rbp, 16
	movl	%r14d, %esi
	movl	%ebx, %edx
	movl	%r15d, %ecx
	movl	%r13d, %r8d
	movswl	%r12w, %r9d
	movswl	%r10w, %eax
	movl	%eax, (%rsp)
	callq	LumaPrediction4x4.55
	addq	$24, %rsp
	popq	%rbx
	popq	%r12
	popq	%r13
	popq	%r14
	popq	%r15
	popq	%rbp
	.cfi_def_cfa %rsp, 8
	retq
.LBB9_6:                                # %func_LumaPrediction4x4.59
	.cfi_def_cfa %rbp, 16
	movl	%r14d, %esi
	movl	%ebx, %edx
	movl	%r15d, %ecx
	movl	%r13d, %r8d
	movswl	%r12w, %r9d
	movswl	%r10w, %eax
	movl	%eax, (%rsp)
	callq	LumaPrediction4x4.59
	addq	$24, %rsp
	popq	%rbx
	popq	%r12
	popq	%r13
	popq	%r14
	popq	%r15
	popq	%rbp
	.cfi_def_cfa %rsp, 8
	retq
.LBB9_7:                                # %func_LumaPrediction4x4.119
	.cfi_def_cfa %rbp, 16
	movswl	%r12w, %r9d
	movswl	%r10w, %eax
	movl	%eax, (%rsp)
	callq	LumaPrediction4x4.119
	addq	$24, %rsp
	popq	%rbx
	popq	%r12
	popq	%r13
	popq	%r14
	popq	%r15
	popq	%rbp
	.cfi_def_cfa %rsp, 8
	retq
.LBB9_8:                                # %func_LumaPrediction4x4.149
	.cfi_def_cfa %rbp, 16
	movswl	%r12w, %r9d
	movswl	%r10w, %eax
	movl	%eax, (%rsp)
	callq	LumaPrediction4x4.149
	addq	$24, %rsp
	popq	%rbx
	popq	%r12
	popq	%r13
	popq	%r14
	popq	%r15
	popq	%rbp
	.cfi_def_cfa %rsp, 8
	retq
.LBB9_9:                                # %ctrl0
	.cfi_def_cfa %rbp, 16
	movl	%r12d, %edi
	movl	-44(%rbp), %r12d        # 4-byte Reload
	movw	16(%rbp), %r10w
	cmpl	$1, %eax
	je	.LBB9_2
# %bb.10:                               # %ctrl1
	cmpl	$2, %eax
	je	.LBB9_3
# %bb.11:                               # %ctrl2
	cmpl	$3, %eax
	je	.LBB9_4
# %bb.12:                               # %ctrl3
	cmpl	$4, %eax
	je	.LBB9_5
# %bb.13:                               # %ctrl4
	cmpl	$5, %eax
	je	.LBB9_6
# %bb.14:                               # %ctrl5
	cmpl	$6, %eax
	movl	%r13d, %r8d
	movl	%r15d, %ecx
	movl	%ebx, %edx
	movl	%r14d, %esi
	je	.LBB9_7
	jmp	.LBB9_8
.Lfunc_end9:
	.size	LumaPrediction4x4, .Lfunc_end9-LumaPrediction4x4
	.cfi_endproc
                                        # -- End function
	.globl	LumaPrediction4x4Bi     # -- Begin function LumaPrediction4x4Bi
	.p2align	4, 0x90
	.type	LumaPrediction4x4Bi,@function
LumaPrediction4x4Bi:                    # @LumaPrediction4x4Bi
	.cfi_startproc
# %bb.0:                                # %rand_bb
	pushq	%rbp
	.cfi_def_cfa_offset 16
	.cfi_offset %rbp, -16
	movq	%rsp, %rbp
	.cfi_def_cfa_register %rbp
	pushq	%r15
	pushq	%r14
	pushq	%r13
	pushq	%r12
	pushq	%rbx
	subq	$24, %rsp
	.cfi_offset %rbx, -56
	.cfi_offset %r12, -48
	.cfi_offset %r13, -40
	.cfi_offset %r14, -32
	.cfi_offset %r15, -24
	movl	%r9d, -44(%rbp)         # 4-byte Spill
	movl	%r8d, %r13d
	movl	%ecx, %r12d
	movl	%edx, %ebx
	movl	%esi, %r14d
	movl	%edi, %r15d
	callq	get_rand
	cmpl	$0, %eax
	jne	.LBB10_9
# %bb.1:                                # %func_LumaPrediction4x4Bi.14
	movl	%r15d, %edi
	movl	%r14d, %esi
	movl	%ebx, %edx
	movl	%r12d, %ecx
	movl	%r13d, %r8d
	movswl	-44(%rbp), %r9d         # 2-byte Folded Reload
	movswl	16(%rbp), %eax
	movl	%eax, (%rsp)
	movl	24(%rbp), %eax
	movl	%eax, 8(%rsp)
	callq	LumaPrediction4x4Bi.14
	addq	$24, %rsp
	popq	%rbx
	popq	%r12
	popq	%r13
	popq	%r14
	popq	%r15
	popq	%rbp
	.cfi_def_cfa %rsp, 8
	retq
.LBB10_2:                               # %func_LumaPrediction4x4Bi.36
	.cfi_def_cfa %rbp, 16
	movl	%r14d, %esi
	movl	%ebx, %edx
	movl	%r12d, %ecx
	movl	%r13d, %r8d
	movswl	%r15w, %r9d
	movswl	%r11w, %eax
	movl	%eax, (%rsp)
	movl	%r10d, 8(%rsp)
	callq	LumaPrediction4x4Bi.36
	addq	$24, %rsp
	popq	%rbx
	popq	%r12
	popq	%r13
	popq	%r14
	popq	%r15
	popq	%rbp
	.cfi_def_cfa %rsp, 8
	retq
.LBB10_3:                               # %func_LumaPrediction4x4Bi.43
	.cfi_def_cfa %rbp, 16
	movl	%r14d, %esi
	movl	%ebx, %edx
	movl	%r12d, %ecx
	movl	%r13d, %r8d
	movswl	%r15w, %r9d
	movswl	%r11w, %eax
	movl	%eax, (%rsp)
	movl	%r10d, 8(%rsp)
	callq	LumaPrediction4x4Bi.43
	addq	$24, %rsp
	popq	%rbx
	popq	%r12
	popq	%r13
	popq	%r14
	popq	%r15
	popq	%rbp
	.cfi_def_cfa %rsp, 8
	retq
.LBB10_4:                               # %func_LumaPrediction4x4Bi.150
	.cfi_def_cfa %rbp, 16
	movl	%r14d, %esi
	movl	%ebx, %edx
	movl	%r12d, %ecx
	movl	%r13d, %r8d
	movswl	%r15w, %r9d
	movswl	%r11w, %eax
	movl	%eax, (%rsp)
	movl	%r10d, 8(%rsp)
	callq	LumaPrediction4x4Bi.150
	addq	$24, %rsp
	popq	%rbx
	popq	%r12
	popq	%r13
	popq	%r14
	popq	%r15
	popq	%rbp
	.cfi_def_cfa %rsp, 8
	retq
.LBB10_5:                               # %func_LumaPrediction4x4Bi.159
	.cfi_def_cfa %rbp, 16
	movl	%r14d, %esi
	movl	%ebx, %edx
	movl	%r12d, %ecx
	movl	%r13d, %r8d
	movswl	%r15w, %r9d
	movswl	%r11w, %eax
	movl	%eax, (%rsp)
	movl	%r10d, 8(%rsp)
	callq	LumaPrediction4x4Bi.159
	addq	$24, %rsp
	popq	%rbx
	popq	%r12
	popq	%r13
	popq	%r14
	popq	%r15
	popq	%rbp
	.cfi_def_cfa %rsp, 8
	retq
.LBB10_6:                               # %func_LumaPrediction4x4Bi.213
	.cfi_def_cfa %rbp, 16
	movl	%r14d, %esi
	movl	%ebx, %edx
	movl	%r12d, %ecx
	movl	%r13d, %r8d
	movswl	%r15w, %r9d
	movswl	%r11w, %eax
	movl	%eax, (%rsp)
	movl	%r10d, 8(%rsp)
	callq	LumaPrediction4x4Bi.213
	addq	$24, %rsp
	popq	%rbx
	popq	%r12
	popq	%r13
	popq	%r14
	popq	%r15
	popq	%rbp
	.cfi_def_cfa %rsp, 8
	retq
.LBB10_7:                               # %func_LumaPrediction4x4Bi.220
	.cfi_def_cfa %rbp, 16
	movswl	%r15w, %r9d
	movswl	%r11w, %eax
	movl	%eax, (%rsp)
	movl	%r10d, 8(%rsp)
	callq	LumaPrediction4x4Bi.220
	addq	$24, %rsp
	popq	%rbx
	popq	%r12
	popq	%r13
	popq	%r14
	popq	%r15
	popq	%rbp
	.cfi_def_cfa %rsp, 8
	retq
.LBB10_8:                               # %func_LumaPrediction4x4Bi.249
	.cfi_def_cfa %rbp, 16
	movswl	%r15w, %r9d
	movswl	%r11w, %eax
	movl	%eax, (%rsp)
	movl	%r10d, 8(%rsp)
	callq	LumaPrediction4x4Bi.249
	addq	$24, %rsp
	popq	%rbx
	popq	%r12
	popq	%r13
	popq	%r14
	popq	%r15
	popq	%rbp
	.cfi_def_cfa %rsp, 8
	retq
.LBB10_9:                               # %ctrl0
	.cfi_def_cfa %rbp, 16
	movl	%r15d, %edi
	movl	-44(%rbp), %r15d        # 4-byte Reload
	movw	16(%rbp), %r11w
	movl	24(%rbp), %r10d
	cmpl	$1, %eax
	je	.LBB10_2
# %bb.10:                               # %ctrl1
	cmpl	$2, %eax
	je	.LBB10_3
# %bb.11:                               # %ctrl2
	cmpl	$3, %eax
	je	.LBB10_4
# %bb.12:                               # %ctrl3
	cmpl	$4, %eax
	je	.LBB10_5
# %bb.13:                               # %ctrl4
	cmpl	$5, %eax
	je	.LBB10_6
# %bb.14:                               # %ctrl5
	cmpl	$6, %eax
	movl	%r13d, %r8d
	movl	%r12d, %ecx
	movl	%ebx, %edx
	movl	%r14d, %esi
	je	.LBB10_7
	jmp	.LBB10_8
.Lfunc_end10:
	.size	LumaPrediction4x4Bi, .Lfunc_end10-LumaPrediction4x4Bi
	.cfi_endproc
                                        # -- End function
	.globl	LumaResidualCoding8x8   # -- Begin function LumaResidualCoding8x8
	.p2align	4, 0x90
	.type	LumaResidualCoding8x8,@function
LumaResidualCoding8x8:                  # @LumaResidualCoding8x8
	.cfi_startproc
# %bb.0:                                # %rand_bb
	pushq	%rbp
	.cfi_def_cfa_offset 16
	.cfi_offset %rbp, -16
	movq	%rsp, %rbp
	.cfi_def_cfa_register %rbp
	pushq	%r15
	pushq	%r14
	pushq	%r13
	pushq	%r12
	pushq	%rbx
	subq	$24, %rsp
	.cfi_offset %rbx, -56
	.cfi_offset %r12, -48
	.cfi_offset %r13, -40
	.cfi_offset %r14, -32
	.cfi_offset %r15, -24
	movl	%r9d, -44(%rbp)         # 4-byte Spill
	movl	%r8d, %r13d
	movl	%ecx, %r15d
	movl	%edx, %ebx
	movq	%rsi, %r14
	movq	%rdi, %r12
	callq	get_rand
	cmpl	$0, %eax
	jne	.LBB11_9
# %bb.1:                                # %func_LumaResidualCoding8x8.16
	movq	%r12, %rdi
	movq	%r14, %rsi
	movl	%ebx, %edx
	movswl	%r15w, %ecx
	movl	%r13d, %r8d
	movl	-44(%rbp), %r9d         # 4-byte Reload
	movswl	16(%rbp), %eax
	movl	%eax, (%rsp)
	movswl	24(%rbp), %eax
	movl	%eax, 8(%rsp)
	callq	LumaResidualCoding8x8.16
	addq	$24, %rsp
	popq	%rbx
	popq	%r12
	popq	%r13
	popq	%r14
	popq	%r15
	popq	%rbp
	.cfi_def_cfa %rsp, 8
	retq
.LBB11_2:                               # %func_LumaResidualCoding8x8.92
	.cfi_def_cfa %rbp, 16
	movq	%r12, %rdi
	movq	%r14, %rsi
	movl	%ebx, %edx
	movswl	%r15w, %ecx
	movl	%r13d, %r8d
	movswl	%r11w, %eax
	movl	%eax, (%rsp)
	movswl	%r10w, %eax
	movl	%eax, 8(%rsp)
	callq	LumaResidualCoding8x8.92
	addq	$24, %rsp
	popq	%rbx
	popq	%r12
	popq	%r13
	popq	%r14
	popq	%r15
	popq	%rbp
	.cfi_def_cfa %rsp, 8
	retq
.LBB11_3:                               # %func_LumaResidualCoding8x8.105
	.cfi_def_cfa %rbp, 16
	movq	%r12, %rdi
	movq	%r14, %rsi
	movl	%ebx, %edx
	movswl	%r15w, %ecx
	movl	%r13d, %r8d
	movswl	%r11w, %eax
	movl	%eax, (%rsp)
	movswl	%r10w, %eax
	movl	%eax, 8(%rsp)
	callq	LumaResidualCoding8x8.105
	addq	$24, %rsp
	popq	%rbx
	popq	%r12
	popq	%r13
	popq	%r14
	popq	%r15
	popq	%rbp
	.cfi_def_cfa %rsp, 8
	retq
.LBB11_4:                               # %func_LumaResidualCoding8x8.139
	.cfi_def_cfa %rbp, 16
	movq	%r12, %rdi
	movq	%r14, %rsi
	movl	%ebx, %edx
	movswl	%r15w, %ecx
	movl	%r13d, %r8d
	movswl	%r11w, %eax
	movl	%eax, (%rsp)
	movswl	%r10w, %eax
	movl	%eax, 8(%rsp)
	callq	LumaResidualCoding8x8.139
	addq	$24, %rsp
	popq	%rbx
	popq	%r12
	popq	%r13
	popq	%r14
	popq	%r15
	popq	%rbp
	.cfi_def_cfa %rsp, 8
	retq
.LBB11_5:                               # %func_LumaResidualCoding8x8.195
	.cfi_def_cfa %rbp, 16
	movq	%r12, %rdi
	movq	%r14, %rsi
	movl	%ebx, %edx
	movswl	%r15w, %ecx
	movl	%r13d, %r8d
	movswl	%r11w, %eax
	movl	%eax, (%rsp)
	movswl	%r10w, %eax
	movl	%eax, 8(%rsp)
	callq	LumaResidualCoding8x8.195
	addq	$24, %rsp
	popq	%rbx
	popq	%r12
	popq	%r13
	popq	%r14
	popq	%r15
	popq	%rbp
	.cfi_def_cfa %rsp, 8
	retq
.LBB11_6:                               # %func_LumaResidualCoding8x8.219
	.cfi_def_cfa %rbp, 16
	movq	%r12, %rdi
	movq	%r14, %rsi
	movl	%ebx, %edx
	movswl	%r15w, %ecx
	movl	%r13d, %r8d
	movswl	%r11w, %eax
	movl	%eax, (%rsp)
	movswl	%r10w, %eax
	movl	%eax, 8(%rsp)
	callq	LumaResidualCoding8x8.219
	addq	$24, %rsp
	popq	%rbx
	popq	%r12
	popq	%r13
	popq	%r14
	popq	%r15
	popq	%rbp
	.cfi_def_cfa %rsp, 8
	retq
.LBB11_7:                               # %func_LumaResidualCoding8x8.246
	.cfi_def_cfa %rbp, 16
	movswl	%r15w, %ecx
	movswl	%r11w, %eax
	movl	%eax, (%rsp)
	movswl	%r10w, %eax
	movl	%eax, 8(%rsp)
	callq	LumaResidualCoding8x8.246
	addq	$24, %rsp
	popq	%rbx
	popq	%r12
	popq	%r13
	popq	%r14
	popq	%r15
	popq	%rbp
	.cfi_def_cfa %rsp, 8
	retq
.LBB11_8:                               # %func_LumaResidualCoding8x8.278
	.cfi_def_cfa %rbp, 16
	movswl	%r15w, %ecx
	movswl	%r11w, %eax
	movl	%eax, (%rsp)
	movswl	%r10w, %eax
	movl	%eax, 8(%rsp)
	callq	LumaResidualCoding8x8.278
	addq	$24, %rsp
	popq	%rbx
	popq	%r12
	popq	%r13
	popq	%r14
	popq	%r15
	popq	%rbp
	.cfi_def_cfa %rsp, 8
	retq
.LBB11_9:                               # %ctrl0
	.cfi_def_cfa %rbp, 16
	movw	16(%rbp), %r11w
	movl	-44(%rbp), %r9d         # 4-byte Reload
	movw	24(%rbp), %r10w
	cmpl	$1, %eax
	je	.LBB11_2
# %bb.10:                               # %ctrl1
	cmpl	$2, %eax
	je	.LBB11_3
# %bb.11:                               # %ctrl2
	cmpl	$3, %eax
	je	.LBB11_4
# %bb.12:                               # %ctrl3
	cmpl	$4, %eax
	je	.LBB11_5
# %bb.13:                               # %ctrl4
	cmpl	$5, %eax
	je	.LBB11_6
# %bb.14:                               # %ctrl5
	cmpl	$6, %eax
	movl	%r13d, %r8d
	movl	%ebx, %edx
	movq	%r14, %rsi
	movq	%r12, %rdi
	je	.LBB11_7
	jmp	.LBB11_8
.Lfunc_end11:
	.size	LumaResidualCoding8x8, .Lfunc_end11-LumaResidualCoding8x8
	.cfi_endproc
                                        # -- End function
	.globl	ChromaPrediction4x4     # -- Begin function ChromaPrediction4x4
	.p2align	4, 0x90
	.type	ChromaPrediction4x4,@function
ChromaPrediction4x4:                    # @ChromaPrediction4x4
	.cfi_startproc
# %bb.0:                                # %rand_bb
	pushq	%rbp
	.cfi_def_cfa_offset 16
	.cfi_offset %rbp, -16
	movq	%rsp, %rbp
	.cfi_def_cfa_register %rbp
	pushq	%r15
	pushq	%r14
	pushq	%r13
	pushq	%r12
	pushq	%rbx
	subq	$24, %rsp
	.cfi_offset %rbx, -56
	.cfi_offset %r12, -48
	.cfi_offset %r13, -40
	.cfi_offset %r14, -32
	.cfi_offset %r15, -24
	movl	%r9d, -44(%rbp)         # 4-byte Spill
	movl	%r8d, %r15d
	movl	%ecx, %r12d
	movl	%edx, %ebx
	movl	%esi, %r14d
	movl	%edi, %r13d
	callq	get_rand
	cmpl	$0, %eax
	jne	.LBB12_9
# %bb.1:                                # %func_ChromaPrediction4x4.2
	movl	%r13d, %edi
	movl	%r14d, %esi
	movl	%ebx, %edx
	movl	%r12d, %ecx
	movl	%r15d, %r8d
	movl	-44(%rbp), %r9d         # 4-byte Reload
	movswl	16(%rbp), %eax
	movl	%eax, (%rsp)
	movswl	24(%rbp), %eax
	movl	%eax, 8(%rsp)
	callq	ChromaPrediction4x4.2
	addq	$24, %rsp
	popq	%rbx
	popq	%r12
	popq	%r13
	popq	%r14
	popq	%r15
	popq	%rbp
	.cfi_def_cfa %rsp, 8
	retq
.LBB12_2:                               # %func_ChromaPrediction4x4.18
	.cfi_def_cfa %rbp, 16
	movl	%r13d, %edi
	movl	%r14d, %esi
	movl	%ebx, %edx
	movl	%r12d, %ecx
	movl	%r15d, %r8d
	movswl	%r11w, %eax
	movl	%eax, (%rsp)
	movswl	%r10w, %eax
	movl	%eax, 8(%rsp)
	callq	ChromaPrediction4x4.18
	addq	$24, %rsp
	popq	%rbx
	popq	%r12
	popq	%r13
	popq	%r14
	popq	%r15
	popq	%rbp
	.cfi_def_cfa %rsp, 8
	retq
.LBB12_3:                               # %func_ChromaPrediction4x4.19
	.cfi_def_cfa %rbp, 16
	movl	%r13d, %edi
	movl	%r14d, %esi
	movl	%ebx, %edx
	movl	%r12d, %ecx
	movl	%r15d, %r8d
	movswl	%r11w, %eax
	movl	%eax, (%rsp)
	movswl	%r10w, %eax
	movl	%eax, 8(%rsp)
	callq	ChromaPrediction4x4.19
	addq	$24, %rsp
	popq	%rbx
	popq	%r12
	popq	%r13
	popq	%r14
	popq	%r15
	popq	%rbp
	.cfi_def_cfa %rsp, 8
	retq
.LBB12_4:                               # %func_ChromaPrediction4x4.69
	.cfi_def_cfa %rbp, 16
	movl	%r13d, %edi
	movl	%r14d, %esi
	movl	%ebx, %edx
	movl	%r12d, %ecx
	movl	%r15d, %r8d
	movswl	%r11w, %eax
	movl	%eax, (%rsp)
	movswl	%r10w, %eax
	movl	%eax, 8(%rsp)
	callq	ChromaPrediction4x4.69
	addq	$24, %rsp
	popq	%rbx
	popq	%r12
	popq	%r13
	popq	%r14
	popq	%r15
	popq	%rbp
	.cfi_def_cfa %rsp, 8
	retq
.LBB12_5:                               # %func_ChromaPrediction4x4.75
	.cfi_def_cfa %rbp, 16
	movl	%r13d, %edi
	movl	%r14d, %esi
	movl	%ebx, %edx
	movl	%r12d, %ecx
	movl	%r15d, %r8d
	movswl	%r11w, %eax
	movl	%eax, (%rsp)
	movswl	%r10w, %eax
	movl	%eax, 8(%rsp)
	callq	ChromaPrediction4x4.75
	addq	$24, %rsp
	popq	%rbx
	popq	%r12
	popq	%r13
	popq	%r14
	popq	%r15
	popq	%rbp
	.cfi_def_cfa %rsp, 8
	retq
.LBB12_6:                               # %func_ChromaPrediction4x4.102
	.cfi_def_cfa %rbp, 16
	movl	%r13d, %edi
	movl	%r14d, %esi
	movl	%ebx, %edx
	movl	%r12d, %ecx
	movl	%r15d, %r8d
	movswl	%r11w, %eax
	movl	%eax, (%rsp)
	movswl	%r10w, %eax
	movl	%eax, 8(%rsp)
	callq	ChromaPrediction4x4.102
	addq	$24, %rsp
	popq	%rbx
	popq	%r12
	popq	%r13
	popq	%r14
	popq	%r15
	popq	%rbp
	.cfi_def_cfa %rsp, 8
	retq
.LBB12_7:                               # %func_ChromaPrediction4x4.156
	.cfi_def_cfa %rbp, 16
	movswl	%r11w, %eax
	movl	%eax, (%rsp)
	movswl	%r10w, %eax
	movl	%eax, 8(%rsp)
	callq	ChromaPrediction4x4.156
	addq	$24, %rsp
	popq	%rbx
	popq	%r12
	popq	%r13
	popq	%r14
	popq	%r15
	popq	%rbp
	.cfi_def_cfa %rsp, 8
	retq
.LBB12_8:                               # %func_ChromaPrediction4x4.190
	.cfi_def_cfa %rbp, 16
	movswl	%r11w, %eax
	movl	%eax, (%rsp)
	movswl	%r10w, %eax
	movl	%eax, 8(%rsp)
	callq	ChromaPrediction4x4.190
	addq	$24, %rsp
	popq	%rbx
	popq	%r12
	popq	%r13
	popq	%r14
	popq	%r15
	popq	%rbp
	.cfi_def_cfa %rsp, 8
	retq
.LBB12_9:                               # %ctrl0
	.cfi_def_cfa %rbp, 16
	movl	-44(%rbp), %r9d         # 4-byte Reload
	movw	16(%rbp), %r11w
	movw	24(%rbp), %r10w
	cmpl	$1, %eax
	je	.LBB12_2
# %bb.10:                               # %ctrl1
	cmpl	$2, %eax
	je	.LBB12_3
# %bb.11:                               # %ctrl2
	cmpl	$3, %eax
	je	.LBB12_4
# %bb.12:                               # %ctrl3
	cmpl	$4, %eax
	je	.LBB12_5
# %bb.13:                               # %ctrl4
	cmpl	$5, %eax
	je	.LBB12_6
# %bb.14:                               # %ctrl5
	cmpl	$6, %eax
	movl	%r15d, %r8d
	movl	%r12d, %ecx
	movl	%ebx, %edx
	movl	%r14d, %esi
	movl	%r13d, %edi
	je	.LBB12_7
	jmp	.LBB12_8
.Lfunc_end12:
	.size	ChromaPrediction4x4, .Lfunc_end12-ChromaPrediction4x4
	.cfi_endproc
                                        # -- End function
	.globl	SetModesAndRefframe     # -- Begin function SetModesAndRefframe
	.p2align	4, 0x90
	.type	SetModesAndRefframe,@function
SetModesAndRefframe:                    # @SetModesAndRefframe
	.cfi_startproc
# %bb.0:                                # %rand_bb
	pushq	%rbp
	.cfi_def_cfa_offset 16
	.cfi_offset %rbp, -16
	movq	%rsp, %rbp
	.cfi_def_cfa_register %rbp
	pushq	%r15
	pushq	%r14
	pushq	%r13
	pushq	%r12
	pushq	%rbx
	pushq	%rax
	.cfi_offset %rbx, -56
	.cfi_offset %r12, -48
	.cfi_offset %r13, -40
	.cfi_offset %r14, -32
	.cfi_offset %r15, -24
	movq	%r9, -48(%rbp)          # 8-byte Spill
	movq	%r8, %r12
	movq	%rcx, %r13
	movq	%rdx, %rbx
	movq	%rsi, %r14
	movl	%edi, %r15d
	callq	get_rand
	cmpl	$0, %eax
	jne	.LBB13_9
# %bb.1:                                # %func_SetModesAndRefframe.25
	movl	%r15d, %edi
	movq	%r14, %rsi
	movq	%rbx, %rdx
	movq	%r13, %rcx
	movq	%r12, %r8
	movq	-48(%rbp), %r9          # 8-byte Reload
	callq	SetModesAndRefframe.25
	addq	$8, %rsp
	popq	%rbx
	popq	%r12
	popq	%r13
	popq	%r14
	popq	%r15
	popq	%rbp
	.cfi_def_cfa %rsp, 8
	retq
.LBB13_2:                               # %func_SetModesAndRefframe.67
	.cfi_def_cfa %rbp, 16
	movl	%r15d, %edi
	movq	%r14, %rsi
	movq	%rbx, %rdx
	movq	%r13, %rcx
	movq	%r12, %r8
	callq	SetModesAndRefframe.67
	addq	$8, %rsp
	popq	%rbx
	popq	%r12
	popq	%r13
	popq	%r14
	popq	%r15
	popq	%rbp
	.cfi_def_cfa %rsp, 8
	retq
.LBB13_3:                               # %func_SetModesAndRefframe.162
	.cfi_def_cfa %rbp, 16
	movl	%r15d, %edi
	movq	%r14, %rsi
	movq	%rbx, %rdx
	movq	%r13, %rcx
	movq	%r12, %r8
	callq	SetModesAndRefframe.162
	addq	$8, %rsp
	popq	%rbx
	popq	%r12
	popq	%r13
	popq	%r14
	popq	%r15
	popq	%rbp
	.cfi_def_cfa %rsp, 8
	retq
.LBB13_4:                               # %func_SetModesAndRefframe.194
	.cfi_def_cfa %rbp, 16
	movl	%r15d, %edi
	movq	%r14, %rsi
	movq	%rbx, %rdx
	movq	%r13, %rcx
	movq	%r12, %r8
	callq	SetModesAndRefframe.194
	addq	$8, %rsp
	popq	%rbx
	popq	%r12
	popq	%r13
	popq	%r14
	popq	%r15
	popq	%rbp
	.cfi_def_cfa %rsp, 8
	retq
.LBB13_5:                               # %func_SetModesAndRefframe.200
	.cfi_def_cfa %rbp, 16
	movl	%r15d, %edi
	movq	%r14, %rsi
	movq	%rbx, %rdx
	movq	%r13, %rcx
	movq	%r12, %r8
	callq	SetModesAndRefframe.200
	addq	$8, %rsp
	popq	%rbx
	popq	%r12
	popq	%r13
	popq	%r14
	popq	%r15
	popq	%rbp
	.cfi_def_cfa %rsp, 8
	retq
.LBB13_6:                               # %func_SetModesAndRefframe.209
	.cfi_def_cfa %rbp, 16
	movl	%r15d, %edi
	movq	%r14, %rsi
	movq	%rbx, %rdx
	movq	%r13, %rcx
	movq	%r12, %r8
	callq	SetModesAndRefframe.209
	addq	$8, %rsp
	popq	%rbx
	popq	%r12
	popq	%r13
	popq	%r14
	popq	%r15
	popq	%rbp
	.cfi_def_cfa %rsp, 8
	retq
.LBB13_7:                               # %func_SetModesAndRefframe.248
	.cfi_def_cfa %rbp, 16
	callq	SetModesAndRefframe.248
	addq	$8, %rsp
	popq	%rbx
	popq	%r12
	popq	%r13
	popq	%r14
	popq	%r15
	popq	%rbp
	.cfi_def_cfa %rsp, 8
	retq
.LBB13_8:                               # %func_SetModesAndRefframe.282
	.cfi_def_cfa %rbp, 16
	callq	SetModesAndRefframe.282
	addq	$8, %rsp
	popq	%rbx
	popq	%r12
	popq	%r13
	popq	%r14
	popq	%r15
	popq	%rbp
	.cfi_def_cfa %rsp, 8
	retq
.LBB13_9:                               # %ctrl0
	.cfi_def_cfa %rbp, 16
	movq	-48(%rbp), %r9          # 8-byte Reload
	cmpl	$1, %eax
	je	.LBB13_2
# %bb.10:                               # %ctrl1
	cmpl	$2, %eax
	je	.LBB13_3
# %bb.11:                               # %ctrl2
	cmpl	$3, %eax
	je	.LBB13_4
# %bb.12:                               # %ctrl3
	cmpl	$4, %eax
	je	.LBB13_5
# %bb.13:                               # %ctrl4
	cmpl	$5, %eax
	je	.LBB13_6
# %bb.14:                               # %ctrl5
	cmpl	$6, %eax
	movq	%r12, %r8
	movq	%r13, %rcx
	movq	%rbx, %rdx
	movq	%r14, %rsi
	movl	%r15d, %edi
	je	.LBB13_7
	jmp	.LBB13_8
.Lfunc_end13:
	.size	SetModesAndRefframe, .Lfunc_end13-SetModesAndRefframe
	.cfi_endproc
                                        # -- End function
	.globl	LumaResidualCoding      # -- Begin function LumaResidualCoding
	.p2align	4, 0x90
	.type	LumaResidualCoding,@function
LumaResidualCoding:                     # @LumaResidualCoding
	.cfi_startproc
# %bb.0:                                # %rand_bb
	pushq	%rbp
	.cfi_def_cfa_offset 16
	.cfi_offset %rbp, -16
	movq	%rsp, %rbp
	.cfi_def_cfa_register %rbp
	callq	get_rand
	cmpl	$0, %eax
	jne	.LBB14_9
# %bb.1:                                # %func_LumaResidualCoding.86
	callq	LumaResidualCoding.86
	popq	%rbp
	.cfi_def_cfa %rsp, 8
	retq
.LBB14_2:                               # %func_LumaResidualCoding.116
	.cfi_def_cfa %rbp, 16
	callq	LumaResidualCoding.116
	popq	%rbp
	.cfi_def_cfa %rsp, 8
	retq
.LBB14_3:                               # %func_LumaResidualCoding.181
	.cfi_def_cfa %rbp, 16
	callq	LumaResidualCoding.181
	popq	%rbp
	.cfi_def_cfa %rsp, 8
	retq
.LBB14_4:                               # %func_LumaResidualCoding.228
	.cfi_def_cfa %rbp, 16
	callq	LumaResidualCoding.228
	popq	%rbp
	.cfi_def_cfa %rsp, 8
	retq
.LBB14_5:                               # %func_LumaResidualCoding.238
	.cfi_def_cfa %rbp, 16
	callq	LumaResidualCoding.238
	popq	%rbp
	.cfi_def_cfa %rsp, 8
	retq
.LBB14_6:                               # %func_LumaResidualCoding.262
	.cfi_def_cfa %rbp, 16
	callq	LumaResidualCoding.262
	popq	%rbp
	.cfi_def_cfa %rsp, 8
	retq
.LBB14_7:                               # %func_LumaResidualCoding.280
	.cfi_def_cfa %rbp, 16
	callq	LumaResidualCoding.280
	popq	%rbp
	.cfi_def_cfa %rsp, 8
	retq
.LBB14_8:                               # %func_LumaResidualCoding.283
	.cfi_def_cfa %rbp, 16
	callq	LumaResidualCoding.283
	popq	%rbp
	.cfi_def_cfa %rsp, 8
	retq
.LBB14_9:                               # %ctrl0
	.cfi_def_cfa %rbp, 16
	cmpl	$1, %eax
	je	.LBB14_2
# %bb.10:                               # %ctrl1
	cmpl	$2, %eax
	je	.LBB14_3
# %bb.11:                               # %ctrl2
	cmpl	$3, %eax
	je	.LBB14_4
# %bb.12:                               # %ctrl3
	cmpl	$4, %eax
	je	.LBB14_5
# %bb.13:                               # %ctrl4
	cmpl	$5, %eax
	je	.LBB14_6
# %bb.14:                               # %ctrl5
	cmpl	$6, %eax
	je	.LBB14_7
	jmp	.LBB14_8
.Lfunc_end14:
	.size	LumaResidualCoding, .Lfunc_end14-LumaResidualCoding
	.cfi_endproc
                                        # -- End function
	.globl	TransformDecision       # -- Begin function TransformDecision
	.p2align	4, 0x90
	.type	TransformDecision,@function
TransformDecision:                      # @TransformDecision
	.cfi_startproc
# %bb.0:                                # %rand_bb
	pushq	%rbp
	.cfi_def_cfa_offset 16
	.cfi_offset %rbp, -16
	movq	%rsp, %rbp
	.cfi_def_cfa_register %rbp
	pushq	%r14
	pushq	%rbx
	.cfi_offset %rbx, -32
	.cfi_offset %r14, -24
	movq	%rsi, %r14
	movl	%edi, %ebx
	callq	get_rand
	cmpl	$0, %eax
	jne	.LBB15_9
# %bb.1:                                # %func_TransformDecision.152
	movl	%ebx, %edi
	movq	%r14, %rsi
	callq	TransformDecision.152
	popq	%rbx
	popq	%r14
	popq	%rbp
	.cfi_def_cfa %rsp, 8
	retq
.LBB15_2:                               # %func_TransformDecision.165
	.cfi_def_cfa %rbp, 16
	movl	%ebx, %edi
	movq	%r14, %rsi
	callq	TransformDecision.165
	popq	%rbx
	popq	%r14
	popq	%rbp
	.cfi_def_cfa %rsp, 8
	retq
.LBB15_3:                               # %func_TransformDecision.169
	.cfi_def_cfa %rbp, 16
	movl	%ebx, %edi
	movq	%r14, %rsi
	callq	TransformDecision.169
	popq	%rbx
	popq	%r14
	popq	%rbp
	.cfi_def_cfa %rsp, 8
	retq
.LBB15_4:                               # %func_TransformDecision.217
	.cfi_def_cfa %rbp, 16
	movl	%ebx, %edi
	movq	%r14, %rsi
	callq	TransformDecision.217
	popq	%rbx
	popq	%r14
	popq	%rbp
	.cfi_def_cfa %rsp, 8
	retq
.LBB15_5:                               # %func_TransformDecision.225
	.cfi_def_cfa %rbp, 16
	movl	%ebx, %edi
	movq	%r14, %rsi
	callq	TransformDecision.225
	popq	%rbx
	popq	%r14
	popq	%rbp
	.cfi_def_cfa %rsp, 8
	retq
.LBB15_6:                               # %func_TransformDecision.242
	.cfi_def_cfa %rbp, 16
	movl	%ebx, %edi
	movq	%r14, %rsi
	callq	TransformDecision.242
	popq	%rbx
	popq	%r14
	popq	%rbp
	.cfi_def_cfa %rsp, 8
	retq
.LBB15_7:                               # %func_TransformDecision.245
	.cfi_def_cfa %rbp, 16
	movl	%ebx, %edi
	movq	%r14, %rsi
	callq	TransformDecision.245
	popq	%rbx
	popq	%r14
	popq	%rbp
	.cfi_def_cfa %rsp, 8
	retq
.LBB15_8:                               # %func_TransformDecision.284
	.cfi_def_cfa %rbp, 16
	movl	%ebx, %edi
	movq	%r14, %rsi
	callq	TransformDecision.284
	popq	%rbx
	popq	%r14
	popq	%rbp
	.cfi_def_cfa %rsp, 8
	retq
.LBB15_9:                               # %ctrl0
	.cfi_def_cfa %rbp, 16
	cmpl	$1, %eax
	je	.LBB15_2
# %bb.10:                               # %ctrl1
	cmpl	$2, %eax
	je	.LBB15_3
# %bb.11:                               # %ctrl2
	cmpl	$3, %eax
	je	.LBB15_4
# %bb.12:                               # %ctrl3
	cmpl	$4, %eax
	je	.LBB15_5
# %bb.13:                               # %ctrl4
	cmpl	$5, %eax
	je	.LBB15_6
# %bb.14:                               # %ctrl5
	cmpl	$6, %eax
	je	.LBB15_7
	jmp	.LBB15_8
.Lfunc_end15:
	.size	TransformDecision, .Lfunc_end15-TransformDecision
	.cfi_endproc
                                        # -- End function
	.globl	OneComponentChromaPrediction4x4 # -- Begin function OneComponentChromaPrediction4x4
	.p2align	4, 0x90
	.type	OneComponentChromaPrediction4x4,@function
OneComponentChromaPrediction4x4:        # @OneComponentChromaPrediction4x4
	.cfi_startproc
# %bb.0:                                # %rand_bb
	pushq	%rbp
	.cfi_def_cfa_offset 16
	.cfi_offset %rbp, -16
	movq	%rsp, %rbp
	.cfi_def_cfa_register %rbp
	pushq	%r15
	pushq	%r14
	pushq	%r13
	pushq	%r12
	pushq	%rbx
	subq	$24, %rsp
	.cfi_offset %rbx, -56
	.cfi_offset %r12, -48
	.cfi_offset %r13, -40
	.cfi_offset %r14, -32
	.cfi_offset %r15, -24
	movl	%r9d, -44(%rbp)         # 4-byte Spill
	movl	%r8d, %r15d
	movq	%rcx, %r12
	movl	%edx, %ebx
	movl	%esi, %r14d
	movq	%rdi, %r13
	callq	get_rand
	cmpl	$0, %eax
	jne	.LBB16_9
# %bb.1:                                # %func_OneComponentChromaPrediction4x4.39
	movq	%r13, %rdi
	movl	%r14d, %esi
	movl	%ebx, %edx
	movq	%r12, %rcx
	movl	%r15d, %r8d
	movswl	-44(%rbp), %r9d         # 2-byte Folded Reload
	movl	16(%rbp), %eax
	movl	%eax, (%rsp)
	movl	24(%rbp), %eax
	movl	%eax, 8(%rsp)
	callq	OneComponentChromaPrediction4x4.39
	addq	$24, %rsp
	popq	%rbx
	popq	%r12
	popq	%r13
	popq	%r14
	popq	%r15
	popq	%rbp
	.cfi_def_cfa %rsp, 8
	retq
.LBB16_2:                               # %func_OneComponentChromaPrediction4x4.57
	.cfi_def_cfa %rbp, 16
	movl	%r14d, %esi
	movl	%ebx, %edx
	movq	%r12, %rcx
	movl	%r15d, %r8d
	movswl	%r13w, %r9d
	movl	%r11d, (%rsp)
	movl	%r10d, 8(%rsp)
	callq	OneComponentChromaPrediction4x4.57
	addq	$24, %rsp
	popq	%rbx
	popq	%r12
	popq	%r13
	popq	%r14
	popq	%r15
	popq	%rbp
	.cfi_def_cfa %rsp, 8
	retq
.LBB16_3:                               # %func_OneComponentChromaPrediction4x4.107
	.cfi_def_cfa %rbp, 16
	movl	%r14d, %esi
	movl	%ebx, %edx
	movq	%r12, %rcx
	movl	%r15d, %r8d
	movswl	%r13w, %r9d
	movl	%r11d, (%rsp)
	movl	%r10d, 8(%rsp)
	callq	OneComponentChromaPrediction4x4.107
	addq	$24, %rsp
	popq	%rbx
	popq	%r12
	popq	%r13
	popq	%r14
	popq	%r15
	popq	%rbp
	.cfi_def_cfa %rsp, 8
	retq
.LBB16_4:                               # %func_OneComponentChromaPrediction4x4.191
	.cfi_def_cfa %rbp, 16
	movl	%r14d, %esi
	movl	%ebx, %edx
	movq	%r12, %rcx
	movl	%r15d, %r8d
	movswl	%r13w, %r9d
	movl	%r11d, (%rsp)
	movl	%r10d, 8(%rsp)
	callq	OneComponentChromaPrediction4x4.191
	addq	$24, %rsp
	popq	%rbx
	popq	%r12
	popq	%r13
	popq	%r14
	popq	%r15
	popq	%rbp
	.cfi_def_cfa %rsp, 8
	retq
.LBB16_5:                               # %func_OneComponentChromaPrediction4x4.229
	.cfi_def_cfa %rbp, 16
	movl	%r14d, %esi
	movl	%ebx, %edx
	movq	%r12, %rcx
	movl	%r15d, %r8d
	movswl	%r13w, %r9d
	movl	%r11d, (%rsp)
	movl	%r10d, 8(%rsp)
	callq	OneComponentChromaPrediction4x4.229
	addq	$24, %rsp
	popq	%rbx
	popq	%r12
	popq	%r13
	popq	%r14
	popq	%r15
	popq	%rbp
	.cfi_def_cfa %rsp, 8
	retq
.LBB16_6:                               # %func_OneComponentChromaPrediction4x4.251
	.cfi_def_cfa %rbp, 16
	movl	%r14d, %esi
	movl	%ebx, %edx
	movq	%r12, %rcx
	movl	%r15d, %r8d
	movswl	%r13w, %r9d
	movl	%r11d, (%rsp)
	movl	%r10d, 8(%rsp)
	callq	OneComponentChromaPrediction4x4.251
	addq	$24, %rsp
	popq	%rbx
	popq	%r12
	popq	%r13
	popq	%r14
	popq	%r15
	popq	%rbp
	.cfi_def_cfa %rsp, 8
	retq
.LBB16_7:                               # %func_OneComponentChromaPrediction4x4.254
	.cfi_def_cfa %rbp, 16
	movswl	%r13w, %r9d
	movl	%r11d, (%rsp)
	movl	%r10d, 8(%rsp)
	callq	OneComponentChromaPrediction4x4.254
	addq	$24, %rsp
	popq	%rbx
	popq	%r12
	popq	%r13
	popq	%r14
	popq	%r15
	popq	%rbp
	.cfi_def_cfa %rsp, 8
	retq
.LBB16_8:                               # %func_OneComponentChromaPrediction4x4.260
	.cfi_def_cfa %rbp, 16
	movswl	%r13w, %r9d
	movl	%r11d, (%rsp)
	movl	%r10d, 8(%rsp)
	callq	OneComponentChromaPrediction4x4.260
	addq	$24, %rsp
	popq	%rbx
	popq	%r12
	popq	%r13
	popq	%r14
	popq	%r15
	popq	%rbp
	.cfi_def_cfa %rsp, 8
	retq
.LBB16_9:                               # %ctrl0
	.cfi_def_cfa %rbp, 16
	movq	%r13, %rdi
	movl	-44(%rbp), %r13d        # 4-byte Reload
	movl	16(%rbp), %r11d
	movl	24(%rbp), %r10d
	cmpl	$1, %eax
	je	.LBB16_2
# %bb.10:                               # %ctrl1
	cmpl	$2, %eax
	je	.LBB16_3
# %bb.11:                               # %ctrl2
	cmpl	$3, %eax
	je	.LBB16_4
# %bb.12:                               # %ctrl3
	cmpl	$4, %eax
	je	.LBB16_5
# %bb.13:                               # %ctrl4
	cmpl	$5, %eax
	je	.LBB16_6
# %bb.14:                               # %ctrl5
	cmpl	$6, %eax
	movl	%r15d, %r8d
	movq	%r12, %rcx
	movl	%ebx, %edx
	movl	%r14d, %esi
	je	.LBB16_7
	jmp	.LBB16_8
.Lfunc_end16:
	.size	OneComponentChromaPrediction4x4, .Lfunc_end16-OneComponentChromaPrediction4x4
	.cfi_endproc
                                        # -- End function
	.globl	IntraChromaPrediction4x4 # -- Begin function IntraChromaPrediction4x4
	.p2align	4, 0x90
	.type	IntraChromaPrediction4x4,@function
IntraChromaPrediction4x4:               # @IntraChromaPrediction4x4
	.cfi_startproc
# %bb.0:                                # %rand_bb
	pushq	%rbp
	.cfi_def_cfa_offset 16
	.cfi_offset %rbp, -16
	movq	%rsp, %rbp
	.cfi_def_cfa_register %rbp
	pushq	%r15
	pushq	%r14
	pushq	%rbx
	pushq	%rax
	.cfi_offset %rbx, -40
	.cfi_offset %r14, -32
	.cfi_offset %r15, -24
	movl	%edx, %r14d
	movl	%esi, %r15d
	movl	%edi, %ebx
	callq	get_rand
	cmpl	$0, %eax
	jne	.LBB17_9
# %bb.1:                                # %func_IntraChromaPrediction4x4.17
	movl	%ebx, %edi
	movl	%r15d, %esi
	movl	%r14d, %edx
	callq	IntraChromaPrediction4x4.17
	addq	$8, %rsp
	popq	%rbx
	popq	%r14
	popq	%r15
	popq	%rbp
	.cfi_def_cfa %rsp, 8
	retq
.LBB17_2:                               # %func_IntraChromaPrediction4x4.29
	.cfi_def_cfa %rbp, 16
	movl	%ebx, %edi
	movl	%r15d, %esi
	movl	%r14d, %edx
	callq	IntraChromaPrediction4x4.29
	addq	$8, %rsp
	popq	%rbx
	popq	%r14
	popq	%r15
	popq	%rbp
	.cfi_def_cfa %rsp, 8
	retq
.LBB17_3:                               # %func_IntraChromaPrediction4x4.47
	.cfi_def_cfa %rbp, 16
	movl	%ebx, %edi
	movl	%r15d, %esi
	movl	%r14d, %edx
	callq	IntraChromaPrediction4x4.47
	addq	$8, %rsp
	popq	%rbx
	popq	%r14
	popq	%r15
	popq	%rbp
	.cfi_def_cfa %rsp, 8
	retq
.LBB17_4:                               # %func_IntraChromaPrediction4x4.94
	.cfi_def_cfa %rbp, 16
	movl	%ebx, %edi
	movl	%r15d, %esi
	movl	%r14d, %edx
	callq	IntraChromaPrediction4x4.94
	addq	$8, %rsp
	popq	%rbx
	popq	%r14
	popq	%r15
	popq	%rbp
	.cfi_def_cfa %rsp, 8
	retq
.LBB17_5:                               # %func_IntraChromaPrediction4x4.103
	.cfi_def_cfa %rbp, 16
	movl	%ebx, %edi
	movl	%r15d, %esi
	movl	%r14d, %edx
	callq	IntraChromaPrediction4x4.103
	addq	$8, %rsp
	popq	%rbx
	popq	%r14
	popq	%r15
	popq	%rbp
	.cfi_def_cfa %rsp, 8
	retq
.LBB17_6:                               # %func_IntraChromaPrediction4x4.108
	.cfi_def_cfa %rbp, 16
	movl	%ebx, %edi
	movl	%r15d, %esi
	movl	%r14d, %edx
	callq	IntraChromaPrediction4x4.108
	addq	$8, %rsp
	popq	%rbx
	popq	%r14
	popq	%r15
	popq	%rbp
	.cfi_def_cfa %rsp, 8
	retq
.LBB17_7:                               # %func_IntraChromaPrediction4x4.167
	.cfi_def_cfa %rbp, 16
	movl	%ebx, %edi
	movl	%r15d, %esi
	movl	%r14d, %edx
	callq	IntraChromaPrediction4x4.167
	addq	$8, %rsp
	popq	%rbx
	popq	%r14
	popq	%r15
	popq	%rbp
	.cfi_def_cfa %rsp, 8
	retq
.LBB17_8:                               # %func_IntraChromaPrediction4x4.180
	.cfi_def_cfa %rbp, 16
	movl	%ebx, %edi
	movl	%r15d, %esi
	movl	%r14d, %edx
	callq	IntraChromaPrediction4x4.180
	addq	$8, %rsp
	popq	%rbx
	popq	%r14
	popq	%r15
	popq	%rbp
	.cfi_def_cfa %rsp, 8
	retq
.LBB17_9:                               # %ctrl0
	.cfi_def_cfa %rbp, 16
	cmpl	$1, %eax
	je	.LBB17_2
# %bb.10:                               # %ctrl1
	cmpl	$2, %eax
	je	.LBB17_3
# %bb.11:                               # %ctrl2
	cmpl	$3, %eax
	je	.LBB17_4
# %bb.12:                               # %ctrl3
	cmpl	$4, %eax
	je	.LBB17_5
# %bb.13:                               # %ctrl4
	cmpl	$5, %eax
	je	.LBB17_6
# %bb.14:                               # %ctrl5
	cmpl	$6, %eax
	je	.LBB17_7
	jmp	.LBB17_8
.Lfunc_end17:
	.size	IntraChromaPrediction4x4, .Lfunc_end17-IntraChromaPrediction4x4
	.cfi_endproc
                                        # -- End function
	.globl	ChromaResidualCoding    # -- Begin function ChromaResidualCoding
	.p2align	4, 0x90
	.type	ChromaResidualCoding,@function
ChromaResidualCoding:                   # @ChromaResidualCoding
	.cfi_startproc
# %bb.0:                                # %rand_bb
	pushq	%rbp
	.cfi_def_cfa_offset 16
	.cfi_offset %rbp, -16
	movq	%rsp, %rbp
	.cfi_def_cfa_register %rbp
	pushq	%rbx
	pushq	%rax
	.cfi_offset %rbx, -24
	movq	%rdi, %rbx
	callq	get_rand
	cmpl	$0, %eax
	jne	.LBB18_9
# %bb.1:                                # %func_ChromaResidualCoding.40
	movq	%rbx, %rdi
	callq	ChromaResidualCoding.40
	addq	$8, %rsp
	popq	%rbx
	popq	%rbp
	.cfi_def_cfa %rsp, 8
	retq
.LBB18_2:                               # %func_ChromaResidualCoding.84
	.cfi_def_cfa %rbp, 16
	movq	%rbx, %rdi
	callq	ChromaResidualCoding.84
	addq	$8, %rsp
	popq	%rbx
	popq	%rbp
	.cfi_def_cfa %rsp, 8
	retq
.LBB18_3:                               # %func_ChromaResidualCoding.168
	.cfi_def_cfa %rbp, 16
	movq	%rbx, %rdi
	callq	ChromaResidualCoding.168
	addq	$8, %rsp
	popq	%rbx
	popq	%rbp
	.cfi_def_cfa %rsp, 8
	retq
.LBB18_4:                               # %func_ChromaResidualCoding.174
	.cfi_def_cfa %rbp, 16
	movq	%rbx, %rdi
	callq	ChromaResidualCoding.174
	addq	$8, %rsp
	popq	%rbx
	popq	%rbp
	.cfi_def_cfa %rsp, 8
	retq
.LBB18_5:                               # %func_ChromaResidualCoding.204
	.cfi_def_cfa %rbp, 16
	movq	%rbx, %rdi
	callq	ChromaResidualCoding.204
	addq	$8, %rsp
	popq	%rbx
	popq	%rbp
	.cfi_def_cfa %rsp, 8
	retq
.LBB18_6:                               # %func_ChromaResidualCoding.250
	.cfi_def_cfa %rbp, 16
	movq	%rbx, %rdi
	callq	ChromaResidualCoding.250
	addq	$8, %rsp
	popq	%rbx
	popq	%rbp
	.cfi_def_cfa %rsp, 8
	retq
.LBB18_7:                               # %func_ChromaResidualCoding.265
	.cfi_def_cfa %rbp, 16
	movq	%rbx, %rdi
	callq	ChromaResidualCoding.265
	addq	$8, %rsp
	popq	%rbx
	popq	%rbp
	.cfi_def_cfa %rsp, 8
	retq
.LBB18_8:                               # %func_ChromaResidualCoding.276
	.cfi_def_cfa %rbp, 16
	movq	%rbx, %rdi
	callq	ChromaResidualCoding.276
	addq	$8, %rsp
	popq	%rbx
	popq	%rbp
	.cfi_def_cfa %rsp, 8
	retq
.LBB18_9:                               # %ctrl0
	.cfi_def_cfa %rbp, 16
	cmpl	$1, %eax
	je	.LBB18_2
# %bb.10:                               # %ctrl1
	cmpl	$2, %eax
	je	.LBB18_3
# %bb.11:                               # %ctrl2
	cmpl	$3, %eax
	je	.LBB18_4
# %bb.12:                               # %ctrl3
	cmpl	$4, %eax
	je	.LBB18_5
# %bb.13:                               # %ctrl4
	cmpl	$5, %eax
	je	.LBB18_6
# %bb.14:                               # %ctrl5
	cmpl	$6, %eax
	je	.LBB18_7
	jmp	.LBB18_8
.Lfunc_end18:
	.size	ChromaResidualCoding, .Lfunc_end18-ChromaResidualCoding
	.cfi_endproc
                                        # -- End function
	.globl	IntraChromaPrediction   # -- Begin function IntraChromaPrediction
	.p2align	4, 0x90
	.type	IntraChromaPrediction,@function
IntraChromaPrediction:                  # @IntraChromaPrediction
	.cfi_startproc
# %bb.0:                                # %rand_bb
	pushq	%rbp
	.cfi_def_cfa_offset 16
	.cfi_offset %rbp, -16
	movq	%rsp, %rbp
	.cfi_def_cfa_register %rbp
	pushq	%r15
	pushq	%r14
	pushq	%rbx
	pushq	%rax
	.cfi_offset %rbx, -40
	.cfi_offset %r14, -32
	.cfi_offset %r15, -24
	movq	%rdx, %r14
	movq	%rsi, %r15
	movq	%rdi, %rbx
	callq	get_rand
	cmpl	$0, %eax
	jne	.LBB19_9
# %bb.1:                                # %func_IntraChromaPrediction.28
	movq	%rbx, %rdi
	movq	%r15, %rsi
	movq	%r14, %rdx
	callq	IntraChromaPrediction.28
	addq	$8, %rsp
	popq	%rbx
	popq	%r14
	popq	%r15
	popq	%rbp
	.cfi_def_cfa %rsp, 8
	retq
.LBB19_2:                               # %func_IntraChromaPrediction.30
	.cfi_def_cfa %rbp, 16
	movq	%rbx, %rdi
	movq	%r15, %rsi
	movq	%r14, %rdx
	callq	IntraChromaPrediction.30
	addq	$8, %rsp
	popq	%rbx
	popq	%r14
	popq	%r15
	popq	%rbp
	.cfi_def_cfa %rsp, 8
	retq
.LBB19_3:                               # %func_IntraChromaPrediction.88
	.cfi_def_cfa %rbp, 16
	movq	%rbx, %rdi
	movq	%r15, %rsi
	movq	%r14, %rdx
	callq	IntraChromaPrediction.88
	addq	$8, %rsp
	popq	%rbx
	popq	%r14
	popq	%r15
	popq	%rbp
	.cfi_def_cfa %rsp, 8
	retq
.LBB19_4:                               # %func_IntraChromaPrediction.89
	.cfi_def_cfa %rbp, 16
	movq	%rbx, %rdi
	movq	%r15, %rsi
	movq	%r14, %rdx
	callq	IntraChromaPrediction.89
	addq	$8, %rsp
	popq	%rbx
	popq	%r14
	popq	%r15
	popq	%rbp
	.cfi_def_cfa %rsp, 8
	retq
.LBB19_5:                               # %func_IntraChromaPrediction.91
	.cfi_def_cfa %rbp, 16
	movq	%rbx, %rdi
	movq	%r15, %rsi
	movq	%r14, %rdx
	callq	IntraChromaPrediction.91
	addq	$8, %rsp
	popq	%rbx
	popq	%r14
	popq	%r15
	popq	%rbp
	.cfi_def_cfa %rsp, 8
	retq
.LBB19_6:                               # %func_IntraChromaPrediction.106
	.cfi_def_cfa %rbp, 16
	movq	%rbx, %rdi
	movq	%r15, %rsi
	movq	%r14, %rdx
	callq	IntraChromaPrediction.106
	addq	$8, %rsp
	popq	%rbx
	popq	%r14
	popq	%r15
	popq	%rbp
	.cfi_def_cfa %rsp, 8
	retq
.LBB19_7:                               # %func_IntraChromaPrediction.114
	.cfi_def_cfa %rbp, 16
	movq	%rbx, %rdi
	movq	%r15, %rsi
	movq	%r14, %rdx
	callq	IntraChromaPrediction.114
	addq	$8, %rsp
	popq	%rbx
	popq	%r14
	popq	%r15
	popq	%rbp
	.cfi_def_cfa %rsp, 8
	retq
.LBB19_8:                               # %func_IntraChromaPrediction.136
	.cfi_def_cfa %rbp, 16
	movq	%rbx, %rdi
	movq	%r15, %rsi
	movq	%r14, %rdx
	callq	IntraChromaPrediction.136
	addq	$8, %rsp
	popq	%rbx
	popq	%r14
	popq	%r15
	popq	%rbp
	.cfi_def_cfa %rsp, 8
	retq
.LBB19_9:                               # %ctrl0
	.cfi_def_cfa %rbp, 16
	cmpl	$1, %eax
	je	.LBB19_2
# %bb.10:                               # %ctrl1
	cmpl	$2, %eax
	je	.LBB19_3
# %bb.11:                               # %ctrl2
	cmpl	$3, %eax
	je	.LBB19_4
# %bb.12:                               # %ctrl3
	cmpl	$4, %eax
	je	.LBB19_5
# %bb.13:                               # %ctrl4
	cmpl	$5, %eax
	je	.LBB19_6
# %bb.14:                               # %ctrl5
	cmpl	$6, %eax
	je	.LBB19_7
	jmp	.LBB19_8
.Lfunc_end19:
	.size	IntraChromaPrediction, .Lfunc_end19-IntraChromaPrediction
	.cfi_endproc
                                        # -- End function
	.globl	ZeroRef                 # -- Begin function ZeroRef
	.p2align	4, 0x90
	.type	ZeroRef,@function
ZeroRef:                                # @ZeroRef
	.cfi_startproc
# %bb.0:                                # %rand_bb
	pushq	%rbp
	.cfi_def_cfa_offset 16
	.cfi_offset %rbp, -16
	movq	%rsp, %rbp
	.cfi_def_cfa_register %rbp
	pushq	%rbx
	pushq	%rax
	.cfi_offset %rbx, -24
	movq	%rdi, %rbx
	callq	get_rand
	cmpl	$0, %eax
	jne	.LBB20_9
# %bb.1:                                # %func_ZeroRef.32
	movq	%rbx, %rdi
	callq	ZeroRef.32
	addq	$8, %rsp
	popq	%rbx
	popq	%rbp
	.cfi_def_cfa %rsp, 8
	retq
.LBB20_2:                               # %func_ZeroRef.79
	.cfi_def_cfa %rbp, 16
	movq	%rbx, %rdi
	callq	ZeroRef.79
	addq	$8, %rsp
	popq	%rbx
	popq	%rbp
	.cfi_def_cfa %rsp, 8
	retq
.LBB20_3:                               # %func_ZeroRef.110
	.cfi_def_cfa %rbp, 16
	movq	%rbx, %rdi
	callq	ZeroRef.110
	addq	$8, %rsp
	popq	%rbx
	popq	%rbp
	.cfi_def_cfa %rsp, 8
	retq
.LBB20_4:                               # %func_ZeroRef.170
	.cfi_def_cfa %rbp, 16
	movq	%rbx, %rdi
	callq	ZeroRef.170
	addq	$8, %rsp
	popq	%rbx
	popq	%rbp
	.cfi_def_cfa %rsp, 8
	retq
.LBB20_5:                               # %func_ZeroRef.188
	.cfi_def_cfa %rbp, 16
	movq	%rbx, %rdi
	callq	ZeroRef.188
	addq	$8, %rsp
	popq	%rbx
	popq	%rbp
	.cfi_def_cfa %rsp, 8
	retq
.LBB20_6:                               # %func_ZeroRef.243
	.cfi_def_cfa %rbp, 16
	movq	%rbx, %rdi
	callq	ZeroRef.243
	addq	$8, %rsp
	popq	%rbx
	popq	%rbp
	.cfi_def_cfa %rsp, 8
	retq
.LBB20_7:                               # %func_ZeroRef.267
	.cfi_def_cfa %rbp, 16
	movq	%rbx, %rdi
	callq	ZeroRef.267
	addq	$8, %rsp
	popq	%rbx
	popq	%rbp
	.cfi_def_cfa %rsp, 8
	retq
.LBB20_8:                               # %func_ZeroRef.270
	.cfi_def_cfa %rbp, 16
	movq	%rbx, %rdi
	callq	ZeroRef.270
	addq	$8, %rsp
	popq	%rbx
	popq	%rbp
	.cfi_def_cfa %rsp, 8
	retq
.LBB20_9:                               # %ctrl0
	.cfi_def_cfa %rbp, 16
	cmpl	$1, %eax
	je	.LBB20_2
# %bb.10:                               # %ctrl1
	cmpl	$2, %eax
	je	.LBB20_3
# %bb.11:                               # %ctrl2
	cmpl	$3, %eax
	je	.LBB20_4
# %bb.12:                               # %ctrl3
	cmpl	$4, %eax
	je	.LBB20_5
# %bb.13:                               # %ctrl4
	cmpl	$5, %eax
	je	.LBB20_6
# %bb.14:                               # %ctrl5
	cmpl	$6, %eax
	je	.LBB20_7
	jmp	.LBB20_8
.Lfunc_end20:
	.size	ZeroRef, .Lfunc_end20-ZeroRef
	.cfi_endproc
                                        # -- End function
	.globl	MBType2Value            # -- Begin function MBType2Value
	.p2align	4, 0x90
	.type	MBType2Value,@function
MBType2Value:                           # @MBType2Value
	.cfi_startproc
# %bb.0:                                # %rand_bb
	pushq	%rbp
	.cfi_def_cfa_offset 16
	.cfi_offset %rbp, -16
	movq	%rsp, %rbp
	.cfi_def_cfa_register %rbp
	pushq	%rbx
	pushq	%rax
	.cfi_offset %rbx, -24
	movq	%rdi, %rbx
	callq	get_rand
	cmpl	$0, %eax
	jne	.LBB21_9
# %bb.1:                                # %func_MBType2Value.24
	movq	%rbx, %rdi
	callq	MBType2Value.24
	addq	$8, %rsp
	popq	%rbx
	popq	%rbp
	.cfi_def_cfa %rsp, 8
	retq
.LBB21_2:                               # %func_MBType2Value.31
	.cfi_def_cfa %rbp, 16
	movq	%rbx, %rdi
	callq	MBType2Value.31
	addq	$8, %rsp
	popq	%rbx
	popq	%rbp
	.cfi_def_cfa %rsp, 8
	retq
.LBB21_3:                               # %func_MBType2Value.68
	.cfi_def_cfa %rbp, 16
	movq	%rbx, %rdi
	callq	MBType2Value.68
	addq	$8, %rsp
	popq	%rbx
	popq	%rbp
	.cfi_def_cfa %rsp, 8
	retq
.LBB21_4:                               # %func_MBType2Value.74
	.cfi_def_cfa %rbp, 16
	movq	%rbx, %rdi
	callq	MBType2Value.74
	addq	$8, %rsp
	popq	%rbx
	popq	%rbp
	.cfi_def_cfa %rsp, 8
	retq
.LBB21_5:                               # %func_MBType2Value.90
	.cfi_def_cfa %rbp, 16
	movq	%rbx, %rdi
	callq	MBType2Value.90
	addq	$8, %rsp
	popq	%rbx
	popq	%rbp
	.cfi_def_cfa %rsp, 8
	retq
.LBB21_6:                               # %func_MBType2Value.95
	.cfi_def_cfa %rbp, 16
	movq	%rbx, %rdi
	callq	MBType2Value.95
	addq	$8, %rsp
	popq	%rbx
	popq	%rbp
	.cfi_def_cfa %rsp, 8
	retq
.LBB21_7:                               # %func_MBType2Value.96
	.cfi_def_cfa %rbp, 16
	movq	%rbx, %rdi
	callq	MBType2Value.96
	addq	$8, %rsp
	popq	%rbx
	popq	%rbp
	.cfi_def_cfa %rsp, 8
	retq
.LBB21_8:                               # %func_MBType2Value.198
	.cfi_def_cfa %rbp, 16
	movq	%rbx, %rdi
	callq	MBType2Value.198
	addq	$8, %rsp
	popq	%rbx
	popq	%rbp
	.cfi_def_cfa %rsp, 8
	retq
.LBB21_9:                               # %ctrl0
	.cfi_def_cfa %rbp, 16
	cmpl	$1, %eax
	je	.LBB21_2
# %bb.10:                               # %ctrl1
	cmpl	$2, %eax
	je	.LBB21_3
# %bb.11:                               # %ctrl2
	cmpl	$3, %eax
	je	.LBB21_4
# %bb.12:                               # %ctrl3
	cmpl	$4, %eax
	je	.LBB21_5
# %bb.13:                               # %ctrl4
	cmpl	$5, %eax
	je	.LBB21_6
# %bb.14:                               # %ctrl5
	cmpl	$6, %eax
	je	.LBB21_7
	jmp	.LBB21_8
.Lfunc_end21:
	.size	MBType2Value, .Lfunc_end21-MBType2Value
	.cfi_endproc
                                        # -- End function
	.globl	writeIntra4x4Modes      # -- Begin function writeIntra4x4Modes
	.p2align	4, 0x90
	.type	writeIntra4x4Modes,@function
writeIntra4x4Modes:                     # @writeIntra4x4Modes
	.cfi_startproc
# %bb.0:                                # %rand_bb
	pushq	%rbp
	.cfi_def_cfa_offset 16
	.cfi_offset %rbp, -16
	movq	%rsp, %rbp
	.cfi_def_cfa_register %rbp
	pushq	%rbx
	pushq	%rax
	.cfi_offset %rbx, -24
	movl	%edi, %ebx
	callq	get_rand
	cmpl	$0, %eax
	jne	.LBB22_9
# %bb.1:                                # %func_writeIntra4x4Modes.21
	movl	%ebx, %edi
	callq	writeIntra4x4Modes.21
	addq	$8, %rsp
	popq	%rbx
	popq	%rbp
	.cfi_def_cfa %rsp, 8
	retq
.LBB22_2:                               # %func_writeIntra4x4Modes.26
	.cfi_def_cfa %rbp, 16
	movl	%ebx, %edi
	callq	writeIntra4x4Modes.26
	addq	$8, %rsp
	popq	%rbx
	popq	%rbp
	.cfi_def_cfa %rsp, 8
	retq
.LBB22_3:                               # %func_writeIntra4x4Modes.46
	.cfi_def_cfa %rbp, 16
	movl	%ebx, %edi
	callq	writeIntra4x4Modes.46
	addq	$8, %rsp
	popq	%rbx
	popq	%rbp
	.cfi_def_cfa %rsp, 8
	retq
.LBB22_4:                               # %func_writeIntra4x4Modes.115
	.cfi_def_cfa %rbp, 16
	movl	%ebx, %edi
	callq	writeIntra4x4Modes.115
	addq	$8, %rsp
	popq	%rbx
	popq	%rbp
	.cfi_def_cfa %rsp, 8
	retq
.LBB22_5:                               # %func_writeIntra4x4Modes.134
	.cfi_def_cfa %rbp, 16
	movl	%ebx, %edi
	callq	writeIntra4x4Modes.134
	addq	$8, %rsp
	popq	%rbx
	popq	%rbp
	.cfi_def_cfa %rsp, 8
	retq
.LBB22_6:                               # %func_writeIntra4x4Modes.179
	.cfi_def_cfa %rbp, 16
	movl	%ebx, %edi
	callq	writeIntra4x4Modes.179
	addq	$8, %rsp
	popq	%rbx
	popq	%rbp
	.cfi_def_cfa %rsp, 8
	retq
.LBB22_7:                               # %func_writeIntra4x4Modes.183
	.cfi_def_cfa %rbp, 16
	movl	%ebx, %edi
	callq	writeIntra4x4Modes.183
	addq	$8, %rsp
	popq	%rbx
	popq	%rbp
	.cfi_def_cfa %rsp, 8
	retq
.LBB22_8:                               # %func_writeIntra4x4Modes.193
	.cfi_def_cfa %rbp, 16
	movl	%ebx, %edi
	callq	writeIntra4x4Modes.193
	addq	$8, %rsp
	popq	%rbx
	popq	%rbp
	.cfi_def_cfa %rsp, 8
	retq
.LBB22_9:                               # %ctrl0
	.cfi_def_cfa %rbp, 16
	cmpl	$1, %eax
	je	.LBB22_2
# %bb.10:                               # %ctrl1
	cmpl	$2, %eax
	je	.LBB22_3
# %bb.11:                               # %ctrl2
	cmpl	$3, %eax
	je	.LBB22_4
# %bb.12:                               # %ctrl3
	cmpl	$4, %eax
	je	.LBB22_5
# %bb.13:                               # %ctrl4
	cmpl	$5, %eax
	je	.LBB22_6
# %bb.14:                               # %ctrl5
	cmpl	$6, %eax
	je	.LBB22_7
	jmp	.LBB22_8
.Lfunc_end22:
	.size	writeIntra4x4Modes, .Lfunc_end22-writeIntra4x4Modes
	.cfi_endproc
                                        # -- End function
	.globl	B8Mode2Value            # -- Begin function B8Mode2Value
	.p2align	4, 0x90
	.type	B8Mode2Value,@function
B8Mode2Value:                           # @B8Mode2Value
	.cfi_startproc
# %bb.0:                                # %rand_bb
	pushq	%rbp
	.cfi_def_cfa_offset 16
	.cfi_offset %rbp, -16
	movq	%rsp, %rbp
	.cfi_def_cfa_register %rbp
	pushq	%r14
	pushq	%rbx
	.cfi_offset %rbx, -32
	.cfi_offset %r14, -24
	movl	%esi, %r14d
	movl	%edi, %ebx
	callq	get_rand
	cmpl	$0, %eax
	jne	.LBB23_7
# %bb.1:                                # %func_B8Mode2Value.76
	movl	%ebx, %edi
	movl	%r14d, %esi
	callq	B8Mode2Value.76
	popq	%rbx
	popq	%r14
	popq	%rbp
	.cfi_def_cfa %rsp, 8
	retq
.LBB23_2:                               # %func_B8Mode2Value.83
	.cfi_def_cfa %rbp, 16
	movl	%ebx, %edi
	movl	%r14d, %esi
	callq	B8Mode2Value.83
	popq	%rbx
	popq	%r14
	popq	%rbp
	.cfi_def_cfa %rsp, 8
	retq
.LBB23_3:                               # %func_B8Mode2Value.120
	.cfi_def_cfa %rbp, 16
	movl	%ebx, %edi
	movl	%r14d, %esi
	callq	B8Mode2Value.120
	popq	%rbx
	popq	%r14
	popq	%rbp
	.cfi_def_cfa %rsp, 8
	retq
.LBB23_4:                               # %func_B8Mode2Value.130
	.cfi_def_cfa %rbp, 16
	movl	%ebx, %edi
	movl	%r14d, %esi
	callq	B8Mode2Value.130
	popq	%rbx
	popq	%r14
	popq	%rbp
	.cfi_def_cfa %rsp, 8
	retq
.LBB23_5:                               # %func_B8Mode2Value.164
	.cfi_def_cfa %rbp, 16
	movl	%ebx, %edi
	movl	%r14d, %esi
	callq	B8Mode2Value.164
	popq	%rbx
	popq	%r14
	popq	%rbp
	.cfi_def_cfa %rsp, 8
	retq
.LBB23_6:                               # %func_B8Mode2Value.232
	.cfi_def_cfa %rbp, 16
	movl	%ebx, %edi
	movl	%r14d, %esi
	callq	B8Mode2Value.232
	popq	%rbx
	popq	%r14
	popq	%rbp
	.cfi_def_cfa %rsp, 8
	retq
.LBB23_7:                               # %ctrl0
	.cfi_def_cfa %rbp, 16
	cmpl	$1, %eax
	je	.LBB23_2
# %bb.8:                                # %ctrl1
	cmpl	$2, %eax
	je	.LBB23_3
# %bb.9:                                # %ctrl2
	cmpl	$3, %eax
	je	.LBB23_4
# %bb.10:                               # %ctrl3
	cmpl	$4, %eax
	je	.LBB23_5
	jmp	.LBB23_6
.Lfunc_end23:
	.size	B8Mode2Value, .Lfunc_end23-B8Mode2Value
	.cfi_endproc
                                        # -- End function
	.globl	writeMBLayer            # -- Begin function writeMBLayer
	.p2align	4, 0x90
	.type	writeMBLayer,@function
writeMBLayer:                           # @writeMBLayer
	.cfi_startproc
# %bb.0:                                # %rand_bb
	pushq	%rbp
	.cfi_def_cfa_offset 16
	.cfi_offset %rbp, -16
	movq	%rsp, %rbp
	.cfi_def_cfa_register %rbp
	pushq	%rbx
	pushq	%rax
	.cfi_offset %rbx, -24
	movl	%edi, %ebx
	callq	get_rand
	cmpl	$0, %eax
	jne	.LBB24_9
# %bb.1:                                # %func_writeMBLayer.10
	movl	%ebx, %edi
	callq	writeMBLayer.10
	addq	$8, %rsp
	popq	%rbx
	popq	%rbp
	.cfi_def_cfa %rsp, 8
	retq
.LBB24_2:                               # %func_writeMBLayer.87
	.cfi_def_cfa %rbp, 16
	movl	%ebx, %edi
	callq	writeMBLayer.87
	addq	$8, %rsp
	popq	%rbx
	popq	%rbp
	.cfi_def_cfa %rsp, 8
	retq
.LBB24_3:                               # %func_writeMBLayer.151
	.cfi_def_cfa %rbp, 16
	movl	%ebx, %edi
	callq	writeMBLayer.151
	addq	$8, %rsp
	popq	%rbx
	popq	%rbp
	.cfi_def_cfa %rsp, 8
	retq
.LBB24_4:                               # %func_writeMBLayer.212
	.cfi_def_cfa %rbp, 16
	movl	%ebx, %edi
	callq	writeMBLayer.212
	addq	$8, %rsp
	popq	%rbx
	popq	%rbp
	.cfi_def_cfa %rsp, 8
	retq
.LBB24_5:                               # %func_writeMBLayer.216
	.cfi_def_cfa %rbp, 16
	movl	%ebx, %edi
	callq	writeMBLayer.216
	addq	$8, %rsp
	popq	%rbx
	popq	%rbp
	.cfi_def_cfa %rsp, 8
	retq
.LBB24_6:                               # %func_writeMBLayer.226
	.cfi_def_cfa %rbp, 16
	movl	%ebx, %edi
	callq	writeMBLayer.226
	addq	$8, %rsp
	popq	%rbx
	popq	%rbp
	.cfi_def_cfa %rsp, 8
	retq
.LBB24_7:                               # %func_writeMBLayer.230
	.cfi_def_cfa %rbp, 16
	movl	%ebx, %edi
	callq	writeMBLayer.230
	addq	$8, %rsp
	popq	%rbx
	popq	%rbp
	.cfi_def_cfa %rsp, 8
	retq
.LBB24_8:                               # %func_writeMBLayer.273
	.cfi_def_cfa %rbp, 16
	movl	%ebx, %edi
	callq	writeMBLayer.273
	addq	$8, %rsp
	popq	%rbx
	popq	%rbp
	.cfi_def_cfa %rsp, 8
	retq
.LBB24_9:                               # %ctrl0
	.cfi_def_cfa %rbp, 16
	cmpl	$1, %eax
	je	.LBB24_2
# %bb.10:                               # %ctrl1
	cmpl	$2, %eax
	je	.LBB24_3
# %bb.11:                               # %ctrl2
	cmpl	$3, %eax
	je	.LBB24_4
# %bb.12:                               # %ctrl3
	cmpl	$4, %eax
	je	.LBB24_5
# %bb.13:                               # %ctrl4
	cmpl	$5, %eax
	je	.LBB24_6
# %bb.14:                               # %ctrl5
	cmpl	$6, %eax
	je	.LBB24_7
	jmp	.LBB24_8
.Lfunc_end24:
	.size	writeMBLayer, .Lfunc_end24-writeMBLayer
	.cfi_endproc
                                        # -- End function
	.globl	write_terminating_bit   # -- Begin function write_terminating_bit
	.p2align	4, 0x90
	.type	write_terminating_bit,@function
write_terminating_bit:                  # @write_terminating_bit
	.cfi_startproc
# %bb.0:                                # %rand_bb
	pushq	%rbp
	.cfi_def_cfa_offset 16
	.cfi_offset %rbp, -16
	movq	%rsp, %rbp
	.cfi_def_cfa_register %rbp
	pushq	%rbx
	pushq	%rax
	.cfi_offset %rbx, -24
	movl	%edi, %ebx
	callq	get_rand
	cmpl	$0, %eax
	jne	.LBB25_9
# %bb.1:                                # %func_write_terminating_bit.23
	movswl	%bx, %edi
	callq	write_terminating_bit.23
	addq	$8, %rsp
	popq	%rbx
	popq	%rbp
	.cfi_def_cfa %rsp, 8
	retq
.LBB25_2:                               # %func_write_terminating_bit.61
	.cfi_def_cfa %rbp, 16
	movswl	%bx, %edi
	callq	write_terminating_bit.61
	addq	$8, %rsp
	popq	%rbx
	popq	%rbp
	.cfi_def_cfa %rsp, 8
	retq
.LBB25_3:                               # %func_write_terminating_bit.63
	.cfi_def_cfa %rbp, 16
	movswl	%bx, %edi
	callq	write_terminating_bit.63
	addq	$8, %rsp
	popq	%rbx
	popq	%rbp
	.cfi_def_cfa %rsp, 8
	retq
.LBB25_4:                               # %func_write_terminating_bit.122
	.cfi_def_cfa %rbp, 16
	movswl	%bx, %edi
	callq	write_terminating_bit.122
	addq	$8, %rsp
	popq	%rbx
	popq	%rbp
	.cfi_def_cfa %rsp, 8
	retq
.LBB25_5:                               # %func_write_terminating_bit.144
	.cfi_def_cfa %rbp, 16
	movswl	%bx, %edi
	callq	write_terminating_bit.144
	addq	$8, %rsp
	popq	%rbx
	popq	%rbp
	.cfi_def_cfa %rsp, 8
	retq
.LBB25_6:                               # %func_write_terminating_bit.176
	.cfi_def_cfa %rbp, 16
	movswl	%bx, %edi
	callq	write_terminating_bit.176
	addq	$8, %rsp
	popq	%rbx
	popq	%rbp
	.cfi_def_cfa %rsp, 8
	retq
.LBB25_7:                               # %func_write_terminating_bit.202
	.cfi_def_cfa %rbp, 16
	movswl	%bx, %edi
	callq	write_terminating_bit.202
	addq	$8, %rsp
	popq	%rbx
	popq	%rbp
	.cfi_def_cfa %rsp, 8
	retq
.LBB25_8:                               # %func_write_terminating_bit.205
	.cfi_def_cfa %rbp, 16
	movswl	%bx, %edi
	callq	write_terminating_bit.205
	addq	$8, %rsp
	popq	%rbx
	popq	%rbp
	.cfi_def_cfa %rsp, 8
	retq
.LBB25_9:                               # %ctrl0
	.cfi_def_cfa %rbp, 16
	cmpl	$1, %eax
	je	.LBB25_2
# %bb.10:                               # %ctrl1
	cmpl	$2, %eax
	je	.LBB25_3
# %bb.11:                               # %ctrl2
	cmpl	$3, %eax
	je	.LBB25_4
# %bb.12:                               # %ctrl3
	cmpl	$4, %eax
	je	.LBB25_5
# %bb.13:                               # %ctrl4
	cmpl	$5, %eax
	je	.LBB25_6
# %bb.14:                               # %ctrl5
	cmpl	$6, %eax
	je	.LBB25_7
	jmp	.LBB25_8
.Lfunc_end25:
	.size	write_terminating_bit, .Lfunc_end25-write_terminating_bit
	.cfi_endproc
                                        # -- End function
	.globl	writeChromaIntraPredMode # -- Begin function writeChromaIntraPredMode
	.p2align	4, 0x90
	.type	writeChromaIntraPredMode,@function
writeChromaIntraPredMode:               # @writeChromaIntraPredMode
	.cfi_startproc
# %bb.0:                                # %rand_bb
	pushq	%rbp
	.cfi_def_cfa_offset 16
	.cfi_offset %rbp, -16
	movq	%rsp, %rbp
	.cfi_def_cfa_register %rbp
	callq	get_rand
	cmpl	$0, %eax
	jne	.LBB26_9
# %bb.1:                                # %func_writeChromaIntraPredMode.50
	callq	writeChromaIntraPredMode.50
	popq	%rbp
	.cfi_def_cfa %rsp, 8
	retq
.LBB26_2:                               # %func_writeChromaIntraPredMode.97
	.cfi_def_cfa %rbp, 16
	callq	writeChromaIntraPredMode.97
	popq	%rbp
	.cfi_def_cfa %rsp, 8
	retq
.LBB26_3:                               # %func_writeChromaIntraPredMode.111
	.cfi_def_cfa %rbp, 16
	callq	writeChromaIntraPredMode.111
	popq	%rbp
	.cfi_def_cfa %rsp, 8
	retq
.LBB26_4:                               # %func_writeChromaIntraPredMode.129
	.cfi_def_cfa %rbp, 16
	callq	writeChromaIntraPredMode.129
	popq	%rbp
	.cfi_def_cfa %rsp, 8
	retq
.LBB26_5:                               # %func_writeChromaIntraPredMode.161
	.cfi_def_cfa %rbp, 16
	callq	writeChromaIntraPredMode.161
	popq	%rbp
	.cfi_def_cfa %rsp, 8
	retq
.LBB26_6:                               # %func_writeChromaIntraPredMode.214
	.cfi_def_cfa %rbp, 16
	callq	writeChromaIntraPredMode.214
	popq	%rbp
	.cfi_def_cfa %rsp, 8
	retq
.LBB26_7:                               # %func_writeChromaIntraPredMode.256
	.cfi_def_cfa %rbp, 16
	callq	writeChromaIntraPredMode.256
	popq	%rbp
	.cfi_def_cfa %rsp, 8
	retq
.LBB26_8:                               # %func_writeChromaIntraPredMode.259
	.cfi_def_cfa %rbp, 16
	callq	writeChromaIntraPredMode.259
	popq	%rbp
	.cfi_def_cfa %rsp, 8
	retq
.LBB26_9:                               # %ctrl0
	.cfi_def_cfa %rbp, 16
	cmpl	$1, %eax
	je	.LBB26_2
# %bb.10:                               # %ctrl1
	cmpl	$2, %eax
	je	.LBB26_3
# %bb.11:                               # %ctrl2
	cmpl	$3, %eax
	je	.LBB26_4
# %bb.12:                               # %ctrl3
	cmpl	$4, %eax
	je	.LBB26_5
# %bb.13:                               # %ctrl4
	cmpl	$5, %eax
	je	.LBB26_6
# %bb.14:                               # %ctrl5
	cmpl	$6, %eax
	je	.LBB26_7
	jmp	.LBB26_8
.Lfunc_end26:
	.size	writeChromaIntraPredMode, .Lfunc_end26-writeChromaIntraPredMode
	.cfi_endproc
                                        # -- End function
	.globl	set_last_dquant         # -- Begin function set_last_dquant
	.p2align	4, 0x90
	.type	set_last_dquant,@function
set_last_dquant:                        # @set_last_dquant
	.cfi_startproc
# %bb.0:                                # %entry
	pushq	%rbp
	.cfi_def_cfa_offset 16
	.cfi_offset %rbp, -16
	movq	%rsp, %rbp
	.cfi_def_cfa_register %rbp
	movq	img, %rax
	movq	14168(%rax), %rax
	movq	img, %rcx
	movslq	12(%rcx), %rcx
	imulq	$632, %rcx, %rcx        # imm = 0x278
	addq	%rcx, %rax
	movq	%rax, -8(%rbp)
	movq	-8(%rbp), %rax
	cmpl	$9, 72(%rax)
	je	.LBB27_4
# %bb.1:                                # %land.lhs.true
	movq	-8(%rbp), %rax
	cmpl	$10, 72(%rax)
	je	.LBB27_4
# %bb.2:                                # %land.lhs.true3
	movq	-8(%rbp), %rax
	cmpl	$13, 72(%rax)
	je	.LBB27_4
# %bb.3:                                # %land.lhs.true6
	movq	-8(%rbp), %rax
	cmpl	$0, 72(%rax)
	jne	.LBB27_9
.LBB27_4:                               # %lor.lhs.false
	movq	-8(%rbp), %rax
	cmpl	$9, 72(%rax)
	je	.LBB27_9
# %bb.5:                                # %lor.lhs.false11
	movq	-8(%rbp), %rax
	cmpl	$10, 72(%rax)
	je	.LBB27_9
# %bb.6:                                # %lor.lhs.false14
	movq	-8(%rbp), %rax
	cmpl	$13, 72(%rax)
	je	.LBB27_9
# %bb.7:                                # %lor.lhs.false17
	movq	img, %rax
	cmpl	$1, 24(%rax)
	jne	.LBB27_10
# %bb.8:                                # %land.lhs.true19
	movq	-8(%rbp), %rax
	cmpl	$0, 460(%rax)
	je	.LBB27_10
.LBB27_9:                               # %if.then
	movq	-8(%rbp), %rax
	movl	8(%rax), %eax
	movl	%eax, last_dquant
	jmp	.LBB27_11
.LBB27_10:                              # %if.else
	movl	$0, last_dquant
.LBB27_11:                              # %if.end
	popq	%rbp
	.cfi_def_cfa %rsp, 8
	retq
.Lfunc_end27:
	.size	set_last_dquant, .Lfunc_end27-set_last_dquant
	.cfi_endproc
                                        # -- End function
	.globl	write_one_macroblock    # -- Begin function write_one_macroblock
	.p2align	4, 0x90
	.type	write_one_macroblock,@function
write_one_macroblock:                   # @write_one_macroblock
	.cfi_startproc
# %bb.0:                                # %rand_bb
	pushq	%rbp
	.cfi_def_cfa_offset 16
	.cfi_offset %rbp, -16
	movq	%rsp, %rbp
	.cfi_def_cfa_register %rbp
	pushq	%rbx
	pushq	%rax
	.cfi_offset %rbx, -24
	movl	%edi, %ebx
	callq	get_rand
	cmpl	$0, %eax
	jne	.LBB28_9
# %bb.1:                                # %func_write_one_macroblock.78
	movl	%ebx, %edi
	callq	write_one_macroblock.78
	addq	$8, %rsp
	popq	%rbx
	popq	%rbp
	.cfi_def_cfa %rsp, 8
	retq
.LBB28_2:                               # %func_write_one_macroblock.112
	.cfi_def_cfa %rbp, 16
	movl	%ebx, %edi
	callq	write_one_macroblock.112
	addq	$8, %rsp
	popq	%rbx
	popq	%rbp
	.cfi_def_cfa %rsp, 8
	retq
.LBB28_3:                               # %func_write_one_macroblock.126
	.cfi_def_cfa %rbp, 16
	movl	%ebx, %edi
	callq	write_one_macroblock.126
	addq	$8, %rsp
	popq	%rbx
	popq	%rbp
	.cfi_def_cfa %rsp, 8
	retq
.LBB28_4:                               # %func_write_one_macroblock.138
	.cfi_def_cfa %rbp, 16
	movl	%ebx, %edi
	callq	write_one_macroblock.138
	addq	$8, %rsp
	popq	%rbx
	popq	%rbp
	.cfi_def_cfa %rsp, 8
	retq
.LBB28_5:                               # %func_write_one_macroblock.146
	.cfi_def_cfa %rbp, 16
	movl	%ebx, %edi
	callq	write_one_macroblock.146
	addq	$8, %rsp
	popq	%rbx
	popq	%rbp
	.cfi_def_cfa %rsp, 8
	retq
.LBB28_6:                               # %func_write_one_macroblock.175
	.cfi_def_cfa %rbp, 16
	movl	%ebx, %edi
	callq	write_one_macroblock.175
	addq	$8, %rsp
	popq	%rbx
	popq	%rbp
	.cfi_def_cfa %rsp, 8
	retq
.LBB28_7:                               # %func_write_one_macroblock.203
	.cfi_def_cfa %rbp, 16
	movl	%ebx, %edi
	callq	write_one_macroblock.203
	addq	$8, %rsp
	popq	%rbx
	popq	%rbp
	.cfi_def_cfa %rsp, 8
	retq
.LBB28_8:                               # %func_write_one_macroblock.224
	.cfi_def_cfa %rbp, 16
	movl	%ebx, %edi
	callq	write_one_macroblock.224
	addq	$8, %rsp
	popq	%rbx
	popq	%rbp
	.cfi_def_cfa %rsp, 8
	retq
.LBB28_9:                               # %ctrl0
	.cfi_def_cfa %rbp, 16
	cmpl	$1, %eax
	je	.LBB28_2
# %bb.10:                               # %ctrl1
	cmpl	$2, %eax
	je	.LBB28_3
# %bb.11:                               # %ctrl2
	cmpl	$3, %eax
	je	.LBB28_4
# %bb.12:                               # %ctrl3
	cmpl	$4, %eax
	je	.LBB28_5
# %bb.13:                               # %ctrl4
	cmpl	$5, %eax
	je	.LBB28_6
# %bb.14:                               # %ctrl5
	cmpl	$6, %eax
	je	.LBB28_7
	jmp	.LBB28_8
.Lfunc_end28:
	.size	write_one_macroblock, .Lfunc_end28-write_one_macroblock
	.cfi_endproc
                                        # -- End function
	.globl	BType2CtxRef            # -- Begin function BType2CtxRef
	.p2align	4, 0x90
	.type	BType2CtxRef,@function
BType2CtxRef:                           # @BType2CtxRef
	.cfi_startproc
# %bb.0:                                # %rand_bb
	pushq	%rbp
	.cfi_def_cfa_offset 16
	.cfi_offset %rbp, -16
	movq	%rsp, %rbp
	.cfi_def_cfa_register %rbp
	pushq	%rbx
	pushq	%rax
	.cfi_offset %rbx, -24
	movl	%edi, %ebx
	callq	get_rand
	cmpl	$0, %eax
	jne	.LBB29_2
# %bb.1:                                # %func_BType2CtxRef.52
	movl	%ebx, %edi
	callq	BType2CtxRef.52
	addq	$8, %rsp
	popq	%rbx
	popq	%rbp
	.cfi_def_cfa %rsp, 8
	retq
.LBB29_2:                               # %func_BType2CtxRef.64
	.cfi_def_cfa %rbp, 16
	movl	%ebx, %edi
	callq	BType2CtxRef.64
	addq	$8, %rsp
	popq	%rbx
	popq	%rbp
	.cfi_def_cfa %rsp, 8
	retq
.Lfunc_end29:
	.size	BType2CtxRef, .Lfunc_end29-BType2CtxRef
	.cfi_endproc
                                        # -- End function
	.globl	writeReferenceFrame     # -- Begin function writeReferenceFrame
	.p2align	4, 0x90
	.type	writeReferenceFrame,@function
writeReferenceFrame:                    # @writeReferenceFrame
	.cfi_startproc
# %bb.0:                                # %rand_bb
	pushq	%rbp
	.cfi_def_cfa_offset 16
	.cfi_offset %rbp, -16
	movq	%rsp, %rbp
	.cfi_def_cfa_register %rbp
	pushq	%r15
	pushq	%r14
	pushq	%r13
	pushq	%r12
	pushq	%rbx
	pushq	%rax
	.cfi_offset %rbx, -56
	.cfi_offset %r12, -48
	.cfi_offset %r13, -40
	.cfi_offset %r14, -32
	.cfi_offset %r15, -24
	movl	%r8d, %r14d
	movl	%ecx, %r15d
	movl	%edx, %r12d
	movl	%esi, %r13d
	movl	%edi, %ebx
	callq	get_rand
	cmpl	$0, %eax
	jne	.LBB30_9
# %bb.1:                                # %func_writeReferenceFrame.81
	movl	%ebx, %edi
	movl	%r13d, %esi
	movl	%r12d, %edx
	movl	%r15d, %ecx
	movl	%r14d, %r8d
	callq	writeReferenceFrame.81
	addq	$8, %rsp
	popq	%rbx
	popq	%r12
	popq	%r13
	popq	%r14
	popq	%r15
	popq	%rbp
	.cfi_def_cfa %rsp, 8
	retq
.LBB30_2:                               # %func_writeReferenceFrame.100
	.cfi_def_cfa %rbp, 16
	movl	%ebx, %edi
	movl	%r13d, %esi
	movl	%r12d, %edx
	movl	%r15d, %ecx
	movl	%r14d, %r8d
	callq	writeReferenceFrame.100
	addq	$8, %rsp
	popq	%rbx
	popq	%r12
	popq	%r13
	popq	%r14
	popq	%r15
	popq	%rbp
	.cfi_def_cfa %rsp, 8
	retq
.LBB30_3:                               # %func_writeReferenceFrame.196
	.cfi_def_cfa %rbp, 16
	movl	%ebx, %edi
	movl	%r13d, %esi
	movl	%r12d, %edx
	movl	%r15d, %ecx
	movl	%r14d, %r8d
	callq	writeReferenceFrame.196
	addq	$8, %rsp
	popq	%rbx
	popq	%r12
	popq	%r13
	popq	%r14
	popq	%r15
	popq	%rbp
	.cfi_def_cfa %rsp, 8
	retq
.LBB30_4:                               # %func_writeReferenceFrame.223
	.cfi_def_cfa %rbp, 16
	movl	%ebx, %edi
	movl	%r13d, %esi
	movl	%r12d, %edx
	movl	%r15d, %ecx
	movl	%r14d, %r8d
	callq	writeReferenceFrame.223
	addq	$8, %rsp
	popq	%rbx
	popq	%r12
	popq	%r13
	popq	%r14
	popq	%r15
	popq	%rbp
	.cfi_def_cfa %rsp, 8
	retq
.LBB30_5:                               # %func_writeReferenceFrame.240
	.cfi_def_cfa %rbp, 16
	movl	%ebx, %edi
	movl	%r13d, %esi
	movl	%r12d, %edx
	movl	%r15d, %ecx
	movl	%r14d, %r8d
	callq	writeReferenceFrame.240
	addq	$8, %rsp
	popq	%rbx
	popq	%r12
	popq	%r13
	popq	%r14
	popq	%r15
	popq	%rbp
	.cfi_def_cfa %rsp, 8
	retq
.LBB30_6:                               # %func_writeReferenceFrame.244
	.cfi_def_cfa %rbp, 16
	movl	%ebx, %edi
	movl	%r13d, %esi
	movl	%r12d, %edx
	movl	%r15d, %ecx
	movl	%r14d, %r8d
	callq	writeReferenceFrame.244
	addq	$8, %rsp
	popq	%rbx
	popq	%r12
	popq	%r13
	popq	%r14
	popq	%r15
	popq	%rbp
	.cfi_def_cfa %rsp, 8
	retq
.LBB30_7:                               # %func_writeReferenceFrame.253
	.cfi_def_cfa %rbp, 16
	movl	%ebx, %edi
	movl	%r13d, %esi
	movl	%r12d, %edx
	movl	%r15d, %ecx
	movl	%r14d, %r8d
	callq	writeReferenceFrame.253
	addq	$8, %rsp
	popq	%rbx
	popq	%r12
	popq	%r13
	popq	%r14
	popq	%r15
	popq	%rbp
	.cfi_def_cfa %rsp, 8
	retq
.LBB30_8:                               # %func_writeReferenceFrame.271
	.cfi_def_cfa %rbp, 16
	movl	%ebx, %edi
	movl	%r13d, %esi
	movl	%r12d, %edx
	movl	%r15d, %ecx
	movl	%r14d, %r8d
	callq	writeReferenceFrame.271
	addq	$8, %rsp
	popq	%rbx
	popq	%r12
	popq	%r13
	popq	%r14
	popq	%r15
	popq	%rbp
	.cfi_def_cfa %rsp, 8
	retq
.LBB30_9:                               # %ctrl0
	.cfi_def_cfa %rbp, 16
	cmpl	$1, %eax
	je	.LBB30_2
# %bb.10:                               # %ctrl1
	cmpl	$2, %eax
	je	.LBB30_3
# %bb.11:                               # %ctrl2
	cmpl	$3, %eax
	je	.LBB30_4
# %bb.12:                               # %ctrl3
	cmpl	$4, %eax
	je	.LBB30_5
# %bb.13:                               # %ctrl4
	cmpl	$5, %eax
	je	.LBB30_6
# %bb.14:                               # %ctrl5
	cmpl	$6, %eax
	je	.LBB30_7
	jmp	.LBB30_8
.Lfunc_end30:
	.size	writeReferenceFrame, .Lfunc_end30-writeReferenceFrame
	.cfi_endproc
                                        # -- End function
	.globl	writeMotionVector8x8    # -- Begin function writeMotionVector8x8
	.p2align	4, 0x90
	.type	writeMotionVector8x8,@function
writeMotionVector8x8:                   # @writeMotionVector8x8
	.cfi_startproc
# %bb.0:                                # %rand_bb
	pushq	%rbp
	.cfi_def_cfa_offset 16
	.cfi_offset %rbp, -16
	movq	%rsp, %rbp
	.cfi_def_cfa_register %rbp
	pushq	%r15
	pushq	%r14
	pushq	%r13
	pushq	%r12
	pushq	%rbx
	subq	$24, %rsp
	.cfi_offset %rbx, -56
	.cfi_offset %r12, -48
	.cfi_offset %r13, -40
	.cfi_offset %r14, -32
	.cfi_offset %r15, -24
	movl	%r9d, -44(%rbp)         # 4-byte Spill
	movl	%r8d, %r13d
	movl	%ecx, %r15d
	movl	%edx, %ebx
	movl	%esi, %r14d
	movl	%edi, %r12d
	callq	get_rand
	cmpl	$0, %eax
	jne	.LBB31_9
# %bb.1:                                # %func_writeMotionVector8x8.56
	movl	%r12d, %edi
	movl	%r14d, %esi
	movl	%ebx, %edx
	movl	%r15d, %ecx
	movl	%r13d, %r8d
	movl	-44(%rbp), %r9d         # 4-byte Reload
	movl	16(%rbp), %eax
	movl	%eax, (%rsp)
	callq	writeMotionVector8x8.56
	addq	$24, %rsp
	popq	%rbx
	popq	%r12
	popq	%r13
	popq	%r14
	popq	%r15
	popq	%rbp
	.cfi_def_cfa %rsp, 8
	retq
.LBB31_2:                               # %func_writeMotionVector8x8.131
	.cfi_def_cfa %rbp, 16
	movl	%r12d, %edi
	movl	%r14d, %esi
	movl	%ebx, %edx
	movl	%r15d, %ecx
	movl	%r13d, %r8d
	movl	%r10d, (%rsp)
	callq	writeMotionVector8x8.131
	addq	$24, %rsp
	popq	%rbx
	popq	%r12
	popq	%r13
	popq	%r14
	popq	%r15
	popq	%rbp
	.cfi_def_cfa %rsp, 8
	retq
.LBB31_3:                               # %func_writeMotionVector8x8.207
	.cfi_def_cfa %rbp, 16
	movl	%r12d, %edi
	movl	%r14d, %esi
	movl	%ebx, %edx
	movl	%r15d, %ecx
	movl	%r13d, %r8d
	movl	%r10d, (%rsp)
	callq	writeMotionVector8x8.207
	addq	$24, %rsp
	popq	%rbx
	popq	%r12
	popq	%r13
	popq	%r14
	popq	%r15
	popq	%rbp
	.cfi_def_cfa %rsp, 8
	retq
.LBB31_4:                               # %func_writeMotionVector8x8.218
	.cfi_def_cfa %rbp, 16
	movl	%r12d, %edi
	movl	%r14d, %esi
	movl	%ebx, %edx
	movl	%r15d, %ecx
	movl	%r13d, %r8d
	movl	%r10d, (%rsp)
	callq	writeMotionVector8x8.218
	addq	$24, %rsp
	popq	%rbx
	popq	%r12
	popq	%r13
	popq	%r14
	popq	%r15
	popq	%rbp
	.cfi_def_cfa %rsp, 8
	retq
.LBB31_5:                               # %func_writeMotionVector8x8.241
	.cfi_def_cfa %rbp, 16
	movl	%r12d, %edi
	movl	%r14d, %esi
	movl	%ebx, %edx
	movl	%r15d, %ecx
	movl	%r13d, %r8d
	movl	%r10d, (%rsp)
	callq	writeMotionVector8x8.241
	addq	$24, %rsp
	popq	%rbx
	popq	%r12
	popq	%r13
	popq	%r14
	popq	%r15
	popq	%rbp
	.cfi_def_cfa %rsp, 8
	retq
.LBB31_6:                               # %func_writeMotionVector8x8.258
	.cfi_def_cfa %rbp, 16
	movl	%r12d, %edi
	movl	%r14d, %esi
	movl	%ebx, %edx
	movl	%r15d, %ecx
	movl	%r13d, %r8d
	movl	%r10d, (%rsp)
	callq	writeMotionVector8x8.258
	addq	$24, %rsp
	popq	%rbx
	popq	%r12
	popq	%r13
	popq	%r14
	popq	%r15
	popq	%rbp
	.cfi_def_cfa %rsp, 8
	retq
.LBB31_7:                               # %func_writeMotionVector8x8.275
	.cfi_def_cfa %rbp, 16
	movl	%r10d, (%rsp)
	callq	writeMotionVector8x8.275
	addq	$24, %rsp
	popq	%rbx
	popq	%r12
	popq	%r13
	popq	%r14
	popq	%r15
	popq	%rbp
	.cfi_def_cfa %rsp, 8
	retq
.LBB31_8:                               # %func_writeMotionVector8x8.281
	.cfi_def_cfa %rbp, 16
	movl	%r10d, (%rsp)
	callq	writeMotionVector8x8.281
	addq	$24, %rsp
	popq	%rbx
	popq	%r12
	popq	%r13
	popq	%r14
	popq	%r15
	popq	%rbp
	.cfi_def_cfa %rsp, 8
	retq
.LBB31_9:                               # %ctrl0
	.cfi_def_cfa %rbp, 16
	movl	-44(%rbp), %r9d         # 4-byte Reload
	movl	16(%rbp), %r10d
	cmpl	$1, %eax
	je	.LBB31_2
# %bb.10:                               # %ctrl1
	cmpl	$2, %eax
	je	.LBB31_3
# %bb.11:                               # %ctrl2
	cmpl	$3, %eax
	je	.LBB31_4
# %bb.12:                               # %ctrl3
	cmpl	$4, %eax
	je	.LBB31_5
# %bb.13:                               # %ctrl4
	cmpl	$5, %eax
	je	.LBB31_6
# %bb.14:                               # %ctrl5
	cmpl	$6, %eax
	movl	%r13d, %r8d
	movl	%r15d, %ecx
	movl	%ebx, %edx
	movl	%r14d, %esi
	movl	%r12d, %edi
	je	.LBB31_7
	jmp	.LBB31_8
.Lfunc_end31:
	.size	writeMotionVector8x8, .Lfunc_end31-writeMotionVector8x8
	.cfi_endproc
                                        # -- End function
	.globl	writeMotionInfo2NAL     # -- Begin function writeMotionInfo2NAL
	.p2align	4, 0x90
	.type	writeMotionInfo2NAL,@function
writeMotionInfo2NAL:                    # @writeMotionInfo2NAL
	.cfi_startproc
# %bb.0:                                # %rand_bb
	pushq	%rbp
	.cfi_def_cfa_offset 16
	.cfi_offset %rbp, -16
	movq	%rsp, %rbp
	.cfi_def_cfa_register %rbp
	callq	get_rand
	cmpl	$0, %eax
	jne	.LBB32_9
# %bb.1:                                # %func_writeMotionInfo2NAL.44
	callq	writeMotionInfo2NAL.44
	popq	%rbp
	.cfi_def_cfa %rsp, 8
	retq
.LBB32_2:                               # %func_writeMotionInfo2NAL.49
	.cfi_def_cfa %rbp, 16
	callq	writeMotionInfo2NAL.49
	popq	%rbp
	.cfi_def_cfa %rsp, 8
	retq
.LBB32_3:                               # %func_writeMotionInfo2NAL.58
	.cfi_def_cfa %rbp, 16
	callq	writeMotionInfo2NAL.58
	popq	%rbp
	.cfi_def_cfa %rsp, 8
	retq
.LBB32_4:                               # %func_writeMotionInfo2NAL.123
	.cfi_def_cfa %rbp, 16
	callq	writeMotionInfo2NAL.123
	popq	%rbp
	.cfi_def_cfa %rsp, 8
	retq
.LBB32_5:                               # %func_writeMotionInfo2NAL.199
	.cfi_def_cfa %rbp, 16
	callq	writeMotionInfo2NAL.199
	popq	%rbp
	.cfi_def_cfa %rsp, 8
	retq
.LBB32_6:                               # %func_writeMotionInfo2NAL.236
	.cfi_def_cfa %rbp, 16
	callq	writeMotionInfo2NAL.236
	popq	%rbp
	.cfi_def_cfa %rsp, 8
	retq
.LBB32_7:                               # %func_writeMotionInfo2NAL.237
	.cfi_def_cfa %rbp, 16
	callq	writeMotionInfo2NAL.237
	popq	%rbp
	.cfi_def_cfa %rsp, 8
	retq
.LBB32_8:                               # %func_writeMotionInfo2NAL.268
	.cfi_def_cfa %rbp, 16
	callq	writeMotionInfo2NAL.268
	popq	%rbp
	.cfi_def_cfa %rsp, 8
	retq
.LBB32_9:                               # %ctrl0
	.cfi_def_cfa %rbp, 16
	cmpl	$1, %eax
	je	.LBB32_2
# %bb.10:                               # %ctrl1
	cmpl	$2, %eax
	je	.LBB32_3
# %bb.11:                               # %ctrl2
	cmpl	$3, %eax
	je	.LBB32_4
# %bb.12:                               # %ctrl3
	cmpl	$4, %eax
	je	.LBB32_5
# %bb.13:                               # %ctrl4
	cmpl	$5, %eax
	je	.LBB32_6
# %bb.14:                               # %ctrl5
	cmpl	$6, %eax
	je	.LBB32_7
	jmp	.LBB32_8
.Lfunc_end32:
	.size	writeMotionInfo2NAL, .Lfunc_end32-writeMotionInfo2NAL
	.cfi_endproc
                                        # -- End function
	.globl	writeChromaCoeff        # -- Begin function writeChromaCoeff
	.p2align	4, 0x90
	.type	writeChromaCoeff,@function
writeChromaCoeff:                       # @writeChromaCoeff
	.cfi_startproc
# %bb.0:                                # %rand_bb
	pushq	%rbp
	.cfi_def_cfa_offset 16
	.cfi_offset %rbp, -16
	movq	%rsp, %rbp
	.cfi_def_cfa_register %rbp
	callq	get_rand
	cmpl	$0, %eax
	jne	.LBB33_9
# %bb.1:                                # %func_writeChromaCoeff.99
	callq	writeChromaCoeff.99
	popq	%rbp
	.cfi_def_cfa %rsp, 8
	retq
.LBB33_2:                               # %func_writeChromaCoeff.127
	.cfi_def_cfa %rbp, 16
	callq	writeChromaCoeff.127
	popq	%rbp
	.cfi_def_cfa %rsp, 8
	retq
.LBB33_3:                               # %func_writeChromaCoeff.185
	.cfi_def_cfa %rbp, 16
	callq	writeChromaCoeff.185
	popq	%rbp
	.cfi_def_cfa %rsp, 8
	retq
.LBB33_4:                               # %func_writeChromaCoeff.189
	.cfi_def_cfa %rbp, 16
	callq	writeChromaCoeff.189
	popq	%rbp
	.cfi_def_cfa %rsp, 8
	retq
.LBB33_5:                               # %func_writeChromaCoeff.197
	.cfi_def_cfa %rbp, 16
	callq	writeChromaCoeff.197
	popq	%rbp
	.cfi_def_cfa %rsp, 8
	retq
.LBB33_6:                               # %func_writeChromaCoeff.231
	.cfi_def_cfa %rbp, 16
	callq	writeChromaCoeff.231
	popq	%rbp
	.cfi_def_cfa %rsp, 8
	retq
.LBB33_7:                               # %func_writeChromaCoeff.264
	.cfi_def_cfa %rbp, 16
	callq	writeChromaCoeff.264
	popq	%rbp
	.cfi_def_cfa %rsp, 8
	retq
.LBB33_8:                               # %func_writeChromaCoeff.269
	.cfi_def_cfa %rbp, 16
	callq	writeChromaCoeff.269
	popq	%rbp
	.cfi_def_cfa %rsp, 8
	retq
.LBB33_9:                               # %ctrl0
	.cfi_def_cfa %rbp, 16
	cmpl	$1, %eax
	je	.LBB33_2
# %bb.10:                               # %ctrl1
	cmpl	$2, %eax
	je	.LBB33_3
# %bb.11:                               # %ctrl2
	cmpl	$3, %eax
	je	.LBB33_4
# %bb.12:                               # %ctrl3
	cmpl	$4, %eax
	je	.LBB33_5
# %bb.13:                               # %ctrl4
	cmpl	$5, %eax
	je	.LBB33_6
# %bb.14:                               # %ctrl5
	cmpl	$6, %eax
	je	.LBB33_7
	jmp	.LBB33_8
.Lfunc_end33:
	.size	writeChromaCoeff, .Lfunc_end33-writeChromaCoeff
	.cfi_endproc
                                        # -- End function
	.globl	writeCoeff4x4_CAVLC     # -- Begin function writeCoeff4x4_CAVLC
	.p2align	4, 0x90
	.type	writeCoeff4x4_CAVLC,@function
writeCoeff4x4_CAVLC:                    # @writeCoeff4x4_CAVLC
	.cfi_startproc
# %bb.0:                                # %rand_bb
	pushq	%rbp
	.cfi_def_cfa_offset 16
	.cfi_offset %rbp, -16
	movq	%rsp, %rbp
	.cfi_def_cfa_register %rbp
	pushq	%r15
	pushq	%r14
	pushq	%r12
	pushq	%rbx
	.cfi_offset %rbx, -48
	.cfi_offset %r12, -40
	.cfi_offset %r14, -32
	.cfi_offset %r15, -24
	movl	%ecx, %r14d
	movl	%edx, %r15d
	movl	%esi, %r12d
	movl	%edi, %ebx
	callq	get_rand
	cmpl	$0, %eax
	jne	.LBB34_9
# %bb.1:                                # %func_writeCoeff4x4_CAVLC.12
	movl	%ebx, %edi
	movl	%r12d, %esi
	movl	%r15d, %edx
	movl	%r14d, %ecx
	callq	writeCoeff4x4_CAVLC.12
	popq	%rbx
	popq	%r12
	popq	%r14
	popq	%r15
	popq	%rbp
	.cfi_def_cfa %rsp, 8
	retq
.LBB34_2:                               # %func_writeCoeff4x4_CAVLC.133
	.cfi_def_cfa %rbp, 16
	movl	%ebx, %edi
	movl	%r12d, %esi
	movl	%r15d, %edx
	movl	%r14d, %ecx
	callq	writeCoeff4x4_CAVLC.133
	popq	%rbx
	popq	%r12
	popq	%r14
	popq	%r15
	popq	%rbp
	.cfi_def_cfa %rsp, 8
	retq
.LBB34_3:                               # %func_writeCoeff4x4_CAVLC.221
	.cfi_def_cfa %rbp, 16
	movl	%ebx, %edi
	movl	%r12d, %esi
	movl	%r15d, %edx
	movl	%r14d, %ecx
	callq	writeCoeff4x4_CAVLC.221
	popq	%rbx
	popq	%r12
	popq	%r14
	popq	%r15
	popq	%rbp
	.cfi_def_cfa %rsp, 8
	retq
.LBB34_4:                               # %func_writeCoeff4x4_CAVLC.239
	.cfi_def_cfa %rbp, 16
	movl	%ebx, %edi
	movl	%r12d, %esi
	movl	%r15d, %edx
	movl	%r14d, %ecx
	callq	writeCoeff4x4_CAVLC.239
	popq	%rbx
	popq	%r12
	popq	%r14
	popq	%r15
	popq	%rbp
	.cfi_def_cfa %rsp, 8
	retq
.LBB34_5:                               # %func_writeCoeff4x4_CAVLC.261
	.cfi_def_cfa %rbp, 16
	movl	%ebx, %edi
	movl	%r12d, %esi
	movl	%r15d, %edx
	movl	%r14d, %ecx
	callq	writeCoeff4x4_CAVLC.261
	popq	%rbx
	popq	%r12
	popq	%r14
	popq	%r15
	popq	%rbp
	.cfi_def_cfa %rsp, 8
	retq
.LBB34_6:                               # %func_writeCoeff4x4_CAVLC.263
	.cfi_def_cfa %rbp, 16
	movl	%ebx, %edi
	movl	%r12d, %esi
	movl	%r15d, %edx
	movl	%r14d, %ecx
	callq	writeCoeff4x4_CAVLC.263
	popq	%rbx
	popq	%r12
	popq	%r14
	popq	%r15
	popq	%rbp
	.cfi_def_cfa %rsp, 8
	retq
.LBB34_7:                               # %func_writeCoeff4x4_CAVLC.274
	.cfi_def_cfa %rbp, 16
	movl	%ebx, %edi
	movl	%r12d, %esi
	movl	%r15d, %edx
	movl	%r14d, %ecx
	callq	writeCoeff4x4_CAVLC.274
	popq	%rbx
	popq	%r12
	popq	%r14
	popq	%r15
	popq	%rbp
	.cfi_def_cfa %rsp, 8
	retq
.LBB34_8:                               # %func_writeCoeff4x4_CAVLC.285
	.cfi_def_cfa %rbp, 16
	movl	%ebx, %edi
	movl	%r12d, %esi
	movl	%r15d, %edx
	movl	%r14d, %ecx
	callq	writeCoeff4x4_CAVLC.285
	popq	%rbx
	popq	%r12
	popq	%r14
	popq	%r15
	popq	%rbp
	.cfi_def_cfa %rsp, 8
	retq
.LBB34_9:                               # %ctrl0
	.cfi_def_cfa %rbp, 16
	cmpl	$1, %eax
	je	.LBB34_2
# %bb.10:                               # %ctrl1
	cmpl	$2, %eax
	je	.LBB34_3
# %bb.11:                               # %ctrl2
	cmpl	$3, %eax
	je	.LBB34_4
# %bb.12:                               # %ctrl3
	cmpl	$4, %eax
	je	.LBB34_5
# %bb.13:                               # %ctrl4
	cmpl	$5, %eax
	je	.LBB34_6
# %bb.14:                               # %ctrl5
	cmpl	$6, %eax
	je	.LBB34_7
	jmp	.LBB34_8
.Lfunc_end34:
	.size	writeCoeff4x4_CAVLC, .Lfunc_end34-writeCoeff4x4_CAVLC
	.cfi_endproc
                                        # -- End function
	.globl	writeLumaCoeff4x4_CABAC # -- Begin function writeLumaCoeff4x4_CABAC
	.p2align	4, 0x90
	.type	writeLumaCoeff4x4_CABAC,@function
writeLumaCoeff4x4_CABAC:                # @writeLumaCoeff4x4_CABAC
	.cfi_startproc
# %bb.0:                                # %rand_bb
	pushq	%rbp
	.cfi_def_cfa_offset 16
	.cfi_offset %rbp, -16
	movq	%rsp, %rbp
	.cfi_def_cfa_register %rbp
	pushq	%r15
	pushq	%r14
	pushq	%rbx
	pushq	%rax
	.cfi_offset %rbx, -40
	.cfi_offset %r14, -32
	.cfi_offset %r15, -24
	movl	%edx, %r14d
	movl	%esi, %r15d
	movl	%edi, %ebx
	callq	get_rand
	cmpl	$0, %eax
	jne	.LBB35_9
# %bb.1:                                # %func_writeLumaCoeff4x4_CABAC.51
	movl	%ebx, %edi
	movl	%r15d, %esi
	movl	%r14d, %edx
	callq	writeLumaCoeff4x4_CABAC.51
	addq	$8, %rsp
	popq	%rbx
	popq	%r14
	popq	%r15
	popq	%rbp
	.cfi_def_cfa %rsp, 8
	retq
.LBB35_2:                               # %func_writeLumaCoeff4x4_CABAC.82
	.cfi_def_cfa %rbp, 16
	movl	%ebx, %edi
	movl	%r15d, %esi
	movl	%r14d, %edx
	callq	writeLumaCoeff4x4_CABAC.82
	addq	$8, %rsp
	popq	%rbx
	popq	%r14
	popq	%r15
	popq	%rbp
	.cfi_def_cfa %rsp, 8
	retq
.LBB35_3:                               # %func_writeLumaCoeff4x4_CABAC.141
	.cfi_def_cfa %rbp, 16
	movl	%ebx, %edi
	movl	%r15d, %esi
	movl	%r14d, %edx
	callq	writeLumaCoeff4x4_CABAC.141
	addq	$8, %rsp
	popq	%rbx
	popq	%r14
	popq	%r15
	popq	%rbp
	.cfi_def_cfa %rsp, 8
	retq
.LBB35_4:                               # %func_writeLumaCoeff4x4_CABAC.145
	.cfi_def_cfa %rbp, 16
	movl	%ebx, %edi
	movl	%r15d, %esi
	movl	%r14d, %edx
	callq	writeLumaCoeff4x4_CABAC.145
	addq	$8, %rsp
	popq	%rbx
	popq	%r14
	popq	%r15
	popq	%rbp
	.cfi_def_cfa %rsp, 8
	retq
.LBB35_5:                               # %func_writeLumaCoeff4x4_CABAC.192
	.cfi_def_cfa %rbp, 16
	movl	%ebx, %edi
	movl	%r15d, %esi
	movl	%r14d, %edx
	callq	writeLumaCoeff4x4_CABAC.192
	addq	$8, %rsp
	popq	%rbx
	popq	%r14
	popq	%r15
	popq	%rbp
	.cfi_def_cfa %rsp, 8
	retq
.LBB35_6:                               # %func_writeLumaCoeff4x4_CABAC.206
	.cfi_def_cfa %rbp, 16
	movl	%ebx, %edi
	movl	%r15d, %esi
	movl	%r14d, %edx
	callq	writeLumaCoeff4x4_CABAC.206
	addq	$8, %rsp
	popq	%rbx
	popq	%r14
	popq	%r15
	popq	%rbp
	.cfi_def_cfa %rsp, 8
	retq
.LBB35_7:                               # %func_writeLumaCoeff4x4_CABAC.234
	.cfi_def_cfa %rbp, 16
	movl	%ebx, %edi
	movl	%r15d, %esi
	movl	%r14d, %edx
	callq	writeLumaCoeff4x4_CABAC.234
	addq	$8, %rsp
	popq	%rbx
	popq	%r14
	popq	%r15
	popq	%rbp
	.cfi_def_cfa %rsp, 8
	retq
.LBB35_8:                               # %func_writeLumaCoeff4x4_CABAC.252
	.cfi_def_cfa %rbp, 16
	movl	%ebx, %edi
	movl	%r15d, %esi
	movl	%r14d, %edx
	callq	writeLumaCoeff4x4_CABAC.252
	addq	$8, %rsp
	popq	%rbx
	popq	%r14
	popq	%r15
	popq	%rbp
	.cfi_def_cfa %rsp, 8
	retq
.LBB35_9:                               # %ctrl0
	.cfi_def_cfa %rbp, 16
	cmpl	$1, %eax
	je	.LBB35_2
# %bb.10:                               # %ctrl1
	cmpl	$2, %eax
	je	.LBB35_3
# %bb.11:                               # %ctrl2
	cmpl	$3, %eax
	je	.LBB35_4
# %bb.12:                               # %ctrl3
	cmpl	$4, %eax
	je	.LBB35_5
# %bb.13:                               # %ctrl4
	cmpl	$5, %eax
	je	.LBB35_6
# %bb.14:                               # %ctrl5
	cmpl	$6, %eax
	je	.LBB35_7
	jmp	.LBB35_8
.Lfunc_end35:
	.size	writeLumaCoeff4x4_CABAC, .Lfunc_end35-writeLumaCoeff4x4_CABAC
	.cfi_endproc
                                        # -- End function
	.globl	writeLumaCoeff8x8_CABAC # -- Begin function writeLumaCoeff8x8_CABAC
	.p2align	4, 0x90
	.type	writeLumaCoeff8x8_CABAC,@function
writeLumaCoeff8x8_CABAC:                # @writeLumaCoeff8x8_CABAC
	.cfi_startproc
# %bb.0:                                # %rand_bb
	pushq	%rbp
	.cfi_def_cfa_offset 16
	.cfi_offset %rbp, -16
	movq	%rsp, %rbp
	.cfi_def_cfa_register %rbp
	pushq	%r14
	pushq	%rbx
	.cfi_offset %rbx, -32
	.cfi_offset %r14, -24
	movl	%esi, %r14d
	movl	%edi, %ebx
	callq	get_rand
	cmpl	$0, %eax
	jne	.LBB36_9
# %bb.1:                                # %func_writeLumaCoeff8x8_CABAC.41
	movl	%ebx, %edi
	movl	%r14d, %esi
	callq	writeLumaCoeff8x8_CABAC.41
	popq	%rbx
	popq	%r14
	popq	%rbp
	.cfi_def_cfa %rsp, 8
	retq
.LBB36_2:                               # %func_writeLumaCoeff8x8_CABAC.54
	.cfi_def_cfa %rbp, 16
	movl	%ebx, %edi
	movl	%r14d, %esi
	callq	writeLumaCoeff8x8_CABAC.54
	popq	%rbx
	popq	%r14
	popq	%rbp
	.cfi_def_cfa %rsp, 8
	retq
.LBB36_3:                               # %func_writeLumaCoeff8x8_CABAC.85
	.cfi_def_cfa %rbp, 16
	movl	%ebx, %edi
	movl	%r14d, %esi
	callq	writeLumaCoeff8x8_CABAC.85
	popq	%rbx
	popq	%r14
	popq	%rbp
	.cfi_def_cfa %rsp, 8
	retq
.LBB36_4:                               # %func_writeLumaCoeff8x8_CABAC.121
	.cfi_def_cfa %rbp, 16
	movl	%ebx, %edi
	movl	%r14d, %esi
	callq	writeLumaCoeff8x8_CABAC.121
	popq	%rbx
	popq	%r14
	popq	%rbp
	.cfi_def_cfa %rsp, 8
	retq
.LBB36_5:                               # %func_writeLumaCoeff8x8_CABAC.124
	.cfi_def_cfa %rbp, 16
	movl	%ebx, %edi
	movl	%r14d, %esi
	callq	writeLumaCoeff8x8_CABAC.124
	popq	%rbx
	popq	%r14
	popq	%rbp
	.cfi_def_cfa %rsp, 8
	retq
.LBB36_6:                               # %func_writeLumaCoeff8x8_CABAC.163
	.cfi_def_cfa %rbp, 16
	movl	%ebx, %edi
	movl	%r14d, %esi
	callq	writeLumaCoeff8x8_CABAC.163
	popq	%rbx
	popq	%r14
	popq	%rbp
	.cfi_def_cfa %rsp, 8
	retq
.LBB36_7:                               # %func_writeLumaCoeff8x8_CABAC.201
	.cfi_def_cfa %rbp, 16
	movl	%ebx, %edi
	movl	%r14d, %esi
	callq	writeLumaCoeff8x8_CABAC.201
	popq	%rbx
	popq	%r14
	popq	%rbp
	.cfi_def_cfa %rsp, 8
	retq
.LBB36_8:                               # %func_writeLumaCoeff8x8_CABAC.235
	.cfi_def_cfa %rbp, 16
	movl	%ebx, %edi
	movl	%r14d, %esi
	callq	writeLumaCoeff8x8_CABAC.235
	popq	%rbx
	popq	%r14
	popq	%rbp
	.cfi_def_cfa %rsp, 8
	retq
.LBB36_9:                               # %ctrl0
	.cfi_def_cfa %rbp, 16
	cmpl	$1, %eax
	je	.LBB36_2
# %bb.10:                               # %ctrl1
	cmpl	$2, %eax
	je	.LBB36_3
# %bb.11:                               # %ctrl2
	cmpl	$3, %eax
	je	.LBB36_4
# %bb.12:                               # %ctrl3
	cmpl	$4, %eax
	je	.LBB36_5
# %bb.13:                               # %ctrl4
	cmpl	$5, %eax
	je	.LBB36_6
# %bb.14:                               # %ctrl5
	cmpl	$6, %eax
	je	.LBB36_7
	jmp	.LBB36_8
.Lfunc_end36:
	.size	writeLumaCoeff8x8_CABAC, .Lfunc_end36-writeLumaCoeff8x8_CABAC
	.cfi_endproc
                                        # -- End function
	.globl	writeLumaCoeff8x8       # -- Begin function writeLumaCoeff8x8
	.p2align	4, 0x90
	.type	writeLumaCoeff8x8,@function
writeLumaCoeff8x8:                      # @writeLumaCoeff8x8
	.cfi_startproc
# %bb.0:                                # %rand_bb
	pushq	%rbp
	.cfi_def_cfa_offset 16
	.cfi_offset %rbp, -16
	movq	%rsp, %rbp
	.cfi_def_cfa_register %rbp
	pushq	%r15
	pushq	%r14
	pushq	%rbx
	pushq	%rax
	.cfi_offset %rbx, -40
	.cfi_offset %r14, -32
	.cfi_offset %r15, -24
	movl	%edx, %r14d
	movl	%esi, %r15d
	movl	%edi, %ebx
	callq	get_rand
	cmpl	$0, %eax
	jne	.LBB37_9
# %bb.1:                                # %func_writeLumaCoeff8x8.38
	movl	%ebx, %edi
	movl	%r15d, %esi
	movl	%r14d, %edx
	callq	writeLumaCoeff8x8.38
	addq	$8, %rsp
	popq	%rbx
	popq	%r14
	popq	%r15
	popq	%rbp
	.cfi_def_cfa %rsp, 8
	retq
.LBB37_2:                               # %func_writeLumaCoeff8x8.71
	.cfi_def_cfa %rbp, 16
	movl	%ebx, %edi
	movl	%r15d, %esi
	movl	%r14d, %edx
	callq	writeLumaCoeff8x8.71
	addq	$8, %rsp
	popq	%rbx
	popq	%r14
	popq	%r15
	popq	%rbp
	.cfi_def_cfa %rsp, 8
	retq
.LBB37_3:                               # %func_writeLumaCoeff8x8.135
	.cfi_def_cfa %rbp, 16
	movl	%ebx, %edi
	movl	%r15d, %esi
	movl	%r14d, %edx
	callq	writeLumaCoeff8x8.135
	addq	$8, %rsp
	popq	%rbx
	popq	%r14
	popq	%r15
	popq	%rbp
	.cfi_def_cfa %rsp, 8
	retq
.LBB37_4:                               # %func_writeLumaCoeff8x8.222
	.cfi_def_cfa %rbp, 16
	movl	%ebx, %edi
	movl	%r15d, %esi
	movl	%r14d, %edx
	callq	writeLumaCoeff8x8.222
	addq	$8, %rsp
	popq	%rbx
	popq	%r14
	popq	%r15
	popq	%rbp
	.cfi_def_cfa %rsp, 8
	retq
.LBB37_5:                               # %func_writeLumaCoeff8x8.257
	.cfi_def_cfa %rbp, 16
	movl	%ebx, %edi
	movl	%r15d, %esi
	movl	%r14d, %edx
	callq	writeLumaCoeff8x8.257
	addq	$8, %rsp
	popq	%rbx
	popq	%r14
	popq	%r15
	popq	%rbp
	.cfi_def_cfa %rsp, 8
	retq
.LBB37_6:                               # %func_writeLumaCoeff8x8.286
	.cfi_def_cfa %rbp, 16
	movl	%ebx, %edi
	movl	%r15d, %esi
	movl	%r14d, %edx
	callq	writeLumaCoeff8x8.286
	addq	$8, %rsp
	popq	%rbx
	popq	%r14
	popq	%r15
	popq	%rbp
	.cfi_def_cfa %rsp, 8
	retq
.LBB37_7:                               # %func_writeLumaCoeff8x8.287
	.cfi_def_cfa %rbp, 16
	movl	%ebx, %edi
	movl	%r15d, %esi
	movl	%r14d, %edx
	callq	writeLumaCoeff8x8.287
	addq	$8, %rsp
	popq	%rbx
	popq	%r14
	popq	%r15
	popq	%rbp
	.cfi_def_cfa %rsp, 8
	retq
.LBB37_8:                               # %func_writeLumaCoeff8x8.288
	.cfi_def_cfa %rbp, 16
	movl	%ebx, %edi
	movl	%r15d, %esi
	movl	%r14d, %edx
	callq	writeLumaCoeff8x8.288
	addq	$8, %rsp
	popq	%rbx
	popq	%r14
	popq	%r15
	popq	%rbp
	.cfi_def_cfa %rsp, 8
	retq
.LBB37_9:                               # %ctrl0
	.cfi_def_cfa %rbp, 16
	cmpl	$1, %eax
	je	.LBB37_2
# %bb.10:                               # %ctrl1
	cmpl	$2, %eax
	je	.LBB37_3
# %bb.11:                               # %ctrl2
	cmpl	$3, %eax
	je	.LBB37_4
# %bb.12:                               # %ctrl3
	cmpl	$4, %eax
	je	.LBB37_5
# %bb.13:                               # %ctrl4
	cmpl	$5, %eax
	je	.LBB37_6
# %bb.14:                               # %ctrl5
	cmpl	$6, %eax
	je	.LBB37_7
	jmp	.LBB37_8
.Lfunc_end37:
	.size	writeLumaCoeff8x8, .Lfunc_end37-writeLumaCoeff8x8
	.cfi_endproc
                                        # -- End function
	.globl	writeCBPandLumaCoeff    # -- Begin function writeCBPandLumaCoeff
	.p2align	4, 0x90
	.type	writeCBPandLumaCoeff,@function
writeCBPandLumaCoeff:                   # @writeCBPandLumaCoeff
	.cfi_startproc
# %bb.0:                                # %rand_bb
	pushq	%rbp
	.cfi_def_cfa_offset 16
	.cfi_offset %rbp, -16
	movq	%rsp, %rbp
	.cfi_def_cfa_register %rbp
	callq	get_rand
	cmpl	$0, %eax
	jne	.LBB38_9
# %bb.1:                                # %func_writeCBPandLumaCoeff.6
	callq	writeCBPandLumaCoeff.6
	popq	%rbp
	.cfi_def_cfa %rsp, 8
	retq
.LBB38_2:                               # %func_writeCBPandLumaCoeff.13
	.cfi_def_cfa %rbp, 16
	callq	writeCBPandLumaCoeff.13
	popq	%rbp
	.cfi_def_cfa %rsp, 8
	retq
.LBB38_3:                               # %func_writeCBPandLumaCoeff.15
	.cfi_def_cfa %rbp, 16
	callq	writeCBPandLumaCoeff.15
	popq	%rbp
	.cfi_def_cfa %rsp, 8
	retq
.LBB38_4:                               # %func_writeCBPandLumaCoeff.20
	.cfi_def_cfa %rbp, 16
	callq	writeCBPandLumaCoeff.20
	popq	%rbp
	.cfi_def_cfa %rsp, 8
	retq
.LBB38_5:                               # %func_writeCBPandLumaCoeff.104
	.cfi_def_cfa %rbp, 16
	callq	writeCBPandLumaCoeff.104
	popq	%rbp
	.cfi_def_cfa %rsp, 8
	retq
.LBB38_6:                               # %func_writeCBPandLumaCoeff.182
	.cfi_def_cfa %rbp, 16
	callq	writeCBPandLumaCoeff.182
	popq	%rbp
	.cfi_def_cfa %rsp, 8
	retq
.LBB38_7:                               # %func_writeCBPandLumaCoeff.186
	.cfi_def_cfa %rbp, 16
	callq	writeCBPandLumaCoeff.186
	popq	%rbp
	.cfi_def_cfa %rsp, 8
	retq
.LBB38_8:                               # %func_writeCBPandLumaCoeff.210
	.cfi_def_cfa %rbp, 16
	callq	writeCBPandLumaCoeff.210
	popq	%rbp
	.cfi_def_cfa %rsp, 8
	retq
.LBB38_9:                               # %ctrl0
	.cfi_def_cfa %rbp, 16
	cmpl	$1, %eax
	je	.LBB38_2
# %bb.10:                               # %ctrl1
	cmpl	$2, %eax
	je	.LBB38_3
# %bb.11:                               # %ctrl2
	cmpl	$3, %eax
	je	.LBB38_4
# %bb.12:                               # %ctrl3
	cmpl	$4, %eax
	je	.LBB38_5
# %bb.13:                               # %ctrl4
	cmpl	$5, %eax
	je	.LBB38_6
# %bb.14:                               # %ctrl5
	cmpl	$6, %eax
	je	.LBB38_7
	jmp	.LBB38_8
.Lfunc_end38:
	.size	writeCBPandLumaCoeff, .Lfunc_end38-writeCBPandLumaCoeff
	.cfi_endproc
                                        # -- End function
	.globl	predict_nnz             # -- Begin function predict_nnz
	.p2align	4, 0x90
	.type	predict_nnz,@function
predict_nnz:                            # @predict_nnz
	.cfi_startproc
# %bb.0:                                # %rand_bb
	pushq	%rbp
	.cfi_def_cfa_offset 16
	.cfi_offset %rbp, -16
	movq	%rsp, %rbp
	.cfi_def_cfa_register %rbp
	pushq	%r14
	pushq	%rbx
	.cfi_offset %rbx, -32
	.cfi_offset %r14, -24
	movl	%esi, %r14d
	movl	%edi, %ebx
	callq	get_rand
	cmpl	$0, %eax
	jne	.LBB39_9
# %bb.1:                                # %func_predict_nnz.7
	movl	%ebx, %edi
	movl	%r14d, %esi
	callq	predict_nnz.7
	popq	%rbx
	popq	%r14
	popq	%rbp
	.cfi_def_cfa %rsp, 8
	retq
.LBB39_2:                               # %func_predict_nnz.42
	.cfi_def_cfa %rbp, 16
	movl	%ebx, %edi
	movl	%r14d, %esi
	callq	predict_nnz.42
	popq	%rbx
	popq	%r14
	popq	%rbp
	.cfi_def_cfa %rsp, 8
	retq
.LBB39_3:                               # %func_predict_nnz.48
	.cfi_def_cfa %rbp, 16
	movl	%ebx, %edi
	movl	%r14d, %esi
	callq	predict_nnz.48
	popq	%rbx
	popq	%r14
	popq	%rbp
	.cfi_def_cfa %rsp, 8
	retq
.LBB39_4:                               # %func_predict_nnz.118
	.cfi_def_cfa %rbp, 16
	movl	%ebx, %edi
	movl	%r14d, %esi
	callq	predict_nnz.118
	popq	%rbx
	popq	%r14
	popq	%rbp
	.cfi_def_cfa %rsp, 8
	retq
.LBB39_5:                               # %func_predict_nnz.137
	.cfi_def_cfa %rbp, 16
	movl	%ebx, %edi
	movl	%r14d, %esi
	callq	predict_nnz.137
	popq	%rbx
	popq	%r14
	popq	%rbp
	.cfi_def_cfa %rsp, 8
	retq
.LBB39_6:                               # %func_predict_nnz.147
	.cfi_def_cfa %rbp, 16
	movl	%ebx, %edi
	movl	%r14d, %esi
	callq	predict_nnz.147
	popq	%rbx
	popq	%r14
	popq	%rbp
	.cfi_def_cfa %rsp, 8
	retq
.LBB39_7:                               # %func_predict_nnz.171
	.cfi_def_cfa %rbp, 16
	movl	%ebx, %edi
	movl	%r14d, %esi
	callq	predict_nnz.171
	popq	%rbx
	popq	%r14
	popq	%rbp
	.cfi_def_cfa %rsp, 8
	retq
.LBB39_8:                               # %func_predict_nnz.255
	.cfi_def_cfa %rbp, 16
	movl	%ebx, %edi
	movl	%r14d, %esi
	callq	predict_nnz.255
	popq	%rbx
	popq	%r14
	popq	%rbp
	.cfi_def_cfa %rsp, 8
	retq
.LBB39_9:                               # %ctrl0
	.cfi_def_cfa %rbp, 16
	cmpl	$1, %eax
	je	.LBB39_2
# %bb.10:                               # %ctrl1
	cmpl	$2, %eax
	je	.LBB39_3
# %bb.11:                               # %ctrl2
	cmpl	$3, %eax
	je	.LBB39_4
# %bb.12:                               # %ctrl3
	cmpl	$4, %eax
	je	.LBB39_5
# %bb.13:                               # %ctrl4
	cmpl	$5, %eax
	je	.LBB39_6
# %bb.14:                               # %ctrl5
	cmpl	$6, %eax
	je	.LBB39_7
	jmp	.LBB39_8
.Lfunc_end39:
	.size	predict_nnz, .Lfunc_end39-predict_nnz
	.cfi_endproc
                                        # -- End function
	.globl	predict_nnz_chroma      # -- Begin function predict_nnz_chroma
	.p2align	4, 0x90
	.type	predict_nnz_chroma,@function
predict_nnz_chroma:                     # @predict_nnz_chroma
	.cfi_startproc
# %bb.0:                                # %rand_bb
	pushq	%rbp
	.cfi_def_cfa_offset 16
	.cfi_offset %rbp, -16
	movq	%rsp, %rbp
	.cfi_def_cfa_register %rbp
	pushq	%r14
	pushq	%rbx
	.cfi_offset %rbx, -32
	.cfi_offset %r14, -24
	movl	%esi, %r14d
	movl	%edi, %ebx
	callq	get_rand
	cmpl	$0, %eax
	jne	.LBB40_9
# %bb.1:                                # %func_predict_nnz_chroma.35
	movl	%ebx, %edi
	movl	%r14d, %esi
	callq	predict_nnz_chroma.35
	popq	%rbx
	popq	%r14
	popq	%rbp
	.cfi_def_cfa %rsp, 8
	retq
.LBB40_2:                               # %func_predict_nnz_chroma.37
	.cfi_def_cfa %rbp, 16
	movl	%ebx, %edi
	movl	%r14d, %esi
	callq	predict_nnz_chroma.37
	popq	%rbx
	popq	%r14
	popq	%rbp
	.cfi_def_cfa %rsp, 8
	retq
.LBB40_3:                               # %func_predict_nnz_chroma.66
	.cfi_def_cfa %rbp, 16
	movl	%ebx, %edi
	movl	%r14d, %esi
	callq	predict_nnz_chroma.66
	popq	%rbx
	popq	%r14
	popq	%rbp
	.cfi_def_cfa %rsp, 8
	retq
.LBB40_4:                               # %func_predict_nnz_chroma.98
	.cfi_def_cfa %rbp, 16
	movl	%ebx, %edi
	movl	%r14d, %esi
	callq	predict_nnz_chroma.98
	popq	%rbx
	popq	%r14
	popq	%rbp
	.cfi_def_cfa %rsp, 8
	retq
.LBB40_5:                               # %func_predict_nnz_chroma.101
	.cfi_def_cfa %rbp, 16
	movl	%ebx, %edi
	movl	%r14d, %esi
	callq	predict_nnz_chroma.101
	popq	%rbx
	popq	%r14
	popq	%rbp
	.cfi_def_cfa %rsp, 8
	retq
.LBB40_6:                               # %func_predict_nnz_chroma.154
	.cfi_def_cfa %rbp, 16
	movl	%ebx, %edi
	movl	%r14d, %esi
	callq	predict_nnz_chroma.154
	popq	%rbx
	popq	%r14
	popq	%rbp
	.cfi_def_cfa %rsp, 8
	retq
.LBB40_7:                               # %func_predict_nnz_chroma.215
	.cfi_def_cfa %rbp, 16
	movl	%ebx, %edi
	movl	%r14d, %esi
	callq	predict_nnz_chroma.215
	popq	%rbx
	popq	%r14
	popq	%rbp
	.cfi_def_cfa %rsp, 8
	retq
.LBB40_8:                               # %func_predict_nnz_chroma.227
	.cfi_def_cfa %rbp, 16
	movl	%ebx, %edi
	movl	%r14d, %esi
	callq	predict_nnz_chroma.227
	popq	%rbx
	popq	%r14
	popq	%rbp
	.cfi_def_cfa %rsp, 8
	retq
.LBB40_9:                               # %ctrl0
	.cfi_def_cfa %rbp, 16
	cmpl	$1, %eax
	je	.LBB40_2
# %bb.10:                               # %ctrl1
	cmpl	$2, %eax
	je	.LBB40_3
# %bb.11:                               # %ctrl2
	cmpl	$3, %eax
	je	.LBB40_4
# %bb.12:                               # %ctrl3
	cmpl	$4, %eax
	je	.LBB40_5
# %bb.13:                               # %ctrl4
	cmpl	$5, %eax
	je	.LBB40_6
# %bb.14:                               # %ctrl5
	cmpl	$6, %eax
	je	.LBB40_7
	jmp	.LBB40_8
.Lfunc_end40:
	.size	predict_nnz_chroma, .Lfunc_end40-predict_nnz_chroma
	.cfi_endproc
                                        # -- End function
	.globl	find_sad_16x16          # -- Begin function find_sad_16x16
	.p2align	4, 0x90
	.type	find_sad_16x16,@function
find_sad_16x16:                         # @find_sad_16x16
	.cfi_startproc
# %bb.0:                                # %rand_bb
	pushq	%rbp
	.cfi_def_cfa_offset 16
	.cfi_offset %rbp, -16
	movq	%rsp, %rbp
	.cfi_def_cfa_register %rbp
	pushq	%rbx
	pushq	%rax
	.cfi_offset %rbx, -24
	movq	%rdi, %rbx
	callq	get_rand
	cmpl	$0, %eax
	jne	.LBB41_9
# %bb.1:                                # %func_find_sad_16x16.73
	movq	%rbx, %rdi
	callq	find_sad_16x16.73
	addq	$8, %rsp
	popq	%rbx
	popq	%rbp
	.cfi_def_cfa %rsp, 8
	retq
.LBB41_2:                               # %func_find_sad_16x16.77
	.cfi_def_cfa %rbp, 16
	movq	%rbx, %rdi
	callq	find_sad_16x16.77
	addq	$8, %rsp
	popq	%rbx
	popq	%rbp
	.cfi_def_cfa %rsp, 8
	retq
.LBB41_3:                               # %func_find_sad_16x16.117
	.cfi_def_cfa %rbp, 16
	movq	%rbx, %rdi
	callq	find_sad_16x16.117
	addq	$8, %rsp
	popq	%rbx
	popq	%rbp
	.cfi_def_cfa %rsp, 8
	retq
.LBB41_4:                               # %func_find_sad_16x16.125
	.cfi_def_cfa %rbp, 16
	movq	%rbx, %rdi
	callq	find_sad_16x16.125
	addq	$8, %rsp
	popq	%rbx
	popq	%rbp
	.cfi_def_cfa %rsp, 8
	retq
.LBB41_5:                               # %func_find_sad_16x16.132
	.cfi_def_cfa %rbp, 16
	movq	%rbx, %rdi
	callq	find_sad_16x16.132
	addq	$8, %rsp
	popq	%rbx
	popq	%rbp
	.cfi_def_cfa %rsp, 8
	retq
.LBB41_6:                               # %func_find_sad_16x16.148
	.cfi_def_cfa %rbp, 16
	movq	%rbx, %rdi
	callq	find_sad_16x16.148
	addq	$8, %rsp
	popq	%rbx
	popq	%rbp
	.cfi_def_cfa %rsp, 8
	retq
.LBB41_7:                               # %func_find_sad_16x16.155
	.cfi_def_cfa %rbp, 16
	movq	%rbx, %rdi
	callq	find_sad_16x16.155
	addq	$8, %rsp
	popq	%rbx
	popq	%rbp
	.cfi_def_cfa %rsp, 8
	retq
.LBB41_8:                               # %func_find_sad_16x16.157
	.cfi_def_cfa %rbp, 16
	movq	%rbx, %rdi
	callq	find_sad_16x16.157
	addq	$8, %rsp
	popq	%rbx
	popq	%rbp
	.cfi_def_cfa %rsp, 8
	retq
.LBB41_9:                               # %ctrl0
	.cfi_def_cfa %rbp, 16
	cmpl	$1, %eax
	je	.LBB41_2
# %bb.10:                               # %ctrl1
	cmpl	$2, %eax
	je	.LBB41_3
# %bb.11:                               # %ctrl2
	cmpl	$3, %eax
	je	.LBB41_4
# %bb.12:                               # %ctrl3
	cmpl	$4, %eax
	je	.LBB41_5
# %bb.13:                               # %ctrl4
	cmpl	$5, %eax
	je	.LBB41_6
# %bb.14:                               # %ctrl5
	cmpl	$6, %eax
	je	.LBB41_7
	jmp	.LBB41_8
.Lfunc_end41:
	.size	find_sad_16x16, .Lfunc_end41-find_sad_16x16
	.cfi_endproc
                                        # -- End function
	.globl	slice_too_big.1         # -- Begin function slice_too_big.1
	.p2align	4, 0x90
	.type	slice_too_big.1,@function
slice_too_big.1:                        # @slice_too_big.1
	.cfi_startproc
# %bb.0:                                # %entry
	pushq	%rbp
	.cfi_def_cfa_offset 16
	.cfi_offset %rbp, -16
	movq	%rsp, %rbp
	.cfi_def_cfa_register %rbp
	pushq	%rbx
	subq	$56, %rsp
	.cfi_offset %rbx, -24
	movl	$1971158129, -56(%rbp)  # imm = 0x757D7C71
	movl	%edi, -52(%rbp)
	movq	img, %rax
	movq	14160(%rax), %rax
	movq	%rax, -32(%rbp)
	movq	input, %rax
	cmpl	$0, 2356(%rax)
	jne	.LBB42_12
# %bb.1:                                # %if.then
	movl	$0, -12(%rbp)
.LBB42_2:                               # %for.cond
                                        # =>This Inner Loop Header: Depth=1
	movl	-12(%rbp), %eax
	movq	-32(%rbp), %rcx
	cmpl	16(%rcx), %eax
	jge	.LBB42_11
# %bb.3:                                # %for.body
                                        #   in Loop: Header=BB42_2 Depth=1
	movq	-32(%rbp), %rax
	movq	24(%rax), %rax
	movslq	-12(%rbp), %rcx
	imulq	$120, %rcx, %rcx
	addq	%rcx, %rax
	movq	%rax, -48(%rbp)
	movq	-48(%rbp), %rax
	movq	(%rax), %rax
	movq	%rax, -40(%rbp)
	movq	-40(%rbp), %rax
	movl	(%rax), %eax
	movl	%eax, -16(%rbp)
	movq	-40(%rbp), %rax
	cmpl	$8, 4(%rax)
	jge	.LBB42_5
# %bb.4:                                # %if.then3
                                        #   in Loop: Header=BB42_2 Depth=1
	movl	-16(%rbp), %eax
	addl	$1, %eax
	movl	%eax, -16(%rbp)
.LBB42_5:                               # %if.end
                                        #   in Loop: Header=BB42_2 Depth=1
	movq	-40(%rbp), %rax
	movl	4(%rax), %eax
	cmpl	-52(%rbp), %eax
	jge	.LBB42_7
# %bb.6:                                # %if.then6
                                        #   in Loop: Header=BB42_2 Depth=1
	movl	-16(%rbp), %eax
	addl	$1, %eax
	movl	%eax, -16(%rbp)
.LBB42_7:                               # %if.end8
                                        #   in Loop: Header=BB42_2 Depth=1
	movl	-16(%rbp), %eax
	movq	input, %rcx
	cmpl	212(%rcx), %eax
	jle	.LBB42_9
# %bb.8:                                # %if.then10
	movl	$1, -20(%rbp)
	jmp	.LBB42_21
.LBB42_9:                               # %if.end11
                                        #   in Loop: Header=BB42_2 Depth=1
	jmp	.LBB42_10
.LBB42_10:                              # %for.inc
                                        #   in Loop: Header=BB42_2 Depth=1
	movl	-12(%rbp), %eax
	addl	$1, %eax
	movl	%eax, -12(%rbp)
	jmp	.LBB42_2
.LBB42_11:                              # %for.end
	jmp	.LBB42_12
.LBB42_12:                              # %if.end13
	movq	input, %rax
	cmpl	$1, 2356(%rax)
	jne	.LBB42_20
# %bb.13:                               # %if.then16
	movl	$0, -12(%rbp)
.LBB42_14:                              # %for.cond17
                                        # =>This Inner Loop Header: Depth=1
	movl	-12(%rbp), %eax
	movq	-32(%rbp), %rcx
	cmpl	16(%rcx), %eax
	jge	.LBB42_19
# %bb.15:                               # %for.body20
                                        #   in Loop: Header=BB42_14 Depth=1
	movq	-32(%rbp), %rax
	movq	24(%rax), %rax
	movslq	-12(%rbp), %rcx
	imulq	$120, %rcx, %rcx
	addq	%rcx, %rax
	movq	%rax, -48(%rbp)
	movq	-48(%rbp), %rax
	addq	$8, %rax
	movq	%rax, -64(%rbp)
	movq	-64(%rbp), %rdi
	callq	arienco_bits_written
	movq	input, %rcx
	movl	212(%rcx), %ecx
	shll	$3, %ecx
	cmpl	%ecx, %eax
	jle	.LBB42_17
# %bb.16:                               # %if.then26
	movl	$1, -20(%rbp)
	jmp	.LBB42_21
.LBB42_17:                              # %if.end27
                                        #   in Loop: Header=BB42_14 Depth=1
	jmp	.LBB42_18
.LBB42_18:                              # %for.inc28
                                        #   in Loop: Header=BB42_14 Depth=1
	movl	-12(%rbp), %eax
	addl	$1, %eax
	movl	%eax, -12(%rbp)
	jmp	.LBB42_14
.LBB42_19:                              # %for.end30
	jmp	.LBB42_20
.LBB42_20:                              # %if.end31
	movl	$0, -20(%rbp)
.LBB42_21:                              # %return
	movl	-20(%rbp), %ebx
	cmpl	$1971158129, -56(%rbp)  # imm = 0x757D7C71
	jne	.LBB42_23
.LBB42_22:
	movl	%ebx, %eax
	addq	$56, %rsp
	popq	%rbx
	popq	%rbp
	.cfi_def_cfa %rsp, 8
	retq
.LBB42_23:                              # %func_exit
	.cfi_def_cfa %rbp, 16
	callq	detect_breach
	jmp	.LBB42_22
.Lfunc_end42:
	.size	slice_too_big.1, .Lfunc_end42-slice_too_big.1
	.cfi_endproc
                                        # -- End function
	.globl	ChromaPrediction4x4.2   # -- Begin function ChromaPrediction4x4.2
	.p2align	4, 0x90
	.type	ChromaPrediction4x4.2,@function
ChromaPrediction4x4.2:                  # @ChromaPrediction4x4.2
	.cfi_startproc
# %bb.0:                                # %entry
	pushq	%rbp
	.cfi_def_cfa_offset 16
	.cfi_offset %rbp, -16
	movq	%rsp, %rbp
	.cfi_def_cfa_register %rbp
	subq	$96, %rsp
	movw	24(%rbp), %ax
	movw	16(%rbp), %ax
	movl	$1035993195, -72(%rbp)  # imm = 0x3DC0006B
	movl	%edi, -12(%rbp)
	movl	%esi, -24(%rbp)
	movl	%edx, -20(%rbp)
	movl	%ecx, -16(%rbp)
	movl	%r8d, -56(%rbp)
	movl	%r9d, -52(%rbp)
	movl	-24(%rbp), %eax
	addl	$4, %eax
	movl	%eax, -32(%rbp)
	movl	-20(%rbp), %eax
	addl	$4, %eax
	movl	%eax, -28(%rbp)
	movabsq	$ChromaPrediction4x4.fw_pred, %rax
	movq	%rax, -40(%rbp)
	movabsq	$ChromaPrediction4x4.bw_pred, %rax
	movq	%rax, -48(%rbp)
	movq	img, %rax
	movq	71928(%rax), %rax
	movq	%rax, -64(%rbp)
	movq	img, %rax
	movq	14168(%rax), %rax
	movq	img, %rcx
	movslq	12(%rcx), %rcx
	imulq	$632, %rcx, %rcx        # imm = 0x278
	addq	%rcx, %rax
	movq	%rax, -80(%rbp)
	movq	active_pps, %rax
	cmpl	$0, 192(%rax)
	je	.LBB43_3
# %bb.1:                                # %land.lhs.true
	movq	img, %rax
	cmpl	$0, 24(%rax)
	movb	$1, %al
	je	.LBB43_6
# %bb.2:                                # %lor.lhs.false
	movq	img, %rax
	cmpl	$3, 24(%rax)
	movb	$1, %al
	je	.LBB43_6
.LBB43_3:                               # %lor.rhs
	xorl	%eax, %eax
	movq	active_pps, %rcx
	cmpl	$0, 196(%rcx)
	je	.LBB43_5
# %bb.4:                                # %land.rhs
	movq	img, %rax
	cmpl	$1, 24(%rax)
	sete	%al
.LBB43_5:                               # %land.end
.LBB43_6:                               # %lor.end
	andb	$1, %al
	movzbl	%al, %eax
	movl	%eax, -68(%rbp)
	movq	-80(%rbp), %rax
	cmpl	$0, 580(%rax)
	je	.LBB43_16
# %bb.7:                                # %land.lhs.true8
	movswl	16(%rbp), %eax
	cmpl	$0, %eax
	jne	.LBB43_16
# %bb.8:                                # %land.lhs.true11
	movswl	24(%rbp), %eax
	cmpl	$0, %eax
	jne	.LBB43_16
# %bb.9:                                # %land.lhs.true15
	cmpl	$2, -16(%rbp)
	jne	.LBB43_16
# %bb.10:                               # %land.lhs.true18
	cmpl	$1, -56(%rbp)
	jne	.LBB43_16
# %bb.11:                               # %land.lhs.true21
	cmpl	$1, -52(%rbp)
	jne	.LBB43_16
# %bb.12:                               # %if.then
	movq	-80(%rbp), %rax
	cmpl	$1, 580(%rax)
	jne	.LBB43_14
# %bb.13:                               # %cond.true
	movq	img, %rax
	movq	71936(%rax), %rax
	jmp	.LBB43_15
.LBB43_14:                              # %cond.false
	movq	img, %rax
	movq	71944(%rax), %rax
.LBB43_15:                              # %cond.end
	movq	%rax, -64(%rbp)
.LBB43_16:                              # %if.end
	cmpl	$-1, -16(%rbp)
	jne	.LBB43_18
# %bb.17:                               # %if.then29
	movl	-12(%rbp), %edi
	movl	-24(%rbp), %esi
	movl	-20(%rbp), %edx
	callq	IntraChromaPrediction4x4
	jmp	.LBB43_87
.LBB43_18:                              # %if.end30
	cmpl	$0, -16(%rbp)
	je	.LBB43_20
# %bb.19:                               # %lor.lhs.false33
	cmpl	$2, -16(%rbp)
	jne	.LBB43_21
.LBB43_20:                              # %if.then36
	movl	-24(%rbp), %esi
	movl	-20(%rbp), %edx
	movq	-64(%rbp), %rcx
	movw	16(%rbp), %ax
	movl	-56(%rbp), %r10d
	movl	-12(%rbp), %r11d
	movabsq	$ChromaPrediction4x4.fw_pred, %rdi
	movl	$0, %r8d
	movswl	%ax, %r9d
	movl	%r10d, (%rsp)
	movl	%r11d, 8(%rsp)
	callq	OneComponentChromaPrediction4x4
.LBB43_21:                              # %if.end37
	cmpl	$1, -16(%rbp)
	je	.LBB43_23
# %bb.22:                               # %lor.lhs.false40
	cmpl	$2, -16(%rbp)
	jne	.LBB43_24
.LBB43_23:                              # %if.then43
	movl	-24(%rbp), %esi
	movl	-20(%rbp), %edx
	movq	-64(%rbp), %rcx
	movw	24(%rbp), %ax
	movl	-52(%rbp), %r10d
	movl	-12(%rbp), %r11d
	movabsq	$ChromaPrediction4x4.bw_pred, %rdi
	movl	$1, %r8d
	movswl	%ax, %r9d
	movl	%r10d, (%rsp)
	movl	%r11d, 8(%rsp)
	callq	OneComponentChromaPrediction4x4
.LBB43_24:                              # %if.end44
	cmpl	$0, -68(%rbp)
	je	.LBB43_56
# %bb.25:                               # %if.then46
	cmpl	$2, -16(%rbp)
	jne	.LBB43_35
# %bb.26:                               # %if.then49
	movl	-20(%rbp), %eax
	movl	%eax, -4(%rbp)
.LBB43_27:                              # %for.cond
                                        # =>This Loop Header: Depth=1
                                        #     Child Loop BB43_29 Depth 2
	movl	-4(%rbp), %eax
	cmpl	-28(%rbp), %eax
	jge	.LBB43_34
# %bb.28:                               # %for.body
                                        #   in Loop: Header=BB43_27 Depth=1
	movl	-24(%rbp), %eax
	movl	%eax, -8(%rbp)
.LBB43_29:                              # %for.cond52
                                        #   Parent Loop BB43_27 Depth=1
                                        # =>  This Inner Loop Header: Depth=2
	movl	-8(%rbp), %eax
	cmpl	-32(%rbp), %eax
	jge	.LBB43_32
# %bb.30:                               # %for.body55
                                        #   in Loop: Header=BB43_29 Depth=2
	movq	wbp_weight, %rax
	movq	(%rax), %rax
	movswq	16(%rbp), %rcx
	movq	(%rax,%rcx,8), %rax
	movswq	24(%rbp), %rcx
	movq	(%rax,%rcx,8), %rax
	movl	-12(%rbp), %ecx
	addl	$1, %ecx
	movslq	%ecx, %rcx
	movl	(%rax,%rcx,4), %edi
	movq	-40(%rbp), %rax
	movq	%rax, %rcx
	addq	$4, %rcx
	movq	%rcx, -40(%rbp)
	imull	(%rax), %edi
	movq	wbp_weight, %rax
	movq	8(%rax), %rax
	movswq	16(%rbp), %rcx
	movq	(%rax,%rcx,8), %rax
	movswq	24(%rbp), %rcx
	movq	(%rax,%rcx,8), %rax
	movl	-12(%rbp), %ecx
	addl	$1, %ecx
	movslq	%ecx, %rcx
	movl	(%rax,%rcx,4), %eax
	movq	-48(%rbp), %rcx
	movq	%rcx, %rdx
	addq	$4, %rdx
	movq	%rdx, -48(%rbp)
	imull	(%rcx), %eax
	addl	%eax, %edi
	movl	wp_chroma_round, %eax
	shll	$1, %eax
	addl	%eax, %edi
	movl	chroma_log_weight_denom, %ecx
	addl	$1, %ecx
                                        # kill: def $cl killed $ecx
	sarl	%cl, %edi
	movq	wp_offset, %rax
	movq	(%rax), %rax
	movswq	16(%rbp), %rcx
	movq	(%rax,%rcx,8), %rax
	movl	-12(%rbp), %ecx
	addl	$1, %ecx
	movslq	%ecx, %rcx
	movl	(%rax,%rcx,4), %eax
	movq	wp_offset, %rcx
	movq	8(%rcx), %rcx
	movswq	24(%rbp), %rdx
	movq	(%rcx,%rdx,8), %rcx
	movl	-12(%rbp), %edx
	addl	$1, %edx
	movslq	%edx, %rdx
	addl	(%rcx,%rdx,4), %eax
	addl	$1, %eax
	sarl	$1, %eax
	addl	%eax, %edi
	callq	clip1a_chr
	movq	img, %rcx
	addq	$12600, %rcx            # imm = 0x3138
	movslq	-8(%rbp), %rdx
	shlq	$5, %rdx
	addq	%rdx, %rcx
	movslq	-4(%rbp), %rdx
	movw	%ax, (%rcx,%rdx,2)
# %bb.31:                               # %for.inc
                                        #   in Loop: Header=BB43_29 Depth=2
	movl	-8(%rbp), %eax
	addl	$1, %eax
	movl	%eax, -8(%rbp)
	jmp	.LBB43_29
.LBB43_32:                              # %for.end
                                        #   in Loop: Header=BB43_27 Depth=1
	jmp	.LBB43_33
.LBB43_33:                              # %for.inc99
                                        #   in Loop: Header=BB43_27 Depth=1
	movl	-4(%rbp), %eax
	addl	$1, %eax
	movl	%eax, -4(%rbp)
	jmp	.LBB43_27
.LBB43_34:                              # %for.end101
	jmp	.LBB43_55
.LBB43_35:                              # %if.else
	cmpl	$0, -16(%rbp)
	jne	.LBB43_45
# %bb.36:                               # %if.then104
	movl	-20(%rbp), %eax
	movl	%eax, -4(%rbp)
.LBB43_37:                              # %for.cond105
                                        # =>This Loop Header: Depth=1
                                        #     Child Loop BB43_39 Depth 2
	movl	-4(%rbp), %eax
	cmpl	-28(%rbp), %eax
	jge	.LBB43_44
# %bb.38:                               # %for.body108
                                        #   in Loop: Header=BB43_37 Depth=1
	movl	-24(%rbp), %eax
	movl	%eax, -8(%rbp)
.LBB43_39:                              # %for.cond109
                                        #   Parent Loop BB43_37 Depth=1
                                        # =>  This Inner Loop Header: Depth=2
	movl	-8(%rbp), %eax
	cmpl	-32(%rbp), %eax
	jge	.LBB43_42
# %bb.40:                               # %for.body112
                                        #   in Loop: Header=BB43_39 Depth=2
	movq	wp_weight, %rax
	movq	(%rax), %rax
	movswq	16(%rbp), %rcx
	movq	(%rax,%rcx,8), %rax
	movl	-12(%rbp), %ecx
	addl	$1, %ecx
	movslq	%ecx, %rcx
	movl	(%rax,%rcx,4), %edi
	movq	-40(%rbp), %rax
	movq	%rax, %rcx
	addq	$4, %rcx
	movq	%rcx, -40(%rbp)
	imull	(%rax), %edi
	addl	wp_chroma_round, %edi
	movl	chroma_log_weight_denom, %ecx
                                        # kill: def $cl killed $ecx
	sarl	%cl, %edi
	movq	wp_offset, %rax
	movq	(%rax), %rax
	movswq	16(%rbp), %rcx
	movq	(%rax,%rcx,8), %rax
	movl	-12(%rbp), %ecx
	addl	$1, %ecx
	movslq	%ecx, %rcx
	addl	(%rax,%rcx,4), %edi
	callq	clip1a_chr
	movq	img, %rcx
	addq	$12600, %rcx            # imm = 0x3138
	movslq	-8(%rbp), %rdx
	shlq	$5, %rdx
	addq	%rdx, %rcx
	movslq	-4(%rbp), %rdx
	movw	%ax, (%rcx,%rdx,2)
# %bb.41:                               # %for.inc137
                                        #   in Loop: Header=BB43_39 Depth=2
	movl	-8(%rbp), %eax
	addl	$1, %eax
	movl	%eax, -8(%rbp)
	jmp	.LBB43_39
.LBB43_42:                              # %for.end139
                                        #   in Loop: Header=BB43_37 Depth=1
	jmp	.LBB43_43
.LBB43_43:                              # %for.inc140
                                        #   in Loop: Header=BB43_37 Depth=1
	movl	-4(%rbp), %eax
	addl	$1, %eax
	movl	%eax, -4(%rbp)
	jmp	.LBB43_37
.LBB43_44:                              # %for.end142
	jmp	.LBB43_54
.LBB43_45:                              # %if.else143
	movl	-20(%rbp), %eax
	movl	%eax, -4(%rbp)
.LBB43_46:                              # %for.cond144
                                        # =>This Loop Header: Depth=1
                                        #     Child Loop BB43_48 Depth 2
	movl	-4(%rbp), %eax
	cmpl	-28(%rbp), %eax
	jge	.LBB43_53
# %bb.47:                               # %for.body147
                                        #   in Loop: Header=BB43_46 Depth=1
	movl	-24(%rbp), %eax
	movl	%eax, -8(%rbp)
.LBB43_48:                              # %for.cond148
                                        #   Parent Loop BB43_46 Depth=1
                                        # =>  This Inner Loop Header: Depth=2
	movl	-8(%rbp), %eax
	cmpl	-32(%rbp), %eax
	jge	.LBB43_51
# %bb.49:                               # %for.body151
                                        #   in Loop: Header=BB43_48 Depth=2
	movq	wp_weight, %rax
	movq	8(%rax), %rax
	movswq	24(%rbp), %rcx
	movq	(%rax,%rcx,8), %rax
	movl	-12(%rbp), %ecx
	addl	$1, %ecx
	movslq	%ecx, %rcx
	movl	(%rax,%rcx,4), %edi
	movq	-48(%rbp), %rax
	movq	%rax, %rcx
	addq	$4, %rcx
	movq	%rcx, -48(%rbp)
	imull	(%rax), %edi
	addl	wp_chroma_round, %edi
	movl	chroma_log_weight_denom, %ecx
                                        # kill: def $cl killed $ecx
	sarl	%cl, %edi
	movq	wp_offset, %rax
	movq	8(%rax), %rax
	movswq	24(%rbp), %rcx
	movq	(%rax,%rcx,8), %rax
	movl	-12(%rbp), %ecx
	addl	$1, %ecx
	movslq	%ecx, %rcx
	addl	(%rax,%rcx,4), %edi
	callq	clip1a_chr
	movq	img, %rcx
	addq	$12600, %rcx            # imm = 0x3138
	movslq	-8(%rbp), %rdx
	shlq	$5, %rdx
	addq	%rdx, %rcx
	movslq	-4(%rbp), %rdx
	movw	%ax, (%rcx,%rdx,2)
# %bb.50:                               # %for.inc176
                                        #   in Loop: Header=BB43_48 Depth=2
	movl	-8(%rbp), %eax
	addl	$1, %eax
	movl	%eax, -8(%rbp)
	jmp	.LBB43_48
.LBB43_51:                              # %for.end178
                                        #   in Loop: Header=BB43_46 Depth=1
	jmp	.LBB43_52
.LBB43_52:                              # %for.inc179
                                        #   in Loop: Header=BB43_46 Depth=1
	movl	-4(%rbp), %eax
	addl	$1, %eax
	movl	%eax, -4(%rbp)
	jmp	.LBB43_46
.LBB43_53:                              # %for.end181
	jmp	.LBB43_54
.LBB43_54:                              # %if.end182
	jmp	.LBB43_55
.LBB43_55:                              # %if.end183
	jmp	.LBB43_87
.LBB43_56:                              # %if.else184
	cmpl	$2, -16(%rbp)
	jne	.LBB43_66
# %bb.57:                               # %if.then187
	movl	-20(%rbp), %eax
	movl	%eax, -4(%rbp)
.LBB43_58:                              # %for.cond188
                                        # =>This Loop Header: Depth=1
                                        #     Child Loop BB43_60 Depth 2
	movl	-4(%rbp), %eax
	cmpl	-28(%rbp), %eax
	jge	.LBB43_65
# %bb.59:                               # %for.body191
                                        #   in Loop: Header=BB43_58 Depth=1
	movl	-24(%rbp), %eax
	movl	%eax, -8(%rbp)
.LBB43_60:                              # %for.cond192
                                        #   Parent Loop BB43_58 Depth=1
                                        # =>  This Inner Loop Header: Depth=2
	movl	-8(%rbp), %eax
	cmpl	-32(%rbp), %eax
	jge	.LBB43_63
# %bb.61:                               # %for.body195
                                        #   in Loop: Header=BB43_60 Depth=2
	movq	-40(%rbp), %rax
	movq	%rax, %rcx
	addq	$4, %rcx
	movq	%rcx, -40(%rbp)
	movl	(%rax), %eax
	movq	-48(%rbp), %rcx
	movq	%rcx, %rdx
	addq	$4, %rdx
	movq	%rdx, -48(%rbp)
	addl	(%rcx), %eax
	addl	$1, %eax
	cltd
	movl	$2, %ecx
	idivl	%ecx
	movq	img, %rcx
	addq	$12600, %rcx            # imm = 0x3138
	movslq	-8(%rbp), %rdx
	shlq	$5, %rdx
	addq	%rdx, %rcx
	movslq	-4(%rbp), %rdx
	movw	%ax, (%rcx,%rdx,2)
# %bb.62:                               # %for.inc206
                                        #   in Loop: Header=BB43_60 Depth=2
	movl	-8(%rbp), %eax
	addl	$1, %eax
	movl	%eax, -8(%rbp)
	jmp	.LBB43_60
.LBB43_63:                              # %for.end208
                                        #   in Loop: Header=BB43_58 Depth=1
	jmp	.LBB43_64
.LBB43_64:                              # %for.inc209
                                        #   in Loop: Header=BB43_58 Depth=1
	movl	-4(%rbp), %eax
	addl	$1, %eax
	movl	%eax, -4(%rbp)
	jmp	.LBB43_58
.LBB43_65:                              # %for.end211
	jmp	.LBB43_86
.LBB43_66:                              # %if.else212
	cmpl	$0, -16(%rbp)
	jne	.LBB43_76
# %bb.67:                               # %if.then215
	movl	-20(%rbp), %eax
	movl	%eax, -4(%rbp)
.LBB43_68:                              # %for.cond216
                                        # =>This Loop Header: Depth=1
                                        #     Child Loop BB43_70 Depth 2
	movl	-4(%rbp), %eax
	cmpl	-28(%rbp), %eax
	jge	.LBB43_75
# %bb.69:                               # %for.body219
                                        #   in Loop: Header=BB43_68 Depth=1
	movl	-24(%rbp), %eax
	movl	%eax, -8(%rbp)
.LBB43_70:                              # %for.cond220
                                        #   Parent Loop BB43_68 Depth=1
                                        # =>  This Inner Loop Header: Depth=2
	movl	-8(%rbp), %eax
	cmpl	-32(%rbp), %eax
	jge	.LBB43_73
# %bb.71:                               # %for.body223
                                        #   in Loop: Header=BB43_70 Depth=2
	movq	-40(%rbp), %rax
	movq	%rax, %rcx
	addq	$4, %rcx
	movq	%rcx, -40(%rbp)
	movl	(%rax), %eax
	movq	img, %rcx
	addq	$12600, %rcx            # imm = 0x3138
	movslq	-8(%rbp), %rdx
	shlq	$5, %rdx
	addq	%rdx, %rcx
	movslq	-4(%rbp), %rdx
	movw	%ax, (%rcx,%rdx,2)
# %bb.72:                               # %for.inc231
                                        #   in Loop: Header=BB43_70 Depth=2
	movl	-8(%rbp), %eax
	addl	$1, %eax
	movl	%eax, -8(%rbp)
	jmp	.LBB43_70
.LBB43_73:                              # %for.end233
                                        #   in Loop: Header=BB43_68 Depth=1
	jmp	.LBB43_74
.LBB43_74:                              # %for.inc234
                                        #   in Loop: Header=BB43_68 Depth=1
	movl	-4(%rbp), %eax
	addl	$1, %eax
	movl	%eax, -4(%rbp)
	jmp	.LBB43_68
.LBB43_75:                              # %for.end236
	jmp	.LBB43_85
.LBB43_76:                              # %if.else237
	movl	-20(%rbp), %eax
	movl	%eax, -4(%rbp)
.LBB43_77:                              # %for.cond238
                                        # =>This Loop Header: Depth=1
                                        #     Child Loop BB43_79 Depth 2
	movl	-4(%rbp), %eax
	cmpl	-28(%rbp), %eax
	jge	.LBB43_84
# %bb.78:                               # %for.body241
                                        #   in Loop: Header=BB43_77 Depth=1
	movl	-24(%rbp), %eax
	movl	%eax, -8(%rbp)
.LBB43_79:                              # %for.cond242
                                        #   Parent Loop BB43_77 Depth=1
                                        # =>  This Inner Loop Header: Depth=2
	movl	-8(%rbp), %eax
	cmpl	-32(%rbp), %eax
	jge	.LBB43_82
# %bb.80:                               # %for.body245
                                        #   in Loop: Header=BB43_79 Depth=2
	movq	-48(%rbp), %rax
	movq	%rax, %rcx
	addq	$4, %rcx
	movq	%rcx, -48(%rbp)
	movl	(%rax), %eax
	movq	img, %rcx
	addq	$12600, %rcx            # imm = 0x3138
	movslq	-8(%rbp), %rdx
	shlq	$5, %rdx
	addq	%rdx, %rcx
	movslq	-4(%rbp), %rdx
	movw	%ax, (%rcx,%rdx,2)
# %bb.81:                               # %for.inc253
                                        #   in Loop: Header=BB43_79 Depth=2
	movl	-8(%rbp), %eax
	addl	$1, %eax
	movl	%eax, -8(%rbp)
	jmp	.LBB43_79
.LBB43_82:                              # %for.end255
                                        #   in Loop: Header=BB43_77 Depth=1
	jmp	.LBB43_83
.LBB43_83:                              # %for.inc256
                                        #   in Loop: Header=BB43_77 Depth=1
	movl	-4(%rbp), %eax
	addl	$1, %eax
	movl	%eax, -4(%rbp)
	jmp	.LBB43_77
.LBB43_84:                              # %for.end258
	jmp	.LBB43_85
.LBB43_85:                              # %if.end259
	jmp	.LBB43_86
.LBB43_86:                              # %if.end260
	jmp	.LBB43_87
.LBB43_87:                              # %if.end261
	cmpl	$1035993195, -72(%rbp)  # imm = 0x3DC0006B
	jne	.LBB43_89
.LBB43_88:
	addq	$96, %rsp
	popq	%rbp
	.cfi_def_cfa %rsp, 8
	retq
.LBB43_89:                              # %func_exit
	.cfi_def_cfa %rbp, 16
	callq	detect_breach
	jmp	.LBB43_88
.Lfunc_end43:
	.size	ChromaPrediction4x4.2, .Lfunc_end43-ChromaPrediction4x4.2
	.cfi_endproc
                                        # -- End function
	.globl	LumaPrediction4x4.3     # -- Begin function LumaPrediction4x4.3
	.p2align	4, 0x90
	.type	LumaPrediction4x4.3,@function
LumaPrediction4x4.3:                    # @LumaPrediction4x4.3
	.cfi_startproc
# %bb.0:                                # %entry
	pushq	%rbp
	.cfi_def_cfa_offset 16
	.cfi_offset %rbp, -16
	movq	%rsp, %rbp
	.cfi_def_cfa_register %rbp
	subq	$112, %rsp
	movw	16(%rbp), %ax
	movl	$900971954, -100(%rbp)  # imm = 0x35B3BDB2
	movl	%edi, -20(%rbp)
	movl	%esi, -24(%rbp)
	movl	%edx, -16(%rbp)
	movl	%ecx, -68(%rbp)
	movl	%r8d, -56(%rbp)
	movw	%r9w, -10(%rbp)
	movl	-20(%rbp), %eax
	addl	$4, %eax
	movl	%eax, -28(%rbp)
	movl	-24(%rbp), %eax
	addl	$4, %eax
	movl	%eax, -32(%rbp)
	movq	img, %rax
	movl	168(%rax), %eax
	addl	-20(%rbp), %eax
	movl	%eax, -76(%rbp)
	movq	img, %rax
	movl	172(%rax), %eax
	addl	-24(%rbp), %eax
	movl	%eax, -64(%rbp)
	movl	-20(%rbp), %eax
	sarl	$2, %eax
	movl	%eax, -72(%rbp)
	movl	-24(%rbp), %eax
	sarl	$2, %eax
	movl	%eax, -52(%rbp)
	movabsq	$LumaPrediction4x4.fw_pred, %rax
	movq	%rax, -48(%rbp)
	movabsq	$LumaPrediction4x4.bw_pred, %rax
	movq	%rax, -40(%rbp)
	movq	img, %rax
	movq	14168(%rax), %rax
	movq	img, %rcx
	movslq	12(%rcx), %rcx
	imulq	$632, %rcx, %rcx        # imm = 0x278
	addq	%rcx, %rax
	movq	%rax, -96(%rbp)
	movq	active_pps, %rax
	cmpl	$0, 192(%rax)
	je	.LBB44_3
# %bb.1:                                # %land.lhs.true
	movq	img, %rax
	cmpl	$0, 24(%rax)
	movb	$1, %al
	je	.LBB44_6
# %bb.2:                                # %lor.lhs.false
	movq	img, %rax
	cmpl	$3, 24(%rax)
	movb	$1, %al
	je	.LBB44_6
.LBB44_3:                               # %lor.rhs
	xorl	%eax, %eax
	movq	active_pps, %rcx
	cmpl	$0, 196(%rcx)
	je	.LBB44_5
# %bb.4:                                # %land.rhs
	movq	img, %rax
	cmpl	$1, 24(%rax)
	sete	%al
.LBB44_5:                               # %land.end
.LBB44_6:                               # %lor.end
	andb	$1, %al
	movzbl	%al, %eax
	movl	%eax, -104(%rbp)
	movq	img, %rax
	movq	71928(%rax), %rax
	movq	%rax, -88(%rbp)
	movq	img, %rax
	cmpl	$0, 72400(%rax)
	je	.LBB44_9
# %bb.7:                                # %land.lhs.true11
	movq	-96(%rbp), %rax
	cmpl	$0, 532(%rax)
	je	.LBB44_9
# %bb.8:                                # %cond.true
	movq	img, %rax
	movl	12(%rax), %eax
	cltd
	movl	$2, %ecx
	idivl	%ecx
	cmpl	$0, %edx
	movl	$4, %eax
	cmovnel	%eax, %ecx
	jmp	.LBB44_10
.LBB44_9:                               # %cond.false
	xorl	%ecx, %ecx
	jmp	.LBB44_10
.LBB44_10:                              # %cond.end
	movl	%ecx, -60(%rbp)
	movq	-96(%rbp), %rax
	cmpl	$0, 580(%rax)
	je	.LBB44_20
# %bb.11:                               # %land.lhs.true17
	movswl	-10(%rbp), %eax
	cmpl	$0, %eax
	jne	.LBB44_20
# %bb.12:                               # %land.lhs.true20
	movswl	16(%rbp), %eax
	cmpl	$0, %eax
	jne	.LBB44_20
# %bb.13:                               # %land.lhs.true24
	cmpl	$2, -16(%rbp)
	jne	.LBB44_20
# %bb.14:                               # %land.lhs.true27
	cmpl	$1, -68(%rbp)
	jne	.LBB44_20
# %bb.15:                               # %land.lhs.true30
	cmpl	$1, -56(%rbp)
	jne	.LBB44_20
# %bb.16:                               # %if.then
	movq	-96(%rbp), %rax
	cmpl	$1, 580(%rax)
	jne	.LBB44_18
# %bb.17:                               # %cond.true36
	movq	img, %rax
	movq	71936(%rax), %rax
	jmp	.LBB44_19
.LBB44_18:                              # %cond.false37
	movq	img, %rax
	movq	71944(%rax), %rax
.LBB44_19:                              # %cond.end38
	movq	%rax, -88(%rbp)
.LBB44_20:                              # %if.end
	cmpl	$0, -16(%rbp)
	je	.LBB44_22
# %bb.21:                               # %lor.lhs.false42
	cmpl	$2, -16(%rbp)
	jne	.LBB44_23
.LBB44_22:                              # %if.then45
	movl	-76(%rbp), %esi
	movl	-64(%rbp), %edx
	movq	-88(%rbp), %rax
	movslq	-72(%rbp), %rcx
	movq	(%rax,%rcx,8), %rax
	movslq	-52(%rbp), %rcx
	movq	(%rax,%rcx,8), %rax
	movq	(%rax), %rax
	movswq	-10(%rbp), %rcx
	movq	(%rax,%rcx,8), %rax
	movslq	-68(%rbp), %rcx
	movq	(%rax,%rcx,8), %rcx
	movw	-10(%rbp), %ax
	movl	-60(%rbp), %edi
	addl	$0, %edi
	movslq	%edi, %rdi
	movq	listX(,%rdi,8), %r9
	movabsq	$LumaPrediction4x4.fw_pred, %rdi
	movswl	%ax, %r8d
	callq	OneComponentLumaPrediction4x4
.LBB44_23:                              # %if.end58
	cmpl	$1, -16(%rbp)
	je	.LBB44_25
# %bb.24:                               # %lor.lhs.false61
	cmpl	$2, -16(%rbp)
	jne	.LBB44_26
.LBB44_25:                              # %if.then64
	movl	-76(%rbp), %esi
	movl	-64(%rbp), %edx
	movq	-88(%rbp), %rax
	movslq	-72(%rbp), %rcx
	movq	(%rax,%rcx,8), %rax
	movslq	-52(%rbp), %rcx
	movq	(%rax,%rcx,8), %rax
	movq	8(%rax), %rax
	movswq	16(%rbp), %rcx
	movq	(%rax,%rcx,8), %rax
	movslq	-56(%rbp), %rcx
	movq	(%rax,%rcx,8), %rcx
	movw	16(%rbp), %ax
	movl	-60(%rbp), %edi
	addl	$1, %edi
	movslq	%edi, %rdi
	movq	listX(,%rdi,8), %r9
	movabsq	$LumaPrediction4x4.bw_pred, %rdi
	movswl	%ax, %r8d
	callq	OneComponentLumaPrediction4x4
.LBB44_26:                              # %if.end77
	cmpl	$0, -104(%rbp)
	je	.LBB44_58
# %bb.27:                               # %if.then79
	cmpl	$2, -16(%rbp)
	jne	.LBB44_37
# %bb.28:                               # %if.then82
	movl	-24(%rbp), %eax
	movl	%eax, -8(%rbp)
.LBB44_29:                              # %for.cond
                                        # =>This Loop Header: Depth=1
                                        #     Child Loop BB44_31 Depth 2
	movl	-8(%rbp), %eax
	cmpl	-32(%rbp), %eax
	jge	.LBB44_36
# %bb.30:                               # %for.body
                                        #   in Loop: Header=BB44_29 Depth=1
	movl	-20(%rbp), %eax
	movl	%eax, -4(%rbp)
.LBB44_31:                              # %for.cond85
                                        #   Parent Loop BB44_29 Depth=1
                                        # =>  This Inner Loop Header: Depth=2
	movl	-4(%rbp), %eax
	cmpl	-28(%rbp), %eax
	jge	.LBB44_34
# %bb.32:                               # %for.body88
                                        #   in Loop: Header=BB44_31 Depth=2
	movq	wbp_weight, %rax
	movq	(%rax), %rax
	movswq	-10(%rbp), %rcx
	movq	(%rax,%rcx,8), %rax
	movswq	16(%rbp), %rcx
	movq	(%rax,%rcx,8), %rax
	movl	(%rax), %edi
	movq	-48(%rbp), %rax
	movq	%rax, %rcx
	addq	$4, %rcx
	movq	%rcx, -48(%rbp)
	imull	(%rax), %edi
	movq	wbp_weight, %rax
	movq	8(%rax), %rax
	movswq	-10(%rbp), %rcx
	movq	(%rax,%rcx,8), %rax
	movswq	16(%rbp), %rcx
	movq	(%rax,%rcx,8), %rax
	movl	(%rax), %eax
	movq	-40(%rbp), %rcx
	movq	%rcx, %rdx
	addq	$4, %rdx
	movq	%rdx, -40(%rbp)
	imull	(%rcx), %eax
	addl	%eax, %edi
	movl	wp_luma_round, %eax
	shll	$1, %eax
	addl	%eax, %edi
	movl	luma_log_weight_denom, %ecx
	addl	$1, %ecx
                                        # kill: def $cl killed $ecx
	sarl	%cl, %edi
	movq	wp_offset, %rax
	movq	(%rax), %rax
	movswq	-10(%rbp), %rcx
	movq	(%rax,%rcx,8), %rax
	movl	(%rax), %eax
	movq	wp_offset, %rcx
	movq	8(%rcx), %rcx
	movswq	16(%rbp), %rdx
	movq	(%rcx,%rdx,8), %rcx
	addl	(%rcx), %eax
	addl	$1, %eax
	sarl	$1, %eax
	addl	%eax, %edi
	callq	clip1a
	movq	img, %rcx
	addq	$12600, %rcx            # imm = 0x3138
	movslq	-4(%rbp), %rdx
	shlq	$5, %rdx
	addq	%rdx, %rcx
	movslq	-8(%rbp), %rdx
	movw	%ax, (%rcx,%rdx,2)
# %bb.33:                               # %for.inc
                                        #   in Loop: Header=BB44_31 Depth=2
	movl	-4(%rbp), %eax
	addl	$1, %eax
	movl	%eax, -4(%rbp)
	jmp	.LBB44_31
.LBB44_34:                              # %for.end
                                        #   in Loop: Header=BB44_29 Depth=1
	jmp	.LBB44_35
.LBB44_35:                              # %for.inc125
                                        #   in Loop: Header=BB44_29 Depth=1
	movl	-8(%rbp), %eax
	addl	$1, %eax
	movl	%eax, -8(%rbp)
	jmp	.LBB44_29
.LBB44_36:                              # %for.end127
	jmp	.LBB44_57
.LBB44_37:                              # %if.else
	cmpl	$0, -16(%rbp)
	jne	.LBB44_47
# %bb.38:                               # %if.then130
	movl	-24(%rbp), %eax
	movl	%eax, -8(%rbp)
.LBB44_39:                              # %for.cond131
                                        # =>This Loop Header: Depth=1
                                        #     Child Loop BB44_41 Depth 2
	movl	-8(%rbp), %eax
	cmpl	-32(%rbp), %eax
	jge	.LBB44_46
# %bb.40:                               # %for.body134
                                        #   in Loop: Header=BB44_39 Depth=1
	movl	-20(%rbp), %eax
	movl	%eax, -4(%rbp)
.LBB44_41:                              # %for.cond135
                                        #   Parent Loop BB44_39 Depth=1
                                        # =>  This Inner Loop Header: Depth=2
	movl	-4(%rbp), %eax
	cmpl	-28(%rbp), %eax
	jge	.LBB44_44
# %bb.42:                               # %for.body138
                                        #   in Loop: Header=BB44_41 Depth=2
	movq	wp_weight, %rax
	movq	(%rax), %rax
	movswq	-10(%rbp), %rcx
	movq	(%rax,%rcx,8), %rax
	movl	(%rax), %edi
	movq	-48(%rbp), %rax
	movq	%rax, %rcx
	addq	$4, %rcx
	movq	%rcx, -48(%rbp)
	imull	(%rax), %edi
	addl	wp_luma_round, %edi
	movl	luma_log_weight_denom, %ecx
                                        # kill: def $cl killed $ecx
	sarl	%cl, %edi
	movq	wp_offset, %rax
	movq	(%rax), %rax
	movswq	-10(%rbp), %rcx
	movq	(%rax,%rcx,8), %rax
	addl	(%rax), %edi
	callq	clip1a
	movq	img, %rcx
	addq	$12600, %rcx            # imm = 0x3138
	movslq	-4(%rbp), %rdx
	shlq	$5, %rdx
	addq	%rdx, %rcx
	movslq	-8(%rbp), %rdx
	movw	%ax, (%rcx,%rdx,2)
# %bb.43:                               # %for.inc159
                                        #   in Loop: Header=BB44_41 Depth=2
	movl	-4(%rbp), %eax
	addl	$1, %eax
	movl	%eax, -4(%rbp)
	jmp	.LBB44_41
.LBB44_44:                              # %for.end161
                                        #   in Loop: Header=BB44_39 Depth=1
	jmp	.LBB44_45
.LBB44_45:                              # %for.inc162
                                        #   in Loop: Header=BB44_39 Depth=1
	movl	-8(%rbp), %eax
	addl	$1, %eax
	movl	%eax, -8(%rbp)
	jmp	.LBB44_39
.LBB44_46:                              # %for.end164
	jmp	.LBB44_56
.LBB44_47:                              # %if.else165
	movl	-24(%rbp), %eax
	movl	%eax, -8(%rbp)
.LBB44_48:                              # %for.cond166
                                        # =>This Loop Header: Depth=1
                                        #     Child Loop BB44_50 Depth 2
	movl	-8(%rbp), %eax
	cmpl	-32(%rbp), %eax
	jge	.LBB44_55
# %bb.49:                               # %for.body169
                                        #   in Loop: Header=BB44_48 Depth=1
	movl	-20(%rbp), %eax
	movl	%eax, -4(%rbp)
.LBB44_50:                              # %for.cond170
                                        #   Parent Loop BB44_48 Depth=1
                                        # =>  This Inner Loop Header: Depth=2
	movl	-4(%rbp), %eax
	cmpl	-28(%rbp), %eax
	jge	.LBB44_53
# %bb.51:                               # %for.body173
                                        #   in Loop: Header=BB44_50 Depth=2
	movq	wp_weight, %rax
	movq	8(%rax), %rax
	movswq	16(%rbp), %rcx
	movq	(%rax,%rcx,8), %rax
	movl	(%rax), %edi
	movq	-40(%rbp), %rax
	movq	%rax, %rcx
	addq	$4, %rcx
	movq	%rcx, -40(%rbp)
	imull	(%rax), %edi
	addl	wp_luma_round, %edi
	movl	luma_log_weight_denom, %ecx
                                        # kill: def $cl killed $ecx
	sarl	%cl, %edi
	movq	wp_offset, %rax
	movq	8(%rax), %rax
	movswq	16(%rbp), %rcx
	movq	(%rax,%rcx,8), %rax
	addl	(%rax), %edi
	callq	clip1a
	movq	img, %rcx
	addq	$12600, %rcx            # imm = 0x3138
	movslq	-4(%rbp), %rdx
	shlq	$5, %rdx
	addq	%rdx, %rcx
	movslq	-8(%rbp), %rdx
	movw	%ax, (%rcx,%rdx,2)
# %bb.52:                               # %for.inc194
                                        #   in Loop: Header=BB44_50 Depth=2
	movl	-4(%rbp), %eax
	addl	$1, %eax
	movl	%eax, -4(%rbp)
	jmp	.LBB44_50
.LBB44_53:                              # %for.end196
                                        #   in Loop: Header=BB44_48 Depth=1
	jmp	.LBB44_54
.LBB44_54:                              # %for.inc197
                                        #   in Loop: Header=BB44_48 Depth=1
	movl	-8(%rbp), %eax
	addl	$1, %eax
	movl	%eax, -8(%rbp)
	jmp	.LBB44_48
.LBB44_55:                              # %for.end199
	jmp	.LBB44_56
.LBB44_56:                              # %if.end200
	jmp	.LBB44_57
.LBB44_57:                              # %if.end201
	jmp	.LBB44_89
.LBB44_58:                              # %if.else202
	cmpl	$2, -16(%rbp)
	jne	.LBB44_68
# %bb.59:                               # %if.then205
	movl	-24(%rbp), %eax
	movl	%eax, -8(%rbp)
.LBB44_60:                              # %for.cond206
                                        # =>This Loop Header: Depth=1
                                        #     Child Loop BB44_62 Depth 2
	movl	-8(%rbp), %eax
	cmpl	-32(%rbp), %eax
	jge	.LBB44_67
# %bb.61:                               # %for.body209
                                        #   in Loop: Header=BB44_60 Depth=1
	movl	-20(%rbp), %eax
	movl	%eax, -4(%rbp)
.LBB44_62:                              # %for.cond210
                                        #   Parent Loop BB44_60 Depth=1
                                        # =>  This Inner Loop Header: Depth=2
	movl	-4(%rbp), %eax
	cmpl	-28(%rbp), %eax
	jge	.LBB44_65
# %bb.63:                               # %for.body213
                                        #   in Loop: Header=BB44_62 Depth=2
	movq	-48(%rbp), %rax
	movq	%rax, %rcx
	addq	$4, %rcx
	movq	%rcx, -48(%rbp)
	movl	(%rax), %eax
	movq	-40(%rbp), %rcx
	movq	%rcx, %rdx
	addq	$4, %rdx
	movq	%rdx, -40(%rbp)
	addl	(%rcx), %eax
	addl	$1, %eax
	cltd
	movl	$2, %ecx
	idivl	%ecx
	movq	img, %rcx
	addq	$12600, %rcx            # imm = 0x3138
	movslq	-4(%rbp), %rdx
	shlq	$5, %rdx
	addq	%rdx, %rcx
	movslq	-8(%rbp), %rdx
	movw	%ax, (%rcx,%rdx,2)
# %bb.64:                               # %for.inc224
                                        #   in Loop: Header=BB44_62 Depth=2
	movl	-4(%rbp), %eax
	addl	$1, %eax
	movl	%eax, -4(%rbp)
	jmp	.LBB44_62
.LBB44_65:                              # %for.end226
                                        #   in Loop: Header=BB44_60 Depth=1
	jmp	.LBB44_66
.LBB44_66:                              # %for.inc227
                                        #   in Loop: Header=BB44_60 Depth=1
	movl	-8(%rbp), %eax
	addl	$1, %eax
	movl	%eax, -8(%rbp)
	jmp	.LBB44_60
.LBB44_67:                              # %for.end229
	jmp	.LBB44_88
.LBB44_68:                              # %if.else230
	cmpl	$0, -16(%rbp)
	jne	.LBB44_78
# %bb.69:                               # %if.then233
	movl	-24(%rbp), %eax
	movl	%eax, -8(%rbp)
.LBB44_70:                              # %for.cond234
                                        # =>This Loop Header: Depth=1
                                        #     Child Loop BB44_72 Depth 2
	movl	-8(%rbp), %eax
	cmpl	-32(%rbp), %eax
	jge	.LBB44_77
# %bb.71:                               # %for.body237
                                        #   in Loop: Header=BB44_70 Depth=1
	movl	-20(%rbp), %eax
	movl	%eax, -4(%rbp)
.LBB44_72:                              # %for.cond238
                                        #   Parent Loop BB44_70 Depth=1
                                        # =>  This Inner Loop Header: Depth=2
	movl	-4(%rbp), %eax
	cmpl	-28(%rbp), %eax
	jge	.LBB44_75
# %bb.73:                               # %for.body241
                                        #   in Loop: Header=BB44_72 Depth=2
	movq	-48(%rbp), %rax
	movq	%rax, %rcx
	addq	$4, %rcx
	movq	%rcx, -48(%rbp)
	movl	(%rax), %eax
	movq	img, %rcx
	addq	$12600, %rcx            # imm = 0x3138
	movslq	-4(%rbp), %rdx
	shlq	$5, %rdx
	addq	%rdx, %rcx
	movslq	-8(%rbp), %rdx
	movw	%ax, (%rcx,%rdx,2)
# %bb.74:                               # %for.inc249
                                        #   in Loop: Header=BB44_72 Depth=2
	movl	-4(%rbp), %eax
	addl	$1, %eax
	movl	%eax, -4(%rbp)
	jmp	.LBB44_72
.LBB44_75:                              # %for.end251
                                        #   in Loop: Header=BB44_70 Depth=1
	jmp	.LBB44_76
.LBB44_76:                              # %for.inc252
                                        #   in Loop: Header=BB44_70 Depth=1
	movl	-8(%rbp), %eax
	addl	$1, %eax
	movl	%eax, -8(%rbp)
	jmp	.LBB44_70
.LBB44_77:                              # %for.end254
	jmp	.LBB44_87
.LBB44_78:                              # %if.else255
	movl	-24(%rbp), %eax
	movl	%eax, -8(%rbp)
.LBB44_79:                              # %for.cond256
                                        # =>This Loop Header: Depth=1
                                        #     Child Loop BB44_81 Depth 2
	movl	-8(%rbp), %eax
	cmpl	-32(%rbp), %eax
	jge	.LBB44_86
# %bb.80:                               # %for.body259
                                        #   in Loop: Header=BB44_79 Depth=1
	movl	-20(%rbp), %eax
	movl	%eax, -4(%rbp)
.LBB44_81:                              # %for.cond260
                                        #   Parent Loop BB44_79 Depth=1
                                        # =>  This Inner Loop Header: Depth=2
	movl	-4(%rbp), %eax
	cmpl	-28(%rbp), %eax
	jge	.LBB44_84
# %bb.82:                               # %for.body263
                                        #   in Loop: Header=BB44_81 Depth=2
	movq	-40(%rbp), %rax
	movq	%rax, %rcx
	addq	$4, %rcx
	movq	%rcx, -40(%rbp)
	movl	(%rax), %eax
	movq	img, %rcx
	addq	$12600, %rcx            # imm = 0x3138
	movslq	-4(%rbp), %rdx
	shlq	$5, %rdx
	addq	%rdx, %rcx
	movslq	-8(%rbp), %rdx
	movw	%ax, (%rcx,%rdx,2)
# %bb.83:                               # %for.inc271
                                        #   in Loop: Header=BB44_81 Depth=2
	movl	-4(%rbp), %eax
	addl	$1, %eax
	movl	%eax, -4(%rbp)
	jmp	.LBB44_81
.LBB44_84:                              # %for.end273
                                        #   in Loop: Header=BB44_79 Depth=1
	jmp	.LBB44_85
.LBB44_85:                              # %for.inc274
                                        #   in Loop: Header=BB44_79 Depth=1
	movl	-8(%rbp), %eax
	addl	$1, %eax
	movl	%eax, -8(%rbp)
	jmp	.LBB44_79
.LBB44_86:                              # %for.end276
	jmp	.LBB44_87
.LBB44_87:                              # %if.end277
	jmp	.LBB44_88
.LBB44_88:                              # %if.end278
	jmp	.LBB44_89
.LBB44_89:                              # %if.end279
	cmpl	$900971954, -100(%rbp)  # imm = 0x35B3BDB2
	jne	.LBB44_91
.LBB44_90:
	addq	$112, %rsp
	popq	%rbp
	.cfi_def_cfa %rsp, 8
	retq
.LBB44_91:                              # %func_exit
	.cfi_def_cfa %rbp, 16
	callq	detect_breach
	jmp	.LBB44_90
.Lfunc_end44:
	.size	LumaPrediction4x4.3, .Lfunc_end44-LumaPrediction4x4.3
	.cfi_endproc
                                        # -- End function
	.globl	slice_too_big.4         # -- Begin function slice_too_big.4
	.p2align	4, 0x90
	.type	slice_too_big.4,@function
slice_too_big.4:                        # @slice_too_big.4
	.cfi_startproc
# %bb.0:                                # %entry
	pushq	%rbp
	.cfi_def_cfa_offset 16
	.cfi_offset %rbp, -16
	movq	%rsp, %rbp
	.cfi_def_cfa_register %rbp
	pushq	%rbx
	subq	$56, %rsp
	.cfi_offset %rbx, -24
	movl	$35245625, -52(%rbp)    # imm = 0x219CE39
	movl	%edi, -56(%rbp)
	movq	img, %rax
	movq	14160(%rax), %rax
	movq	%rax, -32(%rbp)
	movq	input, %rax
	cmpl	$0, 2356(%rax)
	jne	.LBB45_12
# %bb.1:                                # %if.then
	movl	$0, -12(%rbp)
.LBB45_2:                               # %for.cond
                                        # =>This Inner Loop Header: Depth=1
	movl	-12(%rbp), %eax
	movq	-32(%rbp), %rcx
	cmpl	16(%rcx), %eax
	jge	.LBB45_11
# %bb.3:                                # %for.body
                                        #   in Loop: Header=BB45_2 Depth=1
	movq	-32(%rbp), %rax
	movq	24(%rax), %rax
	movslq	-12(%rbp), %rcx
	imulq	$120, %rcx, %rcx
	addq	%rcx, %rax
	movq	%rax, -40(%rbp)
	movq	-40(%rbp), %rax
	movq	(%rax), %rax
	movq	%rax, -48(%rbp)
	movq	-48(%rbp), %rax
	movl	(%rax), %eax
	movl	%eax, -16(%rbp)
	movq	-48(%rbp), %rax
	cmpl	$8, 4(%rax)
	jge	.LBB45_5
# %bb.4:                                # %if.then3
                                        #   in Loop: Header=BB45_2 Depth=1
	movl	-16(%rbp), %eax
	addl	$1, %eax
	movl	%eax, -16(%rbp)
.LBB45_5:                               # %if.end
                                        #   in Loop: Header=BB45_2 Depth=1
	movq	-48(%rbp), %rax
	movl	4(%rax), %eax
	cmpl	-56(%rbp), %eax
	jge	.LBB45_7
# %bb.6:                                # %if.then6
                                        #   in Loop: Header=BB45_2 Depth=1
	movl	-16(%rbp), %eax
	addl	$1, %eax
	movl	%eax, -16(%rbp)
.LBB45_7:                               # %if.end8
                                        #   in Loop: Header=BB45_2 Depth=1
	movl	-16(%rbp), %eax
	movq	input, %rcx
	cmpl	212(%rcx), %eax
	jle	.LBB45_9
# %bb.8:                                # %if.then10
	movl	$1, -20(%rbp)
	jmp	.LBB45_21
.LBB45_9:                               # %if.end11
                                        #   in Loop: Header=BB45_2 Depth=1
	jmp	.LBB45_10
.LBB45_10:                              # %for.inc
                                        #   in Loop: Header=BB45_2 Depth=1
	movl	-12(%rbp), %eax
	addl	$1, %eax
	movl	%eax, -12(%rbp)
	jmp	.LBB45_2
.LBB45_11:                              # %for.end
	jmp	.LBB45_12
.LBB45_12:                              # %if.end13
	movq	input, %rax
	cmpl	$1, 2356(%rax)
	jne	.LBB45_20
# %bb.13:                               # %if.then16
	movl	$0, -12(%rbp)
.LBB45_14:                              # %for.cond17
                                        # =>This Inner Loop Header: Depth=1
	movl	-12(%rbp), %eax
	movq	-32(%rbp), %rcx
	cmpl	16(%rcx), %eax
	jge	.LBB45_19
# %bb.15:                               # %for.body20
                                        #   in Loop: Header=BB45_14 Depth=1
	movq	-32(%rbp), %rax
	movq	24(%rax), %rax
	movslq	-12(%rbp), %rcx
	imulq	$120, %rcx, %rcx
	addq	%rcx, %rax
	movq	%rax, -40(%rbp)
	movq	-40(%rbp), %rax
	addq	$8, %rax
	movq	%rax, -64(%rbp)
	movq	-64(%rbp), %rdi
	callq	arienco_bits_written
	movq	input, %rcx
	movl	212(%rcx), %ecx
	shll	$3, %ecx
	cmpl	%ecx, %eax
	jle	.LBB45_17
# %bb.16:                               # %if.then26
	movl	$1, -20(%rbp)
	jmp	.LBB45_21
.LBB45_17:                              # %if.end27
                                        #   in Loop: Header=BB45_14 Depth=1
	jmp	.LBB45_18
.LBB45_18:                              # %for.inc28
                                        #   in Loop: Header=BB45_14 Depth=1
	movl	-12(%rbp), %eax
	addl	$1, %eax
	movl	%eax, -12(%rbp)
	jmp	.LBB45_14
.LBB45_19:                              # %for.end30
	jmp	.LBB45_20
.LBB45_20:                              # %if.end31
	movl	$0, -20(%rbp)
.LBB45_21:                              # %return
	movl	-20(%rbp), %ebx
	cmpl	$35245625, -52(%rbp)    # imm = 0x219CE39
	jne	.LBB45_23
.LBB45_22:
	movl	%ebx, %eax
	addq	$56, %rsp
	popq	%rbx
	popq	%rbp
	.cfi_def_cfa %rsp, 8
	retq
.LBB45_23:                              # %func_exit
	.cfi_def_cfa %rbp, 16
	callq	detect_breach
	jmp	.LBB45_22
.Lfunc_end45:
	.size	slice_too_big.4, .Lfunc_end45-slice_too_big.4
	.cfi_endproc
                                        # -- End function
	.globl	OneComponentLumaPrediction4x4.5 # -- Begin function OneComponentLumaPrediction4x4.5
	.p2align	4, 0x90
	.type	OneComponentLumaPrediction4x4.5,@function
OneComponentLumaPrediction4x4.5:        # @OneComponentLumaPrediction4x4.5
	.cfi_startproc
# %bb.0:                                # %entry
	pushq	%rbp
	.cfi_def_cfa_offset 16
	.cfi_offset %rbp, -16
	movq	%rsp, %rbp
	.cfi_def_cfa_register %rbp
	subq	$112, %rsp
	movl	$1916406014, -88(%rbp)  # imm = 0x723A08FE
	movq	%rdi, -16(%rbp)
	movl	%esi, -92(%rbp)
	movl	%edx, -84(%rbp)
	movq	%rcx, -104(%rbp)
	movw	%r8w, -34(%rbp)
	movq	%r9, -80(%rbp)
	movl	$4, -40(%rbp)
	movl	-84(%rbp), %eax
	shll	$2, %eax
	movq	-104(%rbp), %rcx
	movswl	2(%rcx), %ecx
	addl	%ecx, %eax
	movl	%eax, -44(%rbp)
	movl	-44(%rbp), %eax
	addl	-40(%rbp), %eax
	movl	%eax, -56(%rbp)
	movl	-56(%rbp), %eax
	addl	-40(%rbp), %eax
	movl	%eax, -48(%rbp)
	movl	-48(%rbp), %eax
	addl	-40(%rbp), %eax
	movl	%eax, -68(%rbp)
	movl	-92(%rbp), %eax
	shll	$2, %eax
	movq	-104(%rbp), %rcx
	movswl	(%rcx), %ecx
	addl	%ecx, %eax
	movl	%eax, -52(%rbp)
	movl	-52(%rbp), %eax
	addl	-40(%rbp), %eax
	movl	%eax, -60(%rbp)
	movl	-60(%rbp), %eax
	addl	-40(%rbp), %eax
	movl	%eax, -64(%rbp)
	movl	-64(%rbp), %eax
	addl	-40(%rbp), %eax
	movl	%eax, -72(%rbp)
	movabsq	$UMVPelY_14, %rax
	movq	%rax, -24(%rbp)
	movq	-80(%rbp), %rax
	movswq	-34(%rbp), %rcx
	movq	(%rax,%rcx,8), %rax
	movl	6392(%rax), %eax
	movl	%eax, -8(%rbp)
	movq	-80(%rbp), %rax
	movswq	-34(%rbp), %rcx
	movq	(%rax,%rcx,8), %rax
	movl	6396(%rax), %eax
	movl	%eax, -4(%rbp)
	movq	-80(%rbp), %rax
	movswq	-34(%rbp), %rcx
	movq	(%rax,%rcx,8), %rax
	movq	6448(%rax), %rax
	movq	%rax, -32(%rbp)
	movq	-24(%rbp), %rax
	movq	-32(%rbp), %rdi
	movl	-44(%rbp), %esi
	movl	-52(%rbp), %edx
	movl	-4(%rbp), %ecx
	movl	-8(%rbp), %r8d
	callq	*%rax
	movzwl	%ax, %eax
	movq	-16(%rbp), %rcx
	movq	%rcx, %rdx
	addq	$4, %rdx
	movq	%rdx, -16(%rbp)
	movl	%eax, (%rcx)
	movq	-24(%rbp), %rax
	movq	-32(%rbp), %rdi
	movl	-44(%rbp), %esi
	movl	-60(%rbp), %edx
	movl	-4(%rbp), %ecx
	movl	-8(%rbp), %r8d
	callq	*%rax
	movzwl	%ax, %eax
	movq	-16(%rbp), %rcx
	movq	%rcx, %rdx
	addq	$4, %rdx
	movq	%rdx, -16(%rbp)
	movl	%eax, (%rcx)
	movq	-24(%rbp), %rax
	movq	-32(%rbp), %rdi
	movl	-44(%rbp), %esi
	movl	-64(%rbp), %edx
	movl	-4(%rbp), %ecx
	movl	-8(%rbp), %r8d
	callq	*%rax
	movzwl	%ax, %eax
	movq	-16(%rbp), %rcx
	movq	%rcx, %rdx
	addq	$4, %rdx
	movq	%rdx, -16(%rbp)
	movl	%eax, (%rcx)
	movq	-24(%rbp), %rax
	movq	-32(%rbp), %rdi
	movl	-44(%rbp), %esi
	movl	-72(%rbp), %edx
	movl	-4(%rbp), %ecx
	movl	-8(%rbp), %r8d
	callq	*%rax
	movzwl	%ax, %eax
	movq	-16(%rbp), %rcx
	movq	%rcx, %rdx
	addq	$4, %rdx
	movq	%rdx, -16(%rbp)
	movl	%eax, (%rcx)
	movq	-24(%rbp), %rax
	movq	-32(%rbp), %rdi
	movl	-56(%rbp), %esi
	movl	-52(%rbp), %edx
	movl	-4(%rbp), %ecx
	movl	-8(%rbp), %r8d
	callq	*%rax
	movzwl	%ax, %eax
	movq	-16(%rbp), %rcx
	movq	%rcx, %rdx
	addq	$4, %rdx
	movq	%rdx, -16(%rbp)
	movl	%eax, (%rcx)
	movq	-24(%rbp), %rax
	movq	-32(%rbp), %rdi
	movl	-56(%rbp), %esi
	movl	-60(%rbp), %edx
	movl	-4(%rbp), %ecx
	movl	-8(%rbp), %r8d
	callq	*%rax
	movzwl	%ax, %eax
	movq	-16(%rbp), %rcx
	movq	%rcx, %rdx
	addq	$4, %rdx
	movq	%rdx, -16(%rbp)
	movl	%eax, (%rcx)
	movq	-24(%rbp), %rax
	movq	-32(%rbp), %rdi
	movl	-56(%rbp), %esi
	movl	-64(%rbp), %edx
	movl	-4(%rbp), %ecx
	movl	-8(%rbp), %r8d
	callq	*%rax
	movzwl	%ax, %eax
	movq	-16(%rbp), %rcx
	movq	%rcx, %rdx
	addq	$4, %rdx
	movq	%rdx, -16(%rbp)
	movl	%eax, (%rcx)
	movq	-24(%rbp), %rax
	movq	-32(%rbp), %rdi
	movl	-56(%rbp), %esi
	movl	-72(%rbp), %edx
	movl	-4(%rbp), %ecx
	movl	-8(%rbp), %r8d
	callq	*%rax
	movzwl	%ax, %eax
	movq	-16(%rbp), %rcx
	movq	%rcx, %rdx
	addq	$4, %rdx
	movq	%rdx, -16(%rbp)
	movl	%eax, (%rcx)
	movq	-24(%rbp), %rax
	movq	-32(%rbp), %rdi
	movl	-48(%rbp), %esi
	movl	-52(%rbp), %edx
	movl	-4(%rbp), %ecx
	movl	-8(%rbp), %r8d
	callq	*%rax
	movzwl	%ax, %eax
	movq	-16(%rbp), %rcx
	movq	%rcx, %rdx
	addq	$4, %rdx
	movq	%rdx, -16(%rbp)
	movl	%eax, (%rcx)
	movq	-24(%rbp), %rax
	movq	-32(%rbp), %rdi
	movl	-48(%rbp), %esi
	movl	-60(%rbp), %edx
	movl	-4(%rbp), %ecx
	movl	-8(%rbp), %r8d
	callq	*%rax
	movzwl	%ax, %eax
	movq	-16(%rbp), %rcx
	movq	%rcx, %rdx
	addq	$4, %rdx
	movq	%rdx, -16(%rbp)
	movl	%eax, (%rcx)
	movq	-24(%rbp), %rax
	movq	-32(%rbp), %rdi
	movl	-48(%rbp), %esi
	movl	-64(%rbp), %edx
	movl	-4(%rbp), %ecx
	movl	-8(%rbp), %r8d
	callq	*%rax
	movzwl	%ax, %eax
	movq	-16(%rbp), %rcx
	movq	%rcx, %rdx
	addq	$4, %rdx
	movq	%rdx, -16(%rbp)
	movl	%eax, (%rcx)
	movq	-24(%rbp), %rax
	movq	-32(%rbp), %rdi
	movl	-48(%rbp), %esi
	movl	-72(%rbp), %edx
	movl	-4(%rbp), %ecx
	movl	-8(%rbp), %r8d
	callq	*%rax
	movzwl	%ax, %eax
	movq	-16(%rbp), %rcx
	movq	%rcx, %rdx
	addq	$4, %rdx
	movq	%rdx, -16(%rbp)
	movl	%eax, (%rcx)
	movq	-24(%rbp), %rax
	movq	-32(%rbp), %rdi
	movl	-68(%rbp), %esi
	movl	-52(%rbp), %edx
	movl	-4(%rbp), %ecx
	movl	-8(%rbp), %r8d
	callq	*%rax
	movzwl	%ax, %eax
	movq	-16(%rbp), %rcx
	movq	%rcx, %rdx
	addq	$4, %rdx
	movq	%rdx, -16(%rbp)
	movl	%eax, (%rcx)
	movq	-24(%rbp), %rax
	movq	-32(%rbp), %rdi
	movl	-68(%rbp), %esi
	movl	-60(%rbp), %edx
	movl	-4(%rbp), %ecx
	movl	-8(%rbp), %r8d
	callq	*%rax
	movzwl	%ax, %eax
	movq	-16(%rbp), %rcx
	movq	%rcx, %rdx
	addq	$4, %rdx
	movq	%rdx, -16(%rbp)
	movl	%eax, (%rcx)
	movq	-24(%rbp), %rax
	movq	-32(%rbp), %rdi
	movl	-68(%rbp), %esi
	movl	-64(%rbp), %edx
	movl	-4(%rbp), %ecx
	movl	-8(%rbp), %r8d
	callq	*%rax
	movzwl	%ax, %eax
	movq	-16(%rbp), %rcx
	movq	%rcx, %rdx
	addq	$4, %rdx
	movq	%rdx, -16(%rbp)
	movl	%eax, (%rcx)
	movq	-24(%rbp), %rax
	movq	-32(%rbp), %rdi
	movl	-68(%rbp), %esi
	movl	-72(%rbp), %edx
	movl	-4(%rbp), %ecx
	movl	-8(%rbp), %r8d
	callq	*%rax
	movzwl	%ax, %eax
	movq	-16(%rbp), %rcx
	movq	%rcx, %rdx
	addq	$4, %rdx
	movq	%rdx, -16(%rbp)
	movl	%eax, (%rcx)
	cmpl	$1916406014, -88(%rbp)  # imm = 0x723A08FE
	jne	.LBB46_2
.LBB46_1:
	addq	$112, %rsp
	popq	%rbp
	.cfi_def_cfa %rsp, 8
	retq
.LBB46_2:                               # %func_exit
	.cfi_def_cfa %rbp, 16
	callq	detect_breach
	jmp	.LBB46_1
.Lfunc_end46:
	.size	OneComponentLumaPrediction4x4.5, .Lfunc_end46-OneComponentLumaPrediction4x4.5
	.cfi_endproc
                                        # -- End function
	.globl	writeCBPandLumaCoeff.6  # -- Begin function writeCBPandLumaCoeff.6
	.p2align	4, 0x90
	.type	writeCBPandLumaCoeff.6,@function
writeCBPandLumaCoeff.6:                 # @writeCBPandLumaCoeff.6
	.cfi_startproc
# %bb.0:                                # %entry
	pushq	%rbp
	.cfi_def_cfa_offset 16
	.cfi_offset %rbp, -16
	movq	%rsp, %rbp
	.cfi_def_cfa_register %rbp
	pushq	%rbx
	subq	$136, %rsp
	.cfi_offset %rbx, -24
	movl	$2044979840, -100(%rbp) # imm = 0x79E3EA80
	movl	$0, -24(%rbp)
	movq	img, %rax
	movq	14168(%rax), %rax
	movq	img, %rcx
	movslq	12(%rcx), %rcx
	imulq	$632, %rcx, %rcx        # imm = 0x278
	addq	%rcx, %rax
	movq	%rax, -32(%rbp)
	movq	-32(%rbp), %rax
	addq	$20, %rax
	movq	%rax, -80(%rbp)
	movq	img, %rax
	addq	$14176, %rax            # imm = 0x3760
	movq	-32(%rbp), %rcx
	movslq	(%rcx), %rcx
	imulq	$48, %rcx, %rcx
	addq	%rcx, %rax
	movq	%rax, -16(%rbp)
	movq	img, %rax
	movq	14160(%rax), %rax
	movq	%rax, -96(%rbp)
	movq	input, %rax
	movslq	2364(%rax), %rax
	movq	assignSE2partition(,%rax,8), %rax
	movq	%rax, -88(%rbp)
	movq	-32(%rbp), %rax
	movl	460(%rax), %eax
	movl	%eax, -64(%rbp)
	movq	img, %rax
	movq	14144(%rax), %rax
	movq	(%rax), %rax
	movq	(%rax), %rax
	movq	%rax, -128(%rbp)
	movq	img, %rax
	movq	14144(%rax), %rax
	movq	(%rax), %rax
	movq	8(%rax), %rax
	movq	%rax, -144(%rbp)
	movq	-32(%rbp), %rax
	cmpl	$10, 72(%rax)
	je	.LBB47_31
# %bb.1:                                # %if.then
	movl	-64(%rbp), %eax
	movq	-16(%rbp), %rcx
	movl	%eax, 4(%rcx)
	movq	-32(%rbp), %rax
	cmpl	$9, 72(%rax)
	je	.LBB47_4
# %bb.2:                                # %lor.lhs.false
	movq	-32(%rbp), %rax
	cmpl	$12, 72(%rax)
	je	.LBB47_4
# %bb.3:                                # %lor.lhs.false15
	movq	-32(%rbp), %rax
	cmpl	$13, 72(%rax)
	jne	.LBB47_7
.LBB47_4:                               # %if.then18
	movq	input, %rax
	cmpl	$0, 2356(%rax)
	jne	.LBB47_6
# %bb.5:                                # %if.then20
	movq	-16(%rbp), %rax
	movabsq	$cbp_linfo_intra, %rcx
	movq	%rcx, 32(%rax)
.LBB47_6:                               # %if.end
	movq	-16(%rbp), %rax
	movl	$6, (%rax)
	jmp	.LBB47_10
.LBB47_7:                               # %if.else
	movq	input, %rax
	cmpl	$0, 2356(%rax)
	jne	.LBB47_9
# %bb.8:                                # %if.then23
	movq	-16(%rbp), %rax
	movabsq	$cbp_linfo_inter, %rcx
	movq	%rcx, 32(%rax)
.LBB47_9:                               # %if.end25
	movq	-16(%rbp), %rax
	movl	$11, (%rax)
.LBB47_10:                              # %if.end27
	movq	input, %rax
	cmpl	$1, 2356(%rax)
	jne	.LBB47_12
# %bb.11:                               # %if.then30
	movq	-16(%rbp), %rax
	movabsq	$writeCBP_CABAC, %rcx
	movq	%rcx, 40(%rax)
.LBB47_12:                              # %if.end31
	movq	-96(%rbp), %rax
	movq	24(%rax), %rax
	movq	-88(%rbp), %rcx
	movq	-16(%rbp), %rdx
	movslq	(%rdx), %rdx
	movslq	(%rcx,%rdx,4), %rcx
	imulq	$120, %rcx, %rcx
	addq	%rcx, %rax
	movq	%rax, -48(%rbp)
	movq	-48(%rbp), %rax
	movq	112(%rax), %rax
	movq	-16(%rbp), %rdi
	movq	-48(%rbp), %rsi
	callq	*%rax
	movq	-16(%rbp), %rax
	movl	12(%rax), %eax
	movq	-80(%rbp), %rcx
	addl	16(%rcx), %eax
	movl	%eax, 16(%rcx)
	movq	-16(%rbp), %rax
	movl	12(%rax), %eax
	addl	-24(%rbp), %eax
	movl	%eax, -24(%rbp)
	movq	-16(%rbp), %rax
	addq	$48, %rax
	movq	%rax, -16(%rbp)
	movq	-32(%rbp), %rax
	movl	(%rax), %ecx
	addl	$1, %ecx
	movl	%ecx, (%rax)
	movq	-32(%rbp), %rax
	cmpl	$1, 72(%rax)
	jl	.LBB47_14
# %bb.13:                               # %land.lhs.true
	movq	-32(%rbp), %rax
	cmpl	$3, 72(%rax)
	jle	.LBB47_18
.LBB47_14:                              # %lor.lhs.false45
	movq	-32(%rbp), %rax
	cmpl	$0, 72(%rax)
	jne	.LBB47_17
# %bb.15:                               # %land.lhs.true48
	movq	img, %rax
	cmpl	$1, 24(%rax)
	jne	.LBB47_17
# %bb.16:                               # %land.lhs.true51
	movq	active_sps, %rax
	cmpl	$0, 1156(%rax)
	jne	.LBB47_18
.LBB47_17:                              # %lor.lhs.false52
	xorl	%eax, %eax
	movq	-32(%rbp), %rcx
	cmpl	$0, 576(%rcx)
	je	.LBB47_22
.LBB47_18:                              # %land.lhs.true54
	xorl	%eax, %eax
	movq	-32(%rbp), %rcx
	cmpl	$13, 72(%rcx)
	je	.LBB47_22
# %bb.19:                               # %land.lhs.true57
	xorl	%eax, %eax
	movq	-32(%rbp), %rcx
	cmpl	$9, 72(%rcx)
	je	.LBB47_22
# %bb.20:                               # %land.lhs.true60
	xorl	%eax, %eax
	movq	-32(%rbp), %rcx
	movl	460(%rcx), %ecx
	andl	$15, %ecx
	cmpl	$0, %ecx
	je	.LBB47_22
# %bb.21:                               # %land.rhs
	movq	input, %rax
	cmpl	$0, 3220(%rax)
	setne	%al
.LBB47_22:                              # %land.end
	andb	$1, %al
	movzbl	%al, %eax
	movl	%eax, -104(%rbp)
	cmpl	$0, -104(%rbp)
	je	.LBB47_30
# %bb.23:                               # %if.then65
	movq	-32(%rbp), %rax
	movl	572(%rax), %eax
	movq	-16(%rbp), %rcx
	movl	%eax, 4(%rcx)
	movq	-16(%rbp), %rax
	movl	$20, (%rax)
	movq	input, %rax
	cmpl	$0, 2356(%rax)
	jne	.LBB47_25
# %bb.24:                               # %if.then70
	movq	-16(%rbp), %rax
	movabsq	$ue_linfo, %rcx
	movq	%rcx, 32(%rax)
	jmp	.LBB47_26
.LBB47_25:                              # %if.else72
	movq	-16(%rbp), %rax
	movabsq	$writeMB_transform_size_CABAC, %rcx
	movq	%rcx, 40(%rax)
.LBB47_26:                              # %if.end74
	movq	input, %rax
	cmpl	$0, 2356(%rax)
	jne	.LBB47_28
# %bb.27:                               # %if.then77
	movq	-32(%rbp), %rax
	movl	572(%rax), %eax
	movq	-16(%rbp), %rcx
	movl	%eax, 20(%rcx)
	movq	-16(%rbp), %rax
	movl	$1, 12(%rax)
	movq	-16(%rbp), %rdi
	movq	-48(%rbp), %rax
	movq	(%rax), %rsi
	callq	writeSyntaxElement2Buf_Fixed
	jmp	.LBB47_29
.LBB47_28:                              # %if.else81
	movq	-48(%rbp), %rax
	movq	112(%rax), %rax
	movq	-16(%rbp), %rdi
	movq	-48(%rbp), %rsi
	callq	*%rax
.LBB47_29:                              # %if.end84
	movq	-16(%rbp), %rax
	movl	12(%rax), %eax
	movq	-80(%rbp), %rcx
	addl	8(%rcx), %eax
	movl	%eax, 8(%rcx)
	movq	-16(%rbp), %rax
	movl	12(%rax), %eax
	addl	-24(%rbp), %eax
	movl	%eax, -24(%rbp)
	movq	-16(%rbp), %rax
	addq	$48, %rax
	movq	%rax, -16(%rbp)
	movq	-32(%rbp), %rax
	movl	(%rax), %ecx
	addl	$1, %ecx
	movl	%ecx, (%rax)
.LBB47_30:                              # %if.end93
	jmp	.LBB47_31
.LBB47_31:                              # %if.end94
	cmpl	$0, -64(%rbp)
	jne	.LBB47_33
# %bb.32:                               # %lor.lhs.false96
	movq	-32(%rbp), %rax
	cmpl	$10, 72(%rax)
	jne	.LBB47_42
.LBB47_33:                              # %if.then99
	movq	-32(%rbp), %rax
	movl	8(%rax), %eax
	movq	-16(%rbp), %rcx
	movl	%eax, 4(%rcx)
	movq	input, %rax
	cmpl	$0, 2356(%rax)
	jne	.LBB47_35
# %bb.34:                               # %if.then103
	movq	-16(%rbp), %rax
	movabsq	$se_linfo, %rcx
	movq	%rcx, 32(%rax)
	jmp	.LBB47_36
.LBB47_35:                              # %if.else105
	movq	-16(%rbp), %rax
	movabsq	$writeDquant_CABAC, %rcx
	movq	%rcx, 40(%rax)
.LBB47_36:                              # %if.end107
	movq	-32(%rbp), %rax
	cmpl	$9, 72(%rax)
	je	.LBB47_40
# %bb.37:                               # %land.lhs.true110
	movq	-32(%rbp), %rax
	cmpl	$10, 72(%rax)
	je	.LBB47_40
# %bb.38:                               # %land.lhs.true113
	movq	-32(%rbp), %rax
	cmpl	$13, 72(%rax)
	je	.LBB47_40
# %bb.39:                               # %if.then116
	movq	-16(%rbp), %rax
	movl	$16, (%rax)
	jmp	.LBB47_41
.LBB47_40:                              # %if.else118
	movq	-16(%rbp), %rax
	movl	$17, (%rax)
.LBB47_41:                              # %if.end120
	movq	img, %rax
	movq	14160(%rax), %rax
	movq	24(%rax), %rax
	movq	-88(%rbp), %rcx
	movq	-16(%rbp), %rdx
	movslq	(%rdx), %rdx
	movslq	(%rcx,%rdx,4), %rcx
	imulq	$120, %rcx, %rcx
	addq	%rcx, %rax
	movq	%rax, -48(%rbp)
	movq	-48(%rbp), %rax
	movq	112(%rax), %rax
	movq	-16(%rbp), %rdi
	movq	-48(%rbp), %rsi
	callq	*%rax
	movq	-16(%rbp), %rax
	movl	12(%rax), %eax
	movq	-80(%rbp), %rcx
	addl	28(%rcx), %eax
	movl	%eax, 28(%rcx)
	movq	-16(%rbp), %rax
	movl	12(%rax), %eax
	addl	-24(%rbp), %eax
	movl	%eax, -24(%rbp)
	movq	-16(%rbp), %rax
	addq	$48, %rax
	movq	%rax, -16(%rbp)
	movq	-32(%rbp), %rax
	movl	(%rax), %ecx
	addl	$1, %ecx
	movl	%ecx, (%rax)
.LBB47_42:                              # %if.end138
	movl	$0, -40(%rbp)
.LBB47_43:                              # %for.cond
                                        # =>This Loop Header: Depth=1
                                        #     Child Loop BB47_45 Depth 2
	movl	-40(%rbp), %eax
	movq	img, %rcx
	movl	72692(%rcx), %ecx
	addl	$4, %ecx
	cmpl	%ecx, %eax
	jge	.LBB47_50
# %bb.44:                               # %for.body
                                        #   in Loop: Header=BB47_43 Depth=1
	movl	$0, -20(%rbp)
.LBB47_45:                              # %for.cond141
                                        #   Parent Loop BB47_43 Depth=1
                                        # =>  This Inner Loop Header: Depth=2
	cmpl	$4, -20(%rbp)
	jge	.LBB47_48
# %bb.46:                               # %for.body143
                                        #   in Loop: Header=BB47_45 Depth=2
	movq	img, %rax
	movq	128(%rax), %rax
	movq	img, %rcx
	movslq	12(%rcx), %rcx
	movq	(%rax,%rcx,8), %rax
	movslq	-20(%rbp), %rcx
	movq	(%rax,%rcx,8), %rax
	movslq	-40(%rbp), %rcx
	movl	$0, (%rax,%rcx,4)
# %bb.47:                               # %for.inc
                                        #   in Loop: Header=BB47_45 Depth=2
	movl	-20(%rbp), %eax
	addl	$1, %eax
	movl	%eax, -20(%rbp)
	jmp	.LBB47_45
.LBB47_48:                              # %for.end
                                        #   in Loop: Header=BB47_43 Depth=1
	jmp	.LBB47_49
.LBB47_49:                              # %for.inc152
                                        #   in Loop: Header=BB47_43 Depth=1
	movl	-40(%rbp), %eax
	addl	$1, %eax
	movl	%eax, -40(%rbp)
	jmp	.LBB47_43
.LBB47_50:                              # %for.end154
	movq	-32(%rbp), %rax
	cmpl	$10, 72(%rax)
	je	.LBB47_58
# %bb.51:                               # %if.then157
	movl	$0, -20(%rbp)
.LBB47_52:                              # %for.cond158
                                        # =>This Inner Loop Header: Depth=1
	cmpl	$4, -20(%rbp)
	jge	.LBB47_57
# %bb.53:                               # %for.body160
                                        #   in Loop: Header=BB47_52 Depth=1
	movl	-64(%rbp), %eax
	movl	-20(%rbp), %ecx
                                        # kill: def $cl killed $ecx
	movl	$1, %edx
	shll	%cl, %edx
	andl	%edx, %eax
	cmpl	$0, %eax
	je	.LBB47_55
# %bb.54:                               # %if.then163
                                        #   in Loop: Header=BB47_52 Depth=1
	movl	-20(%rbp), %edi
	movq	-32(%rbp), %rax
	movslq	-20(%rbp), %rcx
	movl	472(%rax,%rcx,4), %esi
	movq	-32(%rbp), %rax
	movl	572(%rax), %edx
	callq	writeLumaCoeff8x8
	addl	-24(%rbp), %eax
	movl	%eax, -24(%rbp)
.LBB47_55:                              # %if.end169
                                        #   in Loop: Header=BB47_52 Depth=1
	jmp	.LBB47_56
.LBB47_56:                              # %for.inc170
                                        #   in Loop: Header=BB47_52 Depth=1
	movl	-20(%rbp), %eax
	addl	$1, %eax
	movl	%eax, -20(%rbp)
	jmp	.LBB47_52
.LBB47_57:                              # %for.end172
	jmp	.LBB47_101
.LBB47_58:                              # %if.else173
	movq	input, %rax
	cmpl	$0, 2356(%rax)
	jne	.LBB47_60
# %bb.59:                               # %if.then176
	movl	$1, %edi
	xorl	%esi, %esi
	xorl	%edx, %edx
	xorl	%ecx, %ecx
	callq	writeCoeff4x4_CAVLC
	addl	-24(%rbp), %eax
	movl	%eax, -24(%rbp)
	jmp	.LBB47_70
.LBB47_60:                              # %if.else179
	movl	$1, -56(%rbp)
	movl	$0, -36(%rbp)
.LBB47_61:                              # %for.cond180
                                        # =>This Inner Loop Header: Depth=1
	xorl	%eax, %eax
	cmpl	$16, -36(%rbp)
	jg	.LBB47_63
# %bb.62:                               # %land.rhs182
                                        #   in Loop: Header=BB47_61 Depth=1
	cmpl	$0, -56(%rbp)
	setne	%al
.LBB47_63:                              # %land.end184
                                        #   in Loop: Header=BB47_61 Depth=1
	testb	$1, %al
	jne	.LBB47_64
	jmp	.LBB47_69
.LBB47_64:                              # %for.body186
                                        #   in Loop: Header=BB47_61 Depth=1
	movq	-128(%rbp), %rax
	movslq	-36(%rbp), %rcx
	movl	(%rax,%rcx,4), %eax
	movq	-16(%rbp), %rcx
	movl	%eax, 4(%rcx)
	movl	%eax, -56(%rbp)
	movq	-144(%rbp), %rax
	movslq	-36(%rbp), %rcx
	movl	(%rax,%rcx,4), %eax
	movq	-16(%rbp), %rcx
	movl	%eax, 8(%rcx)
	movl	%eax, -108(%rbp)
	movq	input, %rax
	cmpl	$0, 2356(%rax)
	jne	.LBB47_66
# %bb.65:                               # %if.then194
                                        #   in Loop: Header=BB47_61 Depth=1
	movq	-16(%rbp), %rax
	movabsq	$levrun_linfo_inter, %rcx
	movq	%rcx, 32(%rax)
	jmp	.LBB47_67
.LBB47_66:                              # %if.else196
                                        #   in Loop: Header=BB47_61 Depth=1
	movq	-16(%rbp), %rax
	movabsq	$writeRunLevel_CABAC, %rcx
	movq	%rcx, 40(%rax)
.LBB47_67:                              # %if.end198
                                        #   in Loop: Header=BB47_61 Depth=1
	movq	-16(%rbp), %rax
	movl	$0, 24(%rax)
	movq	-16(%rbp), %rax
	movl	$7, (%rax)
	movq	img, %rax
	movl	$1, 80(%rax)
	movq	-96(%rbp), %rax
	movq	24(%rax), %rax
	movq	-88(%rbp), %rcx
	movq	-16(%rbp), %rdx
	movslq	(%rdx), %rdx
	movslq	(%rcx,%rdx,4), %rcx
	imulq	$120, %rcx, %rcx
	addq	%rcx, %rax
	movq	%rax, -48(%rbp)
	movq	-48(%rbp), %rax
	movq	112(%rax), %rax
	movq	-16(%rbp), %rdi
	movq	-48(%rbp), %rsi
	callq	*%rax
	movq	-16(%rbp), %rax
	movl	12(%rax), %eax
	movq	-80(%rbp), %rcx
	addl	20(%rcx), %eax
	movl	%eax, 20(%rcx)
	movq	-16(%rbp), %rax
	movl	12(%rax), %eax
	addl	-24(%rbp), %eax
	movl	%eax, -24(%rbp)
	movq	-16(%rbp), %rax
	addq	$48, %rax
	movq	%rax, -16(%rbp)
	movq	-32(%rbp), %rax
	movl	(%rax), %ecx
	addl	$1, %ecx
	movl	%ecx, (%rax)
# %bb.68:                               # %for.inc216
                                        #   in Loop: Header=BB47_61 Depth=1
	movl	-36(%rbp), %eax
	addl	$1, %eax
	movl	%eax, -36(%rbp)
	jmp	.LBB47_61
.LBB47_69:                              # %for.end218
	jmp	.LBB47_70
.LBB47_70:                              # %if.end219
	movl	-64(%rbp), %eax
	andl	$15, %eax
	cmpl	$0, %eax
	je	.LBB47_100
# %bb.71:                               # %if.then222
	movl	$0, -52(%rbp)
.LBB47_72:                              # %for.cond223
                                        # =>This Loop Header: Depth=1
                                        #     Child Loop BB47_74 Depth 2
                                        #       Child Loop BB47_76 Depth 3
                                        #         Child Loop BB47_78 Depth 4
                                        #           Child Loop BB47_82 Depth 5
	cmpl	$4, -52(%rbp)
	jge	.LBB47_99
# %bb.73:                               # %for.body225
                                        #   in Loop: Header=BB47_72 Depth=1
	movl	$0, -60(%rbp)
.LBB47_74:                              # %for.cond226
                                        #   Parent Loop BB47_72 Depth=1
                                        # =>  This Loop Header: Depth=2
                                        #       Child Loop BB47_76 Depth 3
                                        #         Child Loop BB47_78 Depth 4
                                        #           Child Loop BB47_82 Depth 5
	cmpl	$4, -60(%rbp)
	jge	.LBB47_97
# %bb.75:                               # %for.body228
                                        #   in Loop: Header=BB47_74 Depth=2
	movl	-52(%rbp), %eax
	movl	%eax, -40(%rbp)
.LBB47_76:                              # %for.cond229
                                        #   Parent Loop BB47_72 Depth=1
                                        #     Parent Loop BB47_74 Depth=2
                                        # =>    This Loop Header: Depth=3
                                        #         Child Loop BB47_78 Depth 4
                                        #           Child Loop BB47_82 Depth 5
	movl	-40(%rbp), %eax
	movl	-52(%rbp), %ecx
	addl	$2, %ecx
	cmpl	%ecx, %eax
	jge	.LBB47_95
# %bb.77:                               # %for.body232
                                        #   in Loop: Header=BB47_76 Depth=3
	movl	-60(%rbp), %eax
	movl	%eax, -20(%rbp)
.LBB47_78:                              # %for.cond233
                                        #   Parent Loop BB47_72 Depth=1
                                        #     Parent Loop BB47_74 Depth=2
                                        #       Parent Loop BB47_76 Depth=3
                                        # =>      This Loop Header: Depth=4
                                        #           Child Loop BB47_82 Depth 5
	movl	-20(%rbp), %eax
	movl	-60(%rbp), %ecx
	addl	$2, %ecx
	cmpl	%ecx, %eax
	jge	.LBB47_93
# %bb.79:                               # %for.body236
                                        #   in Loop: Header=BB47_78 Depth=4
	movl	-40(%rbp), %eax
	cltd
	movl	$2, %esi
	idivl	%esi
	movl	%eax, %ecx
	shll	$1, %ecx
	movl	-20(%rbp), %eax
	cltd
	idivl	%esi
	addl	%eax, %ecx
	movl	%ecx, -72(%rbp)
	movl	-40(%rbp), %eax
	cltd
	idivl	%esi
	movl	%edx, %ecx
	shll	$1, %ecx
	movl	-20(%rbp), %eax
	cltd
	idivl	%esi
	addl	%edx, %ecx
	movl	%ecx, -68(%rbp)
	movq	input, %rax
	cmpl	$0, 2356(%rax)
	jne	.LBB47_81
# %bb.80:                               # %if.then244
                                        #   in Loop: Header=BB47_78 Depth=4
	movl	-72(%rbp), %esi
	movl	-68(%rbp), %edx
	movl	$2, %edi
	xorl	%ecx, %ecx
	callq	writeCoeff4x4_CAVLC
	addl	-24(%rbp), %eax
	movl	%eax, -24(%rbp)
	jmp	.LBB47_91
.LBB47_81:                              # %if.else247
                                        #   in Loop: Header=BB47_78 Depth=4
	movq	img, %rax
	movq	14136(%rax), %rax
	movslq	-72(%rbp), %rcx
	movq	(%rax,%rcx,8), %rax
	movslq	-68(%rbp), %rcx
	movq	(%rax,%rcx,8), %rax
	movq	(%rax), %rax
	movq	%rax, -120(%rbp)
	movq	img, %rax
	movq	14136(%rax), %rax
	movslq	-72(%rbp), %rcx
	movq	(%rax,%rcx,8), %rax
	movslq	-68(%rbp), %rcx
	movq	(%rax,%rcx,8), %rax
	movq	8(%rax), %rax
	movq	%rax, -136(%rbp)
	movl	-40(%rbp), %eax
	movq	img, %rcx
	movl	%eax, 76(%rcx)
	movl	-20(%rbp), %eax
	movq	img, %rcx
	movl	%eax, 72(%rcx)
	movl	$1, -56(%rbp)
	movl	$0, -36(%rbp)
.LBB47_82:                              # %for.cond259
                                        #   Parent Loop BB47_72 Depth=1
                                        #     Parent Loop BB47_74 Depth=2
                                        #       Parent Loop BB47_76 Depth=3
                                        #         Parent Loop BB47_78 Depth=4
                                        # =>        This Inner Loop Header: Depth=5
	xorl	%eax, %eax
	cmpl	$16, -36(%rbp)
	jge	.LBB47_84
# %bb.83:                               # %land.rhs261
                                        #   in Loop: Header=BB47_82 Depth=5
	cmpl	$0, -56(%rbp)
	setne	%al
.LBB47_84:                              # %land.end263
                                        #   in Loop: Header=BB47_82 Depth=5
	testb	$1, %al
	jne	.LBB47_85
	jmp	.LBB47_90
.LBB47_85:                              # %for.body265
                                        #   in Loop: Header=BB47_82 Depth=5
	movq	-120(%rbp), %rax
	movslq	-36(%rbp), %rcx
	movl	(%rax,%rcx,4), %eax
	movq	-16(%rbp), %rcx
	movl	%eax, 4(%rcx)
	movl	%eax, -56(%rbp)
	movq	-136(%rbp), %rax
	movslq	-36(%rbp), %rcx
	movl	(%rax,%rcx,4), %eax
	movq	-16(%rbp), %rcx
	movl	%eax, 8(%rcx)
	movl	%eax, -108(%rbp)
	movq	input, %rax
	cmpl	$0, 2356(%rax)
	jne	.LBB47_87
# %bb.86:                               # %if.then274
                                        #   in Loop: Header=BB47_82 Depth=5
	movq	-16(%rbp), %rax
	movabsq	$levrun_linfo_inter, %rcx
	movq	%rcx, 32(%rax)
	jmp	.LBB47_88
.LBB47_87:                              # %if.else276
                                        #   in Loop: Header=BB47_82 Depth=5
	movq	-16(%rbp), %rax
	movabsq	$writeRunLevel_CABAC, %rcx
	movq	%rcx, 40(%rax)
.LBB47_88:                              # %if.end278
                                        #   in Loop: Header=BB47_82 Depth=5
	movq	-16(%rbp), %rax
	movl	$1, 24(%rax)
	movq	-16(%rbp), %rax
	movl	$9, (%rax)
	movq	img, %rax
	movl	$1, 80(%rax)
	movq	-96(%rbp), %rax
	movq	24(%rax), %rax
	movq	-88(%rbp), %rcx
	movq	-16(%rbp), %rdx
	movslq	(%rdx), %rdx
	movslq	(%rcx,%rdx,4), %rcx
	imulq	$120, %rcx, %rcx
	addq	%rcx, %rax
	movq	%rax, -48(%rbp)
	movq	-48(%rbp), %rax
	movq	112(%rax), %rax
	movq	-16(%rbp), %rdi
	movq	-48(%rbp), %rsi
	callq	*%rax
	movq	-16(%rbp), %rax
	movl	12(%rax), %eax
	movq	-80(%rbp), %rcx
	addl	20(%rcx), %eax
	movl	%eax, 20(%rcx)
	movq	-16(%rbp), %rax
	movl	12(%rax), %eax
	addl	-24(%rbp), %eax
	movl	%eax, -24(%rbp)
	movq	-16(%rbp), %rax
	addq	$48, %rax
	movq	%rax, -16(%rbp)
	movq	-32(%rbp), %rax
	movl	(%rax), %ecx
	addl	$1, %ecx
	movl	%ecx, (%rax)
# %bb.89:                               # %for.inc298
                                        #   in Loop: Header=BB47_82 Depth=5
	movl	-36(%rbp), %eax
	addl	$1, %eax
	movl	%eax, -36(%rbp)
	jmp	.LBB47_82
.LBB47_90:                              # %for.end300
                                        #   in Loop: Header=BB47_78 Depth=4
	jmp	.LBB47_91
.LBB47_91:                              # %if.end301
                                        #   in Loop: Header=BB47_78 Depth=4
	jmp	.LBB47_92
.LBB47_92:                              # %for.inc302
                                        #   in Loop: Header=BB47_78 Depth=4
	movl	-20(%rbp), %eax
	addl	$1, %eax
	movl	%eax, -20(%rbp)
	jmp	.LBB47_78
.LBB47_93:                              # %for.end304
                                        #   in Loop: Header=BB47_76 Depth=3
	jmp	.LBB47_94
.LBB47_94:                              # %for.inc305
                                        #   in Loop: Header=BB47_76 Depth=3
	movl	-40(%rbp), %eax
	addl	$1, %eax
	movl	%eax, -40(%rbp)
	jmp	.LBB47_76
.LBB47_95:                              # %for.end307
                                        #   in Loop: Header=BB47_74 Depth=2
	jmp	.LBB47_96
.LBB47_96:                              # %for.inc308
                                        #   in Loop: Header=BB47_74 Depth=2
	movl	-60(%rbp), %eax
	addl	$2, %eax
	movl	%eax, -60(%rbp)
	jmp	.LBB47_74
.LBB47_97:                              # %for.end310
                                        #   in Loop: Header=BB47_72 Depth=1
	jmp	.LBB47_98
.LBB47_98:                              # %for.inc311
                                        #   in Loop: Header=BB47_72 Depth=1
	movl	-52(%rbp), %eax
	addl	$2, %eax
	movl	%eax, -52(%rbp)
	jmp	.LBB47_72
.LBB47_99:                              # %for.end313
	jmp	.LBB47_100
.LBB47_100:                             # %if.end314
	jmp	.LBB47_101
.LBB47_101:                             # %if.end315
	movl	-24(%rbp), %ebx
	cmpl	$2044979840, -100(%rbp) # imm = 0x79E3EA80
	jne	.LBB47_103
.LBB47_102:
	movl	%ebx, %eax
	addq	$136, %rsp
	popq	%rbx
	popq	%rbp
	.cfi_def_cfa %rsp, 8
	retq
.LBB47_103:                             # %func_exit
	.cfi_def_cfa %rbp, 16
	callq	detect_breach
	jmp	.LBB47_102
.Lfunc_end47:
	.size	writeCBPandLumaCoeff.6, .Lfunc_end47-writeCBPandLumaCoeff.6
	.cfi_endproc
                                        # -- End function
	.globl	predict_nnz.7           # -- Begin function predict_nnz.7
	.p2align	4, 0x90
	.type	predict_nnz.7,@function
predict_nnz.7:                          # @predict_nnz.7
	.cfi_startproc
# %bb.0:                                # %entry
	pushq	%rbp
	.cfi_def_cfa_offset 16
	.cfi_offset %rbp, -16
	movq	%rsp, %rbp
	.cfi_def_cfa_register %rbp
	pushq	%rbx
	subq	$56, %rsp
	.cfi_offset %rbx, -24
	movl	$1642999259, -56(%rbp)  # imm = 0x61EE2DDB
	movl	%edi, -44(%rbp)
	movl	%esi, -52(%rbp)
	movl	$0, -12(%rbp)
	movl	$0, -16(%rbp)
	movq	img, %rax
	movl	12(%rax), %eax
	movl	%eax, -48(%rbp)
	movl	-48(%rbp), %edi
	movl	-44(%rbp), %esi
	movl	-52(%rbp), %edx
	movl	$4294967295, %ecx       # imm = 0xFFFFFFFF
	xorl	%r8d, %r8d
	leaq	-40(%rbp), %r9
	callq	getLuma4x4Neighbour
	cmpl	$0, -40(%rbp)
	je	.LBB48_4
# %bb.1:                                # %land.lhs.true
	movq	active_pps, %rax
	cmpl	$0, 224(%rax)
	je	.LBB48_4
# %bb.2:                                # %land.lhs.true2
	movq	input, %rax
	cmpl	$0, 2364(%rax)
	je	.LBB48_4
# %bb.3:                                # %if.then
	movq	img, %rax
	movq	71784(%rax), %rax
	movslq	-36(%rbp), %rcx
	movl	(%rax,%rcx,4), %eax
	andl	-40(%rbp), %eax
	movl	%eax, -40(%rbp)
.LBB48_4:                               # %if.end
	cmpl	$0, -40(%rbp)
	je	.LBB48_6
# %bb.5:                                # %if.then6
	movq	img, %rax
	movq	128(%rax), %rax
	movslq	-36(%rbp), %rcx
	movq	(%rax,%rcx,8), %rax
	movslq	-32(%rbp), %rcx
	movq	(%rax,%rcx,8), %rax
	movslq	-28(%rbp), %rcx
	movl	(%rax,%rcx,4), %eax
	movl	%eax, -12(%rbp)
	movl	-16(%rbp), %eax
	addl	$1, %eax
	movl	%eax, -16(%rbp)
.LBB48_6:                               # %if.end14
	movl	-48(%rbp), %edi
	movl	-44(%rbp), %esi
	movl	-52(%rbp), %edx
	movl	$0, %ecx
	movl	$4294967295, %r8d       # imm = 0xFFFFFFFF
	leaq	-40(%rbp), %r9
	callq	getLuma4x4Neighbour
	cmpl	$0, -40(%rbp)
	je	.LBB48_10
# %bb.7:                                # %land.lhs.true17
	movq	active_pps, %rax
	cmpl	$0, 224(%rax)
	je	.LBB48_10
# %bb.8:                                # %land.lhs.true20
	movq	input, %rax
	cmpl	$0, 2364(%rax)
	je	.LBB48_10
# %bb.9:                                # %if.then23
	movq	img, %rax
	movq	71784(%rax), %rax
	movslq	-36(%rbp), %rcx
	movl	(%rax,%rcx,4), %eax
	andl	-40(%rbp), %eax
	movl	%eax, -40(%rbp)
.LBB48_10:                              # %if.end30
	cmpl	$0, -40(%rbp)
	je	.LBB48_12
# %bb.11:                               # %if.then33
	movq	img, %rax
	movq	128(%rax), %rax
	movslq	-36(%rbp), %rcx
	movq	(%rax,%rcx,8), %rax
	movslq	-32(%rbp), %rcx
	movq	(%rax,%rcx,8), %rax
	movslq	-28(%rbp), %rcx
	movl	(%rax,%rcx,4), %eax
	addl	-12(%rbp), %eax
	movl	%eax, -12(%rbp)
	movl	-16(%rbp), %eax
	addl	$1, %eax
	movl	%eax, -16(%rbp)
.LBB48_12:                              # %if.end45
	cmpl	$2, -16(%rbp)
	jne	.LBB48_14
# %bb.13:                               # %if.then47
	movl	-12(%rbp), %eax
	addl	$1, %eax
	movl	%eax, -12(%rbp)
	movl	-16(%rbp), %ecx
	movl	-12(%rbp), %eax
	cltd
	idivl	%ecx
	movl	%eax, -12(%rbp)
.LBB48_14:                              # %if.end49
	movl	-12(%rbp), %ebx
	cmpl	$1642999259, -56(%rbp)  # imm = 0x61EE2DDB
	jne	.LBB48_16
.LBB48_15:
	movl	%ebx, %eax
	addq	$56, %rsp
	popq	%rbx
	popq	%rbp
	.cfi_def_cfa %rsp, 8
	retq
.LBB48_16:                              # %func_exit
	.cfi_def_cfa %rbp, 16
	callq	detect_breach
	jmp	.LBB48_15
.Lfunc_end48:
	.size	predict_nnz.7, .Lfunc_end48-predict_nnz.7
	.cfi_endproc
                                        # -- End function
	.globl	LumaPrediction4x4.8     # -- Begin function LumaPrediction4x4.8
	.p2align	4, 0x90
	.type	LumaPrediction4x4.8,@function
LumaPrediction4x4.8:                    # @LumaPrediction4x4.8
	.cfi_startproc
# %bb.0:                                # %entry
	pushq	%rbp
	.cfi_def_cfa_offset 16
	.cfi_offset %rbp, -16
	movq	%rsp, %rbp
	.cfi_def_cfa_register %rbp
	subq	$112, %rsp
	movw	16(%rbp), %ax
	movl	$1616287479, -100(%rbp) # imm = 0x605696F7
	movl	%edi, -16(%rbp)
	movl	%esi, -24(%rbp)
	movl	%edx, -20(%rbp)
	movl	%ecx, -60(%rbp)
	movl	%r8d, -64(%rbp)
	movw	%r9w, -10(%rbp)
	movl	-16(%rbp), %eax
	addl	$4, %eax
	movl	%eax, -28(%rbp)
	movl	-24(%rbp), %eax
	addl	$4, %eax
	movl	%eax, -32(%rbp)
	movq	img, %rax
	movl	168(%rax), %eax
	addl	-16(%rbp), %eax
	movl	%eax, -76(%rbp)
	movq	img, %rax
	movl	172(%rax), %eax
	addl	-24(%rbp), %eax
	movl	%eax, -52(%rbp)
	movl	-16(%rbp), %eax
	sarl	$2, %eax
	movl	%eax, -72(%rbp)
	movl	-24(%rbp), %eax
	sarl	$2, %eax
	movl	%eax, -56(%rbp)
	movabsq	$LumaPrediction4x4.fw_pred, %rax
	movq	%rax, -40(%rbp)
	movabsq	$LumaPrediction4x4.bw_pred, %rax
	movq	%rax, -48(%rbp)
	movq	img, %rax
	movq	14168(%rax), %rax
	movq	img, %rcx
	movslq	12(%rcx), %rcx
	imulq	$632, %rcx, %rcx        # imm = 0x278
	addq	%rcx, %rax
	movq	%rax, -96(%rbp)
	movq	active_pps, %rax
	cmpl	$0, 192(%rax)
	je	.LBB49_3
# %bb.1:                                # %land.lhs.true
	movq	img, %rax
	cmpl	$0, 24(%rax)
	movb	$1, %al
	je	.LBB49_6
# %bb.2:                                # %lor.lhs.false
	movq	img, %rax
	cmpl	$3, 24(%rax)
	movb	$1, %al
	je	.LBB49_6
.LBB49_3:                               # %lor.rhs
	xorl	%eax, %eax
	movq	active_pps, %rcx
	cmpl	$0, 196(%rcx)
	je	.LBB49_5
# %bb.4:                                # %land.rhs
	movq	img, %rax
	cmpl	$1, 24(%rax)
	sete	%al
.LBB49_5:                               # %land.end
.LBB49_6:                               # %lor.end
	andb	$1, %al
	movzbl	%al, %eax
	movl	%eax, -104(%rbp)
	movq	img, %rax
	movq	71928(%rax), %rax
	movq	%rax, -88(%rbp)
	movq	img, %rax
	cmpl	$0, 72400(%rax)
	je	.LBB49_9
# %bb.7:                                # %land.lhs.true11
	movq	-96(%rbp), %rax
	cmpl	$0, 532(%rax)
	je	.LBB49_9
# %bb.8:                                # %cond.true
	movq	img, %rax
	movl	12(%rax), %eax
	cltd
	movl	$2, %ecx
	idivl	%ecx
	cmpl	$0, %edx
	movl	$4, %eax
	cmovnel	%eax, %ecx
	jmp	.LBB49_10
.LBB49_9:                               # %cond.false
	xorl	%ecx, %ecx
	jmp	.LBB49_10
.LBB49_10:                              # %cond.end
	movl	%ecx, -68(%rbp)
	movq	-96(%rbp), %rax
	cmpl	$0, 580(%rax)
	je	.LBB49_20
# %bb.11:                               # %land.lhs.true17
	movswl	-10(%rbp), %eax
	cmpl	$0, %eax
	jne	.LBB49_20
# %bb.12:                               # %land.lhs.true20
	movswl	16(%rbp), %eax
	cmpl	$0, %eax
	jne	.LBB49_20
# %bb.13:                               # %land.lhs.true24
	cmpl	$2, -20(%rbp)
	jne	.LBB49_20
# %bb.14:                               # %land.lhs.true27
	cmpl	$1, -60(%rbp)
	jne	.LBB49_20
# %bb.15:                               # %land.lhs.true30
	cmpl	$1, -64(%rbp)
	jne	.LBB49_20
# %bb.16:                               # %if.then
	movq	-96(%rbp), %rax
	cmpl	$1, 580(%rax)
	jne	.LBB49_18
# %bb.17:                               # %cond.true36
	movq	img, %rax
	movq	71936(%rax), %rax
	jmp	.LBB49_19
.LBB49_18:                              # %cond.false37
	movq	img, %rax
	movq	71944(%rax), %rax
.LBB49_19:                              # %cond.end38
	movq	%rax, -88(%rbp)
.LBB49_20:                              # %if.end
	cmpl	$0, -20(%rbp)
	je	.LBB49_22
# %bb.21:                               # %lor.lhs.false42
	cmpl	$2, -20(%rbp)
	jne	.LBB49_23
.LBB49_22:                              # %if.then45
	movl	-76(%rbp), %esi
	movl	-52(%rbp), %edx
	movq	-88(%rbp), %rax
	movslq	-72(%rbp), %rcx
	movq	(%rax,%rcx,8), %rax
	movslq	-56(%rbp), %rcx
	movq	(%rax,%rcx,8), %rax
	movq	(%rax), %rax
	movswq	-10(%rbp), %rcx
	movq	(%rax,%rcx,8), %rax
	movslq	-60(%rbp), %rcx
	movq	(%rax,%rcx,8), %rcx
	movw	-10(%rbp), %ax
	movl	-68(%rbp), %edi
	addl	$0, %edi
	movslq	%edi, %rdi
	movq	listX(,%rdi,8), %r9
	movabsq	$LumaPrediction4x4.fw_pred, %rdi
	movswl	%ax, %r8d
	callq	OneComponentLumaPrediction4x4
.LBB49_23:                              # %if.end58
	cmpl	$1, -20(%rbp)
	je	.LBB49_25
# %bb.24:                               # %lor.lhs.false61
	cmpl	$2, -20(%rbp)
	jne	.LBB49_26
.LBB49_25:                              # %if.then64
	movl	-76(%rbp), %esi
	movl	-52(%rbp), %edx
	movq	-88(%rbp), %rax
	movslq	-72(%rbp), %rcx
	movq	(%rax,%rcx,8), %rax
	movslq	-56(%rbp), %rcx
	movq	(%rax,%rcx,8), %rax
	movq	8(%rax), %rax
	movswq	16(%rbp), %rcx
	movq	(%rax,%rcx,8), %rax
	movslq	-64(%rbp), %rcx
	movq	(%rax,%rcx,8), %rcx
	movw	16(%rbp), %ax
	movl	-68(%rbp), %edi
	addl	$1, %edi
	movslq	%edi, %rdi
	movq	listX(,%rdi,8), %r9
	movabsq	$LumaPrediction4x4.bw_pred, %rdi
	movswl	%ax, %r8d
	callq	OneComponentLumaPrediction4x4
.LBB49_26:                              # %if.end77
	cmpl	$0, -104(%rbp)
	je	.LBB49_58
# %bb.27:                               # %if.then79
	cmpl	$2, -20(%rbp)
	jne	.LBB49_37
# %bb.28:                               # %if.then82
	movl	-24(%rbp), %eax
	movl	%eax, -4(%rbp)
.LBB49_29:                              # %for.cond
                                        # =>This Loop Header: Depth=1
                                        #     Child Loop BB49_31 Depth 2
	movl	-4(%rbp), %eax
	cmpl	-32(%rbp), %eax
	jge	.LBB49_36
# %bb.30:                               # %for.body
                                        #   in Loop: Header=BB49_29 Depth=1
	movl	-16(%rbp), %eax
	movl	%eax, -8(%rbp)
.LBB49_31:                              # %for.cond85
                                        #   Parent Loop BB49_29 Depth=1
                                        # =>  This Inner Loop Header: Depth=2
	movl	-8(%rbp), %eax
	cmpl	-28(%rbp), %eax
	jge	.LBB49_34
# %bb.32:                               # %for.body88
                                        #   in Loop: Header=BB49_31 Depth=2
	movq	wbp_weight, %rax
	movq	(%rax), %rax
	movswq	-10(%rbp), %rcx
	movq	(%rax,%rcx,8), %rax
	movswq	16(%rbp), %rcx
	movq	(%rax,%rcx,8), %rax
	movl	(%rax), %edi
	movq	-40(%rbp), %rax
	movq	%rax, %rcx
	addq	$4, %rcx
	movq	%rcx, -40(%rbp)
	imull	(%rax), %edi
	movq	wbp_weight, %rax
	movq	8(%rax), %rax
	movswq	-10(%rbp), %rcx
	movq	(%rax,%rcx,8), %rax
	movswq	16(%rbp), %rcx
	movq	(%rax,%rcx,8), %rax
	movl	(%rax), %eax
	movq	-48(%rbp), %rcx
	movq	%rcx, %rdx
	addq	$4, %rdx
	movq	%rdx, -48(%rbp)
	imull	(%rcx), %eax
	addl	%eax, %edi
	movl	wp_luma_round, %eax
	shll	$1, %eax
	addl	%eax, %edi
	movl	luma_log_weight_denom, %ecx
	addl	$1, %ecx
                                        # kill: def $cl killed $ecx
	sarl	%cl, %edi
	movq	wp_offset, %rax
	movq	(%rax), %rax
	movswq	-10(%rbp), %rcx
	movq	(%rax,%rcx,8), %rax
	movl	(%rax), %eax
	movq	wp_offset, %rcx
	movq	8(%rcx), %rcx
	movswq	16(%rbp), %rdx
	movq	(%rcx,%rdx,8), %rcx
	addl	(%rcx), %eax
	addl	$1, %eax
	sarl	$1, %eax
	addl	%eax, %edi
	callq	clip1a
	movq	img, %rcx
	addq	$12600, %rcx            # imm = 0x3138
	movslq	-8(%rbp), %rdx
	shlq	$5, %rdx
	addq	%rdx, %rcx
	movslq	-4(%rbp), %rdx
	movw	%ax, (%rcx,%rdx,2)
# %bb.33:                               # %for.inc
                                        #   in Loop: Header=BB49_31 Depth=2
	movl	-8(%rbp), %eax
	addl	$1, %eax
	movl	%eax, -8(%rbp)
	jmp	.LBB49_31
.LBB49_34:                              # %for.end
                                        #   in Loop: Header=BB49_29 Depth=1
	jmp	.LBB49_35
.LBB49_35:                              # %for.inc125
                                        #   in Loop: Header=BB49_29 Depth=1
	movl	-4(%rbp), %eax
	addl	$1, %eax
	movl	%eax, -4(%rbp)
	jmp	.LBB49_29
.LBB49_36:                              # %for.end127
	jmp	.LBB49_57
.LBB49_37:                              # %if.else
	cmpl	$0, -20(%rbp)
	jne	.LBB49_47
# %bb.38:                               # %if.then130
	movl	-24(%rbp), %eax
	movl	%eax, -4(%rbp)
.LBB49_39:                              # %for.cond131
                                        # =>This Loop Header: Depth=1
                                        #     Child Loop BB49_41 Depth 2
	movl	-4(%rbp), %eax
	cmpl	-32(%rbp), %eax
	jge	.LBB49_46
# %bb.40:                               # %for.body134
                                        #   in Loop: Header=BB49_39 Depth=1
	movl	-16(%rbp), %eax
	movl	%eax, -8(%rbp)
.LBB49_41:                              # %for.cond135
                                        #   Parent Loop BB49_39 Depth=1
                                        # =>  This Inner Loop Header: Depth=2
	movl	-8(%rbp), %eax
	cmpl	-28(%rbp), %eax
	jge	.LBB49_44
# %bb.42:                               # %for.body138
                                        #   in Loop: Header=BB49_41 Depth=2
	movq	wp_weight, %rax
	movq	(%rax), %rax
	movswq	-10(%rbp), %rcx
	movq	(%rax,%rcx,8), %rax
	movl	(%rax), %edi
	movq	-40(%rbp), %rax
	movq	%rax, %rcx
	addq	$4, %rcx
	movq	%rcx, -40(%rbp)
	imull	(%rax), %edi
	addl	wp_luma_round, %edi
	movl	luma_log_weight_denom, %ecx
                                        # kill: def $cl killed $ecx
	sarl	%cl, %edi
	movq	wp_offset, %rax
	movq	(%rax), %rax
	movswq	-10(%rbp), %rcx
	movq	(%rax,%rcx,8), %rax
	addl	(%rax), %edi
	callq	clip1a
	movq	img, %rcx
	addq	$12600, %rcx            # imm = 0x3138
	movslq	-8(%rbp), %rdx
	shlq	$5, %rdx
	addq	%rdx, %rcx
	movslq	-4(%rbp), %rdx
	movw	%ax, (%rcx,%rdx,2)
# %bb.43:                               # %for.inc159
                                        #   in Loop: Header=BB49_41 Depth=2
	movl	-8(%rbp), %eax
	addl	$1, %eax
	movl	%eax, -8(%rbp)
	jmp	.LBB49_41
.LBB49_44:                              # %for.end161
                                        #   in Loop: Header=BB49_39 Depth=1
	jmp	.LBB49_45
.LBB49_45:                              # %for.inc162
                                        #   in Loop: Header=BB49_39 Depth=1
	movl	-4(%rbp), %eax
	addl	$1, %eax
	movl	%eax, -4(%rbp)
	jmp	.LBB49_39
.LBB49_46:                              # %for.end164
	jmp	.LBB49_56
.LBB49_47:                              # %if.else165
	movl	-24(%rbp), %eax
	movl	%eax, -4(%rbp)
.LBB49_48:                              # %for.cond166
                                        # =>This Loop Header: Depth=1
                                        #     Child Loop BB49_50 Depth 2
	movl	-4(%rbp), %eax
	cmpl	-32(%rbp), %eax
	jge	.LBB49_55
# %bb.49:                               # %for.body169
                                        #   in Loop: Header=BB49_48 Depth=1
	movl	-16(%rbp), %eax
	movl	%eax, -8(%rbp)
.LBB49_50:                              # %for.cond170
                                        #   Parent Loop BB49_48 Depth=1
                                        # =>  This Inner Loop Header: Depth=2
	movl	-8(%rbp), %eax
	cmpl	-28(%rbp), %eax
	jge	.LBB49_53
# %bb.51:                               # %for.body173
                                        #   in Loop: Header=BB49_50 Depth=2
	movq	wp_weight, %rax
	movq	8(%rax), %rax
	movswq	16(%rbp), %rcx
	movq	(%rax,%rcx,8), %rax
	movl	(%rax), %edi
	movq	-48(%rbp), %rax
	movq	%rax, %rcx
	addq	$4, %rcx
	movq	%rcx, -48(%rbp)
	imull	(%rax), %edi
	addl	wp_luma_round, %edi
	movl	luma_log_weight_denom, %ecx
                                        # kill: def $cl killed $ecx
	sarl	%cl, %edi
	movq	wp_offset, %rax
	movq	8(%rax), %rax
	movswq	16(%rbp), %rcx
	movq	(%rax,%rcx,8), %rax
	addl	(%rax), %edi
	callq	clip1a
	movq	img, %rcx
	addq	$12600, %rcx            # imm = 0x3138
	movslq	-8(%rbp), %rdx
	shlq	$5, %rdx
	addq	%rdx, %rcx
	movslq	-4(%rbp), %rdx
	movw	%ax, (%rcx,%rdx,2)
# %bb.52:                               # %for.inc194
                                        #   in Loop: Header=BB49_50 Depth=2
	movl	-8(%rbp), %eax
	addl	$1, %eax
	movl	%eax, -8(%rbp)
	jmp	.LBB49_50
.LBB49_53:                              # %for.end196
                                        #   in Loop: Header=BB49_48 Depth=1
	jmp	.LBB49_54
.LBB49_54:                              # %for.inc197
                                        #   in Loop: Header=BB49_48 Depth=1
	movl	-4(%rbp), %eax
	addl	$1, %eax
	movl	%eax, -4(%rbp)
	jmp	.LBB49_48
.LBB49_55:                              # %for.end199
	jmp	.LBB49_56
.LBB49_56:                              # %if.end200
	jmp	.LBB49_57
.LBB49_57:                              # %if.end201
	jmp	.LBB49_89
.LBB49_58:                              # %if.else202
	cmpl	$2, -20(%rbp)
	jne	.LBB49_68
# %bb.59:                               # %if.then205
	movl	-24(%rbp), %eax
	movl	%eax, -4(%rbp)
.LBB49_60:                              # %for.cond206
                                        # =>This Loop Header: Depth=1
                                        #     Child Loop BB49_62 Depth 2
	movl	-4(%rbp), %eax
	cmpl	-32(%rbp), %eax
	jge	.LBB49_67
# %bb.61:                               # %for.body209
                                        #   in Loop: Header=BB49_60 Depth=1
	movl	-16(%rbp), %eax
	movl	%eax, -8(%rbp)
.LBB49_62:                              # %for.cond210
                                        #   Parent Loop BB49_60 Depth=1
                                        # =>  This Inner Loop Header: Depth=2
	movl	-8(%rbp), %eax
	cmpl	-28(%rbp), %eax
	jge	.LBB49_65
# %bb.63:                               # %for.body213
                                        #   in Loop: Header=BB49_62 Depth=2
	movq	-40(%rbp), %rax
	movq	%rax, %rcx
	addq	$4, %rcx
	movq	%rcx, -40(%rbp)
	movl	(%rax), %eax
	movq	-48(%rbp), %rcx
	movq	%rcx, %rdx
	addq	$4, %rdx
	movq	%rdx, -48(%rbp)
	addl	(%rcx), %eax
	addl	$1, %eax
	cltd
	movl	$2, %ecx
	idivl	%ecx
	movq	img, %rcx
	addq	$12600, %rcx            # imm = 0x3138
	movslq	-8(%rbp), %rdx
	shlq	$5, %rdx
	addq	%rdx, %rcx
	movslq	-4(%rbp), %rdx
	movw	%ax, (%rcx,%rdx,2)
# %bb.64:                               # %for.inc224
                                        #   in Loop: Header=BB49_62 Depth=2
	movl	-8(%rbp), %eax
	addl	$1, %eax
	movl	%eax, -8(%rbp)
	jmp	.LBB49_62
.LBB49_65:                              # %for.end226
                                        #   in Loop: Header=BB49_60 Depth=1
	jmp	.LBB49_66
.LBB49_66:                              # %for.inc227
                                        #   in Loop: Header=BB49_60 Depth=1
	movl	-4(%rbp), %eax
	addl	$1, %eax
	movl	%eax, -4(%rbp)
	jmp	.LBB49_60
.LBB49_67:                              # %for.end229
	jmp	.LBB49_88
.LBB49_68:                              # %if.else230
	cmpl	$0, -20(%rbp)
	jne	.LBB49_78
# %bb.69:                               # %if.then233
	movl	-24(%rbp), %eax
	movl	%eax, -4(%rbp)
.LBB49_70:                              # %for.cond234
                                        # =>This Loop Header: Depth=1
                                        #     Child Loop BB49_72 Depth 2
	movl	-4(%rbp), %eax
	cmpl	-32(%rbp), %eax
	jge	.LBB49_77
# %bb.71:                               # %for.body237
                                        #   in Loop: Header=BB49_70 Depth=1
	movl	-16(%rbp), %eax
	movl	%eax, -8(%rbp)
.LBB49_72:                              # %for.cond238
                                        #   Parent Loop BB49_70 Depth=1
                                        # =>  This Inner Loop Header: Depth=2
	movl	-8(%rbp), %eax
	cmpl	-28(%rbp), %eax
	jge	.LBB49_75
# %bb.73:                               # %for.body241
                                        #   in Loop: Header=BB49_72 Depth=2
	movq	-40(%rbp), %rax
	movq	%rax, %rcx
	addq	$4, %rcx
	movq	%rcx, -40(%rbp)
	movl	(%rax), %eax
	movq	img, %rcx
	addq	$12600, %rcx            # imm = 0x3138
	movslq	-8(%rbp), %rdx
	shlq	$5, %rdx
	addq	%rdx, %rcx
	movslq	-4(%rbp), %rdx
	movw	%ax, (%rcx,%rdx,2)
# %bb.74:                               # %for.inc249
                                        #   in Loop: Header=BB49_72 Depth=2
	movl	-8(%rbp), %eax
	addl	$1, %eax
	movl	%eax, -8(%rbp)
	jmp	.LBB49_72
.LBB49_75:                              # %for.end251
                                        #   in Loop: Header=BB49_70 Depth=1
	jmp	.LBB49_76
.LBB49_76:                              # %for.inc252
                                        #   in Loop: Header=BB49_70 Depth=1
	movl	-4(%rbp), %eax
	addl	$1, %eax
	movl	%eax, -4(%rbp)
	jmp	.LBB49_70
.LBB49_77:                              # %for.end254
	jmp	.LBB49_87
.LBB49_78:                              # %if.else255
	movl	-24(%rbp), %eax
	movl	%eax, -4(%rbp)
.LBB49_79:                              # %for.cond256
                                        # =>This Loop Header: Depth=1
                                        #     Child Loop BB49_81 Depth 2
	movl	-4(%rbp), %eax
	cmpl	-32(%rbp), %eax
	jge	.LBB49_86
# %bb.80:                               # %for.body259
                                        #   in Loop: Header=BB49_79 Depth=1
	movl	-16(%rbp), %eax
	movl	%eax, -8(%rbp)
.LBB49_81:                              # %for.cond260
                                        #   Parent Loop BB49_79 Depth=1
                                        # =>  This Inner Loop Header: Depth=2
	movl	-8(%rbp), %eax
	cmpl	-28(%rbp), %eax
	jge	.LBB49_84
# %bb.82:                               # %for.body263
                                        #   in Loop: Header=BB49_81 Depth=2
	movq	-48(%rbp), %rax
	movq	%rax, %rcx
	addq	$4, %rcx
	movq	%rcx, -48(%rbp)
	movl	(%rax), %eax
	movq	img, %rcx
	addq	$12600, %rcx            # imm = 0x3138
	movslq	-8(%rbp), %rdx
	shlq	$5, %rdx
	addq	%rdx, %rcx
	movslq	-4(%rbp), %rdx
	movw	%ax, (%rcx,%rdx,2)
# %bb.83:                               # %for.inc271
                                        #   in Loop: Header=BB49_81 Depth=2
	movl	-8(%rbp), %eax
	addl	$1, %eax
	movl	%eax, -8(%rbp)
	jmp	.LBB49_81
.LBB49_84:                              # %for.end273
                                        #   in Loop: Header=BB49_79 Depth=1
	jmp	.LBB49_85
.LBB49_85:                              # %for.inc274
                                        #   in Loop: Header=BB49_79 Depth=1
	movl	-4(%rbp), %eax
	addl	$1, %eax
	movl	%eax, -4(%rbp)
	jmp	.LBB49_79
.LBB49_86:                              # %for.end276
	jmp	.LBB49_87
.LBB49_87:                              # %if.end277
	jmp	.LBB49_88
.LBB49_88:                              # %if.end278
	jmp	.LBB49_89
.LBB49_89:                              # %if.end279
	cmpl	$1616287479, -100(%rbp) # imm = 0x605696F7
	jne	.LBB49_91
.LBB49_90:
	addq	$112, %rsp
	popq	%rbp
	.cfi_def_cfa %rsp, 8
	retq
.LBB49_91:                              # %func_exit
	.cfi_def_cfa %rbp, 16
	callq	detect_breach
	jmp	.LBB49_90
.Lfunc_end49:
	.size	LumaPrediction4x4.8, .Lfunc_end49-LumaPrediction4x4.8
	.cfi_endproc
                                        # -- End function
	.globl	start_macroblock.9      # -- Begin function start_macroblock.9
	.p2align	4, 0x90
	.type	start_macroblock.9,@function
start_macroblock.9:                     # @start_macroblock.9
	.cfi_startproc
# %bb.0:                                # %entry
	pushq	%rbp
	.cfi_def_cfa_offset 16
	.cfi_offset %rbp, -16
	movq	%rsp, %rbp
	.cfi_def_cfa_register %rbp
	subq	$112, %rsp
	movl	$902269097, -88(%rbp)   # imm = 0x35C788A9
	movl	%edi, -48(%rbp)
	movl	%esi, -68(%rbp)
	movq	input, %rax
	cmpl	$2, 208(%rax)
	movb	$1, %al
	je	.LBB50_2
# %bb.1:                                # %lor.rhs
	movq	input, %rax
	cmpl	$3, 208(%rax)
	sete	%al
.LBB50_2:                               # %lor.end
	andb	$1, %al
	movzbl	%al, %eax
	movl	%eax, -84(%rbp)
	movq	img, %rax
	movq	14168(%rax), %rax
	movslq	-48(%rbp), %rcx
	imulq	$632, %rcx, %rcx        # imm = 0x278
	addq	%rcx, %rax
	movq	%rax, -8(%rbp)
	movq	img, %rax
	movq	14160(%rax), %rax
	movq	%rax, -80(%rbp)
	movq	img, %rax
	movl	72668(%rax), %eax
	cltd
	movl	$2, %ecx
	idivl	%ecx
	addl	$25, %eax
	movl	%eax, -40(%rbp)
	movq	img, %rax
	movl	72668(%rax), %eax
	cltd
	idivl	%ecx
	addl	$26, %eax
	movl	%eax, -44(%rbp)
	movl	-68(%rbp), %eax
	movq	-8(%rbp), %rcx
	movl	%eax, 532(%rcx)
	movl	-68(%rbp), %eax
	movq	enc_picture, %rcx
	movq	6472(%rcx), %rcx
	movslq	-48(%rbp), %rdx
	movb	%al, (%rcx,%rdx)
	movl	-48(%rbp), %edi
	callq	set_MB_parameters
	cmpl	$0, -84(%rbp)
	je	.LBB50_12
# %bb.3:                                # %if.then
	movq	img, %rax
	cmpl	$0, 120(%rax)
	jne	.LBB50_11
# %bb.4:                                # %if.then11
	movl	$0, -12(%rbp)
.LBB50_5:                               # %for.cond
                                        # =>This Inner Loop Header: Depth=1
	movl	-12(%rbp), %eax
	movq	-80(%rbp), %rcx
	cmpl	16(%rcx), %eax
	jge	.LBB50_10
# %bb.6:                                # %for.body
                                        #   in Loop: Header=BB50_5 Depth=1
	movq	-80(%rbp), %rax
	movq	24(%rax), %rax
	movslq	-12(%rbp), %rcx
	imulq	$120, %rcx, %rcx
	addq	%rcx, %rax
	movq	%rax, -104(%rbp)
	movq	-104(%rbp), %rax
	movq	(%rax), %rax
	movq	%rax, -64(%rbp)
	movq	-64(%rbp), %rax
	movl	4(%rax), %eax
	movq	-64(%rbp), %rcx
	movl	%eax, 16(%rcx)
	movq	-64(%rbp), %rax
	movl	(%rax), %eax
	movq	-64(%rbp), %rcx
	movl	%eax, 12(%rcx)
	movq	-64(%rbp), %rax
	movb	8(%rax), %al
	movq	-64(%rbp), %rcx
	movb	%al, 20(%rcx)
	movq	input, %rax
	cmpl	$1, 2356(%rax)
	jne	.LBB50_8
# %bb.7:                                # %if.then18
                                        #   in Loop: Header=BB50_5 Depth=1
	movq	-104(%rbp), %rax
	addq	$8, %rax
	movq	%rax, -32(%rbp)
	movq	-32(%rbp), %rax
	movl	(%rax), %eax
	movq	-32(%rbp), %rcx
	movl	%eax, 40(%rcx)
	movq	-32(%rbp), %rax
	movl	4(%rax), %eax
	movq	-32(%rbp), %rcx
	movl	%eax, 44(%rcx)
	movq	-32(%rbp), %rax
	movl	8(%rax), %eax
	movq	-32(%rbp), %rcx
	movl	%eax, 48(%rcx)
	movq	-32(%rbp), %rax
	movl	12(%rax), %eax
	movq	-32(%rbp), %rcx
	movl	%eax, 52(%rcx)
	movq	-32(%rbp), %rax
	movl	16(%rax), %eax
	movq	-32(%rbp), %rcx
	movl	%eax, 56(%rcx)
	movq	-32(%rbp), %rax
	movq	24(%rax), %rax
	movq	-32(%rbp), %rcx
	movq	%rax, 64(%rcx)
	movq	-32(%rbp), %rax
	movq	32(%rax), %rax
	movq	-32(%rbp), %rcx
	movq	%rax, 72(%rcx)
	movq	-32(%rbp), %rax
	movl	80(%rax), %eax
	movq	-32(%rbp), %rcx
	movl	%eax, 84(%rcx)
	movq	-32(%rbp), %rax
	movl	96(%rax), %eax
	movq	-32(%rbp), %rcx
	movl	%eax, 100(%rcx)
	movq	-32(%rbp), %rax
	movl	88(%rax), %eax
	movq	-32(%rbp), %rcx
	movl	%eax, 92(%rcx)
.LBB50_8:                               # %if.end
                                        #   in Loop: Header=BB50_5 Depth=1
	jmp	.LBB50_9
.LBB50_9:                               # %for.inc
                                        #   in Loop: Header=BB50_5 Depth=1
	movl	-12(%rbp), %eax
	addl	$1, %eax
	movl	%eax, -12(%rbp)
	jmp	.LBB50_5
.LBB50_10:                              # %for.end
	jmp	.LBB50_11
.LBB50_11:                              # %if.end19
	jmp	.LBB50_12
.LBB50_12:                              # %if.end20
	movq	img, %rax
	movl	20(%rax), %eax
	movq	-8(%rbp), %rcx
	movl	%eax, 4(%rcx)
	movq	img, %rax
	movl	44(%rax), %eax
	movq	-8(%rbp), %rcx
	movl	%eax, 16(%rcx)
	movq	input, %rax
	cmpl	$0, 3236(%rax)
	je	.LBB50_98
# %bb.13:                               # %if.then23
	movq	img, %rax
	movl	12(%rax), %edi
	callq	FmoGetPreviousMBNr
	movl	%eax, -52(%rbp)
	cmpl	$-1, -52(%rbp)
	jle	.LBB50_15
# %bb.14:                               # %if.then26
	movq	img, %rax
	movq	14168(%rax), %rax
	movslq	-52(%rbp), %rcx
	imulq	$632, %rcx, %rcx        # imm = 0x278
	addq	%rcx, %rax
	movl	12(%rax), %eax
	movq	-8(%rbp), %rcx
	movl	%eax, 592(%rcx)
	movq	img, %rax
	movq	14168(%rax), %rax
	movslq	-52(%rbp), %rcx
	imulq	$632, %rcx, %rcx        # imm = 0x278
	addq	%rcx, %rax
	movl	8(%rax), %eax
	movq	-8(%rbp), %rcx
	movl	%eax, 596(%rcx)
	jmp	.LBB50_16
.LBB50_15:                              # %if.else
	movq	-80(%rbp), %rax
	movl	4(%rax), %eax
	movq	-8(%rbp), %rcx
	movl	%eax, 592(%rcx)
	movq	-8(%rbp), %rax
	movl	$0, 596(%rax)
.LBB50_16:                              # %if.end36
	movq	input, %rax
	movl	3248(%rax), %eax
	movq	img, %rcx
	cmpl	72608(%rcx), %eax
	jne	.LBB50_18
# %bb.17:                               # %if.then39
	movq	-8(%rbp), %rax
	movl	$0, 8(%rax)
	movq	img, %rax
	movl	40(%rax), %eax
	movq	-8(%rbp), %rcx
	movl	%eax, 12(%rcx)
	jmp	.LBB50_97
.LBB50_18:                              # %if.else43
	movq	img, %rax
	cmpl	$2, 24(%rax)
	je	.LBB50_20
# %bb.19:                               # %lor.lhs.false
	movq	img, %rax
	cmpl	$1, 24(%rax)
	jne	.LBB50_21
.LBB50_20:                              # %if.then49
	movq	-8(%rbp), %rax
	movl	$0, 8(%rax)
	movq	img, %rax
	movl	40(%rax), %eax
	movq	-8(%rbp), %rcx
	movl	%eax, 12(%rcx)
	jmp	.LBB50_96
.LBB50_21:                              # %if.else53
	movq	img, %rax
	cmpl	$0, 24(%rax)
	jne	.LBB50_95
# %bb.22:                               # %if.then57
	movq	img, %rax
	cmpl	$0, 72624(%rax)
	jne	.LBB50_40
# %bb.23:                               # %if.then59
	movq	-8(%rbp), %rax
	cmpl	$0, 532(%rax)
	jne	.LBB50_35
# %bb.24:                               # %if.then62
	movq	img, %rax
	cmpl	$0, 12(%rax)
	jne	.LBB50_26
# %bb.25:                               # %if.then66
	movq	-8(%rbp), %rax
	movl	$0, 8(%rax)
	movq	img, %rax
	movl	40(%rax), %eax
	movq	-8(%rbp), %rcx
	movl	%eax, 12(%rcx)
	movq	-8(%rbp), %rax
	movl	8(%rax), %eax
	movl	%eax, DELTA_QP2
	movl	%eax, DELTA_QP
	movq	-8(%rbp), %rax
	movl	12(%rax), %eax
	movl	%eax, QP2
	movl	%eax, QP
	jmp	.LBB50_34
.LBB50_26:                              # %if.else72
	movq	input, %rax
	cmpl	$0, 2884(%rax)
	je	.LBB50_28
# %bb.27:                               # %land.lhs.true
	movq	img, %rax
	cmpl	$0, 72628(%rax)
	jne	.LBB50_32
.LBB50_28:                              # %if.then75
	movq	img, %rax
	movq	14168(%rax), %rax
	movq	img, %rcx
	movl	12(%rcx), %ecx
	subl	$1, %ecx
	movslq	%ecx, %rcx
	imulq	$632, %rcx, %rcx        # imm = 0x278
	addq	%rcx, %rax
	cmpl	$1, 600(%rax)
	jne	.LBB50_30
# %bb.29:                               # %if.then82
	movq	-8(%rbp), %rax
	movl	$0, 8(%rax)
	movq	img, %rax
	movl	40(%rax), %eax
	movq	-8(%rbp), %rcx
	movl	%eax, 12(%rcx)
	jmp	.LBB50_31
.LBB50_30:                              # %if.else86
	movq	img, %rax
	movq	14168(%rax), %rax
	movq	img, %rcx
	movl	12(%rcx), %ecx
	subl	$1, %ecx
	movslq	%ecx, %rcx
	imulq	$632, %rcx, %rcx        # imm = 0x278
	addq	%rcx, %rax
	movl	592(%rax), %eax
	movq	-8(%rbp), %rcx
	movl	%eax, 12(%rcx)
	movq	-8(%rbp), %rax
	movl	12(%rax), %eax
	movq	img, %rcx
	movq	14168(%rcx), %rcx
	movq	img, %rdx
	movl	12(%rdx), %edx
	subl	$1, %edx
	movslq	%edx, %rdx
	imulq	$632, %rdx, %rdx        # imm = 0x278
	addq	%rdx, %rcx
	subl	12(%rcx), %eax
	movq	-8(%rbp), %rcx
	movl	%eax, 8(%rcx)
	movq	-8(%rbp), %rax
	movl	12(%rax), %eax
	movq	img, %rcx
	movl	%eax, 40(%rcx)
.LBB50_31:                              # %if.end105
	movq	-8(%rbp), %rax
	movl	8(%rax), %eax
	movl	%eax, DELTA_QP2
	movl	%eax, DELTA_QP
	movq	-8(%rbp), %rax
	movl	12(%rax), %eax
	movl	%eax, QP2
	movl	%eax, QP
	jmp	.LBB50_33
.LBB50_32:                              # %if.else108
	movq	-8(%rbp), %rax
	movl	$0, 8(%rax)
	movq	img, %rax
	movl	40(%rax), %eax
	movq	-8(%rbp), %rcx
	movl	%eax, 12(%rcx)
.LBB50_33:                              # %if.end112
	jmp	.LBB50_34
.LBB50_34:                              # %if.end113
	jmp	.LBB50_39
.LBB50_35:                              # %if.else114
	movq	img, %rax
	cmpl	$0, 72628(%rax)
	jne	.LBB50_37
# %bb.36:                               # %if.then117
	movl	DELTA_QP2, %eax
	movq	-8(%rbp), %rcx
	movl	%eax, 8(%rcx)
	movl	QP2, %eax
	movq	img, %rcx
	movl	%eax, 40(%rcx)
	movq	-8(%rbp), %rcx
	movl	%eax, 12(%rcx)
	jmp	.LBB50_38
.LBB50_37:                              # %if.else121
	movq	img, %rax
	movl	40(%rax), %eax
	movq	-8(%rbp), %rcx
	movl	%eax, 12(%rcx)
	movq	-8(%rbp), %rax
	movl	$0, 8(%rax)
.LBB50_38:                              # %if.end125
	jmp	.LBB50_39
.LBB50_39:                              # %if.end126
	jmp	.LBB50_47
.LBB50_40:                              # %if.else127
	movq	img, %rax
	cmpl	$0, 72628(%rax)
	jne	.LBB50_45
# %bb.41:                               # %if.then130
	movq	img, %rax
	cmpl	$0, 72632(%rax)
	je	.LBB50_43
# %bb.42:                               # %if.then132
	movl	DELTA_QP, %eax
	movq	-8(%rbp), %rcx
	movl	%eax, 8(%rcx)
	movl	QP, %eax
	movq	-8(%rbp), %rcx
	movl	%eax, 12(%rcx)
	movq	img, %rcx
	movl	%eax, 40(%rcx)
	jmp	.LBB50_44
.LBB50_43:                              # %if.else136
	movl	DELTA_QP2, %eax
	movq	-8(%rbp), %rcx
	movl	%eax, 8(%rcx)
	movl	QP2, %eax
	movq	-8(%rbp), %rcx
	movl	%eax, 12(%rcx)
	movq	img, %rcx
	movl	%eax, 40(%rcx)
.LBB50_44:                              # %if.end140
	jmp	.LBB50_46
.LBB50_45:                              # %if.else141
	movq	-8(%rbp), %rax
	movl	$0, 8(%rax)
	movq	img, %rax
	movl	40(%rax), %eax
	movq	-8(%rbp), %rcx
	movl	%eax, 12(%rcx)
.LBB50_46:                              # %if.end145
	jmp	.LBB50_47
.LBB50_47:                              # %if.end146
	movq	input, %rax
	cmpl	$0, 2884(%rax)
	je	.LBB50_49
# %bb.48:                               # %land.lhs.true149
	movq	img, %rax
	cmpl	$0, 72628(%rax)
	jne	.LBB50_93
.LBB50_49:                              # %if.then152
	movq	-8(%rbp), %rax
	cmpl	$0, 532(%rax)
	jne	.LBB50_91
# %bb.50:                               # %if.then155
	movq	img, %rax
	cmpl	$0, 72616(%rax)
	jle	.LBB50_75
# %bb.51:                               # %land.lhs.true158
	movq	img, %rax
	movl	72616(%rax), %eax
	movq	img, %rcx
	cltd
	idivl	72620(%rcx)
	cmpl	$0, %edx
	jne	.LBB50_75
# %bb.52:                               # %if.then162
	movq	active_sps, %rax
	cmpl	$0, 1148(%rax)
	je	.LBB50_54
# %bb.53:                               # %if.then164
	movb	$0, %al
	callq	updateRCModel
	movq	img, %rax
	movl	72596(%rax), %edi
	callq	updateQuantizationParameter
	movq	img, %rcx
	movl	%eax, 72592(%rcx)
	jmp	.LBB50_74
.LBB50_54:                              # %if.else166
	movq	input, %rax
	cmpl	$2, 2880(%rax)
	jne	.LBB50_58
# %bb.55:                               # %land.lhs.true169
	movq	input, %rax
	cmpl	$0, 2884(%rax)
	jne	.LBB50_58
# %bb.56:                               # %land.lhs.true172
	movq	img, %rax
	cmpl	$0, 72612(%rax)
	jne	.LBB50_58
# %bb.57:                               # %if.then175
	movb	$0, %al
	callq	updateRCModel
	movq	img, %rax
	movl	72596(%rax), %edi
	callq	updateQuantizationParameter
	movq	img, %rcx
	movl	%eax, 72592(%rcx)
	jmp	.LBB50_73
.LBB50_58:                              # %if.else179
	movq	input, %rax
	cmpl	$1, 2880(%rax)
	jne	.LBB50_62
# %bb.59:                               # %land.lhs.true183
	movq	input, %rax
	cmpl	$0, 2884(%rax)
	jne	.LBB50_62
# %bb.60:                               # %land.lhs.true186
	movq	img, %rax
	cmpl	$0, 72612(%rax)
	jne	.LBB50_62
# %bb.61:                               # %if.then190
	movb	$0, %al
	callq	updateRCModel
	movq	img, %rax
	movl	72596(%rax), %edi
	callq	updateQuantizationParameter
	movq	img, %rcx
	movl	%eax, 72592(%rcx)
	jmp	.LBB50_72
.LBB50_62:                              # %if.else194
	movq	input, %rax
	cmpl	$0, 2884(%rax)
	je	.LBB50_66
# %bb.63:                               # %land.lhs.true197
	movq	img, %rax
	cmpl	$0, 72612(%rax)
	jne	.LBB50_66
# %bb.64:                               # %land.lhs.true201
	movq	img, %rax
	cmpl	$1, 72600(%rax)
	jne	.LBB50_66
# %bb.65:                               # %if.then204
	movb	$0, %al
	callq	updateRCModel
	movq	img, %rax
	movl	72596(%rax), %edi
	callq	updateQuantizationParameter
	movq	img, %rcx
	movl	%eax, 72592(%rcx)
	jmp	.LBB50_71
.LBB50_66:                              # %if.else208
	movq	input, %rax
	cmpl	$0, 2884(%rax)
	je	.LBB50_70
# %bb.67:                               # %land.lhs.true211
	movq	img, %rax
	cmpl	$0, 72612(%rax)
	jne	.LBB50_70
# %bb.68:                               # %land.lhs.true215
	movq	img, %rax
	cmpl	$0, 72600(%rax)
	jne	.LBB50_70
# %bb.69:                               # %if.then219
	movb	$0, %al
	callq	updateRCModel
	movq	img, %rax
	movl	72596(%rax), %edi
	callq	updateQuantizationParameter
	movq	img, %rcx
	movl	%eax, 72592(%rcx)
.LBB50_70:                              # %if.end223
	jmp	.LBB50_71
.LBB50_71:                              # %if.end224
	jmp	.LBB50_72
.LBB50_72:                              # %if.end225
	jmp	.LBB50_73
.LBB50_73:                              # %if.end226
	jmp	.LBB50_74
.LBB50_74:                              # %if.end227
	jmp	.LBB50_75
.LBB50_75:                              # %if.end228
	movq	img, %rax
	cmpl	$0, 12(%rax)
	jne	.LBB50_77
# %bb.76:                               # %if.then232
	movq	img, %rax
	movl	40(%rax), %eax
	movq	img, %rcx
	movl	%eax, 72592(%rcx)
.LBB50_77:                              # %if.end235
	movq	img, %rax
	movl	72592(%rax), %eax
	movq	-8(%rbp), %rcx
	movl	%eax, 604(%rcx)
	movq	-8(%rbp), %rax
	movl	604(%rax), %eax
	movq	-8(%rbp), %rcx
	movl	12(%rcx), %ecx
	addl	-40(%rbp), %ecx
	cmpl	%ecx, %eax
	jle	.LBB50_79
# %bb.78:                               # %if.then242
	movq	-8(%rbp), %rax
	movl	12(%rax), %eax
	addl	-40(%rbp), %eax
	movq	-8(%rbp), %rcx
	movl	%eax, 604(%rcx)
	jmp	.LBB50_82
.LBB50_79:                              # %if.else246
	movq	-8(%rbp), %rax
	movl	604(%rax), %eax
	movq	-8(%rbp), %rcx
	movl	12(%rcx), %ecx
	subl	-44(%rbp), %ecx
	cmpl	%ecx, %eax
	jge	.LBB50_81
# %bb.80:                               # %if.then252
	movq	-8(%rbp), %rax
	movl	12(%rax), %eax
	subl	-44(%rbp), %eax
	movq	-8(%rbp), %rcx
	movl	%eax, 604(%rcx)
.LBB50_81:                              # %if.end256
	jmp	.LBB50_82
.LBB50_82:                              # %if.end257
	xorl	%eax, %eax
	movq	-8(%rbp), %rcx
	movl	8(%rcx), %ecx
	movq	-8(%rbp), %rdx
	addl	604(%rdx), %ecx
	movq	-8(%rbp), %rdx
	subl	12(%rdx), %ecx
	movl	%ecx, dq
	movl	dq, %ecx
	subl	-44(%rbp), %eax
	cmpl	%eax, %ecx
	jge	.LBB50_84
# %bb.83:                               # %if.then266
	xorl	%eax, %eax
	xorl	%ecx, %ecx
	subl	-44(%rbp), %ecx
	movl	%ecx, dq
	movl	dq, %ecx
	movq	-8(%rbp), %rdx
	subl	8(%rdx), %ecx
	movl	%ecx, predict_error
	movq	img, %rcx
	movl	40(%rcx), %ecx
	addl	predict_error, %ecx
	movq	img, %rdx
	movl	%ecx, 40(%rdx)
	subl	-44(%rbp), %eax
	movq	-8(%rbp), %rcx
	movl	%eax, 8(%rcx)
	jmp	.LBB50_88
.LBB50_84:                              # %if.else275
	movl	dq, %eax
	cmpl	-40(%rbp), %eax
	jle	.LBB50_86
# %bb.85:                               # %if.then278
	movl	-40(%rbp), %eax
	movl	%eax, dq
	movl	dq, %eax
	movq	-8(%rbp), %rcx
	subl	8(%rcx), %eax
	movl	%eax, predict_error
	movq	img, %rax
	movl	40(%rax), %eax
	addl	predict_error, %eax
	movq	img, %rcx
	movl	%eax, 40(%rcx)
	movl	-40(%rbp), %eax
	movq	-8(%rbp), %rcx
	movl	%eax, 8(%rcx)
	jmp	.LBB50_87
.LBB50_86:                              # %if.else285
	movl	dq, %eax
	movq	-8(%rbp), %rcx
	movl	%eax, 8(%rcx)
	movq	-8(%rbp), %rax
	movl	604(%rax), %eax
	movq	-8(%rbp), %rcx
	subl	12(%rcx), %eax
	movl	%eax, predict_error
	movq	-8(%rbp), %rax
	movl	604(%rax), %eax
	movq	img, %rcx
	movl	%eax, 40(%rcx)
.LBB50_87:                              # %if.end292
	jmp	.LBB50_88
.LBB50_88:                              # %if.end293
	movq	img, %rax
	movl	40(%rax), %eax
	movq	-8(%rbp), %rcx
	movl	%eax, 12(%rcx)
	movq	input, %rax
	cmpl	$0, 2884(%rax)
	je	.LBB50_90
# %bb.89:                               # %if.then298
	movq	-8(%rbp), %rax
	movl	8(%rax), %eax
	movl	%eax, DELTA_QP2
	movl	%eax, DELTA_QP
	movq	-8(%rbp), %rax
	movl	12(%rax), %eax
	movl	%eax, QP2
	movl	%eax, QP
	movq	-8(%rbp), %rax
	movl	8(%rax), %eax
	movl	%eax, DELTA_QP2
.LBB50_90:                              # %if.end302
	movl	predict_error, %eax
	movq	-8(%rbp), %rcx
	movl	%eax, 608(%rcx)
	jmp	.LBB50_92
.LBB50_91:                              # %if.else303
	movq	-8(%rbp), %rax
	movl	608(%rax), %eax
	movl	%eax, predict_error
.LBB50_92:                              # %if.end305
	jmp	.LBB50_94
.LBB50_93:                              # %if.else306
	movq	img, %rax
	movl	40(%rax), %eax
	movq	-8(%rbp), %rcx
	movl	%eax, 592(%rcx)
.LBB50_94:                              # %if.end309
	jmp	.LBB50_95
.LBB50_95:                              # %if.end310
	jmp	.LBB50_96
.LBB50_96:                              # %if.end311
	jmp	.LBB50_97
.LBB50_97:                              # %if.end312
	jmp	.LBB50_102
.LBB50_98:                              # %if.else313
	movq	img, %rax
	movq	14160(%rax), %rax
	movq	%rax, -96(%rbp)
	movq	img, %rax
	movl	12(%rax), %edi
	callq	FmoGetPreviousMBNr
	movl	%eax, -56(%rbp)
	cmpl	$-1, -56(%rbp)
	jle	.LBB50_100
# %bb.99:                               # %if.then320
	movq	img, %rax
	movq	14168(%rax), %rax
	movslq	-56(%rbp), %rcx
	imulq	$632, %rcx, %rcx        # imm = 0x278
	addq	%rcx, %rax
	movl	12(%rax), %eax
	movq	-8(%rbp), %rcx
	movl	%eax, 592(%rcx)
	movq	img, %rax
	movq	14168(%rax), %rax
	movslq	-56(%rbp), %rcx
	imulq	$632, %rcx, %rcx        # imm = 0x278
	addq	%rcx, %rax
	movl	8(%rax), %eax
	movq	-8(%rbp), %rcx
	movl	%eax, 596(%rcx)
	jmp	.LBB50_101
.LBB50_100:                             # %if.else331
	movq	-96(%rbp), %rax
	movl	4(%rax), %eax
	movq	-8(%rbp), %rcx
	movl	%eax, 592(%rcx)
	movq	-8(%rbp), %rax
	movl	$0, 596(%rax)
.LBB50_101:                             # %if.end335
	movq	-96(%rbp), %rax
	movl	4(%rax), %eax
	movq	-8(%rbp), %rcx
	movl	%eax, 12(%rcx)
	movq	-8(%rbp), %rax
	movl	12(%rax), %eax
	movq	-8(%rbp), %rcx
	subl	592(%rcx), %eax
	movq	-8(%rbp), %rcx
	movl	%eax, 8(%rcx)
	movq	-8(%rbp), %rax
	movl	8(%rax), %eax
	movl	%eax, DELTA_QP2
	movl	%eax, DELTA_QP
	movq	-8(%rbp), %rax
	movl	12(%rax), %eax
	movl	%eax, QP2
	movl	%eax, QP
.LBB50_102:                             # %if.end344
	movq	-8(%rbp), %rax
	movl	$0, (%rax)
	movq	active_pps, %rax
	cmpl	$0, 220(%rax)
	je	.LBB50_104
# %bb.103:                              # %if.then346
	movq	img, %rax
	movl	71984(%rax), %eax
	movq	-8(%rbp), %rcx
	movl	%eax, 612(%rcx)
	movq	img, %rax
	movl	71988(%rax), %eax
	movq	-8(%rbp), %rcx
	movl	%eax, 616(%rcx)
	movq	img, %rax
	movl	71992(%rax), %eax
	movq	-8(%rbp), %rcx
	movl	%eax, 620(%rcx)
	jmp	.LBB50_105
.LBB50_104:                             # %if.else350
	movq	-8(%rbp), %rax
	movl	$0, 612(%rax)
	movq	-8(%rbp), %rax
	movl	$0, 616(%rax)
	movq	-8(%rbp), %rax
	movl	$0, 620(%rax)
.LBB50_105:                             # %if.end354
	movb	$0, %al
	callq	CheckAvailabilityOfNeighbors
	movq	input, %rax
	cmpl	$1, 2356(%rax)
	jne	.LBB50_107
# %bb.106:                              # %if.then358
	movb	$0, %al
	callq	CheckAvailabilityOfNeighborsCABAC
.LBB50_107:                             # %if.end359
	movl	$0, -16(%rbp)
.LBB50_108:                             # %for.cond360
                                        # =>This Loop Header: Depth=1
                                        #     Child Loop BB50_110 Depth 2
                                        #       Child Loop BB50_112 Depth 3
                                        #         Child Loop BB50_114 Depth 4
	cmpl	$2, -16(%rbp)
	jge	.LBB50_123
# %bb.109:                              # %for.body363
                                        #   in Loop: Header=BB50_108 Depth=1
	movl	$0, -20(%rbp)
.LBB50_110:                             # %for.cond364
                                        #   Parent Loop BB50_108 Depth=1
                                        # =>  This Loop Header: Depth=2
                                        #       Child Loop BB50_112 Depth 3
                                        #         Child Loop BB50_114 Depth 4
	cmpl	$4, -20(%rbp)
	jge	.LBB50_121
# %bb.111:                              # %for.body367
                                        #   in Loop: Header=BB50_110 Depth=2
	movl	$0, -12(%rbp)
.LBB50_112:                             # %for.cond368
                                        #   Parent Loop BB50_108 Depth=1
                                        #     Parent Loop BB50_110 Depth=2
                                        # =>    This Loop Header: Depth=3
                                        #         Child Loop BB50_114 Depth 4
	cmpl	$4, -12(%rbp)
	jge	.LBB50_119
# %bb.113:                              # %for.body371
                                        #   in Loop: Header=BB50_112 Depth=3
	movl	$0, -36(%rbp)
.LBB50_114:                             # %for.cond372
                                        #   Parent Loop BB50_108 Depth=1
                                        #     Parent Loop BB50_110 Depth=2
                                        #       Parent Loop BB50_112 Depth=3
                                        # =>      This Inner Loop Header: Depth=4
	cmpl	$2, -36(%rbp)
	jge	.LBB50_117
# %bb.115:                              # %for.body375
                                        #   in Loop: Header=BB50_114 Depth=4
	movq	enc_picture, %rax
	movq	6504(%rax), %rax
	movslq	-16(%rbp), %rcx
	movq	(%rax,%rcx,8), %rax
	movq	img, %rcx
	movl	144(%rcx), %ecx
	addl	-12(%rbp), %ecx
	movslq	%ecx, %rcx
	movq	(%rax,%rcx,8), %rax
	movq	img, %rcx
	movl	148(%rcx), %ecx
	addl	-20(%rbp), %ecx
	movslq	%ecx, %rcx
	movq	(%rax,%rcx,8), %rax
	movslq	-36(%rbp), %rcx
	movw	$0, (%rax,%rcx,2)
# %bb.116:                              # %for.inc386
                                        #   in Loop: Header=BB50_114 Depth=4
	movl	-36(%rbp), %eax
	addl	$1, %eax
	movl	%eax, -36(%rbp)
	jmp	.LBB50_114
.LBB50_117:                             # %for.end388
                                        #   in Loop: Header=BB50_112 Depth=3
	jmp	.LBB50_118
.LBB50_118:                             # %for.inc389
                                        #   in Loop: Header=BB50_112 Depth=3
	movl	-12(%rbp), %eax
	addl	$1, %eax
	movl	%eax, -12(%rbp)
	jmp	.LBB50_112
.LBB50_119:                             # %for.end391
                                        #   in Loop: Header=BB50_110 Depth=2
	jmp	.LBB50_120
.LBB50_120:                             # %for.inc392
                                        #   in Loop: Header=BB50_110 Depth=2
	movl	-20(%rbp), %eax
	addl	$1, %eax
	movl	%eax, -20(%rbp)
	jmp	.LBB50_110
.LBB50_121:                             # %for.end394
                                        #   in Loop: Header=BB50_108 Depth=1
	jmp	.LBB50_122
.LBB50_122:                             # %for.inc395
                                        #   in Loop: Header=BB50_108 Depth=1
	movl	-16(%rbp), %eax
	addl	$1, %eax
	movl	%eax, -16(%rbp)
	jmp	.LBB50_108
.LBB50_123:                             # %for.end397
	movl	$0, -20(%rbp)
.LBB50_124:                             # %for.cond398
                                        # =>This Loop Header: Depth=1
                                        #     Child Loop BB50_126 Depth 2
                                        #       Child Loop BB50_128 Depth 3
	cmpl	$4, -20(%rbp)
	jge	.LBB50_135
# %bb.125:                              # %for.body401
                                        #   in Loop: Header=BB50_124 Depth=1
	movl	$0, -12(%rbp)
.LBB50_126:                             # %for.cond402
                                        #   Parent Loop BB50_124 Depth=1
                                        # =>  This Loop Header: Depth=2
                                        #       Child Loop BB50_128 Depth 3
	cmpl	$4, -12(%rbp)
	jge	.LBB50_133
# %bb.127:                              # %for.body405
                                        #   in Loop: Header=BB50_126 Depth=2
	movl	$0, -16(%rbp)
.LBB50_128:                             # %for.cond406
                                        #   Parent Loop BB50_124 Depth=1
                                        #     Parent Loop BB50_126 Depth=2
                                        # =>    This Inner Loop Header: Depth=3
	cmpl	$2, -16(%rbp)
	jge	.LBB50_131
# %bb.129:                              # %for.body409
                                        #   in Loop: Header=BB50_128 Depth=3
	movq	enc_picture, %rax
	movq	6480(%rax), %rax
	movslq	-16(%rbp), %rcx
	movq	(%rax,%rcx,8), %rax
	movq	img, %rcx
	movl	144(%rcx), %ecx
	addl	-12(%rbp), %ecx
	movslq	%ecx, %rcx
	movq	(%rax,%rcx,8), %rax
	movq	img, %rcx
	movl	148(%rcx), %ecx
	addl	-20(%rbp), %ecx
	movslq	%ecx, %rcx
	movw	$-1, (%rax,%rcx,2)
	movq	enc_picture, %rax
	movq	6488(%rax), %rax
	movslq	-16(%rbp), %rcx
	movq	(%rax,%rcx,8), %rax
	movq	img, %rcx
	movl	144(%rcx), %ecx
	addl	-12(%rbp), %ecx
	movslq	%ecx, %rcx
	movq	(%rax,%rcx,8), %rax
	movq	img, %rcx
	movl	148(%rcx), %ecx
	addl	-20(%rbp), %ecx
	movslq	%ecx, %rcx
	movq	$-1, (%rax,%rcx,8)
# %bb.130:                              # %for.inc430
                                        #   in Loop: Header=BB50_128 Depth=3
	movl	-16(%rbp), %eax
	addl	$1, %eax
	movl	%eax, -16(%rbp)
	jmp	.LBB50_128
.LBB50_131:                             # %for.end432
                                        #   in Loop: Header=BB50_126 Depth=2
	jmp	.LBB50_132
.LBB50_132:                             # %for.inc433
                                        #   in Loop: Header=BB50_126 Depth=2
	movl	-12(%rbp), %eax
	addl	$1, %eax
	movl	%eax, -12(%rbp)
	jmp	.LBB50_126
.LBB50_133:                             # %for.end435
                                        #   in Loop: Header=BB50_124 Depth=1
	jmp	.LBB50_134
.LBB50_134:                             # %for.inc436
                                        #   in Loop: Header=BB50_124 Depth=1
	movl	-20(%rbp), %eax
	addl	$1, %eax
	movl	%eax, -20(%rbp)
	jmp	.LBB50_124
.LBB50_135:                             # %for.end438
	movq	-8(%rbp), %rax
	movl	$0, 72(%rax)
	movq	-8(%rbp), %rax
	movq	$0, 464(%rax)
	movq	-8(%rbp), %rax
	movl	$0, 460(%rax)
	movl	$0, -16(%rbp)
.LBB50_136:                             # %for.cond439
                                        # =>This Loop Header: Depth=1
                                        #     Child Loop BB50_138 Depth 2
                                        #       Child Loop BB50_140 Depth 3
                                        #         Child Loop BB50_142 Depth 4
	cmpl	$2, -16(%rbp)
	jge	.LBB50_151
# %bb.137:                              # %for.body442
                                        #   in Loop: Header=BB50_136 Depth=1
	movl	$0, -20(%rbp)
.LBB50_138:                             # %for.cond443
                                        #   Parent Loop BB50_136 Depth=1
                                        # =>  This Loop Header: Depth=2
                                        #       Child Loop BB50_140 Depth 3
                                        #         Child Loop BB50_142 Depth 4
	cmpl	$4, -20(%rbp)
	jge	.LBB50_149
# %bb.139:                              # %for.body446
                                        #   in Loop: Header=BB50_138 Depth=2
	movl	$0, -12(%rbp)
.LBB50_140:                             # %for.cond447
                                        #   Parent Loop BB50_136 Depth=1
                                        #     Parent Loop BB50_138 Depth=2
                                        # =>    This Loop Header: Depth=3
                                        #         Child Loop BB50_142 Depth 4
	cmpl	$4, -12(%rbp)
	jge	.LBB50_147
# %bb.141:                              # %for.body450
                                        #   in Loop: Header=BB50_140 Depth=3
	movl	$0, -36(%rbp)
.LBB50_142:                             # %for.cond451
                                        #   Parent Loop BB50_136 Depth=1
                                        #     Parent Loop BB50_138 Depth=2
                                        #       Parent Loop BB50_140 Depth=3
                                        # =>      This Inner Loop Header: Depth=4
	cmpl	$2, -36(%rbp)
	jge	.LBB50_145
# %bb.143:                              # %for.body454
                                        #   in Loop: Header=BB50_142 Depth=4
	movq	-8(%rbp), %rax
	addq	$76, %rax
	movslq	-16(%rbp), %rcx
	shlq	$7, %rcx
	addq	%rcx, %rax
	movslq	-20(%rbp), %rcx
	shlq	$5, %rcx
	addq	%rcx, %rax
	movslq	-12(%rbp), %rcx
	shlq	$3, %rcx
	addq	%rcx, %rax
	movslq	-36(%rbp), %rcx
	movl	$0, (%rax,%rcx,4)
# %bb.144:                              # %for.inc463
                                        #   in Loop: Header=BB50_142 Depth=4
	movl	-36(%rbp), %eax
	addl	$1, %eax
	movl	%eax, -36(%rbp)
	jmp	.LBB50_142
.LBB50_145:                             # %for.end465
                                        #   in Loop: Header=BB50_140 Depth=3
	jmp	.LBB50_146
.LBB50_146:                             # %for.inc466
                                        #   in Loop: Header=BB50_140 Depth=3
	movl	-12(%rbp), %eax
	addl	$1, %eax
	movl	%eax, -12(%rbp)
	jmp	.LBB50_140
.LBB50_147:                             # %for.end468
                                        #   in Loop: Header=BB50_138 Depth=2
	jmp	.LBB50_148
.LBB50_148:                             # %for.inc469
                                        #   in Loop: Header=BB50_138 Depth=2
	movl	-20(%rbp), %eax
	addl	$1, %eax
	movl	%eax, -20(%rbp)
	jmp	.LBB50_138
.LBB50_149:                             # %for.end471
                                        #   in Loop: Header=BB50_136 Depth=1
	jmp	.LBB50_150
.LBB50_150:                             # %for.inc472
                                        #   in Loop: Header=BB50_136 Depth=1
	movl	-16(%rbp), %eax
