	.text
	.file	"mb_access.c"
	.globl	mb_is_available         # -- Begin function mb_is_available
	.p2align	4, 0x90
	.type	mb_is_available,@function
mb_is_available:                        # @mb_is_available
	.cfi_startproc
# %bb.0:                                # %rand_bb
	pushq	%rbp
	.cfi_def_cfa_offset 16
	.cfi_offset %rbp, -16
	movq	%rsp, %rbp
	.cfi_def_cfa_register %rbp
	pushq	%r14
	pushq	%rbx
	.cfi_offset %rbx, -32
	.cfi_offset %r14, -24
	movl	%esi, %r14d
	movl	%edi, %ebx
	callq	get_rand
	cmpl	$0, %eax
	jne	.LBB0_5
# %bb.1:                                # %func_mb_is_available.13
	movl	%ebx, %edi
	movl	%r14d, %esi
	callq	mb_is_available.13
	popq	%rbx
	popq	%r14
	popq	%rbp
	.cfi_def_cfa %rsp, 8
	retq
.LBB0_2:                                # %func_mb_is_available.24
	.cfi_def_cfa %rbp, 16
	movl	%ebx, %edi
	movl	%r14d, %esi
	callq	mb_is_available.24
	popq	%rbx
	popq	%r14
	popq	%rbp
	.cfi_def_cfa %rsp, 8
	retq
.LBB0_3:                                # %func_mb_is_available.29
	.cfi_def_cfa %rbp, 16
	movl	%ebx, %edi
	movl	%r14d, %esi
	callq	mb_is_available.29
	popq	%rbx
	popq	%r14
	popq	%rbp
	.cfi_def_cfa %rsp, 8
	retq
.LBB0_4:                                # %func_mb_is_available.34
	.cfi_def_cfa %rbp, 16
	movl	%ebx, %edi
	movl	%r14d, %esi
	callq	mb_is_available.34
	popq	%rbx
	popq	%r14
	popq	%rbp
	.cfi_def_cfa %rsp, 8
	retq
.LBB0_5:                                # %ctrl0
	.cfi_def_cfa %rbp, 16
	cmpl	$1, %eax
	je	.LBB0_2
# %bb.6:                                # %ctrl1
	cmpl	$2, %eax
	je	.LBB0_3
	jmp	.LBB0_4
.Lfunc_end0:
	.size	mb_is_available, .Lfunc_end0-mb_is_available
	.cfi_endproc
                                        # -- End function
	.globl	CheckAvailabilityOfNeighbors # -- Begin function CheckAvailabilityOfNeighbors
	.p2align	4, 0x90
	.type	CheckAvailabilityOfNeighbors,@function
CheckAvailabilityOfNeighbors:           # @CheckAvailabilityOfNeighbors
	.cfi_startproc
# %bb.0:                                # %rand_bb
	pushq	%rbp
	.cfi_def_cfa_offset 16
	.cfi_offset %rbp, -16
	movq	%rsp, %rbp
	.cfi_def_cfa_register %rbp
	callq	get_rand
	cmpl	$0, %eax
	jne	.LBB1_2
# %bb.1:                                # %func_CheckAvailabilityOfNeighbors.1
	callq	CheckAvailabilityOfNeighbors.1
	popq	%rbp
	.cfi_def_cfa %rsp, 8
	retq
.LBB1_2:                                # %func_CheckAvailabilityOfNeighbors.31
	.cfi_def_cfa %rbp, 16
	callq	CheckAvailabilityOfNeighbors.31
	popq	%rbp
	.cfi_def_cfa %rsp, 8
	retq
.Lfunc_end1:
	.size	CheckAvailabilityOfNeighbors, .Lfunc_end1-CheckAvailabilityOfNeighbors
	.cfi_endproc
                                        # -- End function
	.globl	get_mb_block_pos        # -- Begin function get_mb_block_pos
	.p2align	4, 0x90
	.type	get_mb_block_pos,@function
get_mb_block_pos:                       # @get_mb_block_pos
	.cfi_startproc
# %bb.0:                                # %rand_bb
	pushq	%rbp
	.cfi_def_cfa_offset 16
	.cfi_offset %rbp, -16
	movq	%rsp, %rbp
	.cfi_def_cfa_register %rbp
	pushq	%r15
	pushq	%r14
	pushq	%rbx
	pushq	%rax
	.cfi_offset %rbx, -40
	.cfi_offset %r14, -32
	.cfi_offset %r15, -24
	movq	%rdx, %r14
	movq	%rsi, %r15
	movl	%edi, %ebx
	callq	get_rand
	cmpl	$0, %eax
	jne	.LBB2_5
# %bb.1:                                # %func_get_mb_block_pos.14
	movl	%ebx, %edi
	movq	%r15, %rsi
	movq	%r14, %rdx
	callq	get_mb_block_pos.14
	addq	$8, %rsp
	popq	%rbx
	popq	%r14
	popq	%r15
	popq	%rbp
	.cfi_def_cfa %rsp, 8
	retq
.LBB2_2:                                # %func_get_mb_block_pos.18
	.cfi_def_cfa %rbp, 16
	movl	%ebx, %edi
	movq	%r15, %rsi
	movq	%r14, %rdx
	callq	get_mb_block_pos.18
	addq	$8, %rsp
	popq	%rbx
	popq	%r14
	popq	%r15
	popq	%rbp
	.cfi_def_cfa %rsp, 8
	retq
.LBB2_3:                                # %func_get_mb_block_pos.19
	.cfi_def_cfa %rbp, 16
	movl	%ebx, %edi
	movq	%r15, %rsi
	movq	%r14, %rdx
	callq	get_mb_block_pos.19
	addq	$8, %rsp
	popq	%rbx
	popq	%r14
	popq	%r15
	popq	%rbp
	.cfi_def_cfa %rsp, 8
	retq
.LBB2_4:                                # %func_get_mb_block_pos.22
	.cfi_def_cfa %rbp, 16
	movl	%ebx, %edi
	movq	%r15, %rsi
	movq	%r14, %rdx
	callq	get_mb_block_pos.22
	addq	$8, %rsp
	popq	%rbx
	popq	%r14
	popq	%r15
	popq	%rbp
	.cfi_def_cfa %rsp, 8
	retq
.LBB2_5:                                # %ctrl0
	.cfi_def_cfa %rbp, 16
	cmpl	$1, %eax
	je	.LBB2_2
# %bb.6:                                # %ctrl1
	cmpl	$2, %eax
	je	.LBB2_3
	jmp	.LBB2_4
.Lfunc_end2:
	.size	get_mb_block_pos, .Lfunc_end2-get_mb_block_pos
	.cfi_endproc
                                        # -- End function
	.globl	get_mb_pos              # -- Begin function get_mb_pos
	.p2align	4, 0x90
	.type	get_mb_pos,@function
get_mb_pos:                             # @get_mb_pos
	.cfi_startproc
# %bb.0:                                # %rand_bb
	pushq	%rbp
	.cfi_def_cfa_offset 16
	.cfi_offset %rbp, -16
	movq	%rsp, %rbp
	.cfi_def_cfa_register %rbp
	pushq	%r15
	pushq	%r14
	pushq	%rbx
	pushq	%rax
	.cfi_offset %rbx, -40
	.cfi_offset %r14, -32
	.cfi_offset %r15, -24
	movq	%rdx, %r14
	movq	%rsi, %r15
	movl	%edi, %ebx
	callq	get_rand
	cmpl	$0, %eax
	jne	.LBB3_5
# %bb.1:                                # %func_get_mb_pos.6
	movl	%ebx, %edi
	movq	%r15, %rsi
	movq	%r14, %rdx
	callq	get_mb_pos.6
	addq	$8, %rsp
	popq	%rbx
	popq	%r14
	popq	%r15
	popq	%rbp
	.cfi_def_cfa %rsp, 8
	retq
.LBB3_2:                                # %func_get_mb_pos.9
	.cfi_def_cfa %rbp, 16
	movl	%ebx, %edi
	movq	%r15, %rsi
	movq	%r14, %rdx
	callq	get_mb_pos.9
	addq	$8, %rsp
	popq	%rbx
	popq	%r14
	popq	%r15
	popq	%rbp
	.cfi_def_cfa %rsp, 8
	retq
.LBB3_3:                                # %func_get_mb_pos.23
	.cfi_def_cfa %rbp, 16
	movl	%ebx, %edi
	movq	%r15, %rsi
	movq	%r14, %rdx
	callq	get_mb_pos.23
	addq	$8, %rsp
	popq	%rbx
	popq	%r14
	popq	%r15
	popq	%rbp
	.cfi_def_cfa %rsp, 8
	retq
.LBB3_4:                                # %func_get_mb_pos.25
	.cfi_def_cfa %rbp, 16
	movl	%ebx, %edi
	movq	%r15, %rsi
	movq	%r14, %rdx
	callq	get_mb_pos.25
	addq	$8, %rsp
	popq	%rbx
	popq	%r14
	popq	%r15
	popq	%rbp
	.cfi_def_cfa %rsp, 8
	retq
.LBB3_5:                                # %ctrl0
	.cfi_def_cfa %rbp, 16
	cmpl	$1, %eax
	je	.LBB3_2
# %bb.6:                                # %ctrl1
	cmpl	$2, %eax
	je	.LBB3_3
	jmp	.LBB3_4
.Lfunc_end3:
	.size	get_mb_pos, .Lfunc_end3-get_mb_pos
	.cfi_endproc
                                        # -- End function
	.globl	getNonAffNeighbour      # -- Begin function getNonAffNeighbour
	.p2align	4, 0x90
	.type	getNonAffNeighbour,@function
getNonAffNeighbour:                     # @getNonAffNeighbour
	.cfi_startproc
# %bb.0:                                # %rand_bb
	pushq	%rbp
	.cfi_def_cfa_offset 16
	.cfi_offset %rbp, -16
	movq	%rsp, %rbp
	.cfi_def_cfa_register %rbp
	pushq	%r15
	pushq	%r14
	pushq	%r13
	pushq	%r12
	pushq	%rbx
	pushq	%rax
	.cfi_offset %rbx, -56
	.cfi_offset %r12, -48
	.cfi_offset %r13, -40
	.cfi_offset %r14, -32
	.cfi_offset %r15, -24
	movq	%r8, %r14
	movl	%ecx, %r15d
	movl	%edx, %r12d
	movl	%esi, %r13d
	movl	%edi, %ebx
	callq	get_rand
	cmpl	$0, %eax
	jne	.LBB4_5
# %bb.1:                                # %func_getNonAffNeighbour.3
	movl	%ebx, %edi
	movl	%r13d, %esi
	movl	%r12d, %edx
	movl	%r15d, %ecx
	movq	%r14, %r8
	callq	getNonAffNeighbour.3
	addq	$8, %rsp
	popq	%rbx
	popq	%r12
	popq	%r13
	popq	%r14
	popq	%r15
	popq	%rbp
	.cfi_def_cfa %rsp, 8
	retq
.LBB4_2:                                # %func_getNonAffNeighbour.11
	.cfi_def_cfa %rbp, 16
	movl	%ebx, %edi
	movl	%r13d, %esi
	movl	%r12d, %edx
	movl	%r15d, %ecx
	movq	%r14, %r8
	callq	getNonAffNeighbour.11
	addq	$8, %rsp
	popq	%rbx
	popq	%r12
	popq	%r13
	popq	%r14
	popq	%r15
	popq	%rbp
	.cfi_def_cfa %rsp, 8
	retq
.LBB4_3:                                # %func_getNonAffNeighbour.17
	.cfi_def_cfa %rbp, 16
	movl	%ebx, %edi
	movl	%r13d, %esi
	movl	%r12d, %edx
	movl	%r15d, %ecx
	movq	%r14, %r8
	callq	getNonAffNeighbour.17
	addq	$8, %rsp
	popq	%rbx
	popq	%r12
	popq	%r13
	popq	%r14
	popq	%r15
	popq	%rbp
	.cfi_def_cfa %rsp, 8
	retq
.LBB4_4:                                # %func_getNonAffNeighbour.20
	.cfi_def_cfa %rbp, 16
	movl	%ebx, %edi
	movl	%r13d, %esi
	movl	%r12d, %edx
	movl	%r15d, %ecx
	movq	%r14, %r8
	callq	getNonAffNeighbour.20
	addq	$8, %rsp
	popq	%rbx
	popq	%r12
	popq	%r13
	popq	%r14
	popq	%r15
	popq	%rbp
	.cfi_def_cfa %rsp, 8
	retq
.LBB4_5:                                # %ctrl0
	.cfi_def_cfa %rbp, 16
	cmpl	$1, %eax
	je	.LBB4_2
# %bb.6:                                # %ctrl1
	cmpl	$2, %eax
	je	.LBB4_3
	jmp	.LBB4_4
.Lfunc_end4:
	.size	getNonAffNeighbour, .Lfunc_end4-getNonAffNeighbour
	.cfi_endproc
                                        # -- End function
	.globl	getAffNeighbour         # -- Begin function getAffNeighbour
	.p2align	4, 0x90
	.type	getAffNeighbour,@function
getAffNeighbour:                        # @getAffNeighbour
	.cfi_startproc
# %bb.0:                                # %rand_bb
	pushq	%rbp
	.cfi_def_cfa_offset 16
	.cfi_offset %rbp, -16
	movq	%rsp, %rbp
	.cfi_def_cfa_register %rbp
	pushq	%r15
	pushq	%r14
	pushq	%r13
	pushq	%r12
	pushq	%rbx
	pushq	%rax
	.cfi_offset %rbx, -56
	.cfi_offset %r12, -48
	.cfi_offset %r13, -40
	.cfi_offset %r14, -32
	.cfi_offset %r15, -24
	movq	%r8, %r14
	movl	%ecx, %r15d
	movl	%edx, %r12d
	movl	%esi, %r13d
	movl	%edi, %ebx
	callq	get_rand
	cmpl	$0, %eax
	jne	.LBB5_5
# %bb.1:                                # %func_getAffNeighbour.4
	movl	%ebx, %edi
	movl	%r13d, %esi
	movl	%r12d, %edx
	movl	%r15d, %ecx
	movq	%r14, %r8
	callq	getAffNeighbour.4
	addq	$8, %rsp
	popq	%rbx
	popq	%r12
	popq	%r13
	popq	%r14
	popq	%r15
	popq	%rbp
	.cfi_def_cfa %rsp, 8
	retq
.LBB5_2:                                # %func_getAffNeighbour.5
	.cfi_def_cfa %rbp, 16
	movl	%ebx, %edi
	movl	%r13d, %esi
	movl	%r12d, %edx
	movl	%r15d, %ecx
	movq	%r14, %r8
	callq	getAffNeighbour.5
	addq	$8, %rsp
	popq	%rbx
	popq	%r12
	popq	%r13
	popq	%r14
	popq	%r15
	popq	%rbp
	.cfi_def_cfa %rsp, 8
	retq
.LBB5_3:                                # %func_getAffNeighbour.7
	.cfi_def_cfa %rbp, 16
	movl	%ebx, %edi
	movl	%r13d, %esi
	movl	%r12d, %edx
	movl	%r15d, %ecx
	movq	%r14, %r8
	callq	getAffNeighbour.7
	addq	$8, %rsp
	popq	%rbx
	popq	%r12
	popq	%r13
	popq	%r14
	popq	%r15
	popq	%rbp
	.cfi_def_cfa %rsp, 8
	retq
.LBB5_4:                                # %func_getAffNeighbour.10
	.cfi_def_cfa %rbp, 16
	movl	%ebx, %edi
	movl	%r13d, %esi
	movl	%r12d, %edx
	movl	%r15d, %ecx
	movq	%r14, %r8
	callq	getAffNeighbour.10
	addq	$8, %rsp
	popq	%rbx
	popq	%r12
	popq	%r13
	popq	%r14
	popq	%r15
	popq	%rbp
	.cfi_def_cfa %rsp, 8
	retq
.LBB5_5:                                # %ctrl0
	.cfi_def_cfa %rbp, 16
	cmpl	$1, %eax
	je	.LBB5_2
# %bb.6:                                # %ctrl1
	cmpl	$2, %eax
	je	.LBB5_3
	jmp	.LBB5_4
.Lfunc_end5:
	.size	getAffNeighbour, .Lfunc_end5-getAffNeighbour
	.cfi_endproc
                                        # -- End function
	.globl	getNeighbour            # -- Begin function getNeighbour
	.p2align	4, 0x90
	.type	getNeighbour,@function
getNeighbour:                           # @getNeighbour
	.cfi_startproc
# %bb.0:                                # %rand_bb
	pushq	%rbp
	.cfi_def_cfa_offset 16
	.cfi_offset %rbp, -16
	movq	%rsp, %rbp
	.cfi_def_cfa_register %rbp
	pushq	%r15
	pushq	%r14
	pushq	%r13
	pushq	%r12
	pushq	%rbx
	pushq	%rax
	.cfi_offset %rbx, -56
	.cfi_offset %r12, -48
	.cfi_offset %r13, -40
	.cfi_offset %r14, -32
	.cfi_offset %r15, -24
	movq	%r8, %r14
	movl	%ecx, %r15d
	movl	%edx, %r12d
	movl	%esi, %r13d
	movl	%edi, %ebx
	callq	get_rand
	cmpl	$0, %eax
	jne	.LBB6_5
# %bb.1:                                # %func_getNeighbour.12
	movl	%ebx, %edi
	movl	%r13d, %esi
	movl	%r12d, %edx
	movl	%r15d, %ecx
	movq	%r14, %r8
	callq	getNeighbour.12
	addq	$8, %rsp
	popq	%rbx
	popq	%r12
	popq	%r13
	popq	%r14
	popq	%r15
	popq	%rbp
	.cfi_def_cfa %rsp, 8
	retq
.LBB6_2:                                # %func_getNeighbour.21
	.cfi_def_cfa %rbp, 16
	movl	%ebx, %edi
	movl	%r13d, %esi
	movl	%r12d, %edx
	movl	%r15d, %ecx
	movq	%r14, %r8
	callq	getNeighbour.21
	addq	$8, %rsp
	popq	%rbx
	popq	%r12
	popq	%r13
	popq	%r14
	popq	%r15
	popq	%rbp
	.cfi_def_cfa %rsp, 8
	retq
.LBB6_3:                                # %func_getNeighbour.28
	.cfi_def_cfa %rbp, 16
	movl	%ebx, %edi
	movl	%r13d, %esi
	movl	%r12d, %edx
	movl	%r15d, %ecx
	movq	%r14, %r8
	callq	getNeighbour.28
	addq	$8, %rsp
	popq	%rbx
	popq	%r12
	popq	%r13
	popq	%r14
	popq	%r15
	popq	%rbp
	.cfi_def_cfa %rsp, 8
	retq
.LBB6_4:                                # %func_getNeighbour.30
	.cfi_def_cfa %rbp, 16
	movl	%ebx, %edi
	movl	%r13d, %esi
	movl	%r12d, %edx
	movl	%r15d, %ecx
	movq	%r14, %r8
	callq	getNeighbour.30
	addq	$8, %rsp
	popq	%rbx
	popq	%r12
	popq	%r13
	popq	%r14
	popq	%r15
	popq	%rbp
	.cfi_def_cfa %rsp, 8
	retq
.LBB6_5:                                # %ctrl0
	.cfi_def_cfa %rbp, 16
	cmpl	$1, %eax
	je	.LBB6_2
# %bb.6:                                # %ctrl1
	cmpl	$2, %eax
	je	.LBB6_3
	jmp	.LBB6_4
.Lfunc_end6:
	.size	getNeighbour, .Lfunc_end6-getNeighbour
	.cfi_endproc
                                        # -- End function
	.globl	getLuma4x4Neighbour     # -- Begin function getLuma4x4Neighbour
	.p2align	4, 0x90
	.type	getLuma4x4Neighbour,@function
getLuma4x4Neighbour:                    # @getLuma4x4Neighbour
	.cfi_startproc
# %bb.0:                                # %rand_bb
	pushq	%rbp
	.cfi_def_cfa_offset 16
	.cfi_offset %rbp, -16
	movq	%rsp, %rbp
	.cfi_def_cfa_register %rbp
	pushq	%r15
	pushq	%r14
	pushq	%r13
	pushq	%r12
	pushq	%rbx
	pushq	%rax
	.cfi_offset %rbx, -56
	.cfi_offset %r12, -48
	.cfi_offset %r13, -40
	.cfi_offset %r14, -32
	.cfi_offset %r15, -24
	movq	%r9, -48(%rbp)          # 8-byte Spill
	movl	%r8d, %r12d
	movl	%ecx, %r13d
	movl	%edx, %ebx
	movl	%esi, %r14d
	movl	%edi, %r15d
	callq	get_rand
	cmpl	$0, %eax
	jne	.LBB7_5
# %bb.1:                                # %func_getLuma4x4Neighbour.8
	movl	%r15d, %edi
	movl	%r14d, %esi
	movl	%ebx, %edx
	movl	%r13d, %ecx
	movl	%r12d, %r8d
	movq	-48(%rbp), %r9          # 8-byte Reload
	callq	getLuma4x4Neighbour.8
	addq	$8, %rsp
	popq	%rbx
	popq	%r12
	popq	%r13
	popq	%r14
	popq	%r15
	popq	%rbp
	.cfi_def_cfa %rsp, 8
	retq
.LBB7_2:                                # %func_getLuma4x4Neighbour.15
	.cfi_def_cfa %rbp, 16
	movl	%r15d, %edi
	movl	%r14d, %esi
	movl	%ebx, %edx
	movl	%r13d, %ecx
	movl	%r12d, %r8d
	callq	getLuma4x4Neighbour.15
	addq	$8, %rsp
	popq	%rbx
	popq	%r12
	popq	%r13
	popq	%r14
	popq	%r15
	popq	%rbp
	.cfi_def_cfa %rsp, 8
	retq
.LBB7_3:                                # %func_getLuma4x4Neighbour.16
	.cfi_def_cfa %rbp, 16
	callq	getLuma4x4Neighbour.16
	addq	$8, %rsp
	popq	%rbx
	popq	%r12
	popq	%r13
	popq	%r14
	popq	%r15
	popq	%rbp
	.cfi_def_cfa %rsp, 8
	retq
.LBB7_4:                                # %func_getLuma4x4Neighbour.26
	.cfi_def_cfa %rbp, 16
	callq	getLuma4x4Neighbour.26
	addq	$8, %rsp
	popq	%rbx
	popq	%r12
	popq	%r13
	popq	%r14
	popq	%r15
	popq	%rbp
	.cfi_def_cfa %rsp, 8
	retq
.LBB7_5:                                # %ctrl0
	.cfi_def_cfa %rbp, 16
	movq	-48(%rbp), %r9          # 8-byte Reload
	cmpl	$1, %eax
	je	.LBB7_2
# %bb.6:                                # %ctrl1
	cmpl	$2, %eax
	movl	%r12d, %r8d
	movl	%r13d, %ecx
	movl	%ebx, %edx
	movl	%r14d, %esi
	movl	%r15d, %edi
	je	.LBB7_3
	jmp	.LBB7_4
.Lfunc_end7:
	.size	getLuma4x4Neighbour, .Lfunc_end7-getLuma4x4Neighbour
	.cfi_endproc
                                        # -- End function
	.globl	getChroma4x4Neighbour   # -- Begin function getChroma4x4Neighbour
	.p2align	4, 0x90
	.type	getChroma4x4Neighbour,@function
getChroma4x4Neighbour:                  # @getChroma4x4Neighbour
	.cfi_startproc
# %bb.0:                                # %rand_bb
	pushq	%rbp
	.cfi_def_cfa_offset 16
	.cfi_offset %rbp, -16
	movq	%rsp, %rbp
	.cfi_def_cfa_register %rbp
	pushq	%r15
	pushq	%r14
	pushq	%r13
	pushq	%r12
	pushq	%rbx
	pushq	%rax
	.cfi_offset %rbx, -56
	.cfi_offset %r12, -48
	.cfi_offset %r13, -40
	.cfi_offset %r14, -32
	.cfi_offset %r15, -24
	movq	%r9, -48(%rbp)          # 8-byte Spill
	movl	%r8d, %r12d
	movl	%ecx, %r13d
	movl	%edx, %ebx
	movl	%esi, %r14d
	movl	%edi, %r15d
	callq	get_rand
	cmpl	$0, %eax
	jne	.LBB8_5
# %bb.1:                                # %func_getChroma4x4Neighbour.2
	movl	%r15d, %edi
	movl	%r14d, %esi
	movl	%ebx, %edx
	movl	%r13d, %ecx
	movl	%r12d, %r8d
	movq	-48(%rbp), %r9          # 8-byte Reload
	callq	getChroma4x4Neighbour.2
	addq	$8, %rsp
	popq	%rbx
	popq	%r12
	popq	%r13
	popq	%r14
	popq	%r15
	popq	%rbp
	.cfi_def_cfa %rsp, 8
	retq
.LBB8_2:                                # %func_getChroma4x4Neighbour.27
	.cfi_def_cfa %rbp, 16
	movl	%r15d, %edi
	movl	%r14d, %esi
	movl	%ebx, %edx
	movl	%r13d, %ecx
	movl	%r12d, %r8d
	callq	getChroma4x4Neighbour.27
	addq	$8, %rsp
	popq	%rbx
	popq	%r12
	popq	%r13
	popq	%r14
	popq	%r15
	popq	%rbp
	.cfi_def_cfa %rsp, 8
	retq
.LBB8_3:                                # %func_getChroma4x4Neighbour.32
	.cfi_def_cfa %rbp, 16
	callq	getChroma4x4Neighbour.32
	addq	$8, %rsp
	popq	%rbx
	popq	%r12
	popq	%r13
	popq	%r14
	popq	%r15
	popq	%rbp
	.cfi_def_cfa %rsp, 8
	retq
.LBB8_4:                                # %func_getChroma4x4Neighbour.33
	.cfi_def_cfa %rbp, 16
	callq	getChroma4x4Neighbour.33
	addq	$8, %rsp
	popq	%rbx
	popq	%r12
	popq	%r13
	popq	%r14
	popq	%r15
	popq	%rbp
	.cfi_def_cfa %rsp, 8
	retq
.LBB8_5:                                # %ctrl0
	.cfi_def_cfa %rbp, 16
	movq	-48(%rbp), %r9          # 8-byte Reload
	cmpl	$1, %eax
	je	.LBB8_2
# %bb.6:                                # %ctrl1
	cmpl	$2, %eax
	movl	%r12d, %r8d
	movl	%r13d, %ecx
	movl	%ebx, %edx
	movl	%r14d, %esi
	movl	%r15d, %edi
	je	.LBB8_3
	jmp	.LBB8_4
.Lfunc_end8:
	.size	getChroma4x4Neighbour, .Lfunc_end8-getChroma4x4Neighbour
	.cfi_endproc
                                        # -- End function
	.globl	CheckAvailabilityOfNeighbors.1 # -- Begin function CheckAvailabilityOfNeighbors.1
	.p2align	4, 0x90
	.type	CheckAvailabilityOfNeighbors.1,@function
CheckAvailabilityOfNeighbors.1:         # @CheckAvailabilityOfNeighbors.1
	.cfi_startproc
# %bb.0:                                # %entry
	pushq	%rbp
	.cfi_def_cfa_offset 16
	.cfi_offset %rbp, -16
	movq	%rsp, %rbp
	.cfi_def_cfa_register %rbp
	subq	$32, %rsp
	movl	$911426808, -20(%rbp)   # imm = 0x365344F8
	movq	img, %rax
	movl	12(%rax), %eax
	movl	%eax, -4(%rbp)
	movq	img, %rax
	movq	14168(%rax), %rax
	movslq	-4(%rbp), %rcx
	imulq	$632, %rcx, %rcx        # imm = 0x278
	addq	%rcx, %rax
	movq	%rax, -16(%rbp)
	movq	-16(%rbp), %rax
	movq	$0, 56(%rax)
	movq	-16(%rbp), %rax
	movq	$0, 64(%rax)
	movq	img, %rax
	cmpl	$0, 72400(%rax)
	je	.LBB9_8
# %bb.1:                                # %if.then
	movl	-4(%rbp), %eax
	cltd
	movl	$2, %ecx
	idivl	%ecx
	subl	$1, %eax
	shll	$1, %eax
	movq	-16(%rbp), %rdx
	movl	%eax, 536(%rdx)
	movl	-4(%rbp), %eax
	cltd
	idivl	%ecx
	movq	img, %rdx
	subl	72468(%rdx), %eax
	shll	$1, %eax
	movq	-16(%rbp), %rdx
	movl	%eax, 540(%rdx)
	movl	-4(%rbp), %eax
	cltd
	idivl	%ecx
	movq	img, %rdx
	subl	72468(%rdx), %eax
	addl	$1, %eax
	shll	$1, %eax
	movq	-16(%rbp), %rdx
	movl	%eax, 544(%rdx)
	movl	-4(%rbp), %eax
	cltd
	idivl	%ecx
	movq	img, %rcx
	subl	72468(%rcx), %eax
	subl	$1, %eax
	shll	$1, %eax
	movq	-16(%rbp), %rcx
	movl	%eax, 548(%rcx)
	movq	-16(%rbp), %rax
	movl	536(%rax), %edi
	movl	-4(%rbp), %esi
	callq	mb_is_available
	xorl	%ecx, %ecx
	cmpl	$0, %eax
	je	.LBB9_3
# %bb.2:                                # %land.rhs
	movl	-4(%rbp), %eax
	cltd
	movl	$2, %ecx
	idivl	%ecx
	movq	img, %rcx
	xorl	%edx, %edx
	divl	72468(%rcx)
	cmpl	$0, %edx
	setne	%cl
.LBB9_3:                                # %land.end
	andb	$1, %cl
	movzbl	%cl, %eax
	movq	-16(%rbp), %rcx
	movl	%eax, 552(%rcx)
	movq	-16(%rbp), %rax
	movl	540(%rax), %edi
	movl	-4(%rbp), %esi
	callq	mb_is_available
	movq	-16(%rbp), %rcx
	movl	%eax, 556(%rcx)
	movq	-16(%rbp), %rax
	movl	544(%rax), %edi
	movl	-4(%rbp), %esi
	callq	mb_is_available
	xorl	%ecx, %ecx
	cmpl	$0, %eax
	je	.LBB9_5
# %bb.4:                                # %land.rhs22
	movl	-4(%rbp), %eax
	cltd
	movl	$2, %ecx
	idivl	%ecx
	addl	$1, %eax
	movq	img, %rcx
	xorl	%edx, %edx
	divl	72468(%rcx)
	cmpl	$0, %edx
	setne	%cl
.LBB9_5:                                # %land.end28
	andb	$1, %cl
	movzbl	%cl, %eax
	movq	-16(%rbp), %rcx
	movl	%eax, 560(%rcx)
	movq	-16(%rbp), %rax
	movl	548(%rax), %edi
	movl	-4(%rbp), %esi
	callq	mb_is_available
	xorl	%ecx, %ecx
	cmpl	$0, %eax
	je	.LBB9_7
# %bb.6:                                # %land.rhs33
	movl	-4(%rbp), %eax
	cltd
	movl	$2, %ecx
	idivl	%ecx
	movq	img, %rcx
	xorl	%edx, %edx
	divl	72468(%rcx)
	cmpl	$0, %edx
	setne	%cl
.LBB9_7:                                # %land.end38
	andb	$1, %cl
	movzbl	%cl, %eax
	movq	-16(%rbp), %rcx
	movl	%eax, 564(%rcx)
	jmp	.LBB9_15
.LBB9_8:                                # %if.else
	movl	-4(%rbp), %eax
	subl	$1, %eax
	movq	-16(%rbp), %rcx
	movl	%eax, 536(%rcx)
	movl	-4(%rbp), %eax
	movq	img, %rcx
	subl	72468(%rcx), %eax
	movq	-16(%rbp), %rcx
	movl	%eax, 540(%rcx)
	movl	-4(%rbp), %eax
	movq	img, %rcx
	subl	72468(%rcx), %eax
	addl	$1, %eax
	movq	-16(%rbp), %rcx
	movl	%eax, 544(%rcx)
	movl	-4(%rbp), %eax
	movq	img, %rcx
	subl	72468(%rcx), %eax
	subl	$1, %eax
	movq	-16(%rbp), %rcx
	movl	%eax, 548(%rcx)
	movq	-16(%rbp), %rax
	movl	536(%rax), %edi
	movl	-4(%rbp), %esi
	callq	mb_is_available
	xorl	%ecx, %ecx
	cmpl	$0, %eax
	je	.LBB9_10
# %bb.9:                                # %land.rhs56
	movl	-4(%rbp), %eax
	movq	img, %rcx
	xorl	%edx, %edx
	divl	72468(%rcx)
	cmpl	$0, %edx
	setne	%cl
.LBB9_10:                               # %land.end60
	andb	$1, %cl
	movzbl	%cl, %eax
	movq	-16(%rbp), %rcx
	movl	%eax, 552(%rcx)
	movq	-16(%rbp), %rax
	movl	540(%rax), %edi
	movl	-4(%rbp), %esi
	callq	mb_is_available
	movq	-16(%rbp), %rcx
	movl	%eax, 556(%rcx)
	movq	-16(%rbp), %rax
	movl	544(%rax), %edi
	movl	-4(%rbp), %esi
	callq	mb_is_available
	xorl	%ecx, %ecx
	cmpl	$0, %eax
	je	.LBB9_12
# %bb.11:                               # %land.rhs69
	movl	-4(%rbp), %eax
	addl	$1, %eax
	movq	img, %rcx
	xorl	%edx, %edx
	divl	72468(%rcx)
	cmpl	$0, %edx
	setne	%cl
.LBB9_12:                               # %land.end74
	andb	$1, %cl
	movzbl	%cl, %eax
	movq	-16(%rbp), %rcx
	movl	%eax, 560(%rcx)
	movq	-16(%rbp), %rax
	movl	548(%rax), %edi
	movl	-4(%rbp), %esi
	callq	mb_is_available
	xorl	%ecx, %ecx
	cmpl	$0, %eax
	je	.LBB9_14
# %bb.13:                               # %land.rhs80
	movl	-4(%rbp), %eax
	movq	img, %rcx
	xorl	%edx, %edx
	divl	72468(%rcx)
	cmpl	$0, %edx
	setne	%cl
.LBB9_14:                               # %land.end84
	andb	$1, %cl
	movzbl	%cl, %eax
	movq	-16(%rbp), %rcx
	movl	%eax, 564(%rcx)
.LBB9_15:                               # %if.end
	movq	-16(%rbp), %rax
	cmpl	$0, 552(%rax)
	je	.LBB9_17
# %bb.16:                               # %if.then89
	movq	img, %rax
	movq	14168(%rax), %rax
	movq	-16(%rbp), %rcx
	movslq	536(%rcx), %rcx
	imulq	$632, %rcx, %rcx        # imm = 0x278
	addq	%rcx, %rax
	movq	-16(%rbp), %rcx
	movq	%rax, 64(%rcx)
.LBB9_17:                               # %if.end95
	movq	-16(%rbp), %rax
	cmpl	$0, 556(%rax)
	je	.LBB9_19
# %bb.18:                               # %if.then98
	movq	img, %rax
	movq	14168(%rax), %rax
	movq	-16(%rbp), %rcx
	movslq	540(%rcx), %rcx
	imulq	$632, %rcx, %rcx        # imm = 0x278
	addq	%rcx, %rax
	movq	-16(%rbp), %rcx
	movq	%rax, 56(%rcx)
.LBB9_19:                               # %if.end104
	cmpl	$911426808, -20(%rbp)   # imm = 0x365344F8
	jne	.LBB9_21
.LBB9_20:
	addq	$32, %rsp
	popq	%rbp
	.cfi_def_cfa %rsp, 8
	retq
.LBB9_21:                               # %func_exit
	.cfi_def_cfa %rbp, 16
	callq	detect_breach
	jmp	.LBB9_20
.Lfunc_end9:
	.size	CheckAvailabilityOfNeighbors.1, .Lfunc_end9-CheckAvailabilityOfNeighbors.1
	.cfi_endproc
                                        # -- End function
	.globl	getChroma4x4Neighbour.2 # -- Begin function getChroma4x4Neighbour.2
	.p2align	4, 0x90
	.type	getChroma4x4Neighbour.2,@function
getChroma4x4Neighbour.2:                # @getChroma4x4Neighbour.2
	.cfi_startproc
# %bb.0:                                # %entry
	pushq	%rbp
	.cfi_def_cfa_offset 16
	.cfi_offset %rbp, -16
	movq	%rsp, %rbp
	.cfi_def_cfa_register %rbp
	subq	$48, %rsp
	movl	$2087469102, -20(%rbp)  # imm = 0x7C6C402E
	movl	%edi, -12(%rbp)
	movl	%esi, -32(%rbp)
	movl	%edx, -28(%rbp)
	movl	%ecx, -16(%rbp)
	movl	%r8d, -24(%rbp)
	movq	%r9, -8(%rbp)
	movl	-32(%rbp), %eax
	shll	$2, %eax
	addl	-16(%rbp), %eax
	movl	%eax, -36(%rbp)
	movl	-28(%rbp), %eax
	shll	$2, %eax
	addl	-24(%rbp), %eax
	movl	%eax, -40(%rbp)
	movl	-12(%rbp), %edi
	movl	-36(%rbp), %esi
	movl	-40(%rbp), %edx
	movq	-8(%rbp), %r8
	xorl	%ecx, %ecx
	callq	getNeighbour
	movq	-8(%rbp), %rax
	cmpl	$0, (%rax)
	je	.LBB10_2
# %bb.1:                                # %if.then
	movq	-8(%rbp), %rcx
	movl	8(%rcx), %eax
	cltd
	movl	$4, %esi
	idivl	%esi
	movl	%eax, 8(%rcx)
	movq	-8(%rbp), %rcx
	movl	12(%rcx), %eax
	cltd
	idivl	%esi
	movl	%eax, 12(%rcx)
	movq	-8(%rbp), %rcx
	movl	16(%rcx), %eax
	cltd
	idivl	%esi
	movl	%eax, 16(%rcx)
	movq	-8(%rbp), %rcx
	movl	20(%rcx), %eax
	cltd
	idivl	%esi
	movl	%eax, 20(%rcx)
.LBB10_2:                               # %if.end
	cmpl	$2087469102, -20(%rbp)  # imm = 0x7C6C402E
	jne	.LBB10_4
.LBB10_3:
	addq	$48, %rsp
	popq	%rbp
	.cfi_def_cfa %rsp, 8
	retq
.LBB10_4:                               # %func_exit
	.cfi_def_cfa %rbp, 16
	callq	detect_breach
	jmp	.LBB10_3
.Lfunc_end10:
	.size	getChroma4x4Neighbour.2, .Lfunc_end10-getChroma4x4Neighbour.2
	.cfi_endproc
                                        # -- End function
	.globl	getNonAffNeighbour.3    # -- Begin function getNonAffNeighbour.3
	.p2align	4, 0x90
	.type	getNonAffNeighbour.3,@function
getNonAffNeighbour.3:                   # @getNonAffNeighbour.3
	.cfi_startproc
# %bb.0:                                # %entry
	pushq	%rbp
	.cfi_def_cfa_offset 16
	.cfi_offset %rbp, -16
	movq	%rsp, %rbp
	.cfi_def_cfa_register %rbp
	subq	$48, %rsp
	movl	$1388243073, -44(%rbp)  # imm = 0x52BEE881
	movl	%edi, -40(%rbp)
	movl	%esi, -16(%rbp)
	movl	%edx, -12(%rbp)
	movl	%ecx, -36(%rbp)
	movq	%r8, -8(%rbp)
	movq	img, %rax
	movq	14168(%rax), %rax
	movl	-40(%rbp), %ecx
	imulq	$632, %rcx, %rcx        # imm = 0x278
	addq	%rcx, %rax
	movq	%rax, -32(%rbp)
	cmpl	$0, -36(%rbp)
	je	.LBB11_2
# %bb.1:                                # %if.then
	movl	$16, -20(%rbp)
	movl	$16, -24(%rbp)
	jmp	.LBB11_3
.LBB11_2:                               # %if.else
	movq	img, %rax
	movl	72708(%rax), %eax
	movl	%eax, -20(%rbp)
	movq	img, %rax
	movl	72712(%rax), %eax
	movl	%eax, -24(%rbp)
.LBB11_3:                               # %if.end
	cmpl	$0, -16(%rbp)
	jge	.LBB11_6
# %bb.4:                                # %land.lhs.true
	cmpl	$0, -12(%rbp)
	jge	.LBB11_6
# %bb.5:                                # %if.then2
	movq	-32(%rbp), %rax
	movl	548(%rax), %eax
	movq	-8(%rbp), %rcx
	movl	%eax, 4(%rcx)
	movq	-32(%rbp), %rax
	movl	564(%rax), %eax
	movq	-8(%rbp), %rcx
	movl	%eax, (%rcx)
	jmp	.LBB11_27
.LBB11_6:                               # %if.else3
	cmpl	$0, -16(%rbp)
	jge	.LBB11_10
# %bb.7:                                # %land.lhs.true5
	cmpl	$0, -12(%rbp)
	jl	.LBB11_10
# %bb.8:                                # %land.lhs.true7
	movl	-12(%rbp), %eax
	cmpl	-24(%rbp), %eax
	jge	.LBB11_10
# %bb.9:                                # %if.then9
	movq	-32(%rbp), %rax
	movl	536(%rax), %eax
	movq	-8(%rbp), %rcx
	movl	%eax, 4(%rcx)
	movq	-32(%rbp), %rax
	movl	552(%rax), %eax
	movq	-8(%rbp), %rcx
	movl	%eax, (%rcx)
	jmp	.LBB11_26
.LBB11_10:                              # %if.else12
	cmpl	$0, -16(%rbp)
	jl	.LBB11_14
# %bb.11:                               # %land.lhs.true14
	movl	-16(%rbp), %eax
	cmpl	-20(%rbp), %eax
	jge	.LBB11_14
# %bb.12:                               # %land.lhs.true16
	cmpl	$0, -12(%rbp)
	jge	.LBB11_14
# %bb.13:                               # %if.then18
	movq	-32(%rbp), %rax
	movl	540(%rax), %eax
	movq	-8(%rbp), %rcx
	movl	%eax, 4(%rcx)
	movq	-32(%rbp), %rax
	movl	556(%rax), %eax
	movq	-8(%rbp), %rcx
	movl	%eax, (%rcx)
	jmp	.LBB11_25
.LBB11_14:                              # %if.else21
	cmpl	$0, -16(%rbp)
	jl	.LBB11_19
# %bb.15:                               # %land.lhs.true23
	movl	-16(%rbp), %eax
	cmpl	-20(%rbp), %eax
	jge	.LBB11_19
# %bb.16:                               # %land.lhs.true25
	cmpl	$0, -12(%rbp)
	jl	.LBB11_19
# %bb.17:                               # %land.lhs.true27
	movl	-12(%rbp), %eax
	cmpl	-24(%rbp), %eax
	jge	.LBB11_19
# %bb.18:                               # %if.then29
	movl	-40(%rbp), %eax
	movq	-8(%rbp), %rcx
	movl	%eax, 4(%rcx)
	movq	-8(%rbp), %rax
	movl	$1, (%rax)
	jmp	.LBB11_24
.LBB11_19:                              # %if.else32
	movl	-16(%rbp), %eax
	cmpl	-20(%rbp), %eax
	jl	.LBB11_22
# %bb.20:                               # %land.lhs.true34
	cmpl	$0, -12(%rbp)
	jge	.LBB11_22
# %bb.21:                               # %if.then36
	movq	-32(%rbp), %rax
	movl	544(%rax), %eax
	movq	-8(%rbp), %rcx
	movl	%eax, 4(%rcx)
	movq	-32(%rbp), %rax
	movl	560(%rax), %eax
	movq	-8(%rbp), %rcx
	movl	%eax, (%rcx)
	jmp	.LBB11_23
.LBB11_22:                              # %if.else39
	movq	-8(%rbp), %rax
	movl	$0, (%rax)
.LBB11_23:                              # %if.end41
	jmp	.LBB11_24
.LBB11_24:                              # %if.end42
	jmp	.LBB11_25
.LBB11_25:                              # %if.end43
	jmp	.LBB11_26
.LBB11_26:                              # %if.end44
	jmp	.LBB11_27
.LBB11_27:                              # %if.end45
	movq	-8(%rbp), %rax
	cmpl	$0, (%rax)
	jne	.LBB11_29
# %bb.28:                               # %lor.lhs.false
	movq	img, %rax
	cmpl	$0, 72636(%rax)
	je	.LBB11_33
.LBB11_29:                              # %if.then49
	movl	-16(%rbp), %eax
	addl	-20(%rbp), %eax
	cltd
	idivl	-20(%rbp)
	movq	-8(%rbp), %rax
	movl	%edx, 8(%rax)
	movl	-12(%rbp), %eax
	addl	-24(%rbp), %eax
	cltd
	idivl	-24(%rbp)
	movq	-8(%rbp), %rax
	movl	%edx, 12(%rax)
	movq	-8(%rbp), %rax
	movl	4(%rax), %edi
	movq	-8(%rbp), %rsi
	addq	$16, %rsi
	movq	-8(%rbp), %rdx
	addq	$20, %rdx
	callq	get_mb_pos
	cmpl	$0, -36(%rbp)
	je	.LBB11_31
# %bb.30:                               # %if.then54
	movq	-8(%rbp), %rax
	movl	8(%rax), %eax
	movq	-8(%rbp), %rcx
	addl	16(%rcx), %eax
	movl	%eax, 16(%rcx)
	movq	-8(%rbp), %rax
	movl	12(%rax), %eax
	movq	-8(%rbp), %rcx
	addl	20(%rcx), %eax
	movl	%eax, 20(%rcx)
	jmp	.LBB11_32
.LBB11_31:                              # %if.else61
	movq	-8(%rbp), %rax
	movl	16(%rax), %ecx
	movq	img, %rsi
	movl	$16, %eax
	cltd
	idivl	72708(%rsi)
	movl	%eax, %esi
	movl	%ecx, %eax
	cltd
	idivl	%esi
	movq	-8(%rbp), %rcx
	addl	8(%rcx), %eax
	movq	-8(%rbp), %rcx
	movl	%eax, 16(%rcx)
	movq	-8(%rbp), %rax
	movl	20(%rax), %ecx
	movq	img, %rsi
	movl	$16, %eax
	cltd
	idivl	72712(%rsi)
	movl	%eax, %esi
	movl	%ecx, %eax
	cltd
	idivl	%esi
	movq	-8(%rbp), %rcx
	addl	12(%rcx), %eax
	movq	-8(%rbp), %rcx
	movl	%eax, 20(%rcx)
.LBB11_32:                              # %if.end75
	jmp	.LBB11_33
.LBB11_33:                              # %if.end76
	cmpl	$1388243073, -44(%rbp)  # imm = 0x52BEE881
	jne	.LBB11_35
.LBB11_34:
	addq	$48, %rsp
	popq	%rbp
	.cfi_def_cfa %rsp, 8
	retq
.LBB11_35:                              # %func_exit
	.cfi_def_cfa %rbp, 16
	callq	detect_breach
	jmp	.LBB11_34
.Lfunc_end11:
	.size	getNonAffNeighbour.3, .Lfunc_end11-getNonAffNeighbour.3
	.cfi_endproc
                                        # -- End function
	.globl	getAffNeighbour.4       # -- Begin function getAffNeighbour.4
	.p2align	4, 0x90
	.type	getAffNeighbour.4,@function
getAffNeighbour.4:                      # @getAffNeighbour.4
	.cfi_startproc
# %bb.0:                                # %entry
	pushq	%rbp
	.cfi_def_cfa_offset 16
	.cfi_offset %rbp, -16
	movq	%rsp, %rbp
	.cfi_def_cfa_register %rbp
	subq	$64, %rsp
	movl	$903675164, -56(%rbp)   # imm = 0x35DCFD1C
	movl	%edi, -40(%rbp)
	movl	%esi, -48(%rbp)
	movl	%edx, -4(%rbp)
	movl	%ecx, -52(%rbp)
	movq	%r8, -16(%rbp)
	movq	img, %rax
	movq	14168(%rax), %rax
	movl	-40(%rbp), %ecx
	imulq	$632, %rcx, %rcx        # imm = 0x278
	addq	%rcx, %rax
	movq	%rax, -32(%rbp)
	movl	$-1, -20(%rbp)
	cmpl	$0, -52(%rbp)
	je	.LBB12_2
# %bb.1:                                # %if.then
	movl	$16, -44(%rbp)
	movl	$16, -36(%rbp)
	jmp	.LBB12_3
.LBB12_2:                               # %if.else
	movq	img, %rax
	movl	72708(%rax), %eax
	movl	%eax, -44(%rbp)
	movq	img, %rax
	movl	72712(%rax), %eax
	movl	%eax, -36(%rbp)
.LBB12_3:                               # %if.end
	movq	-16(%rbp), %rax
	movl	$0, (%rax)
	movl	-4(%rbp), %eax
	movl	-36(%rbp), %ecx
	subl	$1, %ecx
	cmpl	%ecx, %eax
	jle	.LBB12_5
# %bb.4:                                # %if.then1
	jmp	.LBB12_133
.LBB12_5:                               # %if.end2
	movl	-48(%rbp), %eax
	movl	-44(%rbp), %ecx
	subl	$1, %ecx
	cmpl	%ecx, %eax
	jle	.LBB12_9
# %bb.6:                                # %land.lhs.true
	cmpl	$0, -4(%rbp)
	jl	.LBB12_9
# %bb.7:                                # %land.lhs.true6
	movl	-4(%rbp), %eax
	cmpl	-36(%rbp), %eax
	jge	.LBB12_9
# %bb.8:                                # %if.then8
	jmp	.LBB12_133
.LBB12_9:                               # %if.end9
	cmpl	$0, -48(%rbp)
	jge	.LBB12_77
# %bb.10:                               # %if.then11
	cmpl	$0, -4(%rbp)
	jge	.LBB12_31
# %bb.11:                               # %if.then13
	movq	-32(%rbp), %rax
	cmpl	$0, 532(%rax)
	jne	.LBB12_21
# %bb.12:                               # %if.then15
	movl	-40(%rbp), %eax
	andl	$1, %eax
	cmpl	$0, %eax
	jne	.LBB12_14
# %bb.13:                               # %if.then17
	movq	-32(%rbp), %rax
	movl	548(%rax), %eax
	addl	$1, %eax
	movq	-16(%rbp), %rcx
	movl	%eax, 4(%rcx)
	movq	-32(%rbp), %rax
	movl	564(%rax), %eax
	movq	-16(%rbp), %rcx
	movl	%eax, (%rcx)
	movl	-4(%rbp), %eax
	movl	%eax, -20(%rbp)
	jmp	.LBB12_20
.LBB12_14:                              # %if.else19
	movq	-32(%rbp), %rax
	movl	536(%rax), %eax
	movq	-16(%rbp), %rcx
	movl	%eax, 4(%rcx)
	movq	-32(%rbp), %rax
	movl	552(%rax), %eax
	movq	-16(%rbp), %rcx
	movl	%eax, (%rcx)
	movq	-32(%rbp), %rax
	cmpl	$0, 552(%rax)
	je	.LBB12_19
# %bb.15:                               # %if.then24
	movq	img, %rax
	movq	14168(%rax), %rax
	movq	-32(%rbp), %rcx
	movslq	536(%rcx), %rcx
	imulq	$632, %rcx, %rcx        # imm = 0x278
	addq	%rcx, %rax
	cmpl	$0, 532(%rax)
	jne	.LBB12_17
# %bb.16:                               # %if.then31
	movl	-4(%rbp), %eax
	movl	%eax, -20(%rbp)
	jmp	.LBB12_18
.LBB12_17:                              # %if.else32
	movq	-16(%rbp), %rax
	movl	4(%rax), %ecx
	addl	$1, %ecx
	movl	%ecx, 4(%rax)
	movl	-4(%rbp), %eax
	addl	-36(%rbp), %eax
	sarl	$1, %eax
	movl	%eax, -20(%rbp)
.LBB12_18:                              # %if.end35
	jmp	.LBB12_19
.LBB12_19:                              # %if.end36
	jmp	.LBB12_20
.LBB12_20:                              # %if.end37
	jmp	.LBB12_30
.LBB12_21:                              # %if.else38
	movl	-40(%rbp), %eax
	andl	$1, %eax
	cmpl	$0, %eax
	jne	.LBB12_28
# %bb.22:                               # %if.then41
	movq	-32(%rbp), %rax
	movl	548(%rax), %eax
	movq	-16(%rbp), %rcx
	movl	%eax, 4(%rcx)
	movq	-32(%rbp), %rax
	movl	564(%rax), %eax
	movq	-16(%rbp), %rcx
	movl	%eax, (%rcx)
	movq	-32(%rbp), %rax
	cmpl	$0, 564(%rax)
	je	.LBB12_27
# %bb.23:                               # %if.then48
	movq	img, %rax
	movq	14168(%rax), %rax
	movq	-32(%rbp), %rcx
	movslq	548(%rcx), %rcx
	imulq	$632, %rcx, %rcx        # imm = 0x278
	addq	%rcx, %rax
	cmpl	$0, 532(%rax)
	jne	.LBB12_25
# %bb.24:                               # %if.then55
	movq	-16(%rbp), %rax
	movl	4(%rax), %ecx
	addl	$1, %ecx
	movl	%ecx, 4(%rax)
	movl	-4(%rbp), %eax
	shll	$1, %eax
	movl	%eax, -20(%rbp)
	jmp	.LBB12_26
.LBB12_25:                              # %if.else58
	movl	-4(%rbp), %eax
	movl	%eax, -20(%rbp)
.LBB12_26:                              # %if.end59
	jmp	.LBB12_27
.LBB12_27:                              # %if.end60
	jmp	.LBB12_29
.LBB12_28:                              # %if.else61
	movq	-32(%rbp), %rax
	movl	548(%rax), %eax
	addl	$1, %eax
	movq	-16(%rbp), %rcx
	movl	%eax, 4(%rcx)
	movq	-32(%rbp), %rax
	movl	564(%rax), %eax
	movq	-16(%rbp), %rcx
	movl	%eax, (%rcx)
	movl	-4(%rbp), %eax
	movl	%eax, -20(%rbp)
.LBB12_29:                              # %if.end67
	jmp	.LBB12_30
.LBB12_30:                              # %if.end68
	jmp	.LBB12_76
.LBB12_31:                              # %if.else69
	cmpl	$0, -4(%rbp)
	jl	.LBB12_75
# %bb.32:                               # %land.lhs.true71
	movl	-4(%rbp), %eax
	cmpl	-36(%rbp), %eax
	jge	.LBB12_75
# %bb.33:                               # %if.then73
	movq	-32(%rbp), %rax
	cmpl	$0, 532(%rax)
	jne	.LBB12_54
# %bb.34:                               # %if.then76
	movl	-40(%rbp), %eax
	andl	$1, %eax
	cmpl	$0, %eax
	jne	.LBB12_44
# %bb.35:                               # %if.then79
	movq	-32(%rbp), %rax
	movl	536(%rax), %eax
	movq	-16(%rbp), %rcx
	movl	%eax, 4(%rcx)
	movq	-32(%rbp), %rax
	movl	552(%rax), %eax
	movq	-16(%rbp), %rcx
	movl	%eax, (%rcx)
	movq	-32(%rbp), %rax
	cmpl	$0, 552(%rax)
	je	.LBB12_43
# %bb.36:                               # %if.then86
	movq	img, %rax
	movq	14168(%rax), %rax
	movq	-32(%rbp), %rcx
	movslq	536(%rcx), %rcx
	imulq	$632, %rcx, %rcx        # imm = 0x278
	addq	%rcx, %rax
	cmpl	$0, 532(%rax)
	jne	.LBB12_38
# %bb.37:                               # %if.then93
	movl	-4(%rbp), %eax
	movl	%eax, -20(%rbp)
	jmp	.LBB12_42
.LBB12_38:                              # %if.else94
	movl	-4(%rbp), %eax
	cltd
	movl	$2, %ecx
	idivl	%ecx
	cmpl	$0, %edx
	jne	.LBB12_40
# %bb.39:                               # %if.then97
	movl	-4(%rbp), %eax
	sarl	$1, %eax
	movl	%eax, -20(%rbp)
	jmp	.LBB12_41
.LBB12_40:                              # %if.else99
	movq	-16(%rbp), %rax
	movl	4(%rax), %ecx
	addl	$1, %ecx
	movl	%ecx, 4(%rax)
	movl	-4(%rbp), %eax
	sarl	$1, %eax
	movl	%eax, -20(%rbp)
.LBB12_41:                              # %if.end103
	jmp	.LBB12_42
.LBB12_42:                              # %if.end104
	jmp	.LBB12_43
.LBB12_43:                              # %if.end105
	jmp	.LBB12_53
.LBB12_44:                              # %if.else106
	movq	-32(%rbp), %rax
	movl	536(%rax), %eax
	movq	-16(%rbp), %rcx
	movl	%eax, 4(%rcx)
	movq	-32(%rbp), %rax
	movl	552(%rax), %eax
	movq	-16(%rbp), %rcx
	movl	%eax, (%rcx)
	movq	-32(%rbp), %rax
	cmpl	$0, 552(%rax)
	je	.LBB12_52
# %bb.45:                               # %if.then113
	movq	img, %rax
	movq	14168(%rax), %rax
	movq	-32(%rbp), %rcx
	movslq	536(%rcx), %rcx
	imulq	$632, %rcx, %rcx        # imm = 0x278
	addq	%rcx, %rax
	cmpl	$0, 532(%rax)
	jne	.LBB12_47
# %bb.46:                               # %if.then120
	movq	-16(%rbp), %rax
	movl	4(%rax), %ecx
	addl	$1, %ecx
	movl	%ecx, 4(%rax)
	movl	-4(%rbp), %eax
	movl	%eax, -20(%rbp)
	jmp	.LBB12_51
.LBB12_47:                              # %if.else123
	movl	-4(%rbp), %eax
	cltd
	movl	$2, %ecx
	idivl	%ecx
	cmpl	$0, %edx
	jne	.LBB12_49
# %bb.48:                               # %if.then126
	movl	-4(%rbp), %eax
	addl	-36(%rbp), %eax
	sarl	$1, %eax
	movl	%eax, -20(%rbp)
	jmp	.LBB12_50
.LBB12_49:                              # %if.else129
	movq	-16(%rbp), %rax
	movl	4(%rax), %ecx
	addl	$1, %ecx
	movl	%ecx, 4(%rax)
	movl	-4(%rbp), %eax
	addl	-36(%rbp), %eax
	sarl	$1, %eax
	movl	%eax, -20(%rbp)
.LBB12_50:                              # %if.end134
	jmp	.LBB12_51
.LBB12_51:                              # %if.end135
	jmp	.LBB12_52
.LBB12_52:                              # %if.end136
	jmp	.LBB12_53
.LBB12_53:                              # %if.end137
	jmp	.LBB12_74
.LBB12_54:                              # %if.else138
	movl	-40(%rbp), %eax
	andl	$1, %eax
	cmpl	$0, %eax
	jne	.LBB12_64
# %bb.55:                               # %if.then141
	movq	-32(%rbp), %rax
	movl	536(%rax), %eax
	movq	-16(%rbp), %rcx
	movl	%eax, 4(%rcx)
	movq	-32(%rbp), %rax
	movl	552(%rax), %eax
	movq	-16(%rbp), %rcx
	movl	%eax, (%rcx)
	movq	-32(%rbp), %rax
	cmpl	$0, 552(%rax)
	je	.LBB12_63
# %bb.56:                               # %if.then148
	movq	img, %rax
	movq	14168(%rax), %rax
	movq	-32(%rbp), %rcx
	movslq	536(%rcx), %rcx
	imulq	$632, %rcx, %rcx        # imm = 0x278
	addq	%rcx, %rax
	cmpl	$0, 532(%rax)
	jne	.LBB12_61
# %bb.57:                               # %if.then155
	movl	-4(%rbp), %ecx
	movl	-36(%rbp), %eax
	cltd
	movl	$2, %esi
	idivl	%esi
	cmpl	%eax, %ecx
	jge	.LBB12_59
# %bb.58:                               # %if.then157
	movl	-4(%rbp), %eax
	shll	$1, %eax
	movl	%eax, -20(%rbp)
	jmp	.LBB12_60
.LBB12_59:                              # %if.else158
	movq	-16(%rbp), %rax
	movl	4(%rax), %ecx
	addl	$1, %ecx
	movl	%ecx, 4(%rax)
	movl	-4(%rbp), %eax
	shll	$1, %eax
	subl	-36(%rbp), %eax
	movl	%eax, -20(%rbp)
.LBB12_60:                              # %if.end163
	jmp	.LBB12_62
.LBB12_61:                              # %if.else164
	movl	-4(%rbp), %eax
	movl	%eax, -20(%rbp)
.LBB12_62:                              # %if.end165
	jmp	.LBB12_63
.LBB12_63:                              # %if.end166
	jmp	.LBB12_73
.LBB12_64:                              # %if.else167
	movq	-32(%rbp), %rax
	movl	536(%rax), %eax
	movq	-16(%rbp), %rcx
	movl	%eax, 4(%rcx)
	movq	-32(%rbp), %rax
	movl	552(%rax), %eax
	movq	-16(%rbp), %rcx
	movl	%eax, (%rcx)
	movq	-32(%rbp), %rax
	cmpl	$0, 552(%rax)
	je	.LBB12_72
# %bb.65:                               # %if.then174
	movq	img, %rax
	movq	14168(%rax), %rax
	movq	-32(%rbp), %rcx
	movslq	536(%rcx), %rcx
	imulq	$632, %rcx, %rcx        # imm = 0x278
	addq	%rcx, %rax
	cmpl	$0, 532(%rax)
	jne	.LBB12_70
# %bb.66:                               # %if.then181
	movl	-4(%rbp), %ecx
	movl	-36(%rbp), %eax
	cltd
	movl	$2, %esi
	idivl	%esi
	cmpl	%eax, %ecx
	jge	.LBB12_68
# %bb.67:                               # %if.then184
	movl	-4(%rbp), %eax
	shll	$1, %eax
	addl	$1, %eax
	movl	%eax, -20(%rbp)
	jmp	.LBB12_69
.LBB12_68:                              # %if.else187
	movq	-16(%rbp), %rax
	movl	4(%rax), %ecx
	addl	$1, %ecx
	movl	%ecx, 4(%rax)
	movl	-4(%rbp), %eax
	shll	$1, %eax
	addl	$1, %eax
	subl	-36(%rbp), %eax
	movl	%eax, -20(%rbp)
.LBB12_69:                              # %if.end193
	jmp	.LBB12_71
.LBB12_70:                              # %if.else194
	movq	-16(%rbp), %rax
	movl	4(%rax), %ecx
	addl	$1, %ecx
	movl	%ecx, 4(%rax)
	movl	-4(%rbp), %eax
	movl	%eax, -20(%rbp)
.LBB12_71:                              # %if.end197
	jmp	.LBB12_72
.LBB12_72:                              # %if.end198
	jmp	.LBB12_73
.LBB12_73:                              # %if.end199
	jmp	.LBB12_74
.LBB12_74:                              # %if.end200
	jmp	.LBB12_75
.LBB12_75:                              # %if.end201
	jmp	.LBB12_76
.LBB12_76:                              # %if.end202
	jmp	.LBB12_127
.LBB12_77:                              # %if.else203
	cmpl	$0, -48(%rbp)
	jl	.LBB12_109
# %bb.78:                               # %land.lhs.true205
	movl	-48(%rbp), %eax
	cmpl	-44(%rbp), %eax
	jge	.LBB12_109
# %bb.79:                               # %if.then207
	cmpl	$0, -4(%rbp)
	jge	.LBB12_100
# %bb.80:                               # %if.then209
	movq	-32(%rbp), %rax
	cmpl	$0, 532(%rax)
	jne	.LBB12_90
# %bb.81:                               # %if.then212
	movl	-40(%rbp), %eax
	andl	$1, %eax
	cmpl	$0, %eax
	jne	.LBB12_88
# %bb.82:                               # %if.then215
	movq	-32(%rbp), %rax
	movl	540(%rax), %eax
	movq	-16(%rbp), %rcx
	movl	%eax, 4(%rcx)
	movq	-32(%rbp), %rax
	cmpl	$0, 556(%rax)
	je	.LBB12_87
# %bb.83:                               # %if.then218
	movq	img, %rax
	cmpl	$1, 72636(%rax)
	jne	.LBB12_85
# %bb.84:                               # %land.lhs.true220
	movq	img, %rax
	movq	14168(%rax), %rax
	movq	-32(%rbp), %rcx
	movslq	540(%rcx), %rcx
	imulq	$632, %rcx, %rcx        # imm = 0x278
	addq	%rcx, %rax
	cmpl	$0, 532(%rax)
	jne	.LBB12_86
.LBB12_85:                              # %if.then227
	movq	-16(%rbp), %rax
	movl	4(%rax), %ecx
	addl	$1, %ecx
	movl	%ecx, 4(%rax)
.LBB12_86:                              # %if.end230
	jmp	.LBB12_87
.LBB12_87:                              # %if.end231
	movq	-32(%rbp), %rax
	movl	556(%rax), %eax
	movq	-16(%rbp), %rcx
	movl	%eax, (%rcx)
	movl	-4(%rbp), %eax
	movl	%eax, -20(%rbp)
	jmp	.LBB12_89
.LBB12_88:                              # %if.else234
	movl	-40(%rbp), %eax
	subl	$1, %eax
	movq	-16(%rbp), %rcx
	movl	%eax, 4(%rcx)
	movq	-16(%rbp), %rax
	movl	$1, (%rax)
	movl	-4(%rbp), %eax
	movl	%eax, -20(%rbp)
.LBB12_89:                              # %if.end238
	jmp	.LBB12_99
.LBB12_90:                              # %if.else239
	movl	-40(%rbp), %eax
	andl	$1, %eax
	cmpl	$0, %eax
	jne	.LBB12_97
# %bb.91:                               # %if.then242
	movq	-32(%rbp), %rax
	movl	540(%rax), %eax
	movq	-16(%rbp), %rcx
	movl	%eax, 4(%rcx)
	movq	-32(%rbp), %rax
	movl	556(%rax), %eax
	movq	-16(%rbp), %rcx
	movl	%eax, (%rcx)
	movq	-32(%rbp), %rax
	cmpl	$0, 556(%rax)
	je	.LBB12_96
# %bb.92:                               # %if.then249
	movq	img, %rax
	movq	14168(%rax), %rax
	movq	-32(%rbp), %rcx
	movslq	540(%rcx), %rcx
	imulq	$632, %rcx, %rcx        # imm = 0x278
	addq	%rcx, %rax
	cmpl	$0, 532(%rax)
	jne	.LBB12_94
# %bb.93:                               # %if.then256
	movq	-16(%rbp), %rax
	movl	4(%rax), %ecx
	addl	$1, %ecx
	movl	%ecx, 4(%rax)
	movl	-4(%rbp), %eax
	shll	$1, %eax
	movl	%eax, -20(%rbp)
	jmp	.LBB12_95
.LBB12_94:                              # %if.else260
	movl	-4(%rbp), %eax
	movl	%eax, -20(%rbp)
.LBB12_95:                              # %if.end261
	jmp	.LBB12_96
.LBB12_96:                              # %if.end262
	jmp	.LBB12_98
.LBB12_97:                              # %if.else263
	movq	-32(%rbp), %rax
	movl	540(%rax), %eax
	addl	$1, %eax
	movq	-16(%rbp), %rcx
	movl	%eax, 4(%rcx)
	movq	-32(%rbp), %rax
	movl	556(%rax), %eax
	movq	-16(%rbp), %rcx
	movl	%eax, (%rcx)
	movl	-4(%rbp), %eax
	movl	%eax, -20(%rbp)
.LBB12_98:                              # %if.end269
	jmp	.LBB12_99
.LBB12_99:                              # %if.end270
	jmp	.LBB12_108
.LBB12_100:                             # %if.else271
	cmpl	$0, -4(%rbp)
	jne	.LBB12_103
# %bb.101:                              # %land.lhs.true273
	movq	img, %rax
	cmpl	$2, 72636(%rax)
	jne	.LBB12_103
# %bb.102:                              # %if.then276
	movq	-32(%rbp), %rax
	movl	540(%rax), %eax
	addl	$1, %eax
	movq	-16(%rbp), %rcx
	movl	%eax, 4(%rcx)
	movq	-16(%rbp), %rax
	movl	$1, (%rax)
	movl	-4(%rbp), %eax
	subl	$1, %eax
	movl	%eax, -20(%rbp)
	jmp	.LBB12_107
.LBB12_103:                             # %if.else282
	cmpl	$0, -4(%rbp)
	jl	.LBB12_106
# %bb.104:                              # %land.lhs.true284
	movl	-4(%rbp), %eax
	cmpl	-36(%rbp), %eax
	jge	.LBB12_106
# %bb.105:                              # %if.then286
	movl	-40(%rbp), %eax
	movq	-16(%rbp), %rcx
	movl	%eax, 4(%rcx)
	movq	-16(%rbp), %rax
	movl	$1, (%rax)
	movl	-4(%rbp), %eax
	movl	%eax, -20(%rbp)
.LBB12_106:                             # %if.end289
	jmp	.LBB12_107
.LBB12_107:                             # %if.end290
	jmp	.LBB12_108
.LBB12_108:                             # %if.end291
	jmp	.LBB12_126
.LBB12_109:                             # %if.else292
	cmpl	$0, -4(%rbp)
	jge	.LBB12_125
# %bb.110:                              # %if.then294
	movq	-32(%rbp), %rax
	cmpl	$0, 532(%rax)
	jne	.LBB12_115
# %bb.111:                              # %if.then297
	movl	-40(%rbp), %eax
	andl	$1, %eax
	cmpl	$0, %eax
	jne	.LBB12_113
# %bb.112:                              # %if.then300
	movq	-32(%rbp), %rax
	movl	544(%rax), %eax
	addl	$1, %eax
	movq	-16(%rbp), %rcx
	movl	%eax, 4(%rcx)
	movq	-32(%rbp), %rax
	movl	560(%rax), %eax
	movq	-16(%rbp), %rcx
	movl	%eax, (%rcx)
	movl	-4(%rbp), %eax
	movl	%eax, -20(%rbp)
	jmp	.LBB12_114
.LBB12_113:                             # %if.else304
	movq	-16(%rbp), %rax
	movl	$0, (%rax)
.LBB12_114:                             # %if.end306
	jmp	.LBB12_124
.LBB12_115:                             # %if.else307
	movl	-40(%rbp), %eax
	andl	$1, %eax
	cmpl	$0, %eax
	jne	.LBB12_122
# %bb.116:                              # %if.then310
	movq	-32(%rbp), %rax
	movl	544(%rax), %eax
	movq	-16(%rbp), %rcx
	movl	%eax, 4(%rcx)
	movq	-32(%rbp), %rax
	movl	560(%rax), %eax
	movq	-16(%rbp), %rcx
	movl	%eax, (%rcx)
	movq	-32(%rbp), %rax
	cmpl	$0, 560(%rax)
	je	.LBB12_121
# %bb.117:                              # %if.then317
	movq	img, %rax
	movq	14168(%rax), %rax
	movq	-32(%rbp), %rcx
	movslq	544(%rcx), %rcx
	imulq	$632, %rcx, %rcx        # imm = 0x278
	addq	%rcx, %rax
	cmpl	$0, 532(%rax)
	jne	.LBB12_119
# %bb.118:                              # %if.then324
	movq	-16(%rbp), %rax
	movl	4(%rax), %ecx
	addl	$1, %ecx
	movl	%ecx, 4(%rax)
	movl	-4(%rbp), %eax
	shll	$1, %eax
	movl	%eax, -20(%rbp)
	jmp	.LBB12_120
.LBB12_119:                             # %if.else328
	movl	-4(%rbp), %eax
	movl	%eax, -20(%rbp)
.LBB12_120:                             # %if.end329
	jmp	.LBB12_121
.LBB12_121:                             # %if.end330
	jmp	.LBB12_123
.LBB12_122:                             # %if.else331
	movq	-32(%rbp), %rax
	movl	544(%rax), %eax
	addl	$1, %eax
	movq	-16(%rbp), %rcx
	movl	%eax, 4(%rcx)
	movq	-32(%rbp), %rax
	movl	560(%rax), %eax
	movq	-16(%rbp), %rcx
	movl	%eax, (%rcx)
	movl	-4(%rbp), %eax
	movl	%eax, -20(%rbp)
.LBB12_123:                             # %if.end337
	jmp	.LBB12_124
.LBB12_124:                             # %if.end338
	jmp	.LBB12_125
.LBB12_125:                             # %if.end339
	jmp	.LBB12_126
.LBB12_126:                             # %if.end340
	jmp	.LBB12_127
.LBB12_127:                             # %if.end341
	movq	-16(%rbp), %rax
	cmpl	$0, (%rax)
	jne	.LBB12_129
# %bb.128:                              # %lor.lhs.false
	movq	img, %rax
	cmpl	$0, 72636(%rax)
	je	.LBB12_133
.LBB12_129:                             # %if.then346
	movl	-48(%rbp), %eax
	addl	-44(%rbp), %eax
	cltd
	idivl	-44(%rbp)
	movq	-16(%rbp), %rax
	movl	%edx, 8(%rax)
	movl	-20(%rbp), %eax
	addl	-36(%rbp), %eax
	cltd
	idivl	-36(%rbp)
	movq	-16(%rbp), %rax
	movl	%edx, 12(%rax)
	movq	-16(%rbp), %rax
	movl	4(%rax), %edi
	movq	-16(%rbp), %rsi
	addq	$16, %rsi
	movq	-16(%rbp), %rdx
	addq	$20, %rdx
	callq	get_mb_pos
	cmpl	$0, -52(%rbp)
	je	.LBB12_131
# %bb.130:                              # %if.then353
	movq	-16(%rbp), %rax
	movl	8(%rax), %eax
	movq	-16(%rbp), %rcx
	addl	16(%rcx), %eax
	movl	%eax, 16(%rcx)
	movq	-16(%rbp), %rax
	movl	12(%rax), %eax
	movq	-16(%rbp), %rcx
	addl	20(%rcx), %eax
	movl	%eax, 20(%rcx)
	jmp	.LBB12_132
.LBB12_131:                             # %if.else360
	movq	-16(%rbp), %rax
	movl	16(%rax), %ecx
	movq	img, %rsi
	movl	$16, %eax
	cltd
	idivl	72708(%rsi)
	movl	%eax, %esi
	movl	%ecx, %eax
	cltd
	idivl	%esi
	movq	-16(%rbp), %rcx
	addl	8(%rcx), %eax
	movq	-16(%rbp), %rcx
	movl	%eax, 16(%rcx)
	movq	-16(%rbp), %rax
	movl	20(%rax), %ecx
	movq	img, %rsi
	movl	$16, %eax
	cltd
	idivl	72712(%rsi)
	movl	%eax, %esi
	movl	%ecx, %eax
	cltd
	idivl	%esi
	movq	-16(%rbp), %rcx
	addl	12(%rcx), %eax
	movq	-16(%rbp), %rcx
	movl	%eax, 20(%rcx)
.LBB12_132:                             # %if.end375
	jmp	.LBB12_133
.LBB12_133:                             # %if.end376
	cmpl	$903675164, -56(%rbp)   # imm = 0x35DCFD1C
	jne	.LBB12_135
.LBB12_134:
	addq	$64, %rsp
	popq	%rbp
	.cfi_def_cfa %rsp, 8
	retq
.LBB12_135:                             # %func_exit
	.cfi_def_cfa %rbp, 16
	callq	detect_breach
	jmp	.LBB12_134
.Lfunc_end12:
	.size	getAffNeighbour.4, .Lfunc_end12-getAffNeighbour.4
	.cfi_endproc
                                        # -- End function
	.globl	getAffNeighbour.5       # -- Begin function getAffNeighbour.5
	.p2align	4, 0x90
	.type	getAffNeighbour.5,@function
getAffNeighbour.5:                      # @getAffNeighbour.5
	.cfi_startproc
# %bb.0:                                # %entry
	pushq	%rbp
	.cfi_def_cfa_offset 16
	.cfi_offset %rbp, -16
	movq	%rsp, %rbp
	.cfi_def_cfa_register %rbp
	subq	$64, %rsp
	movl	$653404352, -56(%rbp)   # imm = 0x26F228C0
	movl	%edi, -40(%rbp)
	movl	%esi, -44(%rbp)
	movl	%edx, -4(%rbp)
	movl	%ecx, -52(%rbp)
	movq	%r8, -16(%rbp)
	movq	img, %rax
	movq	14168(%rax), %rax
	movl	-40(%rbp), %ecx
	imulq	$632, %rcx, %rcx        # imm = 0x278
	addq	%rcx, %rax
	movq	%rax, -32(%rbp)
	movl	$-1, -20(%rbp)
	cmpl	$0, -52(%rbp)
	je	.LBB13_2
# %bb.1:                                # %if.then
	movl	$16, -48(%rbp)
	movl	$16, -36(%rbp)
	jmp	.LBB13_3
.LBB13_2:                               # %if.else
	movq	img, %rax
	movl	72708(%rax), %eax
	movl	%eax, -48(%rbp)
	movq	img, %rax
	movl	72712(%rax), %eax
	movl	%eax, -36(%rbp)
.LBB13_3:                               # %if.end
	movq	-16(%rbp), %rax
	movl	$0, (%rax)
	movl	-4(%rbp), %eax
	movl	-36(%rbp), %ecx
	subl	$1, %ecx
	cmpl	%ecx, %eax
	jle	.LBB13_5
# %bb.4:                                # %if.then1
	jmp	.LBB13_133
.LBB13_5:                               # %if.end2
	movl	-44(%rbp), %eax
	movl	-48(%rbp), %ecx
	subl	$1, %ecx
	cmpl	%ecx, %eax
	jle	.LBB13_9
# %bb.6:                                # %land.lhs.true
	cmpl	$0, -4(%rbp)
	jl	.LBB13_9
# %bb.7:                                # %land.lhs.true6
	movl	-4(%rbp), %eax
	cmpl	-36(%rbp), %eax
	jge	.LBB13_9
# %bb.8:                                # %if.then8
	jmp	.LBB13_133
.LBB13_9:                               # %if.end9
	cmpl	$0, -44(%rbp)
	jge	.LBB13_77
# %bb.10:                               # %if.then11
	cmpl	$0, -4(%rbp)
	jge	.LBB13_31
# %bb.11:                               # %if.then13
	movq	-32(%rbp), %rax
	cmpl	$0, 532(%rax)
	jne	.LBB13_21
# %bb.12:                               # %if.then15
	movl	-40(%rbp), %eax
	andl	$1, %eax
	cmpl	$0, %eax
	jne	.LBB13_14
# %bb.13:                               # %if.then17
	movq	-32(%rbp), %rax
	movl	548(%rax), %eax
	addl	$1, %eax
	movq	-16(%rbp), %rcx
	movl	%eax, 4(%rcx)
	movq	-32(%rbp), %rax
	movl	564(%rax), %eax
	movq	-16(%rbp), %rcx
	movl	%eax, (%rcx)
	movl	-4(%rbp), %eax
	movl	%eax, -20(%rbp)
	jmp	.LBB13_20
.LBB13_14:                              # %if.else19
	movq	-32(%rbp), %rax
	movl	536(%rax), %eax
	movq	-16(%rbp), %rcx
	movl	%eax, 4(%rcx)
	movq	-32(%rbp), %rax
	movl	552(%rax), %eax
	movq	-16(%rbp), %rcx
	movl	%eax, (%rcx)
	movq	-32(%rbp), %rax
	cmpl	$0, 552(%rax)
	je	.LBB13_19
# %bb.15:                               # %if.then24
	movq	img, %rax
	movq	14168(%rax), %rax
	movq	-32(%rbp), %rcx
	movslq	536(%rcx), %rcx
	imulq	$632, %rcx, %rcx        # imm = 0x278
	addq	%rcx, %rax
	cmpl	$0, 532(%rax)
	jne	.LBB13_17
# %bb.16:                               # %if.then31
	movl	-4(%rbp), %eax
	movl	%eax, -20(%rbp)
	jmp	.LBB13_18
.LBB13_17:                              # %if.else32
	movq	-16(%rbp), %rax
	movl	4(%rax), %ecx
	addl	$1, %ecx
	movl	%ecx, 4(%rax)
	movl	-4(%rbp), %eax
	addl	-36(%rbp), %eax
	sarl	$1, %eax
	movl	%eax, -20(%rbp)
.LBB13_18:                              # %if.end35
	jmp	.LBB13_19
.LBB13_19:                              # %if.end36
	jmp	.LBB13_20
.LBB13_20:                              # %if.end37
	jmp	.LBB13_30
.LBB13_21:                              # %if.else38
	movl	-40(%rbp), %eax
	andl	$1, %eax
	cmpl	$0, %eax
	jne	.LBB13_28
# %bb.22:                               # %if.then41
	movq	-32(%rbp), %rax
	movl	548(%rax), %eax
	movq	-16(%rbp), %rcx
	movl	%eax, 4(%rcx)
	movq	-32(%rbp), %rax
	movl	564(%rax), %eax
	movq	-16(%rbp), %rcx
	movl	%eax, (%rcx)
	movq	-32(%rbp), %rax
	cmpl	$0, 564(%rax)
	je	.LBB13_27
# %bb.23:                               # %if.then48
	movq	img, %rax
	movq	14168(%rax), %rax
	movq	-32(%rbp), %rcx
	movslq	548(%rcx), %rcx
	imulq	$632, %rcx, %rcx        # imm = 0x278
	addq	%rcx, %rax
	cmpl	$0, 532(%rax)
	jne	.LBB13_25
# %bb.24:                               # %if.then55
	movq	-16(%rbp), %rax
	movl	4(%rax), %ecx
	addl	$1, %ecx
	movl	%ecx, 4(%rax)
	movl	-4(%rbp), %eax
	shll	$1, %eax
	movl	%eax, -20(%rbp)
	jmp	.LBB13_26
.LBB13_25:                              # %if.else58
	movl	-4(%rbp), %eax
	movl	%eax, -20(%rbp)
.LBB13_26:                              # %if.end59
	jmp	.LBB13_27
.LBB13_27:                              # %if.end60
	jmp	.LBB13_29
.LBB13_28:                              # %if.else61
	movq	-32(%rbp), %rax
	movl	548(%rax), %eax
	addl	$1, %eax
	movq	-16(%rbp), %rcx
	movl	%eax, 4(%rcx)
	movq	-32(%rbp), %rax
	movl	564(%rax), %eax
	movq	-16(%rbp), %rcx
	movl	%eax, (%rcx)
	movl	-4(%rbp), %eax
	movl	%eax, -20(%rbp)
.LBB13_29:                              # %if.end67
	jmp	.LBB13_30
.LBB13_30:                              # %if.end68
	jmp	.LBB13_76
.LBB13_31:                              # %if.else69
	cmpl	$0, -4(%rbp)
	jl	.LBB13_75
# %bb.32:                               # %land.lhs.true71
	movl	-4(%rbp), %eax
	cmpl	-36(%rbp), %eax
	jge	.LBB13_75
# %bb.33:                               # %if.then73
	movq	-32(%rbp), %rax
	cmpl	$0, 532(%rax)
	jne	.LBB13_54
# %bb.34:                               # %if.then76
	movl	-40(%rbp), %eax
	andl	$1, %eax
	cmpl	$0, %eax
	jne	.LBB13_44
# %bb.35:                               # %if.then79
	movq	-32(%rbp), %rax
	movl	536(%rax), %eax
	movq	-16(%rbp), %rcx
	movl	%eax, 4(%rcx)
	movq	-32(%rbp), %rax
	movl	552(%rax), %eax
	movq	-16(%rbp), %rcx
	movl	%eax, (%rcx)
	movq	-32(%rbp), %rax
	cmpl	$0, 552(%rax)
	je	.LBB13_43
# %bb.36:                               # %if.then86
	movq	img, %rax
	movq	14168(%rax), %rax
	movq	-32(%rbp), %rcx
	movslq	536(%rcx), %rcx
	imulq	$632, %rcx, %rcx        # imm = 0x278
	addq	%rcx, %rax
	cmpl	$0, 532(%rax)
	jne	.LBB13_38
# %bb.37:                               # %if.then93
	movl	-4(%rbp), %eax
	movl	%eax, -20(%rbp)
	jmp	.LBB13_42
.LBB13_38:                              # %if.else94
	movl	-4(%rbp), %eax
	cltd
	movl	$2, %ecx
	idivl	%ecx
	cmpl	$0, %edx
	jne	.LBB13_40
# %bb.39:                               # %if.then97
	movl	-4(%rbp), %eax
	sarl	$1, %eax
	movl	%eax, -20(%rbp)
	jmp	.LBB13_41
.LBB13_40:                              # %if.else99
	movq	-16(%rbp), %rax
	movl	4(%rax), %ecx
	addl	$1, %ecx
	movl	%ecx, 4(%rax)
	movl	-4(%rbp), %eax
	sarl	$1, %eax
	movl	%eax, -20(%rbp)
.LBB13_41:                              # %if.end103
	jmp	.LBB13_42
.LBB13_42:                              # %if.end104
	jmp	.LBB13_43
.LBB13_43:                              # %if.end105
	jmp	.LBB13_53
.LBB13_44:                              # %if.else106
	movq	-32(%rbp), %rax
	movl	536(%rax), %eax
	movq	-16(%rbp), %rcx
	movl	%eax, 4(%rcx)
	movq	-32(%rbp), %rax
	movl	552(%rax), %eax
	movq	-16(%rbp), %rcx
	movl	%eax, (%rcx)
	movq	-32(%rbp), %rax
	cmpl	$0, 552(%rax)
	je	.LBB13_52
# %bb.45:                               # %if.then113
	movq	img, %rax
	movq	14168(%rax), %rax
	movq	-32(%rbp), %rcx
	movslq	536(%rcx), %rcx
	imulq	$632, %rcx, %rcx        # imm = 0x278
	addq	%rcx, %rax
	cmpl	$0, 532(%rax)
	jne	.LBB13_47
# %bb.46:                               # %if.then120
	movq	-16(%rbp), %rax
	movl	4(%rax), %ecx
	addl	$1, %ecx
	movl	%ecx, 4(%rax)
	movl	-4(%rbp), %eax
	movl	%eax, -20(%rbp)
	jmp	.LBB13_51
.LBB13_47:                              # %if.else123
	movl	-4(%rbp), %eax
	cltd
	movl	$2, %ecx
	idivl	%ecx
	cmpl	$0, %edx
	jne	.LBB13_49
# %bb.48:                               # %if.then126
	movl	-4(%rbp), %eax
	addl	-36(%rbp), %eax
	sarl	$1, %eax
	movl	%eax, -20(%rbp)
	jmp	.LBB13_50
.LBB13_49:                              # %if.else129
	movq	-16(%rbp), %rax
	movl	4(%rax), %ecx
	addl	$1, %ecx
	movl	%ecx, 4(%rax)
	movl	-4(%rbp), %eax
	addl	-36(%rbp), %eax
	sarl	$1, %eax
	movl	%eax, -20(%rbp)
.LBB13_50:                              # %if.end134
	jmp	.LBB13_51
.LBB13_51:                              # %if.end135
	jmp	.LBB13_52
.LBB13_52:                              # %if.end136
	jmp	.LBB13_53
.LBB13_53:                              # %if.end137
	jmp	.LBB13_74
.LBB13_54:                              # %if.else138
	movl	-40(%rbp), %eax
	andl	$1, %eax
	cmpl	$0, %eax
	jne	.LBB13_64
# %bb.55:                               # %if.then141
	movq	-32(%rbp), %rax
	movl	536(%rax), %eax
	movq	-16(%rbp), %rcx
	movl	%eax, 4(%rcx)
	movq	-32(%rbp), %rax
	movl	552(%rax), %eax
	movq	-16(%rbp), %rcx
	movl	%eax, (%rcx)
	movq	-32(%rbp), %rax
	cmpl	$0, 552(%rax)
	je	.LBB13_63
# %bb.56:                               # %if.then148
	movq	img, %rax
	movq	14168(%rax), %rax
	movq	-32(%rbp), %rcx
	movslq	536(%rcx), %rcx
	imulq	$632, %rcx, %rcx        # imm = 0x278
	addq	%rcx, %rax
	cmpl	$0, 532(%rax)
	jne	.LBB13_61
# %bb.57:                               # %if.then155
	movl	-4(%rbp), %ecx
	movl	-36(%rbp), %eax
	cltd
	movl	$2, %esi
	idivl	%esi
	cmpl	%eax, %ecx
	jge	.LBB13_59
# %bb.58:                               # %if.then157
	movl	-4(%rbp), %eax
	shll	$1, %eax
	movl	%eax, -20(%rbp)
	jmp	.LBB13_60
.LBB13_59:                              # %if.else158
	movq	-16(%rbp), %rax
	movl	4(%rax), %ecx
	addl	$1, %ecx
	movl	%ecx, 4(%rax)
	movl	-4(%rbp), %eax
	shll	$1, %eax
	subl	-36(%rbp), %eax
	movl	%eax, -20(%rbp)
.LBB13_60:                              # %if.end163
	jmp	.LBB13_62
.LBB13_61:                              # %if.else164
	movl	-4(%rbp), %eax
	movl	%eax, -20(%rbp)
.LBB13_62:                              # %if.end165
	jmp	.LBB13_63
.LBB13_63:                              # %if.end166
	jmp	.LBB13_73
.LBB13_64:                              # %if.else167
	movq	-32(%rbp), %rax
	movl	536(%rax), %eax
	movq	-16(%rbp), %rcx
	movl	%eax, 4(%rcx)
	movq	-32(%rbp), %rax
	movl	552(%rax), %eax
	movq	-16(%rbp), %rcx
	movl	%eax, (%rcx)
	movq	-32(%rbp), %rax
	cmpl	$0, 552(%rax)
	je	.LBB13_72
# %bb.65:                               # %if.then174
	movq	img, %rax
	movq	14168(%rax), %rax
	movq	-32(%rbp), %rcx
	movslq	536(%rcx), %rcx
	imulq	$632, %rcx, %rcx        # imm = 0x278
	addq	%rcx, %rax
	cmpl	$0, 532(%rax)
	jne	.LBB13_70
# %bb.66:                               # %if.then181
	movl	-4(%rbp), %ecx
	movl	-36(%rbp), %eax
	cltd
	movl	$2, %esi
	idivl	%esi
	cmpl	%eax, %ecx
	jge	.LBB13_68
# %bb.67:                               # %if.then184
	movl	-4(%rbp), %eax
	shll	$1, %eax
	addl	$1, %eax
	movl	%eax, -20(%rbp)
	jmp	.LBB13_69
.LBB13_68:                              # %if.else187
	movq	-16(%rbp), %rax
	movl	4(%rax), %ecx
	addl	$1, %ecx
	movl	%ecx, 4(%rax)
	movl	-4(%rbp), %eax
	shll	$1, %eax
	addl	$1, %eax
	subl	-36(%rbp), %eax
	movl	%eax, -20(%rbp)
.LBB13_69:                              # %if.end193
	jmp	.LBB13_71
.LBB13_70:                              # %if.else194
	movq	-16(%rbp), %rax
	movl	4(%rax), %ecx
	addl	$1, %ecx
	movl	%ecx, 4(%rax)
	movl	-4(%rbp), %eax
	movl	%eax, -20(%rbp)
.LBB13_71:                              # %if.end197
	jmp	.LBB13_72
.LBB13_72:                              # %if.end198
	jmp	.LBB13_73
.LBB13_73:                              # %if.end199
	jmp	.LBB13_74
.LBB13_74:                              # %if.end200
	jmp	.LBB13_75
.LBB13_75:                              # %if.end201
	jmp	.LBB13_76
.LBB13_76:                              # %if.end202
	jmp	.LBB13_127
.LBB13_77:                              # %if.else203
	cmpl	$0, -44(%rbp)
	jl	.LBB13_109
# %bb.78:                               # %land.lhs.true205
	movl	-44(%rbp), %eax
	cmpl	-48(%rbp), %eax
	jge	.LBB13_109
# %bb.79:                               # %if.then207
	cmpl	$0, -4(%rbp)
	jge	.LBB13_100
# %bb.80:                               # %if.then209
	movq	-32(%rbp), %rax
	cmpl	$0, 532(%rax)
	jne	.LBB13_90
# %bb.81:                               # %if.then212
	movl	-40(%rbp), %eax
	andl	$1, %eax
	cmpl	$0, %eax
	jne	.LBB13_88
# %bb.82:                               # %if.then215
	movq	-32(%rbp), %rax
	movl	540(%rax), %eax
	movq	-16(%rbp), %rcx
	movl	%eax, 4(%rcx)
	movq	-32(%rbp), %rax
	cmpl	$0, 556(%rax)
	je	.LBB13_87
# %bb.83:                               # %if.then218
	movq	img, %rax
	cmpl	$1, 72636(%rax)
	jne	.LBB13_85
# %bb.84:                               # %land.lhs.true220
	movq	img, %rax
	movq	14168(%rax), %rax
	movq	-32(%rbp), %rcx
	movslq	540(%rcx), %rcx
	imulq	$632, %rcx, %rcx        # imm = 0x278
	addq	%rcx, %rax
	cmpl	$0, 532(%rax)
	jne	.LBB13_86
.LBB13_85:                              # %if.then227
	movq	-16(%rbp), %rax
	movl	4(%rax), %ecx
	addl	$1, %ecx
	movl	%ecx, 4(%rax)
.LBB13_86:                              # %if.end230
	jmp	.LBB13_87
.LBB13_87:                              # %if.end231
	movq	-32(%rbp), %rax
	movl	556(%rax), %eax
	movq	-16(%rbp), %rcx
	movl	%eax, (%rcx)
	movl	-4(%rbp), %eax
	movl	%eax, -20(%rbp)
	jmp	.LBB13_89
.LBB13_88:                              # %if.else234
	movl	-40(%rbp), %eax
	subl	$1, %eax
	movq	-16(%rbp), %rcx
	movl	%eax, 4(%rcx)
	movq	-16(%rbp), %rax
	movl	$1, (%rax)
	movl	-4(%rbp), %eax
	movl	%eax, -20(%rbp)
.LBB13_89:                              # %if.end238
	jmp	.LBB13_99
.LBB13_90:                              # %if.else239
	movl	-40(%rbp), %eax
	andl	$1, %eax
	cmpl	$0, %eax
	jne	.LBB13_97
# %bb.91:                               # %if.then242
	movq	-32(%rbp), %rax
	movl	540(%rax), %eax
	movq	-16(%rbp), %rcx
	movl	%eax, 4(%rcx)
	movq	-32(%rbp), %rax
	movl	556(%rax), %eax
	movq	-16(%rbp), %rcx
	movl	%eax, (%rcx)
	movq	-32(%rbp), %rax
	cmpl	$0, 556(%rax)
	je	.LBB13_96
# %bb.92:                               # %if.then249
	movq	img, %rax
	movq	14168(%rax), %rax
	movq	-32(%rbp), %rcx
	movslq	540(%rcx), %rcx
	imulq	$632, %rcx, %rcx        # imm = 0x278
	addq	%rcx, %rax
	cmpl	$0, 532(%rax)
	jne	.LBB13_94
# %bb.93:                               # %if.then256
	movq	-16(%rbp), %rax
	movl	4(%rax), %ecx
	addl	$1, %ecx
	movl	%ecx, 4(%rax)
	movl	-4(%rbp), %eax
	shll	$1, %eax
	movl	%eax, -20(%rbp)
	jmp	.LBB13_95
.LBB13_94:                              # %if.else260
	movl	-4(%rbp), %eax
	movl	%eax, -20(%rbp)
.LBB13_95:                              # %if.end261
	jmp	.LBB13_96
.LBB13_96:                              # %if.end262
	jmp	.LBB13_98
.LBB13_97:                              # %if.else263
	movq	-32(%rbp), %rax
	movl	540(%rax), %eax
	addl	$1, %eax
	movq	-16(%rbp), %rcx
	movl	%eax, 4(%rcx)
	movq	-32(%rbp), %rax
	movl	556(%rax), %eax
	movq	-16(%rbp), %rcx
	movl	%eax, (%rcx)
	movl	-4(%rbp), %eax
	movl	%eax, -20(%rbp)
.LBB13_98:                              # %if.end269
	jmp	.LBB13_99
.LBB13_99:                              # %if.end270
	jmp	.LBB13_108
.LBB13_100:                             # %if.else271
	cmpl	$0, -4(%rbp)
	jne	.LBB13_103
# %bb.101:                              # %land.lhs.true273
	movq	img, %rax
	cmpl	$2, 72636(%rax)
	jne	.LBB13_103
# %bb.102:                              # %if.then276
	movq	-32(%rbp), %rax
	movl	540(%rax), %eax
	addl	$1, %eax
	movq	-16(%rbp), %rcx
	movl	%eax, 4(%rcx)
	movq	-16(%rbp), %rax
	movl	$1, (%rax)
	movl	-4(%rbp), %eax
	subl	$1, %eax
	movl	%eax, -20(%rbp)
	jmp	.LBB13_107
.LBB13_103:                             # %if.else282
	cmpl	$0, -4(%rbp)
	jl	.LBB13_106
# %bb.104:                              # %land.lhs.true284
	movl	-4(%rbp), %eax
	cmpl	-36(%rbp), %eax
	jge	.LBB13_106
# %bb.105:                              # %if.then286
	movl	-40(%rbp), %eax
	movq	-16(%rbp), %rcx
	movl	%eax, 4(%rcx)
	movq	-16(%rbp), %rax
	movl	$1, (%rax)
	movl	-4(%rbp), %eax
	movl	%eax, -20(%rbp)
.LBB13_106:                             # %if.end289
	jmp	.LBB13_107
.LBB13_107:                             # %if.end290
	jmp	.LBB13_108
.LBB13_108:                             # %if.end291
	jmp	.LBB13_126
.LBB13_109:                             # %if.else292
	cmpl	$0, -4(%rbp)
	jge	.LBB13_125
# %bb.110:                              # %if.then294
	movq	-32(%rbp), %rax
	cmpl	$0, 532(%rax)
	jne	.LBB13_115
# %bb.111:                              # %if.then297
	movl	-40(%rbp), %eax
	andl	$1, %eax
	cmpl	$0, %eax
	jne	.LBB13_113
# %bb.112:                              # %if.then300
	movq	-32(%rbp), %rax
	movl	544(%rax), %eax
	addl	$1, %eax
	movq	-16(%rbp), %rcx
	movl	%eax, 4(%rcx)
	movq	-32(%rbp), %rax
	movl	560(%rax), %eax
	movq	-16(%rbp), %rcx
	movl	%eax, (%rcx)
	movl	-4(%rbp), %eax
	movl	%eax, -20(%rbp)
	jmp	.LBB13_114
.LBB13_113:                             # %if.else304
	movq	-16(%rbp), %rax
	movl	$0, (%rax)
.LBB13_114:                             # %if.end306
	jmp	.LBB13_124
.LBB13_115:                             # %if.else307
	movl	-40(%rbp), %eax
	andl	$1, %eax
	cmpl	$0, %eax
	jne	.LBB13_122
# %bb.116:                              # %if.then310
	movq	-32(%rbp), %rax
	movl	544(%rax), %eax
	movq	-16(%rbp), %rcx
	movl	%eax, 4(%rcx)
	movq	-32(%rbp), %rax
	movl	560(%rax), %eax
	movq	-16(%rbp), %rcx
	movl	%eax, (%rcx)
	movq	-32(%rbp), %rax
	cmpl	$0, 560(%rax)
	je	.LBB13_121
# %bb.117:                              # %if.then317
	movq	img, %rax
	movq	14168(%rax), %rax
	movq	-32(%rbp), %rcx
	movslq	544(%rcx), %rcx
	imulq	$632, %rcx, %rcx        # imm = 0x278
	addq	%rcx, %rax
	cmpl	$0, 532(%rax)
	jne	.LBB13_119
# %bb.118:                              # %if.then324
	movq	-16(%rbp), %rax
	movl	4(%rax), %ecx
	addl	$1, %ecx
	movl	%ecx, 4(%rax)
	movl	-4(%rbp), %eax
	shll	$1, %eax
	movl	%eax, -20(%rbp)
	jmp	.LBB13_120
.LBB13_119:                             # %if.else328
	movl	-4(%rbp), %eax
	movl	%eax, -20(%rbp)
.LBB13_120:                             # %if.end329
	jmp	.LBB13_121
.LBB13_121:                             # %if.end330
	jmp	.LBB13_123
.LBB13_122:                             # %if.else331
	movq	-32(%rbp), %rax
	movl	544(%rax), %eax
	addl	$1, %eax
	movq	-16(%rbp), %rcx
	movl	%eax, 4(%rcx)
	movq	-32(%rbp), %rax
	movl	560(%rax), %eax
	movq	-16(%rbp), %rcx
	movl	%eax, (%rcx)
	movl	-4(%rbp), %eax
	movl	%eax, -20(%rbp)
.LBB13_123:                             # %if.end337
	jmp	.LBB13_124
.LBB13_124:                             # %if.end338
	jmp	.LBB13_125
.LBB13_125:                             # %if.end339
	jmp	.LBB13_126
.LBB13_126:                             # %if.end340
	jmp	.LBB13_127
.LBB13_127:                             # %if.end341
	movq	-16(%rbp), %rax
	cmpl	$0, (%rax)
	jne	.LBB13_129
# %bb.128:                              # %lor.lhs.false
	movq	img, %rax
	cmpl	$0, 72636(%rax)
	je	.LBB13_133
.LBB13_129:                             # %if.then346
	movl	-44(%rbp), %eax
	addl	-48(%rbp), %eax
	cltd
	idivl	-48(%rbp)
	movq	-16(%rbp), %rax
	movl	%edx, 8(%rax)
	movl	-20(%rbp), %eax
	addl	-36(%rbp), %eax
	cltd
	idivl	-36(%rbp)
	movq	-16(%rbp), %rax
	movl	%edx, 12(%rax)
	movq	-16(%rbp), %rax
	movl	4(%rax), %edi
	movq	-16(%rbp), %rsi
	addq	$16, %rsi
	movq	-16(%rbp), %rdx
	addq	$20, %rdx
	callq	get_mb_pos
	cmpl	$0, -52(%rbp)
	je	.LBB13_131
# %bb.130:                              # %if.then353
	movq	-16(%rbp), %rax
	movl	8(%rax), %eax
	movq	-16(%rbp), %rcx
	addl	16(%rcx), %eax
	movl	%eax, 16(%rcx)
	movq	-16(%rbp), %rax
	movl	12(%rax), %eax
	movq	-16(%rbp), %rcx
	addl	20(%rcx), %eax
	movl	%eax, 20(%rcx)
	jmp	.LBB13_132
.LBB13_131:                             # %if.else360
	movq	-16(%rbp), %rax
	movl	16(%rax), %ecx
	movq	img, %rsi
	movl	$16, %eax
	cltd
	idivl	72708(%rsi)
	movl	%eax, %esi
	movl	%ecx, %eax
	cltd
	idivl	%esi
	movq	-16(%rbp), %rcx
	addl	8(%rcx), %eax
	movq	-16(%rbp), %rcx
	movl	%eax, 16(%rcx)
	movq	-16(%rbp), %rax
	movl	20(%rax), %ecx
	movq	img, %rsi
	movl	$16, %eax
	cltd
	idivl	72712(%rsi)
	movl	%eax, %esi
	movl	%ecx, %eax
	cltd
	idivl	%esi
	movq	-16(%rbp), %rcx
	addl	12(%rcx), %eax
	movq	-16(%rbp), %rcx
	movl	%eax, 20(%rcx)
.LBB13_132:                             # %if.end375
	jmp	.LBB13_133
.LBB13_133:                             # %if.end376
	cmpl	$653404352, -56(%rbp)   # imm = 0x26F228C0
	jne	.LBB13_135
.LBB13_134:
	addq	$64, %rsp
	popq	%rbp
	.cfi_def_cfa %rsp, 8
	retq
.LBB13_135:                             # %func_exit
	.cfi_def_cfa %rbp, 16
	callq	detect_breach
	jmp	.LBB13_134
.Lfunc_end13:
	.size	getAffNeighbour.5, .Lfunc_end13-getAffNeighbour.5
	.cfi_endproc
                                        # -- End function
	.globl	get_mb_pos.6            # -- Begin function get_mb_pos.6
	.p2align	4, 0x90
	.type	get_mb_pos.6,@function
get_mb_pos.6:                           # @get_mb_pos.6
	.cfi_startproc
# %bb.0:                                # %entry
	pushq	%rbp
	.cfi_def_cfa_offset 16
	.cfi_offset %rbp, -16
	movq	%rsp, %rbp
	.cfi_def_cfa_register %rbp
	subq	$32, %rsp
	movl	$1306262507, -8(%rbp)   # imm = 0x4DDBFBEB
	movl	%edi, -4(%rbp)
	movq	%rsi, -16(%rbp)
	movq	%rdx, -24(%rbp)
	movl	-4(%rbp), %edi
	movq	-16(%rbp), %rsi
	movq	-24(%rbp), %rdx
	callq	get_mb_block_pos
	movq	-16(%rbp), %rax
	movl	(%rax), %ecx
	shll	$4, %ecx
	movl	%ecx, (%rax)
	movq	-24(%rbp), %rax
	movl	(%rax), %ecx
	shll	$4, %ecx
	movl	%ecx, (%rax)
	cmpl	$1306262507, -8(%rbp)   # imm = 0x4DDBFBEB
	jne	.LBB14_2
.LBB14_1:
	addq	$32, %rsp
	popq	%rbp
	.cfi_def_cfa %rsp, 8
	retq
.LBB14_2:                               # %func_exit
	.cfi_def_cfa %rbp, 16
	callq	detect_breach
	jmp	.LBB14_1
.Lfunc_end14:
	.size	get_mb_pos.6, .Lfunc_end14-get_mb_pos.6
	.cfi_endproc
                                        # -- End function
	.globl	getAffNeighbour.7       # -- Begin function getAffNeighbour.7
	.p2align	4, 0x90
	.type	getAffNeighbour.7,@function
getAffNeighbour.7:                      # @getAffNeighbour.7
	.cfi_startproc
# %bb.0:                                # %entry
	pushq	%rbp
	.cfi_def_cfa_offset 16
	.cfi_offset %rbp, -16
	movq	%rsp, %rbp
	.cfi_def_cfa_register %rbp
	subq	$64, %rsp
	movl	$579656652, -56(%rbp)   # imm = 0x228CDBCC
	movl	%edi, -40(%rbp)
	movl	%esi, -44(%rbp)
	movl	%edx, -4(%rbp)
	movl	%ecx, -52(%rbp)
	movq	%r8, -16(%rbp)
	movq	img, %rax
	movq	14168(%rax), %rax
	movl	-40(%rbp), %ecx
	imulq	$632, %rcx, %rcx        # imm = 0x278
	addq	%rcx, %rax
	movq	%rax, -32(%rbp)
	movl	$-1, -20(%rbp)
	cmpl	$0, -52(%rbp)
	je	.LBB15_2
# %bb.1:                                # %if.then
	movl	$16, -48(%rbp)
	movl	$16, -36(%rbp)
	jmp	.LBB15_3
.LBB15_2:                               # %if.else
	movq	img, %rax
	movl	72708(%rax), %eax
	movl	%eax, -48(%rbp)
	movq	img, %rax
	movl	72712(%rax), %eax
	movl	%eax, -36(%rbp)
.LBB15_3:                               # %if.end
	movq	-16(%rbp), %rax
	movl	$0, (%rax)
	movl	-4(%rbp), %eax
	movl	-36(%rbp), %ecx
	subl	$1, %ecx
	cmpl	%ecx, %eax
	jle	.LBB15_5
# %bb.4:                                # %if.then1
	jmp	.LBB15_133
.LBB15_5:                               # %if.end2
	movl	-44(%rbp), %eax
	movl	-48(%rbp), %ecx
	subl	$1, %ecx
	cmpl	%ecx, %eax
	jle	.LBB15_9
# %bb.6:                                # %land.lhs.true
	cmpl	$0, -4(%rbp)
	jl	.LBB15_9
# %bb.7:                                # %land.lhs.true6
	movl	-4(%rbp), %eax
	cmpl	-36(%rbp), %eax
	jge	.LBB15_9
# %bb.8:                                # %if.then8
	jmp	.LBB15_133
.LBB15_9:                               # %if.end9
	cmpl	$0, -44(%rbp)
	jge	.LBB15_77
# %bb.10:                               # %if.then11
	cmpl	$0, -4(%rbp)
	jge	.LBB15_31
# %bb.11:                               # %if.then13
	movq	-32(%rbp), %rax
	cmpl	$0, 532(%rax)
	jne	.LBB15_21
# %bb.12:                               # %if.then15
	movl	-40(%rbp), %eax
	andl	$1, %eax
	cmpl	$0, %eax
	jne	.LBB15_14
# %bb.13:                               # %if.then17
	movq	-32(%rbp), %rax
	movl	548(%rax), %eax
	addl	$1, %eax
	movq	-16(%rbp), %rcx
	movl	%eax, 4(%rcx)
	movq	-32(%rbp), %rax
	movl	564(%rax), %eax
	movq	-16(%rbp), %rcx
	movl	%eax, (%rcx)
	movl	-4(%rbp), %eax
	movl	%eax, -20(%rbp)
	jmp	.LBB15_20
.LBB15_14:                              # %if.else19
	movq	-32(%rbp), %rax
	movl	536(%rax), %eax
	movq	-16(%rbp), %rcx
	movl	%eax, 4(%rcx)
	movq	-32(%rbp), %rax
	movl	552(%rax), %eax
	movq	-16(%rbp), %rcx
	movl	%eax, (%rcx)
	movq	-32(%rbp), %rax
	cmpl	$0, 552(%rax)
	je	.LBB15_19
# %bb.15:                               # %if.then24
	movq	img, %rax
	movq	14168(%rax), %rax
	movq	-32(%rbp), %rcx
	movslq	536(%rcx), %rcx
	imulq	$632, %rcx, %rcx        # imm = 0x278
	addq	%rcx, %rax
	cmpl	$0, 532(%rax)
	jne	.LBB15_17
# %bb.16:                               # %if.then31
	movl	-4(%rbp), %eax
	movl	%eax, -20(%rbp)
	jmp	.LBB15_18
.LBB15_17:                              # %if.else32
	movq	-16(%rbp), %rax
	movl	4(%rax), %ecx
	addl	$1, %ecx
	movl	%ecx, 4(%rax)
	movl	-4(%rbp), %eax
	addl	-36(%rbp), %eax
	sarl	$1, %eax
	movl	%eax, -20(%rbp)
.LBB15_18:                              # %if.end35
	jmp	.LBB15_19
.LBB15_19:                              # %if.end36
	jmp	.LBB15_20
.LBB15_20:                              # %if.end37
	jmp	.LBB15_30
.LBB15_21:                              # %if.else38
	movl	-40(%rbp), %eax
	andl	$1, %eax
	cmpl	$0, %eax
	jne	.LBB15_28
# %bb.22:                               # %if.then41
	movq	-32(%rbp), %rax
	movl	548(%rax), %eax
	movq	-16(%rbp), %rcx
	movl	%eax, 4(%rcx)
	movq	-32(%rbp), %rax
	movl	564(%rax), %eax
	movq	-16(%rbp), %rcx
	movl	%eax, (%rcx)
	movq	-32(%rbp), %rax
	cmpl	$0, 564(%rax)
	je	.LBB15_27
# %bb.23:                               # %if.then48
	movq	img, %rax
	movq	14168(%rax), %rax
	movq	-32(%rbp), %rcx
	movslq	548(%rcx), %rcx
	imulq	$632, %rcx, %rcx        # imm = 0x278
	addq	%rcx, %rax
	cmpl	$0, 532(%rax)
	jne	.LBB15_25
# %bb.24:                               # %if.then55
	movq	-16(%rbp), %rax
	movl	4(%rax), %ecx
	addl	$1, %ecx
	movl	%ecx, 4(%rax)
	movl	-4(%rbp), %eax
	shll	$1, %eax
	movl	%eax, -20(%rbp)
	jmp	.LBB15_26
.LBB15_25:                              # %if.else58
	movl	-4(%rbp), %eax
	movl	%eax, -20(%rbp)
.LBB15_26:                              # %if.end59
	jmp	.LBB15_27
.LBB15_27:                              # %if.end60
	jmp	.LBB15_29
.LBB15_28:                              # %if.else61
	movq	-32(%rbp), %rax
	movl	548(%rax), %eax
	addl	$1, %eax
	movq	-16(%rbp), %rcx
	movl	%eax, 4(%rcx)
	movq	-32(%rbp), %rax
	movl	564(%rax), %eax
	movq	-16(%rbp), %rcx
	movl	%eax, (%rcx)
	movl	-4(%rbp), %eax
	movl	%eax, -20(%rbp)
.LBB15_29:                              # %if.end67
	jmp	.LBB15_30
.LBB15_30:                              # %if.end68
	jmp	.LBB15_76
.LBB15_31:                              # %if.else69
	cmpl	$0, -4(%rbp)
	jl	.LBB15_75
# %bb.32:                               # %land.lhs.true71
	movl	-4(%rbp), %eax
	cmpl	-36(%rbp), %eax
	jge	.LBB15_75
# %bb.33:                               # %if.then73
	movq	-32(%rbp), %rax
	cmpl	$0, 532(%rax)
	jne	.LBB15_54
# %bb.34:                               # %if.then76
	movl	-40(%rbp), %eax
	andl	$1, %eax
	cmpl	$0, %eax
	jne	.LBB15_44
# %bb.35:                               # %if.then79
	movq	-32(%rbp), %rax
	movl	536(%rax), %eax
	movq	-16(%rbp), %rcx
	movl	%eax, 4(%rcx)
	movq	-32(%rbp), %rax
	movl	552(%rax), %eax
	movq	-16(%rbp), %rcx
	movl	%eax, (%rcx)
	movq	-32(%rbp), %rax
	cmpl	$0, 552(%rax)
	je	.LBB15_43
# %bb.36:                               # %if.then86
	movq	img, %rax
	movq	14168(%rax), %rax
	movq	-32(%rbp), %rcx
	movslq	536(%rcx), %rcx
	imulq	$632, %rcx, %rcx        # imm = 0x278
	addq	%rcx, %rax
	cmpl	$0, 532(%rax)
	jne	.LBB15_38
# %bb.37:                               # %if.then93
	movl	-4(%rbp), %eax
	movl	%eax, -20(%rbp)
	jmp	.LBB15_42
.LBB15_38:                              # %if.else94
	movl	-4(%rbp), %eax
	cltd
	movl	$2, %ecx
	idivl	%ecx
	cmpl	$0, %edx
	jne	.LBB15_40
# %bb.39:                               # %if.then97
	movl	-4(%rbp), %eax
	sarl	$1, %eax
	movl	%eax, -20(%rbp)
	jmp	.LBB15_41
.LBB15_40:                              # %if.else99
	movq	-16(%rbp), %rax
	movl	4(%rax), %ecx
	addl	$1, %ecx
	movl	%ecx, 4(%rax)
	movl	-4(%rbp), %eax
	sarl	$1, %eax
	movl	%eax, -20(%rbp)
.LBB15_41:                              # %if.end103
	jmp	.LBB15_42
.LBB15_42:                              # %if.end104
	jmp	.LBB15_43
.LBB15_43:                              # %if.end105
	jmp	.LBB15_53
.LBB15_44:                              # %if.else106
	movq	-32(%rbp), %rax
	movl	536(%rax), %eax
	movq	-16(%rbp), %rcx
	movl	%eax, 4(%rcx)
	movq	-32(%rbp), %rax
	movl	552(%rax), %eax
	movq	-16(%rbp), %rcx
	movl	%eax, (%rcx)
	movq	-32(%rbp), %rax
	cmpl	$0, 552(%rax)
	je	.LBB15_52
# %bb.45:                               # %if.then113
	movq	img, %rax
	movq	14168(%rax), %rax
	movq	-32(%rbp), %rcx
	movslq	536(%rcx), %rcx
	imulq	$632, %rcx, %rcx        # imm = 0x278
	addq	%rcx, %rax
	cmpl	$0, 532(%rax)
	jne	.LBB15_47
# %bb.46:                               # %if.then120
	movq	-16(%rbp), %rax
	movl	4(%rax), %ecx
	addl	$1, %ecx
	movl	%ecx, 4(%rax)
	movl	-4(%rbp), %eax
	movl	%eax, -20(%rbp)
	jmp	.LBB15_51
.LBB15_47:                              # %if.else123
	movl	-4(%rbp), %eax
	cltd
	movl	$2, %ecx
	idivl	%ecx
	cmpl	$0, %edx
	jne	.LBB15_49
# %bb.48:                               # %if.then126
	movl	-4(%rbp), %eax
	addl	-36(%rbp), %eax
	sarl	$1, %eax
	movl	%eax, -20(%rbp)
	jmp	.LBB15_50
.LBB15_49:                              # %if.else129
	movq	-16(%rbp), %rax
	movl	4(%rax), %ecx
	addl	$1, %ecx
	movl	%ecx, 4(%rax)
	movl	-4(%rbp), %eax
	addl	-36(%rbp), %eax
	sarl	$1, %eax
	movl	%eax, -20(%rbp)
.LBB15_50:                              # %if.end134
	jmp	.LBB15_51
.LBB15_51:                              # %if.end135
	jmp	.LBB15_52
.LBB15_52:                              # %if.end136
	jmp	.LBB15_53
.LBB15_53:                              # %if.end137
	jmp	.LBB15_74
.LBB15_54:                              # %if.else138
	movl	-40(%rbp), %eax
	andl	$1, %eax
	cmpl	$0, %eax
	jne	.LBB15_64
# %bb.55:                               # %if.then141
	movq	-32(%rbp), %rax
	movl	536(%rax), %eax
	movq	-16(%rbp), %rcx
	movl	%eax, 4(%rcx)
	movq	-32(%rbp), %rax
	movl	552(%rax), %eax
	movq	-16(%rbp), %rcx
	movl	%eax, (%rcx)
	movq	-32(%rbp), %rax
	cmpl	$0, 552(%rax)
	je	.LBB15_63
# %bb.56:                               # %if.then148
	movq	img, %rax
	movq	14168(%rax), %rax
	movq	-32(%rbp), %rcx
	movslq	536(%rcx), %rcx
	imulq	$632, %rcx, %rcx        # imm = 0x278
	addq	%rcx, %rax
	cmpl	$0, 532(%rax)
	jne	.LBB15_61
# %bb.57:                               # %if.then155
	movl	-4(%rbp), %ecx
	movl	-36(%rbp), %eax
	cltd
	movl	$2, %esi
	idivl	%esi
	cmpl	%eax, %ecx
	jge	.LBB15_59
# %bb.58:                               # %if.then157
	movl	-4(%rbp), %eax
	shll	$1, %eax
	movl	%eax, -20(%rbp)
	jmp	.LBB15_60
.LBB15_59:                              # %if.else158
	movq	-16(%rbp), %rax
	movl	4(%rax), %ecx
	addl	$1, %ecx
	movl	%ecx, 4(%rax)
	movl	-4(%rbp), %eax
	shll	$1, %eax
	subl	-36(%rbp), %eax
	movl	%eax, -20(%rbp)
.LBB15_60:                              # %if.end163
	jmp	.LBB15_62
.LBB15_61:                              # %if.else164
	movl	-4(%rbp), %eax
	movl	%eax, -20(%rbp)
.LBB15_62:                              # %if.end165
	jmp	.LBB15_63
.LBB15_63:                              # %if.end166
	jmp	.LBB15_73
.LBB15_64:                              # %if.else167
	movq	-32(%rbp), %rax
	movl	536(%rax), %eax
	movq	-16(%rbp), %rcx
	movl	%eax, 4(%rcx)
	movq	-32(%rbp), %rax
	movl	552(%rax), %eax
	movq	-16(%rbp), %rcx
	movl	%eax, (%rcx)
	movq	-32(%rbp), %rax
	cmpl	$0, 552(%rax)
	je	.LBB15_72
# %bb.65:                               # %if.then174
	movq	img, %rax
	movq	14168(%rax), %rax
	movq	-32(%rbp), %rcx
	movslq	536(%rcx), %rcx
	imulq	$632, %rcx, %rcx        # imm = 0x278
	addq	%rcx, %rax
	cmpl	$0, 532(%rax)
	jne	.LBB15_70
# %bb.66:                               # %if.then181
	movl	-4(%rbp), %ecx
	movl	-36(%rbp), %eax
	cltd
	movl	$2, %esi
	idivl	%esi
	cmpl	%eax, %ecx
	jge	.LBB15_68
# %bb.67:                               # %if.then184
	movl	-4(%rbp), %eax
	shll	$1, %eax
	addl	$1, %eax
	movl	%eax, -20(%rbp)
	jmp	.LBB15_69
.LBB15_68:                              # %if.else187
	movq	-16(%rbp), %rax
	movl	4(%rax), %ecx
	addl	$1, %ecx
	movl	%ecx, 4(%rax)
	movl	-4(%rbp), %eax
	shll	$1, %eax
	addl	$1, %eax
	subl	-36(%rbp), %eax
	movl	%eax, -20(%rbp)
.LBB15_69:                              # %if.end193
	jmp	.LBB15_71
.LBB15_70:                              # %if.else194
	movq	-16(%rbp), %rax
	movl	4(%rax), %ecx
	addl	$1, %ecx
	movl	%ecx, 4(%rax)
	movl	-4(%rbp), %eax
	movl	%eax, -20(%rbp)
.LBB15_71:                              # %if.end197
	jmp	.LBB15_72
.LBB15_72:                              # %if.end198
	jmp	.LBB15_73
.LBB15_73:                              # %if.end199
	jmp	.LBB15_74
.LBB15_74:                              # %if.end200
	jmp	.LBB15_75
.LBB15_75:                              # %if.end201
	jmp	.LBB15_76
.LBB15_76:                              # %if.end202
	jmp	.LBB15_127
.LBB15_77:                              # %if.else203
	cmpl	$0, -44(%rbp)
	jl	.LBB15_109
# %bb.78:                               # %land.lhs.true205
	movl	-44(%rbp), %eax
	cmpl	-48(%rbp), %eax
	jge	.LBB15_109
# %bb.79:                               # %if.then207
	cmpl	$0, -4(%rbp)
	jge	.LBB15_100
# %bb.80:                               # %if.then209
	movq	-32(%rbp), %rax
	cmpl	$0, 532(%rax)
	jne	.LBB15_90
# %bb.81:                               # %if.then212
	movl	-40(%rbp), %eax
	andl	$1, %eax
	cmpl	$0, %eax
	jne	.LBB15_88
# %bb.82:                               # %if.then215
	movq	-32(%rbp), %rax
	movl	540(%rax), %eax
	movq	-16(%rbp), %rcx
	movl	%eax, 4(%rcx)
	movq	-32(%rbp), %rax
	cmpl	$0, 556(%rax)
	je	.LBB15_87
# %bb.83:                               # %if.then218
	movq	img, %rax
	cmpl	$1, 72636(%rax)
	jne	.LBB15_85
# %bb.84:                               # %land.lhs.true220
	movq	img, %rax
	movq	14168(%rax), %rax
	movq	-32(%rbp), %rcx
	movslq	540(%rcx), %rcx
	imulq	$632, %rcx, %rcx        # imm = 0x278
	addq	%rcx, %rax
	cmpl	$0, 532(%rax)
	jne	.LBB15_86
.LBB15_85:                              # %if.then227
	movq	-16(%rbp), %rax
	movl	4(%rax), %ecx
	addl	$1, %ecx
	movl	%ecx, 4(%rax)
.LBB15_86:                              # %if.end230
	jmp	.LBB15_87
.LBB15_87:                              # %if.end231
	movq	-32(%rbp), %rax
	movl	556(%rax), %eax
	movq	-16(%rbp), %rcx
	movl	%eax, (%rcx)
	movl	-4(%rbp), %eax
	movl	%eax, -20(%rbp)
	jmp	.LBB15_89
.LBB15_88:                              # %if.else234
	movl	-40(%rbp), %eax
	subl	$1, %eax
	movq	-16(%rbp), %rcx
	movl	%eax, 4(%rcx)
	movq	-16(%rbp), %rax
	movl	$1, (%rax)
	movl	-4(%rbp), %eax
	movl	%eax, -20(%rbp)
.LBB15_89:                              # %if.end238
	jmp	.LBB15_99
.LBB15_90:                              # %if.else239
	movl	-40(%rbp), %eax
	andl	$1, %eax
	cmpl	$0, %eax
	jne	.LBB15_97
# %bb.91:                               # %if.then242
	movq	-32(%rbp), %rax
	movl	540(%rax), %eax
	movq	-16(%rbp), %rcx
	movl	%eax, 4(%rcx)
	movq	-32(%rbp), %rax
	movl	556(%rax), %eax
	movq	-16(%rbp), %rcx
	movl	%eax, (%rcx)
	movq	-32(%rbp), %rax
	cmpl	$0, 556(%rax)
	je	.LBB15_96
# %bb.92:                               # %if.then249
	movq	img, %rax
	movq	14168(%rax), %rax
	movq	-32(%rbp), %rcx
	movslq	540(%rcx), %rcx
	imulq	$632, %rcx, %rcx        # imm = 0x278
	addq	%rcx, %rax
	cmpl	$0, 532(%rax)
	jne	.LBB15_94
# %bb.93:                               # %if.then256
	movq	-16(%rbp), %rax
	movl	4(%rax), %ecx
	addl	$1, %ecx
	movl	%ecx, 4(%rax)
	movl	-4(%rbp), %eax
	shll	$1, %eax
	movl	%eax, -20(%rbp)
	jmp	.LBB15_95
.LBB15_94:                              # %if.else260
	movl	-4(%rbp), %eax
	movl	%eax, -20(%rbp)
.LBB15_95:                              # %if.end261
	jmp	.LBB15_96
.LBB15_96:                              # %if.end262
	jmp	.LBB15_98
.LBB15_97:                              # %if.else263
	movq	-32(%rbp), %rax
	movl	540(%rax), %eax
	addl	$1, %eax
	movq	-16(%rbp), %rcx
	movl	%eax, 4(%rcx)
	movq	-32(%rbp), %rax
	movl	556(%rax), %eax
	movq	-16(%rbp), %rcx
	movl	%eax, (%rcx)
	movl	-4(%rbp), %eax
	movl	%eax, -20(%rbp)
.LBB15_98:                              # %if.end269
	jmp	.LBB15_99
.LBB15_99:                              # %if.end270
	jmp	.LBB15_108
.LBB15_100:                             # %if.else271
	cmpl	$0, -4(%rbp)
	jne	.LBB15_103
# %bb.101:                              # %land.lhs.true273
	movq	img, %rax
	cmpl	$2, 72636(%rax)
	jne	.LBB15_103
# %bb.102:                              # %if.then276
	movq	-32(%rbp), %rax
	movl	540(%rax), %eax
	addl	$1, %eax
	movq	-16(%rbp), %rcx
	movl	%eax, 4(%rcx)
	movq	-16(%rbp), %rax
	movl	$1, (%rax)
	movl	-4(%rbp), %eax
	subl	$1, %eax
	movl	%eax, -20(%rbp)
	jmp	.LBB15_107
.LBB15_103:                             # %if.else282
	cmpl	$0, -4(%rbp)
	jl	.LBB15_106
# %bb.104:                              # %land.lhs.true284
	movl	-4(%rbp), %eax
	cmpl	-36(%rbp), %eax
	jge	.LBB15_106
# %bb.105:                              # %if.then286
	movl	-40(%rbp), %eax
	movq	-16(%rbp), %rcx
	movl	%eax, 4(%rcx)
	movq	-16(%rbp), %rax
	movl	$1, (%rax)
	movl	-4(%rbp), %eax
	movl	%eax, -20(%rbp)
.LBB15_106:                             # %if.end289
	jmp	.LBB15_107
.LBB15_107:                             # %if.end290
	jmp	.LBB15_108
.LBB15_108:                             # %if.end291
	jmp	.LBB15_126
.LBB15_109:                             # %if.else292
	cmpl	$0, -4(%rbp)
	jge	.LBB15_125
# %bb.110:                              # %if.then294
	movq	-32(%rbp), %rax
	cmpl	$0, 532(%rax)
	jne	.LBB15_115
# %bb.111:                              # %if.then297
	movl	-40(%rbp), %eax
	andl	$1, %eax
	cmpl	$0, %eax
	jne	.LBB15_113
# %bb.112:                              # %if.then300
	movq	-32(%rbp), %rax
	movl	544(%rax), %eax
	addl	$1, %eax
	movq	-16(%rbp), %rcx
	movl	%eax, 4(%rcx)
	movq	-32(%rbp), %rax
	movl	560(%rax), %eax
	movq	-16(%rbp), %rcx
	movl	%eax, (%rcx)
	movl	-4(%rbp), %eax
	movl	%eax, -20(%rbp)
	jmp	.LBB15_114
.LBB15_113:                             # %if.else304
	movq	-16(%rbp), %rax
	movl	$0, (%rax)
.LBB15_114:                             # %if.end306
	jmp	.LBB15_124
.LBB15_115:                             # %if.else307
	movl	-40(%rbp), %eax
	andl	$1, %eax
	cmpl	$0, %eax
	jne	.LBB15_122
# %bb.116:                              # %if.then310
	movq	-32(%rbp), %rax
	movl	544(%rax), %eax
	movq	-16(%rbp), %rcx
	movl	%eax, 4(%rcx)
	movq	-32(%rbp), %rax
	movl	560(%rax), %eax
	movq	-16(%rbp), %rcx
	movl	%eax, (%rcx)
	movq	-32(%rbp), %rax
	cmpl	$0, 560(%rax)
	je	.LBB15_121
# %bb.117:                              # %if.then317
	movq	img, %rax
	movq	14168(%rax), %rax
	movq	-32(%rbp), %rcx
	movslq	544(%rcx), %rcx
	imulq	$632, %rcx, %rcx        # imm = 0x278
	addq	%rcx, %rax
	cmpl	$0, 532(%rax)
	jne	.LBB15_119
# %bb.118:                              # %if.then324
	movq	-16(%rbp), %rax
	movl	4(%rax), %ecx
	addl	$1, %ecx
	movl	%ecx, 4(%rax)
	movl	-4(%rbp), %eax
	shll	$1, %eax
	movl	%eax, -20(%rbp)
	jmp	.LBB15_120
.LBB15_119:                             # %if.else328
	movl	-4(%rbp), %eax
	movl	%eax, -20(%rbp)
.LBB15_120:                             # %if.end329
	jmp	.LBB15_121
.LBB15_121:                             # %if.end330
	jmp	.LBB15_123
.LBB15_122:                             # %if.else331
	movq	-32(%rbp), %rax
	movl	544(%rax), %eax
	addl	$1, %eax
	movq	-16(%rbp), %rcx
	movl	%eax, 4(%rcx)
	movq	-32(%rbp), %rax
	movl	560(%rax), %eax
	movq	-16(%rbp), %rcx
	movl	%eax, (%rcx)
	movl	-4(%rbp), %eax
	movl	%eax, -20(%rbp)
.LBB15_123:                             # %if.end337
	jmp	.LBB15_124
.LBB15_124:                             # %if.end338
	jmp	.LBB15_125
.LBB15_125:                             # %if.end339
	jmp	.LBB15_126
.LBB15_126:                             # %if.end340
	jmp	.LBB15_127
.LBB15_127:                             # %if.end341
	movq	-16(%rbp), %rax
	cmpl	$0, (%rax)
	jne	.LBB15_129
# %bb.128:                              # %lor.lhs.false
	movq	img, %rax
	cmpl	$0, 72636(%rax)
	je	.LBB15_133
.LBB15_129:                             # %if.then346
	movl	-44(%rbp), %eax
	addl	-48(%rbp), %eax
	cltd
	idivl	-48(%rbp)
	movq	-16(%rbp), %rax
	movl	%edx, 8(%rax)
	movl	-20(%rbp), %eax
	addl	-36(%rbp), %eax
	cltd
	idivl	-36(%rbp)
	movq	-16(%rbp), %rax
	movl	%edx, 12(%rax)
	movq	-16(%rbp), %rax
	movl	4(%rax), %edi
	movq	-16(%rbp), %rsi
	addq	$16, %rsi
	movq	-16(%rbp), %rdx
	addq	$20, %rdx
	callq	get_mb_pos
	cmpl	$0, -52(%rbp)
	je	.LBB15_131
# %bb.130:                              # %if.then353
	movq	-16(%rbp), %rax
	movl	8(%rax), %eax
	movq	-16(%rbp), %rcx
	addl	16(%rcx), %eax
	movl	%eax, 16(%rcx)
	movq	-16(%rbp), %rax
	movl	12(%rax), %eax
	movq	-16(%rbp), %rcx
	addl	20(%rcx), %eax
	movl	%eax, 20(%rcx)
	jmp	.LBB15_132
.LBB15_131:                             # %if.else360
	movq	-16(%rbp), %rax
	movl	16(%rax), %ecx
	movq	img, %rsi
	movl	$16, %eax
	cltd
	idivl	72708(%rsi)
	movl	%eax, %esi
	movl	%ecx, %eax
	cltd
	idivl	%esi
	movq	-16(%rbp), %rcx
	addl	8(%rcx), %eax
	movq	-16(%rbp), %rcx
	movl	%eax, 16(%rcx)
	movq	-16(%rbp), %rax
	movl	20(%rax), %ecx
	movq	img, %rsi
	movl	$16, %eax
	cltd
	idivl	72712(%rsi)
	movl	%eax, %esi
	movl	%ecx, %eax
	cltd
	idivl	%esi
	movq	-16(%rbp), %rcx
	addl	12(%rcx), %eax
	movq	-16(%rbp), %rcx
	movl	%eax, 20(%rcx)
.LBB15_132:                             # %if.end375
	jmp	.LBB15_133
.LBB15_133:                             # %if.end376
	cmpl	$579656652, -56(%rbp)   # imm = 0x228CDBCC
	jne	.LBB15_135
.LBB15_134:
	addq	$64, %rsp
	popq	%rbp
	.cfi_def_cfa %rsp, 8
	retq
.LBB15_135:                             # %func_exit
	.cfi_def_cfa %rbp, 16
	callq	detect_breach
	jmp	.LBB15_134
.Lfunc_end15:
	.size	getAffNeighbour.7, .Lfunc_end15-getAffNeighbour.7
	.cfi_endproc
                                        # -- End function
	.globl	getLuma4x4Neighbour.8   # -- Begin function getLuma4x4Neighbour.8
	.p2align	4, 0x90
	.type	getLuma4x4Neighbour.8,@function
getLuma4x4Neighbour.8:                  # @getLuma4x4Neighbour.8
	.cfi_startproc
# %bb.0:                                # %entry
	pushq	%rbp
	.cfi_def_cfa_offset 16
	.cfi_offset %rbp, -16
	movq	%rsp, %rbp
	.cfi_def_cfa_register %rbp
	subq	$48, %rsp
	movl	$280726445, -32(%rbp)   # imm = 0x10BB8BAD
	movl	%edi, -20(%rbp)
	movl	%esi, -36(%rbp)
	movl	%edx, -28(%rbp)
	movl	%ecx, -16(%rbp)
	movl	%r8d, -24(%rbp)
	movq	%r9, -8(%rbp)
	movl	-36(%rbp), %eax
	shll	$2, %eax
	addl	-16(%rbp), %eax
	movl	%eax, -12(%rbp)
	movl	-28(%rbp), %eax
	shll	$2, %eax
	addl	-24(%rbp), %eax
	movl	%eax, -40(%rbp)
	movl	-20(%rbp), %edi
	movl	-12(%rbp), %esi
	movl	-40(%rbp), %edx
	movq	-8(%rbp), %r8
	movl	$1, %ecx
	callq	getNeighbour
	movq	-8(%rbp), %rax
	cmpl	$0, (%rax)
	je	.LBB16_2
# %bb.1:                                # %if.then
	movq	-8(%rbp), %rcx
	movl	8(%rcx), %eax
	cltd
	movl	$4, %esi
	idivl	%esi
	movl	%eax, 8(%rcx)
	movq	-8(%rbp), %rcx
	movl	12(%rcx), %eax
	cltd
	idivl	%esi
	movl	%eax, 12(%rcx)
	movq	-8(%rbp), %rcx
	movl	16(%rcx), %eax
	cltd
	idivl	%esi
	movl	%eax, 16(%rcx)
	movq	-8(%rbp), %rcx
	movl	20(%rcx), %eax
	cltd
	idivl	%esi
	movl	%eax, 20(%rcx)
.LBB16_2:                               # %if.end
	cmpl	$280726445, -32(%rbp)   # imm = 0x10BB8BAD
	jne	.LBB16_4
.LBB16_3:
	addq	$48, %rsp
	popq	%rbp
	.cfi_def_cfa %rsp, 8
	retq
.LBB16_4:                               # %func_exit
	.cfi_def_cfa %rbp, 16
	callq	detect_breach
	jmp	.LBB16_3
.Lfunc_end16:
	.size	getLuma4x4Neighbour.8, .Lfunc_end16-getLuma4x4Neighbour.8
	.cfi_endproc
                                        # -- End function
	.globl	get_mb_pos.9            # -- Begin function get_mb_pos.9
	.p2align	4, 0x90
	.type	get_mb_pos.9,@function
get_mb_pos.9:                           # @get_mb_pos.9
	.cfi_startproc
# %bb.0:                                # %entry
	pushq	%rbp
	.cfi_def_cfa_offset 16
	.cfi_offset %rbp, -16
	movq	%rsp, %rbp
	.cfi_def_cfa_register %rbp
	subq	$32, %rsp
	movl	$622248028, -4(%rbp)    # imm = 0x2516C05C
	movl	%edi, -8(%rbp)
	movq	%rsi, -24(%rbp)
	movq	%rdx, -16(%rbp)
	movl	-8(%rbp), %edi
	movq	-24(%rbp), %rsi
	movq	-16(%rbp), %rdx
	callq	get_mb_block_pos
	movq	-24(%rbp), %rax
	movl	(%rax), %ecx
	shll	$4, %ecx
	movl	%ecx, (%rax)
	movq	-16(%rbp), %rax
	movl	(%rax), %ecx
	shll	$4, %ecx
	movl	%ecx, (%rax)
	cmpl	$622248028, -4(%rbp)    # imm = 0x2516C05C
	jne	.LBB17_2
.LBB17_1:
	addq	$32, %rsp
	popq	%rbp
	.cfi_def_cfa %rsp, 8
	retq
.LBB17_2:                               # %func_exit
	.cfi_def_cfa %rbp, 16
	callq	detect_breach
	jmp	.LBB17_1
.Lfunc_end17:
	.size	get_mb_pos.9, .Lfunc_end17-get_mb_pos.9
	.cfi_endproc
                                        # -- End function
	.globl	getAffNeighbour.10      # -- Begin function getAffNeighbour.10
	.p2align	4, 0x90
	.type	getAffNeighbour.10,@function
getAffNeighbour.10:                     # @getAffNeighbour.10
	.cfi_startproc
# %bb.0:                                # %entry
	pushq	%rbp
	.cfi_def_cfa_offset 16
	.cfi_offset %rbp, -16
	movq	%rsp, %rbp
	.cfi_def_cfa_register %rbp
	subq	$64, %rsp
	movl	$739268513, -56(%rbp)   # imm = 0x2C1057A1
	movl	%edi, -40(%rbp)
	movl	%esi, -48(%rbp)
	movl	%edx, -4(%rbp)
	movl	%ecx, -52(%rbp)
	movq	%r8, -16(%rbp)
	movq	img, %rax
	movq	14168(%rax), %rax
	movl	-40(%rbp), %ecx
	imulq	$632, %rcx, %rcx        # imm = 0x278
	addq	%rcx, %rax
	movq	%rax, -32(%rbp)
	movl	$-1, -20(%rbp)
	cmpl	$0, -52(%rbp)
	je	.LBB18_2
# %bb.1:                                # %if.then
	movl	$16, -44(%rbp)
	movl	$16, -36(%rbp)
	jmp	.LBB18_3
.LBB18_2:                               # %if.else
	movq	img, %rax
	movl	72708(%rax), %eax
	movl	%eax, -44(%rbp)
	movq	img, %rax
	movl	72712(%rax), %eax
	movl	%eax, -36(%rbp)
.LBB18_3:                               # %if.end
	movq	-16(%rbp), %rax
	movl	$0, (%rax)
	movl	-4(%rbp), %eax
	movl	-36(%rbp), %ecx
	subl	$1, %ecx
	cmpl	%ecx, %eax
	jle	.LBB18_5
# %bb.4:                                # %if.then1
	jmp	.LBB18_133
.LBB18_5:                               # %if.end2
	movl	-48(%rbp), %eax
	movl	-44(%rbp), %ecx
	subl	$1, %ecx
	cmpl	%ecx, %eax
	jle	.LBB18_9
# %bb.6:                                # %land.lhs.true
	cmpl	$0, -4(%rbp)
	jl	.LBB18_9
# %bb.7:                                # %land.lhs.true6
	movl	-4(%rbp), %eax
	cmpl	-36(%rbp), %eax
	jge	.LBB18_9
# %bb.8:                                # %if.then8
	jmp	.LBB18_133
.LBB18_9:                               # %if.end9
	cmpl	$0, -48(%rbp)
	jge	.LBB18_77
# %bb.10:                               # %if.then11
	cmpl	$0, -4(%rbp)
	jge	.LBB18_31
# %bb.11:                               # %if.then13
	movq	-32(%rbp), %rax
	cmpl	$0, 532(%rax)
	jne	.LBB18_21
# %bb.12:                               # %if.then15
	movl	-40(%rbp), %eax
	andl	$1, %eax
	cmpl	$0, %eax
	jne	.LBB18_14
# %bb.13:                               # %if.then17
	movq	-32(%rbp), %rax
	movl	548(%rax), %eax
	addl	$1, %eax
	movq	-16(%rbp), %rcx
	movl	%eax, 4(%rcx)
	movq	-32(%rbp), %rax
	movl	564(%rax), %eax
	movq	-16(%rbp), %rcx
	movl	%eax, (%rcx)
	movl	-4(%rbp), %eax
	movl	%eax, -20(%rbp)
	jmp	.LBB18_20
.LBB18_14:                              # %if.else19
	movq	-32(%rbp), %rax
	movl	536(%rax), %eax
	movq	-16(%rbp), %rcx
	movl	%eax, 4(%rcx)
	movq	-32(%rbp), %rax
	movl	552(%rax), %eax
	movq	-16(%rbp), %rcx
	movl	%eax, (%rcx)
	movq	-32(%rbp), %rax
	cmpl	$0, 552(%rax)
	je	.LBB18_19
# %bb.15:                               # %if.then24
	movq	img, %rax
	movq	14168(%rax), %rax
	movq	-32(%rbp), %rcx
	movslq	536(%rcx), %rcx
	imulq	$632, %rcx, %rcx        # imm = 0x278
	addq	%rcx, %rax
	cmpl	$0, 532(%rax)
	jne	.LBB18_17
# %bb.16:                               # %if.then31
	movl	-4(%rbp), %eax
	movl	%eax, -20(%rbp)
	jmp	.LBB18_18
.LBB18_17:                              # %if.else32
	movq	-16(%rbp), %rax
	movl	4(%rax), %ecx
	addl	$1, %ecx
	movl	%ecx, 4(%rax)
	movl	-4(%rbp), %eax
	addl	-36(%rbp), %eax
	sarl	$1, %eax
	movl	%eax, -20(%rbp)
.LBB18_18:                              # %if.end35
	jmp	.LBB18_19
.LBB18_19:                              # %if.end36
	jmp	.LBB18_20
.LBB18_20:                              # %if.end37
	jmp	.LBB18_30
.LBB18_21:                              # %if.else38
	movl	-40(%rbp), %eax
	andl	$1, %eax
	cmpl	$0, %eax
	jne	.LBB18_28
# %bb.22:                               # %if.then41
	movq	-32(%rbp), %rax
	movl	548(%rax), %eax
	movq	-16(%rbp), %rcx
	movl	%eax, 4(%rcx)
	movq	-32(%rbp), %rax
	movl	564(%rax), %eax
	movq	-16(%rbp), %rcx
	movl	%eax, (%rcx)
	movq	-32(%rbp), %rax
	cmpl	$0, 564(%rax)
	je	.LBB18_27
# %bb.23:                               # %if.then48
	movq	img, %rax
	movq	14168(%rax), %rax
	movq	-32(%rbp), %rcx
	movslq	548(%rcx), %rcx
	imulq	$632, %rcx, %rcx        # imm = 0x278
	addq	%rcx, %rax
	cmpl	$0, 532(%rax)
	jne	.LBB18_25
# %bb.24:                               # %if.then55
	movq	-16(%rbp), %rax
	movl	4(%rax), %ecx
	addl	$1, %ecx
	movl	%ecx, 4(%rax)
	movl	-4(%rbp), %eax
	shll	$1, %eax
	movl	%eax, -20(%rbp)
	jmp	.LBB18_26
.LBB18_25:                              # %if.else58
	movl	-4(%rbp), %eax
	movl	%eax, -20(%rbp)
.LBB18_26:                              # %if.end59
	jmp	.LBB18_27
.LBB18_27:                              # %if.end60
	jmp	.LBB18_29
.LBB18_28:                              # %if.else61
	movq	-32(%rbp), %rax
	movl	548(%rax), %eax
	addl	$1, %eax
	movq	-16(%rbp), %rcx
	movl	%eax, 4(%rcx)
	movq	-32(%rbp), %rax
	movl	564(%rax), %eax
	movq	-16(%rbp), %rcx
	movl	%eax, (%rcx)
	movl	-4(%rbp), %eax
	movl	%eax, -20(%rbp)
.LBB18_29:                              # %if.end67
	jmp	.LBB18_30
.LBB18_30:                              # %if.end68
	jmp	.LBB18_76
.LBB18_31:                              # %if.else69
	cmpl	$0, -4(%rbp)
	jl	.LBB18_75
# %bb.32:                               # %land.lhs.true71
	movl	-4(%rbp), %eax
	cmpl	-36(%rbp), %eax
	jge	.LBB18_75
# %bb.33:                               # %if.then73
	movq	-32(%rbp), %rax
	cmpl	$0, 532(%rax)
	jne	.LBB18_54
# %bb.34:                               # %if.then76
	movl	-40(%rbp), %eax
	andl	$1, %eax
	cmpl	$0, %eax
	jne	.LBB18_44
# %bb.35:                               # %if.then79
	movq	-32(%rbp), %rax
	movl	536(%rax), %eax
	movq	-16(%rbp), %rcx
	movl	%eax, 4(%rcx)
	movq	-32(%rbp), %rax
	movl	552(%rax), %eax
	movq	-16(%rbp), %rcx
	movl	%eax, (%rcx)
	movq	-32(%rbp), %rax
	cmpl	$0, 552(%rax)
	je	.LBB18_43
# %bb.36:                               # %if.then86
	movq	img, %rax
	movq	14168(%rax), %rax
	movq	-32(%rbp), %rcx
	movslq	536(%rcx), %rcx
	imulq	$632, %rcx, %rcx        # imm = 0x278
	addq	%rcx, %rax
	cmpl	$0, 532(%rax)
	jne	.LBB18_38
# %bb.37:                               # %if.then93
	movl	-4(%rbp), %eax
	movl	%eax, -20(%rbp)
	jmp	.LBB18_42
.LBB18_38:                              # %if.else94
	movl	-4(%rbp), %eax
	cltd
	movl	$2, %ecx
	idivl	%ecx
	cmpl	$0, %edx
	jne	.LBB18_40
# %bb.39:                               # %if.then97
	movl	-4(%rbp), %eax
	sarl	$1, %eax
	movl	%eax, -20(%rbp)
	jmp	.LBB18_41
.LBB18_40:                              # %if.else99
	movq	-16(%rbp), %rax
	movl	4(%rax), %ecx
	addl	$1, %ecx
	movl	%ecx, 4(%rax)
	movl	-4(%rbp), %eax
	sarl	$1, %eax
	movl	%eax, -20(%rbp)
.LBB18_41:                              # %if.end103
	jmp	.LBB18_42
.LBB18_42:                              # %if.end104
	jmp	.LBB18_43
.LBB18_43:                              # %if.end105
	jmp	.LBB18_53
.LBB18_44:                              # %if.else106
	movq	-32(%rbp), %rax
	movl	536(%rax), %eax
	movq	-16(%rbp), %rcx
	movl	%eax, 4(%rcx)
	movq	-32(%rbp), %rax
	movl	552(%rax), %eax
	movq	-16(%rbp), %rcx
	movl	%eax, (%rcx)
	movq	-32(%rbp), %rax
	cmpl	$0, 552(%rax)
	je	.LBB18_52
# %bb.45:                               # %if.then113
	movq	img, %rax
	movq	14168(%rax), %rax
	movq	-32(%rbp), %rcx
	movslq	536(%rcx), %rcx
	imulq	$632, %rcx, %rcx        # imm = 0x278
	addq	%rcx, %rax
	cmpl	$0, 532(%rax)
	jne	.LBB18_47
# %bb.46:                               # %if.then120
	movq	-16(%rbp), %rax
	movl	4(%rax), %ecx
	addl	$1, %ecx
	movl	%ecx, 4(%rax)
	movl	-4(%rbp), %eax
	movl	%eax, -20(%rbp)
	jmp	.LBB18_51
.LBB18_47:                              # %if.else123
	movl	-4(%rbp), %eax
	cltd
	movl	$2, %ecx
	idivl	%ecx
	cmpl	$0, %edx
	jne	.LBB18_49
# %bb.48:                               # %if.then126
	movl	-4(%rbp), %eax
	addl	-36(%rbp), %eax
	sarl	$1, %eax
	movl	%eax, -20(%rbp)
	jmp	.LBB18_50
.LBB18_49:                              # %if.else129
	movq	-16(%rbp), %rax
	movl	4(%rax), %ecx
	addl	$1, %ecx
	movl	%ecx, 4(%rax)
	movl	-4(%rbp), %eax
	addl	-36(%rbp), %eax
	sarl	$1, %eax
	movl	%eax, -20(%rbp)
.LBB18_50:                              # %if.end134
	jmp	.LBB18_51
.LBB18_51:                              # %if.end135
	jmp	.LBB18_52
.LBB18_52:                              # %if.end136
	jmp	.LBB18_53
.LBB18_53:                              # %if.end137
	jmp	.LBB18_74
.LBB18_54:                              # %if.else138
	movl	-40(%rbp), %eax
	andl	$1, %eax
	cmpl	$0, %eax
	jne	.LBB18_64
# %bb.55:                               # %if.then141
	movq	-32(%rbp), %rax
	movl	536(%rax), %eax
	movq	-16(%rbp), %rcx
	movl	%eax, 4(%rcx)
	movq	-32(%rbp), %rax
	movl	552(%rax), %eax
	movq	-16(%rbp), %rcx
	movl	%eax, (%rcx)
	movq	-32(%rbp), %rax
	cmpl	$0, 552(%rax)
	je	.LBB18_63
# %bb.56:                               # %if.then148
	movq	img, %rax
	movq	14168(%rax), %rax
	movq	-32(%rbp), %rcx
	movslq	536(%rcx), %rcx
	imulq	$632, %rcx, %rcx        # imm = 0x278
	addq	%rcx, %rax
	cmpl	$0, 532(%rax)
	jne	.LBB18_61
# %bb.57:                               # %if.then155
	movl	-4(%rbp), %ecx
	movl	-36(%rbp), %eax
	cltd
	movl	$2, %esi
	idivl	%esi
	cmpl	%eax, %ecx
	jge	.LBB18_59
# %bb.58:                               # %if.then157
	movl	-4(%rbp), %eax
	shll	$1, %eax
	movl	%eax, -20(%rbp)
	jmp	.LBB18_60
.LBB18_59:                              # %if.else158
	movq	-16(%rbp), %rax
	movl	4(%rax), %ecx
	addl	$1, %ecx
	movl	%ecx, 4(%rax)
	movl	-4(%rbp), %eax
	shll	$1, %eax
	subl	-36(%rbp), %eax
	movl	%eax, -20(%rbp)
.LBB18_60:                              # %if.end163
	jmp	.LBB18_62
.LBB18_61:                              # %if.else164
	movl	-4(%rbp), %eax
	movl	%eax, -20(%rbp)
.LBB18_62:                              # %if.end165
	jmp	.LBB18_63
.LBB18_63:                              # %if.end166
	jmp	.LBB18_73
.LBB18_64:                              # %if.else167
	movq	-32(%rbp), %rax
	movl	536(%rax), %eax
	movq	-16(%rbp), %rcx
	movl	%eax, 4(%rcx)
	movq	-32(%rbp), %rax
	movl	552(%rax), %eax
	movq	-16(%rbp), %rcx
	movl	%eax, (%rcx)
	movq	-32(%rbp), %rax
	cmpl	$0, 552(%rax)
	je	.LBB18_72
# %bb.65:                               # %if.then174
	movq	img, %rax
	movq	14168(%rax), %rax
	movq	-32(%rbp), %rcx
	movslq	536(%rcx), %rcx
	imulq	$632, %rcx, %rcx        # imm = 0x278
	addq	%rcx, %rax
	cmpl	$0, 532(%rax)
	jne	.LBB18_70
# %bb.66:                               # %if.then181
	movl	-4(%rbp), %ecx
	movl	-36(%rbp), %eax
	cltd
	movl	$2, %esi
	idivl	%esi
	cmpl	%eax, %ecx
	jge	.LBB18_68
# %bb.67:                               # %if.then184
	movl	-4(%rbp), %eax
	shll	$1, %eax
	addl	$1, %eax
	movl	%eax, -20(%rbp)
	jmp	.LBB18_69
.LBB18_68:                              # %if.else187
	movq	-16(%rbp), %rax
	movl	4(%rax), %ecx
	addl	$1, %ecx
	movl	%ecx, 4(%rax)
	movl	-4(%rbp), %eax
	shll	$1, %eax
	addl	$1, %eax
	subl	-36(%rbp), %eax
	movl	%eax, -20(%rbp)
.LBB18_69:                              # %if.end193
	jmp	.LBB18_71
.LBB18_70:                              # %if.else194
	movq	-16(%rbp), %rax
	movl	4(%rax), %ecx
	addl	$1, %ecx
	movl	%ecx, 4(%rax)
	movl	-4(%rbp), %eax
	movl	%eax, -20(%rbp)
.LBB18_71:                              # %if.end197
	jmp	.LBB18_72
.LBB18_72:                              # %if.end198
	jmp	.LBB18_73
.LBB18_73:                              # %if.end199
	jmp	.LBB18_74
.LBB18_74:                              # %if.end200
	jmp	.LBB18_75
.LBB18_75:                              # %if.end201
	jmp	.LBB18_76
.LBB18_76:                              # %if.end202
	jmp	.LBB18_127
.LBB18_77:                              # %if.else203
	cmpl	$0, -48(%rbp)
	jl	.LBB18_109
# %bb.78:                               # %land.lhs.true205
	movl	-48(%rbp), %eax
	cmpl	-44(%rbp), %eax
	jge	.LBB18_109
# %bb.79:                               # %if.then207
	cmpl	$0, -4(%rbp)
	jge	.LBB18_100
# %bb.80:                               # %if.then209
	movq	-32(%rbp), %rax
	cmpl	$0, 532(%rax)
	jne	.LBB18_90
# %bb.81:                               # %if.then212
	movl	-40(%rbp), %eax
	andl	$1, %eax
	cmpl	$0, %eax
	jne	.LBB18_88
# %bb.82:                               # %if.then215
	movq	-32(%rbp), %rax
	movl	540(%rax), %eax
	movq	-16(%rbp), %rcx
	movl	%eax, 4(%rcx)
	movq	-32(%rbp), %rax
	cmpl	$0, 556(%rax)
	je	.LBB18_87
# %bb.83:                               # %if.then218
	movq	img, %rax
	cmpl	$1, 72636(%rax)
	jne	.LBB18_85
# %bb.84:                               # %land.lhs.true220
	movq	img, %rax
	movq	14168(%rax), %rax
	movq	-32(%rbp), %rcx
	movslq	540(%rcx), %rcx
	imulq	$632, %rcx, %rcx        # imm = 0x278
	addq	%rcx, %rax
	cmpl	$0, 532(%rax)
	jne	.LBB18_86
.LBB18_85:                              # %if.then227
	movq	-16(%rbp), %rax
	movl	4(%rax), %ecx
	addl	$1, %ecx
	movl	%ecx, 4(%rax)
.LBB18_86:                              # %if.end230
	jmp	.LBB18_87
.LBB18_87:                              # %if.end231
	movq	-32(%rbp), %rax
	movl	556(%rax), %eax
	movq	-16(%rbp), %rcx
	movl	%eax, (%rcx)
	movl	-4(%rbp), %eax
	movl	%eax, -20(%rbp)
	jmp	.LBB18_89
.LBB18_88:                              # %if.else234
	movl	-40(%rbp), %eax
	subl	$1, %eax
	movq	-16(%rbp), %rcx
	movl	%eax, 4(%rcx)
	movq	-16(%rbp), %rax
	movl	$1, (%rax)
	movl	-4(%rbp), %eax
	movl	%eax, -20(%rbp)
.LBB18_89:                              # %if.end238
	jmp	.LBB18_99
.LBB18_90:                              # %if.else239
	movl	-40(%rbp), %eax
	andl	$1, %eax
	cmpl	$0, %eax
	jne	.LBB18_97
# %bb.91:                               # %if.then242
	movq	-32(%rbp), %rax
	movl	540(%rax), %eax
	movq	-16(%rbp), %rcx
	movl	%eax, 4(%rcx)
	movq	-32(%rbp), %rax
	movl	556(%rax), %eax
	movq	-16(%rbp), %rcx
	movl	%eax, (%rcx)
	movq	-32(%rbp), %rax
	cmpl	$0, 556(%rax)
	je	.LBB18_96
# %bb.92:                               # %if.then249
	movq	img, %rax
	movq	14168(%rax), %rax
	movq	-32(%rbp), %rcx
	movslq	540(%rcx), %rcx
	imulq	$632, %rcx, %rcx        # imm = 0x278
	addq	%rcx, %rax
	cmpl	$0, 532(%rax)
	jne	.LBB18_94
# %bb.93:                               # %if.then256
	movq	-16(%rbp), %rax
	movl	4(%rax), %ecx
	addl	$1, %ecx
	movl	%ecx, 4(%rax)
	movl	-4(%rbp), %eax
	shll	$1, %eax
	movl	%eax, -20(%rbp)
	jmp	.LBB18_95
.LBB18_94:                              # %if.else260
	movl	-4(%rbp), %eax
	movl	%eax, -20(%rbp)
.LBB18_95:                              # %if.end261
	jmp	.LBB18_96
.LBB18_96:                              # %if.end262
	jmp	.LBB18_98
.LBB18_97:                              # %if.else263
	movq	-32(%rbp), %rax
	movl	540(%rax), %eax
	addl	$1, %eax
	movq	-16(%rbp), %rcx
	movl	%eax, 4(%rcx)
	movq	-32(%rbp), %rax
	movl	556(%rax), %eax
	movq	-16(%rbp), %rcx
	movl	%eax, (%rcx)
	movl	-4(%rbp), %eax
	movl	%eax, -20(%rbp)
.LBB18_98:                              # %if.end269
	jmp	.LBB18_99
.LBB18_99:                              # %if.end270
	jmp	.LBB18_108
.LBB18_100:                             # %if.else271
	cmpl	$0, -4(%rbp)
	jne	.LBB18_103
# %bb.101:                              # %land.lhs.true273
	movq	img, %rax
	cmpl	$2, 72636(%rax)
	jne	.LBB18_103
# %bb.102:                              # %if.then276
	movq	-32(%rbp), %rax
	movl	540(%rax), %eax
	addl	$1, %eax
	movq	-16(%rbp), %rcx
	movl	%eax, 4(%rcx)
	movq	-16(%rbp), %rax
	movl	$1, (%rax)
	movl	-4(%rbp), %eax
	subl	$1, %eax
	movl	%eax, -20(%rbp)
	jmp	.LBB18_107
.LBB18_103:                             # %if.else282
	cmpl	$0, -4(%rbp)
	jl	.LBB18_106
# %bb.104:                              # %land.lhs.true284
	movl	-4(%rbp), %eax
	cmpl	-36(%rbp), %eax
	jge	.LBB18_106
# %bb.105:                              # %if.then286
	movl	-40(%rbp), %eax
	movq	-16(%rbp), %rcx
	movl	%eax, 4(%rcx)
	movq	-16(%rbp), %rax
	movl	$1, (%rax)
	movl	-4(%rbp), %eax
	movl	%eax, -20(%rbp)
.LBB18_106:                             # %if.end289
	jmp	.LBB18_107
.LBB18_107:                             # %if.end290
	jmp	.LBB18_108
.LBB18_108:                             # %if.end291
	jmp	.LBB18_126
.LBB18_109:                             # %if.else292
	cmpl	$0, -4(%rbp)
	jge	.LBB18_125
# %bb.110:                              # %if.then294
	movq	-32(%rbp), %rax
	cmpl	$0, 532(%rax)
	jne	.LBB18_115
# %bb.111:                              # %if.then297
	movl	-40(%rbp), %eax
	andl	$1, %eax
	cmpl	$0, %eax
	jne	.LBB18_113
# %bb.112:                              # %if.then300
	movq	-32(%rbp), %rax
	movl	544(%rax), %eax
	addl	$1, %eax
	movq	-16(%rbp), %rcx
	movl	%eax, 4(%rcx)
	movq	-32(%rbp), %rax
	movl	560(%rax), %eax
	movq	-16(%rbp), %rcx
	movl	%eax, (%rcx)
	movl	-4(%rbp), %eax
	movl	%eax, -20(%rbp)
	jmp	.LBB18_114
.LBB18_113:                             # %if.else304
	movq	-16(%rbp), %rax
	movl	$0, (%rax)
.LBB18_114:                             # %if.end306
	jmp	.LBB18_124
.LBB18_115:                             # %if.else307
	movl	-40(%rbp), %eax
	andl	$1, %eax
	cmpl	$0, %eax
	jne	.LBB18_122
# %bb.116:                              # %if.then310
	movq	-32(%rbp), %rax
	movl	544(%rax), %eax
	movq	-16(%rbp), %rcx
	movl	%eax, 4(%rcx)
	movq	-32(%rbp), %rax
	movl	560(%rax), %eax
	movq	-16(%rbp), %rcx
	movl	%eax, (%rcx)
	movq	-32(%rbp), %rax
	cmpl	$0, 560(%rax)
	je	.LBB18_121
# %bb.117:                              # %if.then317
	movq	img, %rax
	movq	14168(%rax), %rax
	movq	-32(%rbp), %rcx
	movslq	544(%rcx), %rcx
	imulq	$632, %rcx, %rcx        # imm = 0x278
	addq	%rcx, %rax
	cmpl	$0, 532(%rax)
	jne	.LBB18_119
# %bb.118:                              # %if.then324
	movq	-16(%rbp), %rax
	movl	4(%rax), %ecx
	addl	$1, %ecx
	movl	%ecx, 4(%rax)
	movl	-4(%rbp), %eax
	shll	$1, %eax
	movl	%eax, -20(%rbp)
	jmp	.LBB18_120
.LBB18_119:                             # %if.else328
	movl	-4(%rbp), %eax
	movl	%eax, -20(%rbp)
.LBB18_120:                             # %if.end329
	jmp	.LBB18_121
.LBB18_121:                             # %if.end330
	jmp	.LBB18_123
.LBB18_122:                             # %if.else331
	movq	-32(%rbp), %rax
	movl	544(%rax), %eax
	addl	$1, %eax
	movq	-16(%rbp), %rcx
	movl	%eax, 4(%rcx)
	movq	-32(%rbp), %rax
	movl	560(%rax), %eax
	movq	-16(%rbp), %rcx
	movl	%eax, (%rcx)
	movl	-4(%rbp), %eax
	movl	%eax, -20(%rbp)
.LBB18_123:                             # %if.end337
	jmp	.LBB18_124
.LBB18_124:                             # %if.end338
	jmp	.LBB18_125
.LBB18_125:                             # %if.end339
	jmp	.LBB18_126
.LBB18_126:                             # %if.end340
	jmp	.LBB18_127
.LBB18_127:                             # %if.end341
	movq	-16(%rbp), %rax
	cmpl	$0, (%rax)
	jne	.LBB18_129
# %bb.128:                              # %lor.lhs.false
	movq	img, %rax
	cmpl	$0, 72636(%rax)
	je	.LBB18_133
.LBB18_129:                             # %if.then346
	movl	-48(%rbp), %eax
	addl	-44(%rbp), %eax
	cltd
	idivl	-44(%rbp)
	movq	-16(%rbp), %rax
	movl	%edx, 8(%rax)
	movl	-20(%rbp), %eax
	addl	-36(%rbp), %eax
	cltd
	idivl	-36(%rbp)
	movq	-16(%rbp), %rax
	movl	%edx, 12(%rax)
	movq	-16(%rbp), %rax
	movl	4(%rax), %edi
	movq	-16(%rbp), %rsi
	addq	$16, %rsi
	movq	-16(%rbp), %rdx
	addq	$20, %rdx
	callq	get_mb_pos
	cmpl	$0, -52(%rbp)
	je	.LBB18_131
# %bb.130:                              # %if.then353
	movq	-16(%rbp), %rax
	movl	8(%rax), %eax
	movq	-16(%rbp), %rcx
	addl	16(%rcx), %eax
	movl	%eax, 16(%rcx)
	movq	-16(%rbp), %rax
	movl	12(%rax), %eax
	movq	-16(%rbp), %rcx
	addl	20(%rcx), %eax
	movl	%eax, 20(%rcx)
	jmp	.LBB18_132
.LBB18_131:                             # %if.else360
	movq	-16(%rbp), %rax
	movl	16(%rax), %ecx
	movq	img, %rsi
	movl	$16, %eax
	cltd
	idivl	72708(%rsi)
	movl	%eax, %esi
	movl	%ecx, %eax
	cltd
	idivl	%esi
	movq	-16(%rbp), %rcx
	addl	8(%rcx), %eax
	movq	-16(%rbp), %rcx
	movl	%eax, 16(%rcx)
	movq	-16(%rbp), %rax
	movl	20(%rax), %ecx
	movq	img, %rsi
	movl	$16, %eax
	cltd
	idivl	72712(%rsi)
	movl	%eax, %esi
	movl	%ecx, %eax
	cltd
	idivl	%esi
	movq	-16(%rbp), %rcx
	addl	12(%rcx), %eax
	movq	-16(%rbp), %rcx
	movl	%eax, 20(%rcx)
.LBB18_132:                             # %if.end375
	jmp	.LBB18_133
.LBB18_133:                             # %if.end376
	cmpl	$739268513, -56(%rbp)   # imm = 0x2C1057A1
	jne	.LBB18_135
.LBB18_134:
	addq	$64, %rsp
	popq	%rbp
	.cfi_def_cfa %rsp, 8
	retq
.LBB18_135:                             # %func_exit
	.cfi_def_cfa %rbp, 16
	callq	detect_breach
	jmp	.LBB18_134
.Lfunc_end18:
	.size	getAffNeighbour.10, .Lfunc_end18-getAffNeighbour.10
	.cfi_endproc
                                        # -- End function
	.globl	getNonAffNeighbour.11   # -- Begin function getNonAffNeighbour.11
	.p2align	4, 0x90
	.type	getNonAffNeighbour.11,@function
getNonAffNeighbour.11:                  # @getNonAffNeighbour.11
	.cfi_startproc
# %bb.0:                                # %entry
	pushq	%rbp
	.cfi_def_cfa_offset 16
	.cfi_offset %rbp, -16
	movq	%rsp, %rbp
	.cfi_def_cfa_register %rbp
	subq	$48, %rsp
	movl	$1197913808, -44(%rbp)  # imm = 0x4766B6D0
	movl	%edi, -36(%rbp)
	movl	%esi, -12(%rbp)
	movl	%edx, -16(%rbp)
	movl	%ecx, -40(%rbp)
	movq	%r8, -8(%rbp)
	movq	img, %rax
	movq	14168(%rax), %rax
	movl	-36(%rbp), %ecx
	imulq	$632, %rcx, %rcx        # imm = 0x278
	addq	%rcx, %rax
	movq	%rax, -32(%rbp)
	cmpl	$0, -40(%rbp)
	je	.LBB19_2
# %bb.1:                                # %if.then
	movl	$16, -20(%rbp)
	movl	$16, -24(%rbp)
	jmp	.LBB19_3
.LBB19_2:                               # %if.else
	movq	img, %rax
	movl	72708(%rax), %eax
	movl	%eax, -20(%rbp)
	movq	img, %rax
	movl	72712(%rax), %eax
	movl	%eax, -24(%rbp)
.LBB19_3:                               # %if.end
	cmpl	$0, -12(%rbp)
	jge	.LBB19_6
# %bb.4:                                # %land.lhs.true
	cmpl	$0, -16(%rbp)
	jge	.LBB19_6
# %bb.5:                                # %if.then2
	movq	-32(%rbp), %rax
	movl	548(%rax), %eax
	movq	-8(%rbp), %rcx
	movl	%eax, 4(%rcx)
	movq	-32(%rbp), %rax
	movl	564(%rax), %eax
	movq	-8(%rbp), %rcx
	movl	%eax, (%rcx)
	jmp	.LBB19_27
.LBB19_6:                               # %if.else3
	cmpl	$0, -12(%rbp)
	jge	.LBB19_10
# %bb.7:                                # %land.lhs.true5
	cmpl	$0, -16(%rbp)
	jl	.LBB19_10
# %bb.8:                                # %land.lhs.true7
	movl	-16(%rbp), %eax
	cmpl	-24(%rbp), %eax
	jge	.LBB19_10
# %bb.9:                                # %if.then9
	movq	-32(%rbp), %rax
	movl	536(%rax), %eax
	movq	-8(%rbp), %rcx
	movl	%eax, 4(%rcx)
	movq	-32(%rbp), %rax
	movl	552(%rax), %eax
	movq	-8(%rbp), %rcx
	movl	%eax, (%rcx)
	jmp	.LBB19_26
.LBB19_10:                              # %if.else12
	cmpl	$0, -12(%rbp)
	jl	.LBB19_14
# %bb.11:                               # %land.lhs.true14
	movl	-12(%rbp), %eax
	cmpl	-20(%rbp), %eax
	jge	.LBB19_14
# %bb.12:                               # %land.lhs.true16
	cmpl	$0, -16(%rbp)
	jge	.LBB19_14
# %bb.13:                               # %if.then18
	movq	-32(%rbp), %rax
	movl	540(%rax), %eax
	movq	-8(%rbp), %rcx
	movl	%eax, 4(%rcx)
	movq	-32(%rbp), %rax
	movl	556(%rax), %eax
	movq	-8(%rbp), %rcx
	movl	%eax, (%rcx)
	jmp	.LBB19_25
.LBB19_14:                              # %if.else21
	cmpl	$0, -12(%rbp)
	jl	.LBB19_19
# %bb.15:                               # %land.lhs.true23
	movl	-12(%rbp), %eax
	cmpl	-20(%rbp), %eax
	jge	.LBB19_19
# %bb.16:                               # %land.lhs.true25
	cmpl	$0, -16(%rbp)
	jl	.LBB19_19
# %bb.17:                               # %land.lhs.true27
	movl	-16(%rbp), %eax
	cmpl	-24(%rbp), %eax
	jge	.LBB19_19
# %bb.18:                               # %if.then29
	movl	-36(%rbp), %eax
	movq	-8(%rbp), %rcx
	movl	%eax, 4(%rcx)
	movq	-8(%rbp), %rax
	movl	$1, (%rax)
	jmp	.LBB19_24
.LBB19_19:                              # %if.else32
	movl	-12(%rbp), %eax
	cmpl	-20(%rbp), %eax
	jl	.LBB19_22
# %bb.20:                               # %land.lhs.true34
	cmpl	$0, -16(%rbp)
	jge	.LBB19_22
# %bb.21:                               # %if.then36
	movq	-32(%rbp), %rax
	movl	544(%rax), %eax
	movq	-8(%rbp), %rcx
	movl	%eax, 4(%rcx)
	movq	-32(%rbp), %rax
	movl	560(%rax), %eax
	movq	-8(%rbp), %rcx
	movl	%eax, (%rcx)
	jmp	.LBB19_23
.LBB19_22:                              # %if.else39
	movq	-8(%rbp), %rax
	movl	$0, (%rax)
.LBB19_23:                              # %if.end41
	jmp	.LBB19_24
.LBB19_24:                              # %if.end42
	jmp	.LBB19_25
.LBB19_25:                              # %if.end43
	jmp	.LBB19_26
.LBB19_26:                              # %if.end44
	jmp	.LBB19_27
.LBB19_27:                              # %if.end45
	movq	-8(%rbp), %rax
	cmpl	$0, (%rax)
	jne	.LBB19_29
# %bb.28:                               # %lor.lhs.false
	movq	img, %rax
	cmpl	$0, 72636(%rax)
	je	.LBB19_33
.LBB19_29:                              # %if.then49
	movl	-12(%rbp), %eax
	addl	-20(%rbp), %eax
	cltd
	idivl	-20(%rbp)
	movq	-8(%rbp), %rax
	movl	%edx, 8(%rax)
	movl	-16(%rbp), %eax
	addl	-24(%rbp), %eax
	cltd
	idivl	-24(%rbp)
	movq	-8(%rbp), %rax
	movl	%edx, 12(%rax)
	movq	-8(%rbp), %rax
	movl	4(%rax), %edi
	movq	-8(%rbp), %rsi
	addq	$16, %rsi
	movq	-8(%rbp), %rdx
	addq	$20, %rdx
	callq	get_mb_pos
	cmpl	$0, -40(%rbp)
	je	.LBB19_31
# %bb.30:                               # %if.then54
	movq	-8(%rbp), %rax
	movl	8(%rax), %eax
	movq	-8(%rbp), %rcx
	addl	16(%rcx), %eax
	movl	%eax, 16(%rcx)
	movq	-8(%rbp), %rax
	movl	12(%rax), %eax
	movq	-8(%rbp), %rcx
	addl	20(%rcx), %eax
	movl	%eax, 20(%rcx)
	jmp	.LBB19_32
.LBB19_31:                              # %if.else61
	movq	-8(%rbp), %rax
	movl	16(%rax), %ecx
	movq	img, %rsi
	movl	$16, %eax
	cltd
	idivl	72708(%rsi)
	movl	%eax, %esi
	movl	%ecx, %eax
	cltd
	idivl	%esi
	movq	-8(%rbp), %rcx
	addl	8(%rcx), %eax
	movq	-8(%rbp), %rcx
	movl	%eax, 16(%rcx)
	movq	-8(%rbp), %rax
	movl	20(%rax), %ecx
	movq	img, %rsi
	movl	$16, %eax
	cltd
	idivl	72712(%rsi)
	movl	%eax, %esi
	movl	%ecx, %eax
	cltd
	idivl	%esi
	movq	-8(%rbp), %rcx
	addl	12(%rcx), %eax
	movq	-8(%rbp), %rcx
	movl	%eax, 20(%rcx)
.LBB19_32:                              # %if.end75
	jmp	.LBB19_33
.LBB19_33:                              # %if.end76
	cmpl	$1197913808, -44(%rbp)  # imm = 0x4766B6D0
	jne	.LBB19_35
.LBB19_34:
	addq	$48, %rsp
	popq	%rbp
	.cfi_def_cfa %rsp, 8
	retq
.LBB19_35:                              # %func_exit
	.cfi_def_cfa %rbp, 16
	callq	detect_breach
	jmp	.LBB19_34
.Lfunc_end19:
	.size	getNonAffNeighbour.11, .Lfunc_end19-getNonAffNeighbour.11
	.cfi_endproc
                                        # -- End function
	.globl	getNeighbour.12         # -- Begin function getNeighbour.12
	.p2align	4, 0x90
	.type	getNeighbour.12,@function
getNeighbour.12:                        # @getNeighbour.12
	.cfi_startproc
# %bb.0:                                # %entry
	pushq	%rbp
	.cfi_def_cfa_offset 16
	.cfi_offset %rbp, -16
	movq	%rsp, %rbp
	.cfi_def_cfa_register %rbp
	subq	$32, %rsp
	movl	$11126812, -20(%rbp)    # imm = 0xA9C81C
	movl	%edi, -4(%rbp)
	movl	%esi, -12(%rbp)
	movl	%edx, -16(%rbp)
	movl	%ecx, -8(%rbp)
	movq	%r8, -32(%rbp)
	cmpl	$0, -4(%rbp)
	jge	.LBB20_2
# %bb.1:                                # %if.then
	movabsq	$.L.str, %rdi
	movl	$100, %esi
	callq	error
.LBB20_2:                               # %if.end
	movq	img, %rax
	cmpl	$0, 72400(%rax)
	je	.LBB20_4
# %bb.3:                                # %if.then1
	movl	-4(%rbp), %edi
	movl	-12(%rbp), %esi
	movl	-16(%rbp), %edx
	movl	-8(%rbp), %ecx
	movq	-32(%rbp), %r8
	callq	getAffNeighbour
	jmp	.LBB20_5
.LBB20_4:                               # %if.else
	movl	-4(%rbp), %edi
	movl	-12(%rbp), %esi
	movl	-16(%rbp), %edx
	movl	-8(%rbp), %ecx
	movq	-32(%rbp), %r8
	callq	getNonAffNeighbour
.LBB20_5:                               # %if.end2
	cmpl	$11126812, -20(%rbp)    # imm = 0xA9C81C
	jne	.LBB20_7
.LBB20_6:
	addq	$32, %rsp
	popq	%rbp
	.cfi_def_cfa %rsp, 8
	retq
.LBB20_7:                               # %func_exit
	.cfi_def_cfa %rbp, 16
	callq	detect_breach
	jmp	.LBB20_6
.Lfunc_end20:
	.size	getNeighbour.12, .Lfunc_end20-getNeighbour.12
	.cfi_endproc
                                        # -- End function
	.globl	mb_is_available.13      # -- Begin function mb_is_available.13
	.p2align	4, 0x90
	.type	mb_is_available.13,@function
mb_is_available.13:                     # @mb_is_available.13
	.cfi_startproc
# %bb.0:                                # %entry
	pushq	%rbp
	.cfi_def_cfa_offset 16
	.cfi_offset %rbp, -16
	movq	%rsp, %rbp
	.cfi_def_cfa_register %rbp
	pushq	%rbx
	subq	$24, %rsp
	.cfi_offset %rbx, -24
	movl	$758733564, -20(%rbp)   # imm = 0x2D395AFC
	movl	%edi, -12(%rbp)
	movl	%esi, -24(%rbp)
	cmpl	$0, -12(%rbp)
	jl	.LBB21_2
# %bb.1:                                # %lor.lhs.false
	movl	-12(%rbp), %eax
	movq	img, %rcx
	movl	72484(%rcx), %ecx
	subl	$1, %ecx
	cmpl	%ecx, %eax
	jle	.LBB21_3
.LBB21_2:                               # %if.then
	movl	$0, -16(%rbp)
	jmp	.LBB21_8
.LBB21_3:                               # %if.end
	movq	img, %rax
	cmpl	$0, 72636(%rax)
	jne	.LBB21_7
# %bb.4:                                # %if.then2
	movq	img, %rax
	movq	14168(%rax), %rax
	movslq	-12(%rbp), %rcx
	imulq	$632, %rcx, %rcx        # imm = 0x278
	addq	%rcx, %rax
	movl	4(%rax), %eax
	movq	img, %rcx
	movq	14168(%rcx), %rcx
	movslq	-24(%rbp), %rdx
	imulq	$632, %rdx, %rdx        # imm = 0x278
	addq	%rdx, %rcx
	cmpl	4(%rcx), %eax
	je	.LBB21_6
# %bb.5:                                # %if.then8
	movl	$0, -16(%rbp)
	jmp	.LBB21_8
.LBB21_6:                               # %if.end9
	jmp	.LBB21_7
.LBB21_7:                               # %if.end10
	movl	$1, -16(%rbp)
.LBB21_8:                               # %return
	movl	-16(%rbp), %ebx
	cmpl	$758733564, -20(%rbp)   # imm = 0x2D395AFC
	jne	.LBB21_10
.LBB21_9:
	movl	%ebx, %eax
	addq	$24, %rsp
	popq	%rbx
	popq	%rbp
	.cfi_def_cfa %rsp, 8
	retq
.LBB21_10:                              # %func_exit
	.cfi_def_cfa %rbp, 16
	callq	detect_breach
	jmp	.LBB21_9
.Lfunc_end21:
	.size	mb_is_available.13, .Lfunc_end21-mb_is_available.13
	.cfi_endproc
                                        # -- End function
	.globl	get_mb_block_pos.14     # -- Begin function get_mb_block_pos.14
	.p2align	4, 0x90
	.type	get_mb_block_pos.14,@function
get_mb_block_pos.14:                    # @get_mb_block_pos.14
	.cfi_startproc
# %bb.0:                                # %entry
	pushq	%rbp
	.cfi_def_cfa_offset 16
	.cfi_offset %rbp, -16
	movq	%rsp, %rbp
	.cfi_def_cfa_register %rbp
	subq	$32, %rsp
	movl	$406488268, -8(%rbp)    # imm = 0x183A84CC
	movl	%edi, -4(%rbp)
	movq	%rsi, -16(%rbp)
	movq	%rdx, -24(%rbp)
	movq	img, %rax
	cmpl	$0, 72400(%rax)
	je	.LBB22_2
# %bb.1:                                # %if.then
	movl	-4(%rbp), %eax
	cltd
	movl	$2, %esi
	idivl	%esi
	movq	img, %rcx
	xorl	%edx, %edx
	divl	72468(%rcx)
	movq	-16(%rbp), %rax
	movl	%edx, (%rax)
	movl	-4(%rbp), %eax
	cltd
	idivl	%esi
	movq	img, %rcx
	xorl	%edx, %edx
	divl	72468(%rcx)
	movl	%eax, %ecx
	shll	$1, %ecx
	movl	-4(%rbp), %eax
	cltd
	idivl	%esi
	addl	%edx, %ecx
	movq	-24(%rbp), %rax
	movl	%ecx, (%rax)
	jmp	.LBB22_3
.LBB22_2:                               # %if.else
	movl	-4(%rbp), %eax
	movq	img, %rcx
	xorl	%edx, %edx
	divl	72468(%rcx)
	movq	-16(%rbp), %rax
	movl	%edx, (%rax)
	movl	-4(%rbp), %eax
	movq	img, %rcx
	xorl	%edx, %edx
	divl	72468(%rcx)
	movq	-24(%rbp), %rcx
	movl	%eax, (%rcx)
.LBB22_3:                               # %if.end
	cmpl	$406488268, -8(%rbp)    # imm = 0x183A84CC
	jne	.LBB22_5
.LBB22_4:
	addq	$32, %rsp
	popq	%rbp
	.cfi_def_cfa %rsp, 8
	retq
.LBB22_5:                               # %func_exit
	.cfi_def_cfa %rbp, 16
	callq	detect_breach
	jmp	.LBB22_4
.Lfunc_end22:
	.size	get_mb_block_pos.14, .Lfunc_end22-get_mb_block_pos.14
	.cfi_endproc
                                        # -- End function
	.globl	getLuma4x4Neighbour.15  # -- Begin function getLuma4x4Neighbour.15
	.p2align	4, 0x90
	.type	getLuma4x4Neighbour.15,@function
getLuma4x4Neighbour.15:                 # @getLuma4x4Neighbour.15
	.cfi_startproc
# %bb.0:                                # %entry
	pushq	%rbp
	.cfi_def_cfa_offset 16
	.cfi_offset %rbp, -16
	movq	%rsp, %rbp
	.cfi_def_cfa_register %rbp
	subq	$48, %rsp
	movl	$1085185746, -16(%rbp)  # imm = 0x40AE9ED2
	movl	%edi, -28(%rbp)
	movl	%esi, -20(%rbp)
	movl	%edx, -40(%rbp)
	movl	%ecx, -36(%rbp)
	movl	%r8d, -32(%rbp)
	movq	%r9, -8(%rbp)
	movl	-20(%rbp), %eax
	shll	$2, %eax
	addl	-36(%rbp), %eax
	movl	%eax, -12(%rbp)
	movl	-40(%rbp), %eax
	shll	$2, %eax
	addl	-32(%rbp), %eax
	movl	%eax, -24(%rbp)
	movl	-28(%rbp), %edi
	movl	-12(%rbp), %esi
	movl	-24(%rbp), %edx
	movq	-8(%rbp), %r8
	movl	$1, %ecx
	callq	getNeighbour
	movq	-8(%rbp), %rax
	cmpl	$0, (%rax)
	je	.LBB23_2
# %bb.1:                                # %if.then
	movq	-8(%rbp), %rcx
	movl	8(%rcx), %eax
	cltd
	movl	$4, %esi
	idivl	%esi
	movl	%eax, 8(%rcx)
	movq	-8(%rbp), %rcx
	movl	12(%rcx), %eax
	cltd
	idivl	%esi
	movl	%eax, 12(%rcx)
	movq	-8(%rbp), %rcx
	movl	16(%rcx), %eax
	cltd
	idivl	%esi
	movl	%eax, 16(%rcx)
	movq	-8(%rbp), %rcx
	movl	20(%rcx), %eax
	cltd
	idivl	%esi
	movl	%eax, 20(%rcx)
.LBB23_2:                               # %if.end
	cmpl	$1085185746, -16(%rbp)  # imm = 0x40AE9ED2
	jne	.LBB23_4
.LBB23_3:
	addq	$48, %rsp
	popq	%rbp
	.cfi_def_cfa %rsp, 8
	retq
.LBB23_4:                               # %func_exit
	.cfi_def_cfa %rbp, 16
	callq	detect_breach
	jmp	.LBB23_3
.Lfunc_end23:
	.size	getLuma4x4Neighbour.15, .Lfunc_end23-getLuma4x4Neighbour.15
	.cfi_endproc
                                        # -- End function
	.globl	getLuma4x4Neighbour.16  # -- Begin function getLuma4x4Neighbour.16
	.p2align	4, 0x90
	.type	getLuma4x4Neighbour.16,@function
getLuma4x4Neighbour.16:                 # @getLuma4x4Neighbour.16
	.cfi_startproc
# %bb.0:                                # %entry
	pushq	%rbp
	.cfi_def_cfa_offset 16
	.cfi_offset %rbp, -16
	movq	%rsp, %rbp
	.cfi_def_cfa_register %rbp
	subq	$48, %rsp
	movl	$653003405, -20(%rbp)   # imm = 0x26EC0A8D
	movl	%edi, -40(%rbp)
	movl	%esi, -32(%rbp)
	movl	%edx, -36(%rbp)
	movl	%ecx, -28(%rbp)
	movl	%r8d, -24(%rbp)
	movq	%r9, -8(%rbp)
	movl	-32(%rbp), %eax
	shll	$2, %eax
	addl	-28(%rbp), %eax
	movl	%eax, -12(%rbp)
	movl	-36(%rbp), %eax
	shll	$2, %eax
	addl	-24(%rbp), %eax
	movl	%eax, -16(%rbp)
	movl	-40(%rbp), %edi
	movl	-12(%rbp), %esi
	movl	-16(%rbp), %edx
	movq	-8(%rbp), %r8
	movl	$1, %ecx
	callq	getNeighbour
	movq	-8(%rbp), %rax
	cmpl	$0, (%rax)
	je	.LBB24_2
# %bb.1:                                # %if.then
	movq	-8(%rbp), %rcx
	movl	8(%rcx), %eax
	cltd
	movl	$4, %esi
	idivl	%esi
	movl	%eax, 8(%rcx)
	movq	-8(%rbp), %rcx
	movl	12(%rcx), %eax
	cltd
	idivl	%esi
	movl	%eax, 12(%rcx)
	movq	-8(%rbp), %rcx
	movl	16(%rcx), %eax
	cltd
	idivl	%esi
	movl	%eax, 16(%rcx)
	movq	-8(%rbp), %rcx
	movl	20(%rcx), %eax
	cltd
	idivl	%esi
	movl	%eax, 20(%rcx)
.LBB24_2:                               # %if.end
	cmpl	$653003405, -20(%rbp)   # imm = 0x26EC0A8D
	jne	.LBB24_4
.LBB24_3:
	addq	$48, %rsp
	popq	%rbp
	.cfi_def_cfa %rsp, 8
	retq
.LBB24_4:                               # %func_exit
	.cfi_def_cfa %rbp, 16
	callq	detect_breach
	jmp	.LBB24_3
.Lfunc_end24:
	.size	getLuma4x4Neighbour.16, .Lfunc_end24-getLuma4x4Neighbour.16
	.cfi_endproc
                                        # -- End function
	.globl	getNonAffNeighbour.17   # -- Begin function getNonAffNeighbour.17
	.p2align	4, 0x90
	.type	getNonAffNeighbour.17,@function
getNonAffNeighbour.17:                  # @getNonAffNeighbour.17
	.cfi_startproc
# %bb.0:                                # %entry
	pushq	%rbp
	.cfi_def_cfa_offset 16
	.cfi_offset %rbp, -16
	movq	%rsp, %rbp
	.cfi_def_cfa_register %rbp
	subq	$48, %rsp
	movl	$1289427756, -44(%rbp)  # imm = 0x4CDB1B2C
	movl	%edi, -40(%rbp)
	movl	%esi, -12(%rbp)
	movl	%edx, -16(%rbp)
	movl	%ecx, -36(%rbp)
	movq	%r8, -8(%rbp)
	movq	img, %rax
	movq	14168(%rax), %rax
	movl	-40(%rbp), %ecx
	imulq	$632, %rcx, %rcx        # imm = 0x278
	addq	%rcx, %rax
	movq	%rax, -32(%rbp)
	cmpl	$0, -36(%rbp)
	je	.LBB25_2
# %bb.1:                                # %if.then
	movl	$16, -20(%rbp)
	movl	$16, -24(%rbp)
	jmp	.LBB25_3
.LBB25_2:                               # %if.else
	movq	img, %rax
	movl	72708(%rax), %eax
	movl	%eax, -20(%rbp)
	movq	img, %rax
	movl	72712(%rax), %eax
	movl	%eax, -24(%rbp)
.LBB25_3:                               # %if.end
	cmpl	$0, -12(%rbp)
	jge	.LBB25_6
# %bb.4:                                # %land.lhs.true
	cmpl	$0, -16(%rbp)
	jge	.LBB25_6
# %bb.5:                                # %if.then2
	movq	-32(%rbp), %rax
	movl	548(%rax), %eax
	movq	-8(%rbp), %rcx
	movl	%eax, 4(%rcx)
	movq	-32(%rbp), %rax
	movl	564(%rax), %eax
	movq	-8(%rbp), %rcx
	movl	%eax, (%rcx)
	jmp	.LBB25_27
.LBB25_6:                               # %if.else3
	cmpl	$0, -12(%rbp)
	jge	.LBB25_10
# %bb.7:                                # %land.lhs.true5
	cmpl	$0, -16(%rbp)
	jl	.LBB25_10
# %bb.8:                                # %land.lhs.true7
	movl	-16(%rbp), %eax
	cmpl	-24(%rbp), %eax
	jge	.LBB25_10
# %bb.9:                                # %if.then9
	movq	-32(%rbp), %rax
	movl	536(%rax), %eax
	movq	-8(%rbp), %rcx
	movl	%eax, 4(%rcx)
	movq	-32(%rbp), %rax
	movl	552(%rax), %eax
	movq	-8(%rbp), %rcx
	movl	%eax, (%rcx)
	jmp	.LBB25_26
.LBB25_10:                              # %if.else12
	cmpl	$0, -12(%rbp)
	jl	.LBB25_14
# %bb.11:                               # %land.lhs.true14
	movl	-12(%rbp), %eax
	cmpl	-20(%rbp), %eax
	jge	.LBB25_14
# %bb.12:                               # %land.lhs.true16
	cmpl	$0, -16(%rbp)
	jge	.LBB25_14
# %bb.13:                               # %if.then18
	movq	-32(%rbp), %rax
	movl	540(%rax), %eax
	movq	-8(%rbp), %rcx
	movl	%eax, 4(%rcx)
	movq	-32(%rbp), %rax
	movl	556(%rax), %eax
	movq	-8(%rbp), %rcx
	movl	%eax, (%rcx)
	jmp	.LBB25_25
.LBB25_14:                              # %if.else21
	cmpl	$0, -12(%rbp)
	jl	.LBB25_19
# %bb.15:                               # %land.lhs.true23
	movl	-12(%rbp), %eax
	cmpl	-20(%rbp), %eax
	jge	.LBB25_19
# %bb.16:                               # %land.lhs.true25
	cmpl	$0, -16(%rbp)
	jl	.LBB25_19
# %bb.17:                               # %land.lhs.true27
	movl	-16(%rbp), %eax
	cmpl	-24(%rbp), %eax
	jge	.LBB25_19
# %bb.18:                               # %if.then29
	movl	-40(%rbp), %eax
	movq	-8(%rbp), %rcx
	movl	%eax, 4(%rcx)
	movq	-8(%rbp), %rax
	movl	$1, (%rax)
	jmp	.LBB25_24
.LBB25_19:                              # %if.else32
	movl	-12(%rbp), %eax
	cmpl	-20(%rbp), %eax
	jl	.LBB25_22
# %bb.20:                               # %land.lhs.true34
	cmpl	$0, -16(%rbp)
	jge	.LBB25_22
# %bb.21:                               # %if.then36
	movq	-32(%rbp), %rax
	movl	544(%rax), %eax
	movq	-8(%rbp), %rcx
	movl	%eax, 4(%rcx)
	movq	-32(%rbp), %rax
	movl	560(%rax), %eax
	movq	-8(%rbp), %rcx
	movl	%eax, (%rcx)
	jmp	.LBB25_23
.LBB25_22:                              # %if.else39
	movq	-8(%rbp), %rax
	movl	$0, (%rax)
.LBB25_23:                              # %if.end41
	jmp	.LBB25_24
.LBB25_24:                              # %if.end42
	jmp	.LBB25_25
.LBB25_25:                              # %if.end43
	jmp	.LBB25_26
.LBB25_26:                              # %if.end44
	jmp	.LBB25_27
.LBB25_27:                              # %if.end45
	movq	-8(%rbp), %rax
	cmpl	$0, (%rax)
	jne	.LBB25_29
# %bb.28:                               # %lor.lhs.false
	movq	img, %rax
	cmpl	$0, 72636(%rax)
	je	.LBB25_33
.LBB25_29:                              # %if.then49
	movl	-12(%rbp), %eax
	addl	-20(%rbp), %eax
	cltd
	idivl	-20(%rbp)
	movq	-8(%rbp), %rax
	movl	%edx, 8(%rax)
	movl	-16(%rbp), %eax
	addl	-24(%rbp), %eax
	cltd
	idivl	-24(%rbp)
	movq	-8(%rbp), %rax
	movl	%edx, 12(%rax)
	movq	-8(%rbp), %rax
	movl	4(%rax), %edi
	movq	-8(%rbp), %rsi
	addq	$16, %rsi
	movq	-8(%rbp), %rdx
	addq	$20, %rdx
	callq	get_mb_pos
	cmpl	$0, -36(%rbp)
	je	.LBB25_31
# %bb.30:                               # %if.then54
	movq	-8(%rbp), %rax
	movl	8(%rax), %eax
	movq	-8(%rbp), %rcx
	addl	16(%rcx), %eax
	movl	%eax, 16(%rcx)
	movq	-8(%rbp), %rax
	movl	12(%rax), %eax
	movq	-8(%rbp), %rcx
	addl	20(%rcx), %eax
	movl	%eax, 20(%rcx)
	jmp	.LBB25_32
.LBB25_31:                              # %if.else61
	movq	-8(%rbp), %rax
	movl	16(%rax), %ecx
	movq	img, %rsi
	movl	$16, %eax
	cltd
	idivl	72708(%rsi)
	movl	%eax, %esi
	movl	%ecx, %eax
	cltd
	idivl	%esi
	movq	-8(%rbp), %rcx
	addl	8(%rcx), %eax
	movq	-8(%rbp), %rcx
	movl	%eax, 16(%rcx)
	movq	-8(%rbp), %rax
	movl	20(%rax), %ecx
	movq	img, %rsi
	movl	$16, %eax
	cltd
	idivl	72712(%rsi)
	movl	%eax, %esi
	movl	%ecx, %eax
	cltd
	idivl	%esi
	movq	-8(%rbp), %rcx
	addl	12(%rcx), %eax
	movq	-8(%rbp), %rcx
	movl	%eax, 20(%rcx)
.LBB25_32:                              # %if.end75
	jmp	.LBB25_33
.LBB25_33:                              # %if.end76
	cmpl	$1289427756, -44(%rbp)  # imm = 0x4CDB1B2C
	jne	.LBB25_35
.LBB25_34:
	addq	$48, %rsp
	popq	%rbp
	.cfi_def_cfa %rsp, 8
	retq
.LBB25_35:                              # %func_exit
	.cfi_def_cfa %rbp, 16
	callq	detect_breach
	jmp	.LBB25_34
.Lfunc_end25:
	.size	getNonAffNeighbour.17, .Lfunc_end25-getNonAffNeighbour.17
	.cfi_endproc
                                        # -- End function
	.globl	get_mb_block_pos.18     # -- Begin function get_mb_block_pos.18
	.p2align	4, 0x90
	.type	get_mb_block_pos.18,@function
get_mb_block_pos.18:                    # @get_mb_block_pos.18
	.cfi_startproc
# %bb.0:                                # %entry
	pushq	%rbp
	.cfi_def_cfa_offset 16
	.cfi_offset %rbp, -16
	movq	%rsp, %rbp
	.cfi_def_cfa_register %rbp
	subq	$32, %rsp
	movl	$802975186, -8(%rbp)    # imm = 0x2FDC6DD2
	movl	%edi, -4(%rbp)
	movq	%rsi, -24(%rbp)
	movq	%rdx, -16(%rbp)
	movq	img, %rax
	cmpl	$0, 72400(%rax)
	je	.LBB26_2
# %bb.1:                                # %if.then
	movl	-4(%rbp), %eax
	cltd
	movl	$2, %esi
	idivl	%esi
	movq	img, %rcx
	xorl	%edx, %edx
	divl	72468(%rcx)
	movq	-24(%rbp), %rax
	movl	%edx, (%rax)
	movl	-4(%rbp), %eax
	cltd
	idivl	%esi
	movq	img, %rcx
	xorl	%edx, %edx
	divl	72468(%rcx)
	movl	%eax, %ecx
	shll	$1, %ecx
	movl	-4(%rbp), %eax
	cltd
	idivl	%esi
	addl	%edx, %ecx
	movq	-16(%rbp), %rax
	movl	%ecx, (%rax)
	jmp	.LBB26_3
.LBB26_2:                               # %if.else
	movl	-4(%rbp), %eax
	movq	img, %rcx
	xorl	%edx, %edx
	divl	72468(%rcx)
	movq	-24(%rbp), %rax
	movl	%edx, (%rax)
	movl	-4(%rbp), %eax
	movq	img, %rcx
	xorl	%edx, %edx
	divl	72468(%rcx)
	movq	-16(%rbp), %rcx
	movl	%eax, (%rcx)
.LBB26_3:                               # %if.end
	cmpl	$802975186, -8(%rbp)    # imm = 0x2FDC6DD2
	jne	.LBB26_5
.LBB26_4:
	addq	$32, %rsp
	popq	%rbp
	.cfi_def_cfa %rsp, 8
	retq
.LBB26_5:                               # %func_exit
	.cfi_def_cfa %rbp, 16
	callq	detect_breach
	jmp	.LBB26_4
.Lfunc_end26:
	.size	get_mb_block_pos.18, .Lfunc_end26-get_mb_block_pos.18
	.cfi_endproc
                                        # -- End function
	.globl	get_mb_block_pos.19     # -- Begin function get_mb_block_pos.19
	.p2align	4, 0x90
	.type	get_mb_block_pos.19,@function
get_mb_block_pos.19:                    # @get_mb_block_pos.19
	.cfi_startproc
# %bb.0:                                # %entry
	pushq	%rbp
	.cfi_def_cfa_offset 16
	.cfi_offset %rbp, -16
	movq	%rsp, %rbp
	.cfi_def_cfa_register %rbp
	subq	$32, %rsp
	movl	$748943202, -8(%rbp)    # imm = 0x2CA3F762
	movl	%edi, -4(%rbp)
	movq	%rsi, -24(%rbp)
	movq	%rdx, -16(%rbp)
	movq	img, %rax
	cmpl	$0, 72400(%rax)
	je	.LBB27_2
# %bb.1:                                # %if.then
	movl	-4(%rbp), %eax
	cltd
	movl	$2, %esi
	idivl	%esi
	movq	img, %rcx
	xorl	%edx, %edx
	divl	72468(%rcx)
	movq	-24(%rbp), %rax
	movl	%edx, (%rax)
	movl	-4(%rbp), %eax
	cltd
	idivl	%esi
	movq	img, %rcx
	xorl	%edx, %edx
	divl	72468(%rcx)
	movl	%eax, %ecx
	shll	$1, %ecx
	movl	-4(%rbp), %eax
	cltd
	idivl	%esi
	addl	%edx, %ecx
	movq	-16(%rbp), %rax
	movl	%ecx, (%rax)
	jmp	.LBB27_3
.LBB27_2:                               # %if.else
	movl	-4(%rbp), %eax
	movq	img, %rcx
	xorl	%edx, %edx
	divl	72468(%rcx)
	movq	-24(%rbp), %rax
	movl	%edx, (%rax)
	movl	-4(%rbp), %eax
	movq	img, %rcx
	xorl	%edx, %edx
	divl	72468(%rcx)
	movq	-16(%rbp), %rcx
	movl	%eax, (%rcx)
.LBB27_3:                               # %if.end
	cmpl	$748943202, -8(%rbp)    # imm = 0x2CA3F762
	jne	.LBB27_5
.LBB27_4:
	addq	$32, %rsp
	popq	%rbp
	.cfi_def_cfa %rsp, 8
	retq
.LBB27_5:                               # %func_exit
	.cfi_def_cfa %rbp, 16
	callq	detect_breach
	jmp	.LBB27_4
.Lfunc_end27:
	.size	get_mb_block_pos.19, .Lfunc_end27-get_mb_block_pos.19
	.cfi_endproc
                                        # -- End function
	.globl	getNonAffNeighbour.20   # -- Begin function getNonAffNeighbour.20
	.p2align	4, 0x90
	.type	getNonAffNeighbour.20,@function
getNonAffNeighbour.20:                  # @getNonAffNeighbour.20
	.cfi_startproc
# %bb.0:                                # %entry
	pushq	%rbp
	.cfi_def_cfa_offset 16
	.cfi_offset %rbp, -16
	movq	%rsp, %rbp
	.cfi_def_cfa_register %rbp
	subq	$48, %rsp
	movl	$1572387611, -44(%rbp)  # imm = 0x5DB8BB1B
	movl	%edi, -36(%rbp)
	movl	%esi, -16(%rbp)
	movl	%edx, -12(%rbp)
	movl	%ecx, -40(%rbp)
	movq	%r8, -8(%rbp)
	movq	img, %rax
	movq	14168(%rax), %rax
	movl	-36(%rbp), %ecx
	imulq	$632, %rcx, %rcx        # imm = 0x278
	addq	%rcx, %rax
	movq	%rax, -32(%rbp)
	cmpl	$0, -40(%rbp)
	je	.LBB28_2
# %bb.1:                                # %if.then
	movl	$16, -20(%rbp)
	movl	$16, -24(%rbp)
	jmp	.LBB28_3
.LBB28_2:                               # %if.else
	movq	img, %rax
	movl	72708(%rax), %eax
	movl	%eax, -20(%rbp)
	movq	img, %rax
	movl	72712(%rax), %eax
	movl	%eax, -24(%rbp)
.LBB28_3:                               # %if.end
	cmpl	$0, -16(%rbp)
	jge	.LBB28_6
# %bb.4:                                # %land.lhs.true
	cmpl	$0, -12(%rbp)
	jge	.LBB28_6
# %bb.5:                                # %if.then2
	movq	-32(%rbp), %rax
	movl	548(%rax), %eax
	movq	-8(%rbp), %rcx
	movl	%eax, 4(%rcx)
	movq	-32(%rbp), %rax
	movl	564(%rax), %eax
	movq	-8(%rbp), %rcx
	movl	%eax, (%rcx)
	jmp	.LBB28_27
.LBB28_6:                               # %if.else3
	cmpl	$0, -16(%rbp)
	jge	.LBB28_10
# %bb.7:                                # %land.lhs.true5
	cmpl	$0, -12(%rbp)
	jl	.LBB28_10
# %bb.8:                                # %land.lhs.true7
	movl	-12(%rbp), %eax
	cmpl	-24(%rbp), %eax
	jge	.LBB28_10
# %bb.9:                                # %if.then9
	movq	-32(%rbp), %rax
	movl	536(%rax), %eax
	movq	-8(%rbp), %rcx
	movl	%eax, 4(%rcx)
	movq	-32(%rbp), %rax
	movl	552(%rax), %eax
	movq	-8(%rbp), %rcx
	movl	%eax, (%rcx)
	jmp	.LBB28_26
.LBB28_10:                              # %if.else12
	cmpl	$0, -16(%rbp)
	jl	.LBB28_14
# %bb.11:                               # %land.lhs.true14
	movl	-16(%rbp), %eax
	cmpl	-20(%rbp), %eax
	jge	.LBB28_14
# %bb.12:                               # %land.lhs.true16
	cmpl	$0, -12(%rbp)
	jge	.LBB28_14
# %bb.13:                               # %if.then18
	movq	-32(%rbp), %rax
	movl	540(%rax), %eax
	movq	-8(%rbp), %rcx
	movl	%eax, 4(%rcx)
	movq	-32(%rbp), %rax
	movl	556(%rax), %eax
	movq	-8(%rbp), %rcx
	movl	%eax, (%rcx)
	jmp	.LBB28_25
.LBB28_14:                              # %if.else21
	cmpl	$0, -16(%rbp)
	jl	.LBB28_19
# %bb.15:                               # %land.lhs.true23
	movl	-16(%rbp), %eax
	cmpl	-20(%rbp), %eax
	jge	.LBB28_19
# %bb.16:                               # %land.lhs.true25
	cmpl	$0, -12(%rbp)
	jl	.LBB28_19
# %bb.17:                               # %land.lhs.true27
	movl	-12(%rbp), %eax
	cmpl	-24(%rbp), %eax
	jge	.LBB28_19
# %bb.18:                               # %if.then29
	movl	-36(%rbp), %eax
	movq	-8(%rbp), %rcx
	movl	%eax, 4(%rcx)
	movq	-8(%rbp), %rax
	movl	$1, (%rax)
	jmp	.LBB28_24
.LBB28_19:                              # %if.else32
	movl	-16(%rbp), %eax
	cmpl	-20(%rbp), %eax
	jl	.LBB28_22
# %bb.20:                               # %land.lhs.true34
	cmpl	$0, -12(%rbp)
	jge	.LBB28_22
# %bb.21:                               # %if.then36
	movq	-32(%rbp), %rax
	movl	544(%rax), %eax
	movq	-8(%rbp), %rcx
	movl	%eax, 4(%rcx)
	movq	-32(%rbp), %rax
	movl	560(%rax), %eax
	movq	-8(%rbp), %rcx
	movl	%eax, (%rcx)
	jmp	.LBB28_23
.LBB28_22:                              # %if.else39
	movq	-8(%rbp), %rax
	movl	$0, (%rax)
.LBB28_23:                              # %if.end41
	jmp	.LBB28_24
.LBB28_24:                              # %if.end42
	jmp	.LBB28_25
.LBB28_25:                              # %if.end43
	jmp	.LBB28_26
.LBB28_26:                              # %if.end44
	jmp	.LBB28_27
.LBB28_27:                              # %if.end45
	movq	-8(%rbp), %rax
	cmpl	$0, (%rax)
	jne	.LBB28_29
# %bb.28:                               # %lor.lhs.false
	movq	img, %rax
	cmpl	$0, 72636(%rax)
	je	.LBB28_33
.LBB28_29:                              # %if.then49
	movl	-16(%rbp), %eax
	addl	-20(%rbp), %eax
	cltd
	idivl	-20(%rbp)
	movq	-8(%rbp), %rax
	movl	%edx, 8(%rax)
	movl	-12(%rbp), %eax
	addl	-24(%rbp), %eax
	cltd
	idivl	-24(%rbp)
	movq	-8(%rbp), %rax
	movl	%edx, 12(%rax)
	movq	-8(%rbp), %rax
	movl	4(%rax), %edi
	movq	-8(%rbp), %rsi
	addq	$16, %rsi
	movq	-8(%rbp), %rdx
	addq	$20, %rdx
	callq	get_mb_pos
	cmpl	$0, -40(%rbp)
	je	.LBB28_31
# %bb.30:                               # %if.then54
	movq	-8(%rbp), %rax
	movl	8(%rax), %eax
	movq	-8(%rbp), %rcx
	addl	16(%rcx), %eax
	movl	%eax, 16(%rcx)
	movq	-8(%rbp), %rax
	movl	12(%rax), %eax
	movq	-8(%rbp), %rcx
	addl	20(%rcx), %eax
	movl	%eax, 20(%rcx)
	jmp	.LBB28_32
.LBB28_31:                              # %if.else61
	movq	-8(%rbp), %rax
	movl	16(%rax), %ecx
	movq	img, %rsi
	movl	$16, %eax
	cltd
	idivl	72708(%rsi)
	movl	%eax, %esi
	movl	%ecx, %eax
	cltd
	idivl	%esi
	movq	-8(%rbp), %rcx
	addl	8(%rcx), %eax
	movq	-8(%rbp), %rcx
	movl	%eax, 16(%rcx)
	movq	-8(%rbp), %rax
	movl	20(%rax), %ecx
	movq	img, %rsi
	movl	$16, %eax
	cltd
	idivl	72712(%rsi)
	movl	%eax, %esi
	movl	%ecx, %eax
	cltd
	idivl	%esi
	movq	-8(%rbp), %rcx
	addl	12(%rcx), %eax
	movq	-8(%rbp), %rcx
	movl	%eax, 20(%rcx)
.LBB28_32:                              # %if.end75
	jmp	.LBB28_33
.LBB28_33:                              # %if.end76
	cmpl	$1572387611, -44(%rbp)  # imm = 0x5DB8BB1B
	jne	.LBB28_35
.LBB28_34:
	addq	$48, %rsp
	popq	%rbp
	.cfi_def_cfa %rsp, 8
	retq
.LBB28_35:                              # %func_exit
	.cfi_def_cfa %rbp, 16
	callq	detect_breach
	jmp	.LBB28_34
.Lfunc_end28:
	.size	getNonAffNeighbour.20, .Lfunc_end28-getNonAffNeighbour.20
	.cfi_endproc
                                        # -- End function
	.globl	getNeighbour.21         # -- Begin function getNeighbour.21
	.p2align	4, 0x90
	.type	getNeighbour.21,@function
getNeighbour.21:                        # @getNeighbour.21
	.cfi_startproc
# %bb.0:                                # %entry
	pushq	%rbp
	.cfi_def_cfa_offset 16
	.cfi_offset %rbp, -16
	movq	%rsp, %rbp
	.cfi_def_cfa_register %rbp
	subq	$32, %rsp
	movl	$288667122, -20(%rbp)   # imm = 0x1134B5F2
	movl	%edi, -4(%rbp)
	movl	%esi, -12(%rbp)
	movl	%edx, -16(%rbp)
	movl	%ecx, -8(%rbp)
	movq	%r8, -32(%rbp)
	cmpl	$0, -4(%rbp)
	jge	.LBB29_2
# %bb.1:                                # %if.then
	movabsq	$.L.str, %rdi
	movl	$100, %esi
	callq	error
.LBB29_2:                               # %if.end
	movq	img, %rax
	cmpl	$0, 72400(%rax)
	je	.LBB29_4
# %bb.3:                                # %if.then1
	movl	-4(%rbp), %edi
	movl	-12(%rbp), %esi
	movl	-16(%rbp), %edx
	movl	-8(%rbp), %ecx
	movq	-32(%rbp), %r8
	callq	getAffNeighbour
	jmp	.LBB29_5
.LBB29_4:                               # %if.else
	movl	-4(%rbp), %edi
	movl	-12(%rbp), %esi
	movl	-16(%rbp), %edx
	movl	-8(%rbp), %ecx
	movq	-32(%rbp), %r8
	callq	getNonAffNeighbour
.LBB29_5:                               # %if.end2
	cmpl	$288667122, -20(%rbp)   # imm = 0x1134B5F2
	jne	.LBB29_7
.LBB29_6:
	addq	$32, %rsp
	popq	%rbp
	.cfi_def_cfa %rsp, 8
	retq
.LBB29_7:                               # %func_exit
	.cfi_def_cfa %rbp, 16
	callq	detect_breach
	jmp	.LBB29_6
.Lfunc_end29:
	.size	getNeighbour.21, .Lfunc_end29-getNeighbour.21
	.cfi_endproc
                                        # -- End function
	.globl	get_mb_block_pos.22     # -- Begin function get_mb_block_pos.22
	.p2align	4, 0x90
	.type	get_mb_block_pos.22,@function
get_mb_block_pos.22:                    # @get_mb_block_pos.22
	.cfi_startproc
# %bb.0:                                # %entry
	pushq	%rbp
	.cfi_def_cfa_offset 16
	.cfi_offset %rbp, -16
	movq	%rsp, %rbp
	.cfi_def_cfa_register %rbp
	subq	$32, %rsp
	movl	$2109372443, -8(%rbp)   # imm = 0x7DBA781B
	movl	%edi, -4(%rbp)
	movq	%rsi, -24(%rbp)
	movq	%rdx, -16(%rbp)
	movq	img, %rax
	cmpl	$0, 72400(%rax)
	je	.LBB30_2
# %bb.1:                                # %if.then
	movl	-4(%rbp), %eax
	cltd
	movl	$2, %esi
	idivl	%esi
	movq	img, %rcx
	xorl	%edx, %edx
	divl	72468(%rcx)
	movq	-24(%rbp), %rax
	movl	%edx, (%rax)
	movl	-4(%rbp), %eax
	cltd
	idivl	%esi
	movq	img, %rcx
	xorl	%edx, %edx
	divl	72468(%rcx)
	movl	%eax, %ecx
	shll	$1, %ecx
	movl	-4(%rbp), %eax
	cltd
	idivl	%esi
	addl	%edx, %ecx
	movq	-16(%rbp), %rax
	movl	%ecx, (%rax)
	jmp	.LBB30_3
.LBB30_2:                               # %if.else
	movl	-4(%rbp), %eax
	movq	img, %rcx
	xorl	%edx, %edx
	divl	72468(%rcx)
	movq	-24(%rbp), %rax
	movl	%edx, (%rax)
	movl	-4(%rbp), %eax
	movq	img, %rcx
	xorl	%edx, %edx
	divl	72468(%rcx)
	movq	-16(%rbp), %rcx
	movl	%eax, (%rcx)
.LBB30_3:                               # %if.end
	cmpl	$2109372443, -8(%rbp)   # imm = 0x7DBA781B
	jne	.LBB30_5
.LBB30_4:
	addq	$32, %rsp
	popq	%rbp
	.cfi_def_cfa %rsp, 8
	retq
.LBB30_5:                               # %func_exit
	.cfi_def_cfa %rbp, 16
	callq	detect_breach
	jmp	.LBB30_4
.Lfunc_end30:
	.size	get_mb_block_pos.22, .Lfunc_end30-get_mb_block_pos.22
	.cfi_endproc
                                        # -- End function
	.globl	get_mb_pos.23           # -- Begin function get_mb_pos.23
	.p2align	4, 0x90
	.type	get_mb_pos.23,@function
get_mb_pos.23:                          # @get_mb_pos.23
	.cfi_startproc
# %bb.0:                                # %entry
	pushq	%rbp
	.cfi_def_cfa_offset 16
	.cfi_offset %rbp, -16
	movq	%rsp, %rbp
	.cfi_def_cfa_register %rbp
	subq	$32, %rsp
	movl	$2005039711, -8(%rbp)   # imm = 0x77827A5F
	movl	%edi, -4(%rbp)
	movq	%rsi, -24(%rbp)
	movq	%rdx, -16(%rbp)
	movl	-4(%rbp), %edi
	movq	-24(%rbp), %rsi
	movq	-16(%rbp), %rdx
	callq	get_mb_block_pos
	movq	-24(%rbp), %rax
	movl	(%rax), %ecx
	shll	$4, %ecx
	movl	%ecx, (%rax)
	movq	-16(%rbp), %rax
	movl	(%rax), %ecx
	shll	$4, %ecx
	movl	%ecx, (%rax)
	cmpl	$2005039711, -8(%rbp)   # imm = 0x77827A5F
	jne	.LBB31_2
.LBB31_1:
	addq	$32, %rsp
	popq	%rbp
	.cfi_def_cfa %rsp, 8
	retq
.LBB31_2:                               # %func_exit
	.cfi_def_cfa %rbp, 16
	callq	detect_breach
	jmp	.LBB31_1
.Lfunc_end31:
	.size	get_mb_pos.23, .Lfunc_end31-get_mb_pos.23
	.cfi_endproc
                                        # -- End function
	.globl	mb_is_available.24      # -- Begin function mb_is_available.24
	.p2align	4, 0x90
	.type	mb_is_available.24,@function
mb_is_available.24:                     # @mb_is_available.24
	.cfi_startproc
# %bb.0:                                # %entry
	pushq	%rbp
	.cfi_def_cfa_offset 16
	.cfi_offset %rbp, -16
	movq	%rsp, %rbp
	.cfi_def_cfa_register %rbp
	pushq	%rbx
	subq	$24, %rsp
	.cfi_offset %rbx, -24
	movl	$1363973418, -24(%rbp)  # imm = 0x514C952A
	movl	%edi, -12(%rbp)
	movl	%esi, -20(%rbp)
	cmpl	$0, -12(%rbp)
	jl	.LBB32_2
# %bb.1:                                # %lor.lhs.false
	movl	-12(%rbp), %eax
	movq	img, %rcx
	movl	72484(%rcx), %ecx
	subl	$1, %ecx
	cmpl	%ecx, %eax
	jle	.LBB32_3
.LBB32_2:                               # %if.then
	movl	$0, -16(%rbp)
	jmp	.LBB32_8
.LBB32_3:                               # %if.end
	movq	img, %rax
	cmpl	$0, 72636(%rax)
	jne	.LBB32_7
# %bb.4:                                # %if.then2
	movq	img, %rax
	movq	14168(%rax), %rax
	movslq	-12(%rbp), %rcx
	imulq	$632, %rcx, %rcx        # imm = 0x278
	addq	%rcx, %rax
	movl	4(%rax), %eax
	movq	img, %rcx
	movq	14168(%rcx), %rcx
	movslq	-20(%rbp), %rdx
	imulq	$632, %rdx, %rdx        # imm = 0x278
	addq	%rdx, %rcx
	cmpl	4(%rcx), %eax
	je	.LBB32_6
# %bb.5:                                # %if.then8
	movl	$0, -16(%rbp)
	jmp	.LBB32_8
.LBB32_6:                               # %if.end9
	jmp	.LBB32_7
.LBB32_7:                               # %if.end10
	movl	$1, -16(%rbp)
.LBB32_8:                               # %return
	movl	-16(%rbp), %ebx
	cmpl	$1363973418, -24(%rbp)  # imm = 0x514C952A
	jne	.LBB32_10
.LBB32_9:
	movl	%ebx, %eax
	addq	$24, %rsp
	popq	%rbx
	popq	%rbp
	.cfi_def_cfa %rsp, 8
	retq
.LBB32_10:                              # %func_exit
	.cfi_def_cfa %rbp, 16
	callq	detect_breach
	jmp	.LBB32_9
.Lfunc_end32:
	.size	mb_is_available.24, .Lfunc_end32-mb_is_available.24
	.cfi_endproc
                                        # -- End function
	.globl	get_mb_pos.25           # -- Begin function get_mb_pos.25
	.p2align	4, 0x90
	.type	get_mb_pos.25,@function
get_mb_pos.25:                          # @get_mb_pos.25
	.cfi_startproc
# %bb.0:                                # %entry
	pushq	%rbp
	.cfi_def_cfa_offset 16
	.cfi_offset %rbp, -16
	movq	%rsp, %rbp
	.cfi_def_cfa_register %rbp
	subq	$32, %rsp
	movl	$875354850, -4(%rbp)    # imm = 0x342CDAE2
	movl	%edi, -8(%rbp)
	movq	%rsi, -16(%rbp)
	movq	%rdx, -24(%rbp)
	movl	-8(%rbp), %edi
	movq	-16(%rbp), %rsi
	movq	-24(%rbp), %rdx
	callq	get_mb_block_pos
	movq	-16(%rbp), %rax
	movl	(%rax), %ecx
	shll	$4, %ecx
	movl	%ecx, (%rax)
	movq	-24(%rbp), %rax
	movl	(%rax), %ecx
	shll	$4, %ecx
	movl	%ecx, (%rax)
	cmpl	$875354850, -4(%rbp)    # imm = 0x342CDAE2
	jne	.LBB33_2
.LBB33_1:
	addq	$32, %rsp
	popq	%rbp
	.cfi_def_cfa %rsp, 8
	retq
.LBB33_2:                               # %func_exit
	.cfi_def_cfa %rbp, 16
	callq	detect_breach
	jmp	.LBB33_1
.Lfunc_end33:
	.size	get_mb_pos.25, .Lfunc_end33-get_mb_pos.25
	.cfi_endproc
                                        # -- End function
	.globl	getLuma4x4Neighbour.26  # -- Begin function getLuma4x4Neighbour.26
	.p2align	4, 0x90
	.type	getLuma4x4Neighbour.26,@function
getLuma4x4Neighbour.26:                 # @getLuma4x4Neighbour.26
	.cfi_startproc
# %bb.0:                                # %entry
	pushq	%rbp
	.cfi_def_cfa_offset 16
	.cfi_offset %rbp, -16
	movq	%rsp, %rbp
	.cfi_def_cfa_register %rbp
	subq	$48, %rsp
	movl	$4286208, -16(%rbp)     # imm = 0x416700
	movl	%edi, -24(%rbp)
	movl	%esi, -12(%rbp)
	movl	%edx, -20(%rbp)
	movl	%ecx, -40(%rbp)
	movl	%r8d, -32(%rbp)
	movq	%r9, -8(%rbp)
	movl	-12(%rbp), %eax
	shll	$2, %eax
	addl	-40(%rbp), %eax
	movl	%eax, -28(%rbp)
	movl	-20(%rbp), %eax
	shll	$2, %eax
	addl	-32(%rbp), %eax
	movl	%eax, -36(%rbp)
	movl	-24(%rbp), %edi
	movl	-28(%rbp), %esi
	movl	-36(%rbp), %edx
	movq	-8(%rbp), %r8
	movl	$1, %ecx
	callq	getNeighbour
	movq	-8(%rbp), %rax
	cmpl	$0, (%rax)
	je	.LBB34_2
# %bb.1:                                # %if.then
	movq	-8(%rbp), %rcx
	movl	8(%rcx), %eax
	cltd
	movl	$4, %esi
	idivl	%esi
	movl	%eax, 8(%rcx)
	movq	-8(%rbp), %rcx
	movl	12(%rcx), %eax
	cltd
	idivl	%esi
	movl	%eax, 12(%rcx)
	movq	-8(%rbp), %rcx
	movl	16(%rcx), %eax
	cltd
	idivl	%esi
	movl	%eax, 16(%rcx)
	movq	-8(%rbp), %rcx
	movl	20(%rcx), %eax
	cltd
	idivl	%esi
	movl	%eax, 20(%rcx)
.LBB34_2:                               # %if.end
	cmpl	$4286208, -16(%rbp)     # imm = 0x416700
	jne	.LBB34_4
.LBB34_3:
	addq	$48, %rsp
	popq	%rbp
	.cfi_def_cfa %rsp, 8
	retq
.LBB34_4:                               # %func_exit
	.cfi_def_cfa %rbp, 16
	callq	detect_breach
	jmp	.LBB34_3
.Lfunc_end34:
	.size	getLuma4x4Neighbour.26, .Lfunc_end34-getLuma4x4Neighbour.26
	.cfi_endproc
                                        # -- End function
	.globl	getChroma4x4Neighbour.27 # -- Begin function getChroma4x4Neighbour.27
	.p2align	4, 0x90
	.type	getChroma4x4Neighbour.27,@function
getChroma4x4Neighbour.27:               # @getChroma4x4Neighbour.27
	.cfi_startproc
# %bb.0:                                # %entry
	pushq	%rbp
	.cfi_def_cfa_offset 16
	.cfi_offset %rbp, -16
	movq	%rsp, %rbp
	.cfi_def_cfa_register %rbp
	subq	$48, %rsp
	movl	$1746734879, -40(%rbp)  # imm = 0x681D0F1F
	movl	%edi, -16(%rbp)
	movl	%esi, -12(%rbp)
	movl	%edx, -36(%rbp)
	movl	%ecx, -32(%rbp)
	movl	%r8d, -24(%rbp)
	movq	%r9, -8(%rbp)
	movl	-12(%rbp), %eax
	shll	$2, %eax
	addl	-32(%rbp), %eax
	movl	%eax, -28(%rbp)
	movl	-36(%rbp), %eax
	shll	$2, %eax
	addl	-24(%rbp), %eax
	movl	%eax, -20(%rbp)
	movl	-16(%rbp), %edi
	movl	-28(%rbp), %esi
	movl	-20(%rbp), %edx
	movq	-8(%rbp), %r8
	xorl	%ecx, %ecx
	callq	getNeighbour
	movq	-8(%rbp), %rax
	cmpl	$0, (%rax)
	je	.LBB35_2
# %bb.1:                                # %if.then
	movq	-8(%rbp), %rcx
	movl	8(%rcx), %eax
	cltd
	movl	$4, %esi
	idivl	%esi
	movl	%eax, 8(%rcx)
	movq	-8(%rbp), %rcx
	movl	12(%rcx), %eax
	cltd
	idivl	%esi
	movl	%eax, 12(%rcx)
	movq	-8(%rbp), %rcx
	movl	16(%rcx), %eax
	cltd
	idivl	%esi
	movl	%eax, 16(%rcx)
	movq	-8(%rbp), %rcx
	movl	20(%rcx), %eax
	cltd
	idivl	%esi
	movl	%eax, 20(%rcx)
.LBB35_2:                               # %if.end
	cmpl	$1746734879, -40(%rbp)  # imm = 0x681D0F1F
	jne	.LBB35_4
.LBB35_3:
	addq	$48, %rsp
	popq	%rbp
	.cfi_def_cfa %rsp, 8
	retq
.LBB35_4:                               # %func_exit
	.cfi_def_cfa %rbp, 16
	callq	detect_breach
	jmp	.LBB35_3
.Lfunc_end35:
	.size	getChroma4x4Neighbour.27, .Lfunc_end35-getChroma4x4Neighbour.27
	.cfi_endproc
                                        # -- End function
	.globl	getNeighbour.28         # -- Begin function getNeighbour.28
	.p2align	4, 0x90
	.type	getNeighbour.28,@function
getNeighbour.28:                        # @getNeighbour.28
	.cfi_startproc
# %bb.0:                                # %entry
	pushq	%rbp
	.cfi_def_cfa_offset 16
	.cfi_offset %rbp, -16
	movq	%rsp, %rbp
	.cfi_def_cfa_register %rbp
	subq	$32, %rsp
	movl	$1091334335, -20(%rbp)  # imm = 0x410C70BF
	movl	%edi, -4(%rbp)
	movl	%esi, -8(%rbp)
	movl	%edx, -12(%rbp)
	movl	%ecx, -16(%rbp)
	movq	%r8, -32(%rbp)
	cmpl	$0, -4(%rbp)
	jge	.LBB36_2
# %bb.1:                                # %if.then
	movabsq	$.L.str, %rdi
	movl	$100, %esi
	callq	error
.LBB36_2:                               # %if.end
	movq	img, %rax
	cmpl	$0, 72400(%rax)
	je	.LBB36_4
# %bb.3:                                # %if.then1
	movl	-4(%rbp), %edi
	movl	-8(%rbp), %esi
	movl	-12(%rbp), %edx
	movl	-16(%rbp), %ecx
	movq	-32(%rbp), %r8
	callq	getAffNeighbour
	jmp	.LBB36_5
.LBB36_4:                               # %if.else
	movl	-4(%rbp), %edi
	movl	-8(%rbp), %esi
	movl	-12(%rbp), %edx
	movl	-16(%rbp), %ecx
	movq	-32(%rbp), %r8
	callq	getNonAffNeighbour
.LBB36_5:                               # %if.end2
	cmpl	$1091334335, -20(%rbp)  # imm = 0x410C70BF
	jne	.LBB36_7
.LBB36_6:
	addq	$32, %rsp
	popq	%rbp
	.cfi_def_cfa %rsp, 8
	retq
.LBB36_7:                               # %func_exit
	.cfi_def_cfa %rbp, 16
	callq	detect_breach
	jmp	.LBB36_6
.Lfunc_end36:
	.size	getNeighbour.28, .Lfunc_end36-getNeighbour.28
	.cfi_endproc
                                        # -- End function
	.globl	mb_is_available.29      # -- Begin function mb_is_available.29
	.p2align	4, 0x90
	.type	mb_is_available.29,@function
mb_is_available.29:                     # @mb_is_available.29
	.cfi_startproc
# %bb.0:                                # %entry
	pushq	%rbp
	.cfi_def_cfa_offset 16
	.cfi_offset %rbp, -16
	movq	%rsp, %rbp
	.cfi_def_cfa_register %rbp
	pushq	%rbx
	subq	$24, %rsp
	.cfi_offset %rbx, -24
	movl	$361949355, -24(%rbp)   # imm = 0x1592E8AB
	movl	%edi, -12(%rbp)
	movl	%esi, -20(%rbp)
	cmpl	$0, -12(%rbp)
	jl	.LBB37_2
# %bb.1:                                # %lor.lhs.false
	movl	-12(%rbp), %eax
	movq	img, %rcx
	movl	72484(%rcx), %ecx
	subl	$1, %ecx
	cmpl	%ecx, %eax
	jle	.LBB37_3
.LBB37_2:                               # %if.then
	movl	$0, -16(%rbp)
	jmp	.LBB37_8
.LBB37_3:                               # %if.end
	movq	img, %rax
	cmpl	$0, 72636(%rax)
	jne	.LBB37_7
# %bb.4:                                # %if.then2
	movq	img, %rax
	movq	14168(%rax), %rax
	movslq	-12(%rbp), %rcx
	imulq	$632, %rcx, %rcx        # imm = 0x278
	addq	%rcx, %rax
	movl	4(%rax), %eax
	movq	img, %rcx
	movq	14168(%rcx), %rcx
	movslq	-20(%rbp), %rdx
	imulq	$632, %rdx, %rdx        # imm = 0x278
	addq	%rdx, %rcx
	cmpl	4(%rcx), %eax
	je	.LBB37_6
# %bb.5:                                # %if.then8
	movl	$0, -16(%rbp)
	jmp	.LBB37_8
.LBB37_6:                               # %if.end9
	jmp	.LBB37_7
.LBB37_7:                               # %if.end10
	movl	$1, -16(%rbp)
.LBB37_8:                               # %return
	movl	-16(%rbp), %ebx
	cmpl	$361949355, -24(%rbp)   # imm = 0x1592E8AB
	jne	.LBB37_10
.LBB37_9:
	movl	%ebx, %eax
	addq	$24, %rsp
	popq	%rbx
	popq	%rbp
	.cfi_def_cfa %rsp, 8
	retq
.LBB37_10:                              # %func_exit
	.cfi_def_cfa %rbp, 16
	callq	detect_breach
	jmp	.LBB37_9
.Lfunc_end37:
	.size	mb_is_available.29, .Lfunc_end37-mb_is_available.29
	.cfi_endproc
                                        # -- End function
	.globl	getNeighbour.30         # -- Begin function getNeighbour.30
	.p2align	4, 0x90
	.type	getNeighbour.30,@function
getNeighbour.30:                        # @getNeighbour.30
	.cfi_startproc
# %bb.0:                                # %entry
	pushq	%rbp
	.cfi_def_cfa_offset 16
	.cfi_offset %rbp, -16
	movq	%rsp, %rbp
	.cfi_def_cfa_register %rbp
	subq	$32, %rsp
	movl	$526237162, -20(%rbp)   # imm = 0x1F5DBDEA
	movl	%edi, -4(%rbp)
	movl	%esi, -8(%rbp)
	movl	%edx, -16(%rbp)
	movl	%ecx, -12(%rbp)
	movq	%r8, -32(%rbp)
	cmpl	$0, -4(%rbp)
	jge	.LBB38_2
# %bb.1:                                # %if.then
	movabsq	$.L.str, %rdi
	movl	$100, %esi
	callq	error
.LBB38_2:                               # %if.end
	movq	img, %rax
	cmpl	$0, 72400(%rax)
	je	.LBB38_4
# %bb.3:                                # %if.then1
	movl	-4(%rbp), %edi
	movl	-8(%rbp), %esi
	movl	-16(%rbp), %edx
	movl	-12(%rbp), %ecx
	movq	-32(%rbp), %r8
	callq	getAffNeighbour
	jmp	.LBB38_5
.LBB38_4:                               # %if.else
	movl	-4(%rbp), %edi
	movl	-8(%rbp), %esi
	movl	-16(%rbp), %edx
	movl	-12(%rbp), %ecx
	movq	-32(%rbp), %r8
	callq	getNonAffNeighbour
.LBB38_5:                               # %if.end2
	cmpl	$526237162, -20(%rbp)   # imm = 0x1F5DBDEA
	jne	.LBB38_7
.LBB38_6:
	addq	$32, %rsp
	popq	%rbp
	.cfi_def_cfa %rsp, 8
	retq
.LBB38_7:                               # %func_exit
	.cfi_def_cfa %rbp, 16
	callq	detect_breach
	jmp	.LBB38_6
.Lfunc_end38:
	.size	getNeighbour.30, .Lfunc_end38-getNeighbour.30
	.cfi_endproc
                                        # -- End function
	.globl	CheckAvailabilityOfNeighbors.31 # -- Begin function CheckAvailabilityOfNeighbors.31
	.p2align	4, 0x90
	.type	CheckAvailabilityOfNeighbors.31,@function
CheckAvailabilityOfNeighbors.31:        # @CheckAvailabilityOfNeighbors.31
	.cfi_startproc
# %bb.0:                                # %entry
	pushq	%rbp
	.cfi_def_cfa_offset 16
	.cfi_offset %rbp, -16
	movq	%rsp, %rbp
	.cfi_def_cfa_register %rbp
	subq	$32, %rsp
	movl	$242493143, -20(%rbp)   # imm = 0xE7426D7
	movq	img, %rax
	movl	12(%rax), %eax
	movl	%eax, -4(%rbp)
	movq	img, %rax
	movq	14168(%rax), %rax
	movslq	-4(%rbp), %rcx
	imulq	$632, %rcx, %rcx        # imm = 0x278
	addq	%rcx, %rax
	movq	%rax, -16(%rbp)
	movq	-16(%rbp), %rax
	movq	$0, 56(%rax)
	movq	-16(%rbp), %rax
	movq	$0, 64(%rax)
	movq	img, %rax
	cmpl	$0, 72400(%rax)
	je	.LBB39_8
# %bb.1:                                # %if.then
	movl	-4(%rbp), %eax
	cltd
	movl	$2, %ecx
	idivl	%ecx
	subl	$1, %eax
	shll	$1, %eax
	movq	-16(%rbp), %rdx
	movl	%eax, 536(%rdx)
	movl	-4(%rbp), %eax
	cltd
	idivl	%ecx
	movq	img, %rdx
	subl	72468(%rdx), %eax
	shll	$1, %eax
	movq	-16(%rbp), %rdx
	movl	%eax, 540(%rdx)
	movl	-4(%rbp), %eax
	cltd
	idivl	%ecx
	movq	img, %rdx
	subl	72468(%rdx), %eax
	addl	$1, %eax
	shll	$1, %eax
	movq	-16(%rbp), %rdx
	movl	%eax, 544(%rdx)
	movl	-4(%rbp), %eax
	cltd
	idivl	%ecx
	movq	img, %rcx
	subl	72468(%rcx), %eax
	subl	$1, %eax
	shll	$1, %eax
	movq	-16(%rbp), %rcx
	movl	%eax, 548(%rcx)
	movq	-16(%rbp), %rax
	movl	536(%rax), %edi
	movl	-4(%rbp), %esi
	callq	mb_is_available
	xorl	%ecx, %ecx
	cmpl	$0, %eax
	je	.LBB39_3
# %bb.2:                                # %land.rhs
	movl	-4(%rbp), %eax
	cltd
	movl	$2, %ecx
	idivl	%ecx
	movq	img, %rcx
	xorl	%edx, %edx
	divl	72468(%rcx)
	cmpl	$0, %edx
	setne	%cl
.LBB39_3:                               # %land.end
	andb	$1, %cl
	movzbl	%cl, %eax
	movq	-16(%rbp), %rcx
	movl	%eax, 552(%rcx)
	movq	-16(%rbp), %rax
	movl	540(%rax), %edi
	movl	-4(%rbp), %esi
	callq	mb_is_available
	movq	-16(%rbp), %rcx
	movl	%eax, 556(%rcx)
	movq	-16(%rbp), %rax
	movl	544(%rax), %edi
	movl	-4(%rbp), %esi
	callq	mb_is_available
	xorl	%ecx, %ecx
	cmpl	$0, %eax
	je	.LBB39_5
# %bb.4:                                # %land.rhs22
	movl	-4(%rbp), %eax
	cltd
	movl	$2, %ecx
	idivl	%ecx
	addl	$1, %eax
	movq	img, %rcx
	xorl	%edx, %edx
	divl	72468(%rcx)
	cmpl	$0, %edx
	setne	%cl
.LBB39_5:                               # %land.end28
	andb	$1, %cl
	movzbl	%cl, %eax
	movq	-16(%rbp), %rcx
	movl	%eax, 560(%rcx)
	movq	-16(%rbp), %rax
	movl	548(%rax), %edi
	movl	-4(%rbp), %esi
	callq	mb_is_available
	xorl	%ecx, %ecx
	cmpl	$0, %eax
	je	.LBB39_7
# %bb.6:                                # %land.rhs33
	movl	-4(%rbp), %eax
	cltd
	movl	$2, %ecx
	idivl	%ecx
	movq	img, %rcx
	xorl	%edx, %edx
	divl	72468(%rcx)
	cmpl	$0, %edx
	setne	%cl
.LBB39_7:                               # %land.end38
	andb	$1, %cl
	movzbl	%cl, %eax
	movq	-16(%rbp), %rcx
	movl	%eax, 564(%rcx)
	jmp	.LBB39_15
.LBB39_8:                               # %if.else
	movl	-4(%rbp), %eax
	subl	$1, %eax
	movq	-16(%rbp), %rcx
	movl	%eax, 536(%rcx)
	movl	-4(%rbp), %eax
	movq	img, %rcx
	subl	72468(%rcx), %eax
	movq	-16(%rbp), %rcx
	movl	%eax, 540(%rcx)
	movl	-4(%rbp), %eax
	movq	img, %rcx
	subl	72468(%rcx), %eax
	addl	$1, %eax
	movq	-16(%rbp), %rcx
	movl	%eax, 544(%rcx)
	movl	-4(%rbp), %eax
	movq	img, %rcx
	subl	72468(%rcx), %eax
	subl	$1, %eax
	movq	-16(%rbp), %rcx
	movl	%eax, 548(%rcx)
	movq	-16(%rbp), %rax
	movl	536(%rax), %edi
	movl	-4(%rbp), %esi
	callq	mb_is_available
	xorl	%ecx, %ecx
	cmpl	$0, %eax
	je	.LBB39_10
# %bb.9:                                # %land.rhs56
	movl	-4(%rbp), %eax
	movq	img, %rcx
	xorl	%edx, %edx
	divl	72468(%rcx)
	cmpl	$0, %edx
	setne	%cl
.LBB39_10:                              # %land.end60
	andb	$1, %cl
	movzbl	%cl, %eax
	movq	-16(%rbp), %rcx
	movl	%eax, 552(%rcx)
	movq	-16(%rbp), %rax
	movl	540(%rax), %edi
	movl	-4(%rbp), %esi
	callq	mb_is_available
	movq	-16(%rbp), %rcx
	movl	%eax, 556(%rcx)
	movq	-16(%rbp), %rax
	movl	544(%rax), %edi
	movl	-4(%rbp), %esi
	callq	mb_is_available
	xorl	%ecx, %ecx
	cmpl	$0, %eax
	je	.LBB39_12
# %bb.11:                               # %land.rhs69
	movl	-4(%rbp), %eax
	addl	$1, %eax
	movq	img, %rcx
	xorl	%edx, %edx
	divl	72468(%rcx)
	cmpl	$0, %edx
	setne	%cl
.LBB39_12:                              # %land.end74
	andb	$1, %cl
	movzbl	%cl, %eax
	movq	-16(%rbp), %rcx
	movl	%eax, 560(%rcx)
	movq	-16(%rbp), %rax
	movl	548(%rax), %edi
	movl	-4(%rbp), %esi
	callq	mb_is_available
	xorl	%ecx, %ecx
	cmpl	$0, %eax
	je	.LBB39_14
# %bb.13:                               # %land.rhs80
	movl	-4(%rbp), %eax
	movq	img, %rcx
	xorl	%edx, %edx
	divl	72468(%rcx)
	cmpl	$0, %edx
	setne	%cl
.LBB39_14:                              # %land.end84
	andb	$1, %cl
	movzbl	%cl, %eax
	movq	-16(%rbp), %rcx
	movl	%eax, 564(%rcx)
.LBB39_15:                              # %if.end
	movq	-16(%rbp), %rax
	cmpl	$0, 552(%rax)
	je	.LBB39_17
# %bb.16:                               # %if.then89
	movq	img, %rax
	movq	14168(%rax), %rax
	movq	-16(%rbp), %rcx
	movslq	536(%rcx), %rcx
	imulq	$632, %rcx, %rcx        # imm = 0x278
	addq	%rcx, %rax
	movq	-16(%rbp), %rcx
	movq	%rax, 64(%rcx)
.LBB39_17:                              # %if.end95
	movq	-16(%rbp), %rax
	cmpl	$0, 556(%rax)
	je	.LBB39_19
# %bb.18:                               # %if.then98
	movq	img, %rax
	movq	14168(%rax), %rax
	movq	-16(%rbp), %rcx
	movslq	540(%rcx), %rcx
	imulq	$632, %rcx, %rcx        # imm = 0x278
	addq	%rcx, %rax
	movq	-16(%rbp), %rcx
	movq	%rax, 56(%rcx)
.LBB39_19:                              # %if.end104
	cmpl	$242493143, -20(%rbp)   # imm = 0xE7426D7
	jne	.LBB39_21
.LBB39_20:
	addq	$32, %rsp
	popq	%rbp
	.cfi_def_cfa %rsp, 8
	retq
.LBB39_21:                              # %func_exit
	.cfi_def_cfa %rbp, 16
	callq	detect_breach
	jmp	.LBB39_20
.Lfunc_end39:
	.size	CheckAvailabilityOfNeighbors.31, .Lfunc_end39-CheckAvailabilityOfNeighbors.31
	.cfi_endproc
                                        # -- End function
	.globl	getChroma4x4Neighbour.32 # -- Begin function getChroma4x4Neighbour.32
	.p2align	4, 0x90
	.type	getChroma4x4Neighbour.32,@function
getChroma4x4Neighbour.32:               # @getChroma4x4Neighbour.32
	.cfi_startproc
# %bb.0:                                # %entry
	pushq	%rbp
	.cfi_def_cfa_offset 16
	.cfi_offset %rbp, -16
	movq	%rsp, %rbp
	.cfi_def_cfa_register %rbp
	subq	$48, %rsp
	movl	$1778093599, -40(%rbp)  # imm = 0x69FB8E1F
	movl	%edi, -12(%rbp)
	movl	%esi, -32(%rbp)
	movl	%edx, -24(%rbp)
	movl	%ecx, -28(%rbp)
	movl	%r8d, -20(%rbp)
	movq	%r9, -8(%rbp)
	movl	-32(%rbp), %eax
	shll	$2, %eax
	addl	-28(%rbp), %eax
	movl	%eax, -36(%rbp)
	movl	-24(%rbp), %eax
	shll	$2, %eax
	addl	-20(%rbp), %eax
	movl	%eax, -16(%rbp)
	movl	-12(%rbp), %edi
	movl	-36(%rbp), %esi
	movl	-16(%rbp), %edx
	movq	-8(%rbp), %r8
	xorl	%ecx, %ecx
	callq	getNeighbour
	movq	-8(%rbp), %rax
	cmpl	$0, (%rax)
	je	.LBB40_2
# %bb.1:                                # %if.then
	movq	-8(%rbp), %rcx
	movl	8(%rcx), %eax
	cltd
	movl	$4, %esi
	idivl	%esi
	movl	%eax, 8(%rcx)
	movq	-8(%rbp), %rcx
	movl	12(%rcx), %eax
	cltd
	idivl	%esi
	movl	%eax, 12(%rcx)
	movq	-8(%rbp), %rcx
	movl	16(%rcx), %eax
	cltd
	idivl	%esi
	movl	%eax, 16(%rcx)
	movq	-8(%rbp), %rcx
	movl	20(%rcx), %eax
	cltd
	idivl	%esi
	movl	%eax, 20(%rcx)
.LBB40_2:                               # %if.end
	cmpl	$1778093599, -40(%rbp)  # imm = 0x69FB8E1F
	jne	.LBB40_4
.LBB40_3:
	addq	$48, %rsp
	popq	%rbp
	.cfi_def_cfa %rsp, 8
	retq
.LBB40_4:                               # %func_exit
	.cfi_def_cfa %rbp, 16
	callq	detect_breach
	jmp	.LBB40_3
.Lfunc_end40:
	.size	getChroma4x4Neighbour.32, .Lfunc_end40-getChroma4x4Neighbour.32
	.cfi_endproc
                                        # -- End function
	.globl	getChroma4x4Neighbour.33 # -- Begin function getChroma4x4Neighbour.33
	.p2align	4, 0x90
	.type	getChroma4x4Neighbour.33,@function
getChroma4x4Neighbour.33:               # @getChroma4x4Neighbour.33
	.cfi_startproc
# %bb.0:                                # %entry
	pushq	%rbp
	.cfi_def_cfa_offset 16
	.cfi_offset %rbp, -16
	movq	%rsp, %rbp
	.cfi_def_cfa_register %rbp
	subq	$48, %rsp
	movl	$487037891, -32(%rbp)   # imm = 0x1D079BC3
	movl	%edi, -12(%rbp)
	movl	%esi, -40(%rbp)
	movl	%edx, -20(%rbp)
	movl	%ecx, -24(%rbp)
	movl	%r8d, -28(%rbp)
	movq	%r9, -8(%rbp)
	movl	-40(%rbp), %eax
	shll	$2, %eax
	addl	-24(%rbp), %eax
	movl	%eax, -16(%rbp)
	movl	-20(%rbp), %eax
	shll	$2, %eax
	addl	-28(%rbp), %eax
	movl	%eax, -36(%rbp)
	movl	-12(%rbp), %edi
	movl	-16(%rbp), %esi
	movl	-36(%rbp), %edx
	movq	-8(%rbp), %r8
	xorl	%ecx, %ecx
	callq	getNeighbour
	movq	-8(%rbp), %rax
	cmpl	$0, (%rax)
	je	.LBB41_2
# %bb.1:                                # %if.then
	movq	-8(%rbp), %rcx
	movl	8(%rcx), %eax
	cltd
	movl	$4, %esi
	idivl	%esi
	movl	%eax, 8(%rcx)
	movq	-8(%rbp), %rcx
	movl	12(%rcx), %eax
	cltd
	idivl	%esi
	movl	%eax, 12(%rcx)
	movq	-8(%rbp), %rcx
	movl	16(%rcx), %eax
	cltd
	idivl	%esi
	movl	%eax, 16(%rcx)
	movq	-8(%rbp), %rcx
	movl	20(%rcx), %eax
	cltd
	idivl	%esi
	movl	%eax, 20(%rcx)
.LBB41_2:                               # %if.end
	cmpl	$487037891, -32(%rbp)   # imm = 0x1D079BC3
	jne	.LBB41_4
.LBB41_3:
	addq	$48, %rsp
	popq	%rbp
	.cfi_def_cfa %rsp, 8
	retq
.LBB41_4:                               # %func_exit
	.cfi_def_cfa %rbp, 16
	callq	detect_breach
	jmp	.LBB41_3
.Lfunc_end41:
	.size	getChroma4x4Neighbour.33, .Lfunc_end41-getChroma4x4Neighbour.33
	.cfi_endproc
                                        # -- End function
	.globl	mb_is_available.34      # -- Begin function mb_is_available.34
	.p2align	4, 0x90
	.type	mb_is_available.34,@function
mb_is_available.34:                     # @mb_is_available.34
	.cfi_startproc
# %bb.0:                                # %entry
	pushq	%rbp
	.cfi_def_cfa_offset 16
	.cfi_offset %rbp, -16
	movq	%rsp, %rbp
	.cfi_def_cfa_register %rbp
	pushq	%rbx
	subq	$24, %rsp
	.cfi_offset %rbx, -24
	movl	$323032283, -24(%rbp)   # imm = 0x134114DB
	movl	%edi, -16(%rbp)
	movl	%esi, -20(%rbp)
	cmpl	$0, -16(%rbp)
	jl	.LBB42_2
# %bb.1:                                # %lor.lhs.false
	movl	-16(%rbp), %eax
	movq	img, %rcx
	movl	72484(%rcx), %ecx
	subl	$1, %ecx
	cmpl	%ecx, %eax
	jle	.LBB42_3
.LBB42_2:                               # %if.then
	movl	$0, -12(%rbp)
	jmp	.LBB42_8
.LBB42_3:                               # %if.end
	movq	img, %rax
	cmpl	$0, 72636(%rax)
	jne	.LBB42_7
# %bb.4:                                # %if.then2
	movq	img, %rax
	movq	14168(%rax), %rax
	movslq	-16(%rbp), %rcx
	imulq	$632, %rcx, %rcx        # imm = 0x278
	addq	%rcx, %rax
	movl	4(%rax), %eax
	movq	img, %rcx
	movq	14168(%rcx), %rcx
	movslq	-20(%rbp), %rdx
	imulq	$632, %rdx, %rdx        # imm = 0x278
	addq	%rdx, %rcx
	cmpl	4(%rcx), %eax
	je	.LBB42_6
# %bb.5:                                # %if.then8
	movl	$0, -12(%rbp)
	jmp	.LBB42_8
.LBB42_6:                               # %if.end9
	jmp	.LBB42_7
.LBB42_7:                               # %if.end10
	movl	$1, -12(%rbp)
.LBB42_8:                               # %return
	movl	-12(%rbp), %ebx
	cmpl	$323032283, -24(%rbp)   # imm = 0x134114DB
	jne	.LBB42_10
.LBB42_9:
	movl	%ebx, %eax
	addq	$24, %rsp
	popq	%rbx
	popq	%rbp
	.cfi_def_cfa %rsp, 8
	retq
.LBB42_10:                              # %func_exit
	.cfi_def_cfa %rbp, 16
	callq	detect_breach
	jmp	.LBB42_9
.Lfunc_end42:
	.size	mb_is_available.34, .Lfunc_end42-mb_is_available.34
	.cfi_endproc
                                        # -- End function
	.type	.L.str,@object          # @.str
	.section	.rodata.str1.1,"aMS",@progbits,1
.L.str:
	.asciz	"getNeighbour: invalid macroblock number"
	.size	.L.str, 40

	.type	top_pic,@object         # @top_pic
	.comm	top_pic,8,8
	.type	bottom_pic,@object      # @bottom_pic
	.comm	bottom_pic,8,8
	.type	frame_pic,@object       # @frame_pic
	.comm	frame_pic,8,8
	.type	frame_pic2,@object      # @frame_pic2
	.comm	frame_pic2,8,8
	.type	frame_pic3,@object      # @frame_pic3
	.comm	frame_pic3,8,8
	.type	imgY_org,@object        # @imgY_org
	.comm	imgY_org,8,8
	.type	imgUV_org,@object       # @imgUV_org
	.comm	imgUV_org,8,8
	.type	img4Y_tmp,@object       # @img4Y_tmp
	.comm	img4Y_tmp,8,8
	.type	log2_max_frame_num_minus4,@object # @log2_max_frame_num_minus4
	.comm	log2_max_frame_num_minus4,4,4
	.type	log2_max_pic_order_cnt_lsb_minus4,@object # @log2_max_pic_order_cnt_lsb_minus4
	.comm	log2_max_pic_order_cnt_lsb_minus4,4,4
	.type	me_tot_time,@object     # @me_tot_time
	.comm	me_tot_time,4,4
	.type	me_time,@object         # @me_time
	.comm	me_time,4,4
	.type	active_pps,@object      # @active_pps
	.comm	active_pps,8,8
	.type	active_sps,@object      # @active_sps
	.comm	active_sps,8,8
	.type	mb_adaptive,@object     # @mb_adaptive
	.comm	mb_adaptive,4,4
	.type	MBPairIsField,@object   # @MBPairIsField
	.comm	MBPairIsField,4,4
	.type	wp_weight,@object       # @wp_weight
	.comm	wp_weight,8,8
	.type	wp_offset,@object       # @wp_offset
	.comm	wp_offset,8,8
	.type	wbp_weight,@object      # @wbp_weight
	.comm	wbp_weight,8,8
	.type	luma_log_weight_denom,@object # @luma_log_weight_denom
	.comm	luma_log_weight_denom,4,4
	.type	chroma_log_weight_denom,@object # @chroma_log_weight_denom
	.comm	chroma_log_weight_denom,4,4
	.type	wp_luma_round,@object   # @wp_luma_round
	.comm	wp_luma_round,4,4
	.type	wp_chroma_round,@object # @wp_chroma_round
	.comm	wp_chroma_round,4,4
	.type	imgY_org_top,@object    # @imgY_org_top
	.comm	imgY_org_top,8,8
	.type	imgY_org_bot,@object    # @imgY_org_bot
	.comm	imgY_org_bot,8,8
	.type	imgUV_org_top,@object   # @imgUV_org_top
	.comm	imgUV_org_top,8,8
	.type	imgUV_org_bot,@object   # @imgUV_org_bot
	.comm	imgUV_org_bot,8,8
	.type	imgY_org_frm,@object    # @imgY_org_frm
	.comm	imgY_org_frm,8,8
	.type	imgUV_org_frm,@object   # @imgUV_org_frm
	.comm	imgUV_org_frm,8,8
	.type	imgY_com,@object        # @imgY_com
	.comm	imgY_com,8,8
	.type	imgUV_com,@object       # @imgUV_com
	.comm	imgUV_com,8,8
	.type	direct_ref_idx,@object  # @direct_ref_idx
	.comm	direct_ref_idx,8,8
	.type	direct_pdir,@object     # @direct_pdir
	.comm	direct_pdir,8,8
	.type	pixel_map,@object       # @pixel_map
	.comm	pixel_map,8,8
	.type	refresh_map,@object     # @refresh_map
	.comm	refresh_map,8,8
	.type	intras,@object          # @intras
	.comm	intras,4,4
	.type	Iframe_ctr,@object      # @Iframe_ctr
	.comm	Iframe_ctr,4,4
	.type	Pframe_ctr,@object      # @Pframe_ctr
	.comm	Pframe_ctr,4,4
	.type	Bframe_ctr,@object      # @Bframe_ctr
	.comm	Bframe_ctr,4,4
	.type	frame_no,@object        # @frame_no
	.comm	frame_no,4,4
	.type	nextP_tr_fld,@object    # @nextP_tr_fld
	.comm	nextP_tr_fld,4,4
	.type	nextP_tr_frm,@object    # @nextP_tr_frm
	.comm	nextP_tr_frm,4,4
	.type	tot_time,@object        # @tot_time
	.comm	tot_time,4,4
	.type	errortext,@object       # @errortext
	.comm	errortext,300,16
	.type	resTrans_R,@object      # @resTrans_R
	.comm	resTrans_R,1024,16
	.type	resTrans_G,@object      # @resTrans_G
	.comm	resTrans_G,1024,16
	.type	resTrans_B,@object      # @resTrans_B
	.comm	resTrans_B,1024,16
	.type	rec_resR,@object        # @rec_resR
	.comm	rec_resR,1024,16
	.type	rec_resG,@object        # @rec_resG
	.comm	rec_resG,1024,16
	.type	rec_resB,@object        # @rec_resB
	.comm	rec_resB,1024,16
	.type	mprRGB,@object          # @mprRGB
	.comm	mprRGB,3072,16
	.type	dc_level,@object        # @dc_level
	.comm	dc_level,128,16
	.type	dc_level_temp,@object   # @dc_level_temp
	.comm	dc_level_temp,128,16
	.type	cbp_chroma_block,@object # @cbp_chroma_block
	.comm	cbp_chroma_block,128,16
	.type	cbp_chroma_block_temp,@object # @cbp_chroma_block_temp
	.comm	cbp_chroma_block_temp,128,16
	.type	b8_ipredmode8x8,@object # @b8_ipredmode8x8
	.comm	b8_ipredmode8x8,64,16
	.type	b8_intra_pred_modes8x8,@object # @b8_intra_pred_modes8x8
	.comm	b8_intra_pred_modes8x8,64,16
	.type	gop_structure,@object   # @gop_structure
	.comm	gop_structure,8,8
	.type	rdopt,@object           # @rdopt
	.comm	rdopt,8,8
	.type	rddata_top_frame_mb,@object # @rddata_top_frame_mb
	.comm	rddata_top_frame_mb,3360,8
	.type	rddata_bot_frame_mb,@object # @rddata_bot_frame_mb
	.comm	rddata_bot_frame_mb,3360,8
	.type	rddata_top_field_mb,@object # @rddata_top_field_mb
	.comm	rddata_top_field_mb,3360,8
	.type	rddata_bot_field_mb,@object # @rddata_bot_field_mb
	.comm	rddata_bot_field_mb,3360,8
	.type	p_stat,@object          # @p_stat
	.comm	p_stat,8,8
	.type	p_log,@object           # @p_log
	.comm	p_log,8,8
	.type	p_trace,@object         # @p_trace
	.comm	p_trace,8,8
	.type	p_in,@object            # @p_in
	.comm	p_in,4,4
	.type	p_dec,@object           # @p_dec
	.comm	p_dec,4,4
	.type	glob_remapping_of_pic_nums_idc_l0,@object # @glob_remapping_of_pic_nums_idc_l0
	.comm	glob_remapping_of_pic_nums_idc_l0,80,16
	.type	glob_abs_diff_pic_num_minus1_l0,@object # @glob_abs_diff_pic_num_minus1_l0
	.comm	glob_abs_diff_pic_num_minus1_l0,80,16
	.type	glob_long_term_pic_idx_l0,@object # @glob_long_term_pic_idx_l0
	.comm	glob_long_term_pic_idx_l0,80,16
	.type	glob_remapping_of_pic_nums_idc_l1,@object # @glob_remapping_of_pic_nums_idc_l1
	.comm	glob_remapping_of_pic_nums_idc_l1,80,16
	.type	glob_abs_diff_pic_num_minus1_l1,@object # @glob_abs_diff_pic_num_minus1_l1
	.comm	glob_abs_diff_pic_num_minus1_l1,80,16
	.type	glob_long_term_pic_idx_l1,@object # @glob_long_term_pic_idx_l1
	.comm	glob_long_term_pic_idx_l1,80,16
	.type	Bytes_After_Header,@object # @Bytes_After_Header
	.comm	Bytes_After_Header,4,4
	.type	rpc_bytes_to_go,@object # @rpc_bytes_to_go
	.comm	rpc_bytes_to_go,4,4
	.type	rpc_bits_to_go,@object  # @rpc_bits_to_go
	.comm	rpc_bits_to_go,4,4

	.ident	"clang version 9.0.1 (git@github.com:llvm/llvm-project.git 9b2d207cf4b43cfc1a2b6940b3c06e50a1bd127f)"
	.section	".note.GNU-stack","",@progbits
