	.text
	.file	"mb_access.c"
	.globl	mb_is_available         # -- Begin function mb_is_available
	.p2align	4, 0x90
	.type	mb_is_available,@function
mb_is_available:                        # @mb_is_available
	.cfi_startproc
# %bb.0:                                # %rand_bb
	pushq	%rbp
	.cfi_def_cfa_offset 16
	.cfi_offset %rbp, -16
	movq	%rsp, %rbp
	.cfi_def_cfa_register %rbp
	pushq	%r14
	pushq	%rbx
	.cfi_offset %rbx, -32
	.cfi_offset %r14, -24
	movl	%esi, %r14d
	movl	%edi, %ebx
	callq	get_urand
	cmpl	$0, %eax
	jne	.LBB0_7
# %bb.1:                                # %func_mb_is_available.2
	movl	%ebx, %edi
	movl	%r14d, %esi
	callq	mb_is_available.2
	popq	%rbx
	popq	%r14
	popq	%rbp
	.cfi_def_cfa %rsp, 8
	retq
.LBB0_2:                                # %func_mb_is_available.25
	.cfi_def_cfa %rbp, 16
	movl	%ebx, %edi
	movl	%r14d, %esi
	callq	mb_is_available.25
	popq	%rbx
	popq	%r14
	popq	%rbp
	.cfi_def_cfa %rsp, 8
	retq
.LBB0_3:                                # %func_mb_is_available.29
	.cfi_def_cfa %rbp, 16
	movl	%ebx, %edi
	movl	%r14d, %esi
	callq	mb_is_available.29
	popq	%rbx
	popq	%r14
	popq	%rbp
	.cfi_def_cfa %rsp, 8
	retq
.LBB0_4:                                # %func_mb_is_available.31
	.cfi_def_cfa %rbp, 16
	movl	%ebx, %edi
	movl	%r14d, %esi
	callq	mb_is_available.31
	popq	%rbx
	popq	%r14
	popq	%rbp
	.cfi_def_cfa %rsp, 8
	retq
.LBB0_5:                                # %func_mb_is_available.40
	.cfi_def_cfa %rbp, 16
	movl	%ebx, %edi
	movl	%r14d, %esi
	callq	mb_is_available.40
	popq	%rbx
	popq	%r14
	popq	%rbp
	.cfi_def_cfa %rsp, 8
	retq
.LBB0_6:                                # %func_mb_is_available.50
	.cfi_def_cfa %rbp, 16
	movl	%ebx, %edi
	movl	%r14d, %esi
	callq	mb_is_available.50
	popq	%rbx
	popq	%r14
	popq	%rbp
	.cfi_def_cfa %rsp, 8
	retq
.LBB0_7:                                # %ctrl0
	.cfi_def_cfa %rbp, 16
	cmpl	$1, %eax
	je	.LBB0_2
# %bb.8:                                # %ctrl1
	cmpl	$2, %eax
	je	.LBB0_3
# %bb.9:                                # %ctrl2
	cmpl	$3, %eax
	je	.LBB0_4
# %bb.10:                               # %ctrl3
	cmpl	$4, %eax
	je	.LBB0_5
	jmp	.LBB0_6
.Lfunc_end0:
	.size	mb_is_available, .Lfunc_end0-mb_is_available
	.cfi_endproc
                                        # -- End function
	.globl	CheckAvailabilityOfNeighbors # -- Begin function CheckAvailabilityOfNeighbors
	.p2align	4, 0x90
	.type	CheckAvailabilityOfNeighbors,@function
CheckAvailabilityOfNeighbors:           # @CheckAvailabilityOfNeighbors
	.cfi_startproc
# %bb.0:                                # %rand_bb
	pushq	%rbp
	.cfi_def_cfa_offset 16
	.cfi_offset %rbp, -16
	movq	%rsp, %rbp
	.cfi_def_cfa_register %rbp
	callq	get_urand
	cmpl	$0, %eax
	jne	.LBB1_2
# %bb.1:                                # %func_CheckAvailabilityOfNeighbors.5
	callq	CheckAvailabilityOfNeighbors.5
	popq	%rbp
	.cfi_def_cfa %rsp, 8
	retq
.LBB1_2:                                # %func_CheckAvailabilityOfNeighbors.18
	.cfi_def_cfa %rbp, 16
	callq	CheckAvailabilityOfNeighbors.18
	popq	%rbp
	.cfi_def_cfa %rsp, 8
	retq
.Lfunc_end1:
	.size	CheckAvailabilityOfNeighbors, .Lfunc_end1-CheckAvailabilityOfNeighbors
	.cfi_endproc
                                        # -- End function
	.globl	get_mb_block_pos        # -- Begin function get_mb_block_pos
	.p2align	4, 0x90
	.type	get_mb_block_pos,@function
get_mb_block_pos:                       # @get_mb_block_pos
	.cfi_startproc
# %bb.0:                                # %rand_bb
	pushq	%rbp
	.cfi_def_cfa_offset 16
	.cfi_offset %rbp, -16
	movq	%rsp, %rbp
	.cfi_def_cfa_register %rbp
	pushq	%r15
	pushq	%r14
	pushq	%rbx
	pushq	%rax
	.cfi_offset %rbx, -40
	.cfi_offset %r14, -32
	.cfi_offset %r15, -24
	movq	%rdx, %r14
	movq	%rsi, %r15
	movl	%edi, %ebx
	callq	get_urand
	cmpl	$0, %eax
	jne	.LBB2_7
# %bb.1:                                # %func_get_mb_block_pos.7
	movl	%ebx, %edi
	movq	%r15, %rsi
	movq	%r14, %rdx
	callq	get_mb_block_pos.7
	addq	$8, %rsp
	popq	%rbx
	popq	%r14
	popq	%r15
	popq	%rbp
	.cfi_def_cfa %rsp, 8
	retq
.LBB2_2:                                # %func_get_mb_block_pos.19
	.cfi_def_cfa %rbp, 16
	movl	%ebx, %edi
	movq	%r15, %rsi
	movq	%r14, %rdx
	callq	get_mb_block_pos.19
	addq	$8, %rsp
	popq	%rbx
	popq	%r14
	popq	%r15
	popq	%rbp
	.cfi_def_cfa %rsp, 8
	retq
.LBB2_3:                                # %func_get_mb_block_pos.21
	.cfi_def_cfa %rbp, 16
	movl	%ebx, %edi
	movq	%r15, %rsi
	movq	%r14, %rdx
	callq	get_mb_block_pos.21
	addq	$8, %rsp
	popq	%rbx
	popq	%r14
	popq	%r15
	popq	%rbp
	.cfi_def_cfa %rsp, 8
	retq
.LBB2_4:                                # %func_get_mb_block_pos.23
	.cfi_def_cfa %rbp, 16
	movl	%ebx, %edi
	movq	%r15, %rsi
	movq	%r14, %rdx
	callq	get_mb_block_pos.23
	addq	$8, %rsp
	popq	%rbx
	popq	%r14
	popq	%r15
	popq	%rbp
	.cfi_def_cfa %rsp, 8
	retq
.LBB2_5:                                # %func_get_mb_block_pos.32
	.cfi_def_cfa %rbp, 16
	movl	%ebx, %edi
	movq	%r15, %rsi
	movq	%r14, %rdx
	callq	get_mb_block_pos.32
	addq	$8, %rsp
	popq	%rbx
	popq	%r14
	popq	%r15
	popq	%rbp
	.cfi_def_cfa %rsp, 8
	retq
.LBB2_6:                                # %func_get_mb_block_pos.45
	.cfi_def_cfa %rbp, 16
	movl	%ebx, %edi
	movq	%r15, %rsi
	movq	%r14, %rdx
	callq	get_mb_block_pos.45
	addq	$8, %rsp
	popq	%rbx
	popq	%r14
	popq	%r15
	popq	%rbp
	.cfi_def_cfa %rsp, 8
	retq
.LBB2_7:                                # %ctrl0
	.cfi_def_cfa %rbp, 16
	cmpl	$1, %eax
	je	.LBB2_2
# %bb.8:                                # %ctrl1
	cmpl	$2, %eax
	je	.LBB2_3
# %bb.9:                                # %ctrl2
	cmpl	$3, %eax
	je	.LBB2_4
# %bb.10:                               # %ctrl3
	cmpl	$4, %eax
	je	.LBB2_5
	jmp	.LBB2_6
.Lfunc_end2:
	.size	get_mb_block_pos, .Lfunc_end2-get_mb_block_pos
	.cfi_endproc
                                        # -- End function
	.globl	get_mb_pos              # -- Begin function get_mb_pos
	.p2align	4, 0x90
	.type	get_mb_pos,@function
get_mb_pos:                             # @get_mb_pos
	.cfi_startproc
# %bb.0:                                # %rand_bb
	pushq	%rbp
	.cfi_def_cfa_offset 16
	.cfi_offset %rbp, -16
	movq	%rsp, %rbp
	.cfi_def_cfa_register %rbp
	pushq	%r15
	pushq	%r14
	pushq	%rbx
	pushq	%rax
	.cfi_offset %rbx, -40
	.cfi_offset %r14, -32
	.cfi_offset %r15, -24
	movq	%rdx, %r14
	movq	%rsi, %r15
	movl	%edi, %ebx
	callq	get_urand
	cmpl	$0, %eax
	jne	.LBB3_7
# %bb.1:                                # %func_get_mb_pos.1
	movl	%ebx, %edi
	movq	%r15, %rsi
	movq	%r14, %rdx
	callq	get_mb_pos.1
	addq	$8, %rsp
	popq	%rbx
	popq	%r14
	popq	%r15
	popq	%rbp
	.cfi_def_cfa %rsp, 8
	retq
.LBB3_2:                                # %func_get_mb_pos.9
	.cfi_def_cfa %rbp, 16
	movl	%ebx, %edi
	movq	%r15, %rsi
	movq	%r14, %rdx
	callq	get_mb_pos.9
	addq	$8, %rsp
	popq	%rbx
	popq	%r14
	popq	%r15
	popq	%rbp
	.cfi_def_cfa %rsp, 8
	retq
.LBB3_3:                                # %func_get_mb_pos.22
	.cfi_def_cfa %rbp, 16
	movl	%ebx, %edi
	movq	%r15, %rsi
	movq	%r14, %rdx
	callq	get_mb_pos.22
	addq	$8, %rsp
	popq	%rbx
	popq	%r14
	popq	%r15
	popq	%rbp
	.cfi_def_cfa %rsp, 8
	retq
.LBB3_4:                                # %func_get_mb_pos.26
	.cfi_def_cfa %rbp, 16
	movl	%ebx, %edi
	movq	%r15, %rsi
	movq	%r14, %rdx
	callq	get_mb_pos.26
	addq	$8, %rsp
	popq	%rbx
	popq	%r14
	popq	%r15
	popq	%rbp
	.cfi_def_cfa %rsp, 8
	retq
.LBB3_5:                                # %func_get_mb_pos.38
	.cfi_def_cfa %rbp, 16
	movl	%ebx, %edi
	movq	%r15, %rsi
	movq	%r14, %rdx
	callq	get_mb_pos.38
	addq	$8, %rsp
	popq	%rbx
	popq	%r14
	popq	%r15
	popq	%rbp
	.cfi_def_cfa %rsp, 8
	retq
.LBB3_6:                                # %func_get_mb_pos.39
	.cfi_def_cfa %rbp, 16
	movl	%ebx, %edi
	movq	%r15, %rsi
	movq	%r14, %rdx
	callq	get_mb_pos.39
	addq	$8, %rsp
	popq	%rbx
	popq	%r14
	popq	%r15
	popq	%rbp
	.cfi_def_cfa %rsp, 8
	retq
.LBB3_7:                                # %ctrl0
	.cfi_def_cfa %rbp, 16
	cmpl	$1, %eax
	je	.LBB3_2
# %bb.8:                                # %ctrl1
	cmpl	$2, %eax
	je	.LBB3_3
# %bb.9:                                # %ctrl2
	cmpl	$3, %eax
	je	.LBB3_4
# %bb.10:                               # %ctrl3
	cmpl	$4, %eax
	je	.LBB3_5
	jmp	.LBB3_6
.Lfunc_end3:
	.size	get_mb_pos, .Lfunc_end3-get_mb_pos
	.cfi_endproc
                                        # -- End function
	.globl	getNonAffNeighbour      # -- Begin function getNonAffNeighbour
	.p2align	4, 0x90
	.type	getNonAffNeighbour,@function
getNonAffNeighbour:                     # @getNonAffNeighbour
	.cfi_startproc
# %bb.0:                                # %rand_bb
	pushq	%rbp
	.cfi_def_cfa_offset 16
	.cfi_offset %rbp, -16
	movq	%rsp, %rbp
	.cfi_def_cfa_register %rbp
	pushq	%r15
	pushq	%r14
	pushq	%r13
	pushq	%r12
	pushq	%rbx
	pushq	%rax
	.cfi_offset %rbx, -56
	.cfi_offset %r12, -48
	.cfi_offset %r13, -40
	.cfi_offset %r14, -32
	.cfi_offset %r15, -24
	movq	%r8, %r14
	movl	%ecx, %r15d
	movl	%edx, %r12d
	movl	%esi, %r13d
	movl	%edi, %ebx
	callq	get_urand
	cmpl	$0, %eax
	jne	.LBB4_9
# %bb.1:                                # %func_getNonAffNeighbour.3
	movl	%ebx, %edi
	movl	%r13d, %esi
	movl	%r12d, %edx
	movl	%r15d, %ecx
	movq	%r14, %r8
	callq	getNonAffNeighbour.3
	addq	$8, %rsp
	popq	%rbx
	popq	%r12
	popq	%r13
	popq	%r14
	popq	%r15
	popq	%rbp
	.cfi_def_cfa %rsp, 8
	retq
.LBB4_2:                                # %func_getNonAffNeighbour.14
	.cfi_def_cfa %rbp, 16
	movl	%ebx, %edi
	movl	%r13d, %esi
	movl	%r12d, %edx
	movl	%r15d, %ecx
	movq	%r14, %r8
	callq	getNonAffNeighbour.14
	addq	$8, %rsp
	popq	%rbx
	popq	%r12
	popq	%r13
	popq	%r14
	popq	%r15
	popq	%rbp
	.cfi_def_cfa %rsp, 8
	retq
.LBB4_3:                                # %func_getNonAffNeighbour.20
	.cfi_def_cfa %rbp, 16
	movl	%ebx, %edi
	movl	%r13d, %esi
	movl	%r12d, %edx
	movl	%r15d, %ecx
	movq	%r14, %r8
	callq	getNonAffNeighbour.20
	addq	$8, %rsp
	popq	%rbx
	popq	%r12
	popq	%r13
	popq	%r14
	popq	%r15
	popq	%rbp
	.cfi_def_cfa %rsp, 8
	retq
.LBB4_4:                                # %func_getNonAffNeighbour.43
	.cfi_def_cfa %rbp, 16
	movl	%ebx, %edi
	movl	%r13d, %esi
	movl	%r12d, %edx
	movl	%r15d, %ecx
	movq	%r14, %r8
	callq	getNonAffNeighbour.43
	addq	$8, %rsp
	popq	%rbx
	popq	%r12
	popq	%r13
	popq	%r14
	popq	%r15
	popq	%rbp
	.cfi_def_cfa %rsp, 8
	retq
.LBB4_5:                                # %func_getNonAffNeighbour.47
	.cfi_def_cfa %rbp, 16
	movl	%ebx, %edi
	movl	%r13d, %esi
	movl	%r12d, %edx
	movl	%r15d, %ecx
	movq	%r14, %r8
	callq	getNonAffNeighbour.47
	addq	$8, %rsp
	popq	%rbx
	popq	%r12
	popq	%r13
	popq	%r14
	popq	%r15
	popq	%rbp
	.cfi_def_cfa %rsp, 8
	retq
.LBB4_6:                                # %func_getNonAffNeighbour.49
	.cfi_def_cfa %rbp, 16
	movl	%ebx, %edi
	movl	%r13d, %esi
	movl	%r12d, %edx
	movl	%r15d, %ecx
	movq	%r14, %r8
	callq	getNonAffNeighbour.49
	addq	$8, %rsp
	popq	%rbx
	popq	%r12
	popq	%r13
	popq	%r14
	popq	%r15
	popq	%rbp
	.cfi_def_cfa %rsp, 8
	retq
.LBB4_7:                                # %func_getNonAffNeighbour.52
	.cfi_def_cfa %rbp, 16
	movl	%ebx, %edi
	movl	%r13d, %esi
	movl	%r12d, %edx
	movl	%r15d, %ecx
	movq	%r14, %r8
	callq	getNonAffNeighbour.52
	addq	$8, %rsp
	popq	%rbx
	popq	%r12
	popq	%r13
	popq	%r14
	popq	%r15
	popq	%rbp
	.cfi_def_cfa %rsp, 8
	retq
.LBB4_8:                                # %func_getNonAffNeighbour.53
	.cfi_def_cfa %rbp, 16
	movl	%ebx, %edi
	movl	%r13d, %esi
	movl	%r12d, %edx
	movl	%r15d, %ecx
	movq	%r14, %r8
	callq	getNonAffNeighbour.53
	addq	$8, %rsp
	popq	%rbx
	popq	%r12
	popq	%r13
	popq	%r14
	popq	%r15
	popq	%rbp
	.cfi_def_cfa %rsp, 8
	retq
.LBB4_9:                                # %ctrl0
	.cfi_def_cfa %rbp, 16
	cmpl	$1, %eax
	je	.LBB4_2
# %bb.10:                               # %ctrl1
	cmpl	$2, %eax
	je	.LBB4_3
# %bb.11:                               # %ctrl2
	cmpl	$3, %eax
	je	.LBB4_4
# %bb.12:                               # %ctrl3
	cmpl	$4, %eax
	je	.LBB4_5
# %bb.13:                               # %ctrl4
	cmpl	$5, %eax
	je	.LBB4_6
# %bb.14:                               # %ctrl5
	cmpl	$6, %eax
	je	.LBB4_7
	jmp	.LBB4_8
.Lfunc_end4:
	.size	getNonAffNeighbour, .Lfunc_end4-getNonAffNeighbour
	.cfi_endproc
                                        # -- End function
	.globl	getAffNeighbour         # -- Begin function getAffNeighbour
	.p2align	4, 0x90
	.type	getAffNeighbour,@function
getAffNeighbour:                        # @getAffNeighbour
	.cfi_startproc
# %bb.0:                                # %rand_bb
	pushq	%rbp
	.cfi_def_cfa_offset 16
	.cfi_offset %rbp, -16
	movq	%rsp, %rbp
	.cfi_def_cfa_register %rbp
	pushq	%r15
	pushq	%r14
	pushq	%r13
	pushq	%r12
	pushq	%rbx
	pushq	%rax
	.cfi_offset %rbx, -56
	.cfi_offset %r12, -48
	.cfi_offset %r13, -40
	.cfi_offset %r14, -32
	.cfi_offset %r15, -24
	movq	%r8, %r14
	movl	%ecx, %r15d
	movl	%edx, %r12d
	movl	%esi, %r13d
	movl	%edi, %ebx
	callq	get_urand
	cmpl	$0, %eax
	jne	.LBB5_9
# %bb.1:                                # %func_getAffNeighbour.11
	movl	%ebx, %edi
	movl	%r13d, %esi
	movl	%r12d, %edx
	movl	%r15d, %ecx
	movq	%r14, %r8
	callq	getAffNeighbour.11
	addq	$8, %rsp
	popq	%rbx
	popq	%r12
	popq	%r13
	popq	%r14
	popq	%r15
	popq	%rbp
	.cfi_def_cfa %rsp, 8
	retq
.LBB5_2:                                # %func_getAffNeighbour.12
	.cfi_def_cfa %rbp, 16
	movl	%ebx, %edi
	movl	%r13d, %esi
	movl	%r12d, %edx
	movl	%r15d, %ecx
	movq	%r14, %r8
	callq	getAffNeighbour.12
	addq	$8, %rsp
	popq	%rbx
	popq	%r12
	popq	%r13
	popq	%r14
	popq	%r15
	popq	%rbp
	.cfi_def_cfa %rsp, 8
	retq
.LBB5_3:                                # %func_getAffNeighbour.13
	.cfi_def_cfa %rbp, 16
	movl	%ebx, %edi
	movl	%r13d, %esi
	movl	%r12d, %edx
	movl	%r15d, %ecx
	movq	%r14, %r8
	callq	getAffNeighbour.13
	addq	$8, %rsp
	popq	%rbx
	popq	%r12
	popq	%r13
	popq	%r14
	popq	%r15
	popq	%rbp
	.cfi_def_cfa %rsp, 8
	retq
.LBB5_4:                                # %func_getAffNeighbour.24
	.cfi_def_cfa %rbp, 16
	movl	%ebx, %edi
	movl	%r13d, %esi
	movl	%r12d, %edx
	movl	%r15d, %ecx
	movq	%r14, %r8
	callq	getAffNeighbour.24
	addq	$8, %rsp
	popq	%rbx
	popq	%r12
	popq	%r13
	popq	%r14
	popq	%r15
	popq	%rbp
	.cfi_def_cfa %rsp, 8
	retq
.LBB5_5:                                # %func_getAffNeighbour.28
	.cfi_def_cfa %rbp, 16
	movl	%ebx, %edi
	movl	%r13d, %esi
	movl	%r12d, %edx
	movl	%r15d, %ecx
	movq	%r14, %r8
	callq	getAffNeighbour.28
	addq	$8, %rsp
	popq	%rbx
	popq	%r12
	popq	%r13
	popq	%r14
	popq	%r15
	popq	%rbp
	.cfi_def_cfa %rsp, 8
	retq
.LBB5_6:                                # %func_getAffNeighbour.33
	.cfi_def_cfa %rbp, 16
	movl	%ebx, %edi
	movl	%r13d, %esi
	movl	%r12d, %edx
	movl	%r15d, %ecx
	movq	%r14, %r8
	callq	getAffNeighbour.33
	addq	$8, %rsp
	popq	%rbx
	popq	%r12
	popq	%r13
	popq	%r14
	popq	%r15
	popq	%rbp
	.cfi_def_cfa %rsp, 8
	retq
.LBB5_7:                                # %func_getAffNeighbour.36
	.cfi_def_cfa %rbp, 16
	movl	%ebx, %edi
	movl	%r13d, %esi
	movl	%r12d, %edx
	movl	%r15d, %ecx
	movq	%r14, %r8
	callq	getAffNeighbour.36
	addq	$8, %rsp
	popq	%rbx
	popq	%r12
	popq	%r13
	popq	%r14
	popq	%r15
	popq	%rbp
	.cfi_def_cfa %rsp, 8
	retq
.LBB5_8:                                # %func_getAffNeighbour.37
	.cfi_def_cfa %rbp, 16
	movl	%ebx, %edi
	movl	%r13d, %esi
	movl	%r12d, %edx
	movl	%r15d, %ecx
	movq	%r14, %r8
	callq	getAffNeighbour.37
	addq	$8, %rsp
	popq	%rbx
	popq	%r12
	popq	%r13
	popq	%r14
	popq	%r15
	popq	%rbp
	.cfi_def_cfa %rsp, 8
	retq
.LBB5_9:                                # %ctrl0
	.cfi_def_cfa %rbp, 16
	cmpl	$1, %eax
	je	.LBB5_2
# %bb.10:                               # %ctrl1
	cmpl	$2, %eax
	je	.LBB5_3
# %bb.11:                               # %ctrl2
	cmpl	$3, %eax
	je	.LBB5_4
# %bb.12:                               # %ctrl3
	cmpl	$4, %eax
	je	.LBB5_5
# %bb.13:                               # %ctrl4
	cmpl	$5, %eax
	je	.LBB5_6
# %bb.14:                               # %ctrl5
	cmpl	$6, %eax
	je	.LBB5_7
	jmp	.LBB5_8
.Lfunc_end5:
	.size	getAffNeighbour, .Lfunc_end5-getAffNeighbour
	.cfi_endproc
                                        # -- End function
	.globl	getNeighbour            # -- Begin function getNeighbour
	.p2align	4, 0x90
	.type	getNeighbour,@function
getNeighbour:                           # @getNeighbour
	.cfi_startproc
# %bb.0:                                # %rand_bb
	pushq	%rbp
	.cfi_def_cfa_offset 16
	.cfi_offset %rbp, -16
	movq	%rsp, %rbp
	.cfi_def_cfa_register %rbp
	pushq	%r15
	pushq	%r14
	pushq	%r13
	pushq	%r12
	pushq	%rbx
	pushq	%rax
	.cfi_offset %rbx, -56
	.cfi_offset %r12, -48
	.cfi_offset %r13, -40
	.cfi_offset %r14, -32
	.cfi_offset %r15, -24
	movq	%r8, %r14
	movl	%ecx, %r15d
	movl	%edx, %r12d
	movl	%esi, %r13d
	movl	%edi, %ebx
	callq	get_urand
	cmpl	$0, %eax
	jne	.LBB6_9
# %bb.1:                                # %func_getNeighbour.6
	movl	%ebx, %edi
	movl	%r13d, %esi
	movl	%r12d, %edx
	movl	%r15d, %ecx
	movq	%r14, %r8
	callq	getNeighbour.6
	addq	$8, %rsp
	popq	%rbx
	popq	%r12
	popq	%r13
	popq	%r14
	popq	%r15
	popq	%rbp
	.cfi_def_cfa %rsp, 8
	retq
.LBB6_2:                                # %func_getNeighbour.8
	.cfi_def_cfa %rbp, 16
	movl	%ebx, %edi
	movl	%r13d, %esi
	movl	%r12d, %edx
	movl	%r15d, %ecx
	movq	%r14, %r8
	callq	getNeighbour.8
	addq	$8, %rsp
	popq	%rbx
	popq	%r12
	popq	%r13
	popq	%r14
	popq	%r15
	popq	%rbp
	.cfi_def_cfa %rsp, 8
	retq
.LBB6_3:                                # %func_getNeighbour.16
	.cfi_def_cfa %rbp, 16
	movl	%ebx, %edi
	movl	%r13d, %esi
	movl	%r12d, %edx
	movl	%r15d, %ecx
	movq	%r14, %r8
	callq	getNeighbour.16
	addq	$8, %rsp
	popq	%rbx
	popq	%r12
	popq	%r13
	popq	%r14
	popq	%r15
	popq	%rbp
	.cfi_def_cfa %rsp, 8
	retq
.LBB6_4:                                # %func_getNeighbour.27
	.cfi_def_cfa %rbp, 16
	movl	%ebx, %edi
	movl	%r13d, %esi
	movl	%r12d, %edx
	movl	%r15d, %ecx
	movq	%r14, %r8
	callq	getNeighbour.27
	addq	$8, %rsp
	popq	%rbx
	popq	%r12
	popq	%r13
	popq	%r14
	popq	%r15
	popq	%rbp
	.cfi_def_cfa %rsp, 8
	retq
.LBB6_5:                                # %func_getNeighbour.30
	.cfi_def_cfa %rbp, 16
	movl	%ebx, %edi
	movl	%r13d, %esi
	movl	%r12d, %edx
	movl	%r15d, %ecx
	movq	%r14, %r8
	callq	getNeighbour.30
	addq	$8, %rsp
	popq	%rbx
	popq	%r12
	popq	%r13
	popq	%r14
	popq	%r15
	popq	%rbp
	.cfi_def_cfa %rsp, 8
	retq
.LBB6_6:                                # %func_getNeighbour.46
	.cfi_def_cfa %rbp, 16
	movl	%ebx, %edi
	movl	%r13d, %esi
	movl	%r12d, %edx
	movl	%r15d, %ecx
	movq	%r14, %r8
	callq	getNeighbour.46
	addq	$8, %rsp
	popq	%rbx
	popq	%r12
	popq	%r13
	popq	%r14
	popq	%r15
	popq	%rbp
	.cfi_def_cfa %rsp, 8
	retq
.LBB6_7:                                # %func_getNeighbour.54
	.cfi_def_cfa %rbp, 16
	movl	%ebx, %edi
	movl	%r13d, %esi
	movl	%r12d, %edx
	movl	%r15d, %ecx
	movq	%r14, %r8
	callq	getNeighbour.54
	addq	$8, %rsp
	popq	%rbx
	popq	%r12
	popq	%r13
	popq	%r14
	popq	%r15
	popq	%rbp
	.cfi_def_cfa %rsp, 8
	retq
.LBB6_8:                                # %func_getNeighbour.56
	.cfi_def_cfa %rbp, 16
	movl	%ebx, %edi
	movl	%r13d, %esi
	movl	%r12d, %edx
	movl	%r15d, %ecx
	movq	%r14, %r8
	callq	getNeighbour.56
	addq	$8, %rsp
	popq	%rbx
	popq	%r12
	popq	%r13
	popq	%r14
	popq	%r15
	popq	%rbp
	.cfi_def_cfa %rsp, 8
	retq
.LBB6_9:                                # %ctrl0
	.cfi_def_cfa %rbp, 16
	cmpl	$1, %eax
	je	.LBB6_2
# %bb.10:                               # %ctrl1
	cmpl	$2, %eax
	je	.LBB6_3
# %bb.11:                               # %ctrl2
	cmpl	$3, %eax
	je	.LBB6_4
# %bb.12:                               # %ctrl3
	cmpl	$4, %eax
	je	.LBB6_5
# %bb.13:                               # %ctrl4
	cmpl	$5, %eax
	je	.LBB6_6
# %bb.14:                               # %ctrl5
	cmpl	$6, %eax
	je	.LBB6_7
	jmp	.LBB6_8
.Lfunc_end6:
	.size	getNeighbour, .Lfunc_end6-getNeighbour
	.cfi_endproc
                                        # -- End function
	.globl	getLuma4x4Neighbour     # -- Begin function getLuma4x4Neighbour
	.p2align	4, 0x90
	.type	getLuma4x4Neighbour,@function
getLuma4x4Neighbour:                    # @getLuma4x4Neighbour
	.cfi_startproc
# %bb.0:                                # %rand_bb
	pushq	%rbp
	.cfi_def_cfa_offset 16
	.cfi_offset %rbp, -16
	movq	%rsp, %rbp
	.cfi_def_cfa_register %rbp
	pushq	%r15
	pushq	%r14
	pushq	%r13
	pushq	%r12
	pushq	%rbx
	pushq	%rax
	.cfi_offset %rbx, -56
	.cfi_offset %r12, -48
	.cfi_offset %r13, -40
	.cfi_offset %r14, -32
	.cfi_offset %r15, -24
	movq	%r9, -48(%rbp)          # 8-byte Spill
	movl	%r8d, %r12d
	movl	%ecx, %r13d
	movl	%edx, %ebx
	movl	%esi, %r14d
	movl	%edi, %r15d
	callq	get_urand
	cmpl	$0, %eax
	jne	.LBB7_9
# %bb.1:                                # %func_getLuma4x4Neighbour.4
	movl	%r15d, %edi
	movl	%r14d, %esi
	movl	%ebx, %edx
	movl	%r13d, %ecx
	movl	%r12d, %r8d
	movq	-48(%rbp), %r9          # 8-byte Reload
	callq	getLuma4x4Neighbour.4
	addq	$8, %rsp
	popq	%rbx
	popq	%r12
	popq	%r13
	popq	%r14
	popq	%r15
	popq	%rbp
	.cfi_def_cfa %rsp, 8
	retq
.LBB7_2:                                # %func_getLuma4x4Neighbour.44
	.cfi_def_cfa %rbp, 16
	movl	%r15d, %edi
	movl	%r14d, %esi
	movl	%ebx, %edx
	movl	%r13d, %ecx
	movl	%r12d, %r8d
	callq	getLuma4x4Neighbour.44
	addq	$8, %rsp
	popq	%rbx
	popq	%r12
	popq	%r13
	popq	%r14
	popq	%r15
	popq	%rbp
	.cfi_def_cfa %rsp, 8
	retq
.LBB7_3:                                # %func_getLuma4x4Neighbour.51
	.cfi_def_cfa %rbp, 16
	movl	%r15d, %edi
	movl	%r14d, %esi
	movl	%ebx, %edx
	movl	%r13d, %ecx
	movl	%r12d, %r8d
	callq	getLuma4x4Neighbour.51
	addq	$8, %rsp
	popq	%rbx
	popq	%r12
	popq	%r13
	popq	%r14
	popq	%r15
	popq	%rbp
	.cfi_def_cfa %rsp, 8
	retq
.LBB7_4:                                # %func_getLuma4x4Neighbour.55
	.cfi_def_cfa %rbp, 16
	movl	%r15d, %edi
	movl	%r14d, %esi
	movl	%ebx, %edx
	movl	%r13d, %ecx
	movl	%r12d, %r8d
	callq	getLuma4x4Neighbour.55
	addq	$8, %rsp
	popq	%rbx
	popq	%r12
	popq	%r13
	popq	%r14
	popq	%r15
	popq	%rbp
	.cfi_def_cfa %rsp, 8
	retq
.LBB7_5:                                # %func_getLuma4x4Neighbour.57
	.cfi_def_cfa %rbp, 16
	movl	%r15d, %edi
	movl	%r14d, %esi
	movl	%ebx, %edx
	movl	%r13d, %ecx
	movl	%r12d, %r8d
	callq	getLuma4x4Neighbour.57
	addq	$8, %rsp
	popq	%rbx
	popq	%r12
	popq	%r13
	popq	%r14
	popq	%r15
	popq	%rbp
	.cfi_def_cfa %rsp, 8
	retq
.LBB7_6:                                # %func_getLuma4x4Neighbour.58
	.cfi_def_cfa %rbp, 16
	movl	%r15d, %edi
	movl	%r14d, %esi
	movl	%ebx, %edx
	movl	%r13d, %ecx
	movl	%r12d, %r8d
	callq	getLuma4x4Neighbour.58
	addq	$8, %rsp
	popq	%rbx
	popq	%r12
	popq	%r13
	popq	%r14
	popq	%r15
	popq	%rbp
	.cfi_def_cfa %rsp, 8
	retq
.LBB7_7:                                # %func_getLuma4x4Neighbour.59
	.cfi_def_cfa %rbp, 16
	callq	getLuma4x4Neighbour.59
	addq	$8, %rsp
	popq	%rbx
	popq	%r12
	popq	%r13
	popq	%r14
	popq	%r15
	popq	%rbp
	.cfi_def_cfa %rsp, 8
	retq
.LBB7_8:                                # %func_getLuma4x4Neighbour.60
	.cfi_def_cfa %rbp, 16
	callq	getLuma4x4Neighbour.60
	addq	$8, %rsp
	popq	%rbx
	popq	%r12
	popq	%r13
	popq	%r14
	popq	%r15
	popq	%rbp
	.cfi_def_cfa %rsp, 8
	retq
.LBB7_9:                                # %ctrl0
	.cfi_def_cfa %rbp, 16
	movq	-48(%rbp), %r9          # 8-byte Reload
	cmpl	$1, %eax
	je	.LBB7_2
# %bb.10:                               # %ctrl1
	cmpl	$2, %eax
	je	.LBB7_3
# %bb.11:                               # %ctrl2
	cmpl	$3, %eax
	je	.LBB7_4
# %bb.12:                               # %ctrl3
	cmpl	$4, %eax
	je	.LBB7_5
# %bb.13:                               # %ctrl4
	cmpl	$5, %eax
	je	.LBB7_6
# %bb.14:                               # %ctrl5
	cmpl	$6, %eax
	movl	%r12d, %r8d
	movl	%r13d, %ecx
	movl	%ebx, %edx
	movl	%r14d, %esi
	movl	%r15d, %edi
	je	.LBB7_7
	jmp	.LBB7_8
.Lfunc_end7:
	.size	getLuma4x4Neighbour, .Lfunc_end7-getLuma4x4Neighbour
	.cfi_endproc
                                        # -- End function
	.globl	getChroma4x4Neighbour   # -- Begin function getChroma4x4Neighbour
	.p2align	4, 0x90
	.type	getChroma4x4Neighbour,@function
getChroma4x4Neighbour:                  # @getChroma4x4Neighbour
	.cfi_startproc
# %bb.0:                                # %rand_bb
	pushq	%rbp
	.cfi_def_cfa_offset 16
	.cfi_offset %rbp, -16
	movq	%rsp, %rbp
	.cfi_def_cfa_register %rbp
	pushq	%r15
	pushq	%r14
	pushq	%r13
	pushq	%r12
	pushq	%rbx
	pushq	%rax
	.cfi_offset %rbx, -56
	.cfi_offset %r12, -48
	.cfi_offset %r13, -40
	.cfi_offset %r14, -32
	.cfi_offset %r15, -24
	movq	%r9, -48(%rbp)          # 8-byte Spill
	movl	%r8d, %r12d
	movl	%ecx, %r13d
	movl	%edx, %ebx
	movl	%esi, %r14d
	movl	%edi, %r15d
	callq	get_urand
	cmpl	$0, %eax
	jne	.LBB8_9
# %bb.1:                                # %func_getChroma4x4Neighbour.10
	movl	%r15d, %edi
	movl	%r14d, %esi
	movl	%ebx, %edx
	movl	%r13d, %ecx
	movl	%r12d, %r8d
	movq	-48(%rbp), %r9          # 8-byte Reload
	callq	getChroma4x4Neighbour.10
	addq	$8, %rsp
	popq	%rbx
	popq	%r12
	popq	%r13
	popq	%r14
	popq	%r15
	popq	%rbp
	.cfi_def_cfa %rsp, 8
	retq
.LBB8_2:                                # %func_getChroma4x4Neighbour.15
	.cfi_def_cfa %rbp, 16
	movl	%r15d, %edi
	movl	%r14d, %esi
	movl	%ebx, %edx
	movl	%r13d, %ecx
	movl	%r12d, %r8d
	callq	getChroma4x4Neighbour.15
	addq	$8, %rsp
	popq	%rbx
	popq	%r12
	popq	%r13
	popq	%r14
	popq	%r15
	popq	%rbp
	.cfi_def_cfa %rsp, 8
	retq
.LBB8_3:                                # %func_getChroma4x4Neighbour.17
	.cfi_def_cfa %rbp, 16
	movl	%r15d, %edi
	movl	%r14d, %esi
	movl	%ebx, %edx
	movl	%r13d, %ecx
	movl	%r12d, %r8d
	callq	getChroma4x4Neighbour.17
	addq	$8, %rsp
	popq	%rbx
	popq	%r12
	popq	%r13
	popq	%r14
	popq	%r15
	popq	%rbp
	.cfi_def_cfa %rsp, 8
	retq
.LBB8_4:                                # %func_getChroma4x4Neighbour.34
	.cfi_def_cfa %rbp, 16
	movl	%r15d, %edi
	movl	%r14d, %esi
	movl	%ebx, %edx
	movl	%r13d, %ecx
	movl	%r12d, %r8d
	callq	getChroma4x4Neighbour.34
	addq	$8, %rsp
	popq	%rbx
	popq	%r12
	popq	%r13
	popq	%r14
	popq	%r15
	popq	%rbp
	.cfi_def_cfa %rsp, 8
	retq
.LBB8_5:                                # %func_getChroma4x4Neighbour.35
	.cfi_def_cfa %rbp, 16
	movl	%r15d, %edi
	movl	%r14d, %esi
	movl	%ebx, %edx
	movl	%r13d, %ecx
	movl	%r12d, %r8d
	callq	getChroma4x4Neighbour.35
	addq	$8, %rsp
	popq	%rbx
	popq	%r12
	popq	%r13
	popq	%r14
	popq	%r15
	popq	%rbp
	.cfi_def_cfa %rsp, 8
	retq
.LBB8_6:                                # %func_getChroma4x4Neighbour.41
	.cfi_def_cfa %rbp, 16
	movl	%r15d, %edi
	movl	%r14d, %esi
	movl	%ebx, %edx
	movl	%r13d, %ecx
	movl	%r12d, %r8d
	callq	getChroma4x4Neighbour.41
	addq	$8, %rsp
	popq	%rbx
	popq	%r12
	popq	%r13
	popq	%r14
	popq	%r15
	popq	%rbp
	.cfi_def_cfa %rsp, 8
	retq
.LBB8_7:                                # %func_getChroma4x4Neighbour.42
	.cfi_def_cfa %rbp, 16
	callq	getChroma4x4Neighbour.42
	addq	$8, %rsp
	popq	%rbx
	popq	%r12
	popq	%r13
	popq	%r14
	popq	%r15
	popq	%rbp
	.cfi_def_cfa %rsp, 8
	retq
.LBB8_8:                                # %func_getChroma4x4Neighbour.48
	.cfi_def_cfa %rbp, 16
	callq	getChroma4x4Neighbour.48
	addq	$8, %rsp
	popq	%rbx
	popq	%r12
	popq	%r13
	popq	%r14
	popq	%r15
	popq	%rbp
	.cfi_def_cfa %rsp, 8
	retq
.LBB8_9:                                # %ctrl0
	.cfi_def_cfa %rbp, 16
	movq	-48(%rbp), %r9          # 8-byte Reload
	cmpl	$1, %eax
	je	.LBB8_2
# %bb.10:                               # %ctrl1
	cmpl	$2, %eax
	je	.LBB8_3
# %bb.11:                               # %ctrl2
	cmpl	$3, %eax
	je	.LBB8_4
# %bb.12:                               # %ctrl3
	cmpl	$4, %eax
	je	.LBB8_5
# %bb.13:                               # %ctrl4
	cmpl	$5, %eax
	je	.LBB8_6
# %bb.14:                               # %ctrl5
	cmpl	$6, %eax
	movl	%r12d, %r8d
	movl	%r13d, %ecx
	movl	%ebx, %edx
	movl	%r14d, %esi
	movl	%r15d, %edi
	je	.LBB8_7
	jmp	.LBB8_8
.Lfunc_end8:
	.size	getChroma4x4Neighbour, .Lfunc_end8-getChroma4x4Neighbour
	.cfi_endproc
                                        # -- End function
	.globl	get_mb_pos.1            # -- Begin function get_mb_pos.1
	.p2align	4, 0x90
	.type	get_mb_pos.1,@function
get_mb_pos.1:                           # @get_mb_pos.1
	.cfi_startproc
# %bb.0:                                # %entry
	pushq	%rbp
	.cfi_def_cfa_offset 16
	.cfi_offset %rbp, -16
	movq	%rsp, %rbp
	.cfi_def_cfa_register %rbp
	subq	$32, %rsp
	movl	$201798508, -8(%rbp)    # imm = 0xC07336C
	movl	%edi, -4(%rbp)
	movq	%rsi, -24(%rbp)
	movq	%rdx, -16(%rbp)
	movl	-4(%rbp), %edi
	movq	-24(%rbp), %rsi
	movq	-16(%rbp), %rdx
	callq	get_mb_block_pos
	movq	-24(%rbp), %rax
	movl	(%rax), %ecx
	shll	$4, %ecx
	movl	%ecx, (%rax)
	movq	-16(%rbp), %rax
	movl	(%rax), %ecx
	shll	$4, %ecx
	movl	%ecx, (%rax)
	cmpl	$201798508, -8(%rbp)    # imm = 0xC07336C
	jne	.LBB9_2
.LBB9_1:
	addq	$32, %rsp
	popq	%rbp
	.cfi_def_cfa %rsp, 8
	retq
.LBB9_2:                                # %func_exit
	.cfi_def_cfa %rbp, 16
	callq	detect_breach
	jmp	.LBB9_1
.Lfunc_end9:
	.size	get_mb_pos.1, .Lfunc_end9-get_mb_pos.1
	.cfi_endproc
                                        # -- End function
	.globl	mb_is_available.2       # -- Begin function mb_is_available.2
	.p2align	4, 0x90
	.type	mb_is_available.2,@function
mb_is_available.2:                      # @mb_is_available.2
	.cfi_startproc
# %bb.0:                                # %entry
	pushq	%rbp
	.cfi_def_cfa_offset 16
	.cfi_offset %rbp, -16
	movq	%rsp, %rbp
	.cfi_def_cfa_register %rbp
	pushq	%rbx
	subq	$24, %rsp
	.cfi_offset %rbx, -24
	movl	$1257870852, -24(%rbp)  # imm = 0x4AF99604
	movl	%edi, -12(%rbp)
	movl	%esi, -20(%rbp)
	cmpl	$0, -12(%rbp)
	jl	.LBB10_2
# %bb.1:                                # %lor.lhs.false
	movl	-12(%rbp), %eax
	movq	img, %rcx
	movl	72484(%rcx), %ecx
	subl	$1, %ecx
	cmpl	%ecx, %eax
	jle	.LBB10_3
.LBB10_2:                               # %if.then
	movl	$0, -16(%rbp)
	jmp	.LBB10_8
.LBB10_3:                               # %if.end
	movq	img, %rax
	cmpl	$0, 72636(%rax)
	jne	.LBB10_7
# %bb.4:                                # %if.then2
	movq	img, %rax
	movq	14168(%rax), %rax
	movslq	-12(%rbp), %rcx
	imulq	$632, %rcx, %rcx        # imm = 0x278
	addq	%rcx, %rax
	movl	4(%rax), %eax
	movq	img, %rcx
	movq	14168(%rcx), %rcx
	movslq	-20(%rbp), %rdx
	imulq	$632, %rdx, %rdx        # imm = 0x278
	addq	%rdx, %rcx
	cmpl	4(%rcx), %eax
	je	.LBB10_6
# %bb.5:                                # %if.then8
	movl	$0, -16(%rbp)
	jmp	.LBB10_8
.LBB10_6:                               # %if.end9
	jmp	.LBB10_7
.LBB10_7:                               # %if.end10
	movl	$1, -16(%rbp)
.LBB10_8:                               # %return
	movl	-16(%rbp), %ebx
	cmpl	$1257870852, -24(%rbp)  # imm = 0x4AF99604
	jne	.LBB10_10
.LBB10_9:
	movl	%ebx, %eax
	addq	$24, %rsp
	popq	%rbx
	popq	%rbp
	.cfi_def_cfa %rsp, 8
	retq
.LBB10_10:                              # %func_exit
	.cfi_def_cfa %rbp, 16
	callq	detect_breach
	jmp	.LBB10_9
.Lfunc_end10:
	.size	mb_is_available.2, .Lfunc_end10-mb_is_available.2
	.cfi_endproc
                                        # -- End function
	.globl	getNonAffNeighbour.3    # -- Begin function getNonAffNeighbour.3
	.p2align	4, 0x90
	.type	getNonAffNeighbour.3,@function
getNonAffNeighbour.3:                   # @getNonAffNeighbour.3
	.cfi_startproc
# %bb.0:                                # %entry
	pushq	%rbp
	.cfi_def_cfa_offset 16
	.cfi_offset %rbp, -16
	movq	%rsp, %rbp
	.cfi_def_cfa_register %rbp
	subq	$48, %rsp
	movl	$329510409, -44(%rbp)   # imm = 0x13A3EE09
	movl	%edi, -36(%rbp)
	movl	%esi, -12(%rbp)
	movl	%edx, -16(%rbp)
	movl	%ecx, -40(%rbp)
	movq	%r8, -8(%rbp)
	movq	img, %rax
	movq	14168(%rax), %rax
	movl	-36(%rbp), %ecx
	imulq	$632, %rcx, %rcx        # imm = 0x278
	addq	%rcx, %rax
	movq	%rax, -32(%rbp)
	cmpl	$0, -40(%rbp)
	je	.LBB11_2
# %bb.1:                                # %if.then
	movl	$16, -20(%rbp)
	movl	$16, -24(%rbp)
	jmp	.LBB11_3
.LBB11_2:                               # %if.else
	movq	img, %rax
	movl	72708(%rax), %eax
	movl	%eax, -20(%rbp)
	movq	img, %rax
	movl	72712(%rax), %eax
	movl	%eax, -24(%rbp)
.LBB11_3:                               # %if.end
	cmpl	$0, -12(%rbp)
	jge	.LBB11_6
# %bb.4:                                # %land.lhs.true
	cmpl	$0, -16(%rbp)
	jge	.LBB11_6
# %bb.5:                                # %if.then2
	movq	-32(%rbp), %rax
	movl	548(%rax), %eax
	movq	-8(%rbp), %rcx
	movl	%eax, 4(%rcx)
	movq	-32(%rbp), %rax
	movl	564(%rax), %eax
	movq	-8(%rbp), %rcx
	movl	%eax, (%rcx)
	jmp	.LBB11_27
.LBB11_6:                               # %if.else3
	cmpl	$0, -12(%rbp)
	jge	.LBB11_10
# %bb.7:                                # %land.lhs.true5
	cmpl	$0, -16(%rbp)
	jl	.LBB11_10
# %bb.8:                                # %land.lhs.true7
	movl	-16(%rbp), %eax
	cmpl	-24(%rbp), %eax
	jge	.LBB11_10
# %bb.9:                                # %if.then9
	movq	-32(%rbp), %rax
	movl	536(%rax), %eax
	movq	-8(%rbp), %rcx
	movl	%eax, 4(%rcx)
	movq	-32(%rbp), %rax
	movl	552(%rax), %eax
	movq	-8(%rbp), %rcx
	movl	%eax, (%rcx)
	jmp	.LBB11_26
.LBB11_10:                              # %if.else12
	cmpl	$0, -12(%rbp)
	jl	.LBB11_14
# %bb.11:                               # %land.lhs.true14
	movl	-12(%rbp), %eax
	cmpl	-20(%rbp), %eax
	jge	.LBB11_14
# %bb.12:                               # %land.lhs.true16
	cmpl	$0, -16(%rbp)
	jge	.LBB11_14
# %bb.13:                               # %if.then18
	movq	-32(%rbp), %rax
	movl	540(%rax), %eax
	movq	-8(%rbp), %rcx
	movl	%eax, 4(%rcx)
	movq	-32(%rbp), %rax
	movl	556(%rax), %eax
	movq	-8(%rbp), %rcx
	movl	%eax, (%rcx)
	jmp	.LBB11_25
.LBB11_14:                              # %if.else21
	cmpl	$0, -12(%rbp)
	jl	.LBB11_19
# %bb.15:                               # %land.lhs.true23
	movl	-12(%rbp), %eax
	cmpl	-20(%rbp), %eax
	jge	.LBB11_19
# %bb.16:                               # %land.lhs.true25
	cmpl	$0, -16(%rbp)
	jl	.LBB11_19
# %bb.17:                               # %land.lhs.true27
	movl	-16(%rbp), %eax
	cmpl	-24(%rbp), %eax
	jge	.LBB11_19
# %bb.18:                               # %if.then29
	movl	-36(%rbp), %eax
	movq	-8(%rbp), %rcx
	movl	%eax, 4(%rcx)
	movq	-8(%rbp), %rax
	movl	$1, (%rax)
	jmp	.LBB11_24
.LBB11_19:                              # %if.else32
	movl	-12(%rbp), %eax
	cmpl	-20(%rbp), %eax
	jl	.LBB11_22
# %bb.20:                               # %land.lhs.true34
	cmpl	$0, -16(%rbp)
	jge	.LBB11_22
# %bb.21:                               # %if.then36
	movq	-32(%rbp), %rax
	movl	544(%rax), %eax
	movq	-8(%rbp), %rcx
	movl	%eax, 4(%rcx)
	movq	-32(%rbp), %rax
	movl	560(%rax), %eax
	movq	-8(%rbp), %rcx
	movl	%eax, (%rcx)
	jmp	.LBB11_23
.LBB11_22:                              # %if.else39
	movq	-8(%rbp), %rax
	movl	$0, (%rax)
.LBB11_23:                              # %if.end41
	jmp	.LBB11_24
.LBB11_24:                              # %if.end42
	jmp	.LBB11_25
.LBB11_25:                              # %if.end43
	jmp	.LBB11_26
.LBB11_26:                              # %if.end44
	jmp	.LBB11_27
.LBB11_27:                              # %if.end45
	movq	-8(%rbp), %rax
	cmpl	$0, (%rax)
	jne	.LBB11_29
# %bb.28:                               # %lor.lhs.false
	movq	img, %rax
	cmpl	$0, 72636(%rax)
	je	.LBB11_33
.LBB11_29:                              # %if.then49
	movl	-12(%rbp), %eax
	addl	-20(%rbp), %eax
	cltd
	idivl	-20(%rbp)
	movq	-8(%rbp), %rax
	movl	%edx, 8(%rax)
	movl	-16(%rbp), %eax
	addl	-24(%rbp), %eax
	cltd
	idivl	-24(%rbp)
	movq	-8(%rbp), %rax
	movl	%edx, 12(%rax)
	movq	-8(%rbp), %rax
	movl	4(%rax), %edi
	movq	-8(%rbp), %rsi
	addq	$16, %rsi
	movq	-8(%rbp), %rdx
	addq	$20, %rdx
	callq	get_mb_pos
	cmpl	$0, -40(%rbp)
	je	.LBB11_31
# %bb.30:                               # %if.then54
	movq	-8(%rbp), %rax
	movl	8(%rax), %eax
	movq	-8(%rbp), %rcx
	addl	16(%rcx), %eax
	movl	%eax, 16(%rcx)
	movq	-8(%rbp), %rax
	movl	12(%rax), %eax
	movq	-8(%rbp), %rcx
	addl	20(%rcx), %eax
	movl	%eax, 20(%rcx)
	jmp	.LBB11_32
.LBB11_31:                              # %if.else61
	movq	-8(%rbp), %rax
	movl	16(%rax), %ecx
	movq	img, %rsi
	movl	$16, %eax
	cltd
	idivl	72708(%rsi)
	movl	%eax, %esi
	movl	%ecx, %eax
	cltd
	idivl	%esi
	movq	-8(%rbp), %rcx
	addl	8(%rcx), %eax
	movq	-8(%rbp), %rcx
	movl	%eax, 16(%rcx)
	movq	-8(%rbp), %rax
	movl	20(%rax), %ecx
	movq	img, %rsi
	movl	$16, %eax
	cltd
	idivl	72712(%rsi)
	movl	%eax, %esi
	movl	%ecx, %eax
	cltd
	idivl	%esi
	movq	-8(%rbp), %rcx
	addl	12(%rcx), %eax
	movq	-8(%rbp), %rcx
	movl	%eax, 20(%rcx)
.LBB11_32:                              # %if.end75
	jmp	.LBB11_33
.LBB11_33:                              # %if.end76
	cmpl	$329510409, -44(%rbp)   # imm = 0x13A3EE09
	jne	.LBB11_35
.LBB11_34:
	addq	$48, %rsp
	popq	%rbp
	.cfi_def_cfa %rsp, 8
	retq
.LBB11_35:                              # %func_exit
	.cfi_def_cfa %rbp, 16
	callq	detect_breach
	jmp	.LBB11_34
.Lfunc_end11:
	.size	getNonAffNeighbour.3, .Lfunc_end11-getNonAffNeighbour.3
	.cfi_endproc
                                        # -- End function
	.globl	getLuma4x4Neighbour.4   # -- Begin function getLuma4x4Neighbour.4
	.p2align	4, 0x90
	.type	getLuma4x4Neighbour.4,@function
getLuma4x4Neighbour.4:                  # @getLuma4x4Neighbour.4
	.cfi_startproc
# %bb.0:                                # %entry
	pushq	%rbp
	.cfi_def_cfa_offset 16
	.cfi_offset %rbp, -16
	movq	%rsp, %rbp
	.cfi_def_cfa_register %rbp
	subq	$48, %rsp
	movl	$26947656, -36(%rbp)    # imm = 0x19B3048
	movl	%edi, -32(%rbp)
	movl	%esi, -20(%rbp)
	movl	%edx, -40(%rbp)
	movl	%ecx, -12(%rbp)
	movl	%r8d, -28(%rbp)
	movq	%r9, -8(%rbp)
	movl	-20(%rbp), %eax
	shll	$2, %eax
	addl	-12(%rbp), %eax
	movl	%eax, -24(%rbp)
	movl	-40(%rbp), %eax
	shll	$2, %eax
	addl	-28(%rbp), %eax
	movl	%eax, -16(%rbp)
	movl	-32(%rbp), %edi
	movl	-24(%rbp), %esi
	movl	-16(%rbp), %edx
	movq	-8(%rbp), %r8
	movl	$1, %ecx
	callq	getNeighbour
	movq	-8(%rbp), %rax
	cmpl	$0, (%rax)
	je	.LBB12_2
# %bb.1:                                # %if.then
	movq	-8(%rbp), %rcx
	movl	8(%rcx), %eax
	cltd
	movl	$4, %esi
	idivl	%esi
	movl	%eax, 8(%rcx)
	movq	-8(%rbp), %rcx
	movl	12(%rcx), %eax
	cltd
	idivl	%esi
	movl	%eax, 12(%rcx)
	movq	-8(%rbp), %rcx
	movl	16(%rcx), %eax
	cltd
	idivl	%esi
	movl	%eax, 16(%rcx)
	movq	-8(%rbp), %rcx
	movl	20(%rcx), %eax
	cltd
	idivl	%esi
	movl	%eax, 20(%rcx)
.LBB12_2:                               # %if.end
	cmpl	$26947656, -36(%rbp)    # imm = 0x19B3048
	jne	.LBB12_4
.LBB12_3:
	addq	$48, %rsp
	popq	%rbp
	.cfi_def_cfa %rsp, 8
	retq
.LBB12_4:                               # %func_exit
	.cfi_def_cfa %rbp, 16
	callq	detect_breach
	jmp	.LBB12_3
.Lfunc_end12:
	.size	getLuma4x4Neighbour.4, .Lfunc_end12-getLuma4x4Neighbour.4
	.cfi_endproc
                                        # -- End function
	.globl	CheckAvailabilityOfNeighbors.5 # -- Begin function CheckAvailabilityOfNeighbors.5
	.p2align	4, 0x90
	.type	CheckAvailabilityOfNeighbors.5,@function
CheckAvailabilityOfNeighbors.5:         # @CheckAvailabilityOfNeighbors.5
	.cfi_startproc
# %bb.0:                                # %entry
	pushq	%rbp
	.cfi_def_cfa_offset 16
	.cfi_offset %rbp, -16
	movq	%rsp, %rbp
	.cfi_def_cfa_register %rbp
	subq	$32, %rsp
	movl	$1609692403, -20(%rbp)  # imm = 0x5FF1F4F3
	movq	img, %rax
	movl	12(%rax), %eax
	movl	%eax, -4(%rbp)
	movq	img, %rax
	movq	14168(%rax), %rax
	movslq	-4(%rbp), %rcx
	imulq	$632, %rcx, %rcx        # imm = 0x278
	addq	%rcx, %rax
	movq	%rax, -16(%rbp)
	movq	-16(%rbp), %rax
	movq	$0, 56(%rax)
	movq	-16(%rbp), %rax
	movq	$0, 64(%rax)
	movq	img, %rax
	cmpl	$0, 72400(%rax)
	je	.LBB13_8
# %bb.1:                                # %if.then
	movl	-4(%rbp), %eax
	cltd
	movl	$2, %ecx
	idivl	%ecx
	subl	$1, %eax
	shll	$1, %eax
	movq	-16(%rbp), %rdx
	movl	%eax, 536(%rdx)
	movl	-4(%rbp), %eax
	cltd
	idivl	%ecx
	movq	img, %rdx
	subl	72468(%rdx), %eax
	shll	$1, %eax
	movq	-16(%rbp), %rdx
	movl	%eax, 540(%rdx)
	movl	-4(%rbp), %eax
	cltd
	idivl	%ecx
	movq	img, %rdx
	subl	72468(%rdx), %eax
	addl	$1, %eax
	shll	$1, %eax
	movq	-16(%rbp), %rdx
	movl	%eax, 544(%rdx)
	movl	-4(%rbp), %eax
	cltd
	idivl	%ecx
	movq	img, %rcx
	subl	72468(%rcx), %eax
	subl	$1, %eax
	shll	$1, %eax
	movq	-16(%rbp), %rcx
	movl	%eax, 548(%rcx)
	movq	-16(%rbp), %rax
	movl	536(%rax), %edi
	movl	-4(%rbp), %esi
	callq	mb_is_available
	xorl	%ecx, %ecx
	cmpl	$0, %eax
	je	.LBB13_3
# %bb.2:                                # %land.rhs
	movl	-4(%rbp), %eax
	cltd
	movl	$2, %ecx
	idivl	%ecx
	movq	img, %rcx
	xorl	%edx, %edx
	divl	72468(%rcx)
	cmpl	$0, %edx
	setne	%cl
.LBB13_3:                               # %land.end
	andb	$1, %cl
	movzbl	%cl, %eax
	movq	-16(%rbp), %rcx
	movl	%eax, 552(%rcx)
	movq	-16(%rbp), %rax
	movl	540(%rax), %edi
	movl	-4(%rbp), %esi
	callq	mb_is_available
	movq	-16(%rbp), %rcx
	movl	%eax, 556(%rcx)
	movq	-16(%rbp), %rax
	movl	544(%rax), %edi
	movl	-4(%rbp), %esi
	callq	mb_is_available
	xorl	%ecx, %ecx
	cmpl	$0, %eax
	je	.LBB13_5
# %bb.4:                                # %land.rhs22
	movl	-4(%rbp), %eax
	cltd
	movl	$2, %ecx
	idivl	%ecx
	addl	$1, %eax
	movq	img, %rcx
	xorl	%edx, %edx
	divl	72468(%rcx)
	cmpl	$0, %edx
	setne	%cl
.LBB13_5:                               # %land.end28
	andb	$1, %cl
	movzbl	%cl, %eax
	movq	-16(%rbp), %rcx
	movl	%eax, 560(%rcx)
	movq	-16(%rbp), %rax
	movl	548(%rax), %edi
	movl	-4(%rbp), %esi
	callq	mb_is_available
	xorl	%ecx, %ecx
	cmpl	$0, %eax
	je	.LBB13_7
# %bb.6:                                # %land.rhs33
	movl	-4(%rbp), %eax
	cltd
	movl	$2, %ecx
	idivl	%ecx
	movq	img, %rcx
	xorl	%edx, %edx
	divl	72468(%rcx)
	cmpl	$0, %edx
	setne	%cl
.LBB13_7:                               # %land.end38
	andb	$1, %cl
	movzbl	%cl, %eax
	movq	-16(%rbp), %rcx
	movl	%eax, 564(%rcx)
	jmp	.LBB13_15
.LBB13_8:                               # %if.else
	movl	-4(%rbp), %eax
	subl	$1, %eax
	movq	-16(%rbp), %rcx
	movl	%eax, 536(%rcx)
	movl	-4(%rbp), %eax
	movq	img, %rcx
	subl	72468(%rcx), %eax
	movq	-16(%rbp), %rcx
	movl	%eax, 540(%rcx)
	movl	-4(%rbp), %eax
	movq	img, %rcx
	subl	72468(%rcx), %eax
	addl	$1, %eax
	movq	-16(%rbp), %rcx
	movl	%eax, 544(%rcx)
	movl	-4(%rbp), %eax
	movq	img, %rcx
	subl	72468(%rcx), %eax
	subl	$1, %eax
	movq	-16(%rbp), %rcx
	movl	%eax, 548(%rcx)
	movq	-16(%rbp), %rax
	movl	536(%rax), %edi
	movl	-4(%rbp), %esi
	callq	mb_is_available
	xorl	%ecx, %ecx
	cmpl	$0, %eax
	je	.LBB13_10
# %bb.9:                                # %land.rhs56
	movl	-4(%rbp), %eax
	movq	img, %rcx
	xorl	%edx, %edx
	divl	72468(%rcx)
	cmpl	$0, %edx
	setne	%cl
.LBB13_10:                              # %land.end60
	andb	$1, %cl
	movzbl	%cl, %eax
	movq	-16(%rbp), %rcx
	movl	%eax, 552(%rcx)
	movq	-16(%rbp), %rax
	movl	540(%rax), %edi
	movl	-4(%rbp), %esi
	callq	mb_is_available
	movq	-16(%rbp), %rcx
	movl	%eax, 556(%rcx)
	movq	-16(%rbp), %rax
	movl	544(%rax), %edi
	movl	-4(%rbp), %esi
	callq	mb_is_available
	xorl	%ecx, %ecx
	cmpl	$0, %eax
	je	.LBB13_12
# %bb.11:                               # %land.rhs69
	movl	-4(%rbp), %eax
	addl	$1, %eax
	movq	img, %rcx
	xorl	%edx, %edx
	divl	72468(%rcx)
	cmpl	$0, %edx
	setne	%cl
.LBB13_12:                              # %land.end74
	andb	$1, %cl
	movzbl	%cl, %eax
	movq	-16(%rbp), %rcx
	movl	%eax, 560(%rcx)
	movq	-16(%rbp), %rax
	movl	548(%rax), %edi
	movl	-4(%rbp), %esi
	callq	mb_is_available
	xorl	%ecx, %ecx
	cmpl	$0, %eax
	je	.LBB13_14
# %bb.13:                               # %land.rhs80
	movl	-4(%rbp), %eax
	movq	img, %rcx
	xorl	%edx, %edx
	divl	72468(%rcx)
	cmpl	$0, %edx
	setne	%cl
.LBB13_14:                              # %land.end84
	andb	$1, %cl
	movzbl	%cl, %eax
	movq	-16(%rbp), %rcx
	movl	%eax, 564(%rcx)
.LBB13_15:                              # %if.end
	movq	-16(%rbp), %rax
	cmpl	$0, 552(%rax)
	je	.LBB13_17
# %bb.16:                               # %if.then89
	movq	img, %rax
	movq	14168(%rax), %rax
	movq	-16(%rbp), %rcx
	movslq	536(%rcx), %rcx
	imulq	$632, %rcx, %rcx        # imm = 0x278
	addq	%rcx, %rax
	movq	-16(%rbp), %rcx
	movq	%rax, 64(%rcx)
.LBB13_17:                              # %if.end95
	movq	-16(%rbp), %rax
	cmpl	$0, 556(%rax)
	je	.LBB13_19
# %bb.18:                               # %if.then98
	movq	img, %rax
	movq	14168(%rax), %rax
	movq	-16(%rbp), %rcx
	movslq	540(%rcx), %rcx
	imulq	$632, %rcx, %rcx        # imm = 0x278
	addq	%rcx, %rax
	movq	-16(%rbp), %rcx
	movq	%rax, 56(%rcx)
.LBB13_19:                              # %if.end104
	cmpl	$1609692403, -20(%rbp)  # imm = 0x5FF1F4F3
	jne	.LBB13_21
.LBB13_20:
	addq	$32, %rsp
	popq	%rbp
	.cfi_def_cfa %rsp, 8
	retq
.LBB13_21:                              # %func_exit
	.cfi_def_cfa %rbp, 16
	callq	detect_breach
	jmp	.LBB13_20
.Lfunc_end13:
	.size	CheckAvailabilityOfNeighbors.5, .Lfunc_end13-CheckAvailabilityOfNeighbors.5
	.cfi_endproc
                                        # -- End function
	.globl	getNeighbour.6          # -- Begin function getNeighbour.6
	.p2align	4, 0x90
	.type	getNeighbour.6,@function
getNeighbour.6:                         # @getNeighbour.6
	.cfi_startproc
# %bb.0:                                # %entry
	pushq	%rbp
	.cfi_def_cfa_offset 16
	.cfi_offset %rbp, -16
	movq	%rsp, %rbp
	.cfi_def_cfa_register %rbp
	subq	$32, %rsp
	movl	$547914552, -20(%rbp)   # imm = 0x20A88338
	movl	%edi, -4(%rbp)
	movl	%esi, -8(%rbp)
	movl	%edx, -16(%rbp)
	movl	%ecx, -12(%rbp)
	movq	%r8, -32(%rbp)
	cmpl	$0, -4(%rbp)
	jge	.LBB14_2
# %bb.1:                                # %if.then
	movabsq	$.L.str, %rdi
	movl	$100, %esi
	callq	error
.LBB14_2:                               # %if.end
	movq	img, %rax
	cmpl	$0, 72400(%rax)
	je	.LBB14_4
# %bb.3:                                # %if.then1
	movl	-4(%rbp), %edi
	movl	-8(%rbp), %esi
	movl	-16(%rbp), %edx
	movl	-12(%rbp), %ecx
	movq	-32(%rbp), %r8
	callq	getAffNeighbour
	jmp	.LBB14_5
.LBB14_4:                               # %if.else
	movl	-4(%rbp), %edi
	movl	-8(%rbp), %esi
	movl	-16(%rbp), %edx
	movl	-12(%rbp), %ecx
	movq	-32(%rbp), %r8
	callq	getNonAffNeighbour
.LBB14_5:                               # %if.end2
	cmpl	$547914552, -20(%rbp)   # imm = 0x20A88338
	jne	.LBB14_7
.LBB14_6:
	addq	$32, %rsp
	popq	%rbp
	.cfi_def_cfa %rsp, 8
	retq
.LBB14_7:                               # %func_exit
	.cfi_def_cfa %rbp, 16
	callq	detect_breach
	jmp	.LBB14_6
.Lfunc_end14:
	.size	getNeighbour.6, .Lfunc_end14-getNeighbour.6
	.cfi_endproc
                                        # -- End function
	.globl	get_mb_block_pos.7      # -- Begin function get_mb_block_pos.7
	.p2align	4, 0x90
	.type	get_mb_block_pos.7,@function
get_mb_block_pos.7:                     # @get_mb_block_pos.7
	.cfi_startproc
# %bb.0:                                # %entry
	pushq	%rbp
	.cfi_def_cfa_offset 16
	.cfi_offset %rbp, -16
	movq	%rsp, %rbp
	.cfi_def_cfa_register %rbp
	subq	$32, %rsp
	movl	$1235061937, -8(%rbp)   # imm = 0x499D8CB1
	movl	%edi, -4(%rbp)
	movq	%rsi, -16(%rbp)
	movq	%rdx, -24(%rbp)
	movq	img, %rax
	cmpl	$0, 72400(%rax)
	je	.LBB15_2
# %bb.1:                                # %if.then
	movl	-4(%rbp), %eax
	cltd
	movl	$2, %esi
	idivl	%esi
	movq	img, %rcx
	xorl	%edx, %edx
	divl	72468(%rcx)
	movq	-16(%rbp), %rax
	movl	%edx, (%rax)
	movl	-4(%rbp), %eax
	cltd
	idivl	%esi
	movq	img, %rcx
	xorl	%edx, %edx
	divl	72468(%rcx)
	movl	%eax, %ecx
	shll	$1, %ecx
	movl	-4(%rbp), %eax
	cltd
	idivl	%esi
	addl	%edx, %ecx
	movq	-24(%rbp), %rax
	movl	%ecx, (%rax)
	jmp	.LBB15_3
.LBB15_2:                               # %if.else
	movl	-4(%rbp), %eax
	movq	img, %rcx
	xorl	%edx, %edx
	divl	72468(%rcx)
	movq	-16(%rbp), %rax
	movl	%edx, (%rax)
	movl	-4(%rbp), %eax
	movq	img, %rcx
	xorl	%edx, %edx
	divl	72468(%rcx)
	movq	-24(%rbp), %rcx
	movl	%eax, (%rcx)
.LBB15_3:                               # %if.end
	cmpl	$1235061937, -8(%rbp)   # imm = 0x499D8CB1
	jne	.LBB15_5
.LBB15_4:
	addq	$32, %rsp
	popq	%rbp
	.cfi_def_cfa %rsp, 8
	retq
.LBB15_5:                               # %func_exit
	.cfi_def_cfa %rbp, 16
	callq	detect_breach
	jmp	.LBB15_4
.Lfunc_end15:
	.size	get_mb_block_pos.7, .Lfunc_end15-get_mb_block_pos.7
	.cfi_endproc
                                        # -- End function
	.globl	getNeighbour.8          # -- Begin function getNeighbour.8
	.p2align	4, 0x90
	.type	getNeighbour.8,@function
getNeighbour.8:                         # @getNeighbour.8
	.cfi_startproc
# %bb.0:                                # %entry
	pushq	%rbp
	.cfi_def_cfa_offset 16
	.cfi_offset %rbp, -16
	movq	%rsp, %rbp
	.cfi_def_cfa_register %rbp
	subq	$32, %rsp
	movl	$1547404051, -20(%rbp)  # imm = 0x5C3B8313
	movl	%edi, -4(%rbp)
	movl	%esi, -16(%rbp)
	movl	%edx, -8(%rbp)
	movl	%ecx, -12(%rbp)
	movq	%r8, -32(%rbp)
	cmpl	$0, -4(%rbp)
	jge	.LBB16_2
# %bb.1:                                # %if.then
	movabsq	$.L.str, %rdi
	movl	$100, %esi
	callq	error
.LBB16_2:                               # %if.end
	movq	img, %rax
	cmpl	$0, 72400(%rax)
	je	.LBB16_4
# %bb.3:                                # %if.then1
	movl	-4(%rbp), %edi
	movl	-16(%rbp), %esi
	movl	-8(%rbp), %edx
	movl	-12(%rbp), %ecx
	movq	-32(%rbp), %r8
	callq	getAffNeighbour
	jmp	.LBB16_5
.LBB16_4:                               # %if.else
	movl	-4(%rbp), %edi
	movl	-16(%rbp), %esi
	movl	-8(%rbp), %edx
	movl	-12(%rbp), %ecx
	movq	-32(%rbp), %r8
	callq	getNonAffNeighbour
.LBB16_5:                               # %if.end2
	cmpl	$1547404051, -20(%rbp)  # imm = 0x5C3B8313
	jne	.LBB16_7
.LBB16_6:
	addq	$32, %rsp
	popq	%rbp
	.cfi_def_cfa %rsp, 8
	retq
.LBB16_7:                               # %func_exit
	.cfi_def_cfa %rbp, 16
	callq	detect_breach
	jmp	.LBB16_6
.Lfunc_end16:
	.size	getNeighbour.8, .Lfunc_end16-getNeighbour.8
	.cfi_endproc
                                        # -- End function
	.globl	get_mb_pos.9            # -- Begin function get_mb_pos.9
	.p2align	4, 0x90
	.type	get_mb_pos.9,@function
get_mb_pos.9:                           # @get_mb_pos.9
	.cfi_startproc
# %bb.0:                                # %entry
	pushq	%rbp
	.cfi_def_cfa_offset 16
	.cfi_offset %rbp, -16
	movq	%rsp, %rbp
	.cfi_def_cfa_register %rbp
	subq	$32, %rsp
	movl	$2098567319, -8(%rbp)   # imm = 0x7D159897
	movl	%edi, -4(%rbp)
	movq	%rsi, -24(%rbp)
	movq	%rdx, -16(%rbp)
	movl	-4(%rbp), %edi
	movq	-24(%rbp), %rsi
	movq	-16(%rbp), %rdx
	callq	get_mb_block_pos
	movq	-24(%rbp), %rax
	movl	(%rax), %ecx
	shll	$4, %ecx
	movl	%ecx, (%rax)
	movq	-16(%rbp), %rax
	movl	(%rax), %ecx
	shll	$4, %ecx
	movl	%ecx, (%rax)
	cmpl	$2098567319, -8(%rbp)   # imm = 0x7D159897
	jne	.LBB17_2
.LBB17_1:
	addq	$32, %rsp
	popq	%rbp
	.cfi_def_cfa %rsp, 8
	retq
.LBB17_2:                               # %func_exit
	.cfi_def_cfa %rbp, 16
	callq	detect_breach
	jmp	.LBB17_1
.Lfunc_end17:
	.size	get_mb_pos.9, .Lfunc_end17-get_mb_pos.9
	.cfi_endproc
                                        # -- End function
	.globl	getChroma4x4Neighbour.10 # -- Begin function getChroma4x4Neighbour.10
	.p2align	4, 0x90
	.type	getChroma4x4Neighbour.10,@function
getChroma4x4Neighbour.10:               # @getChroma4x4Neighbour.10
	.cfi_startproc
# %bb.0:                                # %entry
	pushq	%rbp
	.cfi_def_cfa_offset 16
	.cfi_offset %rbp, -16
	movq	%rsp, %rbp
	.cfi_def_cfa_register %rbp
	subq	$48, %rsp
	movl	$1812792905, -36(%rbp)  # imm = 0x6C0D0649
	movl	%edi, -16(%rbp)
	movl	%esi, -40(%rbp)
	movl	%edx, -32(%rbp)
	movl	%ecx, -20(%rbp)
	movl	%r8d, -24(%rbp)
	movq	%r9, -8(%rbp)
	movl	-40(%rbp), %eax
	shll	$2, %eax
	addl	-20(%rbp), %eax
	movl	%eax, -12(%rbp)
	movl	-32(%rbp), %eax
	shll	$2, %eax
	addl	-24(%rbp), %eax
	movl	%eax, -28(%rbp)
	movl	-16(%rbp), %edi
	movl	-12(%rbp), %esi
	movl	-28(%rbp), %edx
	movq	-8(%rbp), %r8
	xorl	%ecx, %ecx
	callq	getNeighbour
	movq	-8(%rbp), %rax
	cmpl	$0, (%rax)
	je	.LBB18_2
# %bb.1:                                # %if.then
	movq	-8(%rbp), %rcx
	movl	8(%rcx), %eax
	cltd
	movl	$4, %esi
	idivl	%esi
	movl	%eax, 8(%rcx)
	movq	-8(%rbp), %rcx
	movl	12(%rcx), %eax
	cltd
	idivl	%esi
	movl	%eax, 12(%rcx)
	movq	-8(%rbp), %rcx
	movl	16(%rcx), %eax
	cltd
	idivl	%esi
	movl	%eax, 16(%rcx)
	movq	-8(%rbp), %rcx
	movl	20(%rcx), %eax
	cltd
	idivl	%esi
	movl	%eax, 20(%rcx)
.LBB18_2:                               # %if.end
	cmpl	$1812792905, -36(%rbp)  # imm = 0x6C0D0649
	jne	.LBB18_4
.LBB18_3:
	addq	$48, %rsp
	popq	%rbp
	.cfi_def_cfa %rsp, 8
	retq
.LBB18_4:                               # %func_exit
	.cfi_def_cfa %rbp, 16
	callq	detect_breach
	jmp	.LBB18_3
.Lfunc_end18:
	.size	getChroma4x4Neighbour.10, .Lfunc_end18-getChroma4x4Neighbour.10
	.cfi_endproc
                                        # -- End function
	.globl	getAffNeighbour.11      # -- Begin function getAffNeighbour.11
	.p2align	4, 0x90
	.type	getAffNeighbour.11,@function
getAffNeighbour.11:                     # @getAffNeighbour.11
	.cfi_startproc
# %bb.0:                                # %entry
	pushq	%rbp
	.cfi_def_cfa_offset 16
	.cfi_offset %rbp, -16
	movq	%rsp, %rbp
	.cfi_def_cfa_register %rbp
	subq	$64, %rsp
	movl	$666459776, -56(%rbp)   # imm = 0x27B95E80
	movl	%edi, -40(%rbp)
	movl	%esi, -44(%rbp)
	movl	%edx, -4(%rbp)
	movl	%ecx, -52(%rbp)
	movq	%r8, -16(%rbp)
	movq	img, %rax
	movq	14168(%rax), %rax
	movl	-40(%rbp), %ecx
	imulq	$632, %rcx, %rcx        # imm = 0x278
	addq	%rcx, %rax
	movq	%rax, -32(%rbp)
	movl	$-1, -20(%rbp)
	cmpl	$0, -52(%rbp)
	je	.LBB19_2
# %bb.1:                                # %if.then
	movl	$16, -48(%rbp)
	movl	$16, -36(%rbp)
	jmp	.LBB19_3
.LBB19_2:                               # %if.else
	movq	img, %rax
	movl	72708(%rax), %eax
	movl	%eax, -48(%rbp)
	movq	img, %rax
	movl	72712(%rax), %eax
	movl	%eax, -36(%rbp)
.LBB19_3:                               # %if.end
	movq	-16(%rbp), %rax
	movl	$0, (%rax)
	movl	-4(%rbp), %eax
	movl	-36(%rbp), %ecx
	subl	$1, %ecx
	cmpl	%ecx, %eax
	jle	.LBB19_5
# %bb.4:                                # %if.then1
	jmp	.LBB19_133
.LBB19_5:                               # %if.end2
	movl	-44(%rbp), %eax
	movl	-48(%rbp), %ecx
	subl	$1, %ecx
	cmpl	%ecx, %eax
	jle	.LBB19_9
# %bb.6:                                # %land.lhs.true
	cmpl	$0, -4(%rbp)
	jl	.LBB19_9
# %bb.7:                                # %land.lhs.true6
	movl	-4(%rbp), %eax
	cmpl	-36(%rbp), %eax
	jge	.LBB19_9
# %bb.8:                                # %if.then8
	jmp	.LBB19_133
.LBB19_9:                               # %if.end9
	cmpl	$0, -44(%rbp)
	jge	.LBB19_77
# %bb.10:                               # %if.then11
	cmpl	$0, -4(%rbp)
	jge	.LBB19_31
# %bb.11:                               # %if.then13
	movq	-32(%rbp), %rax
	cmpl	$0, 532(%rax)
	jne	.LBB19_21
# %bb.12:                               # %if.then15
	movl	-40(%rbp), %eax
	andl	$1, %eax
	cmpl	$0, %eax
	jne	.LBB19_14
# %bb.13:                               # %if.then17
	movq	-32(%rbp), %rax
	movl	548(%rax), %eax
	addl	$1, %eax
	movq	-16(%rbp), %rcx
	movl	%eax, 4(%rcx)
	movq	-32(%rbp), %rax
	movl	564(%rax), %eax
	movq	-16(%rbp), %rcx
	movl	%eax, (%rcx)
	movl	-4(%rbp), %eax
	movl	%eax, -20(%rbp)
	jmp	.LBB19_20
.LBB19_14:                              # %if.else19
	movq	-32(%rbp), %rax
	movl	536(%rax), %eax
	movq	-16(%rbp), %rcx
	movl	%eax, 4(%rcx)
	movq	-32(%rbp), %rax
	movl	552(%rax), %eax
	movq	-16(%rbp), %rcx
	movl	%eax, (%rcx)
	movq	-32(%rbp), %rax
	cmpl	$0, 552(%rax)
	je	.LBB19_19
# %bb.15:                               # %if.then24
	movq	img, %rax
	movq	14168(%rax), %rax
	movq	-32(%rbp), %rcx
	movslq	536(%rcx), %rcx
	imulq	$632, %rcx, %rcx        # imm = 0x278
	addq	%rcx, %rax
	cmpl	$0, 532(%rax)
	jne	.LBB19_17
# %bb.16:                               # %if.then31
	movl	-4(%rbp), %eax
	movl	%eax, -20(%rbp)
	jmp	.LBB19_18
.LBB19_17:                              # %if.else32
	movq	-16(%rbp), %rax
	movl	4(%rax), %ecx
	addl	$1, %ecx
	movl	%ecx, 4(%rax)
	movl	-4(%rbp), %eax
	addl	-36(%rbp), %eax
	sarl	$1, %eax
	movl	%eax, -20(%rbp)
.LBB19_18:                              # %if.end35
	jmp	.LBB19_19
.LBB19_19:                              # %if.end36
	jmp	.LBB19_20
.LBB19_20:                              # %if.end37
	jmp	.LBB19_30
.LBB19_21:                              # %if.else38
	movl	-40(%rbp), %eax
	andl	$1, %eax
	cmpl	$0, %eax
	jne	.LBB19_28
# %bb.22:                               # %if.then41
	movq	-32(%rbp), %rax
	movl	548(%rax), %eax
	movq	-16(%rbp), %rcx
	movl	%eax, 4(%rcx)
	movq	-32(%rbp), %rax
	movl	564(%rax), %eax
	movq	-16(%rbp), %rcx
	movl	%eax, (%rcx)
	movq	-32(%rbp), %rax
	cmpl	$0, 564(%rax)
	je	.LBB19_27
# %bb.23:                               # %if.then48
	movq	img, %rax
	movq	14168(%rax), %rax
	movq	-32(%rbp), %rcx
	movslq	548(%rcx), %rcx
	imulq	$632, %rcx, %rcx        # imm = 0x278
	addq	%rcx, %rax
	cmpl	$0, 532(%rax)
	jne	.LBB19_25
# %bb.24:                               # %if.then55
	movq	-16(%rbp), %rax
	movl	4(%rax), %ecx
	addl	$1, %ecx
	movl	%ecx, 4(%rax)
	movl	-4(%rbp), %eax
	shll	$1, %eax
	movl	%eax, -20(%rbp)
	jmp	.LBB19_26
.LBB19_25:                              # %if.else58
	movl	-4(%rbp), %eax
	movl	%eax, -20(%rbp)
.LBB19_26:                              # %if.end59
	jmp	.LBB19_27
.LBB19_27:                              # %if.end60
	jmp	.LBB19_29
.LBB19_28:                              # %if.else61
	movq	-32(%rbp), %rax
	movl	548(%rax), %eax
	addl	$1, %eax
	movq	-16(%rbp), %rcx
	movl	%eax, 4(%rcx)
	movq	-32(%rbp), %rax
	movl	564(%rax), %eax
	movq	-16(%rbp), %rcx
	movl	%eax, (%rcx)
	movl	-4(%rbp), %eax
	movl	%eax, -20(%rbp)
.LBB19_29:                              # %if.end67
	jmp	.LBB19_30
.LBB19_30:                              # %if.end68
	jmp	.LBB19_76
.LBB19_31:                              # %if.else69
	cmpl	$0, -4(%rbp)
	jl	.LBB19_75
# %bb.32:                               # %land.lhs.true71
	movl	-4(%rbp), %eax
	cmpl	-36(%rbp), %eax
	jge	.LBB19_75
# %bb.33:                               # %if.then73
	movq	-32(%rbp), %rax
	cmpl	$0, 532(%rax)
	jne	.LBB19_54
# %bb.34:                               # %if.then76
	movl	-40(%rbp), %eax
	andl	$1, %eax
	cmpl	$0, %eax
	jne	.LBB19_44
# %bb.35:                               # %if.then79
	movq	-32(%rbp), %rax
	movl	536(%rax), %eax
	movq	-16(%rbp), %rcx
	movl	%eax, 4(%rcx)
	movq	-32(%rbp), %rax
	movl	552(%rax), %eax
	movq	-16(%rbp), %rcx
	movl	%eax, (%rcx)
	movq	-32(%rbp), %rax
	cmpl	$0, 552(%rax)
	je	.LBB19_43
# %bb.36:                               # %if.then86
	movq	img, %rax
	movq	14168(%rax), %rax
	movq	-32(%rbp), %rcx
	movslq	536(%rcx), %rcx
	imulq	$632, %rcx, %rcx        # imm = 0x278
	addq	%rcx, %rax
	cmpl	$0, 532(%rax)
	jne	.LBB19_38
# %bb.37:                               # %if.then93
	movl	-4(%rbp), %eax
	movl	%eax, -20(%rbp)
	jmp	.LBB19_42
.LBB19_38:                              # %if.else94
	movl	-4(%rbp), %eax
	cltd
	movl	$2, %ecx
	idivl	%ecx
	cmpl	$0, %edx
	jne	.LBB19_40
# %bb.39:                               # %if.then97
	movl	-4(%rbp), %eax
	sarl	$1, %eax
	movl	%eax, -20(%rbp)
	jmp	.LBB19_41
.LBB19_40:                              # %if.else99
	movq	-16(%rbp), %rax
	movl	4(%rax), %ecx
	addl	$1, %ecx
	movl	%ecx, 4(%rax)
	movl	-4(%rbp), %eax
	sarl	$1, %eax
	movl	%eax, -20(%rbp)
.LBB19_41:                              # %if.end103
	jmp	.LBB19_42
.LBB19_42:                              # %if.end104
	jmp	.LBB19_43
.LBB19_43:                              # %if.end105
	jmp	.LBB19_53
.LBB19_44:                              # %if.else106
	movq	-32(%rbp), %rax
	movl	536(%rax), %eax
	movq	-16(%rbp), %rcx
	movl	%eax, 4(%rcx)
	movq	-32(%rbp), %rax
	movl	552(%rax), %eax
	movq	-16(%rbp), %rcx
	movl	%eax, (%rcx)
	movq	-32(%rbp), %rax
	cmpl	$0, 552(%rax)
	je	.LBB19_52
# %bb.45:                               # %if.then113
	movq	img, %rax
	movq	14168(%rax), %rax
	movq	-32(%rbp), %rcx
	movslq	536(%rcx), %rcx
	imulq	$632, %rcx, %rcx        # imm = 0x278
	addq	%rcx, %rax
	cmpl	$0, 532(%rax)
	jne	.LBB19_47
# %bb.46:                               # %if.then120
	movq	-16(%rbp), %rax
	movl	4(%rax), %ecx
	addl	$1, %ecx
	movl	%ecx, 4(%rax)
	movl	-4(%rbp), %eax
	movl	%eax, -20(%rbp)
	jmp	.LBB19_51
.LBB19_47:                              # %if.else123
	movl	-4(%rbp), %eax
	cltd
	movl	$2, %ecx
	idivl	%ecx
	cmpl	$0, %edx
	jne	.LBB19_49
# %bb.48:                               # %if.then126
	movl	-4(%rbp), %eax
	addl	-36(%rbp), %eax
	sarl	$1, %eax
	movl	%eax, -20(%rbp)
	jmp	.LBB19_50
.LBB19_49:                              # %if.else129
	movq	-16(%rbp), %rax
	movl	4(%rax), %ecx
	addl	$1, %ecx
	movl	%ecx, 4(%rax)
	movl	-4(%rbp), %eax
	addl	-36(%rbp), %eax
	sarl	$1, %eax
	movl	%eax, -20(%rbp)
.LBB19_50:                              # %if.end134
	jmp	.LBB19_51
.LBB19_51:                              # %if.end135
	jmp	.LBB19_52
.LBB19_52:                              # %if.end136
	jmp	.LBB19_53
.LBB19_53:                              # %if.end137
	jmp	.LBB19_74
.LBB19_54:                              # %if.else138
	movl	-40(%rbp), %eax
	andl	$1, %eax
	cmpl	$0, %eax
	jne	.LBB19_64
# %bb.55:                               # %if.then141
	movq	-32(%rbp), %rax
	movl	536(%rax), %eax
	movq	-16(%rbp), %rcx
	movl	%eax, 4(%rcx)
	movq	-32(%rbp), %rax
	movl	552(%rax), %eax
	movq	-16(%rbp), %rcx
	movl	%eax, (%rcx)
	movq	-32(%rbp), %rax
	cmpl	$0, 552(%rax)
	je	.LBB19_63
# %bb.56:                               # %if.then148
	movq	img, %rax
	movq	14168(%rax), %rax
	movq	-32(%rbp), %rcx
	movslq	536(%rcx), %rcx
	imulq	$632, %rcx, %rcx        # imm = 0x278
	addq	%rcx, %rax
	cmpl	$0, 532(%rax)
	jne	.LBB19_61
# %bb.57:                               # %if.then155
	movl	-4(%rbp), %ecx
	movl	-36(%rbp), %eax
	cltd
	movl	$2, %esi
	idivl	%esi
	cmpl	%eax, %ecx
	jge	.LBB19_59
# %bb.58:                               # %if.then157
	movl	-4(%rbp), %eax
	shll	$1, %eax
	movl	%eax, -20(%rbp)
	jmp	.LBB19_60
.LBB19_59:                              # %if.else158
	movq	-16(%rbp), %rax
	movl	4(%rax), %ecx
	addl	$1, %ecx
	movl	%ecx, 4(%rax)
	movl	-4(%rbp), %eax
	shll	$1, %eax
	subl	-36(%rbp), %eax
	movl	%eax, -20(%rbp)
.LBB19_60:                              # %if.end163
	jmp	.LBB19_62
.LBB19_61:                              # %if.else164
	movl	-4(%rbp), %eax
	movl	%eax, -20(%rbp)
.LBB19_62:                              # %if.end165
	jmp	.LBB19_63
.LBB19_63:                              # %if.end166
	jmp	.LBB19_73
.LBB19_64:                              # %if.else167
	movq	-32(%rbp), %rax
	movl	536(%rax), %eax
	movq	-16(%rbp), %rcx
	movl	%eax, 4(%rcx)
	movq	-32(%rbp), %rax
	movl	552(%rax), %eax
	movq	-16(%rbp), %rcx
	movl	%eax, (%rcx)
	movq	-32(%rbp), %rax
	cmpl	$0, 552(%rax)
	je	.LBB19_72
# %bb.65:                               # %if.then174
	movq	img, %rax
	movq	14168(%rax), %rax
	movq	-32(%rbp), %rcx
	movslq	536(%rcx), %rcx
	imulq	$632, %rcx, %rcx        # imm = 0x278
	addq	%rcx, %rax
	cmpl	$0, 532(%rax)
	jne	.LBB19_70
# %bb.66:                               # %if.then181
	movl	-4(%rbp), %ecx
	movl	-36(%rbp), %eax
	cltd
	movl	$2, %esi
	idivl	%esi
	cmpl	%eax, %ecx
	jge	.LBB19_68
# %bb.67:                               # %if.then184
	movl	-4(%rbp), %eax
	shll	$1, %eax
	addl	$1, %eax
	movl	%eax, -20(%rbp)
	jmp	.LBB19_69
.LBB19_68:                              # %if.else187
	movq	-16(%rbp), %rax
	movl	4(%rax), %ecx
	addl	$1, %ecx
	movl	%ecx, 4(%rax)
	movl	-4(%rbp), %eax
	shll	$1, %eax
	addl	$1, %eax
	subl	-36(%rbp), %eax
	movl	%eax, -20(%rbp)
.LBB19_69:                              # %if.end193
	jmp	.LBB19_71
.LBB19_70:                              # %if.else194
	movq	-16(%rbp), %rax
	movl	4(%rax), %ecx
	addl	$1, %ecx
	movl	%ecx, 4(%rax)
	movl	-4(%rbp), %eax
	movl	%eax, -20(%rbp)
.LBB19_71:                              # %if.end197
	jmp	.LBB19_72
.LBB19_72:                              # %if.end198
	jmp	.LBB19_73
.LBB19_73:                              # %if.end199
	jmp	.LBB19_74
.LBB19_74:                              # %if.end200
	jmp	.LBB19_75
.LBB19_75:                              # %if.end201
	jmp	.LBB19_76
.LBB19_76:                              # %if.end202
	jmp	.LBB19_127
.LBB19_77:                              # %if.else203
	cmpl	$0, -44(%rbp)
	jl	.LBB19_109
# %bb.78:                               # %land.lhs.true205
	movl	-44(%rbp), %eax
	cmpl	-48(%rbp), %eax
	jge	.LBB19_109
# %bb.79:                               # %if.then207
	cmpl	$0, -4(%rbp)
	jge	.LBB19_100
# %bb.80:                               # %if.then209
	movq	-32(%rbp), %rax
	cmpl	$0, 532(%rax)
	jne	.LBB19_90
# %bb.81:                               # %if.then212
	movl	-40(%rbp), %eax
	andl	$1, %eax
	cmpl	$0, %eax
	jne	.LBB19_88
# %bb.82:                               # %if.then215
	movq	-32(%rbp), %rax
	movl	540(%rax), %eax
	movq	-16(%rbp), %rcx
	movl	%eax, 4(%rcx)
	movq	-32(%rbp), %rax
	cmpl	$0, 556(%rax)
	je	.LBB19_87
# %bb.83:                               # %if.then218
	movq	img, %rax
	cmpl	$1, 72636(%rax)
	jne	.LBB19_85
# %bb.84:                               # %land.lhs.true220
	movq	img, %rax
	movq	14168(%rax), %rax
	movq	-32(%rbp), %rcx
	movslq	540(%rcx), %rcx
	imulq	$632, %rcx, %rcx        # imm = 0x278
	addq	%rcx, %rax
	cmpl	$0, 532(%rax)
	jne	.LBB19_86
.LBB19_85:                              # %if.then227
	movq	-16(%rbp), %rax
	movl	4(%rax), %ecx
	addl	$1, %ecx
	movl	%ecx, 4(%rax)
.LBB19_86:                              # %if.end230
	jmp	.LBB19_87
.LBB19_87:                              # %if.end231
	movq	-32(%rbp), %rax
	movl	556(%rax), %eax
	movq	-16(%rbp), %rcx
	movl	%eax, (%rcx)
	movl	-4(%rbp), %eax
	movl	%eax, -20(%rbp)
	jmp	.LBB19_89
.LBB19_88:                              # %if.else234
	movl	-40(%rbp), %eax
	subl	$1, %eax
	movq	-16(%rbp), %rcx
	movl	%eax, 4(%rcx)
	movq	-16(%rbp), %rax
	movl	$1, (%rax)
	movl	-4(%rbp), %eax
	movl	%eax, -20(%rbp)
.LBB19_89:                              # %if.end238
	jmp	.LBB19_99
.LBB19_90:                              # %if.else239
	movl	-40(%rbp), %eax
	andl	$1, %eax
	cmpl	$0, %eax
	jne	.LBB19_97
# %bb.91:                               # %if.then242
	movq	-32(%rbp), %rax
	movl	540(%rax), %eax
	movq	-16(%rbp), %rcx
	movl	%eax, 4(%rcx)
	movq	-32(%rbp), %rax
	movl	556(%rax), %eax
	movq	-16(%rbp), %rcx
	movl	%eax, (%rcx)
	movq	-32(%rbp), %rax
	cmpl	$0, 556(%rax)
	je	.LBB19_96
# %bb.92:                               # %if.then249
	movq	img, %rax
	movq	14168(%rax), %rax
	movq	-32(%rbp), %rcx
	movslq	540(%rcx), %rcx
	imulq	$632, %rcx, %rcx        # imm = 0x278
	addq	%rcx, %rax
	cmpl	$0, 532(%rax)
	jne	.LBB19_94
# %bb.93:                               # %if.then256
	movq	-16(%rbp), %rax
	movl	4(%rax), %ecx
	addl	$1, %ecx
	movl	%ecx, 4(%rax)
	movl	-4(%rbp), %eax
	shll	$1, %eax
	movl	%eax, -20(%rbp)
	jmp	.LBB19_95
.LBB19_94:                              # %if.else260
	movl	-4(%rbp), %eax
	movl	%eax, -20(%rbp)
.LBB19_95:                              # %if.end261
	jmp	.LBB19_96
.LBB19_96:                              # %if.end262
	jmp	.LBB19_98
.LBB19_97:                              # %if.else263
	movq	-32(%rbp), %rax
	movl	540(%rax), %eax
	addl	$1, %eax
	movq	-16(%rbp), %rcx
	movl	%eax, 4(%rcx)
	movq	-32(%rbp), %rax
	movl	556(%rax), %eax
	movq	-16(%rbp), %rcx
	movl	%eax, (%rcx)
	movl	-4(%rbp), %eax
	movl	%eax, -20(%rbp)
.LBB19_98:                              # %if.end269
	jmp	.LBB19_99
.LBB19_99:                              # %if.end270
	jmp	.LBB19_108
.LBB19_100:                             # %if.else271
	cmpl	$0, -4(%rbp)
	jne	.LBB19_103
# %bb.101:                              # %land.lhs.true273
	movq	img, %rax
	cmpl	$2, 72636(%rax)
	jne	.LBB19_103
# %bb.102:                              # %if.then276
	movq	-32(%rbp), %rax
	movl	540(%rax), %eax
	addl	$1, %eax
	movq	-16(%rbp), %rcx
	movl	%eax, 4(%rcx)
	movq	-16(%rbp), %rax
	movl	$1, (%rax)
	movl	-4(%rbp), %eax
	subl	$1, %eax
	movl	%eax, -20(%rbp)
	jmp	.LBB19_107
.LBB19_103:                             # %if.else282
	cmpl	$0, -4(%rbp)
	jl	.LBB19_106
# %bb.104:                              # %land.lhs.true284
	movl	-4(%rbp), %eax
	cmpl	-36(%rbp), %eax
	jge	.LBB19_106
# %bb.105:                              # %if.then286
	movl	-40(%rbp), %eax
	movq	-16(%rbp), %rcx
	movl	%eax, 4(%rcx)
	movq	-16(%rbp), %rax
	movl	$1, (%rax)
	movl	-4(%rbp), %eax
	movl	%eax, -20(%rbp)
.LBB19_106:                             # %if.end289
	jmp	.LBB19_107
.LBB19_107:                             # %if.end290
	jmp	.LBB19_108
.LBB19_108:                             # %if.end291
	jmp	.LBB19_126
.LBB19_109:                             # %if.else292
	cmpl	$0, -4(%rbp)
	jge	.LBB19_125
# %bb.110:                              # %if.then294
	movq	-32(%rbp), %rax
	cmpl	$0, 532(%rax)
	jne	.LBB19_115
# %bb.111:                              # %if.then297
	movl	-40(%rbp), %eax
	andl	$1, %eax
	cmpl	$0, %eax
	jne	.LBB19_113
# %bb.112:                              # %if.then300
	movq	-32(%rbp), %rax
	movl	544(%rax), %eax
	addl	$1, %eax
	movq	-16(%rbp), %rcx
	movl	%eax, 4(%rcx)
	movq	-32(%rbp), %rax
	movl	560(%rax), %eax
	movq	-16(%rbp), %rcx
	movl	%eax, (%rcx)
	movl	-4(%rbp), %eax
	movl	%eax, -20(%rbp)
	jmp	.LBB19_114
.LBB19_113:                             # %if.else304
	movq	-16(%rbp), %rax
	movl	$0, (%rax)
.LBB19_114:                             # %if.end306
	jmp	.LBB19_124
.LBB19_115:                             # %if.else307
	movl	-40(%rbp), %eax
	andl	$1, %eax
	cmpl	$0, %eax
	jne	.LBB19_122
# %bb.116:                              # %if.then310
	movq	-32(%rbp), %rax
	movl	544(%rax), %eax
	movq	-16(%rbp), %rcx
	movl	%eax, 4(%rcx)
	movq	-32(%rbp), %rax
	movl	560(%rax), %eax
	movq	-16(%rbp), %rcx
	movl	%eax, (%rcx)
	movq	-32(%rbp), %rax
	cmpl	$0, 560(%rax)
	je	.LBB19_121
# %bb.117:                              # %if.then317
	movq	img, %rax
	movq	14168(%rax), %rax
	movq	-32(%rbp), %rcx
	movslq	544(%rcx), %rcx
	imulq	$632, %rcx, %rcx        # imm = 0x278
	addq	%rcx, %rax
	cmpl	$0, 532(%rax)
	jne	.LBB19_119
# %bb.118:                              # %if.then324
	movq	-16(%rbp), %rax
	movl	4(%rax), %ecx
	addl	$1, %ecx
	movl	%ecx, 4(%rax)
	movl	-4(%rbp), %eax
	shll	$1, %eax
	movl	%eax, -20(%rbp)
	jmp	.LBB19_120
.LBB19_119:                             # %if.else328
	movl	-4(%rbp), %eax
	movl	%eax, -20(%rbp)
.LBB19_120:                             # %if.end329
	jmp	.LBB19_121
.LBB19_121:                             # %if.end330
	jmp	.LBB19_123
.LBB19_122:                             # %if.else331
	movq	-32(%rbp), %rax
	movl	544(%rax), %eax
	addl	$1, %eax
	movq	-16(%rbp), %rcx
	movl	%eax, 4(%rcx)
	movq	-32(%rbp), %rax
	movl	560(%rax), %eax
	movq	-16(%rbp), %rcx
	movl	%eax, (%rcx)
	movl	-4(%rbp), %eax
	movl	%eax, -20(%rbp)
.LBB19_123:                             # %if.end337
	jmp	.LBB19_124
.LBB19_124:                             # %if.end338
	jmp	.LBB19_125
.LBB19_125:                             # %if.end339
	jmp	.LBB19_126
.LBB19_126:                             # %if.end340
	jmp	.LBB19_127
.LBB19_127:                             # %if.end341
	movq	-16(%rbp), %rax
	cmpl	$0, (%rax)
	jne	.LBB19_129
# %bb.128:                              # %lor.lhs.false
	movq	img, %rax
	cmpl	$0, 72636(%rax)
	je	.LBB19_133
.LBB19_129:                             # %if.then346
	movl	-44(%rbp), %eax
	addl	-48(%rbp), %eax
	cltd
	idivl	-48(%rbp)
	movq	-16(%rbp), %rax
	movl	%edx, 8(%rax)
	movl	-20(%rbp), %eax
	addl	-36(%rbp), %eax
	cltd
	idivl	-36(%rbp)
	movq	-16(%rbp), %rax
	movl	%edx, 12(%rax)
	movq	-16(%rbp), %rax
	movl	4(%rax), %edi
	movq	-16(%rbp), %rsi
	addq	$16, %rsi
	movq	-16(%rbp), %rdx
	addq	$20, %rdx
	callq	get_mb_pos
	cmpl	$0, -52(%rbp)
	je	.LBB19_131
# %bb.130:                              # %if.then353
	movq	-16(%rbp), %rax
	movl	8(%rax), %eax
	movq	-16(%rbp), %rcx
	addl	16(%rcx), %eax
	movl	%eax, 16(%rcx)
	movq	-16(%rbp), %rax
	movl	12(%rax), %eax
	movq	-16(%rbp), %rcx
	addl	20(%rcx), %eax
	movl	%eax, 20(%rcx)
	jmp	.LBB19_132
.LBB19_131:                             # %if.else360
	movq	-16(%rbp), %rax
	movl	16(%rax), %ecx
	movq	img, %rsi
	movl	$16, %eax
	cltd
	idivl	72708(%rsi)
	movl	%eax, %esi
	movl	%ecx, %eax
	cltd
	idivl	%esi
	movq	-16(%rbp), %rcx
	addl	8(%rcx), %eax
	movq	-16(%rbp), %rcx
	movl	%eax, 16(%rcx)
	movq	-16(%rbp), %rax
	movl	20(%rax), %ecx
	movq	img, %rsi
	movl	$16, %eax
	cltd
	idivl	72712(%rsi)
	movl	%eax, %esi
	movl	%ecx, %eax
	cltd
	idivl	%esi
	movq	-16(%rbp), %rcx
	addl	12(%rcx), %eax
	movq	-16(%rbp), %rcx
	movl	%eax, 20(%rcx)
.LBB19_132:                             # %if.end375
	jmp	.LBB19_133
.LBB19_133:                             # %if.end376
	cmpl	$666459776, -56(%rbp)   # imm = 0x27B95E80
	jne	.LBB19_135
.LBB19_134:
	addq	$64, %rsp
	popq	%rbp
	.cfi_def_cfa %rsp, 8
	retq
.LBB19_135:                             # %func_exit
	.cfi_def_cfa %rbp, 16
	callq	detect_breach
	jmp	.LBB19_134
.Lfunc_end19:
	.size	getAffNeighbour.11, .Lfunc_end19-getAffNeighbour.11
	.cfi_endproc
                                        # -- End function
	.globl	getAffNeighbour.12      # -- Begin function getAffNeighbour.12
	.p2align	4, 0x90
	.type	getAffNeighbour.12,@function
getAffNeighbour.12:                     # @getAffNeighbour.12
	.cfi_startproc
# %bb.0:                                # %entry
	pushq	%rbp
	.cfi_def_cfa_offset 16
	.cfi_offset %rbp, -16
	movq	%rsp, %rbp
	.cfi_def_cfa_register %rbp
	subq	$64, %rsp
	movl	$1841959111, -56(%rbp)  # imm = 0x6DCA10C7
	movl	%edi, -40(%rbp)
	movl	%esi, -44(%rbp)
	movl	%edx, -4(%rbp)
	movl	%ecx, -52(%rbp)
	movq	%r8, -16(%rbp)
	movq	img, %rax
	movq	14168(%rax), %rax
	movl	-40(%rbp), %ecx
	imulq	$632, %rcx, %rcx        # imm = 0x278
	addq	%rcx, %rax
	movq	%rax, -32(%rbp)
	movl	$-1, -20(%rbp)
	cmpl	$0, -52(%rbp)
	je	.LBB20_2
# %bb.1:                                # %if.then
	movl	$16, -48(%rbp)
	movl	$16, -36(%rbp)
	jmp	.LBB20_3
.LBB20_2:                               # %if.else
	movq	img, %rax
	movl	72708(%rax), %eax
	movl	%eax, -48(%rbp)
	movq	img, %rax
	movl	72712(%rax), %eax
	movl	%eax, -36(%rbp)
.LBB20_3:                               # %if.end
	movq	-16(%rbp), %rax
	movl	$0, (%rax)
	movl	-4(%rbp), %eax
	movl	-36(%rbp), %ecx
	subl	$1, %ecx
	cmpl	%ecx, %eax
	jle	.LBB20_5
# %bb.4:                                # %if.then1
	jmp	.LBB20_133
.LBB20_5:                               # %if.end2
	movl	-44(%rbp), %eax
	movl	-48(%rbp), %ecx
	subl	$1, %ecx
	cmpl	%ecx, %eax
	jle	.LBB20_9
# %bb.6:                                # %land.lhs.true
	cmpl	$0, -4(%rbp)
	jl	.LBB20_9
# %bb.7:                                # %land.lhs.true6
	movl	-4(%rbp), %eax
	cmpl	-36(%rbp), %eax
	jge	.LBB20_9
# %bb.8:                                # %if.then8
	jmp	.LBB20_133
.LBB20_9:                               # %if.end9
	cmpl	$0, -44(%rbp)
	jge	.LBB20_77
# %bb.10:                               # %if.then11
	cmpl	$0, -4(%rbp)
	jge	.LBB20_31
# %bb.11:                               # %if.then13
	movq	-32(%rbp), %rax
	cmpl	$0, 532(%rax)
	jne	.LBB20_21
# %bb.12:                               # %if.then15
	movl	-40(%rbp), %eax
	andl	$1, %eax
	cmpl	$0, %eax
	jne	.LBB20_14
# %bb.13:                               # %if.then17
	movq	-32(%rbp), %rax
	movl	548(%rax), %eax
	addl	$1, %eax
	movq	-16(%rbp), %rcx
	movl	%eax, 4(%rcx)
	movq	-32(%rbp), %rax
	movl	564(%rax), %eax
	movq	-16(%rbp), %rcx
	movl	%eax, (%rcx)
	movl	-4(%rbp), %eax
	movl	%eax, -20(%rbp)
	jmp	.LBB20_20
.LBB20_14:                              # %if.else19
	movq	-32(%rbp), %rax
	movl	536(%rax), %eax
	movq	-16(%rbp), %rcx
	movl	%eax, 4(%rcx)
	movq	-32(%rbp), %rax
	movl	552(%rax), %eax
	movq	-16(%rbp), %rcx
	movl	%eax, (%rcx)
	movq	-32(%rbp), %rax
	cmpl	$0, 552(%rax)
	je	.LBB20_19
# %bb.15:                               # %if.then24
	movq	img, %rax
	movq	14168(%rax), %rax
	movq	-32(%rbp), %rcx
	movslq	536(%rcx), %rcx
	imulq	$632, %rcx, %rcx        # imm = 0x278
	addq	%rcx, %rax
	cmpl	$0, 532(%rax)
	jne	.LBB20_17
# %bb.16:                               # %if.then31
	movl	-4(%rbp), %eax
	movl	%eax, -20(%rbp)
	jmp	.LBB20_18
.LBB20_17:                              # %if.else32
	movq	-16(%rbp), %rax
	movl	4(%rax), %ecx
	addl	$1, %ecx
	movl	%ecx, 4(%rax)
	movl	-4(%rbp), %eax
	addl	-36(%rbp), %eax
	sarl	$1, %eax
	movl	%eax, -20(%rbp)
.LBB20_18:                              # %if.end35
	jmp	.LBB20_19
.LBB20_19:                              # %if.end36
	jmp	.LBB20_20
.LBB20_20:                              # %if.end37
	jmp	.LBB20_30
.LBB20_21:                              # %if.else38
	movl	-40(%rbp), %eax
	andl	$1, %eax
	cmpl	$0, %eax
	jne	.LBB20_28
# %bb.22:                               # %if.then41
	movq	-32(%rbp), %rax
	movl	548(%rax), %eax
	movq	-16(%rbp), %rcx
	movl	%eax, 4(%rcx)
	movq	-32(%rbp), %rax
	movl	564(%rax), %eax
	movq	-16(%rbp), %rcx
	movl	%eax, (%rcx)
	movq	-32(%rbp), %rax
	cmpl	$0, 564(%rax)
	je	.LBB20_27
# %bb.23:                               # %if.then48
	movq	img, %rax
	movq	14168(%rax), %rax
	movq	-32(%rbp), %rcx
	movslq	548(%rcx), %rcx
	imulq	$632, %rcx, %rcx        # imm = 0x278
	addq	%rcx, %rax
	cmpl	$0, 532(%rax)
	jne	.LBB20_25
# %bb.24:                               # %if.then55
	movq	-16(%rbp), %rax
	movl	4(%rax), %ecx
	addl	$1, %ecx
	movl	%ecx, 4(%rax)
	movl	-4(%rbp), %eax
	shll	$1, %eax
	movl	%eax, -20(%rbp)
	jmp	.LBB20_26
.LBB20_25:                              # %if.else58
	movl	-4(%rbp), %eax
	movl	%eax, -20(%rbp)
.LBB20_26:                              # %if.end59
	jmp	.LBB20_27
.LBB20_27:                              # %if.end60
	jmp	.LBB20_29
.LBB20_28:                              # %if.else61
	movq	-32(%rbp), %rax
	movl	548(%rax), %eax
	addl	$1, %eax
	movq	-16(%rbp), %rcx
	movl	%eax, 4(%rcx)
	movq	-32(%rbp), %rax
	movl	564(%rax), %eax
	movq	-16(%rbp), %rcx
	movl	%eax, (%rcx)
	movl	-4(%rbp), %eax
	movl	%eax, -20(%rbp)
.LBB20_29:                              # %if.end67
	jmp	.LBB20_30
.LBB20_30:                              # %if.end68
	jmp	.LBB20_76
.LBB20_31:                              # %if.else69
	cmpl	$0, -4(%rbp)
	jl	.LBB20_75
# %bb.32:                               # %land.lhs.true71
	movl	-4(%rbp), %eax
	cmpl	-36(%rbp), %eax
	jge	.LBB20_75
# %bb.33:                               # %if.then73
	movq	-32(%rbp), %rax
	cmpl	$0, 532(%rax)
	jne	.LBB20_54
# %bb.34:                               # %if.then76
	movl	-40(%rbp), %eax
	andl	$1, %eax
	cmpl	$0, %eax
	jne	.LBB20_44
# %bb.35:                               # %if.then79
	movq	-32(%rbp), %rax
	movl	536(%rax), %eax
	movq	-16(%rbp), %rcx
	movl	%eax, 4(%rcx)
	movq	-32(%rbp), %rax
	movl	552(%rax), %eax
	movq	-16(%rbp), %rcx
	movl	%eax, (%rcx)
	movq	-32(%rbp), %rax
	cmpl	$0, 552(%rax)
	je	.LBB20_43
# %bb.36:                               # %if.then86
	movq	img, %rax
	movq	14168(%rax), %rax
	movq	-32(%rbp), %rcx
	movslq	536(%rcx), %rcx
	imulq	$632, %rcx, %rcx        # imm = 0x278
	addq	%rcx, %rax
	cmpl	$0, 532(%rax)
	jne	.LBB20_38
# %bb.37:                               # %if.then93
	movl	-4(%rbp), %eax
	movl	%eax, -20(%rbp)
	jmp	.LBB20_42
.LBB20_38:                              # %if.else94
	movl	-4(%rbp), %eax
	cltd
	movl	$2, %ecx
	idivl	%ecx
	cmpl	$0, %edx
	jne	.LBB20_40
# %bb.39:                               # %if.then97
	movl	-4(%rbp), %eax
	sarl	$1, %eax
	movl	%eax, -20(%rbp)
	jmp	.LBB20_41
.LBB20_40:                              # %if.else99
	movq	-16(%rbp), %rax
	movl	4(%rax), %ecx
	addl	$1, %ecx
	movl	%ecx, 4(%rax)
	movl	-4(%rbp), %eax
	sarl	$1, %eax
	movl	%eax, -20(%rbp)
.LBB20_41:                              # %if.end103
	jmp	.LBB20_42
.LBB20_42:                              # %if.end104
	jmp	.LBB20_43
.LBB20_43:                              # %if.end105
	jmp	.LBB20_53
.LBB20_44:                              # %if.else106
	movq	-32(%rbp), %rax
	movl	536(%rax), %eax
	movq	-16(%rbp), %rcx
	movl	%eax, 4(%rcx)
	movq	-32(%rbp), %rax
	movl	552(%rax), %eax
	movq	-16(%rbp), %rcx
	movl	%eax, (%rcx)
	movq	-32(%rbp), %rax
	cmpl	$0, 552(%rax)
	je	.LBB20_52
# %bb.45:                               # %if.then113
	movq	img, %rax
	movq	14168(%rax), %rax
	movq	-32(%rbp), %rcx
	movslq	536(%rcx), %rcx
	imulq	$632, %rcx, %rcx        # imm = 0x278
	addq	%rcx, %rax
	cmpl	$0, 532(%rax)
	jne	.LBB20_47
# %bb.46:                               # %if.then120
	movq	-16(%rbp), %rax
	movl	4(%rax), %ecx
	addl	$1, %ecx
	movl	%ecx, 4(%rax)
	movl	-4(%rbp), %eax
	movl	%eax, -20(%rbp)
	jmp	.LBB20_51
.LBB20_47:                              # %if.else123
	movl	-4(%rbp), %eax
	cltd
	movl	$2, %ecx
	idivl	%ecx
	cmpl	$0, %edx
	jne	.LBB20_49
# %bb.48:                               # %if.then126
	movl	-4(%rbp), %eax
	addl	-36(%rbp), %eax
	sarl	$1, %eax
	movl	%eax, -20(%rbp)
	jmp	.LBB20_50
.LBB20_49:                              # %if.else129
	movq	-16(%rbp), %rax
	movl	4(%rax), %ecx
	addl	$1, %ecx
	movl	%ecx, 4(%rax)
	movl	-4(%rbp), %eax
	addl	-36(%rbp), %eax
	sarl	$1, %eax
	movl	%eax, -20(%rbp)
.LBB20_50:                              # %if.end134
	jmp	.LBB20_51
.LBB20_51:                              # %if.end135
	jmp	.LBB20_52
.LBB20_52:                              # %if.end136
	jmp	.LBB20_53
.LBB20_53:                              # %if.end137
	jmp	.LBB20_74
.LBB20_54:                              # %if.else138
	movl	-40(%rbp), %eax
	andl	$1, %eax
	cmpl	$0, %eax
	jne	.LBB20_64
# %bb.55:                               # %if.then141
	movq	-32(%rbp), %rax
	movl	536(%rax), %eax
	movq	-16(%rbp), %rcx
	movl	%eax, 4(%rcx)
	movq	-32(%rbp), %rax
	movl	552(%rax), %eax
	movq	-16(%rbp), %rcx
	movl	%eax, (%rcx)
	movq	-32(%rbp), %rax
	cmpl	$0, 552(%rax)
	je	.LBB20_63
# %bb.56:                               # %if.then148
	movq	img, %rax
	movq	14168(%rax), %rax
	movq	-32(%rbp), %rcx
	movslq	536(%rcx), %rcx
	imulq	$632, %rcx, %rcx        # imm = 0x278
	addq	%rcx, %rax
	cmpl	$0, 532(%rax)
	jne	.LBB20_61
# %bb.57:                               # %if.then155
	movl	-4(%rbp), %ecx
	movl	-36(%rbp), %eax
	cltd
	movl	$2, %esi
	idivl	%esi
	cmpl	%eax, %ecx
	jge	.LBB20_59
# %bb.58:                               # %if.then157
	movl	-4(%rbp), %eax
	shll	$1, %eax
	movl	%eax, -20(%rbp)
	jmp	.LBB20_60
.LBB20_59:                              # %if.else158
	movq	-16(%rbp), %rax
	movl	4(%rax), %ecx
	addl	$1, %ecx
	movl	%ecx, 4(%rax)
	movl	-4(%rbp), %eax
	shll	$1, %eax
	subl	-36(%rbp), %eax
	movl	%eax, -20(%rbp)
.LBB20_60:                              # %if.end163
	jmp	.LBB20_62
.LBB20_61:                              # %if.else164
	movl	-4(%rbp), %eax
	movl	%eax, -20(%rbp)
.LBB20_62:                              # %if.end165
	jmp	.LBB20_63
.LBB20_63:                              # %if.end166
	jmp	.LBB20_73
.LBB20_64:                              # %if.else167
	movq	-32(%rbp), %rax
	movl	536(%rax), %eax
	movq	-16(%rbp), %rcx
	movl	%eax, 4(%rcx)
	movq	-32(%rbp), %rax
	movl	552(%rax), %eax
	movq	-16(%rbp), %rcx
	movl	%eax, (%rcx)
	movq	-32(%rbp), %rax
	cmpl	$0, 552(%rax)
	je	.LBB20_72
# %bb.65:                               # %if.then174
	movq	img, %rax
	movq	14168(%rax), %rax
	movq	-32(%rbp), %rcx
	movslq	536(%rcx), %rcx
	imulq	$632, %rcx, %rcx        # imm = 0x278
	addq	%rcx, %rax
	cmpl	$0, 532(%rax)
	jne	.LBB20_70
# %bb.66:                               # %if.then181
	movl	-4(%rbp), %ecx
	movl	-36(%rbp), %eax
	cltd
	movl	$2, %esi
	idivl	%esi
	cmpl	%eax, %ecx
	jge	.LBB20_68
# %bb.67:                               # %if.then184
	movl	-4(%rbp), %eax
	shll	$1, %eax
	addl	$1, %eax
	movl	%eax, -20(%rbp)
	jmp	.LBB20_69
.LBB20_68:                              # %if.else187
	movq	-16(%rbp), %rax
	movl	4(%rax), %ecx
	addl	$1, %ecx
	movl	%ecx, 4(%rax)
	movl	-4(%rbp), %eax
	shll	$1, %eax
	addl	$1, %eax
	subl	-36(%rbp), %eax
	movl	%eax, -20(%rbp)
.LBB20_69:                              # %if.end193
	jmp	.LBB20_71
.LBB20_70:                              # %if.else194
	movq	-16(%rbp), %rax
	movl	4(%rax), %ecx
	addl	$1, %ecx
	movl	%ecx, 4(%rax)
	movl	-4(%rbp), %eax
	movl	%eax, -20(%rbp)
.LBB20_71:                              # %if.end197
	jmp	.LBB20_72
.LBB20_72:                              # %if.end198
	jmp	.LBB20_73
.LBB20_73:                              # %if.end199
	jmp	.LBB20_74
.LBB20_74:                              # %if.end200
	jmp	.LBB20_75
.LBB20_75:                              # %if.end201
	jmp	.LBB20_76
.LBB20_76:                              # %if.end202
	jmp	.LBB20_127
.LBB20_77:                              # %if.else203
	cmpl	$0, -44(%rbp)
	jl	.LBB20_109
# %bb.78:                               # %land.lhs.true205
	movl	-44(%rbp), %eax
	cmpl	-48(%rbp), %eax
	jge	.LBB20_109
# %bb.79:                               # %if.then207
	cmpl	$0, -4(%rbp)
	jge	.LBB20_100
# %bb.80:                               # %if.then209
	movq	-32(%rbp), %rax
	cmpl	$0, 532(%rax)
	jne	.LBB20_90
# %bb.81:                               # %if.then212
	movl	-40(%rbp), %eax
	andl	$1, %eax
	cmpl	$0, %eax
	jne	.LBB20_88
# %bb.82:                               # %if.then215
	movq	-32(%rbp), %rax
	movl	540(%rax), %eax
	movq	-16(%rbp), %rcx
	movl	%eax, 4(%rcx)
	movq	-32(%rbp), %rax
	cmpl	$0, 556(%rax)
	je	.LBB20_87
# %bb.83:                               # %if.then218
	movq	img, %rax
	cmpl	$1, 72636(%rax)
	jne	.LBB20_85
# %bb.84:                               # %land.lhs.true220
	movq	img, %rax
	movq	14168(%rax), %rax
	movq	-32(%rbp), %rcx
	movslq	540(%rcx), %rcx
	imulq	$632, %rcx, %rcx        # imm = 0x278
	addq	%rcx, %rax
	cmpl	$0, 532(%rax)
	jne	.LBB20_86
.LBB20_85:                              # %if.then227
	movq	-16(%rbp), %rax
	movl	4(%rax), %ecx
	addl	$1, %ecx
	movl	%ecx, 4(%rax)
.LBB20_86:                              # %if.end230
	jmp	.LBB20_87
.LBB20_87:                              # %if.end231
	movq	-32(%rbp), %rax
	movl	556(%rax), %eax
	movq	-16(%rbp), %rcx
	movl	%eax, (%rcx)
	movl	-4(%rbp), %eax
	movl	%eax, -20(%rbp)
	jmp	.LBB20_89
.LBB20_88:                              # %if.else234
	movl	-40(%rbp), %eax
	subl	$1, %eax
	movq	-16(%rbp), %rcx
	movl	%eax, 4(%rcx)
	movq	-16(%rbp), %rax
	movl	$1, (%rax)
	movl	-4(%rbp), %eax
	movl	%eax, -20(%rbp)
.LBB20_89:                              # %if.end238
	jmp	.LBB20_99
.LBB20_90:                              # %if.else239
	movl	-40(%rbp), %eax
	andl	$1, %eax
	cmpl	$0, %eax
	jne	.LBB20_97
# %bb.91:                               # %if.then242
	movq	-32(%rbp), %rax
	movl	540(%rax), %eax
	movq	-16(%rbp), %rcx
	movl	%eax, 4(%rcx)
	movq	-32(%rbp), %rax
	movl	556(%rax), %eax
	movq	-16(%rbp), %rcx
	movl	%eax, (%rcx)
	movq	-32(%rbp), %rax
	cmpl	$0, 556(%rax)
	je	.LBB20_96
# %bb.92:                               # %if.then249
	movq	img, %rax
	movq	14168(%rax), %rax
	movq	-32(%rbp), %rcx
	movslq	540(%rcx), %rcx
	imulq	$632, %rcx, %rcx        # imm = 0x278
	addq	%rcx, %rax
	cmpl	$0, 532(%rax)
	jne	.LBB20_94
# %bb.93:                               # %if.then256
	movq	-16(%rbp), %rax
	movl	4(%rax), %ecx
	addl	$1, %ecx
	movl	%ecx, 4(%rax)
	movl	-4(%rbp), %eax
	shll	$1, %eax
	movl	%eax, -20(%rbp)
	jmp	.LBB20_95
.LBB20_94:                              # %if.else260
	movl	-4(%rbp), %eax
	movl	%eax, -20(%rbp)
.LBB20_95:                              # %if.end261
	jmp	.LBB20_96
.LBB20_96:                              # %if.end262
	jmp	.LBB20_98
.LBB20_97:                              # %if.else263
	movq	-32(%rbp), %rax
	movl	540(%rax), %eax
	addl	$1, %eax
	movq	-16(%rbp), %rcx
	movl	%eax, 4(%rcx)
	movq	-32(%rbp), %rax
	movl	556(%rax), %eax
	movq	-16(%rbp), %rcx
	movl	%eax, (%rcx)
	movl	-4(%rbp), %eax
	movl	%eax, -20(%rbp)
.LBB20_98:                              # %if.end269
	jmp	.LBB20_99
.LBB20_99:                              # %if.end270
	jmp	.LBB20_108
.LBB20_100:                             # %if.else271
	cmpl	$0, -4(%rbp)
	jne	.LBB20_103
# %bb.101:                              # %land.lhs.true273
	movq	img, %rax
	cmpl	$2, 72636(%rax)
	jne	.LBB20_103
# %bb.102:                              # %if.then276
	movq	-32(%rbp), %rax
	movl	540(%rax), %eax
	addl	$1, %eax
	movq	-16(%rbp), %rcx
	movl	%eax, 4(%rcx)
	movq	-16(%rbp), %rax
	movl	$1, (%rax)
	movl	-4(%rbp), %eax
	subl	$1, %eax
	movl	%eax, -20(%rbp)
	jmp	.LBB20_107
.LBB20_103:                             # %if.else282
	cmpl	$0, -4(%rbp)
	jl	.LBB20_106
# %bb.104:                              # %land.lhs.true284
	movl	-4(%rbp), %eax
	cmpl	-36(%rbp), %eax
	jge	.LBB20_106
# %bb.105:                              # %if.then286
	movl	-40(%rbp), %eax
	movq	-16(%rbp), %rcx
	movl	%eax, 4(%rcx)
	movq	-16(%rbp), %rax
	movl	$1, (%rax)
	movl	-4(%rbp), %eax
	movl	%eax, -20(%rbp)
.LBB20_106:                             # %if.end289
	jmp	.LBB20_107
.LBB20_107:                             # %if.end290
	jmp	.LBB20_108
.LBB20_108:                             # %if.end291
	jmp	.LBB20_126
.LBB20_109:                             # %if.else292
	cmpl	$0, -4(%rbp)
	jge	.LBB20_125
# %bb.110:                              # %if.then294
	movq	-32(%rbp), %rax
	cmpl	$0, 532(%rax)
	jne	.LBB20_115
# %bb.111:                              # %if.then297
	movl	-40(%rbp), %eax
	andl	$1, %eax
	cmpl	$0, %eax
	jne	.LBB20_113
# %bb.112:                              # %if.then300
	movq	-32(%rbp), %rax
	movl	544(%rax), %eax
	addl	$1, %eax
	movq	-16(%rbp), %rcx
	movl	%eax, 4(%rcx)
	movq	-32(%rbp), %rax
	movl	560(%rax), %eax
	movq	-16(%rbp), %rcx
	movl	%eax, (%rcx)
	movl	-4(%rbp), %eax
	movl	%eax, -20(%rbp)
	jmp	.LBB20_114
.LBB20_113:                             # %if.else304
	movq	-16(%rbp), %rax
	movl	$0, (%rax)
.LBB20_114:                             # %if.end306
	jmp	.LBB20_124
.LBB20_115:                             # %if.else307
	movl	-40(%rbp), %eax
	andl	$1, %eax
	cmpl	$0, %eax
	jne	.LBB20_122
# %bb.116:                              # %if.then310
	movq	-32(%rbp), %rax
	movl	544(%rax), %eax
	movq	-16(%rbp), %rcx
	movl	%eax, 4(%rcx)
	movq	-32(%rbp), %rax
	movl	560(%rax), %eax
	movq	-16(%rbp), %rcx
	movl	%eax, (%rcx)
	movq	-32(%rbp), %rax
	cmpl	$0, 560(%rax)
	je	.LBB20_121
# %bb.117:                              # %if.then317
	movq	img, %rax
	movq	14168(%rax), %rax
	movq	-32(%rbp), %rcx
	movslq	544(%rcx), %rcx
	imulq	$632, %rcx, %rcx        # imm = 0x278
	addq	%rcx, %rax
	cmpl	$0, 532(%rax)
	jne	.LBB20_119
# %bb.118:                              # %if.then324
	movq	-16(%rbp), %rax
	movl	4(%rax), %ecx
	addl	$1, %ecx
	movl	%ecx, 4(%rax)
	movl	-4(%rbp), %eax
	shll	$1, %eax
	movl	%eax, -20(%rbp)
	jmp	.LBB20_120
.LBB20_119:                             # %if.else328
	movl	-4(%rbp), %eax
	movl	%eax, -20(%rbp)
.LBB20_120:                             # %if.end329
	jmp	.LBB20_121
.LBB20_121:                             # %if.end330
	jmp	.LBB20_123
.LBB20_122:                             # %if.else331
	movq	-32(%rbp), %rax
	movl	544(%rax), %eax
	addl	$1, %eax
	movq	-16(%rbp), %rcx
	movl	%eax, 4(%rcx)
	movq	-32(%rbp), %rax
	movl	560(%rax), %eax
	movq	-16(%rbp), %rcx
	movl	%eax, (%rcx)
	movl	-4(%rbp), %eax
	movl	%eax, -20(%rbp)
.LBB20_123:                             # %if.end337
	jmp	.LBB20_124
.LBB20_124:                             # %if.end338
	jmp	.LBB20_125
.LBB20_125:                             # %if.end339
	jmp	.LBB20_126
.LBB20_126:                             # %if.end340
	jmp	.LBB20_127
.LBB20_127:                             # %if.end341
	movq	-16(%rbp), %rax
	cmpl	$0, (%rax)
	jne	.LBB20_129
# %bb.128:                              # %lor.lhs.false
	movq	img, %rax
	cmpl	$0, 72636(%rax)
	je	.LBB20_133
.LBB20_129:                             # %if.then346
	movl	-44(%rbp), %eax
	addl	-48(%rbp), %eax
	cltd
	idivl	-48(%rbp)
	movq	-16(%rbp), %rax
	movl	%edx, 8(%rax)
	movl	-20(%rbp), %eax
	addl	-36(%rbp), %eax
	cltd
	idivl	-36(%rbp)
	movq	-16(%rbp), %rax
	movl	%edx, 12(%rax)
	movq	-16(%rbp), %rax
	movl	4(%rax), %edi
	movq	-16(%rbp), %rsi
	addq	$16, %rsi
	movq	-16(%rbp), %rdx
	addq	$20, %rdx
	callq	get_mb_pos
	cmpl	$0, -52(%rbp)
	je	.LBB20_131
# %bb.130:                              # %if.then353
	movq	-16(%rbp), %rax
	movl	8(%rax), %eax
	movq	-16(%rbp), %rcx
	addl	16(%rcx), %eax
	movl	%eax, 16(%rcx)
	movq	-16(%rbp), %rax
	movl	12(%rax), %eax
	movq	-16(%rbp), %rcx
	addl	20(%rcx), %eax
	movl	%eax, 20(%rcx)
	jmp	.LBB20_132
.LBB20_131:                             # %if.else360
	movq	-16(%rbp), %rax
	movl	16(%rax), %ecx
	movq	img, %rsi
	movl	$16, %eax
	cltd
	idivl	72708(%rsi)
	movl	%eax, %esi
	movl	%ecx, %eax
	cltd
	idivl	%esi
	movq	-16(%rbp), %rcx
	addl	8(%rcx), %eax
	movq	-16(%rbp), %rcx
	movl	%eax, 16(%rcx)
	movq	-16(%rbp), %rax
	movl	20(%rax), %ecx
	movq	img, %rsi
	movl	$16, %eax
	cltd
	idivl	72712(%rsi)
	movl	%eax, %esi
	movl	%ecx, %eax
	cltd
	idivl	%esi
	movq	-16(%rbp), %rcx
	addl	12(%rcx), %eax
	movq	-16(%rbp), %rcx
	movl	%eax, 20(%rcx)
.LBB20_132:                             # %if.end375
	jmp	.LBB20_133
.LBB20_133:                             # %if.end376
	cmpl	$1841959111, -56(%rbp)  # imm = 0x6DCA10C7
	jne	.LBB20_135
.LBB20_134:
	addq	$64, %rsp
	popq	%rbp
	.cfi_def_cfa %rsp, 8
	retq
.LBB20_135:                             # %func_exit
	.cfi_def_cfa %rbp, 16
	callq	detect_breach
	jmp	.LBB20_134
.Lfunc_end20:
	.size	getAffNeighbour.12, .Lfunc_end20-getAffNeighbour.12
	.cfi_endproc
                                        # -- End function
	.globl	getAffNeighbour.13      # -- Begin function getAffNeighbour.13
	.p2align	4, 0x90
	.type	getAffNeighbour.13,@function
getAffNeighbour.13:                     # @getAffNeighbour.13
	.cfi_startproc
# %bb.0:                                # %entry
	pushq	%rbp
	.cfi_def_cfa_offset 16
	.cfi_offset %rbp, -16
	movq	%rsp, %rbp
	.cfi_def_cfa_register %rbp
	subq	$64, %rsp
	movl	$750706573, -56(%rbp)   # imm = 0x2CBEDF8D
	movl	%edi, -40(%rbp)
	movl	%esi, -48(%rbp)
	movl	%edx, -4(%rbp)
	movl	%ecx, -52(%rbp)
	movq	%r8, -16(%rbp)
	movq	img, %rax
	movq	14168(%rax), %rax
	movl	-40(%rbp), %ecx
	imulq	$632, %rcx, %rcx        # imm = 0x278
	addq	%rcx, %rax
	movq	%rax, -32(%rbp)
	movl	$-1, -20(%rbp)
	cmpl	$0, -52(%rbp)
	je	.LBB21_2
# %bb.1:                                # %if.then
	movl	$16, -44(%rbp)
	movl	$16, -36(%rbp)
	jmp	.LBB21_3
.LBB21_2:                               # %if.else
	movq	img, %rax
	movl	72708(%rax), %eax
	movl	%eax, -44(%rbp)
	movq	img, %rax
	movl	72712(%rax), %eax
	movl	%eax, -36(%rbp)
.LBB21_3:                               # %if.end
	movq	-16(%rbp), %rax
	movl	$0, (%rax)
	movl	-4(%rbp), %eax
	movl	-36(%rbp), %ecx
	subl	$1, %ecx
	cmpl	%ecx, %eax
	jle	.LBB21_5
# %bb.4:                                # %if.then1
	jmp	.LBB21_133
.LBB21_5:                               # %if.end2
	movl	-48(%rbp), %eax
	movl	-44(%rbp), %ecx
	subl	$1, %ecx
	cmpl	%ecx, %eax
	jle	.LBB21_9
# %bb.6:                                # %land.lhs.true
	cmpl	$0, -4(%rbp)
	jl	.LBB21_9
# %bb.7:                                # %land.lhs.true6
	movl	-4(%rbp), %eax
	cmpl	-36(%rbp), %eax
	jge	.LBB21_9
# %bb.8:                                # %if.then8
	jmp	.LBB21_133
.LBB21_9:                               # %if.end9
	cmpl	$0, -48(%rbp)
	jge	.LBB21_77
# %bb.10:                               # %if.then11
	cmpl	$0, -4(%rbp)
	jge	.LBB21_31
# %bb.11:                               # %if.then13
	movq	-32(%rbp), %rax
	cmpl	$0, 532(%rax)
	jne	.LBB21_21
# %bb.12:                               # %if.then15
	movl	-40(%rbp), %eax
	andl	$1, %eax
	cmpl	$0, %eax
	jne	.LBB21_14
# %bb.13:                               # %if.then17
	movq	-32(%rbp), %rax
	movl	548(%rax), %eax
	addl	$1, %eax
	movq	-16(%rbp), %rcx
	movl	%eax, 4(%rcx)
	movq	-32(%rbp), %rax
	movl	564(%rax), %eax
	movq	-16(%rbp), %rcx
	movl	%eax, (%rcx)
	movl	-4(%rbp), %eax
	movl	%eax, -20(%rbp)
	jmp	.LBB21_20
.LBB21_14:                              # %if.else19
	movq	-32(%rbp), %rax
	movl	536(%rax), %eax
	movq	-16(%rbp), %rcx
	movl	%eax, 4(%rcx)
	movq	-32(%rbp), %rax
	movl	552(%rax), %eax
	movq	-16(%rbp), %rcx
	movl	%eax, (%rcx)
	movq	-32(%rbp), %rax
	cmpl	$0, 552(%rax)
	je	.LBB21_19
# %bb.15:                               # %if.then24
	movq	img, %rax
	movq	14168(%rax), %rax
	movq	-32(%rbp), %rcx
	movslq	536(%rcx), %rcx
	imulq	$632, %rcx, %rcx        # imm = 0x278
	addq	%rcx, %rax
	cmpl	$0, 532(%rax)
	jne	.LBB21_17
# %bb.16:                               # %if.then31
	movl	-4(%rbp), %eax
	movl	%eax, -20(%rbp)
	jmp	.LBB21_18
.LBB21_17:                              # %if.else32
	movq	-16(%rbp), %rax
	movl	4(%rax), %ecx
	addl	$1, %ecx
	movl	%ecx, 4(%rax)
	movl	-4(%rbp), %eax
	addl	-36(%rbp), %eax
	sarl	$1, %eax
	movl	%eax, -20(%rbp)
.LBB21_18:                              # %if.end35
	jmp	.LBB21_19
.LBB21_19:                              # %if.end36
	jmp	.LBB21_20
.LBB21_20:                              # %if.end37
	jmp	.LBB21_30
.LBB21_21:                              # %if.else38
	movl	-40(%rbp), %eax
	andl	$1, %eax
	cmpl	$0, %eax
	jne	.LBB21_28
# %bb.22:                               # %if.then41
	movq	-32(%rbp), %rax
	movl	548(%rax), %eax
	movq	-16(%rbp), %rcx
	movl	%eax, 4(%rcx)
	movq	-32(%rbp), %rax
	movl	564(%rax), %eax
	movq	-16(%rbp), %rcx
	movl	%eax, (%rcx)
	movq	-32(%rbp), %rax
	cmpl	$0, 564(%rax)
	je	.LBB21_27
# %bb.23:                               # %if.then48
	movq	img, %rax
	movq	14168(%rax), %rax
	movq	-32(%rbp), %rcx
	movslq	548(%rcx), %rcx
	imulq	$632, %rcx, %rcx        # imm = 0x278
	addq	%rcx, %rax
	cmpl	$0, 532(%rax)
	jne	.LBB21_25
# %bb.24:                               # %if.then55
	movq	-16(%rbp), %rax
	movl	4(%rax), %ecx
	addl	$1, %ecx
	movl	%ecx, 4(%rax)
	movl	-4(%rbp), %eax
	shll	$1, %eax
	movl	%eax, -20(%rbp)
	jmp	.LBB21_26
.LBB21_25:                              # %if.else58
	movl	-4(%rbp), %eax
	movl	%eax, -20(%rbp)
.LBB21_26:                              # %if.end59
	jmp	.LBB21_27
.LBB21_27:                              # %if.end60
	jmp	.LBB21_29
.LBB21_28:                              # %if.else61
	movq	-32(%rbp), %rax
	movl	548(%rax), %eax
	addl	$1, %eax
	movq	-16(%rbp), %rcx
	movl	%eax, 4(%rcx)
	movq	-32(%rbp), %rax
	movl	564(%rax), %eax
	movq	-16(%rbp), %rcx
	movl	%eax, (%rcx)
	movl	-4(%rbp), %eax
	movl	%eax, -20(%rbp)
.LBB21_29:                              # %if.end67
	jmp	.LBB21_30
.LBB21_30:                              # %if.end68
	jmp	.LBB21_76
.LBB21_31:                              # %if.else69
	cmpl	$0, -4(%rbp)
	jl	.LBB21_75
# %bb.32:                               # %land.lhs.true71
	movl	-4(%rbp), %eax
	cmpl	-36(%rbp), %eax
	jge	.LBB21_75
# %bb.33:                               # %if.then73
	movq	-32(%rbp), %rax
	cmpl	$0, 532(%rax)
	jne	.LBB21_54
# %bb.34:                               # %if.then76
	movl	-40(%rbp), %eax
	andl	$1, %eax
	cmpl	$0, %eax
	jne	.LBB21_44
# %bb.35:                               # %if.then79
	movq	-32(%rbp), %rax
	movl	536(%rax), %eax
	movq	-16(%rbp), %rcx
	movl	%eax, 4(%rcx)
	movq	-32(%rbp), %rax
	movl	552(%rax), %eax
	movq	-16(%rbp), %rcx
	movl	%eax, (%rcx)
	movq	-32(%rbp), %rax
	cmpl	$0, 552(%rax)
	je	.LBB21_43
# %bb.36:                               # %if.then86
	movq	img, %rax
	movq	14168(%rax), %rax
	movq	-32(%rbp), %rcx
	movslq	536(%rcx), %rcx
	imulq	$632, %rcx, %rcx        # imm = 0x278
	addq	%rcx, %rax
	cmpl	$0, 532(%rax)
	jne	.LBB21_38
# %bb.37:                               # %if.then93
	movl	-4(%rbp), %eax
	movl	%eax, -20(%rbp)
	jmp	.LBB21_42
.LBB21_38:                              # %if.else94
	movl	-4(%rbp), %eax
	cltd
	movl	$2, %ecx
	idivl	%ecx
	cmpl	$0, %edx
	jne	.LBB21_40
# %bb.39:                               # %if.then97
	movl	-4(%rbp), %eax
	sarl	$1, %eax
	movl	%eax, -20(%rbp)
	jmp	.LBB21_41
.LBB21_40:                              # %if.else99
	movq	-16(%rbp), %rax
	movl	4(%rax), %ecx
	addl	$1, %ecx
	movl	%ecx, 4(%rax)
	movl	-4(%rbp), %eax
	sarl	$1, %eax
	movl	%eax, -20(%rbp)
.LBB21_41:                              # %if.end103
	jmp	.LBB21_42
.LBB21_42:                              # %if.end104
	jmp	.LBB21_43
.LBB21_43:                              # %if.end105
	jmp	.LBB21_53
.LBB21_44:                              # %if.else106
	movq	-32(%rbp), %rax
	movl	536(%rax), %eax
	movq	-16(%rbp), %rcx
	movl	%eax, 4(%rcx)
	movq	-32(%rbp), %rax
	movl	552(%rax), %eax
	movq	-16(%rbp), %rcx
	movl	%eax, (%rcx)
	movq	-32(%rbp), %rax
	cmpl	$0, 552(%rax)
	je	.LBB21_52
# %bb.45:                               # %if.then113
	movq	img, %rax
	movq	14168(%rax), %rax
	movq	-32(%rbp), %rcx
	movslq	536(%rcx), %rcx
	imulq	$632, %rcx, %rcx        # imm = 0x278
	addq	%rcx, %rax
	cmpl	$0, 532(%rax)
	jne	.LBB21_47
# %bb.46:                               # %if.then120
	movq	-16(%rbp), %rax
	movl	4(%rax), %ecx
	addl	$1, %ecx
	movl	%ecx, 4(%rax)
	movl	-4(%rbp), %eax
	movl	%eax, -20(%rbp)
	jmp	.LBB21_51
.LBB21_47:                              # %if.else123
	movl	-4(%rbp), %eax
	cltd
	movl	$2, %ecx
	idivl	%ecx
	cmpl	$0, %edx
	jne	.LBB21_49
# %bb.48:                               # %if.then126
	movl	-4(%rbp), %eax
	addl	-36(%rbp), %eax
	sarl	$1, %eax
	movl	%eax, -20(%rbp)
	jmp	.LBB21_50
.LBB21_49:                              # %if.else129
	movq	-16(%rbp), %rax
	movl	4(%rax), %ecx
	addl	$1, %ecx
	movl	%ecx, 4(%rax)
	movl	-4(%rbp), %eax
	addl	-36(%rbp), %eax
	sarl	$1, %eax
	movl	%eax, -20(%rbp)
.LBB21_50:                              # %if.end134
	jmp	.LBB21_51
.LBB21_51:                              # %if.end135
	jmp	.LBB21_52
.LBB21_52:                              # %if.end136
	jmp	.LBB21_53
.LBB21_53:                              # %if.end137
	jmp	.LBB21_74
.LBB21_54:                              # %if.else138
	movl	-40(%rbp), %eax
	andl	$1, %eax
	cmpl	$0, %eax
	jne	.LBB21_64
# %bb.55:                               # %if.then141
	movq	-32(%rbp), %rax
	movl	536(%rax), %eax
	movq	-16(%rbp), %rcx
	movl	%eax, 4(%rcx)
	movq	-32(%rbp), %rax
	movl	552(%rax), %eax
	movq	-16(%rbp), %rcx
	movl	%eax, (%rcx)
	movq	-32(%rbp), %rax
	cmpl	$0, 552(%rax)
	je	.LBB21_63
# %bb.56:                               # %if.then148
	movq	img, %rax
	movq	14168(%rax), %rax
	movq	-32(%rbp), %rcx
	movslq	536(%rcx), %rcx
	imulq	$632, %rcx, %rcx        # imm = 0x278
	addq	%rcx, %rax
	cmpl	$0, 532(%rax)
	jne	.LBB21_61
# %bb.57:                               # %if.then155
	movl	-4(%rbp), %ecx
	movl	-36(%rbp), %eax
	cltd
	movl	$2, %esi
	idivl	%esi
	cmpl	%eax, %ecx
	jge	.LBB21_59
# %bb.58:                               # %if.then157
	movl	-4(%rbp), %eax
	shll	$1, %eax
	movl	%eax, -20(%rbp)
	jmp	.LBB21_60
.LBB21_59:                              # %if.else158
	movq	-16(%rbp), %rax
	movl	4(%rax), %ecx
	addl	$1, %ecx
	movl	%ecx, 4(%rax)
	movl	-4(%rbp), %eax
	shll	$1, %eax
	subl	-36(%rbp), %eax
	movl	%eax, -20(%rbp)
.LBB21_60:                              # %if.end163
	jmp	.LBB21_62
.LBB21_61:                              # %if.else164
	movl	-4(%rbp), %eax
	movl	%eax, -20(%rbp)
.LBB21_62:                              # %if.end165
	jmp	.LBB21_63
.LBB21_63:                              # %if.end166
	jmp	.LBB21_73
.LBB21_64:                              # %if.else167
	movq	-32(%rbp), %rax
	movl	536(%rax), %eax
	movq	-16(%rbp), %rcx
	movl	%eax, 4(%rcx)
	movq	-32(%rbp), %rax
	movl	552(%rax), %eax
	movq	-16(%rbp), %rcx
	movl	%eax, (%rcx)
	movq	-32(%rbp), %rax
	cmpl	$0, 552(%rax)
	je	.LBB21_72
# %bb.65:                               # %if.then174
	movq	img, %rax
	movq	14168(%rax), %rax
	movq	-32(%rbp), %rcx
	movslq	536(%rcx), %rcx
	imulq	$632, %rcx, %rcx        # imm = 0x278
	addq	%rcx, %rax
	cmpl	$0, 532(%rax)
	jne	.LBB21_70
# %bb.66:                               # %if.then181
	movl	-4(%rbp), %ecx
	movl	-36(%rbp), %eax
	cltd
	movl	$2, %esi
	idivl	%esi
	cmpl	%eax, %ecx
	jge	.LBB21_68
# %bb.67:                               # %if.then184
	movl	-4(%rbp), %eax
	shll	$1, %eax
	addl	$1, %eax
	movl	%eax, -20(%rbp)
	jmp	.LBB21_69
.LBB21_68:                              # %if.else187
	movq	-16(%rbp), %rax
	movl	4(%rax), %ecx
	addl	$1, %ecx
	movl	%ecx, 4(%rax)
	movl	-4(%rbp), %eax
	shll	$1, %eax
	addl	$1, %eax
	subl	-36(%rbp), %eax
	movl	%eax, -20(%rbp)
.LBB21_69:                              # %if.end193
	jmp	.LBB21_71
.LBB21_70:                              # %if.else194
	movq	-16(%rbp), %rax
	movl	4(%rax), %ecx
	addl	$1, %ecx
	movl	%ecx, 4(%rax)
	movl	-4(%rbp), %eax
	movl	%eax, -20(%rbp)
.LBB21_71:                              # %if.end197
	jmp	.LBB21_72
.LBB21_72:                              # %if.end198
	jmp	.LBB21_73
.LBB21_73:                              # %if.end199
	jmp	.LBB21_74
.LBB21_74:                              # %if.end200
	jmp	.LBB21_75
.LBB21_75:                              # %if.end201
	jmp	.LBB21_76
.LBB21_76:                              # %if.end202
	jmp	.LBB21_127
.LBB21_77:                              # %if.else203
	cmpl	$0, -48(%rbp)
	jl	.LBB21_109
# %bb.78:                               # %land.lhs.true205
	movl	-48(%rbp), %eax
	cmpl	-44(%rbp), %eax
	jge	.LBB21_109
# %bb.79:                               # %if.then207
	cmpl	$0, -4(%rbp)
	jge	.LBB21_100
# %bb.80:                               # %if.then209
	movq	-32(%rbp), %rax
	cmpl	$0, 532(%rax)
	jne	.LBB21_90
# %bb.81:                               # %if.then212
	movl	-40(%rbp), %eax
	andl	$1, %eax
	cmpl	$0, %eax
	jne	.LBB21_88
# %bb.82:                               # %if.then215
	movq	-32(%rbp), %rax
	movl	540(%rax), %eax
	movq	-16(%rbp), %rcx
	movl	%eax, 4(%rcx)
	movq	-32(%rbp), %rax
	cmpl	$0, 556(%rax)
	je	.LBB21_87
# %bb.83:                               # %if.then218
	movq	img, %rax
	cmpl	$1, 72636(%rax)
	jne	.LBB21_85
# %bb.84:                               # %land.lhs.true220
	movq	img, %rax
	movq	14168(%rax), %rax
	movq	-32(%rbp), %rcx
	movslq	540(%rcx), %rcx
	imulq	$632, %rcx, %rcx        # imm = 0x278
	addq	%rcx, %rax
	cmpl	$0, 532(%rax)
	jne	.LBB21_86
.LBB21_85:                              # %if.then227
	movq	-16(%rbp), %rax
	movl	4(%rax), %ecx
	addl	$1, %ecx
	movl	%ecx, 4(%rax)
.LBB21_86:                              # %if.end230
	jmp	.LBB21_87
.LBB21_87:                              # %if.end231
	movq	-32(%rbp), %rax
	movl	556(%rax), %eax
	movq	-16(%rbp), %rcx
	movl	%eax, (%rcx)
	movl	-4(%rbp), %eax
	movl	%eax, -20(%rbp)
	jmp	.LBB21_89
.LBB21_88:                              # %if.else234
	movl	-40(%rbp), %eax
	subl	$1, %eax
	movq	-16(%rbp), %rcx
	movl	%eax, 4(%rcx)
	movq	-16(%rbp), %rax
	movl	$1, (%rax)
	movl	-4(%rbp), %eax
	movl	%eax, -20(%rbp)
.LBB21_89:                              # %if.end238
	jmp	.LBB21_99
.LBB21_90:                              # %if.else239
	movl	-40(%rbp), %eax
	andl	$1, %eax
	cmpl	$0, %eax
	jne	.LBB21_97
# %bb.91:                               # %if.then242
	movq	-32(%rbp), %rax
	movl	540(%rax), %eax
	movq	-16(%rbp), %rcx
	movl	%eax, 4(%rcx)
	movq	-32(%rbp), %rax
	movl	556(%rax), %eax
	movq	-16(%rbp), %rcx
	movl	%eax, (%rcx)
	movq	-32(%rbp), %rax
	cmpl	$0, 556(%rax)
	je	.LBB21_96
# %bb.92:                               # %if.then249
	movq	img, %rax
	movq	14168(%rax), %rax
	movq	-32(%rbp), %rcx
	movslq	540(%rcx), %rcx
	imulq	$632, %rcx, %rcx        # imm = 0x278
	addq	%rcx, %rax
	cmpl	$0, 532(%rax)
	jne	.LBB21_94
# %bb.93:                               # %if.then256
	movq	-16(%rbp), %rax
	movl	4(%rax), %ecx
	addl	$1, %ecx
	movl	%ecx, 4(%rax)
	movl	-4(%rbp), %eax
	shll	$1, %eax
	movl	%eax, -20(%rbp)
	jmp	.LBB21_95
.LBB21_94:                              # %if.else260
	movl	-4(%rbp), %eax
	movl	%eax, -20(%rbp)
.LBB21_95:                              # %if.end261
	jmp	.LBB21_96
.LBB21_96:                              # %if.end262
	jmp	.LBB21_98
.LBB21_97:                              # %if.else263
	movq	-32(%rbp), %rax
	movl	540(%rax), %eax
	addl	$1, %eax
	movq	-16(%rbp), %rcx
	movl	%eax, 4(%rcx)
	movq	-32(%rbp), %rax
	movl	556(%rax), %eax
	movq	-16(%rbp), %rcx
	movl	%eax, (%rcx)
	movl	-4(%rbp), %eax
	movl	%eax, -20(%rbp)
.LBB21_98:                              # %if.end269
	jmp	.LBB21_99
.LBB21_99:                              # %if.end270
	jmp	.LBB21_108
.LBB21_100:                             # %if.else271
	cmpl	$0, -4(%rbp)
	jne	.LBB21_103
# %bb.101:                              # %land.lhs.true273
	movq	img, %rax
	cmpl	$2, 72636(%rax)
	jne	.LBB21_103
# %bb.102:                              # %if.then276
	movq	-32(%rbp), %rax
	movl	540(%rax), %eax
	addl	$1, %eax
	movq	-16(%rbp), %rcx
	movl	%eax, 4(%rcx)
	movq	-16(%rbp), %rax
	movl	$1, (%rax)
	movl	-4(%rbp), %eax
	subl	$1, %eax
	movl	%eax, -20(%rbp)
	jmp	.LBB21_107
.LBB21_103:                             # %if.else282
	cmpl	$0, -4(%rbp)
	jl	.LBB21_106
# %bb.104:                              # %land.lhs.true284
	movl	-4(%rbp), %eax
	cmpl	-36(%rbp), %eax
	jge	.LBB21_106
# %bb.105:                              # %if.then286
	movl	-40(%rbp), %eax
	movq	-16(%rbp), %rcx
	movl	%eax, 4(%rcx)
	movq	-16(%rbp), %rax
	movl	$1, (%rax)
	movl	-4(%rbp), %eax
	movl	%eax, -20(%rbp)
.LBB21_106:                             # %if.end289
	jmp	.LBB21_107
.LBB21_107:                             # %if.end290
	jmp	.LBB21_108
.LBB21_108:                             # %if.end291
	jmp	.LBB21_126
.LBB21_109:                             # %if.else292
	cmpl	$0, -4(%rbp)
	jge	.LBB21_125
# %bb.110:                              # %if.then294
	movq	-32(%rbp), %rax
	cmpl	$0, 532(%rax)
	jne	.LBB21_115
# %bb.111:                              # %if.then297
	movl	-40(%rbp), %eax
	andl	$1, %eax
	cmpl	$0, %eax
	jne	.LBB21_113
# %bb.112:                              # %if.then300
	movq	-32(%rbp), %rax
	movl	544(%rax), %eax
	addl	$1, %eax
	movq	-16(%rbp), %rcx
	movl	%eax, 4(%rcx)
	movq	-32(%rbp), %rax
	movl	560(%rax), %eax
	movq	-16(%rbp), %rcx
	movl	%eax, (%rcx)
	movl	-4(%rbp), %eax
	movl	%eax, -20(%rbp)
	jmp	.LBB21_114
.LBB21_113:                             # %if.else304
	movq	-16(%rbp), %rax
	movl	$0, (%rax)
.LBB21_114:                             # %if.end306
	jmp	.LBB21_124
.LBB21_115:                             # %if.else307
	movl	-40(%rbp), %eax
	andl	$1, %eax
	cmpl	$0, %eax
	jne	.LBB21_122
# %bb.116:                              # %if.then310
	movq	-32(%rbp), %rax
	movl	544(%rax), %eax
	movq	-16(%rbp), %rcx
	movl	%eax, 4(%rcx)
	movq	-32(%rbp), %rax
	movl	560(%rax), %eax
	movq	-16(%rbp), %rcx
	movl	%eax, (%rcx)
	movq	-32(%rbp), %rax
	cmpl	$0, 560(%rax)
	je	.LBB21_121
# %bb.117:                              # %if.then317
	movq	img, %rax
	movq	14168(%rax), %rax
	movq	-32(%rbp), %rcx
	movslq	544(%rcx), %rcx
	imulq	$632, %rcx, %rcx        # imm = 0x278
	addq	%rcx, %rax
	cmpl	$0, 532(%rax)
	jne	.LBB21_119
# %bb.118:                              # %if.then324
	movq	-16(%rbp), %rax
	movl	4(%rax), %ecx
	addl	$1, %ecx
	movl	%ecx, 4(%rax)
	movl	-4(%rbp), %eax
	shll	$1, %eax
	movl	%eax, -20(%rbp)
	jmp	.LBB21_120
.LBB21_119:                             # %if.else328
	movl	-4(%rbp), %eax
	movl	%eax, -20(%rbp)
.LBB21_120:                             # %if.end329
	jmp	.LBB21_121
.LBB21_121:                             # %if.end330
	jmp	.LBB21_123
.LBB21_122:                             # %if.else331
	movq	-32(%rbp), %rax
	movl	544(%rax), %eax
	addl	$1, %eax
	movq	-16(%rbp), %rcx
	movl	%eax, 4(%rcx)
	movq	-32(%rbp), %rax
	movl	560(%rax), %eax
	movq	-16(%rbp), %rcx
	movl	%eax, (%rcx)
	movl	-4(%rbp), %eax
	movl	%eax, -20(%rbp)
.LBB21_123:                             # %if.end337
	jmp	.LBB21_124
.LBB21_124:                             # %if.end338
	jmp	.LBB21_125
.LBB21_125:                             # %if.end339
	jmp	.LBB21_126
.LBB21_126:                             # %if.end340
	jmp	.LBB21_127
.LBB21_127:                             # %if.end341
	movq	-16(%rbp), %rax
	cmpl	$0, (%rax)
	jne	.LBB21_129
# %bb.128:                              # %lor.lhs.false
	movq	img, %rax
	cmpl	$0, 72636(%rax)
	je	.LBB21_133
.LBB21_129:                             # %if.then346
	movl	-48(%rbp), %eax
	addl	-44(%rbp), %eax
	cltd
	idivl	-44(%rbp)
	movq	-16(%rbp), %rax
	movl	%edx, 8(%rax)
	movl	-20(%rbp), %eax
	addl	-36(%rbp), %eax
	cltd
	idivl	-36(%rbp)
	movq	-16(%rbp), %rax
	movl	%edx, 12(%rax)
	movq	-16(%rbp), %rax
	movl	4(%rax), %edi
	movq	-16(%rbp), %rsi
	addq	$16, %rsi
	movq	-16(%rbp), %rdx
	addq	$20, %rdx
	callq	get_mb_pos
	cmpl	$0, -52(%rbp)
	je	.LBB21_131
# %bb.130:                              # %if.then353
	movq	-16(%rbp), %rax
	movl	8(%rax), %eax
	movq	-16(%rbp), %rcx
	addl	16(%rcx), %eax
	movl	%eax, 16(%rcx)
	movq	-16(%rbp), %rax
	movl	12(%rax), %eax
	movq	-16(%rbp), %rcx
	addl	20(%rcx), %eax
	movl	%eax, 20(%rcx)
	jmp	.LBB21_132
.LBB21_131:                             # %if.else360
	movq	-16(%rbp), %rax
	movl	16(%rax), %ecx
	movq	img, %rsi
	movl	$16, %eax
	cltd
	idivl	72708(%rsi)
	movl	%eax, %esi
	movl	%ecx, %eax
	cltd
	idivl	%esi
	movq	-16(%rbp), %rcx
	addl	8(%rcx), %eax
	movq	-16(%rbp), %rcx
	movl	%eax, 16(%rcx)
	movq	-16(%rbp), %rax
	movl	20(%rax), %ecx
	movq	img, %rsi
	movl	$16, %eax
	cltd
	idivl	72712(%rsi)
	movl	%eax, %esi
	movl	%ecx, %eax
	cltd
	idivl	%esi
	movq	-16(%rbp), %rcx
	addl	12(%rcx), %eax
	movq	-16(%rbp), %rcx
	movl	%eax, 20(%rcx)
.LBB21_132:                             # %if.end375
	jmp	.LBB21_133
.LBB21_133:                             # %if.end376
	cmpl	$750706573, -56(%rbp)   # imm = 0x2CBEDF8D
	jne	.LBB21_135
.LBB21_134:
	addq	$64, %rsp
	popq	%rbp
	.cfi_def_cfa %rsp, 8
	retq
.LBB21_135:                             # %func_exit
	.cfi_def_cfa %rbp, 16
	callq	detect_breach
	jmp	.LBB21_134
.Lfunc_end21:
	.size	getAffNeighbour.13, .Lfunc_end21-getAffNeighbour.13
	.cfi_endproc
                                        # -- End function
	.globl	getNonAffNeighbour.14   # -- Begin function getNonAffNeighbour.14
	.p2align	4, 0x90
	.type	getNonAffNeighbour.14,@function
getNonAffNeighbour.14:                  # @getNonAffNeighbour.14
	.cfi_startproc
# %bb.0:                                # %entry
	pushq	%rbp
	.cfi_def_cfa_offset 16
	.cfi_offset %rbp, -16
	movq	%rsp, %rbp
	.cfi_def_cfa_register %rbp
	subq	$48, %rsp
	movl	$1325814041, -44(%rbp)  # imm = 0x4F065119
	movl	%edi, -36(%rbp)
	movl	%esi, -12(%rbp)
	movl	%edx, -16(%rbp)
	movl	%ecx, -40(%rbp)
	movq	%r8, -8(%rbp)
	movq	img, %rax
	movq	14168(%rax), %rax
	movl	-36(%rbp), %ecx
	imulq	$632, %rcx, %rcx        # imm = 0x278
	addq	%rcx, %rax
	movq	%rax, -32(%rbp)
	cmpl	$0, -40(%rbp)
	je	.LBB22_2
# %bb.1:                                # %if.then
	movl	$16, -20(%rbp)
	movl	$16, -24(%rbp)
	jmp	.LBB22_3
.LBB22_2:                               # %if.else
	movq	img, %rax
	movl	72708(%rax), %eax
	movl	%eax, -20(%rbp)
	movq	img, %rax
	movl	72712(%rax), %eax
	movl	%eax, -24(%rbp)
.LBB22_3:                               # %if.end
	cmpl	$0, -12(%rbp)
	jge	.LBB22_6
# %bb.4:                                # %land.lhs.true
	cmpl	$0, -16(%rbp)
	jge	.LBB22_6
# %bb.5:                                # %if.then2
	movq	-32(%rbp), %rax
	movl	548(%rax), %eax
	movq	-8(%rbp), %rcx
	movl	%eax, 4(%rcx)
	movq	-32(%rbp), %rax
	movl	564(%rax), %eax
	movq	-8(%rbp), %rcx
	movl	%eax, (%rcx)
	jmp	.LBB22_27
.LBB22_6:                               # %if.else3
	cmpl	$0, -12(%rbp)
	jge	.LBB22_10
# %bb.7:                                # %land.lhs.true5
	cmpl	$0, -16(%rbp)
	jl	.LBB22_10
# %bb.8:                                # %land.lhs.true7
	movl	-16(%rbp), %eax
	cmpl	-24(%rbp), %eax
	jge	.LBB22_10
# %bb.9:                                # %if.then9
	movq	-32(%rbp), %rax
	movl	536(%rax), %eax
	movq	-8(%rbp), %rcx
	movl	%eax, 4(%rcx)
	movq	-32(%rbp), %rax
	movl	552(%rax), %eax
	movq	-8(%rbp), %rcx
	movl	%eax, (%rcx)
	jmp	.LBB22_26
.LBB22_10:                              # %if.else12
	cmpl	$0, -12(%rbp)
	jl	.LBB22_14
# %bb.11:                               # %land.lhs.true14
	movl	-12(%rbp), %eax
	cmpl	-20(%rbp), %eax
	jge	.LBB22_14
# %bb.12:                               # %land.lhs.true16
	cmpl	$0, -16(%rbp)
	jge	.LBB22_14
# %bb.13:                               # %if.then18
	movq	-32(%rbp), %rax
	movl	540(%rax), %eax
	movq	-8(%rbp), %rcx
	movl	%eax, 4(%rcx)
	movq	-32(%rbp), %rax
	movl	556(%rax), %eax
	movq	-8(%rbp), %rcx
	movl	%eax, (%rcx)
	jmp	.LBB22_25
.LBB22_14:                              # %if.else21
	cmpl	$0, -12(%rbp)
	jl	.LBB22_19
# %bb.15:                               # %land.lhs.true23
	movl	-12(%rbp), %eax
	cmpl	-20(%rbp), %eax
	jge	.LBB22_19
# %bb.16:                               # %land.lhs.true25
	cmpl	$0, -16(%rbp)
	jl	.LBB22_19
# %bb.17:                               # %land.lhs.true27
	movl	-16(%rbp), %eax
	cmpl	-24(%rbp), %eax
	jge	.LBB22_19
# %bb.18:                               # %if.then29
	movl	-36(%rbp), %eax
	movq	-8(%rbp), %rcx
	movl	%eax, 4(%rcx)
	movq	-8(%rbp), %rax
	movl	$1, (%rax)
	jmp	.LBB22_24
.LBB22_19:                              # %if.else32
	movl	-12(%rbp), %eax
	cmpl	-20(%rbp), %eax
	jl	.LBB22_22
# %bb.20:                               # %land.lhs.true34
	cmpl	$0, -16(%rbp)
	jge	.LBB22_22
# %bb.21:                               # %if.then36
	movq	-32(%rbp), %rax
	movl	544(%rax), %eax
	movq	-8(%rbp), %rcx
	movl	%eax, 4(%rcx)
	movq	-32(%rbp), %rax
	movl	560(%rax), %eax
	movq	-8(%rbp), %rcx
	movl	%eax, (%rcx)
	jmp	.LBB22_23
.LBB22_22:                              # %if.else39
	movq	-8(%rbp), %rax
	movl	$0, (%rax)
.LBB22_23:                              # %if.end41
	jmp	.LBB22_24
.LBB22_24:                              # %if.end42
	jmp	.LBB22_25
.LBB22_25:                              # %if.end43
	jmp	.LBB22_26
.LBB22_26:                              # %if.end44
	jmp	.LBB22_27
.LBB22_27:                              # %if.end45
	movq	-8(%rbp), %rax
	cmpl	$0, (%rax)
	jne	.LBB22_29
# %bb.28:                               # %lor.lhs.false
	movq	img, %rax
	cmpl	$0, 72636(%rax)
	je	.LBB22_33
.LBB22_29:                              # %if.then49
	movl	-12(%rbp), %eax
	addl	-20(%rbp), %eax
	cltd
	idivl	-20(%rbp)
	movq	-8(%rbp), %rax
	movl	%edx, 8(%rax)
	movl	-16(%rbp), %eax
	addl	-24(%rbp), %eax
	cltd
	idivl	-24(%rbp)
	movq	-8(%rbp), %rax
	movl	%edx, 12(%rax)
	movq	-8(%rbp), %rax
	movl	4(%rax), %edi
	movq	-8(%rbp), %rsi
	addq	$16, %rsi
	movq	-8(%rbp), %rdx
	addq	$20, %rdx
	callq	get_mb_pos
	cmpl	$0, -40(%rbp)
	je	.LBB22_31
# %bb.30:                               # %if.then54
	movq	-8(%rbp), %rax
	movl	8(%rax), %eax
	movq	-8(%rbp), %rcx
	addl	16(%rcx), %eax
	movl	%eax, 16(%rcx)
	movq	-8(%rbp), %rax
	movl	12(%rax), %eax
	movq	-8(%rbp), %rcx
	addl	20(%rcx), %eax
	movl	%eax, 20(%rcx)
	jmp	.LBB22_32
.LBB22_31:                              # %if.else61
	movq	-8(%rbp), %rax
	movl	16(%rax), %ecx
	movq	img, %rsi
	movl	$16, %eax
	cltd
	idivl	72708(%rsi)
	movl	%eax, %esi
	movl	%ecx, %eax
	cltd
	idivl	%esi
	movq	-8(%rbp), %rcx
	addl	8(%rcx), %eax
	movq	-8(%rbp), %rcx
	movl	%eax, 16(%rcx)
	movq	-8(%rbp), %rax
	movl	20(%rax), %ecx
	movq	img, %rsi
	movl	$16, %eax
	cltd
	idivl	72712(%rsi)
	movl	%eax, %esi
	movl	%ecx, %eax
	cltd
	idivl	%esi
	movq	-8(%rbp), %rcx
	addl	12(%rcx), %eax
	movq	-8(%rbp), %rcx
	movl	%eax, 20(%rcx)
.LBB22_32:                              # %if.end75
	jmp	.LBB22_33
.LBB22_33:                              # %if.end76
	cmpl	$1325814041, -44(%rbp)  # imm = 0x4F065119
	jne	.LBB22_35
.LBB22_34:
	addq	$48, %rsp
	popq	%rbp
	.cfi_def_cfa %rsp, 8
	retq
.LBB22_35:                              # %func_exit
	.cfi_def_cfa %rbp, 16
	callq	detect_breach
	jmp	.LBB22_34
.Lfunc_end22:
	.size	getNonAffNeighbour.14, .Lfunc_end22-getNonAffNeighbour.14
	.cfi_endproc
                                        # -- End function
	.globl	getChroma4x4Neighbour.15 # -- Begin function getChroma4x4Neighbour.15
	.p2align	4, 0x90
	.type	getChroma4x4Neighbour.15,@function
getChroma4x4Neighbour.15:               # @getChroma4x4Neighbour.15
	.cfi_startproc
# %bb.0:                                # %entry
	pushq	%rbp
	.cfi_def_cfa_offset 16
	.cfi_offset %rbp, -16
	movq	%rsp, %rbp
	.cfi_def_cfa_register %rbp
	subq	$48, %rsp
	movl	$1458706394, -28(%rbp)  # imm = 0x56F217DA
	movl	%edi, -16(%rbp)
	movl	%esi, -12(%rbp)
	movl	%edx, -40(%rbp)
	movl	%ecx, -20(%rbp)
	movl	%r8d, -36(%rbp)
	movq	%r9, -8(%rbp)
	movl	-12(%rbp), %eax
	shll	$2, %eax
	addl	-20(%rbp), %eax
	movl	%eax, -24(%rbp)
	movl	-40(%rbp), %eax
	shll	$2, %eax
	addl	-36(%rbp), %eax
	movl	%eax, -32(%rbp)
	movl	-16(%rbp), %edi
	movl	-24(%rbp), %esi
	movl	-32(%rbp), %edx
	movq	-8(%rbp), %r8
	xorl	%ecx, %ecx
	callq	getNeighbour
	movq	-8(%rbp), %rax
	cmpl	$0, (%rax)
	je	.LBB23_2
# %bb.1:                                # %if.then
	movq	-8(%rbp), %rcx
	movl	8(%rcx), %eax
	cltd
	movl	$4, %esi
	idivl	%esi
	movl	%eax, 8(%rcx)
	movq	-8(%rbp), %rcx
	movl	12(%rcx), %eax
	cltd
	idivl	%esi
	movl	%eax, 12(%rcx)
	movq	-8(%rbp), %rcx
	movl	16(%rcx), %eax
	cltd
	idivl	%esi
	movl	%eax, 16(%rcx)
	movq	-8(%rbp), %rcx
	movl	20(%rcx), %eax
	cltd
	idivl	%esi
	movl	%eax, 20(%rcx)
.LBB23_2:                               # %if.end
	cmpl	$1458706394, -28(%rbp)  # imm = 0x56F217DA
	jne	.LBB23_4
.LBB23_3:
	addq	$48, %rsp
	popq	%rbp
	.cfi_def_cfa %rsp, 8
	retq
.LBB23_4:                               # %func_exit
	.cfi_def_cfa %rbp, 16
	callq	detect_breach
	jmp	.LBB23_3
.Lfunc_end23:
	.size	getChroma4x4Neighbour.15, .Lfunc_end23-getChroma4x4Neighbour.15
	.cfi_endproc
                                        # -- End function
	.globl	getNeighbour.16         # -- Begin function getNeighbour.16
	.p2align	4, 0x90
	.type	getNeighbour.16,@function
getNeighbour.16:                        # @getNeighbour.16
	.cfi_startproc
# %bb.0:                                # %entry
	pushq	%rbp
	.cfi_def_cfa_offset 16
	.cfi_offset %rbp, -16
	movq	%rsp, %rbp
	.cfi_def_cfa_register %rbp
	subq	$32, %rsp
	movl	$176146664, -20(%rbp)   # imm = 0xA7FC8E8
	movl	%edi, -4(%rbp)
	movl	%esi, -16(%rbp)
	movl	%edx, -8(%rbp)
	movl	%ecx, -12(%rbp)
	movq	%r8, -32(%rbp)
	cmpl	$0, -4(%rbp)
	jge	.LBB24_2
# %bb.1:                                # %if.then
	movabsq	$.L.str, %rdi
	movl	$100, %esi
	callq	error
.LBB24_2:                               # %if.end
	movq	img, %rax
	cmpl	$0, 72400(%rax)
	je	.LBB24_4
# %bb.3:                                # %if.then1
	movl	-4(%rbp), %edi
	movl	-16(%rbp), %esi
	movl	-8(%rbp), %edx
	movl	-12(%rbp), %ecx
	movq	-32(%rbp), %r8
	callq	getAffNeighbour
	jmp	.LBB24_5
.LBB24_4:                               # %if.else
	movl	-4(%rbp), %edi
	movl	-16(%rbp), %esi
	movl	-8(%rbp), %edx
	movl	-12(%rbp), %ecx
	movq	-32(%rbp), %r8
	callq	getNonAffNeighbour
.LBB24_5:                               # %if.end2
	cmpl	$176146664, -20(%rbp)   # imm = 0xA7FC8E8
	jne	.LBB24_7
.LBB24_6:
	addq	$32, %rsp
	popq	%rbp
	.cfi_def_cfa %rsp, 8
	retq
.LBB24_7:                               # %func_exit
	.cfi_def_cfa %rbp, 16
	callq	detect_breach
	jmp	.LBB24_6
.Lfunc_end24:
	.size	getNeighbour.16, .Lfunc_end24-getNeighbour.16
	.cfi_endproc
                                        # -- End function
	.globl	getChroma4x4Neighbour.17 # -- Begin function getChroma4x4Neighbour.17
	.p2align	4, 0x90
	.type	getChroma4x4Neighbour.17,@function
getChroma4x4Neighbour.17:               # @getChroma4x4Neighbour.17
	.cfi_startproc
# %bb.0:                                # %entry
	pushq	%rbp
	.cfi_def_cfa_offset 16
	.cfi_offset %rbp, -16
	movq	%rsp, %rbp
	.cfi_def_cfa_register %rbp
	subq	$48, %rsp
	movl	$1186057970, -20(%rbp)  # imm = 0x46B1CEF2
	movl	%edi, -36(%rbp)
	movl	%esi, -28(%rbp)
	movl	%edx, -32(%rbp)
	movl	%ecx, -40(%rbp)
	movl	%r8d, -24(%rbp)
	movq	%r9, -8(%rbp)
	movl	-28(%rbp), %eax
	shll	$2, %eax
	addl	-40(%rbp), %eax
	movl	%eax, -12(%rbp)
	movl	-32(%rbp), %eax
	shll	$2, %eax
	addl	-24(%rbp), %eax
	movl	%eax, -16(%rbp)
	movl	-36(%rbp), %edi
	movl	-12(%rbp), %esi
	movl	-16(%rbp), %edx
	movq	-8(%rbp), %r8
	xorl	%ecx, %ecx
	callq	getNeighbour
	movq	-8(%rbp), %rax
	cmpl	$0, (%rax)
	je	.LBB25_2
# %bb.1:                                # %if.then
	movq	-8(%rbp), %rcx
	movl	8(%rcx), %eax
	cltd
	movl	$4, %esi
	idivl	%esi
	movl	%eax, 8(%rcx)
	movq	-8(%rbp), %rcx
	movl	12(%rcx), %eax
	cltd
	idivl	%esi
	movl	%eax, 12(%rcx)
	movq	-8(%rbp), %rcx
	movl	16(%rcx), %eax
	cltd
	idivl	%esi
	movl	%eax, 16(%rcx)
	movq	-8(%rbp), %rcx
	movl	20(%rcx), %eax
	cltd
	idivl	%esi
	movl	%eax, 20(%rcx)
.LBB25_2:                               # %if.end
	cmpl	$1186057970, -20(%rbp)  # imm = 0x46B1CEF2
	jne	.LBB25_4
.LBB25_3:
	addq	$48, %rsp
	popq	%rbp
	.cfi_def_cfa %rsp, 8
	retq
.LBB25_4:                               # %func_exit
	.cfi_def_cfa %rbp, 16
	callq	detect_breach
	jmp	.LBB25_3
.Lfunc_end25:
	.size	getChroma4x4Neighbour.17, .Lfunc_end25-getChroma4x4Neighbour.17
	.cfi_endproc
                                        # -- End function
	.globl	CheckAvailabilityOfNeighbors.18 # -- Begin function CheckAvailabilityOfNeighbors.18
	.p2align	4, 0x90
	.type	CheckAvailabilityOfNeighbors.18,@function
CheckAvailabilityOfNeighbors.18:        # @CheckAvailabilityOfNeighbors.18
	.cfi_startproc
# %bb.0:                                # %entry
	pushq	%rbp
	.cfi_def_cfa_offset 16
	.cfi_offset %rbp, -16
	movq	%rsp, %rbp
	.cfi_def_cfa_register %rbp
	subq	$32, %rsp
	movl	$710326445, -20(%rbp)   # imm = 0x2A56B8AD
	movq	img, %rax
	movl	12(%rax), %eax
	movl	%eax, -4(%rbp)
	movq	img, %rax
	movq	14168(%rax), %rax
	movslq	-4(%rbp), %rcx
	imulq	$632, %rcx, %rcx        # imm = 0x278
	addq	%rcx, %rax
	movq	%rax, -16(%rbp)
	movq	-16(%rbp), %rax
	movq	$0, 56(%rax)
	movq	-16(%rbp), %rax
	movq	$0, 64(%rax)
	movq	img, %rax
	cmpl	$0, 72400(%rax)
	je	.LBB26_8
# %bb.1:                                # %if.then
	movl	-4(%rbp), %eax
	cltd
	movl	$2, %ecx
	idivl	%ecx
	subl	$1, %eax
	shll	$1, %eax
	movq	-16(%rbp), %rdx
	movl	%eax, 536(%rdx)
	movl	-4(%rbp), %eax
	cltd
	idivl	%ecx
	movq	img, %rdx
	subl	72468(%rdx), %eax
	shll	$1, %eax
	movq	-16(%rbp), %rdx
	movl	%eax, 540(%rdx)
	movl	-4(%rbp), %eax
	cltd
	idivl	%ecx
	movq	img, %rdx
	subl	72468(%rdx), %eax
	addl	$1, %eax
	shll	$1, %eax
	movq	-16(%rbp), %rdx
	movl	%eax, 544(%rdx)
	movl	-4(%rbp), %eax
	cltd
	idivl	%ecx
	movq	img, %rcx
	subl	72468(%rcx), %eax
	subl	$1, %eax
	shll	$1, %eax
	movq	-16(%rbp), %rcx
	movl	%eax, 548(%rcx)
	movq	-16(%rbp), %rax
	movl	536(%rax), %edi
	movl	-4(%rbp), %esi
	callq	mb_is_available
	xorl	%ecx, %ecx
	cmpl	$0, %eax
	je	.LBB26_3
# %bb.2:                                # %land.rhs
	movl	-4(%rbp), %eax
	cltd
	movl	$2, %ecx
	idivl	%ecx
	movq	img, %rcx
	xorl	%edx, %edx
	divl	72468(%rcx)
	cmpl	$0, %edx
	setne	%cl
.LBB26_3:                               # %land.end
	andb	$1, %cl
	movzbl	%cl, %eax
	movq	-16(%rbp), %rcx
	movl	%eax, 552(%rcx)
	movq	-16(%rbp), %rax
	movl	540(%rax), %edi
	movl	-4(%rbp), %esi
	callq	mb_is_available
	movq	-16(%rbp), %rcx
	movl	%eax, 556(%rcx)
	movq	-16(%rbp), %rax
	movl	544(%rax), %edi
	movl	-4(%rbp), %esi
	callq	mb_is_available
	xorl	%ecx, %ecx
	cmpl	$0, %eax
	je	.LBB26_5
# %bb.4:                                # %land.rhs22
	movl	-4(%rbp), %eax
	cltd
	movl	$2, %ecx
	idivl	%ecx
	addl	$1, %eax
	movq	img, %rcx
	xorl	%edx, %edx
	divl	72468(%rcx)
	cmpl	$0, %edx
	setne	%cl
.LBB26_5:                               # %land.end28
	andb	$1, %cl
	movzbl	%cl, %eax
	movq	-16(%rbp), %rcx
	movl	%eax, 560(%rcx)
	movq	-16(%rbp), %rax
	movl	548(%rax), %edi
	movl	-4(%rbp), %esi
	callq	mb_is_available
	xorl	%ecx, %ecx
	cmpl	$0, %eax
	je	.LBB26_7
# %bb.6:                                # %land.rhs33
	movl	-4(%rbp), %eax
	cltd
	movl	$2, %ecx
	idivl	%ecx
	movq	img, %rcx
	xorl	%edx, %edx
	divl	72468(%rcx)
	cmpl	$0, %edx
	setne	%cl
.LBB26_7:                               # %land.end38
	andb	$1, %cl
	movzbl	%cl, %eax
	movq	-16(%rbp), %rcx
	movl	%eax, 564(%rcx)
	jmp	.LBB26_15
.LBB26_8:                               # %if.else
	movl	-4(%rbp), %eax
	subl	$1, %eax
	movq	-16(%rbp), %rcx
	movl	%eax, 536(%rcx)
	movl	-4(%rbp), %eax
	movq	img, %rcx
	subl	72468(%rcx), %eax
	movq	-16(%rbp), %rcx
	movl	%eax, 540(%rcx)
	movl	-4(%rbp), %eax
	movq	img, %rcx
	subl	72468(%rcx), %eax
	addl	$1, %eax
	movq	-16(%rbp), %rcx
	movl	%eax, 544(%rcx)
	movl	-4(%rbp), %eax
	movq	img, %rcx
	subl	72468(%rcx), %eax
	subl	$1, %eax
	movq	-16(%rbp), %rcx
	movl	%eax, 548(%rcx)
	movq	-16(%rbp), %rax
	movl	536(%rax), %edi
	movl	-4(%rbp), %esi
	callq	mb_is_available
	xorl	%ecx, %ecx
	cmpl	$0, %eax
	je	.LBB26_10
# %bb.9:                                # %land.rhs56
	movl	-4(%rbp), %eax
	movq	img, %rcx
	xorl	%edx, %edx
	divl	72468(%rcx)
	cmpl	$0, %edx
	setne	%cl
.LBB26_10:                              # %land.end60
	andb	$1, %cl
	movzbl	%cl, %eax
	movq	-16(%rbp), %rcx
	movl	%eax, 552(%rcx)
	movq	-16(%rbp), %rax
	movl	540(%rax), %edi
	movl	-4(%rbp), %esi
	callq	mb_is_available
	movq	-16(%rbp), %rcx
	movl	%eax, 556(%rcx)
	movq	-16(%rbp), %rax
	movl	544(%rax), %edi
	movl	-4(%rbp), %esi
	callq	mb_is_available
	xorl	%ecx, %ecx
	cmpl	$0, %eax
	je	.LBB26_12
# %bb.11:                               # %land.rhs69
	movl	-4(%rbp), %eax
	addl	$1, %eax
	movq	img, %rcx
	xorl	%edx, %edx
	divl	72468(%rcx)
	cmpl	$0, %edx
	setne	%cl
.LBB26_12:                              # %land.end74
	andb	$1, %cl
	movzbl	%cl, %eax
	movq	-16(%rbp), %rcx
	movl	%eax, 560(%rcx)
	movq	-16(%rbp), %rax
	movl	548(%rax), %edi
	movl	-4(%rbp), %esi
	callq	mb_is_available
	xorl	%ecx, %ecx
	cmpl	$0, %eax
	je	.LBB26_14
# %bb.13:                               # %land.rhs80
	movl	-4(%rbp), %eax
	movq	img, %rcx
	xorl	%edx, %edx
	divl	72468(%rcx)
	cmpl	$0, %edx
	setne	%cl
.LBB26_14:                              # %land.end84
	andb	$1, %cl
	movzbl	%cl, %eax
	movq	-16(%rbp), %rcx
	movl	%eax, 564(%rcx)
.LBB26_15:                              # %if.end
	movq	-16(%rbp), %rax
	cmpl	$0, 552(%rax)
	je	.LBB26_17
# %bb.16:                               # %if.then89
	movq	img, %rax
	movq	14168(%rax), %rax
	movq	-16(%rbp), %rcx
	movslq	536(%rcx), %rcx
	imulq	$632, %rcx, %rcx        # imm = 0x278
	addq	%rcx, %rax
	movq	-16(%rbp), %rcx
	movq	%rax, 64(%rcx)
.LBB26_17:                              # %if.end95
	movq	-16(%rbp), %rax
	cmpl	$0, 556(%rax)
	je	.LBB26_19
# %bb.18:                               # %if.then98
	movq	img, %rax
	movq	14168(%rax), %rax
	movq	-16(%rbp), %rcx
	movslq	540(%rcx), %rcx
	imulq	$632, %rcx, %rcx        # imm = 0x278
	addq	%rcx, %rax
	movq	-16(%rbp), %rcx
	movq	%rax, 56(%rcx)
.LBB26_19:                              # %if.end104
	cmpl	$710326445, -20(%rbp)   # imm = 0x2A56B8AD
	jne	.LBB26_21
.LBB26_20:
	addq	$32, %rsp
	popq	%rbp
	.cfi_def_cfa %rsp, 8
	retq
.LBB26_21:                              # %func_exit
	.cfi_def_cfa %rbp, 16
	callq	detect_breach
	jmp	.LBB26_20
.Lfunc_end26:
	.size	CheckAvailabilityOfNeighbors.18, .Lfunc_end26-CheckAvailabilityOfNeighbors.18
	.cfi_endproc
                                        # -- End function
	.globl	get_mb_block_pos.19     # -- Begin function get_mb_block_pos.19
	.p2align	4, 0x90
	.type	get_mb_block_pos.19,@function
get_mb_block_pos.19:                    # @get_mb_block_pos.19
	.cfi_startproc
# %bb.0:                                # %entry
	pushq	%rbp
	.cfi_def_cfa_offset 16
	.cfi_offset %rbp, -16
	movq	%rsp, %rbp
	.cfi_def_cfa_register %rbp
	subq	$32, %rsp
	movl	$1823715030, -8(%rbp)   # imm = 0x6CB3AED6
	movl	%edi, -4(%rbp)
	movq	%rsi, -24(%rbp)
	movq	%rdx, -16(%rbp)
	movq	img, %rax
	cmpl	$0, 72400(%rax)
	je	.LBB27_2
# %bb.1:                                # %if.then
	movl	-4(%rbp), %eax
	cltd
	movl	$2, %esi
	idivl	%esi
	movq	img, %rcx
	xorl	%edx, %edx
	divl	72468(%rcx)
	movq	-24(%rbp), %rax
	movl	%edx, (%rax)
	movl	-4(%rbp), %eax
	cltd
	idivl	%esi
	movq	img, %rcx
	xorl	%edx, %edx
	divl	72468(%rcx)
	movl	%eax, %ecx
	shll	$1, %ecx
	movl	-4(%rbp), %eax
	cltd
	idivl	%esi
	addl	%edx, %ecx
	movq	-16(%rbp), %rax
	movl	%ecx, (%rax)
	jmp	.LBB27_3
.LBB27_2:                               # %if.else
	movl	-4(%rbp), %eax
	movq	img, %rcx
	xorl	%edx, %edx
	divl	72468(%rcx)
	movq	-24(%rbp), %rax
	movl	%edx, (%rax)
	movl	-4(%rbp), %eax
	movq	img, %rcx
	xorl	%edx, %edx
	divl	72468(%rcx)
	movq	-16(%rbp), %rcx
	movl	%eax, (%rcx)
.LBB27_3:                               # %if.end
	cmpl	$1823715030, -8(%rbp)   # imm = 0x6CB3AED6
	jne	.LBB27_5
.LBB27_4:
	addq	$32, %rsp
	popq	%rbp
	.cfi_def_cfa %rsp, 8
	retq
.LBB27_5:                               # %func_exit
	.cfi_def_cfa %rbp, 16
	callq	detect_breach
	jmp	.LBB27_4
.Lfunc_end27:
	.size	get_mb_block_pos.19, .Lfunc_end27-get_mb_block_pos.19
	.cfi_endproc
                                        # -- End function
	.globl	getNonAffNeighbour.20   # -- Begin function getNonAffNeighbour.20
	.p2align	4, 0x90
	.type	getNonAffNeighbour.20,@function
getNonAffNeighbour.20:                  # @getNonAffNeighbour.20
	.cfi_startproc
# %bb.0:                                # %entry
	pushq	%rbp
	.cfi_def_cfa_offset 16
	.cfi_offset %rbp, -16
	movq	%rsp, %rbp
	.cfi_def_cfa_register %rbp
	subq	$48, %rsp
	movl	$30498700, -44(%rbp)    # imm = 0x1D15F8C
	movl	%edi, -40(%rbp)
	movl	%esi, -12(%rbp)
	movl	%edx, -16(%rbp)
	movl	%ecx, -36(%rbp)
	movq	%r8, -8(%rbp)
	movq	img, %rax
	movq	14168(%rax), %rax
	movl	-40(%rbp), %ecx
	imulq	$632, %rcx, %rcx        # imm = 0x278
	addq	%rcx, %rax
	movq	%rax, -32(%rbp)
	cmpl	$0, -36(%rbp)
	je	.LBB28_2
# %bb.1:                                # %if.then
	movl	$16, -20(%rbp)
	movl	$16, -24(%rbp)
	jmp	.LBB28_3
.LBB28_2:                               # %if.else
	movq	img, %rax
	movl	72708(%rax), %eax
	movl	%eax, -20(%rbp)
	movq	img, %rax
	movl	72712(%rax), %eax
	movl	%eax, -24(%rbp)
.LBB28_3:                               # %if.end
	cmpl	$0, -12(%rbp)
	jge	.LBB28_6
# %bb.4:                                # %land.lhs.true
	cmpl	$0, -16(%rbp)
	jge	.LBB28_6
# %bb.5:                                # %if.then2
	movq	-32(%rbp), %rax
	movl	548(%rax), %eax
	movq	-8(%rbp), %rcx
	movl	%eax, 4(%rcx)
	movq	-32(%rbp), %rax
	movl	564(%rax), %eax
	movq	-8(%rbp), %rcx
	movl	%eax, (%rcx)
	jmp	.LBB28_27
.LBB28_6:                               # %if.else3
	cmpl	$0, -12(%rbp)
	jge	.LBB28_10
# %bb.7:                                # %land.lhs.true5
	cmpl	$0, -16(%rbp)
	jl	.LBB28_10
# %bb.8:                                # %land.lhs.true7
	movl	-16(%rbp), %eax
	cmpl	-24(%rbp), %eax
	jge	.LBB28_10
# %bb.9:                                # %if.then9
	movq	-32(%rbp), %rax
	movl	536(%rax), %eax
	movq	-8(%rbp), %rcx
	movl	%eax, 4(%rcx)
	movq	-32(%rbp), %rax
	movl	552(%rax), %eax
	movq	-8(%rbp), %rcx
	movl	%eax, (%rcx)
	jmp	.LBB28_26
.LBB28_10:                              # %if.else12
	cmpl	$0, -12(%rbp)
	jl	.LBB28_14
# %bb.11:                               # %land.lhs.true14
	movl	-12(%rbp), %eax
	cmpl	-20(%rbp), %eax
	jge	.LBB28_14
# %bb.12:                               # %land.lhs.true16
	cmpl	$0, -16(%rbp)
	jge	.LBB28_14
# %bb.13:                               # %if.then18
	movq	-32(%rbp), %rax
	movl	540(%rax), %eax
	movq	-8(%rbp), %rcx
	movl	%eax, 4(%rcx)
	movq	-32(%rbp), %rax
	movl	556(%rax), %eax
	movq	-8(%rbp), %rcx
	movl	%eax, (%rcx)
	jmp	.LBB28_25
.LBB28_14:                              # %if.else21
	cmpl	$0, -12(%rbp)
	jl	.LBB28_19
# %bb.15:                               # %land.lhs.true23
	movl	-12(%rbp), %eax
	cmpl	-20(%rbp), %eax
	jge	.LBB28_19
# %bb.16:                               # %land.lhs.true25
	cmpl	$0, -16(%rbp)
	jl	.LBB28_19
# %bb.17:                               # %land.lhs.true27
	movl	-16(%rbp), %eax
	cmpl	-24(%rbp), %eax
	jge	.LBB28_19
# %bb.18:                               # %if.then29
	movl	-40(%rbp), %eax
	movq	-8(%rbp), %rcx
	movl	%eax, 4(%rcx)
	movq	-8(%rbp), %rax
	movl	$1, (%rax)
	jmp	.LBB28_24
.LBB28_19:                              # %if.else32
	movl	-12(%rbp), %eax
	cmpl	-20(%rbp), %eax
	jl	.LBB28_22
# %bb.20:                               # %land.lhs.true34
	cmpl	$0, -16(%rbp)
	jge	.LBB28_22
# %bb.21:                               # %if.then36
	movq	-32(%rbp), %rax
	movl	544(%rax), %eax
	movq	-8(%rbp), %rcx
	movl	%eax, 4(%rcx)
	movq	-32(%rbp), %rax
	movl	560(%rax), %eax
	movq	-8(%rbp), %rcx
	movl	%eax, (%rcx)
	jmp	.LBB28_23
.LBB28_22:                              # %if.else39
	movq	-8(%rbp), %rax
	movl	$0, (%rax)
.LBB28_23:                              # %if.end41
	jmp	.LBB28_24
.LBB28_24:                              # %if.end42
	jmp	.LBB28_25
.LBB28_25:                              # %if.end43
	jmp	.LBB28_26
.LBB28_26:                              # %if.end44
	jmp	.LBB28_27
.LBB28_27:                              # %if.end45
	movq	-8(%rbp), %rax
	cmpl	$0, (%rax)
	jne	.LBB28_29
# %bb.28:                               # %lor.lhs.false
	movq	img, %rax
	cmpl	$0, 72636(%rax)
	je	.LBB28_33
.LBB28_29:                              # %if.then49
	movl	-12(%rbp), %eax
	addl	-20(%rbp), %eax
	cltd
	idivl	-20(%rbp)
	movq	-8(%rbp), %rax
	movl	%edx, 8(%rax)
	movl	-16(%rbp), %eax
	addl	-24(%rbp), %eax
	cltd
	idivl	-24(%rbp)
	movq	-8(%rbp), %rax
	movl	%edx, 12(%rax)
	movq	-8(%rbp), %rax
	movl	4(%rax), %edi
	movq	-8(%rbp), %rsi
	addq	$16, %rsi
	movq	-8(%rbp), %rdx
	addq	$20, %rdx
	callq	get_mb_pos
	cmpl	$0, -36(%rbp)
	je	.LBB28_31
# %bb.30:                               # %if.then54
	movq	-8(%rbp), %rax
	movl	8(%rax), %eax
	movq	-8(%rbp), %rcx
	addl	16(%rcx), %eax
	movl	%eax, 16(%rcx)
	movq	-8(%rbp), %rax
	movl	12(%rax), %eax
	movq	-8(%rbp), %rcx
	addl	20(%rcx), %eax
	movl	%eax, 20(%rcx)
	jmp	.LBB28_32
.LBB28_31:                              # %if.else61
	movq	-8(%rbp), %rax
	movl	16(%rax), %ecx
	movq	img, %rsi
	movl	$16, %eax
	cltd
	idivl	72708(%rsi)
	movl	%eax, %esi
	movl	%ecx, %eax
	cltd
	idivl	%esi
	movq	-8(%rbp), %rcx
	addl	8(%rcx), %eax
	movq	-8(%rbp), %rcx
	movl	%eax, 16(%rcx)
	movq	-8(%rbp), %rax
	movl	20(%rax), %ecx
	movq	img, %rsi
	movl	$16, %eax
	cltd
	idivl	72712(%rsi)
	movl	%eax, %esi
	movl	%ecx, %eax
	cltd
	idivl	%esi
	movq	-8(%rbp), %rcx
	addl	12(%rcx), %eax
	movq	-8(%rbp), %rcx
	movl	%eax, 20(%rcx)
.LBB28_32:                              # %if.end75
	jmp	.LBB28_33
.LBB28_33:                              # %if.end76
	cmpl	$30498700, -44(%rbp)    # imm = 0x1D15F8C
	jne	.LBB28_35
.LBB28_34:
	addq	$48, %rsp
	popq	%rbp
	.cfi_def_cfa %rsp, 8
	retq
.LBB28_35:                              # %func_exit
	.cfi_def_cfa %rbp, 16
	callq	detect_breach
	jmp	.LBB28_34
.Lfunc_end28:
	.size	getNonAffNeighbour.20, .Lfunc_end28-getNonAffNeighbour.20
	.cfi_endproc
                                        # -- End function
	.globl	get_mb_block_pos.21     # -- Begin function get_mb_block_pos.21
	.p2align	4, 0x90
	.type	get_mb_block_pos.21,@function
get_mb_block_pos.21:                    # @get_mb_block_pos.21
	.cfi_startproc
# %bb.0:                                # %entry
	pushq	%rbp
	.cfi_def_cfa_offset 16
	.cfi_offset %rbp, -16
	movq	%rsp, %rbp
	.cfi_def_cfa_register %rbp
	subq	$32, %rsp
	movl	$48116681, -8(%rbp)     # imm = 0x2DE33C9
	movl	%edi, -4(%rbp)
	movq	%rsi, -16(%rbp)
	movq	%rdx, -24(%rbp)
	movq	img, %rax
	cmpl	$0, 72400(%rax)
	je	.LBB29_2
# %bb.1:                                # %if.then
	movl	-4(%rbp), %eax
	cltd
	movl	$2, %esi
	idivl	%esi
	movq	img, %rcx
	xorl	%edx, %edx
	divl	72468(%rcx)
	movq	-16(%rbp), %rax
	movl	%edx, (%rax)
	movl	-4(%rbp), %eax
	cltd
	idivl	%esi
	movq	img, %rcx
	xorl	%edx, %edx
	divl	72468(%rcx)
	movl	%eax, %ecx
	shll	$1, %ecx
	movl	-4(%rbp), %eax
	cltd
	idivl	%esi
	addl	%edx, %ecx
	movq	-24(%rbp), %rax
	movl	%ecx, (%rax)
	jmp	.LBB29_3
.LBB29_2:                               # %if.else
	movl	-4(%rbp), %eax
	movq	img, %rcx
	xorl	%edx, %edx
	divl	72468(%rcx)
	movq	-16(%rbp), %rax
	movl	%edx, (%rax)
	movl	-4(%rbp), %eax
	movq	img, %rcx
	xorl	%edx, %edx
	divl	72468(%rcx)
	movq	-24(%rbp), %rcx
	movl	%eax, (%rcx)
.LBB29_3:                               # %if.end
	cmpl	$48116681, -8(%rbp)     # imm = 0x2DE33C9
	jne	.LBB29_5
.LBB29_4:
	addq	$32, %rsp
	popq	%rbp
	.cfi_def_cfa %rsp, 8
	retq
.LBB29_5:                               # %func_exit
	.cfi_def_cfa %rbp, 16
	callq	detect_breach
	jmp	.LBB29_4
.Lfunc_end29:
	.size	get_mb_block_pos.21, .Lfunc_end29-get_mb_block_pos.21
	.cfi_endproc
                                        # -- End function
	.globl	get_mb_pos.22           # -- Begin function get_mb_pos.22
	.p2align	4, 0x90
	.type	get_mb_pos.22,@function
get_mb_pos.22:                          # @get_mb_pos.22
	.cfi_startproc
# %bb.0:                                # %entry
	pushq	%rbp
	.cfi_def_cfa_offset 16
	.cfi_offset %rbp, -16
	movq	%rsp, %rbp
	.cfi_def_cfa_register %rbp
	subq	$32, %rsp
	movl	$1655427371, -8(%rbp)   # imm = 0x62ABD12B
	movl	%edi, -4(%rbp)
	movq	%rsi, -16(%rbp)
	movq	%rdx, -24(%rbp)
	movl	-4(%rbp), %edi
	movq	-16(%rbp), %rsi
	movq	-24(%rbp), %rdx
	callq	get_mb_block_pos
	movq	-16(%rbp), %rax
	movl	(%rax), %ecx
	shll	$4, %ecx
	movl	%ecx, (%rax)
	movq	-24(%rbp), %rax
	movl	(%rax), %ecx
	shll	$4, %ecx
	movl	%ecx, (%rax)
	cmpl	$1655427371, -8(%rbp)   # imm = 0x62ABD12B
	jne	.LBB30_2
.LBB30_1:
	addq	$32, %rsp
	popq	%rbp
	.cfi_def_cfa %rsp, 8
	retq
.LBB30_2:                               # %func_exit
	.cfi_def_cfa %rbp, 16
	callq	detect_breach
	jmp	.LBB30_1
.Lfunc_end30:
	.size	get_mb_pos.22, .Lfunc_end30-get_mb_pos.22
	.cfi_endproc
                                        # -- End function
	.globl	get_mb_block_pos.23     # -- Begin function get_mb_block_pos.23
	.p2align	4, 0x90
	.type	get_mb_block_pos.23,@function
get_mb_block_pos.23:                    # @get_mb_block_pos.23
	.cfi_startproc
# %bb.0:                                # %entry
	pushq	%rbp
	.cfi_def_cfa_offset 16
	.cfi_offset %rbp, -16
	movq	%rsp, %rbp
	.cfi_def_cfa_register %rbp
	subq	$32, %rsp
	movl	$1771947038, -8(%rbp)   # imm = 0x699DC41E
	movl	%edi, -4(%rbp)
	movq	%rsi, -24(%rbp)
	movq	%rdx, -16(%rbp)
	movq	img, %rax
	cmpl	$0, 72400(%rax)
	je	.LBB31_2
# %bb.1:                                # %if.then
	movl	-4(%rbp), %eax
	cltd
	movl	$2, %esi
	idivl	%esi
	movq	img, %rcx
	xorl	%edx, %edx
	divl	72468(%rcx)
	movq	-24(%rbp), %rax
	movl	%edx, (%rax)
	movl	-4(%rbp), %eax
	cltd
	idivl	%esi
	movq	img, %rcx
	xorl	%edx, %edx
	divl	72468(%rcx)
	movl	%eax, %ecx
	shll	$1, %ecx
	movl	-4(%rbp), %eax
	cltd
	idivl	%esi
	addl	%edx, %ecx
	movq	-16(%rbp), %rax
	movl	%ecx, (%rax)
	jmp	.LBB31_3
.LBB31_2:                               # %if.else
	movl	-4(%rbp), %eax
	movq	img, %rcx
	xorl	%edx, %edx
	divl	72468(%rcx)
	movq	-24(%rbp), %rax
	movl	%edx, (%rax)
	movl	-4(%rbp), %eax
	movq	img, %rcx
	xorl	%edx, %edx
	divl	72468(%rcx)
	movq	-16(%rbp), %rcx
	movl	%eax, (%rcx)
.LBB31_3:                               # %if.end
	cmpl	$1771947038, -8(%rbp)   # imm = 0x699DC41E
	jne	.LBB31_5
.LBB31_4:
	addq	$32, %rsp
	popq	%rbp
	.cfi_def_cfa %rsp, 8
	retq
.LBB31_5:                               # %func_exit
	.cfi_def_cfa %rbp, 16
	callq	detect_breach
	jmp	.LBB31_4
.Lfunc_end31:
	.size	get_mb_block_pos.23, .Lfunc_end31-get_mb_block_pos.23
	.cfi_endproc
                                        # -- End function
	.globl	getAffNeighbour.24      # -- Begin function getAffNeighbour.24
	.p2align	4, 0x90
	.type	getAffNeighbour.24,@function
getAffNeighbour.24:                     # @getAffNeighbour.24
	.cfi_startproc
# %bb.0:                                # %entry
	pushq	%rbp
	.cfi_def_cfa_offset 16
	.cfi_offset %rbp, -16
	movq	%rsp, %rbp
	.cfi_def_cfa_register %rbp
	subq	$64, %rsp
	movl	$186710466, -56(%rbp)   # imm = 0xB20F9C2
	movl	%edi, -40(%rbp)
	movl	%esi, -44(%rbp)
	movl	%edx, -4(%rbp)
	movl	%ecx, -52(%rbp)
	movq	%r8, -16(%rbp)
	movq	img, %rax
	movq	14168(%rax), %rax
	movl	-40(%rbp), %ecx
	imulq	$632, %rcx, %rcx        # imm = 0x278
	addq	%rcx, %rax
	movq	%rax, -32(%rbp)
	movl	$-1, -20(%rbp)
	cmpl	$0, -52(%rbp)
	je	.LBB32_2
# %bb.1:                                # %if.then
	movl	$16, -48(%rbp)
	movl	$16, -36(%rbp)
	jmp	.LBB32_3
.LBB32_2:                               # %if.else
	movq	img, %rax
	movl	72708(%rax), %eax
	movl	%eax, -48(%rbp)
	movq	img, %rax
	movl	72712(%rax), %eax
	movl	%eax, -36(%rbp)
.LBB32_3:                               # %if.end
	movq	-16(%rbp), %rax
	movl	$0, (%rax)
	movl	-4(%rbp), %eax
	movl	-36(%rbp), %ecx
	subl	$1, %ecx
	cmpl	%ecx, %eax
	jle	.LBB32_5
# %bb.4:                                # %if.then1
	jmp	.LBB32_133
.LBB32_5:                               # %if.end2
	movl	-44(%rbp), %eax
	movl	-48(%rbp), %ecx
	subl	$1, %ecx
	cmpl	%ecx, %eax
	jle	.LBB32_9
# %bb.6:                                # %land.lhs.true
	cmpl	$0, -4(%rbp)
	jl	.LBB32_9
# %bb.7:                                # %land.lhs.true6
	movl	-4(%rbp), %eax
	cmpl	-36(%rbp), %eax
	jge	.LBB32_9
# %bb.8:                                # %if.then8
	jmp	.LBB32_133
.LBB32_9:                               # %if.end9
	cmpl	$0, -44(%rbp)
	jge	.LBB32_77
# %bb.10:                               # %if.then11
	cmpl	$0, -4(%rbp)
	jge	.LBB32_31
# %bb.11:                               # %if.then13
	movq	-32(%rbp), %rax
	cmpl	$0, 532(%rax)
	jne	.LBB32_21
# %bb.12:                               # %if.then15
	movl	-40(%rbp), %eax
	andl	$1, %eax
	cmpl	$0, %eax
	jne	.LBB32_14
# %bb.13:                               # %if.then17
	movq	-32(%rbp), %rax
	movl	548(%rax), %eax
	addl	$1, %eax
	movq	-16(%rbp), %rcx
	movl	%eax, 4(%rcx)
	movq	-32(%rbp), %rax
	movl	564(%rax), %eax
	movq	-16(%rbp), %rcx
	movl	%eax, (%rcx)
	movl	-4(%rbp), %eax
	movl	%eax, -20(%rbp)
	jmp	.LBB32_20
.LBB32_14:                              # %if.else19
	movq	-32(%rbp), %rax
	movl	536(%rax), %eax
	movq	-16(%rbp), %rcx
	movl	%eax, 4(%rcx)
	movq	-32(%rbp), %rax
	movl	552(%rax), %eax
	movq	-16(%rbp), %rcx
	movl	%eax, (%rcx)
	movq	-32(%rbp), %rax
	cmpl	$0, 552(%rax)
	je	.LBB32_19
# %bb.15:                               # %if.then24
	movq	img, %rax
	movq	14168(%rax), %rax
	movq	-32(%rbp), %rcx
	movslq	536(%rcx), %rcx
	imulq	$632, %rcx, %rcx        # imm = 0x278
	addq	%rcx, %rax
	cmpl	$0, 532(%rax)
	jne	.LBB32_17
# %bb.16:                               # %if.then31
	movl	-4(%rbp), %eax
	movl	%eax, -20(%rbp)
	jmp	.LBB32_18
.LBB32_17:                              # %if.else32
	movq	-16(%rbp), %rax
	movl	4(%rax), %ecx
	addl	$1, %ecx
	movl	%ecx, 4(%rax)
	movl	-4(%rbp), %eax
	addl	-36(%rbp), %eax
	sarl	$1, %eax
	movl	%eax, -20(%rbp)
.LBB32_18:                              # %if.end35
	jmp	.LBB32_19
.LBB32_19:                              # %if.end36
	jmp	.LBB32_20
.LBB32_20:                              # %if.end37
	jmp	.LBB32_30
.LBB32_21:                              # %if.else38
	movl	-40(%rbp), %eax
	andl	$1, %eax
	cmpl	$0, %eax
	jne	.LBB32_28
# %bb.22:                               # %if.then41
	movq	-32(%rbp), %rax
	movl	548(%rax), %eax
	movq	-16(%rbp), %rcx
	movl	%eax, 4(%rcx)
	movq	-32(%rbp), %rax
	movl	564(%rax), %eax
	movq	-16(%rbp), %rcx
	movl	%eax, (%rcx)
	movq	-32(%rbp), %rax
	cmpl	$0, 564(%rax)
	je	.LBB32_27
# %bb.23:                               # %if.then48
	movq	img, %rax
	movq	14168(%rax), %rax
	movq	-32(%rbp), %rcx
	movslq	548(%rcx), %rcx
	imulq	$632, %rcx, %rcx        # imm = 0x278
	addq	%rcx, %rax
	cmpl	$0, 532(%rax)
	jne	.LBB32_25
# %bb.24:                               # %if.then55
	movq	-16(%rbp), %rax
	movl	4(%rax), %ecx
	addl	$1, %ecx
	movl	%ecx, 4(%rax)
	movl	-4(%rbp), %eax
	shll	$1, %eax
	movl	%eax, -20(%rbp)
	jmp	.LBB32_26
.LBB32_25:                              # %if.else58
	movl	-4(%rbp), %eax
	movl	%eax, -20(%rbp)
.LBB32_26:                              # %if.end59
	jmp	.LBB32_27
.LBB32_27:                              # %if.end60
	jmp	.LBB32_29
.LBB32_28:                              # %if.else61
	movq	-32(%rbp), %rax
	movl	548(%rax), %eax
	addl	$1, %eax
	movq	-16(%rbp), %rcx
	movl	%eax, 4(%rcx)
	movq	-32(%rbp), %rax
	movl	564(%rax), %eax
	movq	-16(%rbp), %rcx
	movl	%eax, (%rcx)
	movl	-4(%rbp), %eax
	movl	%eax, -20(%rbp)
.LBB32_29:                              # %if.end67
	jmp	.LBB32_30
.LBB32_30:                              # %if.end68
	jmp	.LBB32_76
.LBB32_31:                              # %if.else69
	cmpl	$0, -4(%rbp)
	jl	.LBB32_75
# %bb.32:                               # %land.lhs.true71
	movl	-4(%rbp), %eax
	cmpl	-36(%rbp), %eax
	jge	.LBB32_75
# %bb.33:                               # %if.then73
	movq	-32(%rbp), %rax
	cmpl	$0, 532(%rax)
	jne	.LBB32_54
# %bb.34:                               # %if.then76
	movl	-40(%rbp), %eax
	andl	$1, %eax
	cmpl	$0, %eax
	jne	.LBB32_44
# %bb.35:                               # %if.then79
	movq	-32(%rbp), %rax
	movl	536(%rax), %eax
	movq	-16(%rbp), %rcx
	movl	%eax, 4(%rcx)
	movq	-32(%rbp), %rax
	movl	552(%rax), %eax
	movq	-16(%rbp), %rcx
	movl	%eax, (%rcx)
	movq	-32(%rbp), %rax
	cmpl	$0, 552(%rax)
	je	.LBB32_43
# %bb.36:                               # %if.then86
	movq	img, %rax
	movq	14168(%rax), %rax
	movq	-32(%rbp), %rcx
	movslq	536(%rcx), %rcx
	imulq	$632, %rcx, %rcx        # imm = 0x278
	addq	%rcx, %rax
	cmpl	$0, 532(%rax)
	jne	.LBB32_38
# %bb.37:                               # %if.then93
	movl	-4(%rbp), %eax
	movl	%eax, -20(%rbp)
	jmp	.LBB32_42
.LBB32_38:                              # %if.else94
	movl	-4(%rbp), %eax
	cltd
	movl	$2, %ecx
	idivl	%ecx
	cmpl	$0, %edx
	jne	.LBB32_40
# %bb.39:                               # %if.then97
	movl	-4(%rbp), %eax
	sarl	$1, %eax
	movl	%eax, -20(%rbp)
	jmp	.LBB32_41
.LBB32_40:                              # %if.else99
	movq	-16(%rbp), %rax
	movl	4(%rax), %ecx
	addl	$1, %ecx
	movl	%ecx, 4(%rax)
	movl	-4(%rbp), %eax
	sarl	$1, %eax
	movl	%eax, -20(%rbp)
.LBB32_41:                              # %if.end103
	jmp	.LBB32_42
.LBB32_42:                              # %if.end104
	jmp	.LBB32_43
.LBB32_43:                              # %if.end105
	jmp	.LBB32_53
.LBB32_44:                              # %if.else106
	movq	-32(%rbp), %rax
	movl	536(%rax), %eax
	movq	-16(%rbp), %rcx
	movl	%eax, 4(%rcx)
	movq	-32(%rbp), %rax
	movl	552(%rax), %eax
	movq	-16(%rbp), %rcx
	movl	%eax, (%rcx)
	movq	-32(%rbp), %rax
	cmpl	$0, 552(%rax)
	je	.LBB32_52
# %bb.45:                               # %if.then113
	movq	img, %rax
	movq	14168(%rax), %rax
	movq	-32(%rbp), %rcx
	movslq	536(%rcx), %rcx
	imulq	$632, %rcx, %rcx        # imm = 0x278
	addq	%rcx, %rax
	cmpl	$0, 532(%rax)
	jne	.LBB32_47
# %bb.46:                               # %if.then120
	movq	-16(%rbp), %rax
	movl	4(%rax), %ecx
	addl	$1, %ecx
	movl	%ecx, 4(%rax)
	movl	-4(%rbp), %eax
	movl	%eax, -20(%rbp)
	jmp	.LBB32_51
.LBB32_47:                              # %if.else123
	movl	-4(%rbp), %eax
	cltd
	movl	$2, %ecx
	idivl	%ecx
	cmpl	$0, %edx
	jne	.LBB32_49
# %bb.48:                               # %if.then126
	movl	-4(%rbp), %eax
	addl	-36(%rbp), %eax
	sarl	$1, %eax
	movl	%eax, -20(%rbp)
	jmp	.LBB32_50
.LBB32_49:                              # %if.else129
	movq	-16(%rbp), %rax
	movl	4(%rax), %ecx
	addl	$1, %ecx
	movl	%ecx, 4(%rax)
	movl	-4(%rbp), %eax
	addl	-36(%rbp), %eax
	sarl	$1, %eax
	movl	%eax, -20(%rbp)
.LBB32_50:                              # %if.end134
	jmp	.LBB32_51
.LBB32_51:                              # %if.end135
	jmp	.LBB32_52
.LBB32_52:                              # %if.end136
	jmp	.LBB32_53
.LBB32_53:                              # %if.end137
	jmp	.LBB32_74
.LBB32_54:                              # %if.else138
	movl	-40(%rbp), %eax
	andl	$1, %eax
	cmpl	$0, %eax
	jne	.LBB32_64
# %bb.55:                               # %if.then141
	movq	-32(%rbp), %rax
	movl	536(%rax), %eax
	movq	-16(%rbp), %rcx
	movl	%eax, 4(%rcx)
	movq	-32(%rbp), %rax
	movl	552(%rax), %eax
	movq	-16(%rbp), %rcx
	movl	%eax, (%rcx)
	movq	-32(%rbp), %rax
	cmpl	$0, 552(%rax)
	je	.LBB32_63
# %bb.56:                               # %if.then148
	movq	img, %rax
	movq	14168(%rax), %rax
	movq	-32(%rbp), %rcx
	movslq	536(%rcx), %rcx
	imulq	$632, %rcx, %rcx        # imm = 0x278
	addq	%rcx, %rax
	cmpl	$0, 532(%rax)
	jne	.LBB32_61
# %bb.57:                               # %if.then155
	movl	-4(%rbp), %ecx
	movl	-36(%rbp), %eax
	cltd
	movl	$2, %esi
	idivl	%esi
	cmpl	%eax, %ecx
	jge	.LBB32_59
# %bb.58:                               # %if.then157
	movl	-4(%rbp), %eax
	shll	$1, %eax
	movl	%eax, -20(%rbp)
	jmp	.LBB32_60
.LBB32_59:                              # %if.else158
	movq	-16(%rbp), %rax
	movl	4(%rax), %ecx
	addl	$1, %ecx
	movl	%ecx, 4(%rax)
	movl	-4(%rbp), %eax
	shll	$1, %eax
	subl	-36(%rbp), %eax
	movl	%eax, -20(%rbp)
.LBB32_60:                              # %if.end163
	jmp	.LBB32_62
.LBB32_61:                              # %if.else164
	movl	-4(%rbp), %eax
	movl	%eax, -20(%rbp)
.LBB32_62:                              # %if.end165
	jmp	.LBB32_63
.LBB32_63:                              # %if.end166
	jmp	.LBB32_73
.LBB32_64:                              # %if.else167
	movq	-32(%rbp), %rax
	movl	536(%rax), %eax
	movq	-16(%rbp), %rcx
	movl	%eax, 4(%rcx)
	movq	-32(%rbp), %rax
	movl	552(%rax), %eax
	movq	-16(%rbp), %rcx
	movl	%eax, (%rcx)
	movq	-32(%rbp), %rax
	cmpl	$0, 552(%rax)
	je	.LBB32_72
# %bb.65:                               # %if.then174
	movq	img, %rax
	movq	14168(%rax), %rax
	movq	-32(%rbp), %rcx
	movslq	536(%rcx), %rcx
	imulq	$632, %rcx, %rcx        # imm = 0x278
	addq	%rcx, %rax
	cmpl	$0, 532(%rax)
	jne	.LBB32_70
# %bb.66:                               # %if.then181
	movl	-4(%rbp), %ecx
	movl	-36(%rbp), %eax
	cltd
	movl	$2, %esi
	idivl	%esi
	cmpl	%eax, %ecx
	jge	.LBB32_68
# %bb.67:                               # %if.then184
	movl	-4(%rbp), %eax
	shll	$1, %eax
	addl	$1, %eax
	movl	%eax, -20(%rbp)
	jmp	.LBB32_69
.LBB32_68:                              # %if.else187
	movq	-16(%rbp), %rax
	movl	4(%rax), %ecx
	addl	$1, %ecx
	movl	%ecx, 4(%rax)
	movl	-4(%rbp), %eax
	shll	$1, %eax
	addl	$1, %eax
	subl	-36(%rbp), %eax
	movl	%eax, -20(%rbp)
.LBB32_69:                              # %if.end193
	jmp	.LBB32_71
.LBB32_70:                              # %if.else194
	movq	-16(%rbp), %rax
	movl	4(%rax), %ecx
	addl	$1, %ecx
	movl	%ecx, 4(%rax)
	movl	-4(%rbp), %eax
	movl	%eax, -20(%rbp)
.LBB32_71:                              # %if.end197
	jmp	.LBB32_72
.LBB32_72:                              # %if.end198
	jmp	.LBB32_73
.LBB32_73:                              # %if.end199
	jmp	.LBB32_74
.LBB32_74:                              # %if.end200
	jmp	.LBB32_75
.LBB32_75:                              # %if.end201
	jmp	.LBB32_76
.LBB32_76:                              # %if.end202
	jmp	.LBB32_127
.LBB32_77:                              # %if.else203
	cmpl	$0, -44(%rbp)
	jl	.LBB32_109
# %bb.78:                               # %land.lhs.true205
	movl	-44(%rbp), %eax
	cmpl	-48(%rbp), %eax
	jge	.LBB32_109
# %bb.79:                               # %if.then207
	cmpl	$0, -4(%rbp)
	jge	.LBB32_100
# %bb.80:                               # %if.then209
	movq	-32(%rbp), %rax
	cmpl	$0, 532(%rax)
	jne	.LBB32_90
# %bb.81:                               # %if.then212
	movl	-40(%rbp), %eax
	andl	$1, %eax
	cmpl	$0, %eax
	jne	.LBB32_88
# %bb.82:                               # %if.then215
	movq	-32(%rbp), %rax
	movl	540(%rax), %eax
	movq	-16(%rbp), %rcx
	movl	%eax, 4(%rcx)
	movq	-32(%rbp), %rax
	cmpl	$0, 556(%rax)
	je	.LBB32_87
# %bb.83:                               # %if.then218
	movq	img, %rax
	cmpl	$1, 72636(%rax)
	jne	.LBB32_85
# %bb.84:                               # %land.lhs.true220
	movq	img, %rax
	movq	14168(%rax), %rax
	movq	-32(%rbp), %rcx
	movslq	540(%rcx), %rcx
	imulq	$632, %rcx, %rcx        # imm = 0x278
	addq	%rcx, %rax
	cmpl	$0, 532(%rax)
	jne	.LBB32_86
.LBB32_85:                              # %if.then227
	movq	-16(%rbp), %rax
	movl	4(%rax), %ecx
	addl	$1, %ecx
	movl	%ecx, 4(%rax)
.LBB32_86:                              # %if.end230
	jmp	.LBB32_87
.LBB32_87:                              # %if.end231
	movq	-32(%rbp), %rax
	movl	556(%rax), %eax
	movq	-16(%rbp), %rcx
	movl	%eax, (%rcx)
	movl	-4(%rbp), %eax
	movl	%eax, -20(%rbp)
	jmp	.LBB32_89
.LBB32_88:                              # %if.else234
	movl	-40(%rbp), %eax
	subl	$1, %eax
	movq	-16(%rbp), %rcx
	movl	%eax, 4(%rcx)
	movq	-16(%rbp), %rax
	movl	$1, (%rax)
	movl	-4(%rbp), %eax
	movl	%eax, -20(%rbp)
.LBB32_89:                              # %if.end238
	jmp	.LBB32_99
.LBB32_90:                              # %if.else239
	movl	-40(%rbp), %eax
	andl	$1, %eax
	cmpl	$0, %eax
	jne	.LBB32_97
# %bb.91:                               # %if.then242
	movq	-32(%rbp), %rax
	movl	540(%rax), %eax
	movq	-16(%rbp), %rcx
	movl	%eax, 4(%rcx)
	movq	-32(%rbp), %rax
	movl	556(%rax), %eax
	movq	-16(%rbp), %rcx
	movl	%eax, (%rcx)
	movq	-32(%rbp), %rax
	cmpl	$0, 556(%rax)
	je	.LBB32_96
# %bb.92:                               # %if.then249
	movq	img, %rax
	movq	14168(%rax), %rax
	movq	-32(%rbp), %rcx
	movslq	540(%rcx), %rcx
	imulq	$632, %rcx, %rcx        # imm = 0x278
	addq	%rcx, %rax
	cmpl	$0, 532(%rax)
	jne	.LBB32_94
# %bb.93:                               # %if.then256
	movq	-16(%rbp), %rax
	movl	4(%rax), %ecx
	addl	$1, %ecx
	movl	%ecx, 4(%rax)
	movl	-4(%rbp), %eax
	shll	$1, %eax
	movl	%eax, -20(%rbp)
	jmp	.LBB32_95
.LBB32_94:                              # %if.else260
	movl	-4(%rbp), %eax
	movl	%eax, -20(%rbp)
.LBB32_95:                              # %if.end261
	jmp	.LBB32_96
.LBB32_96:                              # %if.end262
	jmp	.LBB32_98
.LBB32_97:                              # %if.else263
	movq	-32(%rbp), %rax
	movl	540(%rax), %eax
	addl	$1, %eax
	movq	-16(%rbp), %rcx
	movl	%eax, 4(%rcx)
	movq	-32(%rbp), %rax
	movl	556(%rax), %eax
	movq	-16(%rbp), %rcx
	movl	%eax, (%rcx)
	movl	-4(%rbp), %eax
	movl	%eax, -20(%rbp)
.LBB32_98:                              # %if.end269
	jmp	.LBB32_99
.LBB32_99:                              # %if.end270
	jmp	.LBB32_108
.LBB32_100:                             # %if.else271
	cmpl	$0, -4(%rbp)
	jne	.LBB32_103
# %bb.101:                              # %land.lhs.true273
	movq	img, %rax
	cmpl	$2, 72636(%rax)
	jne	.LBB32_103
# %bb.102:                              # %if.then276
	movq	-32(%rbp), %rax
	movl	540(%rax), %eax
	addl	$1, %eax
	movq	-16(%rbp), %rcx
	movl	%eax, 4(%rcx)
	movq	-16(%rbp), %rax
	movl	$1, (%rax)
	movl	-4(%rbp), %eax
	subl	$1, %eax
	movl	%eax, -20(%rbp)
	jmp	.LBB32_107
.LBB32_103:                             # %if.else282
	cmpl	$0, -4(%rbp)
	jl	.LBB32_106
# %bb.104:                              # %land.lhs.true284
	movl	-4(%rbp), %eax
	cmpl	-36(%rbp), %eax
	jge	.LBB32_106
# %bb.105:                              # %if.then286
	movl	-40(%rbp), %eax
	movq	-16(%rbp), %rcx
	movl	%eax, 4(%rcx)
	movq	-16(%rbp), %rax
	movl	$1, (%rax)
	movl	-4(%rbp), %eax
	movl	%eax, -20(%rbp)
.LBB32_106:                             # %if.end289
	jmp	.LBB32_107
.LBB32_107:                             # %if.end290
	jmp	.LBB32_108
.LBB32_108:                             # %if.end291
	jmp	.LBB32_126
.LBB32_109:                             # %if.else292
	cmpl	$0, -4(%rbp)
	jge	.LBB32_125
# %bb.110:                              # %if.then294
	movq	-32(%rbp), %rax
	cmpl	$0, 532(%rax)
	jne	.LBB32_115
# %bb.111:                              # %if.then297
	movl	-40(%rbp), %eax
	andl	$1, %eax
	cmpl	$0, %eax
	jne	.LBB32_113
# %bb.112:                              # %if.then300
	movq	-32(%rbp), %rax
	movl	544(%rax), %eax
	addl	$1, %eax
	movq	-16(%rbp), %rcx
	movl	%eax, 4(%rcx)
	movq	-32(%rbp), %rax
	movl	560(%rax), %eax
	movq	-16(%rbp), %rcx
	movl	%eax, (%rcx)
	movl	-4(%rbp), %eax
	movl	%eax, -20(%rbp)
	jmp	.LBB32_114
.LBB32_113:                             # %if.else304
	movq	-16(%rbp), %rax
	movl	$0, (%rax)
.LBB32_114:                             # %if.end306
	jmp	.LBB32_124
.LBB32_115:                             # %if.else307
	movl	-40(%rbp), %eax
	andl	$1, %eax
	cmpl	$0, %eax
	jne	.LBB32_122
# %bb.116:                              # %if.then310
	movq	-32(%rbp), %rax
	movl	544(%rax), %eax
	movq	-16(%rbp), %rcx
	movl	%eax, 4(%rcx)
	movq	-32(%rbp), %rax
	movl	560(%rax), %eax
	movq	-16(%rbp), %rcx
	movl	%eax, (%rcx)
	movq	-32(%rbp), %rax
	cmpl	$0, 560(%rax)
	je	.LBB32_121
# %bb.117:                              # %if.then317
	movq	img, %rax
	movq	14168(%rax), %rax
	movq	-32(%rbp), %rcx
	movslq	544(%rcx), %rcx
	imulq	$632, %rcx, %rcx        # imm = 0x278
	addq	%rcx, %rax
	cmpl	$0, 532(%rax)
	jne	.LBB32_119
# %bb.118:                              # %if.then324
	movq	-16(%rbp), %rax
	movl	4(%rax), %ecx
	addl	$1, %ecx
	movl	%ecx, 4(%rax)
	movl	-4(%rbp), %eax
	shll	$1, %eax
	movl	%eax, -20(%rbp)
	jmp	.LBB32_120
.LBB32_119:                             # %if.else328
	movl	-4(%rbp), %eax
	movl	%eax, -20(%rbp)
.LBB32_120:                             # %if.end329
	jmp	.LBB32_121
.LBB32_121:                             # %if.end330
	jmp	.LBB32_123
.LBB32_122:                             # %if.else331
	movq	-32(%rbp), %rax
	movl	544(%rax), %eax
	addl	$1, %eax
	movq	-16(%rbp), %rcx
	movl	%eax, 4(%rcx)
	movq	-32(%rbp), %rax
	movl	560(%rax), %eax
	movq	-16(%rbp), %rcx
	movl	%eax, (%rcx)
	movl	-4(%rbp), %eax
	movl	%eax, -20(%rbp)
.LBB32_123:                             # %if.end337
	jmp	.LBB32_124
.LBB32_124:                             # %if.end338
	jmp	.LBB32_125
.LBB32_125:                             # %if.end339
	jmp	.LBB32_126
.LBB32_126:                             # %if.end340
	jmp	.LBB32_127
.LBB32_127:                             # %if.end341
	movq	-16(%rbp), %rax
	cmpl	$0, (%rax)
	jne	.LBB32_129
# %bb.128:                              # %lor.lhs.false
	movq	img, %rax
	cmpl	$0, 72636(%rax)
	je	.LBB32_133
.LBB32_129:                             # %if.then346
	movl	-44(%rbp), %eax
	addl	-48(%rbp), %eax
	cltd
	idivl	-48(%rbp)
	movq	-16(%rbp), %rax
	movl	%edx, 8(%rax)
	movl	-20(%rbp), %eax
	addl	-36(%rbp), %eax
	cltd
	idivl	-36(%rbp)
	movq	-16(%rbp), %rax
	movl	%edx, 12(%rax)
	movq	-16(%rbp), %rax
	movl	4(%rax), %edi
	movq	-16(%rbp), %rsi
	addq	$16, %rsi
	movq	-16(%rbp), %rdx
	addq	$20, %rdx
	callq	get_mb_pos
	cmpl	$0, -52(%rbp)
	je	.LBB32_131
# %bb.130:                              # %if.then353
	movq	-16(%rbp), %rax
	movl	8(%rax), %eax
	movq	-16(%rbp), %rcx
	addl	16(%rcx), %eax
	movl	%eax, 16(%rcx)
	movq	-16(%rbp), %rax
	movl	12(%rax), %eax
	movq	-16(%rbp), %rcx
	addl	20(%rcx), %eax
	movl	%eax, 20(%rcx)
	jmp	.LBB32_132
.LBB32_131:                             # %if.else360
	movq	-16(%rbp), %rax
	movl	16(%rax), %ecx
	movq	img, %rsi
	movl	$16, %eax
	cltd
	idivl	72708(%rsi)
	movl	%eax, %esi
	movl	%ecx, %eax
	cltd
	idivl	%esi
	movq	-16(%rbp), %rcx
	addl	8(%rcx), %eax
	movq	-16(%rbp), %rcx
	movl	%eax, 16(%rcx)
	movq	-16(%rbp), %rax
	movl	20(%rax), %ecx
	movq	img, %rsi
	movl	$16, %eax
	cltd
	idivl	72712(%rsi)
	movl	%eax, %esi
	movl	%ecx, %eax
	cltd
	idivl	%esi
	movq	-16(%rbp), %rcx
	addl	12(%rcx), %eax
	movq	-16(%rbp), %rcx
	movl	%eax, 20(%rcx)
.LBB32_132:                             # %if.end375
	jmp	.LBB32_133
.LBB32_133:                             # %if.end376
	cmpl	$186710466, -56(%rbp)   # imm = 0xB20F9C2
	jne	.LBB32_135
.LBB32_134:
	addq	$64, %rsp
	popq	%rbp
	.cfi_def_cfa %rsp, 8
	retq
.LBB32_135:                             # %func_exit
	.cfi_def_cfa %rbp, 16
	callq	detect_breach
	jmp	.LBB32_134
.Lfunc_end32:
	.size	getAffNeighbour.24, .Lfunc_end32-getAffNeighbour.24
	.cfi_endproc
                                        # -- End function
	.globl	mb_is_available.25      # -- Begin function mb_is_available.25
	.p2align	4, 0x90
	.type	mb_is_available.25,@function
mb_is_available.25:                     # @mb_is_available.25
	.cfi_startproc
# %bb.0:                                # %entry
	pushq	%rbp
	.cfi_def_cfa_offset 16
	.cfi_offset %rbp, -16
	movq	%rsp, %rbp
	.cfi_def_cfa_register %rbp
	pushq	%rbx
	subq	$24, %rsp
	.cfi_offset %rbx, -24
	movl	$1883407895, -24(%rbp)  # imm = 0x70428617
	movl	%edi, -16(%rbp)
	movl	%esi, -20(%rbp)
	cmpl	$0, -16(%rbp)
	jl	.LBB33_2
# %bb.1:                                # %lor.lhs.false
	movl	-16(%rbp), %eax
	movq	img, %rcx
	movl	72484(%rcx), %ecx
	subl	$1, %ecx
	cmpl	%ecx, %eax
	jle	.LBB33_3
.LBB33_2:                               # %if.then
	movl	$0, -12(%rbp)
	jmp	.LBB33_8
.LBB33_3:                               # %if.end
	movq	img, %rax
	cmpl	$0, 72636(%rax)
	jne	.LBB33_7
# %bb.4:                                # %if.then2
	movq	img, %rax
	movq	14168(%rax), %rax
	movslq	-16(%rbp), %rcx
	imulq	$632, %rcx, %rcx        # imm = 0x278
	addq	%rcx, %rax
	movl	4(%rax), %eax
	movq	img, %rcx
	movq	14168(%rcx), %rcx
	movslq	-20(%rbp), %rdx
	imulq	$632, %rdx, %rdx        # imm = 0x278
	addq	%rdx, %rcx
	cmpl	4(%rcx), %eax
	je	.LBB33_6
# %bb.5:                                # %if.then8
	movl	$0, -12(%rbp)
	jmp	.LBB33_8
.LBB33_6:                               # %if.end9
	jmp	.LBB33_7
.LBB33_7:                               # %if.end10
	movl	$1, -12(%rbp)
.LBB33_8:                               # %return
	movl	-12(%rbp), %ebx
	cmpl	$1883407895, -24(%rbp)  # imm = 0x70428617
	jne	.LBB33_10
.LBB33_9:
	movl	%ebx, %eax
	addq	$24, %rsp
	popq	%rbx
	popq	%rbp
	.cfi_def_cfa %rsp, 8
	retq
.LBB33_10:                              # %func_exit
	.cfi_def_cfa %rbp, 16
	callq	detect_breach
	jmp	.LBB33_9
.Lfunc_end33:
	.size	mb_is_available.25, .Lfunc_end33-mb_is_available.25
	.cfi_endproc
                                        # -- End function
	.globl	get_mb_pos.26           # -- Begin function get_mb_pos.26
	.p2align	4, 0x90
	.type	get_mb_pos.26,@function
get_mb_pos.26:                          # @get_mb_pos.26
	.cfi_startproc
# %bb.0:                                # %entry
	pushq	%rbp
	.cfi_def_cfa_offset 16
	.cfi_offset %rbp, -16
	movq	%rsp, %rbp
	.cfi_def_cfa_register %rbp
	subq	$32, %rsp
	movl	$240174818, -8(%rbp)    # imm = 0xE50C6E2
	movl	%edi, -4(%rbp)
	movq	%rsi, -16(%rbp)
	movq	%rdx, -24(%rbp)
	movl	-4(%rbp), %edi
	movq	-16(%rbp), %rsi
	movq	-24(%rbp), %rdx
	callq	get_mb_block_pos
	movq	-16(%rbp), %rax
	movl	(%rax), %ecx
	shll	$4, %ecx
	movl	%ecx, (%rax)
	movq	-24(%rbp), %rax
	movl	(%rax), %ecx
	shll	$4, %ecx
	movl	%ecx, (%rax)
	cmpl	$240174818, -8(%rbp)    # imm = 0xE50C6E2
	jne	.LBB34_2
.LBB34_1:
	addq	$32, %rsp
	popq	%rbp
	.cfi_def_cfa %rsp, 8
	retq
.LBB34_2:                               # %func_exit
	.cfi_def_cfa %rbp, 16
	callq	detect_breach
	jmp	.LBB34_1
.Lfunc_end34:
	.size	get_mb_pos.26, .Lfunc_end34-get_mb_pos.26
	.cfi_endproc
                                        # -- End function
	.globl	getNeighbour.27         # -- Begin function getNeighbour.27
	.p2align	4, 0x90
	.type	getNeighbour.27,@function
getNeighbour.27:                        # @getNeighbour.27
	.cfi_startproc
# %bb.0:                                # %entry
	pushq	%rbp
	.cfi_def_cfa_offset 16
	.cfi_offset %rbp, -16
	movq	%rsp, %rbp
	.cfi_def_cfa_register %rbp
	subq	$32, %rsp
	movl	$990935254, -20(%rbp)   # imm = 0x3B1078D6
	movl	%edi, -4(%rbp)
	movl	%esi, -12(%rbp)
	movl	%edx, -8(%rbp)
	movl	%ecx, -16(%rbp)
	movq	%r8, -32(%rbp)
	cmpl	$0, -4(%rbp)
	jge	.LBB35_2
# %bb.1:                                # %if.then
	movabsq	$.L.str, %rdi
	movl	$100, %esi
	callq	error
.LBB35_2:                               # %if.end
	movq	img, %rax
	cmpl	$0, 72400(%rax)
	je	.LBB35_4
# %bb.3:                                # %if.then1
	movl	-4(%rbp), %edi
	movl	-12(%rbp), %esi
	movl	-8(%rbp), %edx
	movl	-16(%rbp), %ecx
	movq	-32(%rbp), %r8
	callq	getAffNeighbour
	jmp	.LBB35_5
.LBB35_4:                               # %if.else
	movl	-4(%rbp), %edi
	movl	-12(%rbp), %esi
	movl	-8(%rbp), %edx
	movl	-16(%rbp), %ecx
	movq	-32(%rbp), %r8
	callq	getNonAffNeighbour
.LBB35_5:                               # %if.end2
	cmpl	$990935254, -20(%rbp)   # imm = 0x3B1078D6
	jne	.LBB35_7
.LBB35_6:
	addq	$32, %rsp
	popq	%rbp
	.cfi_def_cfa %rsp, 8
	retq
.LBB35_7:                               # %func_exit
	.cfi_def_cfa %rbp, 16
	callq	detect_breach
	jmp	.LBB35_6
.Lfunc_end35:
	.size	getNeighbour.27, .Lfunc_end35-getNeighbour.27
	.cfi_endproc
                                        # -- End function
	.globl	getAffNeighbour.28      # -- Begin function getAffNeighbour.28
	.p2align	4, 0x90
	.type	getAffNeighbour.28,@function
getAffNeighbour.28:                     # @getAffNeighbour.28
	.cfi_startproc
# %bb.0:                                # %entry
	pushq	%rbp
	.cfi_def_cfa_offset 16
	.cfi_offset %rbp, -16
	movq	%rsp, %rbp
	.cfi_def_cfa_register %rbp
	subq	$64, %rsp
	movl	$1101473621, -56(%rbp)  # imm = 0x41A72755
	movl	%edi, -40(%rbp)
	movl	%esi, -44(%rbp)
	movl	%edx, -4(%rbp)
	movl	%ecx, -52(%rbp)
	movq	%r8, -16(%rbp)
	movq	img, %rax
	movq	14168(%rax), %rax
	movl	-40(%rbp), %ecx
	imulq	$632, %rcx, %rcx        # imm = 0x278
	addq	%rcx, %rax
	movq	%rax, -32(%rbp)
	movl	$-1, -20(%rbp)
	cmpl	$0, -52(%rbp)
	je	.LBB36_2
# %bb.1:                                # %if.then
	movl	$16, -48(%rbp)
	movl	$16, -36(%rbp)
	jmp	.LBB36_3
.LBB36_2:                               # %if.else
	movq	img, %rax
	movl	72708(%rax), %eax
	movl	%eax, -48(%rbp)
	movq	img, %rax
	movl	72712(%rax), %eax
	movl	%eax, -36(%rbp)
.LBB36_3:                               # %if.end
	movq	-16(%rbp), %rax
	movl	$0, (%rax)
	movl	-4(%rbp), %eax
	movl	-36(%rbp), %ecx
	subl	$1, %ecx
	cmpl	%ecx, %eax
	jle	.LBB36_5
# %bb.4:                                # %if.then1
	jmp	.LBB36_133
.LBB36_5:                               # %if.end2
	movl	-44(%rbp), %eax
	movl	-48(%rbp), %ecx
	subl	$1, %ecx
	cmpl	%ecx, %eax
	jle	.LBB36_9
# %bb.6:                                # %land.lhs.true
	cmpl	$0, -4(%rbp)
	jl	.LBB36_9
# %bb.7:                                # %land.lhs.true6
	movl	-4(%rbp), %eax
	cmpl	-36(%rbp), %eax
	jge	.LBB36_9
# %bb.8:                                # %if.then8
	jmp	.LBB36_133
.LBB36_9:                               # %if.end9
	cmpl	$0, -44(%rbp)
	jge	.LBB36_77
# %bb.10:                               # %if.then11
	cmpl	$0, -4(%rbp)
	jge	.LBB36_31
# %bb.11:                               # %if.then13
	movq	-32(%rbp), %rax
	cmpl	$0, 532(%rax)
	jne	.LBB36_21
# %bb.12:                               # %if.then15
	movl	-40(%rbp), %eax
	andl	$1, %eax
	cmpl	$0, %eax
	jne	.LBB36_14
# %bb.13:                               # %if.then17
	movq	-32(%rbp), %rax
	movl	548(%rax), %eax
	addl	$1, %eax
	movq	-16(%rbp), %rcx
	movl	%eax, 4(%rcx)
	movq	-32(%rbp), %rax
	movl	564(%rax), %eax
	movq	-16(%rbp), %rcx
	movl	%eax, (%rcx)
	movl	-4(%rbp), %eax
	movl	%eax, -20(%rbp)
	jmp	.LBB36_20
.LBB36_14:                              # %if.else19
	movq	-32(%rbp), %rax
	movl	536(%rax), %eax
	movq	-16(%rbp), %rcx
	movl	%eax, 4(%rcx)
	movq	-32(%rbp), %rax
	movl	552(%rax), %eax
	movq	-16(%rbp), %rcx
	movl	%eax, (%rcx)
	movq	-32(%rbp), %rax
	cmpl	$0, 552(%rax)
	je	.LBB36_19
# %bb.15:                               # %if.then24
	movq	img, %rax
	movq	14168(%rax), %rax
	movq	-32(%rbp), %rcx
	movslq	536(%rcx), %rcx
	imulq	$632, %rcx, %rcx        # imm = 0x278
	addq	%rcx, %rax
	cmpl	$0, 532(%rax)
	jne	.LBB36_17
# %bb.16:                               # %if.then31
	movl	-4(%rbp), %eax
	movl	%eax, -20(%rbp)
	jmp	.LBB36_18
.LBB36_17:                              # %if.else32
	movq	-16(%rbp), %rax
	movl	4(%rax), %ecx
	addl	$1, %ecx
	movl	%ecx, 4(%rax)
	movl	-4(%rbp), %eax
	addl	-36(%rbp), %eax
	sarl	$1, %eax
	movl	%eax, -20(%rbp)
.LBB36_18:                              # %if.end35
	jmp	.LBB36_19
.LBB36_19:                              # %if.end36
	jmp	.LBB36_20
.LBB36_20:                              # %if.end37
	jmp	.LBB36_30
.LBB36_21:                              # %if.else38
	movl	-40(%rbp), %eax
	andl	$1, %eax
	cmpl	$0, %eax
	jne	.LBB36_28
# %bb.22:                               # %if.then41
	movq	-32(%rbp), %rax
	movl	548(%rax), %eax
	movq	-16(%rbp), %rcx
	movl	%eax, 4(%rcx)
	movq	-32(%rbp), %rax
	movl	564(%rax), %eax
	movq	-16(%rbp), %rcx
	movl	%eax, (%rcx)
	movq	-32(%rbp), %rax
	cmpl	$0, 564(%rax)
	je	.LBB36_27
# %bb.23:                               # %if.then48
	movq	img, %rax
	movq	14168(%rax), %rax
	movq	-32(%rbp), %rcx
	movslq	548(%rcx), %rcx
	imulq	$632, %rcx, %rcx        # imm = 0x278
	addq	%rcx, %rax
	cmpl	$0, 532(%rax)
	jne	.LBB36_25
# %bb.24:                               # %if.then55
	movq	-16(%rbp), %rax
	movl	4(%rax), %ecx
	addl	$1, %ecx
	movl	%ecx, 4(%rax)
	movl	-4(%rbp), %eax
	shll	$1, %eax
	movl	%eax, -20(%rbp)
	jmp	.LBB36_26
.LBB36_25:                              # %if.else58
	movl	-4(%rbp), %eax
	movl	%eax, -20(%rbp)
.LBB36_26:                              # %if.end59
	jmp	.LBB36_27
.LBB36_27:                              # %if.end60
	jmp	.LBB36_29
.LBB36_28:                              # %if.else61
	movq	-32(%rbp), %rax
	movl	548(%rax), %eax
	addl	$1, %eax
	movq	-16(%rbp), %rcx
	movl	%eax, 4(%rcx)
	movq	-32(%rbp), %rax
	movl	564(%rax), %eax
	movq	-16(%rbp), %rcx
	movl	%eax, (%rcx)
	movl	-4(%rbp), %eax
	movl	%eax, -20(%rbp)
.LBB36_29:                              # %if.end67
	jmp	.LBB36_30
.LBB36_30:                              # %if.end68
	jmp	.LBB36_76
.LBB36_31:                              # %if.else69
	cmpl	$0, -4(%rbp)
	jl	.LBB36_75
# %bb.32:                               # %land.lhs.true71
	movl	-4(%rbp), %eax
	cmpl	-36(%rbp), %eax
	jge	.LBB36_75
# %bb.33:                               # %if.then73
	movq	-32(%rbp), %rax
	cmpl	$0, 532(%rax)
	jne	.LBB36_54
# %bb.34:                               # %if.then76
	movl	-40(%rbp), %eax
	andl	$1, %eax
	cmpl	$0, %eax
	jne	.LBB36_44
# %bb.35:                               # %if.then79
	movq	-32(%rbp), %rax
	movl	536(%rax), %eax
	movq	-16(%rbp), %rcx
	movl	%eax, 4(%rcx)
	movq	-32(%rbp), %rax
	movl	552(%rax), %eax
	movq	-16(%rbp), %rcx
	movl	%eax, (%rcx)
	movq	-32(%rbp), %rax
	cmpl	$0, 552(%rax)
	je	.LBB36_43
# %bb.36:                               # %if.then86
	movq	img, %rax
	movq	14168(%rax), %rax
	movq	-32(%rbp), %rcx
	movslq	536(%rcx), %rcx
	imulq	$632, %rcx, %rcx        # imm = 0x278
	addq	%rcx, %rax
	cmpl	$0, 532(%rax)
	jne	.LBB36_38
# %bb.37:                               # %if.then93
	movl	-4(%rbp), %eax
	movl	%eax, -20(%rbp)
	jmp	.LBB36_42
.LBB36_38:                              # %if.else94
	movl	-4(%rbp), %eax
	cltd
	movl	$2, %ecx
	idivl	%ecx
	cmpl	$0, %edx
	jne	.LBB36_40
# %bb.39:                               # %if.then97
	movl	-4(%rbp), %eax
	sarl	$1, %eax
	movl	%eax, -20(%rbp)
	jmp	.LBB36_41
.LBB36_40:                              # %if.else99
	movq	-16(%rbp), %rax
	movl	4(%rax), %ecx
	addl	$1, %ecx
	movl	%ecx, 4(%rax)
	movl	-4(%rbp), %eax
	sarl	$1, %eax
	movl	%eax, -20(%rbp)
.LBB36_41:                              # %if.end103
	jmp	.LBB36_42
.LBB36_42:                              # %if.end104
	jmp	.LBB36_43
.LBB36_43:                              # %if.end105
	jmp	.LBB36_53
.LBB36_44:                              # %if.else106
	movq	-32(%rbp), %rax
	movl	536(%rax), %eax
	movq	-16(%rbp), %rcx
	movl	%eax, 4(%rcx)
	movq	-32(%rbp), %rax
	movl	552(%rax), %eax
	movq	-16(%rbp), %rcx
	movl	%eax, (%rcx)
	movq	-32(%rbp), %rax
	cmpl	$0, 552(%rax)
	je	.LBB36_52
# %bb.45:                               # %if.then113
	movq	img, %rax
	movq	14168(%rax), %rax
	movq	-32(%rbp), %rcx
	movslq	536(%rcx), %rcx
	imulq	$632, %rcx, %rcx        # imm = 0x278
	addq	%rcx, %rax
	cmpl	$0, 532(%rax)
	jne	.LBB36_47
# %bb.46:                               # %if.then120
	movq	-16(%rbp), %rax
	movl	4(%rax), %ecx
	addl	$1, %ecx
	movl	%ecx, 4(%rax)
	movl	-4(%rbp), %eax
	movl	%eax, -20(%rbp)
	jmp	.LBB36_51
.LBB36_47:                              # %if.else123
	movl	-4(%rbp), %eax
	cltd
	movl	$2, %ecx
	idivl	%ecx
	cmpl	$0, %edx
	jne	.LBB36_49
# %bb.48:                               # %if.then126
	movl	-4(%rbp), %eax
	addl	-36(%rbp), %eax
	sarl	$1, %eax
	movl	%eax, -20(%rbp)
	jmp	.LBB36_50
.LBB36_49:                              # %if.else129
	movq	-16(%rbp), %rax
	movl	4(%rax), %ecx
	addl	$1, %ecx
	movl	%ecx, 4(%rax)
	movl	-4(%rbp), %eax
	addl	-36(%rbp), %eax
	sarl	$1, %eax
	movl	%eax, -20(%rbp)
.LBB36_50:                              # %if.end134
	jmp	.LBB36_51
.LBB36_51:                              # %if.end135
	jmp	.LBB36_52
.LBB36_52:                              # %if.end136
	jmp	.LBB36_53
.LBB36_53:                              # %if.end137
	jmp	.LBB36_74
.LBB36_54:                              # %if.else138
	movl	-40(%rbp), %eax
	andl	$1, %eax
	cmpl	$0, %eax
	jne	.LBB36_64
# %bb.55:                               # %if.then141
	movq	-32(%rbp), %rax
	movl	536(%rax), %eax
	movq	-16(%rbp), %rcx
	movl	%eax, 4(%rcx)
	movq	-32(%rbp), %rax
	movl	552(%rax), %eax
	movq	-16(%rbp), %rcx
	movl	%eax, (%rcx)
	movq	-32(%rbp), %rax
	cmpl	$0, 552(%rax)
	je	.LBB36_63
# %bb.56:                               # %if.then148
	movq	img, %rax
	movq	14168(%rax), %rax
	movq	-32(%rbp), %rcx
	movslq	536(%rcx), %rcx
	imulq	$632, %rcx, %rcx        # imm = 0x278
	addq	%rcx, %rax
	cmpl	$0, 532(%rax)
	jne	.LBB36_61
# %bb.57:                               # %if.then155
	movl	-4(%rbp), %ecx
	movl	-36(%rbp), %eax
	cltd
	movl	$2, %esi
	idivl	%esi
	cmpl	%eax, %ecx
	jge	.LBB36_59
# %bb.58:                               # %if.then157
	movl	-4(%rbp), %eax
	shll	$1, %eax
	movl	%eax, -20(%rbp)
	jmp	.LBB36_60
.LBB36_59:                              # %if.else158
	movq	-16(%rbp), %rax
	movl	4(%rax), %ecx
	addl	$1, %ecx
	movl	%ecx, 4(%rax)
	movl	-4(%rbp), %eax
	shll	$1, %eax
	subl	-36(%rbp), %eax
	movl	%eax, -20(%rbp)
.LBB36_60:                              # %if.end163
	jmp	.LBB36_62
.LBB36_61:                              # %if.else164
	movl	-4(%rbp), %eax
	movl	%eax, -20(%rbp)
.LBB36_62:                              # %if.end165
	jmp	.LBB36_63
.LBB36_63:                              # %if.end166
	jmp	.LBB36_73
.LBB36_64:                              # %if.else167
	movq	-32(%rbp), %rax
	movl	536(%rax), %eax
	movq	-16(%rbp), %rcx
	movl	%eax, 4(%rcx)
	movq	-32(%rbp), %rax
	movl	552(%rax), %eax
	movq	-16(%rbp), %rcx
	movl	%eax, (%rcx)
	movq	-32(%rbp), %rax
	cmpl	$0, 552(%rax)
	je	.LBB36_72
# %bb.65:                               # %if.then174
	movq	img, %rax
	movq	14168(%rax), %rax
	movq	-32(%rbp), %rcx
	movslq	536(%rcx), %rcx
	imulq	$632, %rcx, %rcx        # imm = 0x278
	addq	%rcx, %rax
	cmpl	$0, 532(%rax)
	jne	.LBB36_70
# %bb.66:                               # %if.then181
	movl	-4(%rbp), %ecx
	movl	-36(%rbp), %eax
	cltd
	movl	$2, %esi
	idivl	%esi
	cmpl	%eax, %ecx
	jge	.LBB36_68
# %bb.67:                               # %if.then184
	movl	-4(%rbp), %eax
	shll	$1, %eax
	addl	$1, %eax
	movl	%eax, -20(%rbp)
	jmp	.LBB36_69
.LBB36_68:                              # %if.else187
	movq	-16(%rbp), %rax
	movl	4(%rax), %ecx
	addl	$1, %ecx
	movl	%ecx, 4(%rax)
	movl	-4(%rbp), %eax
	shll	$1, %eax
	addl	$1, %eax
	subl	-36(%rbp), %eax
	movl	%eax, -20(%rbp)
.LBB36_69:                              # %if.end193
	jmp	.LBB36_71
.LBB36_70:                              # %if.else194
	movq	-16(%rbp), %rax
	movl	4(%rax), %ecx
	addl	$1, %ecx
	movl	%ecx, 4(%rax)
	movl	-4(%rbp), %eax
	movl	%eax, -20(%rbp)
.LBB36_71:                              # %if.end197
	jmp	.LBB36_72
.LBB36_72:                              # %if.end198
	jmp	.LBB36_73
.LBB36_73:                              # %if.end199
	jmp	.LBB36_74
.LBB36_74:                              # %if.end200
	jmp	.LBB36_75
.LBB36_75:                              # %if.end201
	jmp	.LBB36_76
.LBB36_76:                              # %if.end202
	jmp	.LBB36_127
.LBB36_77:                              # %if.else203
	cmpl	$0, -44(%rbp)
	jl	.LBB36_109
# %bb.78:                               # %land.lhs.true205
	movl	-44(%rbp), %eax
	cmpl	-48(%rbp), %eax
	jge	.LBB36_109
# %bb.79:                               # %if.then207
	cmpl	$0, -4(%rbp)
	jge	.LBB36_100
# %bb.80:                               # %if.then209
	movq	-32(%rbp), %rax
	cmpl	$0, 532(%rax)
	jne	.LBB36_90
# %bb.81:                               # %if.then212
	movl	-40(%rbp), %eax
	andl	$1, %eax
	cmpl	$0, %eax
	jne	.LBB36_88
# %bb.82:                               # %if.then215
	movq	-32(%rbp), %rax
	movl	540(%rax), %eax
	movq	-16(%rbp), %rcx
	movl	%eax, 4(%rcx)
	movq	-32(%rbp), %rax
	cmpl	$0, 556(%rax)
	je	.LBB36_87
# %bb.83:                               # %if.then218
	movq	img, %rax
	cmpl	$1, 72636(%rax)
	jne	.LBB36_85
# %bb.84:                               # %land.lhs.true220
	movq	img, %rax
	movq	14168(%rax), %rax
	movq	-32(%rbp), %rcx
	movslq	540(%rcx), %rcx
	imulq	$632, %rcx, %rcx        # imm = 0x278
	addq	%rcx, %rax
	cmpl	$0, 532(%rax)
	jne	.LBB36_86
.LBB36_85:                              # %if.then227
	movq	-16(%rbp), %rax
	movl	4(%rax), %ecx
	addl	$1, %ecx
	movl	%ecx, 4(%rax)
.LBB36_86:                              # %if.end230
	jmp	.LBB36_87
.LBB36_87:                              # %if.end231
	movq	-32(%rbp), %rax
	movl	556(%rax), %eax
	movq	-16(%rbp), %rcx
	movl	%eax, (%rcx)
	movl	-4(%rbp), %eax
	movl	%eax, -20(%rbp)
	jmp	.LBB36_89
.LBB36_88:                              # %if.else234
	movl	-40(%rbp), %eax
	subl	$1, %eax
	movq	-16(%rbp), %rcx
	movl	%eax, 4(%rcx)
	movq	-16(%rbp), %rax
	movl	$1, (%rax)
	movl	-4(%rbp), %eax
	movl	%eax, -20(%rbp)
.LBB36_89:                              # %if.end238
	jmp	.LBB36_99
.LBB36_90:                              # %if.else239
	movl	-40(%rbp), %eax
	andl	$1, %eax
	cmpl	$0, %eax
	jne	.LBB36_97
# %bb.91:                               # %if.then242
	movq	-32(%rbp), %rax
	movl	540(%rax), %eax
	movq	-16(%rbp), %rcx
	movl	%eax, 4(%rcx)
	movq	-32(%rbp), %rax
	movl	556(%rax), %eax
	movq	-16(%rbp), %rcx
	movl	%eax, (%rcx)
	movq	-32(%rbp), %rax
	cmpl	$0, 556(%rax)
	je	.LBB36_96
# %bb.92:                               # %if.then249
	movq	img, %rax
	movq	14168(%rax), %rax
	movq	-32(%rbp), %rcx
	movslq	540(%rcx), %rcx
	imulq	$632, %rcx, %rcx        # imm = 0x278
	addq	%rcx, %rax
	cmpl	$0, 532(%rax)
	jne	.LBB36_94
# %bb.93:                               # %if.then256
	movq	-16(%rbp), %rax
	movl	4(%rax), %ecx
	addl	$1, %ecx
	movl	%ecx, 4(%rax)
	movl	-4(%rbp), %eax
	shll	$1, %eax
	movl	%eax, -20(%rbp)
	jmp	.LBB36_95
.LBB36_94:                              # %if.else260
	movl	-4(%rbp), %eax
	movl	%eax, -20(%rbp)
.LBB36_95:                              # %if.end261
	jmp	.LBB36_96
.LBB36_96:                              # %if.end262
	jmp	.LBB36_98
.LBB36_97:                              # %if.else263
	movq	-32(%rbp), %rax
	movl	540(%rax), %eax
	addl	$1, %eax
	movq	-16(%rbp), %rcx
	movl	%eax, 4(%rcx)
	movq	-32(%rbp), %rax
	movl	556(%rax), %eax
	movq	-16(%rbp), %rcx
	movl	%eax, (%rcx)
	movl	-4(%rbp), %eax
	movl	%eax, -20(%rbp)
.LBB36_98:                              # %if.end269
	jmp	.LBB36_99
.LBB36_99:                              # %if.end270
	jmp	.LBB36_108
.LBB36_100:                             # %if.else271
	cmpl	$0, -4(%rbp)
	jne	.LBB36_103
# %bb.101:                              # %land.lhs.true273
	movq	img, %rax
	cmpl	$2, 72636(%rax)
	jne	.LBB36_103
# %bb.102:                              # %if.then276
	movq	-32(%rbp), %rax
	movl	540(%rax), %eax
	addl	$1, %eax
	movq	-16(%rbp), %rcx
	movl	%eax, 4(%rcx)
	movq	-16(%rbp), %rax
	movl	$1, (%rax)
	movl	-4(%rbp), %eax
	subl	$1, %eax
	movl	%eax, -20(%rbp)
	jmp	.LBB36_107
.LBB36_103:                             # %if.else282
	cmpl	$0, -4(%rbp)
	jl	.LBB36_106
# %bb.104:                              # %land.lhs.true284
	movl	-4(%rbp), %eax
	cmpl	-36(%rbp), %eax
	jge	.LBB36_106
# %bb.105:                              # %if.then286
	movl	-40(%rbp), %eax
	movq	-16(%rbp), %rcx
	movl	%eax, 4(%rcx)
	movq	-16(%rbp), %rax
	movl	$1, (%rax)
	movl	-4(%rbp), %eax
	movl	%eax, -20(%rbp)
.LBB36_106:                             # %if.end289
	jmp	.LBB36_107
.LBB36_107:                             # %if.end290
	jmp	.LBB36_108
.LBB36_108:                             # %if.end291
	jmp	.LBB36_126
.LBB36_109:                             # %if.else292
	cmpl	$0, -4(%rbp)
	jge	.LBB36_125
# %bb.110:                              # %if.then294
	movq	-32(%rbp), %rax
	cmpl	$0, 532(%rax)
	jne	.LBB36_115
# %bb.111:                              # %if.then297
	movl	-40(%rbp), %eax
	andl	$1, %eax
	cmpl	$0, %eax
	jne	.LBB36_113
# %bb.112:                              # %if.then300
	movq	-32(%rbp), %rax
	movl	544(%rax), %eax
	addl	$1, %eax
	movq	-16(%rbp), %rcx
	movl	%eax, 4(%rcx)
	movq	-32(%rbp), %rax
	movl	560(%rax), %eax
	movq	-16(%rbp), %rcx
	movl	%eax, (%rcx)
	movl	-4(%rbp), %eax
	movl	%eax, -20(%rbp)
	jmp	.LBB36_114
.LBB36_113:                             # %if.else304
	movq	-16(%rbp), %rax
	movl	$0, (%rax)
.LBB36_114:                             # %if.end306
	jmp	.LBB36_124
.LBB36_115:                             # %if.else307
	movl	-40(%rbp), %eax
	andl	$1, %eax
	cmpl	$0, %eax
	jne	.LBB36_122
# %bb.116:                              # %if.then310
	movq	-32(%rbp), %rax
	movl	544(%rax), %eax
	movq	-16(%rbp), %rcx
	movl	%eax, 4(%rcx)
	movq	-32(%rbp), %rax
	movl	560(%rax), %eax
	movq	-16(%rbp), %rcx
	movl	%eax, (%rcx)
	movq	-32(%rbp), %rax
	cmpl	$0, 560(%rax)
	je	.LBB36_121
# %bb.117:                              # %if.then317
	movq	img, %rax
	movq	14168(%rax), %rax
	movq	-32(%rbp), %rcx
	movslq	544(%rcx), %rcx
	imulq	$632, %rcx, %rcx        # imm = 0x278
	addq	%rcx, %rax
	cmpl	$0, 532(%rax)
	jne	.LBB36_119
# %bb.118:                              # %if.then324
	movq	-16(%rbp), %rax
	movl	4(%rax), %ecx
	addl	$1, %ecx
	movl	%ecx, 4(%rax)
	movl	-4(%rbp), %eax
	shll	$1, %eax
	movl	%eax, -20(%rbp)
	jmp	.LBB36_120
.LBB36_119:                             # %if.else328
	movl	-4(%rbp), %eax
	movl	%eax, -20(%rbp)
.LBB36_120:                             # %if.end329
	jmp	.LBB36_121
.LBB36_121:                             # %if.end330
	jmp	.LBB36_123
.LBB36_122:                             # %if.else331
	movq	-32(%rbp), %rax
	movl	544(%rax), %eax
	addl	$1, %eax
	movq	-16(%rbp), %rcx
	movl	%eax, 4(%rcx)
	movq	-32(%rbp), %rax
	movl	560(%rax), %eax
	movq	-16(%rbp), %rcx
	movl	%eax, (%rcx)
	movl	-4(%rbp), %eax
	movl	%eax, -20(%rbp)
.LBB36_123:                             # %if.end337
	jmp	.LBB36_124
.LBB36_124:                             # %if.end338
	jmp	.LBB36_125
.LBB36_125:                             # %if.end339
	jmp	.LBB36_126
.LBB36_126:                             # %if.end340
	jmp	.LBB36_127
.LBB36_127:                             # %if.end341
	movq	-16(%rbp), %rax
	cmpl	$0, (%rax)
	jne	.LBB36_129
# %bb.128:                              # %lor.lhs.false
	movq	img, %rax
	cmpl	$0, 72636(%rax)
	je	.LBB36_133
.LBB36_129:                             # %if.then346
	movl	-44(%rbp), %eax
	addl	-48(%rbp), %eax
	cltd
	idivl	-48(%rbp)
	movq	-16(%rbp), %rax
	movl	%edx, 8(%rax)
	movl	-20(%rbp), %eax
	addl	-36(%rbp), %eax
	cltd
	idivl	-36(%rbp)
	movq	-16(%rbp), %rax
	movl	%edx, 12(%rax)
	movq	-16(%rbp), %rax
	movl	4(%rax), %edi
	movq	-16(%rbp), %rsi
	addq	$16, %rsi
	movq	-16(%rbp), %rdx
	addq	$20, %rdx
	callq	get_mb_pos
	cmpl	$0, -52(%rbp)
	je	.LBB36_131
# %bb.130:                              # %if.then353
	movq	-16(%rbp), %rax
	movl	8(%rax), %eax
	movq	-16(%rbp), %rcx
	addl	16(%rcx), %eax
	movl	%eax, 16(%rcx)
	movq	-16(%rbp), %rax
	movl	12(%rax), %eax
	movq	-16(%rbp), %rcx
	addl	20(%rcx), %eax
	movl	%eax, 20(%rcx)
	jmp	.LBB36_132
.LBB36_131:                             # %if.else360
	movq	-16(%rbp), %rax
	movl	16(%rax), %ecx
	movq	img, %rsi
	movl	$16, %eax
	cltd
	idivl	72708(%rsi)
	movl	%eax, %esi
	movl	%ecx, %eax
	cltd
	idivl	%esi
	movq	-16(%rbp), %rcx
	addl	8(%rcx), %eax
	movq	-16(%rbp), %rcx
	movl	%eax, 16(%rcx)
	movq	-16(%rbp), %rax
	movl	20(%rax), %ecx
	movq	img, %rsi
	movl	$16, %eax
	cltd
	idivl	72712(%rsi)
	movl	%eax, %esi
	movl	%ecx, %eax
	cltd
	idivl	%esi
	movq	-16(%rbp), %rcx
	addl	12(%rcx), %eax
	movq	-16(%rbp), %rcx
	movl	%eax, 20(%rcx)
.LBB36_132:                             # %if.end375
	jmp	.LBB36_133
.LBB36_133:                             # %if.end376
	cmpl	$1101473621, -56(%rbp)  # imm = 0x41A72755
	jne	.LBB36_135
.LBB36_134:
	addq	$64, %rsp
	popq	%rbp
	.cfi_def_cfa %rsp, 8
	retq
.LBB36_135:                             # %func_exit
	.cfi_def_cfa %rbp, 16
	callq	detect_breach
	jmp	.LBB36_134
.Lfunc_end36:
	.size	getAffNeighbour.28, .Lfunc_end36-getAffNeighbour.28
	.cfi_endproc
                                        # -- End function
	.globl	mb_is_available.29      # -- Begin function mb_is_available.29
	.p2align	4, 0x90
	.type	mb_is_available.29,@function
mb_is_available.29:                     # @mb_is_available.29
	.cfi_startproc
# %bb.0:                                # %entry
	pushq	%rbp
	.cfi_def_cfa_offset 16
	.cfi_offset %rbp, -16
	movq	%rsp, %rbp
	.cfi_def_cfa_register %rbp
	pushq	%rbx
	subq	$24, %rsp
	.cfi_offset %rbx, -24
	movl	$2098942760, -24(%rbp)  # imm = 0x7D1B5328
	movl	%edi, -16(%rbp)
	movl	%esi, -20(%rbp)
	cmpl	$0, -16(%rbp)
	jl	.LBB37_2
# %bb.1:                                # %lor.lhs.false
	movl	-16(%rbp), %eax
	movq	img, %rcx
	movl	72484(%rcx), %ecx
	subl	$1, %ecx
	cmpl	%ecx, %eax
	jle	.LBB37_3
.LBB37_2:                               # %if.then
	movl	$0, -12(%rbp)
	jmp	.LBB37_8
.LBB37_3:                               # %if.end
	movq	img, %rax
	cmpl	$0, 72636(%rax)
	jne	.LBB37_7
# %bb.4:                                # %if.then2
	movq	img, %rax
	movq	14168(%rax), %rax
	movslq	-16(%rbp), %rcx
	imulq	$632, %rcx, %rcx        # imm = 0x278
	addq	%rcx, %rax
	movl	4(%rax), %eax
	movq	img, %rcx
	movq	14168(%rcx), %rcx
	movslq	-20(%rbp), %rdx
	imulq	$632, %rdx, %rdx        # imm = 0x278
	addq	%rdx, %rcx
	cmpl	4(%rcx), %eax
	je	.LBB37_6
# %bb.5:                                # %if.then8
	movl	$0, -12(%rbp)
	jmp	.LBB37_8
.LBB37_6:                               # %if.end9
	jmp	.LBB37_7
.LBB37_7:                               # %if.end10
	movl	$1, -12(%rbp)
.LBB37_8:                               # %return
	movl	-12(%rbp), %ebx
	cmpl	$2098942760, -24(%rbp)  # imm = 0x7D1B5328
	jne	.LBB37_10
.LBB37_9:
	movl	%ebx, %eax
	addq	$24, %rsp
	popq	%rbx
	popq	%rbp
	.cfi_def_cfa %rsp, 8
	retq
.LBB37_10:                              # %func_exit
	.cfi_def_cfa %rbp, 16
	callq	detect_breach
	jmp	.LBB37_9
.Lfunc_end37:
	.size	mb_is_available.29, .Lfunc_end37-mb_is_available.29
	.cfi_endproc
                                        # -- End function
	.globl	getNeighbour.30         # -- Begin function getNeighbour.30
	.p2align	4, 0x90
	.type	getNeighbour.30,@function
getNeighbour.30:                        # @getNeighbour.30
	.cfi_startproc
# %bb.0:                                # %entry
	pushq	%rbp
	.cfi_def_cfa_offset 16
	.cfi_offset %rbp, -16
	movq	%rsp, %rbp
	.cfi_def_cfa_register %rbp
	subq	$32, %rsp
	movl	$1594686265, -20(%rbp)  # imm = 0x5F0CFB39
	movl	%edi, -4(%rbp)
	movl	%esi, -12(%rbp)
	movl	%edx, -16(%rbp)
	movl	%ecx, -8(%rbp)
	movq	%r8, -32(%rbp)
	cmpl	$0, -4(%rbp)
	jge	.LBB38_2
# %bb.1:                                # %if.then
	movabsq	$.L.str, %rdi
	movl	$100, %esi
	callq	error
.LBB38_2:                               # %if.end
	movq	img, %rax
	cmpl	$0, 72400(%rax)
	je	.LBB38_4
# %bb.3:                                # %if.then1
	movl	-4(%rbp), %edi
	movl	-12(%rbp), %esi
	movl	-16(%rbp), %edx
	movl	-8(%rbp), %ecx
	movq	-32(%rbp), %r8
	callq	getAffNeighbour
	jmp	.LBB38_5
.LBB38_4:                               # %if.else
	movl	-4(%rbp), %edi
	movl	-12(%rbp), %esi
	movl	-16(%rbp), %edx
	movl	-8(%rbp), %ecx
	movq	-32(%rbp), %r8
	callq	getNonAffNeighbour
.LBB38_5:                               # %if.end2
	cmpl	$1594686265, -20(%rbp)  # imm = 0x5F0CFB39
	jne	.LBB38_7
.LBB38_6:
	addq	$32, %rsp
	popq	%rbp
	.cfi_def_cfa %rsp, 8
	retq
.LBB38_7:                               # %func_exit
	.cfi_def_cfa %rbp, 16
	callq	detect_breach
	jmp	.LBB38_6
.Lfunc_end38:
	.size	getNeighbour.30, .Lfunc_end38-getNeighbour.30
	.cfi_endproc
                                        # -- End function
	.globl	mb_is_available.31      # -- Begin function mb_is_available.31
	.p2align	4, 0x90
	.type	mb_is_available.31,@function
mb_is_available.31:                     # @mb_is_available.31
	.cfi_startproc
# %bb.0:                                # %entry
	pushq	%rbp
	.cfi_def_cfa_offset 16
	.cfi_offset %rbp, -16
	movq	%rsp, %rbp
	.cfi_def_cfa_register %rbp
	pushq	%rbx
	subq	$24, %rsp
	.cfi_offset %rbx, -24
	movl	$1904501188, -20(%rbp)  # imm = 0x718461C4
	movl	%edi, -12(%rbp)
	movl	%esi, -24(%rbp)
	cmpl	$0, -12(%rbp)
	jl	.LBB39_2
# %bb.1:                                # %lor.lhs.false
	movl	-12(%rbp), %eax
	movq	img, %rcx
	movl	72484(%rcx), %ecx
	subl	$1, %ecx
	cmpl	%ecx, %eax
	jle	.LBB39_3
.LBB39_2:                               # %if.then
	movl	$0, -16(%rbp)
	jmp	.LBB39_8
.LBB39_3:                               # %if.end
	movq	img, %rax
	cmpl	$0, 72636(%rax)
	jne	.LBB39_7
# %bb.4:                                # %if.then2
	movq	img, %rax
	movq	14168(%rax), %rax
	movslq	-12(%rbp), %rcx
	imulq	$632, %rcx, %rcx        # imm = 0x278
	addq	%rcx, %rax
	movl	4(%rax), %eax
	movq	img, %rcx
	movq	14168(%rcx), %rcx
	movslq	-24(%rbp), %rdx
	imulq	$632, %rdx, %rdx        # imm = 0x278
	addq	%rdx, %rcx
	cmpl	4(%rcx), %eax
	je	.LBB39_6
# %bb.5:                                # %if.then8
	movl	$0, -16(%rbp)
	jmp	.LBB39_8
.LBB39_6:                               # %if.end9
	jmp	.LBB39_7
.LBB39_7:                               # %if.end10
	movl	$1, -16(%rbp)
.LBB39_8:                               # %return
	movl	-16(%rbp), %ebx
	cmpl	$1904501188, -20(%rbp)  # imm = 0x718461C4
	jne	.LBB39_10
.LBB39_9:
	movl	%ebx, %eax
	addq	$24, %rsp
	popq	%rbx
	popq	%rbp
	.cfi_def_cfa %rsp, 8
	retq
.LBB39_10:                              # %func_exit
	.cfi_def_cfa %rbp, 16
	callq	detect_breach
	jmp	.LBB39_9
.Lfunc_end39:
	.size	mb_is_available.31, .Lfunc_end39-mb_is_available.31
	.cfi_endproc
                                        # -- End function
	.globl	get_mb_block_pos.32     # -- Begin function get_mb_block_pos.32
	.p2align	4, 0x90
	.type	get_mb_block_pos.32,@function
get_mb_block_pos.32:                    # @get_mb_block_pos.32
	.cfi_startproc
# %bb.0:                                # %entry
	pushq	%rbp
	.cfi_def_cfa_offset 16
	.cfi_offset %rbp, -16
	movq	%rsp, %rbp
	.cfi_def_cfa_register %rbp
	subq	$32, %rsp
	movl	$2005673087, -8(%rbp)   # imm = 0x778C247F
	movl	%edi, -4(%rbp)
	movq	%rsi, -24(%rbp)
	movq	%rdx, -16(%rbp)
	movq	img, %rax
	cmpl	$0, 72400(%rax)
	je	.LBB40_2
# %bb.1:                                # %if.then
	movl	-4(%rbp), %eax
	cltd
	movl	$2, %esi
	idivl	%esi
	movq	img, %rcx
	xorl	%edx, %edx
	divl	72468(%rcx)
	movq	-24(%rbp), %rax
	movl	%edx, (%rax)
	movl	-4(%rbp), %eax
	cltd
	idivl	%esi
	movq	img, %rcx
	xorl	%edx, %edx
	divl	72468(%rcx)
	movl	%eax, %ecx
	shll	$1, %ecx
	movl	-4(%rbp), %eax
	cltd
	idivl	%esi
	addl	%edx, %ecx
	movq	-16(%rbp), %rax
	movl	%ecx, (%rax)
	jmp	.LBB40_3
.LBB40_2:                               # %if.else
	movl	-4(%rbp), %eax
	movq	img, %rcx
	xorl	%edx, %edx
	divl	72468(%rcx)
	movq	-24(%rbp), %rax
	movl	%edx, (%rax)
	movl	-4(%rbp), %eax
	movq	img, %rcx
	xorl	%edx, %edx
	divl	72468(%rcx)
	movq	-16(%rbp), %rcx
	movl	%eax, (%rcx)
.LBB40_3:                               # %if.end
	cmpl	$2005673087, -8(%rbp)   # imm = 0x778C247F
	jne	.LBB40_5
.LBB40_4:
	addq	$32, %rsp
	popq	%rbp
	.cfi_def_cfa %rsp, 8
	retq
.LBB40_5:                               # %func_exit
	.cfi_def_cfa %rbp, 16
	callq	detect_breach
	jmp	.LBB40_4
.Lfunc_end40:
	.size	get_mb_block_pos.32, .Lfunc_end40-get_mb_block_pos.32
	.cfi_endproc
                                        # -- End function
	.globl	getAffNeighbour.33      # -- Begin function getAffNeighbour.33
	.p2align	4, 0x90
	.type	getAffNeighbour.33,@function
getAffNeighbour.33:                     # @getAffNeighbour.33
	.cfi_startproc
# %bb.0:                                # %entry
	pushq	%rbp
	.cfi_def_cfa_offset 16
	.cfi_offset %rbp, -16
	movq	%rsp, %rbp
	.cfi_def_cfa_register %rbp
	subq	$64, %rsp
	movl	$1658463768, -56(%rbp)  # imm = 0x62DA2618
	movl	%edi, -40(%rbp)
	movl	%esi, -48(%rbp)
	movl	%edx, -4(%rbp)
	movl	%ecx, -52(%rbp)
	movq	%r8, -16(%rbp)
	movq	img, %rax
	movq	14168(%rax), %rax
	movl	-40(%rbp), %ecx
	imulq	$632, %rcx, %rcx        # imm = 0x278
	addq	%rcx, %rax
	movq	%rax, -32(%rbp)
	movl	$-1, -20(%rbp)
	cmpl	$0, -52(%rbp)
	je	.LBB41_2
# %bb.1:                                # %if.then
	movl	$16, -44(%rbp)
	movl	$16, -36(%rbp)
	jmp	.LBB41_3
.LBB41_2:                               # %if.else
	movq	img, %rax
	movl	72708(%rax), %eax
	movl	%eax, -44(%rbp)
	movq	img, %rax
	movl	72712(%rax), %eax
	movl	%eax, -36(%rbp)
.LBB41_3:                               # %if.end
	movq	-16(%rbp), %rax
	movl	$0, (%rax)
	movl	-4(%rbp), %eax
	movl	-36(%rbp), %ecx
	subl	$1, %ecx
	cmpl	%ecx, %eax
	jle	.LBB41_5
# %bb.4:                                # %if.then1
	jmp	.LBB41_133
.LBB41_5:                               # %if.end2
	movl	-48(%rbp), %eax
	movl	-44(%rbp), %ecx
	subl	$1, %ecx
	cmpl	%ecx, %eax
	jle	.LBB41_9
# %bb.6:                                # %land.lhs.true
	cmpl	$0, -4(%rbp)
	jl	.LBB41_9
# %bb.7:                                # %land.lhs.true6
	movl	-4(%rbp), %eax
	cmpl	-36(%rbp), %eax
	jge	.LBB41_9
# %bb.8:                                # %if.then8
	jmp	.LBB41_133
.LBB41_9:                               # %if.end9
	cmpl	$0, -48(%rbp)
	jge	.LBB41_77
# %bb.10:                               # %if.then11
	cmpl	$0, -4(%rbp)
	jge	.LBB41_31
# %bb.11:                               # %if.then13
	movq	-32(%rbp), %rax
	cmpl	$0, 532(%rax)
	jne	.LBB41_21
# %bb.12:                               # %if.then15
	movl	-40(%rbp), %eax
	andl	$1, %eax
	cmpl	$0, %eax
	jne	.LBB41_14
# %bb.13:                               # %if.then17
	movq	-32(%rbp), %rax
	movl	548(%rax), %eax
	addl	$1, %eax
	movq	-16(%rbp), %rcx
	movl	%eax, 4(%rcx)
	movq	-32(%rbp), %rax
	movl	564(%rax), %eax
	movq	-16(%rbp), %rcx
	movl	%eax, (%rcx)
	movl	-4(%rbp), %eax
	movl	%eax, -20(%rbp)
	jmp	.LBB41_20
.LBB41_14:                              # %if.else19
	movq	-32(%rbp), %rax
	movl	536(%rax), %eax
	movq	-16(%rbp), %rcx
	movl	%eax, 4(%rcx)
	movq	-32(%rbp), %rax
	movl	552(%rax), %eax
	movq	-16(%rbp), %rcx
	movl	%eax, (%rcx)
	movq	-32(%rbp), %rax
	cmpl	$0, 552(%rax)
	je	.LBB41_19
# %bb.15:                               # %if.then24
	movq	img, %rax
	movq	14168(%rax), %rax
	movq	-32(%rbp), %rcx
	movslq	536(%rcx), %rcx
	imulq	$632, %rcx, %rcx        # imm = 0x278
	addq	%rcx, %rax
	cmpl	$0, 532(%rax)
	jne	.LBB41_17
# %bb.16:                               # %if.then31
	movl	-4(%rbp), %eax
	movl	%eax, -20(%rbp)
	jmp	.LBB41_18
.LBB41_17:                              # %if.else32
	movq	-16(%rbp), %rax
	movl	4(%rax), %ecx
	addl	$1, %ecx
	movl	%ecx, 4(%rax)
	movl	-4(%rbp), %eax
	addl	-36(%rbp), %eax
	sarl	$1, %eax
	movl	%eax, -20(%rbp)
.LBB41_18:                              # %if.end35
	jmp	.LBB41_19
.LBB41_19:                              # %if.end36
	jmp	.LBB41_20
.LBB41_20:                              # %if.end37
	jmp	.LBB41_30
.LBB41_21:                              # %if.else38
	movl	-40(%rbp), %eax
	andl	$1, %eax
	cmpl	$0, %eax
	jne	.LBB41_28
# %bb.22:                               # %if.then41
	movq	-32(%rbp), %rax
	movl	548(%rax), %eax
	movq	-16(%rbp), %rcx
	movl	%eax, 4(%rcx)
	movq	-32(%rbp), %rax
	movl	564(%rax), %eax
	movq	-16(%rbp), %rcx
	movl	%eax, (%rcx)
	movq	-32(%rbp), %rax
	cmpl	$0, 564(%rax)
	je	.LBB41_27
# %bb.23:                               # %if.then48
	movq	img, %rax
	movq	14168(%rax), %rax
	movq	-32(%rbp), %rcx
	movslq	548(%rcx), %rcx
	imulq	$632, %rcx, %rcx        # imm = 0x278
	addq	%rcx, %rax
	cmpl	$0, 532(%rax)
	jne	.LBB41_25
# %bb.24:                               # %if.then55
	movq	-16(%rbp), %rax
	movl	4(%rax), %ecx
	addl	$1, %ecx
	movl	%ecx, 4(%rax)
	movl	-4(%rbp), %eax
	shll	$1, %eax
	movl	%eax, -20(%rbp)
	jmp	.LBB41_26
.LBB41_25:                              # %if.else58
	movl	-4(%rbp), %eax
	movl	%eax, -20(%rbp)
.LBB41_26:                              # %if.end59
	jmp	.LBB41_27
.LBB41_27:                              # %if.end60
	jmp	.LBB41_29
.LBB41_28:                              # %if.else61
	movq	-32(%rbp), %rax
	movl	548(%rax), %eax
	addl	$1, %eax
	movq	-16(%rbp), %rcx
	movl	%eax, 4(%rcx)
	movq	-32(%rbp), %rax
	movl	564(%rax), %eax
	movq	-16(%rbp), %rcx
	movl	%eax, (%rcx)
	movl	-4(%rbp), %eax
	movl	%eax, -20(%rbp)
.LBB41_29:                              # %if.end67
	jmp	.LBB41_30
.LBB41_30:                              # %if.end68
	jmp	.LBB41_76
.LBB41_31:                              # %if.else69
	cmpl	$0, -4(%rbp)
	jl	.LBB41_75
# %bb.32:                               # %land.lhs.true71
	movl	-4(%rbp), %eax
	cmpl	-36(%rbp), %eax
	jge	.LBB41_75
# %bb.33:                               # %if.then73
	movq	-32(%rbp), %rax
	cmpl	$0, 532(%rax)
	jne	.LBB41_54
# %bb.34:                               # %if.then76
	movl	-40(%rbp), %eax
	andl	$1, %eax
	cmpl	$0, %eax
	jne	.LBB41_44
# %bb.35:                               # %if.then79
	movq	-32(%rbp), %rax
	movl	536(%rax), %eax
	movq	-16(%rbp), %rcx
	movl	%eax, 4(%rcx)
	movq	-32(%rbp), %rax
	movl	552(%rax), %eax
	movq	-16(%rbp), %rcx
	movl	%eax, (%rcx)
	movq	-32(%rbp), %rax
	cmpl	$0, 552(%rax)
	je	.LBB41_43
# %bb.36:                               # %if.then86
	movq	img, %rax
	movq	14168(%rax), %rax
	movq	-32(%rbp), %rcx
	movslq	536(%rcx), %rcx
	imulq	$632, %rcx, %rcx        # imm = 0x278
	addq	%rcx, %rax
	cmpl	$0, 532(%rax)
	jne	.LBB41_38
# %bb.37:                               # %if.then93
	movl	-4(%rbp), %eax
	movl	%eax, -20(%rbp)
	jmp	.LBB41_42
.LBB41_38:                              # %if.else94
	movl	-4(%rbp), %eax
	cltd
	movl	$2, %ecx
	idivl	%ecx
	cmpl	$0, %edx
	jne	.LBB41_40
# %bb.39:                               # %if.then97
	movl	-4(%rbp), %eax
	sarl	$1, %eax
	movl	%eax, -20(%rbp)
	jmp	.LBB41_41
.LBB41_40:                              # %if.else99
	movq	-16(%rbp), %rax
	movl	4(%rax), %ecx
	addl	$1, %ecx
	movl	%ecx, 4(%rax)
	movl	-4(%rbp), %eax
	sarl	$1, %eax
	movl	%eax, -20(%rbp)
.LBB41_41:                              # %if.end103
	jmp	.LBB41_42
.LBB41_42:                              # %if.end104
	jmp	.LBB41_43
.LBB41_43:                              # %if.end105
	jmp	.LBB41_53
.LBB41_44:                              # %if.else106
	movq	-32(%rbp), %rax
	movl	536(%rax), %eax
	movq	-16(%rbp), %rcx
	movl	%eax, 4(%rcx)
	movq	-32(%rbp), %rax
	movl	552(%rax), %eax
	movq	-16(%rbp), %rcx
	movl	%eax, (%rcx)
	movq	-32(%rbp), %rax
	cmpl	$0, 552(%rax)
	je	.LBB41_52
# %bb.45:                               # %if.then113
	movq	img, %rax
	movq	14168(%rax), %rax
	movq	-32(%rbp), %rcx
	movslq	536(%rcx), %rcx
	imulq	$632, %rcx, %rcx        # imm = 0x278
	addq	%rcx, %rax
	cmpl	$0, 532(%rax)
	jne	.LBB41_47
# %bb.46:                               # %if.then120
	movq	-16(%rbp), %rax
	movl	4(%rax), %ecx
	addl	$1, %ecx
	movl	%ecx, 4(%rax)
	movl	-4(%rbp), %eax
	movl	%eax, -20(%rbp)
	jmp	.LBB41_51
.LBB41_47:                              # %if.else123
	movl	-4(%rbp), %eax
	cltd
	movl	$2, %ecx
	idivl	%ecx
	cmpl	$0, %edx
	jne	.LBB41_49
# %bb.48:                               # %if.then126
	movl	-4(%rbp), %eax
	addl	-36(%rbp), %eax
	sarl	$1, %eax
	movl	%eax, -20(%rbp)
	jmp	.LBB41_50
.LBB41_49:                              # %if.else129
	movq	-16(%rbp), %rax
	movl	4(%rax), %ecx
	addl	$1, %ecx
	movl	%ecx, 4(%rax)
	movl	-4(%rbp), %eax
	addl	-36(%rbp), %eax
	sarl	$1, %eax
	movl	%eax, -20(%rbp)
.LBB41_50:                              # %if.end134
	jmp	.LBB41_51
.LBB41_51:                              # %if.end135
	jmp	.LBB41_52
.LBB41_52:                              # %if.end136
	jmp	.LBB41_53
.LBB41_53:                              # %if.end137
	jmp	.LBB41_74
.LBB41_54:                              # %if.else138
	movl	-40(%rbp), %eax
	andl	$1, %eax
	cmpl	$0, %eax
	jne	.LBB41_64
# %bb.55:                               # %if.then141
	movq	-32(%rbp), %rax
	movl	536(%rax), %eax
	movq	-16(%rbp), %rcx
	movl	%eax, 4(%rcx)
	movq	-32(%rbp), %rax
	movl	552(%rax), %eax
	movq	-16(%rbp), %rcx
	movl	%eax, (%rcx)
	movq	-32(%rbp), %rax
	cmpl	$0, 552(%rax)
	je	.LBB41_63
# %bb.56:                               # %if.then148
	movq	img, %rax
	movq	14168(%rax), %rax
	movq	-32(%rbp), %rcx
	movslq	536(%rcx), %rcx
	imulq	$632, %rcx, %rcx        # imm = 0x278
	addq	%rcx, %rax
	cmpl	$0, 532(%rax)
	jne	.LBB41_61
# %bb.57:                               # %if.then155
	movl	-4(%rbp), %ecx
	movl	-36(%rbp), %eax
	cltd
	movl	$2, %esi
	idivl	%esi
	cmpl	%eax, %ecx
	jge	.LBB41_59
# %bb.58:                               # %if.then157
	movl	-4(%rbp), %eax
	shll	$1, %eax
	movl	%eax, -20(%rbp)
	jmp	.LBB41_60
.LBB41_59:                              # %if.else158
	movq	-16(%rbp), %rax
	movl	4(%rax), %ecx
	addl	$1, %ecx
	movl	%ecx, 4(%rax)
	movl	-4(%rbp), %eax
	shll	$1, %eax
	subl	-36(%rbp), %eax
	movl	%eax, -20(%rbp)
.LBB41_60:                              # %if.end163
	jmp	.LBB41_62
.LBB41_61:                              # %if.else164
	movl	-4(%rbp), %eax
	movl	%eax, -20(%rbp)
.LBB41_62:                              # %if.end165
	jmp	.LBB41_63
.LBB41_63:                              # %if.end166
	jmp	.LBB41_73
.LBB41_64:                              # %if.else167
	movq	-32(%rbp), %rax
	movl	536(%rax), %eax
	movq	-16(%rbp), %rcx
	movl	%eax, 4(%rcx)
	movq	-32(%rbp), %rax
	movl	552(%rax), %eax
	movq	-16(%rbp), %rcx
	movl	%eax, (%rcx)
	movq	-32(%rbp), %rax
	cmpl	$0, 552(%rax)
	je	.LBB41_72
# %bb.65:                               # %if.then174
	movq	img, %rax
	movq	14168(%rax), %rax
	movq	-32(%rbp), %rcx
	movslq	536(%rcx), %rcx
	imulq	$632, %rcx, %rcx        # imm = 0x278
	addq	%rcx, %rax
	cmpl	$0, 532(%rax)
	jne	.LBB41_70
# %bb.66:                               # %if.then181
	movl	-4(%rbp), %ecx
	movl	-36(%rbp), %eax
	cltd
	movl	$2, %esi
	idivl	%esi
	cmpl	%eax, %ecx
	jge	.LBB41_68
# %bb.67:                               # %if.then184
	movl	-4(%rbp), %eax
	shll	$1, %eax
	addl	$1, %eax
	movl	%eax, -20(%rbp)
	jmp	.LBB41_69
.LBB41_68:                              # %if.else187
	movq	-16(%rbp), %rax
	movl	4(%rax), %ecx
	addl	$1, %ecx
	movl	%ecx, 4(%rax)
	movl	-4(%rbp), %eax
	shll	$1, %eax
	addl	$1, %eax
	subl	-36(%rbp), %eax
	movl	%eax, -20(%rbp)
.LBB41_69:                              # %if.end193
	jmp	.LBB41_71
.LBB41_70:                              # %if.else194
	movq	-16(%rbp), %rax
	movl	4(%rax), %ecx
	addl	$1, %ecx
	movl	%ecx, 4(%rax)
	movl	-4(%rbp), %eax
	movl	%eax, -20(%rbp)
.LBB41_71:                              # %if.end197
	jmp	.LBB41_72
.LBB41_72:                              # %if.end198
	jmp	.LBB41_73
.LBB41_73:                              # %if.end199
	jmp	.LBB41_74
.LBB41_74:                              # %if.end200
	jmp	.LBB41_75
.LBB41_75:                              # %if.end201
	jmp	.LBB41_76
.LBB41_76:                              # %if.end202
	jmp	.LBB41_127
.LBB41_77:                              # %if.else203
	cmpl	$0, -48(%rbp)
	jl	.LBB41_109
# %bb.78:                               # %land.lhs.true205
	movl	-48(%rbp), %eax
	cmpl	-44(%rbp), %eax
	jge	.LBB41_109
# %bb.79:                               # %if.then207
	cmpl	$0, -4(%rbp)
	jge	.LBB41_100
# %bb.80:                               # %if.then209
	movq	-32(%rbp), %rax
	cmpl	$0, 532(%rax)
	jne	.LBB41_90
# %bb.81:                               # %if.then212
	movl	-40(%rbp), %eax
	andl	$1, %eax
	cmpl	$0, %eax
	jne	.LBB41_88
# %bb.82:                               # %if.then215
	movq	-32(%rbp), %rax
	movl	540(%rax), %eax
	movq	-16(%rbp), %rcx
	movl	%eax, 4(%rcx)
	movq	-32(%rbp), %rax
	cmpl	$0, 556(%rax)
	je	.LBB41_87
# %bb.83:                               # %if.then218
	movq	img, %rax
	cmpl	$1, 72636(%rax)
	jne	.LBB41_85
# %bb.84:                               # %land.lhs.true220
	movq	img, %rax
	movq	14168(%rax), %rax
	movq	-32(%rbp), %rcx
	movslq	540(%rcx), %rcx
	imulq	$632, %rcx, %rcx        # imm = 0x278
	addq	%rcx, %rax
	cmpl	$0, 532(%rax)
	jne	.LBB41_86
.LBB41_85:                              # %if.then227
	movq	-16(%rbp), %rax
	movl	4(%rax), %ecx
	addl	$1, %ecx
	movl	%ecx, 4(%rax)
.LBB41_86:                              # %if.end230
	jmp	.LBB41_87
.LBB41_87:                              # %if.end231
	movq	-32(%rbp), %rax
	movl	556(%rax), %eax
	movq	-16(%rbp), %rcx
	movl	%eax, (%rcx)
	movl	-4(%rbp), %eax
	movl	%eax, -20(%rbp)
	jmp	.LBB41_89
.LBB41_88:                              # %if.else234
	movl	-40(%rbp), %eax
	subl	$1, %eax
	movq	-16(%rbp), %rcx
	movl	%eax, 4(%rcx)
	movq	-16(%rbp), %rax
	movl	$1, (%rax)
	movl	-4(%rbp), %eax
	movl	%eax, -20(%rbp)
.LBB41_89:                              # %if.end238
	jmp	.LBB41_99
.LBB41_90:                              # %if.else239
	movl	-40(%rbp), %eax
	andl	$1, %eax
	cmpl	$0, %eax
	jne	.LBB41_97
# %bb.91:                               # %if.then242
	movq	-32(%rbp), %rax
	movl	540(%rax), %eax
	movq	-16(%rbp), %rcx
	movl	%eax, 4(%rcx)
	movq	-32(%rbp), %rax
	movl	556(%rax), %eax
	movq	-16(%rbp), %rcx
	movl	%eax, (%rcx)
	movq	-32(%rbp), %rax
	cmpl	$0, 556(%rax)
	je	.LBB41_96
# %bb.92:                               # %if.then249
	movq	img, %rax
	movq	14168(%rax), %rax
	movq	-32(%rbp), %rcx
	movslq	540(%rcx), %rcx
	imulq	$632, %rcx, %rcx        # imm = 0x278
	addq	%rcx, %rax
	cmpl	$0, 532(%rax)
	jne	.LBB41_94
# %bb.93:                               # %if.then256
	movq	-16(%rbp), %rax
	movl	4(%rax), %ecx
	addl	$1, %ecx
	movl	%ecx, 4(%rax)
	movl	-4(%rbp), %eax
	shll	$1, %eax
	movl	%eax, -20(%rbp)
	jmp	.LBB41_95
.LBB41_94:                              # %if.else260
	movl	-4(%rbp), %eax
	movl	%eax, -20(%rbp)
.LBB41_95:                              # %if.end261
	jmp	.LBB41_96
.LBB41_96:                              # %if.end262
	jmp	.LBB41_98
.LBB41_97:                              # %if.else263
	movq	-32(%rbp), %rax
	movl	540(%rax), %eax
	addl	$1, %eax
	movq	-16(%rbp), %rcx
	movl	%eax, 4(%rcx)
	movq	-32(%rbp), %rax
	movl	556(%rax), %eax
	movq	-16(%rbp), %rcx
	movl	%eax, (%rcx)
	movl	-4(%rbp), %eax
	movl	%eax, -20(%rbp)
.LBB41_98:                              # %if.end269
	jmp	.LBB41_99
.LBB41_99:                              # %if.end270
	jmp	.LBB41_108
.LBB41_100:                             # %if.else271
	cmpl	$0, -4(%rbp)
	jne	.LBB41_103
# %bb.101:                              # %land.lhs.true273
	movq	img, %rax
	cmpl	$2, 72636(%rax)
	jne	.LBB41_103
# %bb.102:                              # %if.then276
	movq	-32(%rbp), %rax
	movl	540(%rax), %eax
	addl	$1, %eax
	movq	-16(%rbp), %rcx
	movl	%eax, 4(%rcx)
	movq	-16(%rbp), %rax
	movl	$1, (%rax)
	movl	-4(%rbp), %eax
	subl	$1, %eax
	movl	%eax, -20(%rbp)
	jmp	.LBB41_107
.LBB41_103:                             # %if.else282
	cmpl	$0, -4(%rbp)
	jl	.LBB41_106
# %bb.104:                              # %land.lhs.true284
	movl	-4(%rbp), %eax
	cmpl	-36(%rbp), %eax
	jge	.LBB41_106
# %bb.105:                              # %if.then286
	movl	-40(%rbp), %eax
	movq	-16(%rbp), %rcx
	movl	%eax, 4(%rcx)
	movq	-16(%rbp), %rax
	movl	$1, (%rax)
	movl	-4(%rbp), %eax
	movl	%eax, -20(%rbp)
.LBB41_106:                             # %if.end289
	jmp	.LBB41_107
.LBB41_107:                             # %if.end290
	jmp	.LBB41_108
.LBB41_108:                             # %if.end291
	jmp	.LBB41_126
.LBB41_109:                             # %if.else292
	cmpl	$0, -4(%rbp)
	jge	.LBB41_125
# %bb.110:                              # %if.then294
	movq	-32(%rbp), %rax
	cmpl	$0, 532(%rax)
	jne	.LBB41_115
# %bb.111:                              # %if.then297
	movl	-40(%rbp), %eax
	andl	$1, %eax
	cmpl	$0, %eax
	jne	.LBB41_113
# %bb.112:                              # %if.then300
	movq	-32(%rbp), %rax
	movl	544(%rax), %eax
	addl	$1, %eax
	movq	-16(%rbp), %rcx
	movl	%eax, 4(%rcx)
	movq	-32(%rbp), %rax
	movl	560(%rax), %eax
	movq	-16(%rbp), %rcx
	movl	%eax, (%rcx)
	movl	-4(%rbp), %eax
	movl	%eax, -20(%rbp)
	jmp	.LBB41_114
.LBB41_113:                             # %if.else304
	movq	-16(%rbp), %rax
	movl	$0, (%rax)
.LBB41_114:                             # %if.end306
	jmp	.LBB41_124
.LBB41_115:                             # %if.else307
	movl	-40(%rbp), %eax
	andl	$1, %eax
	cmpl	$0, %eax
	jne	.LBB41_122
# %bb.116:                              # %if.then310
	movq	-32(%rbp), %rax
	movl	544(%rax), %eax
	movq	-16(%rbp), %rcx
	movl	%eax, 4(%rcx)
	movq	-32(%rbp), %rax
	movl	560(%rax), %eax
	movq	-16(%rbp), %rcx
	movl	%eax, (%rcx)
	movq	-32(%rbp), %rax
	cmpl	$0, 560(%rax)
	je	.LBB41_121
# %bb.117:                              # %if.then317
	movq	img, %rax
	movq	14168(%rax), %rax
	movq	-32(%rbp), %rcx
	movslq	544(%rcx), %rcx
	imulq	$632, %rcx, %rcx        # imm = 0x278
	addq	%rcx, %rax
	cmpl	$0, 532(%rax)
	jne	.LBB41_119
# %bb.118:                              # %if.then324
	movq	-16(%rbp), %rax
	movl	4(%rax), %ecx
	addl	$1, %ecx
	movl	%ecx, 4(%rax)
	movl	-4(%rbp), %eax
	shll	$1, %eax
	movl	%eax, -20(%rbp)
	jmp	.LBB41_120
.LBB41_119:                             # %if.else328
	movl	-4(%rbp), %eax
	movl	%eax, -20(%rbp)
.LBB41_120:                             # %if.end329
	jmp	.LBB41_121
.LBB41_121:                             # %if.end330
	jmp	.LBB41_123
.LBB41_122:                             # %if.else331
	movq	-32(%rbp), %rax
	movl	544(%rax), %eax
	addl	$1, %eax
	movq	-16(%rbp), %rcx
	movl	%eax, 4(%rcx)
	movq	-32(%rbp), %rax
	movl	560(%rax), %eax
	movq	-16(%rbp), %rcx
	movl	%eax, (%rcx)
	movl	-4(%rbp), %eax
	movl	%eax, -20(%rbp)
.LBB41_123:                             # %if.end337
	jmp	.LBB41_124
.LBB41_124:                             # %if.end338
	jmp	.LBB41_125
.LBB41_125:                             # %if.end339
	jmp	.LBB41_126
.LBB41_126:                             # %if.end340
	jmp	.LBB41_127
.LBB41_127:                             # %if.end341
	movq	-16(%rbp), %rax
	cmpl	$0, (%rax)
	jne	.LBB41_129
# %bb.128:                              # %lor.lhs.false
	movq	img, %rax
	cmpl	$0, 72636(%rax)
	je	.LBB41_133
.LBB41_129:                             # %if.then346
	movl	-48(%rbp), %eax
	addl	-44(%rbp), %eax
	cltd
	idivl	-44(%rbp)
	movq	-16(%rbp), %rax
	movl	%edx, 8(%rax)
	movl	-20(%rbp), %eax
	addl	-36(%rbp), %eax
	cltd
	idivl	-36(%rbp)
	movq	-16(%rbp), %rax
	movl	%edx, 12(%rax)
	movq	-16(%rbp), %rax
	movl	4(%rax), %edi
	movq	-16(%rbp), %rsi
	addq	$16, %rsi
	movq	-16(%rbp), %rdx
	addq	$20, %rdx
	callq	get_mb_pos
	cmpl	$0, -52(%rbp)
	je	.LBB41_131
# %bb.130:                              # %if.then353
	movq	-16(%rbp), %rax
	movl	8(%rax), %eax
	movq	-16(%rbp), %rcx
	addl	16(%rcx), %eax
	movl	%eax, 16(%rcx)
	movq	-16(%rbp), %rax
	movl	12(%rax), %eax
	movq	-16(%rbp), %rcx
	addl	20(%rcx), %eax
	movl	%eax, 20(%rcx)
	jmp	.LBB41_132
.LBB41_131:                             # %if.else360
	movq	-16(%rbp), %rax
	movl	16(%rax), %ecx
	movq	img, %rsi
	movl	$16, %eax
	cltd
	idivl	72708(%rsi)
	movl	%eax, %esi
	movl	%ecx, %eax
	cltd
	idivl	%esi
	movq	-16(%rbp), %rcx
	addl	8(%rcx), %eax
	movq	-16(%rbp), %rcx
	movl	%eax, 16(%rcx)
	movq	-16(%rbp), %rax
	movl	20(%rax), %ecx
	movq	img, %rsi
	movl	$16, %eax
	cltd
	idivl	72712(%rsi)
	movl	%eax, %esi
	movl	%ecx, %eax
	cltd
	idivl	%esi
	movq	-16(%rbp), %rcx
	addl	12(%rcx), %eax
	movq	-16(%rbp), %rcx
	movl	%eax, 20(%rcx)
.LBB41_132:                             # %if.end375
	jmp	.LBB41_133
.LBB41_133:                             # %if.end376
	cmpl	$1658463768, -56(%rbp)  # imm = 0x62DA2618
	jne	.LBB41_135
.LBB41_134:
	addq	$64, %rsp
	popq	%rbp
	.cfi_def_cfa %rsp, 8
	retq
.LBB41_135:                             # %func_exit
	.cfi_def_cfa %rbp, 16
	callq	detect_breach
	jmp	.LBB41_134
.Lfunc_end41:
	.size	getAffNeighbour.33, .Lfunc_end41-getAffNeighbour.33
	.cfi_endproc
                                        # -- End function
	.globl	getChroma4x4Neighbour.34 # -- Begin function getChroma4x4Neighbour.34
	.p2align	4, 0x90
	.type	getChroma4x4Neighbour.34,@function
getChroma4x4Neighbour.34:               # @getChroma4x4Neighbour.34
	.cfi_startproc
# %bb.0:                                # %entry
	pushq	%rbp
	.cfi_def_cfa_offset 16
	.cfi_offset %rbp, -16
	movq	%rsp, %rbp
	.cfi_def_cfa_register %rbp
	subq	$48, %rsp
	movl	$461328170, -36(%rbp)   # imm = 0x1B7F4F2A
	movl	%edi, -28(%rbp)
	movl	%esi, -12(%rbp)
	movl	%edx, -40(%rbp)
	movl	%ecx, -16(%rbp)
	movl	%r8d, -24(%rbp)
	movq	%r9, -8(%rbp)
	movl	-12(%rbp), %eax
	shll	$2, %eax
	addl	-16(%rbp), %eax
	movl	%eax, -32(%rbp)
	movl	-40(%rbp), %eax
	shll	$2, %eax
	addl	-24(%rbp), %eax
	movl	%eax, -20(%rbp)
	movl	-28(%rbp), %edi
	movl	-32(%rbp), %esi
	movl	-20(%rbp), %edx
	movq	-8(%rbp), %r8
	xorl	%ecx, %ecx
	callq	getNeighbour
	movq	-8(%rbp), %rax
	cmpl	$0, (%rax)
	je	.LBB42_2
# %bb.1:                                # %if.then
	movq	-8(%rbp), %rcx
	movl	8(%rcx), %eax
	cltd
	movl	$4, %esi
	idivl	%esi
	movl	%eax, 8(%rcx)
	movq	-8(%rbp), %rcx
	movl	12(%rcx), %eax
	cltd
	idivl	%esi
	movl	%eax, 12(%rcx)
	movq	-8(%rbp), %rcx
	movl	16(%rcx), %eax
	cltd
	idivl	%esi
	movl	%eax, 16(%rcx)
	movq	-8(%rbp), %rcx
	movl	20(%rcx), %eax
	cltd
	idivl	%esi
	movl	%eax, 20(%rcx)
.LBB42_2:                               # %if.end
	cmpl	$461328170, -36(%rbp)   # imm = 0x1B7F4F2A
	jne	.LBB42_4
.LBB42_3:
	addq	$48, %rsp
	popq	%rbp
	.cfi_def_cfa %rsp, 8
	retq
.LBB42_4:                               # %func_exit
	.cfi_def_cfa %rbp, 16
	callq	detect_breach
	jmp	.LBB42_3
.Lfunc_end42:
	.size	getChroma4x4Neighbour.34, .Lfunc_end42-getChroma4x4Neighbour.34
	.cfi_endproc
                                        # -- End function
	.globl	getChroma4x4Neighbour.35 # -- Begin function getChroma4x4Neighbour.35
	.p2align	4, 0x90
	.type	getChroma4x4Neighbour.35,@function
getChroma4x4Neighbour.35:               # @getChroma4x4Neighbour.35
	.cfi_startproc
# %bb.0:                                # %entry
	pushq	%rbp
	.cfi_def_cfa_offset 16
	.cfi_offset %rbp, -16
	movq	%rsp, %rbp
	.cfi_def_cfa_register %rbp
	subq	$48, %rsp
	movl	$1003732608, -40(%rbp)  # imm = 0x3BD3BE80
	movl	%edi, -12(%rbp)
	movl	%esi, -16(%rbp)
	movl	%edx, -24(%rbp)
	movl	%ecx, -28(%rbp)
	movl	%r8d, -36(%rbp)
	movq	%r9, -8(%rbp)
	movl	-16(%rbp), %eax
	shll	$2, %eax
	addl	-28(%rbp), %eax
	movl	%eax, -32(%rbp)
	movl	-24(%rbp), %eax
	shll	$2, %eax
	addl	-36(%rbp), %eax
	movl	%eax, -20(%rbp)
	movl	-12(%rbp), %edi
	movl	-32(%rbp), %esi
	movl	-20(%rbp), %edx
	movq	-8(%rbp), %r8
	xorl	%ecx, %ecx
	callq	getNeighbour
	movq	-8(%rbp), %rax
	cmpl	$0, (%rax)
	je	.LBB43_2
# %bb.1:                                # %if.then
	movq	-8(%rbp), %rcx
	movl	8(%rcx), %eax
	cltd
	movl	$4, %esi
	idivl	%esi
	movl	%eax, 8(%rcx)
	movq	-8(%rbp), %rcx
	movl	12(%rcx), %eax
	cltd
	idivl	%esi
	movl	%eax, 12(%rcx)
	movq	-8(%rbp), %rcx
	movl	16(%rcx), %eax
	cltd
	idivl	%esi
	movl	%eax, 16(%rcx)
	movq	-8(%rbp), %rcx
	movl	20(%rcx), %eax
	cltd
	idivl	%esi
	movl	%eax, 20(%rcx)
.LBB43_2:                               # %if.end
	cmpl	$1003732608, -40(%rbp)  # imm = 0x3BD3BE80
	jne	.LBB43_4
.LBB43_3:
	addq	$48, %rsp
	popq	%rbp
	.cfi_def_cfa %rsp, 8
	retq
.LBB43_4:                               # %func_exit
	.cfi_def_cfa %rbp, 16
	callq	detect_breach
	jmp	.LBB43_3
.Lfunc_end43:
	.size	getChroma4x4Neighbour.35, .Lfunc_end43-getChroma4x4Neighbour.35
	.cfi_endproc
                                        # -- End function
	.globl	getAffNeighbour.36      # -- Begin function getAffNeighbour.36
	.p2align	4, 0x90
	.type	getAffNeighbour.36,@function
getAffNeighbour.36:                     # @getAffNeighbour.36
	.cfi_startproc
# %bb.0:                                # %entry
	pushq	%rbp
	.cfi_def_cfa_offset 16
	.cfi_offset %rbp, -16
	movq	%rsp, %rbp
	.cfi_def_cfa_register %rbp
	subq	$64, %rsp
	movl	$435053869, -56(%rbp)   # imm = 0x19EE652D
	movl	%edi, -40(%rbp)
	movl	%esi, -44(%rbp)
	movl	%edx, -4(%rbp)
	movl	%ecx, -52(%rbp)
	movq	%r8, -16(%rbp)
	movq	img, %rax
	movq	14168(%rax), %rax
	movl	-40(%rbp), %ecx
	imulq	$632, %rcx, %rcx        # imm = 0x278
	addq	%rcx, %rax
	movq	%rax, -32(%rbp)
	movl	$-1, -20(%rbp)
	cmpl	$0, -52(%rbp)
	je	.LBB44_2
# %bb.1:                                # %if.then
	movl	$16, -48(%rbp)
	movl	$16, -36(%rbp)
	jmp	.LBB44_3
.LBB44_2:                               # %if.else
	movq	img, %rax
	movl	72708(%rax), %eax
	movl	%eax, -48(%rbp)
	movq	img, %rax
	movl	72712(%rax), %eax
	movl	%eax, -36(%rbp)
.LBB44_3:                               # %if.end
	movq	-16(%rbp), %rax
	movl	$0, (%rax)
	movl	-4(%rbp), %eax
	movl	-36(%rbp), %ecx
	subl	$1, %ecx
	cmpl	%ecx, %eax
	jle	.LBB44_5
# %bb.4:                                # %if.then1
	jmp	.LBB44_133
.LBB44_5:                               # %if.end2
	movl	-44(%rbp), %eax
	movl	-48(%rbp), %ecx
	subl	$1, %ecx
	cmpl	%ecx, %eax
	jle	.LBB44_9
# %bb.6:                                # %land.lhs.true
	cmpl	$0, -4(%rbp)
	jl	.LBB44_9
# %bb.7:                                # %land.lhs.true6
	movl	-4(%rbp), %eax
	cmpl	-36(%rbp), %eax
	jge	.LBB44_9
# %bb.8:                                # %if.then8
	jmp	.LBB44_133
.LBB44_9:                               # %if.end9
	cmpl	$0, -44(%rbp)
	jge	.LBB44_77
# %bb.10:                               # %if.then11
	cmpl	$0, -4(%rbp)
	jge	.LBB44_31
# %bb.11:                               # %if.then13
	movq	-32(%rbp), %rax
	cmpl	$0, 532(%rax)
	jne	.LBB44_21
# %bb.12:                               # %if.then15
	movl	-40(%rbp), %eax
	andl	$1, %eax
	cmpl	$0, %eax
	jne	.LBB44_14
# %bb.13:                               # %if.then17
	movq	-32(%rbp), %rax
	movl	548(%rax), %eax
	addl	$1, %eax
	movq	-16(%rbp), %rcx
	movl	%eax, 4(%rcx)
	movq	-32(%rbp), %rax
	movl	564(%rax), %eax
	movq	-16(%rbp), %rcx
	movl	%eax, (%rcx)
	movl	-4(%rbp), %eax
	movl	%eax, -20(%rbp)
	jmp	.LBB44_20
.LBB44_14:                              # %if.else19
	movq	-32(%rbp), %rax
	movl	536(%rax), %eax
	movq	-16(%rbp), %rcx
	movl	%eax, 4(%rcx)
	movq	-32(%rbp), %rax
	movl	552(%rax), %eax
	movq	-16(%rbp), %rcx
	movl	%eax, (%rcx)
	movq	-32(%rbp), %rax
	cmpl	$0, 552(%rax)
	je	.LBB44_19
# %bb.15:                               # %if.then24
	movq	img, %rax
	movq	14168(%rax), %rax
	movq	-32(%rbp), %rcx
	movslq	536(%rcx), %rcx
	imulq	$632, %rcx, %rcx        # imm = 0x278
	addq	%rcx, %rax
	cmpl	$0, 532(%rax)
	jne	.LBB44_17
# %bb.16:                               # %if.then31
	movl	-4(%rbp), %eax
	movl	%eax, -20(%rbp)
	jmp	.LBB44_18
.LBB44_17:                              # %if.else32
	movq	-16(%rbp), %rax
	movl	4(%rax), %ecx
	addl	$1, %ecx
	movl	%ecx, 4(%rax)
	movl	-4(%rbp), %eax
	addl	-36(%rbp), %eax
	sarl	$1, %eax
	movl	%eax, -20(%rbp)
.LBB44_18:                              # %if.end35
	jmp	.LBB44_19
.LBB44_19:                              # %if.end36
	jmp	.LBB44_20
.LBB44_20:                              # %if.end37
	jmp	.LBB44_30
.LBB44_21:                              # %if.else38
	movl	-40(%rbp), %eax
	andl	$1, %eax
	cmpl	$0, %eax
	jne	.LBB44_28
# %bb.22:                               # %if.then41
	movq	-32(%rbp), %rax
	movl	548(%rax), %eax
	movq	-16(%rbp), %rcx
	movl	%eax, 4(%rcx)
	movq	-32(%rbp), %rax
	movl	564(%rax), %eax
	movq	-16(%rbp), %rcx
	movl	%eax, (%rcx)
	movq	-32(%rbp), %rax
	cmpl	$0, 564(%rax)
	je	.LBB44_27
# %bb.23:                               # %if.then48
	movq	img, %rax
	movq	14168(%rax), %rax
	movq	-32(%rbp), %rcx
	movslq	548(%rcx), %rcx
	imulq	$632, %rcx, %rcx        # imm = 0x278
	addq	%rcx, %rax
	cmpl	$0, 532(%rax)
	jne	.LBB44_25
# %bb.24:                               # %if.then55
	movq	-16(%rbp), %rax
	movl	4(%rax), %ecx
	addl	$1, %ecx
	movl	%ecx, 4(%rax)
	movl	-4(%rbp), %eax
	shll	$1, %eax
	movl	%eax, -20(%rbp)
	jmp	.LBB44_26
.LBB44_25:                              # %if.else58
	movl	-4(%rbp), %eax
	movl	%eax, -20(%rbp)
.LBB44_26:                              # %if.end59
	jmp	.LBB44_27
.LBB44_27:                              # %if.end60
	jmp	.LBB44_29
.LBB44_28:                              # %if.else61
	movq	-32(%rbp), %rax
	movl	548(%rax), %eax
	addl	$1, %eax
	movq	-16(%rbp), %rcx
	movl	%eax, 4(%rcx)
	movq	-32(%rbp), %rax
	movl	564(%rax), %eax
	movq	-16(%rbp), %rcx
	movl	%eax, (%rcx)
	movl	-4(%rbp), %eax
	movl	%eax, -20(%rbp)
.LBB44_29:                              # %if.end67
	jmp	.LBB44_30
.LBB44_30:                              # %if.end68
	jmp	.LBB44_76
.LBB44_31:                              # %if.else69
	cmpl	$0, -4(%rbp)
	jl	.LBB44_75
# %bb.32:                               # %land.lhs.true71
	movl	-4(%rbp), %eax
	cmpl	-36(%rbp), %eax
	jge	.LBB44_75
# %bb.33:                               # %if.then73
	movq	-32(%rbp), %rax
	cmpl	$0, 532(%rax)
	jne	.LBB44_54
# %bb.34:                               # %if.then76
	movl	-40(%rbp), %eax
	andl	$1, %eax
	cmpl	$0, %eax
	jne	.LBB44_44
# %bb.35:                               # %if.then79
	movq	-32(%rbp), %rax
	movl	536(%rax), %eax
	movq	-16(%rbp), %rcx
	movl	%eax, 4(%rcx)
	movq	-32(%rbp), %rax
	movl	552(%rax), %eax
	movq	-16(%rbp), %rcx
	movl	%eax, (%rcx)
	movq	-32(%rbp), %rax
	cmpl	$0, 552(%rax)
	je	.LBB44_43
# %bb.36:                               # %if.then86
	movq	img, %rax
	movq	14168(%rax), %rax
	movq	-32(%rbp), %rcx
	movslq	536(%rcx), %rcx
	imulq	$632, %rcx, %rcx        # imm = 0x278
	addq	%rcx, %rax
	cmpl	$0, 532(%rax)
	jne	.LBB44_38
# %bb.37:                               # %if.then93
	movl	-4(%rbp), %eax
	movl	%eax, -20(%rbp)
	jmp	.LBB44_42
.LBB44_38:                              # %if.else94
	movl	-4(%rbp), %eax
	cltd
	movl	$2, %ecx
	idivl	%ecx
	cmpl	$0, %edx
	jne	.LBB44_40
# %bb.39:                               # %if.then97
	movl	-4(%rbp), %eax
	sarl	$1, %eax
	movl	%eax, -20(%rbp)
	jmp	.LBB44_41
.LBB44_40:                              # %if.else99
	movq	-16(%rbp), %rax
	movl	4(%rax), %ecx
	addl	$1, %ecx
	movl	%ecx, 4(%rax)
	movl	-4(%rbp), %eax
	sarl	$1, %eax
	movl	%eax, -20(%rbp)
.LBB44_41:                              # %if.end103
	jmp	.LBB44_42
.LBB44_42:                              # %if.end104
	jmp	.LBB44_43
.LBB44_43:                              # %if.end105
	jmp	.LBB44_53
.LBB44_44:                              # %if.else106
	movq	-32(%rbp), %rax
	movl	536(%rax), %eax
	movq	-16(%rbp), %rcx
	movl	%eax, 4(%rcx)
	movq	-32(%rbp), %rax
	movl	552(%rax), %eax
	movq	-16(%rbp), %rcx
	movl	%eax, (%rcx)
	movq	-32(%rbp), %rax
	cmpl	$0, 552(%rax)
	je	.LBB44_52
# %bb.45:                               # %if.then113
	movq	img, %rax
	movq	14168(%rax), %rax
	movq	-32(%rbp), %rcx
	movslq	536(%rcx), %rcx
	imulq	$632, %rcx, %rcx        # imm = 0x278
	addq	%rcx, %rax
	cmpl	$0, 532(%rax)
	jne	.LBB44_47
# %bb.46:                               # %if.then120
	movq	-16(%rbp), %rax
	movl	4(%rax), %ecx
	addl	$1, %ecx
	movl	%ecx, 4(%rax)
	movl	-4(%rbp), %eax
	movl	%eax, -20(%rbp)
	jmp	.LBB44_51
.LBB44_47:                              # %if.else123
	movl	-4(%rbp), %eax
	cltd
	movl	$2, %ecx
	idivl	%ecx
	cmpl	$0, %edx
	jne	.LBB44_49
# %bb.48:                               # %if.then126
	movl	-4(%rbp), %eax
	addl	-36(%rbp), %eax
	sarl	$1, %eax
	movl	%eax, -20(%rbp)
	jmp	.LBB44_50
.LBB44_49:                              # %if.else129
	movq	-16(%rbp), %rax
	movl	4(%rax), %ecx
	addl	$1, %ecx
	movl	%ecx, 4(%rax)
	movl	-4(%rbp), %eax
	addl	-36(%rbp), %eax
	sarl	$1, %eax
	movl	%eax, -20(%rbp)
.LBB44_50:                              # %if.end134
	jmp	.LBB44_51
.LBB44_51:                              # %if.end135
	jmp	.LBB44_52
.LBB44_52:                              # %if.end136
	jmp	.LBB44_53
.LBB44_53:                              # %if.end137
	jmp	.LBB44_74
.LBB44_54:                              # %if.else138
	movl	-40(%rbp), %eax
	andl	$1, %eax
	cmpl	$0, %eax
	jne	.LBB44_64
# %bb.55:                               # %if.then141
	movq	-32(%rbp), %rax
	movl	536(%rax), %eax
	movq	-16(%rbp), %rcx
	movl	%eax, 4(%rcx)
	movq	-32(%rbp), %rax
	movl	552(%rax), %eax
	movq	-16(%rbp), %rcx
	movl	%eax, (%rcx)
	movq	-32(%rbp), %rax
	cmpl	$0, 552(%rax)
	je	.LBB44_63
# %bb.56:                               # %if.then148
	movq	img, %rax
	movq	14168(%rax), %rax
	movq	-32(%rbp), %rcx
	movslq	536(%rcx), %rcx
	imulq	$632, %rcx, %rcx        # imm = 0x278
	addq	%rcx, %rax
	cmpl	$0, 532(%rax)
	jne	.LBB44_61
# %bb.57:                               # %if.then155
	movl	-4(%rbp), %ecx
	movl	-36(%rbp), %eax
	cltd
	movl	$2, %esi
	idivl	%esi
	cmpl	%eax, %ecx
	jge	.LBB44_59
# %bb.58:                               # %if.then157
	movl	-4(%rbp), %eax
	shll	$1, %eax
	movl	%eax, -20(%rbp)
	jmp	.LBB44_60
.LBB44_59:                              # %if.else158
	movq	-16(%rbp), %rax
	movl	4(%rax), %ecx
	addl	$1, %ecx
	movl	%ecx, 4(%rax)
	movl	-4(%rbp), %eax
	shll	$1, %eax
	subl	-36(%rbp), %eax
	movl	%eax, -20(%rbp)
.LBB44_60:                              # %if.end163
	jmp	.LBB44_62
.LBB44_61:                              # %if.else164
	movl	-4(%rbp), %eax
	movl	%eax, -20(%rbp)
.LBB44_62:                              # %if.end165
	jmp	.LBB44_63
.LBB44_63:                              # %if.end166
	jmp	.LBB44_73
.LBB44_64:                              # %if.else167
	movq	-32(%rbp), %rax
	movl	536(%rax), %eax
	movq	-16(%rbp), %rcx
	movl	%eax, 4(%rcx)
	movq	-32(%rbp), %rax
	movl	552(%rax), %eax
	movq	-16(%rbp), %rcx
	movl	%eax, (%rcx)
	movq	-32(%rbp), %rax
	cmpl	$0, 552(%rax)
	je	.LBB44_72
# %bb.65:                               # %if.then174
	movq	img, %rax
	movq	14168(%rax), %rax
	movq	-32(%rbp), %rcx
	movslq	536(%rcx), %rcx
	imulq	$632, %rcx, %rcx        # imm = 0x278
	addq	%rcx, %rax
	cmpl	$0, 532(%rax)
	jne	.LBB44_70
# %bb.66:                               # %if.then181
	movl	-4(%rbp), %ecx
	movl	-36(%rbp), %eax
	cltd
	movl	$2, %esi
	idivl	%esi
	cmpl	%eax, %ecx
	jge	.LBB44_68
# %bb.67:                               # %if.then184
	movl	-4(%rbp), %eax
	shll	$1, %eax
	addl	$1, %eax
	movl	%eax, -20(%rbp)
	jmp	.LBB44_69
.LBB44_68:                              # %if.else187
	movq	-16(%rbp), %rax
	movl	4(%rax), %ecx
	addl	$1, %ecx
	movl	%ecx, 4(%rax)
	movl	-4(%rbp), %eax
	shll	$1, %eax
	addl	$1, %eax
	subl	-36(%rbp), %eax
	movl	%eax, -20(%rbp)
.LBB44_69:                              # %if.end193
	jmp	.LBB44_71
.LBB44_70:                              # %if.else194
	movq	-16(%rbp), %rax
	movl	4(%rax), %ecx
	addl	$1, %ecx
	movl	%ecx, 4(%rax)
	movl	-4(%rbp), %eax
	movl	%eax, -20(%rbp)
.LBB44_71:                              # %if.end197
	jmp	.LBB44_72
.LBB44_72:                              # %if.end198
	jmp	.LBB44_73
.LBB44_73:                              # %if.end199
	jmp	.LBB44_74
.LBB44_74:                              # %if.end200
	jmp	.LBB44_75
.LBB44_75:                              # %if.end201
	jmp	.LBB44_76
.LBB44_76:                              # %if.end202
	jmp	.LBB44_127
.LBB44_77:                              # %if.else203
	cmpl	$0, -44(%rbp)
	jl	.LBB44_109
# %bb.78:                               # %land.lhs.true205
	movl	-44(%rbp), %eax
	cmpl	-48(%rbp), %eax
	jge	.LBB44_109
# %bb.79:                               # %if.then207
	cmpl	$0, -4(%rbp)
	jge	.LBB44_100
# %bb.80:                               # %if.then209
	movq	-32(%rbp), %rax
	cmpl	$0, 532(%rax)
	jne	.LBB44_90
# %bb.81:                               # %if.then212
	movl	-40(%rbp), %eax
	andl	$1, %eax
	cmpl	$0, %eax
	jne	.LBB44_88
# %bb.82:                               # %if.then215
	movq	-32(%rbp), %rax
	movl	540(%rax), %eax
	movq	-16(%rbp), %rcx
	movl	%eax, 4(%rcx)
	movq	-32(%rbp), %rax
	cmpl	$0, 556(%rax)
	je	.LBB44_87
# %bb.83:                               # %if.then218
	movq	img, %rax
	cmpl	$1, 72636(%rax)
	jne	.LBB44_85
# %bb.84:                               # %land.lhs.true220
	movq	img, %rax
	movq	14168(%rax), %rax
	movq	-32(%rbp), %rcx
	movslq	540(%rcx), %rcx
	imulq	$632, %rcx, %rcx        # imm = 0x278
	addq	%rcx, %rax
	cmpl	$0, 532(%rax)
	jne	.LBB44_86
.LBB44_85:                              # %if.then227
	movq	-16(%rbp), %rax
	movl	4(%rax), %ecx
	addl	$1, %ecx
	movl	%ecx, 4(%rax)
.LBB44_86:                              # %if.end230
	jmp	.LBB44_87
.LBB44_87:                              # %if.end231
	movq	-32(%rbp), %rax
	movl	556(%rax), %eax
	movq	-16(%rbp), %rcx
	movl	%eax, (%rcx)
	movl	-4(%rbp), %eax
	movl	%eax, -20(%rbp)
	jmp	.LBB44_89
.LBB44_88:                              # %if.else234
	movl	-40(%rbp), %eax
	subl	$1, %eax
	movq	-16(%rbp), %rcx
	movl	%eax, 4(%rcx)
	movq	-16(%rbp), %rax
	movl	$1, (%rax)
	movl	-4(%rbp), %eax
	movl	%eax, -20(%rbp)
.LBB44_89:                              # %if.end238
	jmp	.LBB44_99
.LBB44_90:                              # %if.else239
	movl	-40(%rbp), %eax
	andl	$1, %eax
	cmpl	$0, %eax
	jne	.LBB44_97
# %bb.91:                               # %if.then242
	movq	-32(%rbp), %rax
	movl	540(%rax), %eax
	movq	-16(%rbp), %rcx
	movl	%eax, 4(%rcx)
	movq	-32(%rbp), %rax
	movl	556(%rax), %eax
	movq	-16(%rbp), %rcx
	movl	%eax, (%rcx)
	movq	-32(%rbp), %rax
	cmpl	$0, 556(%rax)
	je	.LBB44_96
# %bb.92:                               # %if.then249
	movq	img, %rax
	movq	14168(%rax), %rax
	movq	-32(%rbp), %rcx
	movslq	540(%rcx), %rcx
	imulq	$632, %rcx, %rcx        # imm = 0x278
	addq	%rcx, %rax
	cmpl	$0, 532(%rax)
	jne	.LBB44_94
# %bb.93:                               # %if.then256
	movq	-16(%rbp), %rax
	movl	4(%rax), %ecx
	addl	$1, %ecx
	movl	%ecx, 4(%rax)
	movl	-4(%rbp), %eax
	shll	$1, %eax
	movl	%eax, -20(%rbp)
	jmp	.LBB44_95
.LBB44_94:                              # %if.else260
	movl	-4(%rbp), %eax
	movl	%eax, -20(%rbp)
.LBB44_95:                              # %if.end261
	jmp	.LBB44_96
.LBB44_96:                              # %if.end262
	jmp	.LBB44_98
.LBB44_97:                              # %if.else263
	movq	-32(%rbp), %rax
	movl	540(%rax), %eax
	addl	$1, %eax
	movq	-16(%rbp), %rcx
	movl	%eax, 4(%rcx)
	movq	-32(%rbp), %rax
	movl	556(%rax), %eax
	movq	-16(%rbp), %rcx
	movl	%eax, (%rcx)
	movl	-4(%rbp), %eax
	movl	%eax, -20(%rbp)
.LBB44_98:                              # %if.end269
	jmp	.LBB44_99
.LBB44_99:                              # %if.end270
	jmp	.LBB44_108
.LBB44_100:                             # %if.else271
	cmpl	$0, -4(%rbp)
	jne	.LBB44_103
# %bb.101:                              # %land.lhs.true273
	movq	img, %rax
	cmpl	$2, 72636(%rax)
	jne	.LBB44_103
# %bb.102:                              # %if.then276
	movq	-32(%rbp), %rax
	movl	540(%rax), %eax
	addl	$1, %eax
	movq	-16(%rbp), %rcx
	movl	%eax, 4(%rcx)
	movq	-16(%rbp), %rax
	movl	$1, (%rax)
	movl	-4(%rbp), %eax
	subl	$1, %eax
	movl	%eax, -20(%rbp)
	jmp	.LBB44_107
.LBB44_103:                             # %if.else282
	cmpl	$0, -4(%rbp)
	jl	.LBB44_106
# %bb.104:                              # %land.lhs.true284
	movl	-4(%rbp), %eax
	cmpl	-36(%rbp), %eax
	jge	.LBB44_106
# %bb.105:                              # %if.then286
	movl	-40(%rbp), %eax
	movq	-16(%rbp), %rcx
	movl	%eax, 4(%rcx)
	movq	-16(%rbp), %rax
	movl	$1, (%rax)
	movl	-4(%rbp), %eax
	movl	%eax, -20(%rbp)
.LBB44_106:                             # %if.end289
	jmp	.LBB44_107
.LBB44_107:                             # %if.end290
	jmp	.LBB44_108
.LBB44_108:                             # %if.end291
	jmp	.LBB44_126
.LBB44_109:                             # %if.else292
	cmpl	$0, -4(%rbp)
	jge	.LBB44_125
# %bb.110:                              # %if.then294
	movq	-32(%rbp), %rax
	cmpl	$0, 532(%rax)
	jne	.LBB44_115
# %bb.111:                              # %if.then297
	movl	-40(%rbp), %eax
	andl	$1, %eax
	cmpl	$0, %eax
	jne	.LBB44_113
# %bb.112:                              # %if.then300
	movq	-32(%rbp), %rax
	movl	544(%rax), %eax
	addl	$1, %eax
	movq	-16(%rbp), %rcx
	movl	%eax, 4(%rcx)
	movq	-32(%rbp), %rax
	movl	560(%rax), %eax
	movq	-16(%rbp), %rcx
	movl	%eax, (%rcx)
	movl	-4(%rbp), %eax
	movl	%eax, -20(%rbp)
	jmp	.LBB44_114
.LBB44_113:                             # %if.else304
	movq	-16(%rbp), %rax
	movl	$0, (%rax)
.LBB44_114:                             # %if.end306
	jmp	.LBB44_124
.LBB44_115:                             # %if.else307
	movl	-40(%rbp), %eax
	andl	$1, %eax
	cmpl	$0, %eax
	jne	.LBB44_122
# %bb.116:                              # %if.then310
	movq	-32(%rbp), %rax
	movl	544(%rax), %eax
	movq	-16(%rbp), %rcx
	movl	%eax, 4(%rcx)
	movq	-32(%rbp), %rax
	movl	560(%rax), %eax
	movq	-16(%rbp), %rcx
	movl	%eax, (%rcx)
	movq	-32(%rbp), %rax
	cmpl	$0, 560(%rax)
	je	.LBB44_121
# %bb.117:                              # %if.then317
	movq	img, %rax
	movq	14168(%rax), %rax
	movq	-32(%rbp), %rcx
	movslq	544(%rcx), %rcx
	imulq	$632, %rcx, %rcx        # imm = 0x278
	addq	%rcx, %rax
	cmpl	$0, 532(%rax)
	jne	.LBB44_119
# %bb.118:                              # %if.then324
	movq	-16(%rbp), %rax
	movl	4(%rax), %ecx
	addl	$1, %ecx
	movl	%ecx, 4(%rax)
	movl	-4(%rbp), %eax
	shll	$1, %eax
	movl	%eax, -20(%rbp)
	jmp	.LBB44_120
.LBB44_119:                             # %if.else328
	movl	-4(%rbp), %eax
	movl	%eax, -20(%rbp)
.LBB44_120:                             # %if.end329
	jmp	.LBB44_121
.LBB44_121:                             # %if.end330
	jmp	.LBB44_123
.LBB44_122:                             # %if.else331
	movq	-32(%rbp), %rax
	movl	544(%rax), %eax
	addl	$1, %eax
	movq	-16(%rbp), %rcx
	movl	%eax, 4(%rcx)
	movq	-32(%rbp), %rax
	movl	560(%rax), %eax
	movq	-16(%rbp), %rcx
	movl	%eax, (%rcx)
	movl	-4(%rbp), %eax
	movl	%eax, -20(%rbp)
.LBB44_123:                             # %if.end337
	jmp	.LBB44_124
.LBB44_124:                             # %if.end338
	jmp	.LBB44_125
.LBB44_125:                             # %if.end339
	jmp	.LBB44_126
.LBB44_126:                             # %if.end340
	jmp	.LBB44_127
.LBB44_127:                             # %if.end341
	movq	-16(%rbp), %rax
	cmpl	$0, (%rax)
	jne	.LBB44_129
# %bb.128:                              # %lor.lhs.false
	movq	img, %rax
	cmpl	$0, 72636(%rax)
	je	.LBB44_133
.LBB44_129:                             # %if.then346
	movl	-44(%rbp), %eax
	addl	-48(%rbp), %eax
	cltd
	idivl	-48(%rbp)
	movq	-16(%rbp), %rax
	movl	%edx, 8(%rax)
	movl	-20(%rbp), %eax
	addl	-36(%rbp), %eax
	cltd
	idivl	-36(%rbp)
	movq	-16(%rbp), %rax
	movl	%edx, 12(%rax)
	movq	-16(%rbp), %rax
	movl	4(%rax), %edi
	movq	-16(%rbp), %rsi
	addq	$16, %rsi
	movq	-16(%rbp), %rdx
	addq	$20, %rdx
	callq	get_mb_pos
	cmpl	$0, -52(%rbp)
	je	.LBB44_131
# %bb.130:                              # %if.then353
	movq	-16(%rbp), %rax
	movl	8(%rax), %eax
	movq	-16(%rbp), %rcx
	addl	16(%rcx), %eax
	movl	%eax, 16(%rcx)
	movq	-16(%rbp), %rax
	movl	12(%rax), %eax
	movq	-16(%rbp), %rcx
	addl	20(%rcx), %eax
	movl	%eax, 20(%rcx)
	jmp	.LBB44_132
.LBB44_131:                             # %if.else360
	movq	-16(%rbp), %rax
	movl	16(%rax), %ecx
	movq	img, %rsi
	movl	$16, %eax
	cltd
	idivl	72708(%rsi)
	movl	%eax, %esi
	movl	%ecx, %eax
	cltd
	idivl	%esi
	movq	-16(%rbp), %rcx
	addl	8(%rcx), %eax
	movq	-16(%rbp), %rcx
	movl	%eax, 16(%rcx)
	movq	-16(%rbp), %rax
	movl	20(%rax), %ecx
	movq	img, %rsi
	movl	$16, %eax
	cltd
	idivl	72712(%rsi)
	movl	%eax, %esi
	movl	%ecx, %eax
	cltd
	idivl	%esi
	movq	-16(%rbp), %rcx
	addl	12(%rcx), %eax
	movq	-16(%rbp), %rcx
	movl	%eax, 20(%rcx)
.LBB44_132:                             # %if.end375
	jmp	.LBB44_133
.LBB44_133:                             # %if.end376
	cmpl	$435053869, -56(%rbp)   # imm = 0x19EE652D
	jne	.LBB44_135
.LBB44_134:
	addq	$64, %rsp
	popq	%rbp
	.cfi_def_cfa %rsp, 8
	retq
.LBB44_135:                             # %func_exit
	.cfi_def_cfa %rbp, 16
	callq	detect_breach
	jmp	.LBB44_134
.Lfunc_end44:
	.size	getAffNeighbour.36, .Lfunc_end44-getAffNeighbour.36
	.cfi_endproc
                                        # -- End function
	.globl	getAffNeighbour.37      # -- Begin function getAffNeighbour.37
	.p2align	4, 0x90
	.type	getAffNeighbour.37,@function
getAffNeighbour.37:                     # @getAffNeighbour.37
	.cfi_startproc
# %bb.0:                                # %entry
	pushq	%rbp
	.cfi_def_cfa_offset 16
	.cfi_offset %rbp, -16
	movq	%rsp, %rbp
	.cfi_def_cfa_register %rbp
	subq	$64, %rsp
	movl	$909658195, -56(%rbp)   # imm = 0x36384853
	movl	%edi, -40(%rbp)
	movl	%esi, -44(%rbp)
	movl	%edx, -4(%rbp)
	movl	%ecx, -52(%rbp)
	movq	%r8, -16(%rbp)
	movq	img, %rax
	movq	14168(%rax), %rax
	movl	-40(%rbp), %ecx
	imulq	$632, %rcx, %rcx        # imm = 0x278
	addq	%rcx, %rax
	movq	%rax, -32(%rbp)
	movl	$-1, -20(%rbp)
	cmpl	$0, -52(%rbp)
	je	.LBB45_2
# %bb.1:                                # %if.then
	movl	$16, -48(%rbp)
	movl	$16, -36(%rbp)
	jmp	.LBB45_3
.LBB45_2:                               # %if.else
	movq	img, %rax
	movl	72708(%rax), %eax
	movl	%eax, -48(%rbp)
	movq	img, %rax
	movl	72712(%rax), %eax
	movl	%eax, -36(%rbp)
.LBB45_3:                               # %if.end
	movq	-16(%rbp), %rax
	movl	$0, (%rax)
	movl	-4(%rbp), %eax
	movl	-36(%rbp), %ecx
	subl	$1, %ecx
	cmpl	%ecx, %eax
	jle	.LBB45_5
# %bb.4:                                # %if.then1
	jmp	.LBB45_133
.LBB45_5:                               # %if.end2
	movl	-44(%rbp), %eax
	movl	-48(%rbp), %ecx
	subl	$1, %ecx
	cmpl	%ecx, %eax
	jle	.LBB45_9
# %bb.6:                                # %land.lhs.true
	cmpl	$0, -4(%rbp)
	jl	.LBB45_9
# %bb.7:                                # %land.lhs.true6
	movl	-4(%rbp), %eax
	cmpl	-36(%rbp), %eax
	jge	.LBB45_9
# %bb.8:                                # %if.then8
	jmp	.LBB45_133
.LBB45_9:                               # %if.end9
	cmpl	$0, -44(%rbp)
	jge	.LBB45_77
# %bb.10:                               # %if.then11
	cmpl	$0, -4(%rbp)
	jge	.LBB45_31
# %bb.11:                               # %if.then13
	movq	-32(%rbp), %rax
	cmpl	$0, 532(%rax)
	jne	.LBB45_21
# %bb.12:                               # %if.then15
	movl	-40(%rbp), %eax
	andl	$1, %eax
	cmpl	$0, %eax
	jne	.LBB45_14
# %bb.13:                               # %if.then17
	movq	-32(%rbp), %rax
	movl	548(%rax), %eax
	addl	$1, %eax
	movq	-16(%rbp), %rcx
	movl	%eax, 4(%rcx)
	movq	-32(%rbp), %rax
	movl	564(%rax), %eax
	movq	-16(%rbp), %rcx
	movl	%eax, (%rcx)
	movl	-4(%rbp), %eax
	movl	%eax, -20(%rbp)
	jmp	.LBB45_20
.LBB45_14:                              # %if.else19
	movq	-32(%rbp), %rax
	movl	536(%rax), %eax
	movq	-16(%rbp), %rcx
	movl	%eax, 4(%rcx)
	movq	-32(%rbp), %rax
	movl	552(%rax), %eax
	movq	-16(%rbp), %rcx
	movl	%eax, (%rcx)
	movq	-32(%rbp), %rax
	cmpl	$0, 552(%rax)
	je	.LBB45_19
# %bb.15:                               # %if.then24
	movq	img, %rax
	movq	14168(%rax), %rax
	movq	-32(%rbp), %rcx
	movslq	536(%rcx), %rcx
	imulq	$632, %rcx, %rcx        # imm = 0x278
	addq	%rcx, %rax
	cmpl	$0, 532(%rax)
	jne	.LBB45_17
# %bb.16:                               # %if.then31
	movl	-4(%rbp), %eax
	movl	%eax, -20(%rbp)
	jmp	.LBB45_18
.LBB45_17:                              # %if.else32
	movq	-16(%rbp), %rax
	movl	4(%rax), %ecx
	addl	$1, %ecx
	movl	%ecx, 4(%rax)
	movl	-4(%rbp), %eax
	addl	-36(%rbp), %eax
	sarl	$1, %eax
	movl	%eax, -20(%rbp)
.LBB45_18:                              # %if.end35
	jmp	.LBB45_19
.LBB45_19:                              # %if.end36
	jmp	.LBB45_20
.LBB45_20:                              # %if.end37
	jmp	.LBB45_30
.LBB45_21:                              # %if.else38
	movl	-40(%rbp), %eax
	andl	$1, %eax
	cmpl	$0, %eax
	jne	.LBB45_28
# %bb.22:                               # %if.then41
	movq	-32(%rbp), %rax
	movl	548(%rax), %eax
	movq	-16(%rbp), %rcx
	movl	%eax, 4(%rcx)
	movq	-32(%rbp), %rax
	movl	564(%rax), %eax
	movq	-16(%rbp), %rcx
	movl	%eax, (%rcx)
	movq	-32(%rbp), %rax
	cmpl	$0, 564(%rax)
	je	.LBB45_27
# %bb.23:                               # %if.then48
	movq	img, %rax
	movq	14168(%rax), %rax
	movq	-32(%rbp), %rcx
	movslq	548(%rcx), %rcx
	imulq	$632, %rcx, %rcx        # imm = 0x278
	addq	%rcx, %rax
	cmpl	$0, 532(%rax)
	jne	.LBB45_25
# %bb.24:                               # %if.then55
	movq	-16(%rbp), %rax
	movl	4(%rax), %ecx
	addl	$1, %ecx
	movl	%ecx, 4(%rax)
	movl	-4(%rbp), %eax
	shll	$1, %eax
	movl	%eax, -20(%rbp)
	jmp	.LBB45_26
.LBB45_25:                              # %if.else58
	movl	-4(%rbp), %eax
	movl	%eax, -20(%rbp)
.LBB45_26:                              # %if.end59
	jmp	.LBB45_27
.LBB45_27:                              # %if.end60
	jmp	.LBB45_29
.LBB45_28:                              # %if.else61
	movq	-32(%rbp), %rax
	movl	548(%rax), %eax
	addl	$1, %eax
	movq	-16(%rbp), %rcx
	movl	%eax, 4(%rcx)
	movq	-32(%rbp), %rax
	movl	564(%rax), %eax
	movq	-16(%rbp), %rcx
	movl	%eax, (%rcx)
	movl	-4(%rbp), %eax
	movl	%eax, -20(%rbp)
.LBB45_29:                              # %if.end67
	jmp	.LBB45_30
.LBB45_30:                              # %if.end68
	jmp	.LBB45_76
.LBB45_31:                              # %if.else69
	cmpl	$0, -4(%rbp)
	jl	.LBB45_75
# %bb.32:                               # %land.lhs.true71
	movl	-4(%rbp), %eax
	cmpl	-36(%rbp), %eax
	jge	.LBB45_75
# %bb.33:                               # %if.then73
	movq	-32(%rbp), %rax
	cmpl	$0, 532(%rax)
	jne	.LBB45_54
# %bb.34:                               # %if.then76
	movl	-40(%rbp), %eax
	andl	$1, %eax
	cmpl	$0, %eax
	jne	.LBB45_44
# %bb.35:                               # %if.then79
	movq	-32(%rbp), %rax
	movl	536(%rax), %eax
	movq	-16(%rbp), %rcx
	movl	%eax, 4(%rcx)
	movq	-32(%rbp), %rax
	movl	552(%rax), %eax
	movq	-16(%rbp), %rcx
	movl	%eax, (%rcx)
	movq	-32(%rbp), %rax
	cmpl	$0, 552(%rax)
	je	.LBB45_43
# %bb.36:                               # %if.then86
	movq	img, %rax
	movq	14168(%rax), %rax
	movq	-32(%rbp), %rcx
	movslq	536(%rcx), %rcx
	imulq	$632, %rcx, %rcx        # imm = 0x278
	addq	%rcx, %rax
	cmpl	$0, 532(%rax)
	jne	.LBB45_38
# %bb.37:                               # %if.then93
	movl	-4(%rbp), %eax
	movl	%eax, -20(%rbp)
	jmp	.LBB45_42
.LBB45_38:                              # %if.else94
	movl	-4(%rbp), %eax
	cltd
	movl	$2, %ecx
	idivl	%ecx
	cmpl	$0, %edx
	jne	.LBB45_40
# %bb.39:                               # %if.then97
	movl	-4(%rbp), %eax
	sarl	$1, %eax
	movl	%eax, -20(%rbp)
	jmp	.LBB45_41
.LBB45_40:                              # %if.else99
	movq	-16(%rbp), %rax
	movl	4(%rax), %ecx
	addl	$1, %ecx
	movl	%ecx, 4(%rax)
	movl	-4(%rbp), %eax
	sarl	$1, %eax
	movl	%eax, -20(%rbp)
.LBB45_41:                              # %if.end103
	jmp	.LBB45_42
.LBB45_42:                              # %if.end104
	jmp	.LBB45_43
.LBB45_43:                              # %if.end105
	jmp	.LBB45_53
.LBB45_44:                              # %if.else106
	movq	-32(%rbp), %rax
	movl	536(%rax), %eax
	movq	-16(%rbp), %rcx
	movl	%eax, 4(%rcx)
	movq	-32(%rbp), %rax
	movl	552(%rax), %eax
	movq	-16(%rbp), %rcx
	movl	%eax, (%rcx)
	movq	-32(%rbp), %rax
	cmpl	$0, 552(%rax)
	je	.LBB45_52
# %bb.45:                               # %if.then113
	movq	img, %rax
	movq	14168(%rax), %rax
	movq	-32(%rbp), %rcx
	movslq	536(%rcx), %rcx
	imulq	$632, %rcx, %rcx        # imm = 0x278
	addq	%rcx, %rax
	cmpl	$0, 532(%rax)
	jne	.LBB45_47
# %bb.46:                               # %if.then120
	movq	-16(%rbp), %rax
	movl	4(%rax), %ecx
	addl	$1, %ecx
	movl	%ecx, 4(%rax)
	movl	-4(%rbp), %eax
	movl	%eax, -20(%rbp)
	jmp	.LBB45_51
.LBB45_47:                              # %if.else123
	movl	-4(%rbp), %eax
	cltd
	movl	$2, %ecx
	idivl	%ecx
	cmpl	$0, %edx
	jne	.LBB45_49
# %bb.48:                               # %if.then126
	movl	-4(%rbp), %eax
	addl	-36(%rbp), %eax
	sarl	$1, %eax
	movl	%eax, -20(%rbp)
	jmp	.LBB45_50
.LBB45_49:                              # %if.else129
	movq	-16(%rbp), %rax
	movl	4(%rax), %ecx
	addl	$1, %ecx
	movl	%ecx, 4(%rax)
	movl	-4(%rbp), %eax
	addl	-36(%rbp), %eax
	sarl	$1, %eax
	movl	%eax, -20(%rbp)
.LBB45_50:                              # %if.end134
	jmp	.LBB45_51
.LBB45_51:                              # %if.end135
	jmp	.LBB45_52
.LBB45_52:                              # %if.end136
	jmp	.LBB45_53
.LBB45_53:                              # %if.end137
	jmp	.LBB45_74
.LBB45_54:                              # %if.else138
	movl	-40(%rbp), %eax
	andl	$1, %eax
	cmpl	$0, %eax
	jne	.LBB45_64
# %bb.55:                               # %if.then141
	movq	-32(%rbp), %rax
	movl	536(%rax), %eax
	movq	-16(%rbp), %rcx
	movl	%eax, 4(%rcx)
	movq	-32(%rbp), %rax
	movl	552(%rax), %eax
	movq	-16(%rbp), %rcx
	movl	%eax, (%rcx)
	movq	-32(%rbp), %rax
	cmpl	$0, 552(%rax)
	je	.LBB45_63
# %bb.56:                               # %if.then148
	movq	img, %rax
	movq	14168(%rax), %rax
	movq	-32(%rbp), %rcx
	movslq	536(%rcx), %rcx
	imulq	$632, %rcx, %rcx        # imm = 0x278
	addq	%rcx, %rax
	cmpl	$0, 532(%rax)
	jne	.LBB45_61
# %bb.57:                               # %if.then155
	movl	-4(%rbp), %ecx
	movl	-36(%rbp), %eax
	cltd
	movl	$2, %esi
	idivl	%esi
	cmpl	%eax, %ecx
	jge	.LBB45_59
# %bb.58:                               # %if.then157
	movl	-4(%rbp), %eax
	shll	$1, %eax
	movl	%eax, -20(%rbp)
	jmp	.LBB45_60
.LBB45_59:                              # %if.else158
	movq	-16(%rbp), %rax
	movl	4(%rax), %ecx
	addl	$1, %ecx
	movl	%ecx, 4(%rax)
	movl	-4(%rbp), %eax
	shll	$1, %eax
	subl	-36(%rbp), %eax
	movl	%eax, -20(%rbp)
.LBB45_60:                              # %if.end163
	jmp	.LBB45_62
.LBB45_61:                              # %if.else164
	movl	-4(%rbp), %eax
	movl	%eax, -20(%rbp)
.LBB45_62:                              # %if.end165
	jmp	.LBB45_63
.LBB45_63:                              # %if.end166
	jmp	.LBB45_73
.LBB45_64:                              # %if.else167
	movq	-32(%rbp), %rax
	movl	536(%rax), %eax
	movq	-16(%rbp), %rcx
	movl	%eax, 4(%rcx)
	movq	-32(%rbp), %rax
	movl	552(%rax), %eax
	movq	-16(%rbp), %rcx
	movl	%eax, (%rcx)
	movq	-32(%rbp), %rax
	cmpl	$0, 552(%rax)
	je	.LBB45_72
# %bb.65:                               # %if.then174
	movq	img, %rax
	movq	14168(%rax), %rax
	movq	-32(%rbp), %rcx
	movslq	536(%rcx), %rcx
	imulq	$632, %rcx, %rcx        # imm = 0x278
	addq	%rcx, %rax
	cmpl	$0, 532(%rax)
	jne	.LBB45_70
# %bb.66:                               # %if.then181
	movl	-4(%rbp), %ecx
	movl	-36(%rbp), %eax
	cltd
	movl	$2, %esi
	idivl	%esi
	cmpl	%eax, %ecx
	jge	.LBB45_68
# %bb.67:                               # %if.then184
	movl	-4(%rbp), %eax
	shll	$1, %eax
	addl	$1, %eax
	movl	%eax, -20(%rbp)
	jmp	.LBB45_69
.LBB45_68:                              # %if.else187
	movq	-16(%rbp), %rax
	movl	4(%rax), %ecx
	addl	$1, %ecx
	movl	%ecx, 4(%rax)
	movl	-4(%rbp), %eax
	shll	$1, %eax
	addl	$1, %eax
	subl	-36(%rbp), %eax
	movl	%eax, -20(%rbp)
.LBB45_69:                              # %if.end193
	jmp	.LBB45_71
.LBB45_70:                              # %if.else194
	movq	-16(%rbp), %rax
	movl	4(%rax), %ecx
	addl	$1, %ecx
	movl	%ecx, 4(%rax)
	movl	-4(%rbp), %eax
	movl	%eax, -20(%rbp)
.LBB45_71:                              # %if.end197
	jmp	.LBB45_72
.LBB45_72:                              # %if.end198
	jmp	.LBB45_73
.LBB45_73:                              # %if.end199
	jmp	.LBB45_74
.LBB45_74:                              # %if.end200
	jmp	.LBB45_75
.LBB45_75:                              # %if.end201
	jmp	.LBB45_76
.LBB45_76:                              # %if.end202
	jmp	.LBB45_127
.LBB45_77:                              # %if.else203
	cmpl	$0, -44(%rbp)
	jl	.LBB45_109
# %bb.78:                               # %land.lhs.true205
	movl	-44(%rbp), %eax
	cmpl	-48(%rbp), %eax
	jge	.LBB45_109
# %bb.79:                               # %if.then207
	cmpl	$0, -4(%rbp)
	jge	.LBB45_100
# %bb.80:                               # %if.then209
	movq	-32(%rbp), %rax
	cmpl	$0, 532(%rax)
	jne	.LBB45_90
# %bb.81:                               # %if.then212
	movl	-40(%rbp), %eax
	andl	$1, %eax
	cmpl	$0, %eax
	jne	.LBB45_88
# %bb.82:                               # %if.then215
	movq	-32(%rbp), %rax
	movl	540(%rax), %eax
	movq	-16(%rbp), %rcx
	movl	%eax, 4(%rcx)
	movq	-32(%rbp), %rax
	cmpl	$0, 556(%rax)
	je	.LBB45_87
# %bb.83:                               # %if.then218
	movq	img, %rax
	cmpl	$1, 72636(%rax)
	jne	.LBB45_85
# %bb.84:                               # %land.lhs.true220
	movq	img, %rax
	movq	14168(%rax), %rax
	movq	-32(%rbp), %rcx
	movslq	540(%rcx), %rcx
	imulq	$632, %rcx, %rcx        # imm = 0x278
	addq	%rcx, %rax
	cmpl	$0, 532(%rax)
	jne	.LBB45_86
.LBB45_85:                              # %if.then227
	movq	-16(%rbp), %rax
	movl	4(%rax), %ecx
	addl	$1, %ecx
	movl	%ecx, 4(%rax)
.LBB45_86:                              # %if.end230
	jmp	.LBB45_87
.LBB45_87:                              # %if.end231
	movq	-32(%rbp), %rax
	movl	556(%rax), %eax
	movq	-16(%rbp), %rcx
	movl	%eax, (%rcx)
	movl	-4(%rbp), %eax
	movl	%eax, -20(%rbp)
	jmp	.LBB45_89
.LBB45_88:                              # %if.else234
	movl	-40(%rbp), %eax
	subl	$1, %eax
	movq	-16(%rbp), %rcx
	movl	%eax, 4(%rcx)
	movq	-16(%rbp), %rax
	movl	$1, (%rax)
	movl	-4(%rbp), %eax
	movl	%eax, -20(%rbp)
.LBB45_89:                              # %if.end238
	jmp	.LBB45_99
.LBB45_90:                              # %if.else239
	movl	-40(%rbp), %eax
	andl	$1, %eax
	cmpl	$0, %eax
	jne	.LBB45_97
# %bb.91:                               # %if.then242
	movq	-32(%rbp), %rax
	movl	540(%rax), %eax
	movq	-16(%rbp), %rcx
	movl	%eax, 4(%rcx)
	movq	-32(%rbp), %rax
	movl	556(%rax), %eax
	movq	-16(%rbp), %rcx
	movl	%eax, (%rcx)
	movq	-32(%rbp), %rax
	cmpl	$0, 556(%rax)
	je	.LBB45_96
# %bb.92:                               # %if.then249
	movq	img, %rax
	movq	14168(%rax), %rax
	movq	-32(%rbp), %rcx
	movslq	540(%rcx), %rcx
	imulq	$632, %rcx, %rcx        # imm = 0x278
	addq	%rcx, %rax
	cmpl	$0, 532(%rax)
	jne	.LBB45_94
# %bb.93:                               # %if.then256
	movq	-16(%rbp), %rax
	movl	4(%rax), %ecx
	addl	$1, %ecx
	movl	%ecx, 4(%rax)
	movl	-4(%rbp), %eax
	shll	$1, %eax
	movl	%eax, -20(%rbp)
	jmp	.LBB45_95
.LBB45_94:                              # %if.else260
	movl	-4(%rbp), %eax
	movl	%eax, -20(%rbp)
.LBB45_95:                              # %if.end261
	jmp	.LBB45_96
.LBB45_96:                              # %if.end262
	jmp	.LBB45_98
.LBB45_97:                              # %if.else263
	movq	-32(%rbp), %rax
	movl	540(%rax), %eax
	addl	$1, %eax
	movq	-16(%rbp), %rcx
	movl	%eax, 4(%rcx)
	movq	-32(%rbp), %rax
	movl	556(%rax), %eax
	movq	-16(%rbp), %rcx
	movl	%eax, (%rcx)
	movl	-4(%rbp), %eax
	movl	%eax, -20(%rbp)
.LBB45_98:                              # %if.end269
	jmp	.LBB45_99
.LBB45_99:                              # %if.end270
	jmp	.LBB45_108
.LBB45_100:                             # %if.else271
	cmpl	$0, -4(%rbp)
	jne	.LBB45_103
# %bb.101:                              # %land.lhs.true273
	movq	img, %rax
	cmpl	$2, 72636(%rax)
