	.text
	.file	"mbuffer.c"
	.globl	dump_dpb                # -- Begin function dump_dpb
	.p2align	4, 0x90
	.type	dump_dpb,@function
dump_dpb:                               # @dump_dpb
	.cfi_startproc
# %bb.0:                                # %entry
	pushq	%rbp
	.cfi_def_cfa_offset 16
	.cfi_offset %rbp, -16
	movq	%rsp, %rbp
	.cfi_def_cfa_register %rbp
	popq	%rbp
	.cfi_def_cfa %rsp, 8
	retq
.Lfunc_end0:
	.size	dump_dpb, .Lfunc_end0-dump_dpb
	.cfi_endproc
                                        # -- End function
	.globl	getDpbSize              # -- Begin function getDpbSize
	.p2align	4, 0x90
	.type	getDpbSize,@function
getDpbSize:                             # @getDpbSize
	.cfi_startproc
# %bb.0:                                # %rand_bb
	pushq	%rbp
	.cfi_def_cfa_offset 16
	.cfi_offset %rbp, -16
	movq	%rsp, %rbp
	.cfi_def_cfa_register %rbp
	callq	get_rand
	cmpl	$0, %eax
	jne	.LBB1_2
# %bb.1:                                # %func_getDpbSize.42
	callq	getDpbSize.42
	popq	%rbp
	.cfi_def_cfa %rsp, 8
	retq
.LBB1_2:                                # %func_getDpbSize.127
	.cfi_def_cfa %rbp, 16
	callq	getDpbSize.127
	popq	%rbp
	.cfi_def_cfa %rsp, 8
	retq
.Lfunc_end1:
	.size	getDpbSize, .Lfunc_end1-getDpbSize
	.cfi_endproc
                                        # -- End function
	.globl	init_dpb                # -- Begin function init_dpb
	.p2align	4, 0x90
	.type	init_dpb,@function
init_dpb:                               # @init_dpb
	.cfi_startproc
# %bb.0:                                # %rand_bb
	pushq	%rbp
	.cfi_def_cfa_offset 16
	.cfi_offset %rbp, -16
	movq	%rsp, %rbp
	.cfi_def_cfa_register %rbp
	callq	get_rand
	cmpl	$0, %eax
	jne	.LBB2_2
# %bb.1:                                # %func_init_dpb.6
	callq	init_dpb.6
	popq	%rbp
	.cfi_def_cfa %rsp, 8
	retq
.LBB2_2:                                # %func_init_dpb.61
	.cfi_def_cfa %rbp, 16
	callq	init_dpb.61
	popq	%rbp
	.cfi_def_cfa %rsp, 8
	retq
.Lfunc_end2:
	.size	init_dpb, .Lfunc_end2-init_dpb
	.cfi_endproc
                                        # -- End function
	.globl	free_dpb                # -- Begin function free_dpb
	.p2align	4, 0x90
	.type	free_dpb,@function
free_dpb:                               # @free_dpb
	.cfi_startproc
# %bb.0:                                # %entry
	pushq	%rbp
	.cfi_def_cfa_offset 16
	.cfi_offset %rbp, -16
	movq	%rsp, %rbp
	.cfi_def_cfa_register %rbp
	subq	$16, %rsp
	cmpq	$0, dpb
	je	.LBB3_6
# %bb.1:                                # %if.then
	movl	$0, -4(%rbp)
.LBB3_2:                                # %for.cond
                                        # =>This Inner Loop Header: Depth=1
	movl	-4(%rbp), %eax
	cmpl	dpb+24, %eax
	jae	.LBB3_5
# %bb.3:                                # %for.body
                                        #   in Loop: Header=BB3_2 Depth=1
	movq	dpb, %rax
	movl	-4(%rbp), %ecx
	movq	(%rax,%rcx,8), %rdi
	callq	free_frame_store
# %bb.4:                                # %for.inc
                                        #   in Loop: Header=BB3_2 Depth=1
	movl	-4(%rbp), %eax
	addl	$1, %eax
	movl	%eax, -4(%rbp)
	jmp	.LBB3_2
.LBB3_5:                                # %for.end
	movq	dpb, %rdi
	callq	free
	movq	$0, dpb
.LBB3_6:                                # %if.end
	cmpq	$0, dpb+8
	je	.LBB3_8
# %bb.7:                                # %if.then2
	movq	dpb+8, %rdi
	callq	free
.LBB3_8:                                # %if.end3
	cmpq	$0, dpb+16
	je	.LBB3_10
# %bb.9:                                # %if.then5
	movq	dpb+16, %rdi
	callq	free
.LBB3_10:                               # %if.end6
	movl	$-2147483648, dpb+40    # imm = 0x80000000
	movl	$0, -4(%rbp)
.LBB3_11:                               # %for.cond7
                                        # =>This Inner Loop Header: Depth=1
	cmpl	$6, -4(%rbp)
	jae	.LBB3_16
# %bb.12:                               # %for.body9
                                        #   in Loop: Header=BB3_11 Depth=1
	movl	-4(%rbp), %eax
	cmpq	$0, listX(,%rax,8)
	je	.LBB3_14
# %bb.13:                               # %if.then13
                                        #   in Loop: Header=BB3_11 Depth=1
	movl	-4(%rbp), %eax
	movq	listX(,%rax,8), %rdi
	callq	free
	movl	-4(%rbp), %eax
	movq	$0, listX(,%rax,8)
.LBB3_14:                               # %if.end18
                                        #   in Loop: Header=BB3_11 Depth=1
	jmp	.LBB3_15
.LBB3_15:                               # %for.inc19
                                        #   in Loop: Header=BB3_11 Depth=1
	movl	-4(%rbp), %eax
	addl	$1, %eax
	movl	%eax, -4(%rbp)
	jmp	.LBB3_11
.LBB3_16:                               # %for.end21
	movl	$0, dpb+48
	addq	$16, %rsp
	popq	%rbp
	.cfi_def_cfa %rsp, 8
	retq
.Lfunc_end3:
	.size	free_dpb, .Lfunc_end3-free_dpb
	.cfi_endproc
                                        # -- End function
	.globl	free_frame_store        # -- Begin function free_frame_store
	.p2align	4, 0x90
	.type	free_frame_store,@function
free_frame_store:                       # @free_frame_store
	.cfi_startproc
# %bb.0:                                # %entry
	pushq	%rbp
	.cfi_def_cfa_offset 16
	.cfi_offset %rbp, -16
	movq	%rsp, %rbp
	.cfi_def_cfa_register %rbp
	subq	$16, %rsp
	movq	%rdi, -8(%rbp)
	cmpq	$0, -8(%rbp)
	je	.LBB4_8
# %bb.1:                                # %if.then
	movq	-8(%rbp), %rax
	cmpq	$0, 40(%rax)
	je	.LBB4_3
# %bb.2:                                # %if.then2
	movq	-8(%rbp), %rax
	movq	40(%rax), %rdi
	callq	free_storable_picture
	movq	-8(%rbp), %rax
	movq	$0, 40(%rax)
.LBB4_3:                                # %if.end
	movq	-8(%rbp), %rax
	cmpq	$0, 48(%rax)
	je	.LBB4_5
# %bb.4:                                # %if.then6
	movq	-8(%rbp), %rax
	movq	48(%rax), %rdi
	callq	free_storable_picture
	movq	-8(%rbp), %rax
	movq	$0, 48(%rax)
.LBB4_5:                                # %if.end9
	movq	-8(%rbp), %rax
	cmpq	$0, 56(%rax)
	je	.LBB4_7
# %bb.6:                                # %if.then11
	movq	-8(%rbp), %rax
	movq	56(%rax), %rdi
	callq	free_storable_picture
	movq	-8(%rbp), %rax
	movq	$0, 56(%rax)
.LBB4_7:                                # %if.end14
	movq	-8(%rbp), %rdi
	callq	free
.LBB4_8:                                # %if.end15
	addq	$16, %rsp
	popq	%rbp
	.cfi_def_cfa %rsp, 8
	retq
.Lfunc_end4:
	.size	free_frame_store, .Lfunc_end4-free_frame_store
	.cfi_endproc
                                        # -- End function
	.globl	alloc_frame_store       # -- Begin function alloc_frame_store
	.p2align	4, 0x90
	.type	alloc_frame_store,@function
alloc_frame_store:                      # @alloc_frame_store
	.cfi_startproc
# %bb.0:                                # %entry
	pushq	%rbp
	.cfi_def_cfa_offset 16
	.cfi_offset %rbp, -16
	movq	%rsp, %rbp
	.cfi_def_cfa_register %rbp
	subq	$16, %rsp
	movl	$1, %edi
	movl	$64, %esi
	callq	calloc
	xorl	%ecx, %ecx
	movq	%rax, -8(%rbp)
	cmpq	-8(%rbp), %rcx
	jne	.LBB5_2
# %bb.1:                                # %if.then
	movabsq	$.L.str.6, %rdi
	callq	no_mem_exit
.LBB5_2:                                # %if.end
	movq	-8(%rbp), %rax
	movl	$0, (%rax)
	movq	-8(%rbp), %rax
	movl	$0, 4(%rax)
	movq	-8(%rbp), %rax
	movl	$0, 8(%rax)
	movq	-8(%rbp), %rax
	movl	$0, 12(%rax)
	movq	-8(%rbp), %rax
	movl	$0, 32(%rax)
	movq	-8(%rbp), %rax
	movq	$0, 40(%rax)
	movq	-8(%rbp), %rax
	movq	$0, 48(%rax)
	movq	-8(%rbp), %rax
	movq	$0, 56(%rax)
	movq	-8(%rbp), %rax
	addq	$16, %rsp
	popq	%rbp
	.cfi_def_cfa %rsp, 8
	retq
.Lfunc_end5:
	.size	alloc_frame_store, .Lfunc_end5-alloc_frame_store
	.cfi_endproc
                                        # -- End function
	.globl	alloc_storable_picture  # -- Begin function alloc_storable_picture
	.p2align	4, 0x90
	.type	alloc_storable_picture,@function
alloc_storable_picture:                 # @alloc_storable_picture
	.cfi_startproc
# %bb.0:                                # %rand_bb
	pushq	%rbp
	.cfi_def_cfa_offset 16
	.cfi_offset %rbp, -16
	movq	%rsp, %rbp
	.cfi_def_cfa_register %rbp
	pushq	%r15
	pushq	%r14
	pushq	%r13
	pushq	%r12
	pushq	%rbx
	pushq	%rax
	.cfi_offset %rbx, -56
	.cfi_offset %r12, -48
	.cfi_offset %r13, -40
	.cfi_offset %r14, -32
	.cfi_offset %r15, -24
	movl	%r8d, %r14d
	movl	%ecx, %r15d
	movl	%edx, %r12d
	movl	%esi, %r13d
	movl	%edi, %ebx
	callq	get_rand
	cmpl	$0, %eax
	jne	.LBB6_5
# %bb.1:                                # %func_alloc_storable_picture.40
	movl	%ebx, %edi
	movl	%r13d, %esi
	movl	%r12d, %edx
	movl	%r15d, %ecx
	movl	%r14d, %r8d
	callq	alloc_storable_picture.40
	addq	$8, %rsp
	popq	%rbx
	popq	%r12
	popq	%r13
	popq	%r14
	popq	%r15
	popq	%rbp
	.cfi_def_cfa %rsp, 8
	retq
.LBB6_2:                                # %func_alloc_storable_picture.86
	.cfi_def_cfa %rbp, 16
	movl	%ebx, %edi
	movl	%r13d, %esi
	movl	%r12d, %edx
	movl	%r15d, %ecx
	movl	%r14d, %r8d
	callq	alloc_storable_picture.86
	addq	$8, %rsp
	popq	%rbx
	popq	%r12
	popq	%r13
	popq	%r14
	popq	%r15
	popq	%rbp
	.cfi_def_cfa %rsp, 8
	retq
.LBB6_3:                                # %func_alloc_storable_picture.92
	.cfi_def_cfa %rbp, 16
	movl	%ebx, %edi
	movl	%r13d, %esi
	movl	%r12d, %edx
	movl	%r15d, %ecx
	movl	%r14d, %r8d
	callq	alloc_storable_picture.92
	addq	$8, %rsp
	popq	%rbx
	popq	%r12
	popq	%r13
	popq	%r14
	popq	%r15
	popq	%rbp
	.cfi_def_cfa %rsp, 8
	retq
.LBB6_4:                                # %func_alloc_storable_picture.103
	.cfi_def_cfa %rbp, 16
	movl	%ebx, %edi
	movl	%r13d, %esi
	movl	%r12d, %edx
	movl	%r15d, %ecx
	movl	%r14d, %r8d
	callq	alloc_storable_picture.103
	addq	$8, %rsp
	popq	%rbx
	popq	%r12
	popq	%r13
	popq	%r14
	popq	%r15
	popq	%rbp
	.cfi_def_cfa %rsp, 8
	retq
.LBB6_5:                                # %ctrl0
	.cfi_def_cfa %rbp, 16
	cmpl	$1, %eax
	je	.LBB6_2
# %bb.6:                                # %ctrl1
	cmpl	$2, %eax
	je	.LBB6_3
	jmp	.LBB6_4
.Lfunc_end6:
	.size	alloc_storable_picture, .Lfunc_end6-alloc_storable_picture
	.cfi_endproc
                                        # -- End function
	.globl	free_storable_picture   # -- Begin function free_storable_picture
	.p2align	4, 0x90
	.type	free_storable_picture,@function
free_storable_picture:                  # @free_storable_picture
	.cfi_startproc
# %bb.0:                                # %entry
	pushq	%rbp
	.cfi_def_cfa_offset 16
	.cfi_offset %rbp, -16
	movq	%rsp, %rbp
	.cfi_def_cfa_register %rbp
	subq	$16, %rsp
	movq	%rdi, -8(%rbp)
	cmpq	$0, -8(%rbp)
	je	.LBB7_32
# %bb.1:                                # %if.then
	movq	-8(%rbp), %rax
	cmpq	$0, 6480(%rax)
	je	.LBB7_3
# %bb.2:                                # %if.then2
	movq	-8(%rbp), %rax
	movq	6480(%rax), %rdi
	movl	$2, %esi
	callq	free_mem3Dshort
	movq	-8(%rbp), %rax
	movq	$0, 6480(%rax)
.LBB7_3:                                # %if.end
	movq	-8(%rbp), %rax
	cmpq	$0, 6488(%rax)
	je	.LBB7_5
# %bb.4:                                # %if.then6
	movq	-8(%rbp), %rax
	movq	6488(%rax), %rdi
	movl	$6, %esi
	callq	free_mem3Dint64
	movq	-8(%rbp), %rax
	movq	$0, 6488(%rax)
.LBB7_5:                                # %if.end9
	movq	-8(%rbp), %rax
	cmpq	$0, 6496(%rax)
	je	.LBB7_7
# %bb.6:                                # %if.then11
	movq	-8(%rbp), %rax
	movq	6496(%rax), %rdi
	movl	$6, %esi
	callq	free_mem3Dint64
	movq	-8(%rbp), %rax
	movq	$0, 6496(%rax)
.LBB7_7:                                # %if.end14
	movq	-8(%rbp), %rax
	cmpq	$0, 6504(%rax)
	je	.LBB7_9
# %bb.8:                                # %if.then16
	movq	-8(%rbp), %rax
	movq	6504(%rax), %rdi
	movq	-8(%rbp), %rax
	movl	6392(%rax), %eax
	cltd
	movl	$4, %ecx
	idivl	%ecx
	movl	$2, %esi
	movl	%eax, %edx
	callq	free_mem4Dshort
	movq	-8(%rbp), %rax
	movq	$0, 6504(%rax)
.LBB7_9:                                # %if.end19
	movq	-8(%rbp), %rax
	cmpq	$0, 6512(%rax)
	je	.LBB7_11
# %bb.10:                               # %if.then21
	movq	-8(%rbp), %rax
	movq	6512(%rax), %rdi
	callq	free_mem2D
	movq	-8(%rbp), %rax
	movq	$0, 6512(%rax)
.LBB7_11:                               # %if.end24
	movq	-8(%rbp), %rax
	cmpq	$0, 6520(%rax)
	je	.LBB7_13
# %bb.12:                               # %if.then26
	movq	-8(%rbp), %rax
	movq	6520(%rax), %rdi
	callq	free_mem2D
	movq	-8(%rbp), %rax
	movq	$0, 6520(%rax)
.LBB7_13:                               # %if.end29
	movq	-8(%rbp), %rax
	cmpq	$0, 6424(%rax)
	je	.LBB7_15
# %bb.14:                               # %if.then31
	movq	-8(%rbp), %rax
	movq	6424(%rax), %rdi
	callq	free_mem2Dpel
	movq	-8(%rbp), %rax
	movq	$0, 6424(%rax)
.LBB7_15:                               # %if.end34
	movq	-8(%rbp), %rax
	cmpq	$0, 6432(%rax)
	je	.LBB7_17
# %bb.16:                               # %if.then36
	movq	-8(%rbp), %rax
	movq	6432(%rax), %rdi
	callq	free
	movq	-8(%rbp), %rax
	movq	$0, 6432(%rax)
.LBB7_17:                               # %if.end39
	movq	-8(%rbp), %rax
	cmpq	$0, 6448(%rax)
	je	.LBB7_19
# %bb.18:                               # %if.then41
	movq	-8(%rbp), %rax
	movq	6448(%rax), %rdi
	callq	free_mem2Dpel
	movq	-8(%rbp), %rax
	movq	$0, 6448(%rax)
.LBB7_19:                               # %if.end44
	movq	-8(%rbp), %rax
	cmpq	$0, 6464(%rax)
	je	.LBB7_21
# %bb.20:                               # %if.then46
	movq	-8(%rbp), %rax
	movq	6464(%rax), %rdi
	movl	$2, %esi
	callq	free_mem3Dpel
	movq	-8(%rbp), %rax
	movq	$0, 6464(%rax)
.LBB7_21:                               # %if.end49
	movq	input, %rax
	cmpl	$0, 1284(%rax)
	jne	.LBB7_24
# %bb.22:                               # %lor.lhs.false
	movq	input, %rax
	cmpl	$0, 1288(%rax)
	jne	.LBB7_24
# %bb.23:                               # %lor.lhs.false52
	movq	input, %rax
	cmpl	$0, 60(%rax)
	je	.LBB7_29
.LBB7_24:                               # %if.then54
	movq	-8(%rbp), %rax
	cmpq	$0, 6440(%rax)
	je	.LBB7_26
# %bb.25:                               # %if.then56
	movq	-8(%rbp), %rax
	movq	6440(%rax), %rdi
	callq	free
	movq	-8(%rbp), %rax
	movq	$0, 6440(%rax)
.LBB7_26:                               # %if.end59
	movq	-8(%rbp), %rax
	cmpq	$0, 6456(%rax)
	je	.LBB7_28
# %bb.27:                               # %if.then61
	movq	-8(%rbp), %rax
	movq	6456(%rax), %rdi
	callq	free_mem2Dpel
	movq	-8(%rbp), %rax
	movq	$0, 6456(%rax)
.LBB7_28:                               # %if.end64
	jmp	.LBB7_29
.LBB7_29:                               # %if.end65
	movq	-8(%rbp), %rax
	cmpq	$0, 6472(%rax)
	je	.LBB7_31
# %bb.30:                               # %if.then67
	movq	-8(%rbp), %rax
	movq	6472(%rax), %rdi
	callq	free
	movq	-8(%rbp), %rax
	movq	$0, 6472(%rax)
.LBB7_31:                               # %if.end70
	movq	-8(%rbp), %rdi
	callq	free
	movq	$0, -8(%rbp)
.LBB7_32:                               # %if.end71
	addq	$16, %rsp
	popq	%rbp
	.cfi_def_cfa %rsp, 8
	retq
.Lfunc_end7:
	.size	free_storable_picture, .Lfunc_end7-free_storable_picture
	.cfi_endproc
                                        # -- End function
	.globl	is_short_ref            # -- Begin function is_short_ref
	.p2align	4, 0x90
	.type	is_short_ref,@function
is_short_ref:                           # @is_short_ref
	.cfi_startproc
# %bb.0:                                # %entry
	pushq	%rbp
	.cfi_def_cfa_offset 16
	.cfi_offset %rbp, -16
	movq	%rsp, %rbp
	.cfi_def_cfa_register %rbp
	xorl	%eax, %eax
	movq	%rdi, -8(%rbp)
	movq	-8(%rbp), %rcx
	cmpl	$0, 6380(%rcx)
	je	.LBB8_2
# %bb.1:                                # %land.rhs
	movq	-8(%rbp), %rax
	cmpl	$0, 6376(%rax)
	setne	%al
	xorb	$-1, %al
.LBB8_2:                                # %land.end
	andb	$1, %al
	movzbl	%al, %eax
	popq	%rbp
	.cfi_def_cfa %rsp, 8
	retq
.Lfunc_end8:
	.size	is_short_ref, .Lfunc_end8-is_short_ref
	.cfi_endproc
                                        # -- End function
	.globl	is_long_ref             # -- Begin function is_long_ref
	.p2align	4, 0x90
	.type	is_long_ref,@function
is_long_ref:                            # @is_long_ref
	.cfi_startproc
# %bb.0:                                # %entry
	pushq	%rbp
	.cfi_def_cfa_offset 16
	.cfi_offset %rbp, -16
	movq	%rsp, %rbp
	.cfi_def_cfa_register %rbp
	xorl	%eax, %eax
	movq	%rdi, -8(%rbp)
	movq	-8(%rbp), %rcx
	cmpl	$0, 6380(%rcx)
	je	.LBB9_2
# %bb.1:                                # %land.rhs
	movq	-8(%rbp), %rax
	cmpl	$0, 6376(%rax)
	setne	%al
.LBB9_2:                                # %land.end
	andb	$1, %al
	movzbl	%al, %eax
	popq	%rbp
	.cfi_def_cfa %rsp, 8
	retq
.Lfunc_end9:
	.size	is_long_ref, .Lfunc_end9-is_long_ref
	.cfi_endproc
                                        # -- End function
	.globl	init_lists              # -- Begin function init_lists
	.p2align	4, 0x90
	.type	init_lists,@function
init_lists:                             # @init_lists
	.cfi_startproc
# %bb.0:                                # %rand_bb
	pushq	%rbp
	.cfi_def_cfa_offset 16
	.cfi_offset %rbp, -16
	movq	%rsp, %rbp
	.cfi_def_cfa_register %rbp
	pushq	%r14
	pushq	%rbx
	.cfi_offset %rbx, -32
	.cfi_offset %r14, -24
	movl	%esi, %r14d
	movl	%edi, %ebx
	callq	get_rand
	cmpl	$0, %eax
	jne	.LBB10_5
# %bb.1:                                # %func_init_lists.55
	movl	%ebx, %edi
	movl	%r14d, %esi
	callq	init_lists.55
	popq	%rbx
	popq	%r14
	popq	%rbp
	.cfi_def_cfa %rsp, 8
	retq
.LBB10_2:                               # %func_init_lists.60
	.cfi_def_cfa %rbp, 16
	movl	%ebx, %edi
	movl	%r14d, %esi
	callq	init_lists.60
	popq	%rbx
	popq	%r14
	popq	%rbp
	.cfi_def_cfa %rsp, 8
	retq
.LBB10_3:                               # %func_init_lists.69
	.cfi_def_cfa %rbp, 16
	movl	%ebx, %edi
	movl	%r14d, %esi
	callq	init_lists.69
	popq	%rbx
	popq	%r14
	popq	%rbp
	.cfi_def_cfa %rsp, 8
	retq
.LBB10_4:                               # %func_init_lists.143
	.cfi_def_cfa %rbp, 16
	movl	%ebx, %edi
	movl	%r14d, %esi
	callq	init_lists.143
	popq	%rbx
	popq	%r14
	popq	%rbp
	.cfi_def_cfa %rsp, 8
	retq
.LBB10_5:                               # %ctrl0
	.cfi_def_cfa %rbp, 16
	cmpl	$1, %eax
	je	.LBB10_2
# %bb.6:                                # %ctrl1
	cmpl	$2, %eax
	je	.LBB10_3
	jmp	.LBB10_4
.Lfunc_end10:
	.size	init_lists, .Lfunc_end10-init_lists
	.cfi_endproc
                                        # -- End function
	.p2align	4, 0x90         # -- Begin function compare_pic_by_pic_num_desc
	.type	compare_pic_by_pic_num_desc,@function
compare_pic_by_pic_num_desc:            # @compare_pic_by_pic_num_desc
	.cfi_startproc
# %bb.0:                                # %rand_bb
	pushq	%rbp
	.cfi_def_cfa_offset 16
	.cfi_offset %rbp, -16
	movq	%rsp, %rbp
	.cfi_def_cfa_register %rbp
	pushq	%r14
	pushq	%rbx
	.cfi_offset %rbx, -32
	.cfi_offset %r14, -24
	movq	%rsi, %r14
	movq	%rdi, %rbx
	callq	get_rand
	cmpl	$0, %eax
	jne	.LBB11_5
# %bb.1:                                # %func_compare_pic_by_pic_num_desc.94
	movq	%rbx, %rdi
	movq	%r14, %rsi
	callq	compare_pic_by_pic_num_desc.94
	popq	%rbx
	popq	%r14
	popq	%rbp
	.cfi_def_cfa %rsp, 8
	retq
.LBB11_2:                               # %func_compare_pic_by_pic_num_desc.123
	.cfi_def_cfa %rbp, 16
	movq	%rbx, %rdi
	movq	%r14, %rsi
	callq	compare_pic_by_pic_num_desc.123
	popq	%rbx
	popq	%r14
	popq	%rbp
	.cfi_def_cfa %rsp, 8
	retq
.LBB11_3:                               # %func_compare_pic_by_pic_num_desc.138
	.cfi_def_cfa %rbp, 16
	movq	%rbx, %rdi
	movq	%r14, %rsi
	callq	compare_pic_by_pic_num_desc.138
	popq	%rbx
	popq	%r14
	popq	%rbp
	.cfi_def_cfa %rsp, 8
	retq
.LBB11_4:                               # %func_compare_pic_by_pic_num_desc.145
	.cfi_def_cfa %rbp, 16
	movq	%rbx, %rdi
	movq	%r14, %rsi
	callq	compare_pic_by_pic_num_desc.145
	popq	%rbx
	popq	%r14
	popq	%rbp
	.cfi_def_cfa %rsp, 8
	retq
.LBB11_5:                               # %ctrl0
	.cfi_def_cfa %rbp, 16
	cmpl	$1, %eax
	je	.LBB11_2
# %bb.6:                                # %ctrl1
	cmpl	$2, %eax
	je	.LBB11_3
	jmp	.LBB11_4
.Lfunc_end11:
	.size	compare_pic_by_pic_num_desc, .Lfunc_end11-compare_pic_by_pic_num_desc
	.cfi_endproc
                                        # -- End function
	.p2align	4, 0x90         # -- Begin function compare_pic_by_lt_pic_num_asc
	.type	compare_pic_by_lt_pic_num_asc,@function
compare_pic_by_lt_pic_num_asc:          # @compare_pic_by_lt_pic_num_asc
	.cfi_startproc
# %bb.0:                                # %rand_bb
	pushq	%rbp
	.cfi_def_cfa_offset 16
	.cfi_offset %rbp, -16
	movq	%rsp, %rbp
	.cfi_def_cfa_register %rbp
	pushq	%r14
	pushq	%rbx
	.cfi_offset %rbx, -32
	.cfi_offset %r14, -24
	movq	%rsi, %r14
	movq	%rdi, %rbx
	callq	get_rand
	cmpl	$0, %eax
	jne	.LBB12_5
# %bb.1:                                # %func_compare_pic_by_lt_pic_num_asc.3
	movq	%rbx, %rdi
	movq	%r14, %rsi
	callq	compare_pic_by_lt_pic_num_asc.3
	popq	%rbx
	popq	%r14
	popq	%rbp
	.cfi_def_cfa %rsp, 8
	retq
.LBB12_2:                               # %func_compare_pic_by_lt_pic_num_asc.70
	.cfi_def_cfa %rbp, 16
	movq	%rbx, %rdi
	movq	%r14, %rsi
	callq	compare_pic_by_lt_pic_num_asc.70
	popq	%rbx
	popq	%r14
	popq	%rbp
	.cfi_def_cfa %rsp, 8
	retq
.LBB12_3:                               # %func_compare_pic_by_lt_pic_num_asc.74
	.cfi_def_cfa %rbp, 16
	movq	%rbx, %rdi
	movq	%r14, %rsi
	callq	compare_pic_by_lt_pic_num_asc.74
	popq	%rbx
	popq	%r14
	popq	%rbp
	.cfi_def_cfa %rsp, 8
	retq
.LBB12_4:                               # %func_compare_pic_by_lt_pic_num_asc.120
	.cfi_def_cfa %rbp, 16
	movq	%rbx, %rdi
	movq	%r14, %rsi
	callq	compare_pic_by_lt_pic_num_asc.120
	popq	%rbx
	popq	%r14
	popq	%rbp
	.cfi_def_cfa %rsp, 8
	retq
.LBB12_5:                               # %ctrl0
	.cfi_def_cfa %rbp, 16
	cmpl	$1, %eax
	je	.LBB12_2
# %bb.6:                                # %ctrl1
	cmpl	$2, %eax
	je	.LBB12_3
	jmp	.LBB12_4
.Lfunc_end12:
	.size	compare_pic_by_lt_pic_num_asc, .Lfunc_end12-compare_pic_by_lt_pic_num_asc
	.cfi_endproc
                                        # -- End function
	.p2align	4, 0x90         # -- Begin function compare_fs_by_frame_num_desc
	.type	compare_fs_by_frame_num_desc,@function
compare_fs_by_frame_num_desc:           # @compare_fs_by_frame_num_desc
	.cfi_startproc
# %bb.0:                                # %rand_bb
	pushq	%rbp
	.cfi_def_cfa_offset 16
	.cfi_offset %rbp, -16
	movq	%rsp, %rbp
	.cfi_def_cfa_register %rbp
	pushq	%r14
	pushq	%rbx
	.cfi_offset %rbx, -32
	.cfi_offset %r14, -24
	movq	%rsi, %r14
	movq	%rdi, %rbx
	callq	get_rand
	cmpl	$0, %eax
	jne	.LBB13_5
# %bb.1:                                # %func_compare_fs_by_frame_num_desc.12
	movq	%rbx, %rdi
	movq	%r14, %rsi
	callq	compare_fs_by_frame_num_desc.12
	popq	%rbx
	popq	%r14
	popq	%rbp
	.cfi_def_cfa %rsp, 8
	retq
.LBB13_2:                               # %func_compare_fs_by_frame_num_desc.114
	.cfi_def_cfa %rbp, 16
	movq	%rbx, %rdi
	movq	%r14, %rsi
	callq	compare_fs_by_frame_num_desc.114
	popq	%rbx
	popq	%r14
	popq	%rbp
	.cfi_def_cfa %rsp, 8
	retq
.LBB13_3:                               # %func_compare_fs_by_frame_num_desc.115
	.cfi_def_cfa %rbp, 16
	movq	%rbx, %rdi
	movq	%r14, %rsi
	callq	compare_fs_by_frame_num_desc.115
	popq	%rbx
	popq	%r14
	popq	%rbp
	.cfi_def_cfa %rsp, 8
	retq
.LBB13_4:                               # %func_compare_fs_by_frame_num_desc.126
	.cfi_def_cfa %rbp, 16
	movq	%rbx, %rdi
	movq	%r14, %rsi
	callq	compare_fs_by_frame_num_desc.126
	popq	%rbx
	popq	%r14
	popq	%rbp
	.cfi_def_cfa %rsp, 8
	retq
.LBB13_5:                               # %ctrl0
	.cfi_def_cfa %rbp, 16
	cmpl	$1, %eax
	je	.LBB13_2
# %bb.6:                                # %ctrl1
	cmpl	$2, %eax
	je	.LBB13_3
	jmp	.LBB13_4
.Lfunc_end13:
	.size	compare_fs_by_frame_num_desc, .Lfunc_end13-compare_fs_by_frame_num_desc
	.cfi_endproc
                                        # -- End function
	.p2align	4, 0x90         # -- Begin function gen_pic_list_from_frame_list
	.type	gen_pic_list_from_frame_list,@function
gen_pic_list_from_frame_list:           # @gen_pic_list_from_frame_list
	.cfi_startproc
# %bb.0:                                # %rand_bb
	pushq	%rbp
	.cfi_def_cfa_offset 16
	.cfi_offset %rbp, -16
	movq	%rsp, %rbp
	.cfi_def_cfa_register %rbp
	pushq	%r15
	pushq	%r14
	pushq	%r13
	pushq	%r12
	pushq	%rbx
	pushq	%rax
	.cfi_offset %rbx, -56
	.cfi_offset %r12, -48
	.cfi_offset %r13, -40
	.cfi_offset %r14, -32
	.cfi_offset %r15, -24
	movl	%r9d, -44(%rbp)         # 4-byte Spill
	movq	%r8, %r12
	movq	%rcx, %r13
	movl	%edx, %ebx
	movq	%rsi, %r14
	movl	%edi, %r15d
	callq	get_rand
	cmpl	$0, %eax
	jne	.LBB14_5
# %bb.1:                                # %func_gen_pic_list_from_frame_list.141
	movl	%r15d, %edi
	movq	%r14, %rsi
	movl	%ebx, %edx
	movq	%r13, %rcx
	movq	%r12, %r8
	movl	-44(%rbp), %r9d         # 4-byte Reload
	callq	gen_pic_list_from_frame_list.141
	addq	$8, %rsp
	popq	%rbx
	popq	%r12
	popq	%r13
	popq	%r14
	popq	%r15
	popq	%rbp
	.cfi_def_cfa %rsp, 8
	retq
.LBB14_2:                               # %func_gen_pic_list_from_frame_list.144
	.cfi_def_cfa %rbp, 16
	movl	%r15d, %edi
	movq	%r14, %rsi
	movl	%ebx, %edx
	movq	%r13, %rcx
	movq	%r12, %r8
	callq	gen_pic_list_from_frame_list.144
	addq	$8, %rsp
	popq	%rbx
	popq	%r12
	popq	%r13
	popq	%r14
	popq	%r15
	popq	%rbp
	.cfi_def_cfa %rsp, 8
	retq
.LBB14_3:                               # %func_gen_pic_list_from_frame_list.149
	.cfi_def_cfa %rbp, 16
	callq	gen_pic_list_from_frame_list.149
	addq	$8, %rsp
	popq	%rbx
	popq	%r12
	popq	%r13
	popq	%r14
	popq	%r15
	popq	%rbp
	.cfi_def_cfa %rsp, 8
	retq
.LBB14_4:                               # %func_gen_pic_list_from_frame_list.161
	.cfi_def_cfa %rbp, 16
	callq	gen_pic_list_from_frame_list.161
	addq	$8, %rsp
	popq	%rbx
	popq	%r12
	popq	%r13
	popq	%r14
	popq	%r15
	popq	%rbp
	.cfi_def_cfa %rsp, 8
	retq
.LBB14_5:                               # %ctrl0
	.cfi_def_cfa %rbp, 16
	movl	-44(%rbp), %r9d         # 4-byte Reload
	cmpl	$1, %eax
	je	.LBB14_2
# %bb.6:                                # %ctrl1
	cmpl	$2, %eax
	movq	%r12, %r8
	movq	%r13, %rcx
	movl	%ebx, %edx
	movq	%r14, %rsi
	movl	%r15d, %edi
	je	.LBB14_3
	jmp	.LBB14_4
.Lfunc_end14:
	.size	gen_pic_list_from_frame_list, .Lfunc_end14-gen_pic_list_from_frame_list
	.cfi_endproc
                                        # -- End function
	.p2align	4, 0x90         # -- Begin function compare_fs_by_lt_pic_idx_asc
	.type	compare_fs_by_lt_pic_idx_asc,@function
compare_fs_by_lt_pic_idx_asc:           # @compare_fs_by_lt_pic_idx_asc
	.cfi_startproc
# %bb.0:                                # %rand_bb
	pushq	%rbp
	.cfi_def_cfa_offset 16
	.cfi_offset %rbp, -16
	movq	%rsp, %rbp
	.cfi_def_cfa_register %rbp
	pushq	%r14
	pushq	%rbx
	.cfi_offset %rbx, -32
	.cfi_offset %r14, -24
	movq	%rsi, %r14
	movq	%rdi, %rbx
	callq	get_rand
	cmpl	$0, %eax
	jne	.LBB15_5
# %bb.1:                                # %func_compare_fs_by_lt_pic_idx_asc.19
	movq	%rbx, %rdi
	movq	%r14, %rsi
	callq	compare_fs_by_lt_pic_idx_asc.19
	popq	%rbx
	popq	%r14
	popq	%rbp
	.cfi_def_cfa %rsp, 8
	retq
.LBB15_2:                               # %func_compare_fs_by_lt_pic_idx_asc.43
	.cfi_def_cfa %rbp, 16
	movq	%rbx, %rdi
	movq	%r14, %rsi
	callq	compare_fs_by_lt_pic_idx_asc.43
	popq	%rbx
	popq	%r14
	popq	%rbp
	.cfi_def_cfa %rsp, 8
	retq
.LBB15_3:                               # %func_compare_fs_by_lt_pic_idx_asc.154
	.cfi_def_cfa %rbp, 16
	movq	%rbx, %rdi
	movq	%r14, %rsi
	callq	compare_fs_by_lt_pic_idx_asc.154
	popq	%rbx
	popq	%r14
	popq	%rbp
	.cfi_def_cfa %rsp, 8
	retq
.LBB15_4:                               # %func_compare_fs_by_lt_pic_idx_asc.160
	.cfi_def_cfa %rbp, 16
	movq	%rbx, %rdi
	movq	%r14, %rsi
	callq	compare_fs_by_lt_pic_idx_asc.160
	popq	%rbx
	popq	%r14
	popq	%rbp
	.cfi_def_cfa %rsp, 8
	retq
.LBB15_5:                               # %ctrl0
	.cfi_def_cfa %rbp, 16
	cmpl	$1, %eax
	je	.LBB15_2
# %bb.6:                                # %ctrl1
	cmpl	$2, %eax
	je	.LBB15_3
	jmp	.LBB15_4
.Lfunc_end15:
	.size	compare_fs_by_lt_pic_idx_asc, .Lfunc_end15-compare_fs_by_lt_pic_idx_asc
	.cfi_endproc
                                        # -- End function
	.p2align	4, 0x90         # -- Begin function compare_pic_by_poc_desc
	.type	compare_pic_by_poc_desc,@function
compare_pic_by_poc_desc:                # @compare_pic_by_poc_desc
	.cfi_startproc
# %bb.0:                                # %rand_bb
	pushq	%rbp
	.cfi_def_cfa_offset 16
	.cfi_offset %rbp, -16
	movq	%rsp, %rbp
	.cfi_def_cfa_register %rbp
	pushq	%r14
	pushq	%rbx
	.cfi_offset %rbx, -32
	.cfi_offset %r14, -24
	movq	%rsi, %r14
	movq	%rdi, %rbx
	callq	get_rand
	cmpl	$0, %eax
	jne	.LBB16_5
# %bb.1:                                # %func_compare_pic_by_poc_desc.52
	movq	%rbx, %rdi
	movq	%r14, %rsi
	callq	compare_pic_by_poc_desc.52
	popq	%rbx
	popq	%r14
	popq	%rbp
	.cfi_def_cfa %rsp, 8
	retq
.LBB16_2:                               # %func_compare_pic_by_poc_desc.72
	.cfi_def_cfa %rbp, 16
	movq	%rbx, %rdi
	movq	%r14, %rsi
	callq	compare_pic_by_poc_desc.72
	popq	%rbx
	popq	%r14
	popq	%rbp
	.cfi_def_cfa %rsp, 8
	retq
.LBB16_3:                               # %func_compare_pic_by_poc_desc.84
	.cfi_def_cfa %rbp, 16
	movq	%rbx, %rdi
	movq	%r14, %rsi
	callq	compare_pic_by_poc_desc.84
	popq	%rbx
	popq	%r14
	popq	%rbp
	.cfi_def_cfa %rsp, 8
	retq
.LBB16_4:                               # %func_compare_pic_by_poc_desc.152
	.cfi_def_cfa %rbp, 16
	movq	%rbx, %rdi
	movq	%r14, %rsi
	callq	compare_pic_by_poc_desc.152
	popq	%rbx
	popq	%r14
	popq	%rbp
	.cfi_def_cfa %rsp, 8
	retq
.LBB16_5:                               # %ctrl0
	.cfi_def_cfa %rbp, 16
	cmpl	$1, %eax
	je	.LBB16_2
# %bb.6:                                # %ctrl1
	cmpl	$2, %eax
	je	.LBB16_3
	jmp	.LBB16_4
.Lfunc_end16:
	.size	compare_pic_by_poc_desc, .Lfunc_end16-compare_pic_by_poc_desc
	.cfi_endproc
                                        # -- End function
	.p2align	4, 0x90         # -- Begin function compare_pic_by_poc_asc
	.type	compare_pic_by_poc_asc,@function
compare_pic_by_poc_asc:                 # @compare_pic_by_poc_asc
	.cfi_startproc
# %bb.0:                                # %rand_bb
	pushq	%rbp
	.cfi_def_cfa_offset 16
	.cfi_offset %rbp, -16
	movq	%rsp, %rbp
	.cfi_def_cfa_register %rbp
	pushq	%r14
	pushq	%rbx
	.cfi_offset %rbx, -32
	.cfi_offset %r14, -24
	movq	%rsi, %r14
	movq	%rdi, %rbx
	callq	get_rand
	cmpl	$0, %eax
	jne	.LBB17_5
# %bb.1:                                # %func_compare_pic_by_poc_asc.15
	movq	%rbx, %rdi
	movq	%r14, %rsi
	callq	compare_pic_by_poc_asc.15
	popq	%rbx
	popq	%r14
	popq	%rbp
	.cfi_def_cfa %rsp, 8
	retq
.LBB17_2:                               # %func_compare_pic_by_poc_asc.62
	.cfi_def_cfa %rbp, 16
	movq	%rbx, %rdi
	movq	%r14, %rsi
	callq	compare_pic_by_poc_asc.62
	popq	%rbx
	popq	%r14
	popq	%rbp
	.cfi_def_cfa %rsp, 8
	retq
.LBB17_3:                               # %func_compare_pic_by_poc_asc.79
	.cfi_def_cfa %rbp, 16
	movq	%rbx, %rdi
	movq	%r14, %rsi
	callq	compare_pic_by_poc_asc.79
	popq	%rbx
	popq	%r14
	popq	%rbp
	.cfi_def_cfa %rsp, 8
	retq
.LBB17_4:                               # %func_compare_pic_by_poc_asc.132
	.cfi_def_cfa %rbp, 16
	movq	%rbx, %rdi
	movq	%r14, %rsi
	callq	compare_pic_by_poc_asc.132
	popq	%rbx
	popq	%r14
	popq	%rbp
	.cfi_def_cfa %rsp, 8
	retq
.LBB17_5:                               # %ctrl0
	.cfi_def_cfa %rbp, 16
	cmpl	$1, %eax
	je	.LBB17_2
# %bb.6:                                # %ctrl1
	cmpl	$2, %eax
	je	.LBB17_3
	jmp	.LBB17_4
.Lfunc_end17:
	.size	compare_pic_by_poc_asc, .Lfunc_end17-compare_pic_by_poc_asc
	.cfi_endproc
                                        # -- End function
	.p2align	4, 0x90         # -- Begin function compare_fs_by_poc_desc
	.type	compare_fs_by_poc_desc,@function
compare_fs_by_poc_desc:                 # @compare_fs_by_poc_desc
	.cfi_startproc
# %bb.0:                                # %rand_bb
	pushq	%rbp
	.cfi_def_cfa_offset 16
	.cfi_offset %rbp, -16
	movq	%rsp, %rbp
	.cfi_def_cfa_register %rbp
	pushq	%r14
	pushq	%rbx
	.cfi_offset %rbx, -32
	.cfi_offset %r14, -24
	movq	%rsi, %r14
	movq	%rdi, %rbx
	callq	get_rand
	cmpl	$0, %eax
	jne	.LBB18_5
# %bb.1:                                # %func_compare_fs_by_poc_desc.14
	movq	%rbx, %rdi
	movq	%r14, %rsi
	callq	compare_fs_by_poc_desc.14
	popq	%rbx
	popq	%r14
	popq	%rbp
	.cfi_def_cfa %rsp, 8
	retq
.LBB18_2:                               # %func_compare_fs_by_poc_desc.31
	.cfi_def_cfa %rbp, 16
	movq	%rbx, %rdi
	movq	%r14, %rsi
	callq	compare_fs_by_poc_desc.31
	popq	%rbx
	popq	%r14
	popq	%rbp
	.cfi_def_cfa %rsp, 8
	retq
.LBB18_3:                               # %func_compare_fs_by_poc_desc.47
	.cfi_def_cfa %rbp, 16
	movq	%rbx, %rdi
	movq	%r14, %rsi
	callq	compare_fs_by_poc_desc.47
	popq	%rbx
	popq	%r14
	popq	%rbp
	.cfi_def_cfa %rsp, 8
	retq
.LBB18_4:                               # %func_compare_fs_by_poc_desc.146
	.cfi_def_cfa %rbp, 16
	movq	%rbx, %rdi
	movq	%r14, %rsi
	callq	compare_fs_by_poc_desc.146
	popq	%rbx
	popq	%r14
	popq	%rbp
	.cfi_def_cfa %rsp, 8
	retq
.LBB18_5:                               # %ctrl0
	.cfi_def_cfa %rbp, 16
	cmpl	$1, %eax
	je	.LBB18_2
# %bb.6:                                # %ctrl1
	cmpl	$2, %eax
	je	.LBB18_3
	jmp	.LBB18_4
.Lfunc_end18:
	.size	compare_fs_by_poc_desc, .Lfunc_end18-compare_fs_by_poc_desc
	.cfi_endproc
                                        # -- End function
	.p2align	4, 0x90         # -- Begin function compare_fs_by_poc_asc
	.type	compare_fs_by_poc_asc,@function
compare_fs_by_poc_asc:                  # @compare_fs_by_poc_asc
	.cfi_startproc
# %bb.0:                                # %rand_bb
	pushq	%rbp
	.cfi_def_cfa_offset 16
	.cfi_offset %rbp, -16
	movq	%rsp, %rbp
	.cfi_def_cfa_register %rbp
	pushq	%r14
	pushq	%rbx
	.cfi_offset %rbx, -32
	.cfi_offset %r14, -24
	movq	%rsi, %r14
	movq	%rdi, %rbx
	callq	get_rand
	cmpl	$0, %eax
	jne	.LBB19_5
# %bb.1:                                # %func_compare_fs_by_poc_asc.18
	movq	%rbx, %rdi
	movq	%r14, %rsi
	callq	compare_fs_by_poc_asc.18
	popq	%rbx
	popq	%r14
	popq	%rbp
	.cfi_def_cfa %rsp, 8
	retq
.LBB19_2:                               # %func_compare_fs_by_poc_asc.28
	.cfi_def_cfa %rbp, 16
	movq	%rbx, %rdi
	movq	%r14, %rsi
	callq	compare_fs_by_poc_asc.28
	popq	%rbx
	popq	%r14
	popq	%rbp
	.cfi_def_cfa %rsp, 8
	retq
.LBB19_3:                               # %func_compare_fs_by_poc_asc.32
	.cfi_def_cfa %rbp, 16
	movq	%rbx, %rdi
	movq	%r14, %rsi
	callq	compare_fs_by_poc_asc.32
	popq	%rbx
	popq	%r14
	popq	%rbp
	.cfi_def_cfa %rsp, 8
	retq
.LBB19_4:                               # %func_compare_fs_by_poc_asc.73
	.cfi_def_cfa %rbp, 16
	movq	%rbx, %rdi
	movq	%r14, %rsi
	callq	compare_fs_by_poc_asc.73
	popq	%rbx
	popq	%r14
	popq	%rbp
	.cfi_def_cfa %rsp, 8
	retq
.LBB19_5:                               # %ctrl0
	.cfi_def_cfa %rbp, 16
	cmpl	$1, %eax
	je	.LBB19_2
# %bb.6:                                # %ctrl1
	cmpl	$2, %eax
	je	.LBB19_3
	jmp	.LBB19_4
.Lfunc_end19:
	.size	compare_fs_by_poc_asc, .Lfunc_end19-compare_fs_by_poc_asc
	.cfi_endproc
                                        # -- End function
	.globl	init_mbaff_lists        # -- Begin function init_mbaff_lists
	.p2align	4, 0x90
	.type	init_mbaff_lists,@function
init_mbaff_lists:                       # @init_mbaff_lists
	.cfi_startproc
# %bb.0:                                # %rand_bb
	pushq	%rbp
	.cfi_def_cfa_offset 16
	.cfi_offset %rbp, -16
	movq	%rsp, %rbp
	.cfi_def_cfa_register %rbp
	callq	get_rand
	cmpl	$0, %eax
	jne	.LBB20_2
# %bb.1:                                # %func_init_mbaff_lists.45
	callq	init_mbaff_lists.45
	popq	%rbp
	.cfi_def_cfa %rsp, 8
	retq
.LBB20_2:                               # %func_init_mbaff_lists.159
	.cfi_def_cfa %rbp, 16
	callq	init_mbaff_lists.159
	popq	%rbp
	.cfi_def_cfa %rsp, 8
	retq
.Lfunc_end20:
	.size	init_mbaff_lists, .Lfunc_end20-init_mbaff_lists
	.cfi_endproc
                                        # -- End function
	.globl	reorder_ref_pic_list    # -- Begin function reorder_ref_pic_list
	.p2align	4, 0x90
	.type	reorder_ref_pic_list,@function
reorder_ref_pic_list:                   # @reorder_ref_pic_list
	.cfi_startproc
# %bb.0:                                # %rand_bb
	pushq	%rbp
	.cfi_def_cfa_offset 16
	.cfi_offset %rbp, -16
	movq	%rsp, %rbp
	.cfi_def_cfa_register %rbp
	pushq	%r15
	pushq	%r14
	pushq	%r13
	pushq	%r12
	pushq	%rbx
	pushq	%rax
	.cfi_offset %rbx, -56
	.cfi_offset %r12, -48
	.cfi_offset %r13, -40
	.cfi_offset %r14, -32
	.cfi_offset %r15, -24
	movq	%r9, -48(%rbp)          # 8-byte Spill
	movq	%r8, %r12
	movq	%rcx, %r13
	movl	%edx, %ebx
	movq	%rsi, %r14
	movq	%rdi, %r15
	callq	get_rand
	cmpl	$0, %eax
	jne	.LBB21_5
# %bb.1:                                # %func_reorder_ref_pic_list.27
	movq	%r15, %rdi
	movq	%r14, %rsi
	movl	%ebx, %edx
	movq	%r13, %rcx
	movq	%r12, %r8
	movq	-48(%rbp), %r9          # 8-byte Reload
	callq	reorder_ref_pic_list.27
	addq	$8, %rsp
	popq	%rbx
	popq	%r12
	popq	%r13
	popq	%r14
	popq	%r15
	popq	%rbp
	.cfi_def_cfa %rsp, 8
	retq
.LBB21_2:                               # %func_reorder_ref_pic_list.77
	.cfi_def_cfa %rbp, 16
	movq	%r15, %rdi
	movq	%r14, %rsi
	movl	%ebx, %edx
	movq	%r13, %rcx
	movq	%r12, %r8
	callq	reorder_ref_pic_list.77
	addq	$8, %rsp
	popq	%rbx
	popq	%r12
	popq	%r13
	popq	%r14
	popq	%r15
	popq	%rbp
	.cfi_def_cfa %rsp, 8
	retq
.LBB21_3:                               # %func_reorder_ref_pic_list.124
	.cfi_def_cfa %rbp, 16
	callq	reorder_ref_pic_list.124
	addq	$8, %rsp
	popq	%rbx
	popq	%r12
	popq	%r13
	popq	%r14
	popq	%r15
	popq	%rbp
	.cfi_def_cfa %rsp, 8
	retq
.LBB21_4:                               # %func_reorder_ref_pic_list.134
	.cfi_def_cfa %rbp, 16
	callq	reorder_ref_pic_list.134
	addq	$8, %rsp
	popq	%rbx
	popq	%r12
	popq	%r13
	popq	%r14
	popq	%r15
	popq	%rbp
	.cfi_def_cfa %rsp, 8
	retq
.LBB21_5:                               # %ctrl0
	.cfi_def_cfa %rbp, 16
	movq	-48(%rbp), %r9          # 8-byte Reload
	cmpl	$1, %eax
	je	.LBB21_2
# %bb.6:                                # %ctrl1
	cmpl	$2, %eax
	movq	%r12, %r8
	movq	%r13, %rcx
	movl	%ebx, %edx
	movq	%r14, %rsi
	movq	%r15, %rdi
	je	.LBB21_3
	jmp	.LBB21_4
.Lfunc_end21:
	.size	reorder_ref_pic_list, .Lfunc_end21-reorder_ref_pic_list
	.cfi_endproc
                                        # -- End function
	.p2align	4, 0x90         # -- Begin function reorder_short_term
	.type	reorder_short_term,@function
reorder_short_term:                     # @reorder_short_term
	.cfi_startproc
# %bb.0:                                # %rand_bb
	pushq	%rbp
	.cfi_def_cfa_offset 16
	.cfi_offset %rbp, -16
	movq	%rsp, %rbp
	.cfi_def_cfa_register %rbp
	pushq	%r15
	pushq	%r14
	pushq	%r12
	pushq	%rbx
	.cfi_offset %rbx, -48
	.cfi_offset %r12, -40
	.cfi_offset %r14, -32
	.cfi_offset %r15, -24
	movq	%rcx, %r14
	movl	%edx, %r15d
	movl	%esi, %r12d
	movq	%rdi, %rbx
	callq	get_rand
	cmpl	$0, %eax
	jne	.LBB22_5
# %bb.1:                                # %func_reorder_short_term.10
	movq	%rbx, %rdi
	movl	%r12d, %esi
	movl	%r15d, %edx
	movq	%r14, %rcx
	callq	reorder_short_term.10
	popq	%rbx
	popq	%r12
	popq	%r14
	popq	%r15
	popq	%rbp
	.cfi_def_cfa %rsp, 8
	retq
.LBB22_2:                               # %func_reorder_short_term.90
	.cfi_def_cfa %rbp, 16
	movq	%rbx, %rdi
	movl	%r12d, %esi
	movl	%r15d, %edx
	movq	%r14, %rcx
	callq	reorder_short_term.90
	popq	%rbx
	popq	%r12
	popq	%r14
	popq	%r15
	popq	%rbp
	.cfi_def_cfa %rsp, 8
	retq
.LBB22_3:                               # %func_reorder_short_term.148
	.cfi_def_cfa %rbp, 16
	movq	%rbx, %rdi
	movl	%r12d, %esi
	movl	%r15d, %edx
	movq	%r14, %rcx
	callq	reorder_short_term.148
	popq	%rbx
	popq	%r12
	popq	%r14
	popq	%r15
	popq	%rbp
	.cfi_def_cfa %rsp, 8
	retq
.LBB22_4:                               # %func_reorder_short_term.157
	.cfi_def_cfa %rbp, 16
	movq	%rbx, %rdi
	movl	%r12d, %esi
	movl	%r15d, %edx
	movq	%r14, %rcx
	callq	reorder_short_term.157
	popq	%rbx
	popq	%r12
	popq	%r14
	popq	%r15
	popq	%rbp
	.cfi_def_cfa %rsp, 8
	retq
.LBB22_5:                               # %ctrl0
	.cfi_def_cfa %rbp, 16
	cmpl	$1, %eax
	je	.LBB22_2
# %bb.6:                                # %ctrl1
	cmpl	$2, %eax
	je	.LBB22_3
	jmp	.LBB22_4
.Lfunc_end22:
	.size	reorder_short_term, .Lfunc_end22-reorder_short_term
	.cfi_endproc
                                        # -- End function
	.p2align	4, 0x90         # -- Begin function reorder_long_term
	.type	reorder_long_term,@function
reorder_long_term:                      # @reorder_long_term
	.cfi_startproc
# %bb.0:                                # %rand_bb
	pushq	%rbp
	.cfi_def_cfa_offset 16
	.cfi_offset %rbp, -16
	movq	%rsp, %rbp
	.cfi_def_cfa_register %rbp
	pushq	%r15
	pushq	%r14
	pushq	%r12
	pushq	%rbx
	.cfi_offset %rbx, -48
	.cfi_offset %r12, -40
	.cfi_offset %r14, -32
	.cfi_offset %r15, -24
	movq	%rcx, %r14
	movl	%edx, %r15d
	movl	%esi, %r12d
	movq	%rdi, %rbx
	callq	get_rand
	cmpl	$0, %eax
	jne	.LBB23_5
# %bb.1:                                # %func_reorder_long_term.25
	movq	%rbx, %rdi
	movl	%r12d, %esi
	movl	%r15d, %edx
	movq	%r14, %rcx
	callq	reorder_long_term.25
	popq	%rbx
	popq	%r12
	popq	%r14
	popq	%r15
	popq	%rbp
	.cfi_def_cfa %rsp, 8
	retq
.LBB23_2:                               # %func_reorder_long_term.34
	.cfi_def_cfa %rbp, 16
	movq	%rbx, %rdi
	movl	%r12d, %esi
	movl	%r15d, %edx
	movq	%r14, %rcx
	callq	reorder_long_term.34
	popq	%rbx
	popq	%r12
	popq	%r14
	popq	%r15
	popq	%rbp
	.cfi_def_cfa %rsp, 8
	retq
.LBB23_3:                               # %func_reorder_long_term.39
	.cfi_def_cfa %rbp, 16
	movq	%rbx, %rdi
	movl	%r12d, %esi
	movl	%r15d, %edx
	movq	%r14, %rcx
	callq	reorder_long_term.39
	popq	%rbx
	popq	%r12
	popq	%r14
	popq	%r15
	popq	%rbp
	.cfi_def_cfa %rsp, 8
	retq
.LBB23_4:                               # %func_reorder_long_term.53
	.cfi_def_cfa %rbp, 16
	movq	%rbx, %rdi
	movl	%r12d, %esi
	movl	%r15d, %edx
	movq	%r14, %rcx
	callq	reorder_long_term.53
	popq	%rbx
	popq	%r12
	popq	%r14
	popq	%r15
	popq	%rbp
	.cfi_def_cfa %rsp, 8
	retq
.LBB23_5:                               # %ctrl0
	.cfi_def_cfa %rbp, 16
	cmpl	$1, %eax
	je	.LBB23_2
# %bb.6:                                # %ctrl1
	cmpl	$2, %eax
	je	.LBB23_3
	jmp	.LBB23_4
.Lfunc_end23:
	.size	reorder_long_term, .Lfunc_end23-reorder_long_term
	.cfi_endproc
                                        # -- End function
	.globl	update_ref_list         # -- Begin function update_ref_list
	.p2align	4, 0x90
	.type	update_ref_list,@function
update_ref_list:                        # @update_ref_list
	.cfi_startproc
# %bb.0:                                # %rand_bb
	pushq	%rbp
	.cfi_def_cfa_offset 16
	.cfi_offset %rbp, -16
	movq	%rsp, %rbp
	.cfi_def_cfa_register %rbp
	callq	get_rand
	cmpl	$0, %eax
	jne	.LBB24_2
# %bb.1:                                # %func_update_ref_list.4
	callq	update_ref_list.4
	popq	%rbp
	.cfi_def_cfa %rsp, 8
	retq
.LBB24_2:                               # %func_update_ref_list.111
	.cfi_def_cfa %rbp, 16
	callq	update_ref_list.111
	popq	%rbp
	.cfi_def_cfa %rsp, 8
	retq
.Lfunc_end24:
	.size	update_ref_list, .Lfunc_end24-update_ref_list
	.cfi_endproc
                                        # -- End function
	.p2align	4, 0x90         # -- Begin function is_short_term_reference
	.type	is_short_term_reference,@function
is_short_term_reference:                # @is_short_term_reference
	.cfi_startproc
# %bb.0:                                # %rand_bb
	pushq	%rbp
	.cfi_def_cfa_offset 16
	.cfi_offset %rbp, -16
	movq	%rsp, %rbp
	.cfi_def_cfa_register %rbp
	pushq	%rbx
	pushq	%rax
	.cfi_offset %rbx, -24
	movq	%rdi, %rbx
	callq	get_rand
	cmpl	$0, %eax
	jne	.LBB25_2
# %bb.1:                                # %func_is_short_term_reference.102
	movq	%rbx, %rdi
	callq	is_short_term_reference.102
	addq	$8, %rsp
	popq	%rbx
	popq	%rbp
	.cfi_def_cfa %rsp, 8
	retq
.LBB25_2:                               # %func_is_short_term_reference.117
	.cfi_def_cfa %rbp, 16
	movq	%rbx, %rdi
	callq	is_short_term_reference.117
	addq	$8, %rsp
	popq	%rbx
	popq	%rbp
	.cfi_def_cfa %rsp, 8
	retq
.Lfunc_end25:
	.size	is_short_term_reference, .Lfunc_end25-is_short_term_reference
	.cfi_endproc
                                        # -- End function
	.globl	update_ltref_list       # -- Begin function update_ltref_list
	.p2align	4, 0x90
	.type	update_ltref_list,@function
update_ltref_list:                      # @update_ltref_list
	.cfi_startproc
# %bb.0:                                # %rand_bb
	pushq	%rbp
	.cfi_def_cfa_offset 16
	.cfi_offset %rbp, -16
	movq	%rsp, %rbp
	.cfi_def_cfa_register %rbp
	callq	get_rand
	cmpl	$0, %eax
	jne	.LBB26_2
# %bb.1:                                # %func_update_ltref_list.37
	callq	update_ltref_list.37
	popq	%rbp
	.cfi_def_cfa %rsp, 8
	retq
.LBB26_2:                               # %func_update_ltref_list.38
	.cfi_def_cfa %rbp, 16
	callq	update_ltref_list.38
	popq	%rbp
	.cfi_def_cfa %rsp, 8
	retq
.Lfunc_end26:
	.size	update_ltref_list, .Lfunc_end26-update_ltref_list
	.cfi_endproc
                                        # -- End function
	.p2align	4, 0x90         # -- Begin function is_long_term_reference
	.type	is_long_term_reference,@function
is_long_term_reference:                 # @is_long_term_reference
	.cfi_startproc
# %bb.0:                                # %rand_bb
	pushq	%rbp
	.cfi_def_cfa_offset 16
	.cfi_offset %rbp, -16
	movq	%rsp, %rbp
	.cfi_def_cfa_register %rbp
	pushq	%rbx
	pushq	%rax
	.cfi_offset %rbx, -24
	movq	%rdi, %rbx
	callq	get_rand
	cmpl	$0, %eax
	jne	.LBB27_2
# %bb.1:                                # %func_is_long_term_reference.46
	movq	%rbx, %rdi
	callq	is_long_term_reference.46
	addq	$8, %rsp
	popq	%rbx
	popq	%rbp
	.cfi_def_cfa %rsp, 8
	retq
.LBB27_2:                               # %func_is_long_term_reference.107
	.cfi_def_cfa %rbp, 16
	movq	%rbx, %rdi
	callq	is_long_term_reference.107
	addq	$8, %rsp
	popq	%rbx
	popq	%rbp
	.cfi_def_cfa %rsp, 8
	retq
.Lfunc_end27:
	.size	is_long_term_reference, .Lfunc_end27-is_long_term_reference
	.cfi_endproc
                                        # -- End function
	.globl	mm_update_max_long_term_frame_idx # -- Begin function mm_update_max_long_term_frame_idx
	.p2align	4, 0x90
	.type	mm_update_max_long_term_frame_idx,@function
mm_update_max_long_term_frame_idx:      # @mm_update_max_long_term_frame_idx
	.cfi_startproc
# %bb.0:                                # %rand_bb
	pushq	%rbp
	.cfi_def_cfa_offset 16
	.cfi_offset %rbp, -16
	movq	%rsp, %rbp
	.cfi_def_cfa_register %rbp
	pushq	%rbx
	pushq	%rax
	.cfi_offset %rbx, -24
	movl	%edi, %ebx
	callq	get_rand
	cmpl	$0, %eax
	jne	.LBB28_2
# %bb.1:                                # %func_mm_update_max_long_term_frame_idx.50
	movl	%ebx, %edi
	callq	mm_update_max_long_term_frame_idx.50
	addq	$8, %rsp
	popq	%rbx
	popq	%rbp
	.cfi_def_cfa %rsp, 8
	retq
.LBB28_2:                               # %func_mm_update_max_long_term_frame_idx.63
	.cfi_def_cfa %rbp, 16
	movl	%ebx, %edi
	callq	mm_update_max_long_term_frame_idx.63
	addq	$8, %rsp
	popq	%rbx
	popq	%rbp
	.cfi_def_cfa %rsp, 8
	retq
.Lfunc_end28:
	.size	mm_update_max_long_term_frame_idx, .Lfunc_end28-mm_update_max_long_term_frame_idx
	.cfi_endproc
                                        # -- End function
	.p2align	4, 0x90         # -- Begin function unmark_for_long_term_reference
	.type	unmark_for_long_term_reference,@function
unmark_for_long_term_reference:         # @unmark_for_long_term_reference
	.cfi_startproc
# %bb.0:                                # %entry
	pushq	%rbp
	.cfi_def_cfa_offset 16
	.cfi_offset %rbp, -16
	movq	%rsp, %rbp
	.cfi_def_cfa_register %rbp
	movq	%rdi, -8(%rbp)
	movq	active_sps, %rax
	cmpl	$0, 1148(%rax)
	jne	.LBB29_6
# %bb.1:                                # %if.then
	movq	-8(%rbp), %rax
	movl	(%rax), %eax
	andl	$1, %eax
	cmpl	$0, %eax
	je	.LBB29_3
# %bb.2:                                # %if.then2
	movq	-8(%rbp), %rax
	movq	48(%rax), %rax
	movl	$0, 6380(%rax)
	movq	-8(%rbp), %rax
	movq	48(%rax), %rax
	movl	$0, 6376(%rax)
.LBB29_3:                               # %if.end
	movq	-8(%rbp), %rax
	movl	(%rax), %eax
	andl	$2, %eax
	cmpl	$0, %eax
	je	.LBB29_5
# %bb.4:                                # %if.then7
	movq	-8(%rbp), %rax
	movq	56(%rax), %rax
	movl	$0, 6380(%rax)
	movq	-8(%rbp), %rax
	movq	56(%rax), %rax
	movl	$0, 6376(%rax)
.LBB29_5:                               # %if.end11
	jmp	.LBB29_6
.LBB29_6:                               # %if.end12
	movq	-8(%rbp), %rax
	cmpl	$3, (%rax)
	jne	.LBB29_10
# %bb.7:                                # %if.then14
	movq	active_sps, %rax
	cmpl	$0, 1148(%rax)
	jne	.LBB29_9
# %bb.8:                                # %if.then17
	movq	-8(%rbp), %rax
	movq	48(%rax), %rax
	movl	$0, 6380(%rax)
	movq	-8(%rbp), %rax
	movq	48(%rax), %rax
	movl	$0, 6376(%rax)
	movq	-8(%rbp), %rax
	movq	56(%rax), %rax
	movl	$0, 6380(%rax)
	movq	-8(%rbp), %rax
	movq	56(%rax), %rax
	movl	$0, 6376(%rax)
.LBB29_9:                               # %if.end26
	movq	-8(%rbp), %rax
	movq	40(%rax), %rax
	movl	$0, 6380(%rax)
	movq	-8(%rbp), %rax
	movq	40(%rax), %rax
	movl	$0, 6376(%rax)
.LBB29_10:                              # %if.end30
	movq	-8(%rbp), %rax
	movl	$0, 4(%rax)
	movq	-8(%rbp), %rax
	movl	$0, 8(%rax)
	popq	%rbp
	.cfi_def_cfa %rsp, 8
	retq
.Lfunc_end29:
	.size	unmark_for_long_term_reference, .Lfunc_end29-unmark_for_long_term_reference
	.cfi_endproc
                                        # -- End function
	.globl	store_picture_in_dpb    # -- Begin function store_picture_in_dpb
	.p2align	4, 0x90
	.type	store_picture_in_dpb,@function
store_picture_in_dpb:                   # @store_picture_in_dpb
	.cfi_startproc
# %bb.0:                                # %rand_bb
	pushq	%rbp
	.cfi_def_cfa_offset 16
	.cfi_offset %rbp, -16
	movq	%rsp, %rbp
	.cfi_def_cfa_register %rbp
	pushq	%rbx
	pushq	%rax
	.cfi_offset %rbx, -24
	movq	%rdi, %rbx
	callq	get_rand
	cmpl	$0, %eax
	jne	.LBB30_5
# %bb.1:                                # %func_store_picture_in_dpb.88
	movq	%rbx, %rdi
	callq	store_picture_in_dpb.88
	addq	$8, %rsp
	popq	%rbx
	popq	%rbp
	.cfi_def_cfa %rsp, 8
	retq
.LBB30_2:                               # %func_store_picture_in_dpb.109
	.cfi_def_cfa %rbp, 16
	movq	%rbx, %rdi
	callq	store_picture_in_dpb.109
	addq	$8, %rsp
	popq	%rbx
	popq	%rbp
	.cfi_def_cfa %rsp, 8
	retq
.LBB30_3:                               # %func_store_picture_in_dpb.113
	.cfi_def_cfa %rbp, 16
	movq	%rbx, %rdi
	callq	store_picture_in_dpb.113
	addq	$8, %rsp
	popq	%rbx
	popq	%rbp
	.cfi_def_cfa %rsp, 8
	retq
.LBB30_4:                               # %func_store_picture_in_dpb.147
	.cfi_def_cfa %rbp, 16
	movq	%rbx, %rdi
	callq	store_picture_in_dpb.147
	addq	$8, %rsp
	popq	%rbx
	popq	%rbp
	.cfi_def_cfa %rsp, 8
	retq
.LBB30_5:                               # %ctrl0
	.cfi_def_cfa %rbp, 16
	cmpl	$1, %eax
	je	.LBB30_2
# %bb.6:                                # %ctrl1
	cmpl	$2, %eax
	je	.LBB30_3
	jmp	.LBB30_4
.Lfunc_end30:
	.size	store_picture_in_dpb, .Lfunc_end30-store_picture_in_dpb
	.cfi_endproc
                                        # -- End function
	.p2align	4, 0x90         # -- Begin function idr_memory_management
	.type	idr_memory_management,@function
idr_memory_management:                  # @idr_memory_management
	.cfi_startproc
# %bb.0:                                # %rand_bb
	pushq	%rbp
	.cfi_def_cfa_offset 16
	.cfi_offset %rbp, -16
	movq	%rsp, %rbp
	.cfi_def_cfa_register %rbp
	pushq	%rbx
	pushq	%rax
	.cfi_offset %rbx, -24
	movq	%rdi, %rbx
	callq	get_rand
	cmpl	$0, %eax
	jne	.LBB31_2
# %bb.1:                                # %func_idr_memory_management.36
	movq	%rbx, %rdi
	callq	idr_memory_management.36
	addq	$8, %rsp
	popq	%rbx
	popq	%rbp
	.cfi_def_cfa %rsp, 8
	retq
.LBB31_2:                               # %func_idr_memory_management.104
	.cfi_def_cfa %rbp, 16
	movq	%rbx, %rdi
	callq	idr_memory_management.104
	addq	$8, %rsp
	popq	%rbx
	popq	%rbp
	.cfi_def_cfa %rsp, 8
	retq
.Lfunc_end31:
	.size	idr_memory_management, .Lfunc_end31-idr_memory_management
	.cfi_endproc
                                        # -- End function
	.p2align	4, 0x90         # -- Begin function adaptive_memory_management
	.type	adaptive_memory_management,@function
adaptive_memory_management:             # @adaptive_memory_management
	.cfi_startproc
# %bb.0:                                # %rand_bb
	pushq	%rbp
	.cfi_def_cfa_offset 16
	.cfi_offset %rbp, -16
	movq	%rsp, %rbp
	.cfi_def_cfa_register %rbp
	pushq	%rbx
	pushq	%rax
	.cfi_offset %rbx, -24
	movq	%rdi, %rbx
	callq	get_rand
	cmpl	$0, %eax
	jne	.LBB32_2
# %bb.1:                                # %func_adaptive_memory_management.82
	movq	%rbx, %rdi
	callq	adaptive_memory_management.82
	addq	$8, %rsp
	popq	%rbx
	popq	%rbp
	.cfi_def_cfa %rsp, 8
	retq
.LBB32_2:                               # %func_adaptive_memory_management.85
	.cfi_def_cfa %rbp, 16
	movq	%rbx, %rdi
	callq	adaptive_memory_management.85
	addq	$8, %rsp
	popq	%rbx
	popq	%rbp
	.cfi_def_cfa %rsp, 8
	retq
.Lfunc_end32:
	.size	adaptive_memory_management, .Lfunc_end32-adaptive_memory_management
	.cfi_endproc
                                        # -- End function
	.p2align	4, 0x90         # -- Begin function insert_picture_in_dpb
	.type	insert_picture_in_dpb,@function
insert_picture_in_dpb:                  # @insert_picture_in_dpb
	.cfi_startproc
# %bb.0:                                # %rand_bb
	pushq	%rbp
	.cfi_def_cfa_offset 16
	.cfi_offset %rbp, -16
	movq	%rsp, %rbp
	.cfi_def_cfa_register %rbp
	pushq	%r14
	pushq	%rbx
	.cfi_offset %rbx, -32
	.cfi_offset %r14, -24
	movq	%rsi, %r14
	movq	%rdi, %rbx
	callq	get_rand
	cmpl	$0, %eax
	jne	.LBB33_2
# %bb.1:                                # %func_insert_picture_in_dpb.71
	movq	%rbx, %rdi
	movq	%r14, %rsi
	callq	insert_picture_in_dpb.71
	popq	%rbx
	popq	%r14
	popq	%rbp
	.cfi_def_cfa %rsp, 8
	retq
.LBB33_2:                               # %func_insert_picture_in_dpb.101
	.cfi_def_cfa %rbp, 16
	movq	%rbx, %rdi
	movq	%r14, %rsi
	callq	insert_picture_in_dpb.101
	popq	%rbx
	popq	%r14
	popq	%rbp
	.cfi_def_cfa %rsp, 8
	retq
.Lfunc_end33:
	.size	insert_picture_in_dpb, .Lfunc_end33-insert_picture_in_dpb
	.cfi_endproc
                                        # -- End function
	.p2align	4, 0x90         # -- Begin function sliding_window_memory_management
	.type	sliding_window_memory_management,@function
sliding_window_memory_management:       # @sliding_window_memory_management
	.cfi_startproc
# %bb.0:                                # %rand_bb
	pushq	%rbp
	.cfi_def_cfa_offset 16
	.cfi_offset %rbp, -16
	movq	%rsp, %rbp
	.cfi_def_cfa_register %rbp
	pushq	%rbx
	pushq	%rax
	.cfi_offset %rbx, -24
	movq	%rdi, %rbx
	callq	get_rand
	cmpl	$0, %eax
	jne	.LBB34_2
# %bb.1:                                # %func_sliding_window_memory_management.110
	movq	%rbx, %rdi
	callq	sliding_window_memory_management.110
	addq	$8, %rsp
	popq	%rbx
	popq	%rbp
	.cfi_def_cfa %rsp, 8
	retq
.LBB34_2:                               # %func_sliding_window_memory_management.133
	.cfi_def_cfa %rbp, 16
	movq	%rbx, %rdi
	callq	sliding_window_memory_management.133
	addq	$8, %rsp
	popq	%rbx
	popq	%rbp
	.cfi_def_cfa %rsp, 8
	retq
.Lfunc_end34:
	.size	sliding_window_memory_management, .Lfunc_end34-sliding_window_memory_management
	.cfi_endproc
                                        # -- End function
	.p2align	4, 0x90         # -- Begin function get_smallest_poc
	.type	get_smallest_poc,@function
get_smallest_poc:                       # @get_smallest_poc
	.cfi_startproc
# %bb.0:                                # %rand_bb
	pushq	%rbp
	.cfi_def_cfa_offset 16
	.cfi_offset %rbp, -16
	movq	%rsp, %rbp
	.cfi_def_cfa_register %rbp
	pushq	%r14
	pushq	%rbx
	.cfi_offset %rbx, -32
	.cfi_offset %r14, -24
	movq	%rsi, %r14
	movq	%rdi, %rbx
	callq	get_rand
	cmpl	$0, %eax
	jne	.LBB35_5
# %bb.1:                                # %func_get_smallest_poc.17
	movq	%rbx, %rdi
	movq	%r14, %rsi
	callq	get_smallest_poc.17
	popq	%rbx
	popq	%r14
	popq	%rbp
	.cfi_def_cfa %rsp, 8
	retq
.LBB35_2:                               # %func_get_smallest_poc.54
	.cfi_def_cfa %rbp, 16
	movq	%rbx, %rdi
	movq	%r14, %rsi
	callq	get_smallest_poc.54
	popq	%rbx
	popq	%r14
	popq	%rbp
	.cfi_def_cfa %rsp, 8
	retq
.LBB35_3:                               # %func_get_smallest_poc.87
	.cfi_def_cfa %rbp, 16
	movq	%rbx, %rdi
	movq	%r14, %rsi
	callq	get_smallest_poc.87
	popq	%rbx
	popq	%r14
	popq	%rbp
	.cfi_def_cfa %rsp, 8
	retq
.LBB35_4:                               # %func_get_smallest_poc.91
	.cfi_def_cfa %rbp, 16
	movq	%rbx, %rdi
	movq	%r14, %rsi
	callq	get_smallest_poc.91
	popq	%rbx
	popq	%r14
	popq	%rbp
	.cfi_def_cfa %rsp, 8
	retq
.LBB35_5:                               # %ctrl0
	.cfi_def_cfa %rbp, 16
	cmpl	$1, %eax
	je	.LBB35_2
# %bb.6:                                # %ctrl1
	cmpl	$2, %eax
	je	.LBB35_3
	jmp	.LBB35_4
.Lfunc_end35:
	.size	get_smallest_poc, .Lfunc_end35-get_smallest_poc
	.cfi_endproc
                                        # -- End function
	.globl	replace_top_pic_with_frame # -- Begin function replace_top_pic_with_frame
	.p2align	4, 0x90
	.type	replace_top_pic_with_frame,@function
replace_top_pic_with_frame:             # @replace_top_pic_with_frame
	.cfi_startproc
# %bb.0:                                # %rand_bb
	pushq	%rbp
	.cfi_def_cfa_offset 16
	.cfi_offset %rbp, -16
	movq	%rsp, %rbp
	.cfi_def_cfa_register %rbp
	pushq	%rbx
	pushq	%rax
	.cfi_offset %rbx, -24
	movq	%rdi, %rbx
	callq	get_rand
	cmpl	$0, %eax
	jne	.LBB36_5
# %bb.1:                                # %func_replace_top_pic_with_frame.1
	movq	%rbx, %rdi
	callq	replace_top_pic_with_frame.1
	addq	$8, %rsp
	popq	%rbx
	popq	%rbp
	.cfi_def_cfa %rsp, 8
	retq
.LBB36_2:                               # %func_replace_top_pic_with_frame.20
	.cfi_def_cfa %rbp, 16
	movq	%rbx, %rdi
	callq	replace_top_pic_with_frame.20
	addq	$8, %rsp
	popq	%rbx
	popq	%rbp
	.cfi_def_cfa %rsp, 8
	retq
.LBB36_3:                               # %func_replace_top_pic_with_frame.106
	.cfi_def_cfa %rbp, 16
	movq	%rbx, %rdi
	callq	replace_top_pic_with_frame.106
	addq	$8, %rsp
	popq	%rbx
	popq	%rbp
	.cfi_def_cfa %rsp, 8
	retq
.LBB36_4:                               # %func_replace_top_pic_with_frame.129
	.cfi_def_cfa %rbp, 16
	movq	%rbx, %rdi
	callq	replace_top_pic_with_frame.129
	addq	$8, %rsp
	popq	%rbx
	popq	%rbp
	.cfi_def_cfa %rsp, 8
	retq
.LBB36_5:                               # %ctrl0
	.cfi_def_cfa %rbp, 16
	cmpl	$1, %eax
	je	.LBB36_2
# %bb.6:                                # %ctrl1
	cmpl	$2, %eax
	je	.LBB36_3
	jmp	.LBB36_4
.Lfunc_end36:
	.size	replace_top_pic_with_frame, .Lfunc_end36-replace_top_pic_with_frame
	.cfi_endproc
                                        # -- End function
	.globl	dpb_split_field         # -- Begin function dpb_split_field
	.p2align	4, 0x90
	.type	dpb_split_field,@function
dpb_split_field:                        # @dpb_split_field
	.cfi_startproc
# %bb.0:                                # %rand_bb
	pushq	%rbp
	.cfi_def_cfa_offset 16
	.cfi_offset %rbp, -16
	movq	%rsp, %rbp
	.cfi_def_cfa_register %rbp
	pushq	%rbx
	pushq	%rax
	.cfi_offset %rbx, -24
	movq	%rdi, %rbx
	callq	get_rand
	cmpl	$0, %eax
	jne	.LBB37_5
# %bb.1:                                # %func_dpb_split_field.33
	movq	%rbx, %rdi
	callq	dpb_split_field.33
	addq	$8, %rsp
	popq	%rbx
	popq	%rbp
	.cfi_def_cfa %rsp, 8
	retq
.LBB37_2:                               # %func_dpb_split_field.44
	.cfi_def_cfa %rbp, 16
	movq	%rbx, %rdi
	callq	dpb_split_field.44
	addq	$8, %rsp
	popq	%rbx
	popq	%rbp
	.cfi_def_cfa %rsp, 8
	retq
.LBB37_3:                               # %func_dpb_split_field.122
	.cfi_def_cfa %rbp, 16
	movq	%rbx, %rdi
	callq	dpb_split_field.122
	addq	$8, %rsp
	popq	%rbx
	popq	%rbp
	.cfi_def_cfa %rsp, 8
	retq
.LBB37_4:                               # %func_dpb_split_field.137
	.cfi_def_cfa %rbp, 16
	movq	%rbx, %rdi
	callq	dpb_split_field.137
	addq	$8, %rsp
	popq	%rbx
	popq	%rbp
	.cfi_def_cfa %rsp, 8
	retq
.LBB37_5:                               # %ctrl0
	.cfi_def_cfa %rbp, 16
	cmpl	$1, %eax
	je	.LBB37_2
# %bb.6:                                # %ctrl1
	cmpl	$2, %eax
	je	.LBB37_3
	jmp	.LBB37_4
.Lfunc_end37:
	.size	dpb_split_field, .Lfunc_end37-dpb_split_field
	.cfi_endproc
                                        # -- End function
	.globl	flush_dpb               # -- Begin function flush_dpb
	.p2align	4, 0x90
	.type	flush_dpb,@function
flush_dpb:                              # @flush_dpb
	.cfi_startproc
# %bb.0:                                # %entry
	pushq	%rbp
	.cfi_def_cfa_offset 16
	.cfi_offset %rbp, -16
	movq	%rsp, %rbp
	.cfi_def_cfa_register %rbp
	subq	$16, %rsp
	movl	$0, -4(%rbp)
.LBB38_1:                               # %for.cond
                                        # =>This Inner Loop Header: Depth=1
	movl	-4(%rbp), %eax
	cmpl	dpb+28, %eax
	jae	.LBB38_4
# %bb.2:                                # %for.body
                                        #   in Loop: Header=BB38_1 Depth=1
	movq	dpb, %rax
	movl	-4(%rbp), %ecx
	movq	(%rax,%rcx,8), %rdi
	callq	unmark_for_reference
# %bb.3:                                # %for.inc
                                        #   in Loop: Header=BB38_1 Depth=1
	movl	-4(%rbp), %eax
	addl	$1, %eax
	movl	%eax, -4(%rbp)
	jmp	.LBB38_1
.LBB38_4:                               # %for.end
	jmp	.LBB38_5
.LBB38_5:                               # %while.cond
                                        # =>This Inner Loop Header: Depth=1
	callq	remove_unused_frame_from_dpb
	cmpl	$0, %eax
	je	.LBB38_7
# %bb.6:                                # %while.body
                                        #   in Loop: Header=BB38_5 Depth=1
	jmp	.LBB38_5
.LBB38_7:                               # %while.end
	jmp	.LBB38_8
.LBB38_8:                               # %while.cond1
                                        # =>This Inner Loop Header: Depth=1
	cmpl	$0, dpb+28
	je	.LBB38_10
# %bb.9:                                # %while.body3
                                        #   in Loop: Header=BB38_8 Depth=1
	callq	output_one_frame_from_dpb
	jmp	.LBB38_8
.LBB38_10:                              # %while.end4
	movl	$-2147483648, dpb+40    # imm = 0x80000000
	addq	$16, %rsp
	popq	%rbp
	.cfi_def_cfa %rsp, 8
	retq
.Lfunc_end38:
	.size	flush_dpb, .Lfunc_end38-flush_dpb
	.cfi_endproc
                                        # -- End function
	.p2align	4, 0x90         # -- Begin function unmark_for_reference
	.type	unmark_for_reference,@function
unmark_for_reference:                   # @unmark_for_reference
	.cfi_startproc
# %bb.0:                                # %entry
	pushq	%rbp
	.cfi_def_cfa_offset 16
	.cfi_offset %rbp, -16
	movq	%rsp, %rbp
	.cfi_def_cfa_register %rbp
	subq	$16, %rsp
	movq	%rdi, -8(%rbp)
	movq	active_sps, %rax
	cmpl	$0, 1148(%rax)
	jne	.LBB39_6
# %bb.1:                                # %if.then
	movq	-8(%rbp), %rax
	movl	(%rax), %eax
	andl	$1, %eax
	cmpl	$0, %eax
	je	.LBB39_3
# %bb.2:                                # %if.then2
	movq	-8(%rbp), %rax
	movq	48(%rax), %rax
	movl	$0, 6380(%rax)
.LBB39_3:                               # %if.end
	movq	-8(%rbp), %rax
	movl	(%rax), %eax
	andl	$2, %eax
	cmpl	$0, %eax
	je	.LBB39_5
# %bb.4:                                # %if.then6
	movq	-8(%rbp), %rax
	movq	56(%rax), %rax
	movl	$0, 6380(%rax)
.LBB39_5:                               # %if.end8
	jmp	.LBB39_6
.LBB39_6:                               # %if.end9
	movq	-8(%rbp), %rax
	cmpl	$3, (%rax)
	jne	.LBB39_10
# %bb.7:                                # %if.then11
	movq	active_sps, %rax
	cmpl	$0, 1148(%rax)
	jne	.LBB39_9
# %bb.8:                                # %if.then14
	movq	-8(%rbp), %rax
	movq	48(%rax), %rax
	movl	$0, 6380(%rax)
	movq	-8(%rbp), %rax
	movq	56(%rax), %rax
	movl	$0, 6380(%rax)
.LBB39_9:                               # %if.end19
	movq	-8(%rbp), %rax
	movq	40(%rax), %rax
	movl	$0, 6380(%rax)
.LBB39_10:                              # %if.end21
	movq	-8(%rbp), %rax
	movl	$0, 4(%rax)
	movq	-8(%rbp), %rax
	movq	40(%rax), %rax
	cmpq	$0, 6456(%rax)
	je	.LBB39_12
# %bb.11:                               # %if.then24
	movq	-8(%rbp), %rax
	movq	40(%rax), %rax
	movq	6456(%rax), %rdi
	callq	free_mem2Dpel
	movq	-8(%rbp), %rax
	movq	40(%rax), %rax
	movq	$0, 6456(%rax)
.LBB39_12:                              # %if.end29
	movq	-8(%rbp), %rax
	movq	40(%rax), %rax
	cmpq	$0, 6448(%rax)
	je	.LBB39_14
# %bb.13:                               # %if.then32
	movq	-8(%rbp), %rax
	movq	40(%rax), %rax
	movq	6448(%rax), %rdi
	callq	free_mem2Dpel
	movq	-8(%rbp), %rax
	movq	40(%rax), %rax
	movq	$0, 6448(%rax)
.LBB39_14:                              # %if.end37
	movq	-8(%rbp), %rax
	movq	40(%rax), %rax
	cmpq	$0, 6440(%rax)
	je	.LBB39_16
# %bb.15:                               # %if.then40
	movq	-8(%rbp), %rax
	movq	40(%rax), %rax
	movq	6440(%rax), %rdi
	callq	free
	movq	-8(%rbp), %rax
	movq	40(%rax), %rax
	movq	$0, 6440(%rax)
.LBB39_16:                              # %if.end45
	addq	$16, %rsp
	popq	%rbp
	.cfi_def_cfa %rsp, 8
	retq
.Lfunc_end39:
	.size	unmark_for_reference, .Lfunc_end39-unmark_for_reference
	.cfi_endproc
                                        # -- End function
	.globl	gen_field_ref_ids       # -- Begin function gen_field_ref_ids
	.p2align	4, 0x90
	.type	gen_field_ref_ids,@function
gen_field_ref_ids:                      # @gen_field_ref_ids
	.cfi_startproc
# %bb.0:                                # %rand_bb
	pushq	%rbp
	.cfi_def_cfa_offset 16
	.cfi_offset %rbp, -16
	movq	%rsp, %rbp
	.cfi_def_cfa_register %rbp
	pushq	%rbx
	pushq	%rax
	.cfi_offset %rbx, -24
	movq	%rdi, %rbx
	callq	get_rand
	cmpl	$0, %eax
	jne	.LBB40_5
# %bb.1:                                # %func_gen_field_ref_ids.2
	movq	%rbx, %rdi
	callq	gen_field_ref_ids.2
	addq	$8, %rsp
	popq	%rbx
	popq	%rbp
	.cfi_def_cfa %rsp, 8
	retq
.LBB40_2:                               # %func_gen_field_ref_ids.51
	.cfi_def_cfa %rbp, 16
	movq	%rbx, %rdi
	callq	gen_field_ref_ids.51
	addq	$8, %rsp
	popq	%rbx
	popq	%rbp
	.cfi_def_cfa %rsp, 8
	retq
.LBB40_3:                               # %func_gen_field_ref_ids.59
	.cfi_def_cfa %rbp, 16
	movq	%rbx, %rdi
	callq	gen_field_ref_ids.59
	addq	$8, %rsp
	popq	%rbx
	popq	%rbp
	.cfi_def_cfa %rsp, 8
	retq
.LBB40_4:                               # %func_gen_field_ref_ids.75
	.cfi_def_cfa %rbp, 16
	movq	%rbx, %rdi
	callq	gen_field_ref_ids.75
	addq	$8, %rsp
	popq	%rbx
	popq	%rbp
	.cfi_def_cfa %rsp, 8
	retq
.LBB40_5:                               # %ctrl0
	.cfi_def_cfa %rbp, 16
	cmpl	$1, %eax
	je	.LBB40_2
# %bb.6:                                # %ctrl1
	cmpl	$2, %eax
	je	.LBB40_3
	jmp	.LBB40_4
.Lfunc_end40:
	.size	gen_field_ref_ids, .Lfunc_end40-gen_field_ref_ids
	.cfi_endproc
                                        # -- End function
	.globl	dpb_combine_field       # -- Begin function dpb_combine_field
	.p2align	4, 0x90
	.type	dpb_combine_field,@function
dpb_combine_field:                      # @dpb_combine_field
	.cfi_startproc
# %bb.0:                                # %rand_bb
	pushq	%rbp
	.cfi_def_cfa_offset 16
	.cfi_offset %rbp, -16
	movq	%rsp, %rbp
	.cfi_def_cfa_register %rbp
	pushq	%rbx
	pushq	%rax
	.cfi_offset %rbx, -24
	movq	%rdi, %rbx
	callq	get_rand
	cmpl	$0, %eax
	jne	.LBB41_5
# %bb.1:                                # %func_dpb_combine_field.16
	movq	%rbx, %rdi
	callq	dpb_combine_field.16
	addq	$8, %rsp
	popq	%rbx
	popq	%rbp
	.cfi_def_cfa %rsp, 8
	retq
.LBB41_2:                               # %func_dpb_combine_field.35
	.cfi_def_cfa %rbp, 16
	movq	%rbx, %rdi
	callq	dpb_combine_field.35
	addq	$8, %rsp
	popq	%rbx
	popq	%rbp
	.cfi_def_cfa %rsp, 8
	retq
.LBB41_3:                               # %func_dpb_combine_field.56
	.cfi_def_cfa %rbp, 16
	movq	%rbx, %rdi
	callq	dpb_combine_field.56
	addq	$8, %rsp
	popq	%rbx
	popq	%rbp
	.cfi_def_cfa %rsp, 8
	retq
.LBB41_4:                               # %func_dpb_combine_field.97
	.cfi_def_cfa %rbp, 16
	movq	%rbx, %rdi
	callq	dpb_combine_field.97
	addq	$8, %rsp
	popq	%rbx
	popq	%rbp
	.cfi_def_cfa %rsp, 8
	retq
.LBB41_5:                               # %ctrl0
	.cfi_def_cfa %rbp, 16
	cmpl	$1, %eax
	je	.LBB41_2
# %bb.6:                                # %ctrl1
	cmpl	$2, %eax
	je	.LBB41_3
	jmp	.LBB41_4
.Lfunc_end41:
	.size	dpb_combine_field, .Lfunc_end41-dpb_combine_field
	.cfi_endproc
                                        # -- End function
	.globl	alloc_ref_pic_list_reordering_buffer # -- Begin function alloc_ref_pic_list_reordering_buffer
	.p2align	4, 0x90
	.type	alloc_ref_pic_list_reordering_buffer,@function
alloc_ref_pic_list_reordering_buffer:   # @alloc_ref_pic_list_reordering_buffer
	.cfi_startproc
# %bb.0:                                # %rand_bb
	pushq	%rbp
	.cfi_def_cfa_offset 16
	.cfi_offset %rbp, -16
	movq	%rsp, %rbp
	.cfi_def_cfa_register %rbp
	pushq	%rbx
	pushq	%rax
	.cfi_offset %rbx, -24
	movq	%rdi, %rbx
	callq	get_rand
	cmpl	$0, %eax
	jne	.LBB42_2
# %bb.1:                                # %func_alloc_ref_pic_list_reordering_buffer.9
	movq	%rbx, %rdi
	callq	alloc_ref_pic_list_reordering_buffer.9
	addq	$8, %rsp
	popq	%rbx
	popq	%rbp
	.cfi_def_cfa %rsp, 8
	retq
.LBB42_2:                               # %func_alloc_ref_pic_list_reordering_buffer.64
	.cfi_def_cfa %rbp, 16
	movq	%rbx, %rdi
	callq	alloc_ref_pic_list_reordering_buffer.64
	addq	$8, %rsp
	popq	%rbx
	popq	%rbp
	.cfi_def_cfa %rsp, 8
	retq
.Lfunc_end42:
	.size	alloc_ref_pic_list_reordering_buffer, .Lfunc_end42-alloc_ref_pic_list_reordering_buffer
	.cfi_endproc
                                        # -- End function
	.globl	free_ref_pic_list_reordering_buffer # -- Begin function free_ref_pic_list_reordering_buffer
	.p2align	4, 0x90
	.type	free_ref_pic_list_reordering_buffer,@function
free_ref_pic_list_reordering_buffer:    # @free_ref_pic_list_reordering_buffer
	.cfi_startproc
# %bb.0:                                # %entry
	pushq	%rbp
	.cfi_def_cfa_offset 16
	.cfi_offset %rbp, -16
	movq	%rsp, %rbp
	.cfi_def_cfa_register %rbp
	subq	$16, %rsp
	movq	%rdi, -8(%rbp)
	movq	-8(%rbp), %rax
	cmpq	$0, 64(%rax)
	je	.LBB43_2
# %bb.1:                                # %if.then
	movq	-8(%rbp), %rax
	movq	64(%rax), %rdi
	callq	free
.LBB43_2:                               # %if.end
	movq	-8(%rbp), %rax
	cmpq	$0, 72(%rax)
	je	.LBB43_4
# %bb.3:                                # %if.then3
	movq	-8(%rbp), %rax
	movq	72(%rax), %rdi
	callq	free
.LBB43_4:                               # %if.end5
	movq	-8(%rbp), %rax
	cmpq	$0, 80(%rax)
	je	.LBB43_6
# %bb.5:                                # %if.then7
	movq	-8(%rbp), %rax
	movq	80(%rax), %rdi
	callq	free
.LBB43_6:                               # %if.end9
	movq	-8(%rbp), %rax
	movq	$0, 64(%rax)
	movq	-8(%rbp), %rax
	movq	$0, 72(%rax)
	movq	-8(%rbp), %rax
	movq	$0, 80(%rax)
	movq	-8(%rbp), %rax
	cmpq	$0, 96(%rax)
	je	.LBB43_8
# %bb.7:                                # %if.then14
	movq	-8(%rbp), %rax
	movq	96(%rax), %rdi
	callq	free
.LBB43_8:                               # %if.end16
	movq	-8(%rbp), %rax
	cmpq	$0, 104(%rax)
	je	.LBB43_10
# %bb.9:                                # %if.then18
	movq	-8(%rbp), %rax
	movq	104(%rax), %rdi
	callq	free
.LBB43_10:                              # %if.end20
	movq	-8(%rbp), %rax
	cmpq	$0, 112(%rax)
	je	.LBB43_12
# %bb.11:                               # %if.then22
	movq	-8(%rbp), %rax
	movq	112(%rax), %rdi
	callq	free
.LBB43_12:                              # %if.end24
	movq	-8(%rbp), %rax
	movq	$0, 96(%rax)
	movq	-8(%rbp), %rax
	movq	$0, 104(%rax)
	movq	-8(%rbp), %rax
	movq	$0, 112(%rax)
	addq	$16, %rsp
	popq	%rbp
	.cfi_def_cfa %rsp, 8
	retq
.Lfunc_end43:
	.size	free_ref_pic_list_reordering_buffer, .Lfunc_end43-free_ref_pic_list_reordering_buffer
	.cfi_endproc
                                        # -- End function
	.globl	fill_frame_num_gap      # -- Begin function fill_frame_num_gap
	.p2align	4, 0x90
	.type	fill_frame_num_gap,@function
fill_frame_num_gap:                     # @fill_frame_num_gap
	.cfi_startproc
# %bb.0:                                # %rand_bb
	pushq	%rbp
	.cfi_def_cfa_offset 16
	.cfi_offset %rbp, -16
	movq	%rsp, %rbp
	.cfi_def_cfa_register %rbp
	pushq	%rbx
	pushq	%rax
	.cfi_offset %rbx, -24
	movq	%rdi, %rbx
	callq	get_rand
	cmpl	$0, %eax
	jne	.LBB44_5
# %bb.1:                                # %func_fill_frame_num_gap.151
	movq	%rbx, %rdi
	callq	fill_frame_num_gap.151
	addq	$8, %rsp
	popq	%rbx
	popq	%rbp
	.cfi_def_cfa %rsp, 8
	retq
.LBB44_2:                               # %func_fill_frame_num_gap.162
	.cfi_def_cfa %rbp, 16
	movq	%rbx, %rdi
	callq	fill_frame_num_gap.162
	addq	$8, %rsp
	popq	%rbx
	popq	%rbp
	.cfi_def_cfa %rsp, 8
	retq
.LBB44_3:                               # %func_fill_frame_num_gap.163
	.cfi_def_cfa %rbp, 16
	movq	%rbx, %rdi
	callq	fill_frame_num_gap.163
	addq	$8, %rsp
	popq	%rbx
	popq	%rbp
	.cfi_def_cfa %rsp, 8
	retq
.LBB44_4:                               # %func_fill_frame_num_gap.164
	.cfi_def_cfa %rbp, 16
	movq	%rbx, %rdi
	callq	fill_frame_num_gap.164
	addq	$8, %rsp
	popq	%rbx
	popq	%rbp
	.cfi_def_cfa %rsp, 8
	retq
.LBB44_5:                               # %ctrl0
	.cfi_def_cfa %rbp, 16
	cmpl	$1, %eax
	je	.LBB44_2
# %bb.6:                                # %ctrl1
	cmpl	$2, %eax
	je	.LBB44_3
	jmp	.LBB44_4
.Lfunc_end44:
	.size	fill_frame_num_gap, .Lfunc_end44-fill_frame_num_gap
	.cfi_endproc
                                        # -- End function
	.globl	alloc_colocated         # -- Begin function alloc_colocated
	.p2align	4, 0x90
	.type	alloc_colocated,@function
alloc_colocated:                        # @alloc_colocated
	.cfi_startproc
# %bb.0:                                # %rand_bb
	pushq	%rbp
	.cfi_def_cfa_offset 16
	.cfi_offset %rbp, -16
	movq	%rsp, %rbp
	.cfi_def_cfa_register %rbp
	pushq	%r15
	pushq	%r14
	pushq	%rbx
	pushq	%rax
	.cfi_offset %rbx, -40
	.cfi_offset %r14, -32
	.cfi_offset %r15, -24
	movl	%edx, %r14d
	movl	%esi, %r15d
	movl	%edi, %ebx
	callq	get_rand
	cmpl	$0, %eax
	jne	.LBB45_5
# %bb.1:                                # %func_alloc_colocated.11
	movl	%ebx, %edi
	movl	%r15d, %esi
	movl	%r14d, %edx
	callq	alloc_colocated.11
	addq	$8, %rsp
	popq	%rbx
	popq	%r14
	popq	%r15
	popq	%rbp
	.cfi_def_cfa %rsp, 8
	retq
.LBB45_2:                               # %func_alloc_colocated.24
	.cfi_def_cfa %rbp, 16
	movl	%ebx, %edi
	movl	%r15d, %esi
	movl	%r14d, %edx
	callq	alloc_colocated.24
	addq	$8, %rsp
	popq	%rbx
	popq	%r14
	popq	%r15
	popq	%rbp
	.cfi_def_cfa %rsp, 8
	retq
.LBB45_3:                               # %func_alloc_colocated.29
	.cfi_def_cfa %rbp, 16
	movl	%ebx, %edi
	movl	%r15d, %esi
	movl	%r14d, %edx
	callq	alloc_colocated.29
	addq	$8, %rsp
	popq	%rbx
	popq	%r14
	popq	%r15
	popq	%rbp
	.cfi_def_cfa %rsp, 8
	retq
.LBB45_4:                               # %func_alloc_colocated.49
	.cfi_def_cfa %rbp, 16
	movl	%ebx, %edi
	movl	%r15d, %esi
	movl	%r14d, %edx
	callq	alloc_colocated.49
	addq	$8, %rsp
	popq	%rbx
	popq	%r14
	popq	%r15
	popq	%rbp
	.cfi_def_cfa %rsp, 8
	retq
.LBB45_5:                               # %ctrl0
	.cfi_def_cfa %rbp, 16
	cmpl	$1, %eax
	je	.LBB45_2
# %bb.6:                                # %ctrl1
	cmpl	$2, %eax
	je	.LBB45_3
	jmp	.LBB45_4
.Lfunc_end45:
	.size	alloc_colocated, .Lfunc_end45-alloc_colocated
	.cfi_endproc
                                        # -- End function
	.globl	free_colocated          # -- Begin function free_colocated
	.p2align	4, 0x90
	.type	free_colocated,@function
free_colocated:                         # @free_colocated
	.cfi_startproc
# %bb.0:                                # %entry
	pushq	%rbp
	.cfi_def_cfa_offset 16
	.cfi_offset %rbp, -16
	movq	%rsp, %rbp
	.cfi_def_cfa_register %rbp
	subq	$16, %rsp
	movq	%rdi, -8(%rbp)
	cmpq	$0, -8(%rbp)
	je	.LBB46_12
# %bb.1:                                # %if.then
	movq	-8(%rbp), %rax
	movq	1600(%rax), %rdi
	movl	$2, %esi
	callq	free_mem3Dshort
	movq	-8(%rbp), %rax
	movq	1608(%rax), %rdi
	movl	$2, %esi
	callq	free_mem3Dint64
	movq	-8(%rbp), %rax
	movq	1616(%rax), %rdi
	movq	-8(%rbp), %rax
	movl	4(%rax), %eax
	cltd
	movl	$4, %ecx
	idivl	%ecx
	movl	$2, %esi
	movl	%eax, %edx
	callq	free_mem4Dshort
	movq	-8(%rbp), %rax
	cmpq	$0, 1624(%rax)
	je	.LBB46_3
# %bb.2:                                # %if.then2
	movq	-8(%rbp), %rax
	movq	1624(%rax), %rdi
	callq	free_mem2D
	movq	-8(%rbp), %rax
	movq	$0, 1624(%rax)
.LBB46_3:                               # %if.end
	movq	-8(%rbp), %rax
	cmpq	$0, 4872(%rax)
	je	.LBB46_5
# %bb.4:                                # %if.then6
	movq	-8(%rbp), %rax
	movq	4872(%rax), %rdi
	callq	free_mem2D
	movq	-8(%rbp), %rax
	movq	$0, 4872(%rax)
.LBB46_5:                               # %if.end9
	movq	-8(%rbp), %rax
	cmpl	$0, (%rax)
	je	.LBB46_11
# %bb.6:                                # %if.then11
	movq	-8(%rbp), %rax
	movq	3216(%rax), %rdi
	movl	$2, %esi
	callq	free_mem3Dshort
	movq	-8(%rbp), %rax
	movq	3224(%rax), %rdi
	movl	$2, %esi
	callq	free_mem3Dint64
	movq	-8(%rbp), %rax
	movq	3232(%rax), %rdi
	movq	-8(%rbp), %rax
	movl	4(%rax), %eax
	cltd
	movl	$4, %ecx
	idivl	%ecx
	movl	$2, %esi
	movl	%eax, %edx
	callq	free_mem4Dshort
	movq	-8(%rbp), %rax
	cmpq	$0, 3240(%rax)
	je	.LBB46_8
# %bb.7:                                # %if.then15
	movq	-8(%rbp), %rax
	movq	3240(%rax), %rdi
	callq	free_mem2D
	movq	-8(%rbp), %rax
	movq	$0, 3240(%rax)
.LBB46_8:                               # %if.end18
	movq	-8(%rbp), %rax
	movq	4832(%rax), %rdi
	movl	$2, %esi
	callq	free_mem3Dshort
	movq	-8(%rbp), %rax
	movq	4840(%rax), %rdi
	movl	$2, %esi
	callq	free_mem3Dint64
	movq	-8(%rbp), %rax
	movq	4848(%rax), %rdi
	movq	-8(%rbp), %rax
	movl	4(%rax), %eax
	cltd
	movl	$4, %ecx
	idivl	%ecx
	movl	$2, %esi
	movl	%eax, %edx
	callq	free_mem4Dshort
	movq	-8(%rbp), %rax
	cmpq	$0, 4856(%rax)
	je	.LBB46_10
# %bb.9:                                # %if.then22
	movq	-8(%rbp), %rax
	movq	4856(%rax), %rdi
	callq	free_mem2D
	movq	-8(%rbp), %rax
	movq	$0, 4856(%rax)
.LBB46_10:                              # %if.end25
	jmp	.LBB46_11
.LBB46_11:                              # %if.end26
	movq	-8(%rbp), %rdi
	callq	free
	movq	$0, -8(%rbp)
.LBB46_12:                              # %if.end27
	addq	$16, %rsp
	popq	%rbp
	.cfi_def_cfa %rsp, 8
	retq
.Lfunc_end46:
	.size	free_colocated, .Lfunc_end46-free_colocated
	.cfi_endproc
                                        # -- End function
	.globl	compute_colocated       # -- Begin function compute_colocated
	.p2align	4, 0x90
	.type	compute_colocated,@function
compute_colocated:                      # @compute_colocated
	.cfi_startproc
# %bb.0:                                # %rand_bb
	pushq	%rbp
	.cfi_def_cfa_offset 16
	.cfi_offset %rbp, -16
	movq	%rsp, %rbp
	.cfi_def_cfa_register %rbp
	pushq	%r14
	pushq	%rbx
	.cfi_offset %rbx, -32
	.cfi_offset %r14, -24
	movq	%rsi, %r14
	movq	%rdi, %rbx
	callq	get_rand
	cmpl	$0, %eax
	jne	.LBB47_5
# %bb.1:                                # %func_compute_colocated.65
	movq	%rbx, %rdi
	movq	%r14, %rsi
	callq	compute_colocated.65
	popq	%rbx
	popq	%r14
	popq	%rbp
	.cfi_def_cfa %rsp, 8
	retq
.LBB47_2:                               # %func_compute_colocated.80
	.cfi_def_cfa %rbp, 16
	movq	%rbx, %rdi
	movq	%r14, %rsi
	callq	compute_colocated.80
	popq	%rbx
	popq	%r14
	popq	%rbp
	.cfi_def_cfa %rsp, 8
	retq
.LBB47_3:                               # %func_compute_colocated.150
	.cfi_def_cfa %rbp, 16
	movq	%rbx, %rdi
	movq	%r14, %rsi
	callq	compute_colocated.150
	popq	%rbx
	popq	%r14
	popq	%rbp
	.cfi_def_cfa %rsp, 8
	retq
.LBB47_4:                               # %func_compute_colocated.158
	.cfi_def_cfa %rbp, 16
	movq	%rbx, %rdi
	movq	%r14, %rsi
	callq	compute_colocated.158
	popq	%rbx
	popq	%r14
	popq	%rbp
	.cfi_def_cfa %rsp, 8
	retq
.LBB47_5:                               # %ctrl0
	.cfi_def_cfa %rbp, 16
	cmpl	$1, %eax
	je	.LBB47_2
# %bb.6:                                # %ctrl1
	cmpl	$2, %eax
	je	.LBB47_3
	jmp	.LBB47_4
.Lfunc_end47:
	.size	compute_colocated, .Lfunc_end47-compute_colocated
	.cfi_endproc
                                        # -- End function
	.p2align	4, 0x90         # -- Begin function get_short_term_pic
	.type	get_short_term_pic,@function
get_short_term_pic:                     # @get_short_term_pic
	.cfi_startproc
# %bb.0:                                # %rand_bb
	pushq	%rbp
	.cfi_def_cfa_offset 16
	.cfi_offset %rbp, -16
	movq	%rsp, %rbp
	.cfi_def_cfa_register %rbp
	pushq	%rbx
	pushq	%rax
	.cfi_offset %rbx, -24
	movl	%edi, %ebx
	callq	get_rand
	cmpl	$0, %eax
	jne	.LBB48_5
# %bb.1:                                # %func_get_short_term_pic.26
	movl	%ebx, %edi
	callq	get_short_term_pic.26
	addq	$8, %rsp
	popq	%rbx
	popq	%rbp
	.cfi_def_cfa %rsp, 8
	retq
.LBB48_2:                               # %func_get_short_term_pic.41
	.cfi_def_cfa %rbp, 16
	movl	%ebx, %edi
	callq	get_short_term_pic.41
	addq	$8, %rsp
	popq	%rbx
	popq	%rbp
	.cfi_def_cfa %rsp, 8
	retq
.LBB48_3:                               # %func_get_short_term_pic.121
	.cfi_def_cfa %rbp, 16
	movl	%ebx, %edi
	callq	get_short_term_pic.121
	addq	$8, %rsp
	popq	%rbx
	popq	%rbp
	.cfi_def_cfa %rsp, 8
	retq
.LBB48_4:                               # %func_get_short_term_pic.139
	.cfi_def_cfa %rbp, 16
	movl	%ebx, %edi
	callq	get_short_term_pic.139
	addq	$8, %rsp
	popq	%rbx
	popq	%rbp
	.cfi_def_cfa %rsp, 8
	retq
.LBB48_5:                               # %ctrl0
	.cfi_def_cfa %rbp, 16
	cmpl	$1, %eax
	je	.LBB48_2
# %bb.6:                                # %ctrl1
	cmpl	$2, %eax
	je	.LBB48_3
	jmp	.LBB48_4
.Lfunc_end48:
	.size	get_short_term_pic, .Lfunc_end48-get_short_term_pic
	.cfi_endproc
                                        # -- End function
	.p2align	4, 0x90         # -- Begin function get_long_term_pic
	.type	get_long_term_pic,@function
get_long_term_pic:                      # @get_long_term_pic
	.cfi_startproc
# %bb.0:                                # %rand_bb
	pushq	%rbp
	.cfi_def_cfa_offset 16
	.cfi_offset %rbp, -16
	movq	%rsp, %rbp
	.cfi_def_cfa_register %rbp
	pushq	%rbx
	pushq	%rax
	.cfi_offset %rbx, -24
	movl	%edi, %ebx
	callq	get_rand
	cmpl	$0, %eax
	jne	.LBB49_5
# %bb.1:                                # %func_get_long_term_pic.7
	movl	%ebx, %edi
	callq	get_long_term_pic.7
	addq	$8, %rsp
	popq	%rbx
	popq	%rbp
	.cfi_def_cfa %rsp, 8
	retq
.LBB49_2:                               # %func_get_long_term_pic.58
	.cfi_def_cfa %rbp, 16
	movl	%ebx, %edi
	callq	get_long_term_pic.58
	addq	$8, %rsp
	popq	%rbx
	popq	%rbp
	.cfi_def_cfa %rsp, 8
	retq
.LBB49_3:                               # %func_get_long_term_pic.93
	.cfi_def_cfa %rbp, 16
	movl	%ebx, %edi
	callq	get_long_term_pic.93
	addq	$8, %rsp
	popq	%rbx
	popq	%rbp
	.cfi_def_cfa %rsp, 8
	retq
.LBB49_4:                               # %func_get_long_term_pic.99
	.cfi_def_cfa %rbp, 16
	movl	%ebx, %edi
	callq	get_long_term_pic.99
	addq	$8, %rsp
	popq	%rbx
	popq	%rbp
	.cfi_def_cfa %rsp, 8
	retq
.LBB49_5:                               # %ctrl0
	.cfi_def_cfa %rbp, 16
	cmpl	$1, %eax
	je	.LBB49_2
# %bb.6:                                # %ctrl1
	cmpl	$2, %eax
	je	.LBB49_3
	jmp	.LBB49_4
.Lfunc_end49:
	.size	get_long_term_pic, .Lfunc_end49-get_long_term_pic
	.cfi_endproc
                                        # -- End function
	.p2align	4, 0x90         # -- Begin function mm_unmark_short_term_for_reference
	.type	mm_unmark_short_term_for_reference,@function
mm_unmark_short_term_for_reference:     # @mm_unmark_short_term_for_reference
	.cfi_startproc
# %bb.0:                                # %rand_bb
	pushq	%rbp
	.cfi_def_cfa_offset 16
	.cfi_offset %rbp, -16
	movq	%rsp, %rbp
	.cfi_def_cfa_register %rbp
	pushq	%r14
	pushq	%rbx
	.cfi_offset %rbx, -32
	.cfi_offset %r14, -24
	movl	%esi, %r14d
	movq	%rdi, %rbx
	callq	get_rand
	cmpl	$0, %eax
	jne	.LBB50_5
# %bb.1:                                # %func_mm_unmark_short_term_for_reference.22
	movq	%rbx, %rdi
	movl	%r14d, %esi
	callq	mm_unmark_short_term_for_reference.22
	popq	%rbx
	popq	%r14
	popq	%rbp
	.cfi_def_cfa %rsp, 8
	retq
.LBB50_2:                               # %func_mm_unmark_short_term_for_reference.68
	.cfi_def_cfa %rbp, 16
	movq	%rbx, %rdi
	movl	%r14d, %esi
	callq	mm_unmark_short_term_for_reference.68
	popq	%rbx
	popq	%r14
	popq	%rbp
	.cfi_def_cfa %rsp, 8
	retq
.LBB50_3:                               # %func_mm_unmark_short_term_for_reference.83
	.cfi_def_cfa %rbp, 16
	movq	%rbx, %rdi
	movl	%r14d, %esi
	callq	mm_unmark_short_term_for_reference.83
	popq	%rbx
	popq	%r14
	popq	%rbp
	.cfi_def_cfa %rsp, 8
	retq
.LBB50_4:                               # %func_mm_unmark_short_term_for_reference.96
	.cfi_def_cfa %rbp, 16
	movq	%rbx, %rdi
	movl	%r14d, %esi
	callq	mm_unmark_short_term_for_reference.96
	popq	%rbx
	popq	%r14
	popq	%rbp
	.cfi_def_cfa %rsp, 8
	retq
.LBB50_5:                               # %ctrl0
	.cfi_def_cfa %rbp, 16
	cmpl	$1, %eax
	je	.LBB50_2
# %bb.6:                                # %ctrl1
	cmpl	$2, %eax
	je	.LBB50_3
	jmp	.LBB50_4
.Lfunc_end50:
	.size	mm_unmark_short_term_for_reference, .Lfunc_end50-mm_unmark_short_term_for_reference
	.cfi_endproc
                                        # -- End function
	.p2align	4, 0x90         # -- Begin function mm_unmark_long_term_for_reference
	.type	mm_unmark_long_term_for_reference,@function
mm_unmark_long_term_for_reference:      # @mm_unmark_long_term_for_reference
	.cfi_startproc
# %bb.0:                                # %rand_bb
	pushq	%rbp
	.cfi_def_cfa_offset 16
	.cfi_offset %rbp, -16
	movq	%rsp, %rbp
	.cfi_def_cfa_register %rbp
	pushq	%r14
	pushq	%rbx
	.cfi_offset %rbx, -32
	.cfi_offset %r14, -24
	movl	%esi, %r14d
	movq	%rdi, %rbx
	callq	get_rand
	cmpl	$0, %eax
	jne	.LBB51_5
# %bb.1:                                # %func_mm_unmark_long_term_for_reference.57
	movq	%rbx, %rdi
	movl	%r14d, %esi
	callq	mm_unmark_long_term_for_reference.57
	popq	%rbx
	popq	%r14
	popq	%rbp
	.cfi_def_cfa %rsp, 8
	retq
.LBB51_2:                               # %func_mm_unmark_long_term_for_reference.118
	.cfi_def_cfa %rbp, 16
	movq	%rbx, %rdi
	movl	%r14d, %esi
	callq	mm_unmark_long_term_for_reference.118
	popq	%rbx
	popq	%r14
	popq	%rbp
	.cfi_def_cfa %rsp, 8
	retq
.LBB51_3:                               # %func_mm_unmark_long_term_for_reference.153
	.cfi_def_cfa %rbp, 16
	movq	%rbx, %rdi
	movl	%r14d, %esi
	callq	mm_unmark_long_term_for_reference.153
	popq	%rbx
	popq	%r14
	popq	%rbp
	.cfi_def_cfa %rsp, 8
	retq
.LBB51_4:                               # %func_mm_unmark_long_term_for_reference.156
	.cfi_def_cfa %rbp, 16
	movq	%rbx, %rdi
	movl	%r14d, %esi
	callq	mm_unmark_long_term_for_reference.156
	popq	%rbx
	popq	%r14
	popq	%rbp
	.cfi_def_cfa %rsp, 8
	retq
.LBB51_5:                               # %ctrl0
	.cfi_def_cfa %rbp, 16
	cmpl	$1, %eax
	je	.LBB51_2
# %bb.6:                                # %ctrl1
	cmpl	$2, %eax
	je	.LBB51_3
	jmp	.LBB51_4
.Lfunc_end51:
	.size	mm_unmark_long_term_for_reference, .Lfunc_end51-mm_unmark_long_term_for_reference
	.cfi_endproc
                                        # -- End function
	.p2align	4, 0x90         # -- Begin function mm_assign_long_term_frame_idx
	.type	mm_assign_long_term_frame_idx,@function
mm_assign_long_term_frame_idx:          # @mm_assign_long_term_frame_idx
	.cfi_startproc
# %bb.0:                                # %rand_bb
	pushq	%rbp
	.cfi_def_cfa_offset 16
	.cfi_offset %rbp, -16
	movq	%rsp, %rbp
	.cfi_def_cfa_register %rbp
	pushq	%r15
	pushq	%r14
	pushq	%rbx
	pushq	%rax
	.cfi_offset %rbx, -40
	.cfi_offset %r14, -32
	.cfi_offset %r15, -24
	movl	%edx, %r14d
	movl	%esi, %r15d
	movq	%rdi, %rbx
	callq	get_rand
	cmpl	$0, %eax
	jne	.LBB52_5
# %bb.1:                                # %func_mm_assign_long_term_frame_idx.48
	movq	%rbx, %rdi
	movl	%r15d, %esi
	movl	%r14d, %edx
	callq	mm_assign_long_term_frame_idx.48
	addq	$8, %rsp
	popq	%rbx
	popq	%r14
	popq	%r15
	popq	%rbp
	.cfi_def_cfa %rsp, 8
	retq
.LBB52_2:                               # %func_mm_assign_long_term_frame_idx.81
	.cfi_def_cfa %rbp, 16
	movq	%rbx, %rdi
	movl	%r15d, %esi
	movl	%r14d, %edx
	callq	mm_assign_long_term_frame_idx.81
	addq	$8, %rsp
	popq	%rbx
	popq	%r14
	popq	%r15
	popq	%rbp
	.cfi_def_cfa %rsp, 8
	retq
.LBB52_3:                               # %func_mm_assign_long_term_frame_idx.128
	.cfi_def_cfa %rbp, 16
	movq	%rbx, %rdi
	movl	%r15d, %esi
	movl	%r14d, %edx
	callq	mm_assign_long_term_frame_idx.128
	addq	$8, %rsp
	popq	%rbx
	popq	%r14
	popq	%r15
	popq	%rbp
	.cfi_def_cfa %rsp, 8
	retq
.LBB52_4:                               # %func_mm_assign_long_term_frame_idx.131
	.cfi_def_cfa %rbp, 16
	movq	%rbx, %rdi
	movl	%r15d, %esi
	movl	%r14d, %edx
	callq	mm_assign_long_term_frame_idx.131
	addq	$8, %rsp
	popq	%rbx
	popq	%r14
	popq	%r15
	popq	%rbp
	.cfi_def_cfa %rsp, 8
	retq
.LBB52_5:                               # %ctrl0
	.cfi_def_cfa %rbp, 16
	cmpl	$1, %eax
	je	.LBB52_2
# %bb.6:                                # %ctrl1
	cmpl	$2, %eax
	je	.LBB52_3
	jmp	.LBB52_4
.Lfunc_end52:
	.size	mm_assign_long_term_frame_idx, .Lfunc_end52-mm_assign_long_term_frame_idx
	.cfi_endproc
                                        # -- End function
	.p2align	4, 0x90         # -- Begin function mm_mark_current_picture_long_term
	.type	mm_mark_current_picture_long_term,@function
mm_mark_current_picture_long_term:      # @mm_mark_current_picture_long_term
	.cfi_startproc
# %bb.0:                                # %rand_bb
	pushq	%rbp
	.cfi_def_cfa_offset 16
	.cfi_offset %rbp, -16
	movq	%rsp, %rbp
	.cfi_def_cfa_register %rbp
	pushq	%r14
	pushq	%rbx
	.cfi_offset %rbx, -32
	.cfi_offset %r14, -24
	movl	%esi, %r14d
	movq	%rdi, %rbx
	callq	get_rand
	cmpl	$0, %eax
	jne	.LBB53_2
# %bb.1:                                # %func_mm_mark_current_picture_long_term.8
	movq	%rbx, %rdi
	movl	%r14d, %esi
	callq	mm_mark_current_picture_long_term.8
	popq	%rbx
	popq	%r14
	popq	%rbp
	.cfi_def_cfa %rsp, 8
	retq
.LBB53_2:                               # %func_mm_mark_current_picture_long_term.66
	.cfi_def_cfa %rbp, 16
	movq	%rbx, %rdi
	movl	%r14d, %esi
	callq	mm_mark_current_picture_long_term.66
	popq	%rbx
	popq	%r14
	popq	%rbp
	.cfi_def_cfa %rsp, 8
	retq
.Lfunc_end53:
	.size	mm_mark_current_picture_long_term, .Lfunc_end53-mm_mark_current_picture_long_term
	.cfi_endproc
                                        # -- End function
	.p2align	4, 0x90         # -- Begin function get_pic_num_x
	.type	get_pic_num_x,@function
get_pic_num_x:                          # @get_pic_num_x
	.cfi_startproc
# %bb.0:                                # %rand_bb
	pushq	%rbp
	.cfi_def_cfa_offset 16
	.cfi_offset %rbp, -16
	movq	%rsp, %rbp
	.cfi_def_cfa_register %rbp
	pushq	%r14
	pushq	%rbx
	.cfi_offset %rbx, -32
	.cfi_offset %r14, -24
	movl	%esi, %r14d
	movq	%rdi, %rbx
	callq	get_rand
	cmpl	$0, %eax
	jne	.LBB54_5
# %bb.1:                                # %func_get_pic_num_x.95
	movq	%rbx, %rdi
	movl	%r14d, %esi
	callq	get_pic_num_x.95
	popq	%rbx
	popq	%r14
	popq	%rbp
	.cfi_def_cfa %rsp, 8
	retq
.LBB54_2:                               # %func_get_pic_num_x.100
	.cfi_def_cfa %rbp, 16
	movq	%rbx, %rdi
	movl	%r14d, %esi
	callq	get_pic_num_x.100
	popq	%rbx
	popq	%r14
	popq	%rbp
	.cfi_def_cfa %rsp, 8
	retq
.LBB54_3:                               # %func_get_pic_num_x.105
	.cfi_def_cfa %rbp, 16
	movq	%rbx, %rdi
	movl	%r14d, %esi
	callq	get_pic_num_x.105
	popq	%rbx
	popq	%r14
	popq	%rbp
	.cfi_def_cfa %rsp, 8
	retq
.LBB54_4:                               # %func_get_pic_num_x.155
	.cfi_def_cfa %rbp, 16
	movq	%rbx, %rdi
	movl	%r14d, %esi
	callq	get_pic_num_x.155
	popq	%rbx
	popq	%r14
	popq	%rbp
	.cfi_def_cfa %rsp, 8
	retq
.LBB54_5:                               # %ctrl0
	.cfi_def_cfa %rbp, 16
	cmpl	$1, %eax
	je	.LBB54_2
# %bb.6:                                # %ctrl1
	cmpl	$2, %eax
	je	.LBB54_3
	jmp	.LBB54_4
.Lfunc_end54:
	.size	get_pic_num_x, .Lfunc_end54-get_pic_num_x
	.cfi_endproc
                                        # -- End function
	.p2align	4, 0x90         # -- Begin function unmark_long_term_frame_for_reference_by_frame_idx
	.type	unmark_long_term_frame_for_reference_by_frame_idx,@function
unmark_long_term_frame_for_reference_by_frame_idx: # @unmark_long_term_frame_for_reference_by_frame_idx
	.cfi_startproc
# %bb.0:                                # %rand_bb
	pushq	%rbp
	.cfi_def_cfa_offset 16
	.cfi_offset %rbp, -16
	movq	%rsp, %rbp
	.cfi_def_cfa_register %rbp
	pushq	%rbx
	pushq	%rax
	.cfi_offset %rbx, -24
	movl	%edi, %ebx
	callq	get_rand
	cmpl	$0, %eax
	jne	.LBB55_2
# %bb.1:                                # %func_unmark_long_term_frame_for_reference_by_frame_idx.5
	movl	%ebx, %edi
	callq	unmark_long_term_frame_for_reference_by_frame_idx.5
	addq	$8, %rsp
	popq	%rbx
	popq	%rbp
	.cfi_def_cfa %rsp, 8
	retq
.LBB55_2:                               # %func_unmark_long_term_frame_for_reference_by_frame_idx.13
	.cfi_def_cfa %rbp, 16
	movl	%ebx, %edi
	callq	unmark_long_term_frame_for_reference_by_frame_idx.13
	addq	$8, %rsp
	popq	%rbx
	popq	%rbp
	.cfi_def_cfa %rsp, 8
	retq
.Lfunc_end55:
	.size	unmark_long_term_frame_for_reference_by_frame_idx, .Lfunc_end55-unmark_long_term_frame_for_reference_by_frame_idx
	.cfi_endproc
                                        # -- End function
	.p2align	4, 0x90         # -- Begin function unmark_long_term_field_for_reference_by_frame_idx
	.type	unmark_long_term_field_for_reference_by_frame_idx,@function
unmark_long_term_field_for_reference_by_frame_idx: # @unmark_long_term_field_for_reference_by_frame_idx
	.cfi_startproc
# %bb.0:                                # %rand_bb
	pushq	%rbp
	.cfi_def_cfa_offset 16
	.cfi_offset %rbp, -16
	movq	%rsp, %rbp
	.cfi_def_cfa_register %rbp
	pushq	%r15
	pushq	%r14
	pushq	%r13
	pushq	%r12
	pushq	%rbx
	pushq	%rax
	.cfi_offset %rbx, -56
	.cfi_offset %r12, -48
	.cfi_offset %r13, -40
	.cfi_offset %r14, -32
	.cfi_offset %r15, -24
	movl	%r8d, %r14d
	movl	%ecx, %r15d
	movl	%edx, %r12d
	movl	%esi, %r13d
	movl	%edi, %ebx
	callq	get_rand
	cmpl	$0, %eax
	jne	.LBB56_5
# %bb.1:                                # %func_unmark_long_term_field_for_reference_by_frame_idx.76
	movl	%ebx, %edi
	movl	%r13d, %esi
	movl	%r12d, %edx
	movl	%r15d, %ecx
	movl	%r14d, %r8d
	callq	unmark_long_term_field_for_reference_by_frame_idx.76
	addq	$8, %rsp
	popq	%rbx
	popq	%r12
	popq	%r13
	popq	%r14
	popq	%r15
	popq	%rbp
	.cfi_def_cfa %rsp, 8
	retq
.LBB56_2:                               # %func_unmark_long_term_field_for_reference_by_frame_idx.116
	.cfi_def_cfa %rbp, 16
	movl	%ebx, %edi
	movl	%r13d, %esi
	movl	%r12d, %edx
	movl	%r15d, %ecx
	movl	%r14d, %r8d
	callq	unmark_long_term_field_for_reference_by_frame_idx.116
	addq	$8, %rsp
	popq	%rbx
	popq	%r12
	popq	%r13
	popq	%r14
	popq	%r15
	popq	%rbp
	.cfi_def_cfa %rsp, 8
	retq
.LBB56_3:                               # %func_unmark_long_term_field_for_reference_by_frame_idx.119
	.cfi_def_cfa %rbp, 16
	movl	%ebx, %edi
	movl	%r13d, %esi
	movl	%r12d, %edx
	movl	%r15d, %ecx
	movl	%r14d, %r8d
	callq	unmark_long_term_field_for_reference_by_frame_idx.119
	addq	$8, %rsp
	popq	%rbx
	popq	%r12
	popq	%r13
	popq	%r14
	popq	%r15
	popq	%rbp
	.cfi_def_cfa %rsp, 8
	retq
.LBB56_4:                               # %func_unmark_long_term_field_for_reference_by_frame_idx.135
	.cfi_def_cfa %rbp, 16
	movl	%ebx, %edi
	movl	%r13d, %esi
	movl	%r12d, %edx
	movl	%r15d, %ecx
	movl	%r14d, %r8d
	callq	unmark_long_term_field_for_reference_by_frame_idx.135
	addq	$8, %rsp
	popq	%rbx
	popq	%r12
	popq	%r13
	popq	%r14
	popq	%r15
	popq	%rbp
	.cfi_def_cfa %rsp, 8
	retq
.LBB56_5:                               # %ctrl0
	.cfi_def_cfa %rbp, 16
	cmpl	$1, %eax
	je	.LBB56_2
# %bb.6:                                # %ctrl1
	cmpl	$2, %eax
	je	.LBB56_3
	jmp	.LBB56_4
.Lfunc_end56:
	.size	unmark_long_term_field_for_reference_by_frame_idx, .Lfunc_end56-unmark_long_term_field_for_reference_by_frame_idx
	.cfi_endproc
                                        # -- End function
	.p2align	4, 0x90         # -- Begin function mark_pic_long_term
	.type	mark_pic_long_term,@function
mark_pic_long_term:                     # @mark_pic_long_term
	.cfi_startproc
# %bb.0:                                # %rand_bb
	pushq	%rbp
	.cfi_def_cfa_offset 16
	.cfi_offset %rbp, -16
	movq	%rsp, %rbp
	.cfi_def_cfa_register %rbp
	pushq	%r15
	pushq	%r14
	pushq	%rbx
	pushq	%rax
	.cfi_offset %rbx, -40
	.cfi_offset %r14, -32
	.cfi_offset %r15, -24
	movl	%edx, %r14d
	movl	%esi, %r15d
	movq	%rdi, %rbx
	callq	get_rand
	cmpl	$0, %eax
	jne	.LBB57_5
# %bb.1:                                # %func_mark_pic_long_term.21
	movq	%rbx, %rdi
	movl	%r15d, %esi
	movl	%r14d, %edx
	callq	mark_pic_long_term.21
	addq	$8, %rsp
	popq	%rbx
	popq	%r14
	popq	%r15
	popq	%rbp
	.cfi_def_cfa %rsp, 8
	retq
.LBB57_2:                               # %func_mark_pic_long_term.23
	.cfi_def_cfa %rbp, 16
	movq	%rbx, %rdi
	movl	%r15d, %esi
	movl	%r14d, %edx
	callq	mark_pic_long_term.23
	addq	$8, %rsp
	popq	%rbx
	popq	%r14
	popq	%r15
	popq	%rbp
	.cfi_def_cfa %rsp, 8
	retq
.LBB57_3:                               # %func_mark_pic_long_term.67
	.cfi_def_cfa %rbp, 16
	movq	%rbx, %rdi
	movl	%r15d, %esi
	movl	%r14d, %edx
	callq	mark_pic_long_term.67
	addq	$8, %rsp
	popq	%rbx
	popq	%r14
	popq	%r15
	popq	%rbp
	.cfi_def_cfa %rsp, 8
	retq
.LBB57_4:                               # %func_mark_pic_long_term.108
	.cfi_def_cfa %rbp, 16
	movq	%rbx, %rdi
	movl	%r15d, %esi
	movl	%r14d, %edx
	callq	mark_pic_long_term.108
	addq	$8, %rsp
	popq	%rbx
	popq	%r14
	popq	%r15
	popq	%rbp
	.cfi_def_cfa %rsp, 8
	retq
.LBB57_5:                               # %ctrl0
	.cfi_def_cfa %rbp, 16
	cmpl	$1, %eax
	je	.LBB57_2
# %bb.6:                                # %ctrl1
	cmpl	$2, %eax
	je	.LBB57_3
	jmp	.LBB57_4
.Lfunc_end57:
	.size	mark_pic_long_term, .Lfunc_end57-mark_pic_long_term
	.cfi_endproc
                                        # -- End function
	.p2align	4, 0x90         # -- Begin function mm_unmark_all_short_term_for_reference
	.type	mm_unmark_all_short_term_for_reference,@function
mm_unmark_all_short_term_for_reference: # @mm_unmark_all_short_term_for_reference
	.cfi_startproc
# %bb.0:                                # %entry
	pushq	%rbp
	.cfi_def_cfa_offset 16
	.cfi_offset %rbp, -16
	movq	%rsp, %rbp
	.cfi_def_cfa_register %rbp
	subq	$16, %rsp
	movl	$0, -4(%rbp)
.LBB58_1:                               # %for.cond
                                        # =>This Inner Loop Header: Depth=1
	movl	-4(%rbp), %eax
	cmpl	dpb+32, %eax
	jae	.LBB58_4
# %bb.2:                                # %for.body
                                        #   in Loop: Header=BB58_1 Depth=1
	movq	dpb+8, %rax
	movl	-4(%rbp), %ecx
	movq	(%rax,%rcx,8), %rdi
	callq	unmark_for_reference
# %bb.3:                                # %for.inc
                                        #   in Loop: Header=BB58_1 Depth=1
	movl	-4(%rbp), %eax
	addl	$1, %eax
	movl	%eax, -4(%rbp)
	jmp	.LBB58_1
.LBB58_4:                               # %for.end
	callq	update_ref_list
	addq	$16, %rsp
	popq	%rbp
	.cfi_def_cfa %rsp, 8
	retq
.Lfunc_end58:
	.size	mm_unmark_all_short_term_for_reference, .Lfunc_end58-mm_unmark_all_short_term_for_reference
	.cfi_endproc
                                        # -- End function
	.p2align	4, 0x90         # -- Begin function mm_unmark_all_long_term_for_reference
	.type	mm_unmark_all_long_term_for_reference,@function
mm_unmark_all_long_term_for_reference:  # @mm_unmark_all_long_term_for_reference
	.cfi_startproc
# %bb.0:                                # %entry
	pushq	%rbp
	.cfi_def_cfa_offset 16
	.cfi_offset %rbp, -16
	movq	%rsp, %rbp
	.cfi_def_cfa_register %rbp
	xorl	%edi, %edi
	callq	mm_update_max_long_term_frame_idx
	popq	%rbp
	.cfi_def_cfa %rsp, 8
	retq
.Lfunc_end59:
	.size	mm_unmark_all_long_term_for_reference, .Lfunc_end59-mm_unmark_all_long_term_for_reference
	.cfi_endproc
                                        # -- End function
	.p2align	4, 0x90         # -- Begin function remove_unused_frame_from_dpb
	.type	remove_unused_frame_from_dpb,@function
remove_unused_frame_from_dpb:           # @remove_unused_frame_from_dpb
	.cfi_startproc
# %bb.0:                                # %rand_bb
	pushq	%rbp
	.cfi_def_cfa_offset 16
	.cfi_offset %rbp, -16
	movq	%rsp, %rbp
	.cfi_def_cfa_register %rbp
	callq	get_rand
	cmpl	$0, %eax
	jne	.LBB60_2
# %bb.1:                                # %func_remove_unused_frame_from_dpb.78
	callq	remove_unused_frame_from_dpb.78
	popq	%rbp
	.cfi_def_cfa %rsp, 8
	retq
.LBB60_2:                               # %func_remove_unused_frame_from_dpb.140
	.cfi_def_cfa %rbp, 16
	callq	remove_unused_frame_from_dpb.140
	popq	%rbp
	.cfi_def_cfa %rsp, 8
	retq
.Lfunc_end60:
	.size	remove_unused_frame_from_dpb, .Lfunc_end60-remove_unused_frame_from_dpb
	.cfi_endproc
                                        # -- End function
	.p2align	4, 0x90         # -- Begin function is_used_for_reference
	.type	is_used_for_reference,@function
is_used_for_reference:                  # @is_used_for_reference
	.cfi_startproc
# %bb.0:                                # %rand_bb
	pushq	%rbp
	.cfi_def_cfa_offset 16
	.cfi_offset %rbp, -16
	movq	%rsp, %rbp
	.cfi_def_cfa_register %rbp
	pushq	%rbx
	pushq	%rax
	.cfi_offset %rbx, -24
	movq	%rdi, %rbx
	callq	get_rand
	cmpl	$0, %eax
	jne	.LBB61_2
# %bb.1:                                # %func_is_used_for_reference.30
	movq	%rbx, %rdi
	callq	is_used_for_reference.30
	addq	$8, %rsp
	popq	%rbx
	popq	%rbp
	.cfi_def_cfa %rsp, 8
	retq
.LBB61_2:                               # %func_is_used_for_reference.89
	.cfi_def_cfa %rbp, 16
	movq	%rbx, %rdi
	callq	is_used_for_reference.89
	addq	$8, %rsp
	popq	%rbx
	popq	%rbp
	.cfi_def_cfa %rsp, 8
	retq
.Lfunc_end61:
	.size	is_used_for_reference, .Lfunc_end61-is_used_for_reference
	.cfi_endproc
                                        # -- End function
	.p2align	4, 0x90         # -- Begin function remove_frame_from_dpb
	.type	remove_frame_from_dpb,@function
remove_frame_from_dpb:                  # @remove_frame_from_dpb
	.cfi_startproc
# %bb.0:                                # %rand_bb
	pushq	%rbp
	.cfi_def_cfa_offset 16
	.cfi_offset %rbp, -16
	movq	%rsp, %rbp
	.cfi_def_cfa_register %rbp
	pushq	%rbx
	pushq	%rax
	.cfi_offset %rbx, -24
	movl	%edi, %ebx
	callq	get_rand
	cmpl	$0, %eax
	jne	.LBB62_5
# %bb.1:                                # %func_remove_frame_from_dpb.98
	movl	%ebx, %edi
	callq	remove_frame_from_dpb.98
	addq	$8, %rsp
	popq	%rbx
	popq	%rbp
	.cfi_def_cfa %rsp, 8
	retq
.LBB62_2:                               # %func_remove_frame_from_dpb.112
	.cfi_def_cfa %rbp, 16
	movl	%ebx, %edi
	callq	remove_frame_from_dpb.112
	addq	$8, %rsp
	popq	%rbx
	popq	%rbp
	.cfi_def_cfa %rsp, 8
	retq
.LBB62_3:                               # %func_remove_frame_from_dpb.125
	.cfi_def_cfa %rbp, 16
	movl	%ebx, %edi
	callq	remove_frame_from_dpb.125
	addq	$8, %rsp
	popq	%rbx
	popq	%rbp
	.cfi_def_cfa %rsp, 8
	retq
.LBB62_4:                               # %func_remove_frame_from_dpb.130
	.cfi_def_cfa %rbp, 16
	movl	%ebx, %edi
	callq	remove_frame_from_dpb.130
	addq	$8, %rsp
	popq	%rbx
	popq	%rbp
	.cfi_def_cfa %rsp, 8
	retq
.LBB62_5:                               # %ctrl0
	.cfi_def_cfa %rbp, 16
	cmpl	$1, %eax
	je	.LBB62_2
# %bb.6:                                # %ctrl1
	cmpl	$2, %eax
	je	.LBB62_3
	jmp	.LBB62_4
.Lfunc_end62:
	.size	remove_frame_from_dpb, .Lfunc_end62-remove_frame_from_dpb
	.cfi_endproc
                                        # -- End function
	.p2align	4, 0x90         # -- Begin function output_one_frame_from_dpb
	.type	output_one_frame_from_dpb,@function
output_one_frame_from_dpb:              # @output_one_frame_from_dpb
	.cfi_startproc
# %bb.0:                                # %rand_bb
	pushq	%rbp
	.cfi_def_cfa_offset 16
	.cfi_offset %rbp, -16
	movq	%rsp, %rbp
	.cfi_def_cfa_register %rbp
	callq	get_rand
	cmpl	$0, %eax
	jne	.LBB63_2
# %bb.1:                                # %func_output_one_frame_from_dpb.136
	callq	output_one_frame_from_dpb.136
	popq	%rbp
	.cfi_def_cfa %rsp, 8
	retq
.LBB63_2:                               # %func_output_one_frame_from_dpb.142
	.cfi_def_cfa %rbp, 16
	callq	output_one_frame_from_dpb.142
	popq	%rbp
	.cfi_def_cfa %rsp, 8
	retq
.Lfunc_end63:
	.size	output_one_frame_from_dpb, .Lfunc_end63-output_one_frame_from_dpb
	.cfi_endproc
                                        # -- End function
	.globl	replace_top_pic_with_frame.1 # -- Begin function replace_top_pic_with_frame.1
	.p2align	4, 0x90
	.type	replace_top_pic_with_frame.1,@function
replace_top_pic_with_frame.1:           # @replace_top_pic_with_frame.1
	.cfi_startproc
# %bb.0:                                # %entry
	pushq	%rbp
	.cfi_def_cfa_offset 16
	.cfi_offset %rbp, -16
	movq	%rsp, %rbp
	.cfi_def_cfa_register %rbp
	subq	$32, %rsp
	movl	$288189836, -32(%rbp)   # imm = 0x112D6D8C
	movq	%rdi, -24(%rbp)
	movq	$0, -16(%rbp)
	movq	img, %rax
	cmpl	$0, 72496(%rax)
	setne	%al
	andb	$1, %al
	movzbl	%al, %eax
	movq	-24(%rbp), %rcx
	movl	%eax, 6380(%rcx)
	movq	-24(%rbp), %rax
	cmpl	$0, 6380(%rax)
	je	.LBB64_2
# %bb.1:                                # %if.then
	movq	-24(%rbp), %rdi
	callq	UnifiedOneForthPix
.LBB64_2:                               # %if.end
	movl	$0, -28(%rbp)
	movl	$0, -4(%rbp)
.LBB64_3:                               # %for.cond
                                        # =>This Inner Loop Header: Depth=1
	movl	-4(%rbp), %eax
	cmpl	dpb+28, %eax
	jae	.LBB64_9
# %bb.4:                                # %for.body
                                        #   in Loop: Header=BB64_3 Depth=1
	movq	dpb, %rax
	movl	-4(%rbp), %ecx
	movq	(%rax,%rcx,8), %rax
	movl	20(%rax), %eax
	movq	img, %rcx
	cmpl	72464(%rcx), %eax
	jne	.LBB64_7
# %bb.5:                                # %land.lhs.true
                                        #   in Loop: Header=BB64_3 Depth=1
	movq	dpb, %rax
	movl	-4(%rbp), %ecx
	movq	(%rax,%rcx,8), %rax
	cmpl	$1, (%rax)
	jne	.LBB64_7
# %bb.6:                                # %if.then11
	movl	$1, -28(%rbp)
	movq	dpb, %rax
	movl	-4(%rbp), %ecx
	movq	(%rax,%rcx,8), %rax
	movq	%rax, -16(%rbp)
	jmp	.LBB64_10
.LBB64_7:                               # %if.end14
                                        #   in Loop: Header=BB64_3 Depth=1
	jmp	.LBB64_8
.LBB64_8:                               # %for.inc
                                        #   in Loop: Header=BB64_3 Depth=1
	movl	-4(%rbp), %eax
	addl	$1, %eax
	movl	%eax, -4(%rbp)
	jmp	.LBB64_3
.LBB64_9:                               # %for.end.loopexit
	jmp	.LBB64_10
.LBB64_10:                              # %for.end
	cmpl	$0, -28(%rbp)
	jne	.LBB64_12
# %bb.11:                               # %if.then16
	movabsq	$.L.str.14, %rdi
	movl	$500, %esi              # imm = 0x1F4
	callq	error
.LBB64_12:                              # %if.end17
	movq	-16(%rbp), %rax
	movq	48(%rax), %rdi
	callq	free_storable_picture
	movq	-16(%rbp), %rax
	movq	$0, 48(%rax)
	movq	-24(%rbp), %rax
	movq	-16(%rbp), %rcx
	movq	%rax, 40(%rcx)
	movq	-16(%rbp), %rax
	movl	$3, (%rax)
	movq	-24(%rbp), %rax
	cmpl	$0, 6380(%rax)
	je	.LBB64_16
# %bb.13:                               # %if.then22
	movq	-16(%rbp), %rax
	movl	$3, 4(%rax)
	movq	-24(%rbp), %rax
	cmpl	$0, 6376(%rax)
	je	.LBB64_15
# %bb.14:                               # %if.then24
	movq	-16(%rbp), %rax
	movl	$3, 8(%rax)
.LBB64_15:                              # %if.end26
	jmp	.LBB64_16
.LBB64_16:                              # %if.end27
	movq	-16(%rbp), %rdi
	callq	dpb_split_field
	callq	update_ref_list
	callq	update_ltref_list
	cmpl	$288189836, -32(%rbp)   # imm = 0x112D6D8C
	jne	.LBB64_18
.LBB64_17:
	addq	$32, %rsp
	popq	%rbp
	.cfi_def_cfa %rsp, 8
	retq
.LBB64_18:                              # %func_exit
	.cfi_def_cfa %rbp, 16
	callq	detect_breach
	jmp	.LBB64_17
.Lfunc_end64:
	.size	replace_top_pic_with_frame.1, .Lfunc_end64-replace_top_pic_with_frame.1
	.cfi_endproc
                                        # -- End function
	.globl	gen_field_ref_ids.2     # -- Begin function gen_field_ref_ids.2
	.p2align	4, 0x90
	.type	gen_field_ref_ids.2,@function
gen_field_ref_ids.2:                    # @gen_field_ref_ids.2
	.cfi_startproc
# %bb.0:                                # %entry
	pushq	%rbp
	.cfi_def_cfa_offset 16
	.cfi_offset %rbp, -16
	movq	%rsp, %rbp
	.cfi_def_cfa_register %rbp
	subq	$32, %rsp
	movl	$1306162823, -28(%rbp)  # imm = 0x4DDA7687
	movq	%rdi, -16(%rbp)
	movl	$0, -8(%rbp)
.LBB65_1:                               # %for.cond
                                        # =>This Loop Header: Depth=1
                                        #     Child Loop BB65_3 Depth 2
	movl	-8(%rbp), %ecx
	movq	-16(%rbp), %rax
	movl	6392(%rax), %eax
	cltd
	movl	$4, %esi
	idivl	%esi
	cmpl	%eax, %ecx
	jge	.LBB65_14
# %bb.2:                                # %for.body
                                        #   in Loop: Header=BB65_1 Depth=1
	movl	$0, -4(%rbp)
.LBB65_3:                               # %for.cond1
                                        #   Parent Loop BB65_1 Depth=1
                                        # =>  This Inner Loop Header: Depth=2
	movl	-4(%rbp), %ecx
	movq	-16(%rbp), %rax
	movl	6396(%rax), %eax
	cltd
	movl	$4, %esi
	idivl	%esi
	cmpl	%eax, %ecx
	jge	.LBB65_12
# %bb.4:                                # %for.body4
                                        #   in Loop: Header=BB65_3 Depth=2
	movq	-16(%rbp), %rax
	movq	6480(%rax), %rax
	movq	(%rax), %rax
	movslq	-8(%rbp), %rcx
	movq	(%rax,%rcx,8), %rax
	movslq	-4(%rbp), %rcx
	movswl	(%rax,%rcx,2), %eax
	movl	%eax, -20(%rbp)
	movq	-16(%rbp), %rax
	movq	6480(%rax), %rax
	movq	8(%rax), %rax
	movslq	-8(%rbp), %rcx
	movq	(%rax,%rcx,8), %rax
	movslq	-4(%rbp), %rcx
	movswl	(%rax,%rcx,2), %eax
	movl	%eax, -24(%rbp)
	cmpl	$0, -20(%rbp)
	jl	.LBB65_6
# %bb.5:                                # %cond.true
                                        #   in Loop: Header=BB65_3 Depth=2
	movq	-16(%rbp), %rax
	movslq	-20(%rbp), %rcx
	movq	24(%rax,%rcx,8), %rax
	jmp	.LBB65_7
.LBB65_6:                               # %cond.false
                                        #   in Loop: Header=BB65_3 Depth=2
	xorl	%eax, %eax
	jmp	.LBB65_7
.LBB65_7:                               # %cond.end
                                        #   in Loop: Header=BB65_3 Depth=2
	movq	-16(%rbp), %rcx
	movq	6496(%rcx), %rcx
	movq	(%rcx), %rcx
	movslq	-8(%rbp), %rdx
	movq	(%rcx,%rdx,8), %rcx
	movslq	-4(%rbp), %rdx
	movq	%rax, (%rcx,%rdx,8)
	cmpl	$0, -24(%rbp)
	jl	.LBB65_9
# %bb.8:                                # %cond.true27
                                        #   in Loop: Header=BB65_3 Depth=2
	movq	-16(%rbp), %rax
	movslq	-24(%rbp), %rcx
	movq	288(%rax,%rcx,8), %rax
	jmp	.LBB65_10
.LBB65_9:                               # %cond.false32
                                        #   in Loop: Header=BB65_3 Depth=2
	xorl	%eax, %eax
	jmp	.LBB65_10
.LBB65_10:                              # %cond.end33
                                        #   in Loop: Header=BB65_3 Depth=2
	movq	-16(%rbp), %rcx
	movq	6496(%rcx), %rcx
	movq	8(%rcx), %rcx
	movslq	-8(%rbp), %rdx
	movq	(%rcx,%rdx,8), %rcx
	movslq	-4(%rbp), %rdx
	movq	%rax, (%rcx,%rdx,8)
	movq	-16(%rbp), %rax
	movq	6520(%rax), %rax
	movslq	-8(%rbp), %rcx
	movq	(%rax,%rcx,8), %rax
	movslq	-4(%rbp), %rcx
	movb	$1, (%rax,%rcx)
# %bb.11:                               # %for.inc
                                        #   in Loop: Header=BB65_3 Depth=2
	movl	-4(%rbp), %eax
	addl	$1, %eax
	movl	%eax, -4(%rbp)
	jmp	.LBB65_3
.LBB65_12:                              # %for.end
                                        #   in Loop: Header=BB65_1 Depth=1
	jmp	.LBB65_13
.LBB65_13:                              # %for.inc45
                                        #   in Loop: Header=BB65_1 Depth=1
	movl	-8(%rbp), %eax
	addl	$1, %eax
	movl	%eax, -8(%rbp)
	jmp	.LBB65_1
.LBB65_14:                              # %for.end47
	cmpl	$1306162823, -28(%rbp)  # imm = 0x4DDA7687
	jne	.LBB65_16
.LBB65_15:
	addq	$32, %rsp
	popq	%rbp
	.cfi_def_cfa %rsp, 8
	retq
.LBB65_16:                              # %func_exit
	.cfi_def_cfa %rbp, 16
	callq	detect_breach
	jmp	.LBB65_15
.Lfunc_end65:
	.size	gen_field_ref_ids.2, .Lfunc_end65-gen_field_ref_ids.2
	.cfi_endproc
                                        # -- End function
	.p2align	4, 0x90         # -- Begin function compare_pic_by_lt_pic_num_asc.3
	.type	compare_pic_by_lt_pic_num_asc.3,@function
compare_pic_by_lt_pic_num_asc.3:        # @compare_pic_by_lt_pic_num_asc.3
	.cfi_startproc
# %bb.0:                                # %entry
	pushq	%rbp
	.cfi_def_cfa_offset 16
	.cfi_offset %rbp, -16
	movq	%rsp, %rbp
	.cfi_def_cfa_register %rbp
	pushq	%rbx
	subq	$24, %rsp
	.cfi_offset %rbx, -24
	movl	$293260816, -16(%rbp)   # imm = 0x117ACE10
	movq	%rdi, -24(%rbp)
	movq	%rsi, -32(%rbp)
	movq	-24(%rbp), %rax
	movq	(%rax), %rax
	movl	6368(%rax), %eax
	movq	-32(%rbp), %rcx
	movq	(%rcx), %rcx
	cmpl	6368(%rcx), %eax
	jge	.LBB66_2
# %bb.1:                                # %if.then
	movl	$-1, -12(%rbp)
	jmp	.LBB66_5
.LBB66_2:                               # %if.end
	movq	-24(%rbp), %rax
	movq	(%rax), %rax
	movl	6368(%rax), %eax
	movq	-32(%rbp), %rcx
	movq	(%rcx), %rcx
	cmpl	6368(%rcx), %eax
	jle	.LBB66_4
# %bb.3:                                # %if.then5
	movl	$1, -12(%rbp)
	jmp	.LBB66_5
.LBB66_4:                               # %if.else
	movl	$0, -12(%rbp)
.LBB66_5:                               # %return
	movl	-12(%rbp), %ebx
	cmpl	$293260816, -16(%rbp)   # imm = 0x117ACE10
	jne	.LBB66_7
.LBB66_6:
	movl	%ebx, %eax
	addq	$24, %rsp
	popq	%rbx
	popq	%rbp
	.cfi_def_cfa %rsp, 8
	retq
.LBB66_7:                               # %func_exit
	.cfi_def_cfa %rbp, 16
	callq	detect_breach
	jmp	.LBB66_6
.Lfunc_end66:
	.size	compare_pic_by_lt_pic_num_asc.3, .Lfunc_end66-compare_pic_by_lt_pic_num_asc.3
	.cfi_endproc
                                        # -- End function
	.globl	update_ref_list.4       # -- Begin function update_ref_list.4
	.p2align	4, 0x90
	.type	update_ref_list.4,@function
update_ref_list.4:                      # @update_ref_list.4
	.cfi_startproc
# %bb.0:                                # %entry
	pushq	%rbp
	.cfi_def_cfa_offset 16
	.cfi_offset %rbp, -16
	movq	%rsp, %rbp
	.cfi_def_cfa_register %rbp
	subq	$16, %rsp
	movl	$314342987, -12(%rbp)   # imm = 0x12BC7E4B
	movl	$0, -8(%rbp)
	movl	$0, -4(%rbp)
.LBB67_1:                               # %for.cond
                                        # =>This Inner Loop Header: Depth=1
	movl	-8(%rbp), %eax
	cmpl	dpb+28, %eax
	jae	.LBB67_6
# %bb.2:                                # %for.body
                                        #   in Loop: Header=BB67_1 Depth=1
	movq	dpb, %rax
	movl	-8(%rbp), %ecx
	movq	(%rax,%rcx,8), %rdi
	callq	is_short_term_reference
	cmpl	$0, %eax
	je	.LBB67_4
# %bb.3:                                # %if.then
                                        #   in Loop: Header=BB67_1 Depth=1
	movq	dpb, %rax
	movl	-8(%rbp), %ecx
	movq	(%rax,%rcx,8), %rax
	movq	dpb+8, %rcx
	movl	-4(%rbp), %edx
	movl	%edx, %esi
	addl	$1, %esi
	movl	%esi, -4(%rbp)
	movl	%edx, %edx
	movq	%rax, (%rcx,%rdx,8)
.LBB67_4:                               # %if.end
                                        #   in Loop: Header=BB67_1 Depth=1
	jmp	.LBB67_5
.LBB67_5:                               # %for.inc
                                        #   in Loop: Header=BB67_1 Depth=1
	movl	-8(%rbp), %eax
	addl	$1, %eax
	movl	%eax, -8(%rbp)
	jmp	.LBB67_1
.LBB67_6:                               # %for.end
	movl	-4(%rbp), %eax
	movl	%eax, dpb+32
.LBB67_7:                               # %while.cond
                                        # =>This Inner Loop Header: Depth=1
	movl	-4(%rbp), %eax
	cmpl	dpb+24, %eax
	jae	.LBB67_9
# %bb.8:                                # %while.body
                                        #   in Loop: Header=BB67_7 Depth=1
	movq	dpb+8, %rax
	movl	-4(%rbp), %ecx
	movl	%ecx, %edx
	addl	$1, %edx
	movl	%edx, -4(%rbp)
	movl	%ecx, %ecx
	movq	$0, (%rax,%rcx,8)
	jmp	.LBB67_7
.LBB67_9:                               # %while.end
	cmpl	$314342987, -12(%rbp)   # imm = 0x12BC7E4B
	jne	.LBB67_11
.LBB67_10:
	addq	$16, %rsp
	popq	%rbp
	.cfi_def_cfa %rsp, 8
	retq
.LBB67_11:                              # %func_exit
	.cfi_def_cfa %rbp, 16
	callq	detect_breach
	jmp	.LBB67_10
.Lfunc_end67:
	.size	update_ref_list.4, .Lfunc_end67-update_ref_list.4
	.cfi_endproc
                                        # -- End function
	.p2align	4, 0x90         # -- Begin function unmark_long_term_frame_for_reference_by_frame_idx.5
	.type	unmark_long_term_frame_for_reference_by_frame_idx.5,@function
unmark_long_term_frame_for_reference_by_frame_idx.5: # @unmark_long_term_frame_for_reference_by_frame_idx.5
	.cfi_startproc
# %bb.0:                                # %entry
	pushq	%rbp
	.cfi_def_cfa_offset 16
	.cfi_offset %rbp, -16
	movq	%rsp, %rbp
	.cfi_def_cfa_register %rbp
	subq	$16, %rsp
	movl	$1606772445, -8(%rbp)   # imm = 0x5FC566DD
	movl	%edi, -12(%rbp)
	movl	$0, -4(%rbp)
.LBB68_1:                               # %for.cond
                                        # =>This Inner Loop Header: Depth=1
	movl	-4(%rbp), %eax
	cmpl	dpb+36, %eax
	jae	.LBB68_6
# %bb.2:                                # %for.body
                                        #   in Loop: Header=BB68_1 Depth=1
	movq	dpb+16, %rax
	movl	-4(%rbp), %ecx
	movq	(%rax,%rcx,8), %rax
	movl	28(%rax), %eax
	cmpl	-12(%rbp), %eax
	jne	.LBB68_4
# %bb.3:                                # %if.then
                                        #   in Loop: Header=BB68_1 Depth=1
	movq	dpb+16, %rax
	movl	-4(%rbp), %ecx
	movq	(%rax,%rcx,8), %rdi
	callq	unmark_for_long_term_reference
.LBB68_4:                               # %if.end
                                        #   in Loop: Header=BB68_1 Depth=1
	jmp	.LBB68_5
.LBB68_5:                               # %for.inc
                                        #   in Loop: Header=BB68_1 Depth=1
	movl	-4(%rbp), %eax
	addl	$1, %eax
	movl	%eax, -4(%rbp)
	jmp	.LBB68_1
.LBB68_6:                               # %for.end
	cmpl	$1606772445, -8(%rbp)   # imm = 0x5FC566DD
	jne	.LBB68_8
.LBB68_7:
	addq	$16, %rsp
	popq	%rbp
	.cfi_def_cfa %rsp, 8
	retq
.LBB68_8:                               # %func_exit
	.cfi_def_cfa %rbp, 16
	callq	detect_breach
	jmp	.LBB68_7
.Lfunc_end68:
	.size	unmark_long_term_frame_for_reference_by_frame_idx.5, .Lfunc_end68-unmark_long_term_frame_for_reference_by_frame_idx.5
	.cfi_endproc
                                        # -- End function
	.globl	init_dpb.6              # -- Begin function init_dpb.6
	.p2align	4, 0x90
	.type	init_dpb.6,@function
init_dpb.6:                             # @init_dpb.6
	.cfi_startproc
# %bb.0:                                # %entry
	pushq	%rbp
	.cfi_def_cfa_offset 16
	.cfi_offset %rbp, -16
	movq	%rsp, %rbp
	.cfi_def_cfa_register %rbp
	subq	$16, %rsp
	movl	$826817414, -12(%rbp)   # imm = 0x31483B86
	cmpl	$0, dpb+48
	je	.LBB69_2
# %bb.1:                                # %if.then
	callq	free_dpb
.LBB69_2:                               # %if.end
	callq	getDpbSize
	movl	%eax, dpb+24
	movl	dpb+24, %eax
	movq	input, %rcx
	cmpl	36(%rcx), %eax
	jae	.LBB69_4
# %bb.3:                                # %if.then1
	movabsq	$.L.str.1, %rdi
	movl	$1000, %esi             # imm = 0x3E8
	callq	error
.LBB69_4:                               # %if.end2
	movl	$0, dpb+28
	movq	$0, dpb+56
	movl	$0, dpb+32
	movl	$0, dpb+36
	movl	dpb+24, %edi
	movl	$8, %esi
	callq	calloc
	xorl	%ecx, %ecx
	movq	%rax, dpb
	cmpq	dpb, %rcx
	jne	.LBB69_6
# %bb.5:                                # %if.then6
	movabsq	$.L.str.2, %rdi
	callq	no_mem_exit
.LBB69_6:                               # %if.end7
	movl	dpb+24, %edi
	movl	$8, %esi
	callq	calloc
	xorl	%ecx, %ecx
	movq	%rax, dpb+8
	cmpq	dpb+8, %rcx
	jne	.LBB69_8
# %bb.7:                                # %if.then12
	movabsq	$.L.str.3, %rdi
	callq	no_mem_exit
.LBB69_8:                               # %if.end13
	movl	dpb+24, %edi
	movl	$8, %esi
	callq	calloc
	xorl	%ecx, %ecx
	movq	%rax, dpb+16
	cmpq	dpb+16, %rcx
	jne	.LBB69_10
# %bb.9:                                # %if.then18
	movabsq	$.L.str.4, %rdi
	callq	no_mem_exit
.LBB69_10:                              # %if.end19
	movl	$0, -4(%rbp)
.LBB69_11:                              # %for.cond
                                        # =>This Inner Loop Header: Depth=1
	movl	-4(%rbp), %eax
	cmpl	dpb+24, %eax
	jae	.LBB69_14
# %bb.12:                               # %for.body
                                        #   in Loop: Header=BB69_11 Depth=1
	callq	alloc_frame_store
	movq	dpb, %rcx
	movl	-4(%rbp), %edx
	movq	%rax, (%rcx,%rdx,8)
	movq	dpb+8, %rax
	movl	-4(%rbp), %ecx
	movq	$0, (%rax,%rcx,8)
	movq	dpb+16, %rax
	movl	-4(%rbp), %ecx
	movq	$0, (%rax,%rcx,8)
# %bb.13:                               # %for.inc
                                        #   in Loop: Header=BB69_11 Depth=1
	movl	-4(%rbp), %eax
	addl	$1, %eax
	movl	%eax, -4(%rbp)
	jmp	.LBB69_11
.LBB69_14:                              # %for.end
	movl	$0, -4(%rbp)
.LBB69_15:                              # %for.cond27
                                        # =>This Inner Loop Header: Depth=1
	cmpl	$6, -4(%rbp)
	jae	.LBB69_20
# %bb.16:                               # %for.body30
                                        #   in Loop: Header=BB69_15 Depth=1
	movl	$33, %edi
	movl	$8, %esi
	callq	calloc
	xorl	%ecx, %ecx
	movl	-4(%rbp), %edx
	movq	%rax, listX(,%rdx,8)
	movl	-4(%rbp), %eax
	cmpq	listX(,%rax,8), %rcx
	jne	.LBB69_18
# %bb.17:                               # %if.then38
                                        #   in Loop: Header=BB69_15 Depth=1
	movabsq	$.L.str.5, %rdi
	callq	no_mem_exit
.LBB69_18:                              # %if.end39
                                        #   in Loop: Header=BB69_15 Depth=1
	jmp	.LBB69_19
.LBB69_19:                              # %for.inc40
                                        #   in Loop: Header=BB69_15 Depth=1
	movl	-4(%rbp), %eax
	addl	$1, %eax
	movl	%eax, -4(%rbp)
	jmp	.LBB69_15
.LBB69_20:                              # %for.end42
	movl	$0, -8(%rbp)
.LBB69_21:                              # %for.cond43
                                        # =>This Loop Header: Depth=1
                                        #     Child Loop BB69_23 Depth 2
	cmpl	$6, -8(%rbp)
	jae	.LBB69_28
# %bb.22:                               # %for.body46
                                        #   in Loop: Header=BB69_21 Depth=1
	movl	$0, -4(%rbp)
.LBB69_23:                              # %for.cond47
                                        #   Parent Loop BB69_21 Depth=1
                                        # =>  This Inner Loop Header: Depth=2
	cmpl	$33, -4(%rbp)
	jae	.LBB69_26
# %bb.24:                               # %for.body50
                                        #   in Loop: Header=BB69_23 Depth=2
	movl	-8(%rbp), %eax
	movq	listX(,%rax,8), %rax
	movl	-4(%rbp), %ecx
	movq	$0, (%rax,%rcx,8)
# %bb.25:                               # %for.inc55
                                        #   in Loop: Header=BB69_23 Depth=2
	movl	-4(%rbp), %eax
	addl	$1, %eax
	movl	%eax, -4(%rbp)
	jmp	.LBB69_23
.LBB69_26:                              # %for.end57
                                        #   in Loop: Header=BB69_21 Depth=1
	movl	-8(%rbp), %eax
	movl	$0, listXsize(,%rax,4)
# %bb.27:                               # %for.inc60
                                        #   in Loop: Header=BB69_21 Depth=1
	movl	-8(%rbp), %eax
	addl	$1, %eax
	movl	%eax, -8(%rbp)
	jmp	.LBB69_21
.LBB69_28:                              # %for.end62
	movl	$-2147483648, dpb+40    # imm = 0x80000000
	movq	img, %rax
	movl	$0, 72644(%rax)
	movl	$1, dpb+48
	cmpl	$826817414, -12(%rbp)   # imm = 0x31483B86
	jne	.LBB69_30
.LBB69_29:
	addq	$16, %rsp
	popq	%rbp
	.cfi_def_cfa %rsp, 8
	retq
.LBB69_30:                              # %func_exit
	.cfi_def_cfa %rbp, 16
	callq	detect_breach
	jmp	.LBB69_29
.Lfunc_end69:
	.size	init_dpb.6, .Lfunc_end69-init_dpb.6
	.cfi_endproc
                                        # -- End function
	.p2align	4, 0x90         # -- Begin function get_long_term_pic.7
	.type	get_long_term_pic.7,@function
get_long_term_pic.7:                    # @get_long_term_pic.7
	.cfi_startproc
# %bb.0:                                # %entry
	pushq	%rbp
	.cfi_def_cfa_offset 16
	.cfi_offset %rbp, -16
	movq	%rsp, %rbp
	.cfi_def_cfa_register %rbp
	pushq	%rbx
	subq	$24, %rsp
	.cfi_offset %rbx, -24
	movl	$718987244, -28(%rbp)   # imm = 0x2ADADFEC
	movl	%edi, -16(%rbp)
	movl	$0, -12(%rbp)
.LBB70_1:                               # %for.cond
                                        # =>This Inner Loop Header: Depth=1
	movl	-12(%rbp), %eax
	cmpl	dpb+36, %eax
	jae	.LBB70_22
# %bb.2:                                # %for.body
                                        #   in Loop: Header=BB70_1 Depth=1
	movq	img, %rax
	cmpl	$0, 28(%rax)
	jne	.LBB70_9
# %bb.3:                                # %if.then
                                        #   in Loop: Header=BB70_1 Depth=1
	movq	dpb+16, %rax
	movl	-12(%rbp), %ecx
	movq	(%rax,%rcx,8), %rax
	cmpl	$3, 4(%rax)
	jne	.LBB70_8
# %bb.4:                                # %if.then3
                                        #   in Loop: Header=BB70_1 Depth=1
	movq	dpb+16, %rax
	movl	-12(%rbp), %ecx
	movq	(%rax,%rcx,8), %rax
	movq	40(%rax), %rax
	cmpl	$0, 6376(%rax)
	je	.LBB70_7
# %bb.5:                                # %land.lhs.true
                                        #   in Loop: Header=BB70_1 Depth=1
	movq	dpb+16, %rax
	movl	-12(%rbp), %ecx
	movq	(%rax,%rcx,8), %rax
	movq	40(%rax), %rax
	movl	6368(%rax), %eax
	cmpl	-16(%rbp), %eax
	jne	.LBB70_7
# %bb.6:                                # %if.then10
	movq	dpb+16, %rax
	movl	-12(%rbp), %ecx
	movq	(%rax,%rcx,8), %rax
	movq	40(%rax), %rax
	movq	%rax, -24(%rbp)
	jmp	.LBB70_23
.LBB70_7:                               # %if.end
                                        #   in Loop: Header=BB70_1 Depth=1
	jmp	.LBB70_8
.LBB70_8:                               # %if.end14
                                        #   in Loop: Header=BB70_1 Depth=1
	jmp	.LBB70_20
.LBB70_9:                               # %if.else
                                        #   in Loop: Header=BB70_1 Depth=1
	movq	dpb+16, %rax
	movl	-12(%rbp), %ecx
	movq	(%rax,%rcx,8), %rax
	movl	4(%rax), %eax
	andl	$1, %eax
	cmpl	$0, %eax
	je	.LBB70_14
# %bb.10:                               # %if.then19
                                        #   in Loop: Header=BB70_1 Depth=1
	movq	dpb+16, %rax
	movl	-12(%rbp), %ecx
	movq	(%rax,%rcx,8), %rax
	movq	48(%rax), %rax
	cmpl	$0, 6376(%rax)
	je	.LBB70_13
# %bb.11:                               # %land.lhs.true24
                                        #   in Loop: Header=BB70_1 Depth=1
	movq	dpb+16, %rax
	movl	-12(%rbp), %ecx
	movq	(%rax,%rcx,8), %rax
	movq	48(%rax), %rax
	movl	6368(%rax), %eax
	cmpl	-16(%rbp), %eax
	jne	.LBB70_13
# %bb.12:                               # %if.then30
	movq	dpb+16, %rax
	movl	-12(%rbp), %ecx
	movq	(%rax,%rcx,8), %rax
	movq	48(%rax), %rax
	movq	%rax, -24(%rbp)
	jmp	.LBB70_23
.LBB70_13:                              # %if.end34
                                        #   in Loop: Header=BB70_1 Depth=1
	jmp	.LBB70_14
.LBB70_14:                              # %if.end35
                                        #   in Loop: Header=BB70_1 Depth=1
	movq	dpb+16, %rax
	movl	-12(%rbp), %ecx
	movq	(%rax,%rcx,8), %rax
	movl	4(%rax), %eax
	andl	$2, %eax
	cmpl	$0, %eax
	je	.LBB70_19
# %bb.15:                               # %if.then41
                                        #   in Loop: Header=BB70_1 Depth=1
	movq	dpb+16, %rax
	movl	-12(%rbp), %ecx
	movq	(%rax,%rcx,8), %rax
	movq	56(%rax), %rax
	cmpl	$0, 6376(%rax)
	je	.LBB70_18
# %bb.16:                               # %land.lhs.true46
                                        #   in Loop: Header=BB70_1 Depth=1
	movq	dpb+16, %rax
	movl	-12(%rbp), %ecx
	movq	(%rax,%rcx,8), %rax
	movq	56(%rax), %rax
	movl	6368(%rax), %eax
	cmpl	-16(%rbp), %eax
	jne	.LBB70_18
# %bb.17:                               # %if.then52
	movq	dpb+16, %rax
	movl	-12(%rbp), %ecx
	movq	(%rax,%rcx,8), %rax
	movq	56(%rax), %rax
	movq	%rax, -24(%rbp)
	jmp	.LBB70_23
.LBB70_18:                              # %if.end56
                                        #   in Loop: Header=BB70_1 Depth=1
	jmp	.LBB70_19
.LBB70_19:                              # %if.end57
                                        #   in Loop: Header=BB70_1 Depth=1
	jmp	.LBB70_20
.LBB70_20:                              # %if.end58
                                        #   in Loop: Header=BB70_1 Depth=1
	jmp	.LBB70_21
.LBB70_21:                              # %for.inc
                                        #   in Loop: Header=BB70_1 Depth=1
	movl	-12(%rbp), %eax
	addl	$1, %eax
	movl	%eax, -12(%rbp)
	jmp	.LBB70_1
.LBB70_22:                              # %for.end
	movq	$0, -24(%rbp)
.LBB70_23:                              # %return
	movq	-24(%rbp), %rbx
	cmpl	$718987244, -28(%rbp)   # imm = 0x2ADADFEC
	jne	.LBB70_25
.LBB70_24:
	movq	%rbx, %rax
	addq	$24, %rsp
	popq	%rbx
	popq	%rbp
	.cfi_def_cfa %rsp, 8
	retq
.LBB70_25:                              # %func_exit
	.cfi_def_cfa %rbp, 16
	callq	detect_breach
	jmp	.LBB70_24
.Lfunc_end70:
	.size	get_long_term_pic.7, .Lfunc_end70-get_long_term_pic.7
	.cfi_endproc
                                        # -- End function
	.p2align	4, 0x90         # -- Begin function mm_mark_current_picture_long_term.8
	.type	mm_mark_current_picture_long_term.8,@function
mm_mark_current_picture_long_term.8:    # @mm_mark_current_picture_long_term.8
	.cfi_startproc
# %bb.0:                                # %entry
	pushq	%rbp
	.cfi_def_cfa_offset 16
	.cfi_offset %rbp, -16
	movq	%rsp, %rbp
	.cfi_def_cfa_register %rbp
	subq	$32, %rsp
	movl	$1371712574, -20(%rbp)  # imm = 0x51C2AC3E
	movq	%rdi, -16(%rbp)
	movl	%esi, -4(%rbp)
	movq	-16(%rbp), %rax
	cmpl	$0, (%rax)
	jne	.LBB71_2
# %bb.1:                                # %if.then
	movl	-4(%rbp), %edi
	callq	unmark_long_term_frame_for_reference_by_frame_idx
	jmp	.LBB71_3
.LBB71_2:                               # %if.else
	movq	-16(%rbp), %rax
	movl	(%rax), %edi
	movl	-4(%rbp), %esi
	movq	-16(%rbp), %rax
	movl	6364(%rax), %ecx
	movl	$1, %edx
	xorl	%r8d, %r8d
	callq	unmark_long_term_field_for_reference_by_frame_idx
.LBB71_3:                               # %if.end
	movq	-16(%rbp), %rax
	movl	$1, 6376(%rax)
	movl	-4(%rbp), %eax
	movq	-16(%rbp), %rcx
	movl	%eax, 6372(%rcx)
	cmpl	$1371712574, -20(%rbp)  # imm = 0x51C2AC3E
	jne	.LBB71_5
.LBB71_4:
	addq	$32, %rsp
	popq	%rbp
	.cfi_def_cfa %rsp, 8
	retq
.LBB71_5:                               # %func_exit
	.cfi_def_cfa %rbp, 16
	callq	detect_breach
	jmp	.LBB71_4
.Lfunc_end71:
	.size	mm_mark_current_picture_long_term.8, .Lfunc_end71-mm_mark_current_picture_long_term.8
	.cfi_endproc
                                        # -- End function
	.globl	alloc_ref_pic_list_reordering_buffer.9 # -- Begin function alloc_ref_pic_list_reordering_buffer.9
	.p2align	4, 0x90
	.type	alloc_ref_pic_list_reordering_buffer.9,@function
alloc_ref_pic_list_reordering_buffer.9: # @alloc_ref_pic_list_reordering_buffer.9
	.cfi_startproc
# %bb.0:                                # %entry
	pushq	%rbp
	.cfi_def_cfa_offset 16
	.cfi_offset %rbp, -16
	movq	%rsp, %rbp
	.cfi_def_cfa_register %rbp
	subq	$32, %rsp
	movl	$535529537, -20(%rbp)   # imm = 0x1FEB8841
	movq	%rdi, -16(%rbp)
	movq	img, %rax
	movl	72000(%rax), %eax
	addl	$1, %eax
	movl	%eax, -4(%rbp)
	movq	img, %rax
	cmpl	$2, 24(%rax)
	je	.LBB72_9
# %bb.1:                                # %land.lhs.true
	movq	img, %rax
	cmpl	$4, 24(%rax)
	je	.LBB72_9
# %bb.2:                                # %if.then
	movslq	-4(%rbp), %rdi
	movl	$4, %esi
	callq	calloc
	movq	-16(%rbp), %rcx
	movq	%rax, 64(%rcx)
	cmpq	$0, %rax
	jne	.LBB72_4
# %bb.3:                                # %if.then5
	movabsq	$.L.str.15, %rdi
	callq	no_mem_exit
.LBB72_4:                               # %if.end
	movslq	-4(%rbp), %rdi
	movl	$4, %esi
	callq	calloc
	movq	-16(%rbp), %rcx
	movq	%rax, 72(%rcx)
	cmpq	$0, %rax
	jne	.LBB72_6
# %bb.5:                                # %if.then10
	movabsq	$.L.str.16, %rdi
	callq	no_mem_exit
.LBB72_6:                               # %if.end11
	movslq	-4(%rbp), %rdi
	movl	$4, %esi
	callq	calloc
	movq	-16(%rbp), %rcx
	movq	%rax, 80(%rcx)
	cmpq	$0, %rax
	jne	.LBB72_8
# %bb.7:                                # %if.then16
	movabsq	$.L.str.17, %rdi
	callq	no_mem_exit
.LBB72_8:                               # %if.end17
	jmp	.LBB72_10
.LBB72_9:                               # %if.else
	movq	-16(%rbp), %rax
	movq	$0, 64(%rax)
	movq	-16(%rbp), %rax
	movq	$0, 72(%rax)
	movq	-16(%rbp), %rax
	movq	$0, 80(%rax)
.LBB72_10:                              # %if.end21
	movq	img, %rax
	movl	72004(%rax), %eax
	addl	$1, %eax
	movl	%eax, -4(%rbp)
	movq	img, %rax
	cmpl	$1, 24(%rax)
	jne	.LBB72_18
# %bb.11:                               # %if.then26
	movslq	-4(%rbp), %rdi
	movl	$4, %esi
	callq	calloc
	movq	-16(%rbp), %rcx
	movq	%rax, 96(%rcx)
	cmpq	$0, %rax
	jne	.LBB72_13
# %bb.12:                               # %if.then31
	movabsq	$.L.str.18, %rdi
	callq	no_mem_exit
.LBB72_13:                              # %if.end32
	movslq	-4(%rbp), %rdi
	movl	$4, %esi
	callq	calloc
	movq	-16(%rbp), %rcx
	movq	%rax, 104(%rcx)
	cmpq	$0, %rax
	jne	.LBB72_15
# %bb.14:                               # %if.then37
	movabsq	$.L.str.19, %rdi
	callq	no_mem_exit
.LBB72_15:                              # %if.end38
	movslq	-4(%rbp), %rdi
	movl	$4, %esi
	callq	calloc
	movq	-16(%rbp), %rcx
	movq	%rax, 112(%rcx)
	cmpq	$0, %rax
	jne	.LBB72_17
# %bb.16:                               # %if.then43
	movabsq	$.L.str.20, %rdi
	callq	no_mem_exit
.LBB72_17:                              # %if.end44
	jmp	.LBB72_19
.LBB72_18:                              # %if.else45
	movq	-16(%rbp), %rax
	movq	$0, 96(%rax)
	movq	-16(%rbp), %rax
	movq	$0, 104(%rax)
	movq	-16(%rbp), %rax
	movq	$0, 112(%rax)
.LBB72_19:                              # %if.end49
	cmpl	$535529537, -20(%rbp)   # imm = 0x1FEB8841
	jne	.LBB72_21
.LBB72_20:
	addq	$32, %rsp
	popq	%rbp
	.cfi_def_cfa %rsp, 8
	retq
.LBB72_21:                              # %func_exit
	.cfi_def_cfa %rbp, 16
	callq	detect_breach
	jmp	.LBB72_20
.Lfunc_end72:
	.size	alloc_ref_pic_list_reordering_buffer.9, .Lfunc_end72-alloc_ref_pic_list_reordering_buffer.9
	.cfi_endproc
                                        # -- End function
	.p2align	4, 0x90         # -- Begin function reorder_short_term.10
	.type	reorder_short_term.10,@function
reorder_short_term.10:                  # @reorder_short_term.10
	.cfi_startproc
# %bb.0:                                # %entry
	pushq	%rbp
	.cfi_def_cfa_offset 16
	.cfi_offset %rbp, -16
	movq	%rsp, %rbp
	.cfi_def_cfa_register %rbp
	subq	$64, %rsp
	movl	$899762020, -44(%rbp)   # imm = 0x35A14764
	movq	%rdi, -16(%rbp)
	movl	%esi, -20(%rbp)
	movl	%edx, -28(%rbp)
	movq	%rcx, -40(%rbp)
	movl	-28(%rbp), %edi
	callq	get_short_term_pic
	movq	%rax, -56(%rbp)
	movl	-20(%rbp), %eax
	addl	$1, %eax
	movl	%eax, -4(%rbp)
.LBB73_1:                               # %for.cond
                                        # =>This Inner Loop Header: Depth=1
	movl	-4(%rbp), %eax
	movq	-40(%rbp), %rcx
	cmpl	(%rcx), %eax
	jle	.LBB73_4
# %bb.2:                                # %for.body
                                        #   in Loop: Header=BB73_1 Depth=1
	movq	-16(%rbp), %rax
	movl	-4(%rbp), %ecx
	subl	$1, %ecx
	movslq	%ecx, %rcx
	movq	(%rax,%rcx,8), %rax
	movq	-16(%rbp), %rcx
	movslq	-4(%rbp), %rdx
	movq	%rax, (%rcx,%rdx,8)
# %bb.3:                                # %for.inc
                                        #   in Loop: Header=BB73_1 Depth=1
	movl	-4(%rbp), %eax
	addl	$-1, %eax
	movl	%eax, -4(%rbp)
	jmp	.LBB73_1
.LBB73_4:                               # %for.end
	movq	-56(%rbp), %rax
	movq	-16(%rbp), %rcx
	movq	-40(%rbp), %rdx
	movl	(%rdx), %esi
	movl	%esi, %edi
	addl	$1, %edi
	movl	%edi, (%rdx)
	movslq	%esi, %rdx
	movq	%rax, (%rcx,%rdx,8)
	movq	-40(%rbp), %rax
	movl	(%rax), %eax
	movl	%eax, -24(%rbp)
	movq	-40(%rbp), %rax
	movl	(%rax), %eax
	movl	%eax, -4(%rbp)
.LBB73_5:                               # %for.cond5
                                        # =>This Inner Loop Header: Depth=1
	movl	-4(%rbp), %eax
	movl	-20(%rbp), %ecx
	addl	$1, %ecx
	cmpl	%ecx, %eax
	jg	.LBB73_13
# %bb.6:                                # %for.body8
                                        #   in Loop: Header=BB73_5 Depth=1
	movq	-16(%rbp), %rax
	movslq	-4(%rbp), %rcx
	cmpq	$0, (%rax,%rcx,8)
	je	.LBB73_11
# %bb.7:                                # %if.then
                                        #   in Loop: Header=BB73_5 Depth=1
	movq	-16(%rbp), %rax
	movslq	-4(%rbp), %rcx
	movq	(%rax,%rcx,8), %rax
	cmpl	$0, 6376(%rax)
	jne	.LBB73_9
# %bb.8:                                # %lor.lhs.false
                                        #   in Loop: Header=BB73_5 Depth=1
	movq	-16(%rbp), %rax
	movslq	-4(%rbp), %rcx
	movq	(%rax,%rcx,8), %rax
	movl	6364(%rax), %eax
	cmpl	-28(%rbp), %eax
	je	.LBB73_10
.LBB73_9:                               # %if.then17
                                        #   in Loop: Header=BB73_5 Depth=1
	movq	-16(%rbp), %rax
	movslq	-4(%rbp), %rcx
	movq	(%rax,%rcx,8), %rax
	movq	-16(%rbp), %rcx
	movl	-24(%rbp), %edx
	movl	%edx, %esi
	addl	$1, %esi
	movl	%esi, -24(%rbp)
	movslq	%edx, %rdx
	movq	%rax, (%rcx,%rdx,8)
.LBB73_10:                              # %if.end
                                        #   in Loop: Header=BB73_5 Depth=1
	jmp	.LBB73_11
.LBB73_11:                              # %if.end23
                                        #   in Loop: Header=BB73_5 Depth=1
	jmp	.LBB73_12
.LBB73_12:                              # %for.inc24
                                        #   in Loop: Header=BB73_5 Depth=1
	movl	-4(%rbp), %eax
	addl	$1, %eax
	movl	%eax, -4(%rbp)
	jmp	.LBB73_5
.LBB73_13:                              # %for.end26
	cmpl	$899762020, -44(%rbp)   # imm = 0x35A14764
	jne	.LBB73_15
.LBB73_14:
	addq	$64, %rsp
	popq	%rbp
	.cfi_def_cfa %rsp, 8
	retq
.LBB73_15:                              # %func_exit
	.cfi_def_cfa %rbp, 16
	callq	detect_breach
	jmp	.LBB73_14
.Lfunc_end73:
	.size	reorder_short_term.10, .Lfunc_end73-reorder_short_term.10
	.cfi_endproc
                                        # -- End function
	.globl	alloc_colocated.11      # -- Begin function alloc_colocated.11
	.p2align	4, 0x90
	.type	alloc_colocated.11,@function
alloc_colocated.11:                     # @alloc_colocated.11
	.cfi_startproc
# %bb.0:                                # %entry
	pushq	%rbp
	.cfi_def_cfa_offset 16
	.cfi_offset %rbp, -16
	movq	%rsp, %rbp
	.cfi_def_cfa_register %rbp
	pushq	%rbx
	subq	$24, %rsp
	.cfi_offset %rbx, -24
	movl	$1390640775, -32(%rbp)  # imm = 0x52E37E87
	movl	%edi, -16(%rbp)
	movl	%esi, -12(%rbp)
	movl	%edx, -28(%rbp)
	movl	$1, %edi
	movl	$4880, %esi             # imm = 0x1310
	callq	calloc
	xorl	%ecx, %ecx
	movq	%rax, -24(%rbp)
	cmpq	-24(%rbp), %rcx
	jne	.LBB74_2
# %bb.1:                                # %if.then
	movabsq	$.L.str.21, %rdi
	callq	no_mem_exit
.LBB74_2:                               # %if.end
	movl	-16(%rbp), %eax
	movq	-24(%rbp), %rcx
	movl	%eax, 4(%rcx)
	movl	-12(%rbp), %eax
	movq	-24(%rbp), %rcx
	movl	%eax, 8(%rcx)
	movq	-24(%rbp), %rdi
	addq	$1600, %rdi             # imm = 0x640
	movl	-16(%rbp), %eax
	cltd
	movl	$4, %esi
	idivl	%esi
	movl	%eax, %ecx
	movl	-12(%rbp), %eax
	cltd
	idivl	%esi
	movl	$2, %esi
	movl	%ecx, %edx
	movl	%eax, %ecx
	callq	get_mem3Dshort
	movq	-24(%rbp), %rdi
	addq	$1608, %rdi             # imm = 0x648
	movl	-16(%rbp), %eax
	cltd
	movl	$4, %esi
	idivl	%esi
	movl	%eax, %ecx
	movl	-12(%rbp), %eax
	cltd
	idivl	%esi
	movl	$2, %esi
	movl	%ecx, %edx
	movl	%eax, %ecx
	callq	get_mem3Dint64
	movq	-24(%rbp), %rdi
	addq	$1616, %rdi             # imm = 0x650
	movl	-16(%rbp), %eax
	cltd
	movl	$4, %esi
	idivl	%esi
	movl	%eax, %ecx
	movl	-12(%rbp), %eax
	cltd
	idivl	%esi
	movl	$2, %esi
	movl	%ecx, %edx
	movl	%eax, %ecx
	movl	$2, %r8d
	callq	get_mem4Dshort
	movq	-24(%rbp), %rdi
	addq	$1624, %rdi             # imm = 0x658
	movl	-16(%rbp), %eax
	cltd
	movl	$4, %ecx
	idivl	%ecx
	movl	%eax, %esi
	movl	-12(%rbp), %eax
	cltd
	idivl	%ecx
	movl	%eax, %edx
	callq	get_mem2D
	movq	-24(%rbp), %rdi
	addq	$4872, %rdi             # imm = 0x1308
	movl	-16(%rbp), %eax
	cltd
	movl	$4, %ecx
	idivl	%ecx
	movl	%eax, %esi
	movl	-12(%rbp), %eax
	cltd
	idivl	%ecx
	movl	%eax, %edx
	callq	get_mem2D
	cmpl	$0, -28(%rbp)
	je	.LBB74_4
# %bb.3:                                # %if.then17
	movq	-24(%rbp), %rdi
	addq	$3216, %rdi             # imm = 0xC90
	movl	-16(%rbp), %eax
	cltd
	movl	$4, %esi
	idivl	%esi
	movl	%eax, %ecx
	movl	-12(%rbp), %eax
	cltd
	idivl	%esi
	cltd
	movl	$2, %esi
	idivl	%esi
	movl	$2, %esi
	movl	%ecx, %edx
	movl	%eax, %ecx
	callq	get_mem3Dshort
	movq	-24(%rbp), %rdi
	addq	$3224, %rdi             # imm = 0xC98
	movl	-16(%rbp), %eax
	cltd
	movl	$4, %esi
	idivl	%esi
	movl	%eax, %ecx
	movl	-12(%rbp), %eax
	cltd
	idivl	%esi
	cltd
	movl	$2, %esi
	idivl	%esi
	movl	$2, %esi
	movl	%ecx, %edx
	movl	%eax, %ecx
	callq	get_mem3Dint64
	movq	-24(%rbp), %rdi
	addq	$3232, %rdi             # imm = 0xCA0
	movl	-16(%rbp), %eax
	cltd
	movl	$4, %esi
	idivl	%esi
	movl	%eax, %ecx
	movl	-12(%rbp), %eax
	cltd
	idivl	%esi
	cltd
	movl	$2, %esi
	idivl	%esi
	movl	$2, %esi
	movl	%ecx, %edx
	movl	%eax, %ecx
	movl	$2, %r8d
	callq	get_mem4Dshort
	movq	-24(%rbp), %rdi
	addq	$3240, %rdi             # imm = 0xCA8
	movl	-16(%rbp), %eax
	cltd
	movl	$4, %ecx
	idivl	%ecx
	movl	%eax, %esi
	movl	-12(%rbp), %eax
	cltd
	idivl	%ecx
	cltd
	movl	$2, %ecx
	idivl	%ecx
	movl	%eax, %edx
	callq	get_mem2D
	movq	-24(%rbp), %rdi
	addq	$4832, %rdi             # imm = 0x12E0
	movl	-16(%rbp), %eax
	cltd
	movl	$4, %esi
	idivl	%esi
	movl	%eax, %ecx
	movl	-12(%rbp), %eax
	cltd
	idivl	%esi
	cltd
	movl	$2, %esi
	idivl	%esi
	movl	$2, %esi
	movl	%ecx, %edx
	movl	%eax, %ecx
	callq	get_mem3Dshort
	movq	-24(%rbp), %rdi
	addq	$4840, %rdi             # imm = 0x12E8
	movl	-16(%rbp), %eax
	cltd
	movl	$4, %esi
	idivl	%esi
	movl	%eax, %ecx
	movl	-12(%rbp), %eax
	cltd
	idivl	%esi
	cltd
	movl	$2, %esi
	idivl	%esi
	movl	$2, %esi
	movl	%ecx, %edx
	movl	%eax, %ecx
	callq	get_mem3Dint64
	movq	-24(%rbp), %rdi
	addq	$4848, %rdi             # imm = 0x12F0
	movl	-16(%rbp), %eax
	cltd
	movl	$4, %esi
	idivl	%esi
	movl	%eax, %ecx
	movl	-12(%rbp), %eax
	cltd
	idivl	%esi
	cltd
	movl	$2, %esi
	idivl	%esi
	movl	$2, %esi
	movl	%ecx, %edx
	movl	%eax, %ecx
	movl	$2, %r8d
	callq	get_mem4Dshort
	movq	-24(%rbp), %rdi
	addq	$4856, %rdi             # imm = 0x12F8
	movl	-16(%rbp), %eax
	cltd
	movl	$4, %ecx
	idivl	%ecx
	movl	%eax, %esi
	movl	-12(%rbp), %eax
	cltd
	idivl	%ecx
	cltd
	movl	$2, %ecx
	idivl	%ecx
	movl	%eax, %edx
	callq	get_mem2D
.LBB74_4:                               # %if.end50
	movl	-28(%rbp), %eax
	movq	-24(%rbp), %rcx
	movl	%eax, (%rcx)
	movq	-24(%rbp), %rbx
	cmpl	$1390640775, -32(%rbp)  # imm = 0x52E37E87
	jne	.LBB74_6
.LBB74_5:
	movq	%rbx, %rax
	addq	$24, %rsp
	popq	%rbx
	popq	%rbp
	.cfi_def_cfa %rsp, 8
	retq
.LBB74_6:                               # %func_exit
	.cfi_def_cfa %rbp, 16
	callq	detect_breach
	jmp	.LBB74_5
.Lfunc_end74:
	.size	alloc_colocated.11, .Lfunc_end74-alloc_colocated.11
	.cfi_endproc
                                        # -- End function
	.p2align	4, 0x90         # -- Begin function compare_fs_by_frame_num_desc.12
	.type	compare_fs_by_frame_num_desc.12,@function
compare_fs_by_frame_num_desc.12:        # @compare_fs_by_frame_num_desc.12
	.cfi_startproc
# %bb.0:                                # %entry
	pushq	%rbp
	.cfi_def_cfa_offset 16
	.cfi_offset %rbp, -16
	movq	%rsp, %rbp
	.cfi_def_cfa_register %rbp
	pushq	%rbx
	subq	$24, %rsp
	.cfi_offset %rbx, -24
	movl	$841425795, -16(%rbp)   # imm = 0x32272383
	movq	%rdi, -24(%rbp)
	movq	%rsi, -32(%rbp)
	movq	-24(%rbp), %rax
	movq	(%rax), %rax
	movl	24(%rax), %eax
	movq	-32(%rbp), %rcx
	movq	(%rcx), %rcx
	cmpl	24(%rcx), %eax
	jge	.LBB75_2
# %bb.1:                                # %if.then
	movl	$1, -12(%rbp)
	jmp	.LBB75_5
.LBB75_2:                               # %if.end
	movq	-24(%rbp), %rax
	movq	(%rax), %rax
	movl	24(%rax), %eax
	movq	-32(%rbp), %rcx
	movq	(%rcx), %rcx
	cmpl	24(%rcx), %eax
	jle	.LBB75_4
# %bb.3:                                # %if.then5
	movl	$-1, -12(%rbp)
	jmp	.LBB75_5
.LBB75_4:                               # %if.else
	movl	$0, -12(%rbp)
.LBB75_5:                               # %return
	movl	-12(%rbp), %ebx
	cmpl	$841425795, -16(%rbp)   # imm = 0x32272383
	jne	.LBB75_7
.LBB75_6:
	movl	%ebx, %eax
	addq	$24, %rsp
	popq	%rbx
	popq	%rbp
	.cfi_def_cfa %rsp, 8
	retq
.LBB75_7:                               # %func_exit
	.cfi_def_cfa %rbp, 16
	callq	detect_breach
	jmp	.LBB75_6
.Lfunc_end75:
	.size	compare_fs_by_frame_num_desc.12, .Lfunc_end75-compare_fs_by_frame_num_desc.12
	.cfi_endproc
                                        # -- End function
	.p2align	4, 0x90         # -- Begin function unmark_long_term_frame_for_reference_by_frame_idx.13
	.type	unmark_long_term_frame_for_reference_by_frame_idx.13,@function
unmark_long_term_frame_for_reference_by_frame_idx.13: # @unmark_long_term_frame_for_reference_by_frame_idx.13
	.cfi_startproc
# %bb.0:                                # %entry
	pushq	%rbp
	.cfi_def_cfa_offset 16
	.cfi_offset %rbp, -16
	movq	%rsp, %rbp
	.cfi_def_cfa_register %rbp
	subq	$16, %rsp
	movl	$1750624482, -12(%rbp)  # imm = 0x685868E2
	movl	%edi, -8(%rbp)
	movl	$0, -4(%rbp)
.LBB76_1:                               # %for.cond
                                        # =>This Inner Loop Header: Depth=1
	movl	-4(%rbp), %eax
	cmpl	dpb+36, %eax
	jae	.LBB76_6
# %bb.2:                                # %for.body
                                        #   in Loop: Header=BB76_1 Depth=1
	movq	dpb+16, %rax
	movl	-4(%rbp), %ecx
	movq	(%rax,%rcx,8), %rax
	movl	28(%rax), %eax
	cmpl	-8(%rbp), %eax
	jne	.LBB76_4
# %bb.3:                                # %if.then
                                        #   in Loop: Header=BB76_1 Depth=1
	movq	dpb+16, %rax
	movl	-4(%rbp), %ecx
	movq	(%rax,%rcx,8), %rdi
	callq	unmark_for_long_term_reference
.LBB76_4:                               # %if.end
                                        #   in Loop: Header=BB76_1 Depth=1
	jmp	.LBB76_5
.LBB76_5:                               # %for.inc
                                        #   in Loop: Header=BB76_1 Depth=1
	movl	-4(%rbp), %eax
	addl	$1, %eax
	movl	%eax, -4(%rbp)
	jmp	.LBB76_1
.LBB76_6:                               # %for.end
	cmpl	$1750624482, -12(%rbp)  # imm = 0x685868E2
	jne	.LBB76_8
.LBB76_7:
	addq	$16, %rsp
	popq	%rbp
	.cfi_def_cfa %rsp, 8
	retq
.LBB76_8:                               # %func_exit
	.cfi_def_cfa %rbp, 16
	callq	detect_breach
	jmp	.LBB76_7
.Lfunc_end76:
	.size	unmark_long_term_frame_for_reference_by_frame_idx.13, .Lfunc_end76-unmark_long_term_frame_for_reference_by_frame_idx.13
	.cfi_endproc
                                        # -- End function
	.p2align	4, 0x90         # -- Begin function compare_fs_by_poc_desc.14
	.type	compare_fs_by_poc_desc.14,@function
compare_fs_by_poc_desc.14:              # @compare_fs_by_poc_desc.14
	.cfi_startproc
# %bb.0:                                # %entry
	pushq	%rbp
	.cfi_def_cfa_offset 16
	.cfi_offset %rbp, -16
	movq	%rsp, %rbp
	.cfi_def_cfa_register %rbp
	pushq	%rbx
	subq	$24, %rsp
	.cfi_offset %rbx, -24
	movl	$912102292, -16(%rbp)   # imm = 0x365D9394
	movq	%rdi, -24(%rbp)
	movq	%rsi, -32(%rbp)
	movq	-24(%rbp), %rax
	movq	(%rax), %rax
	movl	36(%rax), %eax
	movq	-32(%rbp), %rcx
	movq	(%rcx), %rcx
	cmpl	36(%rcx), %eax
	jge	.LBB77_2
# %bb.1:                                # %if.then
	movl	$1, -12(%rbp)
	jmp	.LBB77_5
.LBB77_2:                               # %if.end
	movq	-24(%rbp), %rax
	movq	(%rax), %rax
	movl	36(%rax), %eax
	movq	-32(%rbp), %rcx
	movq	(%rcx), %rcx
	cmpl	36(%rcx), %eax
	jle	.LBB77_4
# %bb.3:                                # %if.then5
	movl	$-1, -12(%rbp)
	jmp	.LBB77_5
.LBB77_4:                               # %if.else
	movl	$0, -12(%rbp)
.LBB77_5:                               # %return
	movl	-12(%rbp), %ebx
	cmpl	$912102292, -16(%rbp)   # imm = 0x365D9394
	jne	.LBB77_7
.LBB77_6:
	movl	%ebx, %eax
	addq	$24, %rsp
	popq	%rbx
	popq	%rbp
	.cfi_def_cfa %rsp, 8
	retq
.LBB77_7:                               # %func_exit
	.cfi_def_cfa %rbp, 16
	callq	detect_breach
	jmp	.LBB77_6
.Lfunc_end77:
	.size	compare_fs_by_poc_desc.14, .Lfunc_end77-compare_fs_by_poc_desc.14
	.cfi_endproc
                                        # -- End function
	.p2align	4, 0x90         # -- Begin function compare_pic_by_poc_asc.15
	.type	compare_pic_by_poc_asc.15,@function
compare_pic_by_poc_asc.15:              # @compare_pic_by_poc_asc.15
	.cfi_startproc
# %bb.0:                                # %entry
	pushq	%rbp
	.cfi_def_cfa_offset 16
	.cfi_offset %rbp, -16
	movq	%rsp, %rbp
	.cfi_def_cfa_register %rbp
	pushq	%rbx
	subq	$24, %rsp
	.cfi_offset %rbx, -24
	movl	$425006058, -16(%rbp)   # imm = 0x195513EA
	movq	%rdi, -24(%rbp)
	movq	%rsi, -32(%rbp)
	movq	-24(%rbp), %rax
	movq	(%rax), %rax
	movl	4(%rax), %eax
	movq	-32(%rbp), %rcx
	movq	(%rcx), %rcx
	cmpl	4(%rcx), %eax
	jge	.LBB78_2
# %bb.1:                                # %if.then
	movl	$-1, -12(%rbp)
	jmp	.LBB78_5
.LBB78_2:                               # %if.end
	movq	-24(%rbp), %rax
	movq	(%rax), %rax
	movl	4(%rax), %eax
	movq	-32(%rbp), %rcx
	movq	(%rcx), %rcx
	cmpl	4(%rcx), %eax
	jle	.LBB78_4
# %bb.3:                                # %if.then5
	movl	$1, -12(%rbp)
	jmp	.LBB78_5
.LBB78_4:                               # %if.else
	movl	$0, -12(%rbp)
.LBB78_5:                               # %return
	movl	-12(%rbp), %ebx
	cmpl	$425006058, -16(%rbp)   # imm = 0x195513EA
	jne	.LBB78_7
.LBB78_6:
	movl	%ebx, %eax
	addq	$24, %rsp
	popq	%rbx
	popq	%rbp
	.cfi_def_cfa %rsp, 8
	retq
.LBB78_7:                               # %func_exit
	.cfi_def_cfa %rbp, 16
	callq	detect_breach
	jmp	.LBB78_6
.Lfunc_end78:
	.size	compare_pic_by_poc_asc.15, .Lfunc_end78-compare_pic_by_poc_asc.15
	.cfi_endproc
                                        # -- End function
	.globl	dpb_combine_field.16    # -- Begin function dpb_combine_field.16
	.p2align	4, 0x90
	.type	dpb_combine_field.16,@function
dpb_combine_field.16:                   # @dpb_combine_field.16
	.cfi_startproc
# %bb.0:                                # %entry
	pushq	%rbp
	.cfi_def_cfa_offset 16
	.cfi_offset %rbp, -16
	movq	%rsp, %rbp
	.cfi_def_cfa_register %rbp
	subq	$32, %rsp
	movl	$874927697, -32(%rbp)   # imm = 0x34265651
	movq	%rdi, -16(%rbp)
	movq	-16(%rbp), %rax
	movq	48(%rax), %rax
	movl	6392(%rax), %esi
	movq	-16(%rbp), %rax
	movq	48(%rax), %rax
	movl	6396(%rax), %edx
	shll	$1, %edx
	movq	-16(%rbp), %rax
	movq	48(%rax), %rax
	movl	6400(%rax), %ecx
	movq	-16(%rbp), %rax
	movq	48(%rax), %rax
	movl	6404(%rax), %r8d
	shll	$1, %r8d
	xorl	%edi, %edi
	callq	alloc_storable_picture
	movq	-16(%rbp), %rcx
	movq	%rax, 40(%rcx)
	movl	$0, -4(%rbp)
.LBB79_1:                               # %for.cond
                                        # =>This Inner Loop Header: Depth=1
	movl	-4(%rbp), %eax
	movq	-16(%rbp), %rcx
	movq	48(%rcx), %rcx
	cmpl	6396(%rcx), %eax
	jge	.LBB79_4
# %bb.2:                                # %for.body
                                        #   in Loop: Header=BB79_1 Depth=1
	movq	-16(%rbp), %rax
	movq	40(%rax), %rax
	movq	6424(%rax), %rax
	movl	-4(%rbp), %ecx
	shll	$1, %ecx
	movslq	%ecx, %rcx
	movq	(%rax,%rcx,8), %rdi
	movq	-16(%rbp), %rax
	movq	48(%rax), %rax
	movq	6424(%rax), %rax
	movslq	-4(%rbp), %rcx
	movq	(%rax,%rcx,8), %rsi
	movq	-16(%rbp), %rax
	movq	48(%rax), %rax
	movslq	6392(%rax), %rdx
	shlq	$1, %rdx
	callq	memcpy
	movq	-16(%rbp), %rax
	movq	40(%rax), %rax
	movq	6424(%rax), %rax
	movl	-4(%rbp), %ecx
	shll	$1, %ecx
	addl	$1, %ecx
	movslq	%ecx, %rcx
	movq	(%rax,%rcx,8), %rdi
	movq	-16(%rbp), %rax
	movq	56(%rax), %rax
	movq	6424(%rax), %rax
	movslq	-4(%rbp), %rcx
	movq	(%rax,%rcx,8), %rsi
	movq	-16(%rbp), %rax
	movq	56(%rax), %rax
	movslq	6392(%rax), %rdx
	shlq	$1, %rdx
	callq	memcpy
# %bb.3:                                # %for.inc
                                        #   in Loop: Header=BB79_1 Depth=1
	movl	-4(%rbp), %eax
	addl	$1, %eax
	movl	%eax, -4(%rbp)
	jmp	.LBB79_1
.LBB79_4:                               # %for.end
	movl	$0, -4(%rbp)
.LBB79_5:                               # %for.cond28
                                        # =>This Inner Loop Header: Depth=1
	movl	-4(%rbp), %eax
	movq	-16(%rbp), %rcx
	movq	48(%rcx), %rcx
	cmpl	6404(%rcx), %eax
	jge	.LBB79_8
# %bb.6:                                # %for.body33
                                        #   in Loop: Header=BB79_5 Depth=1
	movq	-16(%rbp), %rax
	movq	40(%rax), %rax
	movq	6464(%rax), %rax
	movq	(%rax), %rax
	movl	-4(%rbp), %ecx
	shll	$1, %ecx
	movslq	%ecx, %rcx
	movq	(%rax,%rcx,8), %rdi
	movq	-16(%rbp), %rax
	movq	48(%rax), %rax
	movq	6464(%rax), %rax
	movq	(%rax), %rax
	movslq	-4(%rbp), %rcx
	movq	(%rax,%rcx,8), %rsi
	movq	-16(%rbp), %rax
	movq	48(%rax), %rax
	movslq	6400(%rax), %rdx
	shlq	$1, %rdx
	callq	memcpy
	movq	-16(%rbp), %rax
	movq	40(%rax), %rax
	movq	6464(%rax), %rax
	movq	(%rax), %rax
	movl	-4(%rbp), %ecx
	shll	$1, %ecx
	addl	$1, %ecx
	movslq	%ecx, %rcx
	movq	(%rax,%rcx,8), %rdi
	movq	-16(%rbp), %rax
	movq	56(%rax), %rax
	movq	6464(%rax), %rax
	movq	(%rax), %rax
	movslq	-4(%rbp), %rcx
	movq	(%rax,%rcx,8), %rsi
	movq	-16(%rbp), %rax
	movq	56(%rax), %rax
	movslq	6400(%rax), %rdx
	shlq	$1, %rdx
	callq	memcpy
	movq	-16(%rbp), %rax
	movq	40(%rax), %rax
	movq	6464(%rax), %rax
	movq	8(%rax), %rax
	movl	-4(%rbp), %ecx
	shll	$1, %ecx
	movslq	%ecx, %rcx
	movq	(%rax,%rcx,8), %rdi
	movq	-16(%rbp), %rax
	movq	48(%rax), %rax
	movq	6464(%rax), %rax
	movq	8(%rax), %rax
	movslq	-4(%rbp), %rcx
	movq	(%rax,%rcx,8), %rsi
	movq	-16(%rbp), %rax
	movq	48(%rax), %rax
	movslq	6400(%rax), %rdx
	shlq	$1, %rdx
	callq	memcpy
	movq	-16(%rbp), %rax
	movq	40(%rax), %rax
	movq	6464(%rax), %rax
	movq	8(%rax), %rax
	movl	-4(%rbp), %ecx
	shll	$1, %ecx
	addl	$1, %ecx
	movslq	%ecx, %rcx
	movq	(%rax,%rcx,8), %rdi
	movq	-16(%rbp), %rax
	movq	56(%rax), %rax
	movq	6464(%rax), %rax
	movq	8(%rax), %rax
	movslq	-4(%rbp), %rcx
	movq	(%rax,%rcx,8), %rsi
	movq	-16(%rbp), %rax
	movq	56(%rax), %rax
	movslq	6400(%rax), %rdx
	shlq	$1, %rdx
	callq	memcpy
# %bb.7:                                # %for.inc95
                                        #   in Loop: Header=BB79_5 Depth=1
	movl	-4(%rbp), %eax
	addl	$1, %eax
	movl	%eax, -4(%rbp)
	jmp	.LBB79_5
.LBB79_8:                               # %for.end97
	movq	-16(%rbp), %rax
	movq	40(%rax), %rdi
	callq	UnifiedOneForthPix
	movq	-16(%rbp), %rax
	movq	48(%rax), %rax
	movl	4(%rax), %eax
	movq	-16(%rbp), %rcx
	movq	56(%rcx), %rcx
	cmpl	4(%rcx), %eax
	jge	.LBB79_10
# %bb.9:                                # %cond.true
	movq	-16(%rbp), %rax
	movq	48(%rax), %rax
	movl	4(%rax), %ecx
	jmp	.LBB79_11
.LBB79_10:                              # %cond.false
	movq	-16(%rbp), %rax
	movq	56(%rax), %rax
	movl	4(%rax), %ecx
.LBB79_11:                              # %cond.end
	xorl	%eax, %eax
	movq	-16(%rbp), %rdx
	movq	40(%rdx), %rdx
	movl	%ecx, 16(%rdx)
	movq	-16(%rbp), %rdx
	movq	40(%rdx), %rdx
	movl	%ecx, 4(%rdx)
	movq	-16(%rbp), %rdx
	movl	%ecx, 36(%rdx)
	movq	-16(%rbp), %rcx
	movq	48(%rcx), %rcx
	movl	4(%rcx), %ecx
	movq	-16(%rbp), %rdx
	movq	40(%rdx), %rdx
	movl	%ecx, 8(%rdx)
	movq	-16(%rbp), %rdx
	movq	40(%rdx), %rdx
	movl	%ecx, 16(%rdx)
	movq	-16(%rbp), %rdx
	movq	56(%rdx), %rdx
	movl	%ecx, 8(%rdx)
	movq	-16(%rbp), %rdx
	movq	48(%rdx), %rdx
	movl	%ecx, 16(%rdx)
	movq	-16(%rbp), %rdx
	movq	56(%rdx), %rdx
	movl	%ecx, 16(%rdx)
	movq	-16(%rbp), %rcx
	movq	56(%rcx), %rcx
	movl	4(%rcx), %ecx
	movq	-16(%rbp), %rdx
	movq	48(%rdx), %rdx
	movl	%ecx, 12(%rdx)
	movq	-16(%rbp), %rcx
	movq	56(%rcx), %rcx
	movl	4(%rcx), %ecx
	movq	-16(%rbp), %rdx
	movq	40(%rdx), %rdx
	movl	%ecx, 12(%rdx)
	movq	-16(%rbp), %rcx
	movq	48(%rcx), %rcx
	cmpl	$0, 6380(%rcx)
	je	.LBB79_13
# %bb.12:                               # %land.rhs
	movq	-16(%rbp), %rax
	movq	56(%rax), %rax
	cmpl	$0, 6380(%rax)
	setne	%al
.LBB79_13:                              # %land.end
	xorl	%ecx, %ecx
	andb	$1, %al
	movzbl	%al, %eax
	movq	-16(%rbp), %rdx
	movq	40(%rdx), %rdx
	movl	%eax, 6380(%rdx)
	movq	-16(%rbp), %rax
	movq	48(%rax), %rax
	cmpl	$0, 6376(%rax)
	je	.LBB79_15
# %bb.14:                               # %land.rhs138
	movq	-16(%rbp), %rax
	movq	56(%rax), %rax
	cmpl	$0, 6376(%rax)
	setne	%cl
.LBB79_15:                              # %land.end142
	andb	$1, %cl
	movzbl	%cl, %eax
	movq	-16(%rbp), %rcx
	movq	40(%rcx), %rcx
	movl	%eax, 6376(%rcx)
	movq	-16(%rbp), %rax
	movq	40(%rax), %rax
	cmpl	$0, 6376(%rax)
	je	.LBB79_17
# %bb.16:                               # %if.then
	movq	-16(%rbp), %rax
	movl	28(%rax), %eax
	movq	-16(%rbp), %rcx
	movq	40(%rcx), %rcx
	movl	%eax, 6372(%rcx)
.LBB79_17:                              # %if.end
	movq	-16(%rbp), %rax
	movq	48(%rax), %rax
	movq	-16(%rbp), %rcx
	movq	40(%rcx), %rcx
	movq	%rax, 6528(%rcx)
	movq	-16(%rbp), %rax
	movq	56(%rax), %rax
	movq	-16(%rbp), %rcx
	movq	40(%rcx), %rcx
	movq	%rax, 6536(%rcx)
	movq	-16(%rbp), %rax
	movq	40(%rax), %rax
	movl	$0, 6412(%rax)
	movq	-16(%rbp), %rax
	movq	48(%rax), %rax
	movl	6552(%rax), %eax
	movq	-16(%rbp), %rcx
	movq	40(%rcx), %rcx
	movl	%eax, 6552(%rcx)
	movq	-16(%rbp), %rax
	movq	48(%rax), %rax
	movl	6560(%rax), %eax
	movq	-16(%rbp), %rcx
	movq	40(%rcx), %rcx
	movl	%eax, 6560(%rcx)
	movq	-16(%rbp), %rax
	movq	40(%rax), %rax
	cmpl	$0, 6560(%rax)
	je	.LBB79_19
# %bb.18:                               # %if.then167
	movq	-16(%rbp), %rax
	movq	48(%rax), %rax
	movl	6572(%rax), %eax
	movq	-16(%rbp), %rcx
	movq	40(%rcx), %rcx
	movl	%eax, 6572(%rcx)
	movq	-16(%rbp), %rax
	movq	48(%rax), %rax
	movl	6576(%rax), %eax
	movq	-16(%rbp), %rcx
	movq	40(%rcx), %rcx
	movl	%eax, 6576(%rcx)
	movq	-16(%rbp), %rax
	movq	48(%rax), %rax
	movl	6564(%rax), %eax
	movq	-16(%rbp), %rcx
	movq	40(%rcx), %rcx
	movl	%eax, 6564(%rcx)
	movq	-16(%rbp), %rax
	movq	48(%rax), %rax
	movl	6568(%rax), %eax
	movq	-16(%rbp), %rcx
	movq	40(%rcx), %rcx
	movl	%eax, 6568(%rcx)
.LBB79_19:                              # %if.end180
	movq	-16(%rbp), %rax
	movq	40(%rax), %rax
	movq	-16(%rbp), %rcx
	movq	56(%rcx), %rcx
	movq	%rax, 6544(%rcx)
	movq	-16(%rbp), %rcx
	movq	48(%rcx), %rcx
	movq	%rax, 6544(%rcx)
	movl	$0, -4(%rbp)
.LBB79_20:                              # %for.cond186
                                        # =>This Inner Loop Header: Depth=1
	movl	-4(%rbp), %ecx
	movl	listXsize+4, %eax
	addl	$1, %eax
	cltd
	movl	$2, %esi
	idivl	%esi
	cmpl	%eax, %ecx
	jge	.LBB79_26
# %bb.21:                               # %for.body190
                                        #   in Loop: Header=BB79_20 Depth=1
	movq	-16(%rbp), %rax
	movq	48(%rax), %rax
	movl	-4(%rbp), %ecx
	shll	$1, %ecx
	movslq	%ecx, %rcx
	movq	288(%rax,%rcx,8), %rax
	cqto
	movl	$2, %esi
	idivq	%rsi
	movq	%rax, %rcx
	shlq	$1, %rcx
	movq	-16(%rbp), %rax
	movq	56(%rax), %rax
	movl	-4(%rbp), %edx
	shll	$1, %edx
	movslq	%edx, %rdx
	movq	288(%rax,%rdx,8), %rax
	cqto
	idivq	%rsi
	shlq	$1, %rax
	cmpq	%rax, %rcx
	jge	.LBB79_23
# %bb.22:                               # %cond.true208
                                        #   in Loop: Header=BB79_20 Depth=1
	movq	-16(%rbp), %rax
	movq	48(%rax), %rax
	movl	-4(%rbp), %ecx
	shll	$1, %ecx
	movslq	%ecx, %rcx
	movq	288(%rax,%rcx,8), %rax
	cqto
	movl	$2, %ecx
	idivq	%rcx
	shlq	$1, %rax
	jmp	.LBB79_24
.LBB79_23:                              # %cond.false217
                                        #   in Loop: Header=BB79_20 Depth=1
	movq	-16(%rbp), %rax
	movq	56(%rax), %rax
	movl	-4(%rbp), %ecx
	shll	$1, %ecx
	movslq	%ecx, %rcx
	movq	288(%rax,%rcx,8), %rax
	cqto
	movl	$2, %ecx
	idivq	%rcx
	shlq	$1, %rax
.LBB79_24:                              # %cond.end226
                                        #   in Loop: Header=BB79_20 Depth=1
	movq	-16(%rbp), %rcx
	movq	40(%rcx), %rcx
	movslq	-4(%rbp), %rdx
	movq	%rax, 288(%rcx,%rdx,8)
# %bb.25:                               # %for.inc233
                                        #   in Loop: Header=BB79_20 Depth=1
	movl	-4(%rbp), %eax
	addl	$1, %eax
	movl	%eax, -4(%rbp)
	jmp	.LBB79_20
.LBB79_26:                              # %for.end235
	movl	$0, -4(%rbp)
.LBB79_27:                              # %for.cond236
                                        # =>This Inner Loop Header: Depth=1
	movl	-4(%rbp), %ecx
	movl	listXsize, %eax
	addl	$1, %eax
	cltd
	movl	$2, %esi
	idivl	%esi
	cmpl	%eax, %ecx
	jge	.LBB79_33
# %bb.28:                               # %for.body241
                                        #   in Loop: Header=BB79_27 Depth=1
	movq	-16(%rbp), %rax
	movq	48(%rax), %rax
	movl	-4(%rbp), %ecx
	shll	$1, %ecx
	movslq	%ecx, %rcx
	movq	24(%rax,%rcx,8), %rax
	cqto
	movl	$2, %esi
	idivq	%rsi
	movq	%rax, %rcx
	shlq	$1, %rcx
	movq	-16(%rbp), %rax
	movq	56(%rax), %rax
	movl	-4(%rbp), %edx
	shll	$1, %edx
	movslq	%edx, %rdx
	movq	24(%rax,%rdx,8), %rax
	cqto
	idivq	%rsi
	shlq	$1, %rax
	cmpq	%rax, %rcx
	jge	.LBB79_30
# %bb.29:                               # %cond.true260
                                        #   in Loop: Header=BB79_27 Depth=1
	movq	-16(%rbp), %rax
	movq	48(%rax), %rax
	movl	-4(%rbp), %ecx
	shll	$1, %ecx
	movslq	%ecx, %rcx
	movq	24(%rax,%rcx,8), %rax
	cqto
	movl	$2, %ecx
	idivq	%rcx
	shlq	$1, %rax
	jmp	.LBB79_31
.LBB79_30:                              # %cond.false269
                                        #   in Loop: Header=BB79_27 Depth=1
	movq	-16(%rbp), %rax
	movq	56(%rax), %rax
	movl	-4(%rbp), %ecx
	shll	$1, %ecx
	movslq	%ecx, %rcx
	movq	24(%rax,%rcx,8), %rax
	cqto
	movl	$2, %ecx
	idivq	%rcx
	shlq	$1, %rax
.LBB79_31:                              # %cond.end278
                                        #   in Loop: Header=BB79_27 Depth=1
	movq	-16(%rbp), %rcx
	movq	40(%rcx), %rcx
	movslq	-4(%rbp), %rdx
	movq	%rax, 24(%rcx,%rdx,8)
# %bb.32:                               # %for.inc285
                                        #   in Loop: Header=BB79_27 Depth=1
	movl	-4(%rbp), %eax
	addl	$1, %eax
	movl	%eax, -4(%rbp)
	jmp	.LBB79_27
.LBB79_33:                              # %for.end287
	movl	$0, -4(%rbp)
.LBB79_34:                              # %for.cond288
                                        # =>This Loop Header: Depth=1
                                        #     Child Loop BB79_36 Depth 2
	movl	-4(%rbp), %ecx
	movq	-16(%rbp), %rax
	movq	48(%rax), %rax
	movl	6392(%rax), %eax
	cltd
	movl	$4, %esi
	idivl	%esi
	cmpl	%eax, %ecx
	jge	.LBB79_65
# %bb.35:                               # %for.body294
                                        #   in Loop: Header=BB79_34 Depth=1
	movl	$0, -20(%rbp)
.LBB79_36:                              # %for.cond295
                                        #   Parent Loop BB79_34 Depth=1
                                        # =>  This Inner Loop Header: Depth=2
	movl	-20(%rbp), %ecx
	movq	-16(%rbp), %rax
	movq	48(%rax), %rax
	movl	6396(%rax), %eax
	cltd
	movl	$4, %esi
	idivl	%esi
	cmpl	%eax, %ecx
	jge	.LBB79_63
# %bb.37:                               # %for.body301
                                        #   in Loop: Header=BB79_36 Depth=2
	movq	-16(%rbp), %rax
	movq	40(%rax), %rax
	movq	6520(%rax), %rax
	movslq	-4(%rbp), %rcx
	movq	(%rax,%rcx,8), %rdi
	movl	-20(%rbp), %eax
	cltd
	movl	$4, %r8d
	idivl	%r8d
	movl	%eax, %ecx
	shll	$3, %ecx
	movl	-20(%rbp), %eax
	cltd
	idivl	%r8d
	addl	%edx, %ecx
	addl	$4, %ecx
	movslq	%ecx, %rax
	movb	$1, (%rdi,%rax)
	movq	-16(%rbp), %rax
	movq	40(%rax), %rax
	movq	6520(%rax), %rax
	movslq	-4(%rbp), %rcx
	movq	(%rax,%rcx,8), %rdi
	movl	-20(%rbp), %eax
	cltd
	idivl	%r8d
	movl	%eax, %ecx
	shll	$3, %ecx
	movl	-20(%rbp), %eax
	cltd
	idivl	%r8d
	addl	%edx, %ecx
	movslq	%ecx, %rax
	movb	$1, (%rdi,%rax)
	movq	-16(%rbp), %rax
	movq	48(%rax), %rax
	movq	6504(%rax), %rax
	movq	(%rax), %rax
	movslq	-4(%rbp), %rcx
	movq	(%rax,%rcx,8), %rax
	movslq	-20(%rbp), %rcx
	movq	(%rax,%rcx,8), %rax
	movw	(%rax), %di
	movq	-16(%rbp), %rax
	movq	40(%rax), %rax
	movq	6504(%rax), %rax
	movq	(%rax), %rax
	movslq	-4(%rbp), %rcx
	movq	(%rax,%rcx,8), %rsi
	movl	-20(%rbp), %eax
	cltd
	idivl	%r8d
	movl	%eax, %ecx
	shll	$3, %ecx
	movl	-20(%rbp), %eax
	cltd
	idivl	%r8d
	addl	%edx, %ecx
	movslq	%ecx, %rax
	movq	(%rsi,%rax,8), %rax
	movw	%di, (%rax)
	movq	-16(%rbp), %rax
	movq	48(%rax), %rax
	movq	6504(%rax), %rax
	movq	(%rax), %rax
	movslq	-4(%rbp), %rcx
	movq	(%rax,%rcx,8), %rax
	movslq	-20(%rbp), %rcx
	movq	(%rax,%rcx,8), %rax
	movw	2(%rax), %si
	movq	-16(%rbp), %rax
	movq	40(%rax), %rax
	movq	6504(%rax), %rax
	movq	(%rax), %rax
	movslq	-4(%rbp), %rcx
	movq	(%rax,%rcx,8), %rdi
	movl	-20(%rbp), %eax
	cltd
	idivl	%r8d
	movl	%eax, %ecx
	shll	$3, %ecx
	movl	-20(%rbp), %eax
	cltd
	idivl	%r8d
	addl	%edx, %ecx
	movslq	%ecx, %rax
	movq	(%rdi,%rax,8), %rax
	movw	%si, 2(%rax)
	movq	-16(%rbp), %rax
	movq	48(%rax), %rax
	movq	6504(%rax), %rax
	movq	8(%rax), %rax
	movslq	-4(%rbp), %rcx
	movq	(%rax,%rcx,8), %rax
	movslq	-20(%rbp), %rcx
	movq	(%rax,%rcx,8), %rax
	movw	(%rax), %si
	movq	-16(%rbp), %rax
	movq	40(%rax), %rax
	movq	6504(%rax), %rax
	movq	8(%rax), %rax
	movslq	-4(%rbp), %rcx
	movq	(%rax,%rcx,8), %rdi
	movl	-20(%rbp), %eax
	cltd
	idivl	%r8d
	movl	%eax, %ecx
	shll	$3, %ecx
	movl	-20(%rbp), %eax
	cltd
	idivl	%r8d
	addl	%edx, %ecx
	movslq	%ecx, %rax
	movq	(%rdi,%rax,8), %rax
	movw	%si, (%rax)
	movq	-16(%rbp), %rax
	movq	48(%rax), %rax
	movq	6504(%rax), %rax
	movq	8(%rax), %rax
	movslq	-4(%rbp), %rcx
	movq	(%rax,%rcx,8), %rax
	movslq	-20(%rbp), %rcx
	movq	(%rax,%rcx,8), %rax
	movw	2(%rax), %si
	movq	-16(%rbp), %rax
	movq	40(%rax), %rax
	movq	6504(%rax), %rax
	movq	8(%rax), %rax
	movslq	-4(%rbp), %rcx
	movq	(%rax,%rcx,8), %rdi
	movl	-20(%rbp), %eax
	cltd
	idivl	%r8d
	movl	%eax, %ecx
	shll	$3, %ecx
	movl	-20(%rbp), %eax
	cltd
	idivl	%r8d
	addl	%edx, %ecx
	movslq	%ecx, %rax
	movq	(%rdi,%rax,8), %rax
	movw	%si, 2(%rax)
	movq	-16(%rbp), %rax
	movq	48(%rax), %rax
	movq	6480(%rax), %rax
	movq	(%rax), %rax
	movslq	-4(%rbp), %rcx
	movq	(%rax,%rcx,8), %rax
	movslq	-20(%rbp), %rcx
	movw	(%rax,%rcx,2), %si
	movq	-16(%rbp), %rax
	movq	40(%rax), %rax
	movq	6480(%rax), %rax
	movq	(%rax), %rax
	movslq	-4(%rbp), %rcx
	movq	(%rax,%rcx,8), %rdi
	movl	-20(%rbp), %eax
	cltd
	idivl	%r8d
	movl	%eax, %ecx
	shll	$3, %ecx
	movl	-20(%rbp), %eax
	cltd
	idivl	%r8d
	addl	%edx, %ecx
	movslq	%ecx, %rax
	movw	%si, (%rdi,%rax,2)
	movswl	%si, %eax
	movl	%eax, -24(%rbp)
	movq	-16(%rbp), %rax
	movq	48(%rax), %rax
	movq	6480(%rax), %rax
	movq	8(%rax), %rax
	movslq	-4(%rbp), %rcx
	movq	(%rax,%rcx,8), %rax
	movslq	-20(%rbp), %rcx
	movw	(%rax,%rcx,2), %si
	movq	-16(%rbp), %rax
	movq	40(%rax), %rax
	movq	6480(%rax), %rax
	movq	8(%rax), %rax
	movslq	-4(%rbp), %rcx
	movq	(%rax,%rcx,8), %rdi
	movl	-20(%rbp), %eax
	cltd
	idivl	%r8d
	movl	%eax, %ecx
	shll	$3, %ecx
	movl	-20(%rbp), %eax
	cltd
	idivl	%r8d
	addl	%edx, %ecx
	movslq	%ecx, %rax
	movw	%si, (%rdi,%rax,2)
	movswl	%si, %eax
	movl	%eax, -28(%rbp)
	cmpl	$0, -24(%rbp)
	jl	.LBB79_39
# %bb.38:                               # %cond.true439
                                        #   in Loop: Header=BB79_36 Depth=2
	movq	-16(%rbp), %rax
	movq	48(%rax), %rax
	movslq	-24(%rbp), %rcx
	movq	24(%rax,%rcx,8), %rax
	jmp	.LBB79_40
.LBB79_39:                              # %cond.false445
                                        #   in Loop: Header=BB79_36 Depth=2
	xorl	%eax, %eax
	jmp	.LBB79_40
.LBB79_40:                              # %cond.end446
                                        #   in Loop: Header=BB79_36 Depth=2
	movq	-16(%rbp), %rcx
	movq	48(%rcx), %rcx
	movq	6496(%rcx), %rcx
	movq	(%rcx), %rcx
	movslq	-4(%rbp), %rdx
	movq	(%rcx,%rdx,8), %rcx
	movslq	-20(%rbp), %rdx
	movq	%rax, (%rcx,%rdx,8)
	cmpl	$0, -28(%rbp)
	jl	.LBB79_42
# %bb.41:                               # %cond.true456
                                        #   in Loop: Header=BB79_36 Depth=2
	movq	-16(%rbp), %rax
	movq	48(%rax), %rax
	movslq	-28(%rbp), %rcx
	movq	288(%rax,%rcx,8), %rax
	jmp	.LBB79_43
.LBB79_42:                              # %cond.false462
                                        #   in Loop: Header=BB79_36 Depth=2
	xorl	%eax, %eax
	jmp	.LBB79_43
.LBB79_43:                              # %cond.end463
                                        #   in Loop: Header=BB79_36 Depth=2
	movq	-16(%rbp), %rcx
	movq	48(%rcx), %rcx
	movq	6496(%rcx), %rcx
	movq	8(%rcx), %rcx
	movslq	-4(%rbp), %rdx
	movq	(%rcx,%rdx,8), %rcx
	movslq	-20(%rbp), %rdx
	movq	%rax, (%rcx,%rdx,8)
	cmpl	$0, -24(%rbp)
	jl	.LBB79_45
# %bb.44:                               # %cond.true474
                                        #   in Loop: Header=BB79_36 Depth=2
	movq	-16(%rbp), %rax
	movq	48(%rax), %rax
	movslq	-24(%rbp), %rcx
	movq	1608(%rax,%rcx,8), %r8
	jmp	.LBB79_46
.LBB79_45:                              # %cond.false479
                                        #   in Loop: Header=BB79_36 Depth=2
	xorl	%r8d, %r8d
	jmp	.LBB79_46
.LBB79_46:                              # %cond.end480
                                        #   in Loop: Header=BB79_36 Depth=2
	movq	-16(%rbp), %rax
	movq	40(%rax), %rax
	movq	6496(%rax), %rax
	movq	(%rax), %rax
	movslq	-4(%rbp), %rcx
	movq	(%rax,%rcx,8), %rdi
	movl	-20(%rbp), %eax
	cltd
	movl	$4, %esi
	idivl	%esi
	movl	%eax, %ecx
	shll	$3, %ecx
	movl	-20(%rbp), %eax
	cltd
	idivl	%esi
	addl	%edx, %ecx
	movslq	%ecx, %rax
	movq	%r8, (%rdi,%rax,8)
	cmpl	$0, -28(%rbp)
	jl	.LBB79_48
# %bb.47:                               # %cond.true495
                                        #   in Loop: Header=BB79_36 Depth=2
	movq	-16(%rbp), %rax
	movq	48(%rax), %rax
	movslq	-28(%rbp), %rcx
	movq	1872(%rax,%rcx,8), %rdi
	jmp	.LBB79_49
.LBB79_48:                              # %cond.false501
                                        #   in Loop: Header=BB79_36 Depth=2
	xorl	%edi, %edi
	jmp	.LBB79_49
.LBB79_49:                              # %cond.end502
                                        #   in Loop: Header=BB79_36 Depth=2
	movq	-16(%rbp), %rax
	movq	40(%rax), %rax
	movq	6496(%rax), %rax
	movq	8(%rax), %rax
	movslq	-4(%rbp), %rcx
	movq	(%rax,%rcx,8), %rsi
	movl	-20(%rbp), %eax
	cltd
	movl	$4, %r8d
	idivl	%r8d
	movl	%eax, %ecx
	shll	$3, %ecx
	movl	-20(%rbp), %eax
	cltd
	idivl	%r8d
	addl	%edx, %ecx
	movslq	%ecx, %rax
	movq	%rdi, (%rsi,%rax,8)
	movq	-16(%rbp), %rax
	movq	56(%rax), %rax
	movq	6504(%rax), %rax
	movq	(%rax), %rax
	movslq	-4(%rbp), %rcx
	movq	(%rax,%rcx,8), %rax
	movslq	-20(%rbp), %rcx
	movq	(%rax,%rcx,8), %rax
	movw	(%rax), %si
	movq	-16(%rbp), %rax
	movq	40(%rax), %rax
	movq	6504(%rax), %rax
	movq	(%rax), %rax
	movslq	-4(%rbp), %rcx
	movq	(%rax,%rcx,8), %rdi
	movl	-20(%rbp), %eax
	cltd
	idivl	%r8d
	movl	%eax, %ecx
	shll	$3, %ecx
	movl	-20(%rbp), %eax
	cltd
	idivl	%r8d
	addl	%edx, %ecx
	addl	$4, %ecx
	movslq	%ecx, %rax
	movq	(%rdi,%rax,8), %rax
	movw	%si, (%rax)
	movq	-16(%rbp), %rax
	movq	56(%rax), %rax
	movq	6504(%rax), %rax
	movq	(%rax), %rax
	movslq	-4(%rbp), %rcx
	movq	(%rax,%rcx,8), %rax
	movslq	-20(%rbp), %rcx
	movq	(%rax,%rcx,8), %rax
	movw	2(%rax), %si
	movq	-16(%rbp), %rax
	movq	40(%rax), %rax
	movq	6504(%rax), %rax
	movq	(%rax), %rax
	movslq	-4(%rbp), %rcx
	movq	(%rax,%rcx,8), %rdi
	movl	-20(%rbp), %eax
	cltd
	idivl	%r8d
	movl	%eax, %ecx
	shll	$3, %ecx
	movl	-20(%rbp), %eax
	cltd
	idivl	%r8d
	addl	%edx, %ecx
	addl	$4, %ecx
	movslq	%ecx, %rax
	movq	(%rdi,%rax,8), %rax
	movw	%si, 2(%rax)
	movq	-16(%rbp), %rax
	movq	56(%rax), %rax
	movq	6504(%rax), %rax
	movq	8(%rax), %rax
	movslq	-4(%rbp), %rcx
	movq	(%rax,%rcx,8), %rax
	movslq	-20(%rbp), %rcx
	movq	(%rax,%rcx,8), %rax
	movw	(%rax), %si
	movq	-16(%rbp), %rax
	movq	40(%rax), %rax
	movq	6504(%rax), %rax
	movq	8(%rax), %rax
	movslq	-4(%rbp), %rcx
	movq	(%rax,%rcx,8), %rdi
	movl	-20(%rbp), %eax
	cltd
	idivl	%r8d
	movl	%eax, %ecx
	shll	$3, %ecx
	movl	-20(%rbp), %eax
	cltd
	idivl	%r8d
	addl	%edx, %ecx
	addl	$4, %ecx
	movslq	%ecx, %rax
	movq	(%rdi,%rax,8), %rax
	movw	%si, (%rax)
	movq	-16(%rbp), %rax
	movq	56(%rax), %rax
	movq	6504(%rax), %rax
	movq	8(%rax), %rax
	movslq	-4(%rbp), %rcx
	movq	(%rax,%rcx,8), %rax
	movslq	-20(%rbp), %rcx
	movq	(%rax,%rcx,8), %rax
	movw	2(%rax), %si
	movq	-16(%rbp), %rax
	movq	40(%rax), %rax
	movq	6504(%rax), %rax
	movq	8(%rax), %rax
	movslq	-4(%rbp), %rcx
	movq	(%rax,%rcx,8), %rdi
	movl	-20(%rbp), %eax
	cltd
	idivl	%r8d
	movl	%eax, %ecx
	shll	$3, %ecx
	movl	-20(%rbp), %eax
	cltd
	idivl	%r8d
	addl	%edx, %ecx
	addl	$4, %ecx
	movslq	%ecx, %rax
	movq	(%rdi,%rax,8), %rax
	movw	%si, 2(%rax)
	movq	-16(%rbp), %rax
	movq	56(%rax), %rax
	movq	6480(%rax), %rax
	movq	(%rax), %rax
	movslq	-4(%rbp), %rcx
	movq	(%rax,%rcx,8), %rax
	movslq	-20(%rbp), %rcx
	movw	(%rax,%rcx,2), %si
	movq	-16(%rbp), %rax
	movq	40(%rax), %rax
	movq	6480(%rax), %rax
	movq	(%rax), %rax
	movslq	-4(%rbp), %rcx
	movq	(%rax,%rcx,8), %rdi
	movl	-20(%rbp), %eax
	cltd
	idivl	%r8d
	movl	%eax, %ecx
	shll	$3, %ecx
	movl	-20(%rbp), %eax
	cltd
	idivl	%r8d
	addl	%edx, %ecx
	addl	$4, %ecx
	movslq	%ecx, %rax
	movw	%si, (%rdi,%rax,2)
	movswl	%si, %eax
	movl	%eax, -24(%rbp)
	movq	-16(%rbp), %rax
	movq	56(%rax), %rax
	movq	6480(%rax), %rax
	movq	8(%rax), %rax
	movslq	-4(%rbp), %rcx
	movq	(%rax,%rcx,8), %rax
	movslq	-20(%rbp), %rcx
	movw	(%rax,%rcx,2), %si
	movq	-16(%rbp), %rax
	movq	40(%rax), %rax
	movq	6480(%rax), %rax
	movq	8(%rax), %rax
	movslq	-4(%rbp), %rcx
	movq	(%rax,%rcx,8), %rdi
	movl	-20(%rbp), %eax
	cltd
	idivl	%r8d
	movl	%eax, %ecx
	shll	$3, %ecx
	movl	-20(%rbp), %eax
	cltd
	idivl	%r8d
	addl	%edx, %ecx
	addl	$4, %ecx
	movslq	%ecx, %rax
	movw	%si, (%rdi,%rax,2)
	movswl	%si, %eax
	movl	%eax, -28(%rbp)
	cmpl	$0, -24(%rbp)
	jl	.LBB79_51
# %bb.50:                               # %cond.true641
                                        #   in Loop: Header=BB79_36 Depth=2
	movq	-16(%rbp), %rax
	movq	56(%rax), %rax
	movslq	-24(%rbp), %rcx
	movq	24(%rax,%rcx,8), %rax
	jmp	.LBB79_52
.LBB79_51:                              # %cond.false647
                                        #   in Loop: Header=BB79_36 Depth=2
	xorl	%eax, %eax
	jmp	.LBB79_52
.LBB79_52:                              # %cond.end648
                                        #   in Loop: Header=BB79_36 Depth=2
	movq	-16(%rbp), %rcx
	movq	56(%rcx), %rcx
	movq	6496(%rcx), %rcx
	movq	(%rcx), %rcx
	movslq	-4(%rbp), %rdx
	movq	(%rcx,%rdx,8), %rcx
	movslq	-20(%rbp), %rdx
	movq	%rax, (%rcx,%rdx,8)
	cmpl	$0, -28(%rbp)
	jl	.LBB79_54
# %bb.53:                               # %cond.true659
                                        #   in Loop: Header=BB79_36 Depth=2
	movq	-16(%rbp), %rax
	movq	56(%rax), %rax
	movslq	-28(%rbp), %rcx
	movq	288(%rax,%rcx,8), %rax
	jmp	.LBB79_55
.LBB79_54:                              # %cond.false665
                                        #   in Loop: Header=BB79_36 Depth=2
	xorl	%eax, %eax
	jmp	.LBB79_55
.LBB79_55:                              # %cond.end666
                                        #   in Loop: Header=BB79_36 Depth=2
	movq	-16(%rbp), %rcx
	movq	56(%rcx), %rcx
	movq	6496(%rcx), %rcx
	movq	8(%rcx), %rcx
	movslq	-4(%rbp), %rdx
	movq	(%rcx,%rdx,8), %rcx
	movslq	-20(%rbp), %rdx
	movq	%rax, (%rcx,%rdx,8)
	cmpl	$0, -24(%rbp)
	jl	.LBB79_57
# %bb.56:                               # %cond.true677
                                        #   in Loop: Header=BB79_36 Depth=2
	movq	-16(%rbp), %rax
	movq	56(%rax), %rax
	movslq	-24(%rbp), %rcx
	movq	1608(%rax,%rcx,8), %r8
	jmp	.LBB79_58
.LBB79_57:                              # %cond.false683
                                        #   in Loop: Header=BB79_36 Depth=2
	movq	$-1, %r8
	jmp	.LBB79_58
.LBB79_58:                              # %cond.end684
                                        #   in Loop: Header=BB79_36 Depth=2
	movq	-16(%rbp), %rax
	movq	40(%rax), %rax
	movq	6496(%rax), %rax
	movq	(%rax), %rax
	movslq	-4(%rbp), %rcx
	movq	(%rax,%rcx,8), %rdi
	movl	-20(%rbp), %eax
	cltd
	movl	$4, %esi
	idivl	%esi
	movl	%eax, %ecx
	shll	$3, %ecx
	movl	-20(%rbp), %eax
	cltd
	idivl	%esi
	addl	%edx, %ecx
	addl	$4, %ecx
	movslq	%ecx, %rax
	movq	%r8, (%rdi,%rax,8)
	cmpl	$0, -28(%rbp)
	jl	.LBB79_60
# %bb.59:                               # %cond.true700
                                        #   in Loop: Header=BB79_36 Depth=2
	movq	-16(%rbp), %rax
	movq	56(%rax), %rax
	movslq	-28(%rbp), %rcx
	movq	1872(%rax,%rcx,8), %r8
	jmp	.LBB79_61
.LBB79_60:                              # %cond.false706
                                        #   in Loop: Header=BB79_36 Depth=2
	movq	$-1, %r8
	jmp	.LBB79_61
.LBB79_61:                              # %cond.end707
                                        #   in Loop: Header=BB79_36 Depth=2
	movq	-16(%rbp), %rax
	movq	40(%rax), %rax
	movq	6496(%rax), %rax
	movq	8(%rax), %rax
	movslq	-4(%rbp), %rcx
	movq	(%rax,%rcx,8), %rdi
	movl	-20(%rbp), %eax
	cltd
	movl	$4, %esi
	idivl	%esi
	movl	%eax, %ecx
	shll	$3, %ecx
	movl	-20(%rbp), %eax
	cltd
	idivl	%esi
	addl	%edx, %ecx
	addl	$4, %ecx
	movslq	%ecx, %rax
	movq	%r8, (%rdi,%rax,8)
# %bb.62:                               # %for.inc721
                                        #   in Loop: Header=BB79_36 Depth=2
	movl	-20(%rbp), %eax
	addl	$1, %eax
	movl	%eax, -20(%rbp)
	jmp	.LBB79_36
.LBB79_63:                              # %for.end723
                                        #   in Loop: Header=BB79_34 Depth=1
	jmp	.LBB79_64
.LBB79_64:                              # %for.inc724
                                        #   in Loop: Header=BB79_34 Depth=1
	movl	-4(%rbp), %eax
	addl	$1, %eax
	movl	%eax, -4(%rbp)
	jmp	.LBB79_34
.LBB79_65:                              # %for.end726
	movq	active_sps, %rax
	cmpl	$0, 1148(%rax)
	je	.LBB79_67
# %bb.66:                               # %lor.lhs.false
	movq	active_sps, %rax
	cmpl	$0, 1156(%rax)
	je	.LBB79_76
.LBB79_67:                              # %if.then729
	movl	$0, -4(%rbp)
.LBB79_68:                              # %for.cond730
                                        # =>This Loop Header: Depth=1
                                        #     Child Loop BB79_70 Depth 2
	movl	-4(%rbp), %ecx
	movq	-16(%rbp), %rax
	movq	48(%rax), %rax
	movl	6392(%rax), %eax
	cltd
	movl	$4, %esi
	idivl	%esi
	cmpl	%eax, %ecx
	jge	.LBB79_75
# %bb.69:                               # %for.body736
                                        #   in Loop: Header=BB79_68 Depth=1
	movl	$0, -20(%rbp)
.LBB79_70:                              # %for.cond737
                                        #   Parent Loop BB79_68 Depth=1
                                        # =>  This Inner Loop Header: Depth=2
	movl	-20(%rbp), %ecx
	movq	-16(%rbp), %rax
	movq	48(%rax), %rax
	movl	6396(%rax), %eax
	cltd
	movl	$4, %esi
	idivl	%esi
	cmpl	%eax, %ecx
	jge	.LBB79_73
# %bb.71:                               # %for.body743
                                        #   in Loop: Header=BB79_70 Depth=2
	movq	-16(%rbp), %rax
	movq	48(%rax), %rax
	movq	6520(%rax), %rax
	movslq	-4(%rbp), %rcx
	movq	(%rax,%rcx,8), %rax
	movslq	-20(%rbp), %rcx
	movb	$1, (%rax,%rcx)
	movq	-16(%rbp), %rax
	movq	56(%rax), %rax
	movq	6520(%rax), %rax
	movslq	-4(%rbp), %rcx
	movq	(%rax,%rcx,8), %rax
	movslq	-20(%rbp), %rcx
	movb	$1, (%rax,%rcx)
# %bb.72:                               # %for.inc756
                                        #   in Loop: Header=BB79_70 Depth=2
	movl	-20(%rbp), %eax
	addl	$1, %eax
	movl	%eax, -20(%rbp)
	jmp	.LBB79_70
.LBB79_73:                              # %for.end758
                                        #   in Loop: Header=BB79_68 Depth=1
	jmp	.LBB79_74
.LBB79_74:                              # %for.inc759
                                        #   in Loop: Header=BB79_68 Depth=1
	movl	-4(%rbp), %eax
	addl	$1, %eax
	movl	%eax, -4(%rbp)
	jmp	.LBB79_68
.LBB79_75:                              # %for.end761
	jmp	.LBB79_76
.LBB79_76:                              # %if.end762
	cmpl	$874927697, -32(%rbp)   # imm = 0x34265651
	jne	.LBB79_78
.LBB79_77:
	addq	$32, %rsp
	popq	%rbp
	.cfi_def_cfa %rsp, 8
	retq
.LBB79_78:                              # %func_exit
	.cfi_def_cfa %rbp, 16
	callq	detect_breach
	jmp	.LBB79_77
.Lfunc_end79:
	.size	dpb_combine_field.16, .Lfunc_end79-dpb_combine_field.16
	.cfi_endproc
                                        # -- End function
	.p2align	4, 0x90         # -- Begin function get_smallest_poc.17
	.type	get_smallest_poc.17,@function
get_smallest_poc.17:                    # @get_smallest_poc.17
	.cfi_startproc
# %bb.0:                                # %entry
	pushq	%rbp
	.cfi_def_cfa_offset 16
	.cfi_offset %rbp, -16
	movq	%rsp, %rbp
	.cfi_def_cfa_register %rbp
	subq	$32, %rsp
	movl	$861304276, -20(%rbp)   # imm = 0x335675D4
	movq	%rdi, -16(%rbp)
	movq	%rsi, -32(%rbp)
	cmpl	$1, dpb+28
	jae	.LBB80_2
# %bb.1:                                # %if.then
	movabsq	$.L.str.28, %rdi
	movl	$150, %esi
	callq	error
.LBB80_2:                               # %if.end
	movq	-32(%rbp), %rax
	movl	$-1, (%rax)
	movq	-16(%rbp), %rax
	movl	$2147483647, (%rax)     # imm = 0x7FFFFFFF
	movl	$0, -4(%rbp)
.LBB80_3:                               # %for.cond
                                        # =>This Inner Loop Header: Depth=1
	movl	-4(%rbp), %eax
	cmpl	dpb+28, %eax
	jae	.LBB80_9
# %bb.4:                                # %for.body
                                        #   in Loop: Header=BB80_3 Depth=1
	movq	-16(%rbp), %rax
	movl	(%rax), %eax
	movq	dpb, %rcx
	movl	-4(%rbp), %edx
	movq	(%rcx,%rdx,8), %rcx
	cmpl	36(%rcx), %eax
	jle	.LBB80_7
# %bb.5:                                # %land.lhs.true
                                        #   in Loop: Header=BB80_3 Depth=1
	movq	dpb, %rax
	movl	-4(%rbp), %ecx
	movq	(%rax,%rcx,8), %rax
	cmpl	$0, 32(%rax)
	jne	.LBB80_7
# %bb.6:                                # %if.then6
                                        #   in Loop: Header=BB80_3 Depth=1
	movq	dpb, %rax
	movl	-4(%rbp), %ecx
	movq	(%rax,%rcx,8), %rax
	movl	36(%rax), %eax
	movq	-16(%rbp), %rcx
	movl	%eax, (%rcx)
	movl	-4(%rbp), %eax
	movq	-32(%rbp), %rcx
	movl	%eax, (%rcx)
.LBB80_7:                               # %if.end10
                                        #   in Loop: Header=BB80_3 Depth=1
	jmp	.LBB80_8
.LBB80_8:                               # %for.inc
                                        #   in Loop: Header=BB80_3 Depth=1
	movl	-4(%rbp), %eax
	addl	$1, %eax
	movl	%eax, -4(%rbp)
	jmp	.LBB80_3
.LBB80_9:                               # %for.end
	cmpl	$861304276, -20(%rbp)   # imm = 0x335675D4
	jne	.LBB80_11
.LBB80_10:
	addq	$32, %rsp
	popq	%rbp
	.cfi_def_cfa %rsp, 8
	retq
.LBB80_11:                              # %func_exit
	.cfi_def_cfa %rbp, 16
	callq	detect_breach
	jmp	.LBB80_10
.Lfunc_end80:
	.size	get_smallest_poc.17, .Lfunc_end80-get_smallest_poc.17
	.cfi_endproc
                                        # -- End function
	.p2align	4, 0x90         # -- Begin function compare_fs_by_poc_asc.18
	.type	compare_fs_by_poc_asc.18,@function
compare_fs_by_poc_asc.18:               # @compare_fs_by_poc_asc.18
	.cfi_startproc
# %bb.0:                                # %entry
	pushq	%rbp
	.cfi_def_cfa_offset 16
	.cfi_offset %rbp, -16
	movq	%rsp, %rbp
	.cfi_def_cfa_register %rbp
	pushq	%rbx
	subq	$24, %rsp
	.cfi_offset %rbx, -24
	movl	$1454229391, -16(%rbp)  # imm = 0x56ADC78F
	movq	%rdi, -32(%rbp)
	movq	%rsi, -24(%rbp)
	movq	-32(%rbp), %rax
	movq	(%rax), %rax
	movl	36(%rax), %eax
	movq	-24(%rbp), %rcx
	movq	(%rcx), %rcx
	cmpl	36(%rcx), %eax
	jge	.LBB81_2
# %bb.1:                                # %if.then
	movl	$-1, -12(%rbp)
	jmp	.LBB81_5
.LBB81_2:                               # %if.end
	movq	-32(%rbp), %rax
	movq	(%rax), %rax
	movl	36(%rax), %eax
	movq	-24(%rbp), %rcx
	movq	(%rcx), %rcx
	cmpl	36(%rcx), %eax
	jle	.LBB81_4
# %bb.3:                                # %if.then5
	movl	$1, -12(%rbp)
	jmp	.LBB81_5
.LBB81_4:                               # %if.else
	movl	$0, -12(%rbp)
.LBB81_5:                               # %return
	movl	-12(%rbp), %ebx
	cmpl	$1454229391, -16(%rbp)  # imm = 0x56ADC78F
	jne	.LBB81_7
.LBB81_6:
	movl	%ebx, %eax
	addq	$24, %rsp
	popq	%rbx
	popq	%rbp
	.cfi_def_cfa %rsp, 8
	retq
.LBB81_7:                               # %func_exit
	.cfi_def_cfa %rbp, 16
	callq	detect_breach
	jmp	.LBB81_6
.Lfunc_end81:
	.size	compare_fs_by_poc_asc.18, .Lfunc_end81-compare_fs_by_poc_asc.18
	.cfi_endproc
                                        # -- End function
	.p2align	4, 0x90         # -- Begin function compare_fs_by_lt_pic_idx_asc.19
	.type	compare_fs_by_lt_pic_idx_asc.19,@function
compare_fs_by_lt_pic_idx_asc.19:        # @compare_fs_by_lt_pic_idx_asc.19
	.cfi_startproc
# %bb.0:                                # %entry
	pushq	%rbp
	.cfi_def_cfa_offset 16
	.cfi_offset %rbp, -16
	movq	%rsp, %rbp
	.cfi_def_cfa_register %rbp
	pushq	%rbx
	subq	$24, %rsp
	.cfi_offset %rbx, -24
	movl	$1544946785, -16(%rbp)  # imm = 0x5C160461
	movq	%rdi, -32(%rbp)
	movq	%rsi, -24(%rbp)
	movq	-32(%rbp), %rax
	movq	(%rax), %rax
	movl	28(%rax), %eax
	movq	-24(%rbp), %rcx
	movq	(%rcx), %rcx
	cmpl	28(%rcx), %eax
	jge	.LBB82_2
# %bb.1:                                # %if.then
	movl	$-1, -12(%rbp)
	jmp	.LBB82_5
.LBB82_2:                               # %if.end
	movq	-32(%rbp), %rax
	movq	(%rax), %rax
	movl	28(%rax), %eax
	movq	-24(%rbp), %rcx
	movq	(%rcx), %rcx
	cmpl	28(%rcx), %eax
	jle	.LBB82_4
# %bb.3:                                # %if.then5
	movl	$1, -12(%rbp)
	jmp	.LBB82_5
.LBB82_4:                               # %if.else
	movl	$0, -12(%rbp)
.LBB82_5:                               # %return
	movl	-12(%rbp), %ebx
	cmpl	$1544946785, -16(%rbp)  # imm = 0x5C160461
	jne	.LBB82_7
.LBB82_6:
	movl	%ebx, %eax
	addq	$24, %rsp
	popq	%rbx
	popq	%rbp
	.cfi_def_cfa %rsp, 8
	retq
.LBB82_7:                               # %func_exit
	.cfi_def_cfa %rbp, 16
	callq	detect_breach
	jmp	.LBB82_6
.Lfunc_end82:
	.size	compare_fs_by_lt_pic_idx_asc.19, .Lfunc_end82-compare_fs_by_lt_pic_idx_asc.19
	.cfi_endproc
                                        # -- End function
	.globl	replace_top_pic_with_frame.20 # -- Begin function replace_top_pic_with_frame.20
	.p2align	4, 0x90
	.type	replace_top_pic_with_frame.20,@function
replace_top_pic_with_frame.20:          # @replace_top_pic_with_frame.20
	.cfi_startproc
# %bb.0:                                # %entry
	pushq	%rbp
	.cfi_def_cfa_offset 16
	.cfi_offset %rbp, -16
	movq	%rsp, %rbp
	.cfi_def_cfa_register %rbp
	subq	$32, %rsp
	movl	$2101303382, -32(%rbp)  # imm = 0x7D3F5856
	movq	%rdi, -24(%rbp)
	movq	$0, -16(%rbp)
	movq	img, %rax
	cmpl	$0, 72496(%rax)
	setne	%al
	andb	$1, %al
	movzbl	%al, %eax
	movq	-24(%rbp), %rcx
	movl	%eax, 6380(%rcx)
	movq	-24(%rbp), %rax
	cmpl	$0, 6380(%rax)
	je	.LBB83_2
# %bb.1:                                # %if.then
	movq	-24(%rbp), %rdi
	callq	UnifiedOneForthPix
.LBB83_2:                               # %if.end
	movl	$0, -28(%rbp)
	movl	$0, -4(%rbp)
.LBB83_3:                               # %for.cond
                                        # =>This Inner Loop Header: Depth=1
	movl	-4(%rbp), %eax
	cmpl	dpb+28, %eax
	jae	.LBB83_9
# %bb.4:                                # %for.body
                                        #   in Loop: Header=BB83_3 Depth=1
	movq	dpb, %rax
	movl	-4(%rbp), %ecx
	movq	(%rax,%rcx,8), %rax
	movl	20(%rax), %eax
	movq	img, %rcx
	cmpl	72464(%rcx), %eax
	jne	.LBB83_7
# %bb.5:                                # %land.lhs.true
                                        #   in Loop: Header=BB83_3 Depth=1
	movq	dpb, %rax
	movl	-4(%rbp), %ecx
	movq	(%rax,%rcx,8), %rax
	cmpl	$1, (%rax)
	jne	.LBB83_7
# %bb.6:                                # %if.then11
	movl	$1, -28(%rbp)
	movq	dpb, %rax
	movl	-4(%rbp), %ecx
	movq	(%rax,%rcx,8), %rax
	movq	%rax, -16(%rbp)
	jmp	.LBB83_10
.LBB83_7:                               # %if.end14
                                        #   in Loop: Header=BB83_3 Depth=1
	jmp	.LBB83_8
.LBB83_8:                               # %for.inc
                                        #   in Loop: Header=BB83_3 Depth=1
	movl	-4(%rbp), %eax
	addl	$1, %eax
	movl	%eax, -4(%rbp)
	jmp	.LBB83_3
.LBB83_9:                               # %for.end.loopexit
	jmp	.LBB83_10
.LBB83_10:                              # %for.end
	cmpl	$0, -28(%rbp)
	jne	.LBB83_12
# %bb.11:                               # %if.then16
	movabsq	$.L.str.14, %rdi
	movl	$500, %esi              # imm = 0x1F4
	callq	error
.LBB83_12:                              # %if.end17
	movq	-16(%rbp), %rax
	movq	48(%rax), %rdi
	callq	free_storable_picture
	movq	-16(%rbp), %rax
	movq	$0, 48(%rax)
	movq	-24(%rbp), %rax
	movq	-16(%rbp), %rcx
	movq	%rax, 40(%rcx)
	movq	-16(%rbp), %rax
	movl	$3, (%rax)
	movq	-24(%rbp), %rax
	cmpl	$0, 6380(%rax)
	je	.LBB83_16
# %bb.13:                               # %if.then22
	movq	-16(%rbp), %rax
	movl	$3, 4(%rax)
	movq	-24(%rbp), %rax
	cmpl	$0, 6376(%rax)
	je	.LBB83_15
# %bb.14:                               # %if.then24
	movq	-16(%rbp), %rax
	movl	$3, 8(%rax)
.LBB83_15:                              # %if.end26
	jmp	.LBB83_16
.LBB83_16:                              # %if.end27
	movq	-16(%rbp), %rdi
	callq	dpb_split_field
	callq	update_ref_list
	callq	update_ltref_list
	cmpl	$2101303382, -32(%rbp)  # imm = 0x7D3F5856
	jne	.LBB83_18
.LBB83_17:
	addq	$32, %rsp
	popq	%rbp
	.cfi_def_cfa %rsp, 8
	retq
.LBB83_18:                              # %func_exit
	.cfi_def_cfa %rbp, 16
	callq	detect_breach
	jmp	.LBB83_17
.Lfunc_end83:
	.size	replace_top_pic_with_frame.20, .Lfunc_end83-replace_top_pic_with_frame.20
	.cfi_endproc
                                        # -- End function
	.p2align	4, 0x90         # -- Begin function mark_pic_long_term.21
	.type	mark_pic_long_term.21,@function
mark_pic_long_term.21:                  # @mark_pic_long_term.21
	.cfi_startproc
# %bb.0:                                # %entry
	pushq	%rbp
	.cfi_def_cfa_offset 16
	.cfi_offset %rbp, -16
	movq	%rsp, %rbp
	.cfi_def_cfa_register %rbp
	subq	$32, %rsp
	movl	$946958671, -24(%rbp)   # imm = 0x3871714F
	movq	%rdi, -32(%rbp)
	movl	%esi, -8(%rbp)
	movl	%edx, -16(%rbp)
	movq	-32(%rbp), %rax
	cmpl	$0, (%rax)
	jne	.LBB84_11
# %bb.1:                                # %if.then
	movl	$0, -4(%rbp)
.LBB84_2:                               # %for.cond
                                        # =>This Inner Loop Header: Depth=1
	movl	-4(%rbp), %eax
	cmpl	dpb+32, %eax
	jae	.LBB84_10
# %bb.3:                                # %for.body
                                        #   in Loop: Header=BB84_2 Depth=1
	movq	dpb+8, %rax
	movl	-4(%rbp), %ecx
	movq	(%rax,%rcx,8), %rax
	cmpl	$3, 4(%rax)
	jne	.LBB84_8
# %bb.4:                                # %if.then3
                                        #   in Loop: Header=BB84_2 Depth=1
	movq	dpb+8, %rax
	movl	-4(%rbp), %ecx
	movq	(%rax,%rcx,8), %rax
	movq	40(%rax), %rax
	cmpl	$0, 6376(%rax)
	jne	.LBB84_7
# %bb.5:                                # %land.lhs.true
                                        #   in Loop: Header=BB84_2 Depth=1
	movq	dpb+8, %rax
	movl	-4(%rbp), %ecx
	movq	(%rax,%rcx,8), %rax
	movq	40(%rax), %rax
	movl	6364(%rax), %eax
	cmpl	-16(%rbp), %eax
	jne	.LBB84_7
# %bb.6:                                # %if.then10
	movl	-8(%rbp), %eax
	movq	dpb+8, %rcx
	movl	-4(%rbp), %edx
	movq	(%rcx,%rdx,8), %rcx
	movq	56(%rcx), %rcx
	movl	%eax, 6372(%rcx)
	movq	dpb+8, %rcx
	movl	-4(%rbp), %edx
	movq	(%rcx,%rdx,8), %rcx
	movq	48(%rcx), %rcx
	movl	%eax, 6372(%rcx)
	movq	dpb+8, %rcx
	movl	-4(%rbp), %edx
	movq	(%rcx,%rdx,8), %rcx
	movq	40(%rcx), %rcx
	movl	%eax, 6372(%rcx)
	movq	dpb+8, %rcx
	movl	-4(%rbp), %edx
	movq	(%rcx,%rdx,8), %rcx
	movl	%eax, 28(%rcx)
	movl	-8(%rbp), %eax
	movq	dpb+8, %rcx
	movl	-4(%rbp), %edx
	movq	(%rcx,%rdx,8), %rcx
	movq	56(%rcx), %rcx
	movl	%eax, 6368(%rcx)
	movq	dpb+8, %rcx
	movl	-4(%rbp), %edx
	movq	(%rcx,%rdx,8), %rcx
	movq	48(%rcx), %rcx
	movl	%eax, 6368(%rcx)
	movq	dpb+8, %rcx
	movl	-4(%rbp), %edx
	movq	(%rcx,%rdx,8), %rcx
	movq	40(%rcx), %rcx
	movl	%eax, 6368(%rcx)
	movq	dpb+8, %rax
	movl	-4(%rbp), %ecx
	movq	(%rax,%rcx,8), %rax
	movq	56(%rax), %rax
	movl	$1, 6376(%rax)
	movq	dpb+8, %rax
	movl	-4(%rbp), %ecx
	movq	(%rax,%rcx,8), %rax
	movq	48(%rax), %rax
	movl	$1, 6376(%rax)
	movq	dpb+8, %rax
	movl	-4(%rbp), %ecx
	movq	(%rax,%rcx,8), %rax
	movq	40(%rax), %rax
	movl	$1, 6376(%rax)
	movq	dpb+8, %rax
	movl	-4(%rbp), %ecx
	movq	(%rax,%rcx,8), %rax
	movl	$3, 8(%rax)
	jmp	.LBB84_39
.LBB84_7:                               # %if.end
                                        #   in Loop: Header=BB84_2 Depth=1
	jmp	.LBB84_8
.LBB84_8:                               # %if.end50
                                        #   in Loop: Header=BB84_2 Depth=1
	jmp	.LBB84_9
.LBB84_9:                               # %for.inc
                                        #   in Loop: Header=BB84_2 Depth=1
	movl	-4(%rbp), %eax
	addl	$1, %eax
	movl	%eax, -4(%rbp)
	jmp	.LBB84_2
.LBB84_10:                              # %for.end
	movabsq	$.L.str.25, %rdi
	movb	$0, %al
	callq	printf
	jmp	.LBB84_39
.LBB84_11:                              # %if.else
	movq	-32(%rbp), %rax
	cmpl	$1, (%rax)
	jne	.LBB84_13
# %bb.12:                               # %if.then53
	movl	$1, -12(%rbp)
	movl	$0, -20(%rbp)
	jmp	.LBB84_14
.LBB84_13:                              # %if.else54
	movl	$0, -12(%rbp)
	movl	$1, -20(%rbp)
.LBB84_14:                              # %if.end55
	movl	$0, -4(%rbp)
.LBB84_15:                              # %for.cond56
                                        # =>This Inner Loop Header: Depth=1
	movl	-4(%rbp), %eax
	cmpl	dpb+32, %eax
	jae	.LBB84_38
# %bb.16:                               # %for.body58
                                        #   in Loop: Header=BB84_15 Depth=1
	movq	dpb+8, %rax
	movl	-4(%rbp), %ecx
	movq	(%rax,%rcx,8), %rax
	movl	4(%rax), %eax
	andl	$1, %eax
	cmpl	$0, %eax
	je	.LBB84_26
# %bb.17:                               # %if.then63
                                        #   in Loop: Header=BB84_15 Depth=1
	movq	dpb+8, %rax
	movl	-4(%rbp), %ecx
	movq	(%rax,%rcx,8), %rax
	movq	48(%rax), %rax
	cmpl	$0, 6376(%rax)
	jne	.LBB84_25
# %bb.18:                               # %land.lhs.true69
                                        #   in Loop: Header=BB84_15 Depth=1
	movq	dpb+8, %rax
	movl	-4(%rbp), %ecx
	movq	(%rax,%rcx,8), %rax
	movq	48(%rax), %rax
	movl	6364(%rax), %eax
	cmpl	-16(%rbp), %eax
	jne	.LBB84_25
# %bb.19:                               # %if.then75
	movq	dpb+8, %rax
	movl	-4(%rbp), %ecx
	movq	(%rax,%rcx,8), %rax
	cmpl	$0, 8(%rax)
	je	.LBB84_22
# %bb.20:                               # %land.lhs.true80
	movq	dpb+8, %rax
	movl	-4(%rbp), %ecx
	movq	(%rax,%rcx,8), %rax
	movl	28(%rax), %eax
	cmpl	-8(%rbp), %eax
	je	.LBB84_22
# %bb.21:                               # %if.then85
	movabsq	$.L.str.26, %rdi
	movb	$0, %al
	callq	printf
.LBB84_22:                              # %if.end87
	movl	-8(%rbp), %eax
	movq	dpb+8, %rcx
	movl	-4(%rbp), %edx
	movq	(%rcx,%rdx,8), %rcx
	movq	48(%rcx), %rcx
	movl	%eax, 6372(%rcx)
	movq	dpb+8, %rcx
	movl	-4(%rbp), %edx
	movq	(%rcx,%rdx,8), %rcx
	movl	%eax, 28(%rcx)
	movl	-8(%rbp), %eax
	shll	$1, %eax
	addl	-12(%rbp), %eax
	movq	dpb+8, %rcx
	movl	-4(%rbp), %edx
	movq	(%rcx,%rdx,8), %rcx
	movq	48(%rcx), %rcx
	movl	%eax, 6368(%rcx)
	movq	dpb+8, %rax
	movl	-4(%rbp), %ecx
	movq	(%rax,%rcx,8), %rax
	movq	48(%rax), %rax
	movl	$1, 6376(%rax)
	movq	dpb+8, %rax
	movl	-4(%rbp), %ecx
	movq	(%rax,%rcx,8), %rax
	movl	8(%rax), %ecx
	orl	$1, %ecx
	movl	%ecx, 8(%rax)
	movq	dpb+8, %rax
	movl	-4(%rbp), %ecx
	movq	(%rax,%rcx,8), %rax
	cmpl	$3, 8(%rax)
	jne	.LBB84_24
# %bb.23:                               # %if.then110
	movq	dpb+8, %rax
	movl	-4(%rbp), %ecx
	movq	(%rax,%rcx,8), %rax
	movq	40(%rax), %rax
	movl	$1, 6376(%rax)
	movl	-8(%rbp), %eax
	movq	dpb+8, %rcx
	movl	-4(%rbp), %edx
	movq	(%rcx,%rdx,8), %rcx
	movq	40(%rcx), %rcx
	movl	%eax, 6368(%rcx)
	movq	dpb+8, %rcx
	movl	-4(%rbp), %edx
	movq	(%rcx,%rdx,8), %rcx
	movq	40(%rcx), %rcx
	movl	%eax, 6372(%rcx)
.LBB84_24:                              # %if.end123
	jmp	.LBB84_39
.LBB84_25:                              # %if.end124
                                        #   in Loop: Header=BB84_15 Depth=1
	jmp	.LBB84_26
.LBB84_26:                              # %if.end125
                                        #   in Loop: Header=BB84_15 Depth=1
	movq	dpb+8, %rax
	movl	-4(%rbp), %ecx
	movq	(%rax,%rcx,8), %rax
	movl	4(%rax), %eax
	andl	$2, %eax
	cmpl	$0, %eax
	je	.LBB84_36
# %bb.27:                               # %if.then131
                                        #   in Loop: Header=BB84_15 Depth=1
	movq	dpb+8, %rax
	movl	-4(%rbp), %ecx
	movq	(%rax,%rcx,8), %rax
	movq	56(%rax), %rax
	cmpl	$0, 6376(%rax)
	jne	.LBB84_35
# %bb.28:                               # %land.lhs.true137
                                        #   in Loop: Header=BB84_15 Depth=1
	movq	dpb+8, %rax
	movl	-4(%rbp), %ecx
	movq	(%rax,%rcx,8), %rax
	movq	56(%rax), %rax
	movl	6364(%rax), %eax
	cmpl	-16(%rbp), %eax
	jne	.LBB84_35
# %bb.29:                               # %if.then143
	movq	dpb+8, %rax
	movl	-4(%rbp), %ecx
	movq	(%rax,%rcx,8), %rax
	cmpl	$0, 8(%rax)
	je	.LBB84_32
# %bb.30:                               # %land.lhs.true148
	movq	dpb+8, %rax
	movl	-4(%rbp), %ecx
	movq	(%rax,%rcx,8), %rax
	movl	28(%rax), %eax
	cmpl	-8(%rbp), %eax
	je	.LBB84_32
# %bb.31:                               # %if.then153
	movabsq	$.L.str.26, %rdi
	movb	$0, %al
	callq	printf
.LBB84_32:                              # %if.end155
	movl	-8(%rbp), %eax
	movq	dpb+8, %rcx
	movl	-4(%rbp), %edx
	movq	(%rcx,%rdx,8), %rcx
	movq	56(%rcx), %rcx
	movl	%eax, 6372(%rcx)
	movq	dpb+8, %rcx
	movl	-4(%rbp), %edx
	movq	(%rcx,%rdx,8), %rcx
	movl	%eax, 28(%rcx)
	movl	-8(%rbp), %eax
	shll	$1, %eax
	addl	-12(%rbp), %eax
	movq	dpb+8, %rcx
	movl	-4(%rbp), %edx
	movq	(%rcx,%rdx,8), %rcx
	movq	56(%rcx), %rcx
	movl	%eax, 6368(%rcx)
	movq	dpb+8, %rax
	movl	-4(%rbp), %ecx
	movq	(%rax,%rcx,8), %rax
	movq	56(%rax), %rax
	movl	$1, 6376(%rax)
	movq	dpb+8, %rax
	movl	-4(%rbp), %ecx
	movq	(%rax,%rcx,8), %rax
	movl	8(%rax), %ecx
	orl	$2, %ecx
	movl	%ecx, 8(%rax)
	movq	dpb+8, %rax
	movl	-4(%rbp), %ecx
	movq	(%rax,%rcx,8), %rax
	cmpl	$3, 8(%rax)
	jne	.LBB84_34
# %bb.33:                               # %if.then181
	movq	dpb+8, %rax
	movl	-4(%rbp), %ecx
	movq	(%rax,%rcx,8), %rax
	movq	40(%rax), %rax
	movl	$1, 6376(%rax)
	movl	-8(%rbp), %eax
	movq	dpb+8, %rcx
	movl	-4(%rbp), %edx
	movq	(%rcx,%rdx,8), %rcx
	movq	40(%rcx), %rcx
	movl	%eax, 6368(%rcx)
	movq	dpb+8, %rcx
	movl	-4(%rbp), %edx
	movq	(%rcx,%rdx,8), %rcx
	movq	40(%rcx), %rcx
	movl	%eax, 6372(%rcx)
.LBB84_34:                              # %if.end194
	jmp	.LBB84_39
.LBB84_35:                              # %if.end195
                                        #   in Loop: Header=BB84_15 Depth=1
	jmp	.LBB84_36
.LBB84_36:                              # %if.end196
                                        #   in Loop: Header=BB84_15 Depth=1
	jmp	.LBB84_37
.LBB84_37:                              # %for.inc197
                                        #   in Loop: Header=BB84_15 Depth=1
	movl	-4(%rbp), %eax
	addl	$1, %eax
	movl	%eax, -4(%rbp)
	jmp	.LBB84_15
.LBB84_38:                              # %for.end199
	movabsq	$.L.str.27, %rdi
	movb	$0, %al
	callq	printf
.LBB84_39:                              # %if.end201
	cmpl	$946958671, -24(%rbp)   # imm = 0x3871714F
	jne	.LBB84_41
.LBB84_40:
	addq	$32, %rsp
	popq	%rbp
	.cfi_def_cfa %rsp, 8
	retq
.LBB84_41:                              # %func_exit
	.cfi_def_cfa %rbp, 16
	callq	detect_breach
	jmp	.LBB84_40
.Lfunc_end84:
	.size	mark_pic_long_term.21, .Lfunc_end84-mark_pic_long_term.21
	.cfi_endproc
                                        # -- End function
	.p2align	4, 0x90         # -- Begin function mm_unmark_short_term_for_reference.22
	.type	mm_unmark_short_term_for_reference.22,@function
mm_unmark_short_term_for_reference.22:  # @mm_unmark_short_term_for_reference.22
	.cfi_startproc
# %bb.0:                                # %entry
	pushq	%rbp
	.cfi_def_cfa_offset 16
	.cfi_offset %rbp, -16
	movq	%rsp, %rbp
	.cfi_def_cfa_register %rbp
	subq	$32, %rsp
	movl	$40662554, -16(%rbp)    # imm = 0x26C761A
	movq	%rdi, -24(%rbp)
	movl	%esi, -12(%rbp)
	movq	-24(%rbp), %rdi
	movl	-12(%rbp), %esi
	callq	get_pic_num_x
	movl	%eax, -8(%rbp)
	movl	$0, -4(%rbp)
.LBB85_1:                               # %for.cond
                                        # =>This Inner Loop Header: Depth=1
	movl	-4(%rbp), %eax
	cmpl	dpb+32, %eax
	jae	.LBB85_26
# %bb.2:                                # %for.body
                                        #   in Loop: Header=BB85_1 Depth=1
	movq	-24(%rbp), %rax
	cmpl	$0, (%rax)
	jne	.LBB85_9
# %bb.3:                                # %if.then
                                        #   in Loop: Header=BB85_1 Depth=1
	movq	dpb+8, %rax
	movl	-4(%rbp), %ecx
	movq	(%rax,%rcx,8), %rax
	cmpl	$3, 4(%rax)
	jne	.LBB85_8
# %bb.4:                                # %land.lhs.true
                                        #   in Loop: Header=BB85_1 Depth=1
	movq	dpb+8, %rax
	movl	-4(%rbp), %ecx
	movq	(%rax,%rcx,8), %rax
	cmpl	$0, 8(%rax)
	jne	.LBB85_8
# %bb.5:                                # %if.then6
                                        #   in Loop: Header=BB85_1 Depth=1
	movq	dpb+8, %rax
	movl	-4(%rbp), %ecx
	movq	(%rax,%rcx,8), %rax
	movq	40(%rax), %rax
	movl	6364(%rax), %eax
	cmpl	-8(%rbp), %eax
	jne	.LBB85_7
# %bb.6:                                # %if.then10
	movq	dpb+8, %rax
	movl	-4(%rbp), %ecx
	movq	(%rax,%rcx,8), %rdi
	callq	unmark_for_reference
	jmp	.LBB85_27
.LBB85_7:                               # %if.end
                                        #   in Loop: Header=BB85_1 Depth=1
	jmp	.LBB85_8
.LBB85_8:                               # %if.end13
                                        #   in Loop: Header=BB85_1 Depth=1
	jmp	.LBB85_24
.LBB85_9:                               # %if.else
                                        #   in Loop: Header=BB85_1 Depth=1
	movq	dpb+8, %rax
	movl	-4(%rbp), %ecx
	movq	(%rax,%rcx,8), %rax
	movl	4(%rax), %eax
	andl	$1, %eax
	cmpl	$0, %eax
	je	.LBB85_16
# %bb.10:                               # %land.lhs.true17
                                        #   in Loop: Header=BB85_1 Depth=1
	movq	dpb+8, %rax
	movl	-4(%rbp), %ecx
	movq	(%rax,%rcx,8), %rax
	movl	8(%rax), %eax
	andl	$1, %eax
	cmpl	$0, %eax
	jne	.LBB85_16
# %bb.11:                               # %if.then23
                                        #   in Loop: Header=BB85_1 Depth=1
	movq	dpb+8, %rax
	movl	-4(%rbp), %ecx
	movq	(%rax,%rcx,8), %rax
	movq	48(%rax), %rax
	movl	6364(%rax), %eax
	cmpl	-8(%rbp), %eax
	jne	.LBB85_15
# %bb.12:                               # %if.then28
	movq	dpb+8, %rax
	movl	-4(%rbp), %ecx
	movq	(%rax,%rcx,8), %rax
	movq	48(%rax), %rax
	movl	$0, 6380(%rax)
	movq	dpb+8, %rax
	movl	-4(%rbp), %ecx
	movq	(%rax,%rcx,8), %rax
	movl	4(%rax), %ecx
	andl	$2, %ecx
	movl	%ecx, 4(%rax)
	movq	dpb+8, %rax
	movl	-4(%rbp), %ecx
	movq	(%rax,%rcx,8), %rax
	cmpl	$3, (%rax)
	jne	.LBB85_14
# %bb.13:                               # %if.then39
	movq	dpb+8, %rax
	movl	-4(%rbp), %ecx
	movq	(%rax,%rcx,8), %rax
	movq	40(%rax), %rax
	movl	$0, 6380(%rax)
.LBB85_14:                              # %if.end44
	jmp	.LBB85_27
.LBB85_15:                              # %if.end45
                                        #   in Loop: Header=BB85_1 Depth=1
	jmp	.LBB85_16
.LBB85_16:                              # %if.end46
                                        #   in Loop: Header=BB85_1 Depth=1
	movq	dpb+8, %rax
	movl	-4(%rbp), %ecx
	movq	(%rax,%rcx,8), %rax
	movl	4(%rax), %eax
	andl	$2, %eax
	cmpl	$0, %eax
	je	.LBB85_23
# %bb.17:                               # %land.lhs.true52
                                        #   in Loop: Header=BB85_1 Depth=1
	movq	dpb+8, %rax
	movl	-4(%rbp), %ecx
	movq	(%rax,%rcx,8), %rax
	movl	8(%rax), %eax
	andl	$2, %eax
	cmpl	$0, %eax
	jne	.LBB85_23
# %bb.18:                               # %if.then58
                                        #   in Loop: Header=BB85_1 Depth=1
	movq	dpb+8, %rax
	movl	-4(%rbp), %ecx
	movq	(%rax,%rcx,8), %rax
	movq	56(%rax), %rax
	movl	6364(%rax), %eax
	cmpl	-8(%rbp), %eax
	jne	.LBB85_22
# %bb.19:                               # %if.then63
	movq	dpb+8, %rax
	movl	-4(%rbp), %ecx
	movq	(%rax,%rcx,8), %rax
	movq	56(%rax), %rax
	movl	$0, 6380(%rax)
	movq	dpb+8, %rax
	movl	-4(%rbp), %ecx
	movq	(%rax,%rcx,8), %rax
	movl	4(%rax), %ecx
	andl	$1, %ecx
	movl	%ecx, 4(%rax)
	movq	dpb+8, %rax
	movl	-4(%rbp), %ecx
	movq	(%rax,%rcx,8), %rax
	cmpl	$3, (%rax)
	jne	.LBB85_21
# %bb.20:                               # %if.then76
	movq	dpb+8, %rax
	movl	-4(%rbp), %ecx
	movq	(%rax,%rcx,8), %rax
	movq	40(%rax), %rax
	movl	$0, 6380(%rax)
.LBB85_21:                              # %if.end81
	jmp	.LBB85_27
.LBB85_22:                              # %if.end82
                                        #   in Loop: Header=BB85_1 Depth=1
	jmp	.LBB85_23
.LBB85_23:                              # %if.end83
                                        #   in Loop: Header=BB85_1 Depth=1
	jmp	.LBB85_24
.LBB85_24:                              # %if.end84
                                        #   in Loop: Header=BB85_1 Depth=1
	jmp	.LBB85_25
.LBB85_25:                              # %for.inc
                                        #   in Loop: Header=BB85_1 Depth=1
	movl	-4(%rbp), %eax
	addl	$1, %eax
	movl	%eax, -4(%rbp)
	jmp	.LBB85_1
.LBB85_26:                              # %for.end.loopexit
	jmp	.LBB85_27
.LBB85_27:                              # %for.end
	cmpl	$40662554, -16(%rbp)    # imm = 0x26C761A
	jne	.LBB85_29
.LBB85_28:
	addq	$32, %rsp
	popq	%rbp
	.cfi_def_cfa %rsp, 8
	retq
.LBB85_29:                              # %func_exit
	.cfi_def_cfa %rbp, 16
	callq	detect_breach
	jmp	.LBB85_28
.Lfunc_end85:
	.size	mm_unmark_short_term_for_reference.22, .Lfunc_end85-mm_unmark_short_term_for_reference.22
	.cfi_endproc
                                        # -- End function
	.p2align	4, 0x90         # -- Begin function mark_pic_long_term.23
	.type	mark_pic_long_term.23,@function
mark_pic_long_term.23:                  # @mark_pic_long_term.23
	.cfi_startproc
# %bb.0:                                # %entry
	pushq	%rbp
	.cfi_def_cfa_offset 16
	.cfi_offset %rbp, -16
	movq	%rsp, %rbp
	.cfi_def_cfa_register %rbp
	subq	$32, %rsp
	movl	$1067940163, -24(%rbp)  # imm = 0x3FA77943
	movq	%rdi, -32(%rbp)
	movl	%esi, -8(%rbp)
	movl	%edx, -12(%rbp)
	movq	-32(%rbp), %rax
	cmpl	$0, (%rax)
	jne	.LBB86_11
# %bb.1:                                # %if.then
	movl	$0, -4(%rbp)
.LBB86_2:                               # %for.cond
                                        # =>This Inner Loop Header: Depth=1
	movl	-4(%rbp), %eax
	cmpl	dpb+32, %eax
	jae	.LBB86_10
# %bb.3:                                # %for.body
                                        #   in Loop: Header=BB86_2 Depth=1
	movq	dpb+8, %rax
	movl	-4(%rbp), %ecx
	movq	(%rax,%rcx,8), %rax
	cmpl	$3, 4(%rax)
	jne	.LBB86_8
# %bb.4:                                # %if.then3
                                        #   in Loop: Header=BB86_2 Depth=1
	movq	dpb+8, %rax
	movl	-4(%rbp), %ecx
	movq	(%rax,%rcx,8), %rax
	movq	40(%rax), %rax
	cmpl	$0, 6376(%rax)
	jne	.LBB86_7
# %bb.5:                                # %land.lhs.true
                                        #   in Loop: Header=BB86_2 Depth=1
	movq	dpb+8, %rax
	movl	-4(%rbp), %ecx
	movq	(%rax,%rcx,8), %rax
	movq	40(%rax), %rax
	movl	6364(%rax), %eax
	cmpl	-12(%rbp), %eax
	jne	.LBB86_7
# %bb.6:                                # %if.then10
	movl	-8(%rbp), %eax
	movq	dpb+8, %rcx
	movl	-4(%rbp), %edx
	movq	(%rcx,%rdx,8), %rcx
	movq	56(%rcx), %rcx
	movl	%eax, 6372(%rcx)
	movq	dpb+8, %rcx
	movl	-4(%rbp), %edx
	movq	(%rcx,%rdx,8), %rcx
	movq	48(%rcx), %rcx
	movl	%eax, 6372(%rcx)
	movq	dpb+8, %rcx
	movl	-4(%rbp), %edx
	movq	(%rcx,%rdx,8), %rcx
	movq	40(%rcx), %rcx
	movl	%eax, 6372(%rcx)
	movq	dpb+8, %rcx
	movl	-4(%rbp), %edx
	movq	(%rcx,%rdx,8), %rcx
	movl	%eax, 28(%rcx)
	movl	-8(%rbp), %eax
	movq	dpb+8, %rcx
	movl	-4(%rbp), %edx
	movq	(%rcx,%rdx,8), %rcx
	movq	56(%rcx), %rcx
	movl	%eax, 6368(%rcx)
	movq	dpb+8, %rcx
	movl	-4(%rbp), %edx
	movq	(%rcx,%rdx,8), %rcx
	movq	48(%rcx), %rcx
	movl	%eax, 6368(%rcx)
	movq	dpb+8, %rcx
	movl	-4(%rbp), %edx
	movq	(%rcx,%rdx,8), %rcx
	movq	40(%rcx), %rcx
	movl	%eax, 6368(%rcx)
	movq	dpb+8, %rax
	movl	-4(%rbp), %ecx
	movq	(%rax,%rcx,8), %rax
	movq	56(%rax), %rax
	movl	$1, 6376(%rax)
	movq	dpb+8, %rax
	movl	-4(%rbp), %ecx
	movq	(%rax,%rcx,8), %rax
	movq	48(%rax), %rax
	movl	$1, 6376(%rax)
	movq	dpb+8, %rax
	movl	-4(%rbp), %ecx
	movq	(%rax,%rcx,8), %rax
	movq	40(%rax), %rax
	movl	$1, 6376(%rax)
	movq	dpb+8, %rax
	movl	-4(%rbp), %ecx
	movq	(%rax,%rcx,8), %rax
	movl	$3, 8(%rax)
	jmp	.LBB86_39
.LBB86_7:                               # %if.end
                                        #   in Loop: Header=BB86_2 Depth=1
	jmp	.LBB86_8
.LBB86_8:                               # %if.end50
                                        #   in Loop: Header=BB86_2 Depth=1
	jmp	.LBB86_9
.LBB86_9:                               # %for.inc
                                        #   in Loop: Header=BB86_2 Depth=1
	movl	-4(%rbp), %eax
	addl	$1, %eax
	movl	%eax, -4(%rbp)
	jmp	.LBB86_2
.LBB86_10:                              # %for.end
	movabsq	$.L.str.25, %rdi
	movb	$0, %al
	callq	printf
	jmp	.LBB86_39
.LBB86_11:                              # %if.else
	movq	-32(%rbp), %rax
	cmpl	$1, (%rax)
	jne	.LBB86_13
# %bb.12:                               # %if.then53
	movl	$1, -16(%rbp)
	movl	$0, -20(%rbp)
	jmp	.LBB86_14
.LBB86_13:                              # %if.else54
	movl	$0, -16(%rbp)
	movl	$1, -20(%rbp)
.LBB86_14:                              # %if.end55
	movl	$0, -4(%rbp)
.LBB86_15:                              # %for.cond56
                                        # =>This Inner Loop Header: Depth=1
	movl	-4(%rbp), %eax
	cmpl	dpb+32, %eax
	jae	.LBB86_38
# %bb.16:                               # %for.body58
                                        #   in Loop: Header=BB86_15 Depth=1
	movq	dpb+8, %rax
	movl	-4(%rbp), %ecx
	movq	(%rax,%rcx,8), %rax
	movl	4(%rax), %eax
	andl	$1, %eax
	cmpl	$0, %eax
	je	.LBB86_26
# %bb.17:                               # %if.then63
                                        #   in Loop: Header=BB86_15 Depth=1
	movq	dpb+8, %rax
	movl	-4(%rbp), %ecx
	movq	(%rax,%rcx,8), %rax
	movq	48(%rax), %rax
	cmpl	$0, 6376(%rax)
	jne	.LBB86_25
# %bb.18:                               # %land.lhs.true69
                                        #   in Loop: Header=BB86_15 Depth=1
	movq	dpb+8, %rax
	movl	-4(%rbp), %ecx
	movq	(%rax,%rcx,8), %rax
	movq	48(%rax), %rax
	movl	6364(%rax), %eax
	cmpl	-12(%rbp), %eax
	jne	.LBB86_25
# %bb.19:                               # %if.then75
	movq	dpb+8, %rax
	movl	-4(%rbp), %ecx
	movq	(%rax,%rcx,8), %rax
	cmpl	$0, 8(%rax)
	je	.LBB86_22
# %bb.20:                               # %land.lhs.true80
	movq	dpb+8, %rax
	movl	-4(%rbp), %ecx
	movq	(%rax,%rcx,8), %rax
	movl	28(%rax), %eax
	cmpl	-8(%rbp), %eax
	je	.LBB86_22
# %bb.21:                               # %if.then85
	movabsq	$.L.str.26, %rdi
	movb	$0, %al
	callq	printf
.LBB86_22:                              # %if.end87
	movl	-8(%rbp), %eax
	movq	dpb+8, %rcx
	movl	-4(%rbp), %edx
	movq	(%rcx,%rdx,8), %rcx
	movq	48(%rcx), %rcx
	movl	%eax, 6372(%rcx)
	movq	dpb+8, %rcx
	movl	-4(%rbp), %edx
	movq	(%rcx,%rdx,8), %rcx
	movl	%eax, 28(%rcx)
	movl	-8(%rbp), %eax
	shll	$1, %eax
	addl	-16(%rbp), %eax
	movq	dpb+8, %rcx
	movl	-4(%rbp), %edx
	movq	(%rcx,%rdx,8), %rcx
	movq	48(%rcx), %rcx
	movl	%eax, 6368(%rcx)
	movq	dpb+8, %rax
	movl	-4(%rbp), %ecx
	movq	(%rax,%rcx,8), %rax
	movq	48(%rax), %rax
	movl	$1, 6376(%rax)
	movq	dpb+8, %rax
	movl	-4(%rbp), %ecx
	movq	(%rax,%rcx,8), %rax
	movl	8(%rax), %ecx
	orl	$1, %ecx
	movl	%ecx, 8(%rax)
	movq	dpb+8, %rax
	movl	-4(%rbp), %ecx
	movq	(%rax,%rcx,8), %rax
	cmpl	$3, 8(%rax)
	jne	.LBB86_24
# %bb.23:                               # %if.then110
	movq	dpb+8, %rax
	movl	-4(%rbp), %ecx
	movq	(%rax,%rcx,8), %rax
	movq	40(%rax), %rax
	movl	$1, 6376(%rax)
	movl	-8(%rbp), %eax
	movq	dpb+8, %rcx
	movl	-4(%rbp), %edx
	movq	(%rcx,%rdx,8), %rcx
	movq	40(%rcx), %rcx
	movl	%eax, 6368(%rcx)
	movq	dpb+8, %rcx
	movl	-4(%rbp), %edx
	movq	(%rcx,%rdx,8), %rcx
	movq	40(%rcx), %rcx
	movl	%eax, 6372(%rcx)
.LBB86_24:                              # %if.end123
	jmp	.LBB86_39
.LBB86_25:                              # %if.end124
                                        #   in Loop: Header=BB86_15 Depth=1
	jmp	.LBB86_26
.LBB86_26:                              # %if.end125
                                        #   in Loop: Header=BB86_15 Depth=1
	movq	dpb+8, %rax
	movl	-4(%rbp), %ecx
	movq	(%rax,%rcx,8), %rax
	movl	4(%rax), %eax
	andl	$2, %eax
	cmpl	$0, %eax
	je	.LBB86_36
# %bb.27:                               # %if.then131
                                        #   in Loop: Header=BB86_15 Depth=1
	movq	dpb+8, %rax
	movl	-4(%rbp), %ecx
	movq	(%rax,%rcx,8), %rax
	movq	56(%rax), %rax
	cmpl	$0, 6376(%rax)
	jne	.LBB86_35
# %bb.28:                               # %land.lhs.true137
                                        #   in Loop: Header=BB86_15 Depth=1
	movq	dpb+8, %rax
	movl	-4(%rbp), %ecx
	movq	(%rax,%rcx,8), %rax
	movq	56(%rax), %rax
	movl	6364(%rax), %eax
	cmpl	-12(%rbp), %eax
	jne	.LBB86_35
# %bb.29:                               # %if.then143
	movq	dpb+8, %rax
	movl	-4(%rbp), %ecx
	movq	(%rax,%rcx,8), %rax
	cmpl	$0, 8(%rax)
	je	.LBB86_32
# %bb.30:                               # %land.lhs.true148
	movq	dpb+8, %rax
	movl	-4(%rbp), %ecx
	movq	(%rax,%rcx,8), %rax
	movl	28(%rax), %eax
	cmpl	-8(%rbp), %eax
	je	.LBB86_32
# %bb.31:                               # %if.then153
	movabsq	$.L.str.26, %rdi
	movb	$0, %al
	callq	printf
.LBB86_32:                              # %if.end155
	movl	-8(%rbp), %eax
	movq	dpb+8, %rcx
	movl	-4(%rbp), %edx
	movq	(%rcx,%rdx,8), %rcx
	movq	56(%rcx), %rcx
	movl	%eax, 6372(%rcx)
	movq	dpb+8, %rcx
	movl	-4(%rbp), %edx
	movq	(%rcx,%rdx,8), %rcx
	movl	%eax, 28(%rcx)
	movl	-8(%rbp), %eax
	shll	$1, %eax
	addl	-16(%rbp), %eax
	movq	dpb+8, %rcx
	movl	-4(%rbp), %edx
	movq	(%rcx,%rdx,8), %rcx
	movq	56(%rcx), %rcx
	movl	%eax, 6368(%rcx)
	movq	dpb+8, %rax
	movl	-4(%rbp), %ecx
	movq	(%rax,%rcx,8), %rax
	movq	56(%rax), %rax
	movl	$1, 6376(%rax)
	movq	dpb+8, %rax
	movl	-4(%rbp), %ecx
	movq	(%rax,%rcx,8), %rax
	movl	8(%rax), %ecx
	orl	$2, %ecx
	movl	%ecx, 8(%rax)
	movq	dpb+8, %rax
	movl	-4(%rbp), %ecx
	movq	(%rax,%rcx,8), %rax
	cmpl	$3, 8(%rax)
	jne	.LBB86_34
# %bb.33:                               # %if.then181
	movq	dpb+8, %rax
	movl	-4(%rbp), %ecx
	movq	(%rax,%rcx,8), %rax
	movq	40(%rax), %rax
	movl	$1, 6376(%rax)
	movl	-8(%rbp), %eax
	movq	dpb+8, %rcx
	movl	-4(%rbp), %edx
	movq	(%rcx,%rdx,8), %rcx
	movq	40(%rcx), %rcx
	movl	%eax, 6368(%rcx)
	movq	dpb+8, %rcx
	movl	-4(%rbp), %edx
	movq	(%rcx,%rdx,8), %rcx
	movq	40(%rcx), %rcx
	movl	%eax, 6372(%rcx)
.LBB86_34:                              # %if.end194
	jmp	.LBB86_39
.LBB86_35:                              # %if.end195
                                        #   in Loop: Header=BB86_15 Depth=1
	jmp	.LBB86_36
.LBB86_36:                              # %if.end196
                                        #   in Loop: Header=BB86_15 Depth=1
	jmp	.LBB86_37
.LBB86_37:                              # %for.inc197
                                        #   in Loop: Header=BB86_15 Depth=1
	movl	-4(%rbp), %eax
	addl	$1, %eax
	movl	%eax, -4(%rbp)
	jmp	.LBB86_15
.LBB86_38:                              # %for.end199
	movabsq	$.L.str.27, %rdi
	movb	$0, %al
	callq	printf
.LBB86_39:                              # %if.end201
	cmpl	$1067940163, -24(%rbp)  # imm = 0x3FA77943
	jne	.LBB86_41
.LBB86_40:
	addq	$32, %rsp
	popq	%rbp
	.cfi_def_cfa %rsp, 8
	retq
.LBB86_41:                              # %func_exit
	.cfi_def_cfa %rbp, 16
	callq	detect_breach
	jmp	.LBB86_40
.Lfunc_end86:
	.size	mark_pic_long_term.23, .Lfunc_end86-mark_pic_long_term.23
	.cfi_endproc
                                        # -- End function
	.globl	alloc_colocated.24      # -- Begin function alloc_colocated.24
	.p2align	4, 0x90
	.type	alloc_colocated.24,@function
alloc_colocated.24:                     # @alloc_colocated.24
	.cfi_startproc
# %bb.0:                                # %entry
	pushq	%rbp
	.cfi_def_cfa_offset 16
	.cfi_offset %rbp, -16
	movq	%rsp, %rbp
	.cfi_def_cfa_register %rbp
	pushq	%rbx
	subq	$24, %rsp
	.cfi_offset %rbx, -24
	movl	$74831915, -32(%rbp)    # imm = 0x475D82B
	movl	%edi, -16(%rbp)
	movl	%esi, -12(%rbp)
	movl	%edx, -28(%rbp)
	movl	$1, %edi
	movl	$4880, %esi             # imm = 0x1310
	callq	calloc
	xorl	%ecx, %ecx
	movq	%rax, -24(%rbp)
	cmpq	-24(%rbp), %rcx
	jne	.LBB87_2
# %bb.1:                                # %if.then
	movabsq	$.L.str.21, %rdi
	callq	no_mem_exit
.LBB87_2:                               # %if.end
	movl	-16(%rbp), %eax
	movq	-24(%rbp), %rcx
	movl	%eax, 4(%rcx)
	movl	-12(%rbp), %eax
	movq	-24(%rbp), %rcx
	movl	%eax, 8(%rcx)
	movq	-24(%rbp), %rdi
	addq	$1600, %rdi             # imm = 0x640
	movl	-16(%rbp), %eax
	cltd
	movl	$4, %esi
	idivl	%esi
	movl	%eax, %ecx
	movl	-12(%rbp), %eax
	cltd
	idivl	%esi
	movl	$2, %esi
	movl	%ecx, %edx
	movl	%eax, %ecx
	callq	get_mem3Dshort
	movq	-24(%rbp), %rdi
	addq	$1608, %rdi             # imm = 0x648
	movl	-16(%rbp), %eax
	cltd
	movl	$4, %esi
	idivl	%esi
	movl	%eax, %ecx
	movl	-12(%rbp), %eax
	cltd
	idivl	%esi
	movl	$2, %esi
	movl	%ecx, %edx
	movl	%eax, %ecx
	callq	get_mem3Dint64
	movq	-24(%rbp), %rdi
	addq	$1616, %rdi             # imm = 0x650
	movl	-16(%rbp), %eax
	cltd
	movl	$4, %esi
	idivl	%esi
	movl	%eax, %ecx
	movl	-12(%rbp), %eax
	cltd
	idivl	%esi
	movl	$2, %esi
	movl	%ecx, %edx
	movl	%eax, %ecx
	movl	$2, %r8d
	callq	get_mem4Dshort
	movq	-24(%rbp), %rdi
	addq	$1624, %rdi             # imm = 0x658
	movl	-16(%rbp), %eax
	cltd
	movl	$4, %ecx
	idivl	%ecx
	movl	%eax, %esi
	movl	-12(%rbp), %eax
	cltd
	idivl	%ecx
	movl	%eax, %edx
	callq	get_mem2D
	movq	-24(%rbp), %rdi
	addq	$4872, %rdi             # imm = 0x1308
	movl	-16(%rbp), %eax
	cltd
	movl	$4, %ecx
	idivl	%ecx
	movl	%eax, %esi
	movl	-12(%rbp), %eax
	cltd
	idivl	%ecx
	movl	%eax, %edx
	callq	get_mem2D
	cmpl	$0, -28(%rbp)
	je	.LBB87_4
# %bb.3:                                # %if.then17
	movq	-24(%rbp), %rdi
	addq	$3216, %rdi             # imm = 0xC90
	movl	-16(%rbp), %eax
	cltd
	movl	$4, %esi
	idivl	%esi
	movl	%eax, %ecx
	movl	-12(%rbp), %eax
	cltd
	idivl	%esi
	cltd
	movl	$2, %esi
	idivl	%esi
	movl	$2, %esi
	movl	%ecx, %edx
	movl	%eax, %ecx
	callq	get_mem3Dshort
	movq	-24(%rbp), %rdi
	addq	$3224, %rdi             # imm = 0xC98
	movl	-16(%rbp), %eax
	cltd
	movl	$4, %esi
	idivl	%esi
	movl	%eax, %ecx
	movl	-12(%rbp), %eax
	cltd
	idivl	%esi
	cltd
	movl	$2, %esi
	idivl	%esi
	movl	$2, %esi
	movl	%ecx, %edx
	movl	%eax, %ecx
	callq	get_mem3Dint64
	movq	-24(%rbp), %rdi
	addq	$3232, %rdi             # imm = 0xCA0
	movl	-16(%rbp), %eax
	cltd
	movl	$4, %esi
	idivl	%esi
	movl	%eax, %ecx
	movl	-12(%rbp), %eax
	cltd
	idivl	%esi
	cltd
	movl	$2, %esi
	idivl	%esi
	movl	$2, %esi
	movl	%ecx, %edx
	movl	%eax, %ecx
	movl	$2, %r8d
	callq	get_mem4Dshort
	movq	-24(%rbp), %rdi
	addq	$3240, %rdi             # imm = 0xCA8
	movl	-16(%rbp), %eax
	cltd
	movl	$4, %ecx
	idivl	%ecx
	movl	%eax, %esi
	movl	-12(%rbp), %eax
	cltd
	idivl	%ecx
	cltd
	movl	$2, %ecx
	idivl	%ecx
	movl	%eax, %edx
	callq	get_mem2D
	movq	-24(%rbp), %rdi
	addq	$4832, %rdi             # imm = 0x12E0
	movl	-16(%rbp), %eax
	cltd
	movl	$4, %esi
	idivl	%esi
	movl	%eax, %ecx
	movl	-12(%rbp), %eax
	cltd
	idivl	%esi
	cltd
	movl	$2, %esi
	idivl	%esi
	movl	$2, %esi
	movl	%ecx, %edx
	movl	%eax, %ecx
	callq	get_mem3Dshort
	movq	-24(%rbp), %rdi
	addq	$4840, %rdi             # imm = 0x12E8
	movl	-16(%rbp), %eax
	cltd
	movl	$4, %esi
	idivl	%esi
	movl	%eax, %ecx
	movl	-12(%rbp), %eax
	cltd
	idivl	%esi
	cltd
	movl	$2, %esi
	idivl	%esi
	movl	$2, %esi
	movl	%ecx, %edx
	movl	%eax, %ecx
	callq	get_mem3Dint64
	movq	-24(%rbp), %rdi
	addq	$4848, %rdi             # imm = 0x12F0
	movl	-16(%rbp), %eax
	cltd
	movl	$4, %esi
	idivl	%esi
	movl	%eax, %ecx
	movl	-12(%rbp), %eax
	cltd
	idivl	%esi
	cltd
	movl	$2, %esi
	idivl	%esi
	movl	$2, %esi
	movl	%ecx, %edx
	movl	%eax, %ecx
	movl	$2, %r8d
	callq	get_mem4Dshort
	movq	-24(%rbp), %rdi
	addq	$4856, %rdi             # imm = 0x12F8
	movl	-16(%rbp), %eax
	cltd
	movl	$4, %ecx
	idivl	%ecx
	movl	%eax, %esi
	movl	-12(%rbp), %eax
	cltd
	idivl	%ecx
	cltd
	movl	$2, %ecx
	idivl	%ecx
	movl	%eax, %edx
	callq	get_mem2D
.LBB87_4:                               # %if.end50
	movl	-28(%rbp), %eax
	movq	-24(%rbp), %rcx
	movl	%eax, (%rcx)
	movq	-24(%rbp), %rbx
	cmpl	$74831915, -32(%rbp)    # imm = 0x475D82B
	jne	.LBB87_6
.LBB87_5:
	movq	%rbx, %rax
	addq	$24, %rsp
	popq	%rbx
	popq	%rbp
	.cfi_def_cfa %rsp, 8
	retq
.LBB87_6:                               # %func_exit
	.cfi_def_cfa %rbp, 16
	callq	detect_breach
	jmp	.LBB87_5
.Lfunc_end87:
	.size	alloc_colocated.24, .Lfunc_end87-alloc_colocated.24
	.cfi_endproc
                                        # -- End function
	.p2align	4, 0x90         # -- Begin function reorder_long_term.25
	.type	reorder_long_term.25,@function
reorder_long_term.25:                   # @reorder_long_term.25
	.cfi_startproc
# %bb.0:                                # %entry
	pushq	%rbp
	.cfi_def_cfa_offset 16
	.cfi_offset %rbp, -16
	movq	%rsp, %rbp
	.cfi_def_cfa_register %rbp
	subq	$64, %rsp
	movl	$179879242, -44(%rbp)   # imm = 0xAB8BD4A
	movq	%rdi, -16(%rbp)
	movl	%esi, -20(%rbp)
	movl	%edx, -28(%rbp)
	movq	%rcx, -40(%rbp)
	movl	-28(%rbp), %edi
	callq	get_long_term_pic
	movq	%rax, -56(%rbp)
	movl	-20(%rbp), %eax
	addl	$1, %eax
	movl	%eax, -4(%rbp)
.LBB88_1:                               # %for.cond
                                        # =>This Inner Loop Header: Depth=1
	movl	-4(%rbp), %eax
	movq	-40(%rbp), %rcx
	cmpl	(%rcx), %eax
	jle	.LBB88_4
# %bb.2:                                # %for.body
                                        #   in Loop: Header=BB88_1 Depth=1
	movq	-16(%rbp), %rax
	movl	-4(%rbp), %ecx
	subl	$1, %ecx
	movslq	%ecx, %rcx
	movq	(%rax,%rcx,8), %rax
	movq	-16(%rbp), %rcx
	movslq	-4(%rbp), %rdx
	movq	%rax, (%rcx,%rdx,8)
# %bb.3:                                # %for.inc
                                        #   in Loop: Header=BB88_1 Depth=1
	movl	-4(%rbp), %eax
	addl	$-1, %eax
	movl	%eax, -4(%rbp)
	jmp	.LBB88_1
.LBB88_4:                               # %for.end
	movq	-56(%rbp), %rax
	movq	-16(%rbp), %rcx
	movq	-40(%rbp), %rdx
	movl	(%rdx), %esi
	movl	%esi, %edi
	addl	$1, %edi
	movl	%edi, (%rdx)
	movslq	%esi, %rdx
	movq	%rax, (%rcx,%rdx,8)
	movq	-40(%rbp), %rax
	movl	(%rax), %eax
	movl	%eax, -24(%rbp)
	movq	-40(%rbp), %rax
	movl	(%rax), %eax
	movl	%eax, -4(%rbp)
.LBB88_5:                               # %for.cond5
                                        # =>This Inner Loop Header: Depth=1
	movl	-4(%rbp), %eax
	movl	-20(%rbp), %ecx
	addl	$1, %ecx
	cmpl	%ecx, %eax
	jg	.LBB88_11
# %bb.6:                                # %for.body8
                                        #   in Loop: Header=BB88_5 Depth=1
	movq	-16(%rbp), %rax
	movslq	-4(%rbp), %rcx
	movq	(%rax,%rcx,8), %rax
	cmpl	$0, 6376(%rax)
	je	.LBB88_8
# %bb.7:                                # %lor.lhs.false
                                        #   in Loop: Header=BB88_5 Depth=1
	movq	-16(%rbp), %rax
	movslq	-4(%rbp), %rcx
	movq	(%rax,%rcx,8), %rax
	movl	6368(%rax), %eax
	cmpl	-28(%rbp), %eax
	je	.LBB88_9
.LBB88_8:                               # %if.then
                                        #   in Loop: Header=BB88_5 Depth=1
	movq	-16(%rbp), %rax
	movslq	-4(%rbp), %rcx
	movq	(%rax,%rcx,8), %rax
	movq	-16(%rbp), %rcx
	movl	-24(%rbp), %edx
	movl	%edx, %esi
	addl	$1, %esi
	movl	%esi, -24(%rbp)
	movslq	%edx, %rdx
	movq	%rax, (%rcx,%rdx,8)
.LBB88_9:                               # %if.end
                                        #   in Loop: Header=BB88_5 Depth=1
	jmp	.LBB88_10
.LBB88_10:                              # %for.inc19
                                        #   in Loop: Header=BB88_5 Depth=1
	movl	-4(%rbp), %eax
	addl	$1, %eax
	movl	%eax, -4(%rbp)
	jmp	.LBB88_5
.LBB88_11:                              # %for.end21
	cmpl	$179879242, -44(%rbp)   # imm = 0xAB8BD4A
	jne	.LBB88_13
.LBB88_12:
	addq	$64, %rsp
	popq	%rbp
	.cfi_def_cfa %rsp, 8
	retq
.LBB88_13:                              # %func_exit
	.cfi_def_cfa %rbp, 16
	callq	detect_breach
	jmp	.LBB88_12
.Lfunc_end88:
	.size	reorder_long_term.25, .Lfunc_end88-reorder_long_term.25
	.cfi_endproc
                                        # -- End function
	.p2align	4, 0x90         # -- Begin function get_short_term_pic.26
	.type	get_short_term_pic.26,@function
get_short_term_pic.26:                  # @get_short_term_pic.26
	.cfi_startproc
# %bb.0:                                # %entry
	pushq	%rbp
	.cfi_def_cfa_offset 16
	.cfi_offset %rbp, -16
	movq	%rsp, %rbp
	.cfi_def_cfa_register %rbp
	pushq	%rbx
	subq	$24, %rsp
	.cfi_offset %rbx, -24
	movl	$886308454, -28(%rbp)   # imm = 0x34D3FE66
	movl	%edi, -16(%rbp)
	movl	$0, -12(%rbp)
.LBB89_1:                               # %for.cond
                                        # =>This Inner Loop Header: Depth=1
	movl	-12(%rbp), %eax
	cmpl	dpb+32, %eax
	jae	.LBB89_22
# %bb.2:                                # %for.body
                                        #   in Loop: Header=BB89_1 Depth=1
	movq	img, %rax
	cmpl	$0, 28(%rax)
	jne	.LBB89_9
# %bb.3:                                # %if.then
                                        #   in Loop: Header=BB89_1 Depth=1
	movq	dpb+8, %rax
	movl	-12(%rbp), %ecx
	movq	(%rax,%rcx,8), %rax
	cmpl	$3, 4(%rax)
	jne	.LBB89_8
# %bb.4:                                # %if.then3
                                        #   in Loop: Header=BB89_1 Depth=1
	movq	dpb+8, %rax
	movl	-12(%rbp), %ecx
	movq	(%rax,%rcx,8), %rax
	movq	40(%rax), %rax
	cmpl	$0, 6376(%rax)
	jne	.LBB89_7
# %bb.5:                                # %land.lhs.true
                                        #   in Loop: Header=BB89_1 Depth=1
	movq	dpb+8, %rax
	movl	-12(%rbp), %ecx
	movq	(%rax,%rcx,8), %rax
	movq	40(%rax), %rax
	movl	6364(%rax), %eax
	cmpl	-16(%rbp), %eax
	jne	.LBB89_7
# %bb.6:                                # %if.then10
	movq	dpb+8, %rax
	movl	-12(%rbp), %ecx
	movq	(%rax,%rcx,8), %rax
	movq	40(%rax), %rax
	movq	%rax, -24(%rbp)
	jmp	.LBB89_23
.LBB89_7:                               # %if.end
                                        #   in Loop: Header=BB89_1 Depth=1
	jmp	.LBB89_8
.LBB89_8:                               # %if.end14
                                        #   in Loop: Header=BB89_1 Depth=1
	jmp	.LBB89_20
.LBB89_9:                               # %if.else
                                        #   in Loop: Header=BB89_1 Depth=1
	movq	dpb+8, %rax
	movl	-12(%rbp), %ecx
	movq	(%rax,%rcx,8), %rax
	movl	4(%rax), %eax
	andl	$1, %eax
	cmpl	$0, %eax
	je	.LBB89_14
# %bb.10:                               # %if.then19
                                        #   in Loop: Header=BB89_1 Depth=1
	movq	dpb+8, %rax
	movl	-12(%rbp), %ecx
	movq	(%rax,%rcx,8), %rax
	movq	48(%rax), %rax
	cmpl	$0, 6376(%rax)
	jne	.LBB89_13
# %bb.11:                               # %land.lhs.true24
                                        #   in Loop: Header=BB89_1 Depth=1
	movq	dpb+8, %rax
	movl	-12(%rbp), %ecx
	movq	(%rax,%rcx,8), %rax
	movq	48(%rax), %rax
	movl	6364(%rax), %eax
	cmpl	-16(%rbp), %eax
	jne	.LBB89_13
# %bb.12:                               # %if.then30
	movq	dpb+8, %rax
	movl	-12(%rbp), %ecx
	movq	(%rax,%rcx,8), %rax
	movq	48(%rax), %rax
	movq	%rax, -24(%rbp)
	jmp	.LBB89_23
.LBB89_13:                              # %if.end34
                                        #   in Loop: Header=BB89_1 Depth=1
	jmp	.LBB89_14
.LBB89_14:                              # %if.end35
                                        #   in Loop: Header=BB89_1 Depth=1
	movq	dpb+8, %rax
	movl	-12(%rbp), %ecx
	movq	(%rax,%rcx,8), %rax
	movl	4(%rax), %eax
	andl	$2, %eax
	cmpl	$0, %eax
	je	.LBB89_19
# %bb.15:                               # %if.then41
                                        #   in Loop: Header=BB89_1 Depth=1
	movq	dpb+8, %rax
	movl	-12(%rbp), %ecx
	movq	(%rax,%rcx,8), %rax
	movq	56(%rax), %rax
	cmpl	$0, 6376(%rax)
	jne	.LBB89_18
# %bb.16:                               # %land.lhs.true46
                                        #   in Loop: Header=BB89_1 Depth=1
	movq	dpb+8, %rax
	movl	-12(%rbp), %ecx
	movq	(%rax,%rcx,8), %rax
	movq	56(%rax), %rax
	movl	6364(%rax), %eax
	cmpl	-16(%rbp), %eax
	jne	.LBB89_18
# %bb.17:                               # %if.then52
	movq	dpb+8, %rax
	movl	-12(%rbp), %ecx
	movq	(%rax,%rcx,8), %rax
	movq	56(%rax), %rax
	movq	%rax, -24(%rbp)
	jmp	.LBB89_23
.LBB89_18:                              # %if.end56
                                        #   in Loop: Header=BB89_1 Depth=1
	jmp	.LBB89_19
.LBB89_19:                              # %if.end57
                                        #   in Loop: Header=BB89_1 Depth=1
	jmp	.LBB89_20
.LBB89_20:                              # %if.end58
                                        #   in Loop: Header=BB89_1 Depth=1
	jmp	.LBB89_21
.LBB89_21:                              # %for.inc
                                        #   in Loop: Header=BB89_1 Depth=1
	movl	-12(%rbp), %eax
	addl	$1, %eax
	movl	%eax, -12(%rbp)
	jmp	.LBB89_1
.LBB89_22:                              # %for.end
	movq	$0, -24(%rbp)
.LBB89_23:                              # %return
	movq	-24(%rbp), %rbx
	cmpl	$886308454, -28(%rbp)   # imm = 0x34D3FE66
	jne	.LBB89_25
.LBB89_24:
	movq	%rbx, %rax
	addq	$24, %rsp
	popq	%rbx
	popq	%rbp
	.cfi_def_cfa %rsp, 8
	retq
.LBB89_25:                              # %func_exit
	.cfi_def_cfa %rbp, 16
	callq	detect_breach
	jmp	.LBB89_24
.Lfunc_end89:
	.size	get_short_term_pic.26, .Lfunc_end89-get_short_term_pic.26
	.cfi_endproc
                                        # -- End function
	.globl	reorder_ref_pic_list.27 # -- Begin function reorder_ref_pic_list.27
	.p2align	4, 0x90
	.type	reorder_ref_pic_list.27,@function
reorder_ref_pic_list.27:                # @reorder_ref_pic_list.27
	.cfi_startproc
# %bb.0:                                # %entry
	pushq	%rbp
	.cfi_def_cfa_offset 16
	.cfi_offset %rbp, -16
	movq	%rsp, %rbp
	.cfi_def_cfa_register %rbp
	subq	$96, %rsp
	movl	$651832527, -60(%rbp)   # imm = 0x26DA2CCF
	movq	%rdi, -72(%rbp)
	movq	%rsi, -80(%rbp)
	movl	%edx, -20(%rbp)
	movq	%rcx, -56(%rbp)
	movq	%r8, -32(%rbp)
	movq	%r9, -88(%rbp)
	movl	$0, -40(%rbp)
	movl	log2_max_frame_num_minus4, %ecx
	addl	$4, %ecx
                                        # kill: def $cl killed $ecx
	movl	$1, %eax
	shll	%cl, %eax
	movl	%eax, -44(%rbp)
	movq	img, %rax
	cmpl	$0, 28(%rax)
	jne	.LBB90_2
# %bb.1:                                # %if.then
	movl	-44(%rbp), %eax
	movl	%eax, -16(%rbp)
	movq	img, %rax
	movl	72464(%rax), %eax
	movl	%eax, -24(%rbp)
	jmp	.LBB90_3
.LBB90_2:                               # %if.else
	movl	-44(%rbp), %eax
	shll	$1, %eax
	movl	%eax, -16(%rbp)
	movq	img, %rax
	movl	72464(%rax), %eax
	shll	$1, %eax
	addl	$1, %eax
	movl	%eax, -24(%rbp)
.LBB90_3:                               # %if.end
	movl	-24(%rbp), %eax
	movl	%eax, -12(%rbp)
	movl	$0, -4(%rbp)
.LBB90_4:                               # %for.cond
                                        # =>This Inner Loop Header: Depth=1
	movq	-56(%rbp), %rax
	movslq	-4(%rbp), %rcx
	cmpl	$3, (%rax,%rcx,4)
	je	.LBB90_24
# %bb.5:                                # %for.body
                                        #   in Loop: Header=BB90_4 Depth=1
	movq	-56(%rbp), %rax
	movslq	-4(%rbp), %rcx
	cmpl	$3, (%rax,%rcx,4)
	jle	.LBB90_7
# %bb.6:                                # %if.then8
                                        #   in Loop: Header=BB90_4 Depth=1
	movabsq	$.L.str.12, %rdi
	movl	$500, %esi              # imm = 0x1F4
	callq	error
.LBB90_7:                               # %if.end9
                                        #   in Loop: Header=BB90_4 Depth=1
	movq	-56(%rbp), %rax
	movslq	-4(%rbp), %rcx
	cmpl	$2, (%rax,%rcx,4)
	jge	.LBB90_21
# %bb.8:                                # %if.then13
                                        #   in Loop: Header=BB90_4 Depth=1
	movq	-56(%rbp), %rax
	movslq	-4(%rbp), %rcx
	cmpl	$0, (%rax,%rcx,4)
	jne	.LBB90_13
# %bb.9:                                # %if.then17
                                        #   in Loop: Header=BB90_4 Depth=1
	movl	-12(%rbp), %eax
	movq	-32(%rbp), %rcx
	movslq	-4(%rbp), %rdx
	movl	(%rcx,%rdx,4), %ecx
	addl	$1, %ecx
	subl	%ecx, %eax
	cmpl	$0, %eax
	jge	.LBB90_11
# %bb.10:                               # %if.then22
                                        #   in Loop: Header=BB90_4 Depth=1
	movl	-12(%rbp), %eax
	movq	-32(%rbp), %rcx
	movslq	-4(%rbp), %rdx
	movl	(%rcx,%rdx,4), %ecx
	addl	$1, %ecx
	subl	%ecx, %eax
	addl	-16(%rbp), %eax
	movl	%eax, -8(%rbp)
	jmp	.LBB90_12
.LBB90_11:                              # %if.else28
                                        #   in Loop: Header=BB90_4 Depth=1
	movl	-12(%rbp), %eax
	movq	-32(%rbp), %rcx
	movslq	-4(%rbp), %rdx
	movl	(%rcx,%rdx,4), %ecx
	addl	$1, %ecx
	subl	%ecx, %eax
	movl	%eax, -8(%rbp)
.LBB90_12:                              # %if.end33
                                        #   in Loop: Header=BB90_4 Depth=1
	jmp	.LBB90_17
.LBB90_13:                              # %if.else34
                                        #   in Loop: Header=BB90_4 Depth=1
	movl	-12(%rbp), %eax
	movq	-32(%rbp), %rcx
	movslq	-4(%rbp), %rdx
	movl	(%rcx,%rdx,4), %ecx
	addl	$1, %ecx
	addl	%ecx, %eax
	cmpl	-16(%rbp), %eax
	jl	.LBB90_15
# %bb.14:                               # %if.then40
                                        #   in Loop: Header=BB90_4 Depth=1
	movl	-12(%rbp), %eax
	movq	-32(%rbp), %rcx
	movslq	-4(%rbp), %rdx
	movl	(%rcx,%rdx,4), %ecx
	addl	$1, %ecx
	addl	%ecx, %eax
	subl	-16(%rbp), %eax
	movl	%eax, -8(%rbp)
	jmp	.LBB90_16
.LBB90_15:                              # %if.else46
                                        #   in Loop: Header=BB90_4 Depth=1
	movl	-12(%rbp), %eax
	movq	-32(%rbp), %rcx
	movslq	-4(%rbp), %rdx
	movl	(%rcx,%rdx,4), %ecx
	addl	$1, %ecx
	addl	%ecx, %eax
	movl	%eax, -8(%rbp)
.LBB90_16:                              # %if.end51
                                        #   in Loop: Header=BB90_4 Depth=1
	jmp	.LBB90_17
.LBB90_17:                              # %if.end52
                                        #   in Loop: Header=BB90_4 Depth=1
	movl	-8(%rbp), %eax
	movl	%eax, -12(%rbp)
	movl	-8(%rbp), %eax
	cmpl	-24(%rbp), %eax
	jle	.LBB90_19
# %bb.18:                               # %if.then54
                                        #   in Loop: Header=BB90_4 Depth=1
	movl	-8(%rbp), %eax
	subl	-16(%rbp), %eax
	movl	%eax, -36(%rbp)
	jmp	.LBB90_20
.LBB90_19:                              # %if.else56
                                        #   in Loop: Header=BB90_4 Depth=1
	movl	-8(%rbp), %eax
	movl	%eax, -36(%rbp)
.LBB90_20:                              # %if.end57
                                        #   in Loop: Header=BB90_4 Depth=1
	movq	-72(%rbp), %rdi
	movl	-20(%rbp), %esi
	movl	-36(%rbp), %edx
	leaq	-40(%rbp), %rcx
	callq	reorder_short_term
	jmp	.LBB90_22
.LBB90_21:                              # %if.else58
                                        #   in Loop: Header=BB90_4 Depth=1
	movq	-72(%rbp), %rdi
	movl	-20(%rbp), %esi
	movq	-88(%rbp), %rax
	movslq	-4(%rbp), %rcx
	movl	(%rax,%rcx,4), %edx
	leaq	-40(%rbp), %rcx
	callq	reorder_long_term
.LBB90_22:                              # %if.end61
                                        #   in Loop: Header=BB90_4 Depth=1
	jmp	.LBB90_23
.LBB90_23:                              # %for.inc
                                        #   in Loop: Header=BB90_4 Depth=1
	movl	-4(%rbp), %eax
	addl	$1, %eax
	movl	%eax, -4(%rbp)
	jmp	.LBB90_4
.LBB90_24:                              # %for.end
	movl	-20(%rbp), %eax
	addl	$1, %eax
	movq	-80(%rbp), %rcx
	movl	%eax, (%rcx)
	cmpl	$651832527, -60(%rbp)   # imm = 0x26DA2CCF
	jne	.LBB90_26
.LBB90_25:
	addq	$96, %rsp
	popq	%rbp
	.cfi_def_cfa %rsp, 8
	retq
.LBB90_26:                              # %func_exit
	.cfi_def_cfa %rbp, 16
	callq	detect_breach
	jmp	.LBB90_25
.Lfunc_end90:
	.size	reorder_ref_pic_list.27, .Lfunc_end90-reorder_ref_pic_list.27
	.cfi_endproc
                                        # -- End function
	.p2align	4, 0x90         # -- Begin function compare_fs_by_poc_asc.28
	.type	compare_fs_by_poc_asc.28,@function
compare_fs_by_poc_asc.28:               # @compare_fs_by_poc_asc.28
	.cfi_startproc
# %bb.0:                                # %entry
	pushq	%rbp
	.cfi_def_cfa_offset 16
	.cfi_offset %rbp, -16
	movq	%rsp, %rbp
	.cfi_def_cfa_register %rbp
	pushq	%rbx
	subq	$24, %rsp
	.cfi_offset %rbx, -24
	movl	$651252935, -16(%rbp)   # imm = 0x26D154C7
	movq	%rdi, -24(%rbp)
	movq	%rsi, -32(%rbp)
	movq	-24(%rbp), %rax
	movq	(%rax), %rax
	movl	36(%rax), %eax
	movq	-32(%rbp), %rcx
	movq	(%rcx), %rcx
	cmpl	36(%rcx), %eax
	jge	.LBB91_2
# %bb.1:                                # %if.then
	movl	$-1, -12(%rbp)
	jmp	.LBB91_5
.LBB91_2:                               # %if.end
	movq	-24(%rbp), %rax
	movq	(%rax), %rax
	movl	36(%rax), %eax
	movq	-32(%rbp), %rcx
	movq	(%rcx), %rcx
	cmpl	36(%rcx), %eax
	jle	.LBB91_4
# %bb.3:                                # %if.then5
	movl	$1, -12(%rbp)
	jmp	.LBB91_5
.LBB91_4:                               # %if.else
	movl	$0, -12(%rbp)
.LBB91_5:                               # %return
	movl	-12(%rbp), %ebx
	cmpl	$651252935, -16(%rbp)   # imm = 0x26D154C7
	jne	.LBB91_7
.LBB91_6:
	movl	%ebx, %eax
	addq	$24, %rsp
	popq	%rbx
	popq	%rbp
	.cfi_def_cfa %rsp, 8
	retq
.LBB91_7:                               # %func_exit
	.cfi_def_cfa %rbp, 16
	callq	detect_breach
	jmp	.LBB91_6
.Lfunc_end91:
	.size	compare_fs_by_poc_asc.28, .Lfunc_end91-compare_fs_by_poc_asc.28
	.cfi_endproc
                                        # -- End function
	.globl	alloc_colocated.29      # -- Begin function alloc_colocated.29
	.p2align	4, 0x90
	.type	alloc_colocated.29,@function
alloc_colocated.29:                     # @alloc_colocated.29
	.cfi_startproc
# %bb.0:                                # %entry
	pushq	%rbp
	.cfi_def_cfa_offset 16
	.cfi_offset %rbp, -16
	movq	%rsp, %rbp
	.cfi_def_cfa_register %rbp
	pushq	%rbx
	subq	$24, %rsp
	.cfi_offset %rbx, -24
	movl	$1996489266, -32(%rbp)  # imm = 0x77000232
	movl	%edi, -16(%rbp)
	movl	%esi, -12(%rbp)
	movl	%edx, -28(%rbp)
	movl	$1, %edi
	movl	$4880, %esi             # imm = 0x1310
	callq	calloc
	xorl	%ecx, %ecx
	movq	%rax, -24(%rbp)
	cmpq	-24(%rbp), %rcx
	jne	.LBB92_2
# %bb.1:                                # %if.then
	movabsq	$.L.str.21, %rdi
	callq	no_mem_exit
.LBB92_2:                               # %if.end
	movl	-16(%rbp), %eax
	movq	-24(%rbp), %rcx
	movl	%eax, 4(%rcx)
	movl	-12(%rbp), %eax
	movq	-24(%rbp), %rcx
	movl	%eax, 8(%rcx)
	movq	-24(%rbp), %rdi
	addq	$1600, %rdi             # imm = 0x640
	movl	-16(%rbp), %eax
	cltd
	movl	$4, %esi
	idivl	%esi
	movl	%eax, %ecx
	movl	-12(%rbp), %eax
	cltd
	idivl	%esi
	movl	$2, %esi
	movl	%ecx, %edx
	movl	%eax, %ecx
	callq	get_mem3Dshort
	movq	-24(%rbp), %rdi
	addq	$1608, %rdi             # imm = 0x648
	movl	-16(%rbp), %eax
	cltd
	movl	$4, %esi
	idivl	%esi
	movl	%eax, %ecx
	movl	-12(%rbp), %eax
	cltd
	idivl	%esi
	movl	$2, %esi
	movl	%ecx, %edx
	movl	%eax, %ecx
	callq	get_mem3Dint64
	movq	-24(%rbp), %rdi
	addq	$1616, %rdi             # imm = 0x650
	movl	-16(%rbp), %eax
	cltd
	movl	$4, %esi
	idivl	%esi
	movl	%eax, %ecx
	movl	-12(%rbp), %eax
	cltd
	idivl	%esi
	movl	$2, %esi
	movl	%ecx, %edx
	movl	%eax, %ecx
	movl	$2, %r8d
	callq	get_mem4Dshort
	movq	-24(%rbp), %rdi
	addq	$1624, %rdi             # imm = 0x658
	movl	-16(%rbp), %eax
	cltd
	movl	$4, %ecx
	idivl	%ecx
	movl	%eax, %esi
	movl	-12(%rbp), %eax
	cltd
	idivl	%ecx
	movl	%eax, %edx
	callq	get_mem2D
	movq	-24(%rbp), %rdi
	addq	$4872, %rdi             # imm = 0x1308
	movl	-16(%rbp), %eax
	cltd
	movl	$4, %ecx
	idivl	%ecx
	movl	%eax, %esi
	movl	-12(%rbp), %eax
	cltd
	idivl	%ecx
	movl	%eax, %edx
	callq	get_mem2D
	cmpl	$0, -28(%rbp)
	je	.LBB92_4
# %bb.3:                                # %if.then17
	movq	-24(%rbp), %rdi
	addq	$3216, %rdi             # imm = 0xC90
	movl	-16(%rbp), %eax
	cltd
	movl	$4, %esi
	idivl	%esi
	movl	%eax, %ecx
	movl	-12(%rbp), %eax
	cltd
	idivl	%esi
	cltd
	movl	$2, %esi
	idivl	%esi
	movl	$2, %esi
	movl	%ecx, %edx
	movl	%eax, %ecx
	callq	get_mem3Dshort
	movq	-24(%rbp), %rdi
	addq	$3224, %rdi             # imm = 0xC98
	movl	-16(%rbp), %eax
	cltd
	movl	$4, %esi
	idivl	%esi
	movl	%eax, %ecx
	movl	-12(%rbp), %eax
	cltd
	idivl	%esi
	cltd
	movl	$2, %esi
	idivl	%esi
	movl	$2, %esi
	movl	%ecx, %edx
	movl	%eax, %ecx
	callq	get_mem3Dint64
	movq	-24(%rbp), %rdi
	addq	$3232, %rdi             # imm = 0xCA0
	movl	-16(%rbp), %eax
	cltd
	movl	$4, %esi
	idivl	%esi
	movl	%eax, %ecx
	movl	-12(%rbp), %eax
	cltd
	idivl	%esi
	cltd
	movl	$2, %esi
	idivl	%esi
	movl	$2, %esi
	movl	%ecx, %edx
	movl	%eax, %ecx
	movl	$2, %r8d
	callq	get_mem4Dshort
	movq	-24(%rbp), %rdi
	addq	$3240, %rdi             # imm = 0xCA8
	movl	-16(%rbp), %eax
	cltd
	movl	$4, %ecx
	idivl	%ecx
	movl	%eax, %esi
	movl	-12(%rbp), %eax
	cltd
	idivl	%ecx
	cltd
	movl	$2, %ecx
	idivl	%ecx
	movl	%eax, %edx
	callq	get_mem2D
	movq	-24(%rbp), %rdi
	addq	$4832, %rdi             # imm = 0x12E0
	movl	-16(%rbp), %eax
	cltd
	movl	$4, %esi
	idivl	%esi
	movl	%eax, %ecx
	movl	-12(%rbp), %eax
	cltd
	idivl	%esi
	cltd
	movl	$2, %esi
	idivl	%esi
	movl	$2, %esi
	movl	%ecx, %edx
	movl	%eax, %ecx
	callq	get_mem3Dshort
	movq	-24(%rbp), %rdi
	addq	$4840, %rdi             # imm = 0x12E8
	movl	-16(%rbp), %eax
	cltd
	movl	$4, %esi
	idivl	%esi
	movl	%eax, %ecx
	movl	-12(%rbp), %eax
	cltd
	idivl	%esi
	cltd
	movl	$2, %esi
	idivl	%esi
	movl	$2, %esi
	movl	%ecx, %edx
	movl	%eax, %ecx
	callq	get_mem3Dint64
	movq	-24(%rbp), %rdi
	addq	$4848, %rdi             # imm = 0x12F0
	movl	-16(%rbp), %eax
	cltd
	movl	$4, %esi
	idivl	%esi
	movl	%eax, %ecx
	movl	-12(%rbp), %eax
	cltd
	idivl	%esi
	cltd
	movl	$2, %esi
	idivl	%esi
	movl	$2, %esi
	movl	%ecx, %edx
	movl	%eax, %ecx
	movl	$2, %r8d
	callq	get_mem4Dshort
	movq	-24(%rbp), %rdi
	addq	$4856, %rdi             # imm = 0x12F8
	movl	-16(%rbp), %eax
	cltd
	movl	$4, %ecx
	idivl	%ecx
	movl	%eax, %esi
	movl	-12(%rbp), %eax
	cltd
	idivl	%ecx
	cltd
	movl	$2, %ecx
	idivl	%ecx
	movl	%eax, %edx
	callq	get_mem2D
.LBB92_4:                               # %if.end50
	movl	-28(%rbp), %eax
	movq	-24(%rbp), %rcx
	movl	%eax, (%rcx)
	movq	-24(%rbp), %rbx
	cmpl	$1996489266, -32(%rbp)  # imm = 0x77000232
	jne	.LBB92_6
.LBB92_5:
	movq	%rbx, %rax
	addq	$24, %rsp
	popq	%rbx
	popq	%rbp
	.cfi_def_cfa %rsp, 8
	retq
.LBB92_6:                               # %func_exit
	.cfi_def_cfa %rbp, 16
	callq	detect_breach
	jmp	.LBB92_5
.Lfunc_end92:
	.size	alloc_colocated.29, .Lfunc_end92-alloc_colocated.29
	.cfi_endproc
                                        # -- End function
	.p2align	4, 0x90         # -- Begin function is_used_for_reference.30
	.type	is_used_for_reference.30,@function
is_used_for_reference.30:               # @is_used_for_reference.30
	.cfi_startproc
# %bb.0:                                # %entry
	pushq	%rbp
	.cfi_def_cfa_offset 16
	.cfi_offset %rbp, -16
	movq	%rsp, %rbp
	.cfi_def_cfa_register %rbp
	pushq	%rbx
	subq	$24, %rsp
	.cfi_offset %rbx, -24
	movl	$110668299, -28(%rbp)   # imm = 0x698AA0B
	movq	%rdi, -24(%rbp)
	movq	-24(%rbp), %rax
	cmpl	$0, 4(%rax)
	je	.LBB93_2
# %bb.1:                                # %if.then
	movl	$1, -12(%rbp)
	jmp	.LBB93_17
.LBB93_2:                               # %if.end
	movq	-24(%rbp), %rax
	cmpl	$3, (%rax)
	jne	.LBB93_6
# %bb.3:                                # %if.then1
	movq	-24(%rbp), %rax
	movq	40(%rax), %rax
	cmpl	$0, 6380(%rax)
	je	.LBB93_5
# %bb.4:                                # %if.then3
	movl	$1, -12(%rbp)
	jmp	.LBB93_17
.LBB93_5:                               # %if.end4
	jmp	.LBB93_6
.LBB93_6:                               # %if.end5
	movq	active_sps, %rax
	cmpl	$0, 1148(%rax)
	jne	.LBB93_16
# %bb.7:                                # %if.then7
	movq	-24(%rbp), %rax
	movl	(%rax), %eax
	andl	$1, %eax
	cmpl	$0, %eax
	je	.LBB93_11
# %bb.8:                                # %if.then10
	movq	-24(%rbp), %rax
	movq	48(%rax), %rax
	cmpl	$0, 6380(%rax)
	je	.LBB93_10
# %bb.9:                                # %if.then13
	movl	$1, -12(%rbp)
	jmp	.LBB93_17
.LBB93_10:                              # %if.end14
	jmp	.LBB93_11
.LBB93_11:                              # %if.end15
	movq	-24(%rbp), %rax
	movl	(%rax), %eax
	andl	$2, %eax
	cmpl	$0, %eax
	je	.LBB93_15
# %bb.12:                               # %if.then19
	movq	-24(%rbp), %rax
	movq	56(%rax), %rax
	cmpl	$0, 6380(%rax)
	je	.LBB93_14
# %bb.13:                               # %if.then22
	movl	$1, -12(%rbp)
	jmp	.LBB93_17
.LBB93_14:                              # %if.end23
	jmp	.LBB93_15
.LBB93_15:                              # %if.end24
	jmp	.LBB93_16
.LBB93_16:                              # %if.end25
	movl	$0, -12(%rbp)
.LBB93_17:                              # %return
	movl	-12(%rbp), %ebx
	cmpl	$110668299, -28(%rbp)   # imm = 0x698AA0B
	jne	.LBB93_19
.LBB93_18:
	movl	%ebx, %eax
	addq	$24, %rsp
	popq	%rbx
	popq	%rbp
	.cfi_def_cfa %rsp, 8
	retq
.LBB93_19:                              # %func_exit
	.cfi_def_cfa %rbp, 16
	callq	detect_breach
	jmp	.LBB93_18
.Lfunc_end93:
	.size	is_used_for_reference.30, .Lfunc_end93-is_used_for_reference.30
	.cfi_endproc
                                        # -- End function
	.p2align	4, 0x90         # -- Begin function compare_fs_by_poc_desc.31
	.type	compare_fs_by_poc_desc.31,@function
compare_fs_by_poc_desc.31:              # @compare_fs_by_poc_desc.31
	.cfi_startproc
# %bb.0:                                # %entry
	pushq	%rbp
	.cfi_def_cfa_offset 16
	.cfi_offset %rbp, -16
	movq	%rsp, %rbp
	.cfi_def_cfa_register %rbp
	pushq	%rbx
	subq	$24, %rsp
	.cfi_offset %rbx, -24
	movl	$1760808917, -16(%rbp)  # imm = 0x68F3CFD5
	movq	%rdi, -32(%rbp)
	movq	%rsi, -24(%rbp)
	movq	-32(%rbp), %rax
	movq	(%rax), %rax
	movl	36(%rax), %eax
	movq	-24(%rbp), %rcx
	movq	(%rcx), %rcx
	cmpl	36(%rcx), %eax
	jge	.LBB94_2
# %bb.1:                                # %if.then
	movl	$1, -12(%rbp)
	jmp	.LBB94_5
.LBB94_2:                               # %if.end
	movq	-32(%rbp), %rax
	movq	(%rax), %rax
	movl	36(%rax), %eax
	movq	-24(%rbp), %rcx
	movq	(%rcx), %rcx
	cmpl	36(%rcx), %eax
	jle	.LBB94_4
# %bb.3:                                # %if.then5
	movl	$-1, -12(%rbp)
	jmp	.LBB94_5
.LBB94_4:                               # %if.else
	movl	$0, -12(%rbp)
.LBB94_5:                               # %return
	movl	-12(%rbp), %ebx
	cmpl	$1760808917, -16(%rbp)  # imm = 0x68F3CFD5
	jne	.LBB94_7
.LBB94_6:
	movl	%ebx, %eax
	addq	$24, %rsp
	popq	%rbx
	popq	%rbp
	.cfi_def_cfa %rsp, 8
	retq
.LBB94_7:                               # %func_exit
	.cfi_def_cfa %rbp, 16
	callq	detect_breach
	jmp	.LBB94_6
.Lfunc_end94:
	.size	compare_fs_by_poc_desc.31, .Lfunc_end94-compare_fs_by_poc_desc.31
	.cfi_endproc
                                        # -- End function
	.p2align	4, 0x90         # -- Begin function compare_fs_by_poc_asc.32
	.type	compare_fs_by_poc_asc.32,@function
compare_fs_by_poc_asc.32:               # @compare_fs_by_poc_asc.32
	.cfi_startproc
# %bb.0:                                # %entry
	pushq	%rbp
	.cfi_def_cfa_offset 16
	.cfi_offset %rbp, -16
	movq	%rsp, %rbp
	.cfi_def_cfa_register %rbp
	pushq	%rbx
	subq	$24, %rsp
	.cfi_offset %rbx, -24
	movl	$426013058, -16(%rbp)   # imm = 0x19647182
	movq	%rdi, -32(%rbp)
	movq	%rsi, -24(%rbp)
	movq	-32(%rbp), %rax
	movq	(%rax), %rax
	movl	36(%rax), %eax
	movq	-24(%rbp), %rcx
	movq	(%rcx), %rcx
	cmpl	36(%rcx), %eax
	jge	.LBB95_2
# %bb.1:                                # %if.then
	movl	$-1, -12(%rbp)
	jmp	.LBB95_5
.LBB95_2:                               # %if.end
	movq	-32(%rbp), %rax
	movq	(%rax), %rax
	movl	36(%rax), %eax
	movq	-24(%rbp), %rcx
	movq	(%rcx), %rcx
	cmpl	36(%rcx), %eax
	jle	.LBB95_4
# %bb.3:                                # %if.then5
	movl	$1, -12(%rbp)
	jmp	.LBB95_5
.LBB95_4:                               # %if.else
	movl	$0, -12(%rbp)
.LBB95_5:                               # %return
	movl	-12(%rbp), %ebx
	cmpl	$426013058, -16(%rbp)   # imm = 0x19647182
	jne	.LBB95_7
.LBB95_6:
	movl	%ebx, %eax
	addq	$24, %rsp
	popq	%rbx
	popq	%rbp
	.cfi_def_cfa %rsp, 8
	retq
.LBB95_7:                               # %func_exit
	.cfi_def_cfa %rbp, 16
	callq	detect_breach
	jmp	.LBB95_6
.Lfunc_end95:
	.size	compare_fs_by_poc_asc.32, .Lfunc_end95-compare_fs_by_poc_asc.32
	.cfi_endproc
                                        # -- End function
	.globl	dpb_split_field.33      # -- Begin function dpb_split_field.33
	.p2align	4, 0x90
	.type	dpb_split_field.33,@function
dpb_split_field.33:                     # @dpb_split_field.33
	.cfi_startproc
# %bb.0:                                # %entry
	pushq	%rbp
	.cfi_def_cfa_offset 16
	.cfi_offset %rbp, -16
	movq	%rsp, %rbp
	.cfi_def_cfa_register %rbp
	subq	$80, %rsp
	movl	$1052546597, -72(%rbp)  # imm = 0x3EBC9625
	movq	%rdi, -16(%rbp)
	movq	-16(%rbp), %rax
	movq	40(%rax), %rax
	movl	4(%rax), %eax
	movq	-16(%rbp), %rcx
	movl	%eax, 36(%rcx)
	movq	-16(%rbp), %rax
	movq	40(%rax), %rax
	cmpl	$0, 6556(%rax)
	jne	.LBB96_28
# %bb.1:                                # %if.then
	movq	-16(%rbp), %rax
	movq	40(%rax), %rax
	movl	6392(%rax), %esi
	movq	-16(%rbp), %rax
	movq	40(%rax), %rax
	movl	6396(%rax), %eax
	cltd
	movl	$2, %edi
	idivl	%edi
	movl	%eax, %r8d
	movq	-16(%rbp), %rax
	movq	40(%rax), %rax
	movl	6400(%rax), %ecx
	movq	-16(%rbp), %rax
	movq	40(%rax), %rax
	movl	6404(%rax), %eax
	cltd
	idivl	%edi
	movl	$1, %edi
	movl	%r8d, %edx
	movl	%eax, %r8d
	callq	alloc_storable_picture
	movq	-16(%rbp), %rcx
	movq	%rax, 48(%rcx)
	movq	-16(%rbp), %rax
	movq	40(%rax), %rax
	movl	6392(%rax), %esi
	movq	-16(%rbp), %rax
	movq	40(%rax), %rax
	movl	6396(%rax), %eax
	cltd
	movl	$2, %edi
	idivl	%edi
	movl	%eax, %r8d
	movq	-16(%rbp), %rax
	movq	40(%rax), %rax
	movl	6400(%rax), %ecx
	movq	-16(%rbp), %rax
	movq	40(%rax), %rax
	movl	6404(%rax), %eax
	cltd
	idivl	%edi
	movl	$2, %edi
	movl	%r8d, %edx
	movl	%eax, %r8d
	callq	alloc_storable_picture
	movq	-16(%rbp), %rcx
	movq	%rax, 56(%rcx)
	movl	$0, -4(%rbp)
.LBB96_2:                               # %for.cond
                                        # =>This Inner Loop Header: Depth=1
	movl	-4(%rbp), %ecx
	movq	-16(%rbp), %rax
	movq	40(%rax), %rax
	movl	6396(%rax), %eax
	cltd
	movl	$2, %esi
	idivl	%esi
	cmpl	%eax, %ecx
	jge	.LBB96_5
# %bb.3:                                # %for.body
                                        #   in Loop: Header=BB96_2 Depth=1
	movq	-16(%rbp), %rax
	movq	48(%rax), %rax
	movq	6424(%rax), %rax
	movslq	-4(%rbp), %rcx
	movq	(%rax,%rcx,8), %rdi
	movq	-16(%rbp), %rax
	movq	40(%rax), %rax
	movq	6424(%rax), %rax
	movl	-4(%rbp), %ecx
	shll	$1, %ecx
	movslq	%ecx, %rcx
	movq	(%rax,%rcx,8), %rsi
	movq	-16(%rbp), %rax
	movq	40(%rax), %rax
	movslq	6392(%rax), %rdx
	shlq	$1, %rdx
	callq	memcpy
# %bb.4:                                # %for.inc
                                        #   in Loop: Header=BB96_2 Depth=1
	movl	-4(%rbp), %eax
	addl	$1, %eax
	movl	%eax, -4(%rbp)
	jmp	.LBB96_2
.LBB96_5:                               # %for.end
	movl	$0, -4(%rbp)
.LBB96_6:                               # %for.cond30
                                        # =>This Inner Loop Header: Depth=1
	movl	-4(%rbp), %ecx
	movq	-16(%rbp), %rax
	movq	40(%rax), %rax
	movl	6404(%rax), %eax
	cltd
	movl	$2, %esi
	idivl	%esi
	cmpl	%eax, %ecx
	jge	.LBB96_9
# %bb.7:                                # %for.body36
                                        #   in Loop: Header=BB96_6 Depth=1
	movq	-16(%rbp), %rax
	movq	48(%rax), %rax
	movq	6464(%rax), %rax
	movq	(%rax), %rax
	movslq	-4(%rbp), %rcx
	movq	(%rax,%rcx,8), %rdi
	movq	-16(%rbp), %rax
	movq	40(%rax), %rax
	movq	6464(%rax), %rax
	movq	(%rax), %rax
	movl	-4(%rbp), %ecx
	shll	$1, %ecx
	movslq	%ecx, %rcx
	movq	(%rax,%rcx,8), %rsi
	movq	-16(%rbp), %rax
	movq	40(%rax), %rax
	movslq	6400(%rax), %rdx
	shlq	$1, %rdx
	callq	memcpy
	movq	-16(%rbp), %rax
	movq	48(%rax), %rax
	movq	6464(%rax), %rax
	movq	8(%rax), %rax
	movslq	-4(%rbp), %rcx
	movq	(%rax,%rcx,8), %rdi
	movq	-16(%rbp), %rax
	movq	40(%rax), %rax
	movq	6464(%rax), %rax
	movq	8(%rax), %rax
	movl	-4(%rbp), %ecx
	shll	$1, %ecx
	movslq	%ecx, %rcx
	movq	(%rax,%rcx,8), %rsi
	movq	-16(%rbp), %rax
	movq	40(%rax), %rax
	movslq	6400(%rax), %rdx
