	.text
	.file	"mbuffer.c"
	.globl	dump_dpb                # -- Begin function dump_dpb
	.p2align	4, 0x90
	.type	dump_dpb,@function
dump_dpb:                               # @dump_dpb
	.cfi_startproc
# %bb.0:                                # %entry
	pushq	%rbp
	.cfi_def_cfa_offset 16
	.cfi_offset %rbp, -16
	movq	%rsp, %rbp
	.cfi_def_cfa_register %rbp
	popq	%rbp
	.cfi_def_cfa %rsp, 8
	retq
.Lfunc_end0:
	.size	dump_dpb, .Lfunc_end0-dump_dpb
	.cfi_endproc
                                        # -- End function
	.globl	getDpbSize              # -- Begin function getDpbSize
	.p2align	4, 0x90
	.type	getDpbSize,@function
getDpbSize:                             # @getDpbSize
	.cfi_startproc
# %bb.0:                                # %rand_bb
	pushq	%rbp
	.cfi_def_cfa_offset 16
	.cfi_offset %rbp, -16
	movq	%rsp, %rbp
	.cfi_def_cfa_register %rbp
	callq	get_rand
	cmpl	$0, %eax
	jne	.LBB1_2
# %bb.1:                                # %func_getDpbSize.2
	callq	getDpbSize.2
	popq	%rbp
	.cfi_def_cfa %rsp, 8
	retq
.LBB1_2:                                # %func_getDpbSize.87
	.cfi_def_cfa %rbp, 16
	callq	getDpbSize.87
	popq	%rbp
	.cfi_def_cfa %rsp, 8
	retq
.Lfunc_end1:
	.size	getDpbSize, .Lfunc_end1-getDpbSize
	.cfi_endproc
                                        # -- End function
	.globl	init_dpb                # -- Begin function init_dpb
	.p2align	4, 0x90
	.type	init_dpb,@function
init_dpb:                               # @init_dpb
	.cfi_startproc
# %bb.0:                                # %rand_bb
	pushq	%rbp
	.cfi_def_cfa_offset 16
	.cfi_offset %rbp, -16
	movq	%rsp, %rbp
	.cfi_def_cfa_register %rbp
	callq	get_rand
	cmpl	$0, %eax
	jne	.LBB2_2
# %bb.1:                                # %func_init_dpb.16
	callq	init_dpb.16
	popq	%rbp
	.cfi_def_cfa %rsp, 8
	retq
.LBB2_2:                                # %func_init_dpb.90
	.cfi_def_cfa %rbp, 16
	callq	init_dpb.90
	popq	%rbp
	.cfi_def_cfa %rsp, 8
	retq
.Lfunc_end2:
	.size	init_dpb, .Lfunc_end2-init_dpb
	.cfi_endproc
                                        # -- End function
	.globl	free_dpb                # -- Begin function free_dpb
	.p2align	4, 0x90
	.type	free_dpb,@function
free_dpb:                               # @free_dpb
	.cfi_startproc
# %bb.0:                                # %entry
	pushq	%rbp
	.cfi_def_cfa_offset 16
	.cfi_offset %rbp, -16
	movq	%rsp, %rbp
	.cfi_def_cfa_register %rbp
	subq	$16, %rsp
	cmpq	$0, dpb
	je	.LBB3_6
# %bb.1:                                # %if.then
	movl	$0, -4(%rbp)
.LBB3_2:                                # %for.cond
                                        # =>This Inner Loop Header: Depth=1
	movl	-4(%rbp), %eax
	cmpl	dpb+24, %eax
	jae	.LBB3_5
# %bb.3:                                # %for.body
                                        #   in Loop: Header=BB3_2 Depth=1
	movq	dpb, %rax
	movl	-4(%rbp), %ecx
	movq	(%rax,%rcx,8), %rdi
	callq	free_frame_store
# %bb.4:                                # %for.inc
                                        #   in Loop: Header=BB3_2 Depth=1
	movl	-4(%rbp), %eax
	addl	$1, %eax
	movl	%eax, -4(%rbp)
	jmp	.LBB3_2
.LBB3_5:                                # %for.end
	movq	dpb, %rdi
	callq	free
	movq	$0, dpb
.LBB3_6:                                # %if.end
	cmpq	$0, dpb+8
	je	.LBB3_8
# %bb.7:                                # %if.then2
	movq	dpb+8, %rdi
	callq	free
.LBB3_8:                                # %if.end3
	cmpq	$0, dpb+16
	je	.LBB3_10
# %bb.9:                                # %if.then5
	movq	dpb+16, %rdi
	callq	free
.LBB3_10:                               # %if.end6
	movl	$-2147483648, dpb+40    # imm = 0x80000000
	movl	$0, -4(%rbp)
.LBB3_11:                               # %for.cond7
                                        # =>This Inner Loop Header: Depth=1
	cmpl	$6, -4(%rbp)
	jae	.LBB3_16
# %bb.12:                               # %for.body9
                                        #   in Loop: Header=BB3_11 Depth=1
	movl	-4(%rbp), %eax
	cmpq	$0, listX(,%rax,8)
	je	.LBB3_14
# %bb.13:                               # %if.then13
                                        #   in Loop: Header=BB3_11 Depth=1
	movl	-4(%rbp), %eax
	movq	listX(,%rax,8), %rdi
	callq	free
	movl	-4(%rbp), %eax
	movq	$0, listX(,%rax,8)
.LBB3_14:                               # %if.end18
                                        #   in Loop: Header=BB3_11 Depth=1
	jmp	.LBB3_15
.LBB3_15:                               # %for.inc19
                                        #   in Loop: Header=BB3_11 Depth=1
	movl	-4(%rbp), %eax
	addl	$1, %eax
	movl	%eax, -4(%rbp)
	jmp	.LBB3_11
.LBB3_16:                               # %for.end21
	movl	$0, dpb+48
	addq	$16, %rsp
	popq	%rbp
	.cfi_def_cfa %rsp, 8
	retq
.Lfunc_end3:
	.size	free_dpb, .Lfunc_end3-free_dpb
	.cfi_endproc
                                        # -- End function
	.globl	free_frame_store        # -- Begin function free_frame_store
	.p2align	4, 0x90
	.type	free_frame_store,@function
free_frame_store:                       # @free_frame_store
	.cfi_startproc
# %bb.0:                                # %entry
	pushq	%rbp
	.cfi_def_cfa_offset 16
	.cfi_offset %rbp, -16
	movq	%rsp, %rbp
	.cfi_def_cfa_register %rbp
	subq	$16, %rsp
	movq	%rdi, -8(%rbp)
	cmpq	$0, -8(%rbp)
	je	.LBB4_8
# %bb.1:                                # %if.then
	movq	-8(%rbp), %rax
	cmpq	$0, 40(%rax)
	je	.LBB4_3
# %bb.2:                                # %if.then2
	movq	-8(%rbp), %rax
	movq	40(%rax), %rdi
	callq	free_storable_picture
	movq	-8(%rbp), %rax
	movq	$0, 40(%rax)
.LBB4_3:                                # %if.end
	movq	-8(%rbp), %rax
	cmpq	$0, 48(%rax)
	je	.LBB4_5
# %bb.4:                                # %if.then6
	movq	-8(%rbp), %rax
	movq	48(%rax), %rdi
	callq	free_storable_picture
	movq	-8(%rbp), %rax
	movq	$0, 48(%rax)
.LBB4_5:                                # %if.end9
	movq	-8(%rbp), %rax
	cmpq	$0, 56(%rax)
	je	.LBB4_7
# %bb.6:                                # %if.then11
	movq	-8(%rbp), %rax
	movq	56(%rax), %rdi
	callq	free_storable_picture
	movq	-8(%rbp), %rax
	movq	$0, 56(%rax)
.LBB4_7:                                # %if.end14
	movq	-8(%rbp), %rdi
	callq	free
.LBB4_8:                                # %if.end15
	addq	$16, %rsp
	popq	%rbp
	.cfi_def_cfa %rsp, 8
	retq
.Lfunc_end4:
	.size	free_frame_store, .Lfunc_end4-free_frame_store
	.cfi_endproc
                                        # -- End function
	.globl	alloc_frame_store       # -- Begin function alloc_frame_store
	.p2align	4, 0x90
	.type	alloc_frame_store,@function
alloc_frame_store:                      # @alloc_frame_store
	.cfi_startproc
# %bb.0:                                # %entry
	pushq	%rbp
	.cfi_def_cfa_offset 16
	.cfi_offset %rbp, -16
	movq	%rsp, %rbp
	.cfi_def_cfa_register %rbp
	subq	$16, %rsp
	movl	$1, %edi
	movl	$64, %esi
	callq	calloc
	xorl	%ecx, %ecx
	movq	%rax, -8(%rbp)
	cmpq	-8(%rbp), %rcx
	jne	.LBB5_2
# %bb.1:                                # %if.then
	movabsq	$.L.str.6, %rdi
	callq	no_mem_exit
.LBB5_2:                                # %if.end
	movq	-8(%rbp), %rax
	movl	$0, (%rax)
	movq	-8(%rbp), %rax
	movl	$0, 4(%rax)
	movq	-8(%rbp), %rax
	movl	$0, 8(%rax)
	movq	-8(%rbp), %rax
	movl	$0, 12(%rax)
	movq	-8(%rbp), %rax
	movl	$0, 32(%rax)
	movq	-8(%rbp), %rax
	movq	$0, 40(%rax)
	movq	-8(%rbp), %rax
	movq	$0, 48(%rax)
	movq	-8(%rbp), %rax
	movq	$0, 56(%rax)
	movq	-8(%rbp), %rax
	addq	$16, %rsp
	popq	%rbp
	.cfi_def_cfa %rsp, 8
	retq
.Lfunc_end5:
	.size	alloc_frame_store, .Lfunc_end5-alloc_frame_store
	.cfi_endproc
                                        # -- End function
	.globl	alloc_storable_picture  # -- Begin function alloc_storable_picture
	.p2align	4, 0x90
	.type	alloc_storable_picture,@function
alloc_storable_picture:                 # @alloc_storable_picture
	.cfi_startproc
# %bb.0:                                # %rand_bb
	pushq	%rbp
	.cfi_def_cfa_offset 16
	.cfi_offset %rbp, -16
	movq	%rsp, %rbp
	.cfi_def_cfa_register %rbp
	pushq	%r15
	pushq	%r14
	pushq	%r13
	pushq	%r12
	pushq	%rbx
	pushq	%rax
	.cfi_offset %rbx, -56
	.cfi_offset %r12, -48
	.cfi_offset %r13, -40
	.cfi_offset %r14, -32
	.cfi_offset %r15, -24
	movl	%r8d, %r14d
	movl	%ecx, %r15d
	movl	%edx, %r12d
	movl	%esi, %r13d
	movl	%edi, %ebx
	callq	get_rand
	cmpl	$0, %eax
	jne	.LBB6_9
# %bb.1:                                # %func_alloc_storable_picture.9
	movl	%ebx, %edi
	movl	%r13d, %esi
	movl	%r12d, %edx
	movl	%r15d, %ecx
	movl	%r14d, %r8d
	callq	alloc_storable_picture.9
	addq	$8, %rsp
	popq	%rbx
	popq	%r12
	popq	%r13
	popq	%r14
	popq	%r15
	popq	%rbp
	.cfi_def_cfa %rsp, 8
	retq
.LBB6_2:                                # %func_alloc_storable_picture.37
	.cfi_def_cfa %rbp, 16
	movl	%ebx, %edi
	movl	%r13d, %esi
	movl	%r12d, %edx
	movl	%r15d, %ecx
	movl	%r14d, %r8d
	callq	alloc_storable_picture.37
	addq	$8, %rsp
	popq	%rbx
	popq	%r12
	popq	%r13
	popq	%r14
	popq	%r15
	popq	%rbp
	.cfi_def_cfa %rsp, 8
	retq
.LBB6_3:                                # %func_alloc_storable_picture.106
	.cfi_def_cfa %rbp, 16
	movl	%ebx, %edi
	movl	%r13d, %esi
	movl	%r12d, %edx
	movl	%r15d, %ecx
	movl	%r14d, %r8d
	callq	alloc_storable_picture.106
	addq	$8, %rsp
	popq	%rbx
	popq	%r12
	popq	%r13
	popq	%r14
	popq	%r15
	popq	%rbp
	.cfi_def_cfa %rsp, 8
	retq
.LBB6_4:                                # %func_alloc_storable_picture.110
	.cfi_def_cfa %rbp, 16
	movl	%ebx, %edi
	movl	%r13d, %esi
	movl	%r12d, %edx
	movl	%r15d, %ecx
	movl	%r14d, %r8d
	callq	alloc_storable_picture.110
	addq	$8, %rsp
	popq	%rbx
	popq	%r12
	popq	%r13
	popq	%r14
	popq	%r15
	popq	%rbp
	.cfi_def_cfa %rsp, 8
	retq
.LBB6_5:                                # %func_alloc_storable_picture.115
	.cfi_def_cfa %rbp, 16
	movl	%ebx, %edi
	movl	%r13d, %esi
	movl	%r12d, %edx
	movl	%r15d, %ecx
	movl	%r14d, %r8d
	callq	alloc_storable_picture.115
	addq	$8, %rsp
	popq	%rbx
	popq	%r12
	popq	%r13
	popq	%r14
	popq	%r15
	popq	%rbp
	.cfi_def_cfa %rsp, 8
	retq
.LBB6_6:                                # %func_alloc_storable_picture.117
	.cfi_def_cfa %rbp, 16
	movl	%ebx, %edi
	movl	%r13d, %esi
	movl	%r12d, %edx
	movl	%r15d, %ecx
	movl	%r14d, %r8d
	callq	alloc_storable_picture.117
	addq	$8, %rsp
	popq	%rbx
	popq	%r12
	popq	%r13
	popq	%r14
	popq	%r15
	popq	%rbp
	.cfi_def_cfa %rsp, 8
	retq
.LBB6_7:                                # %func_alloc_storable_picture.150
	.cfi_def_cfa %rbp, 16
	movl	%ebx, %edi
	movl	%r13d, %esi
	movl	%r12d, %edx
	movl	%r15d, %ecx
	movl	%r14d, %r8d
	callq	alloc_storable_picture.150
	addq	$8, %rsp
	popq	%rbx
	popq	%r12
	popq	%r13
	popq	%r14
	popq	%r15
	popq	%rbp
	.cfi_def_cfa %rsp, 8
	retq
.LBB6_8:                                # %func_alloc_storable_picture.179
	.cfi_def_cfa %rbp, 16
	movl	%ebx, %edi
	movl	%r13d, %esi
	movl	%r12d, %edx
	movl	%r15d, %ecx
	movl	%r14d, %r8d
	callq	alloc_storable_picture.179
	addq	$8, %rsp
	popq	%rbx
	popq	%r12
	popq	%r13
	popq	%r14
	popq	%r15
	popq	%rbp
	.cfi_def_cfa %rsp, 8
	retq
.LBB6_9:                                # %ctrl0
	.cfi_def_cfa %rbp, 16
	cmpl	$1, %eax
	je	.LBB6_2
# %bb.10:                               # %ctrl1
	cmpl	$2, %eax
	je	.LBB6_3
# %bb.11:                               # %ctrl2
	cmpl	$3, %eax
	je	.LBB6_4
# %bb.12:                               # %ctrl3
	cmpl	$4, %eax
	je	.LBB6_5
# %bb.13:                               # %ctrl4
	cmpl	$5, %eax
	je	.LBB6_6
# %bb.14:                               # %ctrl5
	cmpl	$6, %eax
	je	.LBB6_7
	jmp	.LBB6_8
.Lfunc_end6:
	.size	alloc_storable_picture, .Lfunc_end6-alloc_storable_picture
	.cfi_endproc
                                        # -- End function
	.globl	free_storable_picture   # -- Begin function free_storable_picture
	.p2align	4, 0x90
	.type	free_storable_picture,@function
free_storable_picture:                  # @free_storable_picture
	.cfi_startproc
# %bb.0:                                # %entry
	pushq	%rbp
	.cfi_def_cfa_offset 16
	.cfi_offset %rbp, -16
	movq	%rsp, %rbp
	.cfi_def_cfa_register %rbp
	subq	$16, %rsp
	movq	%rdi, -8(%rbp)
	cmpq	$0, -8(%rbp)
	je	.LBB7_32
# %bb.1:                                # %if.then
	movq	-8(%rbp), %rax
	cmpq	$0, 6480(%rax)
	je	.LBB7_3
# %bb.2:                                # %if.then2
	movq	-8(%rbp), %rax
	movq	6480(%rax), %rdi
	movl	$2, %esi
	callq	free_mem3Dshort
	movq	-8(%rbp), %rax
	movq	$0, 6480(%rax)
.LBB7_3:                                # %if.end
	movq	-8(%rbp), %rax
	cmpq	$0, 6488(%rax)
	je	.LBB7_5
# %bb.4:                                # %if.then6
	movq	-8(%rbp), %rax
	movq	6488(%rax), %rdi
	movl	$6, %esi
	callq	free_mem3Dint64
	movq	-8(%rbp), %rax
	movq	$0, 6488(%rax)
.LBB7_5:                                # %if.end9
	movq	-8(%rbp), %rax
	cmpq	$0, 6496(%rax)
	je	.LBB7_7
# %bb.6:                                # %if.then11
	movq	-8(%rbp), %rax
	movq	6496(%rax), %rdi
	movl	$6, %esi
	callq	free_mem3Dint64
	movq	-8(%rbp), %rax
	movq	$0, 6496(%rax)
.LBB7_7:                                # %if.end14
	movq	-8(%rbp), %rax
	cmpq	$0, 6504(%rax)
	je	.LBB7_9
# %bb.8:                                # %if.then16
	movq	-8(%rbp), %rax
	movq	6504(%rax), %rdi
	movq	-8(%rbp), %rax
	movl	6392(%rax), %eax
	cltd
	movl	$4, %ecx
	idivl	%ecx
	movl	$2, %esi
	movl	%eax, %edx
	callq	free_mem4Dshort
	movq	-8(%rbp), %rax
	movq	$0, 6504(%rax)
.LBB7_9:                                # %if.end19
	movq	-8(%rbp), %rax
	cmpq	$0, 6512(%rax)
	je	.LBB7_11
# %bb.10:                               # %if.then21
	movq	-8(%rbp), %rax
	movq	6512(%rax), %rdi
	callq	free_mem2D
	movq	-8(%rbp), %rax
	movq	$0, 6512(%rax)
.LBB7_11:                               # %if.end24
	movq	-8(%rbp), %rax
	cmpq	$0, 6520(%rax)
	je	.LBB7_13
# %bb.12:                               # %if.then26
	movq	-8(%rbp), %rax
	movq	6520(%rax), %rdi
	callq	free_mem2D
	movq	-8(%rbp), %rax
	movq	$0, 6520(%rax)
.LBB7_13:                               # %if.end29
	movq	-8(%rbp), %rax
	cmpq	$0, 6424(%rax)
	je	.LBB7_15
# %bb.14:                               # %if.then31
	movq	-8(%rbp), %rax
	movq	6424(%rax), %rdi
	callq	free_mem2Dpel
	movq	-8(%rbp), %rax
	movq	$0, 6424(%rax)
.LBB7_15:                               # %if.end34
	movq	-8(%rbp), %rax
	cmpq	$0, 6432(%rax)
	je	.LBB7_17
# %bb.16:                               # %if.then36
	movq	-8(%rbp), %rax
	movq	6432(%rax), %rdi
	callq	free
	movq	-8(%rbp), %rax
	movq	$0, 6432(%rax)
.LBB7_17:                               # %if.end39
	movq	-8(%rbp), %rax
	cmpq	$0, 6448(%rax)
	je	.LBB7_19
# %bb.18:                               # %if.then41
	movq	-8(%rbp), %rax
	movq	6448(%rax), %rdi
	callq	free_mem2Dpel
	movq	-8(%rbp), %rax
	movq	$0, 6448(%rax)
.LBB7_19:                               # %if.end44
	movq	-8(%rbp), %rax
	cmpq	$0, 6464(%rax)
	je	.LBB7_21
# %bb.20:                               # %if.then46
	movq	-8(%rbp), %rax
	movq	6464(%rax), %rdi
	movl	$2, %esi
	callq	free_mem3Dpel
	movq	-8(%rbp), %rax
	movq	$0, 6464(%rax)
.LBB7_21:                               # %if.end49
	movq	input, %rax
	cmpl	$0, 1284(%rax)
	jne	.LBB7_24
# %bb.22:                               # %lor.lhs.false
	movq	input, %rax
	cmpl	$0, 1288(%rax)
	jne	.LBB7_24
# %bb.23:                               # %lor.lhs.false52
	movq	input, %rax
	cmpl	$0, 60(%rax)
	je	.LBB7_29
.LBB7_24:                               # %if.then54
	movq	-8(%rbp), %rax
	cmpq	$0, 6440(%rax)
	je	.LBB7_26
# %bb.25:                               # %if.then56
	movq	-8(%rbp), %rax
	movq	6440(%rax), %rdi
	callq	free
	movq	-8(%rbp), %rax
	movq	$0, 6440(%rax)
.LBB7_26:                               # %if.end59
	movq	-8(%rbp), %rax
	cmpq	$0, 6456(%rax)
	je	.LBB7_28
# %bb.27:                               # %if.then61
	movq	-8(%rbp), %rax
	movq	6456(%rax), %rdi
	callq	free_mem2Dpel
	movq	-8(%rbp), %rax
	movq	$0, 6456(%rax)
.LBB7_28:                               # %if.end64
	jmp	.LBB7_29
.LBB7_29:                               # %if.end65
	movq	-8(%rbp), %rax
	cmpq	$0, 6472(%rax)
	je	.LBB7_31
# %bb.30:                               # %if.then67
	movq	-8(%rbp), %rax
	movq	6472(%rax), %rdi
	callq	free
	movq	-8(%rbp), %rax
	movq	$0, 6472(%rax)
.LBB7_31:                               # %if.end70
	movq	-8(%rbp), %rdi
	callq	free
	movq	$0, -8(%rbp)
.LBB7_32:                               # %if.end71
	addq	$16, %rsp
	popq	%rbp
	.cfi_def_cfa %rsp, 8
	retq
.Lfunc_end7:
	.size	free_storable_picture, .Lfunc_end7-free_storable_picture
	.cfi_endproc
                                        # -- End function
	.globl	is_short_ref            # -- Begin function is_short_ref
	.p2align	4, 0x90
	.type	is_short_ref,@function
is_short_ref:                           # @is_short_ref
	.cfi_startproc
# %bb.0:                                # %entry
	pushq	%rbp
	.cfi_def_cfa_offset 16
	.cfi_offset %rbp, -16
	movq	%rsp, %rbp
	.cfi_def_cfa_register %rbp
	xorl	%eax, %eax
	movq	%rdi, -8(%rbp)
	movq	-8(%rbp), %rcx
	cmpl	$0, 6380(%rcx)
	je	.LBB8_2
# %bb.1:                                # %land.rhs
	movq	-8(%rbp), %rax
	cmpl	$0, 6376(%rax)
	setne	%al
	xorb	$-1, %al
.LBB8_2:                                # %land.end
	andb	$1, %al
	movzbl	%al, %eax
	popq	%rbp
	.cfi_def_cfa %rsp, 8
	retq
.Lfunc_end8:
	.size	is_short_ref, .Lfunc_end8-is_short_ref
	.cfi_endproc
                                        # -- End function
	.globl	is_long_ref             # -- Begin function is_long_ref
	.p2align	4, 0x90
	.type	is_long_ref,@function
is_long_ref:                            # @is_long_ref
	.cfi_startproc
# %bb.0:                                # %entry
	pushq	%rbp
	.cfi_def_cfa_offset 16
	.cfi_offset %rbp, -16
	movq	%rsp, %rbp
	.cfi_def_cfa_register %rbp
	xorl	%eax, %eax
	movq	%rdi, -8(%rbp)
	movq	-8(%rbp), %rcx
	cmpl	$0, 6380(%rcx)
	je	.LBB9_2
# %bb.1:                                # %land.rhs
	movq	-8(%rbp), %rax
	cmpl	$0, 6376(%rax)
	setne	%al
.LBB9_2:                                # %land.end
	andb	$1, %al
	movzbl	%al, %eax
	popq	%rbp
	.cfi_def_cfa %rsp, 8
	retq
.Lfunc_end9:
	.size	is_long_ref, .Lfunc_end9-is_long_ref
	.cfi_endproc
                                        # -- End function
	.globl	init_lists              # -- Begin function init_lists
	.p2align	4, 0x90
	.type	init_lists,@function
init_lists:                             # @init_lists
	.cfi_startproc
# %bb.0:                                # %rand_bb
	pushq	%rbp
	.cfi_def_cfa_offset 16
	.cfi_offset %rbp, -16
	movq	%rsp, %rbp
	.cfi_def_cfa_register %rbp
	pushq	%r14
	pushq	%rbx
	.cfi_offset %rbx, -32
	.cfi_offset %r14, -24
	movl	%esi, %r14d
	movl	%edi, %ebx
	callq	get_rand
	cmpl	$0, %eax
	jne	.LBB10_9
# %bb.1:                                # %func_init_lists.88
	movl	%ebx, %edi
	movl	%r14d, %esi
	callq	init_lists.88
	popq	%rbx
	popq	%r14
	popq	%rbp
	.cfi_def_cfa %rsp, 8
	retq
.LBB10_2:                               # %func_init_lists.165
	.cfi_def_cfa %rbp, 16
	movl	%ebx, %edi
	movl	%r14d, %esi
	callq	init_lists.165
	popq	%rbx
	popq	%r14
	popq	%rbp
	.cfi_def_cfa %rsp, 8
	retq
.LBB10_3:                               # %func_init_lists.187
	.cfi_def_cfa %rbp, 16
	movl	%ebx, %edi
	movl	%r14d, %esi
	callq	init_lists.187
	popq	%rbx
	popq	%r14
	popq	%rbp
	.cfi_def_cfa %rsp, 8
	retq
.LBB10_4:                               # %func_init_lists.188
	.cfi_def_cfa %rbp, 16
	movl	%ebx, %edi
	movl	%r14d, %esi
	callq	init_lists.188
	popq	%rbx
	popq	%r14
	popq	%rbp
	.cfi_def_cfa %rsp, 8
	retq
.LBB10_5:                               # %func_init_lists.229
	.cfi_def_cfa %rbp, 16
	movl	%ebx, %edi
	movl	%r14d, %esi
	callq	init_lists.229
	popq	%rbx
	popq	%r14
	popq	%rbp
	.cfi_def_cfa %rsp, 8
	retq
.LBB10_6:                               # %func_init_lists.232
	.cfi_def_cfa %rbp, 16
	movl	%ebx, %edi
	movl	%r14d, %esi
	callq	init_lists.232
	popq	%rbx
	popq	%r14
	popq	%rbp
	.cfi_def_cfa %rsp, 8
	retq
.LBB10_7:                               # %func_init_lists.235
	.cfi_def_cfa %rbp, 16
	movl	%ebx, %edi
	movl	%r14d, %esi
	callq	init_lists.235
	popq	%rbx
	popq	%r14
	popq	%rbp
	.cfi_def_cfa %rsp, 8
	retq
.LBB10_8:                               # %func_init_lists.266
	.cfi_def_cfa %rbp, 16
	movl	%ebx, %edi
	movl	%r14d, %esi
	callq	init_lists.266
	popq	%rbx
	popq	%r14
	popq	%rbp
	.cfi_def_cfa %rsp, 8
	retq
.LBB10_9:                               # %ctrl0
	.cfi_def_cfa %rbp, 16
	cmpl	$1, %eax
	je	.LBB10_2
# %bb.10:                               # %ctrl1
	cmpl	$2, %eax
	je	.LBB10_3
# %bb.11:                               # %ctrl2
	cmpl	$3, %eax
	je	.LBB10_4
# %bb.12:                               # %ctrl3
	cmpl	$4, %eax
	je	.LBB10_5
# %bb.13:                               # %ctrl4
	cmpl	$5, %eax
	je	.LBB10_6
# %bb.14:                               # %ctrl5
	cmpl	$6, %eax
	je	.LBB10_7
	jmp	.LBB10_8
.Lfunc_end10:
	.size	init_lists, .Lfunc_end10-init_lists
	.cfi_endproc
                                        # -- End function
	.p2align	4, 0x90         # -- Begin function compare_pic_by_pic_num_desc
	.type	compare_pic_by_pic_num_desc,@function
compare_pic_by_pic_num_desc:            # @compare_pic_by_pic_num_desc
	.cfi_startproc
# %bb.0:                                # %rand_bb
	pushq	%rbp
	.cfi_def_cfa_offset 16
	.cfi_offset %rbp, -16
	movq	%rsp, %rbp
	.cfi_def_cfa_register %rbp
	pushq	%r14
	pushq	%rbx
	.cfi_offset %rbx, -32
	.cfi_offset %r14, -24
	movq	%rsi, %r14
	movq	%rdi, %rbx
	callq	get_rand
	cmpl	$0, %eax
	jne	.LBB11_7
# %bb.1:                                # %func_compare_pic_by_pic_num_desc.50
	movq	%rbx, %rdi
	movq	%r14, %rsi
	callq	compare_pic_by_pic_num_desc.50
	popq	%rbx
	popq	%r14
	popq	%rbp
	.cfi_def_cfa %rsp, 8
	retq
.LBB11_2:                               # %func_compare_pic_by_pic_num_desc.122
	.cfi_def_cfa %rbp, 16
	movq	%rbx, %rdi
	movq	%r14, %rsi
	callq	compare_pic_by_pic_num_desc.122
	popq	%rbx
	popq	%r14
	popq	%rbp
	.cfi_def_cfa %rsp, 8
	retq
.LBB11_3:                               # %func_compare_pic_by_pic_num_desc.158
	.cfi_def_cfa %rbp, 16
	movq	%rbx, %rdi
	movq	%r14, %rsi
	callq	compare_pic_by_pic_num_desc.158
	popq	%rbx
	popq	%r14
	popq	%rbp
	.cfi_def_cfa %rsp, 8
	retq
.LBB11_4:                               # %func_compare_pic_by_pic_num_desc.172
	.cfi_def_cfa %rbp, 16
	movq	%rbx, %rdi
	movq	%r14, %rsi
	callq	compare_pic_by_pic_num_desc.172
	popq	%rbx
	popq	%r14
	popq	%rbp
	.cfi_def_cfa %rsp, 8
	retq
.LBB11_5:                               # %func_compare_pic_by_pic_num_desc.173
	.cfi_def_cfa %rbp, 16
	movq	%rbx, %rdi
	movq	%r14, %rsi
	callq	compare_pic_by_pic_num_desc.173
	popq	%rbx
	popq	%r14
	popq	%rbp
	.cfi_def_cfa %rsp, 8
	retq
.LBB11_6:                               # %func_compare_pic_by_pic_num_desc.194
	.cfi_def_cfa %rbp, 16
	movq	%rbx, %rdi
	movq	%r14, %rsi
	callq	compare_pic_by_pic_num_desc.194
	popq	%rbx
	popq	%r14
	popq	%rbp
	.cfi_def_cfa %rsp, 8
	retq
.LBB11_7:                               # %ctrl0
	.cfi_def_cfa %rbp, 16
	cmpl	$1, %eax
	je	.LBB11_2
# %bb.8:                                # %ctrl1
	cmpl	$2, %eax
	je	.LBB11_3
# %bb.9:                                # %ctrl2
	cmpl	$3, %eax
	je	.LBB11_4
# %bb.10:                               # %ctrl3
	cmpl	$4, %eax
	je	.LBB11_5
	jmp	.LBB11_6
.Lfunc_end11:
	.size	compare_pic_by_pic_num_desc, .Lfunc_end11-compare_pic_by_pic_num_desc
	.cfi_endproc
                                        # -- End function
	.p2align	4, 0x90         # -- Begin function compare_pic_by_lt_pic_num_asc
	.type	compare_pic_by_lt_pic_num_asc,@function
compare_pic_by_lt_pic_num_asc:          # @compare_pic_by_lt_pic_num_asc
	.cfi_startproc
# %bb.0:                                # %rand_bb
	pushq	%rbp
	.cfi_def_cfa_offset 16
	.cfi_offset %rbp, -16
	movq	%rsp, %rbp
	.cfi_def_cfa_register %rbp
	pushq	%r14
	pushq	%rbx
	.cfi_offset %rbx, -32
	.cfi_offset %r14, -24
	movq	%rsi, %r14
	movq	%rdi, %rbx
	callq	get_rand
	cmpl	$0, %eax
	jne	.LBB12_7
# %bb.1:                                # %func_compare_pic_by_lt_pic_num_asc.39
	movq	%rbx, %rdi
	movq	%r14, %rsi
	callq	compare_pic_by_lt_pic_num_asc.39
	popq	%rbx
	popq	%r14
	popq	%rbp
	.cfi_def_cfa %rsp, 8
	retq
.LBB12_2:                               # %func_compare_pic_by_lt_pic_num_asc.63
	.cfi_def_cfa %rbp, 16
	movq	%rbx, %rdi
	movq	%r14, %rsi
	callq	compare_pic_by_lt_pic_num_asc.63
	popq	%rbx
	popq	%r14
	popq	%rbp
	.cfi_def_cfa %rsp, 8
	retq
.LBB12_3:                               # %func_compare_pic_by_lt_pic_num_asc.95
	.cfi_def_cfa %rbp, 16
	movq	%rbx, %rdi
	movq	%r14, %rsi
	callq	compare_pic_by_lt_pic_num_asc.95
	popq	%rbx
	popq	%r14
	popq	%rbp
	.cfi_def_cfa %rsp, 8
	retq
.LBB12_4:                               # %func_compare_pic_by_lt_pic_num_asc.131
	.cfi_def_cfa %rbp, 16
	movq	%rbx, %rdi
	movq	%r14, %rsi
	callq	compare_pic_by_lt_pic_num_asc.131
	popq	%rbx
	popq	%r14
	popq	%rbp
	.cfi_def_cfa %rsp, 8
	retq
.LBB12_5:                               # %func_compare_pic_by_lt_pic_num_asc.139
	.cfi_def_cfa %rbp, 16
	movq	%rbx, %rdi
	movq	%r14, %rsi
	callq	compare_pic_by_lt_pic_num_asc.139
	popq	%rbx
	popq	%r14
	popq	%rbp
	.cfi_def_cfa %rsp, 8
	retq
.LBB12_6:                               # %func_compare_pic_by_lt_pic_num_asc.168
	.cfi_def_cfa %rbp, 16
	movq	%rbx, %rdi
	movq	%r14, %rsi
	callq	compare_pic_by_lt_pic_num_asc.168
	popq	%rbx
	popq	%r14
	popq	%rbp
	.cfi_def_cfa %rsp, 8
	retq
.LBB12_7:                               # %ctrl0
	.cfi_def_cfa %rbp, 16
	cmpl	$1, %eax
	je	.LBB12_2
# %bb.8:                                # %ctrl1
	cmpl	$2, %eax
	je	.LBB12_3
# %bb.9:                                # %ctrl2
	cmpl	$3, %eax
	je	.LBB12_4
# %bb.10:                               # %ctrl3
	cmpl	$4, %eax
	je	.LBB12_5
	jmp	.LBB12_6
.Lfunc_end12:
	.size	compare_pic_by_lt_pic_num_asc, .Lfunc_end12-compare_pic_by_lt_pic_num_asc
	.cfi_endproc
                                        # -- End function
	.p2align	4, 0x90         # -- Begin function compare_fs_by_frame_num_desc
	.type	compare_fs_by_frame_num_desc,@function
compare_fs_by_frame_num_desc:           # @compare_fs_by_frame_num_desc
	.cfi_startproc
# %bb.0:                                # %rand_bb
	pushq	%rbp
	.cfi_def_cfa_offset 16
	.cfi_offset %rbp, -16
	movq	%rsp, %rbp
	.cfi_def_cfa_register %rbp
	pushq	%r14
	pushq	%rbx
	.cfi_offset %rbx, -32
	.cfi_offset %r14, -24
	movq	%rsi, %r14
	movq	%rdi, %rbx
	callq	get_rand
	cmpl	$0, %eax
	jne	.LBB13_7
# %bb.1:                                # %func_compare_fs_by_frame_num_desc.40
	movq	%rbx, %rdi
	movq	%r14, %rsi
	callq	compare_fs_by_frame_num_desc.40
	popq	%rbx
	popq	%r14
	popq	%rbp
	.cfi_def_cfa %rsp, 8
	retq
.LBB13_2:                               # %func_compare_fs_by_frame_num_desc.116
	.cfi_def_cfa %rbp, 16
	movq	%rbx, %rdi
	movq	%r14, %rsi
	callq	compare_fs_by_frame_num_desc.116
	popq	%rbx
	popq	%r14
	popq	%rbp
	.cfi_def_cfa %rsp, 8
	retq
.LBB13_3:                               # %func_compare_fs_by_frame_num_desc.156
	.cfi_def_cfa %rbp, 16
	movq	%rbx, %rdi
	movq	%r14, %rsi
	callq	compare_fs_by_frame_num_desc.156
	popq	%rbx
	popq	%r14
	popq	%rbp
	.cfi_def_cfa %rsp, 8
	retq
.LBB13_4:                               # %func_compare_fs_by_frame_num_desc.184
	.cfi_def_cfa %rbp, 16
	movq	%rbx, %rdi
	movq	%r14, %rsi
	callq	compare_fs_by_frame_num_desc.184
	popq	%rbx
	popq	%r14
	popq	%rbp
	.cfi_def_cfa %rsp, 8
	retq
.LBB13_5:                               # %func_compare_fs_by_frame_num_desc.209
	.cfi_def_cfa %rbp, 16
	movq	%rbx, %rdi
	movq	%r14, %rsi
	callq	compare_fs_by_frame_num_desc.209
	popq	%rbx
	popq	%r14
	popq	%rbp
	.cfi_def_cfa %rsp, 8
	retq
.LBB13_6:                               # %func_compare_fs_by_frame_num_desc.214
	.cfi_def_cfa %rbp, 16
	movq	%rbx, %rdi
	movq	%r14, %rsi
	callq	compare_fs_by_frame_num_desc.214
	popq	%rbx
	popq	%r14
	popq	%rbp
	.cfi_def_cfa %rsp, 8
	retq
.LBB13_7:                               # %ctrl0
	.cfi_def_cfa %rbp, 16
	cmpl	$1, %eax
	je	.LBB13_2
# %bb.8:                                # %ctrl1
	cmpl	$2, %eax
	je	.LBB13_3
# %bb.9:                                # %ctrl2
	cmpl	$3, %eax
	je	.LBB13_4
# %bb.10:                               # %ctrl3
	cmpl	$4, %eax
	je	.LBB13_5
	jmp	.LBB13_6
.Lfunc_end13:
	.size	compare_fs_by_frame_num_desc, .Lfunc_end13-compare_fs_by_frame_num_desc
	.cfi_endproc
                                        # -- End function
	.p2align	4, 0x90         # -- Begin function gen_pic_list_from_frame_list
	.type	gen_pic_list_from_frame_list,@function
gen_pic_list_from_frame_list:           # @gen_pic_list_from_frame_list
	.cfi_startproc
# %bb.0:                                # %rand_bb
	pushq	%rbp
	.cfi_def_cfa_offset 16
	.cfi_offset %rbp, -16
	movq	%rsp, %rbp
	.cfi_def_cfa_register %rbp
	pushq	%r15
	pushq	%r14
	pushq	%r13
	pushq	%r12
	pushq	%rbx
	pushq	%rax
	.cfi_offset %rbx, -56
	.cfi_offset %r12, -48
	.cfi_offset %r13, -40
	.cfi_offset %r14, -32
	.cfi_offset %r15, -24
	movl	%r9d, -44(%rbp)         # 4-byte Spill
	movq	%r8, %r12
	movq	%rcx, %r13
	movl	%edx, %ebx
	movq	%rsi, %r14
	movl	%edi, %r15d
	callq	get_rand
	cmpl	$0, %eax
	jne	.LBB14_9
# %bb.1:                                # %func_gen_pic_list_from_frame_list.19
	movl	%r15d, %edi
	movq	%r14, %rsi
	movl	%ebx, %edx
	movq	%r13, %rcx
	movq	%r12, %r8
	movl	-44(%rbp), %r9d         # 4-byte Reload
	callq	gen_pic_list_from_frame_list.19
	addq	$8, %rsp
	popq	%rbx
	popq	%r12
	popq	%r13
	popq	%r14
	popq	%r15
	popq	%rbp
	.cfi_def_cfa %rsp, 8
	retq
.LBB14_2:                               # %func_gen_pic_list_from_frame_list.30
	.cfi_def_cfa %rbp, 16
	movl	%r15d, %edi
	movq	%r14, %rsi
	movl	%ebx, %edx
	movq	%r13, %rcx
	movq	%r12, %r8
	callq	gen_pic_list_from_frame_list.30
	addq	$8, %rsp
	popq	%rbx
	popq	%r12
	popq	%r13
	popq	%r14
	popq	%r15
	popq	%rbp
	.cfi_def_cfa %rsp, 8
	retq
.LBB14_3:                               # %func_gen_pic_list_from_frame_list.31
	.cfi_def_cfa %rbp, 16
	movl	%r15d, %edi
	movq	%r14, %rsi
	movl	%ebx, %edx
	movq	%r13, %rcx
	movq	%r12, %r8
	callq	gen_pic_list_from_frame_list.31
	addq	$8, %rsp
	popq	%rbx
	popq	%r12
	popq	%r13
	popq	%r14
	popq	%r15
	popq	%rbp
	.cfi_def_cfa %rsp, 8
	retq
.LBB14_4:                               # %func_gen_pic_list_from_frame_list.84
	.cfi_def_cfa %rbp, 16
	movl	%r15d, %edi
	movq	%r14, %rsi
	movl	%ebx, %edx
	movq	%r13, %rcx
	movq	%r12, %r8
	callq	gen_pic_list_from_frame_list.84
	addq	$8, %rsp
	popq	%rbx
	popq	%r12
	popq	%r13
	popq	%r14
	popq	%r15
	popq	%rbp
	.cfi_def_cfa %rsp, 8
	retq
.LBB14_5:                               # %func_gen_pic_list_from_frame_list.133
	.cfi_def_cfa %rbp, 16
	movl	%r15d, %edi
	movq	%r14, %rsi
	movl	%ebx, %edx
	movq	%r13, %rcx
	movq	%r12, %r8
	callq	gen_pic_list_from_frame_list.133
	addq	$8, %rsp
	popq	%rbx
	popq	%r12
	popq	%r13
	popq	%r14
	popq	%r15
	popq	%rbp
	.cfi_def_cfa %rsp, 8
	retq
.LBB14_6:                               # %func_gen_pic_list_from_frame_list.154
	.cfi_def_cfa %rbp, 16
	movl	%r15d, %edi
	movq	%r14, %rsi
	movl	%ebx, %edx
	movq	%r13, %rcx
	movq	%r12, %r8
	callq	gen_pic_list_from_frame_list.154
	addq	$8, %rsp
	popq	%rbx
	popq	%r12
	popq	%r13
	popq	%r14
	popq	%r15
	popq	%rbp
	.cfi_def_cfa %rsp, 8
	retq
.LBB14_7:                               # %func_gen_pic_list_from_frame_list.155
	.cfi_def_cfa %rbp, 16
	callq	gen_pic_list_from_frame_list.155
	addq	$8, %rsp
	popq	%rbx
	popq	%r12
	popq	%r13
	popq	%r14
	popq	%r15
	popq	%rbp
	.cfi_def_cfa %rsp, 8
	retq
.LBB14_8:                               # %func_gen_pic_list_from_frame_list.227
	.cfi_def_cfa %rbp, 16
	callq	gen_pic_list_from_frame_list.227
	addq	$8, %rsp
	popq	%rbx
	popq	%r12
	popq	%r13
	popq	%r14
	popq	%r15
	popq	%rbp
	.cfi_def_cfa %rsp, 8
	retq
.LBB14_9:                               # %ctrl0
	.cfi_def_cfa %rbp, 16
	movl	-44(%rbp), %r9d         # 4-byte Reload
	cmpl	$1, %eax
	je	.LBB14_2
# %bb.10:                               # %ctrl1
	cmpl	$2, %eax
	je	.LBB14_3
# %bb.11:                               # %ctrl2
	cmpl	$3, %eax
	je	.LBB14_4
# %bb.12:                               # %ctrl3
	cmpl	$4, %eax
	je	.LBB14_5
# %bb.13:                               # %ctrl4
	cmpl	$5, %eax
	je	.LBB14_6
# %bb.14:                               # %ctrl5
	cmpl	$6, %eax
	movq	%r12, %r8
	movq	%r13, %rcx
	movl	%ebx, %edx
	movq	%r14, %rsi
	movl	%r15d, %edi
	je	.LBB14_7
	jmp	.LBB14_8
.Lfunc_end14:
	.size	gen_pic_list_from_frame_list, .Lfunc_end14-gen_pic_list_from_frame_list
	.cfi_endproc
                                        # -- End function
	.p2align	4, 0x90         # -- Begin function compare_fs_by_lt_pic_idx_asc
	.type	compare_fs_by_lt_pic_idx_asc,@function
compare_fs_by_lt_pic_idx_asc:           # @compare_fs_by_lt_pic_idx_asc
	.cfi_startproc
# %bb.0:                                # %rand_bb
	pushq	%rbp
	.cfi_def_cfa_offset 16
	.cfi_offset %rbp, -16
	movq	%rsp, %rbp
	.cfi_def_cfa_register %rbp
	pushq	%r14
	pushq	%rbx
	.cfi_offset %rbx, -32
	.cfi_offset %r14, -24
	movq	%rsi, %r14
	movq	%rdi, %rbx
	callq	get_rand
	cmpl	$0, %eax
	jne	.LBB15_7
# %bb.1:                                # %func_compare_fs_by_lt_pic_idx_asc.76
	movq	%rbx, %rdi
	movq	%r14, %rsi
	callq	compare_fs_by_lt_pic_idx_asc.76
	popq	%rbx
	popq	%r14
	popq	%rbp
	.cfi_def_cfa %rsp, 8
	retq
.LBB15_2:                               # %func_compare_fs_by_lt_pic_idx_asc.183
	.cfi_def_cfa %rbp, 16
	movq	%rbx, %rdi
	movq	%r14, %rsi
	callq	compare_fs_by_lt_pic_idx_asc.183
	popq	%rbx
	popq	%r14
	popq	%rbp
	.cfi_def_cfa %rsp, 8
	retq
.LBB15_3:                               # %func_compare_fs_by_lt_pic_idx_asc.200
	.cfi_def_cfa %rbp, 16
	movq	%rbx, %rdi
	movq	%r14, %rsi
	callq	compare_fs_by_lt_pic_idx_asc.200
	popq	%rbx
	popq	%r14
	popq	%rbp
	.cfi_def_cfa %rsp, 8
	retq
.LBB15_4:                               # %func_compare_fs_by_lt_pic_idx_asc.201
	.cfi_def_cfa %rbp, 16
	movq	%rbx, %rdi
	movq	%r14, %rsi
	callq	compare_fs_by_lt_pic_idx_asc.201
	popq	%rbx
	popq	%r14
	popq	%rbp
	.cfi_def_cfa %rsp, 8
	retq
.LBB15_5:                               # %func_compare_fs_by_lt_pic_idx_asc.206
	.cfi_def_cfa %rbp, 16
	movq	%rbx, %rdi
	movq	%r14, %rsi
	callq	compare_fs_by_lt_pic_idx_asc.206
	popq	%rbx
	popq	%r14
	popq	%rbp
	.cfi_def_cfa %rsp, 8
	retq
.LBB15_6:                               # %func_compare_fs_by_lt_pic_idx_asc.213
	.cfi_def_cfa %rbp, 16
	movq	%rbx, %rdi
	movq	%r14, %rsi
	callq	compare_fs_by_lt_pic_idx_asc.213
	popq	%rbx
	popq	%r14
	popq	%rbp
	.cfi_def_cfa %rsp, 8
	retq
.LBB15_7:                               # %ctrl0
	.cfi_def_cfa %rbp, 16
	cmpl	$1, %eax
	je	.LBB15_2
# %bb.8:                                # %ctrl1
	cmpl	$2, %eax
	je	.LBB15_3
# %bb.9:                                # %ctrl2
	cmpl	$3, %eax
	je	.LBB15_4
# %bb.10:                               # %ctrl3
	cmpl	$4, %eax
	je	.LBB15_5
	jmp	.LBB15_6
.Lfunc_end15:
	.size	compare_fs_by_lt_pic_idx_asc, .Lfunc_end15-compare_fs_by_lt_pic_idx_asc
	.cfi_endproc
                                        # -- End function
	.p2align	4, 0x90         # -- Begin function compare_pic_by_poc_desc
	.type	compare_pic_by_poc_desc,@function
compare_pic_by_poc_desc:                # @compare_pic_by_poc_desc
	.cfi_startproc
# %bb.0:                                # %rand_bb
	pushq	%rbp
	.cfi_def_cfa_offset 16
	.cfi_offset %rbp, -16
	movq	%rsp, %rbp
	.cfi_def_cfa_register %rbp
	pushq	%r14
	pushq	%rbx
	.cfi_offset %rbx, -32
	.cfi_offset %r14, -24
	movq	%rsi, %r14
	movq	%rdi, %rbx
	callq	get_rand
	cmpl	$0, %eax
	jne	.LBB16_7
# %bb.1:                                # %func_compare_pic_by_poc_desc.33
	movq	%rbx, %rdi
	movq	%r14, %rsi
	callq	compare_pic_by_poc_desc.33
	popq	%rbx
	popq	%r14
	popq	%rbp
	.cfi_def_cfa %rsp, 8
	retq
.LBB16_2:                               # %func_compare_pic_by_poc_desc.54
	.cfi_def_cfa %rbp, 16
	movq	%rbx, %rdi
	movq	%r14, %rsi
	callq	compare_pic_by_poc_desc.54
	popq	%rbx
	popq	%r14
	popq	%rbp
	.cfi_def_cfa %rsp, 8
	retq
.LBB16_3:                               # %func_compare_pic_by_poc_desc.91
	.cfi_def_cfa %rbp, 16
	movq	%rbx, %rdi
	movq	%r14, %rsi
	callq	compare_pic_by_poc_desc.91
	popq	%rbx
	popq	%r14
	popq	%rbp
	.cfi_def_cfa %rsp, 8
	retq
.LBB16_4:                               # %func_compare_pic_by_poc_desc.108
	.cfi_def_cfa %rbp, 16
	movq	%rbx, %rdi
	movq	%r14, %rsi
	callq	compare_pic_by_poc_desc.108
	popq	%rbx
	popq	%r14
	popq	%rbp
	.cfi_def_cfa %rsp, 8
	retq
.LBB16_5:                               # %func_compare_pic_by_poc_desc.111
	.cfi_def_cfa %rbp, 16
	movq	%rbx, %rdi
	movq	%r14, %rsi
	callq	compare_pic_by_poc_desc.111
	popq	%rbx
	popq	%r14
	popq	%rbp
	.cfi_def_cfa %rsp, 8
	retq
.LBB16_6:                               # %func_compare_pic_by_poc_desc.193
	.cfi_def_cfa %rbp, 16
	movq	%rbx, %rdi
	movq	%r14, %rsi
	callq	compare_pic_by_poc_desc.193
	popq	%rbx
	popq	%r14
	popq	%rbp
	.cfi_def_cfa %rsp, 8
	retq
.LBB16_7:                               # %ctrl0
	.cfi_def_cfa %rbp, 16
	cmpl	$1, %eax
	je	.LBB16_2
# %bb.8:                                # %ctrl1
	cmpl	$2, %eax
	je	.LBB16_3
# %bb.9:                                # %ctrl2
	cmpl	$3, %eax
	je	.LBB16_4
# %bb.10:                               # %ctrl3
	cmpl	$4, %eax
	je	.LBB16_5
	jmp	.LBB16_6
.Lfunc_end16:
	.size	compare_pic_by_poc_desc, .Lfunc_end16-compare_pic_by_poc_desc
	.cfi_endproc
                                        # -- End function
	.p2align	4, 0x90         # -- Begin function compare_pic_by_poc_asc
	.type	compare_pic_by_poc_asc,@function
compare_pic_by_poc_asc:                 # @compare_pic_by_poc_asc
	.cfi_startproc
# %bb.0:                                # %rand_bb
	pushq	%rbp
	.cfi_def_cfa_offset 16
	.cfi_offset %rbp, -16
	movq	%rsp, %rbp
	.cfi_def_cfa_register %rbp
	pushq	%r14
	pushq	%rbx
	.cfi_offset %rbx, -32
	.cfi_offset %r14, -24
	movq	%rsi, %r14
	movq	%rdi, %rbx
	callq	get_rand
	cmpl	$0, %eax
	jne	.LBB17_7
# %bb.1:                                # %func_compare_pic_by_poc_asc.20
	movq	%rbx, %rdi
	movq	%r14, %rsi
	callq	compare_pic_by_poc_asc.20
	popq	%rbx
	popq	%r14
	popq	%rbp
	.cfi_def_cfa %rsp, 8
	retq
.LBB17_2:                               # %func_compare_pic_by_poc_asc.83
	.cfi_def_cfa %rbp, 16
	movq	%rbx, %rdi
	movq	%r14, %rsi
	callq	compare_pic_by_poc_asc.83
	popq	%rbx
	popq	%r14
	popq	%rbp
	.cfi_def_cfa %rsp, 8
	retq
.LBB17_3:                               # %func_compare_pic_by_poc_asc.162
	.cfi_def_cfa %rbp, 16
	movq	%rbx, %rdi
	movq	%r14, %rsi
	callq	compare_pic_by_poc_asc.162
	popq	%rbx
	popq	%r14
	popq	%rbp
	.cfi_def_cfa %rsp, 8
	retq
.LBB17_4:                               # %func_compare_pic_by_poc_asc.219
	.cfi_def_cfa %rbp, 16
	movq	%rbx, %rdi
	movq	%r14, %rsi
	callq	compare_pic_by_poc_asc.219
	popq	%rbx
	popq	%r14
	popq	%rbp
	.cfi_def_cfa %rsp, 8
	retq
.LBB17_5:                               # %func_compare_pic_by_poc_asc.230
	.cfi_def_cfa %rbp, 16
	movq	%rbx, %rdi
	movq	%r14, %rsi
	callq	compare_pic_by_poc_asc.230
	popq	%rbx
	popq	%r14
	popq	%rbp
	.cfi_def_cfa %rsp, 8
	retq
.LBB17_6:                               # %func_compare_pic_by_poc_asc.237
	.cfi_def_cfa %rbp, 16
	movq	%rbx, %rdi
	movq	%r14, %rsi
	callq	compare_pic_by_poc_asc.237
	popq	%rbx
	popq	%r14
	popq	%rbp
	.cfi_def_cfa %rsp, 8
	retq
.LBB17_7:                               # %ctrl0
	.cfi_def_cfa %rbp, 16
	cmpl	$1, %eax
	je	.LBB17_2
# %bb.8:                                # %ctrl1
	cmpl	$2, %eax
	je	.LBB17_3
# %bb.9:                                # %ctrl2
	cmpl	$3, %eax
	je	.LBB17_4
# %bb.10:                               # %ctrl3
	cmpl	$4, %eax
	je	.LBB17_5
	jmp	.LBB17_6
.Lfunc_end17:
	.size	compare_pic_by_poc_asc, .Lfunc_end17-compare_pic_by_poc_asc
	.cfi_endproc
                                        # -- End function
	.p2align	4, 0x90         # -- Begin function compare_fs_by_poc_desc
	.type	compare_fs_by_poc_desc,@function
compare_fs_by_poc_desc:                 # @compare_fs_by_poc_desc
	.cfi_startproc
# %bb.0:                                # %rand_bb
	pushq	%rbp
	.cfi_def_cfa_offset 16
	.cfi_offset %rbp, -16
	movq	%rsp, %rbp
	.cfi_def_cfa_register %rbp
	pushq	%r14
	pushq	%rbx
	.cfi_offset %rbx, -32
	.cfi_offset %r14, -24
	movq	%rsi, %r14
	movq	%rdi, %rbx
	callq	get_rand
	cmpl	$0, %eax
	jne	.LBB18_7
# %bb.1:                                # %func_compare_fs_by_poc_desc.104
	movq	%rbx, %rdi
	movq	%r14, %rsi
	callq	compare_fs_by_poc_desc.104
	popq	%rbx
	popq	%r14
	popq	%rbp
	.cfi_def_cfa %rsp, 8
	retq
.LBB18_2:                               # %func_compare_fs_by_poc_desc.119
	.cfi_def_cfa %rbp, 16
	movq	%rbx, %rdi
	movq	%r14, %rsi
	callq	compare_fs_by_poc_desc.119
	popq	%rbx
	popq	%r14
	popq	%rbp
	.cfi_def_cfa %rsp, 8
	retq
.LBB18_3:                               # %func_compare_fs_by_poc_desc.146
	.cfi_def_cfa %rbp, 16
	movq	%rbx, %rdi
	movq	%r14, %rsi
	callq	compare_fs_by_poc_desc.146
	popq	%rbx
	popq	%r14
	popq	%rbp
	.cfi_def_cfa %rsp, 8
	retq
.LBB18_4:                               # %func_compare_fs_by_poc_desc.149
	.cfi_def_cfa %rbp, 16
	movq	%rbx, %rdi
	movq	%r14, %rsi
	callq	compare_fs_by_poc_desc.149
	popq	%rbx
	popq	%r14
	popq	%rbp
	.cfi_def_cfa %rsp, 8
	retq
.LBB18_5:                               # %func_compare_fs_by_poc_desc.163
	.cfi_def_cfa %rbp, 16
	movq	%rbx, %rdi
	movq	%r14, %rsi
	callq	compare_fs_by_poc_desc.163
	popq	%rbx
	popq	%r14
	popq	%rbp
	.cfi_def_cfa %rsp, 8
	retq
.LBB18_6:                               # %func_compare_fs_by_poc_desc.177
	.cfi_def_cfa %rbp, 16
	movq	%rbx, %rdi
	movq	%r14, %rsi
	callq	compare_fs_by_poc_desc.177
	popq	%rbx
	popq	%r14
	popq	%rbp
	.cfi_def_cfa %rsp, 8
	retq
.LBB18_7:                               # %ctrl0
	.cfi_def_cfa %rbp, 16
	cmpl	$1, %eax
	je	.LBB18_2
# %bb.8:                                # %ctrl1
	cmpl	$2, %eax
	je	.LBB18_3
# %bb.9:                                # %ctrl2
	cmpl	$3, %eax
	je	.LBB18_4
# %bb.10:                               # %ctrl3
	cmpl	$4, %eax
	je	.LBB18_5
	jmp	.LBB18_6
.Lfunc_end18:
	.size	compare_fs_by_poc_desc, .Lfunc_end18-compare_fs_by_poc_desc
	.cfi_endproc
                                        # -- End function
	.p2align	4, 0x90         # -- Begin function compare_fs_by_poc_asc
	.type	compare_fs_by_poc_asc,@function
compare_fs_by_poc_asc:                  # @compare_fs_by_poc_asc
	.cfi_startproc
# %bb.0:                                # %rand_bb
	pushq	%rbp
	.cfi_def_cfa_offset 16
	.cfi_offset %rbp, -16
	movq	%rsp, %rbp
	.cfi_def_cfa_register %rbp
	pushq	%r14
	pushq	%rbx
	.cfi_offset %rbx, -32
	.cfi_offset %r14, -24
	movq	%rsi, %r14
	movq	%rdi, %rbx
	callq	get_rand
	cmpl	$0, %eax
	jne	.LBB19_7
# %bb.1:                                # %func_compare_fs_by_poc_asc.35
	movq	%rbx, %rdi
	movq	%r14, %rsi
	callq	compare_fs_by_poc_asc.35
	popq	%rbx
	popq	%r14
	popq	%rbp
	.cfi_def_cfa %rsp, 8
	retq
.LBB19_2:                               # %func_compare_fs_by_poc_asc.45
	.cfi_def_cfa %rbp, 16
	movq	%rbx, %rdi
	movq	%r14, %rsi
	callq	compare_fs_by_poc_asc.45
	popq	%rbx
	popq	%r14
	popq	%rbp
	.cfi_def_cfa %rsp, 8
	retq
.LBB19_3:                               # %func_compare_fs_by_poc_asc.100
	.cfi_def_cfa %rbp, 16
	movq	%rbx, %rdi
	movq	%r14, %rsi
	callq	compare_fs_by_poc_asc.100
	popq	%rbx
	popq	%r14
	popq	%rbp
	.cfi_def_cfa %rsp, 8
	retq
.LBB19_4:                               # %func_compare_fs_by_poc_asc.107
	.cfi_def_cfa %rbp, 16
	movq	%rbx, %rdi
	movq	%r14, %rsi
	callq	compare_fs_by_poc_asc.107
	popq	%rbx
	popq	%r14
	popq	%rbp
	.cfi_def_cfa %rsp, 8
	retq
.LBB19_5:                               # %func_compare_fs_by_poc_asc.140
	.cfi_def_cfa %rbp, 16
	movq	%rbx, %rdi
	movq	%r14, %rsi
	callq	compare_fs_by_poc_asc.140
	popq	%rbx
	popq	%r14
	popq	%rbp
	.cfi_def_cfa %rsp, 8
	retq
.LBB19_6:                               # %func_compare_fs_by_poc_asc.142
	.cfi_def_cfa %rbp, 16
	movq	%rbx, %rdi
	movq	%r14, %rsi
	callq	compare_fs_by_poc_asc.142
	popq	%rbx
	popq	%r14
	popq	%rbp
	.cfi_def_cfa %rsp, 8
	retq
.LBB19_7:                               # %ctrl0
	.cfi_def_cfa %rbp, 16
	cmpl	$1, %eax
	je	.LBB19_2
# %bb.8:                                # %ctrl1
	cmpl	$2, %eax
	je	.LBB19_3
# %bb.9:                                # %ctrl2
	cmpl	$3, %eax
	je	.LBB19_4
# %bb.10:                               # %ctrl3
	cmpl	$4, %eax
	je	.LBB19_5
	jmp	.LBB19_6
.Lfunc_end19:
	.size	compare_fs_by_poc_asc, .Lfunc_end19-compare_fs_by_poc_asc
	.cfi_endproc
                                        # -- End function
	.globl	init_mbaff_lists        # -- Begin function init_mbaff_lists
	.p2align	4, 0x90
	.type	init_mbaff_lists,@function
init_mbaff_lists:                       # @init_mbaff_lists
	.cfi_startproc
# %bb.0:                                # %rand_bb
	pushq	%rbp
	.cfi_def_cfa_offset 16
	.cfi_offset %rbp, -16
	movq	%rsp, %rbp
	.cfi_def_cfa_register %rbp
	callq	get_rand
	cmpl	$0, %eax
	jne	.LBB20_2
# %bb.1:                                # %func_init_mbaff_lists.23
	callq	init_mbaff_lists.23
	popq	%rbp
	.cfi_def_cfa %rsp, 8
	retq
.LBB20_2:                               # %func_init_mbaff_lists.114
	.cfi_def_cfa %rbp, 16
	callq	init_mbaff_lists.114
	popq	%rbp
	.cfi_def_cfa %rsp, 8
	retq
.Lfunc_end20:
	.size	init_mbaff_lists, .Lfunc_end20-init_mbaff_lists
	.cfi_endproc
                                        # -- End function
	.globl	reorder_ref_pic_list    # -- Begin function reorder_ref_pic_list
	.p2align	4, 0x90
	.type	reorder_ref_pic_list,@function
reorder_ref_pic_list:                   # @reorder_ref_pic_list
	.cfi_startproc
# %bb.0:                                # %rand_bb
	pushq	%rbp
	.cfi_def_cfa_offset 16
	.cfi_offset %rbp, -16
	movq	%rsp, %rbp
	.cfi_def_cfa_register %rbp
	pushq	%r15
	pushq	%r14
	pushq	%r13
	pushq	%r12
	pushq	%rbx
	pushq	%rax
	.cfi_offset %rbx, -56
	.cfi_offset %r12, -48
	.cfi_offset %r13, -40
	.cfi_offset %r14, -32
	.cfi_offset %r15, -24
	movq	%r9, -48(%rbp)          # 8-byte Spill
	movq	%r8, %r12
	movq	%rcx, %r13
	movl	%edx, %ebx
	movq	%rsi, %r14
	movq	%rdi, %r15
	callq	get_rand
	cmpl	$0, %eax
	jne	.LBB21_9
# %bb.1:                                # %func_reorder_ref_pic_list.123
	movq	%r15, %rdi
	movq	%r14, %rsi
	movl	%ebx, %edx
	movq	%r13, %rcx
	movq	%r12, %r8
	movq	-48(%rbp), %r9          # 8-byte Reload
	callq	reorder_ref_pic_list.123
	addq	$8, %rsp
	popq	%rbx
	popq	%r12
	popq	%r13
	popq	%r14
	popq	%r15
	popq	%rbp
	.cfi_def_cfa %rsp, 8
	retq
.LBB21_2:                               # %func_reorder_ref_pic_list.129
	.cfi_def_cfa %rbp, 16
	movq	%r15, %rdi
	movq	%r14, %rsi
	movl	%ebx, %edx
	movq	%r13, %rcx
	movq	%r12, %r8
	callq	reorder_ref_pic_list.129
	addq	$8, %rsp
	popq	%rbx
	popq	%r12
	popq	%r13
	popq	%r14
	popq	%r15
	popq	%rbp
	.cfi_def_cfa %rsp, 8
	retq
.LBB21_3:                               # %func_reorder_ref_pic_list.207
	.cfi_def_cfa %rbp, 16
	movq	%r15, %rdi
	movq	%r14, %rsi
	movl	%ebx, %edx
	movq	%r13, %rcx
	movq	%r12, %r8
	callq	reorder_ref_pic_list.207
	addq	$8, %rsp
	popq	%rbx
	popq	%r12
	popq	%r13
	popq	%r14
	popq	%r15
	popq	%rbp
	.cfi_def_cfa %rsp, 8
	retq
.LBB21_4:                               # %func_reorder_ref_pic_list.234
	.cfi_def_cfa %rbp, 16
	movq	%r15, %rdi
	movq	%r14, %rsi
	movl	%ebx, %edx
	movq	%r13, %rcx
	movq	%r12, %r8
	callq	reorder_ref_pic_list.234
	addq	$8, %rsp
	popq	%rbx
	popq	%r12
	popq	%r13
	popq	%r14
	popq	%r15
	popq	%rbp
	.cfi_def_cfa %rsp, 8
	retq
.LBB21_5:                               # %func_reorder_ref_pic_list.239
	.cfi_def_cfa %rbp, 16
	movq	%r15, %rdi
	movq	%r14, %rsi
	movl	%ebx, %edx
	movq	%r13, %rcx
	movq	%r12, %r8
	callq	reorder_ref_pic_list.239
	addq	$8, %rsp
	popq	%rbx
	popq	%r12
	popq	%r13
	popq	%r14
	popq	%r15
	popq	%rbp
	.cfi_def_cfa %rsp, 8
	retq
.LBB21_6:                               # %func_reorder_ref_pic_list.250
	.cfi_def_cfa %rbp, 16
	movq	%r15, %rdi
	movq	%r14, %rsi
	movl	%ebx, %edx
	movq	%r13, %rcx
	movq	%r12, %r8
	callq	reorder_ref_pic_list.250
	addq	$8, %rsp
	popq	%rbx
	popq	%r12
	popq	%r13
	popq	%r14
	popq	%r15
	popq	%rbp
	.cfi_def_cfa %rsp, 8
	retq
.LBB21_7:                               # %func_reorder_ref_pic_list.251
	.cfi_def_cfa %rbp, 16
	callq	reorder_ref_pic_list.251
	addq	$8, %rsp
	popq	%rbx
	popq	%r12
	popq	%r13
	popq	%r14
	popq	%r15
	popq	%rbp
	.cfi_def_cfa %rsp, 8
	retq
.LBB21_8:                               # %func_reorder_ref_pic_list.255
	.cfi_def_cfa %rbp, 16
	callq	reorder_ref_pic_list.255
	addq	$8, %rsp
	popq	%rbx
	popq	%r12
	popq	%r13
	popq	%r14
	popq	%r15
	popq	%rbp
	.cfi_def_cfa %rsp, 8
	retq
.LBB21_9:                               # %ctrl0
	.cfi_def_cfa %rbp, 16
	movq	-48(%rbp), %r9          # 8-byte Reload
	cmpl	$1, %eax
	je	.LBB21_2
# %bb.10:                               # %ctrl1
	cmpl	$2, %eax
	je	.LBB21_3
# %bb.11:                               # %ctrl2
	cmpl	$3, %eax
	je	.LBB21_4
# %bb.12:                               # %ctrl3
	cmpl	$4, %eax
	je	.LBB21_5
# %bb.13:                               # %ctrl4
	cmpl	$5, %eax
	je	.LBB21_6
# %bb.14:                               # %ctrl5
	cmpl	$6, %eax
	movq	%r12, %r8
	movq	%r13, %rcx
	movl	%ebx, %edx
	movq	%r14, %rsi
	movq	%r15, %rdi
	je	.LBB21_7
	jmp	.LBB21_8
.Lfunc_end21:
	.size	reorder_ref_pic_list, .Lfunc_end21-reorder_ref_pic_list
	.cfi_endproc
                                        # -- End function
	.p2align	4, 0x90         # -- Begin function reorder_short_term
	.type	reorder_short_term,@function
reorder_short_term:                     # @reorder_short_term
	.cfi_startproc
# %bb.0:                                # %rand_bb
	pushq	%rbp
	.cfi_def_cfa_offset 16
	.cfi_offset %rbp, -16
	movq	%rsp, %rbp
	.cfi_def_cfa_register %rbp
	pushq	%r15
	pushq	%r14
	pushq	%r12
	pushq	%rbx
	.cfi_offset %rbx, -48
	.cfi_offset %r12, -40
	.cfi_offset %r14, -32
	.cfi_offset %r15, -24
	movq	%rcx, %r14
	movl	%edx, %r15d
	movl	%esi, %r12d
	movq	%rdi, %rbx
	callq	get_rand
	cmpl	$0, %eax
	jne	.LBB22_9
# %bb.1:                                # %func_reorder_short_term.6
	movq	%rbx, %rdi
	movl	%r12d, %esi
	movl	%r15d, %edx
	movq	%r14, %rcx
	callq	reorder_short_term.6
	popq	%rbx
	popq	%r12
	popq	%r14
	popq	%r15
	popq	%rbp
	.cfi_def_cfa %rsp, 8
	retq
.LBB22_2:                               # %func_reorder_short_term.13
	.cfi_def_cfa %rbp, 16
	movq	%rbx, %rdi
	movl	%r12d, %esi
	movl	%r15d, %edx
	movq	%r14, %rcx
	callq	reorder_short_term.13
	popq	%rbx
	popq	%r12
	popq	%r14
	popq	%r15
	popq	%rbp
	.cfi_def_cfa %rsp, 8
	retq
.LBB22_3:                               # %func_reorder_short_term.69
	.cfi_def_cfa %rbp, 16
	movq	%rbx, %rdi
	movl	%r12d, %esi
	movl	%r15d, %edx
	movq	%r14, %rcx
	callq	reorder_short_term.69
	popq	%rbx
	popq	%r12
	popq	%r14
	popq	%r15
	popq	%rbp
	.cfi_def_cfa %rsp, 8
	retq
.LBB22_4:                               # %func_reorder_short_term.127
	.cfi_def_cfa %rbp, 16
	movq	%rbx, %rdi
	movl	%r12d, %esi
	movl	%r15d, %edx
	movq	%r14, %rcx
	callq	reorder_short_term.127
	popq	%rbx
	popq	%r12
	popq	%r14
	popq	%r15
	popq	%rbp
	.cfi_def_cfa %rsp, 8
	retq
.LBB22_5:                               # %func_reorder_short_term.147
	.cfi_def_cfa %rbp, 16
	movq	%rbx, %rdi
	movl	%r12d, %esi
	movl	%r15d, %edx
	movq	%r14, %rcx
	callq	reorder_short_term.147
	popq	%rbx
	popq	%r12
	popq	%r14
	popq	%r15
	popq	%rbp
	.cfi_def_cfa %rsp, 8
	retq
.LBB22_6:                               # %func_reorder_short_term.190
	.cfi_def_cfa %rbp, 16
	movq	%rbx, %rdi
	movl	%r12d, %esi
	movl	%r15d, %edx
	movq	%r14, %rcx
	callq	reorder_short_term.190
	popq	%rbx
	popq	%r12
	popq	%r14
	popq	%r15
	popq	%rbp
	.cfi_def_cfa %rsp, 8
	retq
.LBB22_7:                               # %func_reorder_short_term.224
	.cfi_def_cfa %rbp, 16
	movq	%rbx, %rdi
	movl	%r12d, %esi
	movl	%r15d, %edx
	movq	%r14, %rcx
	callq	reorder_short_term.224
	popq	%rbx
	popq	%r12
	popq	%r14
	popq	%r15
	popq	%rbp
	.cfi_def_cfa %rsp, 8
	retq
.LBB22_8:                               # %func_reorder_short_term.241
	.cfi_def_cfa %rbp, 16
	movq	%rbx, %rdi
	movl	%r12d, %esi
	movl	%r15d, %edx
	movq	%r14, %rcx
	callq	reorder_short_term.241
	popq	%rbx
	popq	%r12
	popq	%r14
	popq	%r15
	popq	%rbp
	.cfi_def_cfa %rsp, 8
	retq
.LBB22_9:                               # %ctrl0
	.cfi_def_cfa %rbp, 16
	cmpl	$1, %eax
	je	.LBB22_2
# %bb.10:                               # %ctrl1
	cmpl	$2, %eax
	je	.LBB22_3
# %bb.11:                               # %ctrl2
	cmpl	$3, %eax
	je	.LBB22_4
# %bb.12:                               # %ctrl3
	cmpl	$4, %eax
	je	.LBB22_5
# %bb.13:                               # %ctrl4
	cmpl	$5, %eax
	je	.LBB22_6
# %bb.14:                               # %ctrl5
	cmpl	$6, %eax
	je	.LBB22_7
	jmp	.LBB22_8
.Lfunc_end22:
	.size	reorder_short_term, .Lfunc_end22-reorder_short_term
	.cfi_endproc
                                        # -- End function
	.p2align	4, 0x90         # -- Begin function reorder_long_term
	.type	reorder_long_term,@function
reorder_long_term:                      # @reorder_long_term
	.cfi_startproc
# %bb.0:                                # %rand_bb
	pushq	%rbp
	.cfi_def_cfa_offset 16
	.cfi_offset %rbp, -16
	movq	%rsp, %rbp
	.cfi_def_cfa_register %rbp
	pushq	%r15
	pushq	%r14
	pushq	%r12
	pushq	%rbx
	.cfi_offset %rbx, -48
	.cfi_offset %r12, -40
	.cfi_offset %r14, -32
	.cfi_offset %r15, -24
	movq	%rcx, %r14
	movl	%edx, %r15d
	movl	%esi, %r12d
	movq	%rdi, %rbx
	callq	get_rand
	cmpl	$0, %eax
	jne	.LBB23_9
# %bb.1:                                # %func_reorder_long_term.124
	movq	%rbx, %rdi
	movl	%r12d, %esi
	movl	%r15d, %edx
	movq	%r14, %rcx
	callq	reorder_long_term.124
	popq	%rbx
	popq	%r12
	popq	%r14
	popq	%r15
	popq	%rbp
	.cfi_def_cfa %rsp, 8
	retq
.LBB23_2:                               # %func_reorder_long_term.192
	.cfi_def_cfa %rbp, 16
	movq	%rbx, %rdi
	movl	%r12d, %esi
	movl	%r15d, %edx
	movq	%r14, %rcx
	callq	reorder_long_term.192
	popq	%rbx
	popq	%r12
	popq	%r14
	popq	%r15
	popq	%rbp
	.cfi_def_cfa %rsp, 8
	retq
.LBB23_3:                               # %func_reorder_long_term.204
	.cfi_def_cfa %rbp, 16
	movq	%rbx, %rdi
	movl	%r12d, %esi
	movl	%r15d, %edx
	movq	%r14, %rcx
	callq	reorder_long_term.204
	popq	%rbx
	popq	%r12
	popq	%r14
	popq	%r15
	popq	%rbp
	.cfi_def_cfa %rsp, 8
	retq
.LBB23_4:                               # %func_reorder_long_term.254
	.cfi_def_cfa %rbp, 16
	movq	%rbx, %rdi
	movl	%r12d, %esi
	movl	%r15d, %edx
	movq	%r14, %rcx
	callq	reorder_long_term.254
	popq	%rbx
	popq	%r12
	popq	%r14
	popq	%r15
	popq	%rbp
	.cfi_def_cfa %rsp, 8
	retq
.LBB23_5:                               # %func_reorder_long_term.256
	.cfi_def_cfa %rbp, 16
	movq	%rbx, %rdi
	movl	%r12d, %esi
	movl	%r15d, %edx
	movq	%r14, %rcx
	callq	reorder_long_term.256
	popq	%rbx
	popq	%r12
	popq	%r14
	popq	%r15
	popq	%rbp
	.cfi_def_cfa %rsp, 8
	retq
.LBB23_6:                               # %func_reorder_long_term.257
	.cfi_def_cfa %rbp, 16
	movq	%rbx, %rdi
	movl	%r12d, %esi
	movl	%r15d, %edx
	movq	%r14, %rcx
	callq	reorder_long_term.257
	popq	%rbx
	popq	%r12
	popq	%r14
	popq	%r15
	popq	%rbp
	.cfi_def_cfa %rsp, 8
	retq
.LBB23_7:                               # %func_reorder_long_term.258
	.cfi_def_cfa %rbp, 16
	movq	%rbx, %rdi
	movl	%r12d, %esi
	movl	%r15d, %edx
	movq	%r14, %rcx
	callq	reorder_long_term.258
	popq	%rbx
	popq	%r12
	popq	%r14
	popq	%r15
	popq	%rbp
	.cfi_def_cfa %rsp, 8
	retq
.LBB23_8:                               # %func_reorder_long_term.260
	.cfi_def_cfa %rbp, 16
	movq	%rbx, %rdi
	movl	%r12d, %esi
	movl	%r15d, %edx
	movq	%r14, %rcx
	callq	reorder_long_term.260
	popq	%rbx
	popq	%r12
	popq	%r14
	popq	%r15
	popq	%rbp
	.cfi_def_cfa %rsp, 8
	retq
.LBB23_9:                               # %ctrl0
	.cfi_def_cfa %rbp, 16
	cmpl	$1, %eax
	je	.LBB23_2
# %bb.10:                               # %ctrl1
	cmpl	$2, %eax
	je	.LBB23_3
# %bb.11:                               # %ctrl2
	cmpl	$3, %eax
	je	.LBB23_4
# %bb.12:                               # %ctrl3
	cmpl	$4, %eax
	je	.LBB23_5
# %bb.13:                               # %ctrl4
	cmpl	$5, %eax
	je	.LBB23_6
# %bb.14:                               # %ctrl5
	cmpl	$6, %eax
	je	.LBB23_7
	jmp	.LBB23_8
.Lfunc_end23:
	.size	reorder_long_term, .Lfunc_end23-reorder_long_term
	.cfi_endproc
                                        # -- End function
	.globl	update_ref_list         # -- Begin function update_ref_list
	.p2align	4, 0x90
	.type	update_ref_list,@function
update_ref_list:                        # @update_ref_list
	.cfi_startproc
# %bb.0:                                # %rand_bb
	pushq	%rbp
	.cfi_def_cfa_offset 16
	.cfi_offset %rbp, -16
	movq	%rsp, %rbp
	.cfi_def_cfa_register %rbp
	callq	get_rand
	cmpl	$0, %eax
	jne	.LBB24_2
# %bb.1:                                # %func_update_ref_list.66
	callq	update_ref_list.66
	popq	%rbp
	.cfi_def_cfa %rsp, 8
	retq
.LBB24_2:                               # %func_update_ref_list.79
	.cfi_def_cfa %rbp, 16
	callq	update_ref_list.79
	popq	%rbp
	.cfi_def_cfa %rsp, 8
	retq
.Lfunc_end24:
	.size	update_ref_list, .Lfunc_end24-update_ref_list
	.cfi_endproc
                                        # -- End function
	.p2align	4, 0x90         # -- Begin function is_short_term_reference
	.type	is_short_term_reference,@function
is_short_term_reference:                # @is_short_term_reference
	.cfi_startproc
# %bb.0:                                # %rand_bb
	pushq	%rbp
	.cfi_def_cfa_offset 16
	.cfi_offset %rbp, -16
	movq	%rsp, %rbp
	.cfi_def_cfa_register %rbp
	pushq	%rbx
	pushq	%rax
	.cfi_offset %rbx, -24
	movq	%rdi, %rbx
	callq	get_rand
	cmpl	$0, %eax
	jne	.LBB25_2
# %bb.1:                                # %func_is_short_term_reference.46
	movq	%rbx, %rdi
	callq	is_short_term_reference.46
	addq	$8, %rsp
	popq	%rbx
	popq	%rbp
	.cfi_def_cfa %rsp, 8
	retq
.LBB25_2:                               # %func_is_short_term_reference.80
	.cfi_def_cfa %rbp, 16
	movq	%rbx, %rdi
	callq	is_short_term_reference.80
	addq	$8, %rsp
	popq	%rbx
	popq	%rbp
	.cfi_def_cfa %rsp, 8
	retq
.Lfunc_end25:
	.size	is_short_term_reference, .Lfunc_end25-is_short_term_reference
	.cfi_endproc
                                        # -- End function
	.globl	update_ltref_list       # -- Begin function update_ltref_list
	.p2align	4, 0x90
	.type	update_ltref_list,@function
update_ltref_list:                      # @update_ltref_list
	.cfi_startproc
# %bb.0:                                # %rand_bb
	pushq	%rbp
	.cfi_def_cfa_offset 16
	.cfi_offset %rbp, -16
	movq	%rsp, %rbp
	.cfi_def_cfa_register %rbp
	callq	get_rand
	cmpl	$0, %eax
	jne	.LBB26_2
# %bb.1:                                # %func_update_ltref_list.24
	callq	update_ltref_list.24
	popq	%rbp
	.cfi_def_cfa %rsp, 8
	retq
.LBB26_2:                               # %func_update_ltref_list.52
	.cfi_def_cfa %rbp, 16
	callq	update_ltref_list.52
	popq	%rbp
	.cfi_def_cfa %rsp, 8
	retq
.Lfunc_end26:
	.size	update_ltref_list, .Lfunc_end26-update_ltref_list
	.cfi_endproc
                                        # -- End function
	.p2align	4, 0x90         # -- Begin function is_long_term_reference
	.type	is_long_term_reference,@function
is_long_term_reference:                 # @is_long_term_reference
	.cfi_startproc
# %bb.0:                                # %rand_bb
	pushq	%rbp
	.cfi_def_cfa_offset 16
	.cfi_offset %rbp, -16
	movq	%rsp, %rbp
	.cfi_def_cfa_register %rbp
	pushq	%rbx
	pushq	%rax
	.cfi_offset %rbx, -24
	movq	%rdi, %rbx
	callq	get_rand
	cmpl	$0, %eax
	jne	.LBB27_2
# %bb.1:                                # %func_is_long_term_reference.56
	movq	%rbx, %rdi
	callq	is_long_term_reference.56
	addq	$8, %rsp
	popq	%rbx
	popq	%rbp
	.cfi_def_cfa %rsp, 8
	retq
.LBB27_2:                               # %func_is_long_term_reference.85
	.cfi_def_cfa %rbp, 16
	movq	%rbx, %rdi
	callq	is_long_term_reference.85
	addq	$8, %rsp
	popq	%rbx
	popq	%rbp
	.cfi_def_cfa %rsp, 8
	retq
.Lfunc_end27:
	.size	is_long_term_reference, .Lfunc_end27-is_long_term_reference
	.cfi_endproc
                                        # -- End function
	.globl	mm_update_max_long_term_frame_idx # -- Begin function mm_update_max_long_term_frame_idx
	.p2align	4, 0x90
	.type	mm_update_max_long_term_frame_idx,@function
mm_update_max_long_term_frame_idx:      # @mm_update_max_long_term_frame_idx
	.cfi_startproc
# %bb.0:                                # %rand_bb
	pushq	%rbp
	.cfi_def_cfa_offset 16
	.cfi_offset %rbp, -16
	movq	%rsp, %rbp
	.cfi_def_cfa_register %rbp
	pushq	%rbx
	pushq	%rax
	.cfi_offset %rbx, -24
	movl	%edi, %ebx
	callq	get_rand
	cmpl	$0, %eax
	jne	.LBB28_2
# %bb.1:                                # %func_mm_update_max_long_term_frame_idx.18
	movl	%ebx, %edi
	callq	mm_update_max_long_term_frame_idx.18
	addq	$8, %rsp
	popq	%rbx
	popq	%rbp
	.cfi_def_cfa %rsp, 8
	retq
.LBB28_2:                               # %func_mm_update_max_long_term_frame_idx.28
	.cfi_def_cfa %rbp, 16
	movl	%ebx, %edi
	callq	mm_update_max_long_term_frame_idx.28
	addq	$8, %rsp
	popq	%rbx
	popq	%rbp
	.cfi_def_cfa %rsp, 8
	retq
.Lfunc_end28:
	.size	mm_update_max_long_term_frame_idx, .Lfunc_end28-mm_update_max_long_term_frame_idx
	.cfi_endproc
                                        # -- End function
	.p2align	4, 0x90         # -- Begin function unmark_for_long_term_reference
	.type	unmark_for_long_term_reference,@function
unmark_for_long_term_reference:         # @unmark_for_long_term_reference
	.cfi_startproc
# %bb.0:                                # %entry
	pushq	%rbp
	.cfi_def_cfa_offset 16
	.cfi_offset %rbp, -16
	movq	%rsp, %rbp
	.cfi_def_cfa_register %rbp
	movq	%rdi, -8(%rbp)
	movq	active_sps, %rax
	cmpl	$0, 1148(%rax)
	jne	.LBB29_6
# %bb.1:                                # %if.then
	movq	-8(%rbp), %rax
	movl	(%rax), %eax
	andl	$1, %eax
	cmpl	$0, %eax
	je	.LBB29_3
# %bb.2:                                # %if.then2
	movq	-8(%rbp), %rax
	movq	48(%rax), %rax
	movl	$0, 6380(%rax)
	movq	-8(%rbp), %rax
	movq	48(%rax), %rax
	movl	$0, 6376(%rax)
.LBB29_3:                               # %if.end
	movq	-8(%rbp), %rax
	movl	(%rax), %eax
	andl	$2, %eax
	cmpl	$0, %eax
	je	.LBB29_5
# %bb.4:                                # %if.then7
	movq	-8(%rbp), %rax
	movq	56(%rax), %rax
	movl	$0, 6380(%rax)
	movq	-8(%rbp), %rax
	movq	56(%rax), %rax
	movl	$0, 6376(%rax)
.LBB29_5:                               # %if.end11
	jmp	.LBB29_6
.LBB29_6:                               # %if.end12
	movq	-8(%rbp), %rax
	cmpl	$3, (%rax)
	jne	.LBB29_10
# %bb.7:                                # %if.then14
	movq	active_sps, %rax
	cmpl	$0, 1148(%rax)
	jne	.LBB29_9
# %bb.8:                                # %if.then17
	movq	-8(%rbp), %rax
	movq	48(%rax), %rax
	movl	$0, 6380(%rax)
	movq	-8(%rbp), %rax
	movq	48(%rax), %rax
	movl	$0, 6376(%rax)
	movq	-8(%rbp), %rax
	movq	56(%rax), %rax
	movl	$0, 6380(%rax)
	movq	-8(%rbp), %rax
	movq	56(%rax), %rax
	movl	$0, 6376(%rax)
.LBB29_9:                               # %if.end26
	movq	-8(%rbp), %rax
	movq	40(%rax), %rax
	movl	$0, 6380(%rax)
	movq	-8(%rbp), %rax
	movq	40(%rax), %rax
	movl	$0, 6376(%rax)
.LBB29_10:                              # %if.end30
	movq	-8(%rbp), %rax
	movl	$0, 4(%rax)
	movq	-8(%rbp), %rax
	movl	$0, 8(%rax)
	popq	%rbp
	.cfi_def_cfa %rsp, 8
	retq
.Lfunc_end29:
	.size	unmark_for_long_term_reference, .Lfunc_end29-unmark_for_long_term_reference
	.cfi_endproc
                                        # -- End function
	.globl	store_picture_in_dpb    # -- Begin function store_picture_in_dpb
	.p2align	4, 0x90
	.type	store_picture_in_dpb,@function
store_picture_in_dpb:                   # @store_picture_in_dpb
	.cfi_startproc
# %bb.0:                                # %rand_bb
	pushq	%rbp
	.cfi_def_cfa_offset 16
	.cfi_offset %rbp, -16
	movq	%rsp, %rbp
	.cfi_def_cfa_register %rbp
	pushq	%rbx
	pushq	%rax
	.cfi_offset %rbx, -24
	movq	%rdi, %rbx
	callq	get_rand
	cmpl	$0, %eax
	jne	.LBB30_9
# %bb.1:                                # %func_store_picture_in_dpb.5
	movq	%rbx, %rdi
	callq	store_picture_in_dpb.5
	addq	$8, %rsp
	popq	%rbx
	popq	%rbp
	.cfi_def_cfa %rsp, 8
	retq
.LBB30_2:                               # %func_store_picture_in_dpb.8
	.cfi_def_cfa %rbp, 16
	movq	%rbx, %rdi
	callq	store_picture_in_dpb.8
	addq	$8, %rsp
	popq	%rbx
	popq	%rbp
	.cfi_def_cfa %rsp, 8
	retq
.LBB30_3:                               # %func_store_picture_in_dpb.17
	.cfi_def_cfa %rbp, 16
	movq	%rbx, %rdi
	callq	store_picture_in_dpb.17
	addq	$8, %rsp
	popq	%rbx
	popq	%rbp
	.cfi_def_cfa %rsp, 8
	retq
.LBB30_4:                               # %func_store_picture_in_dpb.32
	.cfi_def_cfa %rbp, 16
	movq	%rbx, %rdi
	callq	store_picture_in_dpb.32
	addq	$8, %rsp
	popq	%rbx
	popq	%rbp
	.cfi_def_cfa %rsp, 8
	retq
.LBB30_5:                               # %func_store_picture_in_dpb.166
	.cfi_def_cfa %rbp, 16
	movq	%rbx, %rdi
	callq	store_picture_in_dpb.166
	addq	$8, %rsp
	popq	%rbx
	popq	%rbp
	.cfi_def_cfa %rsp, 8
	retq
.LBB30_6:                               # %func_store_picture_in_dpb.167
	.cfi_def_cfa %rbp, 16
	movq	%rbx, %rdi
	callq	store_picture_in_dpb.167
	addq	$8, %rsp
	popq	%rbx
	popq	%rbp
	.cfi_def_cfa %rsp, 8
	retq
.LBB30_7:                               # %func_store_picture_in_dpb.211
	.cfi_def_cfa %rbp, 16
	movq	%rbx, %rdi
	callq	store_picture_in_dpb.211
	addq	$8, %rsp
	popq	%rbx
	popq	%rbp
	.cfi_def_cfa %rsp, 8
	retq
.LBB30_8:                               # %func_store_picture_in_dpb.215
	.cfi_def_cfa %rbp, 16
	movq	%rbx, %rdi
	callq	store_picture_in_dpb.215
	addq	$8, %rsp
	popq	%rbx
	popq	%rbp
	.cfi_def_cfa %rsp, 8
	retq
.LBB30_9:                               # %ctrl0
	.cfi_def_cfa %rbp, 16
	cmpl	$1, %eax
	je	.LBB30_2
# %bb.10:                               # %ctrl1
	cmpl	$2, %eax
	je	.LBB30_3
# %bb.11:                               # %ctrl2
	cmpl	$3, %eax
	je	.LBB30_4
# %bb.12:                               # %ctrl3
	cmpl	$4, %eax
	je	.LBB30_5
# %bb.13:                               # %ctrl4
	cmpl	$5, %eax
	je	.LBB30_6
# %bb.14:                               # %ctrl5
	cmpl	$6, %eax
	je	.LBB30_7
	jmp	.LBB30_8
.Lfunc_end30:
	.size	store_picture_in_dpb, .Lfunc_end30-store_picture_in_dpb
	.cfi_endproc
                                        # -- End function
	.p2align	4, 0x90         # -- Begin function idr_memory_management
	.type	idr_memory_management,@function
idr_memory_management:                  # @idr_memory_management
	.cfi_startproc
# %bb.0:                                # %rand_bb
	pushq	%rbp
	.cfi_def_cfa_offset 16
	.cfi_offset %rbp, -16
	movq	%rsp, %rbp
	.cfi_def_cfa_register %rbp
	pushq	%rbx
	pushq	%rax
	.cfi_offset %rbx, -24
	movq	%rdi, %rbx
	callq	get_rand
	cmpl	$0, %eax
	jne	.LBB31_2
# %bb.1:                                # %func_idr_memory_management.101
	movq	%rbx, %rdi
	callq	idr_memory_management.101
	addq	$8, %rsp
	popq	%rbx
	popq	%rbp
	.cfi_def_cfa %rsp, 8
	retq
.LBB31_2:                               # %func_idr_memory_management.128
	.cfi_def_cfa %rbp, 16
	movq	%rbx, %rdi
	callq	idr_memory_management.128
	addq	$8, %rsp
	popq	%rbx
	popq	%rbp
	.cfi_def_cfa %rsp, 8
	retq
.Lfunc_end31:
	.size	idr_memory_management, .Lfunc_end31-idr_memory_management
	.cfi_endproc
                                        # -- End function
	.p2align	4, 0x90         # -- Begin function adaptive_memory_management
	.type	adaptive_memory_management,@function
adaptive_memory_management:             # @adaptive_memory_management
	.cfi_startproc
# %bb.0:                                # %rand_bb
	pushq	%rbp
	.cfi_def_cfa_offset 16
	.cfi_offset %rbp, -16
	movq	%rsp, %rbp
	.cfi_def_cfa_register %rbp
	pushq	%rbx
	pushq	%rax
	.cfi_offset %rbx, -24
	movq	%rdi, %rbx
	callq	get_rand
	cmpl	$0, %eax
	jne	.LBB32_2
# %bb.1:                                # %func_adaptive_memory_management.92
	movq	%rbx, %rdi
	callq	adaptive_memory_management.92
	addq	$8, %rsp
	popq	%rbx
	popq	%rbp
	.cfi_def_cfa %rsp, 8
	retq
.LBB32_2:                               # %func_adaptive_memory_management.121
	.cfi_def_cfa %rbp, 16
	movq	%rbx, %rdi
	callq	adaptive_memory_management.121
	addq	$8, %rsp
	popq	%rbx
	popq	%rbp
	.cfi_def_cfa %rsp, 8
	retq
.Lfunc_end32:
	.size	adaptive_memory_management, .Lfunc_end32-adaptive_memory_management
	.cfi_endproc
                                        # -- End function
	.p2align	4, 0x90         # -- Begin function insert_picture_in_dpb
	.type	insert_picture_in_dpb,@function
insert_picture_in_dpb:                  # @insert_picture_in_dpb
	.cfi_startproc
# %bb.0:                                # %rand_bb
	pushq	%rbp
	.cfi_def_cfa_offset 16
	.cfi_offset %rbp, -16
	movq	%rsp, %rbp
	.cfi_def_cfa_register %rbp
	pushq	%r14
	pushq	%rbx
	.cfi_offset %rbx, -32
	.cfi_offset %r14, -24
	movq	%rsi, %r14
	movq	%rdi, %rbx
	callq	get_rand
	cmpl	$0, %eax
	jne	.LBB33_2
# %bb.1:                                # %func_insert_picture_in_dpb.14
	movq	%rbx, %rdi
	movq	%r14, %rsi
	callq	insert_picture_in_dpb.14
	popq	%rbx
	popq	%r14
	popq	%rbp
	.cfi_def_cfa %rsp, 8
	retq
.LBB33_2:                               # %func_insert_picture_in_dpb.15
	.cfi_def_cfa %rbp, 16
	movq	%rbx, %rdi
	movq	%r14, %rsi
	callq	insert_picture_in_dpb.15
	popq	%rbx
	popq	%r14
	popq	%rbp
	.cfi_def_cfa %rsp, 8
	retq
.Lfunc_end33:
	.size	insert_picture_in_dpb, .Lfunc_end33-insert_picture_in_dpb
	.cfi_endproc
                                        # -- End function
	.p2align	4, 0x90         # -- Begin function sliding_window_memory_management
	.type	sliding_window_memory_management,@function
sliding_window_memory_management:       # @sliding_window_memory_management
	.cfi_startproc
# %bb.0:                                # %rand_bb
	pushq	%rbp
	.cfi_def_cfa_offset 16
	.cfi_offset %rbp, -16
	movq	%rsp, %rbp
	.cfi_def_cfa_register %rbp
	pushq	%rbx
	pushq	%rax
	.cfi_offset %rbx, -24
	movq	%rdi, %rbx
	callq	get_rand
	cmpl	$0, %eax
	jne	.LBB34_2
# %bb.1:                                # %func_sliding_window_memory_management.25
	movq	%rbx, %rdi
	callq	sliding_window_memory_management.25
	addq	$8, %rsp
	popq	%rbx
	popq	%rbp
	.cfi_def_cfa %rsp, 8
	retq
.LBB34_2:                               # %func_sliding_window_memory_management.94
	.cfi_def_cfa %rbp, 16
	movq	%rbx, %rdi
	callq	sliding_window_memory_management.94
	addq	$8, %rsp
	popq	%rbx
	popq	%rbp
	.cfi_def_cfa %rsp, 8
	retq
.Lfunc_end34:
	.size	sliding_window_memory_management, .Lfunc_end34-sliding_window_memory_management
	.cfi_endproc
                                        # -- End function
	.p2align	4, 0x90         # -- Begin function get_smallest_poc
	.type	get_smallest_poc,@function
get_smallest_poc:                       # @get_smallest_poc
	.cfi_startproc
# %bb.0:                                # %rand_bb
	pushq	%rbp
	.cfi_def_cfa_offset 16
	.cfi_offset %rbp, -16
	movq	%rsp, %rbp
	.cfi_def_cfa_register %rbp
	pushq	%r14
	pushq	%rbx
	.cfi_offset %rbx, -32
	.cfi_offset %r14, -24
	movq	%rsi, %r14
	movq	%rdi, %rbx
	callq	get_rand
	cmpl	$0, %eax
	jne	.LBB35_7
# %bb.1:                                # %func_get_smallest_poc.3
	movq	%rbx, %rdi
	movq	%r14, %rsi
	callq	get_smallest_poc.3
	popq	%rbx
	popq	%r14
	popq	%rbp
	.cfi_def_cfa %rsp, 8
	retq
.LBB35_2:                               # %func_get_smallest_poc.89
	.cfi_def_cfa %rbp, 16
	movq	%rbx, %rdi
	movq	%r14, %rsi
	callq	get_smallest_poc.89
	popq	%rbx
	popq	%r14
	popq	%rbp
	.cfi_def_cfa %rsp, 8
	retq
.LBB35_3:                               # %func_get_smallest_poc.132
	.cfi_def_cfa %rbp, 16
	movq	%rbx, %rdi
	movq	%r14, %rsi
	callq	get_smallest_poc.132
	popq	%rbx
	popq	%r14
	popq	%rbp
	.cfi_def_cfa %rsp, 8
	retq
.LBB35_4:                               # %func_get_smallest_poc.134
	.cfi_def_cfa %rbp, 16
	movq	%rbx, %rdi
	movq	%r14, %rsi
	callq	get_smallest_poc.134
	popq	%rbx
	popq	%r14
	popq	%rbp
	.cfi_def_cfa %rsp, 8
	retq
.LBB35_5:                               # %func_get_smallest_poc.138
	.cfi_def_cfa %rbp, 16
	movq	%rbx, %rdi
	movq	%r14, %rsi
	callq	get_smallest_poc.138
	popq	%rbx
	popq	%r14
	popq	%rbp
	.cfi_def_cfa %rsp, 8
	retq
.LBB35_6:                               # %func_get_smallest_poc.243
	.cfi_def_cfa %rbp, 16
	movq	%rbx, %rdi
	movq	%r14, %rsi
	callq	get_smallest_poc.243
	popq	%rbx
	popq	%r14
	popq	%rbp
	.cfi_def_cfa %rsp, 8
	retq
.LBB35_7:                               # %ctrl0
	.cfi_def_cfa %rbp, 16
	cmpl	$1, %eax
	je	.LBB35_2
# %bb.8:                                # %ctrl1
	cmpl	$2, %eax
	je	.LBB35_3
# %bb.9:                                # %ctrl2
	cmpl	$3, %eax
	je	.LBB35_4
# %bb.10:                               # %ctrl3
	cmpl	$4, %eax
	je	.LBB35_5
	jmp	.LBB35_6
.Lfunc_end35:
	.size	get_smallest_poc, .Lfunc_end35-get_smallest_poc
	.cfi_endproc
                                        # -- End function
	.globl	replace_top_pic_with_frame # -- Begin function replace_top_pic_with_frame
	.p2align	4, 0x90
	.type	replace_top_pic_with_frame,@function
replace_top_pic_with_frame:             # @replace_top_pic_with_frame
	.cfi_startproc
# %bb.0:                                # %rand_bb
	pushq	%rbp
	.cfi_def_cfa_offset 16
	.cfi_offset %rbp, -16
	movq	%rsp, %rbp
	.cfi_def_cfa_register %rbp
	pushq	%rbx
	pushq	%rax
	.cfi_offset %rbx, -24
	movq	%rdi, %rbx
	callq	get_rand
	cmpl	$0, %eax
	jne	.LBB36_9
# %bb.1:                                # %func_replace_top_pic_with_frame.41
	movq	%rbx, %rdi
	callq	replace_top_pic_with_frame.41
	addq	$8, %rsp
	popq	%rbx
	popq	%rbp
	.cfi_def_cfa %rsp, 8
	retq
.LBB36_2:                               # %func_replace_top_pic_with_frame.67
	.cfi_def_cfa %rbp, 16
	movq	%rbx, %rdi
	callq	replace_top_pic_with_frame.67
	addq	$8, %rsp
	popq	%rbx
	popq	%rbp
	.cfi_def_cfa %rsp, 8
	retq
.LBB36_3:                               # %func_replace_top_pic_with_frame.82
	.cfi_def_cfa %rbp, 16
	movq	%rbx, %rdi
	callq	replace_top_pic_with_frame.82
	addq	$8, %rsp
	popq	%rbx
	popq	%rbp
	.cfi_def_cfa %rsp, 8
	retq
.LBB36_4:                               # %func_replace_top_pic_with_frame.153
	.cfi_def_cfa %rbp, 16
	movq	%rbx, %rdi
	callq	replace_top_pic_with_frame.153
	addq	$8, %rsp
	popq	%rbx
	popq	%rbp
	.cfi_def_cfa %rsp, 8
	retq
.LBB36_5:                               # %func_replace_top_pic_with_frame.226
	.cfi_def_cfa %rbp, 16
	movq	%rbx, %rdi
	callq	replace_top_pic_with_frame.226
	addq	$8, %rsp
	popq	%rbx
	popq	%rbp
	.cfi_def_cfa %rsp, 8
	retq
.LBB36_6:                               # %func_replace_top_pic_with_frame.248
	.cfi_def_cfa %rbp, 16
	movq	%rbx, %rdi
	callq	replace_top_pic_with_frame.248
	addq	$8, %rsp
	popq	%rbx
	popq	%rbp
	.cfi_def_cfa %rsp, 8
	retq
.LBB36_7:                               # %func_replace_top_pic_with_frame.263
	.cfi_def_cfa %rbp, 16
	movq	%rbx, %rdi
	callq	replace_top_pic_with_frame.263
	addq	$8, %rsp
	popq	%rbx
	popq	%rbp
	.cfi_def_cfa %rsp, 8
	retq
.LBB36_8:                               # %func_replace_top_pic_with_frame.265
	.cfi_def_cfa %rbp, 16
	movq	%rbx, %rdi
	callq	replace_top_pic_with_frame.265
	addq	$8, %rsp
	popq	%rbx
	popq	%rbp
	.cfi_def_cfa %rsp, 8
	retq
.LBB36_9:                               # %ctrl0
	.cfi_def_cfa %rbp, 16
	cmpl	$1, %eax
	je	.LBB36_2
# %bb.10:                               # %ctrl1
	cmpl	$2, %eax
	je	.LBB36_3
# %bb.11:                               # %ctrl2
	cmpl	$3, %eax
	je	.LBB36_4
# %bb.12:                               # %ctrl3
	cmpl	$4, %eax
	je	.LBB36_5
# %bb.13:                               # %ctrl4
	cmpl	$5, %eax
	je	.LBB36_6
# %bb.14:                               # %ctrl5
	cmpl	$6, %eax
	je	.LBB36_7
	jmp	.LBB36_8
.Lfunc_end36:
	.size	replace_top_pic_with_frame, .Lfunc_end36-replace_top_pic_with_frame
	.cfi_endproc
                                        # -- End function
	.globl	dpb_split_field         # -- Begin function dpb_split_field
	.p2align	4, 0x90
	.type	dpb_split_field,@function
dpb_split_field:                        # @dpb_split_field
	.cfi_startproc
# %bb.0:                                # %rand_bb
	pushq	%rbp
	.cfi_def_cfa_offset 16
	.cfi_offset %rbp, -16
	movq	%rsp, %rbp
	.cfi_def_cfa_register %rbp
	pushq	%rbx
	pushq	%rax
	.cfi_offset %rbx, -24
	movq	%rdi, %rbx
	callq	get_rand
	cmpl	$0, %eax
	jne	.LBB37_9
# %bb.1:                                # %func_dpb_split_field.11
	movq	%rbx, %rdi
	callq	dpb_split_field.11
	addq	$8, %rsp
	popq	%rbx
	popq	%rbp
	.cfi_def_cfa %rsp, 8
	retq
.LBB37_2:                               # %func_dpb_split_field.26
	.cfi_def_cfa %rbp, 16
	movq	%rbx, %rdi
	callq	dpb_split_field.26
	addq	$8, %rsp
	popq	%rbx
	popq	%rbp
	.cfi_def_cfa %rsp, 8
	retq
.LBB37_3:                               # %func_dpb_split_field.102
	.cfi_def_cfa %rbp, 16
	movq	%rbx, %rdi
	callq	dpb_split_field.102
	addq	$8, %rsp
	popq	%rbx
	popq	%rbp
	.cfi_def_cfa %rsp, 8
	retq
.LBB37_4:                               # %func_dpb_split_field.141
	.cfi_def_cfa %rbp, 16
	movq	%rbx, %rdi
	callq	dpb_split_field.141
	addq	$8, %rsp
	popq	%rbx
	popq	%rbp
	.cfi_def_cfa %rsp, 8
	retq
.LBB37_5:                               # %func_dpb_split_field.170
	.cfi_def_cfa %rbp, 16
	movq	%rbx, %rdi
	callq	dpb_split_field.170
	addq	$8, %rsp
	popq	%rbx
	popq	%rbp
	.cfi_def_cfa %rsp, 8
	retq
.LBB37_6:                               # %func_dpb_split_field.186
	.cfi_def_cfa %rbp, 16
	movq	%rbx, %rdi
	callq	dpb_split_field.186
	addq	$8, %rsp
	popq	%rbx
	popq	%rbp
	.cfi_def_cfa %rsp, 8
	retq
.LBB37_7:                               # %func_dpb_split_field.203
	.cfi_def_cfa %rbp, 16
	movq	%rbx, %rdi
	callq	dpb_split_field.203
	addq	$8, %rsp
	popq	%rbx
	popq	%rbp
	.cfi_def_cfa %rsp, 8
	retq
.LBB37_8:                               # %func_dpb_split_field.231
	.cfi_def_cfa %rbp, 16
	movq	%rbx, %rdi
	callq	dpb_split_field.231
	addq	$8, %rsp
	popq	%rbx
	popq	%rbp
	.cfi_def_cfa %rsp, 8
	retq
.LBB37_9:                               # %ctrl0
	.cfi_def_cfa %rbp, 16
	cmpl	$1, %eax
	je	.LBB37_2
# %bb.10:                               # %ctrl1
	cmpl	$2, %eax
	je	.LBB37_3
# %bb.11:                               # %ctrl2
	cmpl	$3, %eax
	je	.LBB37_4
# %bb.12:                               # %ctrl3
	cmpl	$4, %eax
	je	.LBB37_5
# %bb.13:                               # %ctrl4
	cmpl	$5, %eax
	je	.LBB37_6
# %bb.14:                               # %ctrl5
	cmpl	$6, %eax
	je	.LBB37_7
	jmp	.LBB37_8
.Lfunc_end37:
	.size	dpb_split_field, .Lfunc_end37-dpb_split_field
	.cfi_endproc
                                        # -- End function
	.globl	flush_dpb               # -- Begin function flush_dpb
	.p2align	4, 0x90
	.type	flush_dpb,@function
flush_dpb:                              # @flush_dpb
	.cfi_startproc
# %bb.0:                                # %entry
	pushq	%rbp
	.cfi_def_cfa_offset 16
	.cfi_offset %rbp, -16
	movq	%rsp, %rbp
	.cfi_def_cfa_register %rbp
	subq	$16, %rsp
	movl	$0, -4(%rbp)
.LBB38_1:                               # %for.cond
                                        # =>This Inner Loop Header: Depth=1
	movl	-4(%rbp), %eax
	cmpl	dpb+28, %eax
	jae	.LBB38_4
# %bb.2:                                # %for.body
                                        #   in Loop: Header=BB38_1 Depth=1
	movq	dpb, %rax
	movl	-4(%rbp), %ecx
	movq	(%rax,%rcx,8), %rdi
	callq	unmark_for_reference
# %bb.3:                                # %for.inc
                                        #   in Loop: Header=BB38_1 Depth=1
	movl	-4(%rbp), %eax
	addl	$1, %eax
	movl	%eax, -4(%rbp)
	jmp	.LBB38_1
.LBB38_4:                               # %for.end
	jmp	.LBB38_5
.LBB38_5:                               # %while.cond
                                        # =>This Inner Loop Header: Depth=1
	callq	remove_unused_frame_from_dpb
	cmpl	$0, %eax
	je	.LBB38_7
# %bb.6:                                # %while.body
                                        #   in Loop: Header=BB38_5 Depth=1
	jmp	.LBB38_5
.LBB38_7:                               # %while.end
	jmp	.LBB38_8
.LBB38_8:                               # %while.cond1
                                        # =>This Inner Loop Header: Depth=1
	cmpl	$0, dpb+28
	je	.LBB38_10
# %bb.9:                                # %while.body3
                                        #   in Loop: Header=BB38_8 Depth=1
	callq	output_one_frame_from_dpb
	jmp	.LBB38_8
.LBB38_10:                              # %while.end4
	movl	$-2147483648, dpb+40    # imm = 0x80000000
	addq	$16, %rsp
	popq	%rbp
	.cfi_def_cfa %rsp, 8
	retq
.Lfunc_end38:
	.size	flush_dpb, .Lfunc_end38-flush_dpb
	.cfi_endproc
                                        # -- End function
	.p2align	4, 0x90         # -- Begin function unmark_for_reference
	.type	unmark_for_reference,@function
unmark_for_reference:                   # @unmark_for_reference
	.cfi_startproc
# %bb.0:                                # %entry
	pushq	%rbp
	.cfi_def_cfa_offset 16
	.cfi_offset %rbp, -16
	movq	%rsp, %rbp
	.cfi_def_cfa_register %rbp
	subq	$16, %rsp
	movq	%rdi, -8(%rbp)
	movq	active_sps, %rax
	cmpl	$0, 1148(%rax)
	jne	.LBB39_6
# %bb.1:                                # %if.then
	movq	-8(%rbp), %rax
	movl	(%rax), %eax
	andl	$1, %eax
	cmpl	$0, %eax
	je	.LBB39_3
# %bb.2:                                # %if.then2
	movq	-8(%rbp), %rax
	movq	48(%rax), %rax
	movl	$0, 6380(%rax)
.LBB39_3:                               # %if.end
	movq	-8(%rbp), %rax
	movl	(%rax), %eax
	andl	$2, %eax
	cmpl	$0, %eax
	je	.LBB39_5
# %bb.4:                                # %if.then6
	movq	-8(%rbp), %rax
	movq	56(%rax), %rax
	movl	$0, 6380(%rax)
.LBB39_5:                               # %if.end8
	jmp	.LBB39_6
.LBB39_6:                               # %if.end9
	movq	-8(%rbp), %rax
	cmpl	$3, (%rax)
	jne	.LBB39_10
# %bb.7:                                # %if.then11
	movq	active_sps, %rax
	cmpl	$0, 1148(%rax)
	jne	.LBB39_9
# %bb.8:                                # %if.then14
	movq	-8(%rbp), %rax
	movq	48(%rax), %rax
	movl	$0, 6380(%rax)
	movq	-8(%rbp), %rax
	movq	56(%rax), %rax
	movl	$0, 6380(%rax)
.LBB39_9:                               # %if.end19
	movq	-8(%rbp), %rax
	movq	40(%rax), %rax
	movl	$0, 6380(%rax)
.LBB39_10:                              # %if.end21
	movq	-8(%rbp), %rax
	movl	$0, 4(%rax)
	movq	-8(%rbp), %rax
	movq	40(%rax), %rax
	cmpq	$0, 6456(%rax)
	je	.LBB39_12
# %bb.11:                               # %if.then24
	movq	-8(%rbp), %rax
	movq	40(%rax), %rax
	movq	6456(%rax), %rdi
	callq	free_mem2Dpel
	movq	-8(%rbp), %rax
	movq	40(%rax), %rax
	movq	$0, 6456(%rax)
.LBB39_12:                              # %if.end29
	movq	-8(%rbp), %rax
	movq	40(%rax), %rax
	cmpq	$0, 6448(%rax)
	je	.LBB39_14
# %bb.13:                               # %if.then32
	movq	-8(%rbp), %rax
	movq	40(%rax), %rax
	movq	6448(%rax), %rdi
	callq	free_mem2Dpel
	movq	-8(%rbp), %rax
	movq	40(%rax), %rax
	movq	$0, 6448(%rax)
.LBB39_14:                              # %if.end37
	movq	-8(%rbp), %rax
	movq	40(%rax), %rax
	cmpq	$0, 6440(%rax)
	je	.LBB39_16
# %bb.15:                               # %if.then40
	movq	-8(%rbp), %rax
	movq	40(%rax), %rax
	movq	6440(%rax), %rdi
	callq	free
	movq	-8(%rbp), %rax
	movq	40(%rax), %rax
	movq	$0, 6440(%rax)
.LBB39_16:                              # %if.end45
	addq	$16, %rsp
	popq	%rbp
	.cfi_def_cfa %rsp, 8
	retq
.Lfunc_end39:
	.size	unmark_for_reference, .Lfunc_end39-unmark_for_reference
	.cfi_endproc
                                        # -- End function
	.globl	gen_field_ref_ids       # -- Begin function gen_field_ref_ids
	.p2align	4, 0x90
	.type	gen_field_ref_ids,@function
gen_field_ref_ids:                      # @gen_field_ref_ids
	.cfi_startproc
# %bb.0:                                # %rand_bb
	pushq	%rbp
	.cfi_def_cfa_offset 16
	.cfi_offset %rbp, -16
	movq	%rsp, %rbp
	.cfi_def_cfa_register %rbp
	pushq	%rbx
	pushq	%rax
	.cfi_offset %rbx, -24
	movq	%rdi, %rbx
	callq	get_rand
	cmpl	$0, %eax
	jne	.LBB40_9
# %bb.1:                                # %func_gen_field_ref_ids.10
	movq	%rbx, %rdi
	callq	gen_field_ref_ids.10
	addq	$8, %rsp
	popq	%rbx
	popq	%rbp
	.cfi_def_cfa %rsp, 8
	retq
.LBB40_2:                               # %func_gen_field_ref_ids.21
	.cfi_def_cfa %rbp, 16
	movq	%rbx, %rdi
	callq	gen_field_ref_ids.21
	addq	$8, %rsp
	popq	%rbx
	popq	%rbp
	.cfi_def_cfa %rsp, 8
	retq
.LBB40_3:                               # %func_gen_field_ref_ids.58
	.cfi_def_cfa %rbp, 16
	movq	%rbx, %rdi
	callq	gen_field_ref_ids.58
	addq	$8, %rsp
	popq	%rbx
	popq	%rbp
	.cfi_def_cfa %rsp, 8
	retq
.LBB40_4:                               # %func_gen_field_ref_ids.118
	.cfi_def_cfa %rbp, 16
	movq	%rbx, %rdi
	callq	gen_field_ref_ids.118
	addq	$8, %rsp
	popq	%rbx
	popq	%rbp
	.cfi_def_cfa %rsp, 8
	retq
.LBB40_5:                               # %func_gen_field_ref_ids.144
	.cfi_def_cfa %rbp, 16
	movq	%rbx, %rdi
	callq	gen_field_ref_ids.144
	addq	$8, %rsp
	popq	%rbx
	popq	%rbp
	.cfi_def_cfa %rsp, 8
	retq
.LBB40_6:                               # %func_gen_field_ref_ids.160
	.cfi_def_cfa %rbp, 16
	movq	%rbx, %rdi
	callq	gen_field_ref_ids.160
	addq	$8, %rsp
	popq	%rbx
	popq	%rbp
	.cfi_def_cfa %rsp, 8
	retq
.LBB40_7:                               # %func_gen_field_ref_ids.174
	.cfi_def_cfa %rbp, 16
	movq	%rbx, %rdi
	callq	gen_field_ref_ids.174
	addq	$8, %rsp
	popq	%rbx
	popq	%rbp
	.cfi_def_cfa %rsp, 8
	retq
.LBB40_8:                               # %func_gen_field_ref_ids.182
	.cfi_def_cfa %rbp, 16
	movq	%rbx, %rdi
	callq	gen_field_ref_ids.182
	addq	$8, %rsp
	popq	%rbx
	popq	%rbp
	.cfi_def_cfa %rsp, 8
	retq
.LBB40_9:                               # %ctrl0
	.cfi_def_cfa %rbp, 16
	cmpl	$1, %eax
	je	.LBB40_2
# %bb.10:                               # %ctrl1
	cmpl	$2, %eax
	je	.LBB40_3
# %bb.11:                               # %ctrl2
	cmpl	$3, %eax
	je	.LBB40_4
# %bb.12:                               # %ctrl3
	cmpl	$4, %eax
	je	.LBB40_5
# %bb.13:                               # %ctrl4
	cmpl	$5, %eax
	je	.LBB40_6
# %bb.14:                               # %ctrl5
	cmpl	$6, %eax
	je	.LBB40_7
	jmp	.LBB40_8
.Lfunc_end40:
	.size	gen_field_ref_ids, .Lfunc_end40-gen_field_ref_ids
	.cfi_endproc
                                        # -- End function
	.globl	dpb_combine_field       # -- Begin function dpb_combine_field
	.p2align	4, 0x90
	.type	dpb_combine_field,@function
dpb_combine_field:                      # @dpb_combine_field
	.cfi_startproc
# %bb.0:                                # %rand_bb
	pushq	%rbp
	.cfi_def_cfa_offset 16
	.cfi_offset %rbp, -16
	movq	%rsp, %rbp
	.cfi_def_cfa_register %rbp
	pushq	%rbx
	pushq	%rax
	.cfi_offset %rbx, -24
	movq	%rdi, %rbx
	callq	get_rand
	cmpl	$0, %eax
	jne	.LBB41_9
# %bb.1:                                # %func_dpb_combine_field.36
	movq	%rbx, %rdi
	callq	dpb_combine_field.36
	addq	$8, %rsp
	popq	%rbx
	popq	%rbp
	.cfi_def_cfa %rsp, 8
	retq
.LBB41_2:                               # %func_dpb_combine_field.60
	.cfi_def_cfa %rbp, 16
	movq	%rbx, %rdi
	callq	dpb_combine_field.60
	addq	$8, %rsp
	popq	%rbx
	popq	%rbp
	.cfi_def_cfa %rsp, 8
	retq
.LBB41_3:                               # %func_dpb_combine_field.98
	.cfi_def_cfa %rbp, 16
	movq	%rbx, %rdi
	callq	dpb_combine_field.98
	addq	$8, %rsp
	popq	%rbx
	popq	%rbp
	.cfi_def_cfa %rsp, 8
	retq
.LBB41_4:                               # %func_dpb_combine_field.103
	.cfi_def_cfa %rbp, 16
	movq	%rbx, %rdi
	callq	dpb_combine_field.103
	addq	$8, %rsp
	popq	%rbx
	popq	%rbp
	.cfi_def_cfa %rsp, 8
	retq
.LBB41_5:                               # %func_dpb_combine_field.113
	.cfi_def_cfa %rbp, 16
	movq	%rbx, %rdi
	callq	dpb_combine_field.113
	addq	$8, %rsp
	popq	%rbx
	popq	%rbp
	.cfi_def_cfa %rsp, 8
	retq
.LBB41_6:                               # %func_dpb_combine_field.178
	.cfi_def_cfa %rbp, 16
	movq	%rbx, %rdi
	callq	dpb_combine_field.178
	addq	$8, %rsp
	popq	%rbx
	popq	%rbp
	.cfi_def_cfa %rsp, 8
	retq
.LBB41_7:                               # %func_dpb_combine_field.198
	.cfi_def_cfa %rbp, 16
	movq	%rbx, %rdi
	callq	dpb_combine_field.198
	addq	$8, %rsp
	popq	%rbx
	popq	%rbp
	.cfi_def_cfa %rsp, 8
	retq
.LBB41_8:                               # %func_dpb_combine_field.228
	.cfi_def_cfa %rbp, 16
	movq	%rbx, %rdi
	callq	dpb_combine_field.228
	addq	$8, %rsp
	popq	%rbx
	popq	%rbp
	.cfi_def_cfa %rsp, 8
	retq
.LBB41_9:                               # %ctrl0
	.cfi_def_cfa %rbp, 16
	cmpl	$1, %eax
	je	.LBB41_2
# %bb.10:                               # %ctrl1
	cmpl	$2, %eax
	je	.LBB41_3
# %bb.11:                               # %ctrl2
	cmpl	$3, %eax
	je	.LBB41_4
# %bb.12:                               # %ctrl3
	cmpl	$4, %eax
	je	.LBB41_5
# %bb.13:                               # %ctrl4
	cmpl	$5, %eax
	je	.LBB41_6
# %bb.14:                               # %ctrl5
	cmpl	$6, %eax
	je	.LBB41_7
	jmp	.LBB41_8
.Lfunc_end41:
	.size	dpb_combine_field, .Lfunc_end41-dpb_combine_field
	.cfi_endproc
                                        # -- End function
	.globl	alloc_ref_pic_list_reordering_buffer # -- Begin function alloc_ref_pic_list_reordering_buffer
	.p2align	4, 0x90
	.type	alloc_ref_pic_list_reordering_buffer,@function
alloc_ref_pic_list_reordering_buffer:   # @alloc_ref_pic_list_reordering_buffer
	.cfi_startproc
# %bb.0:                                # %rand_bb
	pushq	%rbp
	.cfi_def_cfa_offset 16
	.cfi_offset %rbp, -16
	movq	%rsp, %rbp
	.cfi_def_cfa_register %rbp
	pushq	%rbx
	pushq	%rax
	.cfi_offset %rbx, -24
	movq	%rdi, %rbx
	callq	get_rand
	cmpl	$0, %eax
	jne	.LBB42_2
# %bb.1:                                # %func_alloc_ref_pic_list_reordering_buffer.1
	movq	%rbx, %rdi
	callq	alloc_ref_pic_list_reordering_buffer.1
	addq	$8, %rsp
	popq	%rbx
	popq	%rbp
	.cfi_def_cfa %rsp, 8
	retq
.LBB42_2:                               # %func_alloc_ref_pic_list_reordering_buffer.96
	.cfi_def_cfa %rbp, 16
	movq	%rbx, %rdi
	callq	alloc_ref_pic_list_reordering_buffer.96
	addq	$8, %rsp
	popq	%rbx
	popq	%rbp
	.cfi_def_cfa %rsp, 8
	retq
.Lfunc_end42:
	.size	alloc_ref_pic_list_reordering_buffer, .Lfunc_end42-alloc_ref_pic_list_reordering_buffer
	.cfi_endproc
                                        # -- End function
	.globl	free_ref_pic_list_reordering_buffer # -- Begin function free_ref_pic_list_reordering_buffer
	.p2align	4, 0x90
	.type	free_ref_pic_list_reordering_buffer,@function
free_ref_pic_list_reordering_buffer:    # @free_ref_pic_list_reordering_buffer
	.cfi_startproc
# %bb.0:                                # %entry
	pushq	%rbp
	.cfi_def_cfa_offset 16
	.cfi_offset %rbp, -16
	movq	%rsp, %rbp
	.cfi_def_cfa_register %rbp
	subq	$16, %rsp
	movq	%rdi, -8(%rbp)
	movq	-8(%rbp), %rax
	cmpq	$0, 64(%rax)
	je	.LBB43_2
# %bb.1:                                # %if.then
	movq	-8(%rbp), %rax
	movq	64(%rax), %rdi
	callq	free
.LBB43_2:                               # %if.end
	movq	-8(%rbp), %rax
	cmpq	$0, 72(%rax)
	je	.LBB43_4
# %bb.3:                                # %if.then3
	movq	-8(%rbp), %rax
	movq	72(%rax), %rdi
	callq	free
.LBB43_4:                               # %if.end5
	movq	-8(%rbp), %rax
	cmpq	$0, 80(%rax)
	je	.LBB43_6
# %bb.5:                                # %if.then7
	movq	-8(%rbp), %rax
	movq	80(%rax), %rdi
	callq	free
.LBB43_6:                               # %if.end9
	movq	-8(%rbp), %rax
	movq	$0, 64(%rax)
	movq	-8(%rbp), %rax
	movq	$0, 72(%rax)
	movq	-8(%rbp), %rax
	movq	$0, 80(%rax)
	movq	-8(%rbp), %rax
	cmpq	$0, 96(%rax)
	je	.LBB43_8
# %bb.7:                                # %if.then14
	movq	-8(%rbp), %rax
	movq	96(%rax), %rdi
	callq	free
.LBB43_8:                               # %if.end16
	movq	-8(%rbp), %rax
	cmpq	$0, 104(%rax)
	je	.LBB43_10
# %bb.9:                                # %if.then18
	movq	-8(%rbp), %rax
	movq	104(%rax), %rdi
	callq	free
.LBB43_10:                              # %if.end20
	movq	-8(%rbp), %rax
	cmpq	$0, 112(%rax)
	je	.LBB43_12
# %bb.11:                               # %if.then22
	movq	-8(%rbp), %rax
	movq	112(%rax), %rdi
	callq	free
.LBB43_12:                              # %if.end24
	movq	-8(%rbp), %rax
	movq	$0, 96(%rax)
	movq	-8(%rbp), %rax
	movq	$0, 104(%rax)
	movq	-8(%rbp), %rax
	movq	$0, 112(%rax)
	addq	$16, %rsp
	popq	%rbp
	.cfi_def_cfa %rsp, 8
	retq
.Lfunc_end43:
	.size	free_ref_pic_list_reordering_buffer, .Lfunc_end43-free_ref_pic_list_reordering_buffer
	.cfi_endproc
                                        # -- End function
	.globl	fill_frame_num_gap      # -- Begin function fill_frame_num_gap
	.p2align	4, 0x90
	.type	fill_frame_num_gap,@function
fill_frame_num_gap:                     # @fill_frame_num_gap
	.cfi_startproc
# %bb.0:                                # %rand_bb
	pushq	%rbp
	.cfi_def_cfa_offset 16
	.cfi_offset %rbp, -16
	movq	%rsp, %rbp
	.cfi_def_cfa_register %rbp
	pushq	%rbx
	pushq	%rax
	.cfi_offset %rbx, -24
	movq	%rdi, %rbx
	callq	get_rand
	cmpl	$0, %eax
	jne	.LBB44_9
# %bb.1:                                # %func_fill_frame_num_gap.217
	movq	%rbx, %rdi
	callq	fill_frame_num_gap.217
	addq	$8, %rsp
	popq	%rbx
	popq	%rbp
	.cfi_def_cfa %rsp, 8
	retq
.LBB44_2:                               # %func_fill_frame_num_gap.222
	.cfi_def_cfa %rbp, 16
	movq	%rbx, %rdi
	callq	fill_frame_num_gap.222
	addq	$8, %rsp
	popq	%rbx
	popq	%rbp
	.cfi_def_cfa %rsp, 8
	retq
.LBB44_3:                               # %func_fill_frame_num_gap.244
	.cfi_def_cfa %rbp, 16
	movq	%rbx, %rdi
	callq	fill_frame_num_gap.244
	addq	$8, %rsp
	popq	%rbx
	popq	%rbp
	.cfi_def_cfa %rsp, 8
	retq
.LBB44_4:                               # %func_fill_frame_num_gap.246
	.cfi_def_cfa %rbp, 16
	movq	%rbx, %rdi
	callq	fill_frame_num_gap.246
	addq	$8, %rsp
	popq	%rbx
	popq	%rbp
	.cfi_def_cfa %rsp, 8
	retq
.LBB44_5:                               # %func_fill_frame_num_gap.252
	.cfi_def_cfa %rbp, 16
	movq	%rbx, %rdi
	callq	fill_frame_num_gap.252
	addq	$8, %rsp
	popq	%rbx
	popq	%rbp
	.cfi_def_cfa %rsp, 8
	retq
.LBB44_6:                               # %func_fill_frame_num_gap.261
	.cfi_def_cfa %rbp, 16
	movq	%rbx, %rdi
	callq	fill_frame_num_gap.261
	addq	$8, %rsp
	popq	%rbx
	popq	%rbp
	.cfi_def_cfa %rsp, 8
	retq
.LBB44_7:                               # %func_fill_frame_num_gap.262
	.cfi_def_cfa %rbp, 16
	movq	%rbx, %rdi
	callq	fill_frame_num_gap.262
	addq	$8, %rsp
	popq	%rbx
	popq	%rbp
	.cfi_def_cfa %rsp, 8
	retq
.LBB44_8:                               # %func_fill_frame_num_gap.264
	.cfi_def_cfa %rbp, 16
	movq	%rbx, %rdi
	callq	fill_frame_num_gap.264
	addq	$8, %rsp
	popq	%rbx
	popq	%rbp
	.cfi_def_cfa %rsp, 8
	retq
.LBB44_9:                               # %ctrl0
	.cfi_def_cfa %rbp, 16
	cmpl	$1, %eax
	je	.LBB44_2
# %bb.10:                               # %ctrl1
	cmpl	$2, %eax
	je	.LBB44_3
# %bb.11:                               # %ctrl2
	cmpl	$3, %eax
	je	.LBB44_4
# %bb.12:                               # %ctrl3
	cmpl	$4, %eax
	je	.LBB44_5
# %bb.13:                               # %ctrl4
	cmpl	$5, %eax
	je	.LBB44_6
# %bb.14:                               # %ctrl5
	cmpl	$6, %eax
	je	.LBB44_7
	jmp	.LBB44_8
.Lfunc_end44:
	.size	fill_frame_num_gap, .Lfunc_end44-fill_frame_num_gap
	.cfi_endproc
                                        # -- End function
	.globl	alloc_colocated         # -- Begin function alloc_colocated
	.p2align	4, 0x90
	.type	alloc_colocated,@function
alloc_colocated:                        # @alloc_colocated
	.cfi_startproc
# %bb.0:                                # %rand_bb
	pushq	%rbp
	.cfi_def_cfa_offset 16
	.cfi_offset %rbp, -16
	movq	%rsp, %rbp
	.cfi_def_cfa_register %rbp
	pushq	%r15
	pushq	%r14
	pushq	%rbx
	pushq	%rax
	.cfi_offset %rbx, -40
	.cfi_offset %r14, -32
	.cfi_offset %r15, -24
	movl	%edx, %r14d
	movl	%esi, %r15d
	movl	%edi, %ebx
	callq	get_rand
	cmpl	$0, %eax
	jne	.LBB45_9
# %bb.1:                                # %func_alloc_colocated.7
	movl	%ebx, %edi
	movl	%r15d, %esi
	movl	%r14d, %edx
	callq	alloc_colocated.7
	addq	$8, %rsp
	popq	%rbx
	popq	%r14
	popq	%r15
	popq	%rbp
	.cfi_def_cfa %rsp, 8
	retq
.LBB45_2:                               # %func_alloc_colocated.12
	.cfi_def_cfa %rbp, 16
	movl	%ebx, %edi
	movl	%r15d, %esi
	movl	%r14d, %edx
	callq	alloc_colocated.12
	addq	$8, %rsp
	popq	%rbx
	popq	%r14
	popq	%r15
	popq	%rbp
	.cfi_def_cfa %rsp, 8
	retq
.LBB45_3:                               # %func_alloc_colocated.48
	.cfi_def_cfa %rbp, 16
	movl	%ebx, %edi
	movl	%r15d, %esi
	movl	%r14d, %edx
	callq	alloc_colocated.48
	addq	$8, %rsp
	popq	%rbx
	popq	%r14
	popq	%r15
	popq	%rbp
	.cfi_def_cfa %rsp, 8
	retq
.LBB45_4:                               # %func_alloc_colocated.70
	.cfi_def_cfa %rbp, 16
	movl	%ebx, %edi
	movl	%r15d, %esi
	movl	%r14d, %edx
	callq	alloc_colocated.70
	addq	$8, %rsp
	popq	%rbx
	popq	%r14
	popq	%r15
	popq	%rbp
	.cfi_def_cfa %rsp, 8
	retq
.LBB45_5:                               # %func_alloc_colocated.120
	.cfi_def_cfa %rbp, 16
	movl	%ebx, %edi
	movl	%r15d, %esi
	movl	%r14d, %edx
	callq	alloc_colocated.120
	addq	$8, %rsp
	popq	%rbx
	popq	%r14
	popq	%r15
	popq	%rbp
	.cfi_def_cfa %rsp, 8
	retq
.LBB45_6:                               # %func_alloc_colocated.137
	.cfi_def_cfa %rbp, 16
	movl	%ebx, %edi
	movl	%r15d, %esi
	movl	%r14d, %edx
	callq	alloc_colocated.137
	addq	$8, %rsp
	popq	%rbx
	popq	%r14
	popq	%r15
	popq	%rbp
	.cfi_def_cfa %rsp, 8
	retq
.LBB45_7:                               # %func_alloc_colocated.181
	.cfi_def_cfa %rbp, 16
	movl	%ebx, %edi
	movl	%r15d, %esi
	movl	%r14d, %edx
	callq	alloc_colocated.181
	addq	$8, %rsp
	popq	%rbx
	popq	%r14
	popq	%r15
	popq	%rbp
	.cfi_def_cfa %rsp, 8
	retq
.LBB45_8:                               # %func_alloc_colocated.195
	.cfi_def_cfa %rbp, 16
	movl	%ebx, %edi
	movl	%r15d, %esi
	movl	%r14d, %edx
	callq	alloc_colocated.195
	addq	$8, %rsp
	popq	%rbx
	popq	%r14
	popq	%r15
	popq	%rbp
	.cfi_def_cfa %rsp, 8
	retq
.LBB45_9:                               # %ctrl0
	.cfi_def_cfa %rbp, 16
	cmpl	$1, %eax
	je	.LBB45_2
# %bb.10:                               # %ctrl1
	cmpl	$2, %eax
	je	.LBB45_3
# %bb.11:                               # %ctrl2
	cmpl	$3, %eax
	je	.LBB45_4
# %bb.12:                               # %ctrl3
	cmpl	$4, %eax
	je	.LBB45_5
# %bb.13:                               # %ctrl4
	cmpl	$5, %eax
	je	.LBB45_6
# %bb.14:                               # %ctrl5
	cmpl	$6, %eax
	je	.LBB45_7
	jmp	.LBB45_8
.Lfunc_end45:
	.size	alloc_colocated, .Lfunc_end45-alloc_colocated
	.cfi_endproc
                                        # -- End function
	.globl	free_colocated          # -- Begin function free_colocated
	.p2align	4, 0x90
	.type	free_colocated,@function
free_colocated:                         # @free_colocated
	.cfi_startproc
# %bb.0:                                # %entry
	pushq	%rbp
	.cfi_def_cfa_offset 16
	.cfi_offset %rbp, -16
	movq	%rsp, %rbp
	.cfi_def_cfa_register %rbp
	subq	$16, %rsp
	movq	%rdi, -8(%rbp)
	cmpq	$0, -8(%rbp)
	je	.LBB46_12
# %bb.1:                                # %if.then
	movq	-8(%rbp), %rax
	movq	1600(%rax), %rdi
	movl	$2, %esi
	callq	free_mem3Dshort
	movq	-8(%rbp), %rax
	movq	1608(%rax), %rdi
	movl	$2, %esi
	callq	free_mem3Dint64
	movq	-8(%rbp), %rax
	movq	1616(%rax), %rdi
	movq	-8(%rbp), %rax
	movl	4(%rax), %eax
	cltd
	movl	$4, %ecx
	idivl	%ecx
	movl	$2, %esi
	movl	%eax, %edx
	callq	free_mem4Dshort
	movq	-8(%rbp), %rax
	cmpq	$0, 1624(%rax)
	je	.LBB46_3
# %bb.2:                                # %if.then2
	movq	-8(%rbp), %rax
	movq	1624(%rax), %rdi
	callq	free_mem2D
	movq	-8(%rbp), %rax
	movq	$0, 1624(%rax)
.LBB46_3:                               # %if.end
	movq	-8(%rbp), %rax
	cmpq	$0, 4872(%rax)
	je	.LBB46_5
# %bb.4:                                # %if.then6
	movq	-8(%rbp), %rax
	movq	4872(%rax), %rdi
	callq	free_mem2D
	movq	-8(%rbp), %rax
	movq	$0, 4872(%rax)
.LBB46_5:                               # %if.end9
	movq	-8(%rbp), %rax
	cmpl	$0, (%rax)
	je	.LBB46_11
# %bb.6:                                # %if.then11
	movq	-8(%rbp), %rax
	movq	3216(%rax), %rdi
	movl	$2, %esi
	callq	free_mem3Dshort
	movq	-8(%rbp), %rax
	movq	3224(%rax), %rdi
	movl	$2, %esi
	callq	free_mem3Dint64
	movq	-8(%rbp), %rax
	movq	3232(%rax), %rdi
	movq	-8(%rbp), %rax
	movl	4(%rax), %eax
	cltd
	movl	$4, %ecx
	idivl	%ecx
	movl	$2, %esi
	movl	%eax, %edx
	callq	free_mem4Dshort
	movq	-8(%rbp), %rax
	cmpq	$0, 3240(%rax)
	je	.LBB46_8
# %bb.7:                                # %if.then15
	movq	-8(%rbp), %rax
	movq	3240(%rax), %rdi
	callq	free_mem2D
	movq	-8(%rbp), %rax
	movq	$0, 3240(%rax)
.LBB46_8:                               # %if.end18
	movq	-8(%rbp), %rax
	movq	4832(%rax), %rdi
	movl	$2, %esi
	callq	free_mem3Dshort
	movq	-8(%rbp), %rax
	movq	4840(%rax), %rdi
	movl	$2, %esi
	callq	free_mem3Dint64
	movq	-8(%rbp), %rax
	movq	4848(%rax), %rdi
	movq	-8(%rbp), %rax
	movl	4(%rax), %eax
	cltd
	movl	$4, %ecx
	idivl	%ecx
	movl	$2, %esi
	movl	%eax, %edx
	callq	free_mem4Dshort
	movq	-8(%rbp), %rax
	cmpq	$0, 4856(%rax)
	je	.LBB46_10
# %bb.9:                                # %if.then22
	movq	-8(%rbp), %rax
	movq	4856(%rax), %rdi
	callq	free_mem2D
	movq	-8(%rbp), %rax
	movq	$0, 4856(%rax)
.LBB46_10:                              # %if.end25
	jmp	.LBB46_11
.LBB46_11:                              # %if.end26
	movq	-8(%rbp), %rdi
	callq	free
	movq	$0, -8(%rbp)
.LBB46_12:                              # %if.end27
	addq	$16, %rsp
	popq	%rbp
	.cfi_def_cfa %rsp, 8
	retq
.Lfunc_end46:
	.size	free_colocated, .Lfunc_end46-free_colocated
	.cfi_endproc
                                        # -- End function
	.globl	compute_colocated       # -- Begin function compute_colocated
	.p2align	4, 0x90
	.type	compute_colocated,@function
compute_colocated:                      # @compute_colocated
	.cfi_startproc
# %bb.0:                                # %rand_bb
	pushq	%rbp
	.cfi_def_cfa_offset 16
	.cfi_offset %rbp, -16
	movq	%rsp, %rbp
	.cfi_def_cfa_register %rbp
	pushq	%r14
	pushq	%rbx
	.cfi_offset %rbx, -32
	.cfi_offset %r14, -24
	movq	%rsi, %r14
	movq	%rdi, %rbx
	callq	get_rand
	cmpl	$0, %eax
	jne	.LBB47_9
# %bb.1:                                # %func_compute_colocated.42
	movq	%rbx, %rdi
	movq	%r14, %rsi
	callq	compute_colocated.42
	popq	%rbx
	popq	%r14
	popq	%rbp
	.cfi_def_cfa %rsp, 8
	retq
.LBB47_2:                               # %func_compute_colocated.75
	.cfi_def_cfa %rbp, 16
	movq	%rbx, %rdi
	movq	%r14, %rsi
	callq	compute_colocated.75
	popq	%rbx
	popq	%r14
	popq	%rbp
	.cfi_def_cfa %rsp, 8
	retq
.LBB47_3:                               # %func_compute_colocated.148
	.cfi_def_cfa %rbp, 16
	movq	%rbx, %rdi
	movq	%r14, %rsi
	callq	compute_colocated.148
	popq	%rbx
	popq	%r14
	popq	%rbp
	.cfi_def_cfa %rsp, 8
	retq
.LBB47_4:                               # %func_compute_colocated.205
	.cfi_def_cfa %rbp, 16
	movq	%rbx, %rdi
	movq	%r14, %rsi
	callq	compute_colocated.205
	popq	%rbx
	popq	%r14
	popq	%rbp
	.cfi_def_cfa %rsp, 8
	retq
.LBB47_5:                               # %func_compute_colocated.212
	.cfi_def_cfa %rbp, 16
	movq	%rbx, %rdi
	movq	%r14, %rsi
	callq	compute_colocated.212
	popq	%rbx
	popq	%r14
	popq	%rbp
	.cfi_def_cfa %rsp, 8
	retq
.LBB47_6:                               # %func_compute_colocated.223
	.cfi_def_cfa %rbp, 16
	movq	%rbx, %rdi
	movq	%r14, %rsi
	callq	compute_colocated.223
	popq	%rbx
	popq	%r14
	popq	%rbp
	.cfi_def_cfa %rsp, 8
	retq
.LBB47_7:                               # %func_compute_colocated.240
	.cfi_def_cfa %rbp, 16
	movq	%rbx, %rdi
	movq	%r14, %rsi
	callq	compute_colocated.240
	popq	%rbx
	popq	%r14
	popq	%rbp
	.cfi_def_cfa %rsp, 8
	retq
.LBB47_8:                               # %func_compute_colocated.247
	.cfi_def_cfa %rbp, 16
	movq	%rbx, %rdi
	movq	%r14, %rsi
	callq	compute_colocated.247
	popq	%rbx
	popq	%r14
	popq	%rbp
	.cfi_def_cfa %rsp, 8
	retq
.LBB47_9:                               # %ctrl0
	.cfi_def_cfa %rbp, 16
	cmpl	$1, %eax
	je	.LBB47_2
# %bb.10:                               # %ctrl1
	cmpl	$2, %eax
	je	.LBB47_3
# %bb.11:                               # %ctrl2
	cmpl	$3, %eax
	je	.LBB47_4
# %bb.12:                               # %ctrl3
	cmpl	$4, %eax
	je	.LBB47_5
# %bb.13:                               # %ctrl4
	cmpl	$5, %eax
	je	.LBB47_6
# %bb.14:                               # %ctrl5
	cmpl	$6, %eax
	je	.LBB47_7
	jmp	.LBB47_8
.Lfunc_end47:
	.size	compute_colocated, .Lfunc_end47-compute_colocated
	.cfi_endproc
                                        # -- End function
	.p2align	4, 0x90         # -- Begin function get_short_term_pic
	.type	get_short_term_pic,@function
get_short_term_pic:                     # @get_short_term_pic
	.cfi_startproc
# %bb.0:                                # %rand_bb
	pushq	%rbp
	.cfi_def_cfa_offset 16
	.cfi_offset %rbp, -16
	movq	%rsp, %rbp
	.cfi_def_cfa_register %rbp
	pushq	%rbx
	pushq	%rax
	.cfi_offset %rbx, -24
	movl	%edi, %ebx
	callq	get_rand
	cmpl	$0, %eax
	jne	.LBB48_7
# %bb.1:                                # %func_get_short_term_pic.65
	movl	%ebx, %edi
	callq	get_short_term_pic.65
	addq	$8, %rsp
	popq	%rbx
	popq	%rbp
	.cfi_def_cfa %rsp, 8
	retq
.LBB48_2:                               # %func_get_short_term_pic.77
	.cfi_def_cfa %rbp, 16
	movl	%ebx, %edi
	callq	get_short_term_pic.77
	addq	$8, %rsp
	popq	%rbx
	popq	%rbp
	.cfi_def_cfa %rsp, 8
	retq
.LBB48_3:                               # %func_get_short_term_pic.143
	.cfi_def_cfa %rbp, 16
	movl	%ebx, %edi
	callq	get_short_term_pic.143
	addq	$8, %rsp
	popq	%rbx
	popq	%rbp
	.cfi_def_cfa %rsp, 8
	retq
.LBB48_4:                               # %func_get_short_term_pic.159
	.cfi_def_cfa %rbp, 16
	movl	%ebx, %edi
	callq	get_short_term_pic.159
	addq	$8, %rsp
	popq	%rbx
	popq	%rbp
	.cfi_def_cfa %rsp, 8
	retq
.LBB48_5:                               # %func_get_short_term_pic.180
	.cfi_def_cfa %rbp, 16
	movl	%ebx, %edi
	callq	get_short_term_pic.180
	addq	$8, %rsp
	popq	%rbx
	popq	%rbp
	.cfi_def_cfa %rsp, 8
	retq
.LBB48_6:                               # %func_get_short_term_pic.197
	.cfi_def_cfa %rbp, 16
	movl	%ebx, %edi
	callq	get_short_term_pic.197
	addq	$8, %rsp
	popq	%rbx
	popq	%rbp
	.cfi_def_cfa %rsp, 8
	retq
.LBB48_7:                               # %ctrl0
	.cfi_def_cfa %rbp, 16
	cmpl	$1, %eax
	je	.LBB48_2
# %bb.8:                                # %ctrl1
	cmpl	$2, %eax
	je	.LBB48_3
# %bb.9:                                # %ctrl2
	cmpl	$3, %eax
	je	.LBB48_4
# %bb.10:                               # %ctrl3
	cmpl	$4, %eax
	je	.LBB48_5
	jmp	.LBB48_6
.Lfunc_end48:
	.size	get_short_term_pic, .Lfunc_end48-get_short_term_pic
	.cfi_endproc
                                        # -- End function
	.p2align	4, 0x90         # -- Begin function get_long_term_pic
	.type	get_long_term_pic,@function
get_long_term_pic:                      # @get_long_term_pic
	.cfi_startproc
# %bb.0:                                # %rand_bb
	pushq	%rbp
	.cfi_def_cfa_offset 16
	.cfi_offset %rbp, -16
	movq	%rsp, %rbp
	.cfi_def_cfa_register %rbp
	pushq	%rbx
	pushq	%rax
	.cfi_offset %rbx, -24
	movl	%edi, %ebx
	callq	get_rand
	cmpl	$0, %eax
	jne	.LBB49_7
# %bb.1:                                # %func_get_long_term_pic.22
	movl	%ebx, %edi
	callq	get_long_term_pic.22
	addq	$8, %rsp
	popq	%rbx
	popq	%rbp
	.cfi_def_cfa %rsp, 8
	retq
.LBB49_2:                               # %func_get_long_term_pic.34
	.cfi_def_cfa %rbp, 16
	movl	%ebx, %edi
	callq	get_long_term_pic.34
	addq	$8, %rsp
	popq	%rbx
	popq	%rbp
	.cfi_def_cfa %rsp, 8
	retq
.LBB49_3:                               # %func_get_long_term_pic.61
	.cfi_def_cfa %rbp, 16
	movl	%ebx, %edi
	callq	get_long_term_pic.61
	addq	$8, %rsp
	popq	%rbx
	popq	%rbp
	.cfi_def_cfa %rsp, 8
	retq
.LBB49_4:                               # %func_get_long_term_pic.81
	.cfi_def_cfa %rbp, 16
	movl	%ebx, %edi
	callq	get_long_term_pic.81
	addq	$8, %rsp
	popq	%rbx
	popq	%rbp
	.cfi_def_cfa %rsp, 8
	retq
.LBB49_5:                               # %func_get_long_term_pic.130
	.cfi_def_cfa %rbp, 16
	movl	%ebx, %edi
	callq	get_long_term_pic.130
	addq	$8, %rsp
	popq	%rbx
	popq	%rbp
	.cfi_def_cfa %rsp, 8
	retq
.LBB49_6:                               # %func_get_long_term_pic.157
	.cfi_def_cfa %rbp, 16
	movl	%ebx, %edi
	callq	get_long_term_pic.157
	addq	$8, %rsp
	popq	%rbx
	popq	%rbp
	.cfi_def_cfa %rsp, 8
	retq
.LBB49_7:                               # %ctrl0
	.cfi_def_cfa %rbp, 16
	cmpl	$1, %eax
	je	.LBB49_2
# %bb.8:                                # %ctrl1
	cmpl	$2, %eax
	je	.LBB49_3
# %bb.9:                                # %ctrl2
	cmpl	$3, %eax
	je	.LBB49_4
# %bb.10:                               # %ctrl3
	cmpl	$4, %eax
	je	.LBB49_5
	jmp	.LBB49_6
.Lfunc_end49:
	.size	get_long_term_pic, .Lfunc_end49-get_long_term_pic
	.cfi_endproc
                                        # -- End function
	.p2align	4, 0x90         # -- Begin function mm_unmark_short_term_for_reference
	.type	mm_unmark_short_term_for_reference,@function
mm_unmark_short_term_for_reference:     # @mm_unmark_short_term_for_reference
	.cfi_startproc
# %bb.0:                                # %rand_bb
	pushq	%rbp
	.cfi_def_cfa_offset 16
	.cfi_offset %rbp, -16
	movq	%rsp, %rbp
	.cfi_def_cfa_register %rbp
	pushq	%r14
	pushq	%rbx
	.cfi_offset %rbx, -32
	.cfi_offset %r14, -24
	movl	%esi, %r14d
	movq	%rdi, %rbx
	callq	get_rand
	cmpl	$0, %eax
	jne	.LBB50_9
# %bb.1:                                # %func_mm_unmark_short_term_for_reference.27
	movq	%rbx, %rdi
	movl	%r14d, %esi
	callq	mm_unmark_short_term_for_reference.27
	popq	%rbx
	popq	%r14
	popq	%rbp
	.cfi_def_cfa %rsp, 8
	retq
.LBB50_2:                               # %func_mm_unmark_short_term_for_reference.99
	.cfi_def_cfa %rbp, 16
	movq	%rbx, %rdi
	movl	%r14d, %esi
	callq	mm_unmark_short_term_for_reference.99
	popq	%rbx
	popq	%r14
	popq	%rbp
	.cfi_def_cfa %rsp, 8
	retq
.LBB50_3:                               # %func_mm_unmark_short_term_for_reference.136
	.cfi_def_cfa %rbp, 16
	movq	%rbx, %rdi
	movl	%r14d, %esi
	callq	mm_unmark_short_term_for_reference.136
	popq	%rbx
	popq	%r14
	popq	%rbp
	.cfi_def_cfa %rsp, 8
	retq
.LBB50_4:                               # %func_mm_unmark_short_term_for_reference.236
	.cfi_def_cfa %rbp, 16
	movq	%rbx, %rdi
	movl	%r14d, %esi
	callq	mm_unmark_short_term_for_reference.236
	popq	%rbx
	popq	%r14
	popq	%rbp
	.cfi_def_cfa %rsp, 8
	retq
.LBB50_5:                               # %func_mm_unmark_short_term_for_reference.242
	.cfi_def_cfa %rbp, 16
	movq	%rbx, %rdi
	movl	%r14d, %esi
	callq	mm_unmark_short_term_for_reference.242
	popq	%rbx
	popq	%r14
	popq	%rbp
	.cfi_def_cfa %rsp, 8
	retq
.LBB50_6:                               # %func_mm_unmark_short_term_for_reference.249
	.cfi_def_cfa %rbp, 16
	movq	%rbx, %rdi
	movl	%r14d, %esi
	callq	mm_unmark_short_term_for_reference.249
	popq	%rbx
	popq	%r14
	popq	%rbp
	.cfi_def_cfa %rsp, 8
	retq
.LBB50_7:                               # %func_mm_unmark_short_term_for_reference.253
	.cfi_def_cfa %rbp, 16
	movq	%rbx, %rdi
	movl	%r14d, %esi
	callq	mm_unmark_short_term_for_reference.253
	popq	%rbx
	popq	%r14
	popq	%rbp
	.cfi_def_cfa %rsp, 8
	retq
.LBB50_8:                               # %func_mm_unmark_short_term_for_reference.259
	.cfi_def_cfa %rbp, 16
	movq	%rbx, %rdi
	movl	%r14d, %esi
	callq	mm_unmark_short_term_for_reference.259
	popq	%rbx
	popq	%r14
	popq	%rbp
	.cfi_def_cfa %rsp, 8
	retq
.LBB50_9:                               # %ctrl0
	.cfi_def_cfa %rbp, 16
	cmpl	$1, %eax
	je	.LBB50_2
# %bb.10:                               # %ctrl1
	cmpl	$2, %eax
	je	.LBB50_3
# %bb.11:                               # %ctrl2
	cmpl	$3, %eax
	je	.LBB50_4
# %bb.12:                               # %ctrl3
	cmpl	$4, %eax
	je	.LBB50_5
# %bb.13:                               # %ctrl4
	cmpl	$5, %eax
	je	.LBB50_6
# %bb.14:                               # %ctrl5
	cmpl	$6, %eax
	je	.LBB50_7
	jmp	.LBB50_8
.Lfunc_end50:
	.size	mm_unmark_short_term_for_reference, .Lfunc_end50-mm_unmark_short_term_for_reference
	.cfi_endproc
                                        # -- End function
	.p2align	4, 0x90         # -- Begin function mm_unmark_long_term_for_reference
	.type	mm_unmark_long_term_for_reference,@function
mm_unmark_long_term_for_reference:      # @mm_unmark_long_term_for_reference
	.cfi_startproc
# %bb.0:                                # %rand_bb
	pushq	%rbp
	.cfi_def_cfa_offset 16
	.cfi_offset %rbp, -16
	movq	%rsp, %rbp
	.cfi_def_cfa_register %rbp
	pushq	%r14
	pushq	%rbx
	.cfi_offset %rbx, -32
	.cfi_offset %r14, -24
	movl	%esi, %r14d
	movq	%rdi, %rbx
	callq	get_rand
	cmpl	$0, %eax
	jne	.LBB51_7
# %bb.1:                                # %func_mm_unmark_long_term_for_reference.4
	movq	%rbx, %rdi
	movl	%r14d, %esi
	callq	mm_unmark_long_term_for_reference.4
	popq	%rbx
	popq	%r14
	popq	%rbp
	.cfi_def_cfa %rsp, 8
	retq
.LBB51_2:                               # %func_mm_unmark_long_term_for_reference.49
	.cfi_def_cfa %rbp, 16
	movq	%rbx, %rdi
	movl	%r14d, %esi
	callq	mm_unmark_long_term_for_reference.49
	popq	%rbx
	popq	%r14
	popq	%rbp
	.cfi_def_cfa %rsp, 8
	retq
.LBB51_3:                               # %func_mm_unmark_long_term_for_reference.74
	.cfi_def_cfa %rbp, 16
	movq	%rbx, %rdi
	movl	%r14d, %esi
	callq	mm_unmark_long_term_for_reference.74
	popq	%rbx
	popq	%r14
	popq	%rbp
	.cfi_def_cfa %rsp, 8
	retq
.LBB51_4:                               # %func_mm_unmark_long_term_for_reference.93
	.cfi_def_cfa %rbp, 16
	movq	%rbx, %rdi
	movl	%r14d, %esi
	callq	mm_unmark_long_term_for_reference.93
	popq	%rbx
	popq	%r14
	popq	%rbp
	.cfi_def_cfa %rsp, 8
	retq
.LBB51_5:                               # %func_mm_unmark_long_term_for_reference.105
	.cfi_def_cfa %rbp, 16
	movq	%rbx, %rdi
	movl	%r14d, %esi
	callq	mm_unmark_long_term_for_reference.105
	popq	%rbx
	popq	%r14
	popq	%rbp
	.cfi_def_cfa %rsp, 8
	retq
.LBB51_6:                               # %func_mm_unmark_long_term_for_reference.109
	.cfi_def_cfa %rbp, 16
	movq	%rbx, %rdi
	movl	%r14d, %esi
	callq	mm_unmark_long_term_for_reference.109
	popq	%rbx
	popq	%r14
	popq	%rbp
	.cfi_def_cfa %rsp, 8
	retq
.LBB51_7:                               # %ctrl0
	.cfi_def_cfa %rbp, 16
	cmpl	$1, %eax
	je	.LBB51_2
# %bb.8:                                # %ctrl1
	cmpl	$2, %eax
	je	.LBB51_3
# %bb.9:                                # %ctrl2
	cmpl	$3, %eax
	je	.LBB51_4
# %bb.10:                               # %ctrl3
	cmpl	$4, %eax
	je	.LBB51_5
	jmp	.LBB51_6
.Lfunc_end51:
	.size	mm_unmark_long_term_for_reference, .Lfunc_end51-mm_unmark_long_term_for_reference
	.cfi_endproc
                                        # -- End function
	.p2align	4, 0x90         # -- Begin function mm_assign_long_term_frame_idx
	.type	mm_assign_long_term_frame_idx,@function
mm_assign_long_term_frame_idx:          # @mm_assign_long_term_frame_idx
	.cfi_startproc
# %bb.0:                                # %rand_bb
	pushq	%rbp
	.cfi_def_cfa_offset 16
	.cfi_offset %rbp, -16
	movq	%rsp, %rbp
	.cfi_def_cfa_register %rbp
	pushq	%r15
	pushq	%r14
	pushq	%rbx
	pushq	%rax
	.cfi_offset %rbx, -40
	.cfi_offset %r14, -32
	.cfi_offset %r15, -24
	movl	%edx, %r14d
	movl	%esi, %r15d
	movq	%rdi, %rbx
	callq	get_rand
	cmpl	$0, %eax
	jne	.LBB52_9
# %bb.1:                                # %func_mm_assign_long_term_frame_idx.29
	movq	%rbx, %rdi
	movl	%r15d, %esi
	movl	%r14d, %edx
	callq	mm_assign_long_term_frame_idx.29
	addq	$8, %rsp
	popq	%rbx
	popq	%r14
	popq	%r15
	popq	%rbp
	.cfi_def_cfa %rsp, 8
	retq
.LBB52_2:                               # %func_mm_assign_long_term_frame_idx.55
	.cfi_def_cfa %rbp, 16
	movq	%rbx, %rdi
	movl	%r15d, %esi
	movl	%r14d, %edx
	callq	mm_assign_long_term_frame_idx.55
	addq	$8, %rsp
	popq	%rbx
	popq	%r14
	popq	%r15
	popq	%rbp
	.cfi_def_cfa %rsp, 8
	retq
.LBB52_3:                               # %func_mm_assign_long_term_frame_idx.57
	.cfi_def_cfa %rbp, 16
	movq	%rbx, %rdi
	movl	%r15d, %esi
	movl	%r14d, %edx
	callq	mm_assign_long_term_frame_idx.57
	addq	$8, %rsp
	popq	%rbx
	popq	%r14
	popq	%r15
	popq	%rbp
	.cfi_def_cfa %rsp, 8
	retq
.LBB52_4:                               # %func_mm_assign_long_term_frame_idx.68
	.cfi_def_cfa %rbp, 16
	movq	%rbx, %rdi
	movl	%r15d, %esi
	movl	%r14d, %edx
	callq	mm_assign_long_term_frame_idx.68
	addq	$8, %rsp
	popq	%rbx
	popq	%r14
	popq	%r15
	popq	%rbp
	.cfi_def_cfa %rsp, 8
	retq
.LBB52_5:                               # %func_mm_assign_long_term_frame_idx.73
	.cfi_def_cfa %rbp, 16
	movq	%rbx, %rdi
	movl	%r15d, %esi
	movl	%r14d, %edx
	callq	mm_assign_long_term_frame_idx.73
	addq	$8, %rsp
	popq	%rbx
	popq	%r14
	popq	%r15
	popq	%rbp
	.cfi_def_cfa %rsp, 8
	retq
.LBB52_6:                               # %func_mm_assign_long_term_frame_idx.86
	.cfi_def_cfa %rbp, 16
	movq	%rbx, %rdi
	movl	%r15d, %esi
	movl	%r14d, %edx
	callq	mm_assign_long_term_frame_idx.86
	addq	$8, %rsp
	popq	%rbx
	popq	%r14
	popq	%r15
	popq	%rbp
	.cfi_def_cfa %rsp, 8
	retq
.LBB52_7:                               # %func_mm_assign_long_term_frame_idx.125
	.cfi_def_cfa %rbp, 16
	movq	%rbx, %rdi
	movl	%r15d, %esi
	movl	%r14d, %edx
	callq	mm_assign_long_term_frame_idx.125
	addq	$8, %rsp
	popq	%rbx
	popq	%r14
	popq	%r15
	popq	%rbp
	.cfi_def_cfa %rsp, 8
	retq
.LBB52_8:                               # %func_mm_assign_long_term_frame_idx.152
	.cfi_def_cfa %rbp, 16
	movq	%rbx, %rdi
	movl	%r15d, %esi
	movl	%r14d, %edx
	callq	mm_assign_long_term_frame_idx.152
	addq	$8, %rsp
	popq	%rbx
	popq	%r14
	popq	%r15
	popq	%rbp
	.cfi_def_cfa %rsp, 8
	retq
.LBB52_9:                               # %ctrl0
	.cfi_def_cfa %rbp, 16
	cmpl	$1, %eax
	je	.LBB52_2
# %bb.10:                               # %ctrl1
	cmpl	$2, %eax
	je	.LBB52_3
# %bb.11:                               # %ctrl2
	cmpl	$3, %eax
	je	.LBB52_4
# %bb.12:                               # %ctrl3
	cmpl	$4, %eax
	je	.LBB52_5
# %bb.13:                               # %ctrl4
	cmpl	$5, %eax
	je	.LBB52_6
# %bb.14:                               # %ctrl5
	cmpl	$6, %eax
	je	.LBB52_7
	jmp	.LBB52_8
.Lfunc_end52:
	.size	mm_assign_long_term_frame_idx, .Lfunc_end52-mm_assign_long_term_frame_idx
	.cfi_endproc
                                        # -- End function
	.p2align	4, 0x90         # -- Begin function mm_mark_current_picture_long_term
	.type	mm_mark_current_picture_long_term,@function
mm_mark_current_picture_long_term:      # @mm_mark_current_picture_long_term
	.cfi_startproc
# %bb.0:                                # %rand_bb
	pushq	%rbp
	.cfi_def_cfa_offset 16
	.cfi_offset %rbp, -16
	movq	%rsp, %rbp
	.cfi_def_cfa_register %rbp
	pushq	%r14
	pushq	%rbx
	.cfi_offset %rbx, -32
	.cfi_offset %r14, -24
	movl	%esi, %r14d
	movq	%rdi, %rbx
	callq	get_rand
	cmpl	$0, %eax
	jne	.LBB53_2
# %bb.1:                                # %func_mm_mark_current_picture_long_term.43
	movq	%rbx, %rdi
	movl	%r14d, %esi
	callq	mm_mark_current_picture_long_term.43
	popq	%rbx
	popq	%r14
	popq	%rbp
	.cfi_def_cfa %rsp, 8
	retq
.LBB53_2:                               # %func_mm_mark_current_picture_long_term.59
	.cfi_def_cfa %rbp, 16
	movq	%rbx, %rdi
	movl	%r14d, %esi
	callq	mm_mark_current_picture_long_term.59
	popq	%rbx
	popq	%r14
	popq	%rbp
	.cfi_def_cfa %rsp, 8
	retq
.Lfunc_end53:
	.size	mm_mark_current_picture_long_term, .Lfunc_end53-mm_mark_current_picture_long_term
	.cfi_endproc
                                        # -- End function
	.p2align	4, 0x90         # -- Begin function get_pic_num_x
	.type	get_pic_num_x,@function
get_pic_num_x:                          # @get_pic_num_x
	.cfi_startproc
# %bb.0:                                # %rand_bb
	pushq	%rbp
	.cfi_def_cfa_offset 16
	.cfi_offset %rbp, -16
	movq	%rsp, %rbp
	.cfi_def_cfa_register %rbp
	pushq	%r14
	pushq	%rbx
	.cfi_offset %rbx, -32
	.cfi_offset %r14, -24
	movl	%esi, %r14d
	movq	%rdi, %rbx
	callq	get_rand
	cmpl	$0, %eax
	jne	.LBB54_7
# %bb.1:                                # %func_get_pic_num_x.151
	movq	%rbx, %rdi
	movl	%r14d, %esi
	callq	get_pic_num_x.151
	popq	%rbx
	popq	%r14
	popq	%rbp
	.cfi_def_cfa %rsp, 8
	retq
.LBB54_2:                               # %func_get_pic_num_x.164
	.cfi_def_cfa %rbp, 16
	movq	%rbx, %rdi
	movl	%r14d, %esi
	callq	get_pic_num_x.164
	popq	%rbx
	popq	%r14
	popq	%rbp
	.cfi_def_cfa %rsp, 8
	retq
.LBB54_3:                               # %func_get_pic_num_x.175
	.cfi_def_cfa %rbp, 16
	movq	%rbx, %rdi
	movl	%r14d, %esi
	callq	get_pic_num_x.175
	popq	%rbx
	popq	%r14
	popq	%rbp
	.cfi_def_cfa %rsp, 8
	retq
.LBB54_4:                               # %func_get_pic_num_x.199
	.cfi_def_cfa %rbp, 16
	movq	%rbx, %rdi
	movl	%r14d, %esi
	callq	get_pic_num_x.199
	popq	%rbx
	popq	%r14
	popq	%rbp
	.cfi_def_cfa %rsp, 8
	retq
.LBB54_5:                               # %func_get_pic_num_x.216
	.cfi_def_cfa %rbp, 16
	movq	%rbx, %rdi
	movl	%r14d, %esi
	callq	get_pic_num_x.216
	popq	%rbx
	popq	%r14
	popq	%rbp
	.cfi_def_cfa %rsp, 8
	retq
.LBB54_6:                               # %func_get_pic_num_x.225
	.cfi_def_cfa %rbp, 16
	movq	%rbx, %rdi
	movl	%r14d, %esi
	callq	get_pic_num_x.225
	popq	%rbx
	popq	%r14
	popq	%rbp
	.cfi_def_cfa %rsp, 8
	retq
.LBB54_7:                               # %ctrl0
	.cfi_def_cfa %rbp, 16
	cmpl	$1, %eax
	je	.LBB54_2
# %bb.8:                                # %ctrl1
	cmpl	$2, %eax
	je	.LBB54_3
# %bb.9:                                # %ctrl2
	cmpl	$3, %eax
	je	.LBB54_4
# %bb.10:                               # %ctrl3
	cmpl	$4, %eax
	je	.LBB54_5
	jmp	.LBB54_6
.Lfunc_end54:
	.size	get_pic_num_x, .Lfunc_end54-get_pic_num_x
	.cfi_endproc
                                        # -- End function
	.p2align	4, 0x90         # -- Begin function unmark_long_term_frame_for_reference_by_frame_idx
	.type	unmark_long_term_frame_for_reference_by_frame_idx,@function
unmark_long_term_frame_for_reference_by_frame_idx: # @unmark_long_term_frame_for_reference_by_frame_idx
	.cfi_startproc
# %bb.0:                                # %rand_bb
	pushq	%rbp
	.cfi_def_cfa_offset 16
	.cfi_offset %rbp, -16
	movq	%rsp, %rbp
	.cfi_def_cfa_register %rbp
	pushq	%rbx
	pushq	%rax
	.cfi_offset %rbx, -24
	movl	%edi, %ebx
	callq	get_rand
	cmpl	$0, %eax
	jne	.LBB55_2
# %bb.1:                                # %func_unmark_long_term_frame_for_reference_by_frame_idx.78
	movl	%ebx, %edi
	callq	unmark_long_term_frame_for_reference_by_frame_idx.78
	addq	$8, %rsp
	popq	%rbx
	popq	%rbp
	.cfi_def_cfa %rsp, 8
	retq
.LBB55_2:                               # %func_unmark_long_term_frame_for_reference_by_frame_idx.112
	.cfi_def_cfa %rbp, 16
	movl	%ebx, %edi
	callq	unmark_long_term_frame_for_reference_by_frame_idx.112
	addq	$8, %rsp
	popq	%rbx
	popq	%rbp
	.cfi_def_cfa %rsp, 8
	retq
.Lfunc_end55:
	.size	unmark_long_term_frame_for_reference_by_frame_idx, .Lfunc_end55-unmark_long_term_frame_for_reference_by_frame_idx
	.cfi_endproc
                                        # -- End function
	.p2align	4, 0x90         # -- Begin function unmark_long_term_field_for_reference_by_frame_idx
	.type	unmark_long_term_field_for_reference_by_frame_idx,@function
unmark_long_term_field_for_reference_by_frame_idx: # @unmark_long_term_field_for_reference_by_frame_idx
	.cfi_startproc
# %bb.0:                                # %rand_bb
	pushq	%rbp
	.cfi_def_cfa_offset 16
	.cfi_offset %rbp, -16
	movq	%rsp, %rbp
	.cfi_def_cfa_register %rbp
	pushq	%r15
	pushq	%r14
	pushq	%r13
	pushq	%r12
	pushq	%rbx
	pushq	%rax
	.cfi_offset %rbx, -56
	.cfi_offset %r12, -48
	.cfi_offset %r13, -40
	.cfi_offset %r14, -32
	.cfi_offset %r15, -24
	movl	%r8d, %r14d
	movl	%ecx, %r15d
	movl	%edx, %r12d
	movl	%esi, %r13d
	movl	%edi, %ebx
	callq	get_rand
	cmpl	$0, %eax
	jne	.LBB56_9
# %bb.1:                                # %func_unmark_long_term_field_for_reference_by_frame_idx.53
	movl	%ebx, %edi
	movl	%r13d, %esi
	movl	%r12d, %edx
	movl	%r15d, %ecx
	movl	%r14d, %r8d
	callq	unmark_long_term_field_for_reference_by_frame_idx.53
	addq	$8, %rsp
	popq	%rbx
	popq	%r12
	popq	%r13
	popq	%r14
	popq	%r15
	popq	%rbp
	.cfi_def_cfa %rsp, 8
	retq
.LBB56_2:                               # %func_unmark_long_term_field_for_reference_by_frame_idx.72
	.cfi_def_cfa %rbp, 16
	movl	%ebx, %edi
	movl	%r13d, %esi
	movl	%r12d, %edx
	movl	%r15d, %ecx
	movl	%r14d, %r8d
	callq	unmark_long_term_field_for_reference_by_frame_idx.72
	addq	$8, %rsp
	popq	%rbx
	popq	%r12
	popq	%r13
	popq	%r14
	popq	%r15
	popq	%rbp
	.cfi_def_cfa %rsp, 8
	retq
.LBB56_3:                               # %func_unmark_long_term_field_for_reference_by_frame_idx.97
	.cfi_def_cfa %rbp, 16
	movl	%ebx, %edi
	movl	%r13d, %esi
	movl	%r12d, %edx
	movl	%r15d, %ecx
	movl	%r14d, %r8d
	callq	unmark_long_term_field_for_reference_by_frame_idx.97
	addq	$8, %rsp
	popq	%rbx
	popq	%r12
	popq	%r13
	popq	%r14
	popq	%r15
	popq	%rbp
	.cfi_def_cfa %rsp, 8
	retq
.LBB56_4:                               # %func_unmark_long_term_field_for_reference_by_frame_idx.126
	.cfi_def_cfa %rbp, 16
	movl	%ebx, %edi
	movl	%r13d, %esi
	movl	%r12d, %edx
	movl	%r15d, %ecx
	movl	%r14d, %r8d
	callq	unmark_long_term_field_for_reference_by_frame_idx.126
	addq	$8, %rsp
	popq	%rbx
	popq	%r12
	popq	%r13
	popq	%r14
	popq	%r15
	popq	%rbp
	.cfi_def_cfa %rsp, 8
	retq
.LBB56_5:                               # %func_unmark_long_term_field_for_reference_by_frame_idx.176
	.cfi_def_cfa %rbp, 16
	movl	%ebx, %edi
	movl	%r13d, %esi
	movl	%r12d, %edx
	movl	%r15d, %ecx
	movl	%r14d, %r8d
	callq	unmark_long_term_field_for_reference_by_frame_idx.176
	addq	$8, %rsp
	popq	%rbx
	popq	%r12
	popq	%r13
	popq	%r14
	popq	%r15
	popq	%rbp
	.cfi_def_cfa %rsp, 8
	retq
.LBB56_6:                               # %func_unmark_long_term_field_for_reference_by_frame_idx.185
	.cfi_def_cfa %rbp, 16
	movl	%ebx, %edi
	movl	%r13d, %esi
	movl	%r12d, %edx
	movl	%r15d, %ecx
	movl	%r14d, %r8d
	callq	unmark_long_term_field_for_reference_by_frame_idx.185
	addq	$8, %rsp
	popq	%rbx
	popq	%r12
	popq	%r13
	popq	%r14
	popq	%r15
	popq	%rbp
	.cfi_def_cfa %rsp, 8
	retq
.LBB56_7:                               # %func_unmark_long_term_field_for_reference_by_frame_idx.196
	.cfi_def_cfa %rbp, 16
	movl	%ebx, %edi
	movl	%r13d, %esi
	movl	%r12d, %edx
	movl	%r15d, %ecx
	movl	%r14d, %r8d
	callq	unmark_long_term_field_for_reference_by_frame_idx.196
	addq	$8, %rsp
	popq	%rbx
	popq	%r12
	popq	%r13
	popq	%r14
	popq	%r15
	popq	%rbp
	.cfi_def_cfa %rsp, 8
	retq
.LBB56_8:                               # %func_unmark_long_term_field_for_reference_by_frame_idx.220
	.cfi_def_cfa %rbp, 16
	movl	%ebx, %edi
	movl	%r13d, %esi
	movl	%r12d, %edx
	movl	%r15d, %ecx
	movl	%r14d, %r8d
	callq	unmark_long_term_field_for_reference_by_frame_idx.220
	addq	$8, %rsp
	popq	%rbx
	popq	%r12
	popq	%r13
	popq	%r14
	popq	%r15
	popq	%rbp
	.cfi_def_cfa %rsp, 8
	retq
.LBB56_9:                               # %ctrl0
	.cfi_def_cfa %rbp, 16
	cmpl	$1, %eax
	je	.LBB56_2
# %bb.10:                               # %ctrl1
	cmpl	$2, %eax
	je	.LBB56_3
# %bb.11:                               # %ctrl2
	cmpl	$3, %eax
	je	.LBB56_4
# %bb.12:                               # %ctrl3
	cmpl	$4, %eax
	je	.LBB56_5
# %bb.13:                               # %ctrl4
	cmpl	$5, %eax
	je	.LBB56_6
# %bb.14:                               # %ctrl5
	cmpl	$6, %eax
	je	.LBB56_7
	jmp	.LBB56_8
.Lfunc_end56:
	.size	unmark_long_term_field_for_reference_by_frame_idx, .Lfunc_end56-unmark_long_term_field_for_reference_by_frame_idx
	.cfi_endproc
                                        # -- End function
	.p2align	4, 0x90         # -- Begin function mark_pic_long_term
	.type	mark_pic_long_term,@function
mark_pic_long_term:                     # @mark_pic_long_term
	.cfi_startproc
# %bb.0:                                # %rand_bb
	pushq	%rbp
	.cfi_def_cfa_offset 16
	.cfi_offset %rbp, -16
	movq	%rsp, %rbp
	.cfi_def_cfa_register %rbp
	pushq	%r15
	pushq	%r14
	pushq	%rbx
	pushq	%rax
	.cfi_offset %rbx, -40
	.cfi_offset %r14, -32
	.cfi_offset %r15, -24
	movl	%edx, %r14d
	movl	%esi, %r15d
	movq	%rdi, %rbx
	callq	get_rand
	cmpl	$0, %eax
	jne	.LBB57_9
# %bb.1:                                # %func_mark_pic_long_term.44
	movq	%rbx, %rdi
	movl	%r15d, %esi
	movl	%r14d, %edx
	callq	mark_pic_long_term.44
	addq	$8, %rsp
	popq	%rbx
	popq	%r14
	popq	%r15
	popq	%rbp
	.cfi_def_cfa %rsp, 8
	retq
.LBB57_2:                               # %func_mark_pic_long_term.135
	.cfi_def_cfa %rbp, 16
	movq	%rbx, %rdi
	movl	%r15d, %esi
	movl	%r14d, %edx
	callq	mark_pic_long_term.135
	addq	$8, %rsp
	popq	%rbx
	popq	%r14
	popq	%r15
	popq	%rbp
	.cfi_def_cfa %rsp, 8
	retq
.LBB57_3:                               # %func_mark_pic_long_term.161
	.cfi_def_cfa %rbp, 16
	movq	%rbx, %rdi
	movl	%r15d, %esi
	movl	%r14d, %edx
	callq	mark_pic_long_term.161
	addq	$8, %rsp
	popq	%rbx
	popq	%r14
	popq	%r15
	popq	%rbp
	.cfi_def_cfa %rsp, 8
	retq
.LBB57_4:                               # %func_mark_pic_long_term.169
	.cfi_def_cfa %rbp, 16
	movq	%rbx, %rdi
	movl	%r15d, %esi
	movl	%r14d, %edx
	callq	mark_pic_long_term.169
	addq	$8, %rsp
	popq	%rbx
	popq	%r14
	popq	%r15
	popq	%rbp
	.cfi_def_cfa %rsp, 8
	retq
.LBB57_5:                               # %func_mark_pic_long_term.221
	.cfi_def_cfa %rbp, 16
	movq	%rbx, %rdi
	movl	%r15d, %esi
	movl	%r14d, %edx
	callq	mark_pic_long_term.221
	addq	$8, %rsp
	popq	%rbx
	popq	%r14
	popq	%r15
	popq	%rbp
	.cfi_def_cfa %rsp, 8
	retq
.LBB57_6:                               # %func_mark_pic_long_term.233
	.cfi_def_cfa %rbp, 16
	movq	%rbx, %rdi
	movl	%r15d, %esi
	movl	%r14d, %edx
	callq	mark_pic_long_term.233
	addq	$8, %rsp
	popq	%rbx
	popq	%r14
	popq	%r15
	popq	%rbp
	.cfi_def_cfa %rsp, 8
	retq
.LBB57_7:                               # %func_mark_pic_long_term.238
	.cfi_def_cfa %rbp, 16
	movq	%rbx, %rdi
	movl	%r15d, %esi
	movl	%r14d, %edx
	callq	mark_pic_long_term.238
	addq	$8, %rsp
	popq	%rbx
	popq	%r14
	popq	%r15
	popq	%rbp
	.cfi_def_cfa %rsp, 8
	retq
.LBB57_8:                               # %func_mark_pic_long_term.245
	.cfi_def_cfa %rbp, 16
	movq	%rbx, %rdi
	movl	%r15d, %esi
	movl	%r14d, %edx
	callq	mark_pic_long_term.245
	addq	$8, %rsp
	popq	%rbx
	popq	%r14
	popq	%r15
	popq	%rbp
	.cfi_def_cfa %rsp, 8
	retq
.LBB57_9:                               # %ctrl0
	.cfi_def_cfa %rbp, 16
	cmpl	$1, %eax
	je	.LBB57_2
# %bb.10:                               # %ctrl1
	cmpl	$2, %eax
	je	.LBB57_3
# %bb.11:                               # %ctrl2
	cmpl	$3, %eax
	je	.LBB57_4
# %bb.12:                               # %ctrl3
	cmpl	$4, %eax
	je	.LBB57_5
# %bb.13:                               # %ctrl4
	cmpl	$5, %eax
	je	.LBB57_6
# %bb.14:                               # %ctrl5
	cmpl	$6, %eax
	je	.LBB57_7
	jmp	.LBB57_8
.Lfunc_end57:
	.size	mark_pic_long_term, .Lfunc_end57-mark_pic_long_term
	.cfi_endproc
                                        # -- End function
	.p2align	4, 0x90         # -- Begin function mm_unmark_all_short_term_for_reference
	.type	mm_unmark_all_short_term_for_reference,@function
mm_unmark_all_short_term_for_reference: # @mm_unmark_all_short_term_for_reference
	.cfi_startproc
# %bb.0:                                # %entry
	pushq	%rbp
	.cfi_def_cfa_offset 16
	.cfi_offset %rbp, -16
	movq	%rsp, %rbp
	.cfi_def_cfa_register %rbp
	subq	$16, %rsp
	movl	$0, -4(%rbp)
.LBB58_1:                               # %for.cond
                                        # =>This Inner Loop Header: Depth=1
	movl	-4(%rbp), %eax
	cmpl	dpb+32, %eax
	jae	.LBB58_4
# %bb.2:                                # %for.body
                                        #   in Loop: Header=BB58_1 Depth=1
	movq	dpb+8, %rax
	movl	-4(%rbp), %ecx
	movq	(%rax,%rcx,8), %rdi
	callq	unmark_for_reference
# %bb.3:                                # %for.inc
                                        #   in Loop: Header=BB58_1 Depth=1
	movl	-4(%rbp), %eax
	addl	$1, %eax
	movl	%eax, -4(%rbp)
	jmp	.LBB58_1
.LBB58_4:                               # %for.end
	callq	update_ref_list
	addq	$16, %rsp
	popq	%rbp
	.cfi_def_cfa %rsp, 8
	retq
.Lfunc_end58:
	.size	mm_unmark_all_short_term_for_reference, .Lfunc_end58-mm_unmark_all_short_term_for_reference
	.cfi_endproc
                                        # -- End function
	.p2align	4, 0x90         # -- Begin function mm_unmark_all_long_term_for_reference
	.type	mm_unmark_all_long_term_for_reference,@function
mm_unmark_all_long_term_for_reference:  # @mm_unmark_all_long_term_for_reference
	.cfi_startproc
# %bb.0:                                # %entry
	pushq	%rbp
	.cfi_def_cfa_offset 16
	.cfi_offset %rbp, -16
	movq	%rsp, %rbp
	.cfi_def_cfa_register %rbp
	xorl	%edi, %edi
	callq	mm_update_max_long_term_frame_idx
	popq	%rbp
	.cfi_def_cfa %rsp, 8
	retq
.Lfunc_end59:
	.size	mm_unmark_all_long_term_for_reference, .Lfunc_end59-mm_unmark_all_long_term_for_reference
	.cfi_endproc
                                        # -- End function
	.p2align	4, 0x90         # -- Begin function remove_unused_frame_from_dpb
	.type	remove_unused_frame_from_dpb,@function
remove_unused_frame_from_dpb:           # @remove_unused_frame_from_dpb
	.cfi_startproc
# %bb.0:                                # %rand_bb
	pushq	%rbp
	.cfi_def_cfa_offset 16
	.cfi_offset %rbp, -16
	movq	%rsp, %rbp
	.cfi_def_cfa_register %rbp
	callq	get_rand
	cmpl	$0, %eax
	jne	.LBB60_2
# %bb.1:                                # %func_remove_unused_frame_from_dpb.38
	callq	remove_unused_frame_from_dpb.38
	popq	%rbp
	.cfi_def_cfa %rsp, 8
	retq
.LBB60_2:                               # %func_remove_unused_frame_from_dpb.51
	.cfi_def_cfa %rbp, 16
	callq	remove_unused_frame_from_dpb.51
	popq	%rbp
	.cfi_def_cfa %rsp, 8
	retq
.Lfunc_end60:
	.size	remove_unused_frame_from_dpb, .Lfunc_end60-remove_unused_frame_from_dpb
	.cfi_endproc
                                        # -- End function
	.p2align	4, 0x90         # -- Begin function is_used_for_reference
	.type	is_used_for_reference,@function
is_used_for_reference:                  # @is_used_for_reference
	.cfi_startproc
# %bb.0:                                # %rand_bb
	pushq	%rbp
	.cfi_def_cfa_offset 16
	.cfi_offset %rbp, -16
	movq	%rsp, %rbp
	.cfi_def_cfa_register %rbp
	pushq	%rbx
	pushq	%rax
	.cfi_offset %rbx, -24
	movq	%rdi, %rbx
	callq	get_rand
	cmpl	$0, %eax
	jne	.LBB61_2
# %bb.1:                                # %func_is_used_for_reference.47
	movq	%rbx, %rdi
	callq	is_used_for_reference.47
	addq	$8, %rsp
	popq	%rbx
	popq	%rbp
	.cfi_def_cfa %rsp, 8
	retq
.LBB61_2:                               # %func_is_used_for_reference.64
	.cfi_def_cfa %rbp, 16
	movq	%rbx, %rdi
	callq	is_used_for_reference.64
	addq	$8, %rsp
	popq	%rbx
	popq	%rbp
	.cfi_def_cfa %rsp, 8
	retq
.Lfunc_end61:
	.size	is_used_for_reference, .Lfunc_end61-is_used_for_reference
	.cfi_endproc
                                        # -- End function
	.p2align	4, 0x90         # -- Begin function remove_frame_from_dpb
	.type	remove_frame_from_dpb,@function
remove_frame_from_dpb:                  # @remove_frame_from_dpb
	.cfi_startproc
# %bb.0:                                # %rand_bb
	pushq	%rbp
	.cfi_def_cfa_offset 16
	.cfi_offset %rbp, -16
	movq	%rsp, %rbp
	.cfi_def_cfa_register %rbp
	pushq	%rbx
	pushq	%rax
	.cfi_offset %rbx, -24
	movl	%edi, %ebx
	callq	get_rand
	cmpl	$0, %eax
	jne	.LBB62_9
# %bb.1:                                # %func_remove_frame_from_dpb.145
	movl	%ebx, %edi
	callq	remove_frame_from_dpb.145
	addq	$8, %rsp
	popq	%rbx
	popq	%rbp
	.cfi_def_cfa %rsp, 8
	retq
.LBB62_2:                               # %func_remove_frame_from_dpb.171
	.cfi_def_cfa %rbp, 16
	movl	%ebx, %edi
	callq	remove_frame_from_dpb.171
	addq	$8, %rsp
	popq	%rbx
	popq	%rbp
	.cfi_def_cfa %rsp, 8
	retq
.LBB62_3:                               # %func_remove_frame_from_dpb.189
	.cfi_def_cfa %rbp, 16
	movl	%ebx, %edi
	callq	remove_frame_from_dpb.189
	addq	$8, %rsp
	popq	%rbx
	popq	%rbp
	.cfi_def_cfa %rsp, 8
	retq
.LBB62_4:                               # %func_remove_frame_from_dpb.191
	.cfi_def_cfa %rbp, 16
	movl	%ebx, %edi
	callq	remove_frame_from_dpb.191
	addq	$8, %rsp
	popq	%rbx
	popq	%rbp
	.cfi_def_cfa %rsp, 8
	retq
.LBB62_5:                               # %func_remove_frame_from_dpb.202
	.cfi_def_cfa %rbp, 16
	movl	%ebx, %edi
	callq	remove_frame_from_dpb.202
	addq	$8, %rsp
	popq	%rbx
	popq	%rbp
	.cfi_def_cfa %rsp, 8
	retq
.LBB62_6:                               # %func_remove_frame_from_dpb.208
	.cfi_def_cfa %rbp, 16
	movl	%ebx, %edi
	callq	remove_frame_from_dpb.208
	addq	$8, %rsp
	popq	%rbx
	popq	%rbp
	.cfi_def_cfa %rsp, 8
	retq
.LBB62_7:                               # %func_remove_frame_from_dpb.210
	.cfi_def_cfa %rbp, 16
	movl	%ebx, %edi
	callq	remove_frame_from_dpb.210
	addq	$8, %rsp
	popq	%rbx
	popq	%rbp
	.cfi_def_cfa %rsp, 8
	retq
.LBB62_8:                               # %func_remove_frame_from_dpb.218
	.cfi_def_cfa %rbp, 16
	movl	%ebx, %edi
	callq	remove_frame_from_dpb.218
	addq	$8, %rsp
	popq	%rbx
	popq	%rbp
	.cfi_def_cfa %rsp, 8
	retq
.LBB62_9:                               # %ctrl0
	.cfi_def_cfa %rbp, 16
	cmpl	$1, %eax
	je	.LBB62_2
# %bb.10:                               # %ctrl1
	cmpl	$2, %eax
	je	.LBB62_3
# %bb.11:                               # %ctrl2
	cmpl	$3, %eax
	je	.LBB62_4
# %bb.12:                               # %ctrl3
	cmpl	$4, %eax
	je	.LBB62_5
# %bb.13:                               # %ctrl4
	cmpl	$5, %eax
	je	.LBB62_6
# %bb.14:                               # %ctrl5
	cmpl	$6, %eax
	je	.LBB62_7
	jmp	.LBB62_8
.Lfunc_end62:
	.size	remove_frame_from_dpb, .Lfunc_end62-remove_frame_from_dpb
	.cfi_endproc
                                        # -- End function
	.p2align	4, 0x90         # -- Begin function output_one_frame_from_dpb
	.type	output_one_frame_from_dpb,@function
output_one_frame_from_dpb:              # @output_one_frame_from_dpb
	.cfi_startproc
# %bb.0:                                # %rand_bb
	pushq	%rbp
	.cfi_def_cfa_offset 16
	.cfi_offset %rbp, -16
	movq	%rsp, %rbp
	.cfi_def_cfa_register %rbp
	callq	get_rand
	cmpl	$0, %eax
	jne	.LBB63_2
# %bb.1:                                # %func_output_one_frame_from_dpb.62
	callq	output_one_frame_from_dpb.62
	popq	%rbp
	.cfi_def_cfa %rsp, 8
	retq
.LBB63_2:                               # %func_output_one_frame_from_dpb.71
	.cfi_def_cfa %rbp, 16
	callq	output_one_frame_from_dpb.71
	popq	%rbp
	.cfi_def_cfa %rsp, 8
	retq
.Lfunc_end63:
	.size	output_one_frame_from_dpb, .Lfunc_end63-output_one_frame_from_dpb
	.cfi_endproc
                                        # -- End function
	.globl	alloc_ref_pic_list_reordering_buffer.1 # -- Begin function alloc_ref_pic_list_reordering_buffer.1
	.p2align	4, 0x90
	.type	alloc_ref_pic_list_reordering_buffer.1,@function
alloc_ref_pic_list_reordering_buffer.1: # @alloc_ref_pic_list_reordering_buffer.1
	.cfi_startproc
# %bb.0:                                # %entry
	pushq	%rbp
	.cfi_def_cfa_offset 16
	.cfi_offset %rbp, -16
	movq	%rsp, %rbp
	.cfi_def_cfa_register %rbp
	subq	$32, %rsp
	movl	$384271764, -20(%rbp)   # imm = 0x16E78594
	movq	%rdi, -16(%rbp)
	movq	img, %rax
	movl	72000(%rax), %eax
	addl	$1, %eax
	movl	%eax, -4(%rbp)
	movq	img, %rax
	cmpl	$2, 24(%rax)
	je	.LBB64_9
# %bb.1:                                # %land.lhs.true
	movq	img, %rax
	cmpl	$4, 24(%rax)
	je	.LBB64_9
# %bb.2:                                # %if.then
	movslq	-4(%rbp), %rdi
	movl	$4, %esi
	callq	calloc
	movq	-16(%rbp), %rcx
	movq	%rax, 64(%rcx)
	cmpq	$0, %rax
	jne	.LBB64_4
# %bb.3:                                # %if.then5
	movabsq	$.L.str.15, %rdi
	callq	no_mem_exit
.LBB64_4:                               # %if.end
	movslq	-4(%rbp), %rdi
	movl	$4, %esi
	callq	calloc
	movq	-16(%rbp), %rcx
	movq	%rax, 72(%rcx)
	cmpq	$0, %rax
	jne	.LBB64_6
# %bb.5:                                # %if.then10
	movabsq	$.L.str.16, %rdi
	callq	no_mem_exit
.LBB64_6:                               # %if.end11
	movslq	-4(%rbp), %rdi
	movl	$4, %esi
	callq	calloc
	movq	-16(%rbp), %rcx
	movq	%rax, 80(%rcx)
	cmpq	$0, %rax
	jne	.LBB64_8
# %bb.7:                                # %if.then16
	movabsq	$.L.str.17, %rdi
	callq	no_mem_exit
.LBB64_8:                               # %if.end17
	jmp	.LBB64_10
.LBB64_9:                               # %if.else
	movq	-16(%rbp), %rax
	movq	$0, 64(%rax)
	movq	-16(%rbp), %rax
	movq	$0, 72(%rax)
	movq	-16(%rbp), %rax
	movq	$0, 80(%rax)
.LBB64_10:                              # %if.end21
	movq	img, %rax
	movl	72004(%rax), %eax
	addl	$1, %eax
	movl	%eax, -4(%rbp)
	movq	img, %rax
	cmpl	$1, 24(%rax)
	jne	.LBB64_18
# %bb.11:                               # %if.then26
	movslq	-4(%rbp), %rdi
	movl	$4, %esi
	callq	calloc
	movq	-16(%rbp), %rcx
	movq	%rax, 96(%rcx)
	cmpq	$0, %rax
	jne	.LBB64_13
# %bb.12:                               # %if.then31
	movabsq	$.L.str.18, %rdi
	callq	no_mem_exit
.LBB64_13:                              # %if.end32
	movslq	-4(%rbp), %rdi
	movl	$4, %esi
	callq	calloc
	movq	-16(%rbp), %rcx
	movq	%rax, 104(%rcx)
	cmpq	$0, %rax
	jne	.LBB64_15
# %bb.14:                               # %if.then37
	movabsq	$.L.str.19, %rdi
	callq	no_mem_exit
.LBB64_15:                              # %if.end38
	movslq	-4(%rbp), %rdi
	movl	$4, %esi
	callq	calloc
	movq	-16(%rbp), %rcx
	movq	%rax, 112(%rcx)
	cmpq	$0, %rax
	jne	.LBB64_17
# %bb.16:                               # %if.then43
	movabsq	$.L.str.20, %rdi
	callq	no_mem_exit
.LBB64_17:                              # %if.end44
	jmp	.LBB64_19
.LBB64_18:                              # %if.else45
	movq	-16(%rbp), %rax
	movq	$0, 96(%rax)
	movq	-16(%rbp), %rax
	movq	$0, 104(%rax)
	movq	-16(%rbp), %rax
	movq	$0, 112(%rax)
.LBB64_19:                              # %if.end49
	cmpl	$384271764, -20(%rbp)   # imm = 0x16E78594
	jne	.LBB64_21
.LBB64_20:
	addq	$32, %rsp
	popq	%rbp
	.cfi_def_cfa %rsp, 8
	retq
.LBB64_21:                              # %func_exit
	.cfi_def_cfa %rbp, 16
	callq	detect_breach
	jmp	.LBB64_20
.Lfunc_end64:
	.size	alloc_ref_pic_list_reordering_buffer.1, .Lfunc_end64-alloc_ref_pic_list_reordering_buffer.1
	.cfi_endproc
                                        # -- End function
	.globl	getDpbSize.2            # -- Begin function getDpbSize.2
	.p2align	4, 0x90
	.type	getDpbSize.2,@function
getDpbSize.2:                           # @getDpbSize.2
	.cfi_startproc
# %bb.0:                                # %entry
	pushq	%rbp
	.cfi_def_cfa_offset 16
	.cfi_offset %rbp, -16
	movq	%rsp, %rbp
	.cfi_def_cfa_register %rbp
	pushq	%rbx
	subq	$24, %rsp
	.cfi_offset %rbx, -24
	movl	$1012504158, -20(%rbp)  # imm = 0x3C59965E
	movq	active_sps(%rip), %rax
	movl	1140(%rax), %ecx
	movl	1144(%rax), %edx
	addl	$1, %ecx
	addl	$1, %edx
	imull	%edx, %ecx
	movl	1148(%rax), %eax
	cmpl	$1, %eax
	movl	$2, %eax
	adcl	$-1, %eax
	imull	%eax, %ecx
	shll	$7, %ecx
	leal	(%rcx,%rcx,2), %eax
	movl	%eax, -16(%rbp)
	movl	$0, -12(%rbp)
	movq	active_sps(%rip), %rax
	movl	24(%rax), %eax
	addl	$-10, %eax
	movl	%eax, %ecx
	subl	$41, %ecx
	ja	.LBB65_17
# %bb.1:                                # %entry
	movq	.LJTI65_0(,%rax,8), %rax
	jmpq	*%rax
.LBB65_2:                               # %sw.bb
	movl	$152064, -12(%rbp)      # imm = 0x25200
	jmp	.LBB65_18
.LBB65_3:                               # %sw.bb4
	movl	$345600, -12(%rbp)      # imm = 0x54600
	jmp	.LBB65_18
.LBB65_4:                               # %sw.bb5
	movl	$912384, -12(%rbp)      # imm = 0xDEC00
	jmp	.LBB65_18
.LBB65_5:                               # %sw.bb6
	movl	$912384, -12(%rbp)      # imm = 0xDEC00
	jmp	.LBB65_18
.LBB65_6:                               # %sw.bb7
	movl	$912384, -12(%rbp)      # imm = 0xDEC00
	jmp	.LBB65_18
.LBB65_7:                               # %sw.bb8
	movl	$1824768, -12(%rbp)     # imm = 0x1BD800
	jmp	.LBB65_18
.LBB65_8:                               # %sw.bb9
	movl	$3110400, -12(%rbp)     # imm = 0x2F7600
	jmp	.LBB65_18
.LBB65_9:                               # %sw.bb10
	movl	$3110400, -12(%rbp)     # imm = 0x2F7600
	jmp	.LBB65_18
.LBB65_10:                              # %sw.bb11
	movl	$6912000, -12(%rbp)     # imm = 0x697800
	jmp	.LBB65_18
.LBB65_11:                              # %sw.bb12
	movl	$7864320, -12(%rbp)     # imm = 0x780000
	jmp	.LBB65_18
.LBB65_12:                              # %sw.bb13
	movl	$12582912, -12(%rbp)    # imm = 0xC00000
	jmp	.LBB65_18
.LBB65_13:                              # %sw.bb14
	movl	$12582912, -12(%rbp)    # imm = 0xC00000
	jmp	.LBB65_18
.LBB65_14:                              # %sw.bb15
	movl	$12582912, -12(%rbp)    # imm = 0xC00000
	jmp	.LBB65_18
.LBB65_15:                              # %sw.bb16
	movl	$42393600, -12(%rbp)    # imm = 0x286E000
	jmp	.LBB65_18
.LBB65_16:                              # %sw.bb17
	movl	$70778880, -12(%rbp)    # imm = 0x4380000
	jmp	.LBB65_18
.LBB65_17:                              # %sw.default
	movabsq	$.L.str, %rdi
	movl	$500, %esi              # imm = 0x1F4
	callq	error
.LBB65_18:                              # %sw.epilog
	movl	-16(%rbp), %ecx
	movl	-12(%rbp), %eax
	cltd
	idivl	%ecx
	movl	%eax, -12(%rbp)
	cmpl	$16, -12(%rbp)
	jge	.LBB65_20
# %bb.19:                               # %cond.true
	movl	-12(%rbp), %ebx
	jmp	.LBB65_21
.LBB65_20:                              # %cond.false
	movl	$16, %ebx
	jmp	.LBB65_21
.LBB65_21:                              # %cond.end
	cmpl	$1012504158, -20(%rbp)  # imm = 0x3C59965E
	jne	.LBB65_23
.LBB65_22:
	movl	%ebx, %eax
	addq	$24, %rsp
	popq	%rbx
	popq	%rbp
	.cfi_def_cfa %rsp, 8
	retq
.LBB65_23:                              # %func_exit
	.cfi_def_cfa %rbp, 16
	callq	detect_breach
	jmp	.LBB65_22
.Lfunc_end65:
	.size	getDpbSize.2, .Lfunc_end65-getDpbSize.2
	.cfi_endproc
	.section	.rodata,"a",@progbits
	.p2align	3
.LJTI65_0:
	.quad	.LBB65_2
	.quad	.LBB65_3
	.quad	.LBB65_4
	.quad	.LBB65_5
	.quad	.LBB65_17
	.quad	.LBB65_17
	.quad	.LBB65_17
	.quad	.LBB65_17
	.quad	.LBB65_17
	.quad	.LBB65_17
	.quad	.LBB65_6
	.quad	.LBB65_7
	.quad	.LBB65_8
	.quad	.LBB65_17
	.quad	.LBB65_17
	.quad	.LBB65_17
	.quad	.LBB65_17
	.quad	.LBB65_17
	.quad	.LBB65_17
	.quad	.LBB65_17
	.quad	.LBB65_9
	.quad	.LBB65_10
	.quad	.LBB65_11
	.quad	.LBB65_17
	.quad	.LBB65_17
	.quad	.LBB65_17
	.quad	.LBB65_17
	.quad	.LBB65_17
	.quad	.LBB65_17
	.quad	.LBB65_17
	.quad	.LBB65_12
	.quad	.LBB65_13
	.quad	.LBB65_14
	.quad	.LBB65_17
	.quad	.LBB65_17
	.quad	.LBB65_17
	.quad	.LBB65_17
	.quad	.LBB65_17
	.quad	.LBB65_17
	.quad	.LBB65_17
	.quad	.LBB65_15
	.quad	.LBB65_16
                                        # -- End function
	.text
	.p2align	4, 0x90         # -- Begin function get_smallest_poc.3
	.type	get_smallest_poc.3,@function
get_smallest_poc.3:                     # @get_smallest_poc.3
	.cfi_startproc
# %bb.0:                                # %entry
	pushq	%rbp
	.cfi_def_cfa_offset 16
	.cfi_offset %rbp, -16
	movq	%rsp, %rbp
	.cfi_def_cfa_register %rbp
	subq	$32, %rsp
	movl	$1161096173, -20(%rbp)  # imm = 0x4534EBED
	movq	%rdi, -16(%rbp)
	movq	%rsi, -32(%rbp)
	cmpl	$1, dpb+28
	jae	.LBB66_2
# %bb.1:                                # %if.then
	movabsq	$.L.str.28, %rdi
	movl	$150, %esi
	callq	error
.LBB66_2:                               # %if.end
	movq	-32(%rbp), %rax
	movl	$-1, (%rax)
	movq	-16(%rbp), %rax
	movl	$2147483647, (%rax)     # imm = 0x7FFFFFFF
	movl	$0, -4(%rbp)
.LBB66_3:                               # %for.cond
                                        # =>This Inner Loop Header: Depth=1
	movl	-4(%rbp), %eax
	cmpl	dpb+28, %eax
	jae	.LBB66_9
# %bb.4:                                # %for.body
                                        #   in Loop: Header=BB66_3 Depth=1
	movq	-16(%rbp), %rax
	movl	(%rax), %eax
	movq	dpb, %rcx
	movl	-4(%rbp), %edx
	movq	(%rcx,%rdx,8), %rcx
	cmpl	36(%rcx), %eax
	jle	.LBB66_7
# %bb.5:                                # %land.lhs.true
                                        #   in Loop: Header=BB66_3 Depth=1
	movq	dpb, %rax
	movl	-4(%rbp), %ecx
	movq	(%rax,%rcx,8), %rax
	cmpl	$0, 32(%rax)
	jne	.LBB66_7
# %bb.6:                                # %if.then6
                                        #   in Loop: Header=BB66_3 Depth=1
	movq	dpb, %rax
	movl	-4(%rbp), %ecx
	movq	(%rax,%rcx,8), %rax
	movl	36(%rax), %eax
	movq	-16(%rbp), %rcx
	movl	%eax, (%rcx)
	movl	-4(%rbp), %eax
	movq	-32(%rbp), %rcx
	movl	%eax, (%rcx)
.LBB66_7:                               # %if.end10
                                        #   in Loop: Header=BB66_3 Depth=1
	jmp	.LBB66_8
.LBB66_8:                               # %for.inc
                                        #   in Loop: Header=BB66_3 Depth=1
	movl	-4(%rbp), %eax
	addl	$1, %eax
	movl	%eax, -4(%rbp)
	jmp	.LBB66_3
.LBB66_9:                               # %for.end
	cmpl	$1161096173, -20(%rbp)  # imm = 0x4534EBED
	jne	.LBB66_11
.LBB66_10:
	addq	$32, %rsp
	popq	%rbp
	.cfi_def_cfa %rsp, 8
	retq
.LBB66_11:                              # %func_exit
	.cfi_def_cfa %rbp, 16
	callq	detect_breach
	jmp	.LBB66_10
.Lfunc_end66:
	.size	get_smallest_poc.3, .Lfunc_end66-get_smallest_poc.3
	.cfi_endproc
                                        # -- End function
	.p2align	4, 0x90         # -- Begin function mm_unmark_long_term_for_reference.4
	.type	mm_unmark_long_term_for_reference.4,@function
mm_unmark_long_term_for_reference.4:    # @mm_unmark_long_term_for_reference.4
	.cfi_startproc
# %bb.0:                                # %entry
	pushq	%rbp
	.cfi_def_cfa_offset 16
	.cfi_offset %rbp, -16
	movq	%rsp, %rbp
	.cfi_def_cfa_register %rbp
	subq	$32, %rsp
	movl	$628769230, -12(%rbp)   # imm = 0x257A41CE
	movq	%rdi, -24(%rbp)
	movl	%esi, -8(%rbp)
	movl	$0, -4(%rbp)
.LBB67_1:                               # %for.cond
                                        # =>This Inner Loop Header: Depth=1
	movl	-4(%rbp), %eax
	cmpl	dpb+36, %eax
	jae	.LBB67_26
# %bb.2:                                # %for.body
                                        #   in Loop: Header=BB67_1 Depth=1
	movq	-24(%rbp), %rax
	cmpl	$0, (%rax)
	jne	.LBB67_9
# %bb.3:                                # %if.then
                                        #   in Loop: Header=BB67_1 Depth=1
	movq	dpb+16, %rax
	movl	-4(%rbp), %ecx
	movq	(%rax,%rcx,8), %rax
	cmpl	$3, 4(%rax)
	jne	.LBB67_8
# %bb.4:                                # %land.lhs.true
                                        #   in Loop: Header=BB67_1 Depth=1
	movq	dpb+16, %rax
	movl	-4(%rbp), %ecx
	movq	(%rax,%rcx,8), %rax
	cmpl	$3, 8(%rax)
	jne	.LBB67_8
# %bb.5:                                # %if.then6
                                        #   in Loop: Header=BB67_1 Depth=1
	movq	dpb+16, %rax
	movl	-4(%rbp), %ecx
	movq	(%rax,%rcx,8), %rax
	movq	40(%rax), %rax
	movl	6368(%rax), %eax
	cmpl	-8(%rbp), %eax
	jne	.LBB67_7
# %bb.6:                                # %if.then11
                                        #   in Loop: Header=BB67_1 Depth=1
	movq	dpb+16, %rax
	movl	-4(%rbp), %ecx
	movq	(%rax,%rcx,8), %rdi
	callq	unmark_for_long_term_reference
.LBB67_7:                               # %if.end
                                        #   in Loop: Header=BB67_1 Depth=1
	jmp	.LBB67_8
.LBB67_8:                               # %if.end14
                                        #   in Loop: Header=BB67_1 Depth=1
	jmp	.LBB67_24
.LBB67_9:                               # %if.else
                                        #   in Loop: Header=BB67_1 Depth=1
	movq	dpb+16, %rax
	movl	-4(%rbp), %ecx
	movq	(%rax,%rcx,8), %rax
	movl	4(%rax), %eax
	andl	$1, %eax
	cmpl	$0, %eax
	je	.LBB67_16
# %bb.10:                               # %land.lhs.true18
                                        #   in Loop: Header=BB67_1 Depth=1
	movq	dpb+16, %rax
	movl	-4(%rbp), %ecx
	movq	(%rax,%rcx,8), %rax
	movl	8(%rax), %eax
	andl	$1, %eax
	cmpl	$0, %eax
	je	.LBB67_16
# %bb.11:                               # %if.then24
                                        #   in Loop: Header=BB67_1 Depth=1
	movq	dpb+16, %rax
	movl	-4(%rbp), %ecx
	movq	(%rax,%rcx,8), %rax
	movq	48(%rax), %rax
	movl	6368(%rax), %eax
	cmpl	-8(%rbp), %eax
	jne	.LBB67_15
# %bb.12:                               # %if.then29
	movq	dpb+16, %rax
	movl	-4(%rbp), %ecx
	movq	(%rax,%rcx,8), %rax
	movq	48(%rax), %rax
	movl	$0, 6380(%rax)
	movq	dpb+16, %rax
	movl	-4(%rbp), %ecx
	movq	(%rax,%rcx,8), %rax
	movq	48(%rax), %rax
	movl	$0, 6376(%rax)
	movq	dpb+16, %rax
	movl	-4(%rbp), %ecx
	movq	(%rax,%rcx,8), %rax
	movl	4(%rax), %ecx
	andl	$2, %ecx
	movl	%ecx, 4(%rax)
	movq	dpb+16, %rax
	movl	-4(%rbp), %ecx
	movq	(%rax,%rcx,8), %rax
	movl	8(%rax), %ecx
	andl	$2, %ecx
	movl	%ecx, 8(%rax)
	movq	dpb+16, %rax
	movl	-4(%rbp), %ecx
	movq	(%rax,%rcx,8), %rax
	cmpl	$3, (%rax)
	jne	.LBB67_14
# %bb.13:                               # %if.then48
	movq	dpb+16, %rax
	movl	-4(%rbp), %ecx
	movq	(%rax,%rcx,8), %rax
	movq	40(%rax), %rax
	movl	$0, 6380(%rax)
	movq	dpb+16, %rax
	movl	-4(%rbp), %ecx
	movq	(%rax,%rcx,8), %rax
	movq	40(%rax), %rax
	movl	$0, 6376(%rax)
.LBB67_14:                              # %if.end57
	jmp	.LBB67_27
.LBB67_15:                              # %if.end58
                                        #   in Loop: Header=BB67_1 Depth=1
	jmp	.LBB67_16
.LBB67_16:                              # %if.end59
                                        #   in Loop: Header=BB67_1 Depth=1
	movq	dpb+16, %rax
	movl	-4(%rbp), %ecx
	movq	(%rax,%rcx,8), %rax
	movl	4(%rax), %eax
	andl	$2, %eax
	cmpl	$0, %eax
	je	.LBB67_23
# %bb.17:                               # %land.lhs.true65
                                        #   in Loop: Header=BB67_1 Depth=1
	movq	dpb+16, %rax
	movl	-4(%rbp), %ecx
	movq	(%rax,%rcx,8), %rax
	movl	8(%rax), %eax
	andl	$2, %eax
	cmpl	$0, %eax
	je	.LBB67_23
# %bb.18:                               # %if.then71
                                        #   in Loop: Header=BB67_1 Depth=1
	movq	dpb+16, %rax
	movl	-4(%rbp), %ecx
	movq	(%rax,%rcx,8), %rax
	movq	56(%rax), %rax
	movl	6368(%rax), %eax
	cmpl	-8(%rbp), %eax
	jne	.LBB67_22
# %bb.19:                               # %if.then76
	movq	dpb+16, %rax
	movl	-4(%rbp), %ecx
	movq	(%rax,%rcx,8), %rax
	movq	56(%rax), %rax
	movl	$0, 6380(%rax)
	movq	dpb+16, %rax
	movl	-4(%rbp), %ecx
	movq	(%rax,%rcx,8), %rax
	movq	56(%rax), %rax
	movl	$0, 6376(%rax)
	movq	dpb+16, %rax
	movl	-4(%rbp), %ecx
	movq	(%rax,%rcx,8), %rax
	movl	4(%rax), %ecx
	andl	$1, %ecx
	movl	%ecx, 4(%rax)
	movq	dpb+16, %rax
	movl	-4(%rbp), %ecx
	movq	(%rax,%rcx,8), %rax
	movl	8(%rax), %ecx
	andl	$1, %ecx
	movl	%ecx, 8(%rax)
	movq	dpb+16, %rax
	movl	-4(%rbp), %ecx
	movq	(%rax,%rcx,8), %rax
	cmpl	$3, (%rax)
	jne	.LBB67_21
# %bb.20:                               # %if.then97
	movq	dpb+16, %rax
	movl	-4(%rbp), %ecx
	movq	(%rax,%rcx,8), %rax
	movq	40(%rax), %rax
	movl	$0, 6380(%rax)
	movq	dpb+16, %rax
	movl	-4(%rbp), %ecx
	movq	(%rax,%rcx,8), %rax
	movq	40(%rax), %rax
	movl	$0, 6376(%rax)
.LBB67_21:                              # %if.end106
	jmp	.LBB67_27
.LBB67_22:                              # %if.end107
                                        #   in Loop: Header=BB67_1 Depth=1
	jmp	.LBB67_23
.LBB67_23:                              # %if.end108
                                        #   in Loop: Header=BB67_1 Depth=1
	jmp	.LBB67_24
.LBB67_24:                              # %if.end109
                                        #   in Loop: Header=BB67_1 Depth=1
	jmp	.LBB67_25
.LBB67_25:                              # %for.inc
                                        #   in Loop: Header=BB67_1 Depth=1
	movl	-4(%rbp), %eax
	addl	$1, %eax
	movl	%eax, -4(%rbp)
	jmp	.LBB67_1
.LBB67_26:                              # %for.end.loopexit
	jmp	.LBB67_27
.LBB67_27:                              # %for.end
	cmpl	$628769230, -12(%rbp)   # imm = 0x257A41CE
	jne	.LBB67_29
.LBB67_28:
	addq	$32, %rsp
	popq	%rbp
	.cfi_def_cfa %rsp, 8
	retq
.LBB67_29:                              # %func_exit
	.cfi_def_cfa %rbp, 16
	callq	detect_breach
	jmp	.LBB67_28
.Lfunc_end67:
	.size	mm_unmark_long_term_for_reference.4, .Lfunc_end67-mm_unmark_long_term_for_reference.4
	.cfi_endproc
                                        # -- End function
	.globl	store_picture_in_dpb.5  # -- Begin function store_picture_in_dpb.5
	.p2align	4, 0x90
	.type	store_picture_in_dpb.5,@function
store_picture_in_dpb.5:                 # @store_picture_in_dpb.5
	.cfi_startproc
# %bb.0:                                # %entry
	pushq	%rbp
	.cfi_def_cfa_offset 16
	.cfi_offset %rbp, -16
	movq	%rsp, %rbp
	.cfi_def_cfa_register %rbp
	subq	$32, %rsp
	movl	$1110750053, -24(%rbp)  # imm = 0x4234B365
	movq	%rdi, -8(%rbp)
	movq	img, %rax
	cmpl	$0, 72496(%rax)
	setne	%al
	andb	$1, %al
	movzbl	%al, %eax
	movq	-8(%rbp), %rcx
	movl	%eax, 6380(%rcx)
	movq	img, %rax
	movl	$0, 72644(%rax)
	movq	img, %rax
	cmpl	$2, 28(%rax)
	sete	%al
	andb	$1, %al
	movzbl	%al, %eax
	movq	img, %rcx
	movl	%eax, 72640(%rcx)
	movq	img, %rax
	movq	14152(%rax), %rax
	cmpl	$0, 4(%rax)
	je	.LBB68_2
# %bb.1:                                # %if.then
	movq	-8(%rbp), %rdi
	callq	idr_memory_management
	jmp	.LBB68_6
.LBB68_2:                               # %if.else
	movq	-8(%rbp), %rax
	cmpl	$0, 6380(%rax)
	je	.LBB68_5
# %bb.3:                                # %land.lhs.true
	movq	img, %rax
	cmpl	$0, 72500(%rax)
	je	.LBB68_5
# %bb.4:                                # %if.then6
	movq	-8(%rbp), %rdi
	callq	adaptive_memory_management
.LBB68_5:                               # %if.end
	jmp	.LBB68_6
.LBB68_6:                               # %if.end7
	movq	-8(%rbp), %rax
	cmpl	$1, (%rax)
	je	.LBB68_8
# %bb.7:                                # %lor.lhs.false
	movq	-8(%rbp), %rax
	cmpl	$2, (%rax)
	jne	.LBB68_23
.LBB68_8:                               # %if.then14
	cmpq	$0, dpb+56
	je	.LBB68_22
# %bb.9:                                # %if.then16
	movq	dpb+56, %rax
	movl	20(%rax), %eax
	movq	-8(%rbp), %rcx
	cmpl	6364(%rcx), %eax
	jne	.LBB68_21
# %bb.10:                               # %if.then19
	movq	-8(%rbp), %rax
	cmpl	$1, (%rax)
	jne	.LBB68_12
# %bb.11:                               # %land.lhs.true23
	movq	dpb+56, %rax
	cmpl	$2, (%rax)
	je	.LBB68_14
.LBB68_12:                              # %lor.lhs.false26
	movq	-8(%rbp), %rax
	cmpl	$2, (%rax)
	jne	.LBB68_20
# %bb.13:                               # %land.lhs.true30
	movq	dpb+56, %rax
	cmpl	$1, (%rax)
	jne	.LBB68_20
.LBB68_14:                              # %if.then34
	movq	-8(%rbp), %rax
	cmpl	$0, 6380(%rax)
	je	.LBB68_16
# %bb.15:                               # %land.lhs.true37
	movq	dpb+56, %rax
	cmpl	$0, 12(%rax)
	jne	.LBB68_18
.LBB68_16:                              # %lor.lhs.false40
	movq	-8(%rbp), %rax
	cmpl	$0, 6380(%rax)
	jne	.LBB68_19
# %bb.17:                               # %land.lhs.true43
	movq	dpb+56, %rax
	cmpl	$0, 12(%rax)
	jne	.LBB68_19
.LBB68_18:                              # %if.then47
	movq	dpb+56, %rdi
	movq	-8(%rbp), %rsi
	callq	insert_picture_in_dpb
	callq	update_ref_list
	callq	update_ltref_list
	callq	dump_dpb
	movq	$0, dpb+56
	jmp	.LBB68_50
.LBB68_19:                              # %if.end48
	jmp	.LBB68_20
.LBB68_20:                              # %if.end49
	jmp	.LBB68_21
.LBB68_21:                              # %if.end50
	jmp	.LBB68_22
.LBB68_22:                              # %if.end51
	jmp	.LBB68_23
.LBB68_23:                              # %if.end52
	movq	img, %rax
	movq	14152(%rax), %rax
	cmpl	$0, 4(%rax)
	jne	.LBB68_27
# %bb.24:                               # %land.lhs.true56
	movq	-8(%rbp), %rax
	cmpl	$0, 6380(%rax)
	je	.LBB68_27
# %bb.25:                               # %land.lhs.true59
	movq	img, %rax
	cmpl	$0, 72500(%rax)
	jne	.LBB68_27
# %bb.26:                               # %if.then62
	movq	-8(%rbp), %rdi
	callq	sliding_window_memory_management
.LBB68_27:                              # %if.end63
	movl	dpb+28, %eax
	cmpl	dpb+24, %eax
	jne	.LBB68_29
# %bb.28:                               # %if.then66
	callq	remove_unused_frame_from_dpb
.LBB68_29:                              # %if.end67
	jmp	.LBB68_30
.LBB68_30:                              # %while.cond
                                        # =>This Inner Loop Header: Depth=1
	movl	dpb+28, %eax
	cmpl	dpb+24, %eax
	jne	.LBB68_37
# %bb.31:                               # %while.body
                                        #   in Loop: Header=BB68_30 Depth=1
	movq	-8(%rbp), %rax
	cmpl	$0, 6380(%rax)
	jne	.LBB68_36
# %bb.32:                               # %if.then72
                                        #   in Loop: Header=BB68_30 Depth=1
	leaq	-16(%rbp), %rdi
	leaq	-20(%rbp), %rsi
	callq	get_smallest_poc
	movl	$4294967295, %eax       # imm = 0xFFFFFFFF
	cmpl	-20(%rbp), %eax
	je	.LBB68_34
# %bb.33:                               # %lor.lhs.false75
                                        #   in Loop: Header=BB68_30 Depth=1
	movq	-8(%rbp), %rax
	movl	4(%rax), %eax
	cmpl	-16(%rbp), %eax
	jge	.LBB68_35
.LBB68_34:                              # %if.then79
	movq	-8(%rbp), %rdi
	movl	p_dec, %esi
	callq	direct_output
	jmp	.LBB68_50
.LBB68_35:                              # %if.end80
                                        #   in Loop: Header=BB68_30 Depth=1
	jmp	.LBB68_36
.LBB68_36:                              # %if.end81
                                        #   in Loop: Header=BB68_30 Depth=1
	callq	output_one_frame_from_dpb
	jmp	.LBB68_30
.LBB68_37:                              # %while.end
	movq	-8(%rbp), %rax
	cmpl	$0, 6380(%rax)
	je	.LBB68_46
# %bb.38:                               # %land.lhs.true84
	movq	-8(%rbp), %rax
	cmpl	$0, 6376(%rax)
	jne	.LBB68_46
# %bb.39:                               # %if.then86
	movl	$0, -12(%rbp)
.LBB68_40:                              # %for.cond
                                        # =>This Inner Loop Header: Depth=1
	movl	-12(%rbp), %eax
	cmpl	dpb+32, %eax
	jae	.LBB68_45
# %bb.41:                               # %for.body
                                        #   in Loop: Header=BB68_40 Depth=1
	movq	dpb+8, %rax
	movl	-12(%rbp), %ecx
	movq	(%rax,%rcx,8), %rax
	movl	20(%rax), %eax
	movq	-8(%rbp), %rcx
	cmpl	6360(%rcx), %eax
	jne	.LBB68_43
# %bb.42:                               # %if.then93
                                        #   in Loop: Header=BB68_40 Depth=1
	movabsq	$.L.str.13, %rdi
	movl	$500, %esi              # imm = 0x1F4
	callq	error
.LBB68_43:                              # %if.end94
                                        #   in Loop: Header=BB68_40 Depth=1
	jmp	.LBB68_44
.LBB68_44:                              # %for.inc
                                        #   in Loop: Header=BB68_40 Depth=1
	movl	-12(%rbp), %eax
	addl	$1, %eax
	movl	%eax, -12(%rbp)
	jmp	.LBB68_40
.LBB68_45:                              # %for.end
	jmp	.LBB68_46
.LBB68_46:                              # %if.end95
	movq	dpb, %rax
	movl	dpb+28, %ecx
	movq	(%rax,%rcx,8), %rdi
	movq	-8(%rbp), %rsi
	callq	insert_picture_in_dpb
	movq	-8(%rbp), %rax
	cmpl	$0, (%rax)
	je	.LBB68_48
# %bb.47:                               # %if.then101
	movq	dpb, %rax
	movl	dpb+28, %ecx
	movq	(%rax,%rcx,8), %rax
	movq	%rax, dpb+56
	jmp	.LBB68_49
.LBB68_48:                              # %if.else104
	movq	$0, dpb+56
.LBB68_49:                              # %if.end105
	movl	dpb+28, %eax
	addl	$1, %eax
	movl	%eax, dpb+28
	callq	update_ref_list
	callq	update_ltref_list
	callq	dump_dpb
.LBB68_50:                              # %return
	cmpl	$1110750053, -24(%rbp)  # imm = 0x4234B365
	jne	.LBB68_52
.LBB68_51:
	addq	$32, %rsp
	popq	%rbp
	.cfi_def_cfa %rsp, 8
	retq
.LBB68_52:                              # %func_exit
	.cfi_def_cfa %rbp, 16
	callq	detect_breach
	jmp	.LBB68_51
.Lfunc_end68:
	.size	store_picture_in_dpb.5, .Lfunc_end68-store_picture_in_dpb.5
	.cfi_endproc
                                        # -- End function
	.p2align	4, 0x90         # -- Begin function reorder_short_term.6
	.type	reorder_short_term.6,@function
reorder_short_term.6:                   # @reorder_short_term.6
	.cfi_startproc
# %bb.0:                                # %entry
	pushq	%rbp
	.cfi_def_cfa_offset 16
	.cfi_offset %rbp, -16
	movq	%rsp, %rbp
	.cfi_def_cfa_register %rbp
	subq	$64, %rsp
	movl	$86142395, -44(%rbp)    # imm = 0x5226DBB
	movq	%rdi, -16(%rbp)
	movl	%esi, -28(%rbp)
	movl	%edx, -20(%rbp)
	movq	%rcx, -40(%rbp)
	movl	-20(%rbp), %edi
	callq	get_short_term_pic
	movq	%rax, -56(%rbp)
	movl	-28(%rbp), %eax
	addl	$1, %eax
	movl	%eax, -4(%rbp)
.LBB69_1:                               # %for.cond
                                        # =>This Inner Loop Header: Depth=1
	movl	-4(%rbp), %eax
	movq	-40(%rbp), %rcx
	cmpl	(%rcx), %eax
	jle	.LBB69_4
# %bb.2:                                # %for.body
                                        #   in Loop: Header=BB69_1 Depth=1
	movq	-16(%rbp), %rax
	movl	-4(%rbp), %ecx
	subl	$1, %ecx
	movslq	%ecx, %rcx
	movq	(%rax,%rcx,8), %rax
	movq	-16(%rbp), %rcx
	movslq	-4(%rbp), %rdx
	movq	%rax, (%rcx,%rdx,8)
# %bb.3:                                # %for.inc
                                        #   in Loop: Header=BB69_1 Depth=1
	movl	-4(%rbp), %eax
	addl	$-1, %eax
	movl	%eax, -4(%rbp)
	jmp	.LBB69_1
.LBB69_4:                               # %for.end
	movq	-56(%rbp), %rax
	movq	-16(%rbp), %rcx
	movq	-40(%rbp), %rdx
	movl	(%rdx), %esi
	movl	%esi, %edi
	addl	$1, %edi
	movl	%edi, (%rdx)
	movslq	%esi, %rdx
	movq	%rax, (%rcx,%rdx,8)
	movq	-40(%rbp), %rax
	movl	(%rax), %eax
	movl	%eax, -24(%rbp)
	movq	-40(%rbp), %rax
	movl	(%rax), %eax
	movl	%eax, -4(%rbp)
.LBB69_5:                               # %for.cond5
                                        # =>This Inner Loop Header: Depth=1
	movl	-4(%rbp), %eax
	movl	-28(%rbp), %ecx
	addl	$1, %ecx
	cmpl	%ecx, %eax
	jg	.LBB69_13
# %bb.6:                                # %for.body8
                                        #   in Loop: Header=BB69_5 Depth=1
	movq	-16(%rbp), %rax
	movslq	-4(%rbp), %rcx
	cmpq	$0, (%rax,%rcx,8)
	je	.LBB69_11
# %bb.7:                                # %if.then
                                        #   in Loop: Header=BB69_5 Depth=1
	movq	-16(%rbp), %rax
	movslq	-4(%rbp), %rcx
	movq	(%rax,%rcx,8), %rax
	cmpl	$0, 6376(%rax)
	jne	.LBB69_9
# %bb.8:                                # %lor.lhs.false
                                        #   in Loop: Header=BB69_5 Depth=1
	movq	-16(%rbp), %rax
	movslq	-4(%rbp), %rcx
	movq	(%rax,%rcx,8), %rax
	movl	6364(%rax), %eax
	cmpl	-20(%rbp), %eax
	je	.LBB69_10
.LBB69_9:                               # %if.then17
                                        #   in Loop: Header=BB69_5 Depth=1
	movq	-16(%rbp), %rax
	movslq	-4(%rbp), %rcx
	movq	(%rax,%rcx,8), %rax
	movq	-16(%rbp), %rcx
	movl	-24(%rbp), %edx
	movl	%edx, %esi
	addl	$1, %esi
	movl	%esi, -24(%rbp)
	movslq	%edx, %rdx
	movq	%rax, (%rcx,%rdx,8)
.LBB69_10:                              # %if.end
                                        #   in Loop: Header=BB69_5 Depth=1
	jmp	.LBB69_11
.LBB69_11:                              # %if.end23
                                        #   in Loop: Header=BB69_5 Depth=1
	jmp	.LBB69_12
.LBB69_12:                              # %for.inc24
                                        #   in Loop: Header=BB69_5 Depth=1
	movl	-4(%rbp), %eax
	addl	$1, %eax
	movl	%eax, -4(%rbp)
	jmp	.LBB69_5
.LBB69_13:                              # %for.end26
	cmpl	$86142395, -44(%rbp)    # imm = 0x5226DBB
	jne	.LBB69_15
.LBB69_14:
	addq	$64, %rsp
	popq	%rbp
	.cfi_def_cfa %rsp, 8
	retq
.LBB69_15:                              # %func_exit
	.cfi_def_cfa %rbp, 16
	callq	detect_breach
	jmp	.LBB69_14
.Lfunc_end69:
	.size	reorder_short_term.6, .Lfunc_end69-reorder_short_term.6
	.cfi_endproc
                                        # -- End function
	.globl	alloc_colocated.7       # -- Begin function alloc_colocated.7
	.p2align	4, 0x90
	.type	alloc_colocated.7,@function
alloc_colocated.7:                      # @alloc_colocated.7
	.cfi_startproc
# %bb.0:                                # %entry
	pushq	%rbp
	.cfi_def_cfa_offset 16
	.cfi_offset %rbp, -16
	movq	%rsp, %rbp
	.cfi_def_cfa_register %rbp
	pushq	%rbx
	subq	$24, %rsp
	.cfi_offset %rbx, -24
	movl	$1309851027, -32(%rbp)  # imm = 0x4E12BD93
	movl	%edi, -16(%rbp)
	movl	%esi, -12(%rbp)
	movl	%edx, -28(%rbp)
	movl	$1, %edi
	movl	$4880, %esi             # imm = 0x1310
	callq	calloc
	xorl	%ecx, %ecx
	movq	%rax, -24(%rbp)
	cmpq	-24(%rbp), %rcx
	jne	.LBB70_2
# %bb.1:                                # %if.then
	movabsq	$.L.str.21, %rdi
	callq	no_mem_exit
.LBB70_2:                               # %if.end
	movl	-16(%rbp), %eax
	movq	-24(%rbp), %rcx
	movl	%eax, 4(%rcx)
	movl	-12(%rbp), %eax
	movq	-24(%rbp), %rcx
	movl	%eax, 8(%rcx)
	movq	-24(%rbp), %rdi
	addq	$1600, %rdi             # imm = 0x640
	movl	-16(%rbp), %eax
	cltd
	movl	$4, %esi
	idivl	%esi
	movl	%eax, %ecx
	movl	-12(%rbp), %eax
	cltd
	idivl	%esi
	movl	$2, %esi
	movl	%ecx, %edx
	movl	%eax, %ecx
	callq	get_mem3Dshort
	movq	-24(%rbp), %rdi
	addq	$1608, %rdi             # imm = 0x648
	movl	-16(%rbp), %eax
	cltd
	movl	$4, %esi
	idivl	%esi
	movl	%eax, %ecx
	movl	-12(%rbp), %eax
	cltd
	idivl	%esi
	movl	$2, %esi
	movl	%ecx, %edx
	movl	%eax, %ecx
	callq	get_mem3Dint64
	movq	-24(%rbp), %rdi
	addq	$1616, %rdi             # imm = 0x650
	movl	-16(%rbp), %eax
	cltd
	movl	$4, %esi
	idivl	%esi
	movl	%eax, %ecx
	movl	-12(%rbp), %eax
	cltd
	idivl	%esi
	movl	$2, %esi
	movl	%ecx, %edx
	movl	%eax, %ecx
	movl	$2, %r8d
	callq	get_mem4Dshort
	movq	-24(%rbp), %rdi
	addq	$1624, %rdi             # imm = 0x658
	movl	-16(%rbp), %eax
	cltd
	movl	$4, %ecx
	idivl	%ecx
	movl	%eax, %esi
	movl	-12(%rbp), %eax
	cltd
	idivl	%ecx
	movl	%eax, %edx
	callq	get_mem2D
	movq	-24(%rbp), %rdi
	addq	$4872, %rdi             # imm = 0x1308
	movl	-16(%rbp), %eax
	cltd
	movl	$4, %ecx
	idivl	%ecx
	movl	%eax, %esi
	movl	-12(%rbp), %eax
	cltd
	idivl	%ecx
	movl	%eax, %edx
	callq	get_mem2D
	cmpl	$0, -28(%rbp)
	je	.LBB70_4
# %bb.3:                                # %if.then17
	movq	-24(%rbp), %rdi
	addq	$3216, %rdi             # imm = 0xC90
	movl	-16(%rbp), %eax
	cltd
	movl	$4, %esi
	idivl	%esi
	movl	%eax, %ecx
	movl	-12(%rbp), %eax
	cltd
	idivl	%esi
	cltd
	movl	$2, %esi
	idivl	%esi
	movl	$2, %esi
	movl	%ecx, %edx
	movl	%eax, %ecx
	callq	get_mem3Dshort
	movq	-24(%rbp), %rdi
	addq	$3224, %rdi             # imm = 0xC98
	movl	-16(%rbp), %eax
	cltd
	movl	$4, %esi
	idivl	%esi
	movl	%eax, %ecx
	movl	-12(%rbp), %eax
	cltd
	idivl	%esi
	cltd
	movl	$2, %esi
	idivl	%esi
	movl	$2, %esi
	movl	%ecx, %edx
	movl	%eax, %ecx
	callq	get_mem3Dint64
	movq	-24(%rbp), %rdi
	addq	$3232, %rdi             # imm = 0xCA0
	movl	-16(%rbp), %eax
	cltd
	movl	$4, %esi
	idivl	%esi
	movl	%eax, %ecx
	movl	-12(%rbp), %eax
	cltd
	idivl	%esi
	cltd
	movl	$2, %esi
	idivl	%esi
	movl	$2, %esi
	movl	%ecx, %edx
	movl	%eax, %ecx
	movl	$2, %r8d
	callq	get_mem4Dshort
	movq	-24(%rbp), %rdi
	addq	$3240, %rdi             # imm = 0xCA8
	movl	-16(%rbp), %eax
	cltd
	movl	$4, %ecx
	idivl	%ecx
	movl	%eax, %esi
	movl	-12(%rbp), %eax
	cltd
	idivl	%ecx
	cltd
	movl	$2, %ecx
	idivl	%ecx
	movl	%eax, %edx
	callq	get_mem2D
	movq	-24(%rbp), %rdi
	addq	$4832, %rdi             # imm = 0x12E0
	movl	-16(%rbp), %eax
	cltd
	movl	$4, %esi
	idivl	%esi
	movl	%eax, %ecx
	movl	-12(%rbp), %eax
	cltd
	idivl	%esi
	cltd
	movl	$2, %esi
	idivl	%esi
	movl	$2, %esi
	movl	%ecx, %edx
	movl	%eax, %ecx
	callq	get_mem3Dshort
	movq	-24(%rbp), %rdi
	addq	$4840, %rdi             # imm = 0x12E8
	movl	-16(%rbp), %eax
	cltd
	movl	$4, %esi
	idivl	%esi
	movl	%eax, %ecx
	movl	-12(%rbp), %eax
	cltd
	idivl	%esi
	cltd
	movl	$2, %esi
	idivl	%esi
	movl	$2, %esi
	movl	%ecx, %edx
	movl	%eax, %ecx
	callq	get_mem3Dint64
	movq	-24(%rbp), %rdi
	addq	$4848, %rdi             # imm = 0x12F0
	movl	-16(%rbp), %eax
	cltd
	movl	$4, %esi
	idivl	%esi
	movl	%eax, %ecx
	movl	-12(%rbp), %eax
	cltd
	idivl	%esi
	cltd
	movl	$2, %esi
	idivl	%esi
	movl	$2, %esi
	movl	%ecx, %edx
	movl	%eax, %ecx
	movl	$2, %r8d
	callq	get_mem4Dshort
	movq	-24(%rbp), %rdi
	addq	$4856, %rdi             # imm = 0x12F8
	movl	-16(%rbp), %eax
	cltd
	movl	$4, %ecx
	idivl	%ecx
	movl	%eax, %esi
	movl	-12(%rbp), %eax
	cltd
	idivl	%ecx
	cltd
	movl	$2, %ecx
	idivl	%ecx
	movl	%eax, %edx
	callq	get_mem2D
.LBB70_4:                               # %if.end50
	movl	-28(%rbp), %eax
	movq	-24(%rbp), %rcx
	movl	%eax, (%rcx)
	movq	-24(%rbp), %rbx
	cmpl	$1309851027, -32(%rbp)  # imm = 0x4E12BD93
	jne	.LBB70_6
.LBB70_5:
	movq	%rbx, %rax
	addq	$24, %rsp
	popq	%rbx
	popq	%rbp
	.cfi_def_cfa %rsp, 8
	retq
.LBB70_6:                               # %func_exit
	.cfi_def_cfa %rbp, 16
	callq	detect_breach
	jmp	.LBB70_5
.Lfunc_end70:
	.size	alloc_colocated.7, .Lfunc_end70-alloc_colocated.7
	.cfi_endproc
                                        # -- End function
	.globl	store_picture_in_dpb.8  # -- Begin function store_picture_in_dpb.8
	.p2align	4, 0x90
	.type	store_picture_in_dpb.8,@function
store_picture_in_dpb.8:                 # @store_picture_in_dpb.8
	.cfi_startproc
# %bb.0:                                # %entry
	pushq	%rbp
	.cfi_def_cfa_offset 16
	.cfi_offset %rbp, -16
	movq	%rsp, %rbp
	.cfi_def_cfa_register %rbp
	subq	$32, %rsp
	movl	$924531861, -24(%rbp)   # imm = 0x371B3C95
	movq	%rdi, -8(%rbp)
	movq	img, %rax
	cmpl	$0, 72496(%rax)
	setne	%al
	andb	$1, %al
	movzbl	%al, %eax
	movq	-8(%rbp), %rcx
	movl	%eax, 6380(%rcx)
	movq	img, %rax
	movl	$0, 72644(%rax)
	movq	img, %rax
	cmpl	$2, 28(%rax)
	sete	%al
	andb	$1, %al
	movzbl	%al, %eax
	movq	img, %rcx
	movl	%eax, 72640(%rcx)
	movq	img, %rax
	movq	14152(%rax), %rax
	cmpl	$0, 4(%rax)
	je	.LBB71_2
# %bb.1:                                # %if.then
	movq	-8(%rbp), %rdi
	callq	idr_memory_management
	jmp	.LBB71_6
.LBB71_2:                               # %if.else
	movq	-8(%rbp), %rax
	cmpl	$0, 6380(%rax)
	je	.LBB71_5
# %bb.3:                                # %land.lhs.true
	movq	img, %rax
	cmpl	$0, 72500(%rax)
	je	.LBB71_5
# %bb.4:                                # %if.then6
	movq	-8(%rbp), %rdi
	callq	adaptive_memory_management
.LBB71_5:                               # %if.end
	jmp	.LBB71_6
.LBB71_6:                               # %if.end7
	movq	-8(%rbp), %rax
	cmpl	$1, (%rax)
	je	.LBB71_8
# %bb.7:                                # %lor.lhs.false
	movq	-8(%rbp), %rax
	cmpl	$2, (%rax)
	jne	.LBB71_23
.LBB71_8:                               # %if.then14
	cmpq	$0, dpb+56
	je	.LBB71_22
# %bb.9:                                # %if.then16
	movq	dpb+56, %rax
	movl	20(%rax), %eax
	movq	-8(%rbp), %rcx
	cmpl	6364(%rcx), %eax
	jne	.LBB71_21
# %bb.10:                               # %if.then19
	movq	-8(%rbp), %rax
	cmpl	$1, (%rax)
	jne	.LBB71_12
# %bb.11:                               # %land.lhs.true23
	movq	dpb+56, %rax
	cmpl	$2, (%rax)
	je	.LBB71_14
.LBB71_12:                              # %lor.lhs.false26
	movq	-8(%rbp), %rax
	cmpl	$2, (%rax)
	jne	.LBB71_20
# %bb.13:                               # %land.lhs.true30
	movq	dpb+56, %rax
	cmpl	$1, (%rax)
	jne	.LBB71_20
.LBB71_14:                              # %if.then34
	movq	-8(%rbp), %rax
	cmpl	$0, 6380(%rax)
	je	.LBB71_16
# %bb.15:                               # %land.lhs.true37
	movq	dpb+56, %rax
	cmpl	$0, 12(%rax)
	jne	.LBB71_18
.LBB71_16:                              # %lor.lhs.false40
	movq	-8(%rbp), %rax
	cmpl	$0, 6380(%rax)
	jne	.LBB71_19
# %bb.17:                               # %land.lhs.true43
	movq	dpb+56, %rax
	cmpl	$0, 12(%rax)
	jne	.LBB71_19
.LBB71_18:                              # %if.then47
	movq	dpb+56, %rdi
	movq	-8(%rbp), %rsi
	callq	insert_picture_in_dpb
	callq	update_ref_list
	callq	update_ltref_list
	callq	dump_dpb
	movq	$0, dpb+56
	jmp	.LBB71_50
.LBB71_19:                              # %if.end48
	jmp	.LBB71_20
.LBB71_20:                              # %if.end49
	jmp	.LBB71_21
.LBB71_21:                              # %if.end50
	jmp	.LBB71_22
.LBB71_22:                              # %if.end51
	jmp	.LBB71_23
.LBB71_23:                              # %if.end52
	movq	img, %rax
	movq	14152(%rax), %rax
	cmpl	$0, 4(%rax)
	jne	.LBB71_27
# %bb.24:                               # %land.lhs.true56
	movq	-8(%rbp), %rax
	cmpl	$0, 6380(%rax)
	je	.LBB71_27
# %bb.25:                               # %land.lhs.true59
	movq	img, %rax
	cmpl	$0, 72500(%rax)
	jne	.LBB71_27
# %bb.26:                               # %if.then62
	movq	-8(%rbp), %rdi
	callq	sliding_window_memory_management
.LBB71_27:                              # %if.end63
	movl	dpb+28, %eax
	cmpl	dpb+24, %eax
	jne	.LBB71_29
# %bb.28:                               # %if.then66
	callq	remove_unused_frame_from_dpb
.LBB71_29:                              # %if.end67
	jmp	.LBB71_30
.LBB71_30:                              # %while.cond
                                        # =>This Inner Loop Header: Depth=1
	movl	dpb+28, %eax
	cmpl	dpb+24, %eax
	jne	.LBB71_37
# %bb.31:                               # %while.body
                                        #   in Loop: Header=BB71_30 Depth=1
	movq	-8(%rbp), %rax
	cmpl	$0, 6380(%rax)
	jne	.LBB71_36
# %bb.32:                               # %if.then72
                                        #   in Loop: Header=BB71_30 Depth=1
	leaq	-20(%rbp), %rdi
	leaq	-16(%rbp), %rsi
	callq	get_smallest_poc
	movl	$4294967295, %eax       # imm = 0xFFFFFFFF
	cmpl	-16(%rbp), %eax
	je	.LBB71_34
# %bb.33:                               # %lor.lhs.false75
                                        #   in Loop: Header=BB71_30 Depth=1
	movq	-8(%rbp), %rax
	movl	4(%rax), %eax
	cmpl	-20(%rbp), %eax
	jge	.LBB71_35
.LBB71_34:                              # %if.then79
	movq	-8(%rbp), %rdi
	movl	p_dec, %esi
	callq	direct_output
	jmp	.LBB71_50
.LBB71_35:                              # %if.end80
                                        #   in Loop: Header=BB71_30 Depth=1
	jmp	.LBB71_36
.LBB71_36:                              # %if.end81
                                        #   in Loop: Header=BB71_30 Depth=1
	callq	output_one_frame_from_dpb
	jmp	.LBB71_30
.LBB71_37:                              # %while.end
	movq	-8(%rbp), %rax
	cmpl	$0, 6380(%rax)
	je	.LBB71_46
# %bb.38:                               # %land.lhs.true84
	movq	-8(%rbp), %rax
	cmpl	$0, 6376(%rax)
	jne	.LBB71_46
# %bb.39:                               # %if.then86
	movl	$0, -12(%rbp)
.LBB71_40:                              # %for.cond
                                        # =>This Inner Loop Header: Depth=1
	movl	-12(%rbp), %eax
	cmpl	dpb+32, %eax
	jae	.LBB71_45
# %bb.41:                               # %for.body
                                        #   in Loop: Header=BB71_40 Depth=1
	movq	dpb+8, %rax
	movl	-12(%rbp), %ecx
	movq	(%rax,%rcx,8), %rax
	movl	20(%rax), %eax
	movq	-8(%rbp), %rcx
	cmpl	6360(%rcx), %eax
	jne	.LBB71_43
# %bb.42:                               # %if.then93
                                        #   in Loop: Header=BB71_40 Depth=1
	movabsq	$.L.str.13, %rdi
	movl	$500, %esi              # imm = 0x1F4
	callq	error
.LBB71_43:                              # %if.end94
                                        #   in Loop: Header=BB71_40 Depth=1
	jmp	.LBB71_44
.LBB71_44:                              # %for.inc
                                        #   in Loop: Header=BB71_40 Depth=1
	movl	-12(%rbp), %eax
	addl	$1, %eax
	movl	%eax, -12(%rbp)
	jmp	.LBB71_40
.LBB71_45:                              # %for.end
	jmp	.LBB71_46
.LBB71_46:                              # %if.end95
	movq	dpb, %rax
	movl	dpb+28, %ecx
	movq	(%rax,%rcx,8), %rdi
	movq	-8(%rbp), %rsi
	callq	insert_picture_in_dpb
	movq	-8(%rbp), %rax
	cmpl	$0, (%rax)
	je	.LBB71_48
# %bb.47:                               # %if.then101
	movq	dpb, %rax
	movl	dpb+28, %ecx
	movq	(%rax,%rcx,8), %rax
	movq	%rax, dpb+56
	jmp	.LBB71_49
.LBB71_48:                              # %if.else104
	movq	$0, dpb+56
.LBB71_49:                              # %if.end105
	movl	dpb+28, %eax
	addl	$1, %eax
	movl	%eax, dpb+28
	callq	update_ref_list
	callq	update_ltref_list
	callq	dump_dpb
.LBB71_50:                              # %return
	cmpl	$924531861, -24(%rbp)   # imm = 0x371B3C95
	jne	.LBB71_52
.LBB71_51:
	addq	$32, %rsp
	popq	%rbp
	.cfi_def_cfa %rsp, 8
	retq
.LBB71_52:                              # %func_exit
	.cfi_def_cfa %rbp, 16
	callq	detect_breach
	jmp	.LBB71_51
.Lfunc_end71:
	.size	store_picture_in_dpb.8, .Lfunc_end71-store_picture_in_dpb.8
	.cfi_endproc
                                        # -- End function
	.globl	alloc_storable_picture.9 # -- Begin function alloc_storable_picture.9
	.p2align	4, 0x90
	.type	alloc_storable_picture.9,@function
alloc_storable_picture.9:               # @alloc_storable_picture.9
	.cfi_startproc
# %bb.0:                                # %entry
	pushq	%rbp
	.cfi_def_cfa_offset 16
	.cfi_offset %rbp, -16
	movq	%rsp, %rbp
	.cfi_def_cfa_register %rbp
	pushq	%rbx
	subq	$40, %rsp
	.cfi_offset %rbx, -24
	movl	$305453502, -40(%rbp)   # imm = 0x1234D9BE
	movl	%edi, -36(%rbp)
	movl	%esi, -20(%rbp)
	movl	%edx, -24(%rbp)
	movl	%ecx, -32(%rbp)
	movl	%r8d, -28(%rbp)
	movl	$1, %edi
	movl	$6584, %esi             # imm = 0x19B8
	callq	calloc
	xorl	%ecx, %ecx
	movq	%rax, -16(%rbp)
	cmpq	-16(%rbp), %rcx
	jne	.LBB72_2
# %bb.1:                                # %if.then
	movabsq	$.L.str.7, %rdi
	callq	no_mem_exit
.LBB72_2:                               # %if.end
	movq	-16(%rbp), %rdi
	addq	$6424, %rdi             # imm = 0x1918
	movl	-24(%rbp), %esi
	movl	-20(%rbp), %edx
	callq	get_mem2Dpel
	movq	-16(%rbp), %rax
	movq	$0, 6432(%rax)
	movq	-16(%rbp), %rax
	movq	$0, 6448(%rax)
	movq	-16(%rbp), %rax
	movq	$0, 6464(%rax)
	movq	input, %rax
	cmpl	$0, 1284(%rax)
	jne	.LBB72_5
# %bb.3:                                # %lor.lhs.false
	movq	input, %rax
	cmpl	$0, 1288(%rax)
	jne	.LBB72_5
# %bb.4:                                # %lor.lhs.false3
	movq	input, %rax
	cmpl	$0, 60(%rax)
	je	.LBB72_6
.LBB72_5:                               # %if.then5
	movq	-16(%rbp), %rax
	movq	$0, 6440(%rax)
	movq	-16(%rbp), %rax
	movq	$0, 6456(%rax)
.LBB72_6:                               # %if.end6
	movq	img, %rax
	cmpl	$0, 72700(%rax)
	je	.LBB72_8
# %bb.7:                                # %if.then8
	movq	-16(%rbp), %rdi
	addq	$6464, %rdi             # imm = 0x1940
	movl	-28(%rbp), %edx
	movl	-32(%rbp), %ecx
	movl	$2, %esi
	callq	get_mem3Dpel
.LBB72_8:                               # %if.end11
	movq	img, %rax
	movl	72484(%rax), %edi
	movl	$4, %esi
	callq	calloc
	xorl	%ecx, %ecx
	movq	-16(%rbp), %rdx
	movq	%rax, 6472(%rdx)
	movq	-16(%rbp), %rax
	cmpq	6472(%rax), %rcx
	jne	.LBB72_10
# %bb.9:                                # %if.then16
	movabsq	$.L.str.8, %rdi
	callq	no_mem_exit
.LBB72_10:                              # %if.end17
	movq	-16(%rbp), %rdi
	addq	$6480, %rdi             # imm = 0x1950
	movl	-20(%rbp), %eax
	cltd
	movl	$4, %esi
	idivl	%esi
	movl	%eax, %ecx
	movl	-24(%rbp), %eax
	cltd
	idivl	%esi
	movl	$2, %esi
	movl	%ecx, %edx
	movl	%eax, %ecx
	callq	get_mem3Dshort
	movq	-16(%rbp), %rdi
	addq	$6488, %rdi             # imm = 0x1958
	movl	-20(%rbp), %eax
	cltd
	movl	$4, %esi
	idivl	%esi
	movl	%eax, %ecx
	movl	-24(%rbp), %eax
	cltd
	idivl	%esi
	movl	$6, %esi
	movl	%ecx, %edx
	movl	%eax, %ecx
	callq	get_mem3Dint64
	movq	-16(%rbp), %rdi
	addq	$6496, %rdi             # imm = 0x1960
	movl	-20(%rbp), %eax
	cltd
	movl	$4, %esi
	idivl	%esi
	movl	%eax, %ecx
	movl	-24(%rbp), %eax
	cltd
	idivl	%esi
	movl	$6, %esi
	movl	%ecx, %edx
	movl	%eax, %ecx
	callq	get_mem3Dint64
	movq	-16(%rbp), %rdi
	addq	$6504, %rdi             # imm = 0x1968
	movl	-20(%rbp), %eax
	cltd
	movl	$4, %esi
	idivl	%esi
	movl	%eax, %ecx
	movl	-24(%rbp), %eax
	cltd
	idivl	%esi
	movl	$2, %esi
	movl	%ecx, %edx
	movl	%eax, %ecx
	movl	$2, %r8d
	callq	get_mem4Dshort
	movq	-16(%rbp), %rdi
	addq	$6512, %rdi             # imm = 0x1970
	movl	-20(%rbp), %eax
	cltd
	movl	$4, %ecx
	idivl	%ecx
	movl	%eax, %esi
	movl	-24(%rbp), %eax
	cltd
	idivl	%ecx
	movl	%eax, %edx
	callq	get_mem2D
	movq	-16(%rbp), %rdi
	addq	$6520, %rdi             # imm = 0x1978
	movl	-20(%rbp), %eax
	cltd
	movl	$4, %ecx
	idivl	%ecx
	movl	%eax, %esi
	movl	-24(%rbp), %eax
	cltd
	idivl	%ecx
	movl	%eax, %edx
	callq	get_mem2D
	movq	-16(%rbp), %rax
	movl	$0, 6364(%rax)
	movq	-16(%rbp), %rax
	movl	$0, 6360(%rax)
	movq	-16(%rbp), %rax
	movl	$0, 6372(%rax)
	movq	-16(%rbp), %rax
	movl	$0, 6368(%rax)
	movq	-16(%rbp), %rax
	movl	$0, 6380(%rax)
	movq	-16(%rbp), %rax
	movl	$0, 6376(%rax)
	movq	-16(%rbp), %rax
	movl	$0, 6388(%rax)
	movq	-16(%rbp), %rax
	movl	$0, 6384(%rax)
	movl	-36(%rbp), %eax
	movq	-16(%rbp), %rcx
	movl	%eax, (%rcx)
	movl	-20(%rbp), %eax
	movq	-16(%rbp), %rcx
	movl	%eax, 6392(%rcx)
	movl	-24(%rbp), %eax
	movq	-16(%rbp), %rcx
	movl	%eax, 6396(%rcx)
	movl	-32(%rbp), %eax
	movq	-16(%rbp), %rcx
	movl	%eax, 6400(%rcx)
	movl	-28(%rbp), %eax
	movq	-16(%rbp), %rcx
	movl	%eax, 6404(%rcx)
	movq	-16(%rbp), %rax
	movq	$0, 6528(%rax)
	movq	-16(%rbp), %rax
	movq	$0, 6536(%rax)
	movq	-16(%rbp), %rax
	movq	$0, 6544(%rax)
	movq	-16(%rbp), %rax
	movl	$0, 6412(%rax)
	movq	-16(%rbp), %rax
	movl	$0, 6416(%rax)
	movq	-16(%rbp), %rbx
	cmpl	$305453502, -40(%rbp)   # imm = 0x1234D9BE
	jne	.LBB72_12
.LBB72_11:
	movq	%rbx, %rax
	addq	$40, %rsp
	popq	%rbx
	popq	%rbp
	.cfi_def_cfa %rsp, 8
	retq
.LBB72_12:                              # %func_exit
	.cfi_def_cfa %rbp, 16
	callq	detect_breach
	jmp	.LBB72_11
.Lfunc_end72:
	.size	alloc_storable_picture.9, .Lfunc_end72-alloc_storable_picture.9
	.cfi_endproc
                                        # -- End function
	.globl	gen_field_ref_ids.10    # -- Begin function gen_field_ref_ids.10
	.p2align	4, 0x90
	.type	gen_field_ref_ids.10,@function
gen_field_ref_ids.10:                   # @gen_field_ref_ids.10
	.cfi_startproc
# %bb.0:                                # %entry
	pushq	%rbp
	.cfi_def_cfa_offset 16
	.cfi_offset %rbp, -16
	movq	%rsp, %rbp
	.cfi_def_cfa_register %rbp
	subq	$32, %rsp
	movl	$1171109508, -28(%rbp)  # imm = 0x45CDB684
	movq	%rdi, -16(%rbp)
	movl	$0, -4(%rbp)
.LBB73_1:                               # %for.cond
                                        # =>This Loop Header: Depth=1
                                        #     Child Loop BB73_3 Depth 2
	movl	-4(%rbp), %ecx
	movq	-16(%rbp), %rax
	movl	6392(%rax), %eax
	cltd
	movl	$4, %esi
	idivl	%esi
	cmpl	%eax, %ecx
	jge	.LBB73_14
# %bb.2:                                # %for.body
                                        #   in Loop: Header=BB73_1 Depth=1
	movl	$0, -8(%rbp)
.LBB73_3:                               # %for.cond1
                                        #   Parent Loop BB73_1 Depth=1
                                        # =>  This Inner Loop Header: Depth=2
	movl	-8(%rbp), %ecx
	movq	-16(%rbp), %rax
	movl	6396(%rax), %eax
	cltd
	movl	$4, %esi
	idivl	%esi
	cmpl	%eax, %ecx
	jge	.LBB73_12
# %bb.4:                                # %for.body4
                                        #   in Loop: Header=BB73_3 Depth=2
	movq	-16(%rbp), %rax
	movq	6480(%rax), %rax
	movq	(%rax), %rax
	movslq	-4(%rbp), %rcx
	movq	(%rax,%rcx,8), %rax
	movslq	-8(%rbp), %rcx
	movswl	(%rax,%rcx,2), %eax
	movl	%eax, -24(%rbp)
	movq	-16(%rbp), %rax
	movq	6480(%rax), %rax
	movq	8(%rax), %rax
	movslq	-4(%rbp), %rcx
	movq	(%rax,%rcx,8), %rax
	movslq	-8(%rbp), %rcx
	movswl	(%rax,%rcx,2), %eax
	movl	%eax, -20(%rbp)
	cmpl	$0, -24(%rbp)
	jl	.LBB73_6
# %bb.5:                                # %cond.true
                                        #   in Loop: Header=BB73_3 Depth=2
	movq	-16(%rbp), %rax
	movslq	-24(%rbp), %rcx
	movq	24(%rax,%rcx,8), %rax
	jmp	.LBB73_7
.LBB73_6:                               # %cond.false
                                        #   in Loop: Header=BB73_3 Depth=2
	xorl	%eax, %eax
	jmp	.LBB73_7
.LBB73_7:                               # %cond.end
                                        #   in Loop: Header=BB73_3 Depth=2
	movq	-16(%rbp), %rcx
	movq	6496(%rcx), %rcx
	movq	(%rcx), %rcx
	movslq	-4(%rbp), %rdx
	movq	(%rcx,%rdx,8), %rcx
	movslq	-8(%rbp), %rdx
	movq	%rax, (%rcx,%rdx,8)
	cmpl	$0, -20(%rbp)
	jl	.LBB73_9
# %bb.8:                                # %cond.true27
                                        #   in Loop: Header=BB73_3 Depth=2
	movq	-16(%rbp), %rax
	movslq	-20(%rbp), %rcx
	movq	288(%rax,%rcx,8), %rax
	jmp	.LBB73_10
.LBB73_9:                               # %cond.false32
                                        #   in Loop: Header=BB73_3 Depth=2
	xorl	%eax, %eax
	jmp	.LBB73_10
.LBB73_10:                              # %cond.end33
                                        #   in Loop: Header=BB73_3 Depth=2
	movq	-16(%rbp), %rcx
	movq	6496(%rcx), %rcx
	movq	8(%rcx), %rcx
	movslq	-4(%rbp), %rdx
	movq	(%rcx,%rdx,8), %rcx
	movslq	-8(%rbp), %rdx
	movq	%rax, (%rcx,%rdx,8)
	movq	-16(%rbp), %rax
	movq	6520(%rax), %rax
	movslq	-4(%rbp), %rcx
	movq	(%rax,%rcx,8), %rax
	movslq	-8(%rbp), %rcx
	movb	$1, (%rax,%rcx)
# %bb.11:                               # %for.inc
                                        #   in Loop: Header=BB73_3 Depth=2
	movl	-8(%rbp), %eax
	addl	$1, %eax
	movl	%eax, -8(%rbp)
	jmp	.LBB73_3
.LBB73_12:                              # %for.end
                                        #   in Loop: Header=BB73_1 Depth=1
	jmp	.LBB73_13
.LBB73_13:                              # %for.inc45
                                        #   in Loop: Header=BB73_1 Depth=1
	movl	-4(%rbp), %eax
	addl	$1, %eax
	movl	%eax, -4(%rbp)
	jmp	.LBB73_1
.LBB73_14:                              # %for.end47
	cmpl	$1171109508, -28(%rbp)  # imm = 0x45CDB684
	jne	.LBB73_16
.LBB73_15:
	addq	$32, %rsp
	popq	%rbp
	.cfi_def_cfa %rsp, 8
	retq
.LBB73_16:                              # %func_exit
	.cfi_def_cfa %rbp, 16
	callq	detect_breach
	jmp	.LBB73_15
.Lfunc_end73:
	.size	gen_field_ref_ids.10, .Lfunc_end73-gen_field_ref_ids.10
	.cfi_endproc
                                        # -- End function
	.globl	dpb_split_field.11      # -- Begin function dpb_split_field.11
	.p2align	4, 0x90
	.type	dpb_split_field.11,@function
dpb_split_field.11:                     # @dpb_split_field.11
	.cfi_startproc
# %bb.0:                                # %entry
	pushq	%rbp
	.cfi_def_cfa_offset 16
	.cfi_offset %rbp, -16
	movq	%rsp, %rbp
	.cfi_def_cfa_register %rbp
	subq	$80, %rsp
	movl	$1952806240, -64(%rbp)  # imm = 0x74657560
	movq	%rdi, -16(%rbp)
	movq	-16(%rbp), %rax
	movq	40(%rax), %rax
	movl	4(%rax), %eax
	movq	-16(%rbp), %rcx
	movl	%eax, 36(%rcx)
	movq	-16(%rbp), %rax
	movq	40(%rax), %rax
	cmpl	$0, 6556(%rax)
	jne	.LBB74_28
# %bb.1:                                # %if.then
	movq	-16(%rbp), %rax
	movq	40(%rax), %rax
	movl	6392(%rax), %esi
	movq	-16(%rbp), %rax
	movq	40(%rax), %rax
	movl	6396(%rax), %eax
	cltd
	movl	$2, %edi
	idivl	%edi
	movl	%eax, %r8d
	movq	-16(%rbp), %rax
	movq	40(%rax), %rax
	movl	6400(%rax), %ecx
	movq	-16(%rbp), %rax
	movq	40(%rax), %rax
	movl	6404(%rax), %eax
	cltd
	idivl	%edi
	movl	$1, %edi
	movl	%r8d, %edx
	movl	%eax, %r8d
	callq	alloc_storable_picture
	movq	-16(%rbp), %rcx
	movq	%rax, 48(%rcx)
	movq	-16(%rbp), %rax
	movq	40(%rax), %rax
	movl	6392(%rax), %esi
	movq	-16(%rbp), %rax
	movq	40(%rax), %rax
	movl	6396(%rax), %eax
	cltd
	movl	$2, %edi
	idivl	%edi
	movl	%eax, %r8d
	movq	-16(%rbp), %rax
	movq	40(%rax), %rax
	movl	6400(%rax), %ecx
	movq	-16(%rbp), %rax
	movq	40(%rax), %rax
	movl	6404(%rax), %eax
	cltd
	idivl	%edi
	movl	$2, %edi
	movl	%r8d, %edx
	movl	%eax, %r8d
	callq	alloc_storable_picture
	movq	-16(%rbp), %rcx
	movq	%rax, 56(%rcx)
	movl	$0, -4(%rbp)
.LBB74_2:                               # %for.cond
                                        # =>This Inner Loop Header: Depth=1
	movl	-4(%rbp), %ecx
	movq	-16(%rbp), %rax
	movq	40(%rax), %rax
	movl	6396(%rax), %eax
	cltd
	movl	$2, %esi
	idivl	%esi
	cmpl	%eax, %ecx
	jge	.LBB74_5
# %bb.3:                                # %for.body
                                        #   in Loop: Header=BB74_2 Depth=1
	movq	-16(%rbp), %rax
	movq	48(%rax), %rax
	movq	6424(%rax), %rax
	movslq	-4(%rbp), %rcx
	movq	(%rax,%rcx,8), %rdi
	movq	-16(%rbp), %rax
	movq	40(%rax), %rax
	movq	6424(%rax), %rax
	movl	-4(%rbp), %ecx
	shll	$1, %ecx
	movslq	%ecx, %rcx
	movq	(%rax,%rcx,8), %rsi
	movq	-16(%rbp), %rax
	movq	40(%rax), %rax
	movslq	6392(%rax), %rdx
	shlq	$1, %rdx
	callq	memcpy
# %bb.4:                                # %for.inc
                                        #   in Loop: Header=BB74_2 Depth=1
	movl	-4(%rbp), %eax
	addl	$1, %eax
	movl	%eax, -4(%rbp)
	jmp	.LBB74_2
.LBB74_5:                               # %for.end
	movl	$0, -4(%rbp)
.LBB74_6:                               # %for.cond30
                                        # =>This Inner Loop Header: Depth=1
	movl	-4(%rbp), %ecx
	movq	-16(%rbp), %rax
	movq	40(%rax), %rax
	movl	6404(%rax), %eax
	cltd
	movl	$2, %esi
	idivl	%esi
	cmpl	%eax, %ecx
	jge	.LBB74_9
# %bb.7:                                # %for.body36
                                        #   in Loop: Header=BB74_6 Depth=1
	movq	-16(%rbp), %rax
	movq	48(%rax), %rax
	movq	6464(%rax), %rax
	movq	(%rax), %rax
	movslq	-4(%rbp), %rcx
	movq	(%rax,%rcx,8), %rdi
	movq	-16(%rbp), %rax
	movq	40(%rax), %rax
	movq	6464(%rax), %rax
	movq	(%rax), %rax
	movl	-4(%rbp), %ecx
	shll	$1, %ecx
	movslq	%ecx, %rcx
	movq	(%rax,%rcx,8), %rsi
	movq	-16(%rbp), %rax
	movq	40(%rax), %rax
	movslq	6400(%rax), %rdx
	shlq	$1, %rdx
	callq	memcpy
	movq	-16(%rbp), %rax
	movq	48(%rax), %rax
	movq	6464(%rax), %rax
	movq	8(%rax), %rax
	movslq	-4(%rbp), %rcx
	movq	(%rax,%rcx,8), %rdi
	movq	-16(%rbp), %rax
	movq	40(%rax), %rax
	movq	6464(%rax), %rax
	movq	8(%rax), %rax
	movl	-4(%rbp), %ecx
	shll	$1, %ecx
	movslq	%ecx, %rcx
	movq	(%rax,%rcx,8), %rsi
	movq	-16(%rbp), %rax
	movq	40(%rax), %rax
	movslq	6400(%rax), %rdx
	shlq	$1, %rdx
	callq	memcpy
# %bb.8:                                # %for.inc66
                                        #   in Loop: Header=BB74_6 Depth=1
	movl	-4(%rbp), %eax
	addl	$1, %eax
	movl	%eax, -4(%rbp)
	jmp	.LBB74_6
.LBB74_9:                               # %for.end68
	movl	$0, -4(%rbp)
.LBB74_10:                              # %for.cond69
                                        # =>This Inner Loop Header: Depth=1
	movl	-4(%rbp), %ecx
	movq	-16(%rbp), %rax
	movq	40(%rax), %rax
	movl	6396(%rax), %eax
	cltd
	movl	$2, %esi
	idivl	%esi
	cmpl	%eax, %ecx
	jge	.LBB74_13
# %bb.11:                               # %for.body75
                                        #   in Loop: Header=BB74_10 Depth=1
	movq	-16(%rbp), %rax
	movq	56(%rax), %rax
	movq	6424(%rax), %rax
	movslq	-4(%rbp), %rcx
	movq	(%rax,%rcx,8), %rdi
	movq	-16(%rbp), %rax
	movq	40(%rax), %rax
	movq	6424(%rax), %rax
	movl	-4(%rbp), %ecx
	shll	$1, %ecx
	addl	$1, %ecx
	movslq	%ecx, %rcx
	movq	(%rax,%rcx,8), %rsi
	movq	-16(%rbp), %rax
	movq	40(%rax), %rax
	movslq	6392(%rax), %rdx
	shlq	$1, %rdx
	callq	memcpy
# %bb.12:                               # %for.inc89
                                        #   in Loop: Header=BB74_10 Depth=1
	movl	-4(%rbp), %eax
	addl	$1, %eax
	movl	%eax, -4(%rbp)
	jmp	.LBB74_10
.LBB74_13:                              # %for.end91
	movl	$0, -4(%rbp)
.LBB74_14:                              # %for.cond92
                                        # =>This Inner Loop Header: Depth=1
	movl	-4(%rbp), %ecx
	movq	-16(%rbp), %rax
	movq	40(%rax), %rax
	movl	6404(%rax), %eax
	cltd
	movl	$2, %esi
	idivl	%esi
	cmpl	%eax, %ecx
	jge	.LBB74_17
# %bb.15:                               # %for.body98
                                        #   in Loop: Header=BB74_14 Depth=1
	movq	-16(%rbp), %rax
	movq	56(%rax), %rax
	movq	6464(%rax), %rax
	movq	(%rax), %rax
	movslq	-4(%rbp), %rcx
	movq	(%rax,%rcx,8), %rdi
	movq	-16(%rbp), %rax
	movq	40(%rax), %rax
	movq	6464(%rax), %rax
	movq	(%rax), %rax
	movl	-4(%rbp), %ecx
	shll	$1, %ecx
	addl	$1, %ecx
	movslq	%ecx, %rcx
	movq	(%rax,%rcx,8), %rsi
	movq	-16(%rbp), %rax
	movq	40(%rax), %rax
	movslq	6400(%rax), %rdx
	shlq	$1, %rdx
	callq	memcpy
	movq	-16(%rbp), %rax
	movq	56(%rax), %rax
	movq	6464(%rax), %rax
	movq	8(%rax), %rax
	movslq	-4(%rbp), %rcx
	movq	(%rax,%rcx,8), %rdi
	movq	-16(%rbp), %rax
	movq	40(%rax), %rax
	movq	6464(%rax), %rax
	movq	8(%rax), %rax
	movl	-4(%rbp), %ecx
	shll	$1, %ecx
	addl	$1, %ecx
	movslq	%ecx, %rcx
	movq	(%rax,%rcx,8), %rsi
	movq	-16(%rbp), %rax
	movq	40(%rax), %rax
	movslq	6400(%rax), %rdx
	shlq	$1, %rdx
	callq	memcpy
# %bb.16:                               # %for.inc131
                                        #   in Loop: Header=BB74_14 Depth=1
	movl	-4(%rbp), %eax
	addl	$1, %eax
	movl	%eax, -4(%rbp)
	jmp	.LBB74_14
.LBB74_17:                              # %for.end133
	movq	-16(%rbp), %rax
	movq	48(%rax), %rdi
	callq	UnifiedOneForthPix
	movq	-16(%rbp), %rax
	movq	56(%rax), %rdi
	callq	UnifiedOneForthPix
	movq	-16(%rbp), %rax
	movq	40(%rax), %rax
	movl	8(%rax), %eax
	movq	-16(%rbp), %rcx
	movq	48(%rcx), %rcx
	movl	%eax, 4(%rcx)
	movq	-16(%rbp), %rax
	movq	40(%rax), %rax
	movl	12(%rax), %eax
	movq	-16(%rbp), %rcx
	movq	56(%rcx), %rcx
	movl	%eax, 4(%rcx)
	movq	-16(%rbp), %rax
	movq	40(%rax), %rax
	movl	16(%rax), %eax
	movq	-16(%rbp), %rcx
	movq	48(%rcx), %rcx
	movl	%eax, 16(%rcx)
	movq	-16(%rbp), %rax
	movq	40(%rax), %rax
	movl	12(%rax), %eax
	movq	-16(%rbp), %rcx
	movq	56(%rcx), %rcx
	movl	%eax, 12(%rcx)
	movq	-16(%rbp), %rcx
	movq	48(%rcx), %rcx
	movl	%eax, 12(%rcx)
	movq	-16(%rbp), %rax
	movq	40(%rax), %rax
	movl	8(%rax), %eax
	movq	-16(%rbp), %rcx
	movq	56(%rcx), %rcx
	movl	%eax, 8(%rcx)
	movq	-16(%rbp), %rcx
	movq	48(%rcx), %rcx
	movl	%eax, 8(%rcx)
	movq	-16(%rbp), %rax
	movq	40(%rax), %rax
	movl	16(%rax), %eax
	movq	-16(%rbp), %rcx
	movq	56(%rcx), %rcx
	movl	%eax, 16(%rcx)
	movq	-16(%rbp), %rax
	movq	40(%rax), %rax
	movl	6380(%rax), %eax
	movq	-16(%rbp), %rcx
	movq	56(%rcx), %rcx
	movl	%eax, 6380(%rcx)
	movq	-16(%rbp), %rcx
	movq	48(%rcx), %rcx
	movl	%eax, 6380(%rcx)
	movq	-16(%rbp), %rax
	movq	40(%rax), %rax
	movl	6376(%rax), %eax
	movq	-16(%rbp), %rcx
	movq	56(%rcx), %rcx
	movl	%eax, 6376(%rcx)
	movq	-16(%rbp), %rcx
	movq	48(%rcx), %rcx
	movl	%eax, 6376(%rcx)
	movq	-16(%rbp), %rax
	movq	40(%rax), %rax
	movl	6372(%rax), %eax
	movq	-16(%rbp), %rcx
	movq	56(%rcx), %rcx
	movl	%eax, 6372(%rcx)
	movq	-16(%rbp), %rcx
	movq	48(%rcx), %rcx
	movl	%eax, 6372(%rcx)
	movq	-16(%rbp), %rcx
	movl	%eax, 28(%rcx)
	movq	-16(%rbp), %rax
	movq	56(%rax), %rax
	movl	$1, 6412(%rax)
	movq	-16(%rbp), %rax
	movq	48(%rax), %rax
	movl	$1, 6412(%rax)
	movq	-16(%rbp), %rax
	movq	40(%rax), %rax
	movl	6416(%rax), %eax
	movq	-16(%rbp), %rcx
	movq	56(%rcx), %rcx
	movl	%eax, 6416(%rcx)
	movq	-16(%rbp), %rcx
	movq	48(%rcx), %rcx
	movl	%eax, 6416(%rcx)
	movq	-16(%rbp), %rax
	movq	48(%rax), %rax
	movq	-16(%rbp), %rcx
	movq	40(%rcx), %rcx
	movq	%rax, 6528(%rcx)
	movq	-16(%rbp), %rax
	movq	56(%rax), %rax
	movq	-16(%rbp), %rcx
	movq	40(%rcx), %rcx
	movq	%rax, 6536(%rcx)
	movq	-16(%rbp), %rax
	movq	56(%rax), %rax
	movq	-16(%rbp), %rcx
	movq	48(%rcx), %rcx
	movq	%rax, 6536(%rcx)
	movq	-16(%rbp), %rax
	movq	40(%rax), %rax
	movq	-16(%rbp), %rcx
	movq	48(%rcx), %rcx
	movq	%rax, 6544(%rcx)
	movq	-16(%rbp), %rax
	movq	48(%rax), %rax
	movq	-16(%rbp), %rcx
	movq	56(%rcx), %rcx
	movq	%rax, 6528(%rcx)
	movq	-16(%rbp), %rax
	movq	40(%rax), %rax
	movq	-16(%rbp), %rcx
	movq	56(%rcx), %rcx
	movq	%rax, 6544(%rcx)
	movq	-16(%rbp), %rax
	movq	40(%rax), %rax
	movl	6552(%rax), %eax
	movq	-16(%rbp), %rcx
	movq	56(%rcx), %rcx
	movl	%eax, 6552(%rcx)
	movq	-16(%rbp), %rcx
	movq	48(%rcx), %rcx
	movl	%eax, 6552(%rcx)
	movq	-16(%rbp), %rax
	movq	40(%rax), %rax
	cmpl	$0, 6556(%rax)
	jne	.LBB74_27
# %bb.18:                               # %if.then211
	movl	$0, -4(%rbp)
.LBB74_19:                              # %for.cond212
                                        # =>This Inner Loop Header: Depth=1
	movl	-4(%rbp), %eax
	cmpl	listXsize+4, %eax
	jge	.LBB74_22
# %bb.20:                               # %for.body215
                                        #   in Loop: Header=BB74_19 Depth=1
	movq	-16(%rbp), %rax
	movq	40(%rax), %rax
	movl	-4(%rbp), %ecx
	shll	$1, %ecx
	movslq	%ecx, %rcx
	movq	816(%rax,%rcx,8), %rax
	movq	-16(%rbp), %rcx
	movq	48(%rcx), %rcx
	movl	-4(%rbp), %edx
	shll	$1, %edx
	movslq	%edx, %rdx
	movq	%rax, 288(%rcx,%rdx,8)
	movq	-16(%rbp), %rax
	movq	40(%rax), %rax
	movl	-4(%rbp), %ecx
	shll	$1, %ecx
	addl	$1, %ecx
	movslq	%ecx, %rcx
	movq	816(%rax,%rcx,8), %rax
	movq	-16(%rbp), %rcx
	movq	48(%rcx), %rcx
	movl	-4(%rbp), %edx
	shll	$1, %edx
	addl	$1, %edx
	movslq	%edx, %rdx
	movq	%rax, 288(%rcx,%rdx,8)
	movq	-16(%rbp), %rax
	movq	40(%rax), %rax
	movl	-4(%rbp), %ecx
	shll	$1, %ecx
	movslq	%ecx, %rcx
	movq	1344(%rax,%rcx,8), %rax
	movq	-16(%rbp), %rcx
	movq	56(%rcx), %rcx
	movl	-4(%rbp), %edx
	shll	$1, %edx
	movslq	%edx, %rdx
	movq	%rax, 288(%rcx,%rdx,8)
	movq	-16(%rbp), %rax
	movq	40(%rax), %rax
	movl	-4(%rbp), %ecx
	shll	$1, %ecx
	addl	$1, %ecx
	movslq	%ecx, %rcx
	movq	1344(%rax,%rcx,8), %rax
	movq	-16(%rbp), %rcx
	movq	56(%rcx), %rcx
	movl	-4(%rbp), %edx
	shll	$1, %edx
	addl	$1, %edx
	movslq	%edx, %rdx
	movq	%rax, 288(%rcx,%rdx,8)
# %bb.21:                               # %for.inc267
                                        #   in Loop: Header=BB74_19 Depth=1
	movl	-4(%rbp), %eax
	addl	$1, %eax
	movl	%eax, -4(%rbp)
	jmp	.LBB74_19
.LBB74_22:                              # %for.end269
	movl	$0, -4(%rbp)
.LBB74_23:                              # %for.cond270
                                        # =>This Inner Loop Header: Depth=1
	movl	-4(%rbp), %eax
	cmpl	listXsize, %eax
	jge	.LBB74_26
# %bb.24:                               # %for.body273
                                        #   in Loop: Header=BB74_23 Depth=1
	movq	-16(%rbp), %rax
	movq	40(%rax), %rax
	movl	-4(%rbp), %ecx
	shll	$1, %ecx
	movslq	%ecx, %rcx
	movq	552(%rax,%rcx,8), %rax
	movq	-16(%rbp), %rcx
	movq	48(%rcx), %rcx
	movl	-4(%rbp), %edx
	shll	$1, %edx
	movslq	%edx, %rdx
	movq	%rax, 24(%rcx,%rdx,8)
	movq	-16(%rbp), %rax
	movq	40(%rax), %rax
	movl	-4(%rbp), %ecx
	shll	$1, %ecx
	addl	$1, %ecx
	movslq	%ecx, %rcx
	movq	552(%rax,%rcx,8), %rax
	movq	-16(%rbp), %rcx
	movq	48(%rcx), %rcx
	movl	-4(%rbp), %edx
	shll	$1, %edx
	addl	$1, %edx
	movslq	%edx, %rdx
	movq	%rax, 24(%rcx,%rdx,8)
	movq	-16(%rbp), %rax
	movq	40(%rax), %rax
	movl	-4(%rbp), %ecx
	shll	$1, %ecx
	movslq	%ecx, %rcx
	movq	1080(%rax,%rcx,8), %rax
	movq	-16(%rbp), %rcx
	movq	56(%rcx), %rcx
	movl	-4(%rbp), %edx
	shll	$1, %edx
	movslq	%edx, %rdx
	movq	%rax, 24(%rcx,%rdx,8)
	movq	-16(%rbp), %rax
	movq	40(%rax), %rax
	movl	-4(%rbp), %ecx
	shll	$1, %ecx
	addl	$1, %ecx
	movslq	%ecx, %rcx
	movq	1080(%rax,%rcx,8), %rax
	movq	-16(%rbp), %rcx
	movq	56(%rcx), %rcx
	movl	-4(%rbp), %edx
	shll	$1, %edx
	addl	$1, %edx
	movslq	%edx, %rdx
	movq	%rax, 24(%rcx,%rdx,8)
# %bb.25:                               # %for.inc326
                                        #   in Loop: Header=BB74_23 Depth=1
	movl	-4(%rbp), %eax
	addl	$1, %eax
	movl	%eax, -4(%rbp)
	jmp	.LBB74_23
.LBB74_26:                              # %for.end328
	jmp	.LBB74_27
.LBB74_27:                              # %if.end
	jmp	.LBB74_29
.LBB74_28:                              # %if.else
	movq	-16(%rbp), %rax
	movq	$0, 48(%rax)
	movq	-16(%rbp), %rax
	movq	$0, 56(%rax)
	movq	-16(%rbp), %rax
	movq	40(%rax), %rax
	movq	$0, 6528(%rax)
	movq	-16(%rbp), %rax
	movq	40(%rax), %rax
	movq	$0, 6536(%rax)
.LBB74_29:                              # %if.end335
	movl	$0, -8(%rbp)
.LBB74_30:                              # %for.cond336
                                        # =>This Loop Header: Depth=1
                                        #     Child Loop BB74_32 Depth 2
	movl	-8(%rbp), %ecx
	movq	-16(%rbp), %rax
	movq	40(%rax), %rax
	movl	6396(%rax), %eax
	cltd
	movl	$4, %esi
	idivl	%esi
	cmpl	%eax, %ecx
	jge	.LBB74_59
# %bb.31:                               # %for.body342
                                        #   in Loop: Header=BB74_30 Depth=1
	movl	$0, -4(%rbp)
.LBB74_32:                              # %for.cond343
                                        #   Parent Loop BB74_30 Depth=1
                                        # =>  This Inner Loop Header: Depth=2
	movl	-4(%rbp), %ecx
	movq	-16(%rbp), %rax
	movq	40(%rax), %rax
	movl	6392(%rax), %eax
	cltd
	movl	$4, %esi
	idivl	%esi
	cmpl	%eax, %ecx
	jge	.LBB74_57
# %bb.33:                               # %for.body349
                                        #   in Loop: Header=BB74_32 Depth=2
	movl	-4(%rbp), %eax
	cltd
	movl	$4, %ecx
	idivl	%ecx
	movl	%eax, -52(%rbp)
	movl	-8(%rbp), %eax
	cltd
	idivl	%ecx
	movl	%eax, -40(%rbp)
	movq	-16(%rbp), %rax
	movq	40(%rax), %rax
	movl	6392(%rax), %eax
	cltd
	movl	$16, %ecx
	idivl	%ecx
	movl	%eax, %ecx
	shll	$1, %ecx
	movl	-40(%rbp), %eax
	cltd
	movl	$2, %esi
	idivl	%esi
	imull	%eax, %ecx
	movl	-52(%rbp), %eax
	shll	$1, %eax
	addl	%eax, %ecx
	movl	-40(%rbp), %eax
	cltd
	idivl	%esi
	addl	%edx, %ecx
	movl	%ecx, -48(%rbp)
	movq	-16(%rbp), %rax
	movq	40(%rax), %rax
	cmpl	$0, 6416(%rax)
	je	.LBB74_48
# %bb.34:                               # %land.lhs.true
                                        #   in Loop: Header=BB74_32 Depth=2
	movq	-16(%rbp), %rax
	movq	40(%rax), %rax
	movq	6472(%rax), %rax
	movslq	-48(%rbp), %rcx
	movzbl	(%rax,%rcx), %eax
	cmpl	$0, %eax
	je	.LBB74_48
# %bb.35:                               # %if.then369
                                        #   in Loop: Header=BB74_32 Depth=2
	movl	-48(%rbp), %eax
	cltd
	movl	$2, %ecx
	idivl	%ecx
	cmpl	$0, %edx
	movl	$4, %eax
	cmovnel	%eax, %ecx
	movl	%ecx, -28(%rbp)
	movq	-16(%rbp), %rax
	movq	40(%rax), %rax
	movq	6480(%rax), %rax
	movq	(%rax), %rax
	movslq	-4(%rbp), %rcx
	movq	(%rax,%rcx,8), %rax
	movslq	-8(%rbp), %rcx
	movswl	(%rax,%rcx,2), %eax
	movl	%eax, -24(%rbp)
	movq	-16(%rbp), %rax
	movq	40(%rax), %rax
	movq	6480(%rax), %rax
	movq	8(%rax), %rax
	movslq	-4(%rbp), %rcx
	movq	(%rax,%rcx,8), %rax
	movslq	-8(%rbp), %rcx
	movswl	(%rax,%rcx,2), %eax
	movl	%eax, -20(%rbp)
	cmpl	$0, -24(%rbp)
	jl	.LBB74_37
# %bb.36:                               # %cond.true
                                        #   in Loop: Header=BB74_32 Depth=2
	movq	-16(%rbp), %rax
	movq	40(%rax), %rax
	addq	$24, %rax
	movl	-28(%rbp), %ecx
	addl	$0, %ecx
	movslq	%ecx, %rcx
	imulq	$264, %rcx, %rcx        # imm = 0x108
	addq	%rcx, %rax
	movslq	-24(%rbp), %rcx
	movq	(%rax,%rcx,8), %rax
	jmp	.LBB74_38
.LBB74_37:                              # %cond.false
                                        #   in Loop: Header=BB74_32 Depth=2
	xorl	%eax, %eax
	jmp	.LBB74_38
.LBB74_38:                              # %cond.end
                                        #   in Loop: Header=BB74_32 Depth=2
	movq	-16(%rbp), %rcx
	movq	40(%rcx), %rcx
	movq	6496(%rcx), %rcx
	movl	-28(%rbp), %edx
	addl	$0, %edx
	movslq	%edx, %rdx
	movq	(%rcx,%rdx,8), %rcx
	movslq	-4(%rbp), %rdx
	movq	(%rcx,%rdx,8), %rcx
	movslq	-8(%rbp), %rdx
	movq	%rax, (%rcx,%rdx,8)
	cmpl	$0, -20(%rbp)
	jl	.LBB74_40
# %bb.39:                               # %cond.true407
                                        #   in Loop: Header=BB74_32 Depth=2
	movq	-16(%rbp), %rax
	movq	40(%rax), %rax
	addq	$24, %rax
	movl	-28(%rbp), %ecx
	addl	$1, %ecx
	movslq	%ecx, %rcx
	imulq	$264, %rcx, %rcx        # imm = 0x108
	addq	%rcx, %rax
	movslq	-20(%rbp), %rcx
	movq	(%rax,%rcx,8), %rax
	jmp	.LBB74_41
.LBB74_40:                              # %cond.false415
                                        #   in Loop: Header=BB74_32 Depth=2
	xorl	%eax, %eax
	jmp	.LBB74_41
.LBB74_41:                              # %cond.end416
                                        #   in Loop: Header=BB74_32 Depth=2
	movq	-16(%rbp), %rcx
	movq	40(%rcx), %rcx
	movq	6496(%rcx), %rcx
	movl	-28(%rbp), %edx
	addl	$1, %edx
	movslq	%edx, %rdx
	movq	(%rcx,%rdx,8), %rcx
	movslq	-4(%rbp), %rdx
	movq	(%rcx,%rdx,8), %rcx
	movslq	-8(%rbp), %rdx
	movq	%rax, (%rcx,%rdx,8)
	cmpl	$0, -24(%rbp)
	jl	.LBB74_43
# %bb.42:                               # %cond.true429
                                        #   in Loop: Header=BB74_32 Depth=2
	movq	-16(%rbp), %rax
	movq	40(%rax), %rax
	addq	$1608, %rax             # imm = 0x648
	movl	-28(%rbp), %ecx
	addl	$0, %ecx
	movslq	%ecx, %rcx
	imulq	$264, %rcx, %rcx        # imm = 0x108
	addq	%rcx, %rax
	movslq	-24(%rbp), %rcx
	movq	(%rax,%rcx,8), %rax
	jmp	.LBB74_44
.LBB74_43:                              # %cond.false436
                                        #   in Loop: Header=BB74_32 Depth=2
	xorl	%eax, %eax
	jmp	.LBB74_44
.LBB74_44:                              # %cond.end437
                                        #   in Loop: Header=BB74_32 Depth=2
	movq	-16(%rbp), %rcx
	movq	40(%rcx), %rcx
	movq	6496(%rcx), %rcx
	movq	(%rcx), %rcx
	movslq	-4(%rbp), %rdx
	movq	(%rcx,%rdx,8), %rcx
	movslq	-8(%rbp), %rdx
	movq	%rax, (%rcx,%rdx,8)
	cmpl	$0, -20(%rbp)
	jl	.LBB74_46
# %bb.45:                               # %cond.true448
                                        #   in Loop: Header=BB74_32 Depth=2
	movq	-16(%rbp), %rax
	movq	40(%rax), %rax
	addq	$1608, %rax             # imm = 0x648
	movl	-28(%rbp), %ecx
	addl	$1, %ecx
	movslq	%ecx, %rcx
	imulq	$264, %rcx, %rcx        # imm = 0x108
	addq	%rcx, %rax
	movslq	-20(%rbp), %rcx
	movq	(%rax,%rcx,8), %rax
	jmp	.LBB74_47
.LBB74_46:                              # %cond.false456
                                        #   in Loop: Header=BB74_32 Depth=2
	xorl	%eax, %eax
	jmp	.LBB74_47
.LBB74_47:                              # %cond.end457
                                        #   in Loop: Header=BB74_32 Depth=2
	movq	-16(%rbp), %rcx
	movq	40(%rcx), %rcx
	movq	6496(%rcx), %rcx
	movq	8(%rcx), %rcx
	movslq	-4(%rbp), %rdx
	movq	(%rcx,%rdx,8), %rcx
	movslq	-8(%rbp), %rdx
	movq	%rax, (%rcx,%rdx,8)
	jmp	.LBB74_55
.LBB74_48:                              # %if.else466
                                        #   in Loop: Header=BB74_32 Depth=2
	movq	-16(%rbp), %rax
	movq	40(%rax), %rax
	movq	6480(%rax), %rax
	movq	(%rax), %rax
	movslq	-4(%rbp), %rcx
	movq	(%rax,%rcx,8), %rax
	movslq	-8(%rbp), %rcx
	movswl	(%rax,%rcx,2), %eax
	movl	%eax, -24(%rbp)
	movq	-16(%rbp), %rax
	movq	40(%rax), %rax
	movq	6480(%rax), %rax
	movq	8(%rax), %rax
	movslq	-4(%rbp), %rcx
	movq	(%rax,%rcx,8), %rax
	movslq	-8(%rbp), %rcx
	movswl	(%rax,%rcx,2), %eax
	movl	%eax, -20(%rbp)
	cmpl	$0, -24(%rbp)
	jl	.LBB74_50
# %bb.49:                               # %cond.true485
                                        #   in Loop: Header=BB74_32 Depth=2
	movq	-16(%rbp), %rax
	movq	40(%rax), %rax
	movslq	-24(%rbp), %rcx
	movq	24(%rax,%rcx,8), %rax
	jmp	.LBB74_51
.LBB74_50:                              # %cond.false491
                                        #   in Loop: Header=BB74_32 Depth=2
	movq	$-1, %rax
	jmp	.LBB74_51
.LBB74_51:                              # %cond.end492
                                        #   in Loop: Header=BB74_32 Depth=2
	movq	-16(%rbp), %rcx
	movq	40(%rcx), %rcx
	movq	6496(%rcx), %rcx
	movq	(%rcx), %rcx
	movslq	-4(%rbp), %rdx
	movq	(%rcx,%rdx,8), %rcx
	movslq	-8(%rbp), %rdx
	movq	%rax, (%rcx,%rdx,8)
	cmpl	$0, -20(%rbp)
	jl	.LBB74_53
# %bb.52:                               # %cond.true503
                                        #   in Loop: Header=BB74_32 Depth=2
	movq	-16(%rbp), %rax
	movq	40(%rax), %rax
	movslq	-20(%rbp), %rcx
	movq	288(%rax,%rcx,8), %rax
	jmp	.LBB74_54
.LBB74_53:                              # %cond.false509
                                        #   in Loop: Header=BB74_32 Depth=2
	movq	$-1, %rax
	jmp	.LBB74_54
.LBB74_54:                              # %cond.end510
                                        #   in Loop: Header=BB74_32 Depth=2
	movq	-16(%rbp), %rcx
	movq	40(%rcx), %rcx
	movq	6496(%rcx), %rcx
	movq	8(%rcx), %rcx
	movslq	-4(%rbp), %rdx
	movq	(%rcx,%rdx,8), %rcx
	movslq	-8(%rbp), %rdx
	movq	%rax, (%rcx,%rdx,8)
.LBB74_55:                              # %if.end519
                                        #   in Loop: Header=BB74_32 Depth=2
	jmp	.LBB74_56
.LBB74_56:                              # %for.inc520
                                        #   in Loop: Header=BB74_32 Depth=2
	movl	-4(%rbp), %eax
	addl	$1, %eax
	movl	%eax, -4(%rbp)
	jmp	.LBB74_32
.LBB74_57:                              # %for.end522
                                        #   in Loop: Header=BB74_30 Depth=1
	jmp	.LBB74_58
.LBB74_58:                              # %for.inc523
                                        #   in Loop: Header=BB74_30 Depth=1
	movl	-8(%rbp), %eax
	addl	$1, %eax
	movl	%eax, -8(%rbp)
	jmp	.LBB74_30
.LBB74_59:                              # %for.end525
	movq	-16(%rbp), %rax
	movq	40(%rax), %rax
	cmpl	$0, 6556(%rax)
	je	.LBB74_61
# %bb.60:                               # %lor.lhs.false
	movq	active_sps, %rax
	cmpl	$0, 1156(%rax)
	je	.LBB74_73
.LBB74_61:                              # %if.then530
	movl	$0, -4(%rbp)
.LBB74_62:                              # %for.cond531
                                        # =>This Loop Header: Depth=1
                                        #     Child Loop BB74_64 Depth 2
	movl	-4(%rbp), %ecx
	movq	-16(%rbp), %rax
	movq	40(%rax), %rax
	movl	6392(%rax), %eax
	cltd
	movl	$4, %esi
	idivl	%esi
	cmpl	%eax, %ecx
	jge	.LBB74_72
# %bb.63:                               # %for.body537
                                        #   in Loop: Header=BB74_62 Depth=1
	movl	$0, -8(%rbp)
.LBB74_64:                              # %for.cond538
                                        #   Parent Loop BB74_62 Depth=1
                                        # =>  This Inner Loop Header: Depth=2
	movl	-8(%rbp), %ecx
	movq	-16(%rbp), %rax
	movq	40(%rax), %rax
	movl	6396(%rax), %eax
	cltd
	movl	$8, %esi
	idivl	%esi
	cmpl	%eax, %ecx
	jge	.LBB74_70
# %bb.65:                               # %for.body544
                                        #   in Loop: Header=BB74_64 Depth=2
	movl	-4(%rbp), %eax
	cltd
	movl	$4, %ecx
	idivl	%ecx
	movl	%eax, -56(%rbp)
	movl	-8(%rbp), %eax
	cltd
	movl	$2, %esi
	idivl	%esi
	movl	%eax, -32(%rbp)
	movq	-16(%rbp), %rax
	movq	40(%rax), %rax
	movl	6392(%rax), %eax
	cltd
	movl	$16, %ecx
	idivl	%ecx
	movl	%eax, %ecx
	shll	$1, %ecx
	movl	-32(%rbp), %eax
	cltd
	idivl	%esi
	imull	%eax, %ecx
	movl	-56(%rbp), %eax
	shll	$1, %eax
	addl	%eax, %ecx
	movl	-32(%rbp), %eax
	cltd
	idivl	%esi
	addl	%edx, %ecx
	movl	%ecx, -68(%rbp)
	movq	-16(%rbp), %rax
	movq	40(%rax), %rax
	cmpl	$0, 6416(%rax)
	je	.LBB74_68
# %bb.66:                               # %land.lhs.true563
                                        #   in Loop: Header=BB74_64 Depth=2
	movq	-16(%rbp), %rax
	movq	40(%rax), %rax
	movq	6472(%rax), %rax
	movslq	-68(%rbp), %rcx
	movzbl	(%rax,%rcx), %eax
	cmpl	$0, %eax
	je	.LBB74_68
# %bb.67:                               # %if.then570
                                        #   in Loop: Header=BB74_64 Depth=2
	movq	-16(%rbp), %rax
	movq	48(%rax), %rax
	movq	6520(%rax), %rax
	movslq	-4(%rbp), %rcx
	movq	(%rax,%rcx,8), %rax
	movslq	-8(%rbp), %rcx
	movb	$1, (%rax,%rcx)
	movq	-16(%rbp), %rax
	movq	56(%rax), %rax
	movq	6520(%rax), %rax
	movslq	-4(%rbp), %rcx
	movq	(%rax,%rcx,8), %rax
	movslq	-8(%rbp), %rcx
	movb	$1, (%rax,%rcx)
	movq	-16(%rbp), %rax
	movq	40(%rax), %rax
	movq	6520(%rax), %rax
	movslq	-4(%rbp), %rcx
	movq	(%rax,%rcx,8), %rax
	movl	-8(%rbp), %ecx
	shll	$1, %ecx
	addl	$1, %ecx
	movslq	%ecx, %rcx
	movb	$1, (%rax,%rcx)
	movq	-16(%rbp), %rax
	movq	40(%rax), %rax
	movq	6520(%rax), %rax
	movslq	-4(%rbp), %rcx
	movq	(%rax,%rcx,8), %rax
	movl	-8(%rbp), %ecx
	shll	$1, %ecx
	movslq	%ecx, %rcx
	movb	$1, (%rax,%rcx)
	movq	-16(%rbp), %rax
	movq	40(%rax), %rax
	movq	6504(%rax), %rax
	movq	(%rax), %rax
	movslq	-4(%rbp), %rcx
	movq	(%rax,%rcx,8), %rdi
	movl	-8(%rbp), %eax
	cltd
	movl	$4, %esi
	idivl	%esi
	movl	%eax, %ecx
	shll	$3, %ecx
	movl	-8(%rbp), %eax
	cltd
	idivl	%esi
	addl	%edx, %ecx
	addl	$4, %ecx
	movslq	%ecx, %rax
	movq	(%rdi,%rax,8), %rax
	movw	(%rax), %ax
	movq	-16(%rbp), %rcx
	movq	56(%rcx), %rcx
	movq	6504(%rcx), %rcx
	movq	(%rcx), %rcx
	movslq	-4(%rbp), %rdx
	movq	(%rcx,%rdx,8), %rcx
	movslq	-8(%rbp), %rdx
	movq	(%rcx,%rdx,8), %rcx
	movw	%ax, (%rcx)
	movq	-16(%rbp), %rax
	movq	40(%rax), %rax
	movq	6504(%rax), %rax
	movq	(%rax), %rax
	movslq	-4(%rbp), %rcx
	movq	(%rax,%rcx,8), %rdi
	movl	-8(%rbp), %eax
	cltd
	idivl	%esi
	movl	%eax, %ecx
	shll	$3, %ecx
	movl	-8(%rbp), %eax
	cltd
	idivl	%esi
	addl	%edx, %ecx
	addl	$4, %ecx
	movslq	%ecx, %rax
	movq	(%rdi,%rax,8), %rax
	movw	2(%rax), %ax
	movq	-16(%rbp), %rcx
	movq	56(%rcx), %rcx
	movq	6504(%rcx), %rcx
	movq	(%rcx), %rcx
	movslq	-4(%rbp), %rdx
	movq	(%rcx,%rdx,8), %rcx
	movslq	-8(%rbp), %rdx
	movq	(%rcx,%rdx,8), %rcx
	movw	%ax, 2(%rcx)
	movq	-16(%rbp), %rax
	movq	40(%rax), %rax
	movq	6504(%rax), %rax
	movq	8(%rax), %rax
	movslq	-4(%rbp), %rcx
	movq	(%rax,%rcx,8), %rdi
	movl	-8(%rbp), %eax
	cltd
	idivl	%esi
	movl	%eax, %ecx
	shll	$3, %ecx
	movl	-8(%rbp), %eax
	cltd
	idivl	%esi
	addl	%edx, %ecx
	addl	$4, %ecx
	movslq	%ecx, %rax
	movq	(%rdi,%rax,8), %rax
	movw	(%rax), %ax
	movq	-16(%rbp), %rcx
	movq	56(%rcx), %rcx
	movq	6504(%rcx), %rcx
	movq	8(%rcx), %rcx
	movslq	-4(%rbp), %rdx
	movq	(%rcx,%rdx,8), %rcx
	movslq	-8(%rbp), %rdx
	movq	(%rcx,%rdx,8), %rcx
	movw	%ax, (%rcx)
	movq	-16(%rbp), %rax
	movq	40(%rax), %rax
	movq	6504(%rax), %rax
	movq	8(%rax), %rax
	movslq	-4(%rbp), %rcx
	movq	(%rax,%rcx,8), %rdi
	movl	-8(%rbp), %eax
	cltd
	idivl	%esi
	movl	%eax, %ecx
	shll	$3, %ecx
	movl	-8(%rbp), %eax
	cltd
	idivl	%esi
	addl	%edx, %ecx
	addl	$4, %ecx
	movslq	%ecx, %rax
	movq	(%rdi,%rax,8), %rax
	movw	2(%rax), %ax
	movq	-16(%rbp), %rcx
	movq	56(%rcx), %rcx
	movq	6504(%rcx), %rcx
	movq	8(%rcx), %rcx
	movslq	-4(%rbp), %rdx
	movq	(%rcx,%rdx,8), %rcx
	movslq	-8(%rbp), %rdx
	movq	(%rcx,%rdx,8), %rcx
	movw	%ax, 2(%rcx)
	movq	-16(%rbp), %rax
	movq	40(%rax), %rax
	movq	6480(%rax), %rax
	movq	(%rax), %rax
	movslq	-4(%rbp), %rcx
	movq	(%rax,%rcx,8), %rdi
	movl	-8(%rbp), %eax
	cltd
	idivl	%esi
	movl	%eax, %ecx
	shll	$3, %ecx
	movl	-8(%rbp), %eax
	cltd
	idivl	%esi
	addl	%edx, %ecx
	addl	$4, %ecx
	movslq	%ecx, %rax
	movw	(%rdi,%rax,2), %ax
	movq	-16(%rbp), %rcx
	movq	56(%rcx), %rcx
	movq	6480(%rcx), %rcx
	movq	(%rcx), %rcx
	movslq	-4(%rbp), %rdx
	movq	(%rcx,%rdx,8), %rcx
	movslq	-8(%rbp), %rdx
	movw	%ax, (%rcx,%rdx,2)
	movq	-16(%rbp), %rax
	movq	40(%rax), %rax
	movq	6480(%rax), %rax
	movq	8(%rax), %rax
	movslq	-4(%rbp), %rcx
	movq	(%rax,%rcx,8), %rdi
	movl	-8(%rbp), %eax
	cltd
	idivl	%esi
	movl	%eax, %ecx
	shll	$3, %ecx
	movl	-8(%rbp), %eax
	cltd
	idivl	%esi
	addl	%edx, %ecx
	addl	$4, %ecx
	movslq	%ecx, %rax
	movw	(%rdi,%rax,2), %ax
	movq	-16(%rbp), %rcx
	movq	56(%rcx), %rcx
	movq	6480(%rcx), %rcx
	movq	8(%rcx), %rcx
	movslq	-4(%rbp), %rdx
	movq	(%rcx,%rdx,8), %rcx
	movslq	-8(%rbp), %rdx
	movw	%ax, (%rcx,%rdx,2)
	movq	-16(%rbp), %rax
	movq	40(%rax), %rax
	movq	6496(%rax), %rax
	movq	32(%rax), %rax
	movslq	-4(%rbp), %rcx
	movq	(%rax,%rcx,8), %rdi
	movl	-8(%rbp), %eax
	cltd
	idivl	%esi
	movl	%eax, %ecx
	shll	$3, %ecx
	movl	-8(%rbp), %eax
	cltd
	idivl	%esi
	addl	%edx, %ecx
	addl	$4, %ecx
	movslq	%ecx, %rax
	movq	(%rdi,%rax,8), %rax
	movq	-16(%rbp), %rcx
	movq	56(%rcx), %rcx
	movq	6496(%rcx), %rcx
	movq	(%rcx), %rcx
	movslq	-4(%rbp), %rdx
	movq	(%rcx,%rdx,8), %rcx
	movslq	-8(%rbp), %rdx
	movq	%rax, (%rcx,%rdx,8)
	movq	-16(%rbp), %rax
	movq	40(%rax), %rax
	movq	6496(%rax), %rax
	movq	40(%rax), %rax
	movslq	-4(%rbp), %rcx
	movq	(%rax,%rcx,8), %rdi
	movl	-8(%rbp), %eax
	cltd
	idivl	%esi
	movl	%eax, %ecx
	shll	$3, %ecx
	movl	-8(%rbp), %eax
	cltd
	idivl	%esi
	addl	%edx, %ecx
	addl	$4, %ecx
	movslq	%ecx, %rax
	movq	(%rdi,%rax,8), %rax
	movq	-16(%rbp), %rcx
	movq	56(%rcx), %rcx
	movq	6496(%rcx), %rcx
	movq	8(%rcx), %rcx
	movslq	-4(%rbp), %rdx
	movq	(%rcx,%rdx,8), %rcx
	movslq	-8(%rbp), %rdx
	movq	%rax, (%rcx,%rdx,8)
	movq	-16(%rbp), %rax
	movq	40(%rax), %rax
	movq	6504(%rax), %rax
	movq	(%rax), %rax
	movslq	-4(%rbp), %rcx
	movq	(%rax,%rcx,8), %rdi
	movl	-8(%rbp), %eax
	cltd
	idivl	%esi
	movl	%eax, %ecx
	shll	$3, %ecx
	movl	-8(%rbp), %eax
	cltd
	idivl	%esi
	addl	%edx, %ecx
	movslq	%ecx, %rax
	movq	(%rdi,%rax,8), %rax
	movw	(%rax), %ax
	movq	-16(%rbp), %rcx
	movq	48(%rcx), %rcx
	movq	6504(%rcx), %rcx
	movq	(%rcx), %rcx
	movslq	-4(%rbp), %rdx
	movq	(%rcx,%rdx,8), %rcx
	movslq	-8(%rbp), %rdx
	movq	(%rcx,%rdx,8), %rcx
	movw	%ax, (%rcx)
	movq	-16(%rbp), %rax
	movq	40(%rax), %rax
	movq	6504(%rax), %rax
	movq	(%rax), %rax
	movslq	-4(%rbp), %rcx
	movq	(%rax,%rcx,8), %rdi
	movl	-8(%rbp), %eax
	cltd
	idivl	%esi
	movl	%eax, %ecx
	shll	$3, %ecx
	movl	-8(%rbp), %eax
	cltd
	idivl	%esi
	addl	%edx, %ecx
	movslq	%ecx, %rax
	movq	(%rdi,%rax,8), %rax
	movw	2(%rax), %ax
	movq	-16(%rbp), %rcx
	movq	48(%rcx), %rcx
	movq	6504(%rcx), %rcx
	movq	(%rcx), %rcx
	movslq	-4(%rbp), %rdx
	movq	(%rcx,%rdx,8), %rcx
	movslq	-8(%rbp), %rdx
	movq	(%rcx,%rdx,8), %rcx
	movw	%ax, 2(%rcx)
	movq	-16(%rbp), %rax
	movq	40(%rax), %rax
	movq	6504(%rax), %rax
	movq	8(%rax), %rax
	movslq	-4(%rbp), %rcx
	movq	(%rax,%rcx,8), %rdi
	movl	-8(%rbp), %eax
	cltd
	idivl	%esi
	movl	%eax, %ecx
	shll	$3, %ecx
	movl	-8(%rbp), %eax
	cltd
	idivl	%esi
	addl	%edx, %ecx
	movslq	%ecx, %rax
	movq	(%rdi,%rax,8), %rax
	movw	(%rax), %ax
	movq	-16(%rbp), %rcx
	movq	48(%rcx), %rcx
	movq	6504(%rcx), %rcx
	movq	8(%rcx), %rcx
	movslq	-4(%rbp), %rdx
	movq	(%rcx,%rdx,8), %rcx
	movslq	-8(%rbp), %rdx
	movq	(%rcx,%rdx,8), %rcx
	movw	%ax, (%rcx)
	movq	-16(%rbp), %rax
	movq	40(%rax), %rax
	movq	6504(%rax), %rax
	movq	8(%rax), %rax
	movslq	-4(%rbp), %rcx
	movq	(%rax,%rcx,8), %rdi
	movl	-8(%rbp), %eax
	cltd
	idivl	%esi
	movl	%eax, %ecx
	shll	$3, %ecx
	movl	-8(%rbp), %eax
	cltd
	idivl	%esi
	addl	%edx, %ecx
	movslq	%ecx, %rax
	movq	(%rdi,%rax,8), %rax
	movw	2(%rax), %ax
	movq	-16(%rbp), %rcx
	movq	48(%rcx), %rcx
	movq	6504(%rcx), %rcx
	movq	8(%rcx), %rcx
	movslq	-4(%rbp), %rdx
	movq	(%rcx,%rdx,8), %rcx
	movslq	-8(%rbp), %rdx
	movq	(%rcx,%rdx,8), %rcx
	movw	%ax, 2(%rcx)
	movq	-16(%rbp), %rax
	movq	40(%rax), %rax
	movq	6480(%rax), %rax
	movq	(%rax), %rax
	movslq	-4(%rbp), %rcx
	movq	(%rax,%rcx,8), %rdi
	movl	-8(%rbp), %eax
	cltd
	idivl	%esi
	movl	%eax, %ecx
	shll	$3, %ecx
	movl	-8(%rbp), %eax
	cltd
	idivl	%esi
	addl	%edx, %ecx
	movslq	%ecx, %rax
	movw	(%rdi,%rax,2), %ax
	movq	-16(%rbp), %rcx
	movq	48(%rcx), %rcx
	movq	6480(%rcx), %rcx
	movq	(%rcx), %rcx
	movslq	-4(%rbp), %rdx
	movq	(%rcx,%rdx,8), %rcx
	movslq	-8(%rbp), %rdx
	movw	%ax, (%rcx,%rdx,2)
	movq	-16(%rbp), %rax
	movq	40(%rax), %rax
	movq	6480(%rax), %rax
	movq	8(%rax), %rax
	movslq	-4(%rbp), %rcx
	movq	(%rax,%rcx,8), %rdi
	movl	-8(%rbp), %eax
	cltd
	idivl	%esi
	movl	%eax, %ecx
	shll	$3, %ecx
	movl	-8(%rbp), %eax
	cltd
	idivl	%esi
	addl	%edx, %ecx
	movslq	%ecx, %rax
	movw	(%rdi,%rax,2), %ax
	movq	-16(%rbp), %rcx
	movq	48(%rcx), %rcx
	movq	6480(%rcx), %rcx
	movq	8(%rcx), %rcx
	movslq	-4(%rbp), %rdx
	movq	(%rcx,%rdx,8), %rcx
	movslq	-8(%rbp), %rdx
	movw	%ax, (%rcx,%rdx,2)
	movq	-16(%rbp), %rax
	movq	40(%rax), %rax
	movq	6496(%rax), %rax
	movq	16(%rax), %rax
	movslq	-4(%rbp), %rcx
	movq	(%rax,%rcx,8), %rdi
	movl	-8(%rbp), %eax
	cltd
	idivl	%esi
	movl	%eax, %ecx
	shll	$3, %ecx
	movl	-8(%rbp), %eax
	cltd
	idivl	%esi
	addl	%edx, %ecx
	movslq	%ecx, %rax
	movq	(%rdi,%rax,8), %rax
	movq	-16(%rbp), %rcx
	movq	48(%rcx), %rcx
	movq	6496(%rcx), %rcx
	movq	(%rcx), %rcx
	movslq	-4(%rbp), %rdx
	movq	(%rcx,%rdx,8), %rcx
	movslq	-8(%rbp), %rdx
	movq	%rax, (%rcx,%rdx,8)
	movq	-16(%rbp), %rax
	movq	40(%rax), %rax
	movq	6496(%rax), %rax
	movq	24(%rax), %rax
	movslq	-4(%rbp), %rcx
	movq	(%rax,%rcx,8), %rdi
	movl	-8(%rbp), %eax
	cltd
	idivl	%esi
	movl	%eax, %ecx
	shll	$3, %ecx
	movl	-8(%rbp), %eax
	cltd
	idivl	%esi
	addl	%edx, %ecx
	movslq	%ecx, %rax
	movq	(%rdi,%rax,8), %rax
	movq	-16(%rbp), %rcx
	movq	48(%rcx), %rcx
	movq	6496(%rcx), %rcx
	movq	8(%rcx), %rcx
	movslq	-4(%rbp), %rdx
	movq	(%rcx,%rdx,8), %rcx
	movslq	-8(%rbp), %rdx
	movq	%rax, (%rcx,%rdx,8)
.LBB74_68:                              # %if.end908
                                        #   in Loop: Header=BB74_64 Depth=2
	jmp	.LBB74_69
.LBB74_69:                              # %for.inc909
                                        #   in Loop: Header=BB74_64 Depth=2
	movl	-8(%rbp), %eax
	addl	$1, %eax
	movl	%eax, -8(%rbp)
	jmp	.LBB74_64
.LBB74_70:                              # %for.end911
                                        #   in Loop: Header=BB74_62 Depth=1
	jmp	.LBB74_71
.LBB74_71:                              # %for.inc912
                                        #   in Loop: Header=BB74_62 Depth=1
	movl	-4(%rbp), %eax
	addl	$1, %eax
	movl	%eax, -4(%rbp)
	jmp	.LBB74_62
.LBB74_72:                              # %for.end914
	jmp	.LBB74_73
.LBB74_73:                              # %if.end915
	movl	$0, -4(%rbp)
.LBB74_74:                              # %for.cond916
                                        # =>This Loop Header: Depth=1
                                        #     Child Loop BB74_76 Depth 2
	movl	-4(%rbp), %ecx
	movq	-16(%rbp), %rax
	movq	40(%rax), %rax
	movl	6392(%rax), %eax
	cltd
	movl	$4, %esi
	idivl	%esi
	cmpl	%eax, %ecx
	jge	.LBB74_152
# %bb.75:                               # %for.body922
                                        #   in Loop: Header=BB74_74 Depth=1
	movl	$0, -8(%rbp)
.LBB74_76:                              # %for.cond923
                                        #   Parent Loop BB74_74 Depth=1
                                        # =>  This Inner Loop Header: Depth=2
	movl	-8(%rbp), %ecx
	movq	-16(%rbp), %rax
	movq	40(%rax), %rax
	movl	6396(%rax), %eax
	cltd
	movl	$8, %esi
	idivl	%esi
	cmpl	%eax, %ecx
	jge	.LBB74_150
# %bb.77:                               # %for.body929
                                        #   in Loop: Header=BB74_76 Depth=2
	movl	-4(%rbp), %eax
	cltd
	movl	$4, %ecx
	idivl	%ecx
	movl	%eax, -72(%rbp)
	movl	-8(%rbp), %eax
	cltd
	movl	$2, %esi
	idivl	%esi
	movl	%eax, -44(%rbp)
	movq	-16(%rbp), %rax
	movq	40(%rax), %rax
	movl	6392(%rax), %eax
	cltd
	movl	$16, %ecx
	idivl	%ecx
	movl	%eax, %ecx
	shll	$1, %ecx
	movl	-44(%rbp), %eax
	cltd
	idivl	%esi
	imull	%eax, %ecx
	movl	-72(%rbp), %eax
	shll	$1, %eax
	addl	%eax, %ecx
	movl	-44(%rbp), %eax
	cltd
	idivl	%esi
	addl	%edx, %ecx
	movl	%ecx, -60(%rbp)
	movq	-16(%rbp), %rax
	movq	40(%rax), %rax
	cmpl	$0, 6416(%rax)
	je	.LBB74_79
# %bb.78:                               # %lor.lhs.false948
                                        #   in Loop: Header=BB74_76 Depth=2
	movq	-16(%rbp), %rax
	movq	40(%rax), %rax
	movq	6472(%rax), %rax
	movslq	-60(%rbp), %rcx
	cmpb	$0, (%rax,%rcx)
	jne	.LBB74_148
.LBB74_79:                              # %if.then954
                                        #   in Loop: Header=BB74_76 Depth=2
	movq	-16(%rbp), %rax
	movq	40(%rax), %rax
	movq	6520(%rax), %rax
	movslq	-4(%rbp), %rcx
	movq	(%rax,%rcx,8), %rax
	movl	-8(%rbp), %ecx
	shll	$1, %ecx
	movslq	%ecx, %rcx
	movb	$0, (%rax,%rcx)
	movq	-16(%rbp), %rax
	movq	40(%rax), %rax
	movq	6520(%rax), %rax
	movslq	-4(%rbp), %rcx
	movq	(%rax,%rcx,8), %rax
	movl	-8(%rbp), %ecx
	shll	$1, %ecx
	addl	$1, %ecx
	movslq	%ecx, %rcx
	movb	$0, (%rax,%rcx)
	movq	-16(%rbp), %rax
	movq	40(%rax), %rax
	cmpl	$0, 6556(%rax)
	jne	.LBB74_147
# %bb.80:                               # %if.then973
                                        #   in Loop: Header=BB74_76 Depth=2
	movq	-16(%rbp), %rax
	movq	56(%rax), %rax
	movq	6520(%rax), %rax
	movslq	-4(%rbp), %rcx
	movq	(%rax,%rcx,8), %rax
	movslq	-8(%rbp), %rcx
	movb	$0, (%rax,%rcx)
	movq	-16(%rbp), %rax
	movq	48(%rax), %rax
	movq	6520(%rax), %rax
	movslq	-4(%rbp), %rcx
	movq	(%rax,%rcx,8), %rax
	movslq	-8(%rbp), %rcx
	movb	$0, (%rax,%rcx)
	movq	-16(%rbp), %rax
	movq	40(%rax), %rax
	movq	6504(%rax), %rax
	movq	(%rax), %rax
	movl	-4(%rbp), %ecx
	andl	$2, %ecx
	cmpl	$0, %ecx
	je	.LBB74_82
# %bb.81:                               # %cond.true990
                                        #   in Loop: Header=BB74_76 Depth=2
	movl	-4(%rbp), %ecx
	orl	$1, %ecx
	jmp	.LBB74_83
.LBB74_82:                              # %cond.false991
                                        #   in Loop: Header=BB74_76 Depth=2
	movl	-4(%rbp), %ecx
	andl	$-2, %ecx
.LBB74_83:                              # %cond.end993
                                        #   in Loop: Header=BB74_76 Depth=2
	movslq	%ecx, %rcx
	movq	(%rax,%rcx,8), %rax
	movl	-8(%rbp), %ecx
	andl	$2, %ecx
	cmpl	$0, %ecx
	je	.LBB74_85
# %bb.84:                               # %cond.true999
                                        #   in Loop: Header=BB74_76 Depth=2
	movl	-8(%rbp), %ecx
	orl	$1, %ecx
	jmp	.LBB74_86
.LBB74_85:                              # %cond.false1001
                                        #   in Loop: Header=BB74_76 Depth=2
	movl	-8(%rbp), %ecx
	andl	$-2, %ecx
.LBB74_86:                              # %cond.end1003
                                        #   in Loop: Header=BB74_76 Depth=2
	shll	$1, %ecx
	movslq	%ecx, %rcx
	movq	(%rax,%rcx,8), %rax
	movw	(%rax), %ax
	movq	-16(%rbp), %rcx
	movq	56(%rcx), %rcx
	movq	6504(%rcx), %rcx
	movq	(%rcx), %rcx
	movslq	-4(%rbp), %rdx
	movq	(%rcx,%rdx,8), %rcx
	movslq	-8(%rbp), %rdx
	movq	(%rcx,%rdx,8), %rcx
	movw	%ax, (%rcx)
	movq	-16(%rbp), %rcx
	movq	48(%rcx), %rcx
	movq	6504(%rcx), %rcx
	movq	(%rcx), %rcx
	movslq	-4(%rbp), %rdx
	movq	(%rcx,%rdx,8), %rcx
	movslq	-8(%rbp), %rdx
	movq	(%rcx,%rdx,8), %rcx
	movw	%ax, (%rcx)
	movq	-16(%rbp), %rax
	movq	40(%rax), %rax
	movq	6504(%rax), %rax
	movq	(%rax), %rax
	movl	-4(%rbp), %ecx
	andl	$2, %ecx
	cmpl	$0, %ecx
	je	.LBB74_88
# %bb.87:                               # %cond.true1030
                                        #   in Loop: Header=BB74_76 Depth=2
	movl	-4(%rbp), %ecx
	orl	$1, %ecx
	jmp	.LBB74_89
.LBB74_88:                              # %cond.false1032
                                        #   in Loop: Header=BB74_76 Depth=2
	movl	-4(%rbp), %ecx
	andl	$-2, %ecx
.LBB74_89:                              # %cond.end1034
                                        #   in Loop: Header=BB74_76 Depth=2
	movslq	%ecx, %rcx
	movq	(%rax,%rcx,8), %rax
	movl	-8(%rbp), %ecx
	andl	$2, %ecx
	cmpl	$0, %ecx
	je	.LBB74_91
# %bb.90:                               # %cond.true1040
                                        #   in Loop: Header=BB74_76 Depth=2
	movl	-8(%rbp), %ecx
	orl	$1, %ecx
	jmp	.LBB74_92
.LBB74_91:                              # %cond.false1042
                                        #   in Loop: Header=BB74_76 Depth=2
	movl	-8(%rbp), %ecx
	andl	$-2, %ecx
.LBB74_92:                              # %cond.end1044
                                        #   in Loop: Header=BB74_76 Depth=2
	shll	$1, %ecx
	movslq	%ecx, %rcx
	movq	(%rax,%rcx,8), %rax
	movw	2(%rax), %ax
	movq	-16(%rbp), %rcx
	movq	56(%rcx), %rcx
	movq	6504(%rcx), %rcx
	movq	(%rcx), %rcx
	movslq	-4(%rbp), %rdx
	movq	(%rcx,%rdx,8), %rcx
	movslq	-8(%rbp), %rdx
	movq	(%rcx,%rdx,8), %rcx
	movw	%ax, 2(%rcx)
	movq	-16(%rbp), %rcx
	movq	48(%rcx), %rcx
	movq	6504(%rcx), %rcx
	movq	(%rcx), %rcx
	movslq	-4(%rbp), %rdx
	movq	(%rcx,%rdx,8), %rcx
	movslq	-8(%rbp), %rdx
	movq	(%rcx,%rdx,8), %rcx
	movw	%ax, 2(%rcx)
	movq	-16(%rbp), %rax
	movq	40(%rax), %rax
	movq	6504(%rax), %rax
	movq	8(%rax), %rax
	movl	-4(%rbp), %ecx
	andl	$2, %ecx
	cmpl	$0, %ecx
	je	.LBB74_94
# %bb.93:                               # %cond.true1071
                                        #   in Loop: Header=BB74_76 Depth=2
	movl	-4(%rbp), %ecx
	orl	$1, %ecx
	jmp	.LBB74_95
.LBB74_94:                              # %cond.false1073
                                        #   in Loop: Header=BB74_76 Depth=2
	movl	-4(%rbp), %ecx
	andl	$-2, %ecx
.LBB74_95:                              # %cond.end1075
                                        #   in Loop: Header=BB74_76 Depth=2
	movslq	%ecx, %rcx
	movq	(%rax,%rcx,8), %rax
	movl	-8(%rbp), %ecx
	andl	$2, %ecx
	cmpl	$0, %ecx
	je	.LBB74_97
# %bb.96:                               # %cond.true1081
                                        #   in Loop: Header=BB74_76 Depth=2
	movl	-8(%rbp), %ecx
	orl	$1, %ecx
	jmp	.LBB74_98
.LBB74_97:                              # %cond.false1083
                                        #   in Loop: Header=BB74_76 Depth=2
	movl	-8(%rbp), %ecx
	andl	$-2, %ecx
.LBB74_98:                              # %cond.end1085
                                        #   in Loop: Header=BB74_76 Depth=2
	shll	$1, %ecx
	movslq	%ecx, %rcx
	movq	(%rax,%rcx,8), %rax
	movw	(%rax), %ax
	movq	-16(%rbp), %rcx
	movq	56(%rcx), %rcx
	movq	6504(%rcx), %rcx
	movq	8(%rcx), %rcx
	movslq	-4(%rbp), %rdx
	movq	(%rcx,%rdx,8), %rcx
	movslq	-8(%rbp), %rdx
	movq	(%rcx,%rdx,8), %rcx
	movw	%ax, (%rcx)
	movq	-16(%rbp), %rcx
	movq	48(%rcx), %rcx
	movq	6504(%rcx), %rcx
	movq	8(%rcx), %rcx
	movslq	-4(%rbp), %rdx
	movq	(%rcx,%rdx,8), %rcx
	movslq	-8(%rbp), %rdx
	movq	(%rcx,%rdx,8), %rcx
	movw	%ax, (%rcx)
	movq	-16(%rbp), %rax
	movq	40(%rax), %rax
	movq	6504(%rax), %rax
	movq	8(%rax), %rax
	movl	-4(%rbp), %ecx
	andl	$2, %ecx
	cmpl	$0, %ecx
	je	.LBB74_100
# %bb.99:                               # %cond.true1112
                                        #   in Loop: Header=BB74_76 Depth=2
	movl	-4(%rbp), %ecx
	orl	$1, %ecx
	jmp	.LBB74_101
.LBB74_100:                             # %cond.false1114
                                        #   in Loop: Header=BB74_76 Depth=2
	movl	-4(%rbp), %ecx
	andl	$-2, %ecx
.LBB74_101:                             # %cond.end1116
                                        #   in Loop: Header=BB74_76 Depth=2
	movslq	%ecx, %rcx
	movq	(%rax,%rcx,8), %rax
	movl	-8(%rbp), %ecx
	andl	$2, %ecx
	cmpl	$0, %ecx
	je	.LBB74_103
# %bb.102:                              # %cond.true1122
                                        #   in Loop: Header=BB74_76 Depth=2
	movl	-8(%rbp), %ecx
	orl	$1, %ecx
	jmp	.LBB74_104
.LBB74_103:                             # %cond.false1124
                                        #   in Loop: Header=BB74_76 Depth=2
	movl	-8(%rbp), %ecx
	andl	$-2, %ecx
.LBB74_104:                             # %cond.end1126
                                        #   in Loop: Header=BB74_76 Depth=2
	shll	$1, %ecx
	movslq	%ecx, %rcx
	movq	(%rax,%rcx,8), %rax
	movw	2(%rax), %ax
	movq	-16(%rbp), %rcx
	movq	56(%rcx), %rcx
	movq	6504(%rcx), %rcx
	movq	8(%rcx), %rcx
	movslq	-4(%rbp), %rdx
	movq	(%rcx,%rdx,8), %rcx
	movslq	-8(%rbp), %rdx
	movq	(%rcx,%rdx,8), %rcx
	movw	%ax, 2(%rcx)
	movq	-16(%rbp), %rcx
	movq	48(%rcx), %rcx
	movq	6504(%rcx), %rcx
	movq	8(%rcx), %rcx
	movslq	-4(%rbp), %rdx
	movq	(%rcx,%rdx,8), %rcx
	movslq	-8(%rbp), %rdx
	movq	(%rcx,%rdx,8), %rcx
	movw	%ax, 2(%rcx)
	movq	-16(%rbp), %rax
	movq	40(%rax), %rax
	movq	6480(%rax), %rax
	movq	(%rax), %rax
	movl	-4(%rbp), %ecx
	andl	$2, %ecx
	cmpl	$0, %ecx
	je	.LBB74_106
# %bb.105:                              # %cond.true1153
                                        #   in Loop: Header=BB74_76 Depth=2
	movl	-4(%rbp), %ecx
	orl	$1, %ecx
	jmp	.LBB74_107
.LBB74_106:                             # %cond.false1155
                                        #   in Loop: Header=BB74_76 Depth=2
	movl	-4(%rbp), %ecx
	andl	$-2, %ecx
.LBB74_107:                             # %cond.end1157
                                        #   in Loop: Header=BB74_76 Depth=2
	movslq	%ecx, %rcx
	movq	(%rax,%rcx,8), %rax
	movl	-8(%rbp), %ecx
	andl	$2, %ecx
	cmpl	$0, %ecx
	je	.LBB74_109
# %bb.108:                              # %cond.true1163
                                        #   in Loop: Header=BB74_76 Depth=2
	movl	-8(%rbp), %ecx
	orl	$1, %ecx
	jmp	.LBB74_110
.LBB74_109:                             # %cond.false1165
                                        #   in Loop: Header=BB74_76 Depth=2
	movl	-8(%rbp), %ecx
	andl	$-2, %ecx
.LBB74_110:                             # %cond.end1167
                                        #   in Loop: Header=BB74_76 Depth=2
	shll	$1, %ecx
	movslq	%ecx, %rcx
	movswl	(%rax,%rcx,2), %eax
	cmpl	$-1, %eax
	jne	.LBB74_112
# %bb.111:                              # %if.then1175
                                        #   in Loop: Header=BB74_76 Depth=2
	movq	-16(%rbp), %rax
	movq	56(%rax), %rax
	movq	6480(%rax), %rax
	movq	(%rax), %rax
	movslq	-4(%rbp), %rcx
	movq	(%rax,%rcx,8), %rax
	movslq	-8(%rbp), %rcx
	movw	$-1, (%rax,%rcx,2)
	movq	-16(%rbp), %rax
	movq	48(%rax), %rax
	movq	6480(%rax), %rax
	movq	(%rax), %rax
	movslq	-4(%rbp), %rcx
	movq	(%rax,%rcx,8), %rax
	movslq	-8(%rbp), %rcx
	movw	$-1, (%rax,%rcx,2)
	jmp	.LBB74_125
.LBB74_112:                             # %if.else1190
                                        #   in Loop: Header=BB74_76 Depth=2
	movq	-16(%rbp), %rax
	movq	40(%rax), %rax
	movq	6480(%rax), %rax
	movq	(%rax), %rax
	movl	-4(%rbp), %ecx
	andl	$2, %ecx
	cmpl	$0, %ecx
	je	.LBB74_114
# %bb.113:                              # %cond.true1196
                                        #   in Loop: Header=BB74_76 Depth=2
	movl	-4(%rbp), %ecx
	orl	$1, %ecx
	jmp	.LBB74_115
.LBB74_114:                             # %cond.false1198
                                        #   in Loop: Header=BB74_76 Depth=2
	movl	-4(%rbp), %ecx
	andl	$-2, %ecx
.LBB74_115:                             # %cond.end1200
                                        #   in Loop: Header=BB74_76 Depth=2
	movslq	%ecx, %rcx
	movq	(%rax,%rcx,8), %rax
	movl	-8(%rbp), %ecx
	andl	$2, %ecx
	cmpl	$0, %ecx
	je	.LBB74_117
# %bb.116:                              # %cond.true1206
                                        #   in Loop: Header=BB74_76 Depth=2
	movl	-8(%rbp), %ecx
	orl	$1, %ecx
	jmp	.LBB74_118
.LBB74_117:                             # %cond.false1208
                                        #   in Loop: Header=BB74_76 Depth=2
	movl	-8(%rbp), %ecx
	andl	$-2, %ecx
.LBB74_118:                             # %cond.end1210
                                        #   in Loop: Header=BB74_76 Depth=2
	shll	$1, %ecx
	movslq	%ecx, %rcx
	movw	(%rax,%rcx,2), %ax
	movq	-16(%rbp), %rcx
	movq	56(%rcx), %rcx
	movq	6480(%rcx), %rcx
	movq	(%rcx), %rcx
	movslq	-4(%rbp), %rdx
	movq	(%rcx,%rdx,8), %rcx
	movslq	-8(%rbp), %rdx
	movw	%ax, (%rcx,%rdx,2)
	movq	-16(%rbp), %rcx
	movq	48(%rcx), %rcx
	movq	6480(%rcx), %rcx
	movq	(%rcx), %rcx
	movslq	-4(%rbp), %rdx
	movq	(%rcx,%rdx,8), %rcx
	movslq	-8(%rbp), %rdx
	movw	%ax, (%rcx,%rdx,2)
	cwtl
	movl	%eax, -24(%rbp)
	cmpl	$0, -24(%rbp)
	jl	.LBB74_120
# %bb.119:                              # %cond.true1232
                                        #   in Loop: Header=BB74_76 Depth=2
	movq	-16(%rbp), %rax
	movq	40(%rax), %rax
	movslq	-24(%rbp), %rcx
	movq	3192(%rax,%rcx,8), %rax
	jmp	.LBB74_121
.LBB74_120:                             # %cond.false1237
                                        #   in Loop: Header=BB74_76 Depth=2
	xorl	%eax, %eax
	jmp	.LBB74_121
.LBB74_121:                             # %cond.end1238
                                        #   in Loop: Header=BB74_76 Depth=2
	movq	-16(%rbp), %rcx
	movq	48(%rcx), %rcx
	movq	6496(%rcx), %rcx
	movq	(%rcx), %rcx
	movslq	-4(%rbp), %rdx
	movq	(%rcx,%rdx,8), %rcx
	movslq	-8(%rbp), %rdx
	movq	%rax, (%rcx,%rdx,8)
	cmpl	$0, -24(%rbp)
	jl	.LBB74_123
# %bb.122:                              # %cond.true1249
                                        #   in Loop: Header=BB74_76 Depth=2
	movq	-16(%rbp), %rax
	movq	40(%rax), %rax
	movslq	-24(%rbp), %rcx
	movq	4776(%rax,%rcx,8), %rax
	jmp	.LBB74_124
.LBB74_123:                             # %cond.false1254
                                        #   in Loop: Header=BB74_76 Depth=2
	xorl	%eax, %eax
	jmp	.LBB74_124
.LBB74_124:                             # %cond.end1255
                                        #   in Loop: Header=BB74_76 Depth=2
	movq	-16(%rbp), %rcx
	movq	56(%rcx), %rcx
	movq	6496(%rcx), %rcx
	movq	(%rcx), %rcx
	movslq	-4(%rbp), %rdx
	movq	(%rcx,%rdx,8), %rcx
	movslq	-8(%rbp), %rdx
	movq	%rax, (%rcx,%rdx,8)
.LBB74_125:                             # %if.end1264
                                        #   in Loop: Header=BB74_76 Depth=2
	movq	-16(%rbp), %rax
	movq	40(%rax), %rax
	movq	6480(%rax), %rax
	movq	8(%rax), %rax
	movl	-4(%rbp), %ecx
	andl	$2, %ecx
	cmpl	$0, %ecx
	je	.LBB74_127
# %bb.126:                              # %cond.true1270
                                        #   in Loop: Header=BB74_76 Depth=2
	movl	-4(%rbp), %ecx
	orl	$1, %ecx
	jmp	.LBB74_128
.LBB74_127:                             # %cond.false1272
                                        #   in Loop: Header=BB74_76 Depth=2
	movl	-4(%rbp), %ecx
	andl	$-2, %ecx
.LBB74_128:                             # %cond.end1274
                                        #   in Loop: Header=BB74_76 Depth=2
	movslq	%ecx, %rcx
	movq	(%rax,%rcx,8), %rax
	movl	-8(%rbp), %ecx
	andl	$2, %ecx
	cmpl	$0, %ecx
	je	.LBB74_130
# %bb.129:                              # %cond.true1280
                                        #   in Loop: Header=BB74_76 Depth=2
	movl	-8(%rbp), %ecx
	orl	$1, %ecx
	jmp	.LBB74_131
.LBB74_130:                             # %cond.false1282
                                        #   in Loop: Header=BB74_76 Depth=2
	movl	-8(%rbp), %ecx
	andl	$-2, %ecx
.LBB74_131:                             # %cond.end1284
                                        #   in Loop: Header=BB74_76 Depth=2
	shll	$1, %ecx
	movslq	%ecx, %rcx
	movswl	(%rax,%rcx,2), %eax
	cmpl	$-1, %eax
	jne	.LBB74_133
# %bb.132:                              # %if.then1292
                                        #   in Loop: Header=BB74_76 Depth=2
	movq	-16(%rbp), %rax
	movq	56(%rax), %rax
	movq	6480(%rax), %rax
	movq	8(%rax), %rax
	movslq	-4(%rbp), %rcx
	movq	(%rax,%rcx,8), %rax
	movslq	-8(%rbp), %rcx
	movw	$-1, (%rax,%rcx,2)
	movq	-16(%rbp), %rax
	movq	48(%rax), %rax
	movq	6480(%rax), %rax
	movq	8(%rax), %rax
	movslq	-4(%rbp), %rcx
	movq	(%rax,%rcx,8), %rax
	movslq	-8(%rbp), %rcx
	movw	$-1, (%rax,%rcx,2)
	jmp	.LBB74_146
.LBB74_133:                             # %if.else1307
                                        #   in Loop: Header=BB74_76 Depth=2
	movq	-16(%rbp), %rax
	movq	40(%rax), %rax
	movq	6480(%rax), %rax
	movq	8(%rax), %rax
	movl	-4(%rbp), %ecx
	andl	$2, %ecx
	cmpl	$0, %ecx
	je	.LBB74_135
# %bb.134:                              # %cond.true1313
                                        #   in Loop: Header=BB74_76 Depth=2
	movl	-4(%rbp), %ecx
	orl	$1, %ecx
	jmp	.LBB74_136
.LBB74_135:                             # %cond.false1315
                                        #   in Loop: Header=BB74_76 Depth=2
	movl	-4(%rbp), %ecx
	andl	$-2, %ecx
.LBB74_136:                             # %cond.end1317
                                        #   in Loop: Header=BB74_76 Depth=2
	movslq	%ecx, %rcx
	movq	(%rax,%rcx,8), %rax
	movl	-8(%rbp), %ecx
	andl	$2, %ecx
	cmpl	$0, %ecx
	je	.LBB74_138
# %bb.137:                              # %cond.true1323
                                        #   in Loop: Header=BB74_76 Depth=2
	movl	-8(%rbp), %ecx
	orl	$1, %ecx
	jmp	.LBB74_139
.LBB74_138:                             # %cond.false1325
                                        #   in Loop: Header=BB74_76 Depth=2
	movl	-8(%rbp), %ecx
	andl	$-2, %ecx
.LBB74_139:                             # %cond.end1327
                                        #   in Loop: Header=BB74_76 Depth=2
	shll	$1, %ecx
	movslq	%ecx, %rcx
	movw	(%rax,%rcx,2), %ax
	movq	-16(%rbp), %rcx
	movq	56(%rcx), %rcx
	movq	6480(%rcx), %rcx
	movq	8(%rcx), %rcx
	movslq	-4(%rbp), %rdx
	movq	(%rcx,%rdx,8), %rcx
	movslq	-8(%rbp), %rdx
	movw	%ax, (%rcx,%rdx,2)
	movq	-16(%rbp), %rcx
	movq	48(%rcx), %rcx
	movq	6480(%rcx), %rcx
	movq	8(%rcx), %rcx
	movslq	-4(%rbp), %rdx
	movq	(%rcx,%rdx,8), %rcx
	movslq	-8(%rbp), %rdx
	movw	%ax, (%rcx,%rdx,2)
	cwtl
	movl	%eax, -20(%rbp)
	cmpl	$0, -20(%rbp)
	jl	.LBB74_141
# %bb.140:                              # %cond.true1349
                                        #   in Loop: Header=BB74_76 Depth=2
	movq	-16(%rbp), %rax
	movq	40(%rax), %rax
	movslq	-20(%rbp), %rcx
	movq	3456(%rax,%rcx,8), %rax
	jmp	.LBB74_142
.LBB74_141:                             # %cond.false1355
                                        #   in Loop: Header=BB74_76 Depth=2
	xorl	%eax, %eax
	jmp	.LBB74_142
.LBB74_142:                             # %cond.end1356
                                        #   in Loop: Header=BB74_76 Depth=2
	movq	-16(%rbp), %rcx
	movq	48(%rcx), %rcx
	movq	6496(%rcx), %rcx
	movq	8(%rcx), %rcx
	movslq	-4(%rbp), %rdx
	movq	(%rcx,%rdx,8), %rcx
	movslq	-8(%rbp), %rdx
	movq	%rax, (%rcx,%rdx,8)
	cmpl	$0, -20(%rbp)
	jl	.LBB74_144
# %bb.143:                              # %cond.true1367
                                        #   in Loop: Header=BB74_76 Depth=2
	movq	-16(%rbp), %rax
	movq	40(%rax), %rax
	movslq	-20(%rbp), %rcx
	movq	5040(%rax,%rcx,8), %rax
	jmp	.LBB74_145
.LBB74_144:                             # %cond.false1373
                                        #   in Loop: Header=BB74_76 Depth=2
	xorl	%eax, %eax
	jmp	.LBB74_145
.LBB74_145:                             # %cond.end1374
                                        #   in Loop: Header=BB74_76 Depth=2
	movq	-16(%rbp), %rcx
	movq	56(%rcx), %rcx
	movq	6496(%rcx), %rcx
	movq	8(%rcx), %rcx
	movslq	-4(%rbp), %rdx
	movq	(%rcx,%rdx,8), %rcx
	movslq	-8(%rbp), %rdx
	movq	%rax, (%rcx,%rdx,8)
.LBB74_146:                             # %if.end1383
                                        #   in Loop: Header=BB74_76 Depth=2
	jmp	.LBB74_147
.LBB74_147:                             # %if.end1384
                                        #   in Loop: Header=BB74_76 Depth=2
	jmp	.LBB74_148
.LBB74_148:                             # %if.end1385
                                        #   in Loop: Header=BB74_76 Depth=2
	jmp	.LBB74_149
.LBB74_149:                             # %for.inc1386
                                        #   in Loop: Header=BB74_76 Depth=2
	movl	-8(%rbp), %eax
	addl	$1, %eax
	movl	%eax, -8(%rbp)
	jmp	.LBB74_76
.LBB74_150:                             # %for.end1388
                                        #   in Loop: Header=BB74_74 Depth=1
	jmp	.LBB74_151
.LBB74_151:                             # %for.inc1389
                                        #   in Loop: Header=BB74_74 Depth=1
	movl	-4(%rbp), %eax
	addl	$1, %eax
	movl	%eax, -4(%rbp)
	jmp	.LBB74_74
.LBB74_152:                             # %for.end1391
	movl	$0, -8(%rbp)
.LBB74_153:                             # %for.cond1392
                                        # =>This Loop Header: Depth=1
                                        #     Child Loop BB74_155 Depth 2
	movl	-8(%rbp), %ecx
	movq	-16(%rbp), %rax
	movq	40(%rax), %rax
	movl	6396(%rax), %eax
	cltd
	movl	$4, %esi
	idivl	%esi
	cmpl	%eax, %ecx
	jge	.LBB74_160
# %bb.154:                              # %for.body1398
                                        #   in Loop: Header=BB74_153 Depth=1
	movl	$0, -4(%rbp)
.LBB74_155:                             # %for.cond1399
                                        #   Parent Loop BB74_153 Depth=1
                                        # =>  This Inner Loop Header: Depth=2
	movl	-4(%rbp), %ecx
	movq	-16(%rbp), %rax
	movq	40(%rax), %rax
	movl	6392(%rax), %eax
	cltd
	movl	$4, %esi
	idivl	%esi
	cmpl	%eax, %ecx
	jge	.LBB74_158
# %bb.156:                              # %for.body1405
                                        #   in Loop: Header=BB74_155 Depth=2
	movq	-16(%rbp), %rax
	movq	40(%rax), %rax
	movq	6520(%rax), %rax
	movslq	-4(%rbp), %rcx
	movq	(%rax,%rcx,8), %rax
	movslq	-8(%rbp), %rcx
	movb	$0, (%rax,%rcx)
# %bb.157:                              # %for.inc1412
                                        #   in Loop: Header=BB74_155 Depth=2
	movl	-4(%rbp), %eax
	addl	$1, %eax
	movl	%eax, -4(%rbp)
	jmp	.LBB74_155
.LBB74_158:                             # %for.end1414
                                        #   in Loop: Header=BB74_153 Depth=1
	jmp	.LBB74_159
.LBB74_159:                             # %for.inc1415
                                        #   in Loop: Header=BB74_153 Depth=1
	movl	-8(%rbp), %eax
	addl	$1, %eax
	movl	%eax, -8(%rbp)
	jmp	.LBB74_153
.LBB74_160:                             # %for.end1417
	movq	active_sps, %rax
	cmpl	$0, 1148(%rax)
	je	.LBB74_162
# %bb.161:                              # %lor.lhs.false1420
	movq	active_sps, %rax
	cmpl	$0, 1156(%rax)
	je	.LBB74_174
.LBB74_162:                             # %if.then1423
	movl	$0, -8(%rbp)
.LBB74_163:                             # %for.cond1424
                                        # =>This Loop Header: Depth=1
                                        #     Child Loop BB74_165 Depth 2
	movl	-8(%rbp), %ecx
	movq	-16(%rbp), %rax
	movq	40(%rax), %rax
	movl	6396(%rax), %eax
	cltd
	movl	$4, %esi
	idivl	%esi
	cmpl	%eax, %ecx
	jge	.LBB74_173
# %bb.164:                              # %for.body1430
                                        #   in Loop: Header=BB74_163 Depth=1
	movl	$0, -4(%rbp)
.LBB74_165:                             # %for.cond1431
                                        #   Parent Loop BB74_163 Depth=1
                                        # =>  This Inner Loop Header: Depth=2
	movl	-4(%rbp), %ecx
	movq	-16(%rbp), %rax
	movq	40(%rax), %rax
	movl	6392(%rax), %eax
	cltd
	movl	$4, %esi
	idivl	%esi
	cmpl	%eax, %ecx
	jge	.LBB74_171
# %bb.166:                              # %for.body1437
                                        #   in Loop: Header=BB74_165 Depth=2
	movl	-4(%rbp), %eax
	cltd
	movl	$4, %ecx
	idivl	%ecx
	movl	%eax, -76(%rbp)
	movl	-8(%rbp), %eax
	cltd
	idivl	%ecx
	movl	%eax, -36(%rbp)
	movq	-16(%rbp), %rax
	movq	40(%rax), %rax
	movl	6392(%rax), %eax
	cltd
	movl	$16, %ecx
	idivl	%ecx
	movl	%eax, %ecx
	shll	$1, %ecx
	movl	-36(%rbp), %eax
	cltd
	movl	$2, %esi
	idivl	%esi
	imull	%eax, %ecx
	movl	-76(%rbp), %eax
	shll	$1, %eax
	addl	%eax, %ecx
	movl	-36(%rbp), %eax
	cltd
	idivl	%esi
	addl	%edx, %ecx
	movl	%ecx, -80(%rbp)
	movq	-16(%rbp), %rax
	movq	40(%rax), %rax
	cmpl	$0, 6416(%rax)
	je	.LBB74_168
# %bb.167:                              # %cond.true1456
                                        #   in Loop: Header=BB74_165 Depth=2
	movq	-16(%rbp), %rax
	movq	40(%rax), %rax
	movq	6472(%rax), %rax
	movslq	-80(%rbp), %rcx
	movzbl	(%rax,%rcx), %eax
	jmp	.LBB74_169
.LBB74_168:                             # %cond.false1462
                                        #   in Loop: Header=BB74_165 Depth=2
	xorl	%eax, %eax
	jmp	.LBB74_169
.LBB74_169:                             # %cond.end1463
                                        #   in Loop: Header=BB74_165 Depth=2
	movq	-16(%rbp), %rcx
	movq	40(%rcx), %rcx
	movq	6520(%rcx), %rcx
	movslq	-4(%rbp), %rdx
	movq	(%rcx,%rdx,8), %rcx
	movslq	-8(%rbp), %rdx
	movb	%al, (%rcx,%rdx)
# %bb.170:                              # %for.inc1472
                                        #   in Loop: Header=BB74_165 Depth=2
	movl	-4(%rbp), %eax
	addl	$1, %eax
	movl	%eax, -4(%rbp)
	jmp	.LBB74_165
.LBB74_171:                             # %for.end1474
                                        #   in Loop: Header=BB74_163 Depth=1
	jmp	.LBB74_172
.LBB74_172:                             # %for.inc1475
                                        #   in Loop: Header=BB74_163 Depth=1
	movl	-8(%rbp), %eax
	addl	$1, %eax
	movl	%eax, -8(%rbp)
	jmp	.LBB74_163
.LBB74_173:                             # %for.end1477
	jmp	.LBB74_174
.LBB74_174:                             # %if.end1478
	cmpl	$1952806240, -64(%rbp)  # imm = 0x74657560
	jne	.LBB74_176
.LBB74_175:
	addq	$80, %rsp
	popq	%rbp
	.cfi_def_cfa %rsp, 8
	retq
.LBB74_176:                             # %func_exit
	.cfi_def_cfa %rbp, 16
	callq	detect_breach
	jmp	.LBB74_175
.Lfunc_end74:
	.size	dpb_split_field.11, .Lfunc_end74-dpb_split_field.11
	.cfi_endproc
                                        # -- End function
	.globl	alloc_colocated.12      # -- Begin function alloc_colocated.12
	.p2align	4, 0x90
	.type	alloc_colocated.12,@function
alloc_colocated.12:                     # @alloc_colocated.12
	.cfi_startproc
# %bb.0:                                # %entry
	pushq	%rbp
	.cfi_def_cfa_offset 16
	.cfi_offset %rbp, -16
	movq	%rsp, %rbp
	.cfi_def_cfa_register %rbp
	pushq	%rbx
	subq	$24, %rsp
	.cfi_offset %rbx, -24
	movl	$1163930788, -32(%rbp)  # imm = 0x45602CA4
	movl	%edi, -12(%rbp)
	movl	%esi, -16(%rbp)
	movl	%edx, -28(%rbp)
	movl	$1, %edi
	movl	$4880, %esi             # imm = 0x1310
	callq	calloc
	xorl	%ecx, %ecx
	movq	%rax, -24(%rbp)
	cmpq	-24(%rbp), %rcx
	jne	.LBB75_2
# %bb.1:                                # %if.then
	movabsq	$.L.str.21, %rdi
	callq	no_mem_exit
.LBB75_2:                               # %if.end
	movl	-12(%rbp), %eax
	movq	-24(%rbp), %rcx
	movl	%eax, 4(%rcx)
	movl	-16(%rbp), %eax
	movq	-24(%rbp), %rcx
	movl	%eax, 8(%rcx)
	movq	-24(%rbp), %rdi
	addq	$1600, %rdi             # imm = 0x640
	movl	-12(%rbp), %eax
	cltd
	movl	$4, %esi
	idivl	%esi
	movl	%eax, %ecx
	movl	-16(%rbp), %eax
	cltd
	idivl	%esi
	movl	$2, %esi
	movl	%ecx, %edx
	movl	%eax, %ecx
	callq	get_mem3Dshort
	movq	-24(%rbp), %rdi
	addq	$1608, %rdi             # imm = 0x648
	movl	-12(%rbp), %eax
	cltd
	movl	$4, %esi
	idivl	%esi
	movl	%eax, %ecx
	movl	-16(%rbp), %eax
	cltd
	idivl	%esi
	movl	$2, %esi
	movl	%ecx, %edx
	movl	%eax, %ecx
	callq	get_mem3Dint64
	movq	-24(%rbp), %rdi
	addq	$1616, %rdi             # imm = 0x650
	movl	-12(%rbp), %eax
	cltd
	movl	$4, %esi
	idivl	%esi
	movl	%eax, %ecx
	movl	-16(%rbp), %eax
	cltd
	idivl	%esi
	movl	$2, %esi
	movl	%ecx, %edx
	movl	%eax, %ecx
	movl	$2, %r8d
	callq	get_mem4Dshort
	movq	-24(%rbp), %rdi
	addq	$1624, %rdi             # imm = 0x658
	movl	-12(%rbp), %eax
	cltd
	movl	$4, %ecx
	idivl	%ecx
	movl	%eax, %esi
	movl	-16(%rbp), %eax
	cltd
	idivl	%ecx
	movl	%eax, %edx
	callq	get_mem2D
	movq	-24(%rbp), %rdi
	addq	$4872, %rdi             # imm = 0x1308
	movl	-12(%rbp), %eax
	cltd
	movl	$4, %ecx
	idivl	%ecx
	movl	%eax, %esi
	movl	-16(%rbp), %eax
	cltd
	idivl	%ecx
	movl	%eax, %edx
	callq	get_mem2D
	cmpl	$0, -28(%rbp)
	je	.LBB75_4
# %bb.3:                                # %if.then17
	movq	-24(%rbp), %rdi
	addq	$3216, %rdi             # imm = 0xC90
