	.text
	.file	"mbuffer.c"
	.globl	dump_dpb                # -- Begin function dump_dpb
	.p2align	4, 0x90
	.type	dump_dpb,@function
dump_dpb:                               # @dump_dpb
	.cfi_startproc
# %bb.0:                                # %entry
	pushq	%rbp
	.cfi_def_cfa_offset 16
	.cfi_offset %rbp, -16
	movq	%rsp, %rbp
	.cfi_def_cfa_register %rbp
	popq	%rbp
	.cfi_def_cfa %rsp, 8
	retq
.Lfunc_end0:
	.size	dump_dpb, .Lfunc_end0-dump_dpb
	.cfi_endproc
                                        # -- End function
	.globl	getDpbSize              # -- Begin function getDpbSize
	.p2align	4, 0x90
	.type	getDpbSize,@function
getDpbSize:                             # @getDpbSize
	.cfi_startproc
# %bb.0:                                # %rand_bb
	pushq	%rbp
	.cfi_def_cfa_offset 16
	.cfi_offset %rbp, -16
	movq	%rsp, %rbp
	.cfi_def_cfa_register %rbp
	callq	get_urand
	cmpl	$0, %eax
	jne	.LBB1_2
# %bb.1:                                # %func_getDpbSize.34
	callq	getDpbSize.34
	popq	%rbp
	.cfi_def_cfa %rsp, 8
	retq
.LBB1_2:                                # %func_getDpbSize.62
	.cfi_def_cfa %rbp, 16
	callq	getDpbSize.62
	popq	%rbp
	.cfi_def_cfa %rsp, 8
	retq
.Lfunc_end1:
	.size	getDpbSize, .Lfunc_end1-getDpbSize
	.cfi_endproc
                                        # -- End function
	.globl	init_dpb                # -- Begin function init_dpb
	.p2align	4, 0x90
	.type	init_dpb,@function
init_dpb:                               # @init_dpb
	.cfi_startproc
# %bb.0:                                # %rand_bb
	pushq	%rbp
	.cfi_def_cfa_offset 16
	.cfi_offset %rbp, -16
	movq	%rsp, %rbp
	.cfi_def_cfa_register %rbp
	callq	get_urand
	cmpl	$0, %eax
	jne	.LBB2_2
# %bb.1:                                # %func_init_dpb.27
	callq	init_dpb.27
	popq	%rbp
	.cfi_def_cfa %rsp, 8
	retq
.LBB2_2:                                # %func_init_dpb.44
	.cfi_def_cfa %rbp, 16
	callq	init_dpb.44
	popq	%rbp
	.cfi_def_cfa %rsp, 8
	retq
.Lfunc_end2:
	.size	init_dpb, .Lfunc_end2-init_dpb
	.cfi_endproc
                                        # -- End function
	.globl	free_dpb                # -- Begin function free_dpb
	.p2align	4, 0x90
	.type	free_dpb,@function
free_dpb:                               # @free_dpb
	.cfi_startproc
# %bb.0:                                # %entry
	pushq	%rbp
	.cfi_def_cfa_offset 16
	.cfi_offset %rbp, -16
	movq	%rsp, %rbp
	.cfi_def_cfa_register %rbp
	subq	$16, %rsp
	cmpq	$0, dpb
	je	.LBB3_6
# %bb.1:                                # %if.then
	movl	$0, -4(%rbp)
.LBB3_2:                                # %for.cond
                                        # =>This Inner Loop Header: Depth=1
	movl	-4(%rbp), %eax
	cmpl	dpb+24, %eax
	jae	.LBB3_5
# %bb.3:                                # %for.body
                                        #   in Loop: Header=BB3_2 Depth=1
	movq	dpb, %rax
	movl	-4(%rbp), %ecx
	movq	(%rax,%rcx,8), %rdi
	callq	free_frame_store
# %bb.4:                                # %for.inc
                                        #   in Loop: Header=BB3_2 Depth=1
	movl	-4(%rbp), %eax
	addl	$1, %eax
	movl	%eax, -4(%rbp)
	jmp	.LBB3_2
.LBB3_5:                                # %for.end
	movq	dpb, %rdi
	callq	free
	movq	$0, dpb
.LBB3_6:                                # %if.end
	cmpq	$0, dpb+8
	je	.LBB3_8
# %bb.7:                                # %if.then2
	movq	dpb+8, %rdi
	callq	free
.LBB3_8:                                # %if.end3
	cmpq	$0, dpb+16
	je	.LBB3_10
# %bb.9:                                # %if.then5
	movq	dpb+16, %rdi
	callq	free
.LBB3_10:                               # %if.end6
	movl	$-2147483648, dpb+40    # imm = 0x80000000
	movl	$0, -4(%rbp)
.LBB3_11:                               # %for.cond7
                                        # =>This Inner Loop Header: Depth=1
	cmpl	$6, -4(%rbp)
	jae	.LBB3_16
# %bb.12:                               # %for.body9
                                        #   in Loop: Header=BB3_11 Depth=1
	movl	-4(%rbp), %eax
	cmpq	$0, listX(,%rax,8)
	je	.LBB3_14
# %bb.13:                               # %if.then13
                                        #   in Loop: Header=BB3_11 Depth=1
	movl	-4(%rbp), %eax
	movq	listX(,%rax,8), %rdi
	callq	free
	movl	-4(%rbp), %eax
	movq	$0, listX(,%rax,8)
.LBB3_14:                               # %if.end18
                                        #   in Loop: Header=BB3_11 Depth=1
	jmp	.LBB3_15
.LBB3_15:                               # %for.inc19
                                        #   in Loop: Header=BB3_11 Depth=1
	movl	-4(%rbp), %eax
	addl	$1, %eax
	movl	%eax, -4(%rbp)
	jmp	.LBB3_11
.LBB3_16:                               # %for.end21
	movl	$0, dpb+48
	addq	$16, %rsp
	popq	%rbp
	.cfi_def_cfa %rsp, 8
	retq
.Lfunc_end3:
	.size	free_dpb, .Lfunc_end3-free_dpb
	.cfi_endproc
                                        # -- End function
	.globl	free_frame_store        # -- Begin function free_frame_store
	.p2align	4, 0x90
	.type	free_frame_store,@function
free_frame_store:                       # @free_frame_store
	.cfi_startproc
# %bb.0:                                # %entry
	pushq	%rbp
	.cfi_def_cfa_offset 16
	.cfi_offset %rbp, -16
	movq	%rsp, %rbp
	.cfi_def_cfa_register %rbp
	subq	$16, %rsp
	movq	%rdi, -8(%rbp)
	cmpq	$0, -8(%rbp)
	je	.LBB4_8
# %bb.1:                                # %if.then
	movq	-8(%rbp), %rax
	cmpq	$0, 40(%rax)
	je	.LBB4_3
# %bb.2:                                # %if.then2
	movq	-8(%rbp), %rax
	movq	40(%rax), %rdi
	callq	free_storable_picture
	movq	-8(%rbp), %rax
	movq	$0, 40(%rax)
.LBB4_3:                                # %if.end
	movq	-8(%rbp), %rax
	cmpq	$0, 48(%rax)
	je	.LBB4_5
# %bb.4:                                # %if.then6
	movq	-8(%rbp), %rax
	movq	48(%rax), %rdi
	callq	free_storable_picture
	movq	-8(%rbp), %rax
	movq	$0, 48(%rax)
.LBB4_5:                                # %if.end9
	movq	-8(%rbp), %rax
	cmpq	$0, 56(%rax)
	je	.LBB4_7
# %bb.6:                                # %if.then11
	movq	-8(%rbp), %rax
	movq	56(%rax), %rdi
	callq	free_storable_picture
	movq	-8(%rbp), %rax
	movq	$0, 56(%rax)
.LBB4_7:                                # %if.end14
	movq	-8(%rbp), %rdi
	callq	free
.LBB4_8:                                # %if.end15
	addq	$16, %rsp
	popq	%rbp
	.cfi_def_cfa %rsp, 8
	retq
.Lfunc_end4:
	.size	free_frame_store, .Lfunc_end4-free_frame_store
	.cfi_endproc
                                        # -- End function
	.globl	alloc_frame_store       # -- Begin function alloc_frame_store
	.p2align	4, 0x90
	.type	alloc_frame_store,@function
alloc_frame_store:                      # @alloc_frame_store
	.cfi_startproc
# %bb.0:                                # %entry
	pushq	%rbp
	.cfi_def_cfa_offset 16
	.cfi_offset %rbp, -16
	movq	%rsp, %rbp
	.cfi_def_cfa_register %rbp
	subq	$16, %rsp
	movl	$1, %edi
	movl	$64, %esi
	callq	calloc
	xorl	%ecx, %ecx
	movq	%rax, -8(%rbp)
	cmpq	-8(%rbp), %rcx
	jne	.LBB5_2
# %bb.1:                                # %if.then
	movabsq	$.L.str.6, %rdi
	callq	no_mem_exit
.LBB5_2:                                # %if.end
	movq	-8(%rbp), %rax
	movl	$0, (%rax)
	movq	-8(%rbp), %rax
	movl	$0, 4(%rax)
	movq	-8(%rbp), %rax
	movl	$0, 8(%rax)
	movq	-8(%rbp), %rax
	movl	$0, 12(%rax)
	movq	-8(%rbp), %rax
	movl	$0, 32(%rax)
	movq	-8(%rbp), %rax
	movq	$0, 40(%rax)
	movq	-8(%rbp), %rax
	movq	$0, 48(%rax)
	movq	-8(%rbp), %rax
	movq	$0, 56(%rax)
	movq	-8(%rbp), %rax
	addq	$16, %rsp
	popq	%rbp
	.cfi_def_cfa %rsp, 8
	retq
.Lfunc_end5:
	.size	alloc_frame_store, .Lfunc_end5-alloc_frame_store
	.cfi_endproc
                                        # -- End function
	.globl	alloc_storable_picture  # -- Begin function alloc_storable_picture
	.p2align	4, 0x90
	.type	alloc_storable_picture,@function
alloc_storable_picture:                 # @alloc_storable_picture
	.cfi_startproc
# %bb.0:                                # %rand_bb
	pushq	%rbp
	.cfi_def_cfa_offset 16
	.cfi_offset %rbp, -16
	movq	%rsp, %rbp
	.cfi_def_cfa_register %rbp
	pushq	%r15
	pushq	%r14
	pushq	%r13
	pushq	%r12
	pushq	%rbx
	pushq	%rax
	.cfi_offset %rbx, -56
	.cfi_offset %r12, -48
	.cfi_offset %r13, -40
	.cfi_offset %r14, -32
	.cfi_offset %r15, -24
	movl	%r8d, %r14d
	movl	%ecx, %r15d
	movl	%edx, %r12d
	movl	%esi, %r13d
	movl	%edi, %ebx
	callq	get_urand
	cmpl	$0, %eax
	jne	.LBB6_9
# %bb.1:                                # %func_alloc_storable_picture.20
	movl	%ebx, %edi
	movl	%r13d, %esi
	movl	%r12d, %edx
	movl	%r15d, %ecx
	movl	%r14d, %r8d
	callq	alloc_storable_picture.20
	addq	$8, %rsp
	popq	%rbx
	popq	%r12
	popq	%r13
	popq	%r14
	popq	%r15
	popq	%rbp
	.cfi_def_cfa %rsp, 8
	retq
.LBB6_2:                                # %func_alloc_storable_picture.30
	.cfi_def_cfa %rbp, 16
	movl	%ebx, %edi
	movl	%r13d, %esi
	movl	%r12d, %edx
	movl	%r15d, %ecx
	movl	%r14d, %r8d
	callq	alloc_storable_picture.30
	addq	$8, %rsp
	popq	%rbx
	popq	%r12
	popq	%r13
	popq	%r14
	popq	%r15
	popq	%rbp
	.cfi_def_cfa %rsp, 8
	retq
.LBB6_3:                                # %func_alloc_storable_picture.75
	.cfi_def_cfa %rbp, 16
	movl	%ebx, %edi
	movl	%r13d, %esi
	movl	%r12d, %edx
	movl	%r15d, %ecx
	movl	%r14d, %r8d
	callq	alloc_storable_picture.75
	addq	$8, %rsp
	popq	%rbx
	popq	%r12
	popq	%r13
	popq	%r14
	popq	%r15
	popq	%rbp
	.cfi_def_cfa %rsp, 8
	retq
.LBB6_4:                                # %func_alloc_storable_picture.89
	.cfi_def_cfa %rbp, 16
	movl	%ebx, %edi
	movl	%r13d, %esi
	movl	%r12d, %edx
	movl	%r15d, %ecx
	movl	%r14d, %r8d
	callq	alloc_storable_picture.89
	addq	$8, %rsp
	popq	%rbx
	popq	%r12
	popq	%r13
	popq	%r14
	popq	%r15
	popq	%rbp
	.cfi_def_cfa %rsp, 8
	retq
.LBB6_5:                                # %func_alloc_storable_picture.126
	.cfi_def_cfa %rbp, 16
	movl	%ebx, %edi
	movl	%r13d, %esi
	movl	%r12d, %edx
	movl	%r15d, %ecx
	movl	%r14d, %r8d
	callq	alloc_storable_picture.126
	addq	$8, %rsp
	popq	%rbx
	popq	%r12
	popq	%r13
	popq	%r14
	popq	%r15
	popq	%rbp
	.cfi_def_cfa %rsp, 8
	retq
.LBB6_6:                                # %func_alloc_storable_picture.151
	.cfi_def_cfa %rbp, 16
	movl	%ebx, %edi
	movl	%r13d, %esi
	movl	%r12d, %edx
	movl	%r15d, %ecx
	movl	%r14d, %r8d
	callq	alloc_storable_picture.151
	addq	$8, %rsp
	popq	%rbx
	popq	%r12
	popq	%r13
	popq	%r14
	popq	%r15
	popq	%rbp
	.cfi_def_cfa %rsp, 8
	retq
.LBB6_7:                                # %func_alloc_storable_picture.153
	.cfi_def_cfa %rbp, 16
	movl	%ebx, %edi
	movl	%r13d, %esi
	movl	%r12d, %edx
	movl	%r15d, %ecx
	movl	%r14d, %r8d
	callq	alloc_storable_picture.153
	addq	$8, %rsp
	popq	%rbx
	popq	%r12
	popq	%r13
	popq	%r14
	popq	%r15
	popq	%rbp
	.cfi_def_cfa %rsp, 8
	retq
.LBB6_8:                                # %func_alloc_storable_picture.175
	.cfi_def_cfa %rbp, 16
	movl	%ebx, %edi
	movl	%r13d, %esi
	movl	%r12d, %edx
	movl	%r15d, %ecx
	movl	%r14d, %r8d
	callq	alloc_storable_picture.175
	addq	$8, %rsp
	popq	%rbx
	popq	%r12
	popq	%r13
	popq	%r14
	popq	%r15
	popq	%rbp
	.cfi_def_cfa %rsp, 8
	retq
.LBB6_9:                                # %ctrl0
	.cfi_def_cfa %rbp, 16
	cmpl	$1, %eax
	je	.LBB6_2
# %bb.10:                               # %ctrl1
	cmpl	$2, %eax
	je	.LBB6_3
# %bb.11:                               # %ctrl2
	cmpl	$3, %eax
	je	.LBB6_4
# %bb.12:                               # %ctrl3
	cmpl	$4, %eax
	je	.LBB6_5
# %bb.13:                               # %ctrl4
	cmpl	$5, %eax
	je	.LBB6_6
# %bb.14:                               # %ctrl5
	cmpl	$6, %eax
	je	.LBB6_7
	jmp	.LBB6_8
.Lfunc_end6:
	.size	alloc_storable_picture, .Lfunc_end6-alloc_storable_picture
	.cfi_endproc
                                        # -- End function
	.globl	free_storable_picture   # -- Begin function free_storable_picture
	.p2align	4, 0x90
	.type	free_storable_picture,@function
free_storable_picture:                  # @free_storable_picture
	.cfi_startproc
# %bb.0:                                # %entry
	pushq	%rbp
	.cfi_def_cfa_offset 16
	.cfi_offset %rbp, -16
	movq	%rsp, %rbp
	.cfi_def_cfa_register %rbp
	subq	$16, %rsp
	movq	%rdi, -8(%rbp)
	cmpq	$0, -8(%rbp)
	je	.LBB7_32
# %bb.1:                                # %if.then
	movq	-8(%rbp), %rax
	cmpq	$0, 6480(%rax)
	je	.LBB7_3
# %bb.2:                                # %if.then2
	movq	-8(%rbp), %rax
	movq	6480(%rax), %rdi
	movl	$2, %esi
	callq	free_mem3Dshort
	movq	-8(%rbp), %rax
	movq	$0, 6480(%rax)
.LBB7_3:                                # %if.end
	movq	-8(%rbp), %rax
	cmpq	$0, 6488(%rax)
	je	.LBB7_5
# %bb.4:                                # %if.then6
	movq	-8(%rbp), %rax
	movq	6488(%rax), %rdi
	movl	$6, %esi
	callq	free_mem3Dint64
	movq	-8(%rbp), %rax
	movq	$0, 6488(%rax)
.LBB7_5:                                # %if.end9
	movq	-8(%rbp), %rax
	cmpq	$0, 6496(%rax)
	je	.LBB7_7
# %bb.6:                                # %if.then11
	movq	-8(%rbp), %rax
	movq	6496(%rax), %rdi
	movl	$6, %esi
	callq	free_mem3Dint64
	movq	-8(%rbp), %rax
	movq	$0, 6496(%rax)
.LBB7_7:                                # %if.end14
	movq	-8(%rbp), %rax
	cmpq	$0, 6504(%rax)
	je	.LBB7_9
# %bb.8:                                # %if.then16
	movq	-8(%rbp), %rax
	movq	6504(%rax), %rdi
	movq	-8(%rbp), %rax
	movl	6392(%rax), %eax
	cltd
	movl	$4, %ecx
	idivl	%ecx
	movl	$2, %esi
	movl	%eax, %edx
	callq	free_mem4Dshort
	movq	-8(%rbp), %rax
	movq	$0, 6504(%rax)
.LBB7_9:                                # %if.end19
	movq	-8(%rbp), %rax
	cmpq	$0, 6512(%rax)
	je	.LBB7_11
# %bb.10:                               # %if.then21
	movq	-8(%rbp), %rax
	movq	6512(%rax), %rdi
	callq	free_mem2D
	movq	-8(%rbp), %rax
	movq	$0, 6512(%rax)
.LBB7_11:                               # %if.end24
	movq	-8(%rbp), %rax
	cmpq	$0, 6520(%rax)
	je	.LBB7_13
# %bb.12:                               # %if.then26
	movq	-8(%rbp), %rax
	movq	6520(%rax), %rdi
	callq	free_mem2D
	movq	-8(%rbp), %rax
	movq	$0, 6520(%rax)
.LBB7_13:                               # %if.end29
	movq	-8(%rbp), %rax
	cmpq	$0, 6424(%rax)
	je	.LBB7_15
# %bb.14:                               # %if.then31
	movq	-8(%rbp), %rax
	movq	6424(%rax), %rdi
	callq	free_mem2Dpel
	movq	-8(%rbp), %rax
	movq	$0, 6424(%rax)
.LBB7_15:                               # %if.end34
	movq	-8(%rbp), %rax
	cmpq	$0, 6432(%rax)
	je	.LBB7_17
# %bb.16:                               # %if.then36
	movq	-8(%rbp), %rax
	movq	6432(%rax), %rdi
	callq	free
	movq	-8(%rbp), %rax
	movq	$0, 6432(%rax)
.LBB7_17:                               # %if.end39
	movq	-8(%rbp), %rax
	cmpq	$0, 6448(%rax)
	je	.LBB7_19
# %bb.18:                               # %if.then41
	movq	-8(%rbp), %rax
	movq	6448(%rax), %rdi
	callq	free_mem2Dpel
	movq	-8(%rbp), %rax
	movq	$0, 6448(%rax)
.LBB7_19:                               # %if.end44
	movq	-8(%rbp), %rax
	cmpq	$0, 6464(%rax)
	je	.LBB7_21
# %bb.20:                               # %if.then46
	movq	-8(%rbp), %rax
	movq	6464(%rax), %rdi
	movl	$2, %esi
	callq	free_mem3Dpel
	movq	-8(%rbp), %rax
	movq	$0, 6464(%rax)
.LBB7_21:                               # %if.end49
	movq	input, %rax
	cmpl	$0, 1284(%rax)
	jne	.LBB7_24
# %bb.22:                               # %lor.lhs.false
	movq	input, %rax
	cmpl	$0, 1288(%rax)
	jne	.LBB7_24
# %bb.23:                               # %lor.lhs.false52
	movq	input, %rax
	cmpl	$0, 60(%rax)
	je	.LBB7_29
.LBB7_24:                               # %if.then54
	movq	-8(%rbp), %rax
	cmpq	$0, 6440(%rax)
	je	.LBB7_26
# %bb.25:                               # %if.then56
	movq	-8(%rbp), %rax
	movq	6440(%rax), %rdi
	callq	free
	movq	-8(%rbp), %rax
	movq	$0, 6440(%rax)
.LBB7_26:                               # %if.end59
	movq	-8(%rbp), %rax
	cmpq	$0, 6456(%rax)
	je	.LBB7_28
# %bb.27:                               # %if.then61
	movq	-8(%rbp), %rax
	movq	6456(%rax), %rdi
	callq	free_mem2Dpel
	movq	-8(%rbp), %rax
	movq	$0, 6456(%rax)
.LBB7_28:                               # %if.end64
	jmp	.LBB7_29
.LBB7_29:                               # %if.end65
	movq	-8(%rbp), %rax
	cmpq	$0, 6472(%rax)
	je	.LBB7_31
# %bb.30:                               # %if.then67
	movq	-8(%rbp), %rax
	movq	6472(%rax), %rdi
	callq	free
	movq	-8(%rbp), %rax
	movq	$0, 6472(%rax)
.LBB7_31:                               # %if.end70
	movq	-8(%rbp), %rdi
	callq	free
	movq	$0, -8(%rbp)
.LBB7_32:                               # %if.end71
	addq	$16, %rsp
	popq	%rbp
	.cfi_def_cfa %rsp, 8
	retq
.Lfunc_end7:
	.size	free_storable_picture, .Lfunc_end7-free_storable_picture
	.cfi_endproc
                                        # -- End function
	.globl	is_short_ref            # -- Begin function is_short_ref
	.p2align	4, 0x90
	.type	is_short_ref,@function
is_short_ref:                           # @is_short_ref
	.cfi_startproc
# %bb.0:                                # %entry
	pushq	%rbp
	.cfi_def_cfa_offset 16
	.cfi_offset %rbp, -16
	movq	%rsp, %rbp
	.cfi_def_cfa_register %rbp
	xorl	%eax, %eax
	movq	%rdi, -8(%rbp)
	movq	-8(%rbp), %rcx
	cmpl	$0, 6380(%rcx)
	je	.LBB8_2
# %bb.1:                                # %land.rhs
	movq	-8(%rbp), %rax
	cmpl	$0, 6376(%rax)
	setne	%al
	xorb	$-1, %al
.LBB8_2:                                # %land.end
	andb	$1, %al
	movzbl	%al, %eax
	popq	%rbp
	.cfi_def_cfa %rsp, 8
	retq
.Lfunc_end8:
	.size	is_short_ref, .Lfunc_end8-is_short_ref
	.cfi_endproc
                                        # -- End function
	.globl	is_long_ref             # -- Begin function is_long_ref
	.p2align	4, 0x90
	.type	is_long_ref,@function
is_long_ref:                            # @is_long_ref
	.cfi_startproc
# %bb.0:                                # %entry
	pushq	%rbp
	.cfi_def_cfa_offset 16
	.cfi_offset %rbp, -16
	movq	%rsp, %rbp
	.cfi_def_cfa_register %rbp
	xorl	%eax, %eax
	movq	%rdi, -8(%rbp)
	movq	-8(%rbp), %rcx
	cmpl	$0, 6380(%rcx)
	je	.LBB9_2
# %bb.1:                                # %land.rhs
	movq	-8(%rbp), %rax
	cmpl	$0, 6376(%rax)
	setne	%al
.LBB9_2:                                # %land.end
	andb	$1, %al
	movzbl	%al, %eax
	popq	%rbp
	.cfi_def_cfa %rsp, 8
	retq
.Lfunc_end9:
	.size	is_long_ref, .Lfunc_end9-is_long_ref
	.cfi_endproc
                                        # -- End function
	.globl	init_lists              # -- Begin function init_lists
	.p2align	4, 0x90
	.type	init_lists,@function
init_lists:                             # @init_lists
	.cfi_startproc
# %bb.0:                                # %rand_bb
	pushq	%rbp
	.cfi_def_cfa_offset 16
	.cfi_offset %rbp, -16
	movq	%rsp, %rbp
	.cfi_def_cfa_register %rbp
	pushq	%r14
	pushq	%rbx
	.cfi_offset %rbx, -32
	.cfi_offset %r14, -24
	movl	%esi, %r14d
	movl	%edi, %ebx
	callq	get_urand
	cmpl	$0, %eax
	jne	.LBB10_9
# %bb.1:                                # %func_init_lists.2
	movl	%ebx, %edi
	movl	%r14d, %esi
	callq	init_lists.2
	popq	%rbx
	popq	%r14
	popq	%rbp
	.cfi_def_cfa %rsp, 8
	retq
.LBB10_2:                               # %func_init_lists.54
	.cfi_def_cfa %rbp, 16
	movl	%ebx, %edi
	movl	%r14d, %esi
	callq	init_lists.54
	popq	%rbx
	popq	%r14
	popq	%rbp
	.cfi_def_cfa %rsp, 8
	retq
.LBB10_3:                               # %func_init_lists.117
	.cfi_def_cfa %rbp, 16
	movl	%ebx, %edi
	movl	%r14d, %esi
	callq	init_lists.117
	popq	%rbx
	popq	%r14
	popq	%rbp
	.cfi_def_cfa %rsp, 8
	retq
.LBB10_4:                               # %func_init_lists.124
	.cfi_def_cfa %rbp, 16
	movl	%ebx, %edi
	movl	%r14d, %esi
	callq	init_lists.124
	popq	%rbx
	popq	%r14
	popq	%rbp
	.cfi_def_cfa %rsp, 8
	retq
.LBB10_5:                               # %func_init_lists.132
	.cfi_def_cfa %rbp, 16
	movl	%ebx, %edi
	movl	%r14d, %esi
	callq	init_lists.132
	popq	%rbx
	popq	%r14
	popq	%rbp
	.cfi_def_cfa %rsp, 8
	retq
.LBB10_6:                               # %func_init_lists.139
	.cfi_def_cfa %rbp, 16
	movl	%ebx, %edi
	movl	%r14d, %esi
	callq	init_lists.139
	popq	%rbx
	popq	%r14
	popq	%rbp
	.cfi_def_cfa %rsp, 8
	retq
.LBB10_7:                               # %func_init_lists.165
	.cfi_def_cfa %rbp, 16
	movl	%ebx, %edi
	movl	%r14d, %esi
	callq	init_lists.165
	popq	%rbx
	popq	%r14
	popq	%rbp
	.cfi_def_cfa %rsp, 8
	retq
.LBB10_8:                               # %func_init_lists.172
	.cfi_def_cfa %rbp, 16
	movl	%ebx, %edi
	movl	%r14d, %esi
	callq	init_lists.172
	popq	%rbx
	popq	%r14
	popq	%rbp
	.cfi_def_cfa %rsp, 8
	retq
.LBB10_9:                               # %ctrl0
	.cfi_def_cfa %rbp, 16
	cmpl	$1, %eax
	je	.LBB10_2
# %bb.10:                               # %ctrl1
	cmpl	$2, %eax
	je	.LBB10_3
# %bb.11:                               # %ctrl2
	cmpl	$3, %eax
	je	.LBB10_4
# %bb.12:                               # %ctrl3
	cmpl	$4, %eax
	je	.LBB10_5
# %bb.13:                               # %ctrl4
	cmpl	$5, %eax
	je	.LBB10_6
# %bb.14:                               # %ctrl5
	cmpl	$6, %eax
	je	.LBB10_7
	jmp	.LBB10_8
.Lfunc_end10:
	.size	init_lists, .Lfunc_end10-init_lists
	.cfi_endproc
                                        # -- End function
	.p2align	4, 0x90         # -- Begin function compare_pic_by_pic_num_desc
	.type	compare_pic_by_pic_num_desc,@function
compare_pic_by_pic_num_desc:            # @compare_pic_by_pic_num_desc
	.cfi_startproc
# %bb.0:                                # %rand_bb
	pushq	%rbp
	.cfi_def_cfa_offset 16
	.cfi_offset %rbp, -16
	movq	%rsp, %rbp
	.cfi_def_cfa_register %rbp
	pushq	%r14
	pushq	%rbx
	.cfi_offset %rbx, -32
	.cfi_offset %r14, -24
	movq	%rsi, %r14
	movq	%rdi, %rbx
	callq	get_urand
	cmpl	$0, %eax
	jne	.LBB11_7
# %bb.1:                                # %func_compare_pic_by_pic_num_desc.51
	movq	%rbx, %rdi
	movq	%r14, %rsi
	callq	compare_pic_by_pic_num_desc.51
	popq	%rbx
	popq	%r14
	popq	%rbp
	.cfi_def_cfa %rsp, 8
	retq
.LBB11_2:                               # %func_compare_pic_by_pic_num_desc.138
	.cfi_def_cfa %rbp, 16
	movq	%rbx, %rdi
	movq	%r14, %rsi
	callq	compare_pic_by_pic_num_desc.138
	popq	%rbx
	popq	%r14
	popq	%rbp
	.cfi_def_cfa %rsp, 8
	retq
.LBB11_3:                               # %func_compare_pic_by_pic_num_desc.226
	.cfi_def_cfa %rbp, 16
	movq	%rbx, %rdi
	movq	%r14, %rsi
	callq	compare_pic_by_pic_num_desc.226
	popq	%rbx
	popq	%r14
	popq	%rbp
	.cfi_def_cfa %rsp, 8
	retq
.LBB11_4:                               # %func_compare_pic_by_pic_num_desc.233
	.cfi_def_cfa %rbp, 16
	movq	%rbx, %rdi
	movq	%r14, %rsi
	callq	compare_pic_by_pic_num_desc.233
	popq	%rbx
	popq	%r14
	popq	%rbp
	.cfi_def_cfa %rsp, 8
	retq
.LBB11_5:                               # %func_compare_pic_by_pic_num_desc.234
	.cfi_def_cfa %rbp, 16
	movq	%rbx, %rdi
	movq	%r14, %rsi
	callq	compare_pic_by_pic_num_desc.234
	popq	%rbx
	popq	%r14
	popq	%rbp
	.cfi_def_cfa %rsp, 8
	retq
.LBB11_6:                               # %func_compare_pic_by_pic_num_desc.247
	.cfi_def_cfa %rbp, 16
	movq	%rbx, %rdi
	movq	%r14, %rsi
	callq	compare_pic_by_pic_num_desc.247
	popq	%rbx
	popq	%r14
	popq	%rbp
	.cfi_def_cfa %rsp, 8
	retq
.LBB11_7:                               # %ctrl0
	.cfi_def_cfa %rbp, 16
	cmpl	$1, %eax
	je	.LBB11_2
# %bb.8:                                # %ctrl1
	cmpl	$2, %eax
	je	.LBB11_3
# %bb.9:                                # %ctrl2
	cmpl	$3, %eax
	je	.LBB11_4
# %bb.10:                               # %ctrl3
	cmpl	$4, %eax
	je	.LBB11_5
	jmp	.LBB11_6
.Lfunc_end11:
	.size	compare_pic_by_pic_num_desc, .Lfunc_end11-compare_pic_by_pic_num_desc
	.cfi_endproc
                                        # -- End function
	.p2align	4, 0x90         # -- Begin function compare_pic_by_lt_pic_num_asc
	.type	compare_pic_by_lt_pic_num_asc,@function
compare_pic_by_lt_pic_num_asc:          # @compare_pic_by_lt_pic_num_asc
	.cfi_startproc
# %bb.0:                                # %rand_bb
	pushq	%rbp
	.cfi_def_cfa_offset 16
	.cfi_offset %rbp, -16
	movq	%rsp, %rbp
	.cfi_def_cfa_register %rbp
	pushq	%r14
	pushq	%rbx
	.cfi_offset %rbx, -32
	.cfi_offset %r14, -24
	movq	%rsi, %r14
	movq	%rdi, %rbx
	callq	get_urand
	cmpl	$0, %eax
	jne	.LBB12_7
# %bb.1:                                # %func_compare_pic_by_lt_pic_num_asc.72
	movq	%rbx, %rdi
	movq	%r14, %rsi
	callq	compare_pic_by_lt_pic_num_asc.72
	popq	%rbx
	popq	%r14
	popq	%rbp
	.cfi_def_cfa %rsp, 8
	retq
.LBB12_2:                               # %func_compare_pic_by_lt_pic_num_asc.156
	.cfi_def_cfa %rbp, 16
	movq	%rbx, %rdi
	movq	%r14, %rsi
	callq	compare_pic_by_lt_pic_num_asc.156
	popq	%rbx
	popq	%r14
	popq	%rbp
	.cfi_def_cfa %rsp, 8
	retq
.LBB12_3:                               # %func_compare_pic_by_lt_pic_num_asc.204
	.cfi_def_cfa %rbp, 16
	movq	%rbx, %rdi
	movq	%r14, %rsi
	callq	compare_pic_by_lt_pic_num_asc.204
	popq	%rbx
	popq	%r14
	popq	%rbp
	.cfi_def_cfa %rsp, 8
	retq
.LBB12_4:                               # %func_compare_pic_by_lt_pic_num_asc.205
	.cfi_def_cfa %rbp, 16
	movq	%rbx, %rdi
	movq	%r14, %rsi
	callq	compare_pic_by_lt_pic_num_asc.205
	popq	%rbx
	popq	%r14
	popq	%rbp
	.cfi_def_cfa %rsp, 8
	retq
.LBB12_5:                               # %func_compare_pic_by_lt_pic_num_asc.209
	.cfi_def_cfa %rbp, 16
	movq	%rbx, %rdi
	movq	%r14, %rsi
	callq	compare_pic_by_lt_pic_num_asc.209
	popq	%rbx
	popq	%r14
	popq	%rbp
	.cfi_def_cfa %rsp, 8
	retq
.LBB12_6:                               # %func_compare_pic_by_lt_pic_num_asc.228
	.cfi_def_cfa %rbp, 16
	movq	%rbx, %rdi
	movq	%r14, %rsi
	callq	compare_pic_by_lt_pic_num_asc.228
	popq	%rbx
	popq	%r14
	popq	%rbp
	.cfi_def_cfa %rsp, 8
	retq
.LBB12_7:                               # %ctrl0
	.cfi_def_cfa %rbp, 16
	cmpl	$1, %eax
	je	.LBB12_2
# %bb.8:                                # %ctrl1
	cmpl	$2, %eax
	je	.LBB12_3
# %bb.9:                                # %ctrl2
	cmpl	$3, %eax
	je	.LBB12_4
# %bb.10:                               # %ctrl3
	cmpl	$4, %eax
	je	.LBB12_5
	jmp	.LBB12_6
.Lfunc_end12:
	.size	compare_pic_by_lt_pic_num_asc, .Lfunc_end12-compare_pic_by_lt_pic_num_asc
	.cfi_endproc
                                        # -- End function
	.p2align	4, 0x90         # -- Begin function compare_fs_by_frame_num_desc
	.type	compare_fs_by_frame_num_desc,@function
compare_fs_by_frame_num_desc:           # @compare_fs_by_frame_num_desc
	.cfi_startproc
# %bb.0:                                # %rand_bb
	pushq	%rbp
	.cfi_def_cfa_offset 16
	.cfi_offset %rbp, -16
	movq	%rsp, %rbp
	.cfi_def_cfa_register %rbp
	pushq	%r14
	pushq	%rbx
	.cfi_offset %rbx, -32
	.cfi_offset %r14, -24
	movq	%rsi, %r14
	movq	%rdi, %rbx
	callq	get_urand
	cmpl	$0, %eax
	jne	.LBB13_7
# %bb.1:                                # %func_compare_fs_by_frame_num_desc.18
	movq	%rbx, %rdi
	movq	%r14, %rsi
	callq	compare_fs_by_frame_num_desc.18
	popq	%rbx
	popq	%r14
	popq	%rbp
	.cfi_def_cfa %rsp, 8
	retq
.LBB13_2:                               # %func_compare_fs_by_frame_num_desc.40
	.cfi_def_cfa %rbp, 16
	movq	%rbx, %rdi
	movq	%r14, %rsi
	callq	compare_fs_by_frame_num_desc.40
	popq	%rbx
	popq	%r14
	popq	%rbp
	.cfi_def_cfa %rsp, 8
	retq
.LBB13_3:                               # %func_compare_fs_by_frame_num_desc.92
	.cfi_def_cfa %rbp, 16
	movq	%rbx, %rdi
	movq	%r14, %rsi
	callq	compare_fs_by_frame_num_desc.92
	popq	%rbx
	popq	%r14
	popq	%rbp
	.cfi_def_cfa %rsp, 8
	retq
.LBB13_4:                               # %func_compare_fs_by_frame_num_desc.133
	.cfi_def_cfa %rbp, 16
	movq	%rbx, %rdi
	movq	%r14, %rsi
	callq	compare_fs_by_frame_num_desc.133
	popq	%rbx
	popq	%r14
	popq	%rbp
	.cfi_def_cfa %rsp, 8
	retq
.LBB13_5:                               # %func_compare_fs_by_frame_num_desc.149
	.cfi_def_cfa %rbp, 16
	movq	%rbx, %rdi
	movq	%r14, %rsi
	callq	compare_fs_by_frame_num_desc.149
	popq	%rbx
	popq	%r14
	popq	%rbp
	.cfi_def_cfa %rsp, 8
	retq
.LBB13_6:                               # %func_compare_fs_by_frame_num_desc.158
	.cfi_def_cfa %rbp, 16
	movq	%rbx, %rdi
	movq	%r14, %rsi
	callq	compare_fs_by_frame_num_desc.158
	popq	%rbx
	popq	%r14
	popq	%rbp
	.cfi_def_cfa %rsp, 8
	retq
.LBB13_7:                               # %ctrl0
	.cfi_def_cfa %rbp, 16
	cmpl	$1, %eax
	je	.LBB13_2
# %bb.8:                                # %ctrl1
	cmpl	$2, %eax
	je	.LBB13_3
# %bb.9:                                # %ctrl2
	cmpl	$3, %eax
	je	.LBB13_4
# %bb.10:                               # %ctrl3
	cmpl	$4, %eax
	je	.LBB13_5
	jmp	.LBB13_6
.Lfunc_end13:
	.size	compare_fs_by_frame_num_desc, .Lfunc_end13-compare_fs_by_frame_num_desc
	.cfi_endproc
                                        # -- End function
	.p2align	4, 0x90         # -- Begin function gen_pic_list_from_frame_list
	.type	gen_pic_list_from_frame_list,@function
gen_pic_list_from_frame_list:           # @gen_pic_list_from_frame_list
	.cfi_startproc
# %bb.0:                                # %rand_bb
	pushq	%rbp
	.cfi_def_cfa_offset 16
	.cfi_offset %rbp, -16
	movq	%rsp, %rbp
	.cfi_def_cfa_register %rbp
	pushq	%r15
	pushq	%r14
	pushq	%r13
	pushq	%r12
	pushq	%rbx
	pushq	%rax
	.cfi_offset %rbx, -56
	.cfi_offset %r12, -48
	.cfi_offset %r13, -40
	.cfi_offset %r14, -32
	.cfi_offset %r15, -24
	movl	%r9d, -44(%rbp)         # 4-byte Spill
	movq	%r8, %r12
	movq	%rcx, %r13
	movl	%edx, %ebx
	movq	%rsi, %r14
	movl	%edi, %r15d
	callq	get_urand
	cmpl	$0, %eax
	jne	.LBB14_9
# %bb.1:                                # %func_gen_pic_list_from_frame_list.4
	movl	%r15d, %edi
	movq	%r14, %rsi
	movl	%ebx, %edx
	movq	%r13, %rcx
	movq	%r12, %r8
	movl	-44(%rbp), %r9d         # 4-byte Reload
	callq	gen_pic_list_from_frame_list.4
	addq	$8, %rsp
	popq	%rbx
	popq	%r12
	popq	%r13
	popq	%r14
	popq	%r15
	popq	%rbp
	.cfi_def_cfa %rsp, 8
	retq
.LBB14_2:                               # %func_gen_pic_list_from_frame_list.23
	.cfi_def_cfa %rbp, 16
	movl	%r15d, %edi
	movq	%r14, %rsi
	movl	%ebx, %edx
	movq	%r13, %rcx
	movq	%r12, %r8
	callq	gen_pic_list_from_frame_list.23
	addq	$8, %rsp
	popq	%rbx
	popq	%r12
	popq	%r13
	popq	%r14
	popq	%r15
	popq	%rbp
	.cfi_def_cfa %rsp, 8
	retq
.LBB14_3:                               # %func_gen_pic_list_from_frame_list.105
	.cfi_def_cfa %rbp, 16
	movl	%r15d, %edi
	movq	%r14, %rsi
	movl	%ebx, %edx
	movq	%r13, %rcx
	movq	%r12, %r8
	callq	gen_pic_list_from_frame_list.105
	addq	$8, %rsp
	popq	%rbx
	popq	%r12
	popq	%r13
	popq	%r14
	popq	%r15
	popq	%rbp
	.cfi_def_cfa %rsp, 8
	retq
.LBB14_4:                               # %func_gen_pic_list_from_frame_list.150
	.cfi_def_cfa %rbp, 16
	movl	%r15d, %edi
	movq	%r14, %rsi
	movl	%ebx, %edx
	movq	%r13, %rcx
	movq	%r12, %r8
	callq	gen_pic_list_from_frame_list.150
	addq	$8, %rsp
	popq	%rbx
	popq	%r12
	popq	%r13
	popq	%r14
	popq	%r15
	popq	%rbp
	.cfi_def_cfa %rsp, 8
	retq
.LBB14_5:                               # %func_gen_pic_list_from_frame_list.163
	.cfi_def_cfa %rbp, 16
	movl	%r15d, %edi
	movq	%r14, %rsi
	movl	%ebx, %edx
	movq	%r13, %rcx
	movq	%r12, %r8
	callq	gen_pic_list_from_frame_list.163
	addq	$8, %rsp
	popq	%rbx
	popq	%r12
	popq	%r13
	popq	%r14
	popq	%r15
	popq	%rbp
	.cfi_def_cfa %rsp, 8
	retq
.LBB14_6:                               # %func_gen_pic_list_from_frame_list.186
	.cfi_def_cfa %rbp, 16
	movl	%r15d, %edi
	movq	%r14, %rsi
	movl	%ebx, %edx
	movq	%r13, %rcx
	movq	%r12, %r8
	callq	gen_pic_list_from_frame_list.186
	addq	$8, %rsp
	popq	%rbx
	popq	%r12
	popq	%r13
	popq	%r14
	popq	%r15
	popq	%rbp
	.cfi_def_cfa %rsp, 8
	retq
.LBB14_7:                               # %func_gen_pic_list_from_frame_list.235
	.cfi_def_cfa %rbp, 16
	callq	gen_pic_list_from_frame_list.235
	addq	$8, %rsp
	popq	%rbx
	popq	%r12
	popq	%r13
	popq	%r14
	popq	%r15
	popq	%rbp
	.cfi_def_cfa %rsp, 8
	retq
.LBB14_8:                               # %func_gen_pic_list_from_frame_list.248
	.cfi_def_cfa %rbp, 16
	callq	gen_pic_list_from_frame_list.248
	addq	$8, %rsp
	popq	%rbx
	popq	%r12
	popq	%r13
	popq	%r14
	popq	%r15
	popq	%rbp
	.cfi_def_cfa %rsp, 8
	retq
.LBB14_9:                               # %ctrl0
	.cfi_def_cfa %rbp, 16
	movl	-44(%rbp), %r9d         # 4-byte Reload
	cmpl	$1, %eax
	je	.LBB14_2
# %bb.10:                               # %ctrl1
	cmpl	$2, %eax
	je	.LBB14_3
# %bb.11:                               # %ctrl2
	cmpl	$3, %eax
	je	.LBB14_4
# %bb.12:                               # %ctrl3
	cmpl	$4, %eax
	je	.LBB14_5
# %bb.13:                               # %ctrl4
	cmpl	$5, %eax
	je	.LBB14_6
# %bb.14:                               # %ctrl5
	cmpl	$6, %eax
	movq	%r12, %r8
	movq	%r13, %rcx
	movl	%ebx, %edx
	movq	%r14, %rsi
	movl	%r15d, %edi
	je	.LBB14_7
	jmp	.LBB14_8
.Lfunc_end14:
	.size	gen_pic_list_from_frame_list, .Lfunc_end14-gen_pic_list_from_frame_list
	.cfi_endproc
                                        # -- End function
	.p2align	4, 0x90         # -- Begin function compare_fs_by_lt_pic_idx_asc
	.type	compare_fs_by_lt_pic_idx_asc,@function
compare_fs_by_lt_pic_idx_asc:           # @compare_fs_by_lt_pic_idx_asc
	.cfi_startproc
# %bb.0:                                # %rand_bb
	pushq	%rbp
	.cfi_def_cfa_offset 16
	.cfi_offset %rbp, -16
	movq	%rsp, %rbp
	.cfi_def_cfa_register %rbp
	pushq	%r14
	pushq	%rbx
	.cfi_offset %rbx, -32
	.cfi_offset %r14, -24
	movq	%rsi, %r14
	movq	%rdi, %rbx
	callq	get_urand
	cmpl	$0, %eax
	jne	.LBB15_7
# %bb.1:                                # %func_compare_fs_by_lt_pic_idx_asc.19
	movq	%rbx, %rdi
	movq	%r14, %rsi
	callq	compare_fs_by_lt_pic_idx_asc.19
	popq	%rbx
	popq	%r14
	popq	%rbp
	.cfi_def_cfa %rsp, 8
	retq
.LBB15_2:                               # %func_compare_fs_by_lt_pic_idx_asc.32
	.cfi_def_cfa %rbp, 16
	movq	%rbx, %rdi
	movq	%r14, %rsi
	callq	compare_fs_by_lt_pic_idx_asc.32
	popq	%rbx
	popq	%r14
	popq	%rbp
	.cfi_def_cfa %rsp, 8
	retq
.LBB15_3:                               # %func_compare_fs_by_lt_pic_idx_asc.70
	.cfi_def_cfa %rbp, 16
	movq	%rbx, %rdi
	movq	%r14, %rsi
	callq	compare_fs_by_lt_pic_idx_asc.70
	popq	%rbx
	popq	%r14
	popq	%rbp
	.cfi_def_cfa %rsp, 8
	retq
.LBB15_4:                               # %func_compare_fs_by_lt_pic_idx_asc.128
	.cfi_def_cfa %rbp, 16
	movq	%rbx, %rdi
	movq	%r14, %rsi
	callq	compare_fs_by_lt_pic_idx_asc.128
	popq	%rbx
	popq	%r14
	popq	%rbp
	.cfi_def_cfa %rsp, 8
	retq
.LBB15_5:                               # %func_compare_fs_by_lt_pic_idx_asc.131
	.cfi_def_cfa %rbp, 16
	movq	%rbx, %rdi
	movq	%r14, %rsi
	callq	compare_fs_by_lt_pic_idx_asc.131
	popq	%rbx
	popq	%r14
	popq	%rbp
	.cfi_def_cfa %rsp, 8
	retq
.LBB15_6:                               # %func_compare_fs_by_lt_pic_idx_asc.159
	.cfi_def_cfa %rbp, 16
	movq	%rbx, %rdi
	movq	%r14, %rsi
	callq	compare_fs_by_lt_pic_idx_asc.159
	popq	%rbx
	popq	%r14
	popq	%rbp
	.cfi_def_cfa %rsp, 8
	retq
.LBB15_7:                               # %ctrl0
	.cfi_def_cfa %rbp, 16
	cmpl	$1, %eax
	je	.LBB15_2
# %bb.8:                                # %ctrl1
	cmpl	$2, %eax
	je	.LBB15_3
# %bb.9:                                # %ctrl2
	cmpl	$3, %eax
	je	.LBB15_4
# %bb.10:                               # %ctrl3
	cmpl	$4, %eax
	je	.LBB15_5
	jmp	.LBB15_6
.Lfunc_end15:
	.size	compare_fs_by_lt_pic_idx_asc, .Lfunc_end15-compare_fs_by_lt_pic_idx_asc
	.cfi_endproc
                                        # -- End function
	.p2align	4, 0x90         # -- Begin function compare_pic_by_poc_desc
	.type	compare_pic_by_poc_desc,@function
compare_pic_by_poc_desc:                # @compare_pic_by_poc_desc
	.cfi_startproc
# %bb.0:                                # %rand_bb
	pushq	%rbp
	.cfi_def_cfa_offset 16
	.cfi_offset %rbp, -16
	movq	%rsp, %rbp
	.cfi_def_cfa_register %rbp
	pushq	%r14
	pushq	%rbx
	.cfi_offset %rbx, -32
	.cfi_offset %r14, -24
	movq	%rsi, %r14
	movq	%rdi, %rbx
	callq	get_urand
	cmpl	$0, %eax
	jne	.LBB16_7
# %bb.1:                                # %func_compare_pic_by_poc_desc.152
	movq	%rbx, %rdi
	movq	%r14, %rsi
	callq	compare_pic_by_poc_desc.152
	popq	%rbx
	popq	%r14
	popq	%rbp
	.cfi_def_cfa %rsp, 8
	retq
.LBB16_2:                               # %func_compare_pic_by_poc_desc.169
	.cfi_def_cfa %rbp, 16
	movq	%rbx, %rdi
	movq	%r14, %rsi
	callq	compare_pic_by_poc_desc.169
	popq	%rbx
	popq	%r14
	popq	%rbp
	.cfi_def_cfa %rsp, 8
	retq
.LBB16_3:                               # %func_compare_pic_by_poc_desc.174
	.cfi_def_cfa %rbp, 16
	movq	%rbx, %rdi
	movq	%r14, %rsi
	callq	compare_pic_by_poc_desc.174
	popq	%rbx
	popq	%r14
	popq	%rbp
	.cfi_def_cfa %rsp, 8
	retq
.LBB16_4:                               # %func_compare_pic_by_poc_desc.207
	.cfi_def_cfa %rbp, 16
	movq	%rbx, %rdi
	movq	%r14, %rsi
	callq	compare_pic_by_poc_desc.207
	popq	%rbx
	popq	%r14
	popq	%rbp
	.cfi_def_cfa %rsp, 8
	retq
.LBB16_5:                               # %func_compare_pic_by_poc_desc.236
	.cfi_def_cfa %rbp, 16
	movq	%rbx, %rdi
	movq	%r14, %rsi
	callq	compare_pic_by_poc_desc.236
	popq	%rbx
	popq	%r14
	popq	%rbp
	.cfi_def_cfa %rsp, 8
	retq
.LBB16_6:                               # %func_compare_pic_by_poc_desc.264
	.cfi_def_cfa %rbp, 16
	movq	%rbx, %rdi
	movq	%r14, %rsi
	callq	compare_pic_by_poc_desc.264
	popq	%rbx
	popq	%r14
	popq	%rbp
	.cfi_def_cfa %rsp, 8
	retq
.LBB16_7:                               # %ctrl0
	.cfi_def_cfa %rbp, 16
	cmpl	$1, %eax
	je	.LBB16_2
# %bb.8:                                # %ctrl1
	cmpl	$2, %eax
	je	.LBB16_3
# %bb.9:                                # %ctrl2
	cmpl	$3, %eax
	je	.LBB16_4
# %bb.10:                               # %ctrl3
	cmpl	$4, %eax
	je	.LBB16_5
	jmp	.LBB16_6
.Lfunc_end16:
	.size	compare_pic_by_poc_desc, .Lfunc_end16-compare_pic_by_poc_desc
	.cfi_endproc
                                        # -- End function
	.p2align	4, 0x90         # -- Begin function compare_pic_by_poc_asc
	.type	compare_pic_by_poc_asc,@function
compare_pic_by_poc_asc:                 # @compare_pic_by_poc_asc
	.cfi_startproc
# %bb.0:                                # %rand_bb
	pushq	%rbp
	.cfi_def_cfa_offset 16
	.cfi_offset %rbp, -16
	movq	%rsp, %rbp
	.cfi_def_cfa_register %rbp
	pushq	%r14
	pushq	%rbx
	.cfi_offset %rbx, -32
	.cfi_offset %r14, -24
	movq	%rsi, %r14
	movq	%rdi, %rbx
	callq	get_urand
	cmpl	$0, %eax
	jne	.LBB17_7
# %bb.1:                                # %func_compare_pic_by_poc_asc.5
	movq	%rbx, %rdi
	movq	%r14, %rsi
	callq	compare_pic_by_poc_asc.5
	popq	%rbx
	popq	%r14
	popq	%rbp
	.cfi_def_cfa %rsp, 8
	retq
.LBB17_2:                               # %func_compare_pic_by_poc_asc.26
	.cfi_def_cfa %rbp, 16
	movq	%rbx, %rdi
	movq	%r14, %rsi
	callq	compare_pic_by_poc_asc.26
	popq	%rbx
	popq	%r14
	popq	%rbp
	.cfi_def_cfa %rsp, 8
	retq
.LBB17_3:                               # %func_compare_pic_by_poc_asc.28
	.cfi_def_cfa %rbp, 16
	movq	%rbx, %rdi
	movq	%r14, %rsi
	callq	compare_pic_by_poc_asc.28
	popq	%rbx
	popq	%r14
	popq	%rbp
	.cfi_def_cfa %rsp, 8
	retq
.LBB17_4:                               # %func_compare_pic_by_poc_asc.46
	.cfi_def_cfa %rbp, 16
	movq	%rbx, %rdi
	movq	%r14, %rsi
	callq	compare_pic_by_poc_asc.46
	popq	%rbx
	popq	%r14
	popq	%rbp
	.cfi_def_cfa %rsp, 8
	retq
.LBB17_5:                               # %func_compare_pic_by_poc_asc.64
	.cfi_def_cfa %rbp, 16
	movq	%rbx, %rdi
	movq	%r14, %rsi
	callq	compare_pic_by_poc_asc.64
	popq	%rbx
	popq	%r14
	popq	%rbp
	.cfi_def_cfa %rsp, 8
	retq
.LBB17_6:                               # %func_compare_pic_by_poc_asc.129
	.cfi_def_cfa %rbp, 16
	movq	%rbx, %rdi
	movq	%r14, %rsi
	callq	compare_pic_by_poc_asc.129
	popq	%rbx
	popq	%r14
	popq	%rbp
	.cfi_def_cfa %rsp, 8
	retq
.LBB17_7:                               # %ctrl0
	.cfi_def_cfa %rbp, 16
	cmpl	$1, %eax
	je	.LBB17_2
# %bb.8:                                # %ctrl1
	cmpl	$2, %eax
	je	.LBB17_3
# %bb.9:                                # %ctrl2
	cmpl	$3, %eax
	je	.LBB17_4
# %bb.10:                               # %ctrl3
	cmpl	$4, %eax
	je	.LBB17_5
	jmp	.LBB17_6
.Lfunc_end17:
	.size	compare_pic_by_poc_asc, .Lfunc_end17-compare_pic_by_poc_asc
	.cfi_endproc
                                        # -- End function
	.p2align	4, 0x90         # -- Begin function compare_fs_by_poc_desc
	.type	compare_fs_by_poc_desc,@function
compare_fs_by_poc_desc:                 # @compare_fs_by_poc_desc
	.cfi_startproc
# %bb.0:                                # %rand_bb
	pushq	%rbp
	.cfi_def_cfa_offset 16
	.cfi_offset %rbp, -16
	movq	%rsp, %rbp
	.cfi_def_cfa_register %rbp
	pushq	%r14
	pushq	%rbx
	.cfi_offset %rbx, -32
	.cfi_offset %r14, -24
	movq	%rsi, %r14
	movq	%rdi, %rbx
	callq	get_urand
	cmpl	$0, %eax
	jne	.LBB18_7
# %bb.1:                                # %func_compare_fs_by_poc_desc.65
	movq	%rbx, %rdi
	movq	%r14, %rsi
	callq	compare_fs_by_poc_desc.65
	popq	%rbx
	popq	%r14
	popq	%rbp
	.cfi_def_cfa %rsp, 8
	retq
.LBB18_2:                               # %func_compare_fs_by_poc_desc.110
	.cfi_def_cfa %rbp, 16
	movq	%rbx, %rdi
	movq	%r14, %rsi
	callq	compare_fs_by_poc_desc.110
	popq	%rbx
	popq	%r14
	popq	%rbp
	.cfi_def_cfa %rsp, 8
	retq
.LBB18_3:                               # %func_compare_fs_by_poc_desc.145
	.cfi_def_cfa %rbp, 16
	movq	%rbx, %rdi
	movq	%r14, %rsi
	callq	compare_fs_by_poc_desc.145
	popq	%rbx
	popq	%r14
	popq	%rbp
	.cfi_def_cfa %rsp, 8
	retq
.LBB18_4:                               # %func_compare_fs_by_poc_desc.147
	.cfi_def_cfa %rbp, 16
	movq	%rbx, %rdi
	movq	%r14, %rsi
	callq	compare_fs_by_poc_desc.147
	popq	%rbx
	popq	%r14
	popq	%rbp
	.cfi_def_cfa %rsp, 8
	retq
.LBB18_5:                               # %func_compare_fs_by_poc_desc.210
	.cfi_def_cfa %rbp, 16
	movq	%rbx, %rdi
	movq	%r14, %rsi
	callq	compare_fs_by_poc_desc.210
	popq	%rbx
	popq	%r14
	popq	%rbp
	.cfi_def_cfa %rsp, 8
	retq
.LBB18_6:                               # %func_compare_fs_by_poc_desc.243
	.cfi_def_cfa %rbp, 16
	movq	%rbx, %rdi
	movq	%r14, %rsi
	callq	compare_fs_by_poc_desc.243
	popq	%rbx
	popq	%r14
	popq	%rbp
	.cfi_def_cfa %rsp, 8
	retq
.LBB18_7:                               # %ctrl0
	.cfi_def_cfa %rbp, 16
	cmpl	$1, %eax
	je	.LBB18_2
# %bb.8:                                # %ctrl1
	cmpl	$2, %eax
	je	.LBB18_3
# %bb.9:                                # %ctrl2
	cmpl	$3, %eax
	je	.LBB18_4
# %bb.10:                               # %ctrl3
	cmpl	$4, %eax
	je	.LBB18_5
	jmp	.LBB18_6
.Lfunc_end18:
	.size	compare_fs_by_poc_desc, .Lfunc_end18-compare_fs_by_poc_desc
	.cfi_endproc
                                        # -- End function
	.p2align	4, 0x90         # -- Begin function compare_fs_by_poc_asc
	.type	compare_fs_by_poc_asc,@function
compare_fs_by_poc_asc:                  # @compare_fs_by_poc_asc
	.cfi_startproc
# %bb.0:                                # %rand_bb
	pushq	%rbp
	.cfi_def_cfa_offset 16
	.cfi_offset %rbp, -16
	movq	%rsp, %rbp
	.cfi_def_cfa_register %rbp
	pushq	%r14
	pushq	%rbx
	.cfi_offset %rbx, -32
	.cfi_offset %r14, -24
	movq	%rsi, %r14
	movq	%rdi, %rbx
	callq	get_urand
	cmpl	$0, %eax
	jne	.LBB19_7
# %bb.1:                                # %func_compare_fs_by_poc_asc.97
	movq	%rbx, %rdi
	movq	%r14, %rsi
	callq	compare_fs_by_poc_asc.97
	popq	%rbx
	popq	%r14
	popq	%rbp
	.cfi_def_cfa %rsp, 8
	retq
.LBB19_2:                               # %func_compare_fs_by_poc_asc.112
	.cfi_def_cfa %rbp, 16
	movq	%rbx, %rdi
	movq	%r14, %rsi
	callq	compare_fs_by_poc_asc.112
	popq	%rbx
	popq	%r14
	popq	%rbp
	.cfi_def_cfa %rsp, 8
	retq
.LBB19_3:                               # %func_compare_fs_by_poc_asc.136
	.cfi_def_cfa %rbp, 16
	movq	%rbx, %rdi
	movq	%r14, %rsi
	callq	compare_fs_by_poc_asc.136
	popq	%rbx
	popq	%r14
	popq	%rbp
	.cfi_def_cfa %rsp, 8
	retq
.LBB19_4:                               # %func_compare_fs_by_poc_asc.173
	.cfi_def_cfa %rbp, 16
	movq	%rbx, %rdi
	movq	%r14, %rsi
	callq	compare_fs_by_poc_asc.173
	popq	%rbx
	popq	%r14
	popq	%rbp
	.cfi_def_cfa %rsp, 8
	retq
.LBB19_5:                               # %func_compare_fs_by_poc_asc.199
	.cfi_def_cfa %rbp, 16
	movq	%rbx, %rdi
	movq	%r14, %rsi
	callq	compare_fs_by_poc_asc.199
	popq	%rbx
	popq	%r14
	popq	%rbp
	.cfi_def_cfa %rsp, 8
	retq
.LBB19_6:                               # %func_compare_fs_by_poc_asc.246
	.cfi_def_cfa %rbp, 16
	movq	%rbx, %rdi
	movq	%r14, %rsi
	callq	compare_fs_by_poc_asc.246
	popq	%rbx
	popq	%r14
	popq	%rbp
	.cfi_def_cfa %rsp, 8
	retq
.LBB19_7:                               # %ctrl0
	.cfi_def_cfa %rbp, 16
	cmpl	$1, %eax
	je	.LBB19_2
# %bb.8:                                # %ctrl1
	cmpl	$2, %eax
	je	.LBB19_3
# %bb.9:                                # %ctrl2
	cmpl	$3, %eax
	je	.LBB19_4
# %bb.10:                               # %ctrl3
	cmpl	$4, %eax
	je	.LBB19_5
	jmp	.LBB19_6
.Lfunc_end19:
	.size	compare_fs_by_poc_asc, .Lfunc_end19-compare_fs_by_poc_asc
	.cfi_endproc
                                        # -- End function
	.globl	init_mbaff_lists        # -- Begin function init_mbaff_lists
	.p2align	4, 0x90
	.type	init_mbaff_lists,@function
init_mbaff_lists:                       # @init_mbaff_lists
	.cfi_startproc
# %bb.0:                                # %rand_bb
	pushq	%rbp
	.cfi_def_cfa_offset 16
	.cfi_offset %rbp, -16
	movq	%rsp, %rbp
	.cfi_def_cfa_register %rbp
	callq	get_urand
	cmpl	$0, %eax
	jne	.LBB20_2
# %bb.1:                                # %func_init_mbaff_lists.14
	callq	init_mbaff_lists.14
	popq	%rbp
	.cfi_def_cfa %rsp, 8
	retq
.LBB20_2:                               # %func_init_mbaff_lists.38
	.cfi_def_cfa %rbp, 16
	callq	init_mbaff_lists.38
	popq	%rbp
	.cfi_def_cfa %rsp, 8
	retq
.Lfunc_end20:
	.size	init_mbaff_lists, .Lfunc_end20-init_mbaff_lists
	.cfi_endproc
                                        # -- End function
	.globl	reorder_ref_pic_list    # -- Begin function reorder_ref_pic_list
	.p2align	4, 0x90
	.type	reorder_ref_pic_list,@function
reorder_ref_pic_list:                   # @reorder_ref_pic_list
	.cfi_startproc
# %bb.0:                                # %rand_bb
	pushq	%rbp
	.cfi_def_cfa_offset 16
	.cfi_offset %rbp, -16
	movq	%rsp, %rbp
	.cfi_def_cfa_register %rbp
	pushq	%r15
	pushq	%r14
	pushq	%r13
	pushq	%r12
	pushq	%rbx
	pushq	%rax
	.cfi_offset %rbx, -56
	.cfi_offset %r12, -48
	.cfi_offset %r13, -40
	.cfi_offset %r14, -32
	.cfi_offset %r15, -24
	movq	%r9, -48(%rbp)          # 8-byte Spill
	movq	%r8, %r12
	movq	%rcx, %r13
	movl	%edx, %ebx
	movq	%rsi, %r14
	movq	%rdi, %r15
	callq	get_urand
	cmpl	$0, %eax
	jne	.LBB21_9
# %bb.1:                                # %func_reorder_ref_pic_list.25
	movq	%r15, %rdi
	movq	%r14, %rsi
	movl	%ebx, %edx
	movq	%r13, %rcx
	movq	%r12, %r8
	movq	-48(%rbp), %r9          # 8-byte Reload
	callq	reorder_ref_pic_list.25
	addq	$8, %rsp
	popq	%rbx
	popq	%r12
	popq	%r13
	popq	%r14
	popq	%r15
	popq	%rbp
	.cfi_def_cfa %rsp, 8
	retq
.LBB21_2:                               # %func_reorder_ref_pic_list.68
	.cfi_def_cfa %rbp, 16
	movq	%r15, %rdi
	movq	%r14, %rsi
	movl	%ebx, %edx
	movq	%r13, %rcx
	movq	%r12, %r8
	callq	reorder_ref_pic_list.68
	addq	$8, %rsp
	popq	%rbx
	popq	%r12
	popq	%r13
	popq	%r14
	popq	%r15
	popq	%rbp
	.cfi_def_cfa %rsp, 8
	retq
.LBB21_3:                               # %func_reorder_ref_pic_list.106
	.cfi_def_cfa %rbp, 16
	movq	%r15, %rdi
	movq	%r14, %rsi
	movl	%ebx, %edx
	movq	%r13, %rcx
	movq	%r12, %r8
	callq	reorder_ref_pic_list.106
	addq	$8, %rsp
	popq	%rbx
	popq	%r12
	popq	%r13
	popq	%r14
	popq	%r15
	popq	%rbp
	.cfi_def_cfa %rsp, 8
	retq
.LBB21_4:                               # %func_reorder_ref_pic_list.113
	.cfi_def_cfa %rbp, 16
	movq	%r15, %rdi
	movq	%r14, %rsi
	movl	%ebx, %edx
	movq	%r13, %rcx
	movq	%r12, %r8
	callq	reorder_ref_pic_list.113
	addq	$8, %rsp
	popq	%rbx
	popq	%r12
	popq	%r13
	popq	%r14
	popq	%r15
	popq	%rbp
	.cfi_def_cfa %rsp, 8
	retq
.LBB21_5:                               # %func_reorder_ref_pic_list.161
	.cfi_def_cfa %rbp, 16
	movq	%r15, %rdi
	movq	%r14, %rsi
	movl	%ebx, %edx
	movq	%r13, %rcx
	movq	%r12, %r8
	callq	reorder_ref_pic_list.161
	addq	$8, %rsp
	popq	%rbx
	popq	%r12
	popq	%r13
	popq	%r14
	popq	%r15
	popq	%rbp
	.cfi_def_cfa %rsp, 8
	retq
.LBB21_6:                               # %func_reorder_ref_pic_list.181
	.cfi_def_cfa %rbp, 16
	movq	%r15, %rdi
	movq	%r14, %rsi
	movl	%ebx, %edx
	movq	%r13, %rcx
	movq	%r12, %r8
	callq	reorder_ref_pic_list.181
	addq	$8, %rsp
	popq	%rbx
	popq	%r12
	popq	%r13
	popq	%r14
	popq	%r15
	popq	%rbp
	.cfi_def_cfa %rsp, 8
	retq
.LBB21_7:                               # %func_reorder_ref_pic_list.195
	.cfi_def_cfa %rbp, 16
	callq	reorder_ref_pic_list.195
	addq	$8, %rsp
	popq	%rbx
	popq	%r12
	popq	%r13
	popq	%r14
	popq	%r15
	popq	%rbp
	.cfi_def_cfa %rsp, 8
	retq
.LBB21_8:                               # %func_reorder_ref_pic_list.217
	.cfi_def_cfa %rbp, 16
	callq	reorder_ref_pic_list.217
	addq	$8, %rsp
	popq	%rbx
	popq	%r12
	popq	%r13
	popq	%r14
	popq	%r15
	popq	%rbp
	.cfi_def_cfa %rsp, 8
	retq
.LBB21_9:                               # %ctrl0
	.cfi_def_cfa %rbp, 16
	movq	-48(%rbp), %r9          # 8-byte Reload
	cmpl	$1, %eax
	je	.LBB21_2
# %bb.10:                               # %ctrl1
	cmpl	$2, %eax
	je	.LBB21_3
# %bb.11:                               # %ctrl2
	cmpl	$3, %eax
	je	.LBB21_4
# %bb.12:                               # %ctrl3
	cmpl	$4, %eax
	je	.LBB21_5
# %bb.13:                               # %ctrl4
	cmpl	$5, %eax
	je	.LBB21_6
# %bb.14:                               # %ctrl5
	cmpl	$6, %eax
	movq	%r12, %r8
	movq	%r13, %rcx
	movl	%ebx, %edx
	movq	%r14, %rsi
	movq	%r15, %rdi
	je	.LBB21_7
	jmp	.LBB21_8
.Lfunc_end21:
	.size	reorder_ref_pic_list, .Lfunc_end21-reorder_ref_pic_list
	.cfi_endproc
                                        # -- End function
	.p2align	4, 0x90         # -- Begin function reorder_short_term
	.type	reorder_short_term,@function
reorder_short_term:                     # @reorder_short_term
	.cfi_startproc
# %bb.0:                                # %rand_bb
	pushq	%rbp
	.cfi_def_cfa_offset 16
	.cfi_offset %rbp, -16
	movq	%rsp, %rbp
	.cfi_def_cfa_register %rbp
	pushq	%r15
	pushq	%r14
	pushq	%r12
	pushq	%rbx
	.cfi_offset %rbx, -48
	.cfi_offset %r12, -40
	.cfi_offset %r14, -32
	.cfi_offset %r15, -24
	movq	%rcx, %r14
	movl	%edx, %r15d
	movl	%esi, %r12d
	movq	%rdi, %rbx
	callq	get_urand
	cmpl	$0, %eax
	jne	.LBB22_9
# %bb.1:                                # %func_reorder_short_term.7
	movq	%rbx, %rdi
	movl	%r12d, %esi
	movl	%r15d, %edx
	movq	%r14, %rcx
	callq	reorder_short_term.7
	popq	%rbx
	popq	%r12
	popq	%r14
	popq	%r15
	popq	%rbp
	.cfi_def_cfa %rsp, 8
	retq
.LBB22_2:                               # %func_reorder_short_term.69
	.cfi_def_cfa %rbp, 16
	movq	%rbx, %rdi
	movl	%r12d, %esi
	movl	%r15d, %edx
	movq	%r14, %rcx
	callq	reorder_short_term.69
	popq	%rbx
	popq	%r12
	popq	%r14
	popq	%r15
	popq	%rbp
	.cfi_def_cfa %rsp, 8
	retq
.LBB22_3:                               # %func_reorder_short_term.71
	.cfi_def_cfa %rbp, 16
	movq	%rbx, %rdi
	movl	%r12d, %esi
	movl	%r15d, %edx
	movq	%r14, %rcx
	callq	reorder_short_term.71
	popq	%rbx
	popq	%r12
	popq	%r14
	popq	%r15
	popq	%rbp
	.cfi_def_cfa %rsp, 8
	retq
.LBB22_4:                               # %func_reorder_short_term.86
	.cfi_def_cfa %rbp, 16
	movq	%rbx, %rdi
	movl	%r12d, %esi
	movl	%r15d, %edx
	movq	%r14, %rcx
	callq	reorder_short_term.86
	popq	%rbx
	popq	%r12
	popq	%r14
	popq	%r15
	popq	%rbp
	.cfi_def_cfa %rsp, 8
	retq
.LBB22_5:                               # %func_reorder_short_term.98
	.cfi_def_cfa %rbp, 16
	movq	%rbx, %rdi
	movl	%r12d, %esi
	movl	%r15d, %edx
	movq	%r14, %rcx
	callq	reorder_short_term.98
	popq	%rbx
	popq	%r12
	popq	%r14
	popq	%r15
	popq	%rbp
	.cfi_def_cfa %rsp, 8
	retq
.LBB22_6:                               # %func_reorder_short_term.111
	.cfi_def_cfa %rbp, 16
	movq	%rbx, %rdi
	movl	%r12d, %esi
	movl	%r15d, %edx
	movq	%r14, %rcx
	callq	reorder_short_term.111
	popq	%rbx
	popq	%r12
	popq	%r14
	popq	%r15
	popq	%rbp
	.cfi_def_cfa %rsp, 8
	retq
.LBB22_7:                               # %func_reorder_short_term.223
	.cfi_def_cfa %rbp, 16
	movq	%rbx, %rdi
	movl	%r12d, %esi
	movl	%r15d, %edx
	movq	%r14, %rcx
	callq	reorder_short_term.223
	popq	%rbx
	popq	%r12
	popq	%r14
	popq	%r15
	popq	%rbp
	.cfi_def_cfa %rsp, 8
	retq
.LBB22_8:                               # %func_reorder_short_term.229
	.cfi_def_cfa %rbp, 16
	movq	%rbx, %rdi
	movl	%r12d, %esi
	movl	%r15d, %edx
	movq	%r14, %rcx
	callq	reorder_short_term.229
	popq	%rbx
	popq	%r12
	popq	%r14
	popq	%r15
	popq	%rbp
	.cfi_def_cfa %rsp, 8
	retq
.LBB22_9:                               # %ctrl0
	.cfi_def_cfa %rbp, 16
	cmpl	$1, %eax
	je	.LBB22_2
# %bb.10:                               # %ctrl1
	cmpl	$2, %eax
	je	.LBB22_3
# %bb.11:                               # %ctrl2
	cmpl	$3, %eax
	je	.LBB22_4
# %bb.12:                               # %ctrl3
	cmpl	$4, %eax
	je	.LBB22_5
# %bb.13:                               # %ctrl4
	cmpl	$5, %eax
	je	.LBB22_6
# %bb.14:                               # %ctrl5
	cmpl	$6, %eax
	je	.LBB22_7
	jmp	.LBB22_8
.Lfunc_end22:
	.size	reorder_short_term, .Lfunc_end22-reorder_short_term
	.cfi_endproc
                                        # -- End function
	.p2align	4, 0x90         # -- Begin function reorder_long_term
	.type	reorder_long_term,@function
reorder_long_term:                      # @reorder_long_term
	.cfi_startproc
# %bb.0:                                # %rand_bb
	pushq	%rbp
	.cfi_def_cfa_offset 16
	.cfi_offset %rbp, -16
	movq	%rsp, %rbp
	.cfi_def_cfa_register %rbp
	pushq	%r15
	pushq	%r14
	pushq	%r12
	pushq	%rbx
	.cfi_offset %rbx, -48
	.cfi_offset %r12, -40
	.cfi_offset %r14, -32
	.cfi_offset %r15, -24
	movq	%rcx, %r14
	movl	%edx, %r15d
	movl	%esi, %r12d
	movq	%rdi, %rbx
	callq	get_urand
	cmpl	$0, %eax
	jne	.LBB23_9
# %bb.1:                                # %func_reorder_long_term.79
	movq	%rbx, %rdi
	movl	%r12d, %esi
	movl	%r15d, %edx
	movq	%r14, %rcx
	callq	reorder_long_term.79
	popq	%rbx
	popq	%r12
	popq	%r14
	popq	%r15
	popq	%rbp
	.cfi_def_cfa %rsp, 8
	retq
.LBB23_2:                               # %func_reorder_long_term.91
	.cfi_def_cfa %rbp, 16
	movq	%rbx, %rdi
	movl	%r12d, %esi
	movl	%r15d, %edx
	movq	%r14, %rcx
	callq	reorder_long_term.91
	popq	%rbx
	popq	%r12
	popq	%r14
	popq	%r15
	popq	%rbp
	.cfi_def_cfa %rsp, 8
	retq
.LBB23_3:                               # %func_reorder_long_term.99
	.cfi_def_cfa %rbp, 16
	movq	%rbx, %rdi
	movl	%r12d, %esi
	movl	%r15d, %edx
	movq	%r14, %rcx
	callq	reorder_long_term.99
	popq	%rbx
	popq	%r12
	popq	%r14
	popq	%r15
	popq	%rbp
	.cfi_def_cfa %rsp, 8
	retq
.LBB23_4:                               # %func_reorder_long_term.114
	.cfi_def_cfa %rbp, 16
	movq	%rbx, %rdi
	movl	%r12d, %esi
	movl	%r15d, %edx
	movq	%r14, %rcx
	callq	reorder_long_term.114
	popq	%rbx
	popq	%r12
	popq	%r14
	popq	%r15
	popq	%rbp
	.cfi_def_cfa %rsp, 8
	retq
.LBB23_5:                               # %func_reorder_long_term.191
	.cfi_def_cfa %rbp, 16
	movq	%rbx, %rdi
	movl	%r12d, %esi
	movl	%r15d, %edx
	movq	%r14, %rcx
	callq	reorder_long_term.191
	popq	%rbx
	popq	%r12
	popq	%r14
	popq	%r15
	popq	%rbp
	.cfi_def_cfa %rsp, 8
	retq
.LBB23_6:                               # %func_reorder_long_term.251
	.cfi_def_cfa %rbp, 16
	movq	%rbx, %rdi
	movl	%r12d, %esi
	movl	%r15d, %edx
	movq	%r14, %rcx
	callq	reorder_long_term.251
	popq	%rbx
	popq	%r12
	popq	%r14
	popq	%r15
	popq	%rbp
	.cfi_def_cfa %rsp, 8
	retq
.LBB23_7:                               # %func_reorder_long_term.255
	.cfi_def_cfa %rbp, 16
	movq	%rbx, %rdi
	movl	%r12d, %esi
	movl	%r15d, %edx
	movq	%r14, %rcx
	callq	reorder_long_term.255
	popq	%rbx
	popq	%r12
	popq	%r14
	popq	%r15
	popq	%rbp
	.cfi_def_cfa %rsp, 8
	retq
.LBB23_8:                               # %func_reorder_long_term.257
	.cfi_def_cfa %rbp, 16
	movq	%rbx, %rdi
	movl	%r12d, %esi
	movl	%r15d, %edx
	movq	%r14, %rcx
	callq	reorder_long_term.257
	popq	%rbx
	popq	%r12
	popq	%r14
	popq	%r15
	popq	%rbp
	.cfi_def_cfa %rsp, 8
	retq
.LBB23_9:                               # %ctrl0
	.cfi_def_cfa %rbp, 16
	cmpl	$1, %eax
	je	.LBB23_2
# %bb.10:                               # %ctrl1
	cmpl	$2, %eax
	je	.LBB23_3
# %bb.11:                               # %ctrl2
	cmpl	$3, %eax
	je	.LBB23_4
# %bb.12:                               # %ctrl3
	cmpl	$4, %eax
	je	.LBB23_5
# %bb.13:                               # %ctrl4
	cmpl	$5, %eax
	je	.LBB23_6
# %bb.14:                               # %ctrl5
	cmpl	$6, %eax
	je	.LBB23_7
	jmp	.LBB23_8
.Lfunc_end23:
	.size	reorder_long_term, .Lfunc_end23-reorder_long_term
	.cfi_endproc
                                        # -- End function
	.globl	update_ref_list         # -- Begin function update_ref_list
	.p2align	4, 0x90
	.type	update_ref_list,@function
update_ref_list:                        # @update_ref_list
	.cfi_startproc
# %bb.0:                                # %rand_bb
	pushq	%rbp
	.cfi_def_cfa_offset 16
	.cfi_offset %rbp, -16
	movq	%rsp, %rbp
	.cfi_def_cfa_register %rbp
	callq	get_urand
	cmpl	$0, %eax
	jne	.LBB24_2
# %bb.1:                                # %func_update_ref_list.37
	callq	update_ref_list.37
	popq	%rbp
	.cfi_def_cfa %rsp, 8
	retq
.LBB24_2:                               # %func_update_ref_list.84
	.cfi_def_cfa %rbp, 16
	callq	update_ref_list.84
	popq	%rbp
	.cfi_def_cfa %rsp, 8
	retq
.Lfunc_end24:
	.size	update_ref_list, .Lfunc_end24-update_ref_list
	.cfi_endproc
                                        # -- End function
	.p2align	4, 0x90         # -- Begin function is_short_term_reference
	.type	is_short_term_reference,@function
is_short_term_reference:                # @is_short_term_reference
	.cfi_startproc
# %bb.0:                                # %rand_bb
	pushq	%rbp
	.cfi_def_cfa_offset 16
	.cfi_offset %rbp, -16
	movq	%rsp, %rbp
	.cfi_def_cfa_register %rbp
	pushq	%rbx
	pushq	%rax
	.cfi_offset %rbx, -24
	movq	%rdi, %rbx
	callq	get_urand
	cmpl	$0, %eax
	jne	.LBB25_2
# %bb.1:                                # %func_is_short_term_reference.12
	movq	%rbx, %rdi
	callq	is_short_term_reference.12
	addq	$8, %rsp
	popq	%rbx
	popq	%rbp
	.cfi_def_cfa %rsp, 8
	retq
.LBB25_2:                               # %func_is_short_term_reference.35
	.cfi_def_cfa %rbp, 16
	movq	%rbx, %rdi
	callq	is_short_term_reference.35
	addq	$8, %rsp
	popq	%rbx
	popq	%rbp
	.cfi_def_cfa %rsp, 8
	retq
.Lfunc_end25:
	.size	is_short_term_reference, .Lfunc_end25-is_short_term_reference
	.cfi_endproc
                                        # -- End function
	.globl	update_ltref_list       # -- Begin function update_ltref_list
	.p2align	4, 0x90
	.type	update_ltref_list,@function
update_ltref_list:                      # @update_ltref_list
	.cfi_startproc
# %bb.0:                                # %rand_bb
	pushq	%rbp
	.cfi_def_cfa_offset 16
	.cfi_offset %rbp, -16
	movq	%rsp, %rbp
	.cfi_def_cfa_register %rbp
	callq	get_urand
	cmpl	$0, %eax
	jne	.LBB26_2
# %bb.1:                                # %func_update_ltref_list.67
	callq	update_ltref_list.67
	popq	%rbp
	.cfi_def_cfa %rsp, 8
	retq
.LBB26_2:                               # %func_update_ltref_list.73
	.cfi_def_cfa %rbp, 16
	callq	update_ltref_list.73
	popq	%rbp
	.cfi_def_cfa %rsp, 8
	retq
.Lfunc_end26:
	.size	update_ltref_list, .Lfunc_end26-update_ltref_list
	.cfi_endproc
                                        # -- End function
	.p2align	4, 0x90         # -- Begin function is_long_term_reference
	.type	is_long_term_reference,@function
is_long_term_reference:                 # @is_long_term_reference
	.cfi_startproc
# %bb.0:                                # %rand_bb
	pushq	%rbp
	.cfi_def_cfa_offset 16
	.cfi_offset %rbp, -16
	movq	%rsp, %rbp
	.cfi_def_cfa_register %rbp
	pushq	%rbx
	pushq	%rax
	.cfi_offset %rbx, -24
	movq	%rdi, %rbx
	callq	get_urand
	cmpl	$0, %eax
	jne	.LBB27_2
# %bb.1:                                # %func_is_long_term_reference.120
	movq	%rbx, %rdi
	callq	is_long_term_reference.120
	addq	$8, %rsp
	popq	%rbx
	popq	%rbp
	.cfi_def_cfa %rsp, 8
	retq
.LBB27_2:                               # %func_is_long_term_reference.137
	.cfi_def_cfa %rbp, 16
	movq	%rbx, %rdi
	callq	is_long_term_reference.137
	addq	$8, %rsp
	popq	%rbx
	popq	%rbp
	.cfi_def_cfa %rsp, 8
	retq
.Lfunc_end27:
	.size	is_long_term_reference, .Lfunc_end27-is_long_term_reference
	.cfi_endproc
                                        # -- End function
	.globl	mm_update_max_long_term_frame_idx # -- Begin function mm_update_max_long_term_frame_idx
	.p2align	4, 0x90
	.type	mm_update_max_long_term_frame_idx,@function
mm_update_max_long_term_frame_idx:      # @mm_update_max_long_term_frame_idx
	.cfi_startproc
# %bb.0:                                # %rand_bb
	pushq	%rbp
	.cfi_def_cfa_offset 16
	.cfi_offset %rbp, -16
	movq	%rsp, %rbp
	.cfi_def_cfa_register %rbp
	pushq	%rbx
	pushq	%rax
	.cfi_offset %rbx, -24
	movl	%edi, %ebx
	callq	get_urand
	cmpl	$0, %eax
	jne	.LBB28_2
# %bb.1:                                # %func_mm_update_max_long_term_frame_idx.16
	movl	%ebx, %edi
	callq	mm_update_max_long_term_frame_idx.16
	addq	$8, %rsp
	popq	%rbx
	popq	%rbp
	.cfi_def_cfa %rsp, 8
	retq
.LBB28_2:                               # %func_mm_update_max_long_term_frame_idx.83
	.cfi_def_cfa %rbp, 16
	movl	%ebx, %edi
	callq	mm_update_max_long_term_frame_idx.83
	addq	$8, %rsp
	popq	%rbx
	popq	%rbp
	.cfi_def_cfa %rsp, 8
	retq
.Lfunc_end28:
	.size	mm_update_max_long_term_frame_idx, .Lfunc_end28-mm_update_max_long_term_frame_idx
	.cfi_endproc
                                        # -- End function
	.p2align	4, 0x90         # -- Begin function unmark_for_long_term_reference
	.type	unmark_for_long_term_reference,@function
unmark_for_long_term_reference:         # @unmark_for_long_term_reference
	.cfi_startproc
# %bb.0:                                # %entry
	pushq	%rbp
	.cfi_def_cfa_offset 16
	.cfi_offset %rbp, -16
	movq	%rsp, %rbp
	.cfi_def_cfa_register %rbp
	movq	%rdi, -8(%rbp)
	movq	active_sps, %rax
	cmpl	$0, 1148(%rax)
	jne	.LBB29_6
# %bb.1:                                # %if.then
	movq	-8(%rbp), %rax
	movl	(%rax), %eax
	andl	$1, %eax
	cmpl	$0, %eax
	je	.LBB29_3
# %bb.2:                                # %if.then2
	movq	-8(%rbp), %rax
	movq	48(%rax), %rax
	movl	$0, 6380(%rax)
	movq	-8(%rbp), %rax
	movq	48(%rax), %rax
	movl	$0, 6376(%rax)
.LBB29_3:                               # %if.end
	movq	-8(%rbp), %rax
	movl	(%rax), %eax
	andl	$2, %eax
	cmpl	$0, %eax
	je	.LBB29_5
# %bb.4:                                # %if.then7
	movq	-8(%rbp), %rax
	movq	56(%rax), %rax
	movl	$0, 6380(%rax)
	movq	-8(%rbp), %rax
	movq	56(%rax), %rax
	movl	$0, 6376(%rax)
.LBB29_5:                               # %if.end11
	jmp	.LBB29_6
.LBB29_6:                               # %if.end12
	movq	-8(%rbp), %rax
	cmpl	$3, (%rax)
	jne	.LBB29_10
# %bb.7:                                # %if.then14
	movq	active_sps, %rax
	cmpl	$0, 1148(%rax)
	jne	.LBB29_9
# %bb.8:                                # %if.then17
	movq	-8(%rbp), %rax
	movq	48(%rax), %rax
	movl	$0, 6380(%rax)
	movq	-8(%rbp), %rax
	movq	48(%rax), %rax
	movl	$0, 6376(%rax)
	movq	-8(%rbp), %rax
	movq	56(%rax), %rax
	movl	$0, 6380(%rax)
	movq	-8(%rbp), %rax
	movq	56(%rax), %rax
	movl	$0, 6376(%rax)
.LBB29_9:                               # %if.end26
	movq	-8(%rbp), %rax
	movq	40(%rax), %rax
	movl	$0, 6380(%rax)
	movq	-8(%rbp), %rax
	movq	40(%rax), %rax
	movl	$0, 6376(%rax)
.LBB29_10:                              # %if.end30
	movq	-8(%rbp), %rax
	movl	$0, 4(%rax)
	movq	-8(%rbp), %rax
	movl	$0, 8(%rax)
	popq	%rbp
	.cfi_def_cfa %rsp, 8
	retq
.Lfunc_end29:
	.size	unmark_for_long_term_reference, .Lfunc_end29-unmark_for_long_term_reference
	.cfi_endproc
                                        # -- End function
	.globl	store_picture_in_dpb    # -- Begin function store_picture_in_dpb
	.p2align	4, 0x90
	.type	store_picture_in_dpb,@function
store_picture_in_dpb:                   # @store_picture_in_dpb
	.cfi_startproc
# %bb.0:                                # %rand_bb
	pushq	%rbp
	.cfi_def_cfa_offset 16
	.cfi_offset %rbp, -16
	movq	%rsp, %rbp
	.cfi_def_cfa_register %rbp
	pushq	%rbx
	pushq	%rax
	.cfi_offset %rbx, -24
	movq	%rdi, %rbx
	callq	get_urand
	cmpl	$0, %eax
	jne	.LBB30_9
# %bb.1:                                # %func_store_picture_in_dpb.6
	movq	%rbx, %rdi
	callq	store_picture_in_dpb.6
	addq	$8, %rsp
	popq	%rbx
	popq	%rbp
	.cfi_def_cfa %rsp, 8
	retq
.LBB30_2:                               # %func_store_picture_in_dpb.33
	.cfi_def_cfa %rbp, 16
	movq	%rbx, %rdi
	callq	store_picture_in_dpb.33
	addq	$8, %rsp
	popq	%rbx
	popq	%rbp
	.cfi_def_cfa %rsp, 8
	retq
.LBB30_3:                               # %func_store_picture_in_dpb.103
	.cfi_def_cfa %rbp, 16
	movq	%rbx, %rdi
	callq	store_picture_in_dpb.103
	addq	$8, %rsp
	popq	%rbx
	popq	%rbp
	.cfi_def_cfa %rsp, 8
	retq
.LBB30_4:                               # %func_store_picture_in_dpb.116
	.cfi_def_cfa %rbp, 16
	movq	%rbx, %rdi
	callq	store_picture_in_dpb.116
	addq	$8, %rsp
	popq	%rbx
	popq	%rbp
	.cfi_def_cfa %rsp, 8
	retq
.LBB30_5:                               # %func_store_picture_in_dpb.168
	.cfi_def_cfa %rbp, 16
	movq	%rbx, %rdi
	callq	store_picture_in_dpb.168
	addq	$8, %rsp
	popq	%rbx
	popq	%rbp
	.cfi_def_cfa %rsp, 8
	retq
.LBB30_6:                               # %func_store_picture_in_dpb.187
	.cfi_def_cfa %rbp, 16
	movq	%rbx, %rdi
	callq	store_picture_in_dpb.187
	addq	$8, %rsp
	popq	%rbx
	popq	%rbp
	.cfi_def_cfa %rsp, 8
	retq
.LBB30_7:                               # %func_store_picture_in_dpb.200
	.cfi_def_cfa %rbp, 16
	movq	%rbx, %rdi
	callq	store_picture_in_dpb.200
	addq	$8, %rsp
	popq	%rbx
	popq	%rbp
	.cfi_def_cfa %rsp, 8
	retq
.LBB30_8:                               # %func_store_picture_in_dpb.202
	.cfi_def_cfa %rbp, 16
	movq	%rbx, %rdi
	callq	store_picture_in_dpb.202
	addq	$8, %rsp
	popq	%rbx
	popq	%rbp
	.cfi_def_cfa %rsp, 8
	retq
.LBB30_9:                               # %ctrl0
	.cfi_def_cfa %rbp, 16
	cmpl	$1, %eax
	je	.LBB30_2
# %bb.10:                               # %ctrl1
	cmpl	$2, %eax
	je	.LBB30_3
# %bb.11:                               # %ctrl2
	cmpl	$3, %eax
	je	.LBB30_4
# %bb.12:                               # %ctrl3
	cmpl	$4, %eax
	je	.LBB30_5
# %bb.13:                               # %ctrl4
	cmpl	$5, %eax
	je	.LBB30_6
# %bb.14:                               # %ctrl5
	cmpl	$6, %eax
	je	.LBB30_7
	jmp	.LBB30_8
.Lfunc_end30:
	.size	store_picture_in_dpb, .Lfunc_end30-store_picture_in_dpb
	.cfi_endproc
                                        # -- End function
	.p2align	4, 0x90         # -- Begin function idr_memory_management
	.type	idr_memory_management,@function
idr_memory_management:                  # @idr_memory_management
	.cfi_startproc
# %bb.0:                                # %rand_bb
	pushq	%rbp
	.cfi_def_cfa_offset 16
	.cfi_offset %rbp, -16
	movq	%rsp, %rbp
	.cfi_def_cfa_register %rbp
	pushq	%rbx
	pushq	%rax
	.cfi_offset %rbx, -24
	movq	%rdi, %rbx
	callq	get_urand
	cmpl	$0, %eax
	jne	.LBB31_2
# %bb.1:                                # %func_idr_memory_management.11
	movq	%rbx, %rdi
	callq	idr_memory_management.11
	addq	$8, %rsp
	popq	%rbx
	popq	%rbp
	.cfi_def_cfa %rsp, 8
	retq
.LBB31_2:                               # %func_idr_memory_management.66
	.cfi_def_cfa %rbp, 16
	movq	%rbx, %rdi
	callq	idr_memory_management.66
	addq	$8, %rsp
	popq	%rbx
	popq	%rbp
	.cfi_def_cfa %rsp, 8
	retq
.Lfunc_end31:
	.size	idr_memory_management, .Lfunc_end31-idr_memory_management
	.cfi_endproc
                                        # -- End function
	.p2align	4, 0x90         # -- Begin function adaptive_memory_management
	.type	adaptive_memory_management,@function
adaptive_memory_management:             # @adaptive_memory_management
	.cfi_startproc
# %bb.0:                                # %rand_bb
	pushq	%rbp
	.cfi_def_cfa_offset 16
	.cfi_offset %rbp, -16
	movq	%rsp, %rbp
	.cfi_def_cfa_register %rbp
	pushq	%rbx
	pushq	%rax
	.cfi_offset %rbx, -24
	movq	%rdi, %rbx
	callq	get_urand
	cmpl	$0, %eax
	jne	.LBB32_2
# %bb.1:                                # %func_adaptive_memory_management.39
	movq	%rbx, %rdi
	callq	adaptive_memory_management.39
	addq	$8, %rsp
	popq	%rbx
	popq	%rbp
	.cfi_def_cfa %rsp, 8
	retq
.LBB32_2:                               # %func_adaptive_memory_management.143
	.cfi_def_cfa %rbp, 16
	movq	%rbx, %rdi
	callq	adaptive_memory_management.143
	addq	$8, %rsp
	popq	%rbx
	popq	%rbp
	.cfi_def_cfa %rsp, 8
	retq
.Lfunc_end32:
	.size	adaptive_memory_management, .Lfunc_end32-adaptive_memory_management
	.cfi_endproc
                                        # -- End function
	.p2align	4, 0x90         # -- Begin function insert_picture_in_dpb
	.type	insert_picture_in_dpb,@function
insert_picture_in_dpb:                  # @insert_picture_in_dpb
	.cfi_startproc
# %bb.0:                                # %rand_bb
	pushq	%rbp
	.cfi_def_cfa_offset 16
	.cfi_offset %rbp, -16
	movq	%rsp, %rbp
	.cfi_def_cfa_register %rbp
	pushq	%r14
	pushq	%rbx
	.cfi_offset %rbx, -32
	.cfi_offset %r14, -24
	movq	%rsi, %r14
	movq	%rdi, %rbx
	callq	get_urand
	cmpl	$0, %eax
	jne	.LBB33_2
# %bb.1:                                # %func_insert_picture_in_dpb.3
	movq	%rbx, %rdi
	movq	%r14, %rsi
	callq	insert_picture_in_dpb.3
	popq	%rbx
	popq	%r14
	popq	%rbp
	.cfi_def_cfa %rsp, 8
	retq
.LBB33_2:                               # %func_insert_picture_in_dpb.53
	.cfi_def_cfa %rbp, 16
	movq	%rbx, %rdi
	movq	%r14, %rsi
	callq	insert_picture_in_dpb.53
	popq	%rbx
	popq	%r14
	popq	%rbp
	.cfi_def_cfa %rsp, 8
	retq
.Lfunc_end33:
	.size	insert_picture_in_dpb, .Lfunc_end33-insert_picture_in_dpb
	.cfi_endproc
                                        # -- End function
	.p2align	4, 0x90         # -- Begin function sliding_window_memory_management
	.type	sliding_window_memory_management,@function
sliding_window_memory_management:       # @sliding_window_memory_management
	.cfi_startproc
# %bb.0:                                # %rand_bb
	pushq	%rbp
	.cfi_def_cfa_offset 16
	.cfi_offset %rbp, -16
	movq	%rsp, %rbp
	.cfi_def_cfa_register %rbp
	pushq	%rbx
	pushq	%rax
	.cfi_offset %rbx, -24
	movq	%rdi, %rbx
	callq	get_urand
	cmpl	$0, %eax
	jne	.LBB34_2
# %bb.1:                                # %func_sliding_window_memory_management.123
	movq	%rbx, %rdi
	callq	sliding_window_memory_management.123
	addq	$8, %rsp
	popq	%rbx
	popq	%rbp
	.cfi_def_cfa %rsp, 8
	retq
.LBB34_2:                               # %func_sliding_window_memory_management.162
	.cfi_def_cfa %rbp, 16
	movq	%rbx, %rdi
	callq	sliding_window_memory_management.162
	addq	$8, %rsp
	popq	%rbx
	popq	%rbp
	.cfi_def_cfa %rsp, 8
	retq
.Lfunc_end34:
	.size	sliding_window_memory_management, .Lfunc_end34-sliding_window_memory_management
	.cfi_endproc
                                        # -- End function
	.p2align	4, 0x90         # -- Begin function get_smallest_poc
	.type	get_smallest_poc,@function
get_smallest_poc:                       # @get_smallest_poc
	.cfi_startproc
# %bb.0:                                # %rand_bb
	pushq	%rbp
	.cfi_def_cfa_offset 16
	.cfi_offset %rbp, -16
	movq	%rsp, %rbp
	.cfi_def_cfa_register %rbp
	pushq	%r14
	pushq	%rbx
	.cfi_offset %rbx, -32
	.cfi_offset %r14, -24
	movq	%rsi, %r14
	movq	%rdi, %rbx
	callq	get_urand
	cmpl	$0, %eax
	jne	.LBB35_7
# %bb.1:                                # %func_get_smallest_poc.17
	movq	%rbx, %rdi
	movq	%r14, %rsi
	callq	get_smallest_poc.17
	popq	%rbx
	popq	%r14
	popq	%rbp
	.cfi_def_cfa %rsp, 8
	retq
.LBB35_2:                               # %func_get_smallest_poc.82
	.cfi_def_cfa %rbp, 16
	movq	%rbx, %rdi
	movq	%r14, %rsi
	callq	get_smallest_poc.82
	popq	%rbx
	popq	%r14
	popq	%rbp
	.cfi_def_cfa %rsp, 8
	retq
.LBB35_3:                               # %func_get_smallest_poc.85
	.cfi_def_cfa %rbp, 16
	movq	%rbx, %rdi
	movq	%r14, %rsi
	callq	get_smallest_poc.85
	popq	%rbx
	popq	%r14
	popq	%rbp
	.cfi_def_cfa %rsp, 8
	retq
.LBB35_4:                               # %func_get_smallest_poc.87
	.cfi_def_cfa %rbp, 16
	movq	%rbx, %rdi
	movq	%r14, %rsi
	callq	get_smallest_poc.87
	popq	%rbx
	popq	%r14
	popq	%rbp
	.cfi_def_cfa %rsp, 8
	retq
.LBB35_5:                               # %func_get_smallest_poc.94
	.cfi_def_cfa %rbp, 16
	movq	%rbx, %rdi
	movq	%r14, %rsi
	callq	get_smallest_poc.94
	popq	%rbx
	popq	%r14
	popq	%rbp
	.cfi_def_cfa %rsp, 8
	retq
.LBB35_6:                               # %func_get_smallest_poc.96
	.cfi_def_cfa %rbp, 16
	movq	%rbx, %rdi
	movq	%r14, %rsi
	callq	get_smallest_poc.96
	popq	%rbx
	popq	%r14
	popq	%rbp
	.cfi_def_cfa %rsp, 8
	retq
.LBB35_7:                               # %ctrl0
	.cfi_def_cfa %rbp, 16
	cmpl	$1, %eax
	je	.LBB35_2
# %bb.8:                                # %ctrl1
	cmpl	$2, %eax
	je	.LBB35_3
# %bb.9:                                # %ctrl2
	cmpl	$3, %eax
	je	.LBB35_4
# %bb.10:                               # %ctrl3
	cmpl	$4, %eax
	je	.LBB35_5
	jmp	.LBB35_6
.Lfunc_end35:
	.size	get_smallest_poc, .Lfunc_end35-get_smallest_poc
	.cfi_endproc
                                        # -- End function
	.globl	replace_top_pic_with_frame # -- Begin function replace_top_pic_with_frame
	.p2align	4, 0x90
	.type	replace_top_pic_with_frame,@function
replace_top_pic_with_frame:             # @replace_top_pic_with_frame
	.cfi_startproc
# %bb.0:                                # %rand_bb
	pushq	%rbp
	.cfi_def_cfa_offset 16
	.cfi_offset %rbp, -16
	movq	%rsp, %rbp
	.cfi_def_cfa_register %rbp
	pushq	%rbx
	pushq	%rax
	.cfi_offset %rbx, -24
	movq	%rdi, %rbx
	callq	get_urand
	cmpl	$0, %eax
	jne	.LBB36_9
# %bb.1:                                # %func_replace_top_pic_with_frame.59
	movq	%rbx, %rdi
	callq	replace_top_pic_with_frame.59
	addq	$8, %rsp
	popq	%rbx
	popq	%rbp
	.cfi_def_cfa %rsp, 8
	retq
.LBB36_2:                               # %func_replace_top_pic_with_frame.80
	.cfi_def_cfa %rbp, 16
	movq	%rbx, %rdi
	callq	replace_top_pic_with_frame.80
	addq	$8, %rsp
	popq	%rbx
	popq	%rbp
	.cfi_def_cfa %rsp, 8
	retq
.LBB36_3:                               # %func_replace_top_pic_with_frame.88
	.cfi_def_cfa %rbp, 16
	movq	%rbx, %rdi
	callq	replace_top_pic_with_frame.88
	addq	$8, %rsp
	popq	%rbx
	popq	%rbp
	.cfi_def_cfa %rsp, 8
	retq
.LBB36_4:                               # %func_replace_top_pic_with_frame.101
	.cfi_def_cfa %rbp, 16
	movq	%rbx, %rdi
	callq	replace_top_pic_with_frame.101
	addq	$8, %rsp
	popq	%rbx
	popq	%rbp
	.cfi_def_cfa %rsp, 8
	retq
.LBB36_5:                               # %func_replace_top_pic_with_frame.176
	.cfi_def_cfa %rbp, 16
	movq	%rbx, %rdi
	callq	replace_top_pic_with_frame.176
	addq	$8, %rsp
	popq	%rbx
	popq	%rbp
	.cfi_def_cfa %rsp, 8
	retq
.LBB36_6:                               # %func_replace_top_pic_with_frame.179
	.cfi_def_cfa %rbp, 16
	movq	%rbx, %rdi
	callq	replace_top_pic_with_frame.179
	addq	$8, %rsp
	popq	%rbx
	popq	%rbp
	.cfi_def_cfa %rsp, 8
	retq
.LBB36_7:                               # %func_replace_top_pic_with_frame.180
	.cfi_def_cfa %rbp, 16
	movq	%rbx, %rdi
	callq	replace_top_pic_with_frame.180
	addq	$8, %rsp
	popq	%rbx
	popq	%rbp
	.cfi_def_cfa %rsp, 8
	retq
.LBB36_8:                               # %func_replace_top_pic_with_frame.194
	.cfi_def_cfa %rbp, 16
	movq	%rbx, %rdi
	callq	replace_top_pic_with_frame.194
	addq	$8, %rsp
	popq	%rbx
	popq	%rbp
	.cfi_def_cfa %rsp, 8
	retq
.LBB36_9:                               # %ctrl0
	.cfi_def_cfa %rbp, 16
	cmpl	$1, %eax
	je	.LBB36_2
# %bb.10:                               # %ctrl1
	cmpl	$2, %eax
	je	.LBB36_3
# %bb.11:                               # %ctrl2
	cmpl	$3, %eax
	je	.LBB36_4
# %bb.12:                               # %ctrl3
	cmpl	$4, %eax
	je	.LBB36_5
# %bb.13:                               # %ctrl4
	cmpl	$5, %eax
	je	.LBB36_6
# %bb.14:                               # %ctrl5
	cmpl	$6, %eax
	je	.LBB36_7
	jmp	.LBB36_8
.Lfunc_end36:
	.size	replace_top_pic_with_frame, .Lfunc_end36-replace_top_pic_with_frame
	.cfi_endproc
                                        # -- End function
	.globl	dpb_split_field         # -- Begin function dpb_split_field
	.p2align	4, 0x90
	.type	dpb_split_field,@function
dpb_split_field:                        # @dpb_split_field
	.cfi_startproc
# %bb.0:                                # %rand_bb
	pushq	%rbp
	.cfi_def_cfa_offset 16
	.cfi_offset %rbp, -16
	movq	%rsp, %rbp
	.cfi_def_cfa_register %rbp
	pushq	%rbx
	pushq	%rax
	.cfi_offset %rbx, -24
	movq	%rdi, %rbx
	callq	get_urand
	cmpl	$0, %eax
	jne	.LBB37_9
# %bb.1:                                # %func_dpb_split_field.9
	movq	%rbx, %rdi
	callq	dpb_split_field.9
	addq	$8, %rsp
	popq	%rbx
	popq	%rbp
	.cfi_def_cfa %rsp, 8
	retq
.LBB37_2:                               # %func_dpb_split_field.47
	.cfi_def_cfa %rbp, 16
	movq	%rbx, %rdi
	callq	dpb_split_field.47
	addq	$8, %rsp
	popq	%rbx
	popq	%rbp
	.cfi_def_cfa %rsp, 8
	retq
.LBB37_3:                               # %func_dpb_split_field.55
	.cfi_def_cfa %rbp, 16
	movq	%rbx, %rdi
	callq	dpb_split_field.55
	addq	$8, %rsp
	popq	%rbx
	popq	%rbp
	.cfi_def_cfa %rsp, 8
	retq
.LBB37_4:                               # %func_dpb_split_field.154
	.cfi_def_cfa %rbp, 16
	movq	%rbx, %rdi
	callq	dpb_split_field.154
	addq	$8, %rsp
	popq	%rbx
	popq	%rbp
	.cfi_def_cfa %rsp, 8
	retq
.LBB37_5:                               # %func_dpb_split_field.188
	.cfi_def_cfa %rbp, 16
	movq	%rbx, %rdi
	callq	dpb_split_field.188
	addq	$8, %rsp
	popq	%rbx
	popq	%rbp
	.cfi_def_cfa %rsp, 8
	retq
.LBB37_6:                               # %func_dpb_split_field.220
	.cfi_def_cfa %rbp, 16
	movq	%rbx, %rdi
	callq	dpb_split_field.220
	addq	$8, %rsp
	popq	%rbx
	popq	%rbp
	.cfi_def_cfa %rsp, 8
	retq
.LBB37_7:                               # %func_dpb_split_field.230
	.cfi_def_cfa %rbp, 16
	movq	%rbx, %rdi
	callq	dpb_split_field.230
	addq	$8, %rsp
	popq	%rbx
	popq	%rbp
	.cfi_def_cfa %rsp, 8
	retq
.LBB37_8:                               # %func_dpb_split_field.240
	.cfi_def_cfa %rbp, 16
	movq	%rbx, %rdi
	callq	dpb_split_field.240
	addq	$8, %rsp
	popq	%rbx
	popq	%rbp
	.cfi_def_cfa %rsp, 8
	retq
.LBB37_9:                               # %ctrl0
	.cfi_def_cfa %rbp, 16
	cmpl	$1, %eax
	je	.LBB37_2
# %bb.10:                               # %ctrl1
	cmpl	$2, %eax
	je	.LBB37_3
# %bb.11:                               # %ctrl2
	cmpl	$3, %eax
	je	.LBB37_4
# %bb.12:                               # %ctrl3
	cmpl	$4, %eax
	je	.LBB37_5
# %bb.13:                               # %ctrl4
	cmpl	$5, %eax
	je	.LBB37_6
# %bb.14:                               # %ctrl5
	cmpl	$6, %eax
	je	.LBB37_7
	jmp	.LBB37_8
.Lfunc_end37:
	.size	dpb_split_field, .Lfunc_end37-dpb_split_field
	.cfi_endproc
                                        # -- End function
	.globl	flush_dpb               # -- Begin function flush_dpb
	.p2align	4, 0x90
	.type	flush_dpb,@function
flush_dpb:                              # @flush_dpb
	.cfi_startproc
# %bb.0:                                # %entry
	pushq	%rbp
	.cfi_def_cfa_offset 16
	.cfi_offset %rbp, -16
	movq	%rsp, %rbp
	.cfi_def_cfa_register %rbp
	subq	$16, %rsp
	movl	$0, -4(%rbp)
.LBB38_1:                               # %for.cond
                                        # =>This Inner Loop Header: Depth=1
	movl	-4(%rbp), %eax
	cmpl	dpb+28, %eax
	jae	.LBB38_4
# %bb.2:                                # %for.body
                                        #   in Loop: Header=BB38_1 Depth=1
	movq	dpb, %rax
	movl	-4(%rbp), %ecx
	movq	(%rax,%rcx,8), %rdi
	callq	unmark_for_reference
# %bb.3:                                # %for.inc
                                        #   in Loop: Header=BB38_1 Depth=1
	movl	-4(%rbp), %eax
	addl	$1, %eax
	movl	%eax, -4(%rbp)
	jmp	.LBB38_1
.LBB38_4:                               # %for.end
	jmp	.LBB38_5
.LBB38_5:                               # %while.cond
                                        # =>This Inner Loop Header: Depth=1
	callq	remove_unused_frame_from_dpb
	cmpl	$0, %eax
	je	.LBB38_7
# %bb.6:                                # %while.body
                                        #   in Loop: Header=BB38_5 Depth=1
	jmp	.LBB38_5
.LBB38_7:                               # %while.end
	jmp	.LBB38_8
.LBB38_8:                               # %while.cond1
                                        # =>This Inner Loop Header: Depth=1
	cmpl	$0, dpb+28
	je	.LBB38_10
# %bb.9:                                # %while.body3
                                        #   in Loop: Header=BB38_8 Depth=1
	callq	output_one_frame_from_dpb
	jmp	.LBB38_8
.LBB38_10:                              # %while.end4
	movl	$-2147483648, dpb+40    # imm = 0x80000000
	addq	$16, %rsp
	popq	%rbp
	.cfi_def_cfa %rsp, 8
	retq
.Lfunc_end38:
	.size	flush_dpb, .Lfunc_end38-flush_dpb
	.cfi_endproc
                                        # -- End function
	.p2align	4, 0x90         # -- Begin function unmark_for_reference
	.type	unmark_for_reference,@function
unmark_for_reference:                   # @unmark_for_reference
	.cfi_startproc
# %bb.0:                                # %entry
	pushq	%rbp
	.cfi_def_cfa_offset 16
	.cfi_offset %rbp, -16
	movq	%rsp, %rbp
	.cfi_def_cfa_register %rbp
	subq	$16, %rsp
	movq	%rdi, -8(%rbp)
	movq	active_sps, %rax
	cmpl	$0, 1148(%rax)
	jne	.LBB39_6
# %bb.1:                                # %if.then
	movq	-8(%rbp), %rax
	movl	(%rax), %eax
	andl	$1, %eax
	cmpl	$0, %eax
	je	.LBB39_3
# %bb.2:                                # %if.then2
	movq	-8(%rbp), %rax
	movq	48(%rax), %rax
	movl	$0, 6380(%rax)
.LBB39_3:                               # %if.end
	movq	-8(%rbp), %rax
	movl	(%rax), %eax
	andl	$2, %eax
	cmpl	$0, %eax
	je	.LBB39_5
# %bb.4:                                # %if.then6
	movq	-8(%rbp), %rax
	movq	56(%rax), %rax
	movl	$0, 6380(%rax)
.LBB39_5:                               # %if.end8
	jmp	.LBB39_6
.LBB39_6:                               # %if.end9
	movq	-8(%rbp), %rax
	cmpl	$3, (%rax)
	jne	.LBB39_10
# %bb.7:                                # %if.then11
	movq	active_sps, %rax
	cmpl	$0, 1148(%rax)
	jne	.LBB39_9
# %bb.8:                                # %if.then14
	movq	-8(%rbp), %rax
	movq	48(%rax), %rax
	movl	$0, 6380(%rax)
	movq	-8(%rbp), %rax
	movq	56(%rax), %rax
	movl	$0, 6380(%rax)
.LBB39_9:                               # %if.end19
	movq	-8(%rbp), %rax
	movq	40(%rax), %rax
	movl	$0, 6380(%rax)
.LBB39_10:                              # %if.end21
	movq	-8(%rbp), %rax
	movl	$0, 4(%rax)
	movq	-8(%rbp), %rax
	movq	40(%rax), %rax
	cmpq	$0, 6456(%rax)
	je	.LBB39_12
# %bb.11:                               # %if.then24
	movq	-8(%rbp), %rax
	movq	40(%rax), %rax
	movq	6456(%rax), %rdi
	callq	free_mem2Dpel
	movq	-8(%rbp), %rax
	movq	40(%rax), %rax
	movq	$0, 6456(%rax)
.LBB39_12:                              # %if.end29
	movq	-8(%rbp), %rax
	movq	40(%rax), %rax
	cmpq	$0, 6448(%rax)
	je	.LBB39_14
# %bb.13:                               # %if.then32
	movq	-8(%rbp), %rax
	movq	40(%rax), %rax
	movq	6448(%rax), %rdi
	callq	free_mem2Dpel
	movq	-8(%rbp), %rax
	movq	40(%rax), %rax
	movq	$0, 6448(%rax)
.LBB39_14:                              # %if.end37
	movq	-8(%rbp), %rax
	movq	40(%rax), %rax
	cmpq	$0, 6440(%rax)
	je	.LBB39_16
# %bb.15:                               # %if.then40
	movq	-8(%rbp), %rax
	movq	40(%rax), %rax
	movq	6440(%rax), %rdi
	callq	free
	movq	-8(%rbp), %rax
	movq	40(%rax), %rax
	movq	$0, 6440(%rax)
.LBB39_16:                              # %if.end45
	addq	$16, %rsp
	popq	%rbp
	.cfi_def_cfa %rsp, 8
	retq
.Lfunc_end39:
	.size	unmark_for_reference, .Lfunc_end39-unmark_for_reference
	.cfi_endproc
                                        # -- End function
	.globl	gen_field_ref_ids       # -- Begin function gen_field_ref_ids
	.p2align	4, 0x90
	.type	gen_field_ref_ids,@function
gen_field_ref_ids:                      # @gen_field_ref_ids
	.cfi_startproc
# %bb.0:                                # %rand_bb
	pushq	%rbp
	.cfi_def_cfa_offset 16
	.cfi_offset %rbp, -16
	movq	%rsp, %rbp
	.cfi_def_cfa_register %rbp
	pushq	%rbx
	pushq	%rax
	.cfi_offset %rbx, -24
	movq	%rdi, %rbx
	callq	get_urand
	cmpl	$0, %eax
	jne	.LBB40_9
# %bb.1:                                # %func_gen_field_ref_ids.56
	movq	%rbx, %rdi
	callq	gen_field_ref_ids.56
	addq	$8, %rsp
	popq	%rbx
	popq	%rbp
	.cfi_def_cfa %rsp, 8
	retq
.LBB40_2:                               # %func_gen_field_ref_ids.77
	.cfi_def_cfa %rbp, 16
	movq	%rbx, %rdi
	callq	gen_field_ref_ids.77
	addq	$8, %rsp
	popq	%rbx
	popq	%rbp
	.cfi_def_cfa %rsp, 8
	retq
.LBB40_3:                               # %func_gen_field_ref_ids.95
	.cfi_def_cfa %rbp, 16
	movq	%rbx, %rdi
	callq	gen_field_ref_ids.95
	addq	$8, %rsp
	popq	%rbx
	popq	%rbp
	.cfi_def_cfa %rsp, 8
	retq
.LBB40_4:                               # %func_gen_field_ref_ids.104
	.cfi_def_cfa %rbp, 16
	movq	%rbx, %rdi
	callq	gen_field_ref_ids.104
	addq	$8, %rsp
	popq	%rbx
	popq	%rbp
	.cfi_def_cfa %rsp, 8
	retq
.LBB40_5:                               # %func_gen_field_ref_ids.115
	.cfi_def_cfa %rbp, 16
	movq	%rbx, %rdi
	callq	gen_field_ref_ids.115
	addq	$8, %rsp
	popq	%rbx
	popq	%rbp
	.cfi_def_cfa %rsp, 8
	retq
.LBB40_6:                               # %func_gen_field_ref_ids.155
	.cfi_def_cfa %rbp, 16
	movq	%rbx, %rdi
	callq	gen_field_ref_ids.155
	addq	$8, %rsp
	popq	%rbx
	popq	%rbp
	.cfi_def_cfa %rsp, 8
	retq
.LBB40_7:                               # %func_gen_field_ref_ids.160
	.cfi_def_cfa %rbp, 16
	movq	%rbx, %rdi
	callq	gen_field_ref_ids.160
	addq	$8, %rsp
	popq	%rbx
	popq	%rbp
	.cfi_def_cfa %rsp, 8
	retq
.LBB40_8:                               # %func_gen_field_ref_ids.221
	.cfi_def_cfa %rbp, 16
	movq	%rbx, %rdi
	callq	gen_field_ref_ids.221
	addq	$8, %rsp
	popq	%rbx
	popq	%rbp
	.cfi_def_cfa %rsp, 8
	retq
.LBB40_9:                               # %ctrl0
	.cfi_def_cfa %rbp, 16
	cmpl	$1, %eax
	je	.LBB40_2
# %bb.10:                               # %ctrl1
	cmpl	$2, %eax
	je	.LBB40_3
# %bb.11:                               # %ctrl2
	cmpl	$3, %eax
	je	.LBB40_4
# %bb.12:                               # %ctrl3
	cmpl	$4, %eax
	je	.LBB40_5
# %bb.13:                               # %ctrl4
	cmpl	$5, %eax
	je	.LBB40_6
# %bb.14:                               # %ctrl5
	cmpl	$6, %eax
	je	.LBB40_7
	jmp	.LBB40_8
.Lfunc_end40:
	.size	gen_field_ref_ids, .Lfunc_end40-gen_field_ref_ids
	.cfi_endproc
                                        # -- End function
	.globl	dpb_combine_field       # -- Begin function dpb_combine_field
	.p2align	4, 0x90
	.type	dpb_combine_field,@function
dpb_combine_field:                      # @dpb_combine_field
	.cfi_startproc
# %bb.0:                                # %rand_bb
	pushq	%rbp
	.cfi_def_cfa_offset 16
	.cfi_offset %rbp, -16
	movq	%rsp, %rbp
	.cfi_def_cfa_register %rbp
	pushq	%rbx
	pushq	%rax
	.cfi_offset %rbx, -24
	movq	%rdi, %rbx
	callq	get_urand
	cmpl	$0, %eax
	jne	.LBB41_9
# %bb.1:                                # %func_dpb_combine_field.13
	movq	%rbx, %rdi
	callq	dpb_combine_field.13
	addq	$8, %rsp
	popq	%rbx
	popq	%rbp
	.cfi_def_cfa %rsp, 8
	retq
.LBB41_2:                               # %func_dpb_combine_field.58
	.cfi_def_cfa %rbp, 16
	movq	%rbx, %rdi
	callq	dpb_combine_field.58
	addq	$8, %rsp
	popq	%rbx
	popq	%rbp
	.cfi_def_cfa %rsp, 8
	retq
.LBB41_3:                               # %func_dpb_combine_field.119
	.cfi_def_cfa %rbp, 16
	movq	%rbx, %rdi
	callq	dpb_combine_field.119
	addq	$8, %rsp
	popq	%rbx
	popq	%rbp
	.cfi_def_cfa %rsp, 8
	retq
.LBB41_4:                               # %func_dpb_combine_field.178
	.cfi_def_cfa %rbp, 16
	movq	%rbx, %rdi
	callq	dpb_combine_field.178
	addq	$8, %rsp
	popq	%rbx
	popq	%rbp
	.cfi_def_cfa %rsp, 8
	retq
.LBB41_5:                               # %func_dpb_combine_field.185
	.cfi_def_cfa %rbp, 16
	movq	%rbx, %rdi
	callq	dpb_combine_field.185
	addq	$8, %rsp
	popq	%rbx
	popq	%rbp
	.cfi_def_cfa %rsp, 8
	retq
.LBB41_6:                               # %func_dpb_combine_field.189
	.cfi_def_cfa %rbp, 16
	movq	%rbx, %rdi
	callq	dpb_combine_field.189
	addq	$8, %rsp
	popq	%rbx
	popq	%rbp
	.cfi_def_cfa %rsp, 8
	retq
.LBB41_7:                               # %func_dpb_combine_field.218
	.cfi_def_cfa %rbp, 16
	movq	%rbx, %rdi
	callq	dpb_combine_field.218
	addq	$8, %rsp
	popq	%rbx
	popq	%rbp
	.cfi_def_cfa %rsp, 8
	retq
.LBB41_8:                               # %func_dpb_combine_field.224
	.cfi_def_cfa %rbp, 16
	movq	%rbx, %rdi
	callq	dpb_combine_field.224
	addq	$8, %rsp
	popq	%rbx
	popq	%rbp
	.cfi_def_cfa %rsp, 8
	retq
.LBB41_9:                               # %ctrl0
	.cfi_def_cfa %rbp, 16
	cmpl	$1, %eax
	je	.LBB41_2
# %bb.10:                               # %ctrl1
	cmpl	$2, %eax
	je	.LBB41_3
# %bb.11:                               # %ctrl2
	cmpl	$3, %eax
	je	.LBB41_4
# %bb.12:                               # %ctrl3
	cmpl	$4, %eax
	je	.LBB41_5
# %bb.13:                               # %ctrl4
	cmpl	$5, %eax
	je	.LBB41_6
# %bb.14:                               # %ctrl5
	cmpl	$6, %eax
	je	.LBB41_7
	jmp	.LBB41_8
.Lfunc_end41:
	.size	dpb_combine_field, .Lfunc_end41-dpb_combine_field
	.cfi_endproc
                                        # -- End function
	.globl	alloc_ref_pic_list_reordering_buffer # -- Begin function alloc_ref_pic_list_reordering_buffer
	.p2align	4, 0x90
	.type	alloc_ref_pic_list_reordering_buffer,@function
alloc_ref_pic_list_reordering_buffer:   # @alloc_ref_pic_list_reordering_buffer
	.cfi_startproc
# %bb.0:                                # %rand_bb
	pushq	%rbp
	.cfi_def_cfa_offset 16
	.cfi_offset %rbp, -16
	movq	%rsp, %rbp
	.cfi_def_cfa_register %rbp
	pushq	%rbx
	pushq	%rax
	.cfi_offset %rbx, -24
	movq	%rdi, %rbx
	callq	get_urand
	cmpl	$0, %eax
	jne	.LBB42_2
# %bb.1:                                # %func_alloc_ref_pic_list_reordering_buffer.164
	movq	%rbx, %rdi
	callq	alloc_ref_pic_list_reordering_buffer.164
	addq	$8, %rsp
	popq	%rbx
	popq	%rbp
	.cfi_def_cfa %rsp, 8
	retq
.LBB42_2:                               # %func_alloc_ref_pic_list_reordering_buffer.167
	.cfi_def_cfa %rbp, 16
	movq	%rbx, %rdi
	callq	alloc_ref_pic_list_reordering_buffer.167
	addq	$8, %rsp
	popq	%rbx
	popq	%rbp
	.cfi_def_cfa %rsp, 8
	retq
.Lfunc_end42:
	.size	alloc_ref_pic_list_reordering_buffer, .Lfunc_end42-alloc_ref_pic_list_reordering_buffer
	.cfi_endproc
                                        # -- End function
	.globl	free_ref_pic_list_reordering_buffer # -- Begin function free_ref_pic_list_reordering_buffer
	.p2align	4, 0x90
	.type	free_ref_pic_list_reordering_buffer,@function
free_ref_pic_list_reordering_buffer:    # @free_ref_pic_list_reordering_buffer
	.cfi_startproc
# %bb.0:                                # %entry
	pushq	%rbp
	.cfi_def_cfa_offset 16
	.cfi_offset %rbp, -16
	movq	%rsp, %rbp
	.cfi_def_cfa_register %rbp
	subq	$16, %rsp
	movq	%rdi, -8(%rbp)
	movq	-8(%rbp), %rax
	cmpq	$0, 64(%rax)
	je	.LBB43_2
# %bb.1:                                # %if.then
	movq	-8(%rbp), %rax
	movq	64(%rax), %rdi
	callq	free
.LBB43_2:                               # %if.end
	movq	-8(%rbp), %rax
	cmpq	$0, 72(%rax)
	je	.LBB43_4
# %bb.3:                                # %if.then3
	movq	-8(%rbp), %rax
	movq	72(%rax), %rdi
	callq	free
.LBB43_4:                               # %if.end5
	movq	-8(%rbp), %rax
	cmpq	$0, 80(%rax)
	je	.LBB43_6
# %bb.5:                                # %if.then7
	movq	-8(%rbp), %rax
	movq	80(%rax), %rdi
	callq	free
.LBB43_6:                               # %if.end9
	movq	-8(%rbp), %rax
	movq	$0, 64(%rax)
	movq	-8(%rbp), %rax
	movq	$0, 72(%rax)
	movq	-8(%rbp), %rax
	movq	$0, 80(%rax)
	movq	-8(%rbp), %rax
	cmpq	$0, 96(%rax)
	je	.LBB43_8
# %bb.7:                                # %if.then14
	movq	-8(%rbp), %rax
	movq	96(%rax), %rdi
	callq	free
.LBB43_8:                               # %if.end16
	movq	-8(%rbp), %rax
	cmpq	$0, 104(%rax)
	je	.LBB43_10
# %bb.9:                                # %if.then18
	movq	-8(%rbp), %rax
	movq	104(%rax), %rdi
	callq	free
.LBB43_10:                              # %if.end20
	movq	-8(%rbp), %rax
	cmpq	$0, 112(%rax)
	je	.LBB43_12
# %bb.11:                               # %if.then22
	movq	-8(%rbp), %rax
	movq	112(%rax), %rdi
	callq	free
.LBB43_12:                              # %if.end24
	movq	-8(%rbp), %rax
	movq	$0, 96(%rax)
	movq	-8(%rbp), %rax
	movq	$0, 104(%rax)
	movq	-8(%rbp), %rax
	movq	$0, 112(%rax)
	addq	$16, %rsp
	popq	%rbp
	.cfi_def_cfa %rsp, 8
	retq
.Lfunc_end43:
	.size	free_ref_pic_list_reordering_buffer, .Lfunc_end43-free_ref_pic_list_reordering_buffer
	.cfi_endproc
                                        # -- End function
	.globl	fill_frame_num_gap      # -- Begin function fill_frame_num_gap
	.p2align	4, 0x90
	.type	fill_frame_num_gap,@function
fill_frame_num_gap:                     # @fill_frame_num_gap
	.cfi_startproc
# %bb.0:                                # %rand_bb
	pushq	%rbp
	.cfi_def_cfa_offset 16
	.cfi_offset %rbp, -16
	movq	%rsp, %rbp
	.cfi_def_cfa_register %rbp
	pushq	%rbx
	pushq	%rax
	.cfi_offset %rbx, -24
	movq	%rdi, %rbx
	callq	get_urand
	cmpl	$0, %eax
	jne	.LBB44_9
# %bb.1:                                # %func_fill_frame_num_gap.49
	movq	%rbx, %rdi
	callq	fill_frame_num_gap.49
	addq	$8, %rsp
	popq	%rbx
	popq	%rbp
	.cfi_def_cfa %rsp, 8
	retq
.LBB44_2:                               # %func_fill_frame_num_gap.50
	.cfi_def_cfa %rbp, 16
	movq	%rbx, %rdi
	callq	fill_frame_num_gap.50
	addq	$8, %rsp
	popq	%rbx
	popq	%rbp
	.cfi_def_cfa %rsp, 8
	retq
.LBB44_3:                               # %func_fill_frame_num_gap.102
	.cfi_def_cfa %rbp, 16
	movq	%rbx, %rdi
	callq	fill_frame_num_gap.102
	addq	$8, %rsp
	popq	%rbx
	popq	%rbp
	.cfi_def_cfa %rsp, 8
	retq
.LBB44_4:                               # %func_fill_frame_num_gap.118
	.cfi_def_cfa %rbp, 16
	movq	%rbx, %rdi
	callq	fill_frame_num_gap.118
	addq	$8, %rsp
	popq	%rbx
	popq	%rbp
	.cfi_def_cfa %rsp, 8
	retq
.LBB44_5:                               # %func_fill_frame_num_gap.171
	.cfi_def_cfa %rbp, 16
	movq	%rbx, %rdi
	callq	fill_frame_num_gap.171
	addq	$8, %rsp
	popq	%rbx
	popq	%rbp
	.cfi_def_cfa %rsp, 8
	retq
.LBB44_6:                               # %func_fill_frame_num_gap.196
	.cfi_def_cfa %rbp, 16
	movq	%rbx, %rdi
	callq	fill_frame_num_gap.196
	addq	$8, %rsp
	popq	%rbx
	popq	%rbp
	.cfi_def_cfa %rsp, 8
	retq
.LBB44_7:                               # %func_fill_frame_num_gap.252
	.cfi_def_cfa %rbp, 16
	movq	%rbx, %rdi
	callq	fill_frame_num_gap.252
	addq	$8, %rsp
	popq	%rbx
	popq	%rbp
	.cfi_def_cfa %rsp, 8
	retq
.LBB44_8:                               # %func_fill_frame_num_gap.261
	.cfi_def_cfa %rbp, 16
	movq	%rbx, %rdi
	callq	fill_frame_num_gap.261
	addq	$8, %rsp
	popq	%rbx
	popq	%rbp
	.cfi_def_cfa %rsp, 8
	retq
.LBB44_9:                               # %ctrl0
	.cfi_def_cfa %rbp, 16
	cmpl	$1, %eax
	je	.LBB44_2
# %bb.10:                               # %ctrl1
	cmpl	$2, %eax
	je	.LBB44_3
# %bb.11:                               # %ctrl2
	cmpl	$3, %eax
	je	.LBB44_4
# %bb.12:                               # %ctrl3
	cmpl	$4, %eax
	je	.LBB44_5
# %bb.13:                               # %ctrl4
	cmpl	$5, %eax
	je	.LBB44_6
# %bb.14:                               # %ctrl5
	cmpl	$6, %eax
	je	.LBB44_7
	jmp	.LBB44_8
.Lfunc_end44:
	.size	fill_frame_num_gap, .Lfunc_end44-fill_frame_num_gap
	.cfi_endproc
                                        # -- End function
	.globl	alloc_colocated         # -- Begin function alloc_colocated
	.p2align	4, 0x90
	.type	alloc_colocated,@function
alloc_colocated:                        # @alloc_colocated
	.cfi_startproc
# %bb.0:                                # %rand_bb
	pushq	%rbp
	.cfi_def_cfa_offset 16
	.cfi_offset %rbp, -16
	movq	%rsp, %rbp
	.cfi_def_cfa_register %rbp
	pushq	%r15
	pushq	%r14
	pushq	%rbx
	pushq	%rax
	.cfi_offset %rbx, -40
	.cfi_offset %r14, -32
	.cfi_offset %r15, -24
	movl	%edx, %r14d
	movl	%esi, %r15d
	movl	%edi, %ebx
	callq	get_urand
	cmpl	$0, %eax
	jne	.LBB45_9
# %bb.1:                                # %func_alloc_colocated.22
	movl	%ebx, %edi
	movl	%r15d, %esi
	movl	%r14d, %edx
	callq	alloc_colocated.22
	addq	$8, %rsp
	popq	%rbx
	popq	%r14
	popq	%r15
	popq	%rbp
	.cfi_def_cfa %rsp, 8
	retq
.LBB45_2:                               # %func_alloc_colocated.93
	.cfi_def_cfa %rbp, 16
	movl	%ebx, %edi
	movl	%r15d, %esi
	movl	%r14d, %edx
	callq	alloc_colocated.93
	addq	$8, %rsp
	popq	%rbx
	popq	%r14
	popq	%r15
	popq	%rbp
	.cfi_def_cfa %rsp, 8
	retq
.LBB45_3:                               # %func_alloc_colocated.107
	.cfi_def_cfa %rbp, 16
	movl	%ebx, %edi
	movl	%r15d, %esi
	movl	%r14d, %edx
	callq	alloc_colocated.107
	addq	$8, %rsp
	popq	%rbx
	popq	%r14
	popq	%r15
	popq	%rbp
	.cfi_def_cfa %rsp, 8
	retq
.LBB45_4:                               # %func_alloc_colocated.219
	.cfi_def_cfa %rbp, 16
	movl	%ebx, %edi
	movl	%r15d, %esi
	movl	%r14d, %edx
	callq	alloc_colocated.219
	addq	$8, %rsp
	popq	%rbx
	popq	%r14
	popq	%r15
	popq	%rbp
	.cfi_def_cfa %rsp, 8
	retq
.LBB45_5:                               # %func_alloc_colocated.237
	.cfi_def_cfa %rbp, 16
	movl	%ebx, %edi
	movl	%r15d, %esi
	movl	%r14d, %edx
	callq	alloc_colocated.237
	addq	$8, %rsp
	popq	%rbx
	popq	%r14
	popq	%r15
	popq	%rbp
	.cfi_def_cfa %rsp, 8
	retq
.LBB45_6:                               # %func_alloc_colocated.242
	.cfi_def_cfa %rbp, 16
	movl	%ebx, %edi
	movl	%r15d, %esi
	movl	%r14d, %edx
	callq	alloc_colocated.242
	addq	$8, %rsp
	popq	%rbx
	popq	%r14
	popq	%r15
	popq	%rbp
	.cfi_def_cfa %rsp, 8
	retq
.LBB45_7:                               # %func_alloc_colocated.244
	.cfi_def_cfa %rbp, 16
	movl	%ebx, %edi
	movl	%r15d, %esi
	movl	%r14d, %edx
	callq	alloc_colocated.244
	addq	$8, %rsp
	popq	%rbx
	popq	%r14
	popq	%r15
	popq	%rbp
	.cfi_def_cfa %rsp, 8
	retq
.LBB45_8:                               # %func_alloc_colocated.249
	.cfi_def_cfa %rbp, 16
	movl	%ebx, %edi
	movl	%r15d, %esi
	movl	%r14d, %edx
	callq	alloc_colocated.249
	addq	$8, %rsp
	popq	%rbx
	popq	%r14
	popq	%r15
	popq	%rbp
	.cfi_def_cfa %rsp, 8
	retq
.LBB45_9:                               # %ctrl0
	.cfi_def_cfa %rbp, 16
	cmpl	$1, %eax
	je	.LBB45_2
# %bb.10:                               # %ctrl1
	cmpl	$2, %eax
	je	.LBB45_3
# %bb.11:                               # %ctrl2
	cmpl	$3, %eax
	je	.LBB45_4
# %bb.12:                               # %ctrl3
	cmpl	$4, %eax
	je	.LBB45_5
# %bb.13:                               # %ctrl4
	cmpl	$5, %eax
	je	.LBB45_6
# %bb.14:                               # %ctrl5
	cmpl	$6, %eax
	je	.LBB45_7
	jmp	.LBB45_8
.Lfunc_end45:
	.size	alloc_colocated, .Lfunc_end45-alloc_colocated
	.cfi_endproc
                                        # -- End function
	.globl	free_colocated          # -- Begin function free_colocated
	.p2align	4, 0x90
	.type	free_colocated,@function
free_colocated:                         # @free_colocated
	.cfi_startproc
# %bb.0:                                # %entry
	pushq	%rbp
	.cfi_def_cfa_offset 16
	.cfi_offset %rbp, -16
	movq	%rsp, %rbp
	.cfi_def_cfa_register %rbp
	subq	$16, %rsp
	movq	%rdi, -8(%rbp)
	cmpq	$0, -8(%rbp)
	je	.LBB46_12
# %bb.1:                                # %if.then
	movq	-8(%rbp), %rax
	movq	1600(%rax), %rdi
	movl	$2, %esi
	callq	free_mem3Dshort
	movq	-8(%rbp), %rax
	movq	1608(%rax), %rdi
	movl	$2, %esi
	callq	free_mem3Dint64
	movq	-8(%rbp), %rax
	movq	1616(%rax), %rdi
	movq	-8(%rbp), %rax
	movl	4(%rax), %eax
	cltd
	movl	$4, %ecx
	idivl	%ecx
	movl	$2, %esi
	movl	%eax, %edx
	callq	free_mem4Dshort
	movq	-8(%rbp), %rax
	cmpq	$0, 1624(%rax)
	je	.LBB46_3
# %bb.2:                                # %if.then2
	movq	-8(%rbp), %rax
	movq	1624(%rax), %rdi
	callq	free_mem2D
	movq	-8(%rbp), %rax
	movq	$0, 1624(%rax)
.LBB46_3:                               # %if.end
	movq	-8(%rbp), %rax
	cmpq	$0, 4872(%rax)
	je	.LBB46_5
# %bb.4:                                # %if.then6
	movq	-8(%rbp), %rax
	movq	4872(%rax), %rdi
	callq	free_mem2D
	movq	-8(%rbp), %rax
	movq	$0, 4872(%rax)
.LBB46_5:                               # %if.end9
	movq	-8(%rbp), %rax
	cmpl	$0, (%rax)
	je	.LBB46_11
# %bb.6:                                # %if.then11
	movq	-8(%rbp), %rax
	movq	3216(%rax), %rdi
	movl	$2, %esi
	callq	free_mem3Dshort
	movq	-8(%rbp), %rax
	movq	3224(%rax), %rdi
	movl	$2, %esi
	callq	free_mem3Dint64
	movq	-8(%rbp), %rax
	movq	3232(%rax), %rdi
	movq	-8(%rbp), %rax
	movl	4(%rax), %eax
	cltd
	movl	$4, %ecx
	idivl	%ecx
	movl	$2, %esi
	movl	%eax, %edx
	callq	free_mem4Dshort
	movq	-8(%rbp), %rax
	cmpq	$0, 3240(%rax)
	je	.LBB46_8
# %bb.7:                                # %if.then15
	movq	-8(%rbp), %rax
	movq	3240(%rax), %rdi
	callq	free_mem2D
	movq	-8(%rbp), %rax
	movq	$0, 3240(%rax)
.LBB46_8:                               # %if.end18
	movq	-8(%rbp), %rax
	movq	4832(%rax), %rdi
	movl	$2, %esi
	callq	free_mem3Dshort
	movq	-8(%rbp), %rax
	movq	4840(%rax), %rdi
	movl	$2, %esi
	callq	free_mem3Dint64
	movq	-8(%rbp), %rax
	movq	4848(%rax), %rdi
	movq	-8(%rbp), %rax
	movl	4(%rax), %eax
	cltd
	movl	$4, %ecx
	idivl	%ecx
	movl	$2, %esi
	movl	%eax, %edx
	callq	free_mem4Dshort
	movq	-8(%rbp), %rax
	cmpq	$0, 4856(%rax)
	je	.LBB46_10
# %bb.9:                                # %if.then22
	movq	-8(%rbp), %rax
	movq	4856(%rax), %rdi
	callq	free_mem2D
	movq	-8(%rbp), %rax
	movq	$0, 4856(%rax)
.LBB46_10:                              # %if.end25
	jmp	.LBB46_11
.LBB46_11:                              # %if.end26
	movq	-8(%rbp), %rdi
	callq	free
	movq	$0, -8(%rbp)
.LBB46_12:                              # %if.end27
	addq	$16, %rsp
	popq	%rbp
	.cfi_def_cfa %rsp, 8
	retq
.Lfunc_end46:
	.size	free_colocated, .Lfunc_end46-free_colocated
	.cfi_endproc
                                        # -- End function
	.globl	compute_colocated       # -- Begin function compute_colocated
	.p2align	4, 0x90
	.type	compute_colocated,@function
compute_colocated:                      # @compute_colocated
	.cfi_startproc
# %bb.0:                                # %rand_bb
	pushq	%rbp
	.cfi_def_cfa_offset 16
	.cfi_offset %rbp, -16
	movq	%rsp, %rbp
	.cfi_def_cfa_register %rbp
	pushq	%r14
	pushq	%rbx
	.cfi_offset %rbx, -32
	.cfi_offset %r14, -24
	movq	%rsi, %r14
	movq	%rdi, %rbx
	callq	get_urand
	cmpl	$0, %eax
	jne	.LBB47_9
# %bb.1:                                # %func_compute_colocated.78
	movq	%rbx, %rdi
	movq	%r14, %rsi
	callq	compute_colocated.78
	popq	%rbx
	popq	%r14
	popq	%rbp
	.cfi_def_cfa %rsp, 8
	retq
.LBB47_2:                               # %func_compute_colocated.122
	.cfi_def_cfa %rbp, 16
	movq	%rbx, %rdi
	movq	%r14, %rsi
	callq	compute_colocated.122
	popq	%rbx
	popq	%r14
	popq	%rbp
	.cfi_def_cfa %rsp, 8
	retq
.LBB47_3:                               # %func_compute_colocated.141
	.cfi_def_cfa %rbp, 16
	movq	%rbx, %rdi
	movq	%r14, %rsi
	callq	compute_colocated.141
	popq	%rbx
	popq	%r14
	popq	%rbp
	.cfi_def_cfa %rsp, 8
	retq
.LBB47_4:                               # %func_compute_colocated.142
	.cfi_def_cfa %rbp, 16
	movq	%rbx, %rdi
	movq	%r14, %rsi
	callq	compute_colocated.142
	popq	%rbx
	popq	%r14
	popq	%rbp
	.cfi_def_cfa %rsp, 8
	retq
.LBB47_5:                               # %func_compute_colocated.170
	.cfi_def_cfa %rbp, 16
	movq	%rbx, %rdi
	movq	%r14, %rsi
	callq	compute_colocated.170
	popq	%rbx
	popq	%r14
	popq	%rbp
	.cfi_def_cfa %rsp, 8
	retq
.LBB47_6:                               # %func_compute_colocated.193
	.cfi_def_cfa %rbp, 16
	movq	%rbx, %rdi
	movq	%r14, %rsi
	callq	compute_colocated.193
	popq	%rbx
	popq	%r14
	popq	%rbp
	.cfi_def_cfa %rsp, 8
	retq
.LBB47_7:                               # %func_compute_colocated.213
	.cfi_def_cfa %rbp, 16
	movq	%rbx, %rdi
	movq	%r14, %rsi
	callq	compute_colocated.213
	popq	%rbx
	popq	%r14
	popq	%rbp
	.cfi_def_cfa %rsp, 8
	retq
.LBB47_8:                               # %func_compute_colocated.241
	.cfi_def_cfa %rbp, 16
	movq	%rbx, %rdi
	movq	%r14, %rsi
	callq	compute_colocated.241
	popq	%rbx
	popq	%r14
	popq	%rbp
	.cfi_def_cfa %rsp, 8
	retq
.LBB47_9:                               # %ctrl0
	.cfi_def_cfa %rbp, 16
	cmpl	$1, %eax
	je	.LBB47_2
# %bb.10:                               # %ctrl1
	cmpl	$2, %eax
	je	.LBB47_3
# %bb.11:                               # %ctrl2
	cmpl	$3, %eax
	je	.LBB47_4
# %bb.12:                               # %ctrl3
	cmpl	$4, %eax
	je	.LBB47_5
# %bb.13:                               # %ctrl4
	cmpl	$5, %eax
	je	.LBB47_6
# %bb.14:                               # %ctrl5
	cmpl	$6, %eax
	je	.LBB47_7
	jmp	.LBB47_8
.Lfunc_end47:
	.size	compute_colocated, .Lfunc_end47-compute_colocated
	.cfi_endproc
                                        # -- End function
	.p2align	4, 0x90         # -- Begin function get_short_term_pic
	.type	get_short_term_pic,@function
get_short_term_pic:                     # @get_short_term_pic
	.cfi_startproc
# %bb.0:                                # %rand_bb
	pushq	%rbp
	.cfi_def_cfa_offset 16
	.cfi_offset %rbp, -16
	movq	%rsp, %rbp
	.cfi_def_cfa_register %rbp
	pushq	%rbx
	pushq	%rax
	.cfi_offset %rbx, -24
	movl	%edi, %ebx
	callq	get_urand
	cmpl	$0, %eax
	jne	.LBB48_7
# %bb.1:                                # %func_get_short_term_pic.41
	movl	%ebx, %edi
	callq	get_short_term_pic.41
	addq	$8, %rsp
	popq	%rbx
	popq	%rbp
	.cfi_def_cfa %rsp, 8
	retq
.LBB48_2:                               # %func_get_short_term_pic.108
	.cfi_def_cfa %rbp, 16
	movl	%ebx, %edi
	callq	get_short_term_pic.108
	addq	$8, %rsp
	popq	%rbx
	popq	%rbp
	.cfi_def_cfa %rsp, 8
	retq
.LBB48_3:                               # %func_get_short_term_pic.121
	.cfi_def_cfa %rbp, 16
	movl	%ebx, %edi
	callq	get_short_term_pic.121
	addq	$8, %rsp
	popq	%rbx
	popq	%rbp
	.cfi_def_cfa %rsp, 8
	retq
.LBB48_4:                               # %func_get_short_term_pic.157
	.cfi_def_cfa %rbp, 16
	movl	%ebx, %edi
	callq	get_short_term_pic.157
	addq	$8, %rsp
	popq	%rbx
	popq	%rbp
	.cfi_def_cfa %rsp, 8
	retq
.LBB48_5:                               # %func_get_short_term_pic.192
	.cfi_def_cfa %rbp, 16
	movl	%ebx, %edi
	callq	get_short_term_pic.192
	addq	$8, %rsp
	popq	%rbx
	popq	%rbp
	.cfi_def_cfa %rsp, 8
	retq
.LBB48_6:                               # %func_get_short_term_pic.206
	.cfi_def_cfa %rbp, 16
	movl	%ebx, %edi
	callq	get_short_term_pic.206
	addq	$8, %rsp
	popq	%rbx
	popq	%rbp
	.cfi_def_cfa %rsp, 8
	retq
.LBB48_7:                               # %ctrl0
	.cfi_def_cfa %rbp, 16
	cmpl	$1, %eax
	je	.LBB48_2
# %bb.8:                                # %ctrl1
	cmpl	$2, %eax
	je	.LBB48_3
# %bb.9:                                # %ctrl2
	cmpl	$3, %eax
	je	.LBB48_4
# %bb.10:                               # %ctrl3
	cmpl	$4, %eax
	je	.LBB48_5
	jmp	.LBB48_6
.Lfunc_end48:
	.size	get_short_term_pic, .Lfunc_end48-get_short_term_pic
	.cfi_endproc
                                        # -- End function
	.p2align	4, 0x90         # -- Begin function get_long_term_pic
	.type	get_long_term_pic,@function
get_long_term_pic:                      # @get_long_term_pic
	.cfi_startproc
# %bb.0:                                # %rand_bb
	pushq	%rbp
	.cfi_def_cfa_offset 16
	.cfi_offset %rbp, -16
	movq	%rsp, %rbp
	.cfi_def_cfa_register %rbp
	pushq	%rbx
	pushq	%rax
	.cfi_offset %rbx, -24
	movl	%edi, %ebx
	callq	get_urand
	cmpl	$0, %eax
	jne	.LBB49_7
# %bb.1:                                # %func_get_long_term_pic.10
	movl	%ebx, %edi
	callq	get_long_term_pic.10
	addq	$8, %rsp
	popq	%rbx
	popq	%rbp
	.cfi_def_cfa %rsp, 8
	retq
.LBB49_2:                               # %func_get_long_term_pic.21
	.cfi_def_cfa %rbp, 16
	movl	%ebx, %edi
	callq	get_long_term_pic.21
	addq	$8, %rsp
	popq	%rbx
	popq	%rbp
	.cfi_def_cfa %rsp, 8
	retq
.LBB49_3:                               # %func_get_long_term_pic.43
	.cfi_def_cfa %rbp, 16
	movl	%ebx, %edi
	callq	get_long_term_pic.43
	addq	$8, %rsp
	popq	%rbx
	popq	%rbp
	.cfi_def_cfa %rsp, 8
	retq
.LBB49_4:                               # %func_get_long_term_pic.100
	.cfi_def_cfa %rbp, 16
	movl	%ebx, %edi
	callq	get_long_term_pic.100
	addq	$8, %rsp
	popq	%rbx
	popq	%rbp
	.cfi_def_cfa %rsp, 8
	retq
.LBB49_5:                               # %func_get_long_term_pic.140
	.cfi_def_cfa %rbp, 16
	movl	%ebx, %edi
	callq	get_long_term_pic.140
	addq	$8, %rsp
	popq	%rbx
	popq	%rbp
	.cfi_def_cfa %rsp, 8
	retq
.LBB49_6:                               # %func_get_long_term_pic.198
	.cfi_def_cfa %rbp, 16
	movl	%ebx, %edi
	callq	get_long_term_pic.198
	addq	$8, %rsp
	popq	%rbx
	popq	%rbp
	.cfi_def_cfa %rsp, 8
	retq
.LBB49_7:                               # %ctrl0
	.cfi_def_cfa %rbp, 16
	cmpl	$1, %eax
	je	.LBB49_2
# %bb.8:                                # %ctrl1
	cmpl	$2, %eax
	je	.LBB49_3
# %bb.9:                                # %ctrl2
	cmpl	$3, %eax
	je	.LBB49_4
# %bb.10:                               # %ctrl3
	cmpl	$4, %eax
	je	.LBB49_5
	jmp	.LBB49_6
.Lfunc_end49:
	.size	get_long_term_pic, .Lfunc_end49-get_long_term_pic
	.cfi_endproc
                                        # -- End function
	.p2align	4, 0x90         # -- Begin function mm_unmark_short_term_for_reference
	.type	mm_unmark_short_term_for_reference,@function
mm_unmark_short_term_for_reference:     # @mm_unmark_short_term_for_reference
	.cfi_startproc
# %bb.0:                                # %rand_bb
	pushq	%rbp
	.cfi_def_cfa_offset 16
	.cfi_offset %rbp, -16
	movq	%rsp, %rbp
	.cfi_def_cfa_register %rbp
	pushq	%r14
	pushq	%rbx
	.cfi_offset %rbx, -32
	.cfi_offset %r14, -24
	movl	%esi, %r14d
	movq	%rdi, %rbx
	callq	get_urand
	cmpl	$0, %eax
	jne	.LBB50_9
# %bb.1:                                # %func_mm_unmark_short_term_for_reference.45
	movq	%rbx, %rdi
	movl	%r14d, %esi
	callq	mm_unmark_short_term_for_reference.45
	popq	%rbx
	popq	%r14
	popq	%rbp
	.cfi_def_cfa %rsp, 8
	retq
.LBB50_2:                               # %func_mm_unmark_short_term_for_reference.144
	.cfi_def_cfa %rbp, 16
	movq	%rbx, %rdi
	movl	%r14d, %esi
	callq	mm_unmark_short_term_for_reference.144
	popq	%rbx
	popq	%r14
	popq	%rbp
	.cfi_def_cfa %rsp, 8
	retq
.LBB50_3:                               # %func_mm_unmark_short_term_for_reference.166
	.cfi_def_cfa %rbp, 16
	movq	%rbx, %rdi
	movl	%r14d, %esi
	callq	mm_unmark_short_term_for_reference.166
	popq	%rbx
	popq	%r14
	popq	%rbp
	.cfi_def_cfa %rsp, 8
	retq
.LBB50_4:                               # %func_mm_unmark_short_term_for_reference.190
	.cfi_def_cfa %rbp, 16
	movq	%rbx, %rdi
	movl	%r14d, %esi
	callq	mm_unmark_short_term_for_reference.190
	popq	%rbx
	popq	%r14
	popq	%rbp
	.cfi_def_cfa %rsp, 8
	retq
.LBB50_5:                               # %func_mm_unmark_short_term_for_reference.231
	.cfi_def_cfa %rbp, 16
	movq	%rbx, %rdi
	movl	%r14d, %esi
	callq	mm_unmark_short_term_for_reference.231
	popq	%rbx
	popq	%r14
	popq	%rbp
	.cfi_def_cfa %rsp, 8
	retq
.LBB50_6:                               # %func_mm_unmark_short_term_for_reference.232
	.cfi_def_cfa %rbp, 16
	movq	%rbx, %rdi
	movl	%r14d, %esi
	callq	mm_unmark_short_term_for_reference.232
	popq	%rbx
	popq	%r14
	popq	%rbp
	.cfi_def_cfa %rsp, 8
	retq
.LBB50_7:                               # %func_mm_unmark_short_term_for_reference.239
	.cfi_def_cfa %rbp, 16
	movq	%rbx, %rdi
	movl	%r14d, %esi
	callq	mm_unmark_short_term_for_reference.239
	popq	%rbx
	popq	%r14
	popq	%rbp
	.cfi_def_cfa %rsp, 8
	retq
.LBB50_8:                               # %func_mm_unmark_short_term_for_reference.245
	.cfi_def_cfa %rbp, 16
	movq	%rbx, %rdi
	movl	%r14d, %esi
	callq	mm_unmark_short_term_for_reference.245
	popq	%rbx
	popq	%r14
	popq	%rbp
	.cfi_def_cfa %rsp, 8
	retq
.LBB50_9:                               # %ctrl0
	.cfi_def_cfa %rbp, 16
	cmpl	$1, %eax
	je	.LBB50_2
# %bb.10:                               # %ctrl1
	cmpl	$2, %eax
	je	.LBB50_3
# %bb.11:                               # %ctrl2
	cmpl	$3, %eax
	je	.LBB50_4
# %bb.12:                               # %ctrl3
	cmpl	$4, %eax
	je	.LBB50_5
# %bb.13:                               # %ctrl4
	cmpl	$5, %eax
	je	.LBB50_6
# %bb.14:                               # %ctrl5
	cmpl	$6, %eax
	je	.LBB50_7
	jmp	.LBB50_8
.Lfunc_end50:
	.size	mm_unmark_short_term_for_reference, .Lfunc_end50-mm_unmark_short_term_for_reference
	.cfi_endproc
                                        # -- End function
	.p2align	4, 0x90         # -- Begin function mm_unmark_long_term_for_reference
	.type	mm_unmark_long_term_for_reference,@function
mm_unmark_long_term_for_reference:      # @mm_unmark_long_term_for_reference
	.cfi_startproc
# %bb.0:                                # %rand_bb
	pushq	%rbp
	.cfi_def_cfa_offset 16
	.cfi_offset %rbp, -16
	movq	%rsp, %rbp
	.cfi_def_cfa_register %rbp
	pushq	%r14
	pushq	%rbx
	.cfi_offset %rbx, -32
	.cfi_offset %r14, -24
	movl	%esi, %r14d
	movq	%rdi, %rbx
	callq	get_urand
	cmpl	$0, %eax
	jne	.LBB51_7
# %bb.1:                                # %func_mm_unmark_long_term_for_reference.61
	movq	%rbx, %rdi
	movl	%r14d, %esi
	callq	mm_unmark_long_term_for_reference.61
	popq	%rbx
	popq	%r14
	popq	%rbp
	.cfi_def_cfa %rsp, 8
	retq
.LBB51_2:                               # %func_mm_unmark_long_term_for_reference.76
	.cfi_def_cfa %rbp, 16
	movq	%rbx, %rdi
	movl	%r14d, %esi
	callq	mm_unmark_long_term_for_reference.76
	popq	%rbx
	popq	%r14
	popq	%rbp
	.cfi_def_cfa %rsp, 8
	retq
.LBB51_3:                               # %func_mm_unmark_long_term_for_reference.134
	.cfi_def_cfa %rbp, 16
	movq	%rbx, %rdi
	movl	%r14d, %esi
	callq	mm_unmark_long_term_for_reference.134
	popq	%rbx
	popq	%r14
	popq	%rbp
	.cfi_def_cfa %rsp, 8
	retq
.LBB51_4:                               # %func_mm_unmark_long_term_for_reference.211
	.cfi_def_cfa %rbp, 16
	movq	%rbx, %rdi
	movl	%r14d, %esi
	callq	mm_unmark_long_term_for_reference.211
	popq	%rbx
	popq	%r14
	popq	%rbp
	.cfi_def_cfa %rsp, 8
	retq
.LBB51_5:                               # %func_mm_unmark_long_term_for_reference.212
	.cfi_def_cfa %rbp, 16
	movq	%rbx, %rdi
	movl	%r14d, %esi
	callq	mm_unmark_long_term_for_reference.212
	popq	%rbx
	popq	%r14
	popq	%rbp
	.cfi_def_cfa %rsp, 8
	retq
.LBB51_6:                               # %func_mm_unmark_long_term_for_reference.222
	.cfi_def_cfa %rbp, 16
	movq	%rbx, %rdi
	movl	%r14d, %esi
	callq	mm_unmark_long_term_for_reference.222
	popq	%rbx
	popq	%r14
	popq	%rbp
	.cfi_def_cfa %rsp, 8
	retq
.LBB51_7:                               # %ctrl0
	.cfi_def_cfa %rbp, 16
	cmpl	$1, %eax
	je	.LBB51_2
# %bb.8:                                # %ctrl1
	cmpl	$2, %eax
	je	.LBB51_3
# %bb.9:                                # %ctrl2
	cmpl	$3, %eax
	je	.LBB51_4
# %bb.10:                               # %ctrl3
	cmpl	$4, %eax
	je	.LBB51_5
	jmp	.LBB51_6
.Lfunc_end51:
	.size	mm_unmark_long_term_for_reference, .Lfunc_end51-mm_unmark_long_term_for_reference
	.cfi_endproc
                                        # -- End function
	.p2align	4, 0x90         # -- Begin function mm_assign_long_term_frame_idx
	.type	mm_assign_long_term_frame_idx,@function
mm_assign_long_term_frame_idx:          # @mm_assign_long_term_frame_idx
	.cfi_startproc
# %bb.0:                                # %rand_bb
	pushq	%rbp
	.cfi_def_cfa_offset 16
	.cfi_offset %rbp, -16
	movq	%rsp, %rbp
	.cfi_def_cfa_register %rbp
	pushq	%r15
	pushq	%r14
	pushq	%rbx
	pushq	%rax
	.cfi_offset %rbx, -40
	.cfi_offset %r14, -32
	.cfi_offset %r15, -24
	movl	%edx, %r14d
	movl	%esi, %r15d
	movq	%rdi, %rbx
	callq	get_urand
	cmpl	$0, %eax
	jne	.LBB52_9
# %bb.1:                                # %func_mm_assign_long_term_frame_idx.184
	movq	%rbx, %rdi
	movl	%r15d, %esi
	movl	%r14d, %edx
	callq	mm_assign_long_term_frame_idx.184
	addq	$8, %rsp
	popq	%rbx
	popq	%r14
	popq	%r15
	popq	%rbp
	.cfi_def_cfa %rsp, 8
	retq
.LBB52_2:                               # %func_mm_assign_long_term_frame_idx.197
	.cfi_def_cfa %rbp, 16
	movq	%rbx, %rdi
	movl	%r15d, %esi
	movl	%r14d, %edx
	callq	mm_assign_long_term_frame_idx.197
	addq	$8, %rsp
	popq	%rbx
	popq	%r14
	popq	%r15
	popq	%rbp
	.cfi_def_cfa %rsp, 8
	retq
.LBB52_3:                               # %func_mm_assign_long_term_frame_idx.216
	.cfi_def_cfa %rbp, 16
	movq	%rbx, %rdi
	movl	%r15d, %esi
	movl	%r14d, %edx
	callq	mm_assign_long_term_frame_idx.216
	addq	$8, %rsp
	popq	%rbx
	popq	%r14
	popq	%r15
	popq	%rbp
	.cfi_def_cfa %rsp, 8
	retq
.LBB52_4:                               # %func_mm_assign_long_term_frame_idx.225
	.cfi_def_cfa %rbp, 16
	movq	%rbx, %rdi
	movl	%r15d, %esi
	movl	%r14d, %edx
	callq	mm_assign_long_term_frame_idx.225
	addq	$8, %rsp
	popq	%rbx
	popq	%r14
	popq	%r15
	popq	%rbp
	.cfi_def_cfa %rsp, 8
	retq
.LBB52_5:                               # %func_mm_assign_long_term_frame_idx.227
	.cfi_def_cfa %rbp, 16
	movq	%rbx, %rdi
	movl	%r15d, %esi
	movl	%r14d, %edx
	callq	mm_assign_long_term_frame_idx.227
	addq	$8, %rsp
	popq	%rbx
	popq	%r14
	popq	%r15
	popq	%rbp
	.cfi_def_cfa %rsp, 8
	retq
.LBB52_6:                               # %func_mm_assign_long_term_frame_idx.250
	.cfi_def_cfa %rbp, 16
	movq	%rbx, %rdi
	movl	%r15d, %esi
	movl	%r14d, %edx
	callq	mm_assign_long_term_frame_idx.250
	addq	$8, %rsp
	popq	%rbx
	popq	%r14
	popq	%r15
	popq	%rbp
	.cfi_def_cfa %rsp, 8
	retq
.LBB52_7:                               # %func_mm_assign_long_term_frame_idx.253
	.cfi_def_cfa %rbp, 16
	movq	%rbx, %rdi
	movl	%r15d, %esi
	movl	%r14d, %edx
	callq	mm_assign_long_term_frame_idx.253
	addq	$8, %rsp
	popq	%rbx
	popq	%r14
	popq	%r15
	popq	%rbp
	.cfi_def_cfa %rsp, 8
	retq
.LBB52_8:                               # %func_mm_assign_long_term_frame_idx.262
	.cfi_def_cfa %rbp, 16
	movq	%rbx, %rdi
	movl	%r15d, %esi
	movl	%r14d, %edx
	callq	mm_assign_long_term_frame_idx.262
	addq	$8, %rsp
	popq	%rbx
	popq	%r14
	popq	%r15
	popq	%rbp
	.cfi_def_cfa %rsp, 8
	retq
.LBB52_9:                               # %ctrl0
	.cfi_def_cfa %rbp, 16
	cmpl	$1, %eax
	je	.LBB52_2
# %bb.10:                               # %ctrl1
	cmpl	$2, %eax
	je	.LBB52_3
# %bb.11:                               # %ctrl2
	cmpl	$3, %eax
	je	.LBB52_4
# %bb.12:                               # %ctrl3
	cmpl	$4, %eax
	je	.LBB52_5
# %bb.13:                               # %ctrl4
	cmpl	$5, %eax
	je	.LBB52_6
# %bb.14:                               # %ctrl5
	cmpl	$6, %eax
	je	.LBB52_7
	jmp	.LBB52_8
.Lfunc_end52:
	.size	mm_assign_long_term_frame_idx, .Lfunc_end52-mm_assign_long_term_frame_idx
	.cfi_endproc
                                        # -- End function
	.p2align	4, 0x90         # -- Begin function mm_mark_current_picture_long_term
	.type	mm_mark_current_picture_long_term,@function
mm_mark_current_picture_long_term:      # @mm_mark_current_picture_long_term
	.cfi_startproc
# %bb.0:                                # %rand_bb
	pushq	%rbp
	.cfi_def_cfa_offset 16
	.cfi_offset %rbp, -16
	movq	%rsp, %rbp
	.cfi_def_cfa_register %rbp
	pushq	%r14
	pushq	%rbx
	.cfi_offset %rbx, -32
	.cfi_offset %r14, -24
	movl	%esi, %r14d
	movq	%rdi, %rbx
	callq	get_urand
	cmpl	$0, %eax
	jne	.LBB53_2
# %bb.1:                                # %func_mm_mark_current_picture_long_term.52
	movq	%rbx, %rdi
	movl	%r14d, %esi
	callq	mm_mark_current_picture_long_term.52
	popq	%rbx
	popq	%r14
	popq	%rbp
	.cfi_def_cfa %rsp, 8
	retq
.LBB53_2:                               # %func_mm_mark_current_picture_long_term.109
	.cfi_def_cfa %rbp, 16
	movq	%rbx, %rdi
	movl	%r14d, %esi
	callq	mm_mark_current_picture_long_term.109
	popq	%rbx
	popq	%r14
	popq	%rbp
	.cfi_def_cfa %rsp, 8
	retq
.Lfunc_end53:
	.size	mm_mark_current_picture_long_term, .Lfunc_end53-mm_mark_current_picture_long_term
	.cfi_endproc
                                        # -- End function
	.p2align	4, 0x90         # -- Begin function get_pic_num_x
	.type	get_pic_num_x,@function
get_pic_num_x:                          # @get_pic_num_x
	.cfi_startproc
# %bb.0:                                # %rand_bb
	pushq	%rbp
	.cfi_def_cfa_offset 16
	.cfi_offset %rbp, -16
	movq	%rsp, %rbp
	.cfi_def_cfa_register %rbp
	pushq	%r14
	pushq	%rbx
	.cfi_offset %rbx, -32
	.cfi_offset %r14, -24
	movl	%esi, %r14d
	movq	%rdi, %rbx
	callq	get_urand
	cmpl	$0, %eax
	jne	.LBB54_7
# %bb.1:                                # %func_get_pic_num_x.24
	movq	%rbx, %rdi
	movl	%r14d, %esi
	callq	get_pic_num_x.24
	popq	%rbx
	popq	%r14
	popq	%rbp
	.cfi_def_cfa %rsp, 8
	retq
.LBB54_2:                               # %func_get_pic_num_x.42
	.cfi_def_cfa %rbp, 16
	movq	%rbx, %rdi
	movl	%r14d, %esi
	callq	get_pic_num_x.42
	popq	%rbx
	popq	%r14
	popq	%rbp
	.cfi_def_cfa %rsp, 8
	retq
.LBB54_3:                               # %func_get_pic_num_x.60
	.cfi_def_cfa %rbp, 16
	movq	%rbx, %rdi
	movl	%r14d, %esi
	callq	get_pic_num_x.60
	popq	%rbx
	popq	%r14
	popq	%rbp
	.cfi_def_cfa %rsp, 8
	retq
.LBB54_4:                               # %func_get_pic_num_x.81
	.cfi_def_cfa %rbp, 16
	movq	%rbx, %rdi
	movl	%r14d, %esi
	callq	get_pic_num_x.81
	popq	%rbx
	popq	%r14
	popq	%rbp
	.cfi_def_cfa %rsp, 8
	retq
.LBB54_5:                               # %func_get_pic_num_x.182
	.cfi_def_cfa %rbp, 16
	movq	%rbx, %rdi
	movl	%r14d, %esi
	callq	get_pic_num_x.182
	popq	%rbx
	popq	%r14
	popq	%rbp
	.cfi_def_cfa %rsp, 8
	retq
.LBB54_6:                               # %func_get_pic_num_x.215
	.cfi_def_cfa %rbp, 16
	movq	%rbx, %rdi
	movl	%r14d, %esi
	callq	get_pic_num_x.215
	popq	%rbx
	popq	%r14
	popq	%rbp
	.cfi_def_cfa %rsp, 8
	retq
.LBB54_7:                               # %ctrl0
	.cfi_def_cfa %rbp, 16
	cmpl	$1, %eax
	je	.LBB54_2
# %bb.8:                                # %ctrl1
	cmpl	$2, %eax
	je	.LBB54_3
# %bb.9:                                # %ctrl2
	cmpl	$3, %eax
	je	.LBB54_4
# %bb.10:                               # %ctrl3
	cmpl	$4, %eax
	je	.LBB54_5
	jmp	.LBB54_6
.Lfunc_end54:
	.size	get_pic_num_x, .Lfunc_end54-get_pic_num_x
	.cfi_endproc
                                        # -- End function
	.p2align	4, 0x90         # -- Begin function unmark_long_term_frame_for_reference_by_frame_idx
	.type	unmark_long_term_frame_for_reference_by_frame_idx,@function
unmark_long_term_frame_for_reference_by_frame_idx: # @unmark_long_term_frame_for_reference_by_frame_idx
	.cfi_startproc
# %bb.0:                                # %rand_bb
	pushq	%rbp
	.cfi_def_cfa_offset 16
	.cfi_offset %rbp, -16
	movq	%rsp, %rbp
	.cfi_def_cfa_register %rbp
	pushq	%rbx
	pushq	%rax
	.cfi_offset %rbx, -24
	movl	%edi, %ebx
	callq	get_urand
	cmpl	$0, %eax
	jne	.LBB55_2
# %bb.1:                                # %func_unmark_long_term_frame_for_reference_by_frame_idx.8
	movl	%ebx, %edi
	callq	unmark_long_term_frame_for_reference_by_frame_idx.8
	addq	$8, %rsp
	popq	%rbx
	popq	%rbp
	.cfi_def_cfa %rsp, 8
	retq
.LBB55_2:                               # %func_unmark_long_term_frame_for_reference_by_frame_idx.29
	.cfi_def_cfa %rbp, 16
	movl	%ebx, %edi
	callq	unmark_long_term_frame_for_reference_by_frame_idx.29
	addq	$8, %rsp
	popq	%rbx
	popq	%rbp
	.cfi_def_cfa %rsp, 8
	retq
.Lfunc_end55:
	.size	unmark_long_term_frame_for_reference_by_frame_idx, .Lfunc_end55-unmark_long_term_frame_for_reference_by_frame_idx
	.cfi_endproc
                                        # -- End function
	.p2align	4, 0x90         # -- Begin function unmark_long_term_field_for_reference_by_frame_idx
	.type	unmark_long_term_field_for_reference_by_frame_idx,@function
unmark_long_term_field_for_reference_by_frame_idx: # @unmark_long_term_field_for_reference_by_frame_idx
	.cfi_startproc
# %bb.0:                                # %rand_bb
	pushq	%rbp
	.cfi_def_cfa_offset 16
	.cfi_offset %rbp, -16
	movq	%rsp, %rbp
	.cfi_def_cfa_register %rbp
	pushq	%r15
	pushq	%r14
	pushq	%r13
	pushq	%r12
	pushq	%rbx
	pushq	%rax
	.cfi_offset %rbx, -56
	.cfi_offset %r12, -48
	.cfi_offset %r13, -40
	.cfi_offset %r14, -32
	.cfi_offset %r15, -24
	movl	%r8d, %r14d
	movl	%ecx, %r15d
	movl	%edx, %r12d
	movl	%esi, %r13d
	movl	%edi, %ebx
	callq	get_urand
	cmpl	$0, %eax
	jne	.LBB56_9
# %bb.1:                                # %func_unmark_long_term_field_for_reference_by_frame_idx.15
	movl	%ebx, %edi
	movl	%r13d, %esi
	movl	%r12d, %edx
	movl	%r15d, %ecx
	movl	%r14d, %r8d
	callq	unmark_long_term_field_for_reference_by_frame_idx.15
	addq	$8, %rsp
	popq	%rbx
	popq	%r12
	popq	%r13
	popq	%r14
	popq	%r15
	popq	%rbp
	.cfi_def_cfa %rsp, 8
	retq
.LBB56_2:                               # %func_unmark_long_term_field_for_reference_by_frame_idx.63
	.cfi_def_cfa %rbp, 16
	movl	%ebx, %edi
	movl	%r13d, %esi
	movl	%r12d, %edx
	movl	%r15d, %ecx
	movl	%r14d, %r8d
	callq	unmark_long_term_field_for_reference_by_frame_idx.63
	addq	$8, %rsp
	popq	%rbx
	popq	%r12
	popq	%r13
	popq	%r14
	popq	%r15
	popq	%rbp
	.cfi_def_cfa %rsp, 8
	retq
.LBB56_3:                               # %func_unmark_long_term_field_for_reference_by_frame_idx.201
	.cfi_def_cfa %rbp, 16
	movl	%ebx, %edi
	movl	%r13d, %esi
	movl	%r12d, %edx
	movl	%r15d, %ecx
	movl	%r14d, %r8d
	callq	unmark_long_term_field_for_reference_by_frame_idx.201
	addq	$8, %rsp
	popq	%rbx
	popq	%r12
	popq	%r13
	popq	%r14
	popq	%r15
	popq	%rbp
	.cfi_def_cfa %rsp, 8
	retq
.LBB56_4:                               # %func_unmark_long_term_field_for_reference_by_frame_idx.254
	.cfi_def_cfa %rbp, 16
	movl	%ebx, %edi
	movl	%r13d, %esi
	movl	%r12d, %edx
	movl	%r15d, %ecx
	movl	%r14d, %r8d
	callq	unmark_long_term_field_for_reference_by_frame_idx.254
	addq	$8, %rsp
	popq	%rbx
	popq	%r12
	popq	%r13
	popq	%r14
	popq	%r15
	popq	%rbp
	.cfi_def_cfa %rsp, 8
	retq
.LBB56_5:                               # %func_unmark_long_term_field_for_reference_by_frame_idx.256
	.cfi_def_cfa %rbp, 16
	movl	%ebx, %edi
	movl	%r13d, %esi
	movl	%r12d, %edx
	movl	%r15d, %ecx
	movl	%r14d, %r8d
	callq	unmark_long_term_field_for_reference_by_frame_idx.256
	addq	$8, %rsp
	popq	%rbx
	popq	%r12
	popq	%r13
	popq	%r14
	popq	%r15
	popq	%rbp
	.cfi_def_cfa %rsp, 8
	retq
.LBB56_6:                               # %func_unmark_long_term_field_for_reference_by_frame_idx.260
	.cfi_def_cfa %rbp, 16
	movl	%ebx, %edi
	movl	%r13d, %esi
	movl	%r12d, %edx
	movl	%r15d, %ecx
	movl	%r14d, %r8d
	callq	unmark_long_term_field_for_reference_by_frame_idx.260
	addq	$8, %rsp
	popq	%rbx
	popq	%r12
	popq	%r13
	popq	%r14
	popq	%r15
	popq	%rbp
	.cfi_def_cfa %rsp, 8
	retq
.LBB56_7:                               # %func_unmark_long_term_field_for_reference_by_frame_idx.263
	.cfi_def_cfa %rbp, 16
	movl	%ebx, %edi
	movl	%r13d, %esi
	movl	%r12d, %edx
	movl	%r15d, %ecx
	movl	%r14d, %r8d
	callq	unmark_long_term_field_for_reference_by_frame_idx.263
	addq	$8, %rsp
	popq	%rbx
	popq	%r12
	popq	%r13
	popq	%r14
	popq	%r15
	popq	%rbp
	.cfi_def_cfa %rsp, 8
	retq
.LBB56_8:                               # %func_unmark_long_term_field_for_reference_by_frame_idx.266
	.cfi_def_cfa %rbp, 16
	movl	%ebx, %edi
	movl	%r13d, %esi
	movl	%r12d, %edx
	movl	%r15d, %ecx
	movl	%r14d, %r8d
	callq	unmark_long_term_field_for_reference_by_frame_idx.266
	addq	$8, %rsp
	popq	%rbx
	popq	%r12
	popq	%r13
	popq	%r14
	popq	%r15
	popq	%rbp
	.cfi_def_cfa %rsp, 8
	retq
.LBB56_9:                               # %ctrl0
	.cfi_def_cfa %rbp, 16
	cmpl	$1, %eax
	je	.LBB56_2
# %bb.10:                               # %ctrl1
	cmpl	$2, %eax
	je	.LBB56_3
# %bb.11:                               # %ctrl2
	cmpl	$3, %eax
	je	.LBB56_4
# %bb.12:                               # %ctrl3
	cmpl	$4, %eax
	je	.LBB56_5
# %bb.13:                               # %ctrl4
	cmpl	$5, %eax
	je	.LBB56_6
# %bb.14:                               # %ctrl5
	cmpl	$6, %eax
	je	.LBB56_7
	jmp	.LBB56_8
.Lfunc_end56:
	.size	unmark_long_term_field_for_reference_by_frame_idx, .Lfunc_end56-unmark_long_term_field_for_reference_by_frame_idx
	.cfi_endproc
                                        # -- End function
	.p2align	4, 0x90         # -- Begin function mark_pic_long_term
	.type	mark_pic_long_term,@function
mark_pic_long_term:                     # @mark_pic_long_term
	.cfi_startproc
# %bb.0:                                # %rand_bb
	pushq	%rbp
	.cfi_def_cfa_offset 16
	.cfi_offset %rbp, -16
	movq	%rsp, %rbp
	.cfi_def_cfa_register %rbp
	pushq	%r15
	pushq	%r14
	pushq	%rbx
	pushq	%rax
	.cfi_offset %rbx, -40
	.cfi_offset %r14, -32
	.cfi_offset %r15, -24
	movl	%edx, %r14d
	movl	%esi, %r15d
	movq	%rdi, %rbx
	callq	get_urand
	cmpl	$0, %eax
	jne	.LBB57_9
# %bb.1:                                # %func_mark_pic_long_term.36
	movq	%rbx, %rdi
	movl	%r15d, %esi
	movl	%r14d, %edx
	callq	mark_pic_long_term.36
	addq	$8, %rsp
	popq	%rbx
	popq	%r14
	popq	%r15
	popq	%rbp
	.cfi_def_cfa %rsp, 8
	retq
.LBB57_2:                               # %func_mark_pic_long_term.127
	.cfi_def_cfa %rbp, 16
	movq	%rbx, %rdi
	movl	%r15d, %esi
	movl	%r14d, %edx
	callq	mark_pic_long_term.127
	addq	$8, %rsp
	popq	%rbx
	popq	%r14
	popq	%r15
	popq	%rbp
	.cfi_def_cfa %rsp, 8
	retq
.LBB57_3:                               # %func_mark_pic_long_term.130
	.cfi_def_cfa %rbp, 16
	movq	%rbx, %rdi
	movl	%r15d, %esi
	movl	%r14d, %edx
	callq	mark_pic_long_term.130
	addq	$8, %rsp
	popq	%rbx
	popq	%r14
	popq	%r15
	popq	%rbp
	.cfi_def_cfa %rsp, 8
	retq
.LBB57_4:                               # %func_mark_pic_long_term.146
	.cfi_def_cfa %rbp, 16
	movq	%rbx, %rdi
	movl	%r15d, %esi
	movl	%r14d, %edx
	callq	mark_pic_long_term.146
	addq	$8, %rsp
	popq	%rbx
	popq	%r14
	popq	%r15
	popq	%rbp
	.cfi_def_cfa %rsp, 8
	retq
.LBB57_5:                               # %func_mark_pic_long_term.148
	.cfi_def_cfa %rbp, 16
	movq	%rbx, %rdi
	movl	%r15d, %esi
	movl	%r14d, %edx
	callq	mark_pic_long_term.148
	addq	$8, %rsp
	popq	%rbx
	popq	%r14
	popq	%r15
	popq	%rbp
	.cfi_def_cfa %rsp, 8
	retq
.LBB57_6:                               # %func_mark_pic_long_term.177
	.cfi_def_cfa %rbp, 16
	movq	%rbx, %rdi
	movl	%r15d, %esi
	movl	%r14d, %edx
	callq	mark_pic_long_term.177
	addq	$8, %rsp
	popq	%rbx
	popq	%r14
	popq	%r15
	popq	%rbp
	.cfi_def_cfa %rsp, 8
	retq
.LBB57_7:                               # %func_mark_pic_long_term.208
	.cfi_def_cfa %rbp, 16
	movq	%rbx, %rdi
	movl	%r15d, %esi
	movl	%r14d, %edx
	callq	mark_pic_long_term.208
	addq	$8, %rsp
	popq	%rbx
	popq	%r14
	popq	%r15
	popq	%rbp
	.cfi_def_cfa %rsp, 8
	retq
.LBB57_8:                               # %func_mark_pic_long_term.214
	.cfi_def_cfa %rbp, 16
	movq	%rbx, %rdi
	movl	%r15d, %esi
	movl	%r14d, %edx
	callq	mark_pic_long_term.214
	addq	$8, %rsp
	popq	%rbx
	popq	%r14
	popq	%r15
	popq	%rbp
	.cfi_def_cfa %rsp, 8
	retq
.LBB57_9:                               # %ctrl0
	.cfi_def_cfa %rbp, 16
	cmpl	$1, %eax
	je	.LBB57_2
# %bb.10:                               # %ctrl1
	cmpl	$2, %eax
	je	.LBB57_3
# %bb.11:                               # %ctrl2
	cmpl	$3, %eax
	je	.LBB57_4
# %bb.12:                               # %ctrl3
	cmpl	$4, %eax
	je	.LBB57_5
# %bb.13:                               # %ctrl4
	cmpl	$5, %eax
	je	.LBB57_6
# %bb.14:                               # %ctrl5
	cmpl	$6, %eax
	je	.LBB57_7
	jmp	.LBB57_8
.Lfunc_end57:
	.size	mark_pic_long_term, .Lfunc_end57-mark_pic_long_term
	.cfi_endproc
                                        # -- End function
	.p2align	4, 0x90         # -- Begin function mm_unmark_all_short_term_for_reference
	.type	mm_unmark_all_short_term_for_reference,@function
mm_unmark_all_short_term_for_reference: # @mm_unmark_all_short_term_for_reference
	.cfi_startproc
# %bb.0:                                # %entry
	pushq	%rbp
	.cfi_def_cfa_offset 16
	.cfi_offset %rbp, -16
	movq	%rsp, %rbp
	.cfi_def_cfa_register %rbp
	subq	$16, %rsp
	movl	$0, -4(%rbp)
.LBB58_1:                               # %for.cond
                                        # =>This Inner Loop Header: Depth=1
	movl	-4(%rbp), %eax
	cmpl	dpb+32, %eax
	jae	.LBB58_4
# %bb.2:                                # %for.body
                                        #   in Loop: Header=BB58_1 Depth=1
	movq	dpb+8, %rax
	movl	-4(%rbp), %ecx
	movq	(%rax,%rcx,8), %rdi
	callq	unmark_for_reference
# %bb.3:                                # %for.inc
                                        #   in Loop: Header=BB58_1 Depth=1
	movl	-4(%rbp), %eax
	addl	$1, %eax
	movl	%eax, -4(%rbp)
	jmp	.LBB58_1
.LBB58_4:                               # %for.end
	callq	update_ref_list
	addq	$16, %rsp
	popq	%rbp
	.cfi_def_cfa %rsp, 8
	retq
.Lfunc_end58:
	.size	mm_unmark_all_short_term_for_reference, .Lfunc_end58-mm_unmark_all_short_term_for_reference
	.cfi_endproc
                                        # -- End function
	.p2align	4, 0x90         # -- Begin function mm_unmark_all_long_term_for_reference
	.type	mm_unmark_all_long_term_for_reference,@function
mm_unmark_all_long_term_for_reference:  # @mm_unmark_all_long_term_for_reference
	.cfi_startproc
# %bb.0:                                # %entry
	pushq	%rbp
	.cfi_def_cfa_offset 16
	.cfi_offset %rbp, -16
	movq	%rsp, %rbp
	.cfi_def_cfa_register %rbp
	xorl	%edi, %edi
	callq	mm_update_max_long_term_frame_idx
	popq	%rbp
	.cfi_def_cfa %rsp, 8
	retq
.Lfunc_end59:
	.size	mm_unmark_all_long_term_for_reference, .Lfunc_end59-mm_unmark_all_long_term_for_reference
	.cfi_endproc
                                        # -- End function
	.p2align	4, 0x90         # -- Begin function remove_unused_frame_from_dpb
	.type	remove_unused_frame_from_dpb,@function
remove_unused_frame_from_dpb:           # @remove_unused_frame_from_dpb
	.cfi_startproc
# %bb.0:                                # %rand_bb
	pushq	%rbp
	.cfi_def_cfa_offset 16
	.cfi_offset %rbp, -16
	movq	%rsp, %rbp
	.cfi_def_cfa_register %rbp
	callq	get_urand
	cmpl	$0, %eax
	jne	.LBB60_2
# %bb.1:                                # %func_remove_unused_frame_from_dpb.48
	callq	remove_unused_frame_from_dpb.48
	popq	%rbp
	.cfi_def_cfa %rsp, 8
	retq
.LBB60_2:                               # %func_remove_unused_frame_from_dpb.74
	.cfi_def_cfa %rbp, 16
	callq	remove_unused_frame_from_dpb.74
	popq	%rbp
	.cfi_def_cfa %rsp, 8
	retq
.Lfunc_end60:
	.size	remove_unused_frame_from_dpb, .Lfunc_end60-remove_unused_frame_from_dpb
	.cfi_endproc
                                        # -- End function
	.p2align	4, 0x90         # -- Begin function is_used_for_reference
	.type	is_used_for_reference,@function
is_used_for_reference:                  # @is_used_for_reference
	.cfi_startproc
# %bb.0:                                # %rand_bb
	pushq	%rbp
	.cfi_def_cfa_offset 16
	.cfi_offset %rbp, -16
	movq	%rsp, %rbp
	.cfi_def_cfa_register %rbp
	pushq	%rbx
	pushq	%rax
	.cfi_offset %rbx, -24
	movq	%rdi, %rbx
	callq	get_urand
	cmpl	$0, %eax
	jne	.LBB61_2
# %bb.1:                                # %func_is_used_for_reference.1
	movq	%rbx, %rdi
	callq	is_used_for_reference.1
	addq	$8, %rsp
	popq	%rbx
	popq	%rbp
	.cfi_def_cfa %rsp, 8
	retq
.LBB61_2:                               # %func_is_used_for_reference.31
	.cfi_def_cfa %rbp, 16
	movq	%rbx, %rdi
	callq	is_used_for_reference.31
	addq	$8, %rsp
	popq	%rbx
	popq	%rbp
	.cfi_def_cfa %rsp, 8
	retq
.Lfunc_end61:
	.size	is_used_for_reference, .Lfunc_end61-is_used_for_reference
	.cfi_endproc
                                        # -- End function
	.p2align	4, 0x90         # -- Begin function remove_frame_from_dpb
	.type	remove_frame_from_dpb,@function
remove_frame_from_dpb:                  # @remove_frame_from_dpb
	.cfi_startproc
# %bb.0:                                # %rand_bb
	pushq	%rbp
	.cfi_def_cfa_offset 16
	.cfi_offset %rbp, -16
	movq	%rsp, %rbp
	.cfi_def_cfa_register %rbp
	pushq	%rbx
	pushq	%rax
	.cfi_offset %rbx, -24
	movl	%edi, %ebx
	callq	get_urand
	cmpl	$0, %eax
	jne	.LBB62_9
# %bb.1:                                # %func_remove_frame_from_dpb.90
	movl	%ebx, %edi
	callq	remove_frame_from_dpb.90
	addq	$8, %rsp
	popq	%rbx
	popq	%rbp
	.cfi_def_cfa %rsp, 8
	retq
.LBB62_2:                               # %func_remove_frame_from_dpb.125
	.cfi_def_cfa %rbp, 16
	movl	%ebx, %edi
	callq	remove_frame_from_dpb.125
	addq	$8, %rsp
	popq	%rbx
	popq	%rbp
	.cfi_def_cfa %rsp, 8
	retq
.LBB62_3:                               # %func_remove_frame_from_dpb.135
	.cfi_def_cfa %rbp, 16
	movl	%ebx, %edi
	callq	remove_frame_from_dpb.135
	addq	$8, %rsp
	popq	%rbx
	popq	%rbp
	.cfi_def_cfa %rsp, 8
	retq
.LBB62_4:                               # %func_remove_frame_from_dpb.203
	.cfi_def_cfa %rbp, 16
	movl	%ebx, %edi
	callq	remove_frame_from_dpb.203
	addq	$8, %rsp
	popq	%rbx
	popq	%rbp
	.cfi_def_cfa %rsp, 8
	retq
.LBB62_5:                               # %func_remove_frame_from_dpb.238
	.cfi_def_cfa %rbp, 16
	movl	%ebx, %edi
	callq	remove_frame_from_dpb.238
	addq	$8, %rsp
	popq	%rbx
	popq	%rbp
	.cfi_def_cfa %rsp, 8
	retq
.LBB62_6:                               # %func_remove_frame_from_dpb.258
	.cfi_def_cfa %rbp, 16
	movl	%ebx, %edi
	callq	remove_frame_from_dpb.258
	addq	$8, %rsp
	popq	%rbx
	popq	%rbp
	.cfi_def_cfa %rsp, 8
	retq
.LBB62_7:                               # %func_remove_frame_from_dpb.259
	.cfi_def_cfa %rbp, 16
	movl	%ebx, %edi
	callq	remove_frame_from_dpb.259
	addq	$8, %rsp
	popq	%rbx
	popq	%rbp
	.cfi_def_cfa %rsp, 8
	retq
.LBB62_8:                               # %func_remove_frame_from_dpb.265
	.cfi_def_cfa %rbp, 16
	movl	%ebx, %edi
	callq	remove_frame_from_dpb.265
	addq	$8, %rsp
	popq	%rbx
	popq	%rbp
	.cfi_def_cfa %rsp, 8
	retq
.LBB62_9:                               # %ctrl0
	.cfi_def_cfa %rbp, 16
	cmpl	$1, %eax
	je	.LBB62_2
# %bb.10:                               # %ctrl1
	cmpl	$2, %eax
	je	.LBB62_3
# %bb.11:                               # %ctrl2
	cmpl	$3, %eax
	je	.LBB62_4
# %bb.12:                               # %ctrl3
	cmpl	$4, %eax
	je	.LBB62_5
# %bb.13:                               # %ctrl4
	cmpl	$5, %eax
	je	.LBB62_6
# %bb.14:                               # %ctrl5
	cmpl	$6, %eax
	je	.LBB62_7
	jmp	.LBB62_8
.Lfunc_end62:
	.size	remove_frame_from_dpb, .Lfunc_end62-remove_frame_from_dpb
	.cfi_endproc
                                        # -- End function
	.p2align	4, 0x90         # -- Begin function output_one_frame_from_dpb
	.type	output_one_frame_from_dpb,@function
output_one_frame_from_dpb:              # @output_one_frame_from_dpb
	.cfi_startproc
# %bb.0:                                # %rand_bb
	pushq	%rbp
	.cfi_def_cfa_offset 16
	.cfi_offset %rbp, -16
	movq	%rsp, %rbp
	.cfi_def_cfa_register %rbp
	callq	get_urand
	cmpl	$0, %eax
	jne	.LBB63_2
# %bb.1:                                # %func_output_one_frame_from_dpb.57
	callq	output_one_frame_from_dpb.57
	popq	%rbp
	.cfi_def_cfa %rsp, 8
	retq
.LBB63_2:                               # %func_output_one_frame_from_dpb.183
	.cfi_def_cfa %rbp, 16
	callq	output_one_frame_from_dpb.183
	popq	%rbp
	.cfi_def_cfa %rsp, 8
	retq
.Lfunc_end63:
	.size	output_one_frame_from_dpb, .Lfunc_end63-output_one_frame_from_dpb
	.cfi_endproc
                                        # -- End function
	.p2align	4, 0x90         # -- Begin function is_used_for_reference.1
	.type	is_used_for_reference.1,@function
is_used_for_reference.1:                # @is_used_for_reference.1
	.cfi_startproc
# %bb.0:                                # %entry
	pushq	%rbp
	.cfi_def_cfa_offset 16
	.cfi_offset %rbp, -16
	movq	%rsp, %rbp
	.cfi_def_cfa_register %rbp
	pushq	%rbx
	subq	$24, %rsp
	.cfi_offset %rbx, -24
	movl	$256795796, -28(%rbp)   # imm = 0xF4E6494
	movq	%rdi, -24(%rbp)
	movq	-24(%rbp), %rax
	cmpl	$0, 4(%rax)
	je	.LBB64_2
# %bb.1:                                # %if.then
	movl	$1, -12(%rbp)
	jmp	.LBB64_17
.LBB64_2:                               # %if.end
	movq	-24(%rbp), %rax
	cmpl	$3, (%rax)
	jne	.LBB64_6
# %bb.3:                                # %if.then1
	movq	-24(%rbp), %rax
	movq	40(%rax), %rax
	cmpl	$0, 6380(%rax)
	je	.LBB64_5
# %bb.4:                                # %if.then3
	movl	$1, -12(%rbp)
	jmp	.LBB64_17
.LBB64_5:                               # %if.end4
	jmp	.LBB64_6
.LBB64_6:                               # %if.end5
	movq	active_sps, %rax
	cmpl	$0, 1148(%rax)
	jne	.LBB64_16
# %bb.7:                                # %if.then7
	movq	-24(%rbp), %rax
	movl	(%rax), %eax
	andl	$1, %eax
	cmpl	$0, %eax
	je	.LBB64_11
# %bb.8:                                # %if.then10
	movq	-24(%rbp), %rax
	movq	48(%rax), %rax
	cmpl	$0, 6380(%rax)
	je	.LBB64_10
# %bb.9:                                # %if.then13
	movl	$1, -12(%rbp)
	jmp	.LBB64_17
.LBB64_10:                              # %if.end14
	jmp	.LBB64_11
.LBB64_11:                              # %if.end15
	movq	-24(%rbp), %rax
	movl	(%rax), %eax
	andl	$2, %eax
	cmpl	$0, %eax
	je	.LBB64_15
# %bb.12:                               # %if.then19
	movq	-24(%rbp), %rax
	movq	56(%rax), %rax
	cmpl	$0, 6380(%rax)
	je	.LBB64_14
# %bb.13:                               # %if.then22
	movl	$1, -12(%rbp)
	jmp	.LBB64_17
.LBB64_14:                              # %if.end23
	jmp	.LBB64_15
.LBB64_15:                              # %if.end24
	jmp	.LBB64_16
.LBB64_16:                              # %if.end25
	movl	$0, -12(%rbp)
.LBB64_17:                              # %return
	movl	-12(%rbp), %ebx
	cmpl	$256795796, -28(%rbp)   # imm = 0xF4E6494
	jne	.LBB64_19
.LBB64_18:
	movl	%ebx, %eax
	addq	$24, %rsp
	popq	%rbx
	popq	%rbp
	.cfi_def_cfa %rsp, 8
	retq
.LBB64_19:                              # %func_exit
	.cfi_def_cfa %rbp, 16
	callq	detect_breach
	jmp	.LBB64_18
.Lfunc_end64:
	.size	is_used_for_reference.1, .Lfunc_end64-is_used_for_reference.1
	.cfi_endproc
                                        # -- End function
	.globl	init_lists.2            # -- Begin function init_lists.2
	.p2align	4, 0x90
	.type	init_lists.2,@function
init_lists.2:                           # @init_lists.2
	.cfi_startproc
# %bb.0:                                # %entry
	pushq	%rbp
	.cfi_def_cfa_offset 16
	.cfi_offset %rbp, -16
	movq	%rsp, %rbp
	.cfi_def_cfa_register %rbp
	subq	$96, %rsp
	movl	$546291638, -76(%rbp)   # imm = 0x208FBFB6
	movl	%edi, -52(%rbp)
	movl	%esi, -20(%rbp)
	movl	$0, -44(%rbp)
	movl	$0, -48(%rbp)
	movl	log2_max_frame_num_minus4, %ecx
	addl	$4, %ecx
                                        # kill: def $cl killed $ecx
	movl	$1, %eax
	shll	%cl, %eax
	movl	%eax, -68(%rbp)
	movl	$0, -8(%rbp)
	movl	$0, -16(%rbp)
	movl	$0, -24(%rbp)
	cmpl	$0, -20(%rbp)
	jne	.LBB65_14
# %bb.1:                                # %if.then
	movl	$0, -4(%rbp)
.LBB65_2:                               # %for.cond
                                        # =>This Inner Loop Header: Depth=1
	movl	-4(%rbp), %eax
	cmpl	dpb+32, %eax
	jae	.LBB65_13
# %bb.3:                                # %for.body
                                        #   in Loop: Header=BB65_2 Depth=1
	movq	dpb+8, %rax
	movl	-4(%rbp), %ecx
	movq	(%rax,%rcx,8), %rax
	cmpl	$3, (%rax)
	jne	.LBB65_11
# %bb.4:                                # %if.then3
                                        #   in Loop: Header=BB65_2 Depth=1
	movq	dpb+8, %rax
	movl	-4(%rbp), %ecx
	movq	(%rax,%rcx,8), %rax
	movq	40(%rax), %rax
	cmpl	$0, 6380(%rax)
	je	.LBB65_10
# %bb.5:                                # %land.lhs.true
                                        #   in Loop: Header=BB65_2 Depth=1
	movq	dpb+8, %rax
	movl	-4(%rbp), %ecx
	movq	(%rax,%rcx,8), %rax
	movq	40(%rax), %rax
	cmpl	$0, 6376(%rax)
	jne	.LBB65_10
# %bb.6:                                # %if.then10
                                        #   in Loop: Header=BB65_2 Depth=1
	movq	dpb+8, %rax
	movl	-4(%rbp), %ecx
	movq	(%rax,%rcx,8), %rax
	movl	20(%rax), %eax
	movq	img, %rcx
	cmpl	72464(%rcx), %eax
	jbe	.LBB65_8
# %bb.7:                                # %if.then15
                                        #   in Loop: Header=BB65_2 Depth=1
	movq	dpb+8, %rax
	movl	-4(%rbp), %ecx
	movq	(%rax,%rcx,8), %rax
	movl	20(%rax), %eax
	subl	-68(%rbp), %eax
	movq	dpb+8, %rcx
	movl	-4(%rbp), %edx
	movq	(%rcx,%rdx,8), %rcx
	movl	%eax, 24(%rcx)
	jmp	.LBB65_9
.LBB65_8:                               # %if.else
                                        #   in Loop: Header=BB65_2 Depth=1
	movq	dpb+8, %rax
	movl	-4(%rbp), %ecx
	movq	(%rax,%rcx,8), %rax
	movl	20(%rax), %eax
	movq	dpb+8, %rcx
	movl	-4(%rbp), %edx
	movq	(%rcx,%rdx,8), %rcx
	movl	%eax, 24(%rcx)
.LBB65_9:                               # %if.end
                                        #   in Loop: Header=BB65_2 Depth=1
	movq	dpb+8, %rax
	movl	-4(%rbp), %ecx
	movq	(%rax,%rcx,8), %rax
	movl	24(%rax), %eax
	movq	dpb+8, %rcx
	movl	-4(%rbp), %edx
	movq	(%rcx,%rdx,8), %rcx
	movq	40(%rcx), %rcx
	movl	%eax, 6364(%rcx)
	movl	-8(%rbp), %eax
	movq	dpb+8, %rcx
	movl	-4(%rbp), %edx
	movq	(%rcx,%rdx,8), %rcx
	movq	40(%rcx), %rcx
	movl	%eax, 20(%rcx)
.LBB65_10:                              # %if.end36
                                        #   in Loop: Header=BB65_2 Depth=1
	jmp	.LBB65_11
.LBB65_11:                              # %if.end37
                                        #   in Loop: Header=BB65_2 Depth=1
	jmp	.LBB65_12
.LBB65_12:                              # %for.inc
                                        #   in Loop: Header=BB65_2 Depth=1
	movl	-4(%rbp), %eax
	addl	$1, %eax
	movl	%eax, -4(%rbp)
	jmp	.LBB65_2
.LBB65_13:                              # %for.end
	jmp	.LBB65_31
.LBB65_14:                              # %if.else38
	cmpl	$1, -20(%rbp)
	jne	.LBB65_16
# %bb.15:                               # %if.then40
	movl	$1, -44(%rbp)
	movl	$0, -48(%rbp)
	jmp	.LBB65_17
.LBB65_16:                              # %if.else41
	movl	$0, -44(%rbp)
	movl	$1, -48(%rbp)
.LBB65_17:                              # %if.end42
	movl	$0, -4(%rbp)
.LBB65_18:                              # %for.cond43
                                        # =>This Inner Loop Header: Depth=1
	movl	-4(%rbp), %eax
	cmpl	dpb+32, %eax
	jae	.LBB65_30
# %bb.19:                               # %for.body45
                                        #   in Loop: Header=BB65_18 Depth=1
	movq	dpb+8, %rax
	movl	-4(%rbp), %ecx
	movq	(%rax,%rcx,8), %rax
	cmpl	$0, 4(%rax)
	je	.LBB65_28
# %bb.20:                               # %if.then49
                                        #   in Loop: Header=BB65_18 Depth=1
	movq	dpb+8, %rax
	movl	-4(%rbp), %ecx
	movq	(%rax,%rcx,8), %rax
	movl	20(%rax), %eax
	movq	img, %rcx
	cmpl	72464(%rcx), %eax
	jbe	.LBB65_22
# %bb.21:                               # %if.then55
                                        #   in Loop: Header=BB65_18 Depth=1
	movq	dpb+8, %rax
	movl	-4(%rbp), %ecx
	movq	(%rax,%rcx,8), %rax
	movl	20(%rax), %eax
	subl	-68(%rbp), %eax
	movq	dpb+8, %rcx
	movl	-4(%rbp), %edx
	movq	(%rcx,%rdx,8), %rcx
	movl	%eax, 24(%rcx)
	jmp	.LBB65_23
.LBB65_22:                              # %if.else63
                                        #   in Loop: Header=BB65_18 Depth=1
	movq	dpb+8, %rax
	movl	-4(%rbp), %ecx
	movq	(%rax,%rcx,8), %rax
	movl	20(%rax), %eax
	movq	dpb+8, %rcx
	movl	-4(%rbp), %edx
	movq	(%rcx,%rdx,8), %rcx
	movl	%eax, 24(%rcx)
.LBB65_23:                              # %if.end70
                                        #   in Loop: Header=BB65_18 Depth=1
	movq	dpb+8, %rax
	movl	-4(%rbp), %ecx
	movq	(%rax,%rcx,8), %rax
	movl	4(%rax), %eax
	andl	$1, %eax
	cmpl	$0, %eax
	je	.LBB65_25
# %bb.24:                               # %if.then75
                                        #   in Loop: Header=BB65_18 Depth=1
	movq	dpb+8, %rax
	movl	-4(%rbp), %ecx
	movq	(%rax,%rcx,8), %rax
	movl	24(%rax), %eax
	shll	$1, %eax
	addl	-44(%rbp), %eax
	movq	dpb+8, %rcx
	movl	-4(%rbp), %edx
	movq	(%rcx,%rdx,8), %rcx
	movq	48(%rcx), %rcx
	movl	%eax, 6364(%rcx)
.LBB65_25:                              # %if.end83
                                        #   in Loop: Header=BB65_18 Depth=1
	movq	dpb+8, %rax
	movl	-4(%rbp), %ecx
	movq	(%rax,%rcx,8), %rax
	movl	4(%rax), %eax
	andl	$2, %eax
	cmpl	$0, %eax
	je	.LBB65_27
# %bb.26:                               # %if.then89
                                        #   in Loop: Header=BB65_18 Depth=1
	movq	dpb+8, %rax
	movl	-4(%rbp), %ecx
	movq	(%rax,%rcx,8), %rax
	movl	24(%rax), %eax
	shll	$1, %eax
	addl	-48(%rbp), %eax
	movq	dpb+8, %rcx
	movl	-4(%rbp), %edx
	movq	(%rcx,%rdx,8), %rcx
	movq	56(%rcx), %rcx
	movl	%eax, 6364(%rcx)
.LBB65_27:                              # %if.end98
                                        #   in Loop: Header=BB65_18 Depth=1
	jmp	.LBB65_28
.LBB65_28:                              # %if.end99
                                        #   in Loop: Header=BB65_18 Depth=1
	jmp	.LBB65_29
.LBB65_29:                              # %for.inc100
                                        #   in Loop: Header=BB65_18 Depth=1
	movl	-4(%rbp), %eax
	addl	$1, %eax
	movl	%eax, -4(%rbp)
	jmp	.LBB65_18
.LBB65_30:                              # %for.end102
	jmp	.LBB65_31
.LBB65_31:                              # %if.end103
	cmpl	$2, -52(%rbp)
	je	.LBB65_33
# %bb.32:                               # %lor.lhs.false
	cmpl	$4, -52(%rbp)
	jne	.LBB65_34
.LBB65_33:                              # %if.then106
	movl	$0, listXsize
	movl	$0, listXsize+4
	jmp	.LBB65_181
.LBB65_34:                              # %if.end107
	cmpl	$0, -52(%rbp)
	je	.LBB65_36
# %bb.35:                               # %lor.lhs.false109
	cmpl	$3, -52(%rbp)
	jne	.LBB65_75
.LBB65_36:                              # %if.then111
	cmpl	$0, -20(%rbp)
	jne	.LBB65_55
# %bb.37:                               # %if.then113
	movl	$0, -4(%rbp)
.LBB65_38:                              # %for.cond114
                                        # =>This Inner Loop Header: Depth=1
	movl	-4(%rbp), %eax
	cmpl	dpb+32, %eax
	jae	.LBB65_46
# %bb.39:                               # %for.body116
                                        #   in Loop: Header=BB65_38 Depth=1
	movq	dpb+8, %rax
	movl	-4(%rbp), %ecx
	movq	(%rax,%rcx,8), %rax
	cmpl	$3, (%rax)
	jne	.LBB65_44
# %bb.40:                               # %if.then121
                                        #   in Loop: Header=BB65_38 Depth=1
	movq	dpb+8, %rax
	movl	-4(%rbp), %ecx
	movq	(%rax,%rcx,8), %rax
	movq	40(%rax), %rax
	cmpl	$0, 6380(%rax)
	je	.LBB65_43
# %bb.41:                               # %land.lhs.true127
                                        #   in Loop: Header=BB65_38 Depth=1
	movq	dpb+8, %rax
	movl	-4(%rbp), %ecx
	movq	(%rax,%rcx,8), %rax
	movq	40(%rax), %rax
	cmpl	$0, 6376(%rax)
	jne	.LBB65_43
# %bb.42:                               # %if.then133
                                        #   in Loop: Header=BB65_38 Depth=1
	movq	dpb+8, %rax
	movl	-4(%rbp), %ecx
	movq	(%rax,%rcx,8), %rax
	movq	40(%rax), %rax
	movq	listX, %rcx
	movl	-8(%rbp), %edx
	movl	%edx, %esi
	addl	$1, %esi
	movl	%esi, -8(%rbp)
	movslq	%edx, %rdx
	movq	%rax, (%rcx,%rdx,8)
.LBB65_43:                              # %if.end140
                                        #   in Loop: Header=BB65_38 Depth=1
	jmp	.LBB65_44
.LBB65_44:                              # %if.end141
                                        #   in Loop: Header=BB65_38 Depth=1
	jmp	.LBB65_45
.LBB65_45:                              # %for.inc142
                                        #   in Loop: Header=BB65_38 Depth=1
	movl	-4(%rbp), %eax
	addl	$1, %eax
	movl	%eax, -4(%rbp)
	jmp	.LBB65_38
.LBB65_46:                              # %for.end144
	movq	listX, %rdi
	movslq	-8(%rbp), %rsi
	movl	$8, %edx
	movabsq	$compare_pic_by_pic_num_desc, %rcx
	callq	qsort
	movl	-8(%rbp), %eax
	movl	%eax, listXsize
	movl	$0, -4(%rbp)
.LBB65_47:                              # %for.cond145
                                        # =>This Inner Loop Header: Depth=1
	movl	-4(%rbp), %eax
	cmpl	dpb+36, %eax
	jae	.LBB65_54
# %bb.48:                               # %for.body148
                                        #   in Loop: Header=BB65_47 Depth=1
	movq	dpb+16, %rax
	movl	-4(%rbp), %ecx
	movq	(%rax,%rcx,8), %rax
	cmpl	$3, (%rax)
	jne	.LBB65_52
# %bb.49:                               # %if.then154
                                        #   in Loop: Header=BB65_47 Depth=1
	movq	dpb+16, %rax
	movl	-4(%rbp), %ecx
	movq	(%rax,%rcx,8), %rax
	movq	40(%rax), %rax
	cmpl	$0, 6376(%rax)
	je	.LBB65_51
# %bb.50:                               # %if.then160
                                        #   in Loop: Header=BB65_47 Depth=1
	movq	dpb+16, %rax
	movl	-4(%rbp), %ecx
	movq	(%rax,%rcx,8), %rax
	movq	40(%rax), %rax
	movl	6372(%rax), %eax
	movq	dpb+16, %rcx
	movl	-4(%rbp), %edx
	movq	(%rcx,%rdx,8), %rcx
	movq	40(%rcx), %rcx
	movl	%eax, 6368(%rcx)
	movl	-8(%rbp), %eax
	movq	dpb+16, %rcx
	movl	-4(%rbp), %edx
	movq	(%rcx,%rdx,8), %rcx
	movq	40(%rcx), %rcx
	movl	%eax, 20(%rcx)
	movq	dpb+16, %rax
	movl	-4(%rbp), %ecx
	movq	(%rax,%rcx,8), %rax
	movq	40(%rax), %rax
	movq	listX, %rcx
	movl	-8(%rbp), %edx
	movl	%edx, %esi
	addl	$1, %esi
	movl	%esi, -8(%rbp)
	movslq	%edx, %rdx
	movq	%rax, (%rcx,%rdx,8)
.LBB65_51:                              # %if.end177
                                        #   in Loop: Header=BB65_47 Depth=1
	jmp	.LBB65_52
.LBB65_52:                              # %if.end178
                                        #   in Loop: Header=BB65_47 Depth=1
	jmp	.LBB65_53
.LBB65_53:                              # %for.inc179
                                        #   in Loop: Header=BB65_47 Depth=1
	movl	-4(%rbp), %eax
	addl	$1, %eax
	movl	%eax, -4(%rbp)
	jmp	.LBB65_47
.LBB65_54:                              # %for.end181
	movq	listX, %rdi
	movslq	listXsize, %rax
	shlq	$3, %rax
	addq	%rax, %rdi
	movl	-8(%rbp), %eax
	subl	listXsize, %eax
	movslq	%eax, %rsi
	movl	$8, %edx
	movabsq	$compare_pic_by_lt_pic_num_asc, %rcx
	callq	qsort
	movl	-8(%rbp), %eax
	movl	%eax, listXsize
	jmp	.LBB65_74
.LBB65_55:                              # %if.else186
	movl	dpb+24, %edi
	movl	$8, %esi
	callq	calloc
	xorl	%ecx, %ecx
	movq	%rax, -32(%rbp)
	cmpq	-32(%rbp), %rcx
	jne	.LBB65_57
# %bb.56:                               # %if.then190
	movabsq	$.L.str.9, %rdi
	callq	no_mem_exit
.LBB65_57:                              # %if.end191
	movl	dpb+24, %edi
	movl	$8, %esi
	callq	calloc
	xorl	%ecx, %ecx
	movq	%rax, -40(%rbp)
	cmpq	-40(%rbp), %rcx
	jne	.LBB65_59
# %bb.58:                               # %if.then196
	movabsq	$.L.str.10, %rdi
	callq	no_mem_exit
.LBB65_59:                              # %if.end197
	movl	$0, -4(%rbp)
.LBB65_60:                              # %for.cond198
                                        # =>This Inner Loop Header: Depth=1
	movl	-4(%rbp), %eax
	cmpl	dpb+32, %eax
	jae	.LBB65_65
# %bb.61:                               # %for.body201
                                        #   in Loop: Header=BB65_60 Depth=1
	movq	dpb+8, %rax
	movl	-4(%rbp), %ecx
	movq	(%rax,%rcx,8), %rax
	cmpl	$0, 4(%rax)
	je	.LBB65_63
# %bb.62:                               # %if.then206
                                        #   in Loop: Header=BB65_60 Depth=1
	movq	dpb+8, %rax
	movl	-4(%rbp), %ecx
	movq	(%rax,%rcx,8), %rax
	movq	-32(%rbp), %rcx
	movl	-8(%rbp), %edx
	movl	%edx, %esi
	addl	$1, %esi
	movl	%esi, -8(%rbp)
	movslq	%edx, %rdx
	movq	%rax, (%rcx,%rdx,8)
.LBB65_63:                              # %if.end212
                                        #   in Loop: Header=BB65_60 Depth=1
	jmp	.LBB65_64
.LBB65_64:                              # %for.inc213
                                        #   in Loop: Header=BB65_60 Depth=1
	movl	-4(%rbp), %eax
	addl	$1, %eax
	movl	%eax, -4(%rbp)
	jmp	.LBB65_60
.LBB65_65:                              # %for.end215
	movq	-32(%rbp), %rdi
	movslq	-8(%rbp), %rsi
	movl	$8, %edx
	movabsq	$compare_fs_by_frame_num_desc, %rcx
	callq	qsort
	movl	$0, listXsize
	movl	-20(%rbp), %edi
	movq	-32(%rbp), %rsi
	movl	-8(%rbp), %edx
	movq	listX, %rcx
	movabsq	$listXsize, %r8
	xorl	%r9d, %r9d
	callq	gen_pic_list_from_frame_list
	movl	$0, -4(%rbp)
.LBB65_66:                              # %for.cond217
                                        # =>This Inner Loop Header: Depth=1
	movl	-4(%rbp), %eax
	cmpl	dpb+36, %eax
	jae	.LBB65_73
# %bb.67:                               # %for.body220
                                        #   in Loop: Header=BB65_66 Depth=1
	movq	dpb+16, %rax
	movl	-4(%rbp), %ecx
	movq	(%rax,%rcx,8), %rax
	movq	-40(%rbp), %rcx
	movl	-24(%rbp), %edx
	movl	%edx, %esi
	addl	$1, %esi
	movl	%esi, -24(%rbp)
	movslq	%edx, %rdx
	movq	%rax, (%rcx,%rdx,8)
	movq	dpb+16, %rax
	movl	-4(%rbp), %ecx
	movq	(%rax,%rcx,8), %rax
	movl	8(%rax), %eax
	andl	$1, %eax
	cmpl	$0, %eax
	je	.LBB65_69
# %bb.68:                               # %if.then231
                                        #   in Loop: Header=BB65_66 Depth=1
	movq	dpb+16, %rax
	movl	-4(%rbp), %ecx
	movq	(%rax,%rcx,8), %rax
	movq	48(%rax), %rax
	movl	6372(%rax), %eax
	shll	$1, %eax
	addl	-44(%rbp), %eax
	movq	dpb+16, %rcx
	movl	-4(%rbp), %edx
	movq	(%rcx,%rdx,8), %rcx
	movq	48(%rcx), %rcx
	movl	%eax, 6368(%rcx)
.LBB65_69:                              # %if.end242
                                        #   in Loop: Header=BB65_66 Depth=1
	movq	dpb+16, %rax
	movl	-4(%rbp), %ecx
	movq	(%rax,%rcx,8), %rax
	movl	8(%rax), %eax
	andl	$2, %eax
	cmpl	$0, %eax
	je	.LBB65_71
# %bb.70:                               # %if.then248
                                        #   in Loop: Header=BB65_66 Depth=1
	movq	dpb+16, %rax
	movl	-4(%rbp), %ecx
	movq	(%rax,%rcx,8), %rax
	movq	56(%rax), %rax
	movl	6372(%rax), %eax
	shll	$1, %eax
	addl	-48(%rbp), %eax
	movq	dpb+16, %rcx
	movl	-4(%rbp), %edx
	movq	(%rcx,%rdx,8), %rcx
	movq	56(%rcx), %rcx
	movl	%eax, 6368(%rcx)
.LBB65_71:                              # %if.end259
                                        #   in Loop: Header=BB65_66 Depth=1
	jmp	.LBB65_72
.LBB65_72:                              # %for.inc260
                                        #   in Loop: Header=BB65_66 Depth=1
	movl	-4(%rbp), %eax
	addl	$1, %eax
	movl	%eax, -4(%rbp)
	jmp	.LBB65_66
.LBB65_73:                              # %for.end262
	movq	-40(%rbp), %rdi
	movslq	-24(%rbp), %rsi
	movl	$8, %edx
	movabsq	$compare_fs_by_lt_pic_idx_asc, %rcx
	callq	qsort
	movl	-20(%rbp), %edi
	movq	-40(%rbp), %rsi
	movl	-24(%rbp), %edx
	movq	listX, %rcx
	movabsq	$listXsize, %r8
	movl	$1, %r9d
	callq	gen_pic_list_from_frame_list
	movq	-32(%rbp), %rdi
	callq	free
	movq	-40(%rbp), %rdi
	callq	free
.LBB65_74:                              # %if.end264
	movl	$0, listXsize+4
	jmp	.LBB65_155
.LBB65_75:                              # %if.else265
	cmpl	$0, -20(%rbp)
	jne	.LBB65_115
# %bb.76:                               # %if.then268
	movl	$0, -4(%rbp)
.LBB65_77:                              # %for.cond269
                                        # =>This Inner Loop Header: Depth=1
	movl	-4(%rbp), %eax
	cmpl	dpb+32, %eax
	jae	.LBB65_87
# %bb.78:                               # %for.body272
                                        #   in Loop: Header=BB65_77 Depth=1
	movq	dpb+8, %rax
	movl	-4(%rbp), %ecx
	movq	(%rax,%rcx,8), %rax
	cmpl	$3, (%rax)
	jne	.LBB65_85
# %bb.79:                               # %if.then278
                                        #   in Loop: Header=BB65_77 Depth=1
	movq	dpb+8, %rax
	movl	-4(%rbp), %ecx
	movq	(%rax,%rcx,8), %rax
	movq	40(%rax), %rax
	cmpl	$0, 6380(%rax)
	je	.LBB65_84
# %bb.80:                               # %land.lhs.true284
                                        #   in Loop: Header=BB65_77 Depth=1
	movq	dpb+8, %rax
	movl	-4(%rbp), %ecx
	movq	(%rax,%rcx,8), %rax
	movq	40(%rax), %rax
	cmpl	$0, 6376(%rax)
	jne	.LBB65_84
# %bb.81:                               # %if.then290
                                        #   in Loop: Header=BB65_77 Depth=1
	movq	img, %rax
	movl	72456(%rax), %eax
	movq	dpb+8, %rcx
	movl	-4(%rbp), %edx
	movq	(%rcx,%rdx,8), %rcx
	movq	40(%rcx), %rcx
	cmpl	4(%rcx), %eax
	jle	.LBB65_83
# %bb.82:                               # %if.then296
                                        #   in Loop: Header=BB65_77 Depth=1
	movl	-8(%rbp), %eax
	movq	dpb+8, %rcx
	movl	-4(%rbp), %edx
	movq	(%rcx,%rdx,8), %rcx
	movq	40(%rcx), %rcx
	movl	%eax, 20(%rcx)
	movq	dpb+8, %rax
	movl	-4(%rbp), %ecx
	movq	(%rax,%rcx,8), %rax
	movq	40(%rax), %rax
	movq	listX, %rcx
	movl	-8(%rbp), %edx
	movl	%edx, %esi
	addl	$1, %esi
	movl	%esi, -8(%rbp)
	movslq	%edx, %rdx
	movq	%rax, (%rcx,%rdx,8)
.LBB65_83:                              # %if.end307
                                        #   in Loop: Header=BB65_77 Depth=1
	jmp	.LBB65_84
.LBB65_84:                              # %if.end308
                                        #   in Loop: Header=BB65_77 Depth=1
	jmp	.LBB65_85
.LBB65_85:                              # %if.end309
                                        #   in Loop: Header=BB65_77 Depth=1
	jmp	.LBB65_86
.LBB65_86:                              # %for.inc310
                                        #   in Loop: Header=BB65_77 Depth=1
	movl	-4(%rbp), %eax
	addl	$1, %eax
	movl	%eax, -4(%rbp)
	jmp	.LBB65_77
.LBB65_87:                              # %for.end312
	movq	listX, %rdi
	movslq	-8(%rbp), %rsi
	movl	$8, %edx
	movabsq	$compare_pic_by_poc_desc, %rcx
	callq	qsort
	movl	-8(%rbp), %eax
	movl	%eax, -16(%rbp)
	movl	$0, -4(%rbp)
.LBB65_88:                              # %for.cond314
                                        # =>This Inner Loop Header: Depth=1
	movl	-4(%rbp), %eax
	cmpl	dpb+32, %eax
	jae	.LBB65_98
# %bb.89:                               # %for.body317
                                        #   in Loop: Header=BB65_88 Depth=1
	movq	dpb+8, %rax
	movl	-4(%rbp), %ecx
	movq	(%rax,%rcx,8), %rax
	cmpl	$3, (%rax)
	jne	.LBB65_96
# %bb.90:                               # %if.then323
                                        #   in Loop: Header=BB65_88 Depth=1
	movq	dpb+8, %rax
	movl	-4(%rbp), %ecx
	movq	(%rax,%rcx,8), %rax
	movq	40(%rax), %rax
	cmpl	$0, 6380(%rax)
	je	.LBB65_95
# %bb.91:                               # %land.lhs.true329
                                        #   in Loop: Header=BB65_88 Depth=1
	movq	dpb+8, %rax
	movl	-4(%rbp), %ecx
	movq	(%rax,%rcx,8), %rax
	movq	40(%rax), %rax
	cmpl	$0, 6376(%rax)
	jne	.LBB65_95
# %bb.92:                               # %if.then335
                                        #   in Loop: Header=BB65_88 Depth=1
	movq	img, %rax
	movl	72456(%rax), %eax
	movq	dpb+8, %rcx
	movl	-4(%rbp), %edx
	movq	(%rcx,%rdx,8), %rcx
	movq	40(%rcx), %rcx
	cmpl	4(%rcx), %eax
	jge	.LBB65_94
# %bb.93:                               # %if.then343
                                        #   in Loop: Header=BB65_88 Depth=1
	movl	-8(%rbp), %eax
	movq	dpb+8, %rcx
	movl	-4(%rbp), %edx
	movq	(%rcx,%rdx,8), %rcx
	movq	40(%rcx), %rcx
	movl	%eax, 20(%rcx)
	movq	dpb+8, %rax
	movl	-4(%rbp), %ecx
	movq	(%rax,%rcx,8), %rax
	movq	40(%rax), %rax
	movq	listX, %rcx
	movl	-8(%rbp), %edx
	movl	%edx, %esi
	addl	$1, %esi
	movl	%esi, -8(%rbp)
	movslq	%edx, %rdx
	movq	%rax, (%rcx,%rdx,8)
.LBB65_94:                              # %if.end354
                                        #   in Loop: Header=BB65_88 Depth=1
	jmp	.LBB65_95
.LBB65_95:                              # %if.end355
                                        #   in Loop: Header=BB65_88 Depth=1
	jmp	.LBB65_96
.LBB65_96:                              # %if.end356
                                        #   in Loop: Header=BB65_88 Depth=1
	jmp	.LBB65_97
.LBB65_97:                              # %for.inc357
                                        #   in Loop: Header=BB65_88 Depth=1
	movl	-4(%rbp), %eax
	addl	$1, %eax
	movl	%eax, -4(%rbp)
	jmp	.LBB65_88
.LBB65_98:                              # %for.end359
	movq	listX, %rdi
	movslq	-16(%rbp), %rax
	shlq	$3, %rax
	addq	%rax, %rdi
	movl	-8(%rbp), %eax
	subl	-16(%rbp), %eax
	movslq	%eax, %rsi
	movl	$8, %edx
	movabsq	$compare_pic_by_poc_asc, %rcx
	callq	qsort
	movl	$0, -12(%rbp)
.LBB65_99:                              # %for.cond364
                                        # =>This Inner Loop Header: Depth=1
	movl	-12(%rbp), %eax
	cmpl	-16(%rbp), %eax
	jge	.LBB65_102
# %bb.100:                              # %for.body367
                                        #   in Loop: Header=BB65_99 Depth=1
	movq	listX, %rax
	movslq	-12(%rbp), %rcx
	movq	(%rax,%rcx,8), %rax
	movq	listX+8, %rcx
	movl	-8(%rbp), %edx
	subl	-16(%rbp), %edx
	addl	-12(%rbp), %edx
	movslq	%edx, %rdx
	movq	%rax, (%rcx,%rdx,8)
# %bb.101:                              # %for.inc374
                                        #   in Loop: Header=BB65_99 Depth=1
	movl	-12(%rbp), %eax
	addl	$1, %eax
	movl	%eax, -12(%rbp)
	jmp	.LBB65_99
.LBB65_102:                             # %for.end376
	movl	-16(%rbp), %eax
	movl	%eax, -12(%rbp)
.LBB65_103:                             # %for.cond377
                                        # =>This Inner Loop Header: Depth=1
	movl	-12(%rbp), %eax
	cmpl	-8(%rbp), %eax
	jge	.LBB65_106
# %bb.104:                              # %for.body380
                                        #   in Loop: Header=BB65_103 Depth=1
	movq	listX, %rax
	movslq	-12(%rbp), %rcx
	movq	(%rax,%rcx,8), %rax
	movq	listX+8, %rcx
	movl	-12(%rbp), %edx
	subl	-16(%rbp), %edx
	movslq	%edx, %rdx
	movq	%rax, (%rcx,%rdx,8)
# %bb.105:                              # %for.inc386
                                        #   in Loop: Header=BB65_103 Depth=1
	movl	-12(%rbp), %eax
	addl	$1, %eax
	movl	%eax, -12(%rbp)
	jmp	.LBB65_103
.LBB65_106:                             # %for.end388
	movl	-8(%rbp), %eax
	movl	%eax, listXsize+4
	movl	%eax, listXsize
	movl	$0, -4(%rbp)
.LBB65_107:                             # %for.cond389
                                        # =>This Inner Loop Header: Depth=1
	movl	-4(%rbp), %eax
	cmpl	dpb+36, %eax
	jae	.LBB65_114
# %bb.108:                              # %for.body392
                                        #   in Loop: Header=BB65_107 Depth=1
	movq	dpb+16, %rax
	movl	-4(%rbp), %ecx
	movq	(%rax,%rcx,8), %rax
	cmpl	$3, (%rax)
	jne	.LBB65_112
# %bb.109:                              # %if.then398
                                        #   in Loop: Header=BB65_107 Depth=1
	movq	dpb+16, %rax
	movl	-4(%rbp), %ecx
	movq	(%rax,%rcx,8), %rax
	movq	40(%rax), %rax
	cmpl	$0, 6376(%rax)
	je	.LBB65_111
# %bb.110:                              # %if.then404
                                        #   in Loop: Header=BB65_107 Depth=1
	movq	dpb+16, %rax
	movl	-4(%rbp), %ecx
	movq	(%rax,%rcx,8), %rax
	movq	40(%rax), %rax
	movl	6372(%rax), %eax
	movq	dpb+16, %rcx
	movl	-4(%rbp), %edx
	movq	(%rcx,%rdx,8), %rcx
	movq	40(%rcx), %rcx
	movl	%eax, 6368(%rcx)
	movl	-8(%rbp), %eax
	movq	dpb+16, %rcx
	movl	-4(%rbp), %edx
	movq	(%rcx,%rdx,8), %rcx
	movq	40(%rcx), %rcx
	movl	%eax, 20(%rcx)
	movq	dpb+16, %rax
	movl	-4(%rbp), %ecx
	movq	(%rax,%rcx,8), %rax
	movq	40(%rax), %rax
	movq	listX, %rcx
	movslq	-8(%rbp), %rdx
	movq	%rax, (%rcx,%rdx,8)
	movq	dpb+16, %rax
	movl	-4(%rbp), %ecx
	movq	(%rax,%rcx,8), %rax
	movq	40(%rax), %rax
	movq	listX+8, %rcx
	movl	-8(%rbp), %edx
	movl	%edx, %esi
	addl	$1, %esi
	movl	%esi, -8(%rbp)
	movslq	%edx, %rdx
	movq	%rax, (%rcx,%rdx,8)
.LBB65_111:                             # %if.end428
                                        #   in Loop: Header=BB65_107 Depth=1
	jmp	.LBB65_112
.LBB65_112:                             # %if.end429
                                        #   in Loop: Header=BB65_107 Depth=1
	jmp	.LBB65_113
.LBB65_113:                             # %for.inc430
                                        #   in Loop: Header=BB65_107 Depth=1
	movl	-4(%rbp), %eax
	addl	$1, %eax
	movl	%eax, -4(%rbp)
	jmp	.LBB65_107
.LBB65_114:                             # %for.end432
	movq	listX, %rdi
	movslq	listXsize, %rax
	shlq	$3, %rax
	addq	%rax, %rdi
	movl	-8(%rbp), %eax
	subl	listXsize, %eax
	movslq	%eax, %rsi
	movl	$8, %edx
	movabsq	$compare_pic_by_lt_pic_num_asc, %rcx
	callq	qsort
	movq	listX+8, %rdi
	movslq	listXsize, %rax
	shlq	$3, %rax
	addq	%rax, %rdi
	movl	-8(%rbp), %eax
	subl	listXsize, %eax
	movslq	%eax, %rsi
	movl	$8, %edx
	movabsq	$compare_pic_by_lt_pic_num_asc, %rcx
	callq	qsort
	movl	-8(%rbp), %eax
	movl	%eax, listXsize+4
	movl	%eax, listXsize
	jmp	.LBB65_154
.LBB65_115:                             # %if.else441
	movl	dpb+24, %edi
	movl	$8, %esi
	callq	calloc
	xorl	%ecx, %ecx
	movq	%rax, -32(%rbp)
	cmpq	-32(%rbp), %rcx
	jne	.LBB65_117
# %bb.116:                              # %if.then446
	movabsq	$.L.str.9, %rdi
	callq	no_mem_exit
.LBB65_117:                             # %if.end447
	movl	dpb+24, %edi
	movl	$8, %esi
	callq	calloc
	xorl	%ecx, %ecx
	movq	%rax, -64(%rbp)
	cmpq	-64(%rbp), %rcx
	jne	.LBB65_119
# %bb.118:                              # %if.then452
	movabsq	$.L.str.11, %rdi
	callq	no_mem_exit
.LBB65_119:                             # %if.end453
	movl	dpb+24, %edi
	movl	$8, %esi
	callq	calloc
	xorl	%ecx, %ecx
	movq	%rax, -40(%rbp)
	cmpq	-40(%rbp), %rcx
	jne	.LBB65_121
# %bb.120:                              # %if.then458
	movabsq	$.L.str.10, %rdi
	callq	no_mem_exit
.LBB65_121:                             # %if.end459
	movl	$0, listXsize
	movl	$1, listXsize+4
	movl	$0, -4(%rbp)
.LBB65_122:                             # %for.cond460
                                        # =>This Inner Loop Header: Depth=1
	movl	-4(%rbp), %eax
	cmpl	dpb+32, %eax
	jae	.LBB65_129
# %bb.123:                              # %for.body463
                                        #   in Loop: Header=BB65_122 Depth=1
	movq	dpb+8, %rax
	movl	-4(%rbp), %ecx
	movq	(%rax,%rcx,8), %rax
	cmpl	$0, (%rax)
	je	.LBB65_127
# %bb.124:                              # %if.then468
                                        #   in Loop: Header=BB65_122 Depth=1
	movq	img, %rax
	movl	72460(%rax), %eax
	movq	dpb+8, %rcx
	movl	-4(%rbp), %edx
	movq	(%rcx,%rdx,8), %rcx
	cmpl	36(%rcx), %eax
	jl	.LBB65_126
# %bb.125:                              # %if.then474
                                        #   in Loop: Header=BB65_122 Depth=1
	movq	dpb+8, %rax
	movl	-4(%rbp), %ecx
	movq	(%rax,%rcx,8), %rax
	movq	-32(%rbp), %rcx
	movl	-8(%rbp), %edx
	movl	%edx, %esi
	addl	$1, %esi
	movl	%esi, -8(%rbp)
	movslq	%edx, %rdx
	movq	%rax, (%rcx,%rdx,8)
.LBB65_126:                             # %if.end480
                                        #   in Loop: Header=BB65_122 Depth=1
	jmp	.LBB65_127
.LBB65_127:                             # %if.end481
                                        #   in Loop: Header=BB65_122 Depth=1
	jmp	.LBB65_128
.LBB65_128:                             # %for.inc482
                                        #   in Loop: Header=BB65_122 Depth=1
	movl	-4(%rbp), %eax
	addl	$1, %eax
	movl	%eax, -4(%rbp)
	jmp	.LBB65_122
.LBB65_129:                             # %for.end484
	movq	-32(%rbp), %rdi
	movslq	-8(%rbp), %rsi
	movl	$8, %edx
	movabsq	$compare_fs_by_poc_desc, %rcx
	callq	qsort
	movl	-8(%rbp), %eax
	movl	%eax, -16(%rbp)
	movl	$0, -4(%rbp)
.LBB65_130:                             # %for.cond486
                                        # =>This Inner Loop Header: Depth=1
	movl	-4(%rbp), %eax
	cmpl	dpb+32, %eax
	jae	.LBB65_137
# %bb.131:                              # %for.body489
                                        #   in Loop: Header=BB65_130 Depth=1
	movq	dpb+8, %rax
	movl	-4(%rbp), %ecx
	movq	(%rax,%rcx,8), %rax
	cmpl	$0, (%rax)
	je	.LBB65_135
# %bb.132:                              # %if.then494
                                        #   in Loop: Header=BB65_130 Depth=1
	movq	img, %rax
	movl	72460(%rax), %eax
	movq	dpb+8, %rcx
	movl	-4(%rbp), %edx
	movq	(%rcx,%rdx,8), %rcx
	cmpl	36(%rcx), %eax
	jge	.LBB65_134
# %bb.133:                              # %if.then501
                                        #   in Loop: Header=BB65_130 Depth=1
	movq	dpb+8, %rax
	movl	-4(%rbp), %ecx
	movq	(%rax,%rcx,8), %rax
	movq	-32(%rbp), %rcx
	movl	-8(%rbp), %edx
	movl	%edx, %esi
	addl	$1, %esi
	movl	%esi, -8(%rbp)
	movslq	%edx, %rdx
	movq	%rax, (%rcx,%rdx,8)
.LBB65_134:                             # %if.end507
                                        #   in Loop: Header=BB65_130 Depth=1
	jmp	.LBB65_135
.LBB65_135:                             # %if.end508
                                        #   in Loop: Header=BB65_130 Depth=1
	jmp	.LBB65_136
.LBB65_136:                             # %for.inc509
                                        #   in Loop: Header=BB65_130 Depth=1
	movl	-4(%rbp), %eax
	addl	$1, %eax
	movl	%eax, -4(%rbp)
	jmp	.LBB65_130
.LBB65_137:                             # %for.end511
	movq	-32(%rbp), %rdi
	movslq	-16(%rbp), %rax
	shlq	$3, %rax
	addq	%rax, %rdi
	movl	-8(%rbp), %eax
	subl	-16(%rbp), %eax
	movslq	%eax, %rsi
	movl	$8, %edx
	movabsq	$compare_fs_by_poc_asc, %rcx
	callq	qsort
	movl	$0, -12(%rbp)
.LBB65_138:                             # %for.cond516
                                        # =>This Inner Loop Header: Depth=1
	movl	-12(%rbp), %eax
	cmpl	-16(%rbp), %eax
	jge	.LBB65_141
# %bb.139:                              # %for.body519
                                        #   in Loop: Header=BB65_138 Depth=1
	movq	-32(%rbp), %rax
	movslq	-12(%rbp), %rcx
	movq	(%rax,%rcx,8), %rax
	movq	-64(%rbp), %rcx
	movl	-8(%rbp), %edx
	subl	-16(%rbp), %edx
	addl	-12(%rbp), %edx
	movslq	%edx, %rdx
	movq	%rax, (%rcx,%rdx,8)
# %bb.140:                              # %for.inc526
                                        #   in Loop: Header=BB65_138 Depth=1
	movl	-12(%rbp), %eax
	addl	$1, %eax
	movl	%eax, -12(%rbp)
	jmp	.LBB65_138
.LBB65_141:                             # %for.end528
	movl	-16(%rbp), %eax
	movl	%eax, -12(%rbp)
.LBB65_142:                             # %for.cond529
                                        # =>This Inner Loop Header: Depth=1
	movl	-12(%rbp), %eax
	cmpl	-8(%rbp), %eax
	jge	.LBB65_145
# %bb.143:                              # %for.body532
                                        #   in Loop: Header=BB65_142 Depth=1
	movq	-32(%rbp), %rax
	movslq	-12(%rbp), %rcx
	movq	(%rax,%rcx,8), %rax
	movq	-64(%rbp), %rcx
	movl	-12(%rbp), %edx
	subl	-16(%rbp), %edx
	movslq	%edx, %rdx
	movq	%rax, (%rcx,%rdx,8)
# %bb.144:                              # %for.inc538
                                        #   in Loop: Header=BB65_142 Depth=1
	movl	-12(%rbp), %eax
	addl	$1, %eax
	movl	%eax, -12(%rbp)
	jmp	.LBB65_142
.LBB65_145:                             # %for.end540
	movl	$0, listXsize
	movl	$0, listXsize+4
	movl	-20(%rbp), %edi
	movq	-32(%rbp), %rsi
	movl	-8(%rbp), %edx
	movq	listX, %rcx
	movabsq	$listXsize, %r8
	xorl	%r9d, %r9d
	callq	gen_pic_list_from_frame_list
	movabsq	$listXsize, %r8
	addq	$4, %r8
	movl	-20(%rbp), %edi
	movq	-64(%rbp), %rsi
	movl	-8(%rbp), %edx
	movq	listX+8, %rcx
	xorl	%r9d, %r9d
	callq	gen_pic_list_from_frame_list
	movl	$0, -4(%rbp)
.LBB65_146:                             # %for.cond541
                                        # =>This Inner Loop Header: Depth=1
	movl	-4(%rbp), %eax
	cmpl	dpb+36, %eax
	jae	.LBB65_153
# %bb.147:                              # %for.body544
                                        #   in Loop: Header=BB65_146 Depth=1
	movq	dpb+16, %rax
	movl	-4(%rbp), %ecx
	movq	(%rax,%rcx,8), %rax
	movq	-40(%rbp), %rcx
	movl	-24(%rbp), %edx
	movl	%edx, %esi
	addl	$1, %esi
	movl	%esi, -24(%rbp)
	movslq	%edx, %rdx
	movq	%rax, (%rcx,%rdx,8)
	movq	dpb+16, %rax
	movl	-4(%rbp), %ecx
	movq	(%rax,%rcx,8), %rax
	movl	8(%rax), %eax
	andl	$1, %eax
	cmpl	$0, %eax
	je	.LBB65_149
# %bb.148:                              # %if.then555
                                        #   in Loop: Header=BB65_146 Depth=1
	movq	dpb+16, %rax
	movl	-4(%rbp), %ecx
	movq	(%rax,%rcx,8), %rax
	movq	48(%rax), %rax
	movl	6372(%rax), %eax
	shll	$1, %eax
	addl	-44(%rbp), %eax
	movq	dpb+16, %rcx
	movl	-4(%rbp), %edx
	movq	(%rcx,%rdx,8), %rcx
	movq	48(%rcx), %rcx
	movl	%eax, 6368(%rcx)
.LBB65_149:                             # %if.end566
                                        #   in Loop: Header=BB65_146 Depth=1
	movq	dpb+16, %rax
	movl	-4(%rbp), %ecx
	movq	(%rax,%rcx,8), %rax
	movl	8(%rax), %eax
	andl	$2, %eax
	cmpl	$0, %eax
	je	.LBB65_151
# %bb.150:                              # %if.then572
                                        #   in Loop: Header=BB65_146 Depth=1
	movq	dpb+16, %rax
	movl	-4(%rbp), %ecx
	movq	(%rax,%rcx,8), %rax
	movq	56(%rax), %rax
	movl	6372(%rax), %eax
	shll	$1, %eax
	addl	-48(%rbp), %eax
	movq	dpb+16, %rcx
	movl	-4(%rbp), %edx
	movq	(%rcx,%rdx,8), %rcx
	movq	56(%rcx), %rcx
	movl	%eax, 6368(%rcx)
.LBB65_151:                             # %if.end583
                                        #   in Loop: Header=BB65_146 Depth=1
	jmp	.LBB65_152
.LBB65_152:                             # %for.inc584
                                        #   in Loop: Header=BB65_146 Depth=1
	movl	-4(%rbp), %eax
	addl	$1, %eax
	movl	%eax, -4(%rbp)
	jmp	.LBB65_146
.LBB65_153:                             # %for.end586
	movq	-40(%rbp), %rdi
	movslq	-24(%rbp), %rsi
	movl	$8, %edx
	movabsq	$compare_fs_by_lt_pic_idx_asc, %rcx
	callq	qsort
	movl	-20(%rbp), %edi
	movq	-40(%rbp), %rsi
	movl	-24(%rbp), %edx
	movq	listX, %rcx
	movabsq	$listXsize, %r8
	movl	$1, %r9d
	callq	gen_pic_list_from_frame_list
	movabsq	$listXsize, %r8
	addq	$4, %r8
	movl	-20(%rbp), %edi
	movq	-40(%rbp), %rsi
	movl	-24(%rbp), %edx
	movq	listX+8, %rcx
	movl	$1, %r9d
	callq	gen_pic_list_from_frame_list
	movq	-32(%rbp), %rdi
	callq	free
	movq	-64(%rbp), %rdi
	callq	free
	movq	-40(%rbp), %rdi
	callq	free
.LBB65_154:                             # %if.end588
	jmp	.LBB65_155
.LBB65_155:                             # %if.end589
	movl	listXsize, %eax
	cmpl	listXsize+4, %eax
	jne	.LBB65_166
# %bb.156:                              # %land.lhs.true592
	cmpl	$1, listXsize
	jle	.LBB65_166
# %bb.157:                              # %if.then595
	movl	$0, -72(%rbp)
	movl	$0, -12(%rbp)
.LBB65_158:                             # %for.cond596
                                        # =>This Inner Loop Header: Depth=1
	movl	-12(%rbp), %eax
	cmpl	listXsize, %eax
	jge	.LBB65_163
# %bb.159:                              # %for.body599
                                        #   in Loop: Header=BB65_158 Depth=1
	movq	listX, %rax
	movslq	-12(%rbp), %rcx
	movq	(%rax,%rcx,8), %rax
	movq	listX+8, %rcx
	movslq	-12(%rbp), %rdx
	cmpq	(%rcx,%rdx,8), %rax
	je	.LBB65_161
# %bb.160:                              # %if.then606
                                        #   in Loop: Header=BB65_158 Depth=1
	movl	$1, -72(%rbp)
.LBB65_161:                             # %if.end607
                                        #   in Loop: Header=BB65_158 Depth=1
	jmp	.LBB65_162
.LBB65_162:                             # %for.inc608
                                        #   in Loop: Header=BB65_158 Depth=1
	movl	-12(%rbp), %eax
	addl	$1, %eax
	movl	%eax, -12(%rbp)
	jmp	.LBB65_158
.LBB65_163:                             # %for.end610
	cmpl	$0, -72(%rbp)
	jne	.LBB65_165
# %bb.164:                              # %if.then612
	movq	listX+8, %rax
	movq	(%rax), %rax
	movq	%rax, -88(%rbp)
	movq	listX+8, %rax
	movq	8(%rax), %rax
	movq	listX+8, %rcx
	movq	%rax, (%rcx)
	movq	-88(%rbp), %rax
	movq	listX+8, %rcx
	movq	%rax, 8(%rcx)
.LBB65_165:                             # %if.end617
	jmp	.LBB65_166
.LBB65_166:                             # %if.end618
	movl	listXsize, %eax
	movq	img, %rcx
	cmpl	72000(%rcx), %eax
	jge	.LBB65_168
# %bb.167:                              # %cond.true
	movl	listXsize, %eax
	jmp	.LBB65_169
.LBB65_168:                             # %cond.false
	movq	img, %rax
	movl	72000(%rax), %eax
.LBB65_169:                             # %cond.end
	movl	%eax, listXsize
	movl	listXsize+4, %eax
	movq	img, %rcx
	cmpl	72004(%rcx), %eax
	jge	.LBB65_171
# %bb.170:                              # %cond.true624
	movl	listXsize+4, %eax
	jmp	.LBB65_172
.LBB65_171:                             # %cond.false625
	movq	img, %rax
	movl	72004(%rax), %eax
.LBB65_172:                             # %cond.end627
	movl	%eax, listXsize+4
	movl	listXsize, %eax
	movl	%eax, -4(%rbp)
.LBB65_173:                             # %for.cond629
                                        # =>This Inner Loop Header: Depth=1
	cmpl	$33, -4(%rbp)
	jae	.LBB65_176
# %bb.174:                              # %for.body632
                                        #   in Loop: Header=BB65_173 Depth=1
	movq	listX, %rax
	movl	-4(%rbp), %ecx
	movq	$0, (%rax,%rcx,8)
# %bb.175:                              # %for.inc635
                                        #   in Loop: Header=BB65_173 Depth=1
	movl	-4(%rbp), %eax
	addl	$1, %eax
	movl	%eax, -4(%rbp)
	jmp	.LBB65_173
.LBB65_176:                             # %for.end637
	movl	listXsize+4, %eax
	movl	%eax, -4(%rbp)
.LBB65_177:                             # %for.cond638
                                        # =>This Inner Loop Header: Depth=1
	cmpl	$33, -4(%rbp)
	jae	.LBB65_180
# %bb.178:                              # %for.body641
                                        #   in Loop: Header=BB65_177 Depth=1
	movq	listX+8, %rax
	movl	-4(%rbp), %ecx
	movq	$0, (%rax,%rcx,8)
# %bb.179:                              # %for.inc644
                                        #   in Loop: Header=BB65_177 Depth=1
	movl	-4(%rbp), %eax
	addl	$1, %eax
	movl	%eax, -4(%rbp)
	jmp	.LBB65_177
.LBB65_180:                             # %for.end646.loopexit
	jmp	.LBB65_181
.LBB65_181:                             # %for.end646
	cmpl	$546291638, -76(%rbp)   # imm = 0x208FBFB6
	jne	.LBB65_183
.LBB65_182:
	addq	$96, %rsp
	popq	%rbp
	.cfi_def_cfa %rsp, 8
	retq
.LBB65_183:                             # %func_exit
	.cfi_def_cfa %rbp, 16
	callq	detect_breach
	jmp	.LBB65_182
.Lfunc_end65:
	.size	init_lists.2, .Lfunc_end65-init_lists.2
	.cfi_endproc
                                        # -- End function
	.p2align	4, 0x90         # -- Begin function insert_picture_in_dpb.3
	.type	insert_picture_in_dpb.3,@function
insert_picture_in_dpb.3:                # @insert_picture_in_dpb.3
	.cfi_startproc
# %bb.0:                                # %entry
	pushq	%rbp
	.cfi_def_cfa_offset 16
	.cfi_offset %rbp, -16
	movq	%rsp, %rbp
	.cfi_def_cfa_register %rbp
	subq	$32, %rsp
	movl	$1005706068, -20(%rbp)  # imm = 0x3BF1DB54
	movq	%rdi, -8(%rbp)
	movq	%rsi, -16(%rbp)
	movq	-16(%rbp), %rax
	cmpl	$0, 6380(%rax)
	je	.LBB66_2
# %bb.1:                                # %if.then
	movq	-16(%rbp), %rdi
	callq	UnifiedOneForthPix
.LBB66_2:                               # %if.end
	movq	-16(%rbp), %rax
	movl	(%rax), %eax
	testl	%eax, %eax
	je	.LBB66_5
	jmp	.LBB66_3
.LBB66_3:                               # %if.end
	movl	%eax, %ecx
	subl	$1, %ecx
	je	.LBB66_10
	jmp	.LBB66_4
.LBB66_4:                               # %if.end
	subl	$2, %eax
	je	.LBB66_18
	jmp	.LBB66_26
.LBB66_5:                               # %sw.bb
	movq	-16(%rbp), %rax
	movq	-8(%rbp), %rcx
	movq	%rax, 40(%rcx)
	movq	-8(%rbp), %rax
	movl	$3, (%rax)
	movq	-16(%rbp), %rax
	cmpl	$0, 6380(%rax)
	je	.LBB66_9
# %bb.6:                                # %if.then3
	movq	-8(%rbp), %rax
	movl	$3, 4(%rax)
	movq	-8(%rbp), %rax
	movl	$3, 12(%rax)
	movq	-16(%rbp), %rax
	cmpl	$0, 6376(%rax)
	je	.LBB66_8
# %bb.7:                                # %if.then5
	movq	-8(%rbp), %rax
	movl	$3, 8(%rax)
.LBB66_8:                               # %if.end7
	jmp	.LBB66_9
.LBB66_9:                               # %if.end8
	movq	-8(%rbp), %rdi
	callq	dpb_split_field
	jmp	.LBB66_26
.LBB66_10:                              # %sw.bb9
	movq	-16(%rbp), %rax
	movq	-8(%rbp), %rcx
	movq	%rax, 48(%rcx)
	movq	-8(%rbp), %rax
	movl	(%rax), %ecx
	orl	$1, %ecx
	movl	%ecx, (%rax)
	movq	-16(%rbp), %rax
	cmpl	$0, 6380(%rax)
	je	.LBB66_14
# %bb.11:                               # %if.then13
	movq	-8(%rbp), %rax
	movl	4(%rax), %ecx
	orl	$1, %ecx
	movl	%ecx, 4(%rax)
	movq	-8(%rbp), %rax
	movl	12(%rax), %ecx
	orl	$1, %ecx
	movl	%ecx, 12(%rax)
	movq	-16(%rbp), %rax
	cmpl	$0, 6376(%rax)
	je	.LBB66_13
# %bb.12:                               # %if.then20
	movq	-8(%rbp), %rax
	movl	8(%rax), %ecx
	orl	$1, %ecx
	movl	%ecx, 8(%rax)
	movq	-16(%rbp), %rax
	movl	6372(%rax), %eax
	movq	-8(%rbp), %rcx
	movl	%eax, 28(%rcx)
.LBB66_13:                              # %if.end24
	jmp	.LBB66_14
.LBB66_14:                              # %if.end25
	movq	-8(%rbp), %rax
	cmpl	$3, (%rax)
	jne	.LBB66_16
# %bb.15:                               # %if.then27
	movq	-8(%rbp), %rdi
	callq	dpb_combine_field
	jmp	.LBB66_17
.LBB66_16:                              # %if.else
	movq	-16(%rbp), %rax
	movl	4(%rax), %eax
	movq	-8(%rbp), %rcx
	movl	%eax, 36(%rcx)
	movq	-16(%rbp), %rdi
	callq	gen_field_ref_ids
.LBB66_17:                              # %if.end29
	jmp	.LBB66_26
.LBB66_18:                              # %sw.bb30
	movq	-16(%rbp), %rax
	movq	-8(%rbp), %rcx
	movq	%rax, 56(%rcx)
	movq	-8(%rbp), %rax
	movl	(%rax), %ecx
	orl	$2, %ecx
	movl	%ecx, (%rax)
	movq	-16(%rbp), %rax
	cmpl	$0, 6380(%rax)
	je	.LBB66_22
# %bb.19:                               # %if.then35
	movq	-8(%rbp), %rax
	movl	4(%rax), %ecx
	orl	$2, %ecx
	movl	%ecx, 4(%rax)
	movq	-8(%rbp), %rax
	movl	12(%rax), %ecx
	orl	$2, %ecx
	movl	%ecx, 12(%rax)
	movq	-16(%rbp), %rax
	cmpl	$0, 6376(%rax)
	je	.LBB66_21
# %bb.20:                               # %if.then42
	movq	-8(%rbp), %rax
	movl	8(%rax), %ecx
	orl	$2, %ecx
	movl	%ecx, 8(%rax)
	movq	-16(%rbp), %rax
	movl	6372(%rax), %eax
	movq	-8(%rbp), %rcx
	movl	%eax, 28(%rcx)
.LBB66_21:                              # %if.end47
	jmp	.LBB66_22
.LBB66_22:                              # %if.end48
	movq	-8(%rbp), %rax
	cmpl	$3, (%rax)
	jne	.LBB66_24
# %bb.23:                               # %if.then51
	movq	-8(%rbp), %rdi
	callq	dpb_combine_field
	jmp	.LBB66_25
.LBB66_24:                              # %if.else52
	movq	-16(%rbp), %rax
	movl	4(%rax), %eax
	movq	-8(%rbp), %rcx
	movl	%eax, 36(%rcx)
	movq	-16(%rbp), %rdi
	callq	gen_field_ref_ids
.LBB66_25:                              # %if.end55
	jmp	.LBB66_26
.LBB66_26:                              # %sw.epilog
	movq	-16(%rbp), %rax
	movl	6364(%rax), %eax
	movq	-8(%rbp), %rcx
	movl	%eax, 20(%rcx)
	movq	-16(%rbp), %rax
	movl	6384(%rax), %eax
	movq	-8(%rbp), %rcx
	movl	%eax, 32(%rcx)
	cmpl	$1005706068, -20(%rbp)  # imm = 0x3BF1DB54
	jne	.LBB66_28
.LBB66_27:
	addq	$32, %rsp
	popq	%rbp
	.cfi_def_cfa %rsp, 8
	retq
.LBB66_28:                              # %func_exit
	.cfi_def_cfa %rbp, 16
	callq	detect_breach
	jmp	.LBB66_27
.Lfunc_end66:
	.size	insert_picture_in_dpb.3, .Lfunc_end66-insert_picture_in_dpb.3
	.cfi_endproc
                                        # -- End function
	.p2align	4, 0x90         # -- Begin function gen_pic_list_from_frame_list.4
	.type	gen_pic_list_from_frame_list.4,@function
gen_pic_list_from_frame_list.4:         # @gen_pic_list_from_frame_list.4
	.cfi_startproc
# %bb.0:                                # %entry
	pushq	%rbp
	.cfi_def_cfa_offset 16
	.cfi_offset %rbp, -16
	movq	%rsp, %rbp
	.cfi_def_cfa_register %rbp
	subq	$64, %rsp
	movl	$33105294, -60(%rbp)    # imm = 0x1F9258E
	movl	%edi, -44(%rbp)
	movq	%rsi, -24(%rbp)
	movl	%edx, -12(%rbp)
	movq	%rcx, -56(%rbp)
	movq	%r8, -32(%rbp)
	movl	%r9d, -64(%rbp)
	movl	$0, -8(%rbp)
	movl	$0, -4(%rbp)
	cmpl	$0, -64(%rbp)
	je	.LBB67_2
# %bb.1:                                # %if.then
	movabsq	$is_long_ref, %rax
	movq	%rax, -40(%rbp)
	jmp	.LBB67_3
.LBB67_2:                               # %if.else
	movabsq	$is_short_ref, %rax
	movq	%rax, -40(%rbp)
.LBB67_3:                               # %if.end
	cmpl	$1, -44(%rbp)
	jne	.LBB67_28
# %bb.4:                                # %if.then1
	jmp	.LBB67_5
.LBB67_5:                               # %while.cond
                                        # =>This Loop Header: Depth=1
                                        #     Child Loop BB67_9 Depth 2
                                        #     Child Loop BB67_18 Depth 2
	movl	-8(%rbp), %eax
	cmpl	-12(%rbp), %eax
	movb	$1, %al
	jl	.LBB67_7
# %bb.6:                                # %lor.rhs
                                        #   in Loop: Header=BB67_5 Depth=1
	movl	-4(%rbp), %eax
	cmpl	-12(%rbp), %eax
	setl	%al
.LBB67_7:                               # %lor.end
                                        #   in Loop: Header=BB67_5 Depth=1
	testb	$1, %al
	jne	.LBB67_8
	jmp	.LBB67_27
.LBB67_8:                               # %while.body
                                        #   in Loop: Header=BB67_5 Depth=1
	jmp	.LBB67_9
.LBB67_9:                               # %for.cond
                                        #   Parent Loop BB67_5 Depth=1
                                        # =>  This Inner Loop Header: Depth=2
	movl	-8(%rbp), %eax
	cmpl	-12(%rbp), %eax
	jge	.LBB67_16
# %bb.10:                               # %for.body
                                        #   in Loop: Header=BB67_9 Depth=2
	movq	-24(%rbp), %rax
	movslq	-8(%rbp), %rcx
	movq	(%rax,%rcx,8), %rax
	movl	(%rax), %eax
	andl	$1, %eax
	cmpl	$0, %eax
	je	.LBB67_14
# %bb.11:                               # %if.then6
                                        #   in Loop: Header=BB67_9 Depth=2
	movq	-40(%rbp), %rax
	movq	-24(%rbp), %rcx
	movslq	-8(%rbp), %rdx
	movq	(%rcx,%rdx,8), %rcx
	movq	48(%rcx), %rdi
	callq	*%rax
	cmpl	$0, %eax
	je	.LBB67_13
# %bb.12:                               # %if.then10
                                        #   in Loop: Header=BB67_5 Depth=1
	movq	-24(%rbp), %rax
	movslq	-8(%rbp), %rcx
	movq	(%rax,%rcx,8), %rax
	movq	48(%rax), %rax
	movq	-56(%rbp), %rcx
	movq	-32(%rbp), %rdx
	movslq	(%rdx), %rdx
	movq	%rax, (%rcx,%rdx,8)
	movq	-32(%rbp), %rax
	movl	(%rax), %ecx
	addl	$1, %ecx
	movl	%ecx, (%rax)
	movl	-8(%rbp), %eax
	addl	$1, %eax
	movl	%eax, -8(%rbp)
	jmp	.LBB67_17
.LBB67_13:                              # %if.end17
                                        #   in Loop: Header=BB67_9 Depth=2
	jmp	.LBB67_14
.LBB67_14:                              # %if.end18
                                        #   in Loop: Header=BB67_9 Depth=2
	jmp	.LBB67_15
.LBB67_15:                              # %for.inc
                                        #   in Loop: Header=BB67_9 Depth=2
	movl	-8(%rbp), %eax
	addl	$1, %eax
	movl	%eax, -8(%rbp)
	jmp	.LBB67_9
.LBB67_16:                              # %for.end.loopexit
                                        #   in Loop: Header=BB67_5 Depth=1
	jmp	.LBB67_17
.LBB67_17:                              # %for.end
                                        #   in Loop: Header=BB67_5 Depth=1
	jmp	.LBB67_18
.LBB67_18:                              # %for.cond20
                                        #   Parent Loop BB67_5 Depth=1
                                        # =>  This Inner Loop Header: Depth=2
	movl	-4(%rbp), %eax
	cmpl	-12(%rbp), %eax
	jge	.LBB67_25
# %bb.19:                               # %for.body22
                                        #   in Loop: Header=BB67_18 Depth=2
	movq	-24(%rbp), %rax
	movslq	-4(%rbp), %rcx
	movq	(%rax,%rcx,8), %rax
	movl	(%rax), %eax
	andl	$2, %eax
	cmpl	$0, %eax
	je	.LBB67_23
# %bb.20:                               # %if.then28
                                        #   in Loop: Header=BB67_18 Depth=2
	movq	-40(%rbp), %rax
	movq	-24(%rbp), %rcx
	movslq	-4(%rbp), %rdx
	movq	(%rcx,%rdx,8), %rcx
	movq	56(%rcx), %rdi
	callq	*%rax
	cmpl	$0, %eax
	je	.LBB67_22
# %bb.21:                               # %if.then33
                                        #   in Loop: Header=BB67_5 Depth=1
	movq	-24(%rbp), %rax
	movslq	-4(%rbp), %rcx
	movq	(%rax,%rcx,8), %rax
	movq	56(%rax), %rax
	movq	-56(%rbp), %rcx
	movq	-32(%rbp), %rdx
	movslq	(%rdx), %rdx
	movq	%rax, (%rcx,%rdx,8)
	movq	-32(%rbp), %rax
	movl	(%rax), %ecx
	addl	$1, %ecx
	movl	%ecx, (%rax)
	movl	-4(%rbp), %eax
	addl	$1, %eax
	movl	%eax, -4(%rbp)
	jmp	.LBB67_26
.LBB67_22:                              # %if.end41
                                        #   in Loop: Header=BB67_18 Depth=2
	jmp	.LBB67_23
.LBB67_23:                              # %if.end42
                                        #   in Loop: Header=BB67_18 Depth=2
	jmp	.LBB67_24
.LBB67_24:                              # %for.inc43
                                        #   in Loop: Header=BB67_18 Depth=2
	movl	-4(%rbp), %eax
	addl	$1, %eax
	movl	%eax, -4(%rbp)
	jmp	.LBB67_18
.LBB67_25:                              # %for.end45.loopexit
                                        #   in Loop: Header=BB67_5 Depth=1
	jmp	.LBB67_26
.LBB67_26:                              # %for.end45
                                        #   in Loop: Header=BB67_5 Depth=1
	jmp	.LBB67_5
.LBB67_27:                              # %while.end
	jmp	.LBB67_28
.LBB67_28:                              # %if.end46
	cmpl	$2, -44(%rbp)
	jne	.LBB67_53
# %bb.29:                               # %if.then48
	jmp	.LBB67_30
.LBB67_30:                              # %while.cond49
                                        # =>This Loop Header: Depth=1
                                        #     Child Loop BB67_34 Depth 2
                                        #     Child Loop BB67_43 Depth 2
	movl	-8(%rbp), %eax
	cmpl	-12(%rbp), %eax
	movb	$1, %al
	jl	.LBB67_32
# %bb.31:                               # %lor.rhs51
                                        #   in Loop: Header=BB67_30 Depth=1
	movl	-4(%rbp), %eax
	cmpl	-12(%rbp), %eax
	setl	%al
.LBB67_32:                              # %lor.end53
                                        #   in Loop: Header=BB67_30 Depth=1
	testb	$1, %al
	jne	.LBB67_33
	jmp	.LBB67_52
.LBB67_33:                              # %while.body54
                                        #   in Loop: Header=BB67_30 Depth=1
	jmp	.LBB67_34
.LBB67_34:                              # %for.cond55
                                        #   Parent Loop BB67_30 Depth=1
                                        # =>  This Inner Loop Header: Depth=2
	movl	-4(%rbp), %eax
	cmpl	-12(%rbp), %eax
	jge	.LBB67_41
# %bb.35:                               # %for.body57
                                        #   in Loop: Header=BB67_34 Depth=2
	movq	-24(%rbp), %rax
	movslq	-4(%rbp), %rcx
	movq	(%rax,%rcx,8), %rax
	movl	(%rax), %eax
	andl	$2, %eax
	cmpl	$0, %eax
	je	.LBB67_39
# %bb.36:                               # %if.then63
                                        #   in Loop: Header=BB67_34 Depth=2
	movq	-40(%rbp), %rax
	movq	-24(%rbp), %rcx
	movslq	-4(%rbp), %rdx
	movq	(%rcx,%rdx,8), %rcx
	movq	56(%rcx), %rdi
	callq	*%rax
	cmpl	$0, %eax
	je	.LBB67_38
# %bb.37:                               # %if.then69
                                        #   in Loop: Header=BB67_30 Depth=1
	movq	-24(%rbp), %rax
	movslq	-4(%rbp), %rcx
	movq	(%rax,%rcx,8), %rax
	movq	56(%rax), %rax
	movq	-56(%rbp), %rcx
	movq	-32(%rbp), %rdx
	movslq	(%rdx), %rdx
	movq	%rax, (%rcx,%rdx,8)
	movq	-32(%rbp), %rax
	movl	(%rax), %ecx
	addl	$1, %ecx
	movl	%ecx, (%rax)
	movl	-4(%rbp), %eax
	addl	$1, %eax
	movl	%eax, -4(%rbp)
	jmp	.LBB67_42
.LBB67_38:                              # %if.end77
                                        #   in Loop: Header=BB67_34 Depth=2
	jmp	.LBB67_39
.LBB67_39:                              # %if.end78
                                        #   in Loop: Header=BB67_34 Depth=2
	jmp	.LBB67_40
.LBB67_40:                              # %for.inc79
                                        #   in Loop: Header=BB67_34 Depth=2
	movl	-4(%rbp), %eax
	addl	$1, %eax
	movl	%eax, -4(%rbp)
	jmp	.LBB67_34
.LBB67_41:                              # %for.end81.loopexit
                                        #   in Loop: Header=BB67_30 Depth=1
	jmp	.LBB67_42
.LBB67_42:                              # %for.end81
                                        #   in Loop: Header=BB67_30 Depth=1
	jmp	.LBB67_43
.LBB67_43:                              # %for.cond82
                                        #   Parent Loop BB67_30 Depth=1
                                        # =>  This Inner Loop Header: Depth=2
	movl	-8(%rbp), %eax
	cmpl	-12(%rbp), %eax
	jge	.LBB67_50
# %bb.44:                               # %for.body84
                                        #   in Loop: Header=BB67_43 Depth=2
	movq	-24(%rbp), %rax
	movslq	-8(%rbp), %rcx
	movq	(%rax,%rcx,8), %rax
	movl	(%rax), %eax
	andl	$1, %eax
	cmpl	$0, %eax
	je	.LBB67_48
# %bb.45:                               # %if.then90
                                        #   in Loop: Header=BB67_43 Depth=2
	movq	-40(%rbp), %rax
	movq	-24(%rbp), %rcx
	movslq	-8(%rbp), %rdx
	movq	(%rcx,%rdx,8), %rcx
	movq	48(%rcx), %rdi
	callq	*%rax
	cmpl	$0, %eax
	je	.LBB67_47
# %bb.46:                               # %if.then96
                                        #   in Loop: Header=BB67_30 Depth=1
	movq	-24(%rbp), %rax
	movslq	-8(%rbp), %rcx
	movq	(%rax,%rcx,8), %rax
	movq	48(%rax), %rax
	movq	-56(%rbp), %rcx
	movq	-32(%rbp), %rdx
	movslq	(%rdx), %rdx
	movq	%rax, (%rcx,%rdx,8)
	movq	-32(%rbp), %rax
	movl	(%rax), %ecx
	addl	$1, %ecx
	movl	%ecx, (%rax)
	movl	-8(%rbp), %eax
	addl	$1, %eax
	movl	%eax, -8(%rbp)
	jmp	.LBB67_51
.LBB67_47:                              # %if.end104
                                        #   in Loop: Header=BB67_43 Depth=2
	jmp	.LBB67_48
.LBB67_48:                              # %if.end105
                                        #   in Loop: Header=BB67_43 Depth=2
	jmp	.LBB67_49
.LBB67_49:                              # %for.inc106
                                        #   in Loop: Header=BB67_43 Depth=2
	movl	-8(%rbp), %eax
	addl	$1, %eax
	movl	%eax, -8(%rbp)
	jmp	.LBB67_43
.LBB67_50:                              # %for.end108.loopexit
                                        #   in Loop: Header=BB67_30 Depth=1
	jmp	.LBB67_51
.LBB67_51:                              # %for.end108
                                        #   in Loop: Header=BB67_30 Depth=1
	jmp	.LBB67_30
.LBB67_52:                              # %while.end109
	jmp	.LBB67_53
.LBB67_53:                              # %if.end110
	cmpl	$33105294, -60(%rbp)    # imm = 0x1F9258E
	jne	.LBB67_55
.LBB67_54:
	addq	$64, %rsp
	popq	%rbp
	.cfi_def_cfa %rsp, 8
	retq
.LBB67_55:                              # %func_exit
	.cfi_def_cfa %rbp, 16
	callq	detect_breach
	jmp	.LBB67_54
.Lfunc_end67:
	.size	gen_pic_list_from_frame_list.4, .Lfunc_end67-gen_pic_list_from_frame_list.4
	.cfi_endproc
                                        # -- End function
	.p2align	4, 0x90         # -- Begin function compare_pic_by_poc_asc.5
	.type	compare_pic_by_poc_asc.5,@function
compare_pic_by_poc_asc.5:               # @compare_pic_by_poc_asc.5
	.cfi_startproc
# %bb.0:                                # %entry
	pushq	%rbp
	.cfi_def_cfa_offset 16
	.cfi_offset %rbp, -16
	movq	%rsp, %rbp
	.cfi_def_cfa_register %rbp
	pushq	%rbx
	subq	$24, %rsp
	.cfi_offset %rbx, -24
	movl	$1833948203, -16(%rbp)  # imm = 0x6D4FD42B
	movq	%rdi, -32(%rbp)
	movq	%rsi, -24(%rbp)
	movq	-32(%rbp), %rax
	movq	(%rax), %rax
	movl	4(%rax), %eax
	movq	-24(%rbp), %rcx
	movq	(%rcx), %rcx
	cmpl	4(%rcx), %eax
	jge	.LBB68_2
# %bb.1:                                # %if.then
	movl	$-1, -12(%rbp)
	jmp	.LBB68_5
.LBB68_2:                               # %if.end
	movq	-32(%rbp), %rax
	movq	(%rax), %rax
	movl	4(%rax), %eax
	movq	-24(%rbp), %rcx
	movq	(%rcx), %rcx
	cmpl	4(%rcx), %eax
	jle	.LBB68_4
# %bb.3:                                # %if.then5
	movl	$1, -12(%rbp)
	jmp	.LBB68_5
.LBB68_4:                               # %if.else
	movl	$0, -12(%rbp)
.LBB68_5:                               # %return
	movl	-12(%rbp), %ebx
	cmpl	$1833948203, -16(%rbp)  # imm = 0x6D4FD42B
	jne	.LBB68_7
.LBB68_6:
	movl	%ebx, %eax
	addq	$24, %rsp
	popq	%rbx
	popq	%rbp
	.cfi_def_cfa %rsp, 8
	retq
.LBB68_7:                               # %func_exit
	.cfi_def_cfa %rbp, 16
	callq	detect_breach
	jmp	.LBB68_6
.Lfunc_end68:
	.size	compare_pic_by_poc_asc.5, .Lfunc_end68-compare_pic_by_poc_asc.5
	.cfi_endproc
                                        # -- End function
	.globl	store_picture_in_dpb.6  # -- Begin function store_picture_in_dpb.6
	.p2align	4, 0x90
	.type	store_picture_in_dpb.6,@function
store_picture_in_dpb.6:                 # @store_picture_in_dpb.6
	.cfi_startproc
# %bb.0:                                # %entry
	pushq	%rbp
	.cfi_def_cfa_offset 16
	.cfi_offset %rbp, -16
	movq	%rsp, %rbp
	.cfi_def_cfa_register %rbp
	subq	$32, %rsp
	movl	$519209507, -24(%rbp)   # imm = 0x1EF28223
	movq	%rdi, -8(%rbp)
	movq	img, %rax
	cmpl	$0, 72496(%rax)
	setne	%al
	andb	$1, %al
	movzbl	%al, %eax
	movq	-8(%rbp), %rcx
	movl	%eax, 6380(%rcx)
	movq	img, %rax
	movl	$0, 72644(%rax)
	movq	img, %rax
	cmpl	$2, 28(%rax)
	sete	%al
	andb	$1, %al
	movzbl	%al, %eax
	movq	img, %rcx
	movl	%eax, 72640(%rcx)
	movq	img, %rax
	movq	14152(%rax), %rax
	cmpl	$0, 4(%rax)
	je	.LBB69_2
# %bb.1:                                # %if.then
	movq	-8(%rbp), %rdi
	callq	idr_memory_management
	jmp	.LBB69_6
.LBB69_2:                               # %if.else
	movq	-8(%rbp), %rax
	cmpl	$0, 6380(%rax)
	je	.LBB69_5
# %bb.3:                                # %land.lhs.true
	movq	img, %rax
	cmpl	$0, 72500(%rax)
	je	.LBB69_5
# %bb.4:                                # %if.then6
	movq	-8(%rbp), %rdi
	callq	adaptive_memory_management
.LBB69_5:                               # %if.end
	jmp	.LBB69_6
.LBB69_6:                               # %if.end7
	movq	-8(%rbp), %rax
	cmpl	$1, (%rax)
	je	.LBB69_8
# %bb.7:                                # %lor.lhs.false
	movq	-8(%rbp), %rax
	cmpl	$2, (%rax)
	jne	.LBB69_23
.LBB69_8:                               # %if.then14
	cmpq	$0, dpb+56
	je	.LBB69_22
# %bb.9:                                # %if.then16
	movq	dpb+56, %rax
	movl	20(%rax), %eax
	movq	-8(%rbp), %rcx
	cmpl	6364(%rcx), %eax
	jne	.LBB69_21
# %bb.10:                               # %if.then19
	movq	-8(%rbp), %rax
	cmpl	$1, (%rax)
	jne	.LBB69_12
# %bb.11:                               # %land.lhs.true23
	movq	dpb+56, %rax
	cmpl	$2, (%rax)
	je	.LBB69_14
.LBB69_12:                              # %lor.lhs.false26
	movq	-8(%rbp), %rax
	cmpl	$2, (%rax)
	jne	.LBB69_20
# %bb.13:                               # %land.lhs.true30
	movq	dpb+56, %rax
	cmpl	$1, (%rax)
	jne	.LBB69_20
.LBB69_14:                              # %if.then34
	movq	-8(%rbp), %rax
	cmpl	$0, 6380(%rax)
	je	.LBB69_16
# %bb.15:                               # %land.lhs.true37
	movq	dpb+56, %rax
	cmpl	$0, 12(%rax)
	jne	.LBB69_18
.LBB69_16:                              # %lor.lhs.false40
	movq	-8(%rbp), %rax
	cmpl	$0, 6380(%rax)
	jne	.LBB69_19
# %bb.17:                               # %land.lhs.true43
	movq	dpb+56, %rax
	cmpl	$0, 12(%rax)
	jne	.LBB69_19
.LBB69_18:                              # %if.then47
	movq	dpb+56, %rdi
	movq	-8(%rbp), %rsi
	callq	insert_picture_in_dpb
	callq	update_ref_list
	callq	update_ltref_list
	callq	dump_dpb
	movq	$0, dpb+56
	jmp	.LBB69_50
.LBB69_19:                              # %if.end48
	jmp	.LBB69_20
.LBB69_20:                              # %if.end49
	jmp	.LBB69_21
.LBB69_21:                              # %if.end50
	jmp	.LBB69_22
.LBB69_22:                              # %if.end51
	jmp	.LBB69_23
.LBB69_23:                              # %if.end52
	movq	img, %rax
	movq	14152(%rax), %rax
	cmpl	$0, 4(%rax)
	jne	.LBB69_27
# %bb.24:                               # %land.lhs.true56
	movq	-8(%rbp), %rax
	cmpl	$0, 6380(%rax)
	je	.LBB69_27
# %bb.25:                               # %land.lhs.true59
	movq	img, %rax
	cmpl	$0, 72500(%rax)
	jne	.LBB69_27
# %bb.26:                               # %if.then62
	movq	-8(%rbp), %rdi
	callq	sliding_window_memory_management
.LBB69_27:                              # %if.end63
	movl	dpb+28, %eax
	cmpl	dpb+24, %eax
	jne	.LBB69_29
# %bb.28:                               # %if.then66
	callq	remove_unused_frame_from_dpb
.LBB69_29:                              # %if.end67
	jmp	.LBB69_30
.LBB69_30:                              # %while.cond
                                        # =>This Inner Loop Header: Depth=1
	movl	dpb+28, %eax
	cmpl	dpb+24, %eax
	jne	.LBB69_37
# %bb.31:                               # %while.body
                                        #   in Loop: Header=BB69_30 Depth=1
	movq	-8(%rbp), %rax
	cmpl	$0, 6380(%rax)
	jne	.LBB69_36
# %bb.32:                               # %if.then72
                                        #   in Loop: Header=BB69_30 Depth=1
	leaq	-20(%rbp), %rdi
	leaq	-16(%rbp), %rsi
	callq	get_smallest_poc
	movl	$4294967295, %eax       # imm = 0xFFFFFFFF
	cmpl	-16(%rbp), %eax
	je	.LBB69_34
# %bb.33:                               # %lor.lhs.false75
                                        #   in Loop: Header=BB69_30 Depth=1
	movq	-8(%rbp), %rax
	movl	4(%rax), %eax
	cmpl	-20(%rbp), %eax
	jge	.LBB69_35
.LBB69_34:                              # %if.then79
	movq	-8(%rbp), %rdi
	movl	p_dec, %esi
	callq	direct_output
	jmp	.LBB69_50
.LBB69_35:                              # %if.end80
                                        #   in Loop: Header=BB69_30 Depth=1
	jmp	.LBB69_36
.LBB69_36:                              # %if.end81
                                        #   in Loop: Header=BB69_30 Depth=1
	callq	output_one_frame_from_dpb
	jmp	.LBB69_30
.LBB69_37:                              # %while.end
	movq	-8(%rbp), %rax
	cmpl	$0, 6380(%rax)
	je	.LBB69_46
# %bb.38:                               # %land.lhs.true84
	movq	-8(%rbp), %rax
	cmpl	$0, 6376(%rax)
	jne	.LBB69_46
# %bb.39:                               # %if.then86
	movl	$0, -12(%rbp)
.LBB69_40:                              # %for.cond
                                        # =>This Inner Loop Header: Depth=1
	movl	-12(%rbp), %eax
	cmpl	dpb+32, %eax
	jae	.LBB69_45
# %bb.41:                               # %for.body
                                        #   in Loop: Header=BB69_40 Depth=1
	movq	dpb+8, %rax
	movl	-12(%rbp), %ecx
	movq	(%rax,%rcx,8), %rax
	movl	20(%rax), %eax
	movq	-8(%rbp), %rcx
	cmpl	6360(%rcx), %eax
	jne	.LBB69_43
# %bb.42:                               # %if.then93
                                        #   in Loop: Header=BB69_40 Depth=1
	movabsq	$.L.str.13, %rdi
	movl	$500, %esi              # imm = 0x1F4
	callq	error
.LBB69_43:                              # %if.end94
                                        #   in Loop: Header=BB69_40 Depth=1
	jmp	.LBB69_44
.LBB69_44:                              # %for.inc
                                        #   in Loop: Header=BB69_40 Depth=1
	movl	-12(%rbp), %eax
	addl	$1, %eax
	movl	%eax, -12(%rbp)
	jmp	.LBB69_40
.LBB69_45:                              # %for.end
	jmp	.LBB69_46
.LBB69_46:                              # %if.end95
	movq	dpb, %rax
	movl	dpb+28, %ecx
	movq	(%rax,%rcx,8), %rdi
	movq	-8(%rbp), %rsi
	callq	insert_picture_in_dpb
	movq	-8(%rbp), %rax
	cmpl	$0, (%rax)
	je	.LBB69_48
# %bb.47:                               # %if.then101
	movq	dpb, %rax
	movl	dpb+28, %ecx
	movq	(%rax,%rcx,8), %rax
	movq	%rax, dpb+56
	jmp	.LBB69_49
.LBB69_48:                              # %if.else104
	movq	$0, dpb+56
.LBB69_49:                              # %if.end105
	movl	dpb+28, %eax
	addl	$1, %eax
	movl	%eax, dpb+28
	callq	update_ref_list
	callq	update_ltref_list
	callq	dump_dpb
.LBB69_50:                              # %return
	cmpl	$519209507, -24(%rbp)   # imm = 0x1EF28223
	jne	.LBB69_52
.LBB69_51:
	addq	$32, %rsp
	popq	%rbp
	.cfi_def_cfa %rsp, 8
	retq
.LBB69_52:                              # %func_exit
	.cfi_def_cfa %rbp, 16
	callq	detect_breach
	jmp	.LBB69_51
.Lfunc_end69:
	.size	store_picture_in_dpb.6, .Lfunc_end69-store_picture_in_dpb.6
	.cfi_endproc
                                        # -- End function
	.p2align	4, 0x90         # -- Begin function reorder_short_term.7
	.type	reorder_short_term.7,@function
reorder_short_term.7:                   # @reorder_short_term.7
	.cfi_startproc
# %bb.0:                                # %entry
	pushq	%rbp
	.cfi_def_cfa_offset 16
	.cfi_offset %rbp, -16
	movq	%rsp, %rbp
	.cfi_def_cfa_register %rbp
	subq	$64, %rsp
	movl	$198064106, -44(%rbp)   # imm = 0xBCE37EA
	movq	%rdi, -16(%rbp)
	movl	%esi, -24(%rbp)
	movl	%edx, -20(%rbp)
	movq	%rcx, -40(%rbp)
	movl	-20(%rbp), %edi
	callq	get_short_term_pic
	movq	%rax, -56(%rbp)
	movl	-24(%rbp), %eax
	addl	$1, %eax
	movl	%eax, -4(%rbp)
.LBB70_1:                               # %for.cond
                                        # =>This Inner Loop Header: Depth=1
	movl	-4(%rbp), %eax
	movq	-40(%rbp), %rcx
	cmpl	(%rcx), %eax
	jle	.LBB70_4
# %bb.2:                                # %for.body
                                        #   in Loop: Header=BB70_1 Depth=1
	movq	-16(%rbp), %rax
	movl	-4(%rbp), %ecx
	subl	$1, %ecx
	movslq	%ecx, %rcx
	movq	(%rax,%rcx,8), %rax
	movq	-16(%rbp), %rcx
	movslq	-4(%rbp), %rdx
	movq	%rax, (%rcx,%rdx,8)
# %bb.3:                                # %for.inc
                                        #   in Loop: Header=BB70_1 Depth=1
	movl	-4(%rbp), %eax
	addl	$-1, %eax
	movl	%eax, -4(%rbp)
	jmp	.LBB70_1
.LBB70_4:                               # %for.end
	movq	-56(%rbp), %rax
	movq	-16(%rbp), %rcx
	movq	-40(%rbp), %rdx
	movl	(%rdx), %esi
	movl	%esi, %edi
	addl	$1, %edi
	movl	%edi, (%rdx)
	movslq	%esi, %rdx
	movq	%rax, (%rcx,%rdx,8)
	movq	-40(%rbp), %rax
	movl	(%rax), %eax
	movl	%eax, -28(%rbp)
	movq	-40(%rbp), %rax
	movl	(%rax), %eax
	movl	%eax, -4(%rbp)
.LBB70_5:                               # %for.cond5
                                        # =>This Inner Loop Header: Depth=1
	movl	-4(%rbp), %eax
	movl	-24(%rbp), %ecx
	addl	$1, %ecx
	cmpl	%ecx, %eax
	jg	.LBB70_13
# %bb.6:                                # %for.body8
                                        #   in Loop: Header=BB70_5 Depth=1
	movq	-16(%rbp), %rax
	movslq	-4(%rbp), %rcx
	cmpq	$0, (%rax,%rcx,8)
	je	.LBB70_11
# %bb.7:                                # %if.then
                                        #   in Loop: Header=BB70_5 Depth=1
	movq	-16(%rbp), %rax
	movslq	-4(%rbp), %rcx
	movq	(%rax,%rcx,8), %rax
	cmpl	$0, 6376(%rax)
	jne	.LBB70_9
# %bb.8:                                # %lor.lhs.false
                                        #   in Loop: Header=BB70_5 Depth=1
	movq	-16(%rbp), %rax
	movslq	-4(%rbp), %rcx
	movq	(%rax,%rcx,8), %rax
	movl	6364(%rax), %eax
	cmpl	-20(%rbp), %eax
	je	.LBB70_10
.LBB70_9:                               # %if.then17
                                        #   in Loop: Header=BB70_5 Depth=1
	movq	-16(%rbp), %rax
	movslq	-4(%rbp), %rcx
	movq	(%rax,%rcx,8), %rax
	movq	-16(%rbp), %rcx
	movl	-28(%rbp), %edx
	movl	%edx, %esi
	addl	$1, %esi
	movl	%esi, -28(%rbp)
	movslq	%edx, %rdx
	movq	%rax, (%rcx,%rdx,8)
.LBB70_10:                              # %if.end
                                        #   in Loop: Header=BB70_5 Depth=1
	jmp	.LBB70_11
.LBB70_11:                              # %if.end23
                                        #   in Loop: Header=BB70_5 Depth=1
	jmp	.LBB70_12
.LBB70_12:                              # %for.inc24
                                        #   in Loop: Header=BB70_5 Depth=1
	movl	-4(%rbp), %eax
	addl	$1, %eax
	movl	%eax, -4(%rbp)
	jmp	.LBB70_5
.LBB70_13:                              # %for.end26
	cmpl	$198064106, -44(%rbp)   # imm = 0xBCE37EA
	jne	.LBB70_15
.LBB70_14:
	addq	$64, %rsp
	popq	%rbp
	.cfi_def_cfa %rsp, 8
	retq
.LBB70_15:                              # %func_exit
	.cfi_def_cfa %rbp, 16
	callq	detect_breach
	jmp	.LBB70_14
.Lfunc_end70:
	.size	reorder_short_term.7, .Lfunc_end70-reorder_short_term.7
	.cfi_endproc
                                        # -- End function
	.p2align	4, 0x90         # -- Begin function unmark_long_term_frame_for_reference_by_frame_idx.8
	.type	unmark_long_term_frame_for_reference_by_frame_idx.8,@function
unmark_long_term_frame_for_reference_by_frame_idx.8: # @unmark_long_term_frame_for_reference_by_frame_idx.8
	.cfi_startproc
# %bb.0:                                # %entry
	pushq	%rbp
	.cfi_def_cfa_offset 16
	.cfi_offset %rbp, -16
	movq	%rsp, %rbp
	.cfi_def_cfa_register %rbp
	subq	$16, %rsp
	movl	$1538348185, -12(%rbp)  # imm = 0x5BB15499
	movl	%edi, -8(%rbp)
	movl	$0, -4(%rbp)
.LBB71_1:                               # %for.cond
                                        # =>This Inner Loop Header: Depth=1
	movl	-4(%rbp), %eax
	cmpl	dpb+36, %eax
	jae	.LBB71_6
# %bb.2:                                # %for.body
                                        #   in Loop: Header=BB71_1 Depth=1
	movq	dpb+16, %rax
	movl	-4(%rbp), %ecx
	movq	(%rax,%rcx,8), %rax
	movl	28(%rax), %eax
	cmpl	-8(%rbp), %eax
	jne	.LBB71_4
# %bb.3:                                # %if.then
                                        #   in Loop: Header=BB71_1 Depth=1
	movq	dpb+16, %rax
	movl	-4(%rbp), %ecx
	movq	(%rax,%rcx,8), %rdi
	callq	unmark_for_long_term_reference
.LBB71_4:                               # %if.end
                                        #   in Loop: Header=BB71_1 Depth=1
	jmp	.LBB71_5
.LBB71_5:                               # %for.inc
                                        #   in Loop: Header=BB71_1 Depth=1
	movl	-4(%rbp), %eax
	addl	$1, %eax
	movl	%eax, -4(%rbp)
	jmp	.LBB71_1
.LBB71_6:                               # %for.end
	cmpl	$1538348185, -12(%rbp)  # imm = 0x5BB15499
	jne	.LBB71_8
.LBB71_7:
	addq	$16, %rsp
	popq	%rbp
	.cfi_def_cfa %rsp, 8
	retq
.LBB71_8:                               # %func_exit
	.cfi_def_cfa %rbp, 16
	callq	detect_breach
	jmp	.LBB71_7
.Lfunc_end71:
	.size	unmark_long_term_frame_for_reference_by_frame_idx.8, .Lfunc_end71-unmark_long_term_frame_for_reference_by_frame_idx.8
	.cfi_endproc
                                        # -- End function
	.globl	dpb_split_field.9       # -- Begin function dpb_split_field.9
	.p2align	4, 0x90
	.type	dpb_split_field.9,@function
dpb_split_field.9:                      # @dpb_split_field.9
	.cfi_startproc
# %bb.0:                                # %entry
	pushq	%rbp
	.cfi_def_cfa_offset 16
	.cfi_offset %rbp, -16
	movq	%rsp, %rbp
	.cfi_def_cfa_register %rbp
	subq	$80, %rsp
	movl	$48718546, -76(%rbp)    # imm = 0x2E762D2
	movq	%rdi, -16(%rbp)
	movq	-16(%rbp), %rax
	movq	40(%rax), %rax
	movl	4(%rax), %eax
	movq	-16(%rbp), %rcx
	movl	%eax, 36(%rcx)
	movq	-16(%rbp), %rax
	movq	40(%rax), %rax
	cmpl	$0, 6556(%rax)
	jne	.LBB72_28
# %bb.1:                                # %if.then
	movq	-16(%rbp), %rax
	movq	40(%rax), %rax
	movl	6392(%rax), %esi
	movq	-16(%rbp), %rax
	movq	40(%rax), %rax
	movl	6396(%rax), %eax
	cltd
	movl	$2, %edi
	idivl	%edi
	movl	%eax, %r8d
	movq	-16(%rbp), %rax
	movq	40(%rax), %rax
	movl	6400(%rax), %ecx
	movq	-16(%rbp), %rax
	movq	40(%rax), %rax
	movl	6404(%rax), %eax
	cltd
	idivl	%edi
	movl	$1, %edi
	movl	%r8d, %edx
	movl	%eax, %r8d
	callq	alloc_storable_picture
	movq	-16(%rbp), %rcx
	movq	%rax, 48(%rcx)
	movq	-16(%rbp), %rax
	movq	40(%rax), %rax
	movl	6392(%rax), %esi
	movq	-16(%rbp), %rax
	movq	40(%rax), %rax
	movl	6396(%rax), %eax
	cltd
	movl	$2, %edi
	idivl	%edi
	movl	%eax, %r8d
	movq	-16(%rbp), %rax
	movq	40(%rax), %rax
	movl	6400(%rax), %ecx
	movq	-16(%rbp), %rax
	movq	40(%rax), %rax
	movl	6404(%rax), %eax
	cltd
	idivl	%edi
	movl	$2, %edi
	movl	%r8d, %edx
	movl	%eax, %r8d
	callq	alloc_storable_picture
	movq	-16(%rbp), %rcx
	movq	%rax, 56(%rcx)
	movl	$0, -4(%rbp)
.LBB72_2:                               # %for.cond
                                        # =>This Inner Loop Header: Depth=1
	movl	-4(%rbp), %ecx
	movq	-16(%rbp), %rax
	movq	40(%rax), %rax
	movl	6396(%rax), %eax
	cltd
	movl	$2, %esi
	idivl	%esi
	cmpl	%eax, %ecx
	jge	.LBB72_5
# %bb.3:                                # %for.body
                                        #   in Loop: Header=BB72_2 Depth=1
	movq	-16(%rbp), %rax
	movq	48(%rax), %rax
	movq	6424(%rax), %rax
	movslq	-4(%rbp), %rcx
	movq	(%rax,%rcx,8), %rdi
	movq	-16(%rbp), %rax
	movq	40(%rax), %rax
	movq	6424(%rax), %rax
	movl	-4(%rbp), %ecx
	shll	$1, %ecx
	movslq	%ecx, %rcx
	movq	(%rax,%rcx,8), %rsi
	movq	-16(%rbp), %rax
	movq	40(%rax), %rax
	movslq	6392(%rax), %rdx
	shlq	$1, %rdx
	callq	memcpy
# %bb.4:                                # %for.inc
                                        #   in Loop: Header=BB72_2 Depth=1
	movl	-4(%rbp), %eax
	addl	$1, %eax
	movl	%eax, -4(%rbp)
	jmp	.LBB72_2
.LBB72_5:                               # %for.end
	movl	$0, -4(%rbp)
.LBB72_6:                               # %for.cond30
                                        # =>This Inner Loop Header: Depth=1
	movl	-4(%rbp), %ecx
	movq	-16(%rbp), %rax
	movq	40(%rax), %rax
	movl	6404(%rax), %eax
	cltd
	movl	$2, %esi
	idivl	%esi
	cmpl	%eax, %ecx
	jge	.LBB72_9
# %bb.7:                                # %for.body36
                                        #   in Loop: Header=BB72_6 Depth=1
	movq	-16(%rbp), %rax
	movq	48(%rax), %rax
	movq	6464(%rax), %rax
	movq	(%rax), %rax
	movslq	-4(%rbp), %rcx
	movq	(%rax,%rcx,8), %rdi
	movq	-16(%rbp), %rax
	movq	40(%rax), %rax
	movq	6464(%rax), %rax
	movq	(%rax), %rax
	movl	-4(%rbp), %ecx
	shll	$1, %ecx
	movslq	%ecx, %rcx
	movq	(%rax,%rcx,8), %rsi
	movq	-16(%rbp), %rax
	movq	40(%rax), %rax
	movslq	6400(%rax), %rdx
	shlq	$1, %rdx
	callq	memcpy
	movq	-16(%rbp), %rax
	movq	48(%rax), %rax
	movq	6464(%rax), %rax
	movq	8(%rax), %rax
	movslq	-4(%rbp), %rcx
	movq	(%rax,%rcx,8), %rdi
	movq	-16(%rbp), %rax
	movq	40(%rax), %rax
	movq	6464(%rax), %rax
	movq	8(%rax), %rax
	movl	-4(%rbp), %ecx
	shll	$1, %ecx
	movslq	%ecx, %rcx
	movq	(%rax,%rcx,8), %rsi
	movq	-16(%rbp), %rax
	movq	40(%rax), %rax
	movslq	6400(%rax), %rdx
	shlq	$1, %rdx
	callq	memcpy
# %bb.8:                                # %for.inc66
                                        #   in Loop: Header=BB72_6 Depth=1
	movl	-4(%rbp), %eax
	addl	$1, %eax
	movl	%eax, -4(%rbp)
	jmp	.LBB72_6
.LBB72_9:                               # %for.end68
	movl	$0, -4(%rbp)
.LBB72_10:                              # %for.cond69
                                        # =>This Inner Loop Header: Depth=1
	movl	-4(%rbp), %ecx
	movq	-16(%rbp), %rax
	movq	40(%rax), %rax
	movl	6396(%rax), %eax
	cltd
	movl	$2, %esi
	idivl	%esi
	cmpl	%eax, %ecx
	jge	.LBB72_13
# %bb.11:                               # %for.body75
                                        #   in Loop: Header=BB72_10 Depth=1
	movq	-16(%rbp), %rax
	movq	56(%rax), %rax
	movq	6424(%rax), %rax
	movslq	-4(%rbp), %rcx
	movq	(%rax,%rcx,8), %rdi
	movq	-16(%rbp), %rax
	movq	40(%rax), %rax
	movq	6424(%rax), %rax
	movl	-4(%rbp), %ecx
	shll	$1, %ecx
	addl	$1, %ecx
	movslq	%ecx, %rcx
	movq	(%rax,%rcx,8), %rsi
	movq	-16(%rbp), %rax
	movq	40(%rax), %rax
	movslq	6392(%rax), %rdx
	shlq	$1, %rdx
	callq	memcpy
# %bb.12:                               # %for.inc89
                                        #   in Loop: Header=BB72_10 Depth=1
	movl	-4(%rbp), %eax
	addl	$1, %eax
	movl	%eax, -4(%rbp)
	jmp	.LBB72_10
.LBB72_13:                              # %for.end91
	movl	$0, -4(%rbp)
.LBB72_14:                              # %for.cond92
                                        # =>This Inner Loop Header: Depth=1
	movl	-4(%rbp), %ecx
	movq	-16(%rbp), %rax
	movq	40(%rax), %rax
	movl	6404(%rax), %eax
	cltd
	movl	$2, %esi
	idivl	%esi
	cmpl	%eax, %ecx
	jge	.LBB72_17
# %bb.15:                               # %for.body98
                                        #   in Loop: Header=BB72_14 Depth=1
	movq	-16(%rbp), %rax
	movq	56(%rax), %rax
	movq	6464(%rax), %rax
	movq	(%rax), %rax
	movslq	-4(%rbp), %rcx
	movq	(%rax,%rcx,8), %rdi
	movq	-16(%rbp), %rax
	movq	40(%rax), %rax
	movq	6464(%rax), %rax
	movq	(%rax), %rax
	movl	-4(%rbp), %ecx
	shll	$1, %ecx
	addl	$1, %ecx
	movslq	%ecx, %rcx
	movq	(%rax,%rcx,8), %rsi
	movq	-16(%rbp), %rax
	movq	40(%rax), %rax
	movslq	6400(%rax), %rdx
	shlq	$1, %rdx
	callq	memcpy
	movq	-16(%rbp), %rax
	movq	56(%rax), %rax
	movq	6464(%rax), %rax
	movq	8(%rax), %rax
	movslq	-4(%rbp), %rcx
	movq	(%rax,%rcx,8), %rdi
	movq	-16(%rbp), %rax
	movq	40(%rax), %rax
	movq	6464(%rax), %rax
	movq	8(%rax), %rax
	movl	-4(%rbp), %ecx
	shll	$1, %ecx
	addl	$1, %ecx
	movslq	%ecx, %rcx
	movq	(%rax,%rcx,8), %rsi
	movq	-16(%rbp), %rax
	movq	40(%rax), %rax
	movslq	6400(%rax), %rdx
	shlq	$1, %rdx
	callq	memcpy
# %bb.16:                               # %for.inc131
                                        #   in Loop: Header=BB72_14 Depth=1
	movl	-4(%rbp), %eax
	addl	$1, %eax
	movl	%eax, -4(%rbp)
	jmp	.LBB72_14
.LBB72_17:                              # %for.end133
	movq	-16(%rbp), %rax
	movq	48(%rax), %rdi
	callq	UnifiedOneForthPix
	movq	-16(%rbp), %rax
	movq	56(%rax), %rdi
	callq	UnifiedOneForthPix
	movq	-16(%rbp), %rax
	movq	40(%rax), %rax
	movl	8(%rax), %eax
	movq	-16(%rbp), %rcx
	movq	48(%rcx), %rcx
	movl	%eax, 4(%rcx)
	movq	-16(%rbp), %rax
	movq	40(%rax), %rax
	movl	12(%rax), %eax
	movq	-16(%rbp), %rcx
	movq	56(%rcx), %rcx
	movl	%eax, 4(%rcx)
	movq	-16(%rbp), %rax
	movq	40(%rax), %rax
	movl	16(%rax), %eax
	movq	-16(%rbp), %rcx
	movq	48(%rcx), %rcx
	movl	%eax, 16(%rcx)
	movq	-16(%rbp), %rax
	movq	40(%rax), %rax
	movl	12(%rax), %eax
	movq	-16(%rbp), %rcx
	movq	56(%rcx), %rcx
	movl	%eax, 12(%rcx)
	movq	-16(%rbp), %rcx
	movq	48(%rcx), %rcx
	movl	%eax, 12(%rcx)
	movq	-16(%rbp), %rax
	movq	40(%rax), %rax
	movl	8(%rax), %eax
	movq	-16(%rbp), %rcx
	movq	56(%rcx), %rcx
	movl	%eax, 8(%rcx)
	movq	-16(%rbp), %rcx
	movq	48(%rcx), %rcx
	movl	%eax, 8(%rcx)
	movq	-16(%rbp), %rax
	movq	40(%rax), %rax
	movl	16(%rax), %eax
	movq	-16(%rbp), %rcx
	movq	56(%rcx), %rcx
	movl	%eax, 16(%rcx)
	movq	-16(%rbp), %rax
	movq	40(%rax), %rax
	movl	6380(%rax), %eax
	movq	-16(%rbp), %rcx
	movq	56(%rcx), %rcx
	movl	%eax, 6380(%rcx)
	movq	-16(%rbp), %rcx
	movq	48(%rcx), %rcx
	movl	%eax, 6380(%rcx)
	movq	-16(%rbp), %rax
	movq	40(%rax), %rax
	movl	6376(%rax), %eax
	movq	-16(%rbp), %rcx
	movq	56(%rcx), %rcx
	movl	%eax, 6376(%rcx)
	movq	-16(%rbp), %rcx
	movq	48(%rcx), %rcx
	movl	%eax, 6376(%rcx)
	movq	-16(%rbp), %rax
	movq	40(%rax), %rax
	movl	6372(%rax), %eax
	movq	-16(%rbp), %rcx
	movq	56(%rcx), %rcx
	movl	%eax, 6372(%rcx)
	movq	-16(%rbp), %rcx
	movq	48(%rcx), %rcx
	movl	%eax, 6372(%rcx)
	movq	-16(%rbp), %rcx
	movl	%eax, 28(%rcx)
	movq	-16(%rbp), %rax
	movq	56(%rax), %rax
	movl	$1, 6412(%rax)
	movq	-16(%rbp), %rax
	movq	48(%rax), %rax
	movl	$1, 6412(%rax)
	movq	-16(%rbp), %rax
	movq	40(%rax), %rax
	movl	6416(%rax), %eax
	movq	-16(%rbp), %rcx
	movq	56(%rcx), %rcx
	movl	%eax, 6416(%rcx)
	movq	-16(%rbp), %rcx
	movq	48(%rcx), %rcx
	movl	%eax, 6416(%rcx)
	movq	-16(%rbp), %rax
	movq	48(%rax), %rax
	movq	-16(%rbp), %rcx
	movq	40(%rcx), %rcx
	movq	%rax, 6528(%rcx)
	movq	-16(%rbp), %rax
	movq	56(%rax), %rax
	movq	-16(%rbp), %rcx
	movq	40(%rcx), %rcx
	movq	%rax, 6536(%rcx)
	movq	-16(%rbp), %rax
	movq	56(%rax), %rax
	movq	-16(%rbp), %rcx
	movq	48(%rcx), %rcx
	movq	%rax, 6536(%rcx)
	movq	-16(%rbp), %rax
	movq	40(%rax), %rax
	movq	-16(%rbp), %rcx
	movq	48(%rcx), %rcx
	movq	%rax, 6544(%rcx)
	movq	-16(%rbp), %rax
	movq	48(%rax), %rax
	movq	-16(%rbp), %rcx
	movq	56(%rcx), %rcx
	movq	%rax, 6528(%rcx)
	movq	-16(%rbp), %rax
	movq	40(%rax), %rax
	movq	-16(%rbp), %rcx
	movq	56(%rcx), %rcx
	movq	%rax, 6544(%rcx)
	movq	-16(%rbp), %rax
	movq	40(%rax), %rax
	movl	6552(%rax), %eax
	movq	-16(%rbp), %rcx
	movq	56(%rcx), %rcx
	movl	%eax, 6552(%rcx)
	movq	-16(%rbp), %rcx
	movq	48(%rcx), %rcx
	movl	%eax, 6552(%rcx)
	movq	-16(%rbp), %rax
	movq	40(%rax), %rax
	cmpl	$0, 6556(%rax)
	jne	.LBB72_27
# %bb.18:                               # %if.then211
	movl	$0, -4(%rbp)
.LBB72_19:                              # %for.cond212
                                        # =>This Inner Loop Header: Depth=1
	movl	-4(%rbp), %eax
	cmpl	listXsize+4, %eax
	jge	.LBB72_22
# %bb.20:                               # %for.body215
                                        #   in Loop: Header=BB72_19 Depth=1
	movq	-16(%rbp), %rax
	movq	40(%rax), %rax
	movl	-4(%rbp), %ecx
	shll	$1, %ecx
	movslq	%ecx, %rcx
	movq	816(%rax,%rcx,8), %rax
	movq	-16(%rbp), %rcx
	movq	48(%rcx), %rcx
	movl	-4(%rbp), %edx
	shll	$1, %edx
	movslq	%edx, %rdx
	movq	%rax, 288(%rcx,%rdx,8)
	movq	-16(%rbp), %rax
	movq	40(%rax), %rax
	movl	-4(%rbp), %ecx
	shll	$1, %ecx
	addl	$1, %ecx
	movslq	%ecx, %rcx
	movq	816(%rax,%rcx,8), %rax
	movq	-16(%rbp), %rcx
	movq	48(%rcx), %rcx
	movl	-4(%rbp), %edx
	shll	$1, %edx
	addl	$1, %edx
	movslq	%edx, %rdx
	movq	%rax, 288(%rcx,%rdx,8)
	movq	-16(%rbp), %rax
	movq	40(%rax), %rax
	movl	-4(%rbp), %ecx
	shll	$1, %ecx
	movslq	%ecx, %rcx
	movq	1344(%rax,%rcx,8), %rax
	movq	-16(%rbp), %rcx
	movq	56(%rcx), %rcx
	movl	-4(%rbp), %edx
	shll	$1, %edx
	movslq	%edx, %rdx
	movq	%rax, 288(%rcx,%rdx,8)
	movq	-16(%rbp), %rax
	movq	40(%rax), %rax
	movl	-4(%rbp), %ecx
	shll	$1, %ecx
	addl	$1, %ecx
	movslq	%ecx, %rcx
	movq	1344(%rax,%rcx,8), %rax
	movq	-16(%rbp), %rcx
	movq	56(%rcx), %rcx
	movl	-4(%rbp), %edx
	shll	$1, %edx
	addl	$1, %edx
	movslq	%edx, %rdx
	movq	%rax, 288(%rcx,%rdx,8)
# %bb.21:                               # %for.inc267
                                        #   in Loop: Header=BB72_19 Depth=1
	movl	-4(%rbp), %eax
	addl	$1, %eax
	movl	%eax, -4(%rbp)
	jmp	.LBB72_19
.LBB72_22:                              # %for.end269
	movl	$0, -4(%rbp)
.LBB72_23:                              # %for.cond270
                                        # =>This Inner Loop Header: Depth=1
	movl	-4(%rbp), %eax
	cmpl	listXsize, %eax
	jge	.LBB72_26
# %bb.24:                               # %for.body273
                                        #   in Loop: Header=BB72_23 Depth=1
	movq	-16(%rbp), %rax
	movq	40(%rax), %rax
	movl	-4(%rbp), %ecx
	shll	$1, %ecx
	movslq	%ecx, %rcx
	movq	552(%rax,%rcx,8), %rax
	movq	-16(%rbp), %rcx
	movq	48(%rcx), %rcx
	movl	-4(%rbp), %edx
	shll	$1, %edx
	movslq	%edx, %rdx
	movq	%rax, 24(%rcx,%rdx,8)
	movq	-16(%rbp), %rax
	movq	40(%rax), %rax
	movl	-4(%rbp), %ecx
	shll	$1, %ecx
	addl	$1, %ecx
	movslq	%ecx, %rcx
	movq	552(%rax,%rcx,8), %rax
	movq	-16(%rbp), %rcx
	movq	48(%rcx), %rcx
	movl	-4(%rbp), %edx
	shll	$1, %edx
	addl	$1, %edx
	movslq	%edx, %rdx
	movq	%rax, 24(%rcx,%rdx,8)
	movq	-16(%rbp), %rax
	movq	40(%rax), %rax
	movl	-4(%rbp), %ecx
	shll	$1, %ecx
	movslq	%ecx, %rcx
	movq	1080(%rax,%rcx,8), %rax
	movq	-16(%rbp), %rcx
	movq	56(%rcx), %rcx
	movl	-4(%rbp), %edx
	shll	$1, %edx
	movslq	%edx, %rdx
	movq	%rax, 24(%rcx,%rdx,8)
	movq	-16(%rbp), %rax
	movq	40(%rax), %rax
	movl	-4(%rbp), %ecx
	shll	$1, %ecx
	addl	$1, %ecx
	movslq	%ecx, %rcx
	movq	1080(%rax,%rcx,8), %rax
	movq	-16(%rbp), %rcx
	movq	56(%rcx), %rcx
	movl	-4(%rbp), %edx
	shll	$1, %edx
	addl	$1, %edx
	movslq	%edx, %rdx
	movq	%rax, 24(%rcx,%rdx,8)
# %bb.25:                               # %for.inc326
                                        #   in Loop: Header=BB72_23 Depth=1
	movl	-4(%rbp), %eax
	addl	$1, %eax
	movl	%eax, -4(%rbp)
	jmp	.LBB72_23
.LBB72_26:                              # %for.end328
	jmp	.LBB72_27
.LBB72_27:                              # %if.end
	jmp	.LBB72_29
.LBB72_28:                              # %if.else
	movq	-16(%rbp), %rax
	movq	$0, 48(%rax)
	movq	-16(%rbp), %rax
	movq	$0, 56(%rax)
	movq	-16(%rbp), %rax
	movq	40(%rax), %rax
	movq	$0, 6528(%rax)
	movq	-16(%rbp), %rax
	movq	40(%rax), %rax
	movq	$0, 6536(%rax)
.LBB72_29:                              # %if.end335
	movl	$0, -8(%rbp)
.LBB72_30:                              # %for.cond336
                                        # =>This Loop Header: Depth=1
                                        #     Child Loop BB72_32 Depth 2
	movl	-8(%rbp), %ecx
	movq	-16(%rbp), %rax
	movq	40(%rax), %rax
	movl	6396(%rax), %eax
	cltd
	movl	$4, %esi
	idivl	%esi
	cmpl	%eax, %ecx
	jge	.LBB72_59
# %bb.31:                               # %for.body342
                                        #   in Loop: Header=BB72_30 Depth=1
	movl	$0, -4(%rbp)
.LBB72_32:                              # %for.cond343
                                        #   Parent Loop BB72_30 Depth=1
                                        # =>  This Inner Loop Header: Depth=2
	movl	-4(%rbp), %ecx
	movq	-16(%rbp), %rax
	movq	40(%rax), %rax
	movl	6392(%rax), %eax
	cltd
	movl	$4, %esi
	idivl	%esi
	cmpl	%eax, %ecx
	jge	.LBB72_57
# %bb.33:                               # %for.body349
                                        #   in Loop: Header=BB72_32 Depth=2
	movl	-4(%rbp), %eax
	cltd
	movl	$4, %ecx
	idivl	%ecx
	movl	%eax, -56(%rbp)
	movl	-8(%rbp), %eax
	cltd
	idivl	%ecx
	movl	%eax, -36(%rbp)
	movq	-16(%rbp), %rax
	movq	40(%rax), %rax
	movl	6392(%rax), %eax
	cltd
	movl	$16, %ecx
	idivl	%ecx
	movl	%eax, %ecx
	shll	$1, %ecx
	movl	-36(%rbp), %eax
	cltd
	movl	$2, %esi
	idivl	%esi
	imull	%eax, %ecx
	movl	-56(%rbp), %eax
	shll	$1, %eax
	addl	%eax, %ecx
	movl	-36(%rbp), %eax
	cltd
	idivl	%esi
	addl	%edx, %ecx
	movl	%ecx, -32(%rbp)
	movq	-16(%rbp), %rax
	movq	40(%rax), %rax
	cmpl	$0, 6416(%rax)
	je	.LBB72_48
# %bb.34:                               # %land.lhs.true
                                        #   in Loop: Header=BB72_32 Depth=2
	movq	-16(%rbp), %rax
	movq	40(%rax), %rax
	movq	6472(%rax), %rax
	movslq	-32(%rbp), %rcx
	movzbl	(%rax,%rcx), %eax
	cmpl	$0, %eax
	je	.LBB72_48
# %bb.35:                               # %if.then369
                                        #   in Loop: Header=BB72_32 Depth=2
	movl	-32(%rbp), %eax
	cltd
	movl	$2, %ecx
	idivl	%ecx
	cmpl	$0, %edx
	movl	$4, %eax
	cmovnel	%eax, %ecx
	movl	%ecx, -28(%rbp)
	movq	-16(%rbp), %rax
	movq	40(%rax), %rax
	movq	6480(%rax), %rax
	movq	(%rax), %rax
	movslq	-4(%rbp), %rcx
	movq	(%rax,%rcx,8), %rax
	movslq	-8(%rbp), %rcx
	movswl	(%rax,%rcx,2), %eax
	movl	%eax, -24(%rbp)
	movq	-16(%rbp), %rax
	movq	40(%rax), %rax
	movq	6480(%rax), %rax
	movq	8(%rax), %rax
	movslq	-4(%rbp), %rcx
	movq	(%rax,%rcx,8), %rax
	movslq	-8(%rbp), %rcx
	movswl	(%rax,%rcx,2), %eax
	movl	%eax, -20(%rbp)
	cmpl	$0, -24(%rbp)
	jl	.LBB72_37
# %bb.36:                               # %cond.true
                                        #   in Loop: Header=BB72_32 Depth=2
	movq	-16(%rbp), %rax
	movq	40(%rax), %rax
	addq	$24, %rax
	movl	-28(%rbp), %ecx
	addl	$0, %ecx
	movslq	%ecx, %rcx
	imulq	$264, %rcx, %rcx        # imm = 0x108
	addq	%rcx, %rax
	movslq	-24(%rbp), %rcx
	movq	(%rax,%rcx,8), %rax
	jmp	.LBB72_38
.LBB72_37:                              # %cond.false
                                        #   in Loop: Header=BB72_32 Depth=2
	xorl	%eax, %eax
	jmp	.LBB72_38
.LBB72_38:                              # %cond.end
                                        #   in Loop: Header=BB72_32 Depth=2
	movq	-16(%rbp), %rcx
	movq	40(%rcx), %rcx
	movq	6496(%rcx), %rcx
	movl	-28(%rbp), %edx
	addl	$0, %edx
	movslq	%edx, %rdx
	movq	(%rcx,%rdx,8), %rcx
	movslq	-4(%rbp), %rdx
	movq	(%rcx,%rdx,8), %rcx
	movslq	-8(%rbp), %rdx
	movq	%rax, (%rcx,%rdx,8)
	cmpl	$0, -20(%rbp)
	jl	.LBB72_40
# %bb.39:                               # %cond.true407
                                        #   in Loop: Header=BB72_32 Depth=2
	movq	-16(%rbp), %rax
	movq	40(%rax), %rax
	addq	$24, %rax
	movl	-28(%rbp), %ecx
	addl	$1, %ecx
	movslq	%ecx, %rcx
	imulq	$264, %rcx, %rcx        # imm = 0x108
	addq	%rcx, %rax
	movslq	-20(%rbp), %rcx
	movq	(%rax,%rcx,8), %rax
	jmp	.LBB72_41
.LBB72_40:                              # %cond.false415
                                        #   in Loop: Header=BB72_32 Depth=2
	xorl	%eax, %eax
	jmp	.LBB72_41
.LBB72_41:                              # %cond.end416
                                        #   in Loop: Header=BB72_32 Depth=2
	movq	-16(%rbp), %rcx
	movq	40(%rcx), %rcx
	movq	6496(%rcx), %rcx
	movl	-28(%rbp), %edx
	addl	$1, %edx
	movslq	%edx, %rdx
	movq	(%rcx,%rdx,8), %rcx
	movslq	-4(%rbp), %rdx
	movq	(%rcx,%rdx,8), %rcx
	movslq	-8(%rbp), %rdx
	movq	%rax, (%rcx,%rdx,8)
	cmpl	$0, -24(%rbp)
	jl	.LBB72_43
# %bb.42:                               # %cond.true429
                                        #   in Loop: Header=BB72_32 Depth=2
	movq	-16(%rbp), %rax
	movq	40(%rax), %rax
	addq	$1608, %rax             # imm = 0x648
	movl	-28(%rbp), %ecx
	addl	$0, %ecx
	movslq	%ecx, %rcx
	imulq	$264, %rcx, %rcx        # imm = 0x108
	addq	%rcx, %rax
	movslq	-24(%rbp), %rcx
	movq	(%rax,%rcx,8), %rax
	jmp	.LBB72_44
.LBB72_43:                              # %cond.false436
                                        #   in Loop: Header=BB72_32 Depth=2
	xorl	%eax, %eax
	jmp	.LBB72_44
.LBB72_44:                              # %cond.end437
                                        #   in Loop: Header=BB72_32 Depth=2
	movq	-16(%rbp), %rcx
	movq	40(%rcx), %rcx
	movq	6496(%rcx), %rcx
	movq	(%rcx), %rcx
	movslq	-4(%rbp), %rdx
	movq	(%rcx,%rdx,8), %rcx
	movslq	-8(%rbp), %rdx
	movq	%rax, (%rcx,%rdx,8)
	cmpl	$0, -20(%rbp)
	jl	.LBB72_46
# %bb.45:                               # %cond.true448
                                        #   in Loop: Header=BB72_32 Depth=2
	movq	-16(%rbp), %rax
	movq	40(%rax), %rax
	addq	$1608, %rax             # imm = 0x648
	movl	-28(%rbp), %ecx
	addl	$1, %ecx
	movslq	%ecx, %rcx
	imulq	$264, %rcx, %rcx        # imm = 0x108
	addq	%rcx, %rax
	movslq	-20(%rbp), %rcx
	movq	(%rax,%rcx,8), %rax
	jmp	.LBB72_47
.LBB72_46:                              # %cond.false456
                                        #   in Loop: Header=BB72_32 Depth=2
	xorl	%eax, %eax
	jmp	.LBB72_47
.LBB72_47:                              # %cond.end457
                                        #   in Loop: Header=BB72_32 Depth=2
	movq	-16(%rbp), %rcx
	movq	40(%rcx), %rcx
	movq	6496(%rcx), %rcx
	movq	8(%rcx), %rcx
	movslq	-4(%rbp), %rdx
	movq	(%rcx,%rdx,8), %rcx
	movslq	-8(%rbp), %rdx
	movq	%rax, (%rcx,%rdx,8)
	jmp	.LBB72_55
.LBB72_48:                              # %if.else466
                                        #   in Loop: Header=BB72_32 Depth=2
	movq	-16(%rbp), %rax
	movq	40(%rax), %rax
	movq	6480(%rax), %rax
	movq	(%rax), %rax
	movslq	-4(%rbp), %rcx
	movq	(%rax,%rcx,8), %rax
	movslq	-8(%rbp), %rcx
	movswl	(%rax,%rcx,2), %eax
	movl	%eax, -24(%rbp)
	movq	-16(%rbp), %rax
	movq	40(%rax), %rax
	movq	6480(%rax), %rax
	movq	8(%rax), %rax
	movslq	-4(%rbp), %rcx
	movq	(%rax,%rcx,8), %rax
	movslq	-8(%rbp), %rcx
	movswl	(%rax,%rcx,2), %eax
	movl	%eax, -20(%rbp)
	cmpl	$0, -24(%rbp)
	jl	.LBB72_50
# %bb.49:                               # %cond.true485
                                        #   in Loop: Header=BB72_32 Depth=2
	movq	-16(%rbp), %rax
	movq	40(%rax), %rax
	movslq	-24(%rbp), %rcx
	movq	24(%rax,%rcx,8), %rax
	jmp	.LBB72_51
.LBB72_50:                              # %cond.false491
                                        #   in Loop: Header=BB72_32 Depth=2
	movq	$-1, %rax
	jmp	.LBB72_51
.LBB72_51:                              # %cond.end492
                                        #   in Loop: Header=BB72_32 Depth=2
	movq	-16(%rbp), %rcx
	movq	40(%rcx), %rcx
	movq	6496(%rcx), %rcx
	movq	(%rcx), %rcx
	movslq	-4(%rbp), %rdx
	movq	(%rcx,%rdx,8), %rcx
	movslq	-8(%rbp), %rdx
	movq	%rax, (%rcx,%rdx,8)
	cmpl	$0, -20(%rbp)
	jl	.LBB72_53
# %bb.52:                               # %cond.true503
                                        #   in Loop: Header=BB72_32 Depth=2
	movq	-16(%rbp), %rax
	movq	40(%rax), %rax
	movslq	-20(%rbp), %rcx
	movq	288(%rax,%rcx,8), %rax
	jmp	.LBB72_54
.LBB72_53:                              # %cond.false509
                                        #   in Loop: Header=BB72_32 Depth=2
	movq	$-1, %rax
	jmp	.LBB72_54
.LBB72_54:                              # %cond.end510
                                        #   in Loop: Header=BB72_32 Depth=2
	movq	-16(%rbp), %rcx
	movq	40(%rcx), %rcx
	movq	6496(%rcx), %rcx
	movq	8(%rcx), %rcx
	movslq	-4(%rbp), %rdx
	movq	(%rcx,%rdx,8), %rcx
	movslq	-8(%rbp), %rdx
	movq	%rax, (%rcx,%rdx,8)
.LBB72_55:                              # %if.end519
                                        #   in Loop: Header=BB72_32 Depth=2
	jmp	.LBB72_56
.LBB72_56:                              # %for.inc520
                                        #   in Loop: Header=BB72_32 Depth=2
	movl	-4(%rbp), %eax
	addl	$1, %eax
	movl	%eax, -4(%rbp)
	jmp	.LBB72_32
.LBB72_57:                              # %for.end522
                                        #   in Loop: Header=BB72_30 Depth=1
	jmp	.LBB72_58
.LBB72_58:                              # %for.inc523
                                        #   in Loop: Header=BB72_30 Depth=1
	movl	-8(%rbp), %eax
	addl	$1, %eax
	movl	%eax, -8(%rbp)
	jmp	.LBB72_30
.LBB72_59:                              # %for.end525
	movq	-16(%rbp), %rax
	movq	40(%rax), %rax
	cmpl	$0, 6556(%rax)
	je	.LBB72_61
# %bb.60:                               # %lor.lhs.false
	movq	active_sps, %rax
	cmpl	$0, 1156(%rax)
	je	.LBB72_73
.LBB72_61:                              # %if.then530
	movl	$0, -4(%rbp)
.LBB72_62:                              # %for.cond531
                                        # =>This Loop Header: Depth=1
                                        #     Child Loop BB72_64 Depth 2
	movl	-4(%rbp), %ecx
	movq	-16(%rbp), %rax
	movq	40(%rax), %rax
	movl	6392(%rax), %eax
	cltd
	movl	$4, %esi
	idivl	%esi
	cmpl	%eax, %ecx
	jge	.LBB72_72
# %bb.63:                               # %for.body537
                                        #   in Loop: Header=BB72_62 Depth=1
	movl	$0, -8(%rbp)
.LBB72_64:                              # %for.cond538
                                        #   Parent Loop BB72_62 Depth=1
                                        # =>  This Inner Loop Header: Depth=2
	movl	-8(%rbp), %ecx
	movq	-16(%rbp), %rax
	movq	40(%rax), %rax
	movl	6396(%rax), %eax
	cltd
	movl	$8, %esi
	idivl	%esi
	cmpl	%eax, %ecx
	jge	.LBB72_70
# %bb.65:                               # %for.body544
                                        #   in Loop: Header=BB72_64 Depth=2
	movl	-4(%rbp), %eax
	cltd
	movl	$4, %ecx
	idivl	%ecx
	movl	%eax, -68(%rbp)
	movl	-8(%rbp), %eax
	cltd
	movl	$2, %esi
	idivl	%esi
	movl	%eax, -48(%rbp)
	movq	-16(%rbp), %rax
	movq	40(%rax), %rax
	movl	6392(%rax), %eax
	cltd
	movl	$16, %ecx
	idivl	%ecx
	movl	%eax, %ecx
	shll	$1, %ecx
	movl	-48(%rbp), %eax
	cltd
	idivl	%esi
	imull	%eax, %ecx
	movl	-68(%rbp), %eax
	shll	$1, %eax
	addl	%eax, %ecx
	movl	-48(%rbp), %eax
	cltd
	idivl	%esi
	addl	%edx, %ecx
	movl	%ecx, -72(%rbp)
	movq	-16(%rbp), %rax
	movq	40(%rax), %rax
	cmpl	$0, 6416(%rax)
	je	.LBB72_68
# %bb.66:                               # %land.lhs.true563
                                        #   in Loop: Header=BB72_64 Depth=2
	movq	-16(%rbp), %rax
	movq	40(%rax), %rax
	movq	6472(%rax), %rax
	movslq	-72(%rbp), %rcx
	movzbl	(%rax,%rcx), %eax
	cmpl	$0, %eax
	je	.LBB72_68
# %bb.67:                               # %if.then570
                                        #   in Loop: Header=BB72_64 Depth=2
	movq	-16(%rbp), %rax
	movq	48(%rax), %rax
	movq	6520(%rax), %rax
	movslq	-4(%rbp), %rcx
	movq	(%rax,%rcx,8), %rax
	movslq	-8(%rbp), %rcx
	movb	$1, (%rax,%rcx)
	movq	-16(%rbp), %rax
	movq	56(%rax), %rax
	movq	6520(%rax), %rax
	movslq	-4(%rbp), %rcx
	movq	(%rax,%rcx,8), %rax
	movslq	-8(%rbp), %rcx
	movb	$1, (%rax,%rcx)
	movq	-16(%rbp), %rax
	movq	40(%rax), %rax
	movq	6520(%rax), %rax
	movslq	-4(%rbp), %rcx
	movq	(%rax,%rcx,8), %rax
	movl	-8(%rbp), %ecx
	shll	$1, %ecx
	addl	$1, %ecx
	movslq	%ecx, %rcx
	movb	$1, (%rax,%rcx)
	movq	-16(%rbp), %rax
	movq	40(%rax), %rax
	movq	6520(%rax), %rax
	movslq	-4(%rbp), %rcx
	movq	(%rax,%rcx,8), %rax
	movl	-8(%rbp), %ecx
	shll	$1, %ecx
	movslq	%ecx, %rcx
	movb	$1, (%rax,%rcx)
	movq	-16(%rbp), %rax
	movq	40(%rax), %rax
	movq	6504(%rax), %rax
	movq	(%rax), %rax
	movslq	-4(%rbp), %rcx
	movq	(%rax,%rcx,8), %rdi
	movl	-8(%rbp), %eax
	cltd
	movl	$4, %esi
	idivl	%esi
	movl	%eax, %ecx
	shll	$3, %ecx
	movl	-8(%rbp), %eax
	cltd
	idivl	%esi
	addl	%edx, %ecx
	addl	$4, %ecx
	movslq	%ecx, %rax
	movq	(%rdi,%rax,8), %rax
	movw	(%rax), %ax
	movq	-16(%rbp), %rcx
	movq	56(%rcx), %rcx
	movq	6504(%rcx), %rcx
	movq	(%rcx), %rcx
	movslq	-4(%rbp), %rdx
	movq	(%rcx,%rdx,8), %rcx
	movslq	-8(%rbp), %rdx
	movq	(%rcx,%rdx,8), %rcx
	movw	%ax, (%rcx)
	movq	-16(%rbp), %rax
	movq	40(%rax), %rax
	movq	6504(%rax), %rax
	movq	(%rax), %rax
	movslq	-4(%rbp), %rcx
	movq	(%rax,%rcx,8), %rdi
	movl	-8(%rbp), %eax
	cltd
	idivl	%esi
	movl	%eax, %ecx
	shll	$3, %ecx
	movl	-8(%rbp), %eax
	cltd
	idivl	%esi
	addl	%edx, %ecx
	addl	$4, %ecx
	movslq	%ecx, %rax
	movq	(%rdi,%rax,8), %rax
	movw	2(%rax), %ax
	movq	-16(%rbp), %rcx
	movq	56(%rcx), %rcx
	movq	6504(%rcx), %rcx
	movq	(%rcx), %rcx
	movslq	-4(%rbp), %rdx
	movq	(%rcx,%rdx,8), %rcx
	movslq	-8(%rbp), %rdx
	movq	(%rcx,%rdx,8), %rcx
	movw	%ax, 2(%rcx)
	movq	-16(%rbp), %rax
	movq	40(%rax), %rax
	movq	6504(%rax), %rax
	movq	8(%rax), %rax
	movslq	-4(%rbp), %rcx
	movq	(%rax,%rcx,8), %rdi
	movl	-8(%rbp), %eax
	cltd
	idivl	%esi
	movl	%eax, %ecx
	shll	$3, %ecx
	movl	-8(%rbp), %eax
	cltd
	idivl	%esi
	addl	%edx, %ecx
	addl	$4, %ecx
	movslq	%ecx, %rax
	movq	(%rdi,%rax,8), %rax
	movw	(%rax), %ax
	movq	-16(%rbp), %rcx
	movq	56(%rcx), %rcx
	movq	6504(%rcx), %rcx
	movq	8(%rcx), %rcx
	movslq	-4(%rbp), %rdx
	movq	(%rcx,%rdx,8), %rcx
	movslq	-8(%rbp), %rdx
	movq	(%rcx,%rdx,8), %rcx
	movw	%ax, (%rcx)
	movq	-16(%rbp), %rax
	movq	40(%rax), %rax
	movq	6504(%rax), %rax
	movq	8(%rax), %rax
	movslq	-4(%rbp), %rcx
	movq	(%rax,%rcx,8), %rdi
	movl	-8(%rbp), %eax
	cltd
	idivl	%esi
	movl	%eax, %ecx
	shll	$3, %ecx
	movl	-8(%rbp), %eax
	cltd
	idivl	%esi
	addl	%edx, %ecx
	addl	$4, %ecx
	movslq	%ecx, %rax
	movq	(%rdi,%rax,8), %rax
	movw	2(%rax), %ax
	movq	-16(%rbp), %rcx
	movq	56(%rcx), %rcx
	movq	6504(%rcx), %rcx
	movq	8(%rcx), %rcx
	movslq	-4(%rbp), %rdx
	movq	(%rcx,%rdx,8), %rcx
	movslq	-8(%rbp), %rdx
	movq	(%rcx,%rdx,8), %rcx
	movw	%ax, 2(%rcx)
	movq	-16(%rbp), %rax
	movq	40(%rax), %rax
	movq	6480(%rax), %rax
	movq	(%rax), %rax
	movslq	-4(%rbp), %rcx
	movq	(%rax,%rcx,8), %rdi
	movl	-8(%rbp), %eax
	cltd
	idivl	%esi
	movl	%eax, %ecx
	shll	$3, %ecx
	movl	-8(%rbp), %eax
	cltd
	idivl	%esi
	addl	%edx, %ecx
	addl	$4, %ecx
	movslq	%ecx, %rax
	movw	(%rdi,%rax,2), %ax
	movq	-16(%rbp), %rcx
	movq	56(%rcx), %rcx
	movq	6480(%rcx), %rcx
	movq	(%rcx), %rcx
	movslq	-4(%rbp), %rdx
	movq	(%rcx,%rdx,8), %rcx
	movslq	-8(%rbp), %rdx
	movw	%ax, (%rcx,%rdx,2)
	movq	-16(%rbp), %rax
	movq	40(%rax), %rax
	movq	6480(%rax), %rax
	movq	8(%rax), %rax
	movslq	-4(%rbp), %rcx
	movq	(%rax,%rcx,8), %rdi
	movl	-8(%rbp), %eax
	cltd
	idivl	%esi
	movl	%eax, %ecx
	shll	$3, %ecx
	movl	-8(%rbp), %eax
	cltd
	idivl	%esi
	addl	%edx, %ecx
	addl	$4, %ecx
	movslq	%ecx, %rax
	movw	(%rdi,%rax,2), %ax
	movq	-16(%rbp), %rcx
	movq	56(%rcx), %rcx
	movq	6480(%rcx), %rcx
	movq	8(%rcx), %rcx
	movslq	-4(%rbp), %rdx
	movq	(%rcx,%rdx,8), %rcx
	movslq	-8(%rbp), %rdx
	movw	%ax, (%rcx,%rdx,2)
	movq	-16(%rbp), %rax
	movq	40(%rax), %rax
	movq	6496(%rax), %rax
	movq	32(%rax), %rax
	movslq	-4(%rbp), %rcx
	movq	(%rax,%rcx,8), %rdi
	movl	-8(%rbp), %eax
	cltd
	idivl	%esi
	movl	%eax, %ecx
	shll	$3, %ecx
	movl	-8(%rbp), %eax
	cltd
	idivl	%esi
	addl	%edx, %ecx
	addl	$4, %ecx
	movslq	%ecx, %rax
	movq	(%rdi,%rax,8), %rax
	movq	-16(%rbp), %rcx
	movq	56(%rcx), %rcx
	movq	6496(%rcx), %rcx
	movq	(%rcx), %rcx
	movslq	-4(%rbp), %rdx
	movq	(%rcx,%rdx,8), %rcx
	movslq	-8(%rbp), %rdx
	movq	%rax, (%rcx,%rdx,8)
	movq	-16(%rbp), %rax
	movq	40(%rax), %rax
	movq	6496(%rax), %rax
	movq	40(%rax), %rax
	movslq	-4(%rbp), %rcx
	movq	(%rax,%rcx,8), %rdi
	movl	-8(%rbp), %eax
	cltd
	idivl	%esi
	movl	%eax, %ecx
	shll	$3, %ecx
	movl	-8(%rbp), %eax
	cltd
	idivl	%esi
	addl	%edx, %ecx
	addl	$4, %ecx
	movslq	%ecx, %rax
	movq	(%rdi,%rax,8), %rax
	movq	-16(%rbp), %rcx
	movq	56(%rcx), %rcx
	movq	6496(%rcx), %rcx
	movq	8(%rcx), %rcx
	movslq	-4(%rbp), %rdx
	movq	(%rcx,%rdx,8), %rcx
	movslq	-8(%rbp), %rdx
	movq	%rax, (%rcx,%rdx,8)
	movq	-16(%rbp), %rax
	movq	40(%rax), %rax
	movq	6504(%rax), %rax
	movq	(%rax), %rax
	movslq	-4(%rbp), %rcx
	movq	(%rax,%rcx,8), %rdi
	movl	-8(%rbp), %eax
	cltd
	idivl	%esi
	movl	%eax, %ecx
	shll	$3, %ecx
	movl	-8(%rbp), %eax
	cltd
	idivl	%esi
	addl	%edx, %ecx
	movslq	%ecx, %rax
	movq	(%rdi,%rax,8), %rax
	movw	(%rax), %ax
	movq	-16(%rbp), %rcx
	movq	48(%rcx), %rcx
	movq	6504(%rcx), %rcx
	movq	(%rcx), %rcx
	movslq	-4(%rbp), %rdx
	movq	(%rcx,%rdx,8), %rcx
	movslq	-8(%rbp), %rdx
	movq	(%rcx,%rdx,8), %rcx
	movw	%ax, (%rcx)
	movq	-16(%rbp), %rax
	movq	40(%rax), %rax
	movq	6504(%rax), %rax
	movq	(%rax), %rax
	movslq	-4(%rbp), %rcx
	movq	(%rax,%rcx,8), %rdi
	movl	-8(%rbp), %eax
	cltd
	idivl	%esi
	movl	%eax, %ecx
	shll	$3, %ecx
	movl	-8(%rbp), %eax
	cltd
	idivl	%esi
	addl	%edx, %ecx
	movslq	%ecx, %rax
	movq	(%rdi,%rax,8), %rax
	movw	2(%rax), %ax
	movq	-16(%rbp), %rcx
	movq	48(%rcx), %rcx
	movq	6504(%rcx), %rcx
	movq	(%rcx), %rcx
	movslq	-4(%rbp), %rdx
	movq	(%rcx,%rdx,8), %rcx
	movslq	-8(%rbp), %rdx
	movq	(%rcx,%rdx,8), %rcx
	movw	%ax, 2(%rcx)
	movq	-16(%rbp), %rax
	movq	40(%rax), %rax
	movq	6504(%rax), %rax
	movq	8(%rax), %rax
	movslq	-4(%rbp), %rcx
	movq	(%rax,%rcx,8), %rdi
	movl	-8(%rbp), %eax
	cltd
	idivl	%esi
	movl	%eax, %ecx
	shll	$3, %ecx
	movl	-8(%rbp), %eax
	cltd
	idivl	%esi
	addl	%edx, %ecx
	movslq	%ecx, %rax
	movq	(%rdi,%rax,8), %rax
	movw	(%rax), %ax
	movq	-16(%rbp), %rcx
	movq	48(%rcx), %rcx
	movq	6504(%rcx), %rcx
	movq	8(%rcx), %rcx
	movslq	-4(%rbp), %rdx
	movq	(%rcx,%rdx,8), %rcx
	movslq	-8(%rbp), %rdx
	movq	(%rcx,%rdx,8), %rcx
	movw	%ax, (%rcx)
	movq	-16(%rbp), %rax
	movq	40(%rax), %rax
	movq	6504(%rax), %rax
	movq	8(%rax), %rax
	movslq	-4(%rbp), %rcx
	movq	(%rax,%rcx,8), %rdi
	movl	-8(%rbp), %eax
	cltd
	idivl	%esi
	movl	%eax, %ecx
	shll	$3, %ecx
	movl	-8(%rbp), %eax
	cltd
	idivl	%esi
	addl	%edx, %ecx
	movslq	%ecx, %rax
	movq	(%rdi,%rax,8), %rax
	movw	2(%rax), %ax
	movq	-16(%rbp), %rcx
	movq	48(%rcx), %rcx
	movq	6504(%rcx), %rcx
	movq	8(%rcx), %rcx
	movslq	-4(%rbp), %rdx
	movq	(%rcx,%rdx,8), %rcx
	movslq	-8(%rbp), %rdx
	movq	(%rcx,%rdx,8), %rcx
	movw	%ax, 2(%rcx)
	movq	-16(%rbp), %rax
	movq	40(%rax), %rax
	movq	6480(%rax), %rax
	movq	(%rax), %rax
	movslq	-4(%rbp), %rcx
	movq	(%rax,%rcx,8), %rdi
	movl	-8(%rbp), %eax
	cltd
	idivl	%esi
	movl	%eax, %ecx
	shll	$3, %ecx
	movl	-8(%rbp), %eax
	cltd
	idivl	%esi
	addl	%edx, %ecx
	movslq	%ecx, %rax
	movw	(%rdi,%rax,2), %ax
	movq	-16(%rbp), %rcx
	movq	48(%rcx), %rcx
	movq	6480(%rcx), %rcx
	movq	(%rcx), %rcx
	movslq	-4(%rbp), %rdx
	movq	(%rcx,%rdx,8), %rcx
	movslq	-8(%rbp), %rdx
	movw	%ax, (%rcx,%rdx,2)
	movq	-16(%rbp), %rax
	movq	40(%rax), %rax
	movq	6480(%rax), %rax
	movq	8(%rax), %rax
	movslq	-4(%rbp), %rcx
	movq	(%rax,%rcx,8), %rdi
	movl	-8(%rbp), %eax
	cltd
	idivl	%esi
	movl	%eax, %ecx
	shll	$3, %ecx
	movl	-8(%rbp), %eax
	cltd
	idivl	%esi
	addl	%edx, %ecx
	movslq	%ecx, %rax
	movw	(%rdi,%rax,2), %ax
	movq	-16(%rbp), %rcx
	movq	48(%rcx), %rcx
	movq	6480(%rcx), %rcx
	movq	8(%rcx), %rcx
	movslq	-4(%rbp), %rdx
	movq	(%rcx,%rdx,8), %rcx
	movslq	-8(%rbp), %rdx
	movw	%ax, (%rcx,%rdx,2)
	movq	-16(%rbp), %rax
	movq	40(%rax), %rax
	movq	6496(%rax), %rax
	movq	16(%rax), %rax
	movslq	-4(%rbp), %rcx
	movq	(%rax,%rcx,8), %rdi
	movl	-8(%rbp), %eax
	cltd
	idivl	%esi
	movl	%eax, %ecx
	shll	$3, %ecx
	movl	-8(%rbp), %eax
	cltd
	idivl	%esi
	addl	%edx, %ecx
	movslq	%ecx, %rax
	movq	(%rdi,%rax,8), %rax
	movq	-16(%rbp), %rcx
	movq	48(%rcx), %rcx
	movq	6496(%rcx), %rcx
	movq	(%rcx), %rcx
	movslq	-4(%rbp), %rdx
	movq	(%rcx,%rdx,8), %rcx
	movslq	-8(%rbp), %rdx
	movq	%rax, (%rcx,%rdx,8)
	movq	-16(%rbp), %rax
	movq	40(%rax), %rax
	movq	6496(%rax), %rax
	movq	24(%rax), %rax
	movslq	-4(%rbp), %rcx
	movq	(%rax,%rcx,8), %rdi
	movl	-8(%rbp), %eax
	cltd
	idivl	%esi
	movl	%eax, %ecx
	shll	$3, %ecx
	movl	-8(%rbp), %eax
	cltd
	idivl	%esi
	addl	%edx, %ecx
	movslq	%ecx, %rax
	movq	(%rdi,%rax,8), %rax
	movq	-16(%rbp), %rcx
	movq	48(%rcx), %rcx
	movq	6496(%rcx), %rcx
	movq	8(%rcx), %rcx
	movslq	-4(%rbp), %rdx
	movq	(%rcx,%rdx,8), %rcx
	movslq	-8(%rbp), %rdx
	movq	%rax, (%rcx,%rdx,8)
.LBB72_68:                              # %if.end908
                                        #   in Loop: Header=BB72_64 Depth=2
	jmp	.LBB72_69
.LBB72_69:                              # %for.inc909
                                        #   in Loop: Header=BB72_64 Depth=2
	movl	-8(%rbp), %eax
	addl	$1, %eax
	movl	%eax, -8(%rbp)
	jmp	.LBB72_64
.LBB72_70:                              # %for.end911
                                        #   in Loop: Header=BB72_62 Depth=1
	jmp	.LBB72_71
.LBB72_71:                              # %for.inc912
                                        #   in Loop: Header=BB72_62 Depth=1
	movl	-4(%rbp), %eax
	addl	$1, %eax
	movl	%eax, -4(%rbp)
	jmp	.LBB72_62
.LBB72_72:                              # %for.end914
	jmp	.LBB72_73
.LBB72_73:                              # %if.end915
	movl	$0, -4(%rbp)
.LBB72_74:                              # %for.cond916
                                        # =>This Loop Header: Depth=1
                                        #     Child Loop BB72_76 Depth 2
	movl	-4(%rbp), %ecx
	movq	-16(%rbp), %rax
	movq	40(%rax), %rax
	movl	6392(%rax), %eax
	cltd
	movl	$4, %esi
	idivl	%esi
	cmpl	%eax, %ecx
	jge	.LBB72_152
# %bb.75:                               # %for.body922
                                        #   in Loop: Header=BB72_74 Depth=1
	movl	$0, -8(%rbp)
.LBB72_76:                              # %for.cond923
                                        #   Parent Loop BB72_74 Depth=1
                                        # =>  This Inner Loop Header: Depth=2
	movl	-8(%rbp), %ecx
	movq	-16(%rbp), %rax
	movq	40(%rax), %rax
	movl	6396(%rax), %eax
	cltd
	movl	$8, %esi
	idivl	%esi
	cmpl	%eax, %ecx
	jge	.LBB72_150
# %bb.77:                               # %for.body929
                                        #   in Loop: Header=BB72_76 Depth=2
	movl	-4(%rbp), %eax
	cltd
	movl	$4, %ecx
	idivl	%ecx
	movl	%eax, -60(%rbp)
	movl	-8(%rbp), %eax
	cltd
	movl	$2, %esi
	idivl	%esi
	movl	%eax, -40(%rbp)
	movq	-16(%rbp), %rax
	movq	40(%rax), %rax
	movl	6392(%rax), %eax
	cltd
	movl	$16, %ecx
	idivl	%ecx
	movl	%eax, %ecx
	shll	$1, %ecx
	movl	-40(%rbp), %eax
	cltd
	idivl	%esi
	imull	%eax, %ecx
	movl	-60(%rbp), %eax
	shll	$1, %eax
	addl	%eax, %ecx
	movl	-40(%rbp), %eax
	cltd
	idivl	%esi
	addl	%edx, %ecx
	movl	%ecx, -64(%rbp)
	movq	-16(%rbp), %rax
	movq	40(%rax), %rax
	cmpl	$0, 6416(%rax)
	je	.LBB72_79
# %bb.78:                               # %lor.lhs.false948
                                        #   in Loop: Header=BB72_76 Depth=2
	movq	-16(%rbp), %rax
	movq	40(%rax), %rax
	movq	6472(%rax), %rax
	movslq	-64(%rbp), %rcx
	cmpb	$0, (%rax,%rcx)
	jne	.LBB72_148
.LBB72_79:                              # %if.then954
                                        #   in Loop: Header=BB72_76 Depth=2
	movq	-16(%rbp), %rax
	movq	40(%rax), %rax
	movq	6520(%rax), %rax
	movslq	-4(%rbp), %rcx
	movq	(%rax,%rcx,8), %rax
	movl	-8(%rbp), %ecx
	shll	$1, %ecx
	movslq	%ecx, %rcx
	movb	$0, (%rax,%rcx)
	movq	-16(%rbp), %rax
	movq	40(%rax), %rax
	movq	6520(%rax), %rax
	movslq	-4(%rbp), %rcx
	movq	(%rax,%rcx,8), %rax
	movl	-8(%rbp), %ecx
	shll	$1, %ecx
	addl	$1, %ecx
	movslq	%ecx, %rcx
	movb	$0, (%rax,%rcx)
	movq	-16(%rbp), %rax
	movq	40(%rax), %rax
	cmpl	$0, 6556(%rax)
	jne	.LBB72_147
# %bb.80:                               # %if.then973
                                        #   in Loop: Header=BB72_76 Depth=2
	movq	-16(%rbp), %rax
	movq	56(%rax), %rax
	movq	6520(%rax), %rax
	movslq	-4(%rbp), %rcx
	movq	(%rax,%rcx,8), %rax
	movslq	-8(%rbp), %rcx
	movb	$0, (%rax,%rcx)
	movq	-16(%rbp), %rax
	movq	48(%rax), %rax
	movq	6520(%rax), %rax
	movslq	-4(%rbp), %rcx
	movq	(%rax,%rcx,8), %rax
	movslq	-8(%rbp), %rcx
	movb	$0, (%rax,%rcx)
	movq	-16(%rbp), %rax
	movq	40(%rax), %rax
	movq	6504(%rax), %rax
	movq	(%rax), %rax
	movl	-4(%rbp), %ecx
	andl	$2, %ecx
	cmpl	$0, %ecx
	je	.LBB72_82
# %bb.81:                               # %cond.true990
                                        #   in Loop: Header=BB72_76 Depth=2
	movl	-4(%rbp), %ecx
	orl	$1, %ecx
	jmp	.LBB72_83
.LBB72_82:                              # %cond.false991
                                        #   in Loop: Header=BB72_76 Depth=2
	movl	-4(%rbp), %ecx
	andl	$-2, %ecx
.LBB72_83:                              # %cond.end993
                                        #   in Loop: Header=BB72_76 Depth=2
	movslq	%ecx, %rcx
	movq	(%rax,%rcx,8), %rax
	movl	-8(%rbp), %ecx
	andl	$2, %ecx
	cmpl	$0, %ecx
	je	.LBB72_85
# %bb.84:                               # %cond.true999
                                        #   in Loop: Header=BB72_76 Depth=2
	movl	-8(%rbp), %ecx
	orl	$1, %ecx
	jmp	.LBB72_86
.LBB72_85:                              # %cond.false1001
                                        #   in Loop: Header=BB72_76 Depth=2
	movl	-8(%rbp), %ecx
	andl	$-2, %ecx
.LBB72_86:                              # %cond.end1003
                                        #   in Loop: Header=BB72_76 Depth=2
	shll	$1, %ecx
	movslq	%ecx, %rcx
	movq	(%rax,%rcx,8), %rax
	movw	(%rax), %ax
	movq	-16(%rbp), %rcx
	movq	56(%rcx), %rcx
	movq	6504(%rcx), %rcx
	movq	(%rcx), %rcx
	movslq	-4(%rbp), %rdx
	movq	(%rcx,%rdx,8), %rcx
	movslq	-8(%rbp), %rdx
	movq	(%rcx,%rdx,8), %rcx
	movw	%ax, (%rcx)
	movq	-16(%rbp), %rcx
	movq	48(%rcx), %rcx
	movq	6504(%rcx), %rcx
	movq	(%rcx), %rcx
	movslq	-4(%rbp), %rdx
	movq	(%rcx,%rdx,8), %rcx
	movslq	-8(%rbp), %rdx
	movq	(%rcx,%rdx,8), %rcx
	movw	%ax, (%rcx)
	movq	-16(%rbp), %rax
	movq	40(%rax), %rax
	movq	6504(%rax), %rax
	movq	(%rax), %rax
	movl	-4(%rbp), %ecx
	andl	$2, %ecx
	cmpl	$0, %ecx
	je	.LBB72_88
# %bb.87:                               # %cond.true1030
                                        #   in Loop: Header=BB72_76 Depth=2
	movl	-4(%rbp), %ecx
	orl	$1, %ecx
	jmp	.LBB72_89
.LBB72_88:                              # %cond.false1032
                                        #   in Loop: Header=BB72_76 Depth=2
	movl	-4(%rbp), %ecx
	andl	$-2, %ecx
.LBB72_89:                              # %cond.end1034
                                        #   in Loop: Header=BB72_76 Depth=2
	movslq	%ecx, %rcx
	movq	(%rax,%rcx,8), %rax
	movl	-8(%rbp), %ecx
	andl	$2, %ecx
	cmpl	$0, %ecx
	je	.LBB72_91
# %bb.90:                               # %cond.true1040
                                        #   in Loop: Header=BB72_76 Depth=2
	movl	-8(%rbp), %ecx
	orl	$1, %ecx
	jmp	.LBB72_92
.LBB72_91:                              # %cond.false1042
                                        #   in Loop: Header=BB72_76 Depth=2
	movl	-8(%rbp), %ecx
	andl	$-2, %ecx
.LBB72_92:                              # %cond.end1044
                                        #   in Loop: Header=BB72_76 Depth=2
	shll	$1, %ecx
	movslq	%ecx, %rcx
	movq	(%rax,%rcx,8), %rax
	movw	2(%rax), %ax
	movq	-16(%rbp), %rcx
	movq	56(%rcx), %rcx
	movq	6504(%rcx), %rcx
	movq	(%rcx), %rcx
