	.text
	.file	"mbuffer.c"
	.globl	dump_dpb                # -- Begin function dump_dpb
	.p2align	4, 0x90
	.type	dump_dpb,@function
dump_dpb:                               # @dump_dpb
	.cfi_startproc
# %bb.0:                                # %entry
	pushq	%rbp
	.cfi_def_cfa_offset 16
	.cfi_offset %rbp, -16
	movq	%rsp, %rbp
	.cfi_def_cfa_register %rbp
	popq	%rbp
	.cfi_def_cfa %rsp, 8
	retq
.Lfunc_end0:
	.size	dump_dpb, .Lfunc_end0-dump_dpb
	.cfi_endproc
                                        # -- End function
	.globl	getDpbSize              # -- Begin function getDpbSize
	.p2align	4, 0x90
	.type	getDpbSize,@function
getDpbSize:                             # @getDpbSize
	.cfi_startproc
# %bb.0:                                # %rand_bb
	pushq	%rbp
	.cfi_def_cfa_offset 16
	.cfi_offset %rbp, -16
	movq	%rsp, %rbp
	.cfi_def_cfa_register %rbp
	callq	get_rand
	cmpl	$0, %eax
	jne	.LBB1_2
# %bb.1:                                # %func_getDpbSize.24
	callq	getDpbSize.24
	popq	%rbp
	.cfi_def_cfa %rsp, 8
	retq
.LBB1_2:                                # %func_getDpbSize.57
	.cfi_def_cfa %rbp, 16
	callq	getDpbSize.57
	popq	%rbp
	.cfi_def_cfa %rsp, 8
	retq
.Lfunc_end1:
	.size	getDpbSize, .Lfunc_end1-getDpbSize
	.cfi_endproc
                                        # -- End function
	.globl	init_dpb                # -- Begin function init_dpb
	.p2align	4, 0x90
	.type	init_dpb,@function
init_dpb:                               # @init_dpb
	.cfi_startproc
# %bb.0:                                # %rand_bb
	pushq	%rbp
	.cfi_def_cfa_offset 16
	.cfi_offset %rbp, -16
	movq	%rsp, %rbp
	.cfi_def_cfa_register %rbp
	callq	get_rand
	cmpl	$0, %eax
	jne	.LBB2_2
# %bb.1:                                # %func_init_dpb.6
	callq	init_dpb.6
	popq	%rbp
	.cfi_def_cfa %rsp, 8
	retq
.LBB2_2:                                # %func_init_dpb.177
	.cfi_def_cfa %rbp, 16
	callq	init_dpb.177
	popq	%rbp
	.cfi_def_cfa %rsp, 8
	retq
.Lfunc_end2:
	.size	init_dpb, .Lfunc_end2-init_dpb
	.cfi_endproc
                                        # -- End function
	.globl	free_dpb                # -- Begin function free_dpb
	.p2align	4, 0x90
	.type	free_dpb,@function
free_dpb:                               # @free_dpb
	.cfi_startproc
# %bb.0:                                # %entry
	pushq	%rbp
	.cfi_def_cfa_offset 16
	.cfi_offset %rbp, -16
	movq	%rsp, %rbp
	.cfi_def_cfa_register %rbp
	subq	$16, %rsp
	cmpq	$0, dpb
	je	.LBB3_6
# %bb.1:                                # %if.then
	movl	$0, -4(%rbp)
.LBB3_2:                                # %for.cond
                                        # =>This Inner Loop Header: Depth=1
	movl	-4(%rbp), %eax
	cmpl	dpb+24, %eax
	jae	.LBB3_5
# %bb.3:                                # %for.body
                                        #   in Loop: Header=BB3_2 Depth=1
	movq	dpb, %rax
	movl	-4(%rbp), %ecx
	movq	(%rax,%rcx,8), %rdi
	callq	free_frame_store
# %bb.4:                                # %for.inc
                                        #   in Loop: Header=BB3_2 Depth=1
	movl	-4(%rbp), %eax
	addl	$1, %eax
	movl	%eax, -4(%rbp)
	jmp	.LBB3_2
.LBB3_5:                                # %for.end
	movq	dpb, %rdi
	callq	free
	movq	$0, dpb
.LBB3_6:                                # %if.end
	cmpq	$0, dpb+8
	je	.LBB3_8
# %bb.7:                                # %if.then2
	movq	dpb+8, %rdi
	callq	free
.LBB3_8:                                # %if.end3
	cmpq	$0, dpb+16
	je	.LBB3_10
# %bb.9:                                # %if.then5
	movq	dpb+16, %rdi
	callq	free
.LBB3_10:                               # %if.end6
	movl	$-2147483648, dpb+40    # imm = 0x80000000
	movl	$0, -4(%rbp)
.LBB3_11:                               # %for.cond7
                                        # =>This Inner Loop Header: Depth=1
	cmpl	$6, -4(%rbp)
	jae	.LBB3_16
# %bb.12:                               # %for.body9
                                        #   in Loop: Header=BB3_11 Depth=1
	movl	-4(%rbp), %eax
	cmpq	$0, listX(,%rax,8)
	je	.LBB3_14
# %bb.13:                               # %if.then13
                                        #   in Loop: Header=BB3_11 Depth=1
	movl	-4(%rbp), %eax
	movq	listX(,%rax,8), %rdi
	callq	free
	movl	-4(%rbp), %eax
	movq	$0, listX(,%rax,8)
.LBB3_14:                               # %if.end18
                                        #   in Loop: Header=BB3_11 Depth=1
	jmp	.LBB3_15
.LBB3_15:                               # %for.inc19
                                        #   in Loop: Header=BB3_11 Depth=1
	movl	-4(%rbp), %eax
	addl	$1, %eax
	movl	%eax, -4(%rbp)
	jmp	.LBB3_11
.LBB3_16:                               # %for.end21
	movl	$0, dpb+48
	addq	$16, %rsp
	popq	%rbp
	.cfi_def_cfa %rsp, 8
	retq
.Lfunc_end3:
	.size	free_dpb, .Lfunc_end3-free_dpb
	.cfi_endproc
                                        # -- End function
	.globl	free_frame_store        # -- Begin function free_frame_store
	.p2align	4, 0x90
	.type	free_frame_store,@function
free_frame_store:                       # @free_frame_store
	.cfi_startproc
# %bb.0:                                # %entry
	pushq	%rbp
	.cfi_def_cfa_offset 16
	.cfi_offset %rbp, -16
	movq	%rsp, %rbp
	.cfi_def_cfa_register %rbp
	subq	$16, %rsp
	movq	%rdi, -8(%rbp)
	cmpq	$0, -8(%rbp)
	je	.LBB4_8
# %bb.1:                                # %if.then
	movq	-8(%rbp), %rax
	cmpq	$0, 40(%rax)
	je	.LBB4_3
# %bb.2:                                # %if.then2
	movq	-8(%rbp), %rax
	movq	40(%rax), %rdi
	callq	free_storable_picture
	movq	-8(%rbp), %rax
	movq	$0, 40(%rax)
.LBB4_3:                                # %if.end
	movq	-8(%rbp), %rax
	cmpq	$0, 48(%rax)
	je	.LBB4_5
# %bb.4:                                # %if.then6
	movq	-8(%rbp), %rax
	movq	48(%rax), %rdi
	callq	free_storable_picture
	movq	-8(%rbp), %rax
	movq	$0, 48(%rax)
.LBB4_5:                                # %if.end9
	movq	-8(%rbp), %rax
	cmpq	$0, 56(%rax)
	je	.LBB4_7
# %bb.6:                                # %if.then11
	movq	-8(%rbp), %rax
	movq	56(%rax), %rdi
	callq	free_storable_picture
	movq	-8(%rbp), %rax
	movq	$0, 56(%rax)
.LBB4_7:                                # %if.end14
	movq	-8(%rbp), %rdi
	callq	free
.LBB4_8:                                # %if.end15
	addq	$16, %rsp
	popq	%rbp
	.cfi_def_cfa %rsp, 8
	retq
.Lfunc_end4:
	.size	free_frame_store, .Lfunc_end4-free_frame_store
	.cfi_endproc
                                        # -- End function
	.globl	alloc_frame_store       # -- Begin function alloc_frame_store
	.p2align	4, 0x90
	.type	alloc_frame_store,@function
alloc_frame_store:                      # @alloc_frame_store
	.cfi_startproc
# %bb.0:                                # %entry
	pushq	%rbp
	.cfi_def_cfa_offset 16
	.cfi_offset %rbp, -16
	movq	%rsp, %rbp
	.cfi_def_cfa_register %rbp
	subq	$16, %rsp
	movl	$1, %edi
	movl	$64, %esi
	callq	calloc
	xorl	%ecx, %ecx
	movq	%rax, -8(%rbp)
	cmpq	-8(%rbp), %rcx
	jne	.LBB5_2
# %bb.1:                                # %if.then
	movabsq	$.L.str.6, %rdi
	callq	no_mem_exit
.LBB5_2:                                # %if.end
	movq	-8(%rbp), %rax
	movl	$0, (%rax)
	movq	-8(%rbp), %rax
	movl	$0, 4(%rax)
	movq	-8(%rbp), %rax
	movl	$0, 8(%rax)
	movq	-8(%rbp), %rax
	movl	$0, 12(%rax)
	movq	-8(%rbp), %rax
	movl	$0, 32(%rax)
	movq	-8(%rbp), %rax
	movq	$0, 40(%rax)
	movq	-8(%rbp), %rax
	movq	$0, 48(%rax)
	movq	-8(%rbp), %rax
	movq	$0, 56(%rax)
	movq	-8(%rbp), %rax
	addq	$16, %rsp
	popq	%rbp
	.cfi_def_cfa %rsp, 8
	retq
.Lfunc_end5:
	.size	alloc_frame_store, .Lfunc_end5-alloc_frame_store
	.cfi_endproc
                                        # -- End function
	.globl	alloc_storable_picture  # -- Begin function alloc_storable_picture
	.p2align	4, 0x90
	.type	alloc_storable_picture,@function
alloc_storable_picture:                 # @alloc_storable_picture
	.cfi_startproc
# %bb.0:                                # %rand_bb
	pushq	%rbp
	.cfi_def_cfa_offset 16
	.cfi_offset %rbp, -16
	movq	%rsp, %rbp
	.cfi_def_cfa_register %rbp
	pushq	%r15
	pushq	%r14
	pushq	%r13
	pushq	%r12
	pushq	%rbx
	pushq	%rax
	.cfi_offset %rbx, -56
	.cfi_offset %r12, -48
	.cfi_offset %r13, -40
	.cfi_offset %r14, -32
	.cfi_offset %r15, -24
	movl	%r8d, %r14d
	movl	%ecx, %r15d
	movl	%edx, %r12d
	movl	%esi, %r13d
	movl	%edi, %ebx
	callq	get_rand
	cmpl	$0, %eax
	jne	.LBB6_9
# %bb.1:                                # %func_alloc_storable_picture.26
	movl	%ebx, %edi
	movl	%r13d, %esi
	movl	%r12d, %edx
	movl	%r15d, %ecx
	movl	%r14d, %r8d
	callq	alloc_storable_picture.26
	addq	$8, %rsp
	popq	%rbx
	popq	%r12
	popq	%r13
	popq	%r14
	popq	%r15
	popq	%rbp
	.cfi_def_cfa %rsp, 8
	retq
.LBB6_2:                                # %func_alloc_storable_picture.64
	.cfi_def_cfa %rbp, 16
	movl	%ebx, %edi
	movl	%r13d, %esi
	movl	%r12d, %edx
	movl	%r15d, %ecx
	movl	%r14d, %r8d
	callq	alloc_storable_picture.64
	addq	$8, %rsp
	popq	%rbx
	popq	%r12
	popq	%r13
	popq	%r14
	popq	%r15
	popq	%rbp
	.cfi_def_cfa %rsp, 8
	retq
.LBB6_3:                                # %func_alloc_storable_picture.71
	.cfi_def_cfa %rbp, 16
	movl	%ebx, %edi
	movl	%r13d, %esi
	movl	%r12d, %edx
	movl	%r15d, %ecx
	movl	%r14d, %r8d
	callq	alloc_storable_picture.71
	addq	$8, %rsp
	popq	%rbx
	popq	%r12
	popq	%r13
	popq	%r14
	popq	%r15
	popq	%rbp
	.cfi_def_cfa %rsp, 8
	retq
.LBB6_4:                                # %func_alloc_storable_picture.80
	.cfi_def_cfa %rbp, 16
	movl	%ebx, %edi
	movl	%r13d, %esi
	movl	%r12d, %edx
	movl	%r15d, %ecx
	movl	%r14d, %r8d
	callq	alloc_storable_picture.80
	addq	$8, %rsp
	popq	%rbx
	popq	%r12
	popq	%r13
	popq	%r14
	popq	%r15
	popq	%rbp
	.cfi_def_cfa %rsp, 8
	retq
.LBB6_5:                                # %func_alloc_storable_picture.87
	.cfi_def_cfa %rbp, 16
	movl	%ebx, %edi
	movl	%r13d, %esi
	movl	%r12d, %edx
	movl	%r15d, %ecx
	movl	%r14d, %r8d
	callq	alloc_storable_picture.87
	addq	$8, %rsp
	popq	%rbx
	popq	%r12
	popq	%r13
	popq	%r14
	popq	%r15
	popq	%rbp
	.cfi_def_cfa %rsp, 8
	retq
.LBB6_6:                                # %func_alloc_storable_picture.151
	.cfi_def_cfa %rbp, 16
	movl	%ebx, %edi
	movl	%r13d, %esi
	movl	%r12d, %edx
	movl	%r15d, %ecx
	movl	%r14d, %r8d
	callq	alloc_storable_picture.151
	addq	$8, %rsp
	popq	%rbx
	popq	%r12
	popq	%r13
	popq	%r14
	popq	%r15
	popq	%rbp
	.cfi_def_cfa %rsp, 8
	retq
.LBB6_7:                                # %func_alloc_storable_picture.164
	.cfi_def_cfa %rbp, 16
	movl	%ebx, %edi
	movl	%r13d, %esi
	movl	%r12d, %edx
	movl	%r15d, %ecx
	movl	%r14d, %r8d
	callq	alloc_storable_picture.164
	addq	$8, %rsp
	popq	%rbx
	popq	%r12
	popq	%r13
	popq	%r14
	popq	%r15
	popq	%rbp
	.cfi_def_cfa %rsp, 8
	retq
.LBB6_8:                                # %func_alloc_storable_picture.170
	.cfi_def_cfa %rbp, 16
	movl	%ebx, %edi
	movl	%r13d, %esi
	movl	%r12d, %edx
	movl	%r15d, %ecx
	movl	%r14d, %r8d
	callq	alloc_storable_picture.170
	addq	$8, %rsp
	popq	%rbx
	popq	%r12
	popq	%r13
	popq	%r14
	popq	%r15
	popq	%rbp
	.cfi_def_cfa %rsp, 8
	retq
.LBB6_9:                                # %ctrl0
	.cfi_def_cfa %rbp, 16
	cmpl	$1, %eax
	je	.LBB6_2
# %bb.10:                               # %ctrl1
	cmpl	$2, %eax
	je	.LBB6_3
# %bb.11:                               # %ctrl2
	cmpl	$3, %eax
	je	.LBB6_4
# %bb.12:                               # %ctrl3
	cmpl	$4, %eax
	je	.LBB6_5
# %bb.13:                               # %ctrl4
	cmpl	$5, %eax
	je	.LBB6_6
# %bb.14:                               # %ctrl5
	cmpl	$6, %eax
	je	.LBB6_7
	jmp	.LBB6_8
.Lfunc_end6:
	.size	alloc_storable_picture, .Lfunc_end6-alloc_storable_picture
	.cfi_endproc
                                        # -- End function
	.globl	free_storable_picture   # -- Begin function free_storable_picture
	.p2align	4, 0x90
	.type	free_storable_picture,@function
free_storable_picture:                  # @free_storable_picture
	.cfi_startproc
# %bb.0:                                # %entry
	pushq	%rbp
	.cfi_def_cfa_offset 16
	.cfi_offset %rbp, -16
	movq	%rsp, %rbp
	.cfi_def_cfa_register %rbp
	subq	$16, %rsp
	movq	%rdi, -8(%rbp)
	cmpq	$0, -8(%rbp)
	je	.LBB7_32
# %bb.1:                                # %if.then
	movq	-8(%rbp), %rax
	cmpq	$0, 6480(%rax)
	je	.LBB7_3
# %bb.2:                                # %if.then2
	movq	-8(%rbp), %rax
	movq	6480(%rax), %rdi
	movl	$2, %esi
	callq	free_mem3Dshort
	movq	-8(%rbp), %rax
	movq	$0, 6480(%rax)
.LBB7_3:                                # %if.end
	movq	-8(%rbp), %rax
	cmpq	$0, 6488(%rax)
	je	.LBB7_5
# %bb.4:                                # %if.then6
	movq	-8(%rbp), %rax
	movq	6488(%rax), %rdi
	movl	$6, %esi
	callq	free_mem3Dint64
	movq	-8(%rbp), %rax
	movq	$0, 6488(%rax)
.LBB7_5:                                # %if.end9
	movq	-8(%rbp), %rax
	cmpq	$0, 6496(%rax)
	je	.LBB7_7
# %bb.6:                                # %if.then11
	movq	-8(%rbp), %rax
	movq	6496(%rax), %rdi
	movl	$6, %esi
	callq	free_mem3Dint64
	movq	-8(%rbp), %rax
	movq	$0, 6496(%rax)
.LBB7_7:                                # %if.end14
	movq	-8(%rbp), %rax
	cmpq	$0, 6504(%rax)
	je	.LBB7_9
# %bb.8:                                # %if.then16
	movq	-8(%rbp), %rax
	movq	6504(%rax), %rdi
	movq	-8(%rbp), %rax
	movl	6392(%rax), %eax
	cltd
	movl	$4, %ecx
	idivl	%ecx
	movl	$2, %esi
	movl	%eax, %edx
	callq	free_mem4Dshort
	movq	-8(%rbp), %rax
	movq	$0, 6504(%rax)
.LBB7_9:                                # %if.end19
	movq	-8(%rbp), %rax
	cmpq	$0, 6512(%rax)
	je	.LBB7_11
# %bb.10:                               # %if.then21
	movq	-8(%rbp), %rax
	movq	6512(%rax), %rdi
	callq	free_mem2D
	movq	-8(%rbp), %rax
	movq	$0, 6512(%rax)
.LBB7_11:                               # %if.end24
	movq	-8(%rbp), %rax
	cmpq	$0, 6520(%rax)
	je	.LBB7_13
# %bb.12:                               # %if.then26
	movq	-8(%rbp), %rax
	movq	6520(%rax), %rdi
	callq	free_mem2D
	movq	-8(%rbp), %rax
	movq	$0, 6520(%rax)
.LBB7_13:                               # %if.end29
	movq	-8(%rbp), %rax
	cmpq	$0, 6424(%rax)
	je	.LBB7_15
# %bb.14:                               # %if.then31
	movq	-8(%rbp), %rax
	movq	6424(%rax), %rdi
	callq	free_mem2Dpel
	movq	-8(%rbp), %rax
	movq	$0, 6424(%rax)
.LBB7_15:                               # %if.end34
	movq	-8(%rbp), %rax
	cmpq	$0, 6432(%rax)
	je	.LBB7_17
# %bb.16:                               # %if.then36
	movq	-8(%rbp), %rax
	movq	6432(%rax), %rdi
	callq	free
	movq	-8(%rbp), %rax
	movq	$0, 6432(%rax)
.LBB7_17:                               # %if.end39
	movq	-8(%rbp), %rax
	cmpq	$0, 6448(%rax)
	je	.LBB7_19
# %bb.18:                               # %if.then41
	movq	-8(%rbp), %rax
	movq	6448(%rax), %rdi
	callq	free_mem2Dpel
	movq	-8(%rbp), %rax
	movq	$0, 6448(%rax)
.LBB7_19:                               # %if.end44
	movq	-8(%rbp), %rax
	cmpq	$0, 6464(%rax)
	je	.LBB7_21
# %bb.20:                               # %if.then46
	movq	-8(%rbp), %rax
	movq	6464(%rax), %rdi
	movl	$2, %esi
	callq	free_mem3Dpel
	movq	-8(%rbp), %rax
	movq	$0, 6464(%rax)
.LBB7_21:                               # %if.end49
	movq	input, %rax
	cmpl	$0, 1284(%rax)
	jne	.LBB7_24
# %bb.22:                               # %lor.lhs.false
	movq	input, %rax
	cmpl	$0, 1288(%rax)
	jne	.LBB7_24
# %bb.23:                               # %lor.lhs.false52
	movq	input, %rax
	cmpl	$0, 60(%rax)
	je	.LBB7_29
.LBB7_24:                               # %if.then54
	movq	-8(%rbp), %rax
	cmpq	$0, 6440(%rax)
	je	.LBB7_26
# %bb.25:                               # %if.then56
	movq	-8(%rbp), %rax
	movq	6440(%rax), %rdi
	callq	free
	movq	-8(%rbp), %rax
	movq	$0, 6440(%rax)
.LBB7_26:                               # %if.end59
	movq	-8(%rbp), %rax
	cmpq	$0, 6456(%rax)
	je	.LBB7_28
# %bb.27:                               # %if.then61
	movq	-8(%rbp), %rax
	movq	6456(%rax), %rdi
	callq	free_mem2Dpel
	movq	-8(%rbp), %rax
	movq	$0, 6456(%rax)
.LBB7_28:                               # %if.end64
	jmp	.LBB7_29
.LBB7_29:                               # %if.end65
	movq	-8(%rbp), %rax
	cmpq	$0, 6472(%rax)
	je	.LBB7_31
# %bb.30:                               # %if.then67
	movq	-8(%rbp), %rax
	movq	6472(%rax), %rdi
	callq	free
	movq	-8(%rbp), %rax
	movq	$0, 6472(%rax)
.LBB7_31:                               # %if.end70
	movq	-8(%rbp), %rdi
	callq	free
	movq	$0, -8(%rbp)
.LBB7_32:                               # %if.end71
	addq	$16, %rsp
	popq	%rbp
	.cfi_def_cfa %rsp, 8
	retq
.Lfunc_end7:
	.size	free_storable_picture, .Lfunc_end7-free_storable_picture
	.cfi_endproc
                                        # -- End function
	.globl	is_short_ref            # -- Begin function is_short_ref
	.p2align	4, 0x90
	.type	is_short_ref,@function
is_short_ref:                           # @is_short_ref
	.cfi_startproc
# %bb.0:                                # %entry
	pushq	%rbp
	.cfi_def_cfa_offset 16
	.cfi_offset %rbp, -16
	movq	%rsp, %rbp
	.cfi_def_cfa_register %rbp
	xorl	%eax, %eax
	movq	%rdi, -8(%rbp)
	movq	-8(%rbp), %rcx
	cmpl	$0, 6380(%rcx)
	je	.LBB8_2
# %bb.1:                                # %land.rhs
	movq	-8(%rbp), %rax
	cmpl	$0, 6376(%rax)
	setne	%al
	xorb	$-1, %al
.LBB8_2:                                # %land.end
	andb	$1, %al
	movzbl	%al, %eax
	popq	%rbp
	.cfi_def_cfa %rsp, 8
	retq
.Lfunc_end8:
	.size	is_short_ref, .Lfunc_end8-is_short_ref
	.cfi_endproc
                                        # -- End function
	.globl	is_long_ref             # -- Begin function is_long_ref
	.p2align	4, 0x90
	.type	is_long_ref,@function
is_long_ref:                            # @is_long_ref
	.cfi_startproc
# %bb.0:                                # %entry
	pushq	%rbp
	.cfi_def_cfa_offset 16
	.cfi_offset %rbp, -16
	movq	%rsp, %rbp
	.cfi_def_cfa_register %rbp
	xorl	%eax, %eax
	movq	%rdi, -8(%rbp)
	movq	-8(%rbp), %rcx
	cmpl	$0, 6380(%rcx)
	je	.LBB9_2
# %bb.1:                                # %land.rhs
	movq	-8(%rbp), %rax
	cmpl	$0, 6376(%rax)
	setne	%al
.LBB9_2:                                # %land.end
	andb	$1, %al
	movzbl	%al, %eax
	popq	%rbp
	.cfi_def_cfa %rsp, 8
	retq
.Lfunc_end9:
	.size	is_long_ref, .Lfunc_end9-is_long_ref
	.cfi_endproc
                                        # -- End function
	.globl	init_lists              # -- Begin function init_lists
	.p2align	4, 0x90
	.type	init_lists,@function
init_lists:                             # @init_lists
	.cfi_startproc
# %bb.0:                                # %rand_bb
	pushq	%rbp
	.cfi_def_cfa_offset 16
	.cfi_offset %rbp, -16
	movq	%rsp, %rbp
	.cfi_def_cfa_register %rbp
	pushq	%r14
	pushq	%rbx
	.cfi_offset %rbx, -32
	.cfi_offset %r14, -24
	movl	%esi, %r14d
	movl	%edi, %ebx
	callq	get_rand
	cmpl	$0, %eax
	jne	.LBB10_9
# %bb.1:                                # %func_init_lists.38
	movl	%ebx, %edi
	movl	%r14d, %esi
	callq	init_lists.38
	popq	%rbx
	popq	%r14
	popq	%rbp
	.cfi_def_cfa %rsp, 8
	retq
.LBB10_2:                               # %func_init_lists.138
	.cfi_def_cfa %rbp, 16
	movl	%ebx, %edi
	movl	%r14d, %esi
	callq	init_lists.138
	popq	%rbx
	popq	%r14
	popq	%rbp
	.cfi_def_cfa %rsp, 8
	retq
.LBB10_3:                               # %func_init_lists.175
	.cfi_def_cfa %rbp, 16
	movl	%ebx, %edi
	movl	%r14d, %esi
	callq	init_lists.175
	popq	%rbx
	popq	%r14
	popq	%rbp
	.cfi_def_cfa %rsp, 8
	retq
.LBB10_4:                               # %func_init_lists.205
	.cfi_def_cfa %rbp, 16
	movl	%ebx, %edi
	movl	%r14d, %esi
	callq	init_lists.205
	popq	%rbx
	popq	%r14
	popq	%rbp
	.cfi_def_cfa %rsp, 8
	retq
.LBB10_5:                               # %func_init_lists.212
	.cfi_def_cfa %rbp, 16
	movl	%ebx, %edi
	movl	%r14d, %esi
	callq	init_lists.212
	popq	%rbx
	popq	%r14
	popq	%rbp
	.cfi_def_cfa %rsp, 8
	retq
.LBB10_6:                               # %func_init_lists.215
	.cfi_def_cfa %rbp, 16
	movl	%ebx, %edi
	movl	%r14d, %esi
	callq	init_lists.215
	popq	%rbx
	popq	%r14
	popq	%rbp
	.cfi_def_cfa %rsp, 8
	retq
.LBB10_7:                               # %func_init_lists.216
	.cfi_def_cfa %rbp, 16
	movl	%ebx, %edi
	movl	%r14d, %esi
	callq	init_lists.216
	popq	%rbx
	popq	%r14
	popq	%rbp
	.cfi_def_cfa %rsp, 8
	retq
.LBB10_8:                               # %func_init_lists.222
	.cfi_def_cfa %rbp, 16
	movl	%ebx, %edi
	movl	%r14d, %esi
	callq	init_lists.222
	popq	%rbx
	popq	%r14
	popq	%rbp
	.cfi_def_cfa %rsp, 8
	retq
.LBB10_9:                               # %ctrl0
	.cfi_def_cfa %rbp, 16
	cmpl	$1, %eax
	je	.LBB10_2
# %bb.10:                               # %ctrl1
	cmpl	$2, %eax
	je	.LBB10_3
# %bb.11:                               # %ctrl2
	cmpl	$3, %eax
	je	.LBB10_4
# %bb.12:                               # %ctrl3
	cmpl	$4, %eax
	je	.LBB10_5
# %bb.13:                               # %ctrl4
	cmpl	$5, %eax
	je	.LBB10_6
# %bb.14:                               # %ctrl5
	cmpl	$6, %eax
	je	.LBB10_7
	jmp	.LBB10_8
.Lfunc_end10:
	.size	init_lists, .Lfunc_end10-init_lists
	.cfi_endproc
                                        # -- End function
	.p2align	4, 0x90         # -- Begin function compare_pic_by_pic_num_desc
	.type	compare_pic_by_pic_num_desc,@function
compare_pic_by_pic_num_desc:            # @compare_pic_by_pic_num_desc
	.cfi_startproc
# %bb.0:                                # %rand_bb
	pushq	%rbp
	.cfi_def_cfa_offset 16
	.cfi_offset %rbp, -16
	movq	%rsp, %rbp
	.cfi_def_cfa_register %rbp
	pushq	%r14
	pushq	%rbx
	.cfi_offset %rbx, -32
	.cfi_offset %r14, -24
	movq	%rsi, %r14
	movq	%rdi, %rbx
	callq	get_rand
	cmpl	$0, %eax
	jne	.LBB11_7
# %bb.1:                                # %func_compare_pic_by_pic_num_desc.58
	movq	%rbx, %rdi
	movq	%r14, %rsi
	callq	compare_pic_by_pic_num_desc.58
	popq	%rbx
	popq	%r14
	popq	%rbp
	.cfi_def_cfa %rsp, 8
	retq
.LBB11_2:                               # %func_compare_pic_by_pic_num_desc.102
	.cfi_def_cfa %rbp, 16
	movq	%rbx, %rdi
	movq	%r14, %rsi
	callq	compare_pic_by_pic_num_desc.102
	popq	%rbx
	popq	%r14
	popq	%rbp
	.cfi_def_cfa %rsp, 8
	retq
.LBB11_3:                               # %func_compare_pic_by_pic_num_desc.153
	.cfi_def_cfa %rbp, 16
	movq	%rbx, %rdi
	movq	%r14, %rsi
	callq	compare_pic_by_pic_num_desc.153
	popq	%rbx
	popq	%r14
	popq	%rbp
	.cfi_def_cfa %rsp, 8
	retq
.LBB11_4:                               # %func_compare_pic_by_pic_num_desc.207
	.cfi_def_cfa %rbp, 16
	movq	%rbx, %rdi
	movq	%r14, %rsi
	callq	compare_pic_by_pic_num_desc.207
	popq	%rbx
	popq	%r14
	popq	%rbp
	.cfi_def_cfa %rsp, 8
	retq
.LBB11_5:                               # %func_compare_pic_by_pic_num_desc.236
	.cfi_def_cfa %rbp, 16
	movq	%rbx, %rdi
	movq	%r14, %rsi
	callq	compare_pic_by_pic_num_desc.236
	popq	%rbx
	popq	%r14
	popq	%rbp
	.cfi_def_cfa %rsp, 8
	retq
.LBB11_6:                               # %func_compare_pic_by_pic_num_desc.241
	.cfi_def_cfa %rbp, 16
	movq	%rbx, %rdi
	movq	%r14, %rsi
	callq	compare_pic_by_pic_num_desc.241
	popq	%rbx
	popq	%r14
	popq	%rbp
	.cfi_def_cfa %rsp, 8
	retq
.LBB11_7:                               # %ctrl0
	.cfi_def_cfa %rbp, 16
	cmpl	$1, %eax
	je	.LBB11_2
# %bb.8:                                # %ctrl1
	cmpl	$2, %eax
	je	.LBB11_3
# %bb.9:                                # %ctrl2
	cmpl	$3, %eax
	je	.LBB11_4
# %bb.10:                               # %ctrl3
	cmpl	$4, %eax
	je	.LBB11_5
	jmp	.LBB11_6
.Lfunc_end11:
	.size	compare_pic_by_pic_num_desc, .Lfunc_end11-compare_pic_by_pic_num_desc
	.cfi_endproc
                                        # -- End function
	.p2align	4, 0x90         # -- Begin function compare_pic_by_lt_pic_num_asc
	.type	compare_pic_by_lt_pic_num_asc,@function
compare_pic_by_lt_pic_num_asc:          # @compare_pic_by_lt_pic_num_asc
	.cfi_startproc
# %bb.0:                                # %rand_bb
	pushq	%rbp
	.cfi_def_cfa_offset 16
	.cfi_offset %rbp, -16
	movq	%rsp, %rbp
	.cfi_def_cfa_register %rbp
	pushq	%r14
	pushq	%rbx
	.cfi_offset %rbx, -32
	.cfi_offset %r14, -24
	movq	%rsi, %r14
	movq	%rdi, %rbx
	callq	get_rand
	cmpl	$0, %eax
	jne	.LBB12_7
# %bb.1:                                # %func_compare_pic_by_lt_pic_num_asc.105
	movq	%rbx, %rdi
	movq	%r14, %rsi
	callq	compare_pic_by_lt_pic_num_asc.105
	popq	%rbx
	popq	%r14
	popq	%rbp
	.cfi_def_cfa %rsp, 8
	retq
.LBB12_2:                               # %func_compare_pic_by_lt_pic_num_asc.155
	.cfi_def_cfa %rbp, 16
	movq	%rbx, %rdi
	movq	%r14, %rsi
	callq	compare_pic_by_lt_pic_num_asc.155
	popq	%rbx
	popq	%r14
	popq	%rbp
	.cfi_def_cfa %rsp, 8
	retq
.LBB12_3:                               # %func_compare_pic_by_lt_pic_num_asc.156
	.cfi_def_cfa %rbp, 16
	movq	%rbx, %rdi
	movq	%r14, %rsi
	callq	compare_pic_by_lt_pic_num_asc.156
	popq	%rbx
	popq	%r14
	popq	%rbp
	.cfi_def_cfa %rsp, 8
	retq
.LBB12_4:                               # %func_compare_pic_by_lt_pic_num_asc.206
	.cfi_def_cfa %rbp, 16
	movq	%rbx, %rdi
	movq	%r14, %rsi
	callq	compare_pic_by_lt_pic_num_asc.206
	popq	%rbx
	popq	%r14
	popq	%rbp
	.cfi_def_cfa %rsp, 8
	retq
.LBB12_5:                               # %func_compare_pic_by_lt_pic_num_asc.221
	.cfi_def_cfa %rbp, 16
	movq	%rbx, %rdi
	movq	%r14, %rsi
	callq	compare_pic_by_lt_pic_num_asc.221
	popq	%rbx
	popq	%r14
	popq	%rbp
	.cfi_def_cfa %rsp, 8
	retq
.LBB12_6:                               # %func_compare_pic_by_lt_pic_num_asc.254
	.cfi_def_cfa %rbp, 16
	movq	%rbx, %rdi
	movq	%r14, %rsi
	callq	compare_pic_by_lt_pic_num_asc.254
	popq	%rbx
	popq	%r14
	popq	%rbp
	.cfi_def_cfa %rsp, 8
	retq
.LBB12_7:                               # %ctrl0
	.cfi_def_cfa %rbp, 16
	cmpl	$1, %eax
	je	.LBB12_2
# %bb.8:                                # %ctrl1
	cmpl	$2, %eax
	je	.LBB12_3
# %bb.9:                                # %ctrl2
	cmpl	$3, %eax
	je	.LBB12_4
# %bb.10:                               # %ctrl3
	cmpl	$4, %eax
	je	.LBB12_5
	jmp	.LBB12_6
.Lfunc_end12:
	.size	compare_pic_by_lt_pic_num_asc, .Lfunc_end12-compare_pic_by_lt_pic_num_asc
	.cfi_endproc
                                        # -- End function
	.p2align	4, 0x90         # -- Begin function compare_fs_by_frame_num_desc
	.type	compare_fs_by_frame_num_desc,@function
compare_fs_by_frame_num_desc:           # @compare_fs_by_frame_num_desc
	.cfi_startproc
# %bb.0:                                # %rand_bb
	pushq	%rbp
	.cfi_def_cfa_offset 16
	.cfi_offset %rbp, -16
	movq	%rsp, %rbp
	.cfi_def_cfa_register %rbp
	pushq	%r14
	pushq	%rbx
	.cfi_offset %rbx, -32
	.cfi_offset %r14, -24
	movq	%rsi, %r14
	movq	%rdi, %rbx
	callq	get_rand
	cmpl	$0, %eax
	jne	.LBB13_7
# %bb.1:                                # %func_compare_fs_by_frame_num_desc.46
	movq	%rbx, %rdi
	movq	%r14, %rsi
	callq	compare_fs_by_frame_num_desc.46
	popq	%rbx
	popq	%r14
	popq	%rbp
	.cfi_def_cfa %rsp, 8
	retq
.LBB13_2:                               # %func_compare_fs_by_frame_num_desc.147
	.cfi_def_cfa %rbp, 16
	movq	%rbx, %rdi
	movq	%r14, %rsi
	callq	compare_fs_by_frame_num_desc.147
	popq	%rbx
	popq	%r14
	popq	%rbp
	.cfi_def_cfa %rsp, 8
	retq
.LBB13_3:                               # %func_compare_fs_by_frame_num_desc.171
	.cfi_def_cfa %rbp, 16
	movq	%rbx, %rdi
	movq	%r14, %rsi
	callq	compare_fs_by_frame_num_desc.171
	popq	%rbx
	popq	%r14
	popq	%rbp
	.cfi_def_cfa %rsp, 8
	retq
.LBB13_4:                               # %func_compare_fs_by_frame_num_desc.218
	.cfi_def_cfa %rbp, 16
	movq	%rbx, %rdi
	movq	%r14, %rsi
	callq	compare_fs_by_frame_num_desc.218
	popq	%rbx
	popq	%r14
	popq	%rbp
	.cfi_def_cfa %rsp, 8
	retq
.LBB13_5:                               # %func_compare_fs_by_frame_num_desc.224
	.cfi_def_cfa %rbp, 16
	movq	%rbx, %rdi
	movq	%r14, %rsi
	callq	compare_fs_by_frame_num_desc.224
	popq	%rbx
	popq	%r14
	popq	%rbp
	.cfi_def_cfa %rsp, 8
	retq
.LBB13_6:                               # %func_compare_fs_by_frame_num_desc.247
	.cfi_def_cfa %rbp, 16
	movq	%rbx, %rdi
	movq	%r14, %rsi
	callq	compare_fs_by_frame_num_desc.247
	popq	%rbx
	popq	%r14
	popq	%rbp
	.cfi_def_cfa %rsp, 8
	retq
.LBB13_7:                               # %ctrl0
	.cfi_def_cfa %rbp, 16
	cmpl	$1, %eax
	je	.LBB13_2
# %bb.8:                                # %ctrl1
	cmpl	$2, %eax
	je	.LBB13_3
# %bb.9:                                # %ctrl2
	cmpl	$3, %eax
	je	.LBB13_4
# %bb.10:                               # %ctrl3
	cmpl	$4, %eax
	je	.LBB13_5
	jmp	.LBB13_6
.Lfunc_end13:
	.size	compare_fs_by_frame_num_desc, .Lfunc_end13-compare_fs_by_frame_num_desc
	.cfi_endproc
                                        # -- End function
	.p2align	4, 0x90         # -- Begin function gen_pic_list_from_frame_list
	.type	gen_pic_list_from_frame_list,@function
gen_pic_list_from_frame_list:           # @gen_pic_list_from_frame_list
	.cfi_startproc
# %bb.0:                                # %rand_bb
	pushq	%rbp
	.cfi_def_cfa_offset 16
	.cfi_offset %rbp, -16
	movq	%rsp, %rbp
	.cfi_def_cfa_register %rbp
	pushq	%r15
	pushq	%r14
	pushq	%r13
	pushq	%r12
	pushq	%rbx
	pushq	%rax
	.cfi_offset %rbx, -56
	.cfi_offset %r12, -48
	.cfi_offset %r13, -40
	.cfi_offset %r14, -32
	.cfi_offset %r15, -24
	movl	%r9d, -44(%rbp)         # 4-byte Spill
	movq	%r8, %r12
	movq	%rcx, %r13
	movl	%edx, %ebx
	movq	%rsi, %r14
	movl	%edi, %r15d
	callq	get_rand
	cmpl	$0, %eax
	jne	.LBB14_9
# %bb.1:                                # %func_gen_pic_list_from_frame_list.9
	movl	%r15d, %edi
	movq	%r14, %rsi
	movl	%ebx, %edx
	movq	%r13, %rcx
	movq	%r12, %r8
	movl	-44(%rbp), %r9d         # 4-byte Reload
	callq	gen_pic_list_from_frame_list.9
	addq	$8, %rsp
	popq	%rbx
	popq	%r12
	popq	%r13
	popq	%r14
	popq	%r15
	popq	%rbp
	.cfi_def_cfa %rsp, 8
	retq
.LBB14_2:                               # %func_gen_pic_list_from_frame_list.53
	.cfi_def_cfa %rbp, 16
	movl	%r15d, %edi
	movq	%r14, %rsi
	movl	%ebx, %edx
	movq	%r13, %rcx
	movq	%r12, %r8
	callq	gen_pic_list_from_frame_list.53
	addq	$8, %rsp
	popq	%rbx
	popq	%r12
	popq	%r13
	popq	%r14
	popq	%r15
	popq	%rbp
	.cfi_def_cfa %rsp, 8
	retq
.LBB14_3:                               # %func_gen_pic_list_from_frame_list.67
	.cfi_def_cfa %rbp, 16
	movl	%r15d, %edi
	movq	%r14, %rsi
	movl	%ebx, %edx
	movq	%r13, %rcx
	movq	%r12, %r8
	callq	gen_pic_list_from_frame_list.67
	addq	$8, %rsp
	popq	%rbx
	popq	%r12
	popq	%r13
	popq	%r14
	popq	%r15
	popq	%rbp
	.cfi_def_cfa %rsp, 8
	retq
.LBB14_4:                               # %func_gen_pic_list_from_frame_list.84
	.cfi_def_cfa %rbp, 16
	movl	%r15d, %edi
	movq	%r14, %rsi
	movl	%ebx, %edx
	movq	%r13, %rcx
	movq	%r12, %r8
	callq	gen_pic_list_from_frame_list.84
	addq	$8, %rsp
	popq	%rbx
	popq	%r12
	popq	%r13
	popq	%r14
	popq	%r15
	popq	%rbp
	.cfi_def_cfa %rsp, 8
	retq
.LBB14_5:                               # %func_gen_pic_list_from_frame_list.103
	.cfi_def_cfa %rbp, 16
	movl	%r15d, %edi
	movq	%r14, %rsi
	movl	%ebx, %edx
	movq	%r13, %rcx
	movq	%r12, %r8
	callq	gen_pic_list_from_frame_list.103
	addq	$8, %rsp
	popq	%rbx
	popq	%r12
	popq	%r13
	popq	%r14
	popq	%r15
	popq	%rbp
	.cfi_def_cfa %rsp, 8
	retq
.LBB14_6:                               # %func_gen_pic_list_from_frame_list.123
	.cfi_def_cfa %rbp, 16
	movl	%r15d, %edi
	movq	%r14, %rsi
	movl	%ebx, %edx
	movq	%r13, %rcx
	movq	%r12, %r8
	callq	gen_pic_list_from_frame_list.123
	addq	$8, %rsp
	popq	%rbx
	popq	%r12
	popq	%r13
	popq	%r14
	popq	%r15
	popq	%rbp
	.cfi_def_cfa %rsp, 8
	retq
.LBB14_7:                               # %func_gen_pic_list_from_frame_list.179
	.cfi_def_cfa %rbp, 16
	callq	gen_pic_list_from_frame_list.179
	addq	$8, %rsp
	popq	%rbx
	popq	%r12
	popq	%r13
	popq	%r14
	popq	%r15
	popq	%rbp
	.cfi_def_cfa %rsp, 8
	retq
.LBB14_8:                               # %func_gen_pic_list_from_frame_list.204
	.cfi_def_cfa %rbp, 16
	callq	gen_pic_list_from_frame_list.204
	addq	$8, %rsp
	popq	%rbx
	popq	%r12
	popq	%r13
	popq	%r14
	popq	%r15
	popq	%rbp
	.cfi_def_cfa %rsp, 8
	retq
.LBB14_9:                               # %ctrl0
	.cfi_def_cfa %rbp, 16
	movl	-44(%rbp), %r9d         # 4-byte Reload
	cmpl	$1, %eax
	je	.LBB14_2
# %bb.10:                               # %ctrl1
	cmpl	$2, %eax
	je	.LBB14_3
# %bb.11:                               # %ctrl2
	cmpl	$3, %eax
	je	.LBB14_4
# %bb.12:                               # %ctrl3
	cmpl	$4, %eax
	je	.LBB14_5
# %bb.13:                               # %ctrl4
	cmpl	$5, %eax
	je	.LBB14_6
# %bb.14:                               # %ctrl5
	cmpl	$6, %eax
	movq	%r12, %r8
	movq	%r13, %rcx
	movl	%ebx, %edx
	movq	%r14, %rsi
	movl	%r15d, %edi
	je	.LBB14_7
	jmp	.LBB14_8
.Lfunc_end14:
	.size	gen_pic_list_from_frame_list, .Lfunc_end14-gen_pic_list_from_frame_list
	.cfi_endproc
                                        # -- End function
	.p2align	4, 0x90         # -- Begin function compare_fs_by_lt_pic_idx_asc
	.type	compare_fs_by_lt_pic_idx_asc,@function
compare_fs_by_lt_pic_idx_asc:           # @compare_fs_by_lt_pic_idx_asc
	.cfi_startproc
# %bb.0:                                # %rand_bb
	pushq	%rbp
	.cfi_def_cfa_offset 16
	.cfi_offset %rbp, -16
	movq	%rsp, %rbp
	.cfi_def_cfa_register %rbp
	pushq	%r14
	pushq	%rbx
	.cfi_offset %rbx, -32
	.cfi_offset %r14, -24
	movq	%rsi, %r14
	movq	%rdi, %rbx
	callq	get_rand
	cmpl	$0, %eax
	jne	.LBB15_7
# %bb.1:                                # %func_compare_fs_by_lt_pic_idx_asc.48
	movq	%rbx, %rdi
	movq	%r14, %rsi
	callq	compare_fs_by_lt_pic_idx_asc.48
	popq	%rbx
	popq	%r14
	popq	%rbp
	.cfi_def_cfa %rsp, 8
	retq
.LBB15_2:                               # %func_compare_fs_by_lt_pic_idx_asc.62
	.cfi_def_cfa %rbp, 16
	movq	%rbx, %rdi
	movq	%r14, %rsi
	callq	compare_fs_by_lt_pic_idx_asc.62
	popq	%rbx
	popq	%r14
	popq	%rbp
	.cfi_def_cfa %rsp, 8
	retq
.LBB15_3:                               # %func_compare_fs_by_lt_pic_idx_asc.92
	.cfi_def_cfa %rbp, 16
	movq	%rbx, %rdi
	movq	%r14, %rsi
	callq	compare_fs_by_lt_pic_idx_asc.92
	popq	%rbx
	popq	%r14
	popq	%rbp
	.cfi_def_cfa %rsp, 8
	retq
.LBB15_4:                               # %func_compare_fs_by_lt_pic_idx_asc.162
	.cfi_def_cfa %rbp, 16
	movq	%rbx, %rdi
	movq	%r14, %rsi
	callq	compare_fs_by_lt_pic_idx_asc.162
	popq	%rbx
	popq	%r14
	popq	%rbp
	.cfi_def_cfa %rsp, 8
	retq
.LBB15_5:                               # %func_compare_fs_by_lt_pic_idx_asc.165
	.cfi_def_cfa %rbp, 16
	movq	%rbx, %rdi
	movq	%r14, %rsi
	callq	compare_fs_by_lt_pic_idx_asc.165
	popq	%rbx
	popq	%r14
	popq	%rbp
	.cfi_def_cfa %rsp, 8
	retq
.LBB15_6:                               # %func_compare_fs_by_lt_pic_idx_asc.232
	.cfi_def_cfa %rbp, 16
	movq	%rbx, %rdi
	movq	%r14, %rsi
	callq	compare_fs_by_lt_pic_idx_asc.232
	popq	%rbx
	popq	%r14
	popq	%rbp
	.cfi_def_cfa %rsp, 8
	retq
.LBB15_7:                               # %ctrl0
	.cfi_def_cfa %rbp, 16
	cmpl	$1, %eax
	je	.LBB15_2
# %bb.8:                                # %ctrl1
	cmpl	$2, %eax
	je	.LBB15_3
# %bb.9:                                # %ctrl2
	cmpl	$3, %eax
	je	.LBB15_4
# %bb.10:                               # %ctrl3
	cmpl	$4, %eax
	je	.LBB15_5
	jmp	.LBB15_6
.Lfunc_end15:
	.size	compare_fs_by_lt_pic_idx_asc, .Lfunc_end15-compare_fs_by_lt_pic_idx_asc
	.cfi_endproc
                                        # -- End function
	.p2align	4, 0x90         # -- Begin function compare_pic_by_poc_desc
	.type	compare_pic_by_poc_desc,@function
compare_pic_by_poc_desc:                # @compare_pic_by_poc_desc
	.cfi_startproc
# %bb.0:                                # %rand_bb
	pushq	%rbp
	.cfi_def_cfa_offset 16
	.cfi_offset %rbp, -16
	movq	%rsp, %rbp
	.cfi_def_cfa_register %rbp
	pushq	%r14
	pushq	%rbx
	.cfi_offset %rbx, -32
	.cfi_offset %r14, -24
	movq	%rsi, %r14
	movq	%rdi, %rbx
	callq	get_rand
	cmpl	$0, %eax
	jne	.LBB16_7
# %bb.1:                                # %func_compare_pic_by_poc_desc.59
	movq	%rbx, %rdi
	movq	%r14, %rsi
	callq	compare_pic_by_poc_desc.59
	popq	%rbx
	popq	%r14
	popq	%rbp
	.cfi_def_cfa %rsp, 8
	retq
.LBB16_2:                               # %func_compare_pic_by_poc_desc.108
	.cfi_def_cfa %rbp, 16
	movq	%rbx, %rdi
	movq	%r14, %rsi
	callq	compare_pic_by_poc_desc.108
	popq	%rbx
	popq	%r14
	popq	%rbp
	.cfi_def_cfa %rsp, 8
	retq
.LBB16_3:                               # %func_compare_pic_by_poc_desc.145
	.cfi_def_cfa %rbp, 16
	movq	%rbx, %rdi
	movq	%r14, %rsi
	callq	compare_pic_by_poc_desc.145
	popq	%rbx
	popq	%r14
	popq	%rbp
	.cfi_def_cfa %rsp, 8
	retq
.LBB16_4:                               # %func_compare_pic_by_poc_desc.166
	.cfi_def_cfa %rbp, 16
	movq	%rbx, %rdi
	movq	%r14, %rsi
	callq	compare_pic_by_poc_desc.166
	popq	%rbx
	popq	%r14
	popq	%rbp
	.cfi_def_cfa %rsp, 8
	retq
.LBB16_5:                               # %func_compare_pic_by_poc_desc.194
	.cfi_def_cfa %rbp, 16
	movq	%rbx, %rdi
	movq	%r14, %rsi
	callq	compare_pic_by_poc_desc.194
	popq	%rbx
	popq	%r14
	popq	%rbp
	.cfi_def_cfa %rsp, 8
	retq
.LBB16_6:                               # %func_compare_pic_by_poc_desc.229
	.cfi_def_cfa %rbp, 16
	movq	%rbx, %rdi
	movq	%r14, %rsi
	callq	compare_pic_by_poc_desc.229
	popq	%rbx
	popq	%r14
	popq	%rbp
	.cfi_def_cfa %rsp, 8
	retq
.LBB16_7:                               # %ctrl0
	.cfi_def_cfa %rbp, 16
	cmpl	$1, %eax
	je	.LBB16_2
# %bb.8:                                # %ctrl1
	cmpl	$2, %eax
	je	.LBB16_3
# %bb.9:                                # %ctrl2
	cmpl	$3, %eax
	je	.LBB16_4
# %bb.10:                               # %ctrl3
	cmpl	$4, %eax
	je	.LBB16_5
	jmp	.LBB16_6
.Lfunc_end16:
	.size	compare_pic_by_poc_desc, .Lfunc_end16-compare_pic_by_poc_desc
	.cfi_endproc
                                        # -- End function
	.p2align	4, 0x90         # -- Begin function compare_pic_by_poc_asc
	.type	compare_pic_by_poc_asc,@function
compare_pic_by_poc_asc:                 # @compare_pic_by_poc_asc
	.cfi_startproc
# %bb.0:                                # %rand_bb
	pushq	%rbp
	.cfi_def_cfa_offset 16
	.cfi_offset %rbp, -16
	movq	%rsp, %rbp
	.cfi_def_cfa_register %rbp
	pushq	%r14
	pushq	%rbx
	.cfi_offset %rbx, -32
	.cfi_offset %r14, -24
	movq	%rsi, %r14
	movq	%rdi, %rbx
	callq	get_rand
	cmpl	$0, %eax
	jne	.LBB17_7
# %bb.1:                                # %func_compare_pic_by_poc_asc.3
	movq	%rbx, %rdi
	movq	%r14, %rsi
	callq	compare_pic_by_poc_asc.3
	popq	%rbx
	popq	%r14
	popq	%rbp
	.cfi_def_cfa %rsp, 8
	retq
.LBB17_2:                               # %func_compare_pic_by_poc_asc.16
	.cfi_def_cfa %rbp, 16
	movq	%rbx, %rdi
	movq	%r14, %rsi
	callq	compare_pic_by_poc_asc.16
	popq	%rbx
	popq	%r14
	popq	%rbp
	.cfi_def_cfa %rsp, 8
	retq
.LBB17_3:                               # %func_compare_pic_by_poc_asc.30
	.cfi_def_cfa %rbp, 16
	movq	%rbx, %rdi
	movq	%r14, %rsi
	callq	compare_pic_by_poc_asc.30
	popq	%rbx
	popq	%r14
	popq	%rbp
	.cfi_def_cfa %rsp, 8
	retq
.LBB17_4:                               # %func_compare_pic_by_poc_asc.35
	.cfi_def_cfa %rbp, 16
	movq	%rbx, %rdi
	movq	%r14, %rsi
	callq	compare_pic_by_poc_asc.35
	popq	%rbx
	popq	%r14
	popq	%rbp
	.cfi_def_cfa %rsp, 8
	retq
.LBB17_5:                               # %func_compare_pic_by_poc_asc.69
	.cfi_def_cfa %rbp, 16
	movq	%rbx, %rdi
	movq	%r14, %rsi
	callq	compare_pic_by_poc_asc.69
	popq	%rbx
	popq	%r14
	popq	%rbp
	.cfi_def_cfa %rsp, 8
	retq
.LBB17_6:                               # %func_compare_pic_by_poc_asc.89
	.cfi_def_cfa %rbp, 16
	movq	%rbx, %rdi
	movq	%r14, %rsi
	callq	compare_pic_by_poc_asc.89
	popq	%rbx
	popq	%r14
	popq	%rbp
	.cfi_def_cfa %rsp, 8
	retq
.LBB17_7:                               # %ctrl0
	.cfi_def_cfa %rbp, 16
	cmpl	$1, %eax
	je	.LBB17_2
# %bb.8:                                # %ctrl1
	cmpl	$2, %eax
	je	.LBB17_3
# %bb.9:                                # %ctrl2
	cmpl	$3, %eax
	je	.LBB17_4
# %bb.10:                               # %ctrl3
	cmpl	$4, %eax
	je	.LBB17_5
	jmp	.LBB17_6
.Lfunc_end17:
	.size	compare_pic_by_poc_asc, .Lfunc_end17-compare_pic_by_poc_asc
	.cfi_endproc
                                        # -- End function
	.p2align	4, 0x90         # -- Begin function compare_fs_by_poc_desc
	.type	compare_fs_by_poc_desc,@function
compare_fs_by_poc_desc:                 # @compare_fs_by_poc_desc
	.cfi_startproc
# %bb.0:                                # %rand_bb
	pushq	%rbp
	.cfi_def_cfa_offset 16
	.cfi_offset %rbp, -16
	movq	%rsp, %rbp
	.cfi_def_cfa_register %rbp
	pushq	%r14
	pushq	%rbx
	.cfi_offset %rbx, -32
	.cfi_offset %r14, -24
	movq	%rsi, %r14
	movq	%rdi, %rbx
	callq	get_rand
	cmpl	$0, %eax
	jne	.LBB18_7
# %bb.1:                                # %func_compare_fs_by_poc_desc.21
	movq	%rbx, %rdi
	movq	%r14, %rsi
	callq	compare_fs_by_poc_desc.21
	popq	%rbx
	popq	%r14
	popq	%rbp
	.cfi_def_cfa %rsp, 8
	retq
.LBB18_2:                               # %func_compare_fs_by_poc_desc.60
	.cfi_def_cfa %rbp, 16
	movq	%rbx, %rdi
	movq	%r14, %rsi
	callq	compare_fs_by_poc_desc.60
	popq	%rbx
	popq	%r14
	popq	%rbp
	.cfi_def_cfa %rsp, 8
	retq
.LBB18_3:                               # %func_compare_fs_by_poc_desc.66
	.cfi_def_cfa %rbp, 16
	movq	%rbx, %rdi
	movq	%r14, %rsi
	callq	compare_fs_by_poc_desc.66
	popq	%rbx
	popq	%r14
	popq	%rbp
	.cfi_def_cfa %rsp, 8
	retq
.LBB18_4:                               # %func_compare_fs_by_poc_desc.97
	.cfi_def_cfa %rbp, 16
	movq	%rbx, %rdi
	movq	%r14, %rsi
	callq	compare_fs_by_poc_desc.97
	popq	%rbx
	popq	%r14
	popq	%rbp
	.cfi_def_cfa %rsp, 8
	retq
.LBB18_5:                               # %func_compare_fs_by_poc_desc.117
	.cfi_def_cfa %rbp, 16
	movq	%rbx, %rdi
	movq	%r14, %rsi
	callq	compare_fs_by_poc_desc.117
	popq	%rbx
	popq	%r14
	popq	%rbp
	.cfi_def_cfa %rsp, 8
	retq
.LBB18_6:                               # %func_compare_fs_by_poc_desc.124
	.cfi_def_cfa %rbp, 16
	movq	%rbx, %rdi
	movq	%r14, %rsi
	callq	compare_fs_by_poc_desc.124
	popq	%rbx
	popq	%r14
	popq	%rbp
	.cfi_def_cfa %rsp, 8
	retq
.LBB18_7:                               # %ctrl0
	.cfi_def_cfa %rbp, 16
	cmpl	$1, %eax
	je	.LBB18_2
# %bb.8:                                # %ctrl1
	cmpl	$2, %eax
	je	.LBB18_3
# %bb.9:                                # %ctrl2
	cmpl	$3, %eax
	je	.LBB18_4
# %bb.10:                               # %ctrl3
	cmpl	$4, %eax
	je	.LBB18_5
	jmp	.LBB18_6
.Lfunc_end18:
	.size	compare_fs_by_poc_desc, .Lfunc_end18-compare_fs_by_poc_desc
	.cfi_endproc
                                        # -- End function
	.p2align	4, 0x90         # -- Begin function compare_fs_by_poc_asc
	.type	compare_fs_by_poc_asc,@function
compare_fs_by_poc_asc:                  # @compare_fs_by_poc_asc
	.cfi_startproc
# %bb.0:                                # %rand_bb
	pushq	%rbp
	.cfi_def_cfa_offset 16
	.cfi_offset %rbp, -16
	movq	%rsp, %rbp
	.cfi_def_cfa_register %rbp
	pushq	%r14
	pushq	%rbx
	.cfi_offset %rbx, -32
	.cfi_offset %r14, -24
	movq	%rsi, %r14
	movq	%rdi, %rbx
	callq	get_rand
	cmpl	$0, %eax
	jne	.LBB19_7
# %bb.1:                                # %func_compare_fs_by_poc_asc.68
	movq	%rbx, %rdi
	movq	%r14, %rsi
	callq	compare_fs_by_poc_asc.68
	popq	%rbx
	popq	%r14
	popq	%rbp
	.cfi_def_cfa %rsp, 8
	retq
.LBB19_2:                               # %func_compare_fs_by_poc_asc.79
	.cfi_def_cfa %rbp, 16
	movq	%rbx, %rdi
	movq	%r14, %rsi
	callq	compare_fs_by_poc_asc.79
	popq	%rbx
	popq	%r14
	popq	%rbp
	.cfi_def_cfa %rsp, 8
	retq
.LBB19_3:                               # %func_compare_fs_by_poc_asc.85
	.cfi_def_cfa %rbp, 16
	movq	%rbx, %rdi
	movq	%r14, %rsi
	callq	compare_fs_by_poc_asc.85
	popq	%rbx
	popq	%r14
	popq	%rbp
	.cfi_def_cfa %rsp, 8
	retq
.LBB19_4:                               # %func_compare_fs_by_poc_asc.168
	.cfi_def_cfa %rbp, 16
	movq	%rbx, %rdi
	movq	%r14, %rsi
	callq	compare_fs_by_poc_asc.168
	popq	%rbx
	popq	%r14
	popq	%rbp
	.cfi_def_cfa %rsp, 8
	retq
.LBB19_5:                               # %func_compare_fs_by_poc_asc.182
	.cfi_def_cfa %rbp, 16
	movq	%rbx, %rdi
	movq	%r14, %rsi
	callq	compare_fs_by_poc_asc.182
	popq	%rbx
	popq	%r14
	popq	%rbp
	.cfi_def_cfa %rsp, 8
	retq
.LBB19_6:                               # %func_compare_fs_by_poc_asc.198
	.cfi_def_cfa %rbp, 16
	movq	%rbx, %rdi
	movq	%r14, %rsi
	callq	compare_fs_by_poc_asc.198
	popq	%rbx
	popq	%r14
	popq	%rbp
	.cfi_def_cfa %rsp, 8
	retq
.LBB19_7:                               # %ctrl0
	.cfi_def_cfa %rbp, 16
	cmpl	$1, %eax
	je	.LBB19_2
# %bb.8:                                # %ctrl1
	cmpl	$2, %eax
	je	.LBB19_3
# %bb.9:                                # %ctrl2
	cmpl	$3, %eax
	je	.LBB19_4
# %bb.10:                               # %ctrl3
	cmpl	$4, %eax
	je	.LBB19_5
	jmp	.LBB19_6
.Lfunc_end19:
	.size	compare_fs_by_poc_asc, .Lfunc_end19-compare_fs_by_poc_asc
	.cfi_endproc
                                        # -- End function
	.globl	init_mbaff_lists        # -- Begin function init_mbaff_lists
	.p2align	4, 0x90
	.type	init_mbaff_lists,@function
init_mbaff_lists:                       # @init_mbaff_lists
	.cfi_startproc
# %bb.0:                                # %rand_bb
	pushq	%rbp
	.cfi_def_cfa_offset 16
	.cfi_offset %rbp, -16
	movq	%rsp, %rbp
	.cfi_def_cfa_register %rbp
	callq	get_rand
	cmpl	$0, %eax
	jne	.LBB20_2
# %bb.1:                                # %func_init_mbaff_lists.27
	callq	init_mbaff_lists.27
	popq	%rbp
	.cfi_def_cfa %rsp, 8
	retq
.LBB20_2:                               # %func_init_mbaff_lists.129
	.cfi_def_cfa %rbp, 16
	callq	init_mbaff_lists.129
	popq	%rbp
	.cfi_def_cfa %rsp, 8
	retq
.Lfunc_end20:
	.size	init_mbaff_lists, .Lfunc_end20-init_mbaff_lists
	.cfi_endproc
                                        # -- End function
	.globl	reorder_ref_pic_list    # -- Begin function reorder_ref_pic_list
	.p2align	4, 0x90
	.type	reorder_ref_pic_list,@function
reorder_ref_pic_list:                   # @reorder_ref_pic_list
	.cfi_startproc
# %bb.0:                                # %rand_bb
	pushq	%rbp
	.cfi_def_cfa_offset 16
	.cfi_offset %rbp, -16
	movq	%rsp, %rbp
	.cfi_def_cfa_register %rbp
	pushq	%r15
	pushq	%r14
	pushq	%r13
	pushq	%r12
	pushq	%rbx
	pushq	%rax
	.cfi_offset %rbx, -56
	.cfi_offset %r12, -48
	.cfi_offset %r13, -40
	.cfi_offset %r14, -32
	.cfi_offset %r15, -24
	movq	%r9, -48(%rbp)          # 8-byte Spill
	movq	%r8, %r12
	movq	%rcx, %r13
	movl	%edx, %ebx
	movq	%rsi, %r14
	movq	%rdi, %r15
	callq	get_rand
	cmpl	$0, %eax
	jne	.LBB21_9
# %bb.1:                                # %func_reorder_ref_pic_list.144
	movq	%r15, %rdi
	movq	%r14, %rsi
	movl	%ebx, %edx
	movq	%r13, %rcx
	movq	%r12, %r8
	movq	-48(%rbp), %r9          # 8-byte Reload
	callq	reorder_ref_pic_list.144
	addq	$8, %rsp
	popq	%rbx
	popq	%r12
	popq	%r13
	popq	%r14
	popq	%r15
	popq	%rbp
	.cfi_def_cfa %rsp, 8
	retq
.LBB21_2:                               # %func_reorder_ref_pic_list.185
	.cfi_def_cfa %rbp, 16
	movq	%r15, %rdi
	movq	%r14, %rsi
	movl	%ebx, %edx
	movq	%r13, %rcx
	movq	%r12, %r8
	callq	reorder_ref_pic_list.185
	addq	$8, %rsp
	popq	%rbx
	popq	%r12
	popq	%r13
	popq	%r14
	popq	%r15
	popq	%rbp
	.cfi_def_cfa %rsp, 8
	retq
.LBB21_3:                               # %func_reorder_ref_pic_list.195
	.cfi_def_cfa %rbp, 16
	movq	%r15, %rdi
	movq	%r14, %rsi
	movl	%ebx, %edx
	movq	%r13, %rcx
	movq	%r12, %r8
	callq	reorder_ref_pic_list.195
	addq	$8, %rsp
	popq	%rbx
	popq	%r12
	popq	%r13
	popq	%r14
	popq	%r15
	popq	%rbp
	.cfi_def_cfa %rsp, 8
	retq
.LBB21_4:                               # %func_reorder_ref_pic_list.200
	.cfi_def_cfa %rbp, 16
	movq	%r15, %rdi
	movq	%r14, %rsi
	movl	%ebx, %edx
	movq	%r13, %rcx
	movq	%r12, %r8
	callq	reorder_ref_pic_list.200
	addq	$8, %rsp
	popq	%rbx
	popq	%r12
	popq	%r13
	popq	%r14
	popq	%r15
	popq	%rbp
	.cfi_def_cfa %rsp, 8
	retq
.LBB21_5:                               # %func_reorder_ref_pic_list.202
	.cfi_def_cfa %rbp, 16
	movq	%r15, %rdi
	movq	%r14, %rsi
	movl	%ebx, %edx
	movq	%r13, %rcx
	movq	%r12, %r8
	callq	reorder_ref_pic_list.202
	addq	$8, %rsp
	popq	%rbx
	popq	%r12
	popq	%r13
	popq	%r14
	popq	%r15
	popq	%rbp
	.cfi_def_cfa %rsp, 8
	retq
.LBB21_6:                               # %func_reorder_ref_pic_list.203
	.cfi_def_cfa %rbp, 16
	movq	%r15, %rdi
	movq	%r14, %rsi
	movl	%ebx, %edx
	movq	%r13, %rcx
	movq	%r12, %r8
	callq	reorder_ref_pic_list.203
	addq	$8, %rsp
	popq	%rbx
	popq	%r12
	popq	%r13
	popq	%r14
	popq	%r15
	popq	%rbp
	.cfi_def_cfa %rsp, 8
	retq
.LBB21_7:                               # %func_reorder_ref_pic_list.225
	.cfi_def_cfa %rbp, 16
	callq	reorder_ref_pic_list.225
	addq	$8, %rsp
	popq	%rbx
	popq	%r12
	popq	%r13
	popq	%r14
	popq	%r15
	popq	%rbp
	.cfi_def_cfa %rsp, 8
	retq
.LBB21_8:                               # %func_reorder_ref_pic_list.244
	.cfi_def_cfa %rbp, 16
	callq	reorder_ref_pic_list.244
	addq	$8, %rsp
	popq	%rbx
	popq	%r12
	popq	%r13
	popq	%r14
	popq	%r15
	popq	%rbp
	.cfi_def_cfa %rsp, 8
	retq
.LBB21_9:                               # %ctrl0
	.cfi_def_cfa %rbp, 16
	movq	-48(%rbp), %r9          # 8-byte Reload
	cmpl	$1, %eax
	je	.LBB21_2
# %bb.10:                               # %ctrl1
	cmpl	$2, %eax
	je	.LBB21_3
# %bb.11:                               # %ctrl2
	cmpl	$3, %eax
	je	.LBB21_4
# %bb.12:                               # %ctrl3
	cmpl	$4, %eax
	je	.LBB21_5
# %bb.13:                               # %ctrl4
	cmpl	$5, %eax
	je	.LBB21_6
# %bb.14:                               # %ctrl5
	cmpl	$6, %eax
	movq	%r12, %r8
	movq	%r13, %rcx
	movl	%ebx, %edx
	movq	%r14, %rsi
	movq	%r15, %rdi
	je	.LBB21_7
	jmp	.LBB21_8
.Lfunc_end21:
	.size	reorder_ref_pic_list, .Lfunc_end21-reorder_ref_pic_list
	.cfi_endproc
                                        # -- End function
	.p2align	4, 0x90         # -- Begin function reorder_short_term
	.type	reorder_short_term,@function
reorder_short_term:                     # @reorder_short_term
	.cfi_startproc
# %bb.0:                                # %rand_bb
	pushq	%rbp
	.cfi_def_cfa_offset 16
	.cfi_offset %rbp, -16
	movq	%rsp, %rbp
	.cfi_def_cfa_register %rbp
	pushq	%r15
	pushq	%r14
	pushq	%r12
	pushq	%rbx
	.cfi_offset %rbx, -48
	.cfi_offset %r12, -40
	.cfi_offset %r14, -32
	.cfi_offset %r15, -24
	movq	%rcx, %r14
	movl	%edx, %r15d
	movl	%esi, %r12d
	movq	%rdi, %rbx
	callq	get_rand
	cmpl	$0, %eax
	jne	.LBB22_9
# %bb.1:                                # %func_reorder_short_term.78
	movq	%rbx, %rdi
	movl	%r12d, %esi
	movl	%r15d, %edx
	movq	%r14, %rcx
	callq	reorder_short_term.78
	popq	%rbx
	popq	%r12
	popq	%r14
	popq	%r15
	popq	%rbp
	.cfi_def_cfa %rsp, 8
	retq
.LBB22_2:                               # %func_reorder_short_term.132
	.cfi_def_cfa %rbp, 16
	movq	%rbx, %rdi
	movl	%r12d, %esi
	movl	%r15d, %edx
	movq	%r14, %rcx
	callq	reorder_short_term.132
	popq	%rbx
	popq	%r12
	popq	%r14
	popq	%r15
	popq	%rbp
	.cfi_def_cfa %rsp, 8
	retq
.LBB22_3:                               # %func_reorder_short_term.196
	.cfi_def_cfa %rbp, 16
	movq	%rbx, %rdi
	movl	%r12d, %esi
	movl	%r15d, %edx
	movq	%r14, %rcx
	callq	reorder_short_term.196
	popq	%rbx
	popq	%r12
	popq	%r14
	popq	%r15
	popq	%rbp
	.cfi_def_cfa %rsp, 8
	retq
.LBB22_4:                               # %func_reorder_short_term.237
	.cfi_def_cfa %rbp, 16
	movq	%rbx, %rdi
	movl	%r12d, %esi
	movl	%r15d, %edx
	movq	%r14, %rcx
	callq	reorder_short_term.237
	popq	%rbx
	popq	%r12
	popq	%r14
	popq	%r15
	popq	%rbp
	.cfi_def_cfa %rsp, 8
	retq
.LBB22_5:                               # %func_reorder_short_term.253
	.cfi_def_cfa %rbp, 16
	movq	%rbx, %rdi
	movl	%r12d, %esi
	movl	%r15d, %edx
	movq	%r14, %rcx
	callq	reorder_short_term.253
	popq	%rbx
	popq	%r12
	popq	%r14
	popq	%r15
	popq	%rbp
	.cfi_def_cfa %rsp, 8
	retq
.LBB22_6:                               # %func_reorder_short_term.263
	.cfi_def_cfa %rbp, 16
	movq	%rbx, %rdi
	movl	%r12d, %esi
	movl	%r15d, %edx
	movq	%r14, %rcx
	callq	reorder_short_term.263
	popq	%rbx
	popq	%r12
	popq	%r14
	popq	%r15
	popq	%rbp
	.cfi_def_cfa %rsp, 8
	retq
.LBB22_7:                               # %func_reorder_short_term.265
	.cfi_def_cfa %rbp, 16
	movq	%rbx, %rdi
	movl	%r12d, %esi
	movl	%r15d, %edx
	movq	%r14, %rcx
	callq	reorder_short_term.265
	popq	%rbx
	popq	%r12
	popq	%r14
	popq	%r15
	popq	%rbp
	.cfi_def_cfa %rsp, 8
	retq
.LBB22_8:                               # %func_reorder_short_term.266
	.cfi_def_cfa %rbp, 16
	movq	%rbx, %rdi
	movl	%r12d, %esi
	movl	%r15d, %edx
	movq	%r14, %rcx
	callq	reorder_short_term.266
	popq	%rbx
	popq	%r12
	popq	%r14
	popq	%r15
	popq	%rbp
	.cfi_def_cfa %rsp, 8
	retq
.LBB22_9:                               # %ctrl0
	.cfi_def_cfa %rbp, 16
	cmpl	$1, %eax
	je	.LBB22_2
# %bb.10:                               # %ctrl1
	cmpl	$2, %eax
	je	.LBB22_3
# %bb.11:                               # %ctrl2
	cmpl	$3, %eax
	je	.LBB22_4
# %bb.12:                               # %ctrl3
	cmpl	$4, %eax
	je	.LBB22_5
# %bb.13:                               # %ctrl4
	cmpl	$5, %eax
	je	.LBB22_6
# %bb.14:                               # %ctrl5
	cmpl	$6, %eax
	je	.LBB22_7
	jmp	.LBB22_8
.Lfunc_end22:
	.size	reorder_short_term, .Lfunc_end22-reorder_short_term
	.cfi_endproc
                                        # -- End function
	.p2align	4, 0x90         # -- Begin function reorder_long_term
	.type	reorder_long_term,@function
reorder_long_term:                      # @reorder_long_term
	.cfi_startproc
# %bb.0:                                # %rand_bb
	pushq	%rbp
	.cfi_def_cfa_offset 16
	.cfi_offset %rbp, -16
	movq	%rsp, %rbp
	.cfi_def_cfa_register %rbp
	pushq	%r15
	pushq	%r14
	pushq	%r12
	pushq	%rbx
	.cfi_offset %rbx, -48
	.cfi_offset %r12, -40
	.cfi_offset %r14, -32
	.cfi_offset %r15, -24
	movq	%rcx, %r14
	movl	%edx, %r15d
	movl	%esi, %r12d
	movq	%rdi, %rbx
	callq	get_rand
	cmpl	$0, %eax
	jne	.LBB23_9
# %bb.1:                                # %func_reorder_long_term.39
	movq	%rbx, %rdi
	movl	%r12d, %esi
	movl	%r15d, %edx
	movq	%r14, %rcx
	callq	reorder_long_term.39
	popq	%rbx
	popq	%r12
	popq	%r14
	popq	%r15
	popq	%rbp
	.cfi_def_cfa %rsp, 8
	retq
.LBB23_2:                               # %func_reorder_long_term.90
	.cfi_def_cfa %rbp, 16
	movq	%rbx, %rdi
	movl	%r12d, %esi
	movl	%r15d, %edx
	movq	%r14, %rcx
	callq	reorder_long_term.90
	popq	%rbx
	popq	%r12
	popq	%r14
	popq	%r15
	popq	%rbp
	.cfi_def_cfa %rsp, 8
	retq
.LBB23_3:                               # %func_reorder_long_term.178
	.cfi_def_cfa %rbp, 16
	movq	%rbx, %rdi
	movl	%r12d, %esi
	movl	%r15d, %edx
	movq	%r14, %rcx
	callq	reorder_long_term.178
	popq	%rbx
	popq	%r12
	popq	%r14
	popq	%r15
	popq	%rbp
	.cfi_def_cfa %rsp, 8
	retq
.LBB23_4:                               # %func_reorder_long_term.184
	.cfi_def_cfa %rbp, 16
	movq	%rbx, %rdi
	movl	%r12d, %esi
	movl	%r15d, %edx
	movq	%r14, %rcx
	callq	reorder_long_term.184
	popq	%rbx
	popq	%r12
	popq	%r14
	popq	%r15
	popq	%rbp
	.cfi_def_cfa %rsp, 8
	retq
.LBB23_5:                               # %func_reorder_long_term.186
	.cfi_def_cfa %rbp, 16
	movq	%rbx, %rdi
	movl	%r12d, %esi
	movl	%r15d, %edx
	movq	%r14, %rcx
	callq	reorder_long_term.186
	popq	%rbx
	popq	%r12
	popq	%r14
	popq	%r15
	popq	%rbp
	.cfi_def_cfa %rsp, 8
	retq
.LBB23_6:                               # %func_reorder_long_term.219
	.cfi_def_cfa %rbp, 16
	movq	%rbx, %rdi
	movl	%r12d, %esi
	movl	%r15d, %edx
	movq	%r14, %rcx
	callq	reorder_long_term.219
	popq	%rbx
	popq	%r12
	popq	%r14
	popq	%r15
	popq	%rbp
	.cfi_def_cfa %rsp, 8
	retq
.LBB23_7:                               # %func_reorder_long_term.256
	.cfi_def_cfa %rbp, 16
	movq	%rbx, %rdi
	movl	%r12d, %esi
	movl	%r15d, %edx
	movq	%r14, %rcx
	callq	reorder_long_term.256
	popq	%rbx
	popq	%r12
	popq	%r14
	popq	%r15
	popq	%rbp
	.cfi_def_cfa %rsp, 8
	retq
.LBB23_8:                               # %func_reorder_long_term.259
	.cfi_def_cfa %rbp, 16
	movq	%rbx, %rdi
	movl	%r12d, %esi
	movl	%r15d, %edx
	movq	%r14, %rcx
	callq	reorder_long_term.259
	popq	%rbx
	popq	%r12
	popq	%r14
	popq	%r15
	popq	%rbp
	.cfi_def_cfa %rsp, 8
	retq
.LBB23_9:                               # %ctrl0
	.cfi_def_cfa %rbp, 16
	cmpl	$1, %eax
	je	.LBB23_2
# %bb.10:                               # %ctrl1
	cmpl	$2, %eax
	je	.LBB23_3
# %bb.11:                               # %ctrl2
	cmpl	$3, %eax
	je	.LBB23_4
# %bb.12:                               # %ctrl3
	cmpl	$4, %eax
	je	.LBB23_5
# %bb.13:                               # %ctrl4
	cmpl	$5, %eax
	je	.LBB23_6
# %bb.14:                               # %ctrl5
	cmpl	$6, %eax
	je	.LBB23_7
	jmp	.LBB23_8
.Lfunc_end23:
	.size	reorder_long_term, .Lfunc_end23-reorder_long_term
	.cfi_endproc
                                        # -- End function
	.globl	update_ref_list         # -- Begin function update_ref_list
	.p2align	4, 0x90
	.type	update_ref_list,@function
update_ref_list:                        # @update_ref_list
	.cfi_startproc
# %bb.0:                                # %rand_bb
	pushq	%rbp
	.cfi_def_cfa_offset 16
	.cfi_offset %rbp, -16
	movq	%rsp, %rbp
	.cfi_def_cfa_register %rbp
	callq	get_rand
	cmpl	$0, %eax
	jne	.LBB24_2
# %bb.1:                                # %func_update_ref_list.18
	callq	update_ref_list.18
	popq	%rbp
	.cfi_def_cfa %rsp, 8
	retq
.LBB24_2:                               # %func_update_ref_list.28
	.cfi_def_cfa %rbp, 16
	callq	update_ref_list.28
	popq	%rbp
	.cfi_def_cfa %rsp, 8
	retq
.Lfunc_end24:
	.size	update_ref_list, .Lfunc_end24-update_ref_list
	.cfi_endproc
                                        # -- End function
	.p2align	4, 0x90         # -- Begin function is_short_term_reference
	.type	is_short_term_reference,@function
is_short_term_reference:                # @is_short_term_reference
	.cfi_startproc
# %bb.0:                                # %rand_bb
	pushq	%rbp
	.cfi_def_cfa_offset 16
	.cfi_offset %rbp, -16
	movq	%rsp, %rbp
	.cfi_def_cfa_register %rbp
	pushq	%rbx
	pushq	%rax
	.cfi_offset %rbx, -24
	movq	%rdi, %rbx
	callq	get_rand
	cmpl	$0, %eax
	jne	.LBB25_2
# %bb.1:                                # %func_is_short_term_reference.98
	movq	%rbx, %rdi
	callq	is_short_term_reference.98
	addq	$8, %rsp
	popq	%rbx
	popq	%rbp
	.cfi_def_cfa %rsp, 8
	retq
.LBB25_2:                               # %func_is_short_term_reference.188
	.cfi_def_cfa %rbp, 16
	movq	%rbx, %rdi
	callq	is_short_term_reference.188
	addq	$8, %rsp
	popq	%rbx
	popq	%rbp
	.cfi_def_cfa %rsp, 8
	retq
.Lfunc_end25:
	.size	is_short_term_reference, .Lfunc_end25-is_short_term_reference
	.cfi_endproc
                                        # -- End function
	.globl	update_ltref_list       # -- Begin function update_ltref_list
	.p2align	4, 0x90
	.type	update_ltref_list,@function
update_ltref_list:                      # @update_ltref_list
	.cfi_startproc
# %bb.0:                                # %rand_bb
	pushq	%rbp
	.cfi_def_cfa_offset 16
	.cfi_offset %rbp, -16
	movq	%rsp, %rbp
	.cfi_def_cfa_register %rbp
	callq	get_rand
	cmpl	$0, %eax
	jne	.LBB26_2
# %bb.1:                                # %func_update_ltref_list.113
	callq	update_ltref_list.113
	popq	%rbp
	.cfi_def_cfa %rsp, 8
	retq
.LBB26_2:                               # %func_update_ltref_list.142
	.cfi_def_cfa %rbp, 16
	callq	update_ltref_list.142
	popq	%rbp
	.cfi_def_cfa %rsp, 8
	retq
.Lfunc_end26:
	.size	update_ltref_list, .Lfunc_end26-update_ltref_list
	.cfi_endproc
                                        # -- End function
	.p2align	4, 0x90         # -- Begin function is_long_term_reference
	.type	is_long_term_reference,@function
is_long_term_reference:                 # @is_long_term_reference
	.cfi_startproc
# %bb.0:                                # %rand_bb
	pushq	%rbp
	.cfi_def_cfa_offset 16
	.cfi_offset %rbp, -16
	movq	%rsp, %rbp
	.cfi_def_cfa_register %rbp
	pushq	%rbx
	pushq	%rax
	.cfi_offset %rbx, -24
	movq	%rdi, %rbx
	callq	get_rand
	cmpl	$0, %eax
	jne	.LBB27_2
# %bb.1:                                # %func_is_long_term_reference.63
	movq	%rbx, %rdi
	callq	is_long_term_reference.63
	addq	$8, %rsp
	popq	%rbx
	popq	%rbp
	.cfi_def_cfa %rsp, 8
	retq
.LBB27_2:                               # %func_is_long_term_reference.81
	.cfi_def_cfa %rbp, 16
	movq	%rbx, %rdi
	callq	is_long_term_reference.81
	addq	$8, %rsp
	popq	%rbx
	popq	%rbp
	.cfi_def_cfa %rsp, 8
	retq
.Lfunc_end27:
	.size	is_long_term_reference, .Lfunc_end27-is_long_term_reference
	.cfi_endproc
                                        # -- End function
	.globl	mm_update_max_long_term_frame_idx # -- Begin function mm_update_max_long_term_frame_idx
	.p2align	4, 0x90
	.type	mm_update_max_long_term_frame_idx,@function
mm_update_max_long_term_frame_idx:      # @mm_update_max_long_term_frame_idx
	.cfi_startproc
# %bb.0:                                # %rand_bb
	pushq	%rbp
	.cfi_def_cfa_offset 16
	.cfi_offset %rbp, -16
	movq	%rsp, %rbp
	.cfi_def_cfa_register %rbp
	pushq	%rbx
	pushq	%rax
	.cfi_offset %rbx, -24
	movl	%edi, %ebx
	callq	get_rand
	cmpl	$0, %eax
	jne	.LBB28_2
# %bb.1:                                # %func_mm_update_max_long_term_frame_idx.11
	movl	%ebx, %edi
	callq	mm_update_max_long_term_frame_idx.11
	addq	$8, %rsp
	popq	%rbx
	popq	%rbp
	.cfi_def_cfa %rsp, 8
	retq
.LBB28_2:                               # %func_mm_update_max_long_term_frame_idx.45
	.cfi_def_cfa %rbp, 16
	movl	%ebx, %edi
	callq	mm_update_max_long_term_frame_idx.45
	addq	$8, %rsp
	popq	%rbx
	popq	%rbp
	.cfi_def_cfa %rsp, 8
	retq
.Lfunc_end28:
	.size	mm_update_max_long_term_frame_idx, .Lfunc_end28-mm_update_max_long_term_frame_idx
	.cfi_endproc
                                        # -- End function
	.p2align	4, 0x90         # -- Begin function unmark_for_long_term_reference
	.type	unmark_for_long_term_reference,@function
unmark_for_long_term_reference:         # @unmark_for_long_term_reference
	.cfi_startproc
# %bb.0:                                # %entry
	pushq	%rbp
	.cfi_def_cfa_offset 16
	.cfi_offset %rbp, -16
	movq	%rsp, %rbp
	.cfi_def_cfa_register %rbp
	movq	%rdi, -8(%rbp)
	movq	active_sps, %rax
	cmpl	$0, 1148(%rax)
	jne	.LBB29_6
# %bb.1:                                # %if.then
	movq	-8(%rbp), %rax
	movl	(%rax), %eax
	andl	$1, %eax
	cmpl	$0, %eax
	je	.LBB29_3
# %bb.2:                                # %if.then2
	movq	-8(%rbp), %rax
	movq	48(%rax), %rax
	movl	$0, 6380(%rax)
	movq	-8(%rbp), %rax
	movq	48(%rax), %rax
	movl	$0, 6376(%rax)
.LBB29_3:                               # %if.end
	movq	-8(%rbp), %rax
	movl	(%rax), %eax
	andl	$2, %eax
	cmpl	$0, %eax
	je	.LBB29_5
# %bb.4:                                # %if.then7
	movq	-8(%rbp), %rax
	movq	56(%rax), %rax
	movl	$0, 6380(%rax)
	movq	-8(%rbp), %rax
	movq	56(%rax), %rax
	movl	$0, 6376(%rax)
.LBB29_5:                               # %if.end11
	jmp	.LBB29_6
.LBB29_6:                               # %if.end12
	movq	-8(%rbp), %rax
	cmpl	$3, (%rax)
	jne	.LBB29_10
# %bb.7:                                # %if.then14
	movq	active_sps, %rax
	cmpl	$0, 1148(%rax)
	jne	.LBB29_9
# %bb.8:                                # %if.then17
	movq	-8(%rbp), %rax
	movq	48(%rax), %rax
	movl	$0, 6380(%rax)
	movq	-8(%rbp), %rax
	movq	48(%rax), %rax
	movl	$0, 6376(%rax)
	movq	-8(%rbp), %rax
	movq	56(%rax), %rax
	movl	$0, 6380(%rax)
	movq	-8(%rbp), %rax
	movq	56(%rax), %rax
	movl	$0, 6376(%rax)
.LBB29_9:                               # %if.end26
	movq	-8(%rbp), %rax
	movq	40(%rax), %rax
	movl	$0, 6380(%rax)
	movq	-8(%rbp), %rax
	movq	40(%rax), %rax
	movl	$0, 6376(%rax)
.LBB29_10:                              # %if.end30
	movq	-8(%rbp), %rax
	movl	$0, 4(%rax)
	movq	-8(%rbp), %rax
	movl	$0, 8(%rax)
	popq	%rbp
	.cfi_def_cfa %rsp, 8
	retq
.Lfunc_end29:
	.size	unmark_for_long_term_reference, .Lfunc_end29-unmark_for_long_term_reference
	.cfi_endproc
                                        # -- End function
	.globl	store_picture_in_dpb    # -- Begin function store_picture_in_dpb
	.p2align	4, 0x90
	.type	store_picture_in_dpb,@function
store_picture_in_dpb:                   # @store_picture_in_dpb
	.cfi_startproc
# %bb.0:                                # %rand_bb
	pushq	%rbp
	.cfi_def_cfa_offset 16
	.cfi_offset %rbp, -16
	movq	%rsp, %rbp
	.cfi_def_cfa_register %rbp
	pushq	%rbx
	pushq	%rax
	.cfi_offset %rbx, -24
	movq	%rdi, %rbx
	callq	get_rand
	cmpl	$0, %eax
	jne	.LBB30_9
# %bb.1:                                # %func_store_picture_in_dpb.43
	movq	%rbx, %rdi
	callq	store_picture_in_dpb.43
	addq	$8, %rsp
	popq	%rbx
	popq	%rbp
	.cfi_def_cfa %rsp, 8
	retq
.LBB30_2:                               # %func_store_picture_in_dpb.54
	.cfi_def_cfa %rbp, 16
	movq	%rbx, %rdi
	callq	store_picture_in_dpb.54
	addq	$8, %rsp
	popq	%rbx
	popq	%rbp
	.cfi_def_cfa %rsp, 8
	retq
.LBB30_3:                               # %func_store_picture_in_dpb.107
	.cfi_def_cfa %rbp, 16
	movq	%rbx, %rdi
	callq	store_picture_in_dpb.107
	addq	$8, %rsp
	popq	%rbx
	popq	%rbp
	.cfi_def_cfa %rsp, 8
	retq
.LBB30_4:                               # %func_store_picture_in_dpb.128
	.cfi_def_cfa %rbp, 16
	movq	%rbx, %rdi
	callq	store_picture_in_dpb.128
	addq	$8, %rsp
	popq	%rbx
	popq	%rbp
	.cfi_def_cfa %rsp, 8
	retq
.LBB30_5:                               # %func_store_picture_in_dpb.149
	.cfi_def_cfa %rbp, 16
	movq	%rbx, %rdi
	callq	store_picture_in_dpb.149
	addq	$8, %rsp
	popq	%rbx
	popq	%rbp
	.cfi_def_cfa %rsp, 8
	retq
.LBB30_6:                               # %func_store_picture_in_dpb.163
	.cfi_def_cfa %rbp, 16
	movq	%rbx, %rdi
	callq	store_picture_in_dpb.163
	addq	$8, %rsp
	popq	%rbx
	popq	%rbp
	.cfi_def_cfa %rsp, 8
	retq
.LBB30_7:                               # %func_store_picture_in_dpb.190
	.cfi_def_cfa %rbp, 16
	movq	%rbx, %rdi
	callq	store_picture_in_dpb.190
	addq	$8, %rsp
	popq	%rbx
	popq	%rbp
	.cfi_def_cfa %rsp, 8
	retq
.LBB30_8:                               # %func_store_picture_in_dpb.208
	.cfi_def_cfa %rbp, 16
	movq	%rbx, %rdi
	callq	store_picture_in_dpb.208
	addq	$8, %rsp
	popq	%rbx
	popq	%rbp
	.cfi_def_cfa %rsp, 8
	retq
.LBB30_9:                               # %ctrl0
	.cfi_def_cfa %rbp, 16
	cmpl	$1, %eax
	je	.LBB30_2
# %bb.10:                               # %ctrl1
	cmpl	$2, %eax
	je	.LBB30_3
# %bb.11:                               # %ctrl2
	cmpl	$3, %eax
	je	.LBB30_4
# %bb.12:                               # %ctrl3
	cmpl	$4, %eax
	je	.LBB30_5
# %bb.13:                               # %ctrl4
	cmpl	$5, %eax
	je	.LBB30_6
# %bb.14:                               # %ctrl5
	cmpl	$6, %eax
	je	.LBB30_7
	jmp	.LBB30_8
.Lfunc_end30:
	.size	store_picture_in_dpb, .Lfunc_end30-store_picture_in_dpb
	.cfi_endproc
                                        # -- End function
	.p2align	4, 0x90         # -- Begin function idr_memory_management
	.type	idr_memory_management,@function
idr_memory_management:                  # @idr_memory_management
	.cfi_startproc
# %bb.0:                                # %rand_bb
	pushq	%rbp
	.cfi_def_cfa_offset 16
	.cfi_offset %rbp, -16
	movq	%rsp, %rbp
	.cfi_def_cfa_register %rbp
	pushq	%rbx
	pushq	%rax
	.cfi_offset %rbx, -24
	movq	%rdi, %rbx
	callq	get_rand
	cmpl	$0, %eax
	jne	.LBB31_2
# %bb.1:                                # %func_idr_memory_management.49
	movq	%rbx, %rdi
	callq	idr_memory_management.49
	addq	$8, %rsp
	popq	%rbx
	popq	%rbp
	.cfi_def_cfa %rsp, 8
	retq
.LBB31_2:                               # %func_idr_memory_management.88
	.cfi_def_cfa %rbp, 16
	movq	%rbx, %rdi
	callq	idr_memory_management.88
	addq	$8, %rsp
	popq	%rbx
	popq	%rbp
	.cfi_def_cfa %rsp, 8
	retq
.Lfunc_end31:
	.size	idr_memory_management, .Lfunc_end31-idr_memory_management
	.cfi_endproc
                                        # -- End function
	.p2align	4, 0x90         # -- Begin function adaptive_memory_management
	.type	adaptive_memory_management,@function
adaptive_memory_management:             # @adaptive_memory_management
	.cfi_startproc
# %bb.0:                                # %rand_bb
	pushq	%rbp
	.cfi_def_cfa_offset 16
	.cfi_offset %rbp, -16
	movq	%rsp, %rbp
	.cfi_def_cfa_register %rbp
	pushq	%rbx
	pushq	%rax
	.cfi_offset %rbx, -24
	movq	%rdi, %rbx
	callq	get_rand
	cmpl	$0, %eax
	jne	.LBB32_2
# %bb.1:                                # %func_adaptive_memory_management.12
	movq	%rbx, %rdi
	callq	adaptive_memory_management.12
	addq	$8, %rsp
	popq	%rbx
	popq	%rbp
	.cfi_def_cfa %rsp, 8
	retq
.LBB32_2:                               # %func_adaptive_memory_management.22
	.cfi_def_cfa %rbp, 16
	movq	%rbx, %rdi
	callq	adaptive_memory_management.22
	addq	$8, %rsp
	popq	%rbx
	popq	%rbp
	.cfi_def_cfa %rsp, 8
	retq
.Lfunc_end32:
	.size	adaptive_memory_management, .Lfunc_end32-adaptive_memory_management
	.cfi_endproc
                                        # -- End function
	.p2align	4, 0x90         # -- Begin function insert_picture_in_dpb
	.type	insert_picture_in_dpb,@function
insert_picture_in_dpb:                  # @insert_picture_in_dpb
	.cfi_startproc
# %bb.0:                                # %rand_bb
	pushq	%rbp
	.cfi_def_cfa_offset 16
	.cfi_offset %rbp, -16
	movq	%rsp, %rbp
	.cfi_def_cfa_register %rbp
	pushq	%r14
	pushq	%rbx
	.cfi_offset %rbx, -32
	.cfi_offset %r14, -24
	movq	%rsi, %r14
	movq	%rdi, %rbx
	callq	get_rand
	cmpl	$0, %eax
	jne	.LBB33_2
# %bb.1:                                # %func_insert_picture_in_dpb.31
	movq	%rbx, %rdi
	movq	%r14, %rsi
	callq	insert_picture_in_dpb.31
	popq	%rbx
	popq	%r14
	popq	%rbp
	.cfi_def_cfa %rsp, 8
	retq
.LBB33_2:                               # %func_insert_picture_in_dpb.74
	.cfi_def_cfa %rbp, 16
	movq	%rbx, %rdi
	movq	%r14, %rsi
	callq	insert_picture_in_dpb.74
	popq	%rbx
	popq	%r14
	popq	%rbp
	.cfi_def_cfa %rsp, 8
	retq
.Lfunc_end33:
	.size	insert_picture_in_dpb, .Lfunc_end33-insert_picture_in_dpb
	.cfi_endproc
                                        # -- End function
	.p2align	4, 0x90         # -- Begin function sliding_window_memory_management
	.type	sliding_window_memory_management,@function
sliding_window_memory_management:       # @sliding_window_memory_management
	.cfi_startproc
# %bb.0:                                # %rand_bb
	pushq	%rbp
	.cfi_def_cfa_offset 16
	.cfi_offset %rbp, -16
	movq	%rsp, %rbp
	.cfi_def_cfa_register %rbp
	pushq	%rbx
	pushq	%rax
	.cfi_offset %rbx, -24
	movq	%rdi, %rbx
	callq	get_rand
	cmpl	$0, %eax
	jne	.LBB34_2
# %bb.1:                                # %func_sliding_window_memory_management.96
	movq	%rbx, %rdi
	callq	sliding_window_memory_management.96
	addq	$8, %rsp
	popq	%rbx
	popq	%rbp
	.cfi_def_cfa %rsp, 8
	retq
.LBB34_2:                               # %func_sliding_window_memory_management.174
	.cfi_def_cfa %rbp, 16
	movq	%rbx, %rdi
	callq	sliding_window_memory_management.174
	addq	$8, %rsp
	popq	%rbx
	popq	%rbp
	.cfi_def_cfa %rsp, 8
	retq
.Lfunc_end34:
	.size	sliding_window_memory_management, .Lfunc_end34-sliding_window_memory_management
	.cfi_endproc
                                        # -- End function
	.p2align	4, 0x90         # -- Begin function get_smallest_poc
	.type	get_smallest_poc,@function
get_smallest_poc:                       # @get_smallest_poc
	.cfi_startproc
# %bb.0:                                # %rand_bb
	pushq	%rbp
	.cfi_def_cfa_offset 16
	.cfi_offset %rbp, -16
	movq	%rsp, %rbp
	.cfi_def_cfa_register %rbp
	pushq	%r14
	pushq	%rbx
	.cfi_offset %rbx, -32
	.cfi_offset %r14, -24
	movq	%rsi, %r14
	movq	%rdi, %rbx
	callq	get_rand
	cmpl	$0, %eax
	jne	.LBB35_7
# %bb.1:                                # %func_get_smallest_poc.91
	movq	%rbx, %rdi
	movq	%r14, %rsi
	callq	get_smallest_poc.91
	popq	%rbx
	popq	%r14
	popq	%rbp
	.cfi_def_cfa %rsp, 8
	retq
.LBB35_2:                               # %func_get_smallest_poc.115
	.cfi_def_cfa %rbp, 16
	movq	%rbx, %rdi
	movq	%r14, %rsi
	callq	get_smallest_poc.115
	popq	%rbx
	popq	%r14
	popq	%rbp
	.cfi_def_cfa %rsp, 8
	retq
.LBB35_3:                               # %func_get_smallest_poc.133
	.cfi_def_cfa %rbp, 16
	movq	%rbx, %rdi
	movq	%r14, %rsi
	callq	get_smallest_poc.133
	popq	%rbx
	popq	%r14
	popq	%rbp
	.cfi_def_cfa %rsp, 8
	retq
.LBB35_4:                               # %func_get_smallest_poc.135
	.cfi_def_cfa %rbp, 16
	movq	%rbx, %rdi
	movq	%r14, %rsi
	callq	get_smallest_poc.135
	popq	%rbx
	popq	%r14
	popq	%rbp
	.cfi_def_cfa %rsp, 8
	retq
.LBB35_5:                               # %func_get_smallest_poc.146
	.cfi_def_cfa %rbp, 16
	movq	%rbx, %rdi
	movq	%r14, %rsi
	callq	get_smallest_poc.146
	popq	%rbx
	popq	%r14
	popq	%rbp
	.cfi_def_cfa %rsp, 8
	retq
.LBB35_6:                               # %func_get_smallest_poc.230
	.cfi_def_cfa %rbp, 16
	movq	%rbx, %rdi
	movq	%r14, %rsi
	callq	get_smallest_poc.230
	popq	%rbx
	popq	%r14
	popq	%rbp
	.cfi_def_cfa %rsp, 8
	retq
.LBB35_7:                               # %ctrl0
	.cfi_def_cfa %rbp, 16
	cmpl	$1, %eax
	je	.LBB35_2
# %bb.8:                                # %ctrl1
	cmpl	$2, %eax
	je	.LBB35_3
# %bb.9:                                # %ctrl2
	cmpl	$3, %eax
	je	.LBB35_4
# %bb.10:                               # %ctrl3
	cmpl	$4, %eax
	je	.LBB35_5
	jmp	.LBB35_6
.Lfunc_end35:
	.size	get_smallest_poc, .Lfunc_end35-get_smallest_poc
	.cfi_endproc
                                        # -- End function
	.globl	replace_top_pic_with_frame # -- Begin function replace_top_pic_with_frame
	.p2align	4, 0x90
	.type	replace_top_pic_with_frame,@function
replace_top_pic_with_frame:             # @replace_top_pic_with_frame
	.cfi_startproc
# %bb.0:                                # %rand_bb
	pushq	%rbp
	.cfi_def_cfa_offset 16
	.cfi_offset %rbp, -16
	movq	%rsp, %rbp
	.cfi_def_cfa_register %rbp
	pushq	%rbx
	pushq	%rax
	.cfi_offset %rbx, -24
	movq	%rdi, %rbx
	callq	get_rand
	cmpl	$0, %eax
	jne	.LBB36_9
# %bb.1:                                # %func_replace_top_pic_with_frame.8
	movq	%rbx, %rdi
	callq	replace_top_pic_with_frame.8
	addq	$8, %rsp
	popq	%rbx
	popq	%rbp
	.cfi_def_cfa %rsp, 8
	retq
.LBB36_2:                               # %func_replace_top_pic_with_frame.25
	.cfi_def_cfa %rbp, 16
	movq	%rbx, %rdi
	callq	replace_top_pic_with_frame.25
	addq	$8, %rsp
	popq	%rbx
	popq	%rbp
	.cfi_def_cfa %rsp, 8
	retq
.LBB36_3:                               # %func_replace_top_pic_with_frame.154
	.cfi_def_cfa %rbp, 16
	movq	%rbx, %rdi
	callq	replace_top_pic_with_frame.154
	addq	$8, %rsp
	popq	%rbx
	popq	%rbp
	.cfi_def_cfa %rsp, 8
	retq
.LBB36_4:                               # %func_replace_top_pic_with_frame.209
	.cfi_def_cfa %rbp, 16
	movq	%rbx, %rdi
	callq	replace_top_pic_with_frame.209
	addq	$8, %rsp
	popq	%rbx
	popq	%rbp
	.cfi_def_cfa %rsp, 8
	retq
.LBB36_5:                               # %func_replace_top_pic_with_frame.210
	.cfi_def_cfa %rbp, 16
	movq	%rbx, %rdi
	callq	replace_top_pic_with_frame.210
	addq	$8, %rsp
	popq	%rbx
	popq	%rbp
	.cfi_def_cfa %rsp, 8
	retq
.LBB36_6:                               # %func_replace_top_pic_with_frame.240
	.cfi_def_cfa %rbp, 16
	movq	%rbx, %rdi
	callq	replace_top_pic_with_frame.240
	addq	$8, %rsp
	popq	%rbx
	popq	%rbp
	.cfi_def_cfa %rsp, 8
	retq
.LBB36_7:                               # %func_replace_top_pic_with_frame.260
	.cfi_def_cfa %rbp, 16
	movq	%rbx, %rdi
	callq	replace_top_pic_with_frame.260
	addq	$8, %rsp
	popq	%rbx
	popq	%rbp
	.cfi_def_cfa %rsp, 8
	retq
.LBB36_8:                               # %func_replace_top_pic_with_frame.262
	.cfi_def_cfa %rbp, 16
	movq	%rbx, %rdi
	callq	replace_top_pic_with_frame.262
	addq	$8, %rsp
	popq	%rbx
	popq	%rbp
	.cfi_def_cfa %rsp, 8
	retq
.LBB36_9:                               # %ctrl0
	.cfi_def_cfa %rbp, 16
	cmpl	$1, %eax
	je	.LBB36_2
# %bb.10:                               # %ctrl1
	cmpl	$2, %eax
	je	.LBB36_3
# %bb.11:                               # %ctrl2
	cmpl	$3, %eax
	je	.LBB36_4
# %bb.12:                               # %ctrl3
	cmpl	$4, %eax
	je	.LBB36_5
# %bb.13:                               # %ctrl4
	cmpl	$5, %eax
	je	.LBB36_6
# %bb.14:                               # %ctrl5
	cmpl	$6, %eax
	je	.LBB36_7
	jmp	.LBB36_8
.Lfunc_end36:
	.size	replace_top_pic_with_frame, .Lfunc_end36-replace_top_pic_with_frame
	.cfi_endproc
                                        # -- End function
	.globl	dpb_split_field         # -- Begin function dpb_split_field
	.p2align	4, 0x90
	.type	dpb_split_field,@function
dpb_split_field:                        # @dpb_split_field
	.cfi_startproc
# %bb.0:                                # %rand_bb
	pushq	%rbp
	.cfi_def_cfa_offset 16
	.cfi_offset %rbp, -16
	movq	%rsp, %rbp
	.cfi_def_cfa_register %rbp
	pushq	%rbx
	pushq	%rax
	.cfi_offset %rbx, -24
	movq	%rdi, %rbx
	callq	get_rand
	cmpl	$0, %eax
	jne	.LBB37_9
# %bb.1:                                # %func_dpb_split_field.23
	movq	%rbx, %rdi
	callq	dpb_split_field.23
	addq	$8, %rsp
	popq	%rbx
	popq	%rbp
	.cfi_def_cfa %rsp, 8
	retq
.LBB37_2:                               # %func_dpb_split_field.76
	.cfi_def_cfa %rbp, 16
	movq	%rbx, %rdi
	callq	dpb_split_field.76
	addq	$8, %rsp
	popq	%rbx
	popq	%rbp
	.cfi_def_cfa %rsp, 8
	retq
.LBB37_3:                               # %func_dpb_split_field.93
	.cfi_def_cfa %rbp, 16
	movq	%rbx, %rdi
	callq	dpb_split_field.93
	addq	$8, %rsp
	popq	%rbx
	popq	%rbp
	.cfi_def_cfa %rsp, 8
	retq
.LBB37_4:                               # %func_dpb_split_field.150
	.cfi_def_cfa %rbp, 16
	movq	%rbx, %rdi
	callq	dpb_split_field.150
	addq	$8, %rsp
	popq	%rbx
	popq	%rbp
	.cfi_def_cfa %rsp, 8
	retq
.LBB37_5:                               # %func_dpb_split_field.217
	.cfi_def_cfa %rbp, 16
	movq	%rbx, %rdi
	callq	dpb_split_field.217
	addq	$8, %rsp
	popq	%rbx
	popq	%rbp
	.cfi_def_cfa %rsp, 8
	retq
.LBB37_6:                               # %func_dpb_split_field.228
	.cfi_def_cfa %rbp, 16
	movq	%rbx, %rdi
	callq	dpb_split_field.228
	addq	$8, %rsp
	popq	%rbx
	popq	%rbp
	.cfi_def_cfa %rsp, 8
	retq
.LBB37_7:                               # %func_dpb_split_field.250
	.cfi_def_cfa %rbp, 16
	movq	%rbx, %rdi
	callq	dpb_split_field.250
	addq	$8, %rsp
	popq	%rbx
	popq	%rbp
	.cfi_def_cfa %rsp, 8
	retq
.LBB37_8:                               # %func_dpb_split_field.251
	.cfi_def_cfa %rbp, 16
	movq	%rbx, %rdi
	callq	dpb_split_field.251
	addq	$8, %rsp
	popq	%rbx
	popq	%rbp
	.cfi_def_cfa %rsp, 8
	retq
.LBB37_9:                               # %ctrl0
	.cfi_def_cfa %rbp, 16
	cmpl	$1, %eax
	je	.LBB37_2
# %bb.10:                               # %ctrl1
	cmpl	$2, %eax
	je	.LBB37_3
# %bb.11:                               # %ctrl2
	cmpl	$3, %eax
	je	.LBB37_4
# %bb.12:                               # %ctrl3
	cmpl	$4, %eax
	je	.LBB37_5
# %bb.13:                               # %ctrl4
	cmpl	$5, %eax
	je	.LBB37_6
# %bb.14:                               # %ctrl5
	cmpl	$6, %eax
	je	.LBB37_7
	jmp	.LBB37_8
.Lfunc_end37:
	.size	dpb_split_field, .Lfunc_end37-dpb_split_field
	.cfi_endproc
                                        # -- End function
	.globl	flush_dpb               # -- Begin function flush_dpb
	.p2align	4, 0x90
	.type	flush_dpb,@function
flush_dpb:                              # @flush_dpb
	.cfi_startproc
# %bb.0:                                # %entry
	pushq	%rbp
	.cfi_def_cfa_offset 16
	.cfi_offset %rbp, -16
	movq	%rsp, %rbp
	.cfi_def_cfa_register %rbp
	subq	$16, %rsp
	movl	$0, -4(%rbp)
.LBB38_1:                               # %for.cond
                                        # =>This Inner Loop Header: Depth=1
	movl	-4(%rbp), %eax
	cmpl	dpb+28, %eax
	jae	.LBB38_4
# %bb.2:                                # %for.body
                                        #   in Loop: Header=BB38_1 Depth=1
	movq	dpb, %rax
	movl	-4(%rbp), %ecx
	movq	(%rax,%rcx,8), %rdi
	callq	unmark_for_reference
# %bb.3:                                # %for.inc
                                        #   in Loop: Header=BB38_1 Depth=1
	movl	-4(%rbp), %eax
	addl	$1, %eax
	movl	%eax, -4(%rbp)
	jmp	.LBB38_1
.LBB38_4:                               # %for.end
	jmp	.LBB38_5
.LBB38_5:                               # %while.cond
                                        # =>This Inner Loop Header: Depth=1
	callq	remove_unused_frame_from_dpb
	cmpl	$0, %eax
	je	.LBB38_7
# %bb.6:                                # %while.body
                                        #   in Loop: Header=BB38_5 Depth=1
	jmp	.LBB38_5
.LBB38_7:                               # %while.end
	jmp	.LBB38_8
.LBB38_8:                               # %while.cond1
                                        # =>This Inner Loop Header: Depth=1
	cmpl	$0, dpb+28
	je	.LBB38_10
# %bb.9:                                # %while.body3
                                        #   in Loop: Header=BB38_8 Depth=1
	callq	output_one_frame_from_dpb
	jmp	.LBB38_8
.LBB38_10:                              # %while.end4
	movl	$-2147483648, dpb+40    # imm = 0x80000000
	addq	$16, %rsp
	popq	%rbp
	.cfi_def_cfa %rsp, 8
	retq
.Lfunc_end38:
	.size	flush_dpb, .Lfunc_end38-flush_dpb
	.cfi_endproc
                                        # -- End function
	.p2align	4, 0x90         # -- Begin function unmark_for_reference
	.type	unmark_for_reference,@function
unmark_for_reference:                   # @unmark_for_reference
	.cfi_startproc
# %bb.0:                                # %entry
	pushq	%rbp
	.cfi_def_cfa_offset 16
	.cfi_offset %rbp, -16
	movq	%rsp, %rbp
	.cfi_def_cfa_register %rbp
	subq	$16, %rsp
	movq	%rdi, -8(%rbp)
	movq	active_sps, %rax
	cmpl	$0, 1148(%rax)
	jne	.LBB39_6
# %bb.1:                                # %if.then
	movq	-8(%rbp), %rax
	movl	(%rax), %eax
	andl	$1, %eax
	cmpl	$0, %eax
	je	.LBB39_3
# %bb.2:                                # %if.then2
	movq	-8(%rbp), %rax
	movq	48(%rax), %rax
	movl	$0, 6380(%rax)
.LBB39_3:                               # %if.end
	movq	-8(%rbp), %rax
	movl	(%rax), %eax
	andl	$2, %eax
	cmpl	$0, %eax
	je	.LBB39_5
# %bb.4:                                # %if.then6
	movq	-8(%rbp), %rax
	movq	56(%rax), %rax
	movl	$0, 6380(%rax)
.LBB39_5:                               # %if.end8
	jmp	.LBB39_6
.LBB39_6:                               # %if.end9
	movq	-8(%rbp), %rax
	cmpl	$3, (%rax)
	jne	.LBB39_10
# %bb.7:                                # %if.then11
	movq	active_sps, %rax
	cmpl	$0, 1148(%rax)
	jne	.LBB39_9
# %bb.8:                                # %if.then14
	movq	-8(%rbp), %rax
	movq	48(%rax), %rax
	movl	$0, 6380(%rax)
	movq	-8(%rbp), %rax
	movq	56(%rax), %rax
	movl	$0, 6380(%rax)
.LBB39_9:                               # %if.end19
	movq	-8(%rbp), %rax
	movq	40(%rax), %rax
	movl	$0, 6380(%rax)
.LBB39_10:                              # %if.end21
	movq	-8(%rbp), %rax
	movl	$0, 4(%rax)
	movq	-8(%rbp), %rax
	movq	40(%rax), %rax
	cmpq	$0, 6456(%rax)
	je	.LBB39_12
# %bb.11:                               # %if.then24
	movq	-8(%rbp), %rax
	movq	40(%rax), %rax
	movq	6456(%rax), %rdi
	callq	free_mem2Dpel
	movq	-8(%rbp), %rax
	movq	40(%rax), %rax
	movq	$0, 6456(%rax)
.LBB39_12:                              # %if.end29
	movq	-8(%rbp), %rax
	movq	40(%rax), %rax
	cmpq	$0, 6448(%rax)
	je	.LBB39_14
# %bb.13:                               # %if.then32
	movq	-8(%rbp), %rax
	movq	40(%rax), %rax
	movq	6448(%rax), %rdi
	callq	free_mem2Dpel
	movq	-8(%rbp), %rax
	movq	40(%rax), %rax
	movq	$0, 6448(%rax)
.LBB39_14:                              # %if.end37
	movq	-8(%rbp), %rax
	movq	40(%rax), %rax
	cmpq	$0, 6440(%rax)
	je	.LBB39_16
# %bb.15:                               # %if.then40
	movq	-8(%rbp), %rax
	movq	40(%rax), %rax
	movq	6440(%rax), %rdi
	callq	free
	movq	-8(%rbp), %rax
	movq	40(%rax), %rax
	movq	$0, 6440(%rax)
.LBB39_16:                              # %if.end45
	addq	$16, %rsp
	popq	%rbp
	.cfi_def_cfa %rsp, 8
	retq
.Lfunc_end39:
	.size	unmark_for_reference, .Lfunc_end39-unmark_for_reference
	.cfi_endproc
                                        # -- End function
	.globl	gen_field_ref_ids       # -- Begin function gen_field_ref_ids
	.p2align	4, 0x90
	.type	gen_field_ref_ids,@function
gen_field_ref_ids:                      # @gen_field_ref_ids
	.cfi_startproc
# %bb.0:                                # %rand_bb
	pushq	%rbp
	.cfi_def_cfa_offset 16
	.cfi_offset %rbp, -16
	movq	%rsp, %rbp
	.cfi_def_cfa_register %rbp
	pushq	%rbx
	pushq	%rax
	.cfi_offset %rbx, -24
	movq	%rdi, %rbx
	callq	get_rand
	cmpl	$0, %eax
	jne	.LBB40_9
# %bb.1:                                # %func_gen_field_ref_ids.4
	movq	%rbx, %rdi
	callq	gen_field_ref_ids.4
	addq	$8, %rsp
	popq	%rbx
	popq	%rbp
	.cfi_def_cfa %rsp, 8
	retq
.LBB40_2:                               # %func_gen_field_ref_ids.32
	.cfi_def_cfa %rbp, 16
	movq	%rbx, %rdi
	callq	gen_field_ref_ids.32
	addq	$8, %rsp
	popq	%rbx
	popq	%rbp
	.cfi_def_cfa %rsp, 8
	retq
.LBB40_3:                               # %func_gen_field_ref_ids.95
	.cfi_def_cfa %rbp, 16
	movq	%rbx, %rdi
	callq	gen_field_ref_ids.95
	addq	$8, %rsp
	popq	%rbx
	popq	%rbp
	.cfi_def_cfa %rsp, 8
	retq
.LBB40_4:                               # %func_gen_field_ref_ids.173
	.cfi_def_cfa %rbp, 16
	movq	%rbx, %rdi
	callq	gen_field_ref_ids.173
	addq	$8, %rsp
	popq	%rbx
	popq	%rbp
	.cfi_def_cfa %rsp, 8
	retq
.LBB40_5:                               # %func_gen_field_ref_ids.213
	.cfi_def_cfa %rbp, 16
	movq	%rbx, %rdi
	callq	gen_field_ref_ids.213
	addq	$8, %rsp
	popq	%rbx
	popq	%rbp
	.cfi_def_cfa %rsp, 8
	retq
.LBB40_6:                               # %func_gen_field_ref_ids.220
	.cfi_def_cfa %rbp, 16
	movq	%rbx, %rdi
	callq	gen_field_ref_ids.220
	addq	$8, %rsp
	popq	%rbx
	popq	%rbp
	.cfi_def_cfa %rsp, 8
	retq
.LBB40_7:                               # %func_gen_field_ref_ids.233
	.cfi_def_cfa %rbp, 16
	movq	%rbx, %rdi
	callq	gen_field_ref_ids.233
	addq	$8, %rsp
	popq	%rbx
	popq	%rbp
	.cfi_def_cfa %rsp, 8
	retq
.LBB40_8:                               # %func_gen_field_ref_ids.252
	.cfi_def_cfa %rbp, 16
	movq	%rbx, %rdi
	callq	gen_field_ref_ids.252
	addq	$8, %rsp
	popq	%rbx
	popq	%rbp
	.cfi_def_cfa %rsp, 8
	retq
.LBB40_9:                               # %ctrl0
	.cfi_def_cfa %rbp, 16
	cmpl	$1, %eax
	je	.LBB40_2
# %bb.10:                               # %ctrl1
	cmpl	$2, %eax
	je	.LBB40_3
# %bb.11:                               # %ctrl2
	cmpl	$3, %eax
	je	.LBB40_4
# %bb.12:                               # %ctrl3
	cmpl	$4, %eax
	je	.LBB40_5
# %bb.13:                               # %ctrl4
	cmpl	$5, %eax
	je	.LBB40_6
# %bb.14:                               # %ctrl5
	cmpl	$6, %eax
	je	.LBB40_7
	jmp	.LBB40_8
.Lfunc_end40:
	.size	gen_field_ref_ids, .Lfunc_end40-gen_field_ref_ids
	.cfi_endproc
                                        # -- End function
	.globl	dpb_combine_field       # -- Begin function dpb_combine_field
	.p2align	4, 0x90
	.type	dpb_combine_field,@function
dpb_combine_field:                      # @dpb_combine_field
	.cfi_startproc
# %bb.0:                                # %rand_bb
	pushq	%rbp
	.cfi_def_cfa_offset 16
	.cfi_offset %rbp, -16
	movq	%rsp, %rbp
	.cfi_def_cfa_register %rbp
	pushq	%rbx
	pushq	%rax
	.cfi_offset %rbx, -24
	movq	%rdi, %rbx
	callq	get_rand
	cmpl	$0, %eax
	jne	.LBB41_9
# %bb.1:                                # %func_dpb_combine_field.10
	movq	%rbx, %rdi
	callq	dpb_combine_field.10
	addq	$8, %rsp
	popq	%rbx
	popq	%rbp
	.cfi_def_cfa %rsp, 8
	retq
.LBB41_2:                               # %func_dpb_combine_field.14
	.cfi_def_cfa %rbp, 16
	movq	%rbx, %rdi
	callq	dpb_combine_field.14
	addq	$8, %rsp
	popq	%rbx
	popq	%rbp
	.cfi_def_cfa %rsp, 8
	retq
.LBB41_3:                               # %func_dpb_combine_field.50
	.cfi_def_cfa %rbp, 16
	movq	%rbx, %rdi
	callq	dpb_combine_field.50
	addq	$8, %rsp
	popq	%rbx
	popq	%rbp
	.cfi_def_cfa %rsp, 8
	retq
.LBB41_4:                               # %func_dpb_combine_field.73
	.cfi_def_cfa %rbp, 16
	movq	%rbx, %rdi
	callq	dpb_combine_field.73
	addq	$8, %rsp
	popq	%rbx
	popq	%rbp
	.cfi_def_cfa %rsp, 8
	retq
.LBB41_5:                               # %func_dpb_combine_field.106
	.cfi_def_cfa %rbp, 16
	movq	%rbx, %rdi
	callq	dpb_combine_field.106
	addq	$8, %rsp
	popq	%rbx
	popq	%rbp
	.cfi_def_cfa %rsp, 8
	retq
.LBB41_6:                               # %func_dpb_combine_field.119
	.cfi_def_cfa %rbp, 16
	movq	%rbx, %rdi
	callq	dpb_combine_field.119
	addq	$8, %rsp
	popq	%rbx
	popq	%rbp
	.cfi_def_cfa %rsp, 8
	retq
.LBB41_7:                               # %func_dpb_combine_field.120
	.cfi_def_cfa %rbp, 16
	movq	%rbx, %rdi
	callq	dpb_combine_field.120
	addq	$8, %rsp
	popq	%rbx
	popq	%rbp
	.cfi_def_cfa %rsp, 8
	retq
.LBB41_8:                               # %func_dpb_combine_field.161
	.cfi_def_cfa %rbp, 16
	movq	%rbx, %rdi
	callq	dpb_combine_field.161
	addq	$8, %rsp
	popq	%rbx
	popq	%rbp
	.cfi_def_cfa %rsp, 8
	retq
.LBB41_9:                               # %ctrl0
	.cfi_def_cfa %rbp, 16
	cmpl	$1, %eax
	je	.LBB41_2
# %bb.10:                               # %ctrl1
	cmpl	$2, %eax
	je	.LBB41_3
# %bb.11:                               # %ctrl2
	cmpl	$3, %eax
	je	.LBB41_4
# %bb.12:                               # %ctrl3
	cmpl	$4, %eax
	je	.LBB41_5
# %bb.13:                               # %ctrl4
	cmpl	$5, %eax
	je	.LBB41_6
# %bb.14:                               # %ctrl5
	cmpl	$6, %eax
	je	.LBB41_7
	jmp	.LBB41_8
.Lfunc_end41:
	.size	dpb_combine_field, .Lfunc_end41-dpb_combine_field
	.cfi_endproc
                                        # -- End function
	.globl	alloc_ref_pic_list_reordering_buffer # -- Begin function alloc_ref_pic_list_reordering_buffer
	.p2align	4, 0x90
	.type	alloc_ref_pic_list_reordering_buffer,@function
alloc_ref_pic_list_reordering_buffer:   # @alloc_ref_pic_list_reordering_buffer
	.cfi_startproc
# %bb.0:                                # %rand_bb
	pushq	%rbp
	.cfi_def_cfa_offset 16
	.cfi_offset %rbp, -16
	movq	%rsp, %rbp
	.cfi_def_cfa_register %rbp
	pushq	%rbx
	pushq	%rax
	.cfi_offset %rbx, -24
	movq	%rdi, %rbx
	callq	get_rand
	cmpl	$0, %eax
	jne	.LBB42_2
# %bb.1:                                # %func_alloc_ref_pic_list_reordering_buffer.61
	movq	%rbx, %rdi
	callq	alloc_ref_pic_list_reordering_buffer.61
	addq	$8, %rsp
	popq	%rbx
	popq	%rbp
	.cfi_def_cfa %rsp, 8
	retq
.LBB42_2:                               # %func_alloc_ref_pic_list_reordering_buffer.86
	.cfi_def_cfa %rbp, 16
	movq	%rbx, %rdi
	callq	alloc_ref_pic_list_reordering_buffer.86
	addq	$8, %rsp
	popq	%rbx
	popq	%rbp
	.cfi_def_cfa %rsp, 8
	retq
.Lfunc_end42:
	.size	alloc_ref_pic_list_reordering_buffer, .Lfunc_end42-alloc_ref_pic_list_reordering_buffer
	.cfi_endproc
                                        # -- End function
	.globl	free_ref_pic_list_reordering_buffer # -- Begin function free_ref_pic_list_reordering_buffer
	.p2align	4, 0x90
	.type	free_ref_pic_list_reordering_buffer,@function
free_ref_pic_list_reordering_buffer:    # @free_ref_pic_list_reordering_buffer
	.cfi_startproc
# %bb.0:                                # %entry
	pushq	%rbp
	.cfi_def_cfa_offset 16
	.cfi_offset %rbp, -16
	movq	%rsp, %rbp
	.cfi_def_cfa_register %rbp
	subq	$16, %rsp
	movq	%rdi, -8(%rbp)
	movq	-8(%rbp), %rax
	cmpq	$0, 64(%rax)
	je	.LBB43_2
# %bb.1:                                # %if.then
	movq	-8(%rbp), %rax
	movq	64(%rax), %rdi
	callq	free
.LBB43_2:                               # %if.end
	movq	-8(%rbp), %rax
	cmpq	$0, 72(%rax)
	je	.LBB43_4
# %bb.3:                                # %if.then3
	movq	-8(%rbp), %rax
	movq	72(%rax), %rdi
	callq	free
.LBB43_4:                               # %if.end5
	movq	-8(%rbp), %rax
	cmpq	$0, 80(%rax)
	je	.LBB43_6
# %bb.5:                                # %if.then7
	movq	-8(%rbp), %rax
	movq	80(%rax), %rdi
	callq	free
.LBB43_6:                               # %if.end9
	movq	-8(%rbp), %rax
	movq	$0, 64(%rax)
	movq	-8(%rbp), %rax
	movq	$0, 72(%rax)
	movq	-8(%rbp), %rax
	movq	$0, 80(%rax)
	movq	-8(%rbp), %rax
	cmpq	$0, 96(%rax)
	je	.LBB43_8
# %bb.7:                                # %if.then14
	movq	-8(%rbp), %rax
	movq	96(%rax), %rdi
	callq	free
.LBB43_8:                               # %if.end16
	movq	-8(%rbp), %rax
	cmpq	$0, 104(%rax)
	je	.LBB43_10
# %bb.9:                                # %if.then18
	movq	-8(%rbp), %rax
	movq	104(%rax), %rdi
	callq	free
.LBB43_10:                              # %if.end20
	movq	-8(%rbp), %rax
	cmpq	$0, 112(%rax)
	je	.LBB43_12
# %bb.11:                               # %if.then22
	movq	-8(%rbp), %rax
	movq	112(%rax), %rdi
	callq	free
.LBB43_12:                              # %if.end24
	movq	-8(%rbp), %rax
	movq	$0, 96(%rax)
	movq	-8(%rbp), %rax
	movq	$0, 104(%rax)
	movq	-8(%rbp), %rax
	movq	$0, 112(%rax)
	addq	$16, %rsp
	popq	%rbp
	.cfi_def_cfa %rsp, 8
	retq
.Lfunc_end43:
	.size	free_ref_pic_list_reordering_buffer, .Lfunc_end43-free_ref_pic_list_reordering_buffer
	.cfi_endproc
                                        # -- End function
	.globl	fill_frame_num_gap      # -- Begin function fill_frame_num_gap
	.p2align	4, 0x90
	.type	fill_frame_num_gap,@function
fill_frame_num_gap:                     # @fill_frame_num_gap
	.cfi_startproc
# %bb.0:                                # %rand_bb
	pushq	%rbp
	.cfi_def_cfa_offset 16
	.cfi_offset %rbp, -16
	movq	%rsp, %rbp
	.cfi_def_cfa_register %rbp
	pushq	%rbx
	pushq	%rax
	.cfi_offset %rbx, -24
	movq	%rdi, %rbx
	callq	get_rand
	cmpl	$0, %eax
	jne	.LBB44_9
# %bb.1:                                # %func_fill_frame_num_gap.15
	movq	%rbx, %rdi
	callq	fill_frame_num_gap.15
	addq	$8, %rsp
	popq	%rbx
	popq	%rbp
	.cfi_def_cfa %rsp, 8
	retq
.LBB44_2:                               # %func_fill_frame_num_gap.19
	.cfi_def_cfa %rbp, 16
	movq	%rbx, %rdi
	callq	fill_frame_num_gap.19
	addq	$8, %rsp
	popq	%rbx
	popq	%rbp
	.cfi_def_cfa %rsp, 8
	retq
.LBB44_3:                               # %func_fill_frame_num_gap.20
	.cfi_def_cfa %rbp, 16
	movq	%rbx, %rdi
	callq	fill_frame_num_gap.20
	addq	$8, %rsp
	popq	%rbx
	popq	%rbp
	.cfi_def_cfa %rsp, 8
	retq
.LBB44_4:                               # %func_fill_frame_num_gap.77
	.cfi_def_cfa %rbp, 16
	movq	%rbx, %rdi
	callq	fill_frame_num_gap.77
	addq	$8, %rsp
	popq	%rbx
	popq	%rbp
	.cfi_def_cfa %rsp, 8
	retq
.LBB44_5:                               # %func_fill_frame_num_gap.100
	.cfi_def_cfa %rbp, 16
	movq	%rbx, %rdi
	callq	fill_frame_num_gap.100
	addq	$8, %rsp
	popq	%rbx
	popq	%rbp
	.cfi_def_cfa %rsp, 8
	retq
.LBB44_6:                               # %func_fill_frame_num_gap.110
	.cfi_def_cfa %rbp, 16
	movq	%rbx, %rdi
	callq	fill_frame_num_gap.110
	addq	$8, %rsp
	popq	%rbx
	popq	%rbp
	.cfi_def_cfa %rsp, 8
	retq
.LBB44_7:                               # %func_fill_frame_num_gap.114
	.cfi_def_cfa %rbp, 16
	movq	%rbx, %rdi
	callq	fill_frame_num_gap.114
	addq	$8, %rsp
	popq	%rbx
	popq	%rbp
	.cfi_def_cfa %rsp, 8
	retq
.LBB44_8:                               # %func_fill_frame_num_gap.246
	.cfi_def_cfa %rbp, 16
	movq	%rbx, %rdi
	callq	fill_frame_num_gap.246
	addq	$8, %rsp
	popq	%rbx
	popq	%rbp
	.cfi_def_cfa %rsp, 8
	retq
.LBB44_9:                               # %ctrl0
	.cfi_def_cfa %rbp, 16
	cmpl	$1, %eax
	je	.LBB44_2
# %bb.10:                               # %ctrl1
	cmpl	$2, %eax
	je	.LBB44_3
# %bb.11:                               # %ctrl2
	cmpl	$3, %eax
	je	.LBB44_4
# %bb.12:                               # %ctrl3
	cmpl	$4, %eax
	je	.LBB44_5
# %bb.13:                               # %ctrl4
	cmpl	$5, %eax
	je	.LBB44_6
# %bb.14:                               # %ctrl5
	cmpl	$6, %eax
	je	.LBB44_7
	jmp	.LBB44_8
.Lfunc_end44:
	.size	fill_frame_num_gap, .Lfunc_end44-fill_frame_num_gap
	.cfi_endproc
                                        # -- End function
	.globl	alloc_colocated         # -- Begin function alloc_colocated
	.p2align	4, 0x90
	.type	alloc_colocated,@function
alloc_colocated:                        # @alloc_colocated
	.cfi_startproc
# %bb.0:                                # %rand_bb
	pushq	%rbp
	.cfi_def_cfa_offset 16
	.cfi_offset %rbp, -16
	movq	%rsp, %rbp
	.cfi_def_cfa_register %rbp
	pushq	%r15
	pushq	%r14
	pushq	%rbx
	pushq	%rax
	.cfi_offset %rbx, -40
	.cfi_offset %r14, -32
	.cfi_offset %r15, -24
	movl	%edx, %r14d
	movl	%esi, %r15d
	movl	%edi, %ebx
	callq	get_rand
	cmpl	$0, %eax
	jne	.LBB45_9
# %bb.1:                                # %func_alloc_colocated.2
	movl	%ebx, %edi
	movl	%r15d, %esi
	movl	%r14d, %edx
	callq	alloc_colocated.2
	addq	$8, %rsp
	popq	%rbx
	popq	%r14
	popq	%r15
	popq	%rbp
	.cfi_def_cfa %rsp, 8
	retq
.LBB45_2:                               # %func_alloc_colocated.52
	.cfi_def_cfa %rbp, 16
	movl	%ebx, %edi
	movl	%r15d, %esi
	movl	%r14d, %edx
	callq	alloc_colocated.52
	addq	$8, %rsp
	popq	%rbx
	popq	%r14
	popq	%r15
	popq	%rbp
	.cfi_def_cfa %rsp, 8
	retq
.LBB45_3:                               # %func_alloc_colocated.72
	.cfi_def_cfa %rbp, 16
	movl	%ebx, %edi
	movl	%r15d, %esi
	movl	%r14d, %edx
	callq	alloc_colocated.72
	addq	$8, %rsp
	popq	%rbx
	popq	%r14
	popq	%r15
	popq	%rbp
	.cfi_def_cfa %rsp, 8
	retq
.LBB45_4:                               # %func_alloc_colocated.94
	.cfi_def_cfa %rbp, 16
	movl	%ebx, %edi
	movl	%r15d, %esi
	movl	%r14d, %edx
	callq	alloc_colocated.94
	addq	$8, %rsp
	popq	%rbx
	popq	%r14
	popq	%r15
	popq	%rbp
	.cfi_def_cfa %rsp, 8
	retq
.LBB45_5:                               # %func_alloc_colocated.197
	.cfi_def_cfa %rbp, 16
	movl	%ebx, %edi
	movl	%r15d, %esi
	movl	%r14d, %edx
	callq	alloc_colocated.197
	addq	$8, %rsp
	popq	%rbx
	popq	%r14
	popq	%r15
	popq	%rbp
	.cfi_def_cfa %rsp, 8
	retq
.LBB45_6:                               # %func_alloc_colocated.226
	.cfi_def_cfa %rbp, 16
	movl	%ebx, %edi
	movl	%r15d, %esi
	movl	%r14d, %edx
	callq	alloc_colocated.226
	addq	$8, %rsp
	popq	%rbx
	popq	%r14
	popq	%r15
	popq	%rbp
	.cfi_def_cfa %rsp, 8
	retq
.LBB45_7:                               # %func_alloc_colocated.242
	.cfi_def_cfa %rbp, 16
	movl	%ebx, %edi
	movl	%r15d, %esi
	movl	%r14d, %edx
	callq	alloc_colocated.242
	addq	$8, %rsp
	popq	%rbx
	popq	%r14
	popq	%r15
	popq	%rbp
	.cfi_def_cfa %rsp, 8
	retq
.LBB45_8:                               # %func_alloc_colocated.261
	.cfi_def_cfa %rbp, 16
	movl	%ebx, %edi
	movl	%r15d, %esi
	movl	%r14d, %edx
	callq	alloc_colocated.261
	addq	$8, %rsp
	popq	%rbx
	popq	%r14
	popq	%r15
	popq	%rbp
	.cfi_def_cfa %rsp, 8
	retq
.LBB45_9:                               # %ctrl0
	.cfi_def_cfa %rbp, 16
	cmpl	$1, %eax
	je	.LBB45_2
# %bb.10:                               # %ctrl1
	cmpl	$2, %eax
	je	.LBB45_3
# %bb.11:                               # %ctrl2
	cmpl	$3, %eax
	je	.LBB45_4
# %bb.12:                               # %ctrl3
	cmpl	$4, %eax
	je	.LBB45_5
# %bb.13:                               # %ctrl4
	cmpl	$5, %eax
	je	.LBB45_6
# %bb.14:                               # %ctrl5
	cmpl	$6, %eax
	je	.LBB45_7
	jmp	.LBB45_8
.Lfunc_end45:
	.size	alloc_colocated, .Lfunc_end45-alloc_colocated
	.cfi_endproc
                                        # -- End function
	.globl	free_colocated          # -- Begin function free_colocated
	.p2align	4, 0x90
	.type	free_colocated,@function
free_colocated:                         # @free_colocated
	.cfi_startproc
# %bb.0:                                # %entry
	pushq	%rbp
	.cfi_def_cfa_offset 16
	.cfi_offset %rbp, -16
	movq	%rsp, %rbp
	.cfi_def_cfa_register %rbp
	subq	$16, %rsp
	movq	%rdi, -8(%rbp)
	cmpq	$0, -8(%rbp)
	je	.LBB46_12
# %bb.1:                                # %if.then
	movq	-8(%rbp), %rax
	movq	1600(%rax), %rdi
	movl	$2, %esi
	callq	free_mem3Dshort
	movq	-8(%rbp), %rax
	movq	1608(%rax), %rdi
	movl	$2, %esi
	callq	free_mem3Dint64
	movq	-8(%rbp), %rax
	movq	1616(%rax), %rdi
	movq	-8(%rbp), %rax
	movl	4(%rax), %eax
	cltd
	movl	$4, %ecx
	idivl	%ecx
	movl	$2, %esi
	movl	%eax, %edx
	callq	free_mem4Dshort
	movq	-8(%rbp), %rax
	cmpq	$0, 1624(%rax)
	je	.LBB46_3
# %bb.2:                                # %if.then2
	movq	-8(%rbp), %rax
	movq	1624(%rax), %rdi
	callq	free_mem2D
	movq	-8(%rbp), %rax
	movq	$0, 1624(%rax)
.LBB46_3:                               # %if.end
	movq	-8(%rbp), %rax
	cmpq	$0, 4872(%rax)
	je	.LBB46_5
# %bb.4:                                # %if.then6
	movq	-8(%rbp), %rax
	movq	4872(%rax), %rdi
	callq	free_mem2D
	movq	-8(%rbp), %rax
	movq	$0, 4872(%rax)
.LBB46_5:                               # %if.end9
	movq	-8(%rbp), %rax
	cmpl	$0, (%rax)
	je	.LBB46_11
# %bb.6:                                # %if.then11
	movq	-8(%rbp), %rax
	movq	3216(%rax), %rdi
	movl	$2, %esi
	callq	free_mem3Dshort
	movq	-8(%rbp), %rax
	movq	3224(%rax), %rdi
	movl	$2, %esi
	callq	free_mem3Dint64
	movq	-8(%rbp), %rax
	movq	3232(%rax), %rdi
	movq	-8(%rbp), %rax
	movl	4(%rax), %eax
	cltd
	movl	$4, %ecx
	idivl	%ecx
	movl	$2, %esi
	movl	%eax, %edx
	callq	free_mem4Dshort
	movq	-8(%rbp), %rax
	cmpq	$0, 3240(%rax)
	je	.LBB46_8
# %bb.7:                                # %if.then15
	movq	-8(%rbp), %rax
	movq	3240(%rax), %rdi
	callq	free_mem2D
	movq	-8(%rbp), %rax
	movq	$0, 3240(%rax)
.LBB46_8:                               # %if.end18
	movq	-8(%rbp), %rax
	movq	4832(%rax), %rdi
	movl	$2, %esi
	callq	free_mem3Dshort
	movq	-8(%rbp), %rax
	movq	4840(%rax), %rdi
	movl	$2, %esi
	callq	free_mem3Dint64
	movq	-8(%rbp), %rax
	movq	4848(%rax), %rdi
	movq	-8(%rbp), %rax
	movl	4(%rax), %eax
	cltd
	movl	$4, %ecx
	idivl	%ecx
	movl	$2, %esi
	movl	%eax, %edx
	callq	free_mem4Dshort
	movq	-8(%rbp), %rax
	cmpq	$0, 4856(%rax)
	je	.LBB46_10
# %bb.9:                                # %if.then22
	movq	-8(%rbp), %rax
	movq	4856(%rax), %rdi
	callq	free_mem2D
	movq	-8(%rbp), %rax
	movq	$0, 4856(%rax)
.LBB46_10:                              # %if.end25
	jmp	.LBB46_11
.LBB46_11:                              # %if.end26
	movq	-8(%rbp), %rdi
	callq	free
	movq	$0, -8(%rbp)
.LBB46_12:                              # %if.end27
	addq	$16, %rsp
	popq	%rbp
	.cfi_def_cfa %rsp, 8
	retq
.Lfunc_end46:
	.size	free_colocated, .Lfunc_end46-free_colocated
	.cfi_endproc
                                        # -- End function
	.globl	compute_colocated       # -- Begin function compute_colocated
	.p2align	4, 0x90
	.type	compute_colocated,@function
compute_colocated:                      # @compute_colocated
	.cfi_startproc
# %bb.0:                                # %rand_bb
	pushq	%rbp
	.cfi_def_cfa_offset 16
	.cfi_offset %rbp, -16
	movq	%rsp, %rbp
	.cfi_def_cfa_register %rbp
	pushq	%r14
	pushq	%rbx
	.cfi_offset %rbx, -32
	.cfi_offset %r14, -24
	movq	%rsi, %r14
	movq	%rdi, %rbx
	callq	get_rand
	cmpl	$0, %eax
	jne	.LBB47_9
# %bb.1:                                # %func_compute_colocated.17
	movq	%rbx, %rdi
	movq	%r14, %rsi
	callq	compute_colocated.17
	popq	%rbx
	popq	%r14
	popq	%rbp
	.cfi_def_cfa %rsp, 8
	retq
.LBB47_2:                               # %func_compute_colocated.29
	.cfi_def_cfa %rbp, 16
	movq	%rbx, %rdi
	movq	%r14, %rsi
	callq	compute_colocated.29
	popq	%rbx
	popq	%r14
	popq	%rbp
	.cfi_def_cfa %rsp, 8
	retq
.LBB47_3:                               # %func_compute_colocated.44
	.cfi_def_cfa %rbp, 16
	movq	%rbx, %rdi
	movq	%r14, %rsi
	callq	compute_colocated.44
	popq	%rbx
	popq	%r14
	popq	%rbp
	.cfi_def_cfa %rsp, 8
	retq
.LBB47_4:                               # %func_compute_colocated.56
	.cfi_def_cfa %rbp, 16
	movq	%rbx, %rdi
	movq	%r14, %rsi
	callq	compute_colocated.56
	popq	%rbx
	popq	%r14
	popq	%rbp
	.cfi_def_cfa %rsp, 8
	retq
.LBB47_5:                               # %func_compute_colocated.234
	.cfi_def_cfa %rbp, 16
	movq	%rbx, %rdi
	movq	%r14, %rsi
	callq	compute_colocated.234
	popq	%rbx
	popq	%r14
	popq	%rbp
	.cfi_def_cfa %rsp, 8
	retq
.LBB47_6:                               # %func_compute_colocated.243
	.cfi_def_cfa %rbp, 16
	movq	%rbx, %rdi
	movq	%r14, %rsi
	callq	compute_colocated.243
	popq	%rbx
	popq	%r14
	popq	%rbp
	.cfi_def_cfa %rsp, 8
	retq
.LBB47_7:                               # %func_compute_colocated.245
	.cfi_def_cfa %rbp, 16
	movq	%rbx, %rdi
	movq	%r14, %rsi
	callq	compute_colocated.245
	popq	%rbx
	popq	%r14
	popq	%rbp
	.cfi_def_cfa %rsp, 8
	retq
.LBB47_8:                               # %func_compute_colocated.257
	.cfi_def_cfa %rbp, 16
	movq	%rbx, %rdi
	movq	%r14, %rsi
	callq	compute_colocated.257
	popq	%rbx
	popq	%r14
	popq	%rbp
	.cfi_def_cfa %rsp, 8
	retq
.LBB47_9:                               # %ctrl0
	.cfi_def_cfa %rbp, 16
	cmpl	$1, %eax
	je	.LBB47_2
# %bb.10:                               # %ctrl1
	cmpl	$2, %eax
	je	.LBB47_3
# %bb.11:                               # %ctrl2
	cmpl	$3, %eax
	je	.LBB47_4
# %bb.12:                               # %ctrl3
	cmpl	$4, %eax
	je	.LBB47_5
# %bb.13:                               # %ctrl4
	cmpl	$5, %eax
	je	.LBB47_6
# %bb.14:                               # %ctrl5
	cmpl	$6, %eax
	je	.LBB47_7
	jmp	.LBB47_8
.Lfunc_end47:
	.size	compute_colocated, .Lfunc_end47-compute_colocated
	.cfi_endproc
                                        # -- End function
	.p2align	4, 0x90         # -- Begin function get_short_term_pic
	.type	get_short_term_pic,@function
get_short_term_pic:                     # @get_short_term_pic
	.cfi_startproc
# %bb.0:                                # %rand_bb
	pushq	%rbp
	.cfi_def_cfa_offset 16
	.cfi_offset %rbp, -16
	movq	%rsp, %rbp
	.cfi_def_cfa_register %rbp
	pushq	%rbx
	pushq	%rax
	.cfi_offset %rbx, -24
	movl	%edi, %ebx
	callq	get_rand
	cmpl	$0, %eax
	jne	.LBB48_7
# %bb.1:                                # %func_get_short_term_pic.41
	movl	%ebx, %edi
	callq	get_short_term_pic.41
	addq	$8, %rsp
	popq	%rbx
	popq	%rbp
	.cfi_def_cfa %rsp, 8
	retq
.LBB48_2:                               # %func_get_short_term_pic.101
	.cfi_def_cfa %rbp, 16
	movl	%ebx, %edi
	callq	get_short_term_pic.101
	addq	$8, %rsp
	popq	%rbx
	popq	%rbp
	.cfi_def_cfa %rsp, 8
	retq
.LBB48_3:                               # %func_get_short_term_pic.121
	.cfi_def_cfa %rbp, 16
	movl	%ebx, %edi
	callq	get_short_term_pic.121
	addq	$8, %rsp
	popq	%rbx
	popq	%rbp
	.cfi_def_cfa %rsp, 8
	retq
.LBB48_4:                               # %func_get_short_term_pic.140
	.cfi_def_cfa %rbp, 16
	movl	%ebx, %edi
	callq	get_short_term_pic.140
	addq	$8, %rsp
	popq	%rbx
	popq	%rbp
	.cfi_def_cfa %rsp, 8
	retq
.LBB48_5:                               # %func_get_short_term_pic.141
	.cfi_def_cfa %rbp, 16
	movl	%ebx, %edi
	callq	get_short_term_pic.141
	addq	$8, %rsp
	popq	%rbx
	popq	%rbp
	.cfi_def_cfa %rsp, 8
	retq
.LBB48_6:                               # %func_get_short_term_pic.264
	.cfi_def_cfa %rbp, 16
	movl	%ebx, %edi
	callq	get_short_term_pic.264
	addq	$8, %rsp
	popq	%rbx
	popq	%rbp
	.cfi_def_cfa %rsp, 8
	retq
.LBB48_7:                               # %ctrl0
	.cfi_def_cfa %rbp, 16
	cmpl	$1, %eax
	je	.LBB48_2
# %bb.8:                                # %ctrl1
	cmpl	$2, %eax
	je	.LBB48_3
# %bb.9:                                # %ctrl2
	cmpl	$3, %eax
	je	.LBB48_4
# %bb.10:                               # %ctrl3
	cmpl	$4, %eax
	je	.LBB48_5
	jmp	.LBB48_6
.Lfunc_end48:
	.size	get_short_term_pic, .Lfunc_end48-get_short_term_pic
	.cfi_endproc
                                        # -- End function
	.p2align	4, 0x90         # -- Begin function get_long_term_pic
	.type	get_long_term_pic,@function
get_long_term_pic:                      # @get_long_term_pic
	.cfi_startproc
# %bb.0:                                # %rand_bb
	pushq	%rbp
	.cfi_def_cfa_offset 16
	.cfi_offset %rbp, -16
	movq	%rsp, %rbp
	.cfi_def_cfa_register %rbp
	pushq	%rbx
	pushq	%rax
	.cfi_offset %rbx, -24
	movl	%edi, %ebx
	callq	get_rand
	cmpl	$0, %eax
	jne	.LBB49_7
# %bb.1:                                # %func_get_long_term_pic.55
	movl	%ebx, %edi
	callq	get_long_term_pic.55
	addq	$8, %rsp
	popq	%rbx
	popq	%rbp
	.cfi_def_cfa %rsp, 8
	retq
.LBB49_2:                               # %func_get_long_term_pic.111
	.cfi_def_cfa %rbp, 16
	movl	%ebx, %edi
	callq	get_long_term_pic.111
	addq	$8, %rsp
	popq	%rbx
	popq	%rbp
	.cfi_def_cfa %rsp, 8
	retq
.LBB49_3:                               # %func_get_long_term_pic.131
	.cfi_def_cfa %rbp, 16
	movl	%ebx, %edi
	callq	get_long_term_pic.131
	addq	$8, %rsp
	popq	%rbx
	popq	%rbp
	.cfi_def_cfa %rsp, 8
	retq
.LBB49_4:                               # %func_get_long_term_pic.160
	.cfi_def_cfa %rbp, 16
	movl	%ebx, %edi
	callq	get_long_term_pic.160
	addq	$8, %rsp
	popq	%rbx
	popq	%rbp
	.cfi_def_cfa %rsp, 8
	retq
.LBB49_5:                               # %func_get_long_term_pic.181
	.cfi_def_cfa %rbp, 16
	movl	%ebx, %edi
	callq	get_long_term_pic.181
	addq	$8, %rsp
	popq	%rbx
	popq	%rbp
	.cfi_def_cfa %rsp, 8
	retq
.LBB49_6:                               # %func_get_long_term_pic.187
	.cfi_def_cfa %rbp, 16
	movl	%ebx, %edi
	callq	get_long_term_pic.187
	addq	$8, %rsp
	popq	%rbx
	popq	%rbp
	.cfi_def_cfa %rsp, 8
	retq
.LBB49_7:                               # %ctrl0
	.cfi_def_cfa %rbp, 16
	cmpl	$1, %eax
	je	.LBB49_2
# %bb.8:                                # %ctrl1
	cmpl	$2, %eax
	je	.LBB49_3
# %bb.9:                                # %ctrl2
	cmpl	$3, %eax
	je	.LBB49_4
# %bb.10:                               # %ctrl3
	cmpl	$4, %eax
	je	.LBB49_5
	jmp	.LBB49_6
.Lfunc_end49:
	.size	get_long_term_pic, .Lfunc_end49-get_long_term_pic
	.cfi_endproc
                                        # -- End function
	.p2align	4, 0x90         # -- Begin function mm_unmark_short_term_for_reference
	.type	mm_unmark_short_term_for_reference,@function
mm_unmark_short_term_for_reference:     # @mm_unmark_short_term_for_reference
	.cfi_startproc
# %bb.0:                                # %rand_bb
	pushq	%rbp
	.cfi_def_cfa_offset 16
	.cfi_offset %rbp, -16
	movq	%rsp, %rbp
	.cfi_def_cfa_register %rbp
	pushq	%r14
	pushq	%rbx
	.cfi_offset %rbx, -32
	.cfi_offset %r14, -24
	movl	%esi, %r14d
	movq	%rdi, %rbx
	callq	get_rand
	cmpl	$0, %eax
	jne	.LBB50_9
# %bb.1:                                # %func_mm_unmark_short_term_for_reference.34
	movq	%rbx, %rdi
	movl	%r14d, %esi
	callq	mm_unmark_short_term_for_reference.34
	popq	%rbx
	popq	%r14
	popq	%rbp
	.cfi_def_cfa %rsp, 8
	retq
.LBB50_2:                               # %func_mm_unmark_short_term_for_reference.36
	.cfi_def_cfa %rbp, 16
	movq	%rbx, %rdi
	movl	%r14d, %esi
	callq	mm_unmark_short_term_for_reference.36
	popq	%rbx
	popq	%r14
	popq	%rbp
	.cfi_def_cfa %rsp, 8
	retq
.LBB50_3:                               # %func_mm_unmark_short_term_for_reference.126
	.cfi_def_cfa %rbp, 16
	movq	%rbx, %rdi
	movl	%r14d, %esi
	callq	mm_unmark_short_term_for_reference.126
	popq	%rbx
	popq	%r14
	popq	%rbp
	.cfi_def_cfa %rsp, 8
	retq
.LBB50_4:                               # %func_mm_unmark_short_term_for_reference.130
	.cfi_def_cfa %rbp, 16
	movq	%rbx, %rdi
	movl	%r14d, %esi
	callq	mm_unmark_short_term_for_reference.130
	popq	%rbx
	popq	%r14
	popq	%rbp
	.cfi_def_cfa %rsp, 8
	retq
.LBB50_5:                               # %func_mm_unmark_short_term_for_reference.176
	.cfi_def_cfa %rbp, 16
	movq	%rbx, %rdi
	movl	%r14d, %esi
	callq	mm_unmark_short_term_for_reference.176
	popq	%rbx
	popq	%r14
	popq	%rbp
	.cfi_def_cfa %rsp, 8
	retq
.LBB50_6:                               # %func_mm_unmark_short_term_for_reference.201
	.cfi_def_cfa %rbp, 16
	movq	%rbx, %rdi
	movl	%r14d, %esi
	callq	mm_unmark_short_term_for_reference.201
	popq	%rbx
	popq	%r14
	popq	%rbp
	.cfi_def_cfa %rsp, 8
	retq
.LBB50_7:                               # %func_mm_unmark_short_term_for_reference.211
	.cfi_def_cfa %rbp, 16
	movq	%rbx, %rdi
	movl	%r14d, %esi
	callq	mm_unmark_short_term_for_reference.211
	popq	%rbx
	popq	%r14
	popq	%rbp
	.cfi_def_cfa %rsp, 8
	retq
.LBB50_8:                               # %func_mm_unmark_short_term_for_reference.227
	.cfi_def_cfa %rbp, 16
	movq	%rbx, %rdi
	movl	%r14d, %esi
	callq	mm_unmark_short_term_for_reference.227
	popq	%rbx
	popq	%r14
	popq	%rbp
	.cfi_def_cfa %rsp, 8
	retq
.LBB50_9:                               # %ctrl0
	.cfi_def_cfa %rbp, 16
	cmpl	$1, %eax
	je	.LBB50_2
# %bb.10:                               # %ctrl1
	cmpl	$2, %eax
	je	.LBB50_3
# %bb.11:                               # %ctrl2
	cmpl	$3, %eax
	je	.LBB50_4
# %bb.12:                               # %ctrl3
	cmpl	$4, %eax
	je	.LBB50_5
# %bb.13:                               # %ctrl4
	cmpl	$5, %eax
	je	.LBB50_6
# %bb.14:                               # %ctrl5
	cmpl	$6, %eax
	je	.LBB50_7
	jmp	.LBB50_8
.Lfunc_end50:
	.size	mm_unmark_short_term_for_reference, .Lfunc_end50-mm_unmark_short_term_for_reference
	.cfi_endproc
                                        # -- End function
	.p2align	4, 0x90         # -- Begin function mm_unmark_long_term_for_reference
	.type	mm_unmark_long_term_for_reference,@function
mm_unmark_long_term_for_reference:      # @mm_unmark_long_term_for_reference
	.cfi_startproc
# %bb.0:                                # %rand_bb
	pushq	%rbp
	.cfi_def_cfa_offset 16
	.cfi_offset %rbp, -16
	movq	%rsp, %rbp
	.cfi_def_cfa_register %rbp
	pushq	%r14
	pushq	%rbx
	.cfi_offset %rbx, -32
	.cfi_offset %r14, -24
	movl	%esi, %r14d
	movq	%rdi, %rbx
	callq	get_rand
	cmpl	$0, %eax
	jne	.LBB51_7
# %bb.1:                                # %func_mm_unmark_long_term_for_reference.37
	movq	%rbx, %rdi
	movl	%r14d, %esi
	callq	mm_unmark_long_term_for_reference.37
	popq	%rbx
	popq	%r14
	popq	%rbp
	.cfi_def_cfa %rsp, 8
	retq
.LBB51_2:                               # %func_mm_unmark_long_term_for_reference.42
	.cfi_def_cfa %rbp, 16
	movq	%rbx, %rdi
	movl	%r14d, %esi
	callq	mm_unmark_long_term_for_reference.42
	popq	%rbx
	popq	%r14
	popq	%rbp
	.cfi_def_cfa %rsp, 8
	retq
.LBB51_3:                               # %func_mm_unmark_long_term_for_reference.83
	.cfi_def_cfa %rbp, 16
	movq	%rbx, %rdi
	movl	%r14d, %esi
	callq	mm_unmark_long_term_for_reference.83
	popq	%rbx
	popq	%r14
	popq	%rbp
	.cfi_def_cfa %rsp, 8
	retq
.LBB51_4:                               # %func_mm_unmark_long_term_for_reference.143
	.cfi_def_cfa %rbp, 16
	movq	%rbx, %rdi
	movl	%r14d, %esi
	callq	mm_unmark_long_term_for_reference.143
	popq	%rbx
	popq	%r14
	popq	%rbp
	.cfi_def_cfa %rsp, 8
	retq
.LBB51_5:                               # %func_mm_unmark_long_term_for_reference.148
	.cfi_def_cfa %rbp, 16
	movq	%rbx, %rdi
	movl	%r14d, %esi
	callq	mm_unmark_long_term_for_reference.148
	popq	%rbx
	popq	%r14
	popq	%rbp
	.cfi_def_cfa %rsp, 8
	retq
.LBB51_6:                               # %func_mm_unmark_long_term_for_reference.167
	.cfi_def_cfa %rbp, 16
	movq	%rbx, %rdi
	movl	%r14d, %esi
	callq	mm_unmark_long_term_for_reference.167
	popq	%rbx
	popq	%r14
	popq	%rbp
	.cfi_def_cfa %rsp, 8
	retq
.LBB51_7:                               # %ctrl0
	.cfi_def_cfa %rbp, 16
	cmpl	$1, %eax
	je	.LBB51_2
# %bb.8:                                # %ctrl1
	cmpl	$2, %eax
	je	.LBB51_3
# %bb.9:                                # %ctrl2
	cmpl	$3, %eax
	je	.LBB51_4
# %bb.10:                               # %ctrl3
	cmpl	$4, %eax
	je	.LBB51_5
	jmp	.LBB51_6
.Lfunc_end51:
	.size	mm_unmark_long_term_for_reference, .Lfunc_end51-mm_unmark_long_term_for_reference
	.cfi_endproc
                                        # -- End function
	.p2align	4, 0x90         # -- Begin function mm_assign_long_term_frame_idx
	.type	mm_assign_long_term_frame_idx,@function
mm_assign_long_term_frame_idx:          # @mm_assign_long_term_frame_idx
	.cfi_startproc
# %bb.0:                                # %rand_bb
	pushq	%rbp
	.cfi_def_cfa_offset 16
	.cfi_offset %rbp, -16
	movq	%rsp, %rbp
	.cfi_def_cfa_register %rbp
	pushq	%r15
	pushq	%r14
	pushq	%rbx
	pushq	%rax
	.cfi_offset %rbx, -40
	.cfi_offset %r14, -32
	.cfi_offset %r15, -24
	movl	%edx, %r14d
	movl	%esi, %r15d
	movq	%rdi, %rbx
	callq	get_rand
	cmpl	$0, %eax
	jne	.LBB52_9
# %bb.1:                                # %func_mm_assign_long_term_frame_idx.7
	movq	%rbx, %rdi
	movl	%r15d, %esi
	movl	%r14d, %edx
	callq	mm_assign_long_term_frame_idx.7
	addq	$8, %rsp
	popq	%rbx
	popq	%r14
	popq	%r15
	popq	%rbp
	.cfi_def_cfa %rsp, 8
	retq
.LBB52_2:                               # %func_mm_assign_long_term_frame_idx.99
	.cfi_def_cfa %rbp, 16
	movq	%rbx, %rdi
	movl	%r15d, %esi
	movl	%r14d, %edx
	callq	mm_assign_long_term_frame_idx.99
	addq	$8, %rsp
	popq	%rbx
	popq	%r14
	popq	%r15
	popq	%rbp
	.cfi_def_cfa %rsp, 8
	retq
.LBB52_3:                               # %func_mm_assign_long_term_frame_idx.104
	.cfi_def_cfa %rbp, 16
	movq	%rbx, %rdi
	movl	%r15d, %esi
	movl	%r14d, %edx
	callq	mm_assign_long_term_frame_idx.104
	addq	$8, %rsp
	popq	%rbx
	popq	%r14
	popq	%r15
	popq	%rbp
	.cfi_def_cfa %rsp, 8
	retq
.LBB52_4:                               # %func_mm_assign_long_term_frame_idx.118
	.cfi_def_cfa %rbp, 16
	movq	%rbx, %rdi
	movl	%r15d, %esi
	movl	%r14d, %edx
	callq	mm_assign_long_term_frame_idx.118
	addq	$8, %rsp
	popq	%rbx
	popq	%r14
	popq	%r15
	popq	%rbp
	.cfi_def_cfa %rsp, 8
	retq
.LBB52_5:                               # %func_mm_assign_long_term_frame_idx.122
	.cfi_def_cfa %rbp, 16
	movq	%rbx, %rdi
	movl	%r15d, %esi
	movl	%r14d, %edx
	callq	mm_assign_long_term_frame_idx.122
	addq	$8, %rsp
	popq	%rbx
	popq	%r14
	popq	%r15
	popq	%rbp
	.cfi_def_cfa %rsp, 8
	retq
.LBB52_6:                               # %func_mm_assign_long_term_frame_idx.136
	.cfi_def_cfa %rbp, 16
	movq	%rbx, %rdi
	movl	%r15d, %esi
	movl	%r14d, %edx
	callq	mm_assign_long_term_frame_idx.136
	addq	$8, %rsp
	popq	%rbx
	popq	%r14
	popq	%r15
	popq	%rbp
	.cfi_def_cfa %rsp, 8
	retq
.LBB52_7:                               # %func_mm_assign_long_term_frame_idx.139
	.cfi_def_cfa %rbp, 16
	movq	%rbx, %rdi
	movl	%r15d, %esi
	movl	%r14d, %edx
	callq	mm_assign_long_term_frame_idx.139
	addq	$8, %rsp
	popq	%rbx
	popq	%r14
	popq	%r15
	popq	%rbp
	.cfi_def_cfa %rsp, 8
	retq
.LBB52_8:                               # %func_mm_assign_long_term_frame_idx.159
	.cfi_def_cfa %rbp, 16
	movq	%rbx, %rdi
	movl	%r15d, %esi
	movl	%r14d, %edx
	callq	mm_assign_long_term_frame_idx.159
	addq	$8, %rsp
	popq	%rbx
	popq	%r14
	popq	%r15
	popq	%rbp
	.cfi_def_cfa %rsp, 8
	retq
.LBB52_9:                               # %ctrl0
	.cfi_def_cfa %rbp, 16
	cmpl	$1, %eax
	je	.LBB52_2
# %bb.10:                               # %ctrl1
	cmpl	$2, %eax
	je	.LBB52_3
# %bb.11:                               # %ctrl2
	cmpl	$3, %eax
	je	.LBB52_4
# %bb.12:                               # %ctrl3
	cmpl	$4, %eax
	je	.LBB52_5
# %bb.13:                               # %ctrl4
	cmpl	$5, %eax
	je	.LBB52_6
# %bb.14:                               # %ctrl5
	cmpl	$6, %eax
	je	.LBB52_7
	jmp	.LBB52_8
.Lfunc_end52:
	.size	mm_assign_long_term_frame_idx, .Lfunc_end52-mm_assign_long_term_frame_idx
	.cfi_endproc
                                        # -- End function
	.p2align	4, 0x90         # -- Begin function mm_mark_current_picture_long_term
	.type	mm_mark_current_picture_long_term,@function
mm_mark_current_picture_long_term:      # @mm_mark_current_picture_long_term
	.cfi_startproc
# %bb.0:                                # %rand_bb
	pushq	%rbp
	.cfi_def_cfa_offset 16
	.cfi_offset %rbp, -16
	movq	%rsp, %rbp
	.cfi_def_cfa_register %rbp
	pushq	%r14
	pushq	%rbx
	.cfi_offset %rbx, -32
	.cfi_offset %r14, -24
	movl	%esi, %r14d
	movq	%rdi, %rbx
	callq	get_rand
	cmpl	$0, %eax
	jne	.LBB53_2
# %bb.1:                                # %func_mm_mark_current_picture_long_term.5
	movq	%rbx, %rdi
	movl	%r14d, %esi
	callq	mm_mark_current_picture_long_term.5
	popq	%rbx
	popq	%r14
	popq	%rbp
	.cfi_def_cfa %rsp, 8
	retq
.LBB53_2:                               # %func_mm_mark_current_picture_long_term.51
	.cfi_def_cfa %rbp, 16
	movq	%rbx, %rdi
	movl	%r14d, %esi
	callq	mm_mark_current_picture_long_term.51
	popq	%rbx
	popq	%r14
	popq	%rbp
	.cfi_def_cfa %rsp, 8
	retq
.Lfunc_end53:
	.size	mm_mark_current_picture_long_term, .Lfunc_end53-mm_mark_current_picture_long_term
	.cfi_endproc
                                        # -- End function
	.p2align	4, 0x90         # -- Begin function get_pic_num_x
	.type	get_pic_num_x,@function
get_pic_num_x:                          # @get_pic_num_x
	.cfi_startproc
# %bb.0:                                # %rand_bb
	pushq	%rbp
	.cfi_def_cfa_offset 16
	.cfi_offset %rbp, -16
	movq	%rsp, %rbp
	.cfi_def_cfa_register %rbp
	pushq	%r14
	pushq	%rbx
	.cfi_offset %rbx, -32
	.cfi_offset %r14, -24
	movl	%esi, %r14d
	movq	%rdi, %rbx
	callq	get_rand
	cmpl	$0, %eax
	jne	.LBB54_7
# %bb.1:                                # %func_get_pic_num_x.75
	movq	%rbx, %rdi
	movl	%r14d, %esi
	callq	get_pic_num_x.75
	popq	%rbx
	popq	%r14
	popq	%rbp
	.cfi_def_cfa %rsp, 8
	retq
.LBB54_2:                               # %func_get_pic_num_x.109
	.cfi_def_cfa %rbp, 16
	movq	%rbx, %rdi
	movl	%r14d, %esi
	callq	get_pic_num_x.109
	popq	%rbx
	popq	%r14
	popq	%rbp
	.cfi_def_cfa %rsp, 8
	retq
.LBB54_3:                               # %func_get_pic_num_x.152
	.cfi_def_cfa %rbp, 16
	movq	%rbx, %rdi
	movl	%r14d, %esi
	callq	get_pic_num_x.152
	popq	%rbx
	popq	%r14
	popq	%rbp
	.cfi_def_cfa %rsp, 8
	retq
.LBB54_4:                               # %func_get_pic_num_x.169
	.cfi_def_cfa %rbp, 16
	movq	%rbx, %rdi
	movl	%r14d, %esi
	callq	get_pic_num_x.169
	popq	%rbx
	popq	%r14
	popq	%rbp
	.cfi_def_cfa %rsp, 8
	retq
.LBB54_5:                               # %func_get_pic_num_x.183
	.cfi_def_cfa %rbp, 16
	movq	%rbx, %rdi
	movl	%r14d, %esi
	callq	get_pic_num_x.183
	popq	%rbx
	popq	%r14
	popq	%rbp
	.cfi_def_cfa %rsp, 8
	retq
.LBB54_6:                               # %func_get_pic_num_x.223
	.cfi_def_cfa %rbp, 16
	movq	%rbx, %rdi
	movl	%r14d, %esi
	callq	get_pic_num_x.223
	popq	%rbx
	popq	%r14
	popq	%rbp
	.cfi_def_cfa %rsp, 8
	retq
.LBB54_7:                               # %ctrl0
	.cfi_def_cfa %rbp, 16
	cmpl	$1, %eax
	je	.LBB54_2
# %bb.8:                                # %ctrl1
	cmpl	$2, %eax
	je	.LBB54_3
# %bb.9:                                # %ctrl2
	cmpl	$3, %eax
	je	.LBB54_4
# %bb.10:                               # %ctrl3
	cmpl	$4, %eax
	je	.LBB54_5
	jmp	.LBB54_6
.Lfunc_end54:
	.size	get_pic_num_x, .Lfunc_end54-get_pic_num_x
	.cfi_endproc
                                        # -- End function
	.p2align	4, 0x90         # -- Begin function unmark_long_term_frame_for_reference_by_frame_idx
	.type	unmark_long_term_frame_for_reference_by_frame_idx,@function
unmark_long_term_frame_for_reference_by_frame_idx: # @unmark_long_term_frame_for_reference_by_frame_idx
	.cfi_startproc
# %bb.0:                                # %rand_bb
	pushq	%rbp
	.cfi_def_cfa_offset 16
	.cfi_offset %rbp, -16
	movq	%rsp, %rbp
	.cfi_def_cfa_register %rbp
	pushq	%rbx
	pushq	%rax
	.cfi_offset %rbx, -24
	movl	%edi, %ebx
	callq	get_rand
	cmpl	$0, %eax
	jne	.LBB55_2
# %bb.1:                                # %func_unmark_long_term_frame_for_reference_by_frame_idx.1
	movl	%ebx, %edi
	callq	unmark_long_term_frame_for_reference_by_frame_idx.1
	addq	$8, %rsp
	popq	%rbx
	popq	%rbp
	.cfi_def_cfa %rsp, 8
	retq
.LBB55_2:                               # %func_unmark_long_term_frame_for_reference_by_frame_idx.70
	.cfi_def_cfa %rbp, 16
	movl	%ebx, %edi
	callq	unmark_long_term_frame_for_reference_by_frame_idx.70
	addq	$8, %rsp
	popq	%rbx
	popq	%rbp
	.cfi_def_cfa %rsp, 8
	retq
.Lfunc_end55:
	.size	unmark_long_term_frame_for_reference_by_frame_idx, .Lfunc_end55-unmark_long_term_frame_for_reference_by_frame_idx
	.cfi_endproc
                                        # -- End function
	.p2align	4, 0x90         # -- Begin function unmark_long_term_field_for_reference_by_frame_idx
	.type	unmark_long_term_field_for_reference_by_frame_idx,@function
unmark_long_term_field_for_reference_by_frame_idx: # @unmark_long_term_field_for_reference_by_frame_idx
	.cfi_startproc
# %bb.0:                                # %rand_bb
	pushq	%rbp
	.cfi_def_cfa_offset 16
	.cfi_offset %rbp, -16
	movq	%rsp, %rbp
	.cfi_def_cfa_register %rbp
	pushq	%r15
	pushq	%r14
	pushq	%r13
	pushq	%r12
	pushq	%rbx
	pushq	%rax
	.cfi_offset %rbx, -56
	.cfi_offset %r12, -48
	.cfi_offset %r13, -40
	.cfi_offset %r14, -32
	.cfi_offset %r15, -24
	movl	%r8d, %r14d
	movl	%ecx, %r15d
	movl	%edx, %r12d
	movl	%esi, %r13d
	movl	%edi, %ebx
	callq	get_rand
	cmpl	$0, %eax
	jne	.LBB56_9
# %bb.1:                                # %func_unmark_long_term_field_for_reference_by_frame_idx.116
	movl	%ebx, %edi
	movl	%r13d, %esi
	movl	%r12d, %edx
	movl	%r15d, %ecx
	movl	%r14d, %r8d
	callq	unmark_long_term_field_for_reference_by_frame_idx.116
	addq	$8, %rsp
	popq	%rbx
	popq	%r12
	popq	%r13
	popq	%r14
	popq	%r15
	popq	%rbp
	.cfi_def_cfa %rsp, 8
	retq
.LBB56_2:                               # %func_unmark_long_term_field_for_reference_by_frame_idx.137
	.cfi_def_cfa %rbp, 16
	movl	%ebx, %edi
	movl	%r13d, %esi
	movl	%r12d, %edx
	movl	%r15d, %ecx
	movl	%r14d, %r8d
	callq	unmark_long_term_field_for_reference_by_frame_idx.137
	addq	$8, %rsp
	popq	%rbx
	popq	%r12
	popq	%r13
	popq	%r14
	popq	%r15
	popq	%rbp
	.cfi_def_cfa %rsp, 8
	retq
.LBB56_3:                               # %func_unmark_long_term_field_for_reference_by_frame_idx.189
	.cfi_def_cfa %rbp, 16
	movl	%ebx, %edi
	movl	%r13d, %esi
	movl	%r12d, %edx
	movl	%r15d, %ecx
	movl	%r14d, %r8d
	callq	unmark_long_term_field_for_reference_by_frame_idx.189
	addq	$8, %rsp
	popq	%rbx
	popq	%r12
	popq	%r13
	popq	%r14
	popq	%r15
	popq	%rbp
	.cfi_def_cfa %rsp, 8
	retq
.LBB56_4:                               # %func_unmark_long_term_field_for_reference_by_frame_idx.214
	.cfi_def_cfa %rbp, 16
	movl	%ebx, %edi
	movl	%r13d, %esi
	movl	%r12d, %edx
	movl	%r15d, %ecx
	movl	%r14d, %r8d
	callq	unmark_long_term_field_for_reference_by_frame_idx.214
	addq	$8, %rsp
	popq	%rbx
	popq	%r12
	popq	%r13
	popq	%r14
	popq	%r15
	popq	%rbp
	.cfi_def_cfa %rsp, 8
	retq
.LBB56_5:                               # %func_unmark_long_term_field_for_reference_by_frame_idx.231
	.cfi_def_cfa %rbp, 16
	movl	%ebx, %edi
	movl	%r13d, %esi
	movl	%r12d, %edx
	movl	%r15d, %ecx
	movl	%r14d, %r8d
	callq	unmark_long_term_field_for_reference_by_frame_idx.231
	addq	$8, %rsp
	popq	%rbx
	popq	%r12
	popq	%r13
	popq	%r14
	popq	%r15
	popq	%rbp
	.cfi_def_cfa %rsp, 8
	retq
.LBB56_6:                               # %func_unmark_long_term_field_for_reference_by_frame_idx.235
	.cfi_def_cfa %rbp, 16
	movl	%ebx, %edi
	movl	%r13d, %esi
	movl	%r12d, %edx
	movl	%r15d, %ecx
	movl	%r14d, %r8d
	callq	unmark_long_term_field_for_reference_by_frame_idx.235
	addq	$8, %rsp
	popq	%rbx
	popq	%r12
	popq	%r13
	popq	%r14
	popq	%r15
	popq	%rbp
	.cfi_def_cfa %rsp, 8
	retq
.LBB56_7:                               # %func_unmark_long_term_field_for_reference_by_frame_idx.238
	.cfi_def_cfa %rbp, 16
	movl	%ebx, %edi
	movl	%r13d, %esi
	movl	%r12d, %edx
	movl	%r15d, %ecx
	movl	%r14d, %r8d
	callq	unmark_long_term_field_for_reference_by_frame_idx.238
	addq	$8, %rsp
	popq	%rbx
	popq	%r12
	popq	%r13
	popq	%r14
	popq	%r15
	popq	%rbp
	.cfi_def_cfa %rsp, 8
	retq
.LBB56_8:                               # %func_unmark_long_term_field_for_reference_by_frame_idx.258
	.cfi_def_cfa %rbp, 16
	movl	%ebx, %edi
	movl	%r13d, %esi
	movl	%r12d, %edx
	movl	%r15d, %ecx
	movl	%r14d, %r8d
	callq	unmark_long_term_field_for_reference_by_frame_idx.258
	addq	$8, %rsp
	popq	%rbx
	popq	%r12
	popq	%r13
	popq	%r14
	popq	%r15
	popq	%rbp
	.cfi_def_cfa %rsp, 8
	retq
.LBB56_9:                               # %ctrl0
	.cfi_def_cfa %rbp, 16
	cmpl	$1, %eax
	je	.LBB56_2
# %bb.10:                               # %ctrl1
	cmpl	$2, %eax
	je	.LBB56_3
# %bb.11:                               # %ctrl2
	cmpl	$3, %eax
	je	.LBB56_4
# %bb.12:                               # %ctrl3
	cmpl	$4, %eax
	je	.LBB56_5
# %bb.13:                               # %ctrl4
	cmpl	$5, %eax
	je	.LBB56_6
# %bb.14:                               # %ctrl5
	cmpl	$6, %eax
	je	.LBB56_7
	jmp	.LBB56_8
.Lfunc_end56:
	.size	unmark_long_term_field_for_reference_by_frame_idx, .Lfunc_end56-unmark_long_term_field_for_reference_by_frame_idx
	.cfi_endproc
                                        # -- End function
	.p2align	4, 0x90         # -- Begin function mark_pic_long_term
	.type	mark_pic_long_term,@function
mark_pic_long_term:                     # @mark_pic_long_term
	.cfi_startproc
# %bb.0:                                # %rand_bb
	pushq	%rbp
	.cfi_def_cfa_offset 16
	.cfi_offset %rbp, -16
	movq	%rsp, %rbp
	.cfi_def_cfa_register %rbp
	pushq	%r15
	pushq	%r14
	pushq	%rbx
	pushq	%rax
	.cfi_offset %rbx, -40
	.cfi_offset %r14, -32
	.cfi_offset %r15, -24
	movl	%edx, %r14d
	movl	%esi, %r15d
	movq	%rdi, %rbx
	callq	get_rand
	cmpl	$0, %eax
	jne	.LBB57_9
# %bb.1:                                # %func_mark_pic_long_term.33
	movq	%rbx, %rdi
	movl	%r15d, %esi
	movl	%r14d, %edx
	callq	mark_pic_long_term.33
	addq	$8, %rsp
	popq	%rbx
	popq	%r14
	popq	%r15
	popq	%rbp
	.cfi_def_cfa %rsp, 8
	retq
.LBB57_2:                               # %func_mark_pic_long_term.125
	.cfi_def_cfa %rbp, 16
	movq	%rbx, %rdi
	movl	%r15d, %esi
	movl	%r14d, %edx
	callq	mark_pic_long_term.125
	addq	$8, %rsp
	popq	%rbx
	popq	%r14
	popq	%r15
	popq	%rbp
	.cfi_def_cfa %rsp, 8
	retq
.LBB57_3:                               # %func_mark_pic_long_term.127
	.cfi_def_cfa %rbp, 16
	movq	%rbx, %rdi
	movl	%r15d, %esi
	movl	%r14d, %edx
	callq	mark_pic_long_term.127
	addq	$8, %rsp
	popq	%rbx
	popq	%r14
	popq	%r15
	popq	%rbp
	.cfi_def_cfa %rsp, 8
	retq
.LBB57_4:                               # %func_mark_pic_long_term.157
	.cfi_def_cfa %rbp, 16
	movq	%rbx, %rdi
	movl	%r15d, %esi
	movl	%r14d, %edx
	callq	mark_pic_long_term.157
	addq	$8, %rsp
	popq	%rbx
	popq	%r14
	popq	%r15
	popq	%rbp
	.cfi_def_cfa %rsp, 8
	retq
.LBB57_5:                               # %func_mark_pic_long_term.158
	.cfi_def_cfa %rbp, 16
	movq	%rbx, %rdi
	movl	%r15d, %esi
	movl	%r14d, %edx
	callq	mark_pic_long_term.158
	addq	$8, %rsp
	popq	%rbx
	popq	%r14
	popq	%r15
	popq	%rbp
	.cfi_def_cfa %rsp, 8
	retq
.LBB57_6:                               # %func_mark_pic_long_term.239
	.cfi_def_cfa %rbp, 16
	movq	%rbx, %rdi
	movl	%r15d, %esi
	movl	%r14d, %edx
	callq	mark_pic_long_term.239
	addq	$8, %rsp
	popq	%rbx
	popq	%r14
	popq	%r15
	popq	%rbp
	.cfi_def_cfa %rsp, 8
	retq
.LBB57_7:                               # %func_mark_pic_long_term.248
	.cfi_def_cfa %rbp, 16
	movq	%rbx, %rdi
	movl	%r15d, %esi
	movl	%r14d, %edx
	callq	mark_pic_long_term.248
	addq	$8, %rsp
	popq	%rbx
	popq	%r14
	popq	%r15
	popq	%rbp
	.cfi_def_cfa %rsp, 8
	retq
.LBB57_8:                               # %func_mark_pic_long_term.249
	.cfi_def_cfa %rbp, 16
	movq	%rbx, %rdi
	movl	%r15d, %esi
	movl	%r14d, %edx
	callq	mark_pic_long_term.249
	addq	$8, %rsp
	popq	%rbx
	popq	%r14
	popq	%r15
	popq	%rbp
	.cfi_def_cfa %rsp, 8
	retq
.LBB57_9:                               # %ctrl0
	.cfi_def_cfa %rbp, 16
	cmpl	$1, %eax
	je	.LBB57_2
# %bb.10:                               # %ctrl1
	cmpl	$2, %eax
	je	.LBB57_3
# %bb.11:                               # %ctrl2
	cmpl	$3, %eax
	je	.LBB57_4
# %bb.12:                               # %ctrl3
	cmpl	$4, %eax
	je	.LBB57_5
# %bb.13:                               # %ctrl4
	cmpl	$5, %eax
	je	.LBB57_6
# %bb.14:                               # %ctrl5
	cmpl	$6, %eax
	je	.LBB57_7
	jmp	.LBB57_8
.Lfunc_end57:
	.size	mark_pic_long_term, .Lfunc_end57-mark_pic_long_term
	.cfi_endproc
                                        # -- End function
	.p2align	4, 0x90         # -- Begin function mm_unmark_all_short_term_for_reference
	.type	mm_unmark_all_short_term_for_reference,@function
mm_unmark_all_short_term_for_reference: # @mm_unmark_all_short_term_for_reference
	.cfi_startproc
# %bb.0:                                # %entry
	pushq	%rbp
	.cfi_def_cfa_offset 16
	.cfi_offset %rbp, -16
	movq	%rsp, %rbp
	.cfi_def_cfa_register %rbp
	subq	$16, %rsp
	movl	$0, -4(%rbp)
.LBB58_1:                               # %for.cond
                                        # =>This Inner Loop Header: Depth=1
	movl	-4(%rbp), %eax
	cmpl	dpb+32, %eax
	jae	.LBB58_4
# %bb.2:                                # %for.body
                                        #   in Loop: Header=BB58_1 Depth=1
	movq	dpb+8, %rax
	movl	-4(%rbp), %ecx
	movq	(%rax,%rcx,8), %rdi
	callq	unmark_for_reference
# %bb.3:                                # %for.inc
                                        #   in Loop: Header=BB58_1 Depth=1
	movl	-4(%rbp), %eax
	addl	$1, %eax
	movl	%eax, -4(%rbp)
	jmp	.LBB58_1
.LBB58_4:                               # %for.end
	callq	update_ref_list
	addq	$16, %rsp
	popq	%rbp
	.cfi_def_cfa %rsp, 8
	retq
.Lfunc_end58:
	.size	mm_unmark_all_short_term_for_reference, .Lfunc_end58-mm_unmark_all_short_term_for_reference
	.cfi_endproc
                                        # -- End function
	.p2align	4, 0x90         # -- Begin function mm_unmark_all_long_term_for_reference
	.type	mm_unmark_all_long_term_for_reference,@function
mm_unmark_all_long_term_for_reference:  # @mm_unmark_all_long_term_for_reference
	.cfi_startproc
# %bb.0:                                # %entry
	pushq	%rbp
	.cfi_def_cfa_offset 16
	.cfi_offset %rbp, -16
	movq	%rsp, %rbp
	.cfi_def_cfa_register %rbp
	xorl	%edi, %edi
	callq	mm_update_max_long_term_frame_idx
	popq	%rbp
	.cfi_def_cfa %rsp, 8
	retq
.Lfunc_end59:
	.size	mm_unmark_all_long_term_for_reference, .Lfunc_end59-mm_unmark_all_long_term_for_reference
	.cfi_endproc
                                        # -- End function
	.p2align	4, 0x90         # -- Begin function remove_unused_frame_from_dpb
	.type	remove_unused_frame_from_dpb,@function
remove_unused_frame_from_dpb:           # @remove_unused_frame_from_dpb
	.cfi_startproc
# %bb.0:                                # %rand_bb
	pushq	%rbp
	.cfi_def_cfa_offset 16
	.cfi_offset %rbp, -16
	movq	%rsp, %rbp
	.cfi_def_cfa_register %rbp
	callq	get_rand
	cmpl	$0, %eax
	jne	.LBB60_2
# %bb.1:                                # %func_remove_unused_frame_from_dpb.65
	callq	remove_unused_frame_from_dpb.65
	popq	%rbp
	.cfi_def_cfa %rsp, 8
	retq
.LBB60_2:                               # %func_remove_unused_frame_from_dpb.82
	.cfi_def_cfa %rbp, 16
	callq	remove_unused_frame_from_dpb.82
	popq	%rbp
	.cfi_def_cfa %rsp, 8
	retq
.Lfunc_end60:
	.size	remove_unused_frame_from_dpb, .Lfunc_end60-remove_unused_frame_from_dpb
	.cfi_endproc
                                        # -- End function
	.p2align	4, 0x90         # -- Begin function is_used_for_reference
	.type	is_used_for_reference,@function
is_used_for_reference:                  # @is_used_for_reference
	.cfi_startproc
# %bb.0:                                # %rand_bb
	pushq	%rbp
	.cfi_def_cfa_offset 16
	.cfi_offset %rbp, -16
	movq	%rsp, %rbp
	.cfi_def_cfa_register %rbp
	pushq	%rbx
	pushq	%rax
	.cfi_offset %rbx, -24
	movq	%rdi, %rbx
	callq	get_rand
	cmpl	$0, %eax
	jne	.LBB61_2
# %bb.1:                                # %func_is_used_for_reference.112
	movq	%rbx, %rdi
	callq	is_used_for_reference.112
	addq	$8, %rsp
	popq	%rbx
	popq	%rbp
	.cfi_def_cfa %rsp, 8
	retq
.LBB61_2:                               # %func_is_used_for_reference.191
	.cfi_def_cfa %rbp, 16
	movq	%rbx, %rdi
	callq	is_used_for_reference.191
	addq	$8, %rsp
	popq	%rbx
	popq	%rbp
	.cfi_def_cfa %rsp, 8
	retq
.Lfunc_end61:
	.size	is_used_for_reference, .Lfunc_end61-is_used_for_reference
	.cfi_endproc
                                        # -- End function
	.p2align	4, 0x90         # -- Begin function remove_frame_from_dpb
	.type	remove_frame_from_dpb,@function
remove_frame_from_dpb:                  # @remove_frame_from_dpb
	.cfi_startproc
# %bb.0:                                # %rand_bb
	pushq	%rbp
	.cfi_def_cfa_offset 16
	.cfi_offset %rbp, -16
	movq	%rsp, %rbp
	.cfi_def_cfa_register %rbp
	pushq	%rbx
	pushq	%rax
	.cfi_offset %rbx, -24
	movl	%edi, %ebx
	callq	get_rand
	cmpl	$0, %eax
	jne	.LBB62_9
# %bb.1:                                # %func_remove_frame_from_dpb.40
	movl	%ebx, %edi
	callq	remove_frame_from_dpb.40
	addq	$8, %rsp
	popq	%rbx
	popq	%rbp
	.cfi_def_cfa %rsp, 8
	retq
.LBB62_2:                               # %func_remove_frame_from_dpb.47
	.cfi_def_cfa %rbp, 16
	movl	%ebx, %edi
	callq	remove_frame_from_dpb.47
	addq	$8, %rsp
	popq	%rbx
	popq	%rbp
	.cfi_def_cfa %rsp, 8
	retq
.LBB62_3:                               # %func_remove_frame_from_dpb.172
	.cfi_def_cfa %rbp, 16
	movl	%ebx, %edi
	callq	remove_frame_from_dpb.172
	addq	$8, %rsp
	popq	%rbx
	popq	%rbp
	.cfi_def_cfa %rsp, 8
	retq
.LBB62_4:                               # %func_remove_frame_from_dpb.180
	.cfi_def_cfa %rbp, 16
	movl	%ebx, %edi
	callq	remove_frame_from_dpb.180
	addq	$8, %rsp
	popq	%rbx
	popq	%rbp
	.cfi_def_cfa %rsp, 8
	retq
.LBB62_5:                               # %func_remove_frame_from_dpb.192
	.cfi_def_cfa %rbp, 16
	movl	%ebx, %edi
	callq	remove_frame_from_dpb.192
	addq	$8, %rsp
	popq	%rbx
	popq	%rbp
	.cfi_def_cfa %rsp, 8
	retq
.LBB62_6:                               # %func_remove_frame_from_dpb.193
	.cfi_def_cfa %rbp, 16
	movl	%ebx, %edi
	callq	remove_frame_from_dpb.193
	addq	$8, %rsp
	popq	%rbx
	popq	%rbp
	.cfi_def_cfa %rsp, 8
	retq
.LBB62_7:                               # %func_remove_frame_from_dpb.199
	.cfi_def_cfa %rbp, 16
	movl	%ebx, %edi
	callq	remove_frame_from_dpb.199
	addq	$8, %rsp
	popq	%rbx
	popq	%rbp
	.cfi_def_cfa %rsp, 8
	retq
.LBB62_8:                               # %func_remove_frame_from_dpb.255
	.cfi_def_cfa %rbp, 16
	movl	%ebx, %edi
	callq	remove_frame_from_dpb.255
	addq	$8, %rsp
	popq	%rbx
	popq	%rbp
	.cfi_def_cfa %rsp, 8
	retq
.LBB62_9:                               # %ctrl0
	.cfi_def_cfa %rbp, 16
	cmpl	$1, %eax
	je	.LBB62_2
# %bb.10:                               # %ctrl1
	cmpl	$2, %eax
	je	.LBB62_3
# %bb.11:                               # %ctrl2
	cmpl	$3, %eax
	je	.LBB62_4
# %bb.12:                               # %ctrl3
	cmpl	$4, %eax
	je	.LBB62_5
# %bb.13:                               # %ctrl4
	cmpl	$5, %eax
	je	.LBB62_6
# %bb.14:                               # %ctrl5
	cmpl	$6, %eax
	je	.LBB62_7
	jmp	.LBB62_8
.Lfunc_end62:
	.size	remove_frame_from_dpb, .Lfunc_end62-remove_frame_from_dpb
	.cfi_endproc
                                        # -- End function
	.p2align	4, 0x90         # -- Begin function output_one_frame_from_dpb
	.type	output_one_frame_from_dpb,@function
output_one_frame_from_dpb:              # @output_one_frame_from_dpb
	.cfi_startproc
# %bb.0:                                # %rand_bb
	pushq	%rbp
	.cfi_def_cfa_offset 16
	.cfi_offset %rbp, -16
	movq	%rsp, %rbp
	.cfi_def_cfa_register %rbp
	callq	get_rand
	cmpl	$0, %eax
	jne	.LBB63_2
# %bb.1:                                # %func_output_one_frame_from_dpb.13
	callq	output_one_frame_from_dpb.13
	popq	%rbp
	.cfi_def_cfa %rsp, 8
	retq
.LBB63_2:                               # %func_output_one_frame_from_dpb.134
	.cfi_def_cfa %rbp, 16
	callq	output_one_frame_from_dpb.134
	popq	%rbp
	.cfi_def_cfa %rsp, 8
	retq
.Lfunc_end63:
	.size	output_one_frame_from_dpb, .Lfunc_end63-output_one_frame_from_dpb
	.cfi_endproc
                                        # -- End function
	.p2align	4, 0x90         # -- Begin function unmark_long_term_frame_for_reference_by_frame_idx.1
	.type	unmark_long_term_frame_for_reference_by_frame_idx.1,@function
unmark_long_term_frame_for_reference_by_frame_idx.1: # @unmark_long_term_frame_for_reference_by_frame_idx.1
	.cfi_startproc
# %bb.0:                                # %entry
	pushq	%rbp
	.cfi_def_cfa_offset 16
	.cfi_offset %rbp, -16
	movq	%rsp, %rbp
	.cfi_def_cfa_register %rbp
	subq	$16, %rsp
	movl	$765705777, -12(%rbp)   # imm = 0x2DA3BE31
	movl	%edi, -8(%rbp)
	movl	$0, -4(%rbp)
.LBB64_1:                               # %for.cond
                                        # =>This Inner Loop Header: Depth=1
	movl	-4(%rbp), %eax
	cmpl	dpb+36, %eax
	jae	.LBB64_6
# %bb.2:                                # %for.body
                                        #   in Loop: Header=BB64_1 Depth=1
	movq	dpb+16, %rax
	movl	-4(%rbp), %ecx
	movq	(%rax,%rcx,8), %rax
	movl	28(%rax), %eax
	cmpl	-8(%rbp), %eax
	jne	.LBB64_4
# %bb.3:                                # %if.then
                                        #   in Loop: Header=BB64_1 Depth=1
	movq	dpb+16, %rax
	movl	-4(%rbp), %ecx
	movq	(%rax,%rcx,8), %rdi
	callq	unmark_for_long_term_reference
.LBB64_4:                               # %if.end
                                        #   in Loop: Header=BB64_1 Depth=1
	jmp	.LBB64_5
.LBB64_5:                               # %for.inc
                                        #   in Loop: Header=BB64_1 Depth=1
	movl	-4(%rbp), %eax
	addl	$1, %eax
	movl	%eax, -4(%rbp)
	jmp	.LBB64_1
.LBB64_6:                               # %for.end
	cmpl	$765705777, -12(%rbp)   # imm = 0x2DA3BE31
	jne	.LBB64_8
.LBB64_7:
	addq	$16, %rsp
	popq	%rbp
	.cfi_def_cfa %rsp, 8
	retq
.LBB64_8:                               # %func_exit
	.cfi_def_cfa %rbp, 16
	callq	detect_breach
	jmp	.LBB64_7
.Lfunc_end64:
	.size	unmark_long_term_frame_for_reference_by_frame_idx.1, .Lfunc_end64-unmark_long_term_frame_for_reference_by_frame_idx.1
	.cfi_endproc
                                        # -- End function
	.globl	alloc_colocated.2       # -- Begin function alloc_colocated.2
	.p2align	4, 0x90
	.type	alloc_colocated.2,@function
alloc_colocated.2:                      # @alloc_colocated.2
	.cfi_startproc
# %bb.0:                                # %entry
	pushq	%rbp
	.cfi_def_cfa_offset 16
	.cfi_offset %rbp, -16
	movq	%rsp, %rbp
	.cfi_def_cfa_register %rbp
	pushq	%rbx
	subq	$24, %rsp
	.cfi_offset %rbx, -24
	movl	$584711492, -32(%rbp)   # imm = 0x22D9FD44
	movl	%edi, -16(%rbp)
	movl	%esi, -12(%rbp)
	movl	%edx, -28(%rbp)
	movl	$1, %edi
	movl	$4880, %esi             # imm = 0x1310
	callq	calloc
	xorl	%ecx, %ecx
	movq	%rax, -24(%rbp)
	cmpq	-24(%rbp), %rcx
	jne	.LBB65_2
# %bb.1:                                # %if.then
	movabsq	$.L.str.21, %rdi
	callq	no_mem_exit
.LBB65_2:                               # %if.end
	movl	-16(%rbp), %eax
	movq	-24(%rbp), %rcx
	movl	%eax, 4(%rcx)
	movl	-12(%rbp), %eax
	movq	-24(%rbp), %rcx
	movl	%eax, 8(%rcx)
	movq	-24(%rbp), %rdi
	addq	$1600, %rdi             # imm = 0x640
	movl	-16(%rbp), %eax
	cltd
	movl	$4, %esi
	idivl	%esi
	movl	%eax, %ecx
	movl	-12(%rbp), %eax
	cltd
	idivl	%esi
	movl	$2, %esi
	movl	%ecx, %edx
	movl	%eax, %ecx
	callq	get_mem3Dshort
	movq	-24(%rbp), %rdi
	addq	$1608, %rdi             # imm = 0x648
	movl	-16(%rbp), %eax
	cltd
	movl	$4, %esi
	idivl	%esi
	movl	%eax, %ecx
	movl	-12(%rbp), %eax
	cltd
	idivl	%esi
	movl	$2, %esi
	movl	%ecx, %edx
	movl	%eax, %ecx
	callq	get_mem3Dint64
	movq	-24(%rbp), %rdi
	addq	$1616, %rdi             # imm = 0x650
	movl	-16(%rbp), %eax
	cltd
	movl	$4, %esi
	idivl	%esi
	movl	%eax, %ecx
	movl	-12(%rbp), %eax
	cltd
	idivl	%esi
	movl	$2, %esi
	movl	%ecx, %edx
	movl	%eax, %ecx
	movl	$2, %r8d
	callq	get_mem4Dshort
	movq	-24(%rbp), %rdi
	addq	$1624, %rdi             # imm = 0x658
	movl	-16(%rbp), %eax
	cltd
	movl	$4, %ecx
	idivl	%ecx
	movl	%eax, %esi
	movl	-12(%rbp), %eax
	cltd
	idivl	%ecx
	movl	%eax, %edx
	callq	get_mem2D
	movq	-24(%rbp), %rdi
	addq	$4872, %rdi             # imm = 0x1308
	movl	-16(%rbp), %eax
	cltd
	movl	$4, %ecx
	idivl	%ecx
	movl	%eax, %esi
	movl	-12(%rbp), %eax
	cltd
	idivl	%ecx
	movl	%eax, %edx
	callq	get_mem2D
	cmpl	$0, -28(%rbp)
	je	.LBB65_4
# %bb.3:                                # %if.then17
	movq	-24(%rbp), %rdi
	addq	$3216, %rdi             # imm = 0xC90
	movl	-16(%rbp), %eax
	cltd
	movl	$4, %esi
	idivl	%esi
	movl	%eax, %ecx
	movl	-12(%rbp), %eax
	cltd
	idivl	%esi
	cltd
	movl	$2, %esi
	idivl	%esi
	movl	$2, %esi
	movl	%ecx, %edx
	movl	%eax, %ecx
	callq	get_mem3Dshort
	movq	-24(%rbp), %rdi
	addq	$3224, %rdi             # imm = 0xC98
	movl	-16(%rbp), %eax
	cltd
	movl	$4, %esi
	idivl	%esi
	movl	%eax, %ecx
	movl	-12(%rbp), %eax
	cltd
	idivl	%esi
	cltd
	movl	$2, %esi
	idivl	%esi
	movl	$2, %esi
	movl	%ecx, %edx
	movl	%eax, %ecx
	callq	get_mem3Dint64
	movq	-24(%rbp), %rdi
	addq	$3232, %rdi             # imm = 0xCA0
	movl	-16(%rbp), %eax
	cltd
	movl	$4, %esi
	idivl	%esi
	movl	%eax, %ecx
	movl	-12(%rbp), %eax
	cltd
	idivl	%esi
	cltd
	movl	$2, %esi
	idivl	%esi
	movl	$2, %esi
	movl	%ecx, %edx
	movl	%eax, %ecx
	movl	$2, %r8d
	callq	get_mem4Dshort
	movq	-24(%rbp), %rdi
	addq	$3240, %rdi             # imm = 0xCA8
	movl	-16(%rbp), %eax
	cltd
	movl	$4, %ecx
	idivl	%ecx
	movl	%eax, %esi
	movl	-12(%rbp), %eax
	cltd
	idivl	%ecx
	cltd
	movl	$2, %ecx
	idivl	%ecx
	movl	%eax, %edx
	callq	get_mem2D
	movq	-24(%rbp), %rdi
	addq	$4832, %rdi             # imm = 0x12E0
	movl	-16(%rbp), %eax
	cltd
	movl	$4, %esi
	idivl	%esi
	movl	%eax, %ecx
	movl	-12(%rbp), %eax
	cltd
	idivl	%esi
	cltd
	movl	$2, %esi
	idivl	%esi
	movl	$2, %esi
	movl	%ecx, %edx
	movl	%eax, %ecx
	callq	get_mem3Dshort
	movq	-24(%rbp), %rdi
	addq	$4840, %rdi             # imm = 0x12E8
	movl	-16(%rbp), %eax
	cltd
	movl	$4, %esi
	idivl	%esi
	movl	%eax, %ecx
	movl	-12(%rbp), %eax
	cltd
	idivl	%esi
	cltd
	movl	$2, %esi
	idivl	%esi
	movl	$2, %esi
	movl	%ecx, %edx
	movl	%eax, %ecx
	callq	get_mem3Dint64
	movq	-24(%rbp), %rdi
	addq	$4848, %rdi             # imm = 0x12F0
	movl	-16(%rbp), %eax
	cltd
	movl	$4, %esi
	idivl	%esi
	movl	%eax, %ecx
	movl	-12(%rbp), %eax
	cltd
	idivl	%esi
	cltd
	movl	$2, %esi
	idivl	%esi
	movl	$2, %esi
	movl	%ecx, %edx
	movl	%eax, %ecx
	movl	$2, %r8d
	callq	get_mem4Dshort
	movq	-24(%rbp), %rdi
	addq	$4856, %rdi             # imm = 0x12F8
	movl	-16(%rbp), %eax
	cltd
	movl	$4, %ecx
	idivl	%ecx
	movl	%eax, %esi
	movl	-12(%rbp), %eax
	cltd
	idivl	%ecx
	cltd
	movl	$2, %ecx
	idivl	%ecx
	movl	%eax, %edx
	callq	get_mem2D
.LBB65_4:                               # %if.end50
	movl	-28(%rbp), %eax
	movq	-24(%rbp), %rcx
	movl	%eax, (%rcx)
	movq	-24(%rbp), %rbx
	cmpl	$584711492, -32(%rbp)   # imm = 0x22D9FD44
	jne	.LBB65_6
.LBB65_5:
	movq	%rbx, %rax
	addq	$24, %rsp
	popq	%rbx
	popq	%rbp
	.cfi_def_cfa %rsp, 8
	retq
.LBB65_6:                               # %func_exit
	.cfi_def_cfa %rbp, 16
	callq	detect_breach
	jmp	.LBB65_5
.Lfunc_end65:
	.size	alloc_colocated.2, .Lfunc_end65-alloc_colocated.2
	.cfi_endproc
                                        # -- End function
	.p2align	4, 0x90         # -- Begin function compare_pic_by_poc_asc.3
	.type	compare_pic_by_poc_asc.3,@function
compare_pic_by_poc_asc.3:               # @compare_pic_by_poc_asc.3
	.cfi_startproc
# %bb.0:                                # %entry
	pushq	%rbp
	.cfi_def_cfa_offset 16
	.cfi_offset %rbp, -16
	movq	%rsp, %rbp
	.cfi_def_cfa_register %rbp
	pushq	%rbx
	subq	$24, %rsp
	.cfi_offset %rbx, -24
	movl	$2066237747, -16(%rbp)  # imm = 0x7B284933
	movq	%rdi, -24(%rbp)
	movq	%rsi, -32(%rbp)
	movq	-24(%rbp), %rax
	movq	(%rax), %rax
	movl	4(%rax), %eax
	movq	-32(%rbp), %rcx
	movq	(%rcx), %rcx
	cmpl	4(%rcx), %eax
	jge	.LBB66_2
# %bb.1:                                # %if.then
	movl	$-1, -12(%rbp)
	jmp	.LBB66_5
.LBB66_2:                               # %if.end
	movq	-24(%rbp), %rax
	movq	(%rax), %rax
	movl	4(%rax), %eax
	movq	-32(%rbp), %rcx
	movq	(%rcx), %rcx
	cmpl	4(%rcx), %eax
	jle	.LBB66_4
# %bb.3:                                # %if.then5
	movl	$1, -12(%rbp)
	jmp	.LBB66_5
.LBB66_4:                               # %if.else
	movl	$0, -12(%rbp)
.LBB66_5:                               # %return
	movl	-12(%rbp), %ebx
	cmpl	$2066237747, -16(%rbp)  # imm = 0x7B284933
	jne	.LBB66_7
.LBB66_6:
	movl	%ebx, %eax
	addq	$24, %rsp
	popq	%rbx
	popq	%rbp
	.cfi_def_cfa %rsp, 8
	retq
.LBB66_7:                               # %func_exit
	.cfi_def_cfa %rbp, 16
	callq	detect_breach
	jmp	.LBB66_6
.Lfunc_end66:
	.size	compare_pic_by_poc_asc.3, .Lfunc_end66-compare_pic_by_poc_asc.3
	.cfi_endproc
                                        # -- End function
	.globl	gen_field_ref_ids.4     # -- Begin function gen_field_ref_ids.4
	.p2align	4, 0x90
	.type	gen_field_ref_ids.4,@function
gen_field_ref_ids.4:                    # @gen_field_ref_ids.4
	.cfi_startproc
# %bb.0:                                # %entry
	pushq	%rbp
	.cfi_def_cfa_offset 16
	.cfi_offset %rbp, -16
	movq	%rsp, %rbp
	.cfi_def_cfa_register %rbp
	subq	$32, %rsp
	movl	$189362269, -28(%rbp)   # imm = 0xB49705D
	movq	%rdi, -16(%rbp)
	movl	$0, -8(%rbp)
.LBB67_1:                               # %for.cond
                                        # =>This Loop Header: Depth=1
                                        #     Child Loop BB67_3 Depth 2
	movl	-8(%rbp), %ecx
	movq	-16(%rbp), %rax
	movl	6392(%rax), %eax
	cltd
	movl	$4, %esi
	idivl	%esi
	cmpl	%eax, %ecx
	jge	.LBB67_14
# %bb.2:                                # %for.body
                                        #   in Loop: Header=BB67_1 Depth=1
	movl	$0, -4(%rbp)
.LBB67_3:                               # %for.cond1
                                        #   Parent Loop BB67_1 Depth=1
                                        # =>  This Inner Loop Header: Depth=2
	movl	-4(%rbp), %ecx
	movq	-16(%rbp), %rax
	movl	6396(%rax), %eax
	cltd
	movl	$4, %esi
	idivl	%esi
	cmpl	%eax, %ecx
	jge	.LBB67_12
# %bb.4:                                # %for.body4
                                        #   in Loop: Header=BB67_3 Depth=2
	movq	-16(%rbp), %rax
	movq	6480(%rax), %rax
	movq	(%rax), %rax
	movslq	-8(%rbp), %rcx
	movq	(%rax,%rcx,8), %rax
	movslq	-4(%rbp), %rcx
	movswl	(%rax,%rcx,2), %eax
	movl	%eax, -20(%rbp)
	movq	-16(%rbp), %rax
	movq	6480(%rax), %rax
	movq	8(%rax), %rax
	movslq	-8(%rbp), %rcx
	movq	(%rax,%rcx,8), %rax
	movslq	-4(%rbp), %rcx
	movswl	(%rax,%rcx,2), %eax
	movl	%eax, -24(%rbp)
	cmpl	$0, -20(%rbp)
	jl	.LBB67_6
# %bb.5:                                # %cond.true
                                        #   in Loop: Header=BB67_3 Depth=2
	movq	-16(%rbp), %rax
	movslq	-20(%rbp), %rcx
	movq	24(%rax,%rcx,8), %rax
	jmp	.LBB67_7
.LBB67_6:                               # %cond.false
                                        #   in Loop: Header=BB67_3 Depth=2
	xorl	%eax, %eax
	jmp	.LBB67_7
.LBB67_7:                               # %cond.end
                                        #   in Loop: Header=BB67_3 Depth=2
	movq	-16(%rbp), %rcx
	movq	6496(%rcx), %rcx
	movq	(%rcx), %rcx
	movslq	-8(%rbp), %rdx
	movq	(%rcx,%rdx,8), %rcx
	movslq	-4(%rbp), %rdx
	movq	%rax, (%rcx,%rdx,8)
	cmpl	$0, -24(%rbp)
	jl	.LBB67_9
# %bb.8:                                # %cond.true27
                                        #   in Loop: Header=BB67_3 Depth=2
	movq	-16(%rbp), %rax
	movslq	-24(%rbp), %rcx
	movq	288(%rax,%rcx,8), %rax
	jmp	.LBB67_10
.LBB67_9:                               # %cond.false32
                                        #   in Loop: Header=BB67_3 Depth=2
	xorl	%eax, %eax
	jmp	.LBB67_10
.LBB67_10:                              # %cond.end33
                                        #   in Loop: Header=BB67_3 Depth=2
	movq	-16(%rbp), %rcx
	movq	6496(%rcx), %rcx
	movq	8(%rcx), %rcx
	movslq	-8(%rbp), %rdx
	movq	(%rcx,%rdx,8), %rcx
	movslq	-4(%rbp), %rdx
	movq	%rax, (%rcx,%rdx,8)
	movq	-16(%rbp), %rax
	movq	6520(%rax), %rax
	movslq	-8(%rbp), %rcx
	movq	(%rax,%rcx,8), %rax
	movslq	-4(%rbp), %rcx
	movb	$1, (%rax,%rcx)
# %bb.11:                               # %for.inc
                                        #   in Loop: Header=BB67_3 Depth=2
	movl	-4(%rbp), %eax
	addl	$1, %eax
	movl	%eax, -4(%rbp)
	jmp	.LBB67_3
.LBB67_12:                              # %for.end
                                        #   in Loop: Header=BB67_1 Depth=1
	jmp	.LBB67_13
.LBB67_13:                              # %for.inc45
                                        #   in Loop: Header=BB67_1 Depth=1
	movl	-8(%rbp), %eax
	addl	$1, %eax
	movl	%eax, -8(%rbp)
	jmp	.LBB67_1
.LBB67_14:                              # %for.end47
	cmpl	$189362269, -28(%rbp)   # imm = 0xB49705D
	jne	.LBB67_16
.LBB67_15:
	addq	$32, %rsp
	popq	%rbp
	.cfi_def_cfa %rsp, 8
	retq
.LBB67_16:                              # %func_exit
	.cfi_def_cfa %rbp, 16
	callq	detect_breach
	jmp	.LBB67_15
.Lfunc_end67:
	.size	gen_field_ref_ids.4, .Lfunc_end67-gen_field_ref_ids.4
	.cfi_endproc
                                        # -- End function
	.p2align	4, 0x90         # -- Begin function mm_mark_current_picture_long_term.5
	.type	mm_mark_current_picture_long_term.5,@function
mm_mark_current_picture_long_term.5:    # @mm_mark_current_picture_long_term.5
	.cfi_startproc
# %bb.0:                                # %entry
	pushq	%rbp
	.cfi_def_cfa_offset 16
	.cfi_offset %rbp, -16
	movq	%rsp, %rbp
	.cfi_def_cfa_register %rbp
	subq	$32, %rsp
	movl	$345575047, -20(%rbp)   # imm = 0x14990E87
	movq	%rdi, -16(%rbp)
	movl	%esi, -4(%rbp)
	movq	-16(%rbp), %rax
	cmpl	$0, (%rax)
	jne	.LBB68_2
# %bb.1:                                # %if.then
	movl	-4(%rbp), %edi
	callq	unmark_long_term_frame_for_reference_by_frame_idx
	jmp	.LBB68_3
.LBB68_2:                               # %if.else
	movq	-16(%rbp), %rax
	movl	(%rax), %edi
	movl	-4(%rbp), %esi
	movq	-16(%rbp), %rax
	movl	6364(%rax), %ecx
	movl	$1, %edx
	xorl	%r8d, %r8d
	callq	unmark_long_term_field_for_reference_by_frame_idx
.LBB68_3:                               # %if.end
	movq	-16(%rbp), %rax
	movl	$1, 6376(%rax)
	movl	-4(%rbp), %eax
	movq	-16(%rbp), %rcx
	movl	%eax, 6372(%rcx)
	cmpl	$345575047, -20(%rbp)   # imm = 0x14990E87
	jne	.LBB68_5
.LBB68_4:
	addq	$32, %rsp
	popq	%rbp
	.cfi_def_cfa %rsp, 8
	retq
.LBB68_5:                               # %func_exit
	.cfi_def_cfa %rbp, 16
	callq	detect_breach
	jmp	.LBB68_4
.Lfunc_end68:
	.size	mm_mark_current_picture_long_term.5, .Lfunc_end68-mm_mark_current_picture_long_term.5
	.cfi_endproc
                                        # -- End function
	.globl	init_dpb.6              # -- Begin function init_dpb.6
	.p2align	4, 0x90
	.type	init_dpb.6,@function
init_dpb.6:                             # @init_dpb.6
	.cfi_startproc
# %bb.0:                                # %entry
	pushq	%rbp
	.cfi_def_cfa_offset 16
	.cfi_offset %rbp, -16
	movq	%rsp, %rbp
	.cfi_def_cfa_register %rbp
	subq	$16, %rsp
	movl	$264187533, -12(%rbp)   # imm = 0xFBF2E8D
	cmpl	$0, dpb+48
	je	.LBB69_2
# %bb.1:                                # %if.then
	callq	free_dpb
.LBB69_2:                               # %if.end
	callq	getDpbSize
	movl	%eax, dpb+24
	movl	dpb+24, %eax
	movq	input, %rcx
	cmpl	36(%rcx), %eax
	jae	.LBB69_4
# %bb.3:                                # %if.then1
	movabsq	$.L.str.1, %rdi
	movl	$1000, %esi             # imm = 0x3E8
	callq	error
.LBB69_4:                               # %if.end2
	movl	$0, dpb+28
	movq	$0, dpb+56
	movl	$0, dpb+32
	movl	$0, dpb+36
	movl	dpb+24, %edi
	movl	$8, %esi
	callq	calloc
	xorl	%ecx, %ecx
	movq	%rax, dpb
	cmpq	dpb, %rcx
	jne	.LBB69_6
# %bb.5:                                # %if.then6
	movabsq	$.L.str.2, %rdi
	callq	no_mem_exit
.LBB69_6:                               # %if.end7
	movl	dpb+24, %edi
	movl	$8, %esi
	callq	calloc
	xorl	%ecx, %ecx
	movq	%rax, dpb+8
	cmpq	dpb+8, %rcx
	jne	.LBB69_8
# %bb.7:                                # %if.then12
	movabsq	$.L.str.3, %rdi
	callq	no_mem_exit
.LBB69_8:                               # %if.end13
	movl	dpb+24, %edi
	movl	$8, %esi
	callq	calloc
	xorl	%ecx, %ecx
	movq	%rax, dpb+16
	cmpq	dpb+16, %rcx
	jne	.LBB69_10
# %bb.9:                                # %if.then18
	movabsq	$.L.str.4, %rdi
	callq	no_mem_exit
.LBB69_10:                              # %if.end19
	movl	$0, -4(%rbp)
.LBB69_11:                              # %for.cond
                                        # =>This Inner Loop Header: Depth=1
	movl	-4(%rbp), %eax
	cmpl	dpb+24, %eax
	jae	.LBB69_14
# %bb.12:                               # %for.body
                                        #   in Loop: Header=BB69_11 Depth=1
	callq	alloc_frame_store
	movq	dpb, %rcx
	movl	-4(%rbp), %edx
	movq	%rax, (%rcx,%rdx,8)
	movq	dpb+8, %rax
	movl	-4(%rbp), %ecx
	movq	$0, (%rax,%rcx,8)
	movq	dpb+16, %rax
	movl	-4(%rbp), %ecx
	movq	$0, (%rax,%rcx,8)
# %bb.13:                               # %for.inc
                                        #   in Loop: Header=BB69_11 Depth=1
	movl	-4(%rbp), %eax
	addl	$1, %eax
	movl	%eax, -4(%rbp)
	jmp	.LBB69_11
.LBB69_14:                              # %for.end
	movl	$0, -4(%rbp)
.LBB69_15:                              # %for.cond27
                                        # =>This Inner Loop Header: Depth=1
	cmpl	$6, -4(%rbp)
	jae	.LBB69_20
# %bb.16:                               # %for.body30
                                        #   in Loop: Header=BB69_15 Depth=1
	movl	$33, %edi
	movl	$8, %esi
	callq	calloc
	xorl	%ecx, %ecx
	movl	-4(%rbp), %edx
	movq	%rax, listX(,%rdx,8)
	movl	-4(%rbp), %eax
	cmpq	listX(,%rax,8), %rcx
	jne	.LBB69_18
# %bb.17:                               # %if.then38
                                        #   in Loop: Header=BB69_15 Depth=1
	movabsq	$.L.str.5, %rdi
	callq	no_mem_exit
.LBB69_18:                              # %if.end39
                                        #   in Loop: Header=BB69_15 Depth=1
	jmp	.LBB69_19
.LBB69_19:                              # %for.inc40
                                        #   in Loop: Header=BB69_15 Depth=1
	movl	-4(%rbp), %eax
	addl	$1, %eax
	movl	%eax, -4(%rbp)
	jmp	.LBB69_15
.LBB69_20:                              # %for.end42
	movl	$0, -8(%rbp)
.LBB69_21:                              # %for.cond43
                                        # =>This Loop Header: Depth=1
                                        #     Child Loop BB69_23 Depth 2
	cmpl	$6, -8(%rbp)
	jae	.LBB69_28
# %bb.22:                               # %for.body46
                                        #   in Loop: Header=BB69_21 Depth=1
	movl	$0, -4(%rbp)
.LBB69_23:                              # %for.cond47
                                        #   Parent Loop BB69_21 Depth=1
                                        # =>  This Inner Loop Header: Depth=2
	cmpl	$33, -4(%rbp)
	jae	.LBB69_26
# %bb.24:                               # %for.body50
                                        #   in Loop: Header=BB69_23 Depth=2
	movl	-8(%rbp), %eax
	movq	listX(,%rax,8), %rax
	movl	-4(%rbp), %ecx
	movq	$0, (%rax,%rcx,8)
# %bb.25:                               # %for.inc55
                                        #   in Loop: Header=BB69_23 Depth=2
	movl	-4(%rbp), %eax
	addl	$1, %eax
	movl	%eax, -4(%rbp)
	jmp	.LBB69_23
.LBB69_26:                              # %for.end57
                                        #   in Loop: Header=BB69_21 Depth=1
	movl	-8(%rbp), %eax
	movl	$0, listXsize(,%rax,4)
# %bb.27:                               # %for.inc60
                                        #   in Loop: Header=BB69_21 Depth=1
	movl	-8(%rbp), %eax
	addl	$1, %eax
	movl	%eax, -8(%rbp)
	jmp	.LBB69_21
.LBB69_28:                              # %for.end62
	movl	$-2147483648, dpb+40    # imm = 0x80000000
	movq	img, %rax
	movl	$0, 72644(%rax)
	movl	$1, dpb+48
	cmpl	$264187533, -12(%rbp)   # imm = 0xFBF2E8D
	jne	.LBB69_30
.LBB69_29:
	addq	$16, %rsp
	popq	%rbp
	.cfi_def_cfa %rsp, 8
	retq
.LBB69_30:                              # %func_exit
	.cfi_def_cfa %rbp, 16
	callq	detect_breach
	jmp	.LBB69_29
.Lfunc_end69:
	.size	init_dpb.6, .Lfunc_end69-init_dpb.6
	.cfi_endproc
                                        # -- End function
	.p2align	4, 0x90         # -- Begin function mm_assign_long_term_frame_idx.7
	.type	mm_assign_long_term_frame_idx.7,@function
mm_assign_long_term_frame_idx.7:        # @mm_assign_long_term_frame_idx.7
	.cfi_startproc
# %bb.0:                                # %entry
	pushq	%rbp
	.cfi_def_cfa_offset 16
	.cfi_offset %rbp, -16
	movq	%rsp, %rbp
	.cfi_def_cfa_register %rbp
	subq	$32, %rsp
	movl	$730976150, -32(%rbp)   # imm = 0x2B91CF96
	movq	%rdi, -24(%rbp)
	movl	%esi, -28(%rbp)
	movl	%edx, -16(%rbp)
	movq	-24(%rbp), %rdi
	movl	-28(%rbp), %esi
	callq	get_pic_num_x
	movl	%eax, -8(%rbp)
	movq	-24(%rbp), %rax
	cmpl	$0, (%rax)
	jne	.LBB70_2
# %bb.1:                                # %if.then
	movl	-16(%rbp), %edi
	callq	unmark_long_term_frame_for_reference_by_frame_idx
	jmp	.LBB70_18
.LBB70_2:                               # %if.else
	movl	$0, -12(%rbp)
	movl	$0, -4(%rbp)
.LBB70_3:                               # %for.cond
                                        # =>This Inner Loop Header: Depth=1
	movl	-4(%rbp), %eax
	cmpl	dpb+32, %eax
	jae	.LBB70_14
# %bb.4:                                # %for.body
                                        #   in Loop: Header=BB70_3 Depth=1
	movq	dpb+8, %rax
	movl	-4(%rbp), %ecx
	movq	(%rax,%rcx,8), %rax
	movl	4(%rax), %eax
	andl	$1, %eax
	cmpl	$0, %eax
	je	.LBB70_8
# %bb.5:                                # %if.then3
                                        #   in Loop: Header=BB70_3 Depth=1
	movq	dpb+8, %rax
	movl	-4(%rbp), %ecx
	movq	(%rax,%rcx,8), %rax
	movq	48(%rax), %rax
	movl	6364(%rax), %eax
	cmpl	-8(%rbp), %eax
	jne	.LBB70_7
# %bb.6:                                # %if.then7
	movl	$1, -12(%rbp)
	jmp	.LBB70_15
.LBB70_7:                               # %if.end
                                        #   in Loop: Header=BB70_3 Depth=1
	jmp	.LBB70_8
.LBB70_8:                               # %if.end8
                                        #   in Loop: Header=BB70_3 Depth=1
	movq	dpb+8, %rax
	movl	-4(%rbp), %ecx
	movq	(%rax,%rcx,8), %rax
	movl	4(%rax), %eax
	andl	$2, %eax
	cmpl	$0, %eax
	je	.LBB70_12
# %bb.9:                                # %if.then14
                                        #   in Loop: Header=BB70_3 Depth=1
	movq	dpb+8, %rax
	movl	-4(%rbp), %ecx
	movq	(%rax,%rcx,8), %rax
	movq	56(%rax), %rax
	movl	6364(%rax), %eax
	cmpl	-8(%rbp), %eax
	jne	.LBB70_11
# %bb.10:                               # %if.then19
	movl	$2, -12(%rbp)
	jmp	.LBB70_15
.LBB70_11:                              # %if.end20
                                        #   in Loop: Header=BB70_3 Depth=1
	jmp	.LBB70_12
.LBB70_12:                              # %if.end21
                                        #   in Loop: Header=BB70_3 Depth=1
	jmp	.LBB70_13
.LBB70_13:                              # %for.inc
                                        #   in Loop: Header=BB70_3 Depth=1
	movl	-4(%rbp), %eax
	addl	$1, %eax
	movl	%eax, -4(%rbp)
	jmp	.LBB70_3
.LBB70_14:                              # %for.end.loopexit
	jmp	.LBB70_15
.LBB70_15:                              # %for.end
	cmpl	$0, -12(%rbp)
	jne	.LBB70_17
# %bb.16:                               # %if.then23
	movabsq	$.L.str.24, %rdi
	movl	$200, %esi
	callq	error
.LBB70_17:                              # %if.end24
	movl	-12(%rbp), %edi
	movl	-16(%rbp), %esi
	movl	-8(%rbp), %r8d
	xorl	%edx, %edx
	xorl	%ecx, %ecx
	callq	unmark_long_term_field_for_reference_by_frame_idx
.LBB70_18:                              # %if.end25
	movq	-24(%rbp), %rdi
	movl	-16(%rbp), %esi
	movl	-8(%rbp), %edx
	callq	mark_pic_long_term
	cmpl	$730976150, -32(%rbp)   # imm = 0x2B91CF96
	jne	.LBB70_20
.LBB70_19:
	addq	$32, %rsp
	popq	%rbp
	.cfi_def_cfa %rsp, 8
	retq
.LBB70_20:                              # %func_exit
	.cfi_def_cfa %rbp, 16
	callq	detect_breach
	jmp	.LBB70_19
.Lfunc_end70:
	.size	mm_assign_long_term_frame_idx.7, .Lfunc_end70-mm_assign_long_term_frame_idx.7
	.cfi_endproc
                                        # -- End function
	.globl	replace_top_pic_with_frame.8 # -- Begin function replace_top_pic_with_frame.8
	.p2align	4, 0x90
	.type	replace_top_pic_with_frame.8,@function
replace_top_pic_with_frame.8:           # @replace_top_pic_with_frame.8
	.cfi_startproc
# %bb.0:                                # %entry
	pushq	%rbp
	.cfi_def_cfa_offset 16
	.cfi_offset %rbp, -16
	movq	%rsp, %rbp
	.cfi_def_cfa_register %rbp
	subq	$32, %rsp
	movl	$1944605933, -32(%rbp)  # imm = 0x73E854ED
	movq	%rdi, -24(%rbp)
	movq	$0, -16(%rbp)
	movq	img, %rax
	cmpl	$0, 72496(%rax)
	setne	%al
	andb	$1, %al
	movzbl	%al, %eax
	movq	-24(%rbp), %rcx
	movl	%eax, 6380(%rcx)
	movq	-24(%rbp), %rax
	cmpl	$0, 6380(%rax)
	je	.LBB71_2
# %bb.1:                                # %if.then
	movq	-24(%rbp), %rdi
	callq	UnifiedOneForthPix
.LBB71_2:                               # %if.end
	movl	$0, -28(%rbp)
	movl	$0, -4(%rbp)
.LBB71_3:                               # %for.cond
                                        # =>This Inner Loop Header: Depth=1
	movl	-4(%rbp), %eax
	cmpl	dpb+28, %eax
	jae	.LBB71_9
# %bb.4:                                # %for.body
                                        #   in Loop: Header=BB71_3 Depth=1
	movq	dpb, %rax
	movl	-4(%rbp), %ecx
	movq	(%rax,%rcx,8), %rax
	movl	20(%rax), %eax
	movq	img, %rcx
	cmpl	72464(%rcx), %eax
	jne	.LBB71_7
# %bb.5:                                # %land.lhs.true
                                        #   in Loop: Header=BB71_3 Depth=1
	movq	dpb, %rax
	movl	-4(%rbp), %ecx
	movq	(%rax,%rcx,8), %rax
	cmpl	$1, (%rax)
	jne	.LBB71_7
# %bb.6:                                # %if.then11
	movl	$1, -28(%rbp)
	movq	dpb, %rax
	movl	-4(%rbp), %ecx
	movq	(%rax,%rcx,8), %rax
	movq	%rax, -16(%rbp)
	jmp	.LBB71_10
.LBB71_7:                               # %if.end14
                                        #   in Loop: Header=BB71_3 Depth=1
	jmp	.LBB71_8
.LBB71_8:                               # %for.inc
                                        #   in Loop: Header=BB71_3 Depth=1
	movl	-4(%rbp), %eax
	addl	$1, %eax
	movl	%eax, -4(%rbp)
	jmp	.LBB71_3
.LBB71_9:                               # %for.end.loopexit
	jmp	.LBB71_10
.LBB71_10:                              # %for.end
	cmpl	$0, -28(%rbp)
	jne	.LBB71_12
# %bb.11:                               # %if.then16
	movabsq	$.L.str.14, %rdi
	movl	$500, %esi              # imm = 0x1F4
	callq	error
.LBB71_12:                              # %if.end17
	movq	-16(%rbp), %rax
	movq	48(%rax), %rdi
	callq	free_storable_picture
	movq	-16(%rbp), %rax
	movq	$0, 48(%rax)
	movq	-24(%rbp), %rax
	movq	-16(%rbp), %rcx
	movq	%rax, 40(%rcx)
	movq	-16(%rbp), %rax
	movl	$3, (%rax)
	movq	-24(%rbp), %rax
	cmpl	$0, 6380(%rax)
	je	.LBB71_16
# %bb.13:                               # %if.then22
	movq	-16(%rbp), %rax
	movl	$3, 4(%rax)
	movq	-24(%rbp), %rax
	cmpl	$0, 6376(%rax)
	je	.LBB71_15
# %bb.14:                               # %if.then24
	movq	-16(%rbp), %rax
	movl	$3, 8(%rax)
.LBB71_15:                              # %if.end26
	jmp	.LBB71_16
.LBB71_16:                              # %if.end27
	movq	-16(%rbp), %rdi
	callq	dpb_split_field
	callq	update_ref_list
	callq	update_ltref_list
	cmpl	$1944605933, -32(%rbp)  # imm = 0x73E854ED
	jne	.LBB71_18
.LBB71_17:
	addq	$32, %rsp
	popq	%rbp
	.cfi_def_cfa %rsp, 8
	retq
.LBB71_18:                              # %func_exit
	.cfi_def_cfa %rbp, 16
	callq	detect_breach
	jmp	.LBB71_17
.Lfunc_end71:
	.size	replace_top_pic_with_frame.8, .Lfunc_end71-replace_top_pic_with_frame.8
	.cfi_endproc
                                        # -- End function
	.p2align	4, 0x90         # -- Begin function gen_pic_list_from_frame_list.9
	.type	gen_pic_list_from_frame_list.9,@function
gen_pic_list_from_frame_list.9:         # @gen_pic_list_from_frame_list.9
	.cfi_startproc
# %bb.0:                                # %entry
	pushq	%rbp
	.cfi_def_cfa_offset 16
	.cfi_offset %rbp, -16
	movq	%rsp, %rbp
	.cfi_def_cfa_register %rbp
	subq	$64, %rsp
	movl	$942457670, -64(%rbp)   # imm = 0x382CC346
	movl	%edi, -44(%rbp)
	movq	%rsi, -24(%rbp)
	movl	%edx, -12(%rbp)
	movq	%rcx, -56(%rbp)
	movq	%r8, -32(%rbp)
	movl	%r9d, -60(%rbp)
	movl	$0, -8(%rbp)
	movl	$0, -4(%rbp)
	cmpl	$0, -60(%rbp)
	je	.LBB72_2
# %bb.1:                                # %if.then
	movabsq	$is_long_ref, %rax
	movq	%rax, -40(%rbp)
	jmp	.LBB72_3
.LBB72_2:                               # %if.else
	movabsq	$is_short_ref, %rax
	movq	%rax, -40(%rbp)
.LBB72_3:                               # %if.end
	cmpl	$1, -44(%rbp)
	jne	.LBB72_28
# %bb.4:                                # %if.then1
	jmp	.LBB72_5
.LBB72_5:                               # %while.cond
                                        # =>This Loop Header: Depth=1
                                        #     Child Loop BB72_9 Depth 2
                                        #     Child Loop BB72_18 Depth 2
	movl	-8(%rbp), %eax
	cmpl	-12(%rbp), %eax
	movb	$1, %al
	jl	.LBB72_7
# %bb.6:                                # %lor.rhs
                                        #   in Loop: Header=BB72_5 Depth=1
	movl	-4(%rbp), %eax
	cmpl	-12(%rbp), %eax
	setl	%al
.LBB72_7:                               # %lor.end
                                        #   in Loop: Header=BB72_5 Depth=1
	testb	$1, %al
	jne	.LBB72_8
	jmp	.LBB72_27
.LBB72_8:                               # %while.body
                                        #   in Loop: Header=BB72_5 Depth=1
	jmp	.LBB72_9
.LBB72_9:                               # %for.cond
                                        #   Parent Loop BB72_5 Depth=1
                                        # =>  This Inner Loop Header: Depth=2
	movl	-8(%rbp), %eax
	cmpl	-12(%rbp), %eax
	jge	.LBB72_16
# %bb.10:                               # %for.body
                                        #   in Loop: Header=BB72_9 Depth=2
	movq	-24(%rbp), %rax
	movslq	-8(%rbp), %rcx
	movq	(%rax,%rcx,8), %rax
	movl	(%rax), %eax
	andl	$1, %eax
	cmpl	$0, %eax
	je	.LBB72_14
# %bb.11:                               # %if.then6
                                        #   in Loop: Header=BB72_9 Depth=2
	movq	-40(%rbp), %rax
	movq	-24(%rbp), %rcx
	movslq	-8(%rbp), %rdx
	movq	(%rcx,%rdx,8), %rcx
	movq	48(%rcx), %rdi
	callq	*%rax
	cmpl	$0, %eax
	je	.LBB72_13
# %bb.12:                               # %if.then10
                                        #   in Loop: Header=BB72_5 Depth=1
	movq	-24(%rbp), %rax
	movslq	-8(%rbp), %rcx
	movq	(%rax,%rcx,8), %rax
	movq	48(%rax), %rax
	movq	-56(%rbp), %rcx
	movq	-32(%rbp), %rdx
	movslq	(%rdx), %rdx
	movq	%rax, (%rcx,%rdx,8)
	movq	-32(%rbp), %rax
	movl	(%rax), %ecx
	addl	$1, %ecx
	movl	%ecx, (%rax)
	movl	-8(%rbp), %eax
	addl	$1, %eax
	movl	%eax, -8(%rbp)
	jmp	.LBB72_17
.LBB72_13:                              # %if.end17
                                        #   in Loop: Header=BB72_9 Depth=2
	jmp	.LBB72_14
.LBB72_14:                              # %if.end18
                                        #   in Loop: Header=BB72_9 Depth=2
	jmp	.LBB72_15
.LBB72_15:                              # %for.inc
                                        #   in Loop: Header=BB72_9 Depth=2
	movl	-8(%rbp), %eax
	addl	$1, %eax
	movl	%eax, -8(%rbp)
	jmp	.LBB72_9
.LBB72_16:                              # %for.end.loopexit
                                        #   in Loop: Header=BB72_5 Depth=1
	jmp	.LBB72_17
.LBB72_17:                              # %for.end
                                        #   in Loop: Header=BB72_5 Depth=1
	jmp	.LBB72_18
.LBB72_18:                              # %for.cond20
                                        #   Parent Loop BB72_5 Depth=1
                                        # =>  This Inner Loop Header: Depth=2
	movl	-4(%rbp), %eax
	cmpl	-12(%rbp), %eax
	jge	.LBB72_25
# %bb.19:                               # %for.body22
                                        #   in Loop: Header=BB72_18 Depth=2
	movq	-24(%rbp), %rax
	movslq	-4(%rbp), %rcx
	movq	(%rax,%rcx,8), %rax
	movl	(%rax), %eax
	andl	$2, %eax
	cmpl	$0, %eax
	je	.LBB72_23
# %bb.20:                               # %if.then28
                                        #   in Loop: Header=BB72_18 Depth=2
	movq	-40(%rbp), %rax
	movq	-24(%rbp), %rcx
	movslq	-4(%rbp), %rdx
	movq	(%rcx,%rdx,8), %rcx
	movq	56(%rcx), %rdi
	callq	*%rax
	cmpl	$0, %eax
	je	.LBB72_22
# %bb.21:                               # %if.then33
                                        #   in Loop: Header=BB72_5 Depth=1
	movq	-24(%rbp), %rax
	movslq	-4(%rbp), %rcx
	movq	(%rax,%rcx,8), %rax
	movq	56(%rax), %rax
	movq	-56(%rbp), %rcx
	movq	-32(%rbp), %rdx
	movslq	(%rdx), %rdx
	movq	%rax, (%rcx,%rdx,8)
	movq	-32(%rbp), %rax
	movl	(%rax), %ecx
	addl	$1, %ecx
	movl	%ecx, (%rax)
	movl	-4(%rbp), %eax
	addl	$1, %eax
	movl	%eax, -4(%rbp)
	jmp	.LBB72_26
.LBB72_22:                              # %if.end41
                                        #   in Loop: Header=BB72_18 Depth=2
	jmp	.LBB72_23
.LBB72_23:                              # %if.end42
                                        #   in Loop: Header=BB72_18 Depth=2
	jmp	.LBB72_24
.LBB72_24:                              # %for.inc43
                                        #   in Loop: Header=BB72_18 Depth=2
	movl	-4(%rbp), %eax
	addl	$1, %eax
	movl	%eax, -4(%rbp)
	jmp	.LBB72_18
.LBB72_25:                              # %for.end45.loopexit
                                        #   in Loop: Header=BB72_5 Depth=1
	jmp	.LBB72_26
.LBB72_26:                              # %for.end45
                                        #   in Loop: Header=BB72_5 Depth=1
	jmp	.LBB72_5
.LBB72_27:                              # %while.end
	jmp	.LBB72_28
.LBB72_28:                              # %if.end46
	cmpl	$2, -44(%rbp)
	jne	.LBB72_53
# %bb.29:                               # %if.then48
	jmp	.LBB72_30
.LBB72_30:                              # %while.cond49
                                        # =>This Loop Header: Depth=1
                                        #     Child Loop BB72_34 Depth 2
                                        #     Child Loop BB72_43 Depth 2
	movl	-8(%rbp), %eax
	cmpl	-12(%rbp), %eax
	movb	$1, %al
	jl	.LBB72_32
# %bb.31:                               # %lor.rhs51
                                        #   in Loop: Header=BB72_30 Depth=1
	movl	-4(%rbp), %eax
	cmpl	-12(%rbp), %eax
	setl	%al
.LBB72_32:                              # %lor.end53
                                        #   in Loop: Header=BB72_30 Depth=1
	testb	$1, %al
	jne	.LBB72_33
	jmp	.LBB72_52
.LBB72_33:                              # %while.body54
                                        #   in Loop: Header=BB72_30 Depth=1
	jmp	.LBB72_34
.LBB72_34:                              # %for.cond55
                                        #   Parent Loop BB72_30 Depth=1
                                        # =>  This Inner Loop Header: Depth=2
	movl	-4(%rbp), %eax
	cmpl	-12(%rbp), %eax
	jge	.LBB72_41
# %bb.35:                               # %for.body57
                                        #   in Loop: Header=BB72_34 Depth=2
	movq	-24(%rbp), %rax
	movslq	-4(%rbp), %rcx
	movq	(%rax,%rcx,8), %rax
	movl	(%rax), %eax
	andl	$2, %eax
	cmpl	$0, %eax
	je	.LBB72_39
# %bb.36:                               # %if.then63
                                        #   in Loop: Header=BB72_34 Depth=2
	movq	-40(%rbp), %rax
	movq	-24(%rbp), %rcx
	movslq	-4(%rbp), %rdx
	movq	(%rcx,%rdx,8), %rcx
	movq	56(%rcx), %rdi
	callq	*%rax
	cmpl	$0, %eax
	je	.LBB72_38
# %bb.37:                               # %if.then69
                                        #   in Loop: Header=BB72_30 Depth=1
	movq	-24(%rbp), %rax
	movslq	-4(%rbp), %rcx
	movq	(%rax,%rcx,8), %rax
	movq	56(%rax), %rax
	movq	-56(%rbp), %rcx
	movq	-32(%rbp), %rdx
	movslq	(%rdx), %rdx
	movq	%rax, (%rcx,%rdx,8)
	movq	-32(%rbp), %rax
	movl	(%rax), %ecx
	addl	$1, %ecx
	movl	%ecx, (%rax)
	movl	-4(%rbp), %eax
	addl	$1, %eax
	movl	%eax, -4(%rbp)
	jmp	.LBB72_42
.LBB72_38:                              # %if.end77
                                        #   in Loop: Header=BB72_34 Depth=2
	jmp	.LBB72_39
.LBB72_39:                              # %if.end78
                                        #   in Loop: Header=BB72_34 Depth=2
	jmp	.LBB72_40
.LBB72_40:                              # %for.inc79
                                        #   in Loop: Header=BB72_34 Depth=2
	movl	-4(%rbp), %eax
	addl	$1, %eax
	movl	%eax, -4(%rbp)
	jmp	.LBB72_34
.LBB72_41:                              # %for.end81.loopexit
                                        #   in Loop: Header=BB72_30 Depth=1
	jmp	.LBB72_42
.LBB72_42:                              # %for.end81
                                        #   in Loop: Header=BB72_30 Depth=1
	jmp	.LBB72_43
.LBB72_43:                              # %for.cond82
                                        #   Parent Loop BB72_30 Depth=1
                                        # =>  This Inner Loop Header: Depth=2
	movl	-8(%rbp), %eax
	cmpl	-12(%rbp), %eax
	jge	.LBB72_50
# %bb.44:                               # %for.body84
                                        #   in Loop: Header=BB72_43 Depth=2
	movq	-24(%rbp), %rax
	movslq	-8(%rbp), %rcx
	movq	(%rax,%rcx,8), %rax
	movl	(%rax), %eax
	andl	$1, %eax
	cmpl	$0, %eax
	je	.LBB72_48
# %bb.45:                               # %if.then90
                                        #   in Loop: Header=BB72_43 Depth=2
	movq	-40(%rbp), %rax
	movq	-24(%rbp), %rcx
	movslq	-8(%rbp), %rdx
	movq	(%rcx,%rdx,8), %rcx
	movq	48(%rcx), %rdi
	callq	*%rax
	cmpl	$0, %eax
	je	.LBB72_47
# %bb.46:                               # %if.then96
                                        #   in Loop: Header=BB72_30 Depth=1
	movq	-24(%rbp), %rax
	movslq	-8(%rbp), %rcx
	movq	(%rax,%rcx,8), %rax
	movq	48(%rax), %rax
	movq	-56(%rbp), %rcx
	movq	-32(%rbp), %rdx
	movslq	(%rdx), %rdx
	movq	%rax, (%rcx,%rdx,8)
	movq	-32(%rbp), %rax
	movl	(%rax), %ecx
	addl	$1, %ecx
	movl	%ecx, (%rax)
	movl	-8(%rbp), %eax
	addl	$1, %eax
	movl	%eax, -8(%rbp)
	jmp	.LBB72_51
.LBB72_47:                              # %if.end104
                                        #   in Loop: Header=BB72_43 Depth=2
	jmp	.LBB72_48
.LBB72_48:                              # %if.end105
                                        #   in Loop: Header=BB72_43 Depth=2
	jmp	.LBB72_49
.LBB72_49:                              # %for.inc106
                                        #   in Loop: Header=BB72_43 Depth=2
	movl	-8(%rbp), %eax
	addl	$1, %eax
	movl	%eax, -8(%rbp)
	jmp	.LBB72_43
.LBB72_50:                              # %for.end108.loopexit
                                        #   in Loop: Header=BB72_30 Depth=1
	jmp	.LBB72_51
.LBB72_51:                              # %for.end108
                                        #   in Loop: Header=BB72_30 Depth=1
	jmp	.LBB72_30
.LBB72_52:                              # %while.end109
	jmp	.LBB72_53
.LBB72_53:                              # %if.end110
	cmpl	$942457670, -64(%rbp)   # imm = 0x382CC346
	jne	.LBB72_55
.LBB72_54:
	addq	$64, %rsp
	popq	%rbp
	.cfi_def_cfa %rsp, 8
	retq
.LBB72_55:                              # %func_exit
	.cfi_def_cfa %rbp, 16
	callq	detect_breach
	jmp	.LBB72_54
.Lfunc_end72:
	.size	gen_pic_list_from_frame_list.9, .Lfunc_end72-gen_pic_list_from_frame_list.9
	.cfi_endproc
                                        # -- End function
	.globl	dpb_combine_field.10    # -- Begin function dpb_combine_field.10
	.p2align	4, 0x90
	.type	dpb_combine_field.10,@function
dpb_combine_field.10:                   # @dpb_combine_field.10
	.cfi_startproc
# %bb.0:                                # %entry
	pushq	%rbp
	.cfi_def_cfa_offset 16
	.cfi_offset %rbp, -16
	movq	%rsp, %rbp
	.cfi_def_cfa_register %rbp
	subq	$32, %rsp
	movl	$1496204514, -32(%rbp)  # imm = 0x592E44E2
	movq	%rdi, -16(%rbp)
	movq	-16(%rbp), %rax
	movq	48(%rax), %rax
	movl	6392(%rax), %esi
	movq	-16(%rbp), %rax
	movq	48(%rax), %rax
	movl	6396(%rax), %edx
	shll	$1, %edx
	movq	-16(%rbp), %rax
	movq	48(%rax), %rax
	movl	6400(%rax), %ecx
	movq	-16(%rbp), %rax
	movq	48(%rax), %rax
	movl	6404(%rax), %r8d
	shll	$1, %r8d
	xorl	%edi, %edi
	callq	alloc_storable_picture
	movq	-16(%rbp), %rcx
	movq	%rax, 40(%rcx)
	movl	$0, -4(%rbp)
.LBB73_1:                               # %for.cond
                                        # =>This Inner Loop Header: Depth=1
	movl	-4(%rbp), %eax
	movq	-16(%rbp), %rcx
	movq	48(%rcx), %rcx
	cmpl	6396(%rcx), %eax
	jge	.LBB73_4
# %bb.2:                                # %for.body
                                        #   in Loop: Header=BB73_1 Depth=1
	movq	-16(%rbp), %rax
	movq	40(%rax), %rax
	movq	6424(%rax), %rax
	movl	-4(%rbp), %ecx
	shll	$1, %ecx
	movslq	%ecx, %rcx
	movq	(%rax,%rcx,8), %rdi
	movq	-16(%rbp), %rax
	movq	48(%rax), %rax
	movq	6424(%rax), %rax
	movslq	-4(%rbp), %rcx
	movq	(%rax,%rcx,8), %rsi
	movq	-16(%rbp), %rax
	movq	48(%rax), %rax
	movslq	6392(%rax), %rdx
	shlq	$1, %rdx
	callq	memcpy
	movq	-16(%rbp), %rax
	movq	40(%rax), %rax
	movq	6424(%rax), %rax
	movl	-4(%rbp), %ecx
	shll	$1, %ecx
	addl	$1, %ecx
	movslq	%ecx, %rcx
	movq	(%rax,%rcx,8), %rdi
	movq	-16(%rbp), %rax
	movq	56(%rax), %rax
	movq	6424(%rax), %rax
	movslq	-4(%rbp), %rcx
	movq	(%rax,%rcx,8), %rsi
	movq	-16(%rbp), %rax
	movq	56(%rax), %rax
	movslq	6392(%rax), %rdx
	shlq	$1, %rdx
	callq	memcpy
# %bb.3:                                # %for.inc
                                        #   in Loop: Header=BB73_1 Depth=1
	movl	-4(%rbp), %eax
	addl	$1, %eax
	movl	%eax, -4(%rbp)
	jmp	.LBB73_1
.LBB73_4:                               # %for.end
	movl	$0, -4(%rbp)
.LBB73_5:                               # %for.cond28
                                        # =>This Inner Loop Header: Depth=1
	movl	-4(%rbp), %eax
	movq	-16(%rbp), %rcx
	movq	48(%rcx), %rcx
	cmpl	6404(%rcx), %eax
	jge	.LBB73_8
# %bb.6:                                # %for.body33
                                        #   in Loop: Header=BB73_5 Depth=1
	movq	-16(%rbp), %rax
	movq	40(%rax), %rax
	movq	6464(%rax), %rax
	movq	(%rax), %rax
	movl	-4(%rbp), %ecx
	shll	$1, %ecx
	movslq	%ecx, %rcx
	movq	(%rax,%rcx,8), %rdi
	movq	-16(%rbp), %rax
	movq	48(%rax), %rax
	movq	6464(%rax), %rax
	movq	(%rax), %rax
	movslq	-4(%rbp), %rcx
	movq	(%rax,%rcx,8), %rsi
	movq	-16(%rbp), %rax
	movq	48(%rax), %rax
	movslq	6400(%rax), %rdx
	shlq	$1, %rdx
	callq	memcpy
	movq	-16(%rbp), %rax
	movq	40(%rax), %rax
	movq	6464(%rax), %rax
	movq	(%rax), %rax
	movl	-4(%rbp), %ecx
	shll	$1, %ecx
	addl	$1, %ecx
	movslq	%ecx, %rcx
	movq	(%rax,%rcx,8), %rdi
	movq	-16(%rbp), %rax
	movq	56(%rax), %rax
	movq	6464(%rax), %rax
	movq	(%rax), %rax
	movslq	-4(%rbp), %rcx
	movq	(%rax,%rcx,8), %rsi
	movq	-16(%rbp), %rax
	movq	56(%rax), %rax
	movslq	6400(%rax), %rdx
	shlq	$1, %rdx
	callq	memcpy
	movq	-16(%rbp), %rax
	movq	40(%rax), %rax
	movq	6464(%rax), %rax
	movq	8(%rax), %rax
	movl	-4(%rbp), %ecx
	shll	$1, %ecx
	movslq	%ecx, %rcx
	movq	(%rax,%rcx,8), %rdi
	movq	-16(%rbp), %rax
	movq	48(%rax), %rax
	movq	6464(%rax), %rax
	movq	8(%rax), %rax
	movslq	-4(%rbp), %rcx
	movq	(%rax,%rcx,8), %rsi
	movq	-16(%rbp), %rax
	movq	48(%rax), %rax
	movslq	6400(%rax), %rdx
	shlq	$1, %rdx
	callq	memcpy
	movq	-16(%rbp), %rax
	movq	40(%rax), %rax
	movq	6464(%rax), %rax
	movq	8(%rax), %rax
	movl	-4(%rbp), %ecx
	shll	$1, %ecx
	addl	$1, %ecx
	movslq	%ecx, %rcx
	movq	(%rax,%rcx,8), %rdi
	movq	-16(%rbp), %rax
	movq	56(%rax), %rax
	movq	6464(%rax), %rax
	movq	8(%rax), %rax
	movslq	-4(%rbp), %rcx
	movq	(%rax,%rcx,8), %rsi
	movq	-16(%rbp), %rax
	movq	56(%rax), %rax
	movslq	6400(%rax), %rdx
	shlq	$1, %rdx
	callq	memcpy
# %bb.7:                                # %for.inc95
                                        #   in Loop: Header=BB73_5 Depth=1
	movl	-4(%rbp), %eax
	addl	$1, %eax
	movl	%eax, -4(%rbp)
	jmp	.LBB73_5
.LBB73_8:                               # %for.end97
	movq	-16(%rbp), %rax
	movq	40(%rax), %rdi
	callq	UnifiedOneForthPix
	movq	-16(%rbp), %rax
	movq	48(%rax), %rax
	movl	4(%rax), %eax
	movq	-16(%rbp), %rcx
	movq	56(%rcx), %rcx
	cmpl	4(%rcx), %eax
	jge	.LBB73_10
# %bb.9:                                # %cond.true
	movq	-16(%rbp), %rax
	movq	48(%rax), %rax
	movl	4(%rax), %ecx
	jmp	.LBB73_11
.LBB73_10:                              # %cond.false
	movq	-16(%rbp), %rax
	movq	56(%rax), %rax
	movl	4(%rax), %ecx
.LBB73_11:                              # %cond.end
	xorl	%eax, %eax
	movq	-16(%rbp), %rdx
	movq	40(%rdx), %rdx
	movl	%ecx, 16(%rdx)
	movq	-16(%rbp), %rdx
	movq	40(%rdx), %rdx
	movl	%ecx, 4(%rdx)
	movq	-16(%rbp), %rdx
	movl	%ecx, 36(%rdx)
	movq	-16(%rbp), %rcx
	movq	48(%rcx), %rcx
	movl	4(%rcx), %ecx
	movq	-16(%rbp), %rdx
	movq	40(%rdx), %rdx
	movl	%ecx, 8(%rdx)
	movq	-16(%rbp), %rdx
	movq	40(%rdx), %rdx
	movl	%ecx, 16(%rdx)
	movq	-16(%rbp), %rdx
	movq	56(%rdx), %rdx
	movl	%ecx, 8(%rdx)
	movq	-16(%rbp), %rdx
	movq	48(%rdx), %rdx
	movl	%ecx, 16(%rdx)
	movq	-16(%rbp), %rdx
	movq	56(%rdx), %rdx
	movl	%ecx, 16(%rdx)
	movq	-16(%rbp), %rcx
	movq	56(%rcx), %rcx
	movl	4(%rcx), %ecx
	movq	-16(%rbp), %rdx
	movq	48(%rdx), %rdx
	movl	%ecx, 12(%rdx)
	movq	-16(%rbp), %rcx
	movq	56(%rcx), %rcx
	movl	4(%rcx), %ecx
	movq	-16(%rbp), %rdx
	movq	40(%rdx), %rdx
	movl	%ecx, 12(%rdx)
	movq	-16(%rbp), %rcx
	movq	48(%rcx), %rcx
	cmpl	$0, 6380(%rcx)
	je	.LBB73_13
# %bb.12:                               # %land.rhs
	movq	-16(%rbp), %rax
	movq	56(%rax), %rax
	cmpl	$0, 6380(%rax)
	setne	%al
.LBB73_13:                              # %land.end
	xorl	%ecx, %ecx
	andb	$1, %al
	movzbl	%al, %eax
	movq	-16(%rbp), %rdx
	movq	40(%rdx), %rdx
	movl	%eax, 6380(%rdx)
	movq	-16(%rbp), %rax
	movq	48(%rax), %rax
	cmpl	$0, 6376(%rax)
	je	.LBB73_15
# %bb.14:                               # %land.rhs138
	movq	-16(%rbp), %rax
	movq	56(%rax), %rax
	cmpl	$0, 6376(%rax)
	setne	%cl
.LBB73_15:                              # %land.end142
	andb	$1, %cl
	movzbl	%cl, %eax
	movq	-16(%rbp), %rcx
	movq	40(%rcx), %rcx
	movl	%eax, 6376(%rcx)
	movq	-16(%rbp), %rax
	movq	40(%rax), %rax
	cmpl	$0, 6376(%rax)
	je	.LBB73_17
# %bb.16:                               # %if.then
	movq	-16(%rbp), %rax
	movl	28(%rax), %eax
	movq	-16(%rbp), %rcx
	movq	40(%rcx), %rcx
	movl	%eax, 6372(%rcx)
.LBB73_17:                              # %if.end
	movq	-16(%rbp), %rax
	movq	48(%rax), %rax
	movq	-16(%rbp), %rcx
	movq	40(%rcx), %rcx
	movq	%rax, 6528(%rcx)
	movq	-16(%rbp), %rax
	movq	56(%rax), %rax
	movq	-16(%rbp), %rcx
	movq	40(%rcx), %rcx
	movq	%rax, 6536(%rcx)
	movq	-16(%rbp), %rax
	movq	40(%rax), %rax
	movl	$0, 6412(%rax)
	movq	-16(%rbp), %rax
	movq	48(%rax), %rax
	movl	6552(%rax), %eax
	movq	-16(%rbp), %rcx
	movq	40(%rcx), %rcx
	movl	%eax, 6552(%rcx)
	movq	-16(%rbp), %rax
	movq	48(%rax), %rax
	movl	6560(%rax), %eax
	movq	-16(%rbp), %rcx
	movq	40(%rcx), %rcx
	movl	%eax, 6560(%rcx)
	movq	-16(%rbp), %rax
	movq	40(%rax), %rax
	cmpl	$0, 6560(%rax)
	je	.LBB73_19
# %bb.18:                               # %if.then167
	movq	-16(%rbp), %rax
	movq	48(%rax), %rax
	movl	6572(%rax), %eax
	movq	-16(%rbp), %rcx
	movq	40(%rcx), %rcx
	movl	%eax, 6572(%rcx)
	movq	-16(%rbp), %rax
	movq	48(%rax), %rax
	movl	6576(%rax), %eax
	movq	-16(%rbp), %rcx
	movq	40(%rcx), %rcx
	movl	%eax, 6576(%rcx)
	movq	-16(%rbp), %rax
	movq	48(%rax), %rax
	movl	6564(%rax), %eax
	movq	-16(%rbp), %rcx
	movq	40(%rcx), %rcx
	movl	%eax, 6564(%rcx)
	movq	-16(%rbp), %rax
	movq	48(%rax), %rax
	movl	6568(%rax), %eax
	movq	-16(%rbp), %rcx
	movq	40(%rcx), %rcx
	movl	%eax, 6568(%rcx)
.LBB73_19:                              # %if.end180
	movq	-16(%rbp), %rax
	movq	40(%rax), %rax
	movq	-16(%rbp), %rcx
	movq	56(%rcx), %rcx
	movq	%rax, 6544(%rcx)
	movq	-16(%rbp), %rcx
	movq	48(%rcx), %rcx
	movq	%rax, 6544(%rcx)
	movl	$0, -4(%rbp)
.LBB73_20:                              # %for.cond186
                                        # =>This Inner Loop Header: Depth=1
	movl	-4(%rbp), %ecx
	movl	listXsize+4, %eax
	addl	$1, %eax
	cltd
	movl	$2, %esi
	idivl	%esi
	cmpl	%eax, %ecx
	jge	.LBB73_26
# %bb.21:                               # %for.body190
                                        #   in Loop: Header=BB73_20 Depth=1
	movq	-16(%rbp), %rax
	movq	48(%rax), %rax
	movl	-4(%rbp), %ecx
	shll	$1, %ecx
	movslq	%ecx, %rcx
	movq	288(%rax,%rcx,8), %rax
	cqto
	movl	$2, %esi
	idivq	%rsi
	movq	%rax, %rcx
	shlq	$1, %rcx
	movq	-16(%rbp), %rax
	movq	56(%rax), %rax
	movl	-4(%rbp), %edx
	shll	$1, %edx
	movslq	%edx, %rdx
	movq	288(%rax,%rdx,8), %rax
	cqto
	idivq	%rsi
	shlq	$1, %rax
	cmpq	%rax, %rcx
	jge	.LBB73_23
# %bb.22:                               # %cond.true208
                                        #   in Loop: Header=BB73_20 Depth=1
	movq	-16(%rbp), %rax
	movq	48(%rax), %rax
	movl	-4(%rbp), %ecx
	shll	$1, %ecx
	movslq	%ecx, %rcx
	movq	288(%rax,%rcx,8), %rax
	cqto
	movl	$2, %ecx
	idivq	%rcx
	shlq	$1, %rax
	jmp	.LBB73_24
.LBB73_23:                              # %cond.false217
                                        #   in Loop: Header=BB73_20 Depth=1
	movq	-16(%rbp), %rax
	movq	56(%rax), %rax
	movl	-4(%rbp), %ecx
	shll	$1, %ecx
	movslq	%ecx, %rcx
	movq	288(%rax,%rcx,8), %rax
	cqto
	movl	$2, %ecx
	idivq	%rcx
	shlq	$1, %rax
.LBB73_24:                              # %cond.end226
                                        #   in Loop: Header=BB73_20 Depth=1
	movq	-16(%rbp), %rcx
	movq	40(%rcx), %rcx
	movslq	-4(%rbp), %rdx
	movq	%rax, 288(%rcx,%rdx,8)
# %bb.25:                               # %for.inc233
                                        #   in Loop: Header=BB73_20 Depth=1
	movl	-4(%rbp), %eax
	addl	$1, %eax
	movl	%eax, -4(%rbp)
	jmp	.LBB73_20
.LBB73_26:                              # %for.end235
	movl	$0, -4(%rbp)
.LBB73_27:                              # %for.cond236
                                        # =>This Inner Loop Header: Depth=1
	movl	-4(%rbp), %ecx
	movl	listXsize, %eax
	addl	$1, %eax
	cltd
	movl	$2, %esi
	idivl	%esi
	cmpl	%eax, %ecx
	jge	.LBB73_33
# %bb.28:                               # %for.body241
                                        #   in Loop: Header=BB73_27 Depth=1
	movq	-16(%rbp), %rax
	movq	48(%rax), %rax
	movl	-4(%rbp), %ecx
	shll	$1, %ecx
	movslq	%ecx, %rcx
	movq	24(%rax,%rcx,8), %rax
	cqto
	movl	$2, %esi
	idivq	%rsi
	movq	%rax, %rcx
	shlq	$1, %rcx
	movq	-16(%rbp), %rax
	movq	56(%rax), %rax
	movl	-4(%rbp), %edx
	shll	$1, %edx
	movslq	%edx, %rdx
	movq	24(%rax,%rdx,8), %rax
	cqto
	idivq	%rsi
	shlq	$1, %rax
	cmpq	%rax, %rcx
	jge	.LBB73_30
# %bb.29:                               # %cond.true260
                                        #   in Loop: Header=BB73_27 Depth=1
	movq	-16(%rbp), %rax
	movq	48(%rax), %rax
	movl	-4(%rbp), %ecx
	shll	$1, %ecx
	movslq	%ecx, %rcx
	movq	24(%rax,%rcx,8), %rax
	cqto
	movl	$2, %ecx
	idivq	%rcx
	shlq	$1, %rax
	jmp	.LBB73_31
.LBB73_30:                              # %cond.false269
                                        #   in Loop: Header=BB73_27 Depth=1
	movq	-16(%rbp), %rax
	movq	56(%rax), %rax
	movl	-4(%rbp), %ecx
	shll	$1, %ecx
	movslq	%ecx, %rcx
	movq	24(%rax,%rcx,8), %rax
	cqto
	movl	$2, %ecx
	idivq	%rcx
	shlq	$1, %rax
.LBB73_31:                              # %cond.end278
                                        #   in Loop: Header=BB73_27 Depth=1
	movq	-16(%rbp), %rcx
	movq	40(%rcx), %rcx
	movslq	-4(%rbp), %rdx
	movq	%rax, 24(%rcx,%rdx,8)
# %bb.32:                               # %for.inc285
                                        #   in Loop: Header=BB73_27 Depth=1
	movl	-4(%rbp), %eax
	addl	$1, %eax
	movl	%eax, -4(%rbp)
	jmp	.LBB73_27
.LBB73_33:                              # %for.end287
	movl	$0, -4(%rbp)
.LBB73_34:                              # %for.cond288
                                        # =>This Loop Header: Depth=1
                                        #     Child Loop BB73_36 Depth 2
	movl	-4(%rbp), %ecx
	movq	-16(%rbp), %rax
	movq	48(%rax), %rax
	movl	6392(%rax), %eax
	cltd
	movl	$4, %esi
	idivl	%esi
	cmpl	%eax, %ecx
	jge	.LBB73_65
# %bb.35:                               # %for.body294
                                        #   in Loop: Header=BB73_34 Depth=1
	movl	$0, -20(%rbp)
.LBB73_36:                              # %for.cond295
                                        #   Parent Loop BB73_34 Depth=1
                                        # =>  This Inner Loop Header: Depth=2
	movl	-20(%rbp), %ecx
	movq	-16(%rbp), %rax
	movq	48(%rax), %rax
	movl	6396(%rax), %eax
	cltd
	movl	$4, %esi
	idivl	%esi
	cmpl	%eax, %ecx
	jge	.LBB73_63
# %bb.37:                               # %for.body301
                                        #   in Loop: Header=BB73_36 Depth=2
	movq	-16(%rbp), %rax
	movq	40(%rax), %rax
	movq	6520(%rax), %rax
	movslq	-4(%rbp), %rcx
	movq	(%rax,%rcx,8), %rdi
	movl	-20(%rbp), %eax
	cltd
	movl	$4, %r8d
	idivl	%r8d
	movl	%eax, %ecx
	shll	$3, %ecx
	movl	-20(%rbp), %eax
	cltd
	idivl	%r8d
	addl	%edx, %ecx
	addl	$4, %ecx
	movslq	%ecx, %rax
	movb	$1, (%rdi,%rax)
	movq	-16(%rbp), %rax
	movq	40(%rax), %rax
	movq	6520(%rax), %rax
	movslq	-4(%rbp), %rcx
	movq	(%rax,%rcx,8), %rdi
	movl	-20(%rbp), %eax
	cltd
	idivl	%r8d
	movl	%eax, %ecx
	shll	$3, %ecx
	movl	-20(%rbp), %eax
	cltd
	idivl	%r8d
	addl	%edx, %ecx
	movslq	%ecx, %rax
	movb	$1, (%rdi,%rax)
	movq	-16(%rbp), %rax
	movq	48(%rax), %rax
	movq	6504(%rax), %rax
	movq	(%rax), %rax
	movslq	-4(%rbp), %rcx
	movq	(%rax,%rcx,8), %rax
	movslq	-20(%rbp), %rcx
	movq	(%rax,%rcx,8), %rax
	movw	(%rax), %di
	movq	-16(%rbp), %rax
	movq	40(%rax), %rax
	movq	6504(%rax), %rax
	movq	(%rax), %rax
	movslq	-4(%rbp), %rcx
	movq	(%rax,%rcx,8), %rsi
	movl	-20(%rbp), %eax
	cltd
	idivl	%r8d
	movl	%eax, %ecx
	shll	$3, %ecx
	movl	-20(%rbp), %eax
	cltd
	idivl	%r8d
	addl	%edx, %ecx
	movslq	%ecx, %rax
	movq	(%rsi,%rax,8), %rax
	movw	%di, (%rax)
	movq	-16(%rbp), %rax
	movq	48(%rax), %rax
	movq	6504(%rax), %rax
	movq	(%rax), %rax
	movslq	-4(%rbp), %rcx
	movq	(%rax,%rcx,8), %rax
	movslq	-20(%rbp), %rcx
	movq	(%rax,%rcx,8), %rax
	movw	2(%rax), %si
	movq	-16(%rbp), %rax
	movq	40(%rax), %rax
	movq	6504(%rax), %rax
	movq	(%rax), %rax
	movslq	-4(%rbp), %rcx
	movq	(%rax,%rcx,8), %rdi
	movl	-20(%rbp), %eax
	cltd
	idivl	%r8d
	movl	%eax, %ecx
	shll	$3, %ecx
	movl	-20(%rbp), %eax
	cltd
	idivl	%r8d
	addl	%edx, %ecx
	movslq	%ecx, %rax
	movq	(%rdi,%rax,8), %rax
	movw	%si, 2(%rax)
	movq	-16(%rbp), %rax
	movq	48(%rax), %rax
	movq	6504(%rax), %rax
	movq	8(%rax), %rax
	movslq	-4(%rbp), %rcx
	movq	(%rax,%rcx,8), %rax
	movslq	-20(%rbp), %rcx
	movq	(%rax,%rcx,8), %rax
	movw	(%rax), %si
	movq	-16(%rbp), %rax
	movq	40(%rax), %rax
	movq	6504(%rax), %rax
	movq	8(%rax), %rax
	movslq	-4(%rbp), %rcx
	movq	(%rax,%rcx,8), %rdi
	movl	-20(%rbp), %eax
	cltd
	idivl	%r8d
	movl	%eax, %ecx
	shll	$3, %ecx
	movl	-20(%rbp), %eax
	cltd
	idivl	%r8d
	addl	%edx, %ecx
	movslq	%ecx, %rax
	movq	(%rdi,%rax,8), %rax
	movw	%si, (%rax)
	movq	-16(%rbp), %rax
	movq	48(%rax), %rax
	movq	6504(%rax), %rax
	movq	8(%rax), %rax
	movslq	-4(%rbp), %rcx
	movq	(%rax,%rcx,8), %rax
	movslq	-20(%rbp), %rcx
	movq	(%rax,%rcx,8), %rax
	movw	2(%rax), %si
	movq	-16(%rbp), %rax
	movq	40(%rax), %rax
	movq	6504(%rax), %rax
	movq	8(%rax), %rax
	movslq	-4(%rbp), %rcx
	movq	(%rax,%rcx,8), %rdi
	movl	-20(%rbp), %eax
	cltd
	idivl	%r8d
	movl	%eax, %ecx
	shll	$3, %ecx
	movl	-20(%rbp), %eax
	cltd
	idivl	%r8d
	addl	%edx, %ecx
	movslq	%ecx, %rax
	movq	(%rdi,%rax,8), %rax
	movw	%si, 2(%rax)
	movq	-16(%rbp), %rax
	movq	48(%rax), %rax
	movq	6480(%rax), %rax
	movq	(%rax), %rax
	movslq	-4(%rbp), %rcx
	movq	(%rax,%rcx,8), %rax
	movslq	-20(%rbp), %rcx
	movw	(%rax,%rcx,2), %si
	movq	-16(%rbp), %rax
	movq	40(%rax), %rax
	movq	6480(%rax), %rax
	movq	(%rax), %rax
	movslq	-4(%rbp), %rcx
	movq	(%rax,%rcx,8), %rdi
	movl	-20(%rbp), %eax
	cltd
	idivl	%r8d
	movl	%eax, %ecx
	shll	$3, %ecx
	movl	-20(%rbp), %eax
	cltd
	idivl	%r8d
	addl	%edx, %ecx
	movslq	%ecx, %rax
	movw	%si, (%rdi,%rax,2)
	movswl	%si, %eax
	movl	%eax, -28(%rbp)
	movq	-16(%rbp), %rax
	movq	48(%rax), %rax
	movq	6480(%rax), %rax
	movq	8(%rax), %rax
	movslq	-4(%rbp), %rcx
	movq	(%rax,%rcx,8), %rax
	movslq	-20(%rbp), %rcx
	movw	(%rax,%rcx,2), %si
	movq	-16(%rbp), %rax
	movq	40(%rax), %rax
	movq	6480(%rax), %rax
	movq	8(%rax), %rax
	movslq	-4(%rbp), %rcx
	movq	(%rax,%rcx,8), %rdi
	movl	-20(%rbp), %eax
	cltd
	idivl	%r8d
	movl	%eax, %ecx
	shll	$3, %ecx
	movl	-20(%rbp), %eax
	cltd
	idivl	%r8d
	addl	%edx, %ecx
	movslq	%ecx, %rax
	movw	%si, (%rdi,%rax,2)
	movswl	%si, %eax
	movl	%eax, -24(%rbp)
	cmpl	$0, -28(%rbp)
	jl	.LBB73_39
# %bb.38:                               # %cond.true439
                                        #   in Loop: Header=BB73_36 Depth=2
	movq	-16(%rbp), %rax
	movq	48(%rax), %rax
	movslq	-28(%rbp), %rcx
	movq	24(%rax,%rcx,8), %rax
	jmp	.LBB73_40
.LBB73_39:                              # %cond.false445
                                        #   in Loop: Header=BB73_36 Depth=2
	xorl	%eax, %eax
	jmp	.LBB73_40
.LBB73_40:                              # %cond.end446
                                        #   in Loop: Header=BB73_36 Depth=2
	movq	-16(%rbp), %rcx
	movq	48(%rcx), %rcx
	movq	6496(%rcx), %rcx
	movq	(%rcx), %rcx
	movslq	-4(%rbp), %rdx
	movq	(%rcx,%rdx,8), %rcx
	movslq	-20(%rbp), %rdx
	movq	%rax, (%rcx,%rdx,8)
	cmpl	$0, -24(%rbp)
	jl	.LBB73_42
# %bb.41:                               # %cond.true456
                                        #   in Loop: Header=BB73_36 Depth=2
	movq	-16(%rbp), %rax
	movq	48(%rax), %rax
	movslq	-24(%rbp), %rcx
	movq	288(%rax,%rcx,8), %rax
	jmp	.LBB73_43
.LBB73_42:                              # %cond.false462
                                        #   in Loop: Header=BB73_36 Depth=2
	xorl	%eax, %eax
	jmp	.LBB73_43
.LBB73_43:                              # %cond.end463
                                        #   in Loop: Header=BB73_36 Depth=2
	movq	-16(%rbp), %rcx
	movq	48(%rcx), %rcx
	movq	6496(%rcx), %rcx
	movq	8(%rcx), %rcx
	movslq	-4(%rbp), %rdx
	movq	(%rcx,%rdx,8), %rcx
	movslq	-20(%rbp), %rdx
	movq	%rax, (%rcx,%rdx,8)
	cmpl	$0, -28(%rbp)
	jl	.LBB73_45
# %bb.44:                               # %cond.true474
                                        #   in Loop: Header=BB73_36 Depth=2
	movq	-16(%rbp), %rax
	movq	48(%rax), %rax
	movslq	-28(%rbp), %rcx
	movq	1608(%rax,%rcx,8), %r8
	jmp	.LBB73_46
.LBB73_45:                              # %cond.false479
                                        #   in Loop: Header=BB73_36 Depth=2
	xorl	%r8d, %r8d
	jmp	.LBB73_46
.LBB73_46:                              # %cond.end480
                                        #   in Loop: Header=BB73_36 Depth=2
	movq	-16(%rbp), %rax
	movq	40(%rax), %rax
	movq	6496(%rax), %rax
	movq	(%rax), %rax
	movslq	-4(%rbp), %rcx
	movq	(%rax,%rcx,8), %rdi
	movl	-20(%rbp), %eax
	cltd
	movl	$4, %esi
	idivl	%esi
	movl	%eax, %ecx
	shll	$3, %ecx
	movl	-20(%rbp), %eax
	cltd
	idivl	%esi
	addl	%edx, %ecx
	movslq	%ecx, %rax
	movq	%r8, (%rdi,%rax,8)
	cmpl	$0, -24(%rbp)
	jl	.LBB73_48
# %bb.47:                               # %cond.true495
                                        #   in Loop: Header=BB73_36 Depth=2
	movq	-16(%rbp), %rax
	movq	48(%rax), %rax
	movslq	-24(%rbp), %rcx
	movq	1872(%rax,%rcx,8), %rdi
	jmp	.LBB73_49
.LBB73_48:                              # %cond.false501
                                        #   in Loop: Header=BB73_36 Depth=2
	xorl	%edi, %edi
	jmp	.LBB73_49
.LBB73_49:                              # %cond.end502
                                        #   in Loop: Header=BB73_36 Depth=2
	movq	-16(%rbp), %rax
	movq	40(%rax), %rax
	movq	6496(%rax), %rax
	movq	8(%rax), %rax
	movslq	-4(%rbp), %rcx
	movq	(%rax,%rcx,8), %rsi
	movl	-20(%rbp), %eax
	cltd
	movl	$4, %r8d
	idivl	%r8d
	movl	%eax, %ecx
	shll	$3, %ecx
	movl	-20(%rbp), %eax
	cltd
	idivl	%r8d
	addl	%edx, %ecx
	movslq	%ecx, %rax
	movq	%rdi, (%rsi,%rax,8)
	movq	-16(%rbp), %rax
	movq	56(%rax), %rax
	movq	6504(%rax), %rax
	movq	(%rax), %rax
	movslq	-4(%rbp), %rcx
	movq	(%rax,%rcx,8), %rax
	movslq	-20(%rbp), %rcx
	movq	(%rax,%rcx,8), %rax
	movw	(%rax), %si
	movq	-16(%rbp), %rax
	movq	40(%rax), %rax
	movq	6504(%rax), %rax
	movq	(%rax), %rax
	movslq	-4(%rbp), %rcx
	movq	(%rax,%rcx,8), %rdi
	movl	-20(%rbp), %eax
	cltd
	idivl	%r8d
	movl	%eax, %ecx
	shll	$3, %ecx
	movl	-20(%rbp), %eax
	cltd
	idivl	%r8d
	addl	%edx, %ecx
	addl	$4, %ecx
	movslq	%ecx, %rax
	movq	(%rdi,%rax,8), %rax
	movw	%si, (%rax)
	movq	-16(%rbp), %rax
	movq	56(%rax), %rax
	movq	6504(%rax), %rax
	movq	(%rax), %rax
	movslq	-4(%rbp), %rcx
	movq	(%rax,%rcx,8), %rax
	movslq	-20(%rbp), %rcx
	movq	(%rax,%rcx,8), %rax
	movw	2(%rax), %si
	movq	-16(%rbp), %rax
	movq	40(%rax), %rax
	movq	6504(%rax), %rax
	movq	(%rax), %rax
	movslq	-4(%rbp), %rcx
	movq	(%rax,%rcx,8), %rdi
	movl	-20(%rbp), %eax
	cltd
	idivl	%r8d
	movl	%eax, %ecx
	shll	$3, %ecx
	movl	-20(%rbp), %eax
	cltd
	idivl	%r8d
	addl	%edx, %ecx
	addl	$4, %ecx
	movslq	%ecx, %rax
	movq	(%rdi,%rax,8), %rax
	movw	%si, 2(%rax)
	movq	-16(%rbp), %rax
	movq	56(%rax), %rax
	movq	6504(%rax), %rax
	movq	8(%rax), %rax
	movslq	-4(%rbp), %rcx
	movq	(%rax,%rcx,8), %rax
	movslq	-20(%rbp), %rcx
	movq	(%rax,%rcx,8), %rax
	movw	(%rax), %si
	movq	-16(%rbp), %rax
	movq	40(%rax), %rax
	movq	6504(%rax), %rax
	movq	8(%rax), %rax
	movslq	-4(%rbp), %rcx
	movq	(%rax,%rcx,8), %rdi
	movl	-20(%rbp), %eax
	cltd
	idivl	%r8d
	movl	%eax, %ecx
	shll	$3, %ecx
	movl	-20(%rbp), %eax
	cltd
	idivl	%r8d
	addl	%edx, %ecx
	addl	$4, %ecx
	movslq	%ecx, %rax
	movq	(%rdi,%rax,8), %rax
	movw	%si, (%rax)
	movq	-16(%rbp), %rax
	movq	56(%rax), %rax
	movq	6504(%rax), %rax
	movq	8(%rax), %rax
	movslq	-4(%rbp), %rcx
	movq	(%rax,%rcx,8), %rax
	movslq	-20(%rbp), %rcx
	movq	(%rax,%rcx,8), %rax
	movw	2(%rax), %si
	movq	-16(%rbp), %rax
	movq	40(%rax), %rax
	movq	6504(%rax), %rax
	movq	8(%rax), %rax
	movslq	-4(%rbp), %rcx
	movq	(%rax,%rcx,8), %rdi
	movl	-20(%rbp), %eax
	cltd
	idivl	%r8d
	movl	%eax, %ecx
	shll	$3, %ecx
	movl	-20(%rbp), %eax
	cltd
	idivl	%r8d
	addl	%edx, %ecx
	addl	$4, %ecx
	movslq	%ecx, %rax
	movq	(%rdi,%rax,8), %rax
	movw	%si, 2(%rax)
	movq	-16(%rbp), %rax
	movq	56(%rax), %rax
	movq	6480(%rax), %rax
	movq	(%rax), %rax
	movslq	-4(%rbp), %rcx
	movq	(%rax,%rcx,8), %rax
	movslq	-20(%rbp), %rcx
	movw	(%rax,%rcx,2), %si
	movq	-16(%rbp), %rax
	movq	40(%rax), %rax
	movq	6480(%rax), %rax
	movq	(%rax), %rax
	movslq	-4(%rbp), %rcx
	movq	(%rax,%rcx,8), %rdi
	movl	-20(%rbp), %eax
	cltd
	idivl	%r8d
	movl	%eax, %ecx
	shll	$3, %ecx
	movl	-20(%rbp), %eax
	cltd
	idivl	%r8d
	addl	%edx, %ecx
	addl	$4, %ecx
	movslq	%ecx, %rax
	movw	%si, (%rdi,%rax,2)
	movswl	%si, %eax
	movl	%eax, -28(%rbp)
	movq	-16(%rbp), %rax
	movq	56(%rax), %rax
	movq	6480(%rax), %rax
	movq	8(%rax), %rax
	movslq	-4(%rbp), %rcx
	movq	(%rax,%rcx,8), %rax
	movslq	-20(%rbp), %rcx
	movw	(%rax,%rcx,2), %si
	movq	-16(%rbp), %rax
	movq	40(%rax), %rax
	movq	6480(%rax), %rax
	movq	8(%rax), %rax
	movslq	-4(%rbp), %rcx
	movq	(%rax,%rcx,8), %rdi
	movl	-20(%rbp), %eax
	cltd
	idivl	%r8d
	movl	%eax, %ecx
	shll	$3, %ecx
	movl	-20(%rbp), %eax
	cltd
	idivl	%r8d
	addl	%edx, %ecx
	addl	$4, %ecx
	movslq	%ecx, %rax
	movw	%si, (%rdi,%rax,2)
	movswl	%si, %eax
	movl	%eax, -24(%rbp)
	cmpl	$0, -28(%rbp)
	jl	.LBB73_51
# %bb.50:                               # %cond.true641
                                        #   in Loop: Header=BB73_36 Depth=2
	movq	-16(%rbp), %rax
	movq	56(%rax), %rax
	movslq	-28(%rbp), %rcx
	movq	24(%rax,%rcx,8), %rax
	jmp	.LBB73_52
.LBB73_51:                              # %cond.false647
                                        #   in Loop: Header=BB73_36 Depth=2
	xorl	%eax, %eax
	jmp	.LBB73_52
.LBB73_52:                              # %cond.end648
                                        #   in Loop: Header=BB73_36 Depth=2
	movq	-16(%rbp), %rcx
	movq	56(%rcx), %rcx
	movq	6496(%rcx), %rcx
	movq	(%rcx), %rcx
	movslq	-4(%rbp), %rdx
	movq	(%rcx,%rdx,8), %rcx
	movslq	-20(%rbp), %rdx
	movq	%rax, (%rcx,%rdx,8)
	cmpl	$0, -24(%rbp)
	jl	.LBB73_54
# %bb.53:                               # %cond.true659
                                        #   in Loop: Header=BB73_36 Depth=2
	movq	-16(%rbp), %rax
	movq	56(%rax), %rax
	movslq	-24(%rbp), %rcx
	movq	288(%rax,%rcx,8), %rax
	jmp	.LBB73_55
.LBB73_54:                              # %cond.false665
                                        #   in Loop: Header=BB73_36 Depth=2
	xorl	%eax, %eax
	jmp	.LBB73_55
.LBB73_55:                              # %cond.end666
                                        #   in Loop: Header=BB73_36 Depth=2
	movq	-16(%rbp), %rcx
	movq	56(%rcx), %rcx
	movq	6496(%rcx), %rcx
	movq	8(%rcx), %rcx
	movslq	-4(%rbp), %rdx
	movq	(%rcx,%rdx,8), %rcx
	movslq	-20(%rbp), %rdx
	movq	%rax, (%rcx,%rdx,8)
	cmpl	$0, -28(%rbp)
	jl	.LBB73_57
# %bb.56:                               # %cond.true677
                                        #   in Loop: Header=BB73_36 Depth=2
	movq	-16(%rbp), %rax
	movq	56(%rax), %rax
	movslq	-28(%rbp), %rcx
	movq	1608(%rax,%rcx,8), %r8
	jmp	.LBB73_58
.LBB73_57:                              # %cond.false683
                                        #   in Loop: Header=BB73_36 Depth=2
	movq	$-1, %r8
	jmp	.LBB73_58
.LBB73_58:                              # %cond.end684
                                        #   in Loop: Header=BB73_36 Depth=2
	movq	-16(%rbp), %rax
	movq	40(%rax), %rax
	movq	6496(%rax), %rax
	movq	(%rax), %rax
	movslq	-4(%rbp), %rcx
	movq	(%rax,%rcx,8), %rdi
	movl	-20(%rbp), %eax
	cltd
	movl	$4, %esi
	idivl	%esi
	movl	%eax, %ecx
	shll	$3, %ecx
	movl	-20(%rbp), %eax
	cltd
	idivl	%esi
	addl	%edx, %ecx
	addl	$4, %ecx
	movslq	%ecx, %rax
	movq	%r8, (%rdi,%rax,8)
	cmpl	$0, -24(%rbp)
	jl	.LBB73_60
# %bb.59:                               # %cond.true700
                                        #   in Loop: Header=BB73_36 Depth=2
	movq	-16(%rbp), %rax
	movq	56(%rax), %rax
	movslq	-24(%rbp), %rcx
	movq	1872(%rax,%rcx,8), %r8
	jmp	.LBB73_61
.LBB73_60:                              # %cond.false706
                                        #   in Loop: Header=BB73_36 Depth=2
	movq	$-1, %r8
	jmp	.LBB73_61
.LBB73_61:                              # %cond.end707
                                        #   in Loop: Header=BB73_36 Depth=2
	movq	-16(%rbp), %rax
	movq	40(%rax), %rax
	movq	6496(%rax), %rax
	movq	8(%rax), %rax
	movslq	-4(%rbp), %rcx
	movq	(%rax,%rcx,8), %rdi
	movl	-20(%rbp), %eax
	cltd
	movl	$4, %esi
	idivl	%esi
	movl	%eax, %ecx
	shll	$3, %ecx
	movl	-20(%rbp), %eax
	cltd
	idivl	%esi
	addl	%edx, %ecx
	addl	$4, %ecx
	movslq	%ecx, %rax
	movq	%r8, (%rdi,%rax,8)
# %bb.62:                               # %for.inc721
                                        #   in Loop: Header=BB73_36 Depth=2
	movl	-20(%rbp), %eax
	addl	$1, %eax
	movl	%eax, -20(%rbp)
	jmp	.LBB73_36
.LBB73_63:                              # %for.end723
                                        #   in Loop: Header=BB73_34 Depth=1
	jmp	.LBB73_64
.LBB73_64:                              # %for.inc724
                                        #   in Loop: Header=BB73_34 Depth=1
	movl	-4(%rbp), %eax
	addl	$1, %eax
	movl	%eax, -4(%rbp)
	jmp	.LBB73_34
.LBB73_65:                              # %for.end726
	movq	active_sps, %rax
	cmpl	$0, 1148(%rax)
	je	.LBB73_67
# %bb.66:                               # %lor.lhs.false
	movq	active_sps, %rax
	cmpl	$0, 1156(%rax)
	je	.LBB73_76
.LBB73_67:                              # %if.then729
	movl	$0, -4(%rbp)
.LBB73_68:                              # %for.cond730
                                        # =>This Loop Header: Depth=1
                                        #     Child Loop BB73_70 Depth 2
	movl	-4(%rbp), %ecx
	movq	-16(%rbp), %rax
	movq	48(%rax), %rax
	movl	6392(%rax), %eax
	cltd
	movl	$4, %esi
	idivl	%esi
	cmpl	%eax, %ecx
	jge	.LBB73_75
# %bb.69:                               # %for.body736
                                        #   in Loop: Header=BB73_68 Depth=1
	movl	$0, -20(%rbp)
.LBB73_70:                              # %for.cond737
                                        #   Parent Loop BB73_68 Depth=1
                                        # =>  This Inner Loop Header: Depth=2
	movl	-20(%rbp), %ecx
	movq	-16(%rbp), %rax
	movq	48(%rax), %rax
	movl	6396(%rax), %eax
	cltd
	movl	$4, %esi
	idivl	%esi
	cmpl	%eax, %ecx
	jge	.LBB73_73
# %bb.71:                               # %for.body743
                                        #   in Loop: Header=BB73_70 Depth=2
	movq	-16(%rbp), %rax
	movq	48(%rax), %rax
	movq	6520(%rax), %rax
	movslq	-4(%rbp), %rcx
	movq	(%rax,%rcx,8), %rax
	movslq	-20(%rbp), %rcx
	movb	$1, (%rax,%rcx)
	movq	-16(%rbp), %rax
	movq	56(%rax), %rax
	movq	6520(%rax), %rax
	movslq	-4(%rbp), %rcx
	movq	(%rax,%rcx,8), %rax
	movslq	-20(%rbp), %rcx
	movb	$1, (%rax,%rcx)
# %bb.72:                               # %for.inc756
                                        #   in Loop: Header=BB73_70 Depth=2
	movl	-20(%rbp), %eax
	addl	$1, %eax
	movl	%eax, -20(%rbp)
	jmp	.LBB73_70
.LBB73_73:                              # %for.end758
                                        #   in Loop: Header=BB73_68 Depth=1
	jmp	.LBB73_74
.LBB73_74:                              # %for.inc759
                                        #   in Loop: Header=BB73_68 Depth=1
	movl	-4(%rbp), %eax
	addl	$1, %eax
	movl	%eax, -4(%rbp)
	jmp	.LBB73_68
.LBB73_75:                              # %for.end761
	jmp	.LBB73_76
.LBB73_76:                              # %if.end762
	cmpl	$1496204514, -32(%rbp)  # imm = 0x592E44E2
	jne	.LBB73_78
.LBB73_77:
	addq	$32, %rsp
	popq	%rbp
	.cfi_def_cfa %rsp, 8
	retq
.LBB73_78:                              # %func_exit
	.cfi_def_cfa %rbp, 16
	callq	detect_breach
	jmp	.LBB73_77
.Lfunc_end73:
	.size	dpb_combine_field.10, .Lfunc_end73-dpb_combine_field.10
	.cfi_endproc
                                        # -- End function
	.globl	mm_update_max_long_term_frame_idx.11 # -- Begin function mm_update_max_long_term_frame_idx.11
	.p2align	4, 0x90
	.type	mm_update_max_long_term_frame_idx.11,@function
mm_update_max_long_term_frame_idx.11:   # @mm_update_max_long_term_frame_idx.11
	.cfi_startproc
# %bb.0:                                # %entry
	pushq	%rbp
	.cfi_def_cfa_offset 16
	.cfi_offset %rbp, -16
	movq	%rsp, %rbp
	.cfi_def_cfa_register %rbp
	subq	$16, %rsp
	movl	$937817002, -12(%rbp)   # imm = 0x37E5F3AA
	movl	%edi, -8(%rbp)
	movl	-8(%rbp), %eax
	subl	$1, %eax
	movl	%eax, dpb+44
	movl	$0, -4(%rbp)
.LBB74_1:                               # %for.cond
                                        # =>This Inner Loop Header: Depth=1
	movl	-4(%rbp), %eax
	cmpl	dpb+36, %eax
	jae	.LBB74_6
# %bb.2:                                # %for.body
                                        #   in Loop: Header=BB74_1 Depth=1
	movq	dpb+16, %rax
	movl	-4(%rbp), %ecx
	movq	(%rax,%rcx,8), %rax
	movl	28(%rax), %eax
	cmpl	dpb+44, %eax
	jle	.LBB74_4
# %bb.3:                                # %if.then
                                        #   in Loop: Header=BB74_1 Depth=1
	movq	dpb+16, %rax
	movl	-4(%rbp), %ecx
	movq	(%rax,%rcx,8), %rdi
	callq	unmark_for_long_term_reference
.LBB74_4:                               # %if.end
                                        #   in Loop: Header=BB74_1 Depth=1
	jmp	.LBB74_5
.LBB74_5:                               # %for.inc
                                        #   in Loop: Header=BB74_1 Depth=1
	movl	-4(%rbp), %eax
	addl	$1, %eax
	movl	%eax, -4(%rbp)
	jmp	.LBB74_1
.LBB74_6:                               # %for.end
	cmpl	$937817002, -12(%rbp)   # imm = 0x37E5F3AA
	jne	.LBB74_8
.LBB74_7:
	addq	$16, %rsp
	popq	%rbp
	.cfi_def_cfa %rsp, 8
	retq
.LBB74_8:                               # %func_exit
	.cfi_def_cfa %rbp, 16
	callq	detect_breach
	jmp	.LBB74_7
.Lfunc_end74:
	.size	mm_update_max_long_term_frame_idx.11, .Lfunc_end74-mm_update_max_long_term_frame_idx.11
	.cfi_endproc
                                        # -- End function
	.p2align	4, 0x90         # -- Begin function adaptive_memory_management.12
	.type	adaptive_memory_management.12,@function
adaptive_memory_management.12:          # @adaptive_memory_management.12
	.cfi_startproc
# %bb.0:                                # %entry
	pushq	%rbp
	.cfi_def_cfa_offset 16
	.cfi_offset %rbp, -16
	movq	%rsp, %rbp
	.cfi_def_cfa_register %rbp
	subq	$32, %rsp
	movl	$1507108718, -20(%rbp)  # imm = 0x59D4A76E
	movq	%rdi, -16(%rbp)
	movq	img, %rax
	movl	$0, 72644(%rax)
.LBB75_1:                               # %while.cond
                                        # =>This Inner Loop Header: Depth=1
	movq	img, %rax
	cmpq	$0, 72512(%rax)
	je	.LBB75_15
# %bb.2:                                # %while.body
                                        #   in Loop: Header=BB75_1 Depth=1
	movq	img(%rip), %rax
	movq	72512(%rax), %rax
	movq	%rax, -8(%rbp)
	movq	-8(%rbp), %rax
	movl	(%rax), %eax
	movq	%rax, %rcx
	subq	$6, %rcx
	ja	.LBB75_13
# %bb.3:                                # %while.body
                                        #   in Loop: Header=BB75_1 Depth=1
	movq	.LJTI75_0(,%rax,8), %rax
	jmpq	*%rax
.LBB75_4:                               # %sw.bb
                                        #   in Loop: Header=BB75_1 Depth=1
	movq	-8(%rbp), %rax
	cmpq	$0, 24(%rax)
	je	.LBB75_6
# %bb.5:                                # %if.then
                                        #   in Loop: Header=BB75_1 Depth=1
	movabsq	$.L.str.22, %rdi
	movl	$500, %esi              # imm = 0x1F4
	callq	error
.LBB75_6:                               # %if.end
                                        #   in Loop: Header=BB75_1 Depth=1
	jmp	.LBB75_14
.LBB75_7:                               # %sw.bb2
                                        #   in Loop: Header=BB75_1 Depth=1
	movq	-16(%rbp), %rdi
	movq	-8(%rbp), %rax
	movl	4(%rax), %esi
	callq	mm_unmark_short_term_for_reference
	callq	update_ref_list
	jmp	.LBB75_14
.LBB75_8:                               # %sw.bb3
                                        #   in Loop: Header=BB75_1 Depth=1
	movq	-16(%rbp), %rdi
	movq	-8(%rbp), %rax
	movl	8(%rax), %esi
	callq	mm_unmark_long_term_for_reference
	callq	update_ltref_list
	jmp	.LBB75_14
.LBB75_9:                               # %sw.bb4
                                        #   in Loop: Header=BB75_1 Depth=1
	movq	-16(%rbp), %rdi
	movq	-8(%rbp), %rax
	movl	4(%rax), %esi
	movq	-8(%rbp), %rax
	movl	12(%rax), %edx
	callq	mm_assign_long_term_frame_idx
	callq	update_ref_list
	callq	update_ltref_list
	jmp	.LBB75_14
.LBB75_10:                              # %sw.bb6
                                        #   in Loop: Header=BB75_1 Depth=1
	movq	-8(%rbp), %rax
	movl	16(%rax), %edi
	callq	mm_update_max_long_term_frame_idx
	callq	update_ltref_list
	jmp	.LBB75_14
.LBB75_11:                              # %sw.bb7
                                        #   in Loop: Header=BB75_1 Depth=1
	callq	mm_unmark_all_short_term_for_reference
	callq	mm_unmark_all_long_term_for_reference
	movq	img, %rax
	movl	$1, 72644(%rax)
	jmp	.LBB75_14
.LBB75_12:                              # %sw.bb9
                                        #   in Loop: Header=BB75_1 Depth=1
	movq	-16(%rbp), %rdi
	movq	-8(%rbp), %rax
	movl	12(%rax), %esi
	callq	mm_mark_current_picture_long_term
	jmp	.LBB75_14
.LBB75_13:                              # %sw.default
                                        #   in Loop: Header=BB75_1 Depth=1
	movabsq	$.L.str.23, %rdi
	movl	$500, %esi              # imm = 0x1F4
	callq	error
.LBB75_14:                              # %sw.epilog
                                        #   in Loop: Header=BB75_1 Depth=1
	movq	-8(%rbp), %rax
	movq	24(%rax), %rax
	movq	img, %rcx
	movq	%rax, 72512(%rcx)
	movq	-8(%rbp), %rdi
	callq	free
	jmp	.LBB75_1
.LBB75_15:                              # %while.end
	movq	img, %rax
	cmpl	$0, 72644(%rax)
	je	.LBB75_23
# %bb.16:                               # %if.then15
	movq	-16(%rbp), %rax
	movl	$0, 6360(%rax)
	movq	-16(%rbp), %rax
	movl	$0, 6364(%rax)
	movq	-16(%rbp), %rax
	movl	$0, 4(%rax)
	movq	img(%rip), %rax
	movl	$0, 72460(%rax)
	movq	-16(%rbp), %rax
	movl	(%rax), %eax
	testl	%eax, %eax
	je	.LBB75_21
	jmp	.LBB75_17
.LBB75_17:                              # %if.then15
	movl	%eax, %ecx
	subl	$1, %ecx
	je	.LBB75_19
	jmp	.LBB75_18
.LBB75_18:                              # %if.then15
	subl	$2, %eax
	je	.LBB75_20
	jmp	.LBB75_22
.LBB75_19:                              # %sw.bb16
	movq	img, %rax
	movl	$0, 72448(%rax)
	jmp	.LBB75_22
.LBB75_20:                              # %sw.bb17
	movq	img, %rax
	movl	$0, 72452(%rax)
	jmp	.LBB75_22
.LBB75_21:                              # %sw.bb18
	movq	img, %rax
	movl	$0, 72456(%rax)
.LBB75_22:                              # %sw.epilog19
	callq	flush_dpb
.LBB75_23:                              # %if.end20
	cmpl	$1507108718, -20(%rbp)  # imm = 0x59D4A76E
	jne	.LBB75_25
.LBB75_24:
	addq	$32, %rsp
	popq	%rbp
	.cfi_def_cfa %rsp, 8
	retq
.LBB75_25:                              # %func_exit
	.cfi_def_cfa %rbp, 16
	callq	detect_breach
	jmp	.LBB75_24
.Lfunc_end75:
	.size	adaptive_memory_management.12, .Lfunc_end75-adaptive_memory_management.12
	.cfi_endproc
	.section	.rodata,"a",@progbits
	.p2align	3
.LJTI75_0:
	.quad	.LBB75_4
	.quad	.LBB75_7
	.quad	.LBB75_8
	.quad	.LBB75_9
	.quad	.LBB75_10
	.quad	.LBB75_11
	.quad	.LBB75_12
                                        # -- End function
	.text
	.p2align	4, 0x90         # -- Begin function output_one_frame_from_dpb.13
	.type	output_one_frame_from_dpb.13,@function
output_one_frame_from_dpb.13:           # @output_one_frame_from_dpb.13
	.cfi_startproc
# %bb.0:                                # %entry
	pushq	%rbp
	.cfi_def_cfa_offset 16
	.cfi_offset %rbp, -16
	movq	%rsp, %rbp
	.cfi_def_cfa_register %rbp
	subq	$16, %rsp
	movl	$247805430, -12(%rbp)   # imm = 0xEC535F6
	cmpl	$1, dpb+28
	jae	.LBB76_2
# %bb.1:                                # %if.then
	movabsq	$.L.str.30, %rdi
	movl	$150, %esi
	callq	error
.LBB76_2:                               # %if.end
	leaq	-8(%rbp), %rdi
	leaq	-4(%rbp), %rsi
	callq	get_smallest_poc
	cmpl	$-1, -4(%rbp)
	jne	.LBB76_4
# %bb.3:                                # %if.then2
	movabsq	$.L.str.31, %rdi
	movl	$150, %esi
	callq	error
.LBB76_4:                               # %if.end3
	movq	dpb, %rax
	movslq	-4(%rbp), %rcx
	movq	(%rax,%rcx,8), %rdi
	movl	p_dec, %esi
	callq	write_stored_frame
	movl	dpb+40, %eax
	cmpl	-8(%rbp), %eax
	jl	.LBB76_6
# %bb.5:                                # %if.then5
	movabsq	$.L.str.32, %rdi
	movl	$150, %esi
	callq	error
.LBB76_6:                               # %if.end6
	movl	-8(%rbp), %eax
	movl	%eax, dpb+40
	movq	dpb, %rax
	movslq	-4(%rbp), %rcx
	movq	(%rax,%rcx,8), %rdi
	callq	is_used_for_reference
	cmpl	$0, %eax
	jne	.LBB76_8
# %bb.7:                                # %if.then9
	movl	-4(%rbp), %edi
	callq	remove_frame_from_dpb
.LBB76_8:                               # %if.end10
	cmpl	$247805430, -12(%rbp)   # imm = 0xEC535F6
	jne	.LBB76_10
.LBB76_9:
	addq	$16, %rsp
	popq	%rbp
	.cfi_def_cfa %rsp, 8
	retq
.LBB76_10:                              # %func_exit
	.cfi_def_cfa %rbp, 16
	callq	detect_breach
	jmp	.LBB76_9
.Lfunc_end76:
	.size	output_one_frame_from_dpb.13, .Lfunc_end76-output_one_frame_from_dpb.13
	.cfi_endproc
                                        # -- End function
	.globl	dpb_combine_field.14    # -- Begin function dpb_combine_field.14
	.p2align	4, 0x90
	.type	dpb_combine_field.14,@function
dpb_combine_field.14:                   # @dpb_combine_field.14
	.cfi_startproc
# %bb.0:                                # %entry
	pushq	%rbp
	.cfi_def_cfa_offset 16
	.cfi_offset %rbp, -16
	movq	%rsp, %rbp
	.cfi_def_cfa_register %rbp
	subq	$32, %rsp
	movl	$971542606, -32(%rbp)   # imm = 0x39E8904E
	movq	%rdi, -16(%rbp)
	movq	-16(%rbp), %rax
	movq	48(%rax), %rax
	movl	6392(%rax), %esi
	movq	-16(%rbp), %rax
	movq	48(%rax), %rax
	movl	6396(%rax), %edx
	shll	$1, %edx
	movq	-16(%rbp), %rax
	movq	48(%rax), %rax
	movl	6400(%rax), %ecx
	movq	-16(%rbp), %rax
	movq	48(%rax), %rax
	movl	6404(%rax), %r8d
	shll	$1, %r8d
	xorl	%edi, %edi
	callq	alloc_storable_picture
	movq	-16(%rbp), %rcx
	movq	%rax, 40(%rcx)
	movl	$0, -4(%rbp)
.LBB77_1:                               # %for.cond
                                        # =>This Inner Loop Header: Depth=1
	movl	-4(%rbp), %eax
	movq	-16(%rbp), %rcx
	movq	48(%rcx), %rcx
	cmpl	6396(%rcx), %eax
	jge	.LBB77_4
# %bb.2:                                # %for.body
                                        #   in Loop: Header=BB77_1 Depth=1
	movq	-16(%rbp), %rax
	movq	40(%rax), %rax
	movq	6424(%rax), %rax
	movl	-4(%rbp), %ecx
	shll	$1, %ecx
	movslq	%ecx, %rcx
	movq	(%rax,%rcx,8), %rdi
	movq	-16(%rbp), %rax
	movq	48(%rax), %rax
	movq	6424(%rax), %rax
	movslq	-4(%rbp), %rcx
	movq	(%rax,%rcx,8), %rsi
	movq	-16(%rbp), %rax
	movq	48(%rax), %rax
	movslq	6392(%rax), %rdx
	shlq	$1, %rdx
	callq	memcpy
	movq	-16(%rbp), %rax
	movq	40(%rax), %rax
	movq	6424(%rax), %rax
	movl	-4(%rbp), %ecx
	shll	$1, %ecx
	addl	$1, %ecx
	movslq	%ecx, %rcx
	movq	(%rax,%rcx,8), %rdi
	movq	-16(%rbp), %rax
	movq	56(%rax), %rax
	movq	6424(%rax), %rax
	movslq	-4(%rbp), %rcx
	movq	(%rax,%rcx,8), %rsi
	movq	-16(%rbp), %rax
	movq	56(%rax), %rax
	movslq	6392(%rax), %rdx
	shlq	$1, %rdx
	callq	memcpy
# %bb.3:                                # %for.inc
                                        #   in Loop: Header=BB77_1 Depth=1
	movl	-4(%rbp), %eax
	addl	$1, %eax
	movl	%eax, -4(%rbp)
	jmp	.LBB77_1
.LBB77_4:                               # %for.end
	movl	$0, -4(%rbp)
.LBB77_5:                               # %for.cond28
                                        # =>This Inner Loop Header: Depth=1
	movl	-4(%rbp), %eax
	movq	-16(%rbp), %rcx
	movq	48(%rcx), %rcx
	cmpl	6404(%rcx), %eax
	jge	.LBB77_8
# %bb.6:                                # %for.body33
                                        #   in Loop: Header=BB77_5 Depth=1
	movq	-16(%rbp), %rax
	movq	40(%rax), %rax
	movq	6464(%rax), %rax
	movq	(%rax), %rax
	movl	-4(%rbp), %ecx
	shll	$1, %ecx
	movslq	%ecx, %rcx
	movq	(%rax,%rcx,8), %rdi
	movq	-16(%rbp), %rax
	movq	48(%rax), %rax
	movq	6464(%rax), %rax
	movq	(%rax), %rax
	movslq	-4(%rbp), %rcx
	movq	(%rax,%rcx,8), %rsi
	movq	-16(%rbp), %rax
	movq	48(%rax), %rax
	movslq	6400(%rax), %rdx
	shlq	$1, %rdx
	callq	memcpy
	movq	-16(%rbp), %rax
	movq	40(%rax), %rax
	movq	6464(%rax), %rax
	movq	(%rax), %rax
	movl	-4(%rbp), %ecx
	shll	$1, %ecx
	addl	$1, %ecx
	movslq	%ecx, %rcx
	movq	(%rax,%rcx,8), %rdi
	movq	-16(%rbp), %rax
	movq	56(%rax), %rax
	movq	6464(%rax), %rax
	movq	(%rax), %rax
	movslq	-4(%rbp), %rcx
	movq	(%rax,%rcx,8), %rsi
	movq	-16(%rbp), %rax
	movq	56(%rax), %rax
	movslq	6400(%rax), %rdx
	shlq	$1, %rdx
	callq	memcpy
	movq	-16(%rbp), %rax
	movq	40(%rax), %rax
	movq	6464(%rax), %rax
	movq	8(%rax), %rax
	movl	-4(%rbp), %ecx
	shll	$1, %ecx
	movslq	%ecx, %rcx
	movq	(%rax,%rcx,8), %rdi
	movq	-16(%rbp), %rax
	movq	48(%rax), %rax
	movq	6464(%rax), %rax
	movq	8(%rax), %rax
	movslq	-4(%rbp), %rcx
	movq	(%rax,%rcx,8), %rsi
	movq	-16(%rbp), %rax
	movq	48(%rax), %rax
	movslq	6400(%rax), %rdx
	shlq	$1, %rdx
	callq	memcpy
	movq	-16(%rbp), %rax
	movq	40(%rax), %rax
	movq	6464(%rax), %rax
	movq	8(%rax), %rax
	movl	-4(%rbp), %ecx
	shll	$1, %ecx
	addl	$1, %ecx
	movslq	%ecx, %rcx
	movq	(%rax,%rcx,8), %rdi
	movq	-16(%rbp), %rax
	movq	56(%rax), %rax
	movq	6464(%rax), %rax
	movq	8(%rax), %rax
	movslq	-4(%rbp), %rcx
	movq	(%rax,%rcx,8), %rsi
	movq	-16(%rbp), %rax
	movq	56(%rax), %rax
	movslq	6400(%rax), %rdx
	shlq	$1, %rdx
	callq	memcpy
# %bb.7:                                # %for.inc95
                                        #   in Loop: Header=BB77_5 Depth=1
	movl	-4(%rbp), %eax
	addl	$1, %eax
	movl	%eax, -4(%rbp)
	jmp	.LBB77_5
.LBB77_8:                               # %for.end97
	movq	-16(%rbp), %rax
	movq	40(%rax), %rdi
	callq	UnifiedOneForthPix
	movq	-16(%rbp), %rax
	movq	48(%rax), %rax
	movl	4(%rax), %eax
	movq	-16(%rbp), %rcx
	movq	56(%rcx), %rcx
	cmpl	4(%rcx), %eax
	jge	.LBB77_10
# %bb.9:                                # %cond.true
	movq	-16(%rbp), %rax
	movq	48(%rax), %rax
	movl	4(%rax), %ecx
	jmp	.LBB77_11
.LBB77_10:                              # %cond.false
	movq	-16(%rbp), %rax
	movq	56(%rax), %rax
	movl	4(%rax), %ecx
.LBB77_11:                              # %cond.end
	xorl	%eax, %eax
	movq	-16(%rbp), %rdx
	movq	40(%rdx), %rdx
	movl	%ecx, 16(%rdx)
	movq	-16(%rbp), %rdx
	movq	40(%rdx), %rdx
	movl	%ecx, 4(%rdx)
	movq	-16(%rbp), %rdx
	movl	%ecx, 36(%rdx)
	movq	-16(%rbp), %rcx
	movq	48(%rcx), %rcx
	movl	4(%rcx), %ecx
	movq	-16(%rbp), %rdx
	movq	40(%rdx), %rdx
	movl	%ecx, 8(%rdx)
	movq	-16(%rbp), %rdx
	movq	40(%rdx), %rdx
	movl	%ecx, 16(%rdx)
	movq	-16(%rbp), %rdx
	movq	56(%rdx), %rdx
	movl	%ecx, 8(%rdx)
	movq	-16(%rbp), %rdx
	movq	48(%rdx), %rdx
	movl	%ecx, 16(%rdx)
	movq	-16(%rbp), %rdx
	movq	56(%rdx), %rdx
	movl	%ecx, 16(%rdx)
	movq	-16(%rbp), %rcx
	movq	56(%rcx), %rcx
	movl	4(%rcx), %ecx
	movq	-16(%rbp), %rdx
	movq	48(%rdx), %rdx
	movl	%ecx, 12(%rdx)
	movq	-16(%rbp), %rcx
	movq	56(%rcx), %rcx
	movl	4(%rcx), %ecx
	movq	-16(%rbp), %rdx
	movq	40(%rdx), %rdx
	movl	%ecx, 12(%rdx)
	movq	-16(%rbp), %rcx
	movq	48(%rcx), %rcx
	cmpl	$0, 6380(%rcx)
	je	.LBB77_13
# %bb.12:                               # %land.rhs
	movq	-16(%rbp), %rax
	movq	56(%rax), %rax
	cmpl	$0, 6380(%rax)
	setne	%al
.LBB77_13:                              # %land.end
	xorl	%ecx, %ecx
	andb	$1, %al
	movzbl	%al, %eax
	movq	-16(%rbp), %rdx
	movq	40(%rdx), %rdx
	movl	%eax, 6380(%rdx)
	movq	-16(%rbp), %rax
	movq	48(%rax), %rax
	cmpl	$0, 6376(%rax)
	je	.LBB77_15
# %bb.14:                               # %land.rhs138
	movq	-16(%rbp), %rax
	movq	56(%rax), %rax
	cmpl	$0, 6376(%rax)
	setne	%cl
.LBB77_15:                              # %land.end142
	andb	$1, %cl
	movzbl	%cl, %eax
	movq	-16(%rbp), %rcx
	movq	40(%rcx), %rcx
	movl	%eax, 6376(%rcx)
	movq	-16(%rbp), %rax
	movq	40(%rax), %rax
	cmpl	$0, 6376(%rax)
	je	.LBB77_17
# %bb.16:                               # %if.then
	movq	-16(%rbp), %rax
	movl	28(%rax), %eax
	movq	-16(%rbp), %rcx
	movq	40(%rcx), %rcx
	movl	%eax, 6372(%rcx)
.LBB77_17:                              # %if.end
	movq	-16(%rbp), %rax
	movq	48(%rax), %rax
	movq	-16(%rbp), %rcx
	movq	40(%rcx), %rcx
	movq	%rax, 6528(%rcx)
	movq	-16(%rbp), %rax
	movq	56(%rax), %rax
	movq	-16(%rbp), %rcx
	movq	40(%rcx), %rcx
	movq	%rax, 6536(%rcx)
	movq	-16(%rbp), %rax
	movq	40(%rax), %rax
	movl	$0, 6412(%rax)
	movq	-16(%rbp), %rax
	movq	48(%rax), %rax
	movl	6552(%rax), %eax
	movq	-16(%rbp), %rcx
	movq	40(%rcx), %rcx
	movl	%eax, 6552(%rcx)
	movq	-16(%rbp), %rax
	movq	48(%rax), %rax
	movl	6560(%rax), %eax
	movq	-16(%rbp), %rcx
	movq	40(%rcx), %rcx
	movl	%eax, 6560(%rcx)
	movq	-16(%rbp), %rax
	movq	40(%rax), %rax
	cmpl	$0, 6560(%rax)
	je	.LBB77_19
# %bb.18:                               # %if.then167
	movq	-16(%rbp), %rax
	movq	48(%rax), %rax
	movl	6572(%rax), %eax
	movq	-16(%rbp), %rcx
	movq	40(%rcx), %rcx
	movl	%eax, 6572(%rcx)
	movq	-16(%rbp), %rax
	movq	48(%rax), %rax
	movl	6576(%rax), %eax
	movq	-16(%rbp), %rcx
	movq	40(%rcx), %rcx
	movl	%eax, 6576(%rcx)
	movq	-16(%rbp), %rax
	movq	48(%rax), %rax
	movl	6564(%rax), %eax
	movq	-16(%rbp), %rcx
	movq	40(%rcx), %rcx
	movl	%eax, 6564(%rcx)
	movq	-16(%rbp), %rax
	movq	48(%rax), %rax
	movl	6568(%rax), %eax
	movq	-16(%rbp), %rcx
	movq	40(%rcx), %rcx
	movl	%eax, 6568(%rcx)
.LBB77_19:                              # %if.end180
	movq	-16(%rbp), %rax
	movq	40(%rax), %rax
	movq	-16(%rbp), %rcx
	movq	56(%rcx), %rcx
	movq	%rax, 6544(%rcx)
	movq	-16(%rbp), %rcx
	movq	48(%rcx), %rcx
	movq	%rax, 6544(%rcx)
	movl	$0, -4(%rbp)
.LBB77_20:                              # %for.cond186
                                        # =>This Inner Loop Header: Depth=1
	movl	-4(%rbp), %ecx
	movl	listXsize+4, %eax
	addl	$1, %eax
	cltd
	movl	$2, %esi
	idivl	%esi
	cmpl	%eax, %ecx
	jge	.LBB77_26
# %bb.21:                               # %for.body190
                                        #   in Loop: Header=BB77_20 Depth=1
	movq	-16(%rbp), %rax
	movq	48(%rax), %rax
	movl	-4(%rbp), %ecx
	shll	$1, %ecx
	movslq	%ecx, %rcx
	movq	288(%rax,%rcx,8), %rax
	cqto
	movl	$2, %esi
	idivq	%rsi
	movq	%rax, %rcx
	shlq	$1, %rcx
	movq	-16(%rbp), %rax
	movq	56(%rax), %rax
	movl	-4(%rbp), %edx
	shll	$1, %edx
	movslq	%edx, %rdx
	movq	288(%rax,%rdx,8), %rax
	cqto
	idivq	%rsi
	shlq	$1, %rax
	cmpq	%rax, %rcx
	jge	.LBB77_23
# %bb.22:                               # %cond.true208
                                        #   in Loop: Header=BB77_20 Depth=1
	movq	-16(%rbp), %rax
	movq	48(%rax), %rax
	movl	-4(%rbp), %ecx
	shll	$1, %ecx
	movslq	%ecx, %rcx
	movq	288(%rax,%rcx,8), %rax
	cqto
	movl	$2, %ecx
	idivq	%rcx
	shlq	$1, %rax
	jmp	.LBB77_24
.LBB77_23:                              # %cond.false217
                                        #   in Loop: Header=BB77_20 Depth=1
	movq	-16(%rbp), %rax
	movq	56(%rax), %rax
	movl	-4(%rbp), %ecx
	shll	$1, %ecx
	movslq	%ecx, %rcx
	movq	288(%rax,%rcx,8), %rax
	cqto
	movl	$2, %ecx
	idivq	%rcx
	shlq	$1, %rax
.LBB77_24:                              # %cond.end226
                                        #   in Loop: Header=BB77_20 Depth=1
	movq	-16(%rbp), %rcx
	movq	40(%rcx), %rcx
	movslq	-4(%rbp), %rdx
	movq	%rax, 288(%rcx,%rdx,8)
# %bb.25:                               # %for.inc233
                                        #   in Loop: Header=BB77_20 Depth=1
	movl	-4(%rbp), %eax
	addl	$1, %eax
	movl	%eax, -4(%rbp)
	jmp	.LBB77_20
.LBB77_26:                              # %for.end235
	movl	$0, -4(%rbp)
.LBB77_27:                              # %for.cond236
                                        # =>This Inner Loop Header: Depth=1
	movl	-4(%rbp), %ecx
	movl	listXsize, %eax
	addl	$1, %eax
	cltd
	movl	$2, %esi
	idivl	%esi
	cmpl	%eax, %ecx
	jge	.LBB77_33
# %bb.28:                               # %for.body241
                                        #   in Loop: Header=BB77_27 Depth=1
	movq	-16(%rbp), %rax
	movq	48(%rax), %rax
	movl	-4(%rbp), %ecx
	shll	$1, %ecx
	movslq	%ecx, %rcx
	movq	24(%rax,%rcx,8), %rax
	cqto
	movl	$2, %esi
	idivq	%rsi
	movq	%rax, %rcx
	shlq	$1, %rcx
	movq	-16(%rbp), %rax
	movq	56(%rax), %rax
	movl	-4(%rbp), %edx
	shll	$1, %edx
	movslq	%edx, %rdx
	movq	24(%rax,%rdx,8), %rax
	cqto
	idivq	%rsi
	shlq	$1, %rax
	cmpq	%rax, %rcx
	jge	.LBB77_30
# %bb.29:                               # %cond.true260
                                        #   in Loop: Header=BB77_27 Depth=1
	movq	-16(%rbp), %rax
	movq	48(%rax), %rax
	movl	-4(%rbp), %ecx
	shll	$1, %ecx
	movslq	%ecx, %rcx
	movq	24(%rax,%rcx,8), %rax
	cqto
	movl	$2, %ecx
	idivq	%rcx
	shlq	$1, %rax
	jmp	.LBB77_31
.LBB77_30:                              # %cond.false269
                                        #   in Loop: Header=BB77_27 Depth=1
	movq	-16(%rbp), %rax
	movq	56(%rax), %rax
	movl	-4(%rbp), %ecx
	shll	$1, %ecx
	movslq	%ecx, %rcx
	movq	24(%rax,%rcx,8), %rax
	cqto
	movl	$2, %ecx
	idivq	%rcx
	shlq	$1, %rax
.LBB77_31:                              # %cond.end278
                                        #   in Loop: Header=BB77_27 Depth=1
	movq	-16(%rbp), %rcx
	movq	40(%rcx), %rcx
	movslq	-4(%rbp), %rdx
	movq	%rax, 24(%rcx,%rdx,8)
# %bb.32:                               # %for.inc285
                                        #   in Loop: Header=BB77_27 Depth=1
	movl	-4(%rbp), %eax
	addl	$1, %eax
	movl	%eax, -4(%rbp)
	jmp	.LBB77_27
.LBB77_33:                              # %for.end287
	movl	$0, -4(%rbp)
.LBB77_34:                              # %for.cond288
                                        # =>This Loop Header: Depth=1
                                        #     Child Loop BB77_36 Depth 2
	movl	-4(%rbp), %ecx
	movq	-16(%rbp), %rax
	movq	48(%rax), %rax
	movl	6392(%rax), %eax
	cltd
	movl	$4, %esi
	idivl	%esi
	cmpl	%eax, %ecx
	jge	.LBB77_65
# %bb.35:                               # %for.body294
                                        #   in Loop: Header=BB77_34 Depth=1
	movl	$0, -20(%rbp)
.LBB77_36:                              # %for.cond295
                                        #   Parent Loop BB77_34 Depth=1
                                        # =>  This Inner Loop Header: Depth=2
	movl	-20(%rbp), %ecx
	movq	-16(%rbp), %rax
	movq	48(%rax), %rax
	movl	6396(%rax), %eax
	cltd
	movl	$4, %esi
	idivl	%esi
	cmpl	%eax, %ecx
	jge	.LBB77_63
# %bb.37:                               # %for.body301
                                        #   in Loop: Header=BB77_36 Depth=2
	movq	-16(%rbp), %rax
	movq	40(%rax), %rax
	movq	6520(%rax), %rax
	movslq	-4(%rbp), %rcx
	movq	(%rax,%rcx,8), %rdi
	movl	-20(%rbp), %eax
	cltd
	movl	$4, %r8d
	idivl	%r8d
	movl	%eax, %ecx
	shll	$3, %ecx
	movl	-20(%rbp), %eax
	cltd
	idivl	%r8d
	addl	%edx, %ecx
	addl	$4, %ecx
	movslq	%ecx, %rax
	movb	$1, (%rdi,%rax)
	movq	-16(%rbp), %rax
	movq	40(%rax), %rax
	movq	6520(%rax), %rax
	movslq	-4(%rbp), %rcx
	movq	(%rax,%rcx,8), %rdi
	movl	-20(%rbp), %eax
	cltd
	idivl	%r8d
	movl	%eax, %ecx
	shll	$3, %ecx
	movl	-20(%rbp), %eax
	cltd
	idivl	%r8d
	addl	%edx, %ecx
	movslq	%ecx, %rax
	movb	$1, (%rdi,%rax)
	movq	-16(%rbp), %rax
	movq	48(%rax), %rax
	movq	6504(%rax), %rax
	movq	(%rax), %rax
	movslq	-4(%rbp), %rcx
	movq	(%rax,%rcx,8), %rax
	movslq	-20(%rbp), %rcx
	movq	(%rax,%rcx,8), %rax
	movw	(%rax), %di
	movq	-16(%rbp), %rax
	movq	40(%rax), %rax
	movq	6504(%rax), %rax
	movq	(%rax), %rax
	movslq	-4(%rbp), %rcx
	movq	(%rax,%rcx,8), %rsi
	movl	-20(%rbp), %eax
	cltd
	idivl	%r8d
	movl	%eax, %ecx
	shll	$3, %ecx
	movl	-20(%rbp), %eax
	cltd
	idivl	%r8d
	addl	%edx, %ecx
	movslq	%ecx, %rax
	movq	(%rsi,%rax,8), %rax
	movw	%di, (%rax)
	movq	-16(%rbp), %rax
	movq	48(%rax), %rax
	movq	6504(%rax), %rax
	movq	(%rax), %rax
	movslq	-4(%rbp), %rcx
	movq	(%rax,%rcx,8), %rax
	movslq	-20(%rbp), %rcx
	movq	(%rax,%rcx,8), %rax
	movw	2(%rax), %si
	movq	-16(%rbp), %rax
	movq	40(%rax), %rax
	movq	6504(%rax), %rax
	movq	(%rax), %rax
	movslq	-4(%rbp), %rcx
	movq	(%rax,%rcx,8), %rdi
	movl	-20(%rbp), %eax
	cltd
	idivl	%r8d
	movl	%eax, %ecx
	shll	$3, %ecx
	movl	-20(%rbp), %eax
	cltd
	idivl	%r8d
	addl	%edx, %ecx
	movslq	%ecx, %rax
	movq	(%rdi,%rax,8), %rax
	movw	%si, 2(%rax)
	movq	-16(%rbp), %rax
	movq	48(%rax), %rax
	movq	6504(%rax), %rax
	movq	8(%rax), %rax
	movslq	-4(%rbp), %rcx
	movq	(%rax,%rcx,8), %rax
	movslq	-20(%rbp), %rcx
	movq	(%rax,%rcx,8), %rax
	movw	(%rax), %si
	movq	-16(%rbp), %rax
	movq	40(%rax), %rax
	movq	6504(%rax), %rax
	movq	8(%rax), %rax
	movslq	-4(%rbp), %rcx
	movq	(%rax,%rcx,8), %rdi
	movl	-20(%rbp), %eax
	cltd
	idivl	%r8d
	movl	%eax, %ecx
	shll	$3, %ecx
	movl	-20(%rbp), %eax
	cltd
	idivl	%r8d
	addl	%edx, %ecx
	movslq	%ecx, %rax
	movq	(%rdi,%rax,8), %rax
	movw	%si, (%rax)
	movq	-16(%rbp), %rax
	movq	48(%rax), %rax
	movq	6504(%rax), %rax
	movq	8(%rax), %rax
	movslq	-4(%rbp), %rcx
	movq	(%rax,%rcx,8), %rax
	movslq	-20(%rbp), %rcx
	movq	(%rax,%rcx,8), %rax
	movw	2(%rax), %si
	movq	-16(%rbp), %rax
	movq	40(%rax), %rax
	movq	6504(%rax), %rax
	movq	8(%rax), %rax
	movslq	-4(%rbp), %rcx
	movq	(%rax,%rcx,8), %rdi
	movl	-20(%rbp), %eax
	cltd
	idivl	%r8d
	movl	%eax, %ecx
	shll	$3, %ecx
	movl	-20(%rbp), %eax
	cltd
	idivl	%r8d
	addl	%edx, %ecx
	movslq	%ecx, %rax
	movq	(%rdi,%rax,8), %rax
	movw	%si, 2(%rax)
	movq	-16(%rbp), %rax
	movq	48(%rax), %rax
	movq	6480(%rax), %rax
	movq	(%rax), %rax
	movslq	-4(%rbp), %rcx
	movq	(%rax,%rcx,8), %rax
	movslq	-20(%rbp), %rcx
	movw	(%rax,%rcx,2), %si
	movq	-16(%rbp), %rax
	movq	40(%rax), %rax
	movq	6480(%rax), %rax
	movq	(%rax), %rax
	movslq	-4(%rbp), %rcx
	movq	(%rax,%rcx,8), %rdi
	movl	-20(%rbp), %eax
	cltd
	idivl	%r8d
	movl	%eax, %ecx
	shll	$3, %ecx
	movl	-20(%rbp), %eax
	cltd
	idivl	%r8d
	addl	%edx, %ecx
	movslq	%ecx, %rax
	movw	%si, (%rdi,%rax,2)
	movswl	%si, %eax
	movl	%eax, -28(%rbp)
	movq	-16(%rbp), %rax
	movq	48(%rax), %rax
	movq	6480(%rax), %rax
	movq	8(%rax), %rax
	movslq	-4(%rbp), %rcx
	movq	(%rax,%rcx,8), %rax
	movslq	-20(%rbp), %rcx
	movw	(%rax,%rcx,2), %si
	movq	-16(%rbp), %rax
	movq	40(%rax), %rax
	movq	6480(%rax), %rax
	movq	8(%rax), %rax
	movslq	-4(%rbp), %rcx
	movq	(%rax,%rcx,8), %rdi
	movl	-20(%rbp), %eax
	cltd
	idivl	%r8d
	movl	%eax, %ecx
	shll	$3, %ecx
	movl	-20(%rbp), %eax
	cltd
	idivl	%r8d
	addl	%edx, %ecx
	movslq	%ecx, %rax
	movw	%si, (%rdi,%rax,2)
	movswl	%si, %eax
	movl	%eax, -24(%rbp)
	cmpl	$0, -28(%rbp)
	jl	.LBB77_39
# %bb.38:                               # %cond.true439
                                        #   in Loop: Header=BB77_36 Depth=2
	movq	-16(%rbp), %rax
	movq	48(%rax), %rax
	movslq	-28(%rbp), %rcx
	movq	24(%rax,%rcx,8), %rax
	jmp	.LBB77_40
.LBB77_39:                              # %cond.false445
                                        #   in Loop: Header=BB77_36 Depth=2
	xorl	%eax, %eax
	jmp	.LBB77_40
.LBB77_40:                              # %cond.end446
                                        #   in Loop: Header=BB77_36 Depth=2
	movq	-16(%rbp), %rcx
	movq	48(%rcx), %rcx
	movq	6496(%rcx), %rcx
	movq	(%rcx), %rcx
	movslq	-4(%rbp), %rdx
	movq	(%rcx,%rdx,8), %rcx
	movslq	-20(%rbp), %rdx
	movq	%rax, (%rcx,%rdx,8)
	cmpl	$0, -24(%rbp)
	jl	.LBB77_42
# %bb.41:                               # %cond.true456
                                        #   in Loop: Header=BB77_36 Depth=2
	movq	-16(%rbp), %rax
	movq	48(%rax), %rax
	movslq	-24(%rbp), %rcx
	movq	288(%rax,%rcx,8), %rax
	jmp	.LBB77_43
.LBB77_42:                              # %cond.false462
                                        #   in Loop: Header=BB77_36 Depth=2
	xorl	%eax, %eax
	jmp	.LBB77_43
.LBB77_43:                              # %cond.end463
                                        #   in Loop: Header=BB77_36 Depth=2
	movq	-16(%rbp), %rcx
	movq	48(%rcx), %rcx
	movq	6496(%rcx), %rcx
	movq	8(%rcx), %rcx
	movslq	-4(%rbp), %rdx
	movq	(%rcx,%rdx,8), %rcx
	movslq	-20(%rbp), %rdx
	movq	%rax, (%rcx,%rdx,8)
	cmpl	$0, -28(%rbp)
	jl	.LBB77_45
# %bb.44:                               # %cond.true474
                                        #   in Loop: Header=BB77_36 Depth=2
	movq	-16(%rbp), %rax
	movq	48(%rax), %rax
	movslq	-28(%rbp), %rcx
	movq	1608(%rax,%rcx,8), %r8
	jmp	.LBB77_46
.LBB77_45:                              # %cond.false479
                                        #   in Loop: Header=BB77_36 Depth=2
	xorl	%r8d, %r8d
	jmp	.LBB77_46
.LBB77_46:                              # %cond.end480
                                        #   in Loop: Header=BB77_36 Depth=2
	movq	-16(%rbp), %rax
	movq	40(%rax), %rax
	movq	6496(%rax), %rax
	movq	(%rax), %rax
	movslq	-4(%rbp), %rcx
	movq	(%rax,%rcx,8), %rdi
	movl	-20(%rbp), %eax
	cltd
	movl	$4, %esi
	idivl	%esi
	movl	%eax, %ecx
	shll	$3, %ecx
	movl	-20(%rbp), %eax
	cltd
	idivl	%esi
	addl	%edx, %ecx
	movslq	%ecx, %rax
	movq	%r8, (%rdi,%rax,8)
	cmpl	$0, -24(%rbp)
	jl	.LBB77_48
# %bb.47:                               # %cond.true495
                                        #   in Loop: Header=BB77_36 Depth=2
	movq	-16(%rbp), %rax
	movq	48(%rax), %rax
	movslq	-24(%rbp), %rcx
	movq	1872(%rax,%rcx,8), %rdi
	jmp	.LBB77_49
.LBB77_48:                              # %cond.false501
                                        #   in Loop: Header=BB77_36 Depth=2
	xorl	%edi, %edi
	jmp	.LBB77_49
.LBB77_49:                              # %cond.end502
                                        #   in Loop: Header=BB77_36 Depth=2
	movq	-16(%rbp), %rax
	movq	40(%rax), %rax
	movq	6496(%rax), %rax
	movq	8(%rax), %rax
	movslq	-4(%rbp), %rcx
	movq	(%rax,%rcx,8), %rsi
	movl	-20(%rbp), %eax
	cltd
	movl	$4, %r8d
	idivl	%r8d
	movl	%eax, %ecx
	shll	$3, %ecx
	movl	-20(%rbp), %eax
	cltd
	idivl	%r8d
	addl	%edx, %ecx
	movslq	%ecx, %rax
	movq	%rdi, (%rsi,%rax,8)
	movq	-16(%rbp), %rax
	movq	56(%rax), %rax
	movq	6504(%rax), %rax
	movq	(%rax), %rax
	movslq	-4(%rbp), %rcx
	movq	(%rax,%rcx,8), %rax
	movslq	-20(%rbp), %rcx
	movq	(%rax,%rcx,8), %rax
	movw	(%rax), %si
	movq	-16(%rbp), %rax
	movq	40(%rax), %rax
	movq	6504(%rax), %rax
	movq	(%rax), %rax
	movslq	-4(%rbp), %rcx
	movq	(%rax,%rcx,8), %rdi
	movl	-20(%rbp), %eax
	cltd
	idivl	%r8d
	movl	%eax, %ecx
	shll	$3, %ecx
	movl	-20(%rbp), %eax
	cltd
	idivl	%r8d
	addl	%edx, %ecx
	addl	$4, %ecx
	movslq	%ecx, %rax
	movq	(%rdi,%rax,8), %rax
	movw	%si, (%rax)
	movq	-16(%rbp), %rax
	movq	56(%rax), %rax
	movq	6504(%rax), %rax
	movq	(%rax), %rax
	movslq	-4(%rbp), %rcx
	movq	(%rax,%rcx,8), %rax
	movslq	-20(%rbp), %rcx
	movq	(%rax,%rcx,8), %rax
	movw	2(%rax), %si
	movq	-16(%rbp), %rax
	movq	40(%rax), %rax
	movq	6504(%rax), %rax
	movq	(%rax), %rax
	movslq	-4(%rbp), %rcx
	movq	(%rax,%rcx,8), %rdi
	movl	-20(%rbp), %eax
	cltd
	idivl	%r8d
	movl	%eax, %ecx
	shll	$3, %ecx
	movl	-20(%rbp), %eax
	cltd
	idivl	%r8d
	addl	%edx, %ecx
	addl	$4, %ecx
	movslq	%ecx, %rax
	movq	(%rdi,%rax,8), %rax
	movw	%si, 2(%rax)
	movq	-16(%rbp), %rax
	movq	56(%rax), %rax
	movq	6504(%rax), %rax
	movq	8(%rax), %rax
	movslq	-4(%rbp), %rcx
	movq	(%rax,%rcx,8), %rax
	movslq	-20(%rbp), %rcx
	movq	(%rax,%rcx,8), %rax
	movw	(%rax), %si
	movq	-16(%rbp), %rax
	movq	40(%rax), %rax
	movq	6504(%rax), %rax
	movq	8(%rax), %rax
	movslq	-4(%rbp), %rcx
	movq	(%rax,%rcx,8), %rdi
	movl	-20(%rbp), %eax
	cltd
	idivl	%r8d
	movl	%eax, %ecx
	shll	$3, %ecx
	movl	-20(%rbp), %eax
	cltd
	idivl	%r8d
	addl	%edx, %ecx
	addl	$4, %ecx
	movslq	%ecx, %rax
	movq	(%rdi,%rax,8), %rax
	movw	%si, (%rax)
	movq	-16(%rbp), %rax
	movq	56(%rax), %rax
	movq	6504(%rax), %rax
	movq	8(%rax), %rax
	movslq	-4(%rbp), %rcx
	movq	(%rax,%rcx,8), %rax
	movslq	-20(%rbp), %rcx
	movq	(%rax,%rcx,8), %rax
	movw	2(%rax), %si
	movq	-16(%rbp), %rax
	movq	40(%rax), %rax
	movq	6504(%rax), %rax
	movq	8(%rax), %rax
	movslq	-4(%rbp), %rcx
	movq	(%rax,%rcx,8), %rdi
	movl	-20(%rbp), %eax
	cltd
	idivl	%r8d
	movl	%eax, %ecx
	shll	$3, %ecx
	movl	-20(%rbp), %eax
	cltd
	idivl	%r8d
	addl	%edx, %ecx
	addl	$4, %ecx
	movslq	%ecx, %rax
	movq	(%rdi,%rax,8), %rax
	movw	%si, 2(%rax)
	movq	-16(%rbp), %rax
	movq	56(%rax), %rax
	movq	6480(%rax), %rax
	movq	(%rax), %rax
	movslq	-4(%rbp), %rcx
	movq	(%rax,%rcx,8), %rax
	movslq	-20(%rbp), %rcx
	movw	(%rax,%rcx,2), %si
	movq	-16(%rbp), %rax
	movq	40(%rax), %rax
	movq	6480(%rax), %rax
	movq	(%rax), %rax
	movslq	-4(%rbp), %rcx
	movq	(%rax,%rcx,8), %rdi
	movl	-20(%rbp), %eax
	cltd
	idivl	%r8d
	movl	%eax, %ecx
	shll	$3, %ecx
	movl	-20(%rbp), %eax
	cltd
	idivl	%r8d
	addl	%edx, %ecx
	addl	$4, %ecx
	movslq	%ecx, %rax
	movw	%si, (%rdi,%rax,2)
	movswl	%si, %eax
	movl	%eax, -28(%rbp)
	movq	-16(%rbp), %rax
	movq	56(%rax), %rax
	movq	6480(%rax), %rax
	movq	8(%rax), %rax
	movslq	-4(%rbp), %rcx
	movq	(%rax,%rcx,8), %rax
	movslq	-20(%rbp), %rcx
	movw	(%rax,%rcx,2), %si
	movq	-16(%rbp), %rax
	movq	40(%rax), %rax
	movq	6480(%rax), %rax
	movq	8(%rax), %rax
	movslq	-4(%rbp), %rcx
	movq	(%rax,%rcx,8), %rdi
	movl	-20(%rbp), %eax
	cltd
	idivl	%r8d
	movl	%eax, %ecx
	shll	$3, %ecx
	movl	-20(%rbp), %eax
	cltd
	idivl	%r8d
	addl	%edx, %ecx
	addl	$4, %ecx
	movslq	%ecx, %rax
	movw	%si, (%rdi,%rax,2)
	movswl	%si, %eax
	movl	%eax, -24(%rbp)
	cmpl	$0, -28(%rbp)
	jl	.LBB77_51
# %bb.50:                               # %cond.true641
                                        #   in Loop: Header=BB77_36 Depth=2
	movq	-16(%rbp), %rax
	movq	56(%rax), %rax
	movslq	-28(%rbp), %rcx
	movq	24(%rax,%rcx,8), %rax
	jmp	.LBB77_52
.LBB77_51:                              # %cond.false647
                                        #   in Loop: Header=BB77_36 Depth=2
	xorl	%eax, %eax
	jmp	.LBB77_52
.LBB77_52:                              # %cond.end648
                                        #   in Loop: Header=BB77_36 Depth=2
	movq	-16(%rbp), %rcx
	movq	56(%rcx), %rcx
	movq	6496(%rcx), %rcx
	movq	(%rcx), %rcx
	movslq	-4(%rbp), %rdx
	movq	(%rcx,%rdx,8), %rcx
	movslq	-20(%rbp), %rdx
	movq	%rax, (%rcx,%rdx,8)
	cmpl	$0, -24(%rbp)
	jl	.LBB77_54
# %bb.53:                               # %cond.true659
                                        #   in Loop: Header=BB77_36 Depth=2
	movq	-16(%rbp), %rax
	movq	56(%rax), %rax
	movslq	-24(%rbp), %rcx
	movq	288(%rax,%rcx,8), %rax
	jmp	.LBB77_55
.LBB77_54:                              # %cond.false665
                                        #   in Loop: Header=BB77_36 Depth=2
	xorl	%eax, %eax
	jmp	.LBB77_55
.LBB77_55:                              # %cond.end666
                                        #   in Loop: Header=BB77_36 Depth=2
	movq	-16(%rbp), %rcx
	movq	56(%rcx), %rcx
	movq	6496(%rcx), %rcx
	movq	8(%rcx), %rcx
	movslq	-4(%rbp), %rdx
	movq	(%rcx,%rdx,8), %rcx
	movslq	-20(%rbp), %rdx
	movq	%rax, (%rcx,%rdx,8)
	cmpl	$0, -28(%rbp)
	jl	.LBB77_57
# %bb.56:                               # %cond.true677
                                        #   in Loop: Header=BB77_36 Depth=2
	movq	-16(%rbp), %rax
	movq	56(%rax), %rax
	movslq	-28(%rbp), %rcx
	movq	1608(%rax,%rcx,8), %r8
	jmp	.LBB77_58
.LBB77_57:                              # %cond.false683
                                        #   in Loop: Header=BB77_36 Depth=2
	movq	$-1, %r8
	jmp	.LBB77_58
.LBB77_58:                              # %cond.end684
                                        #   in Loop: Header=BB77_36 Depth=2
	movq	-16(%rbp), %rax
	movq	40(%rax), %rax
	movq	6496(%rax), %rax
	movq	(%rax), %rax
	movslq	-4(%rbp), %rcx
	movq	(%rax,%rcx,8), %rdi
	movl	-20(%rbp), %eax
	cltd
	movl	$4, %esi
	idivl	%esi
	movl	%eax, %ecx
	shll	$3, %ecx
	movl	-20(%rbp), %eax
	cltd
	idivl	%esi
	addl	%edx, %ecx
	addl	$4, %ecx
	movslq	%ecx, %rax
	movq	%r8, (%rdi,%rax,8)
	cmpl	$0, -24(%rbp)
	jl	.LBB77_60
# %bb.59:                               # %cond.true700
                                        #   in Loop: Header=BB77_36 Depth=2
	movq	-16(%rbp), %rax
	movq	56(%rax), %rax
	movslq	-24(%rbp), %rcx
	movq	1872(%rax,%rcx,8), %r8
	jmp	.LBB77_61
.LBB77_60:                              # %cond.false706
                                        #   in Loop: Header=BB77_36 Depth=2
	movq	$-1, %r8
	jmp	.LBB77_61
.LBB77_61:                              # %cond.end707
                                        #   in Loop: Header=BB77_36 Depth=2
	movq	-16(%rbp), %rax
	movq	40(%rax), %rax
	movq	6496(%rax), %rax
	movq	8(%rax), %rax
	movslq	-4(%rbp), %rcx
	movq	(%rax,%rcx,8), %rdi
	movl	-20(%rbp), %eax
	cltd
	movl	$4, %esi
	idivl	%esi
	movl	%eax, %ecx
	shll	$3, %ecx
	movl	-20(%rbp), %eax
	cltd
	idivl	%esi
	addl	%edx, %ecx
	addl	$4, %ecx
	movslq	%ecx, %rax
	movq	%r8, (%rdi,%rax,8)
# %bb.62:                               # %for.inc721
                                        #   in Loop: Header=BB77_36 Depth=2
	movl	-20(%rbp), %eax
	addl	$1, %eax
	movl	%eax, -20(%rbp)
	jmp	.LBB77_36
.LBB77_63:                              # %for.end723
                                        #   in Loop: Header=BB77_34 Depth=1
	jmp	.LBB77_64
.LBB77_64:                              # %for.inc724
                                        #   in Loop: Header=BB77_34 Depth=1
	movl	-4(%rbp), %eax
	addl	$1, %eax
	movl	%eax, -4(%rbp)
	jmp	.LBB77_34
.LBB77_65:                              # %for.end726
	movq	active_sps, %rax
	cmpl	$0, 1148(%rax)
	je	.LBB77_67
# %bb.66:                               # %lor.lhs.false
	movq	active_sps, %rax
	cmpl	$0, 1156(%rax)
	je	.LBB77_76
.LBB77_67:                              # %if.then729
	movl	$0, -4(%rbp)
.LBB77_68:                              # %for.cond730
                                        # =>This Loop Header: Depth=1
                                        #     Child Loop BB77_70 Depth 2
	movl	-4(%rbp), %ecx
	movq	-16(%rbp), %rax
	movq	48(%rax), %rax
	movl	6392(%rax), %eax
	cltd
	movl	$4, %esi
	idivl	%esi
	cmpl	%eax, %ecx
	jge	.LBB77_75
# %bb.69:                               # %for.body736
                                        #   in Loop: Header=BB77_68 Depth=1
	movl	$0, -20(%rbp)
.LBB77_70:                              # %for.cond737
                                        #   Parent Loop BB77_68 Depth=1
                                        # =>  This Inner Loop Header: Depth=2
	movl	-20(%rbp), %ecx
	movq	-16(%rbp), %rax
	movq	48(%rax), %rax
	movl	6396(%rax), %eax
	cltd
	movl	$4, %esi
	idivl	%esi
	cmpl	%eax, %ecx
	jge	.LBB77_73
# %bb.71:                               # %for.body743
                                        #   in Loop: Header=BB77_70 Depth=2
	movq	-16(%rbp), %rax
	movq	48(%rax), %rax
	movq	6520(%rax), %rax
	movslq	-4(%rbp), %rcx
	movq	(%rax,%rcx,8), %rax
	movslq	-20(%rbp), %rcx
	movb	$1, (%rax,%rcx)
	movq	-16(%rbp), %rax
	movq	56(%rax), %rax
	movq	6520(%rax), %rax
	movslq	-4(%rbp), %rcx
	movq	(%rax,%rcx,8), %rax
	movslq	-20(%rbp), %rcx
	movb	$1, (%rax,%rcx)
# %bb.72:                               # %for.inc756
                                        #   in Loop: Header=BB77_70 Depth=2
	movl	-20(%rbp), %eax
	addl	$1, %eax
	movl	%eax, -20(%rbp)
	jmp	.LBB77_70
.LBB77_73:                              # %for.end758
                                        #   in Loop: Header=BB77_68 Depth=1
	jmp	.LBB77_74
.LBB77_74:                              # %for.inc759
                                        #   in Loop: Header=BB77_68 Depth=1
	movl	-4(%rbp), %eax
	addl	$1, %eax
	movl	%eax, -4(%rbp)
	jmp	.LBB77_68
.LBB77_75:                              # %for.end761
	jmp	.LBB77_76
.LBB77_76:                              # %if.end762
	cmpl	$971542606, -32(%rbp)   # imm = 0x39E8904E
	jne	.LBB77_78
.LBB77_77:
	addq	$32, %rsp
	popq	%rbp
	.cfi_def_cfa %rsp, 8
	retq
.LBB77_78:                              # %func_exit
	.cfi_def_cfa %rbp, 16
	callq	detect_breach
	jmp	.LBB77_77
.Lfunc_end77:
	.size	dpb_combine_field.14, .Lfunc_end77-dpb_combine_field.14
	.cfi_endproc
                                        # -- End function
	.globl	fill_frame_num_gap.15   # -- Begin function fill_frame_num_gap.15
	.p2align	4, 0x90
	.type	fill_frame_num_gap.15,@function
fill_frame_num_gap.15:                  # @fill_frame_num_gap.15
	.cfi_startproc
# %bb.0:                                # %entry
	pushq	%rbp
	.cfi_def_cfa_offset 16
	.cfi_offset %rbp, -16
	movq	%rsp, %rbp
	.cfi_def_cfa_register %rbp
	subq	$48, %rsp
	movl	$1284615204, -36(%rbp)  # imm = 0x4C91AC24
	movq	%rdi, -8(%rbp)
	movq	$0, -24(%rbp)
	movl	log2_max_frame_num_minus4, %ecx
	addl	$4, %ecx
                                        # kill: def $cl killed $ecx
	movl	$1, %eax
	shll	%cl, %eax
	movl	%eax, -28(%rbp)
	movq	-8(%rbp), %rax
	movl	72496(%rax), %eax
	movl	%eax, -40(%rbp)
	movq	-8(%rbp), %rax
	movl	$1, 72496(%rax)
	movq	-8(%rbp), %rax
	movl	72648(%rax), %eax
	addl	$1, %eax
	cltd
	idivl	-28(%rbp)
	movl	%edx, -12(%rbp)
	movq	-8(%rbp), %rax
	movl	72464(%rax), %eax
	movl	%eax, -32(%rbp)
.LBB78_1:                               # %while.cond
                                        # =>This Inner Loop Header: Depth=1
	movl	-32(%rbp), %eax
	cmpl	-12(%rbp), %eax
	je	.LBB78_3
# %bb.2:                                # %while.body
                                        #   in Loop: Header=BB78_1 Depth=1
	movq	-8(%rbp), %rax
	movl	52(%rax), %esi
	movq	-8(%rbp), %rax
	movl	60(%rax), %edx
	movq	-8(%rbp), %rax
	movl	56(%rax), %ecx
	movq	-8(%rbp), %rax
	movl	64(%rax), %r8d
	xorl	%edi, %edi
	callq	alloc_storable_picture
	movq	%rax, -24(%rbp)
	movq	-24(%rbp), %rax
	movl	$1, 6412(%rax)
	movl	-12(%rbp), %eax
	movq	-24(%rbp), %rcx
	movl	%eax, 6364(%rcx)
	movq	-24(%rbp), %rax
	movl	$1, 6388(%rax)
	movq	-24(%rbp), %rax
	movl	$1, 6384(%rax)
	movq	-8(%rbp), %rax
	movl	$0, 72500(%rax)
	movq	-24(%rbp), %rdi
	callq	store_picture_in_dpb
	movq	$0, -24(%rbp)
	movl	-12(%rbp), %eax
	addl	$1, %eax
	cltd
	idivl	-28(%rbp)
	movl	%edx, -12(%rbp)
	jmp	.LBB78_1
.LBB78_3:                               # %while.end
	movl	-40(%rbp), %eax
	movq	-8(%rbp), %rcx
	movl	%eax, 72496(%rcx)
	cmpl	$1284615204, -36(%rbp)  # imm = 0x4C91AC24
	jne	.LBB78_5
.LBB78_4:
	addq	$48, %rsp
	popq	%rbp
	.cfi_def_cfa %rsp, 8
	retq
.LBB78_5:                               # %func_exit
	.cfi_def_cfa %rbp, 16
	callq	detect_breach
	jmp	.LBB78_4
.Lfunc_end78:
	.size	fill_frame_num_gap.15, .Lfunc_end78-fill_frame_num_gap.15
	.cfi_endproc
                                        # -- End function
	.p2align	4, 0x90         # -- Begin function compare_pic_by_poc_asc.16
	.type	compare_pic_by_poc_asc.16,@function
compare_pic_by_poc_asc.16:              # @compare_pic_by_poc_asc.16
	.cfi_startproc
# %bb.0:                                # %entry
	pushq	%rbp
	.cfi_def_cfa_offset 16
	.cfi_offset %rbp, -16
	movq	%rsp, %rbp
	.cfi_def_cfa_register %rbp
	pushq	%rbx
	subq	$24, %rsp
	.cfi_offset %rbx, -24
	movl	$1962442128, -16(%rbp)  # imm = 0x74F87D90
	movq	%rdi, -24(%rbp)
	movq	%rsi, -32(%rbp)
	movq	-24(%rbp), %rax
	movq	(%rax), %rax
	movl	4(%rax), %eax
	movq	-32(%rbp), %rcx
	movq	(%rcx), %rcx
	cmpl	4(%rcx), %eax
	jge	.LBB79_2
# %bb.1:                                # %if.then
	movl	$-1, -12(%rbp)
	jmp	.LBB79_5
.LBB79_2:                               # %if.end
	movq	-24(%rbp), %rax
	movq	(%rax), %rax
	movl	4(%rax), %eax
	movq	-32(%rbp), %rcx
	movq	(%rcx), %rcx
	cmpl	4(%rcx), %eax
	jle	.LBB79_4
# %bb.3:                                # %if.then5
	movl	$1, -12(%rbp)
	jmp	.LBB79_5
.LBB79_4:                               # %if.else
	movl	$0, -12(%rbp)
.LBB79_5:                               # %return
	movl	-12(%rbp), %ebx
	cmpl	$1962442128, -16(%rbp)  # imm = 0x74F87D90
	jne	.LBB79_7
.LBB79_6:
	movl	%ebx, %eax
	addq	$24, %rsp
	popq	%rbx
	popq	%rbp
	.cfi_def_cfa %rsp, 8
	retq
.LBB79_7:                               # %func_exit
	.cfi_def_cfa %rbp, 16
	callq	detect_breach
	jmp	.LBB79_6
.Lfunc_end79:
	.size	compare_pic_by_poc_asc.16, .Lfunc_end79-compare_pic_by_poc_asc.16
	.cfi_endproc
                                        # -- End function
	.globl	compute_colocated.17    # -- Begin function compute_colocated.17
	.p2align	4, 0x90
	.type	compute_colocated.17,@function
compute_colocated.17:                   # @compute_colocated.17
	.cfi_startproc
# %bb.0:                                # %entry
	pushq	%rbp
	.cfi_def_cfa_offset 16
	.cfi_offset %rbp, -16
	movq	%rsp, %rbp
	.cfi_def_cfa_register %rbp
	pushq	%rbx
	subq	$72, %rsp
	.cfi_offset %rbx, -24
	movl	$1436810008, -72(%rbp)  # imm = 0x55A3FB18
	movq	%rdi, -24(%rbp)
	movq	%rsi, -48(%rbp)
	movq	-48(%rbp), %rax
	movq	8(%rax), %rax
	movq	(%rax), %rax
	movq	%rax, -32(%rbp)
	movq	%rax, -56(%rbp)
	movq	%rax, -40(%rbp)
	movq	img, %rax
	cmpl	$0, 72400(%rax)
	je	.LBB80_2
# %bb.1:                                # %if.then
	movq	-48(%rbp), %rax
	movq	24(%rax), %rax
	movq	(%rax), %rax
	movq	%rax, -40(%rbp)
	movq	-48(%rbp), %rax
	movq	40(%rax), %rax
	movq	(%rax), %rax
	movq	%rax, -56(%rbp)
	jmp	.LBB80_11
.LBB80_2:                               # %if.else
	movq	img, %rax
	cmpl	$0, 28(%rax)
	je	.LBB80_10
# %bb.3:                                # %if.then6
	movq	img, %rax
	movl	28(%rax), %eax
	movq	-32(%rbp), %rcx
	cmpl	(%rcx), %eax
	je	.LBB80_9
# %bb.4:                                # %land.lhs.true
	movq	-32(%rbp), %rax
	cmpl	$0, 6412(%rax)
	je	.LBB80_9
# %bb.5:                                # %if.then11
	movq	img, %rax
	cmpl	$1, 28(%rax)
	jne	.LBB80_7
# %bb.6:                                # %if.then14
	movq	-48(%rbp), %rax
	movq	8(%rax), %rax
	movq	(%rax), %rax
	movq	6528(%rax), %rax
	movq	%rax, -32(%rbp)
	movq	%rax, -56(%rbp)
	movq	%rax, -40(%rbp)
	jmp	.LBB80_8
.LBB80_7:                               # %if.else17
	movq	-48(%rbp), %rax
	movq	8(%rax), %rax
	movq	(%rax), %rax
	movq	6536(%rax), %rax
	movq	%rax, -32(%rbp)
	movq	%rax, -56(%rbp)
	movq	%rax, -40(%rbp)
.LBB80_8:                               # %if.end
	jmp	.LBB80_9
