	.text
	.file	"memalloc.c"
	.globl	init_top_bot_planes     # -- Begin function init_top_bot_planes
	.p2align	4, 0x90
	.type	init_top_bot_planes,@function
init_top_bot_planes:                    # @init_top_bot_planes
	.cfi_startproc
# %bb.0:                                # %rand_bb
	pushq	%rbp
	.cfi_def_cfa_offset 16
	.cfi_offset %rbp, -16
	movq	%rsp, %rbp
	.cfi_def_cfa_register %rbp
	pushq	%r15
	pushq	%r14
	pushq	%r13
	pushq	%r12
	pushq	%rbx
	pushq	%rax
	.cfi_offset %rbx, -56
	.cfi_offset %r12, -48
	.cfi_offset %r13, -40
	.cfi_offset %r14, -32
	.cfi_offset %r15, -24
	movq	%r8, %r14
	movq	%rcx, %r15
	movl	%edx, %r12d
	movl	%esi, %r13d
	movq	%rdi, %rbx
	callq	get_rand
	cmpl	$0, %eax
	jne	.LBB0_9
# %bb.1:                                # %func_init_top_bot_planes.44
	movq	%rbx, %rdi
	movl	%r13d, %esi
	movl	%r12d, %edx
	movq	%r15, %rcx
	movq	%r14, %r8
	callq	init_top_bot_planes.44
	addq	$8, %rsp
	popq	%rbx
	popq	%r12
	popq	%r13
	popq	%r14
	popq	%r15
	popq	%rbp
	.cfi_def_cfa %rsp, 8
	retq
.LBB0_2:                                # %func_init_top_bot_planes.71
	.cfi_def_cfa %rbp, 16
	movq	%rbx, %rdi
	movl	%r13d, %esi
	movl	%r12d, %edx
	movq	%r15, %rcx
	movq	%r14, %r8
	callq	init_top_bot_planes.71
	addq	$8, %rsp
	popq	%rbx
	popq	%r12
	popq	%r13
	popq	%r14
	popq	%r15
	popq	%rbp
	.cfi_def_cfa %rsp, 8
	retq
.LBB0_3:                                # %func_init_top_bot_planes.120
	.cfi_def_cfa %rbp, 16
	movq	%rbx, %rdi
	movl	%r13d, %esi
	movl	%r12d, %edx
	movq	%r15, %rcx
	movq	%r14, %r8
	callq	init_top_bot_planes.120
	addq	$8, %rsp
	popq	%rbx
	popq	%r12
	popq	%r13
	popq	%r14
	popq	%r15
	popq	%rbp
	.cfi_def_cfa %rsp, 8
	retq
.LBB0_4:                                # %func_init_top_bot_planes.130
	.cfi_def_cfa %rbp, 16
	movq	%rbx, %rdi
	movl	%r13d, %esi
	movl	%r12d, %edx
	movq	%r15, %rcx
	movq	%r14, %r8
	callq	init_top_bot_planes.130
	addq	$8, %rsp
	popq	%rbx
	popq	%r12
	popq	%r13
	popq	%r14
	popq	%r15
	popq	%rbp
	.cfi_def_cfa %rsp, 8
	retq
.LBB0_5:                                # %func_init_top_bot_planes.137
	.cfi_def_cfa %rbp, 16
	movq	%rbx, %rdi
	movl	%r13d, %esi
	movl	%r12d, %edx
	movq	%r15, %rcx
	movq	%r14, %r8
	callq	init_top_bot_planes.137
	addq	$8, %rsp
	popq	%rbx
	popq	%r12
	popq	%r13
	popq	%r14
	popq	%r15
	popq	%rbp
	.cfi_def_cfa %rsp, 8
	retq
.LBB0_6:                                # %func_init_top_bot_planes.148
	.cfi_def_cfa %rbp, 16
	movq	%rbx, %rdi
	movl	%r13d, %esi
	movl	%r12d, %edx
	movq	%r15, %rcx
	movq	%r14, %r8
	callq	init_top_bot_planes.148
	addq	$8, %rsp
	popq	%rbx
	popq	%r12
	popq	%r13
	popq	%r14
	popq	%r15
	popq	%rbp
	.cfi_def_cfa %rsp, 8
	retq
.LBB0_7:                                # %func_init_top_bot_planes.149
	.cfi_def_cfa %rbp, 16
	movq	%rbx, %rdi
	movl	%r13d, %esi
	movl	%r12d, %edx
	movq	%r15, %rcx
	movq	%r14, %r8
	callq	init_top_bot_planes.149
	addq	$8, %rsp
	popq	%rbx
	popq	%r12
	popq	%r13
	popq	%r14
	popq	%r15
	popq	%rbp
	.cfi_def_cfa %rsp, 8
	retq
.LBB0_8:                                # %func_init_top_bot_planes.150
	.cfi_def_cfa %rbp, 16
	movq	%rbx, %rdi
	movl	%r13d, %esi
	movl	%r12d, %edx
	movq	%r15, %rcx
	movq	%r14, %r8
	callq	init_top_bot_planes.150
	addq	$8, %rsp
	popq	%rbx
	popq	%r12
	popq	%r13
	popq	%r14
	popq	%r15
	popq	%rbp
	.cfi_def_cfa %rsp, 8
	retq
.LBB0_9:                                # %ctrl0
	.cfi_def_cfa %rbp, 16
	cmpl	$1, %eax
	je	.LBB0_2
# %bb.10:                               # %ctrl1
	cmpl	$2, %eax
	je	.LBB0_3
# %bb.11:                               # %ctrl2
	cmpl	$3, %eax
	je	.LBB0_4
# %bb.12:                               # %ctrl3
	cmpl	$4, %eax
	je	.LBB0_5
# %bb.13:                               # %ctrl4
	cmpl	$5, %eax
	je	.LBB0_6
# %bb.14:                               # %ctrl5
	cmpl	$6, %eax
	je	.LBB0_7
	jmp	.LBB0_8
.Lfunc_end0:
	.size	init_top_bot_planes, .Lfunc_end0-init_top_bot_planes
	.cfi_endproc
                                        # -- End function
	.globl	no_mem_exit             # -- Begin function no_mem_exit
	.p2align	4, 0x90
	.type	no_mem_exit,@function
no_mem_exit:                            # @no_mem_exit
	.cfi_startproc
# %bb.0:                                # %entry
	pushq	%rbp
	.cfi_def_cfa_offset 16
	.cfi_offset %rbp, -16
	movq	%rsp, %rbp
	.cfi_def_cfa_register %rbp
	subq	$16, %rsp
	movq	%rdi, -8(%rbp)
	movq	-8(%rbp), %rcx
	movabsq	$errortext, %rdi
	movl	$300, %esi              # imm = 0x12C
	movabsq	$.L.str.20, %rdx
	movb	$0, %al
	callq	snprintf
	movabsq	$errortext, %rdi
	movl	$100, %esi
	callq	error
	addq	$16, %rsp
	popq	%rbp
	.cfi_def_cfa %rsp, 8
	retq
.Lfunc_end1:
	.size	no_mem_exit, .Lfunc_end1-no_mem_exit
	.cfi_endproc
                                        # -- End function
	.globl	free_top_bot_planes     # -- Begin function free_top_bot_planes
	.p2align	4, 0x90
	.type	free_top_bot_planes,@function
free_top_bot_planes:                    # @free_top_bot_planes
	.cfi_startproc
# %bb.0:                                # %rand_bb
	pushq	%rbp
	.cfi_def_cfa_offset 16
	.cfi_offset %rbp, -16
	movq	%rsp, %rbp
	.cfi_def_cfa_register %rbp
	pushq	%r14
	pushq	%rbx
	.cfi_offset %rbx, -32
	.cfi_offset %r14, -24
	movq	%rsi, %r14
	movq	%rdi, %rbx
	callq	get_rand
	cmpl	$0, %eax
	jne	.LBB2_2
# %bb.1:                                # %func_free_top_bot_planes.5
	movq	%rbx, %rdi
	movq	%r14, %rsi
	callq	free_top_bot_planes.5
	popq	%rbx
	popq	%r14
	popq	%rbp
	.cfi_def_cfa %rsp, 8
	retq
.LBB2_2:                                # %func_free_top_bot_planes.12
	.cfi_def_cfa %rbp, 16
	movq	%rbx, %rdi
	movq	%r14, %rsi
	callq	free_top_bot_planes.12
	popq	%rbx
	popq	%r14
	popq	%rbp
	.cfi_def_cfa %rsp, 8
	retq
.Lfunc_end2:
	.size	free_top_bot_planes, .Lfunc_end2-free_top_bot_planes
	.cfi_endproc
                                        # -- End function
	.globl	get_mem2Dpel            # -- Begin function get_mem2Dpel
	.p2align	4, 0x90
	.type	get_mem2Dpel,@function
get_mem2Dpel:                           # @get_mem2Dpel
	.cfi_startproc
# %bb.0:                                # %rand_bb
	pushq	%rbp
	.cfi_def_cfa_offset 16
	.cfi_offset %rbp, -16
	movq	%rsp, %rbp
	.cfi_def_cfa_register %rbp
	pushq	%r15
	pushq	%r14
	pushq	%rbx
	pushq	%rax
	.cfi_offset %rbx, -40
	.cfi_offset %r14, -32
	.cfi_offset %r15, -24
	movl	%edx, %r14d
	movl	%esi, %r15d
	movq	%rdi, %rbx
	callq	get_rand
	cmpl	$0, %eax
	jne	.LBB3_9
# %bb.1:                                # %func_get_mem2Dpel.7
	movq	%rbx, %rdi
	movl	%r15d, %esi
	movl	%r14d, %edx
	callq	get_mem2Dpel.7
	addq	$8, %rsp
	popq	%rbx
	popq	%r14
	popq	%r15
	popq	%rbp
	.cfi_def_cfa %rsp, 8
	retq
.LBB3_2:                                # %func_get_mem2Dpel.21
	.cfi_def_cfa %rbp, 16
	movq	%rbx, %rdi
	movl	%r15d, %esi
	movl	%r14d, %edx
	callq	get_mem2Dpel.21
	addq	$8, %rsp
	popq	%rbx
	popq	%r14
	popq	%r15
	popq	%rbp
	.cfi_def_cfa %rsp, 8
	retq
.LBB3_3:                                # %func_get_mem2Dpel.33
	.cfi_def_cfa %rbp, 16
	movq	%rbx, %rdi
	movl	%r15d, %esi
	movl	%r14d, %edx
	callq	get_mem2Dpel.33
	addq	$8, %rsp
	popq	%rbx
	popq	%r14
	popq	%r15
	popq	%rbp
	.cfi_def_cfa %rsp, 8
	retq
.LBB3_4:                                # %func_get_mem2Dpel.38
	.cfi_def_cfa %rbp, 16
	movq	%rbx, %rdi
	movl	%r15d, %esi
	movl	%r14d, %edx
	callq	get_mem2Dpel.38
	addq	$8, %rsp
	popq	%rbx
	popq	%r14
	popq	%r15
	popq	%rbp
	.cfi_def_cfa %rsp, 8
	retq
.LBB3_5:                                # %func_get_mem2Dpel.43
	.cfi_def_cfa %rbp, 16
	movq	%rbx, %rdi
	movl	%r15d, %esi
	movl	%r14d, %edx
	callq	get_mem2Dpel.43
	addq	$8, %rsp
	popq	%rbx
	popq	%r14
	popq	%r15
	popq	%rbp
	.cfi_def_cfa %rsp, 8
	retq
.LBB3_6:                                # %func_get_mem2Dpel.50
	.cfi_def_cfa %rbp, 16
	movq	%rbx, %rdi
	movl	%r15d, %esi
	movl	%r14d, %edx
	callq	get_mem2Dpel.50
	addq	$8, %rsp
	popq	%rbx
	popq	%r14
	popq	%r15
	popq	%rbp
	.cfi_def_cfa %rsp, 8
	retq
.LBB3_7:                                # %func_get_mem2Dpel.58
	.cfi_def_cfa %rbp, 16
	movq	%rbx, %rdi
	movl	%r15d, %esi
	movl	%r14d, %edx
	callq	get_mem2Dpel.58
	addq	$8, %rsp
	popq	%rbx
	popq	%r14
	popq	%r15
	popq	%rbp
	.cfi_def_cfa %rsp, 8
	retq
.LBB3_8:                                # %func_get_mem2Dpel.80
	.cfi_def_cfa %rbp, 16
	movq	%rbx, %rdi
	movl	%r15d, %esi
	movl	%r14d, %edx
	callq	get_mem2Dpel.80
	addq	$8, %rsp
	popq	%rbx
	popq	%r14
	popq	%r15
	popq	%rbp
	.cfi_def_cfa %rsp, 8
	retq
.LBB3_9:                                # %ctrl0
	.cfi_def_cfa %rbp, 16
	cmpl	$1, %eax
	je	.LBB3_2
# %bb.10:                               # %ctrl1
	cmpl	$2, %eax
	je	.LBB3_3
# %bb.11:                               # %ctrl2
	cmpl	$3, %eax
	je	.LBB3_4
# %bb.12:                               # %ctrl3
	cmpl	$4, %eax
	je	.LBB3_5
# %bb.13:                               # %ctrl4
	cmpl	$5, %eax
	je	.LBB3_6
# %bb.14:                               # %ctrl5
	cmpl	$6, %eax
	je	.LBB3_7
	jmp	.LBB3_8
.Lfunc_end3:
	.size	get_mem2Dpel, .Lfunc_end3-get_mem2Dpel
	.cfi_endproc
                                        # -- End function
	.globl	get_mem3Dpel            # -- Begin function get_mem3Dpel
	.p2align	4, 0x90
	.type	get_mem3Dpel,@function
get_mem3Dpel:                           # @get_mem3Dpel
	.cfi_startproc
# %bb.0:                                # %rand_bb
	pushq	%rbp
	.cfi_def_cfa_offset 16
	.cfi_offset %rbp, -16
	movq	%rsp, %rbp
	.cfi_def_cfa_register %rbp
	pushq	%r15
	pushq	%r14
	pushq	%r12
	pushq	%rbx
	.cfi_offset %rbx, -48
	.cfi_offset %r12, -40
	.cfi_offset %r14, -32
	.cfi_offset %r15, -24
	movl	%ecx, %r14d
	movl	%edx, %r15d
	movl	%esi, %r12d
	movq	%rdi, %rbx
	callq	get_rand
	cmpl	$0, %eax
	jne	.LBB4_9
# %bb.1:                                # %func_get_mem3Dpel.15
	movq	%rbx, %rdi
	movl	%r12d, %esi
	movl	%r15d, %edx
	movl	%r14d, %ecx
	callq	get_mem3Dpel.15
	popq	%rbx
	popq	%r12
	popq	%r14
	popq	%r15
	popq	%rbp
	.cfi_def_cfa %rsp, 8
	retq
.LBB4_2:                                # %func_get_mem3Dpel.22
	.cfi_def_cfa %rbp, 16
	movq	%rbx, %rdi
	movl	%r12d, %esi
	movl	%r15d, %edx
	movl	%r14d, %ecx
	callq	get_mem3Dpel.22
	popq	%rbx
	popq	%r12
	popq	%r14
	popq	%r15
	popq	%rbp
	.cfi_def_cfa %rsp, 8
	retq
.LBB4_3:                                # %func_get_mem3Dpel.40
	.cfi_def_cfa %rbp, 16
	movq	%rbx, %rdi
	movl	%r12d, %esi
	movl	%r15d, %edx
	movl	%r14d, %ecx
	callq	get_mem3Dpel.40
	popq	%rbx
	popq	%r12
	popq	%r14
	popq	%r15
	popq	%rbp
	.cfi_def_cfa %rsp, 8
	retq
.LBB4_4:                                # %func_get_mem3Dpel.49
	.cfi_def_cfa %rbp, 16
	movq	%rbx, %rdi
	movl	%r12d, %esi
	movl	%r15d, %edx
	movl	%r14d, %ecx
	callq	get_mem3Dpel.49
	popq	%rbx
	popq	%r12
	popq	%r14
	popq	%r15
	popq	%rbp
	.cfi_def_cfa %rsp, 8
	retq
.LBB4_5:                                # %func_get_mem3Dpel.121
	.cfi_def_cfa %rbp, 16
	movq	%rbx, %rdi
	movl	%r12d, %esi
	movl	%r15d, %edx
	movl	%r14d, %ecx
	callq	get_mem3Dpel.121
	popq	%rbx
	popq	%r12
	popq	%r14
	popq	%r15
	popq	%rbp
	.cfi_def_cfa %rsp, 8
	retq
.LBB4_6:                                # %func_get_mem3Dpel.134
	.cfi_def_cfa %rbp, 16
	movq	%rbx, %rdi
	movl	%r12d, %esi
	movl	%r15d, %edx
	movl	%r14d, %ecx
	callq	get_mem3Dpel.134
	popq	%rbx
	popq	%r12
	popq	%r14
	popq	%r15
	popq	%rbp
	.cfi_def_cfa %rsp, 8
	retq
.LBB4_7:                                # %func_get_mem3Dpel.143
	.cfi_def_cfa %rbp, 16
	movq	%rbx, %rdi
	movl	%r12d, %esi
	movl	%r15d, %edx
	movl	%r14d, %ecx
	callq	get_mem3Dpel.143
	popq	%rbx
	popq	%r12
	popq	%r14
	popq	%r15
	popq	%rbp
	.cfi_def_cfa %rsp, 8
	retq
.LBB4_8:                                # %func_get_mem3Dpel.147
	.cfi_def_cfa %rbp, 16
	movq	%rbx, %rdi
	movl	%r12d, %esi
	movl	%r15d, %edx
	movl	%r14d, %ecx
	callq	get_mem3Dpel.147
	popq	%rbx
	popq	%r12
	popq	%r14
	popq	%r15
	popq	%rbp
	.cfi_def_cfa %rsp, 8
	retq
.LBB4_9:                                # %ctrl0
	.cfi_def_cfa %rbp, 16
	cmpl	$1, %eax
	je	.LBB4_2
# %bb.10:                               # %ctrl1
	cmpl	$2, %eax
	je	.LBB4_3
# %bb.11:                               # %ctrl2
	cmpl	$3, %eax
	je	.LBB4_4
# %bb.12:                               # %ctrl3
	cmpl	$4, %eax
	je	.LBB4_5
# %bb.13:                               # %ctrl4
	cmpl	$5, %eax
	je	.LBB4_6
# %bb.14:                               # %ctrl5
	cmpl	$6, %eax
	je	.LBB4_7
	jmp	.LBB4_8
.Lfunc_end4:
	.size	get_mem3Dpel, .Lfunc_end4-get_mem3Dpel
	.cfi_endproc
                                        # -- End function
	.globl	free_mem2Dpel           # -- Begin function free_mem2Dpel
	.p2align	4, 0x90
	.type	free_mem2Dpel,@function
free_mem2Dpel:                          # @free_mem2Dpel
	.cfi_startproc
# %bb.0:                                # %entry
	pushq	%rbp
	.cfi_def_cfa_offset 16
	.cfi_offset %rbp, -16
	movq	%rsp, %rbp
	.cfi_def_cfa_register %rbp
	subq	$16, %rsp
	movq	%rdi, -8(%rbp)
	cmpq	$0, -8(%rbp)
	je	.LBB5_5
# %bb.1:                                # %if.then
	movq	-8(%rbp), %rax
	cmpq	$0, (%rax)
	je	.LBB5_3
# %bb.2:                                # %if.then2
	movq	-8(%rbp), %rax
	movq	(%rax), %rdi
	callq	free
	jmp	.LBB5_4
.LBB5_3:                                # %if.else
	movabsq	$.L.str.4, %rdi
	movl	$100, %esi
	callq	error
.LBB5_4:                                # %if.end
	movq	-8(%rbp), %rdi
	callq	free
	jmp	.LBB5_6
.LBB5_5:                                # %if.else4
	movabsq	$.L.str.4, %rdi
	movl	$100, %esi
	callq	error
.LBB5_6:                                # %if.end5
	addq	$16, %rsp
	popq	%rbp
	.cfi_def_cfa %rsp, 8
	retq
.Lfunc_end5:
	.size	free_mem2Dpel, .Lfunc_end5-free_mem2Dpel
	.cfi_endproc
                                        # -- End function
	.globl	free_mem3Dpel           # -- Begin function free_mem3Dpel
	.p2align	4, 0x90
	.type	free_mem3Dpel,@function
free_mem3Dpel:                          # @free_mem3Dpel
	.cfi_startproc
# %bb.0:                                # %rand_bb
	pushq	%rbp
	.cfi_def_cfa_offset 16
	.cfi_offset %rbp, -16
	movq	%rsp, %rbp
	.cfi_def_cfa_register %rbp
	pushq	%r14
	pushq	%rbx
	.cfi_offset %rbx, -32
	.cfi_offset %r14, -24
	movl	%esi, %r14d
	movq	%rdi, %rbx
	callq	get_rand
	cmpl	$0, %eax
	jne	.LBB6_7
# %bb.1:                                # %func_free_mem3Dpel.23
	movq	%rbx, %rdi
	movl	%r14d, %esi
	callq	free_mem3Dpel.23
	popq	%rbx
	popq	%r14
	popq	%rbp
	.cfi_def_cfa %rsp, 8
	retq
.LBB6_2:                                # %func_free_mem3Dpel.34
	.cfi_def_cfa %rbp, 16
	movq	%rbx, %rdi
	movl	%r14d, %esi
	callq	free_mem3Dpel.34
	popq	%rbx
	popq	%r14
	popq	%rbp
	.cfi_def_cfa %rsp, 8
	retq
.LBB6_3:                                # %func_free_mem3Dpel.81
	.cfi_def_cfa %rbp, 16
	movq	%rbx, %rdi
	movl	%r14d, %esi
	callq	free_mem3Dpel.81
	popq	%rbx
	popq	%r14
	popq	%rbp
	.cfi_def_cfa %rsp, 8
	retq
.LBB6_4:                                # %func_free_mem3Dpel.98
	.cfi_def_cfa %rbp, 16
	movq	%rbx, %rdi
	movl	%r14d, %esi
	callq	free_mem3Dpel.98
	popq	%rbx
	popq	%r14
	popq	%rbp
	.cfi_def_cfa %rsp, 8
	retq
.LBB6_5:                                # %func_free_mem3Dpel.112
	.cfi_def_cfa %rbp, 16
	movq	%rbx, %rdi
	movl	%r14d, %esi
	callq	free_mem3Dpel.112
	popq	%rbx
	popq	%r14
	popq	%rbp
	.cfi_def_cfa %rsp, 8
	retq
.LBB6_6:                                # %func_free_mem3Dpel.114
	.cfi_def_cfa %rbp, 16
	movq	%rbx, %rdi
	movl	%r14d, %esi
	callq	free_mem3Dpel.114
	popq	%rbx
	popq	%r14
	popq	%rbp
	.cfi_def_cfa %rsp, 8
	retq
.LBB6_7:                                # %ctrl0
	.cfi_def_cfa %rbp, 16
	cmpl	$1, %eax
	je	.LBB6_2
# %bb.8:                                # %ctrl1
	cmpl	$2, %eax
	je	.LBB6_3
# %bb.9:                                # %ctrl2
	cmpl	$3, %eax
	je	.LBB6_4
# %bb.10:                               # %ctrl3
	cmpl	$4, %eax
	je	.LBB6_5
	jmp	.LBB6_6
.Lfunc_end6:
	.size	free_mem3Dpel, .Lfunc_end6-free_mem3Dpel
	.cfi_endproc
                                        # -- End function
	.globl	get_mem2D               # -- Begin function get_mem2D
	.p2align	4, 0x90
	.type	get_mem2D,@function
get_mem2D:                              # @get_mem2D
	.cfi_startproc
# %bb.0:                                # %rand_bb
	pushq	%rbp
	.cfi_def_cfa_offset 16
	.cfi_offset %rbp, -16
	movq	%rsp, %rbp
	.cfi_def_cfa_register %rbp
	pushq	%r15
	pushq	%r14
	pushq	%rbx
	pushq	%rax
	.cfi_offset %rbx, -40
	.cfi_offset %r14, -32
	.cfi_offset %r15, -24
	movl	%edx, %r14d
	movl	%esi, %r15d
	movq	%rdi, %rbx
	callq	get_rand
	cmpl	$0, %eax
	jne	.LBB7_9
# %bb.1:                                # %func_get_mem2D.48
	movq	%rbx, %rdi
	movl	%r15d, %esi
	movl	%r14d, %edx
	callq	get_mem2D.48
	addq	$8, %rsp
	popq	%rbx
	popq	%r14
	popq	%r15
	popq	%rbp
	.cfi_def_cfa %rsp, 8
	retq
.LBB7_2:                                # %func_get_mem2D.51
	.cfi_def_cfa %rbp, 16
	movq	%rbx, %rdi
	movl	%r15d, %esi
	movl	%r14d, %edx
	callq	get_mem2D.51
	addq	$8, %rsp
	popq	%rbx
	popq	%r14
	popq	%r15
	popq	%rbp
	.cfi_def_cfa %rsp, 8
	retq
.LBB7_3:                                # %func_get_mem2D.52
	.cfi_def_cfa %rbp, 16
	movq	%rbx, %rdi
	movl	%r15d, %esi
	movl	%r14d, %edx
	callq	get_mem2D.52
	addq	$8, %rsp
	popq	%rbx
	popq	%r14
	popq	%r15
	popq	%rbp
	.cfi_def_cfa %rsp, 8
	retq
.LBB7_4:                                # %func_get_mem2D.88
	.cfi_def_cfa %rbp, 16
	movq	%rbx, %rdi
	movl	%r15d, %esi
	movl	%r14d, %edx
	callq	get_mem2D.88
	addq	$8, %rsp
	popq	%rbx
	popq	%r14
	popq	%r15
	popq	%rbp
	.cfi_def_cfa %rsp, 8
	retq
.LBB7_5:                                # %func_get_mem2D.95
	.cfi_def_cfa %rbp, 16
	movq	%rbx, %rdi
	movl	%r15d, %esi
	movl	%r14d, %edx
	callq	get_mem2D.95
	addq	$8, %rsp
	popq	%rbx
	popq	%r14
	popq	%r15
	popq	%rbp
	.cfi_def_cfa %rsp, 8
	retq
.LBB7_6:                                # %func_get_mem2D.96
	.cfi_def_cfa %rbp, 16
	movq	%rbx, %rdi
	movl	%r15d, %esi
	movl	%r14d, %edx
	callq	get_mem2D.96
	addq	$8, %rsp
	popq	%rbx
	popq	%r14
	popq	%r15
	popq	%rbp
	.cfi_def_cfa %rsp, 8
	retq
.LBB7_7:                                # %func_get_mem2D.117
	.cfi_def_cfa %rbp, 16
	movq	%rbx, %rdi
	movl	%r15d, %esi
	movl	%r14d, %edx
	callq	get_mem2D.117
	addq	$8, %rsp
	popq	%rbx
	popq	%r14
	popq	%r15
	popq	%rbp
	.cfi_def_cfa %rsp, 8
	retq
.LBB7_8:                                # %func_get_mem2D.118
	.cfi_def_cfa %rbp, 16
	movq	%rbx, %rdi
	movl	%r15d, %esi
	movl	%r14d, %edx
	callq	get_mem2D.118
	addq	$8, %rsp
	popq	%rbx
	popq	%r14
	popq	%r15
	popq	%rbp
	.cfi_def_cfa %rsp, 8
	retq
.LBB7_9:                                # %ctrl0
	.cfi_def_cfa %rbp, 16
	cmpl	$1, %eax
	je	.LBB7_2
# %bb.10:                               # %ctrl1
	cmpl	$2, %eax
	je	.LBB7_3
# %bb.11:                               # %ctrl2
	cmpl	$3, %eax
	je	.LBB7_4
# %bb.12:                               # %ctrl3
	cmpl	$4, %eax
	je	.LBB7_5
# %bb.13:                               # %ctrl4
	cmpl	$5, %eax
	je	.LBB7_6
# %bb.14:                               # %ctrl5
	cmpl	$6, %eax
	je	.LBB7_7
	jmp	.LBB7_8
.Lfunc_end7:
	.size	get_mem2D, .Lfunc_end7-get_mem2D
	.cfi_endproc
                                        # -- End function
	.globl	get_mem2Dint            # -- Begin function get_mem2Dint
	.p2align	4, 0x90
	.type	get_mem2Dint,@function
get_mem2Dint:                           # @get_mem2Dint
	.cfi_startproc
# %bb.0:                                # %rand_bb
	pushq	%rbp
	.cfi_def_cfa_offset 16
	.cfi_offset %rbp, -16
	movq	%rsp, %rbp
	.cfi_def_cfa_register %rbp
	pushq	%r15
	pushq	%r14
	pushq	%rbx
	pushq	%rax
	.cfi_offset %rbx, -40
	.cfi_offset %r14, -32
	.cfi_offset %r15, -24
	movl	%edx, %r14d
	movl	%esi, %r15d
	movq	%rdi, %rbx
	callq	get_rand
	cmpl	$0, %eax
	jne	.LBB8_9
# %bb.1:                                # %func_get_mem2Dint.37
	movq	%rbx, %rdi
	movl	%r15d, %esi
	movl	%r14d, %edx
	callq	get_mem2Dint.37
	addq	$8, %rsp
	popq	%rbx
	popq	%r14
	popq	%r15
	popq	%rbp
	.cfi_def_cfa %rsp, 8
	retq
.LBB8_2:                                # %func_get_mem2Dint.60
	.cfi_def_cfa %rbp, 16
	movq	%rbx, %rdi
	movl	%r15d, %esi
	movl	%r14d, %edx
	callq	get_mem2Dint.60
	addq	$8, %rsp
	popq	%rbx
	popq	%r14
	popq	%r15
	popq	%rbp
	.cfi_def_cfa %rsp, 8
	retq
.LBB8_3:                                # %func_get_mem2Dint.63
	.cfi_def_cfa %rbp, 16
	movq	%rbx, %rdi
	movl	%r15d, %esi
	movl	%r14d, %edx
	callq	get_mem2Dint.63
	addq	$8, %rsp
	popq	%rbx
	popq	%r14
	popq	%r15
	popq	%rbp
	.cfi_def_cfa %rsp, 8
	retq
.LBB8_4:                                # %func_get_mem2Dint.65
	.cfi_def_cfa %rbp, 16
	movq	%rbx, %rdi
	movl	%r15d, %esi
	movl	%r14d, %edx
	callq	get_mem2Dint.65
	addq	$8, %rsp
	popq	%rbx
	popq	%r14
	popq	%r15
	popq	%rbp
	.cfi_def_cfa %rsp, 8
	retq
.LBB8_5:                                # %func_get_mem2Dint.67
	.cfi_def_cfa %rbp, 16
	movq	%rbx, %rdi
	movl	%r15d, %esi
	movl	%r14d, %edx
	callq	get_mem2Dint.67
	addq	$8, %rsp
	popq	%rbx
	popq	%r14
	popq	%r15
	popq	%rbp
	.cfi_def_cfa %rsp, 8
	retq
.LBB8_6:                                # %func_get_mem2Dint.89
	.cfi_def_cfa %rbp, 16
	movq	%rbx, %rdi
	movl	%r15d, %esi
	movl	%r14d, %edx
	callq	get_mem2Dint.89
	addq	$8, %rsp
	popq	%rbx
	popq	%r14
	popq	%r15
	popq	%rbp
	.cfi_def_cfa %rsp, 8
	retq
.LBB8_7:                                # %func_get_mem2Dint.100
	.cfi_def_cfa %rbp, 16
	movq	%rbx, %rdi
	movl	%r15d, %esi
	movl	%r14d, %edx
	callq	get_mem2Dint.100
	addq	$8, %rsp
	popq	%rbx
	popq	%r14
	popq	%r15
	popq	%rbp
	.cfi_def_cfa %rsp, 8
	retq
.LBB8_8:                                # %func_get_mem2Dint.126
	.cfi_def_cfa %rbp, 16
	movq	%rbx, %rdi
	movl	%r15d, %esi
	movl	%r14d, %edx
	callq	get_mem2Dint.126
	addq	$8, %rsp
	popq	%rbx
	popq	%r14
	popq	%r15
	popq	%rbp
	.cfi_def_cfa %rsp, 8
	retq
.LBB8_9:                                # %ctrl0
	.cfi_def_cfa %rbp, 16
	cmpl	$1, %eax
	je	.LBB8_2
# %bb.10:                               # %ctrl1
	cmpl	$2, %eax
	je	.LBB8_3
# %bb.11:                               # %ctrl2
	cmpl	$3, %eax
	je	.LBB8_4
# %bb.12:                               # %ctrl3
	cmpl	$4, %eax
	je	.LBB8_5
# %bb.13:                               # %ctrl4
	cmpl	$5, %eax
	je	.LBB8_6
# %bb.14:                               # %ctrl5
	cmpl	$6, %eax
	je	.LBB8_7
	jmp	.LBB8_8
.Lfunc_end8:
	.size	get_mem2Dint, .Lfunc_end8-get_mem2Dint
	.cfi_endproc
                                        # -- End function
	.globl	get_mem2Dint64          # -- Begin function get_mem2Dint64
	.p2align	4, 0x90
	.type	get_mem2Dint64,@function
get_mem2Dint64:                         # @get_mem2Dint64
	.cfi_startproc
# %bb.0:                                # %rand_bb
	pushq	%rbp
	.cfi_def_cfa_offset 16
	.cfi_offset %rbp, -16
	movq	%rsp, %rbp
	.cfi_def_cfa_register %rbp
	pushq	%r15
	pushq	%r14
	pushq	%rbx
	pushq	%rax
	.cfi_offset %rbx, -40
	.cfi_offset %r14, -32
	.cfi_offset %r15, -24
	movl	%edx, %r14d
	movl	%esi, %r15d
	movq	%rdi, %rbx
	callq	get_rand
	cmpl	$0, %eax
	jne	.LBB9_9
# %bb.1:                                # %func_get_mem2Dint64.82
	movq	%rbx, %rdi
	movl	%r15d, %esi
	movl	%r14d, %edx
	callq	get_mem2Dint64.82
	addq	$8, %rsp
	popq	%rbx
	popq	%r14
	popq	%r15
	popq	%rbp
	.cfi_def_cfa %rsp, 8
	retq
.LBB9_2:                                # %func_get_mem2Dint64.87
	.cfi_def_cfa %rbp, 16
	movq	%rbx, %rdi
	movl	%r15d, %esi
	movl	%r14d, %edx
	callq	get_mem2Dint64.87
	addq	$8, %rsp
	popq	%rbx
	popq	%r14
	popq	%r15
	popq	%rbp
	.cfi_def_cfa %rsp, 8
	retq
.LBB9_3:                                # %func_get_mem2Dint64.91
	.cfi_def_cfa %rbp, 16
	movq	%rbx, %rdi
	movl	%r15d, %esi
	movl	%r14d, %edx
	callq	get_mem2Dint64.91
	addq	$8, %rsp
	popq	%rbx
	popq	%r14
	popq	%r15
	popq	%rbp
	.cfi_def_cfa %rsp, 8
	retq
.LBB9_4:                                # %func_get_mem2Dint64.92
	.cfi_def_cfa %rbp, 16
	movq	%rbx, %rdi
	movl	%r15d, %esi
	movl	%r14d, %edx
	callq	get_mem2Dint64.92
	addq	$8, %rsp
	popq	%rbx
	popq	%r14
	popq	%r15
	popq	%rbp
	.cfi_def_cfa %rsp, 8
	retq
.LBB9_5:                                # %func_get_mem2Dint64.115
	.cfi_def_cfa %rbp, 16
	movq	%rbx, %rdi
	movl	%r15d, %esi
	movl	%r14d, %edx
	callq	get_mem2Dint64.115
	addq	$8, %rsp
	popq	%rbx
	popq	%r14
	popq	%r15
	popq	%rbp
	.cfi_def_cfa %rsp, 8
	retq
.LBB9_6:                                # %func_get_mem2Dint64.140
	.cfi_def_cfa %rbp, 16
	movq	%rbx, %rdi
	movl	%r15d, %esi
	movl	%r14d, %edx
	callq	get_mem2Dint64.140
	addq	$8, %rsp
	popq	%rbx
	popq	%r14
	popq	%r15
	popq	%rbp
	.cfi_def_cfa %rsp, 8
	retq
.LBB9_7:                                # %func_get_mem2Dint64.142
	.cfi_def_cfa %rbp, 16
	movq	%rbx, %rdi
	movl	%r15d, %esi
	movl	%r14d, %edx
	callq	get_mem2Dint64.142
	addq	$8, %rsp
	popq	%rbx
	popq	%r14
	popq	%r15
	popq	%rbp
	.cfi_def_cfa %rsp, 8
	retq
.LBB9_8:                                # %func_get_mem2Dint64.145
	.cfi_def_cfa %rbp, 16
	movq	%rbx, %rdi
	movl	%r15d, %esi
	movl	%r14d, %edx
	callq	get_mem2Dint64.145
	addq	$8, %rsp
	popq	%rbx
	popq	%r14
	popq	%r15
	popq	%rbp
	.cfi_def_cfa %rsp, 8
	retq
.LBB9_9:                                # %ctrl0
	.cfi_def_cfa %rbp, 16
	cmpl	$1, %eax
	je	.LBB9_2
# %bb.10:                               # %ctrl1
	cmpl	$2, %eax
	je	.LBB9_3
# %bb.11:                               # %ctrl2
	cmpl	$3, %eax
	je	.LBB9_4
# %bb.12:                               # %ctrl3
	cmpl	$4, %eax
	je	.LBB9_5
# %bb.13:                               # %ctrl4
	cmpl	$5, %eax
	je	.LBB9_6
# %bb.14:                               # %ctrl5
	cmpl	$6, %eax
	je	.LBB9_7
	jmp	.LBB9_8
.Lfunc_end9:
	.size	get_mem2Dint64, .Lfunc_end9-get_mem2Dint64
	.cfi_endproc
                                        # -- End function
	.globl	get_mem3D               # -- Begin function get_mem3D
	.p2align	4, 0x90
	.type	get_mem3D,@function
get_mem3D:                              # @get_mem3D
	.cfi_startproc
# %bb.0:                                # %rand_bb
	pushq	%rbp
	.cfi_def_cfa_offset 16
	.cfi_offset %rbp, -16
	movq	%rsp, %rbp
	.cfi_def_cfa_register %rbp
	pushq	%r15
	pushq	%r14
	pushq	%r12
	pushq	%rbx
	.cfi_offset %rbx, -48
	.cfi_offset %r12, -40
	.cfi_offset %r14, -32
	.cfi_offset %r15, -24
	movl	%ecx, %r14d
	movl	%edx, %r15d
	movl	%esi, %r12d
	movq	%rdi, %rbx
	callq	get_rand
	cmpl	$0, %eax
	jne	.LBB10_9
# %bb.1:                                # %func_get_mem3D.11
	movq	%rbx, %rdi
	movl	%r12d, %esi
	movl	%r15d, %edx
	movl	%r14d, %ecx
	callq	get_mem3D.11
	popq	%rbx
	popq	%r12
	popq	%r14
	popq	%r15
	popq	%rbp
	.cfi_def_cfa %rsp, 8
	retq
.LBB10_2:                               # %func_get_mem3D.16
	.cfi_def_cfa %rbp, 16
	movq	%rbx, %rdi
	movl	%r12d, %esi
	movl	%r15d, %edx
	movl	%r14d, %ecx
	callq	get_mem3D.16
	popq	%rbx
	popq	%r12
	popq	%r14
	popq	%r15
	popq	%rbp
	.cfi_def_cfa %rsp, 8
	retq
.LBB10_3:                               # %func_get_mem3D.31
	.cfi_def_cfa %rbp, 16
	movq	%rbx, %rdi
	movl	%r12d, %esi
	movl	%r15d, %edx
	movl	%r14d, %ecx
	callq	get_mem3D.31
	popq	%rbx
	popq	%r12
	popq	%r14
	popq	%r15
	popq	%rbp
	.cfi_def_cfa %rsp, 8
	retq
.LBB10_4:                               # %func_get_mem3D.35
	.cfi_def_cfa %rbp, 16
	movq	%rbx, %rdi
	movl	%r12d, %esi
	movl	%r15d, %edx
	movl	%r14d, %ecx
	callq	get_mem3D.35
	popq	%rbx
	popq	%r12
	popq	%r14
	popq	%r15
	popq	%rbp
	.cfi_def_cfa %rsp, 8
	retq
.LBB10_5:                               # %func_get_mem3D.41
	.cfi_def_cfa %rbp, 16
	movq	%rbx, %rdi
	movl	%r12d, %esi
	movl	%r15d, %edx
	movl	%r14d, %ecx
	callq	get_mem3D.41
	popq	%rbx
	popq	%r12
	popq	%r14
	popq	%r15
	popq	%rbp
	.cfi_def_cfa %rsp, 8
	retq
.LBB10_6:                               # %func_get_mem3D.61
	.cfi_def_cfa %rbp, 16
	movq	%rbx, %rdi
	movl	%r12d, %esi
	movl	%r15d, %edx
	movl	%r14d, %ecx
	callq	get_mem3D.61
	popq	%rbx
	popq	%r12
	popq	%r14
	popq	%r15
	popq	%rbp
	.cfi_def_cfa %rsp, 8
	retq
.LBB10_7:                               # %func_get_mem3D.75
	.cfi_def_cfa %rbp, 16
	movq	%rbx, %rdi
	movl	%r12d, %esi
	movl	%r15d, %edx
	movl	%r14d, %ecx
	callq	get_mem3D.75
	popq	%rbx
	popq	%r12
	popq	%r14
	popq	%r15
	popq	%rbp
	.cfi_def_cfa %rsp, 8
	retq
.LBB10_8:                               # %func_get_mem3D.109
	.cfi_def_cfa %rbp, 16
	movq	%rbx, %rdi
	movl	%r12d, %esi
	movl	%r15d, %edx
	movl	%r14d, %ecx
	callq	get_mem3D.109
	popq	%rbx
	popq	%r12
	popq	%r14
	popq	%r15
	popq	%rbp
	.cfi_def_cfa %rsp, 8
	retq
.LBB10_9:                               # %ctrl0
	.cfi_def_cfa %rbp, 16
	cmpl	$1, %eax
	je	.LBB10_2
# %bb.10:                               # %ctrl1
	cmpl	$2, %eax
	je	.LBB10_3
# %bb.11:                               # %ctrl2
	cmpl	$3, %eax
	je	.LBB10_4
# %bb.12:                               # %ctrl3
	cmpl	$4, %eax
	je	.LBB10_5
# %bb.13:                               # %ctrl4
	cmpl	$5, %eax
	je	.LBB10_6
# %bb.14:                               # %ctrl5
	cmpl	$6, %eax
	je	.LBB10_7
	jmp	.LBB10_8
.Lfunc_end10:
	.size	get_mem3D, .Lfunc_end10-get_mem3D
	.cfi_endproc
                                        # -- End function
	.globl	get_mem3Dint            # -- Begin function get_mem3Dint
	.p2align	4, 0x90
	.type	get_mem3Dint,@function
get_mem3Dint:                           # @get_mem3Dint
	.cfi_startproc
# %bb.0:                                # %rand_bb
	pushq	%rbp
	.cfi_def_cfa_offset 16
	.cfi_offset %rbp, -16
	movq	%rsp, %rbp
	.cfi_def_cfa_register %rbp
	pushq	%r15
	pushq	%r14
	pushq	%r12
	pushq	%rbx
	.cfi_offset %rbx, -48
	.cfi_offset %r12, -40
	.cfi_offset %r14, -32
	.cfi_offset %r15, -24
	movl	%ecx, %r14d
	movl	%edx, %r15d
	movl	%esi, %r12d
	movq	%rdi, %rbx
	callq	get_rand
	cmpl	$0, %eax
	jne	.LBB11_9
# %bb.1:                                # %func_get_mem3Dint.3
	movq	%rbx, %rdi
	movl	%r12d, %esi
	movl	%r15d, %edx
	movl	%r14d, %ecx
	callq	get_mem3Dint.3
	popq	%rbx
	popq	%r12
	popq	%r14
	popq	%r15
	popq	%rbp
	.cfi_def_cfa %rsp, 8
	retq
.LBB11_2:                               # %func_get_mem3Dint.24
	.cfi_def_cfa %rbp, 16
	movq	%rbx, %rdi
	movl	%r12d, %esi
	movl	%r15d, %edx
	movl	%r14d, %ecx
	callq	get_mem3Dint.24
	popq	%rbx
	popq	%r12
	popq	%r14
	popq	%r15
	popq	%rbp
	.cfi_def_cfa %rsp, 8
	retq
.LBB11_3:                               # %func_get_mem3Dint.26
	.cfi_def_cfa %rbp, 16
	movq	%rbx, %rdi
	movl	%r12d, %esi
	movl	%r15d, %edx
	movl	%r14d, %ecx
	callq	get_mem3Dint.26
	popq	%rbx
	popq	%r12
	popq	%r14
	popq	%r15
	popq	%rbp
	.cfi_def_cfa %rsp, 8
	retq
.LBB11_4:                               # %func_get_mem3Dint.32
	.cfi_def_cfa %rbp, 16
	movq	%rbx, %rdi
	movl	%r12d, %esi
	movl	%r15d, %edx
	movl	%r14d, %ecx
	callq	get_mem3Dint.32
	popq	%rbx
	popq	%r12
	popq	%r14
	popq	%r15
	popq	%rbp
	.cfi_def_cfa %rsp, 8
	retq
.LBB11_5:                               # %func_get_mem3Dint.42
	.cfi_def_cfa %rbp, 16
	movq	%rbx, %rdi
	movl	%r12d, %esi
	movl	%r15d, %edx
	movl	%r14d, %ecx
	callq	get_mem3Dint.42
	popq	%rbx
	popq	%r12
	popq	%r14
	popq	%r15
	popq	%rbp
	.cfi_def_cfa %rsp, 8
	retq
.LBB11_6:                               # %func_get_mem3Dint.46
	.cfi_def_cfa %rbp, 16
	movq	%rbx, %rdi
	movl	%r12d, %esi
	movl	%r15d, %edx
	movl	%r14d, %ecx
	callq	get_mem3Dint.46
	popq	%rbx
	popq	%r12
	popq	%r14
	popq	%r15
	popq	%rbp
	.cfi_def_cfa %rsp, 8
	retq
.LBB11_7:                               # %func_get_mem3Dint.53
	.cfi_def_cfa %rbp, 16
	movq	%rbx, %rdi
	movl	%r12d, %esi
	movl	%r15d, %edx
	movl	%r14d, %ecx
	callq	get_mem3Dint.53
	popq	%rbx
	popq	%r12
	popq	%r14
	popq	%r15
	popq	%rbp
	.cfi_def_cfa %rsp, 8
	retq
.LBB11_8:                               # %func_get_mem3Dint.77
	.cfi_def_cfa %rbp, 16
	movq	%rbx, %rdi
	movl	%r12d, %esi
	movl	%r15d, %edx
	movl	%r14d, %ecx
	callq	get_mem3Dint.77
	popq	%rbx
	popq	%r12
	popq	%r14
	popq	%r15
	popq	%rbp
	.cfi_def_cfa %rsp, 8
	retq
.LBB11_9:                               # %ctrl0
	.cfi_def_cfa %rbp, 16
	cmpl	$1, %eax
	je	.LBB11_2
# %bb.10:                               # %ctrl1
	cmpl	$2, %eax
	je	.LBB11_3
# %bb.11:                               # %ctrl2
	cmpl	$3, %eax
	je	.LBB11_4
# %bb.12:                               # %ctrl3
	cmpl	$4, %eax
	je	.LBB11_5
# %bb.13:                               # %ctrl4
	cmpl	$5, %eax
	je	.LBB11_6
# %bb.14:                               # %ctrl5
	cmpl	$6, %eax
	je	.LBB11_7
	jmp	.LBB11_8
.Lfunc_end11:
	.size	get_mem3Dint, .Lfunc_end11-get_mem3Dint
	.cfi_endproc
                                        # -- End function
	.globl	get_mem3Dint64          # -- Begin function get_mem3Dint64
	.p2align	4, 0x90
	.type	get_mem3Dint64,@function
get_mem3Dint64:                         # @get_mem3Dint64
	.cfi_startproc
# %bb.0:                                # %rand_bb
	pushq	%rbp
	.cfi_def_cfa_offset 16
	.cfi_offset %rbp, -16
	movq	%rsp, %rbp
	.cfi_def_cfa_register %rbp
	pushq	%r15
	pushq	%r14
	pushq	%r12
	pushq	%rbx
	.cfi_offset %rbx, -48
	.cfi_offset %r12, -40
	.cfi_offset %r14, -32
	.cfi_offset %r15, -24
	movl	%ecx, %r14d
	movl	%edx, %r15d
	movl	%esi, %r12d
	movq	%rdi, %rbx
	callq	get_rand
	cmpl	$0, %eax
	jne	.LBB12_9
# %bb.1:                                # %func_get_mem3Dint64.28
	movq	%rbx, %rdi
	movl	%r12d, %esi
	movl	%r15d, %edx
	movl	%r14d, %ecx
	callq	get_mem3Dint64.28
	popq	%rbx
	popq	%r12
	popq	%r14
	popq	%r15
	popq	%rbp
	.cfi_def_cfa %rsp, 8
	retq
.LBB12_2:                               # %func_get_mem3Dint64.39
	.cfi_def_cfa %rbp, 16
	movq	%rbx, %rdi
	movl	%r12d, %esi
	movl	%r15d, %edx
	movl	%r14d, %ecx
	callq	get_mem3Dint64.39
	popq	%rbx
	popq	%r12
	popq	%r14
	popq	%r15
	popq	%rbp
	.cfi_def_cfa %rsp, 8
	retq
.LBB12_3:                               # %func_get_mem3Dint64.45
	.cfi_def_cfa %rbp, 16
	movq	%rbx, %rdi
	movl	%r12d, %esi
	movl	%r15d, %edx
	movl	%r14d, %ecx
	callq	get_mem3Dint64.45
	popq	%rbx
	popq	%r12
	popq	%r14
	popq	%r15
	popq	%rbp
	.cfi_def_cfa %rsp, 8
	retq
.LBB12_4:                               # %func_get_mem3Dint64.59
	.cfi_def_cfa %rbp, 16
	movq	%rbx, %rdi
	movl	%r12d, %esi
	movl	%r15d, %edx
	movl	%r14d, %ecx
	callq	get_mem3Dint64.59
	popq	%rbx
	popq	%r12
	popq	%r14
	popq	%r15
	popq	%rbp
	.cfi_def_cfa %rsp, 8
	retq
.LBB12_5:                               # %func_get_mem3Dint64.74
	.cfi_def_cfa %rbp, 16
	movq	%rbx, %rdi
	movl	%r12d, %esi
	movl	%r15d, %edx
	movl	%r14d, %ecx
	callq	get_mem3Dint64.74
	popq	%rbx
	popq	%r12
	popq	%r14
	popq	%r15
	popq	%rbp
	.cfi_def_cfa %rsp, 8
	retq
.LBB12_6:                               # %func_get_mem3Dint64.101
	.cfi_def_cfa %rbp, 16
	movq	%rbx, %rdi
	movl	%r12d, %esi
	movl	%r15d, %edx
	movl	%r14d, %ecx
	callq	get_mem3Dint64.101
	popq	%rbx
	popq	%r12
	popq	%r14
	popq	%r15
	popq	%rbp
	.cfi_def_cfa %rsp, 8
	retq
.LBB12_7:                               # %func_get_mem3Dint64.119
	.cfi_def_cfa %rbp, 16
	movq	%rbx, %rdi
	movl	%r12d, %esi
	movl	%r15d, %edx
	movl	%r14d, %ecx
	callq	get_mem3Dint64.119
	popq	%rbx
	popq	%r12
	popq	%r14
	popq	%r15
	popq	%rbp
	.cfi_def_cfa %rsp, 8
	retq
.LBB12_8:                               # %func_get_mem3Dint64.124
	.cfi_def_cfa %rbp, 16
	movq	%rbx, %rdi
	movl	%r12d, %esi
	movl	%r15d, %edx
	movl	%r14d, %ecx
	callq	get_mem3Dint64.124
	popq	%rbx
	popq	%r12
	popq	%r14
	popq	%r15
	popq	%rbp
	.cfi_def_cfa %rsp, 8
	retq
.LBB12_9:                               # %ctrl0
	.cfi_def_cfa %rbp, 16
	cmpl	$1, %eax
	je	.LBB12_2
# %bb.10:                               # %ctrl1
	cmpl	$2, %eax
	je	.LBB12_3
# %bb.11:                               # %ctrl2
	cmpl	$3, %eax
	je	.LBB12_4
# %bb.12:                               # %ctrl3
	cmpl	$4, %eax
	je	.LBB12_5
# %bb.13:                               # %ctrl4
	cmpl	$5, %eax
	je	.LBB12_6
# %bb.14:                               # %ctrl5
	cmpl	$6, %eax
	je	.LBB12_7
	jmp	.LBB12_8
.Lfunc_end12:
	.size	get_mem3Dint64, .Lfunc_end12-get_mem3Dint64
	.cfi_endproc
                                        # -- End function
	.globl	get_mem4Dint            # -- Begin function get_mem4Dint
	.p2align	4, 0x90
	.type	get_mem4Dint,@function
get_mem4Dint:                           # @get_mem4Dint
	.cfi_startproc
# %bb.0:                                # %rand_bb
	pushq	%rbp
	.cfi_def_cfa_offset 16
	.cfi_offset %rbp, -16
	movq	%rsp, %rbp
	.cfi_def_cfa_register %rbp
	pushq	%r15
	pushq	%r14
	pushq	%r13
	pushq	%r12
	pushq	%rbx
	pushq	%rax
	.cfi_offset %rbx, -56
	.cfi_offset %r12, -48
	.cfi_offset %r13, -40
	.cfi_offset %r14, -32
	.cfi_offset %r15, -24
	movl	%r8d, %r14d
	movl	%ecx, %r15d
	movl	%edx, %r12d
	movl	%esi, %r13d
	movq	%rdi, %rbx
	callq	get_rand
	cmpl	$0, %eax
	jne	.LBB13_9
# %bb.1:                                # %func_get_mem4Dint.17
	movq	%rbx, %rdi
	movl	%r13d, %esi
	movl	%r12d, %edx
	movl	%r15d, %ecx
	movl	%r14d, %r8d
	callq	get_mem4Dint.17
	addq	$8, %rsp
	popq	%rbx
	popq	%r12
	popq	%r13
	popq	%r14
	popq	%r15
	popq	%rbp
	.cfi_def_cfa %rsp, 8
	retq
.LBB13_2:                               # %func_get_mem4Dint.47
	.cfi_def_cfa %rbp, 16
	movq	%rbx, %rdi
	movl	%r13d, %esi
	movl	%r12d, %edx
	movl	%r15d, %ecx
	movl	%r14d, %r8d
	callq	get_mem4Dint.47
	addq	$8, %rsp
	popq	%rbx
	popq	%r12
	popq	%r13
	popq	%r14
	popq	%r15
	popq	%rbp
	.cfi_def_cfa %rsp, 8
	retq
.LBB13_3:                               # %func_get_mem4Dint.68
	.cfi_def_cfa %rbp, 16
	movq	%rbx, %rdi
	movl	%r13d, %esi
	movl	%r12d, %edx
	movl	%r15d, %ecx
	movl	%r14d, %r8d
	callq	get_mem4Dint.68
	addq	$8, %rsp
	popq	%rbx
	popq	%r12
	popq	%r13
	popq	%r14
	popq	%r15
	popq	%rbp
	.cfi_def_cfa %rsp, 8
	retq
.LBB13_4:                               # %func_get_mem4Dint.127
	.cfi_def_cfa %rbp, 16
	movq	%rbx, %rdi
	movl	%r13d, %esi
	movl	%r12d, %edx
	movl	%r15d, %ecx
	movl	%r14d, %r8d
	callq	get_mem4Dint.127
	addq	$8, %rsp
	popq	%rbx
	popq	%r12
	popq	%r13
	popq	%r14
	popq	%r15
	popq	%rbp
	.cfi_def_cfa %rsp, 8
	retq
.LBB13_5:                               # %func_get_mem4Dint.132
	.cfi_def_cfa %rbp, 16
	movq	%rbx, %rdi
	movl	%r13d, %esi
	movl	%r12d, %edx
	movl	%r15d, %ecx
	movl	%r14d, %r8d
	callq	get_mem4Dint.132
	addq	$8, %rsp
	popq	%rbx
	popq	%r12
	popq	%r13
	popq	%r14
	popq	%r15
	popq	%rbp
	.cfi_def_cfa %rsp, 8
	retq
.LBB13_6:                               # %func_get_mem4Dint.141
	.cfi_def_cfa %rbp, 16
	movq	%rbx, %rdi
	movl	%r13d, %esi
	movl	%r12d, %edx
	movl	%r15d, %ecx
	movl	%r14d, %r8d
	callq	get_mem4Dint.141
	addq	$8, %rsp
	popq	%rbx
	popq	%r12
	popq	%r13
	popq	%r14
	popq	%r15
	popq	%rbp
	.cfi_def_cfa %rsp, 8
	retq
.LBB13_7:                               # %func_get_mem4Dint.146
	.cfi_def_cfa %rbp, 16
	movq	%rbx, %rdi
	movl	%r13d, %esi
	movl	%r12d, %edx
	movl	%r15d, %ecx
	movl	%r14d, %r8d
	callq	get_mem4Dint.146
	addq	$8, %rsp
	popq	%rbx
	popq	%r12
	popq	%r13
	popq	%r14
	popq	%r15
	popq	%rbp
	.cfi_def_cfa %rsp, 8
	retq
.LBB13_8:                               # %func_get_mem4Dint.151
	.cfi_def_cfa %rbp, 16
	movq	%rbx, %rdi
	movl	%r13d, %esi
	movl	%r12d, %edx
	movl	%r15d, %ecx
	movl	%r14d, %r8d
	callq	get_mem4Dint.151
	addq	$8, %rsp
	popq	%rbx
	popq	%r12
	popq	%r13
	popq	%r14
	popq	%r15
	popq	%rbp
	.cfi_def_cfa %rsp, 8
	retq
.LBB13_9:                               # %ctrl0
	.cfi_def_cfa %rbp, 16
	cmpl	$1, %eax
	je	.LBB13_2
# %bb.10:                               # %ctrl1
	cmpl	$2, %eax
	je	.LBB13_3
# %bb.11:                               # %ctrl2
	cmpl	$3, %eax
	je	.LBB13_4
# %bb.12:                               # %ctrl3
	cmpl	$4, %eax
	je	.LBB13_5
# %bb.13:                               # %ctrl4
	cmpl	$5, %eax
	je	.LBB13_6
# %bb.14:                               # %ctrl5
	cmpl	$6, %eax
	je	.LBB13_7
	jmp	.LBB13_8
.Lfunc_end13:
	.size	get_mem4Dint, .Lfunc_end13-get_mem4Dint
	.cfi_endproc
                                        # -- End function
	.globl	free_mem2D              # -- Begin function free_mem2D
	.p2align	4, 0x90
	.type	free_mem2D,@function
free_mem2D:                             # @free_mem2D
	.cfi_startproc
# %bb.0:                                # %entry
	pushq	%rbp
	.cfi_def_cfa_offset 16
	.cfi_offset %rbp, -16
	movq	%rsp, %rbp
	.cfi_def_cfa_register %rbp
	subq	$16, %rsp
	movq	%rdi, -8(%rbp)
	cmpq	$0, -8(%rbp)
	je	.LBB14_5
# %bb.1:                                # %if.then
	movq	-8(%rbp), %rax
	cmpq	$0, (%rax)
	je	.LBB14_3
# %bb.2:                                # %if.then2
	movq	-8(%rbp), %rax
	movq	(%rax), %rdi
	callq	free
	jmp	.LBB14_4
.LBB14_3:                               # %if.else
	movabsq	$.L.str.13, %rdi
	movl	$100, %esi
	callq	error
.LBB14_4:                               # %if.end
	movq	-8(%rbp), %rdi
	callq	free
	jmp	.LBB14_6
.LBB14_5:                               # %if.else4
	movabsq	$.L.str.13, %rdi
	movl	$100, %esi
	callq	error
.LBB14_6:                               # %if.end5
	addq	$16, %rsp
	popq	%rbp
	.cfi_def_cfa %rsp, 8
	retq
.Lfunc_end14:
	.size	free_mem2D, .Lfunc_end14-free_mem2D
	.cfi_endproc
                                        # -- End function
	.globl	free_mem2Dint           # -- Begin function free_mem2Dint
	.p2align	4, 0x90
	.type	free_mem2Dint,@function
free_mem2Dint:                          # @free_mem2Dint
	.cfi_startproc
# %bb.0:                                # %entry
	pushq	%rbp
	.cfi_def_cfa_offset 16
	.cfi_offset %rbp, -16
	movq	%rsp, %rbp
	.cfi_def_cfa_register %rbp
	subq	$16, %rsp
	movq	%rdi, -8(%rbp)
	cmpq	$0, -8(%rbp)
	je	.LBB15_5
# %bb.1:                                # %if.then
	movq	-8(%rbp), %rax
	cmpq	$0, (%rax)
	je	.LBB15_3
# %bb.2:                                # %if.then2
	movq	-8(%rbp), %rax
	movq	(%rax), %rdi
	callq	free
	jmp	.LBB15_4
.LBB15_3:                               # %if.else
	movabsq	$.L.str.14, %rdi
	movl	$100, %esi
	callq	error
.LBB15_4:                               # %if.end
	movq	-8(%rbp), %rdi
	callq	free
	jmp	.LBB15_6
.LBB15_5:                               # %if.else4
	movabsq	$.L.str.14, %rdi
	movl	$100, %esi
	callq	error
.LBB15_6:                               # %if.end5
	addq	$16, %rsp
	popq	%rbp
	.cfi_def_cfa %rsp, 8
	retq
.Lfunc_end15:
	.size	free_mem2Dint, .Lfunc_end15-free_mem2Dint
	.cfi_endproc
                                        # -- End function
	.globl	free_mem2Dint64         # -- Begin function free_mem2Dint64
	.p2align	4, 0x90
	.type	free_mem2Dint64,@function
free_mem2Dint64:                        # @free_mem2Dint64
	.cfi_startproc
# %bb.0:                                # %entry
	pushq	%rbp
	.cfi_def_cfa_offset 16
	.cfi_offset %rbp, -16
	movq	%rsp, %rbp
	.cfi_def_cfa_register %rbp
	subq	$16, %rsp
	movq	%rdi, -8(%rbp)
	cmpq	$0, -8(%rbp)
	je	.LBB16_5
# %bb.1:                                # %if.then
	movq	-8(%rbp), %rax
	cmpq	$0, (%rax)
	je	.LBB16_3
# %bb.2:                                # %if.then2
	movq	-8(%rbp), %rax
	movq	(%rax), %rdi
	callq	free
	jmp	.LBB16_4
.LBB16_3:                               # %if.else
	movabsq	$.L.str.15, %rdi
	movl	$100, %esi
	callq	error
.LBB16_4:                               # %if.end
	movq	-8(%rbp), %rdi
	callq	free
	jmp	.LBB16_6
.LBB16_5:                               # %if.else4
	movabsq	$.L.str.15, %rdi
	movl	$100, %esi
	callq	error
.LBB16_6:                               # %if.end5
	addq	$16, %rsp
	popq	%rbp
	.cfi_def_cfa %rsp, 8
	retq
.Lfunc_end16:
	.size	free_mem2Dint64, .Lfunc_end16-free_mem2Dint64
	.cfi_endproc
                                        # -- End function
	.globl	free_mem3D              # -- Begin function free_mem3D
	.p2align	4, 0x90
	.type	free_mem3D,@function
free_mem3D:                             # @free_mem3D
	.cfi_startproc
# %bb.0:                                # %rand_bb
	pushq	%rbp
	.cfi_def_cfa_offset 16
	.cfi_offset %rbp, -16
	movq	%rsp, %rbp
	.cfi_def_cfa_register %rbp
	pushq	%r14
	pushq	%rbx
	.cfi_offset %rbx, -32
	.cfi_offset %r14, -24
	movl	%esi, %r14d
	movq	%rdi, %rbx
	callq	get_rand
	cmpl	$0, %eax
	jne	.LBB17_7
# %bb.1:                                # %func_free_mem3D.64
	movq	%rbx, %rdi
	movl	%r14d, %esi
	callq	free_mem3D.64
	popq	%rbx
	popq	%r14
	popq	%rbp
	.cfi_def_cfa %rsp, 8
	retq
.LBB17_2:                               # %func_free_mem3D.70
	.cfi_def_cfa %rbp, 16
	movq	%rbx, %rdi
	movl	%r14d, %esi
	callq	free_mem3D.70
	popq	%rbx
	popq	%r14
	popq	%rbp
	.cfi_def_cfa %rsp, 8
	retq
.LBB17_3:                               # %func_free_mem3D.73
	.cfi_def_cfa %rbp, 16
	movq	%rbx, %rdi
	movl	%r14d, %esi
	callq	free_mem3D.73
	popq	%rbx
	popq	%r14
	popq	%rbp
	.cfi_def_cfa %rsp, 8
	retq
.LBB17_4:                               # %func_free_mem3D.135
	.cfi_def_cfa %rbp, 16
	movq	%rbx, %rdi
	movl	%r14d, %esi
	callq	free_mem3D.135
	popq	%rbx
	popq	%r14
	popq	%rbp
	.cfi_def_cfa %rsp, 8
	retq
.LBB17_5:                               # %func_free_mem3D.144
	.cfi_def_cfa %rbp, 16
	movq	%rbx, %rdi
	movl	%r14d, %esi
	callq	free_mem3D.144
	popq	%rbx
	popq	%r14
	popq	%rbp
	.cfi_def_cfa %rsp, 8
	retq
.LBB17_6:                               # %func_free_mem3D.152
	.cfi_def_cfa %rbp, 16
	movq	%rbx, %rdi
	movl	%r14d, %esi
	callq	free_mem3D.152
	popq	%rbx
	popq	%r14
	popq	%rbp
	.cfi_def_cfa %rsp, 8
	retq
.LBB17_7:                               # %ctrl0
	.cfi_def_cfa %rbp, 16
	cmpl	$1, %eax
	je	.LBB17_2
# %bb.8:                                # %ctrl1
	cmpl	$2, %eax
	je	.LBB17_3
# %bb.9:                                # %ctrl2
	cmpl	$3, %eax
	je	.LBB17_4
# %bb.10:                               # %ctrl3
	cmpl	$4, %eax
	je	.LBB17_5
	jmp	.LBB17_6
.Lfunc_end17:
	.size	free_mem3D, .Lfunc_end17-free_mem3D
	.cfi_endproc
                                        # -- End function
	.globl	free_mem3Dint           # -- Begin function free_mem3Dint
	.p2align	4, 0x90
	.type	free_mem3Dint,@function
free_mem3Dint:                          # @free_mem3Dint
	.cfi_startproc
# %bb.0:                                # %rand_bb
	pushq	%rbp
	.cfi_def_cfa_offset 16
	.cfi_offset %rbp, -16
	movq	%rsp, %rbp
	.cfi_def_cfa_register %rbp
	pushq	%r14
	pushq	%rbx
	.cfi_offset %rbx, -32
	.cfi_offset %r14, -24
	movl	%esi, %r14d
	movq	%rdi, %rbx
	callq	get_rand
	cmpl	$0, %eax
	jne	.LBB18_7
# %bb.1:                                # %func_free_mem3Dint.9
	movq	%rbx, %rdi
	movl	%r14d, %esi
	callq	free_mem3Dint.9
	popq	%rbx
	popq	%r14
	popq	%rbp
	.cfi_def_cfa %rsp, 8
	retq
.LBB18_2:                               # %func_free_mem3Dint.20
	.cfi_def_cfa %rbp, 16
	movq	%rbx, %rdi
	movl	%r14d, %esi
	callq	free_mem3Dint.20
	popq	%rbx
	popq	%r14
	popq	%rbp
	.cfi_def_cfa %rsp, 8
	retq
.LBB18_3:                               # %func_free_mem3Dint.25
	.cfi_def_cfa %rbp, 16
	movq	%rbx, %rdi
	movl	%r14d, %esi
	callq	free_mem3Dint.25
	popq	%rbx
	popq	%r14
	popq	%rbp
	.cfi_def_cfa %rsp, 8
	retq
.LBB18_4:                               # %func_free_mem3Dint.57
	.cfi_def_cfa %rbp, 16
	movq	%rbx, %rdi
	movl	%r14d, %esi
	callq	free_mem3Dint.57
	popq	%rbx
	popq	%r14
	popq	%rbp
	.cfi_def_cfa %rsp, 8
	retq
.LBB18_5:                               # %func_free_mem3Dint.76
	.cfi_def_cfa %rbp, 16
	movq	%rbx, %rdi
	movl	%r14d, %esi
	callq	free_mem3Dint.76
	popq	%rbx
	popq	%r14
	popq	%rbp
	.cfi_def_cfa %rsp, 8
	retq
.LBB18_6:                               # %func_free_mem3Dint.93
	.cfi_def_cfa %rbp, 16
	movq	%rbx, %rdi
	movl	%r14d, %esi
	callq	free_mem3Dint.93
	popq	%rbx
	popq	%r14
	popq	%rbp
	.cfi_def_cfa %rsp, 8
	retq
.LBB18_7:                               # %ctrl0
	.cfi_def_cfa %rbp, 16
	cmpl	$1, %eax
	je	.LBB18_2
# %bb.8:                                # %ctrl1
	cmpl	$2, %eax
	je	.LBB18_3
# %bb.9:                                # %ctrl2
	cmpl	$3, %eax
	je	.LBB18_4
# %bb.10:                               # %ctrl3
	cmpl	$4, %eax
	je	.LBB18_5
	jmp	.LBB18_6
.Lfunc_end18:
	.size	free_mem3Dint, .Lfunc_end18-free_mem3Dint
	.cfi_endproc
                                        # -- End function
	.globl	free_mem3Dint64         # -- Begin function free_mem3Dint64
	.p2align	4, 0x90
	.type	free_mem3Dint64,@function
free_mem3Dint64:                        # @free_mem3Dint64
	.cfi_startproc
# %bb.0:                                # %rand_bb
	pushq	%rbp
	.cfi_def_cfa_offset 16
	.cfi_offset %rbp, -16
	movq	%rsp, %rbp
	.cfi_def_cfa_register %rbp
	pushq	%r14
	pushq	%rbx
	.cfi_offset %rbx, -32
	.cfi_offset %r14, -24
	movl	%esi, %r14d
	movq	%rdi, %rbx
	callq	get_rand
	cmpl	$0, %eax
	jne	.LBB19_7
# %bb.1:                                # %func_free_mem3Dint64.14
	movq	%rbx, %rdi
	movl	%r14d, %esi
	callq	free_mem3Dint64.14
	popq	%rbx
	popq	%r14
	popq	%rbp
	.cfi_def_cfa %rsp, 8
	retq
.LBB19_2:                               # %func_free_mem3Dint64.30
	.cfi_def_cfa %rbp, 16
	movq	%rbx, %rdi
	movl	%r14d, %esi
	callq	free_mem3Dint64.30
	popq	%rbx
	popq	%r14
	popq	%rbp
	.cfi_def_cfa %rsp, 8
	retq
.LBB19_3:                               # %func_free_mem3Dint64.54
	.cfi_def_cfa %rbp, 16
	movq	%rbx, %rdi
	movl	%r14d, %esi
	callq	free_mem3Dint64.54
	popq	%rbx
	popq	%r14
	popq	%rbp
	.cfi_def_cfa %rsp, 8
	retq
.LBB19_4:                               # %func_free_mem3Dint64.55
	.cfi_def_cfa %rbp, 16
	movq	%rbx, %rdi
	movl	%r14d, %esi
	callq	free_mem3Dint64.55
	popq	%rbx
	popq	%r14
	popq	%rbp
	.cfi_def_cfa %rsp, 8
	retq
.LBB19_5:                               # %func_free_mem3Dint64.79
	.cfi_def_cfa %rbp, 16
	movq	%rbx, %rdi
	movl	%r14d, %esi
	callq	free_mem3Dint64.79
	popq	%rbx
	popq	%r14
	popq	%rbp
	.cfi_def_cfa %rsp, 8
	retq
.LBB19_6:                               # %func_free_mem3Dint64.90
	.cfi_def_cfa %rbp, 16
	movq	%rbx, %rdi
	movl	%r14d, %esi
	callq	free_mem3Dint64.90
	popq	%rbx
	popq	%r14
	popq	%rbp
	.cfi_def_cfa %rsp, 8
	retq
.LBB19_7:                               # %ctrl0
	.cfi_def_cfa %rbp, 16
	cmpl	$1, %eax
	je	.LBB19_2
# %bb.8:                                # %ctrl1
	cmpl	$2, %eax
	je	.LBB19_3
# %bb.9:                                # %ctrl2
	cmpl	$3, %eax
	je	.LBB19_4
# %bb.10:                               # %ctrl3
	cmpl	$4, %eax
	je	.LBB19_5
	jmp	.LBB19_6
.Lfunc_end19:
	.size	free_mem3Dint64, .Lfunc_end19-free_mem3Dint64
	.cfi_endproc
                                        # -- End function
	.globl	free_mem4Dint           # -- Begin function free_mem4Dint
	.p2align	4, 0x90
	.type	free_mem4Dint,@function
free_mem4Dint:                          # @free_mem4Dint
	.cfi_startproc
# %bb.0:                                # %rand_bb
	pushq	%rbp
	.cfi_def_cfa_offset 16
	.cfi_offset %rbp, -16
	movq	%rsp, %rbp
	.cfi_def_cfa_register %rbp
	pushq	%r15
	pushq	%r14
	pushq	%rbx
	pushq	%rax
	.cfi_offset %rbx, -40
	.cfi_offset %r14, -32
	.cfi_offset %r15, -24
	movl	%edx, %r14d
	movl	%esi, %r15d
	movq	%rdi, %rbx
	callq	get_rand
	cmpl	$0, %eax
	jne	.LBB20_9
# %bb.1:                                # %func_free_mem4Dint.2
	movq	%rbx, %rdi
	movl	%r15d, %esi
	movl	%r14d, %edx
	callq	free_mem4Dint.2
	addq	$8, %rsp
	popq	%rbx
	popq	%r14
	popq	%r15
	popq	%rbp
	.cfi_def_cfa %rsp, 8
	retq
.LBB20_2:                               # %func_free_mem4Dint.8
	.cfi_def_cfa %rbp, 16
	movq	%rbx, %rdi
	movl	%r15d, %esi
	movl	%r14d, %edx
	callq	free_mem4Dint.8
	addq	$8, %rsp
	popq	%rbx
	popq	%r14
	popq	%r15
	popq	%rbp
	.cfi_def_cfa %rsp, 8
	retq
.LBB20_3:                               # %func_free_mem4Dint.18
	.cfi_def_cfa %rbp, 16
	movq	%rbx, %rdi
	movl	%r15d, %esi
	movl	%r14d, %edx
	callq	free_mem4Dint.18
	addq	$8, %rsp
	popq	%rbx
	popq	%r14
	popq	%r15
	popq	%rbp
	.cfi_def_cfa %rsp, 8
	retq
.LBB20_4:                               # %func_free_mem4Dint.83
	.cfi_def_cfa %rbp, 16
	movq	%rbx, %rdi
	movl	%r15d, %esi
	movl	%r14d, %edx
	callq	free_mem4Dint.83
	addq	$8, %rsp
	popq	%rbx
	popq	%r14
	popq	%r15
	popq	%rbp
	.cfi_def_cfa %rsp, 8
	retq
.LBB20_5:                               # %func_free_mem4Dint.86
	.cfi_def_cfa %rbp, 16
	movq	%rbx, %rdi
	movl	%r15d, %esi
	movl	%r14d, %edx
	callq	free_mem4Dint.86
	addq	$8, %rsp
	popq	%rbx
	popq	%r14
	popq	%r15
	popq	%rbp
	.cfi_def_cfa %rsp, 8
	retq
.LBB20_6:                               # %func_free_mem4Dint.99
	.cfi_def_cfa %rbp, 16
	movq	%rbx, %rdi
	movl	%r15d, %esi
	movl	%r14d, %edx
	callq	free_mem4Dint.99
	addq	$8, %rsp
	popq	%rbx
	popq	%r14
	popq	%r15
	popq	%rbp
	.cfi_def_cfa %rsp, 8
	retq
.LBB20_7:                               # %func_free_mem4Dint.104
	.cfi_def_cfa %rbp, 16
	movq	%rbx, %rdi
	movl	%r15d, %esi
	movl	%r14d, %edx
	callq	free_mem4Dint.104
	addq	$8, %rsp
	popq	%rbx
	popq	%r14
	popq	%r15
	popq	%rbp
	.cfi_def_cfa %rsp, 8
	retq
.LBB20_8:                               # %func_free_mem4Dint.105
	.cfi_def_cfa %rbp, 16
	movq	%rbx, %rdi
	movl	%r15d, %esi
	movl	%r14d, %edx
	callq	free_mem4Dint.105
	addq	$8, %rsp
	popq	%rbx
	popq	%r14
	popq	%r15
	popq	%rbp
	.cfi_def_cfa %rsp, 8
	retq
.LBB20_9:                               # %ctrl0
	.cfi_def_cfa %rbp, 16
	cmpl	$1, %eax
	je	.LBB20_2
# %bb.10:                               # %ctrl1
	cmpl	$2, %eax
	je	.LBB20_3
# %bb.11:                               # %ctrl2
	cmpl	$3, %eax
	je	.LBB20_4
# %bb.12:                               # %ctrl3
	cmpl	$4, %eax
	je	.LBB20_5
# %bb.13:                               # %ctrl4
	cmpl	$5, %eax
	je	.LBB20_6
# %bb.14:                               # %ctrl5
	cmpl	$6, %eax
	je	.LBB20_7
	jmp	.LBB20_8
.Lfunc_end20:
	.size	free_mem4Dint, .Lfunc_end20-free_mem4Dint
	.cfi_endproc
                                        # -- End function
	.globl	get_mem2Dshort          # -- Begin function get_mem2Dshort
	.p2align	4, 0x90
	.type	get_mem2Dshort,@function
get_mem2Dshort:                         # @get_mem2Dshort
	.cfi_startproc
# %bb.0:                                # %rand_bb
	pushq	%rbp
	.cfi_def_cfa_offset 16
	.cfi_offset %rbp, -16
	movq	%rsp, %rbp
	.cfi_def_cfa_register %rbp
	pushq	%r15
	pushq	%r14
	pushq	%rbx
	pushq	%rax
	.cfi_offset %rbx, -40
	.cfi_offset %r14, -32
	.cfi_offset %r15, -24
	movl	%edx, %r14d
	movl	%esi, %r15d
	movq	%rdi, %rbx
	callq	get_rand
	cmpl	$0, %eax
	jne	.LBB21_9
# %bb.1:                                # %func_get_mem2Dshort.56
	movq	%rbx, %rdi
	movl	%r15d, %esi
	movl	%r14d, %edx
	callq	get_mem2Dshort.56
	addq	$8, %rsp
	popq	%rbx
	popq	%r14
	popq	%r15
	popq	%rbp
	.cfi_def_cfa %rsp, 8
	retq
.LBB21_2:                               # %func_get_mem2Dshort.66
	.cfi_def_cfa %rbp, 16
	movq	%rbx, %rdi
	movl	%r15d, %esi
	movl	%r14d, %edx
	callq	get_mem2Dshort.66
	addq	$8, %rsp
	popq	%rbx
	popq	%r14
	popq	%r15
	popq	%rbp
	.cfi_def_cfa %rsp, 8
	retq
.LBB21_3:                               # %func_get_mem2Dshort.106
	.cfi_def_cfa %rbp, 16
	movq	%rbx, %rdi
	movl	%r15d, %esi
	movl	%r14d, %edx
	callq	get_mem2Dshort.106
	addq	$8, %rsp
	popq	%rbx
	popq	%r14
	popq	%r15
	popq	%rbp
	.cfi_def_cfa %rsp, 8
	retq
.LBB21_4:                               # %func_get_mem2Dshort.111
	.cfi_def_cfa %rbp, 16
	movq	%rbx, %rdi
	movl	%r15d, %esi
	movl	%r14d, %edx
	callq	get_mem2Dshort.111
	addq	$8, %rsp
	popq	%rbx
	popq	%r14
	popq	%r15
	popq	%rbp
	.cfi_def_cfa %rsp, 8
	retq
.LBB21_5:                               # %func_get_mem2Dshort.113
	.cfi_def_cfa %rbp, 16
	movq	%rbx, %rdi
	movl	%r15d, %esi
	movl	%r14d, %edx
	callq	get_mem2Dshort.113
	addq	$8, %rsp
	popq	%rbx
	popq	%r14
	popq	%r15
	popq	%rbp
	.cfi_def_cfa %rsp, 8
	retq
.LBB21_6:                               # %func_get_mem2Dshort.116
	.cfi_def_cfa %rbp, 16
	movq	%rbx, %rdi
	movl	%r15d, %esi
	movl	%r14d, %edx
	callq	get_mem2Dshort.116
	addq	$8, %rsp
	popq	%rbx
	popq	%r14
	popq	%r15
	popq	%rbp
	.cfi_def_cfa %rsp, 8
	retq
.LBB21_7:                               # %func_get_mem2Dshort.131
	.cfi_def_cfa %rbp, 16
	movq	%rbx, %rdi
	movl	%r15d, %esi
	movl	%r14d, %edx
	callq	get_mem2Dshort.131
	addq	$8, %rsp
	popq	%rbx
	popq	%r14
	popq	%r15
	popq	%rbp
	.cfi_def_cfa %rsp, 8
	retq
.LBB21_8:                               # %func_get_mem2Dshort.136
	.cfi_def_cfa %rbp, 16
	movq	%rbx, %rdi
	movl	%r15d, %esi
	movl	%r14d, %edx
	callq	get_mem2Dshort.136
	addq	$8, %rsp
	popq	%rbx
	popq	%r14
	popq	%r15
	popq	%rbp
	.cfi_def_cfa %rsp, 8
	retq
.LBB21_9:                               # %ctrl0
	.cfi_def_cfa %rbp, 16
	cmpl	$1, %eax
	je	.LBB21_2
# %bb.10:                               # %ctrl1
	cmpl	$2, %eax
	je	.LBB21_3
# %bb.11:                               # %ctrl2
	cmpl	$3, %eax
	je	.LBB21_4
# %bb.12:                               # %ctrl3
	cmpl	$4, %eax
	je	.LBB21_5
# %bb.13:                               # %ctrl4
	cmpl	$5, %eax
	je	.LBB21_6
# %bb.14:                               # %ctrl5
	cmpl	$6, %eax
	je	.LBB21_7
	jmp	.LBB21_8
.Lfunc_end21:
	.size	get_mem2Dshort, .Lfunc_end21-get_mem2Dshort
	.cfi_endproc
                                        # -- End function
	.globl	get_mem3Dshort          # -- Begin function get_mem3Dshort
	.p2align	4, 0x90
	.type	get_mem3Dshort,@function
get_mem3Dshort:                         # @get_mem3Dshort
	.cfi_startproc
# %bb.0:                                # %rand_bb
	pushq	%rbp
	.cfi_def_cfa_offset 16
	.cfi_offset %rbp, -16
	movq	%rsp, %rbp
	.cfi_def_cfa_register %rbp
	pushq	%r15
	pushq	%r14
	pushq	%r12
	pushq	%rbx
	.cfi_offset %rbx, -48
	.cfi_offset %r12, -40
	.cfi_offset %r14, -32
	.cfi_offset %r15, -24
	movl	%ecx, %r14d
	movl	%edx, %r15d
	movl	%esi, %r12d
	movq	%rdi, %rbx
	callq	get_rand
	cmpl	$0, %eax
	jne	.LBB22_9
# %bb.1:                                # %func_get_mem3Dshort.6
	movq	%rbx, %rdi
	movl	%r12d, %esi
	movl	%r15d, %edx
	movl	%r14d, %ecx
	callq	get_mem3Dshort.6
	popq	%rbx
	popq	%r12
	popq	%r14
	popq	%r15
	popq	%rbp
	.cfi_def_cfa %rsp, 8
	retq
.LBB22_2:                               # %func_get_mem3Dshort.19
	.cfi_def_cfa %rbp, 16
	movq	%rbx, %rdi
	movl	%r12d, %esi
	movl	%r15d, %edx
	movl	%r14d, %ecx
	callq	get_mem3Dshort.19
	popq	%rbx
	popq	%r12
	popq	%r14
	popq	%r15
	popq	%rbp
	.cfi_def_cfa %rsp, 8
	retq
.LBB22_3:                               # %func_get_mem3Dshort.29
	.cfi_def_cfa %rbp, 16
	movq	%rbx, %rdi
	movl	%r12d, %esi
	movl	%r15d, %edx
	movl	%r14d, %ecx
	callq	get_mem3Dshort.29
	popq	%rbx
	popq	%r12
	popq	%r14
	popq	%r15
	popq	%rbp
	.cfi_def_cfa %rsp, 8
	retq
.LBB22_4:                               # %func_get_mem3Dshort.97
	.cfi_def_cfa %rbp, 16
	movq	%rbx, %rdi
	movl	%r12d, %esi
	movl	%r15d, %edx
	movl	%r14d, %ecx
	callq	get_mem3Dshort.97
	popq	%rbx
	popq	%r12
	popq	%r14
	popq	%r15
	popq	%rbp
	.cfi_def_cfa %rsp, 8
	retq
.LBB22_5:                               # %func_get_mem3Dshort.110
	.cfi_def_cfa %rbp, 16
	movq	%rbx, %rdi
	movl	%r12d, %esi
	movl	%r15d, %edx
	movl	%r14d, %ecx
	callq	get_mem3Dshort.110
	popq	%rbx
	popq	%r12
	popq	%r14
	popq	%r15
	popq	%rbp
	.cfi_def_cfa %rsp, 8
	retq
.LBB22_6:                               # %func_get_mem3Dshort.123
	.cfi_def_cfa %rbp, 16
	movq	%rbx, %rdi
	movl	%r12d, %esi
	movl	%r15d, %edx
	movl	%r14d, %ecx
	callq	get_mem3Dshort.123
	popq	%rbx
	popq	%r12
	popq	%r14
	popq	%r15
	popq	%rbp
	.cfi_def_cfa %rsp, 8
	retq
.LBB22_7:                               # %func_get_mem3Dshort.125
	.cfi_def_cfa %rbp, 16
	movq	%rbx, %rdi
	movl	%r12d, %esi
	movl	%r15d, %edx
	movl	%r14d, %ecx
	callq	get_mem3Dshort.125
	popq	%rbx
	popq	%r12
	popq	%r14
	popq	%r15
	popq	%rbp
	.cfi_def_cfa %rsp, 8
	retq
.LBB22_8:                               # %func_get_mem3Dshort.138
	.cfi_def_cfa %rbp, 16
	movq	%rbx, %rdi
	movl	%r12d, %esi
	movl	%r15d, %edx
	movl	%r14d, %ecx
	callq	get_mem3Dshort.138
	popq	%rbx
	popq	%r12
	popq	%r14
	popq	%r15
	popq	%rbp
	.cfi_def_cfa %rsp, 8
	retq
.LBB22_9:                               # %ctrl0
	.cfi_def_cfa %rbp, 16
	cmpl	$1, %eax
	je	.LBB22_2
# %bb.10:                               # %ctrl1
	cmpl	$2, %eax
	je	.LBB22_3
# %bb.11:                               # %ctrl2
	cmpl	$3, %eax
	je	.LBB22_4
# %bb.12:                               # %ctrl3
	cmpl	$4, %eax
	je	.LBB22_5
# %bb.13:                               # %ctrl4
	cmpl	$5, %eax
	je	.LBB22_6
# %bb.14:                               # %ctrl5
	cmpl	$6, %eax
	je	.LBB22_7
	jmp	.LBB22_8
.Lfunc_end22:
	.size	get_mem3Dshort, .Lfunc_end22-get_mem3Dshort
	.cfi_endproc
                                        # -- End function
	.globl	get_mem4Dshort          # -- Begin function get_mem4Dshort
	.p2align	4, 0x90
	.type	get_mem4Dshort,@function
get_mem4Dshort:                         # @get_mem4Dshort
	.cfi_startproc
# %bb.0:                                # %rand_bb
	pushq	%rbp
	.cfi_def_cfa_offset 16
	.cfi_offset %rbp, -16
	movq	%rsp, %rbp
	.cfi_def_cfa_register %rbp
	pushq	%r15
	pushq	%r14
	pushq	%r13
	pushq	%r12
	pushq	%rbx
	pushq	%rax
	.cfi_offset %rbx, -56
	.cfi_offset %r12, -48
	.cfi_offset %r13, -40
	.cfi_offset %r14, -32
	.cfi_offset %r15, -24
	movl	%r8d, %r14d
	movl	%ecx, %r15d
	movl	%edx, %r12d
	movl	%esi, %r13d
	movq	%rdi, %rbx
	callq	get_rand
	cmpl	$0, %eax
	jne	.LBB23_9
# %bb.1:                                # %func_get_mem4Dshort.1
	movq	%rbx, %rdi
	movl	%r13d, %esi
	movl	%r12d, %edx
	movl	%r15d, %ecx
	movl	%r14d, %r8d
	callq	get_mem4Dshort.1
	addq	$8, %rsp
	popq	%rbx
	popq	%r12
	popq	%r13
	popq	%r14
	popq	%r15
	popq	%rbp
	.cfi_def_cfa %rsp, 8
	retq
.LBB23_2:                               # %func_get_mem4Dshort.10
	.cfi_def_cfa %rbp, 16
	movq	%rbx, %rdi
	movl	%r13d, %esi
	movl	%r12d, %edx
	movl	%r15d, %ecx
	movl	%r14d, %r8d
	callq	get_mem4Dshort.10
	addq	$8, %rsp
	popq	%rbx
	popq	%r12
	popq	%r13
	popq	%r14
	popq	%r15
	popq	%rbp
	.cfi_def_cfa %rsp, 8
	retq
.LBB23_3:                               # %func_get_mem4Dshort.36
	.cfi_def_cfa %rbp, 16
	movq	%rbx, %rdi
	movl	%r13d, %esi
	movl	%r12d, %edx
	movl	%r15d, %ecx
	movl	%r14d, %r8d
	callq	get_mem4Dshort.36
	addq	$8, %rsp
	popq	%rbx
	popq	%r12
	popq	%r13
	popq	%r14
	popq	%r15
	popq	%rbp
	.cfi_def_cfa %rsp, 8
	retq
.LBB23_4:                               # %func_get_mem4Dshort.78
	.cfi_def_cfa %rbp, 16
	movq	%rbx, %rdi
	movl	%r13d, %esi
	movl	%r12d, %edx
	movl	%r15d, %ecx
	movl	%r14d, %r8d
	callq	get_mem4Dshort.78
	addq	$8, %rsp
	popq	%rbx
	popq	%r12
	popq	%r13
	popq	%r14
	popq	%r15
	popq	%rbp
	.cfi_def_cfa %rsp, 8
	retq
.LBB23_5:                               # %func_get_mem4Dshort.85
	.cfi_def_cfa %rbp, 16
	movq	%rbx, %rdi
	movl	%r13d, %esi
	movl	%r12d, %edx
	movl	%r15d, %ecx
	movl	%r14d, %r8d
	callq	get_mem4Dshort.85
	addq	$8, %rsp
	popq	%rbx
	popq	%r12
	popq	%r13
	popq	%r14
	popq	%r15
	popq	%rbp
	.cfi_def_cfa %rsp, 8
	retq
.LBB23_6:                               # %func_get_mem4Dshort.122
	.cfi_def_cfa %rbp, 16
	movq	%rbx, %rdi
	movl	%r13d, %esi
	movl	%r12d, %edx
	movl	%r15d, %ecx
	movl	%r14d, %r8d
	callq	get_mem4Dshort.122
	addq	$8, %rsp
	popq	%rbx
	popq	%r12
	popq	%r13
	popq	%r14
	popq	%r15
	popq	%rbp
	.cfi_def_cfa %rsp, 8
	retq
.LBB23_7:                               # %func_get_mem4Dshort.128
	.cfi_def_cfa %rbp, 16
	movq	%rbx, %rdi
	movl	%r13d, %esi
	movl	%r12d, %edx
	movl	%r15d, %ecx
	movl	%r14d, %r8d
	callq	get_mem4Dshort.128
	addq	$8, %rsp
	popq	%rbx
	popq	%r12
	popq	%r13
	popq	%r14
	popq	%r15
	popq	%rbp
	.cfi_def_cfa %rsp, 8
	retq
.LBB23_8:                               # %func_get_mem4Dshort.129
	.cfi_def_cfa %rbp, 16
	movq	%rbx, %rdi
	movl	%r13d, %esi
	movl	%r12d, %edx
	movl	%r15d, %ecx
	movl	%r14d, %r8d
	callq	get_mem4Dshort.129
	addq	$8, %rsp
	popq	%rbx
	popq	%r12
	popq	%r13
	popq	%r14
	popq	%r15
	popq	%rbp
	.cfi_def_cfa %rsp, 8
	retq
.LBB23_9:                               # %ctrl0
	.cfi_def_cfa %rbp, 16
	cmpl	$1, %eax
	je	.LBB23_2
# %bb.10:                               # %ctrl1
	cmpl	$2, %eax
	je	.LBB23_3
# %bb.11:                               # %ctrl2
	cmpl	$3, %eax
	je	.LBB23_4
# %bb.12:                               # %ctrl3
	cmpl	$4, %eax
	je	.LBB23_5
# %bb.13:                               # %ctrl4
	cmpl	$5, %eax
	je	.LBB23_6
# %bb.14:                               # %ctrl5
	cmpl	$6, %eax
	je	.LBB23_7
	jmp	.LBB23_8
.Lfunc_end23:
	.size	get_mem4Dshort, .Lfunc_end23-get_mem4Dshort
	.cfi_endproc
                                        # -- End function
	.globl	free_mem2Dshort         # -- Begin function free_mem2Dshort
	.p2align	4, 0x90
	.type	free_mem2Dshort,@function
free_mem2Dshort:                        # @free_mem2Dshort
	.cfi_startproc
# %bb.0:                                # %entry
	pushq	%rbp
	.cfi_def_cfa_offset 16
	.cfi_offset %rbp, -16
	movq	%rsp, %rbp
	.cfi_def_cfa_register %rbp
	subq	$16, %rsp
	movq	%rdi, -8(%rbp)
	cmpq	$0, -8(%rbp)
	je	.LBB24_5
# %bb.1:                                # %if.then
	movq	-8(%rbp), %rax
	cmpq	$0, (%rax)
	je	.LBB24_3
# %bb.2:                                # %if.then2
	movq	-8(%rbp), %rax
	movq	(%rax), %rdi
	callq	free
	jmp	.LBB24_4
.LBB24_3:                               # %if.else
	movabsq	$.L.str.24, %rdi
	movl	$100, %esi
	callq	error
.LBB24_4:                               # %if.end
	movq	-8(%rbp), %rdi
	callq	free
	jmp	.LBB24_6
.LBB24_5:                               # %if.else4
	movabsq	$.L.str.24, %rdi
	movl	$100, %esi
	callq	error
.LBB24_6:                               # %if.end5
	addq	$16, %rsp
	popq	%rbp
	.cfi_def_cfa %rsp, 8
	retq
.Lfunc_end24:
	.size	free_mem2Dshort, .Lfunc_end24-free_mem2Dshort
	.cfi_endproc
                                        # -- End function
	.globl	free_mem3Dshort         # -- Begin function free_mem3Dshort
	.p2align	4, 0x90
	.type	free_mem3Dshort,@function
free_mem3Dshort:                        # @free_mem3Dshort
	.cfi_startproc
# %bb.0:                                # %rand_bb
	pushq	%rbp
	.cfi_def_cfa_offset 16
	.cfi_offset %rbp, -16
	movq	%rsp, %rbp
	.cfi_def_cfa_register %rbp
	pushq	%r14
	pushq	%rbx
	.cfi_offset %rbx, -32
	.cfi_offset %r14, -24
	movl	%esi, %r14d
	movq	%rdi, %rbx
	callq	get_rand
	cmpl	$0, %eax
	jne	.LBB25_7
# %bb.1:                                # %func_free_mem3Dshort.4
	movq	%rbx, %rdi
	movl	%r14d, %esi
	callq	free_mem3Dshort.4
	popq	%rbx
	popq	%r14
	popq	%rbp
	.cfi_def_cfa %rsp, 8
	retq
.LBB25_2:                               # %func_free_mem3Dshort.62
	.cfi_def_cfa %rbp, 16
	movq	%rbx, %rdi
	movl	%r14d, %esi
	callq	free_mem3Dshort.62
	popq	%rbx
	popq	%r14
	popq	%rbp
	.cfi_def_cfa %rsp, 8
	retq
.LBB25_3:                               # %func_free_mem3Dshort.69
	.cfi_def_cfa %rbp, 16
	movq	%rbx, %rdi
	movl	%r14d, %esi
	callq	free_mem3Dshort.69
	popq	%rbx
	popq	%r14
	popq	%rbp
	.cfi_def_cfa %rsp, 8
	retq
.LBB25_4:                               # %func_free_mem3Dshort.94
	.cfi_def_cfa %rbp, 16
	movq	%rbx, %rdi
	movl	%r14d, %esi
	callq	free_mem3Dshort.94
	popq	%rbx
	popq	%r14
	popq	%rbp
	.cfi_def_cfa %rsp, 8
	retq
.LBB25_5:                               # %func_free_mem3Dshort.108
	.cfi_def_cfa %rbp, 16
	movq	%rbx, %rdi
	movl	%r14d, %esi
	callq	free_mem3Dshort.108
	popq	%rbx
	popq	%r14
	popq	%rbp
	.cfi_def_cfa %rsp, 8
	retq
.LBB25_6:                               # %func_free_mem3Dshort.133
	.cfi_def_cfa %rbp, 16
	movq	%rbx, %rdi
	movl	%r14d, %esi
	callq	free_mem3Dshort.133
	popq	%rbx
	popq	%r14
	popq	%rbp
	.cfi_def_cfa %rsp, 8
	retq
.LBB25_7:                               # %ctrl0
	.cfi_def_cfa %rbp, 16
	cmpl	$1, %eax
	je	.LBB25_2
# %bb.8:                                # %ctrl1
	cmpl	$2, %eax
	je	.LBB25_3
# %bb.9:                                # %ctrl2
	cmpl	$3, %eax
	je	.LBB25_4
# %bb.10:                               # %ctrl3
	cmpl	$4, %eax
	je	.LBB25_5
	jmp	.LBB25_6
.Lfunc_end25:
	.size	free_mem3Dshort, .Lfunc_end25-free_mem3Dshort
	.cfi_endproc
                                        # -- End function
	.globl	free_mem4Dshort         # -- Begin function free_mem4Dshort
	.p2align	4, 0x90
	.type	free_mem4Dshort,@function
free_mem4Dshort:                        # @free_mem4Dshort
	.cfi_startproc
# %bb.0:                                # %rand_bb
	pushq	%rbp
	.cfi_def_cfa_offset 16
	.cfi_offset %rbp, -16
	movq	%rsp, %rbp
	.cfi_def_cfa_register %rbp
	pushq	%r15
	pushq	%r14
	pushq	%rbx
	pushq	%rax
	.cfi_offset %rbx, -40
	.cfi_offset %r14, -32
	.cfi_offset %r15, -24
	movl	%edx, %r14d
	movl	%esi, %r15d
	movq	%rdi, %rbx
	callq	get_rand
	cmpl	$0, %eax
	jne	.LBB26_9
# %bb.1:                                # %func_free_mem4Dshort.13
	movq	%rbx, %rdi
	movl	%r15d, %esi
	movl	%r14d, %edx
	callq	free_mem4Dshort.13
	addq	$8, %rsp
	popq	%rbx
	popq	%r14
	popq	%r15
	popq	%rbp
	.cfi_def_cfa %rsp, 8
	retq
.LBB26_2:                               # %func_free_mem4Dshort.27
	.cfi_def_cfa %rbp, 16
	movq	%rbx, %rdi
	movl	%r15d, %esi
	movl	%r14d, %edx
	callq	free_mem4Dshort.27
	addq	$8, %rsp
	popq	%rbx
	popq	%r14
	popq	%r15
	popq	%rbp
	.cfi_def_cfa %rsp, 8
	retq
.LBB26_3:                               # %func_free_mem4Dshort.72
	.cfi_def_cfa %rbp, 16
	movq	%rbx, %rdi
	movl	%r15d, %esi
	movl	%r14d, %edx
	callq	free_mem4Dshort.72
	addq	$8, %rsp
	popq	%rbx
	popq	%r14
	popq	%r15
	popq	%rbp
	.cfi_def_cfa %rsp, 8
	retq
.LBB26_4:                               # %func_free_mem4Dshort.84
	.cfi_def_cfa %rbp, 16
	movq	%rbx, %rdi
	movl	%r15d, %esi
	movl	%r14d, %edx
	callq	free_mem4Dshort.84
	addq	$8, %rsp
	popq	%rbx
	popq	%r14
	popq	%r15
	popq	%rbp
	.cfi_def_cfa %rsp, 8
	retq
.LBB26_5:                               # %func_free_mem4Dshort.102
	.cfi_def_cfa %rbp, 16
	movq	%rbx, %rdi
	movl	%r15d, %esi
	movl	%r14d, %edx
	callq	free_mem4Dshort.102
	addq	$8, %rsp
	popq	%rbx
	popq	%r14
	popq	%r15
	popq	%rbp
	.cfi_def_cfa %rsp, 8
	retq
.LBB26_6:                               # %func_free_mem4Dshort.103
	.cfi_def_cfa %rbp, 16
	movq	%rbx, %rdi
	movl	%r15d, %esi
	movl	%r14d, %edx
	callq	free_mem4Dshort.103
	addq	$8, %rsp
	popq	%rbx
	popq	%r14
	popq	%r15
	popq	%rbp
	.cfi_def_cfa %rsp, 8
	retq
.LBB26_7:                               # %func_free_mem4Dshort.107
	.cfi_def_cfa %rbp, 16
	movq	%rbx, %rdi
	movl	%r15d, %esi
	movl	%r14d, %edx
	callq	free_mem4Dshort.107
	addq	$8, %rsp
	popq	%rbx
	popq	%r14
	popq	%r15
	popq	%rbp
	.cfi_def_cfa %rsp, 8
	retq
.LBB26_8:                               # %func_free_mem4Dshort.139
	.cfi_def_cfa %rbp, 16
	movq	%rbx, %rdi
	movl	%r15d, %esi
	movl	%r14d, %edx
	callq	free_mem4Dshort.139
	addq	$8, %rsp
	popq	%rbx
	popq	%r14
	popq	%r15
	popq	%rbp
	.cfi_def_cfa %rsp, 8
	retq
.LBB26_9:                               # %ctrl0
	.cfi_def_cfa %rbp, 16
	cmpl	$1, %eax
	je	.LBB26_2
# %bb.10:                               # %ctrl1
	cmpl	$2, %eax
	je	.LBB26_3
# %bb.11:                               # %ctrl2
	cmpl	$3, %eax
	je	.LBB26_4
# %bb.12:                               # %ctrl3
	cmpl	$4, %eax
	je	.LBB26_5
# %bb.13:                               # %ctrl4
	cmpl	$5, %eax
	je	.LBB26_6
# %bb.14:                               # %ctrl5
	cmpl	$6, %eax
	je	.LBB26_7
	jmp	.LBB26_8
.Lfunc_end26:
	.size	free_mem4Dshort, .Lfunc_end26-free_mem4Dshort
	.cfi_endproc
                                        # -- End function
	.globl	get_mem4Dshort.1        # -- Begin function get_mem4Dshort.1
	.p2align	4, 0x90
	.type	get_mem4Dshort.1,@function
get_mem4Dshort.1:                       # @get_mem4Dshort.1
	.cfi_startproc
# %bb.0:                                # %entry
	pushq	%rbp
	.cfi_def_cfa_offset 16
	.cfi_offset %rbp, -16
	movq	%rsp, %rbp
	.cfi_def_cfa_register %rbp
	pushq	%rbx
	subq	$40, %rsp
	.cfi_offset %rbx, -24
	movl	$551466950, -32(%rbp)   # imm = 0x20DEB7C6
	movq	%rdi, -40(%rbp)
	movl	%esi, -16(%rbp)
	movl	%edx, -20(%rbp)
	movl	%ecx, -28(%rbp)
	movl	%r8d, -24(%rbp)
	movslq	-16(%rbp), %rdi
	movl	$8, %esi
	callq	calloc
	movq	-40(%rbp), %rcx
	movq	%rax, (%rcx)
	cmpq	$0, %rax
	jne	.LBB27_2
# %bb.1:                                # %if.then
	movabsq	$.L.str.23, %rdi
	callq	no_mem_exit
.LBB27_2:                               # %if.end
	movl	$0, -12(%rbp)
.LBB27_3:                               # %for.cond
                                        # =>This Inner Loop Header: Depth=1
	movl	-12(%rbp), %eax
	cmpl	-16(%rbp), %eax
	jge	.LBB27_6
# %bb.4:                                # %for.body
                                        #   in Loop: Header=BB27_3 Depth=1
	movq	-40(%rbp), %rax
	movq	(%rax), %rdi
	movslq	-12(%rbp), %rax
	shlq	$3, %rax
	addq	%rax, %rdi
	movl	-20(%rbp), %esi
	movl	-28(%rbp), %edx
	movl	-24(%rbp), %ecx
	callq	get_mem3Dshort
# %bb.5:                                # %for.inc
                                        #   in Loop: Header=BB27_3 Depth=1
	movl	-12(%rbp), %eax
	addl	$1, %eax
	movl	%eax, -12(%rbp)
	jmp	.LBB27_3
.LBB27_6:                               # %for.end
	movl	-16(%rbp), %eax
	imull	-20(%rbp), %eax
	imull	-28(%rbp), %eax
	imull	-24(%rbp), %eax
	movslq	%eax, %rbx
	shlq	$1, %rbx
	cmpl	$551466950, -32(%rbp)   # imm = 0x20DEB7C6
	jne	.LBB27_8
.LBB27_7:
	movl	%ebx, %eax
	addq	$40, %rsp
	popq	%rbx
	popq	%rbp
	.cfi_def_cfa %rsp, 8
	retq
.LBB27_8:                               # %func_exit
	.cfi_def_cfa %rbp, 16
	callq	detect_breach
	jmp	.LBB27_7
.Lfunc_end27:
	.size	get_mem4Dshort.1, .Lfunc_end27-get_mem4Dshort.1
	.cfi_endproc
                                        # -- End function
	.globl	free_mem4Dint.2         # -- Begin function free_mem4Dint.2
	.p2align	4, 0x90
	.type	free_mem4Dint.2,@function
free_mem4Dint.2:                        # @free_mem4Dint.2
	.cfi_startproc
# %bb.0:                                # %entry
	pushq	%rbp
	.cfi_def_cfa_offset 16
	.cfi_offset %rbp, -16
	movq	%rsp, %rbp
	.cfi_def_cfa_register %rbp
	subq	$32, %rsp
	movl	$1306009521, -24(%rbp)  # imm = 0x4DD81FB1
	movq	%rdi, -16(%rbp)
	movl	%esi, -20(%rbp)
	movl	%edx, -28(%rbp)
	cmpq	$0, -16(%rbp)
	je	.LBB28_6
# %bb.1:                                # %if.then
	movl	$0, -4(%rbp)
.LBB28_2:                               # %for.cond
                                        # =>This Inner Loop Header: Depth=1
	movl	-4(%rbp), %eax
	cmpl	-20(%rbp), %eax
	jge	.LBB28_5
# %bb.3:                                # %for.body
                                        #   in Loop: Header=BB28_2 Depth=1
	movq	-16(%rbp), %rax
	movslq	-4(%rbp), %rcx
	movq	(%rax,%rcx,8), %rdi
	movl	-28(%rbp), %esi
	callq	free_mem3Dint
# %bb.4:                                # %for.inc
                                        #   in Loop: Header=BB28_2 Depth=1
	movl	-4(%rbp), %eax
	addl	$1, %eax
	movl	%eax, -4(%rbp)
	jmp	.LBB28_2
.LBB28_5:                               # %for.end
	movq	-16(%rbp), %rdi
	callq	free
	jmp	.LBB28_7
.LBB28_6:                               # %if.else
	movabsq	$.L.str.19, %rdi
	movl	$100, %esi
	callq	error
.LBB28_7:                               # %if.end
	cmpl	$1306009521, -24(%rbp)  # imm = 0x4DD81FB1
	jne	.LBB28_9
.LBB28_8:
	addq	$32, %rsp
	popq	%rbp
	.cfi_def_cfa %rsp, 8
	retq
.LBB28_9:                               # %func_exit
	.cfi_def_cfa %rbp, 16
	callq	detect_breach
	jmp	.LBB28_8
.Lfunc_end28:
	.size	free_mem4Dint.2, .Lfunc_end28-free_mem4Dint.2
	.cfi_endproc
                                        # -- End function
	.globl	get_mem3Dint.3          # -- Begin function get_mem3Dint.3
	.p2align	4, 0x90
	.type	get_mem3Dint.3,@function
get_mem3Dint.3:                         # @get_mem3Dint.3
	.cfi_startproc
# %bb.0:                                # %entry
	pushq	%rbp
	.cfi_def_cfa_offset 16
	.cfi_offset %rbp, -16
	movq	%rsp, %rbp
	.cfi_def_cfa_register %rbp
	pushq	%rbx
	subq	$40, %rsp
	.cfi_offset %rbx, -24
	movl	$1180711186, -28(%rbp)  # imm = 0x46603912
	movq	%rdi, -40(%rbp)
	movl	%esi, -16(%rbp)
	movl	%edx, -20(%rbp)
	movl	%ecx, -24(%rbp)
	movslq	-16(%rbp), %rdi
	movl	$8, %esi
	callq	calloc
	movq	-40(%rbp), %rcx
	movq	%rax, (%rcx)
	cmpq	$0, %rax
	jne	.LBB29_2
# %bb.1:                                # %if.then
	movabsq	$.L.str.10, %rdi
	callq	no_mem_exit
.LBB29_2:                               # %if.end
	movl	$0, -12(%rbp)
.LBB29_3:                               # %for.cond
                                        # =>This Inner Loop Header: Depth=1
	movl	-12(%rbp), %eax
	cmpl	-16(%rbp), %eax
	jge	.LBB29_6
# %bb.4:                                # %for.body
                                        #   in Loop: Header=BB29_3 Depth=1
	movq	-40(%rbp), %rax
	movq	(%rax), %rdi
	movslq	-12(%rbp), %rax
	shlq	$3, %rax
	addq	%rax, %rdi
	movl	-20(%rbp), %esi
	movl	-24(%rbp), %edx
	callq	get_mem2Dint
# %bb.5:                                # %for.inc
                                        #   in Loop: Header=BB29_3 Depth=1
	movl	-12(%rbp), %eax
	addl	$1, %eax
	movl	%eax, -12(%rbp)
	jmp	.LBB29_3
.LBB29_6:                               # %for.end
	movl	-16(%rbp), %eax
	imull	-20(%rbp), %eax
	imull	-24(%rbp), %eax
	movslq	%eax, %rbx
	shlq	$2, %rbx
	cmpl	$1180711186, -28(%rbp)  # imm = 0x46603912
	jne	.LBB29_8
.LBB29_7:
	movl	%ebx, %eax
	addq	$40, %rsp
	popq	%rbx
	popq	%rbp
	.cfi_def_cfa %rsp, 8
	retq
.LBB29_8:                               # %func_exit
	.cfi_def_cfa %rbp, 16
	callq	detect_breach
	jmp	.LBB29_7
.Lfunc_end29:
	.size	get_mem3Dint.3, .Lfunc_end29-get_mem3Dint.3
	.cfi_endproc
                                        # -- End function
	.globl	free_mem3Dshort.4       # -- Begin function free_mem3Dshort.4
	.p2align	4, 0x90
	.type	free_mem3Dshort.4,@function
free_mem3Dshort.4:                      # @free_mem3Dshort.4
	.cfi_startproc
# %bb.0:                                # %entry
	pushq	%rbp
	.cfi_def_cfa_offset 16
	.cfi_offset %rbp, -16
	movq	%rsp, %rbp
	.cfi_def_cfa_register %rbp
	subq	$32, %rsp
	movl	$178171001, -20(%rbp)   # imm = 0xA9EAC79
	movq	%rdi, -16(%rbp)
	movl	%esi, -24(%rbp)
	cmpq	$0, -16(%rbp)
	je	.LBB30_6
# %bb.1:                                # %if.then
	movl	$0, -4(%rbp)
.LBB30_2:                               # %for.cond
                                        # =>This Inner Loop Header: Depth=1
	movl	-4(%rbp), %eax
	cmpl	-24(%rbp), %eax
	jge	.LBB30_5
# %bb.3:                                # %for.body
                                        #   in Loop: Header=BB30_2 Depth=1
	movq	-16(%rbp), %rax
	movslq	-4(%rbp), %rcx
	movq	(%rax,%rcx,8), %rdi
	callq	free_mem2Dshort
# %bb.4:                                # %for.inc
                                        #   in Loop: Header=BB30_2 Depth=1
	movl	-4(%rbp), %eax
	addl	$1, %eax
	movl	%eax, -4(%rbp)
	jmp	.LBB30_2
.LBB30_5:                               # %for.end
	movq	-16(%rbp), %rdi
	callq	free
	jmp	.LBB30_7
.LBB30_6:                               # %if.else
	movabsq	$.L.str.25, %rdi
	movl	$100, %esi
	callq	error
.LBB30_7:                               # %if.end
	cmpl	$178171001, -20(%rbp)   # imm = 0xA9EAC79
	jne	.LBB30_9
.LBB30_8:
	addq	$32, %rsp
	popq	%rbp
	.cfi_def_cfa %rsp, 8
	retq
.LBB30_9:                               # %func_exit
	.cfi_def_cfa %rbp, 16
	callq	detect_breach
	jmp	.LBB30_8
.Lfunc_end30:
	.size	free_mem3Dshort.4, .Lfunc_end30-free_mem3Dshort.4
	.cfi_endproc
                                        # -- End function
	.globl	free_top_bot_planes.5   # -- Begin function free_top_bot_planes.5
	.p2align	4, 0x90
	.type	free_top_bot_planes.5,@function
free_top_bot_planes.5:                  # @free_top_bot_planes.5
	.cfi_startproc
# %bb.0:                                # %entry
	pushq	%rbp
	.cfi_def_cfa_offset 16
	.cfi_offset %rbp, -16
	movq	%rsp, %rbp
	.cfi_def_cfa_register %rbp
	subq	$32, %rsp
	movl	$1611420053, -4(%rbp)   # imm = 0x600C5195
	movq	%rdi, -16(%rbp)
	movq	%rsi, -24(%rbp)
	movq	-16(%rbp), %rdi
	callq	free
	movq	-24(%rbp), %rdi
	callq	free
	cmpl	$1611420053, -4(%rbp)   # imm = 0x600C5195
	jne	.LBB31_2
.LBB31_1:
	addq	$32, %rsp
	popq	%rbp
	.cfi_def_cfa %rsp, 8
	retq
.LBB31_2:                               # %func_exit
	.cfi_def_cfa %rbp, 16
	callq	detect_breach
	jmp	.LBB31_1
.Lfunc_end31:
	.size	free_top_bot_planes.5, .Lfunc_end31-free_top_bot_planes.5
	.cfi_endproc
                                        # -- End function
	.globl	get_mem3Dshort.6        # -- Begin function get_mem3Dshort.6
	.p2align	4, 0x90
	.type	get_mem3Dshort.6,@function
get_mem3Dshort.6:                       # @get_mem3Dshort.6
	.cfi_startproc
# %bb.0:                                # %entry
	pushq	%rbp
	.cfi_def_cfa_offset 16
	.cfi_offset %rbp, -16
	movq	%rsp, %rbp
	.cfi_def_cfa_register %rbp
	pushq	%rbx
	subq	$40, %rsp
	.cfi_offset %rbx, -24
	movl	$999234463, -28(%rbp)   # imm = 0x3B8F1B9F
	movq	%rdi, -40(%rbp)
	movl	%esi, -16(%rbp)
	movl	%edx, -24(%rbp)
	movl	%ecx, -20(%rbp)
	movslq	-16(%rbp), %rdi
	movl	$8, %esi
	callq	calloc
	movq	-40(%rbp), %rcx
	movq	%rax, (%rcx)
	cmpq	$0, %rax
	jne	.LBB32_2
# %bb.1:                                # %if.then
	movabsq	$.L.str.22, %rdi
	callq	no_mem_exit
.LBB32_2:                               # %if.end
	movl	$0, -12(%rbp)
.LBB32_3:                               # %for.cond
                                        # =>This Inner Loop Header: Depth=1
	movl	-12(%rbp), %eax
	cmpl	-16(%rbp), %eax
	jge	.LBB32_6
# %bb.4:                                # %for.body
                                        #   in Loop: Header=BB32_3 Depth=1
	movq	-40(%rbp), %rax
	movq	(%rax), %rdi
	movslq	-12(%rbp), %rax
	shlq	$3, %rax
	addq	%rax, %rdi
	movl	-24(%rbp), %esi
	movl	-20(%rbp), %edx
	callq	get_mem2Dshort
# %bb.5:                                # %for.inc
                                        #   in Loop: Header=BB32_3 Depth=1
	movl	-12(%rbp), %eax
	addl	$1, %eax
	movl	%eax, -12(%rbp)
	jmp	.LBB32_3
.LBB32_6:                               # %for.end
	movl	-16(%rbp), %eax
	imull	-24(%rbp), %eax
	imull	-20(%rbp), %eax
	movslq	%eax, %rbx
	shlq	$1, %rbx
	cmpl	$999234463, -28(%rbp)   # imm = 0x3B8F1B9F
	jne	.LBB32_8
.LBB32_7:
	movl	%ebx, %eax
	addq	$40, %rsp
	popq	%rbx
	popq	%rbp
	.cfi_def_cfa %rsp, 8
	retq
.LBB32_8:                               # %func_exit
	.cfi_def_cfa %rbp, 16
	callq	detect_breach
	jmp	.LBB32_7
.Lfunc_end32:
	.size	get_mem3Dshort.6, .Lfunc_end32-get_mem3Dshort.6
	.cfi_endproc
                                        # -- End function
	.globl	get_mem2Dpel.7          # -- Begin function get_mem2Dpel.7
	.p2align	4, 0x90
	.type	get_mem2Dpel.7,@function
get_mem2Dpel.7:                         # @get_mem2Dpel.7
	.cfi_startproc
# %bb.0:                                # %entry
	pushq	%rbp
	.cfi_def_cfa_offset 16
	.cfi_offset %rbp, -16
	movq	%rsp, %rbp
	.cfi_def_cfa_register %rbp
	pushq	%rbx
	subq	$40, %rsp
	.cfi_offset %rbx, -24
	movl	$1783225073, -36(%rbp)  # imm = 0x6A49DAF1
	movq	%rdi, -32(%rbp)
	movl	%esi, -16(%rbp)
	movl	%edx, -20(%rbp)
	movslq	-16(%rbp), %rdi
	movl	$8, %esi
	callq	calloc
	movq	-32(%rbp), %rcx
	movq	%rax, (%rcx)
	cmpq	$0, %rax
	jne	.LBB33_2
# %bb.1:                                # %if.then
	movabsq	$.L.str.2, %rdi
	callq	no_mem_exit
.LBB33_2:                               # %if.end
	movl	-16(%rbp), %eax
	imull	-20(%rbp), %eax
	movslq	%eax, %rdi
	movl	$2, %esi
	callq	calloc
	movq	-32(%rbp), %rcx
	movq	(%rcx), %rcx
	movq	%rax, (%rcx)
	cmpq	$0, %rax
	jne	.LBB33_4
# %bb.3:                                # %if.then6
	movabsq	$.L.str.2, %rdi
	callq	no_mem_exit
.LBB33_4:                               # %if.end7
	movl	$1, -12(%rbp)
.LBB33_5:                               # %for.cond
                                        # =>This Inner Loop Header: Depth=1
	movl	-12(%rbp), %eax
	cmpl	-16(%rbp), %eax
	jge	.LBB33_8
# %bb.6:                                # %for.body
                                        #   in Loop: Header=BB33_5 Depth=1
	movq	-32(%rbp), %rax
	movq	(%rax), %rax
	movl	-12(%rbp), %ecx
	subl	$1, %ecx
	movslq	%ecx, %rcx
	movq	(%rax,%rcx,8), %rax
	movslq	-20(%rbp), %rcx
	shlq	$1, %rcx
	addq	%rcx, %rax
	movq	-32(%rbp), %rcx
	movq	(%rcx), %rcx
	movslq	-12(%rbp), %rdx
	movq	%rax, (%rcx,%rdx,8)
# %bb.7:                                # %for.inc
                                        #   in Loop: Header=BB33_5 Depth=1
	movl	-12(%rbp), %eax
	addl	$1, %eax
	movl	%eax, -12(%rbp)
	jmp	.LBB33_5
.LBB33_8:                               # %for.end
	movl	-16(%rbp), %eax
	imull	-20(%rbp), %eax
	movslq	%eax, %rbx
	shlq	$1, %rbx
	cmpl	$1783225073, -36(%rbp)  # imm = 0x6A49DAF1
	jne	.LBB33_10
.LBB33_9:
	movl	%ebx, %eax
	addq	$40, %rsp
	popq	%rbx
	popq	%rbp
	.cfi_def_cfa %rsp, 8
	retq
.LBB33_10:                              # %func_exit
	.cfi_def_cfa %rbp, 16
	callq	detect_breach
	jmp	.LBB33_9
.Lfunc_end33:
	.size	get_mem2Dpel.7, .Lfunc_end33-get_mem2Dpel.7
	.cfi_endproc
                                        # -- End function
	.globl	free_mem4Dint.8         # -- Begin function free_mem4Dint.8
	.p2align	4, 0x90
	.type	free_mem4Dint.8,@function
free_mem4Dint.8:                        # @free_mem4Dint.8
	.cfi_startproc
# %bb.0:                                # %entry
	pushq	%rbp
	.cfi_def_cfa_offset 16
	.cfi_offset %rbp, -16
	movq	%rsp, %rbp
	.cfi_def_cfa_register %rbp
	subq	$32, %rsp
	movl	$1985175593, -24(%rbp)  # imm = 0x76536029
	movq	%rdi, -16(%rbp)
	movl	%esi, -20(%rbp)
	movl	%edx, -28(%rbp)
	cmpq	$0, -16(%rbp)
	je	.LBB34_6
# %bb.1:                                # %if.then
	movl	$0, -4(%rbp)
.LBB34_2:                               # %for.cond
                                        # =>This Inner Loop Header: Depth=1
	movl	-4(%rbp), %eax
	cmpl	-20(%rbp), %eax
	jge	.LBB34_5
# %bb.3:                                # %for.body
                                        #   in Loop: Header=BB34_2 Depth=1
	movq	-16(%rbp), %rax
	movslq	-4(%rbp), %rcx
	movq	(%rax,%rcx,8), %rdi
	movl	-28(%rbp), %esi
	callq	free_mem3Dint
# %bb.4:                                # %for.inc
                                        #   in Loop: Header=BB34_2 Depth=1
	movl	-4(%rbp), %eax
	addl	$1, %eax
	movl	%eax, -4(%rbp)
	jmp	.LBB34_2
.LBB34_5:                               # %for.end
	movq	-16(%rbp), %rdi
	callq	free
	jmp	.LBB34_7
.LBB34_6:                               # %if.else
	movabsq	$.L.str.19, %rdi
	movl	$100, %esi
	callq	error
.LBB34_7:                               # %if.end
	cmpl	$1985175593, -24(%rbp)  # imm = 0x76536029
	jne	.LBB34_9
.LBB34_8:
	addq	$32, %rsp
	popq	%rbp
	.cfi_def_cfa %rsp, 8
	retq
.LBB34_9:                               # %func_exit
	.cfi_def_cfa %rbp, 16
	callq	detect_breach
	jmp	.LBB34_8
.Lfunc_end34:
	.size	free_mem4Dint.8, .Lfunc_end34-free_mem4Dint.8
	.cfi_endproc
                                        # -- End function
	.globl	free_mem3Dint.9         # -- Begin function free_mem3Dint.9
	.p2align	4, 0x90
	.type	free_mem3Dint.9,@function
free_mem3Dint.9:                        # @free_mem3Dint.9
	.cfi_startproc
# %bb.0:                                # %entry
	pushq	%rbp
	.cfi_def_cfa_offset 16
	.cfi_offset %rbp, -16
	movq	%rsp, %rbp
	.cfi_def_cfa_register %rbp
	subq	$32, %rsp
	movl	$1769925823, -24(%rbp)  # imm = 0x697EECBF
	movq	%rdi, -16(%rbp)
	movl	%esi, -20(%rbp)
	cmpq	$0, -16(%rbp)
	je	.LBB35_6
# %bb.1:                                # %if.then
	movl	$0, -4(%rbp)
.LBB35_2:                               # %for.cond
                                        # =>This Inner Loop Header: Depth=1
	movl	-4(%rbp), %eax
	cmpl	-20(%rbp), %eax
	jge	.LBB35_5
# %bb.3:                                # %for.body
                                        #   in Loop: Header=BB35_2 Depth=1
	movq	-16(%rbp), %rax
	movslq	-4(%rbp), %rcx
	movq	(%rax,%rcx,8), %rdi
	callq	free_mem2Dint
# %bb.4:                                # %for.inc
                                        #   in Loop: Header=BB35_2 Depth=1
	movl	-4(%rbp), %eax
	addl	$1, %eax
	movl	%eax, -4(%rbp)
	jmp	.LBB35_2
.LBB35_5:                               # %for.end
	movq	-16(%rbp), %rdi
	callq	free
	jmp	.LBB35_7
.LBB35_6:                               # %if.else
	movabsq	$.L.str.17, %rdi
	movl	$100, %esi
	callq	error
.LBB35_7:                               # %if.end
	cmpl	$1769925823, -24(%rbp)  # imm = 0x697EECBF
	jne	.LBB35_9
.LBB35_8:
	addq	$32, %rsp
	popq	%rbp
	.cfi_def_cfa %rsp, 8
	retq
.LBB35_9:                               # %func_exit
	.cfi_def_cfa %rbp, 16
	callq	detect_breach
	jmp	.LBB35_8
.Lfunc_end35:
	.size	free_mem3Dint.9, .Lfunc_end35-free_mem3Dint.9
	.cfi_endproc
                                        # -- End function
	.globl	get_mem4Dshort.10       # -- Begin function get_mem4Dshort.10
	.p2align	4, 0x90
	.type	get_mem4Dshort.10,@function
get_mem4Dshort.10:                      # @get_mem4Dshort.10
	.cfi_startproc
# %bb.0:                                # %entry
	pushq	%rbp
	.cfi_def_cfa_offset 16
	.cfi_offset %rbp, -16
	movq	%rsp, %rbp
	.cfi_def_cfa_register %rbp
	pushq	%rbx
	subq	$40, %rsp
	.cfi_offset %rbx, -24
	movl	$723900650, -32(%rbp)   # imm = 0x2B25D8EA
	movq	%rdi, -40(%rbp)
	movl	%esi, -16(%rbp)
	movl	%edx, -20(%rbp)
	movl	%ecx, -24(%rbp)
	movl	%r8d, -28(%rbp)
	movslq	-16(%rbp), %rdi
	movl	$8, %esi
	callq	calloc
	movq	-40(%rbp), %rcx
	movq	%rax, (%rcx)
	cmpq	$0, %rax
	jne	.LBB36_2
# %bb.1:                                # %if.then
	movabsq	$.L.str.23, %rdi
	callq	no_mem_exit
.LBB36_2:                               # %if.end
	movl	$0, -12(%rbp)
.LBB36_3:                               # %for.cond
                                        # =>This Inner Loop Header: Depth=1
	movl	-12(%rbp), %eax
	cmpl	-16(%rbp), %eax
	jge	.LBB36_6
# %bb.4:                                # %for.body
                                        #   in Loop: Header=BB36_3 Depth=1
	movq	-40(%rbp), %rax
	movq	(%rax), %rdi
	movslq	-12(%rbp), %rax
	shlq	$3, %rax
	addq	%rax, %rdi
	movl	-20(%rbp), %esi
	movl	-24(%rbp), %edx
	movl	-28(%rbp), %ecx
	callq	get_mem3Dshort
# %bb.5:                                # %for.inc
                                        #   in Loop: Header=BB36_3 Depth=1
	movl	-12(%rbp), %eax
	addl	$1, %eax
	movl	%eax, -12(%rbp)
	jmp	.LBB36_3
.LBB36_6:                               # %for.end
	movl	-16(%rbp), %eax
	imull	-20(%rbp), %eax
	imull	-24(%rbp), %eax
	imull	-28(%rbp), %eax
	movslq	%eax, %rbx
	shlq	$1, %rbx
	cmpl	$723900650, -32(%rbp)   # imm = 0x2B25D8EA
	jne	.LBB36_8
.LBB36_7:
	movl	%ebx, %eax
	addq	$40, %rsp
	popq	%rbx
	popq	%rbp
	.cfi_def_cfa %rsp, 8
	retq
.LBB36_8:                               # %func_exit
	.cfi_def_cfa %rbp, 16
	callq	detect_breach
	jmp	.LBB36_7
.Lfunc_end36:
	.size	get_mem4Dshort.10, .Lfunc_end36-get_mem4Dshort.10
	.cfi_endproc
                                        # -- End function
	.globl	get_mem3D.11            # -- Begin function get_mem3D.11
	.p2align	4, 0x90
	.type	get_mem3D.11,@function
get_mem3D.11:                           # @get_mem3D.11
	.cfi_startproc
# %bb.0:                                # %entry
	pushq	%rbp
	.cfi_def_cfa_offset 16
	.cfi_offset %rbp, -16
	movq	%rsp, %rbp
	.cfi_def_cfa_register %rbp
	pushq	%rbx
	subq	$40, %rsp
	.cfi_offset %rbx, -24
	movl	$507481421, -28(%rbp)   # imm = 0x1E3F8D4D
	movq	%rdi, -40(%rbp)
	movl	%esi, -16(%rbp)
	movl	%edx, -20(%rbp)
	movl	%ecx, -24(%rbp)
	movslq	-16(%rbp), %rdi
	movl	$8, %esi
	callq	calloc
	movq	-40(%rbp), %rcx
	movq	%rax, (%rcx)
	cmpq	$0, %rax
	jne	.LBB37_2
# %bb.1:                                # %if.then
	movabsq	$.L.str.9, %rdi
	callq	no_mem_exit
.LBB37_2:                               # %if.end
	movl	$0, -12(%rbp)
.LBB37_3:                               # %for.cond
                                        # =>This Inner Loop Header: Depth=1
	movl	-12(%rbp), %eax
	cmpl	-16(%rbp), %eax
	jge	.LBB37_6
# %bb.4:                                # %for.body
                                        #   in Loop: Header=BB37_3 Depth=1
	movq	-40(%rbp), %rax
	movq	(%rax), %rdi
	movslq	-12(%rbp), %rax
	shlq	$3, %rax
	addq	%rax, %rdi
	movl	-20(%rbp), %esi
	movl	-24(%rbp), %edx
	callq	get_mem2D
# %bb.5:                                # %for.inc
                                        #   in Loop: Header=BB37_3 Depth=1
	movl	-12(%rbp), %eax
	addl	$1, %eax
	movl	%eax, -12(%rbp)
	jmp	.LBB37_3
.LBB37_6:                               # %for.end
	movl	-16(%rbp), %ebx
	imull	-20(%rbp), %ebx
	imull	-24(%rbp), %ebx
	cmpl	$507481421, -28(%rbp)   # imm = 0x1E3F8D4D
	jne	.LBB37_8
.LBB37_7:
	movl	%ebx, %eax
	addq	$40, %rsp
	popq	%rbx
	popq	%rbp
	.cfi_def_cfa %rsp, 8
	retq
.LBB37_8:                               # %func_exit
	.cfi_def_cfa %rbp, 16
	callq	detect_breach
	jmp	.LBB37_7
.Lfunc_end37:
	.size	get_mem3D.11, .Lfunc_end37-get_mem3D.11
	.cfi_endproc
                                        # -- End function
	.globl	free_top_bot_planes.12  # -- Begin function free_top_bot_planes.12
	.p2align	4, 0x90
	.type	free_top_bot_planes.12,@function
free_top_bot_planes.12:                 # @free_top_bot_planes.12
	.cfi_startproc
# %bb.0:                                # %entry
	pushq	%rbp
	.cfi_def_cfa_offset 16
	.cfi_offset %rbp, -16
	movq	%rsp, %rbp
	.cfi_def_cfa_register %rbp
	subq	$32, %rsp
	movl	$410714959, -4(%rbp)    # imm = 0x187B034F
	movq	%rdi, -24(%rbp)
	movq	%rsi, -16(%rbp)
	movq	-24(%rbp), %rdi
	callq	free
	movq	-16(%rbp), %rdi
	callq	free
	cmpl	$410714959, -4(%rbp)    # imm = 0x187B034F
	jne	.LBB38_2
.LBB38_1:
	addq	$32, %rsp
	popq	%rbp
	.cfi_def_cfa %rsp, 8
	retq
.LBB38_2:                               # %func_exit
	.cfi_def_cfa %rbp, 16
	callq	detect_breach
	jmp	.LBB38_1
.Lfunc_end38:
	.size	free_top_bot_planes.12, .Lfunc_end38-free_top_bot_planes.12
	.cfi_endproc
                                        # -- End function
	.globl	free_mem4Dshort.13      # -- Begin function free_mem4Dshort.13
	.p2align	4, 0x90
	.type	free_mem4Dshort.13,@function
free_mem4Dshort.13:                     # @free_mem4Dshort.13
	.cfi_startproc
# %bb.0:                                # %entry
	pushq	%rbp
	.cfi_def_cfa_offset 16
	.cfi_offset %rbp, -16
	movq	%rsp, %rbp
	.cfi_def_cfa_register %rbp
	subq	$32, %rsp
	movl	$1259187543, -28(%rbp)  # imm = 0x4B0DAD57
	movq	%rdi, -16(%rbp)
	movl	%esi, -24(%rbp)
	movl	%edx, -20(%rbp)
	cmpq	$0, -16(%rbp)
	je	.LBB39_6
# %bb.1:                                # %if.then
	movl	$0, -4(%rbp)
.LBB39_2:                               # %for.cond
                                        # =>This Inner Loop Header: Depth=1
	movl	-4(%rbp), %eax
	cmpl	-24(%rbp), %eax
	jge	.LBB39_5
# %bb.3:                                # %for.body
                                        #   in Loop: Header=BB39_2 Depth=1
	movq	-16(%rbp), %rax
	movslq	-4(%rbp), %rcx
	movq	(%rax,%rcx,8), %rdi
	movl	-20(%rbp), %esi
	callq	free_mem3Dshort
# %bb.4:                                # %for.inc
                                        #   in Loop: Header=BB39_2 Depth=1
	movl	-4(%rbp), %eax
	addl	$1, %eax
	movl	%eax, -4(%rbp)
	jmp	.LBB39_2
.LBB39_5:                               # %for.end
	movq	-16(%rbp), %rdi
	callq	free
	jmp	.LBB39_7
.LBB39_6:                               # %if.else
	movabsq	$.L.str.26, %rdi
	movl	$100, %esi
	callq	error
.LBB39_7:                               # %if.end
	cmpl	$1259187543, -28(%rbp)  # imm = 0x4B0DAD57
	jne	.LBB39_9
.LBB39_8:
	addq	$32, %rsp
	popq	%rbp
	.cfi_def_cfa %rsp, 8
	retq
.LBB39_9:                               # %func_exit
	.cfi_def_cfa %rbp, 16
	callq	detect_breach
	jmp	.LBB39_8
.Lfunc_end39:
	.size	free_mem4Dshort.13, .Lfunc_end39-free_mem4Dshort.13
	.cfi_endproc
                                        # -- End function
	.globl	free_mem3Dint64.14      # -- Begin function free_mem3Dint64.14
	.p2align	4, 0x90
	.type	free_mem3Dint64.14,@function
free_mem3Dint64.14:                     # @free_mem3Dint64.14
	.cfi_startproc
# %bb.0:                                # %entry
	pushq	%rbp
	.cfi_def_cfa_offset 16
	.cfi_offset %rbp, -16
	movq	%rsp, %rbp
	.cfi_def_cfa_register %rbp
	subq	$32, %rsp
	movl	$844407565, -24(%rbp)   # imm = 0x3254A30D
	movq	%rdi, -16(%rbp)
	movl	%esi, -20(%rbp)
	cmpq	$0, -16(%rbp)
	je	.LBB40_6
# %bb.1:                                # %if.then
	movl	$0, -4(%rbp)
.LBB40_2:                               # %for.cond
                                        # =>This Inner Loop Header: Depth=1
	movl	-4(%rbp), %eax
	cmpl	-20(%rbp), %eax
	jge	.LBB40_5
# %bb.3:                                # %for.body
                                        #   in Loop: Header=BB40_2 Depth=1
	movq	-16(%rbp), %rax
	movslq	-4(%rbp), %rcx
	movq	(%rax,%rcx,8), %rdi
	callq	free_mem2Dint64
# %bb.4:                                # %for.inc
                                        #   in Loop: Header=BB40_2 Depth=1
	movl	-4(%rbp), %eax
	addl	$1, %eax
	movl	%eax, -4(%rbp)
	jmp	.LBB40_2
.LBB40_5:                               # %for.end
	movq	-16(%rbp), %rdi
	callq	free
	jmp	.LBB40_7
.LBB40_6:                               # %if.else
	movabsq	$.L.str.18, %rdi
	movl	$100, %esi
	callq	error
.LBB40_7:                               # %if.end
	cmpl	$844407565, -24(%rbp)   # imm = 0x3254A30D
	jne	.LBB40_9
.LBB40_8:
	addq	$32, %rsp
	popq	%rbp
	.cfi_def_cfa %rsp, 8
	retq
.LBB40_9:                               # %func_exit
	.cfi_def_cfa %rbp, 16
	callq	detect_breach
	jmp	.LBB40_8
.Lfunc_end40:
	.size	free_mem3Dint64.14, .Lfunc_end40-free_mem3Dint64.14
	.cfi_endproc
                                        # -- End function
	.globl	get_mem3Dpel.15         # -- Begin function get_mem3Dpel.15
	.p2align	4, 0x90
	.type	get_mem3Dpel.15,@function
get_mem3Dpel.15:                        # @get_mem3Dpel.15
	.cfi_startproc
# %bb.0:                                # %entry
	pushq	%rbp
	.cfi_def_cfa_offset 16
	.cfi_offset %rbp, -16
	movq	%rsp, %rbp
	.cfi_def_cfa_register %rbp
	pushq	%rbx
	subq	$40, %rsp
	.cfi_offset %rbx, -24
	movl	$1320504812, -28(%rbp)  # imm = 0x4EB54DEC
	movq	%rdi, -40(%rbp)
	movl	%esi, -16(%rbp)
	movl	%edx, -20(%rbp)
	movl	%ecx, -24(%rbp)
	movslq	-16(%rbp), %rdi
	movl	$8, %esi
	callq	calloc
	movq	-40(%rbp), %rcx
	movq	%rax, (%rcx)
	cmpq	$0, %rax
	jne	.LBB41_2
# %bb.1:                                # %if.then
	movabsq	$.L.str.3, %rdi
	callq	no_mem_exit
.LBB41_2:                               # %if.end
	movl	$0, -12(%rbp)
.LBB41_3:                               # %for.cond
                                        # =>This Inner Loop Header: Depth=1
	movl	-12(%rbp), %eax
	cmpl	-16(%rbp), %eax
	jge	.LBB41_6
# %bb.4:                                # %for.body
                                        #   in Loop: Header=BB41_3 Depth=1
	movq	-40(%rbp), %rax
	movq	(%rax), %rdi
	movslq	-12(%rbp), %rax
	shlq	$3, %rax
	addq	%rax, %rdi
	movl	-20(%rbp), %esi
	movl	-24(%rbp), %edx
	callq	get_mem2Dpel
# %bb.5:                                # %for.inc
                                        #   in Loop: Header=BB41_3 Depth=1
	movl	-12(%rbp), %eax
	addl	$1, %eax
	movl	%eax, -12(%rbp)
	jmp	.LBB41_3
.LBB41_6:                               # %for.end
	movl	-16(%rbp), %eax
	imull	-20(%rbp), %eax
	imull	-24(%rbp), %eax
	movslq	%eax, %rbx
	shlq	$1, %rbx
	cmpl	$1320504812, -28(%rbp)  # imm = 0x4EB54DEC
	jne	.LBB41_8
.LBB41_7:
	movl	%ebx, %eax
	addq	$40, %rsp
	popq	%rbx
	popq	%rbp
	.cfi_def_cfa %rsp, 8
	retq
.LBB41_8:                               # %func_exit
	.cfi_def_cfa %rbp, 16
	callq	detect_breach
	jmp	.LBB41_7
.Lfunc_end41:
	.size	get_mem3Dpel.15, .Lfunc_end41-get_mem3Dpel.15
	.cfi_endproc
                                        # -- End function
	.globl	get_mem3D.16            # -- Begin function get_mem3D.16
	.p2align	4, 0x90
	.type	get_mem3D.16,@function
get_mem3D.16:                           # @get_mem3D.16
	.cfi_startproc
# %bb.0:                                # %entry
	pushq	%rbp
	.cfi_def_cfa_offset 16
	.cfi_offset %rbp, -16
	movq	%rsp, %rbp
	.cfi_def_cfa_register %rbp
	pushq	%rbx
	subq	$40, %rsp
	.cfi_offset %rbx, -24
	movl	$604996008, -28(%rbp)   # imm = 0x240F81A8
	movq	%rdi, -40(%rbp)
	movl	%esi, -16(%rbp)
	movl	%edx, -20(%rbp)
	movl	%ecx, -24(%rbp)
	movslq	-16(%rbp), %rdi
	movl	$8, %esi
	callq	calloc
	movq	-40(%rbp), %rcx
	movq	%rax, (%rcx)
	cmpq	$0, %rax
	jne	.LBB42_2
# %bb.1:                                # %if.then
	movabsq	$.L.str.9, %rdi
	callq	no_mem_exit
.LBB42_2:                               # %if.end
	movl	$0, -12(%rbp)
.LBB42_3:                               # %for.cond
                                        # =>This Inner Loop Header: Depth=1
	movl	-12(%rbp), %eax
	cmpl	-16(%rbp), %eax
	jge	.LBB42_6
# %bb.4:                                # %for.body
                                        #   in Loop: Header=BB42_3 Depth=1
	movq	-40(%rbp), %rax
	movq	(%rax), %rdi
	movslq	-12(%rbp), %rax
	shlq	$3, %rax
	addq	%rax, %rdi
	movl	-20(%rbp), %esi
	movl	-24(%rbp), %edx
	callq	get_mem2D
# %bb.5:                                # %for.inc
                                        #   in Loop: Header=BB42_3 Depth=1
	movl	-12(%rbp), %eax
	addl	$1, %eax
	movl	%eax, -12(%rbp)
	jmp	.LBB42_3
.LBB42_6:                               # %for.end
	movl	-16(%rbp), %ebx
	imull	-20(%rbp), %ebx
	imull	-24(%rbp), %ebx
	cmpl	$604996008, -28(%rbp)   # imm = 0x240F81A8
	jne	.LBB42_8
.LBB42_7:
	movl	%ebx, %eax
	addq	$40, %rsp
	popq	%rbx
	popq	%rbp
	.cfi_def_cfa %rsp, 8
	retq
.LBB42_8:                               # %func_exit
	.cfi_def_cfa %rbp, 16
	callq	detect_breach
	jmp	.LBB42_7
.Lfunc_end42:
	.size	get_mem3D.16, .Lfunc_end42-get_mem3D.16
	.cfi_endproc
                                        # -- End function
	.globl	get_mem4Dint.17         # -- Begin function get_mem4Dint.17
	.p2align	4, 0x90
	.type	get_mem4Dint.17,@function
get_mem4Dint.17:                        # @get_mem4Dint.17
	.cfi_startproc
# %bb.0:                                # %entry
	pushq	%rbp
	.cfi_def_cfa_offset 16
	.cfi_offset %rbp, -16
	movq	%rsp, %rbp
	.cfi_def_cfa_register %rbp
	pushq	%rbx
	subq	$40, %rsp
	.cfi_offset %rbx, -24
	movl	$797974564, -32(%rbp)   # imm = 0x2F902024
	movq	%rdi, -40(%rbp)
	movl	%esi, -16(%rbp)
	movl	%edx, -28(%rbp)
	movl	%ecx, -24(%rbp)
	movl	%r8d, -20(%rbp)
	movslq	-16(%rbp), %rdi
	movl	$8, %esi
	callq	calloc
	movq	-40(%rbp), %rcx
	movq	%rax, (%rcx)
	cmpq	$0, %rax
	jne	.LBB43_2
# %bb.1:                                # %if.then
	movabsq	$.L.str.12, %rdi
	callq	no_mem_exit
.LBB43_2:                               # %if.end
	movl	$0, -12(%rbp)
.LBB43_3:                               # %for.cond
                                        # =>This Inner Loop Header: Depth=1
	movl	-12(%rbp), %eax
	cmpl	-16(%rbp), %eax
	jge	.LBB43_6
# %bb.4:                                # %for.body
                                        #   in Loop: Header=BB43_3 Depth=1
	movq	-40(%rbp), %rax
	movq	(%rax), %rdi
	movslq	-12(%rbp), %rax
	shlq	$3, %rax
	addq	%rax, %rdi
	movl	-28(%rbp), %esi
	movl	-24(%rbp), %edx
	movl	-20(%rbp), %ecx
	callq	get_mem3Dint
# %bb.5:                                # %for.inc
                                        #   in Loop: Header=BB43_3 Depth=1
	movl	-12(%rbp), %eax
	addl	$1, %eax
	movl	%eax, -12(%rbp)
	jmp	.LBB43_3
.LBB43_6:                               # %for.end
	movl	-16(%rbp), %eax
	imull	-28(%rbp), %eax
	imull	-24(%rbp), %eax
	imull	-20(%rbp), %eax
	movslq	%eax, %rbx
	shlq	$2, %rbx
	cmpl	$797974564, -32(%rbp)   # imm = 0x2F902024
	jne	.LBB43_8
.LBB43_7:
	movl	%ebx, %eax
	addq	$40, %rsp
	popq	%rbx
	popq	%rbp
	.cfi_def_cfa %rsp, 8
	retq
.LBB43_8:                               # %func_exit
	.cfi_def_cfa %rbp, 16
	callq	detect_breach
	jmp	.LBB43_7
.Lfunc_end43:
	.size	get_mem4Dint.17, .Lfunc_end43-get_mem4Dint.17
	.cfi_endproc
                                        # -- End function
	.globl	free_mem4Dint.18        # -- Begin function free_mem4Dint.18
	.p2align	4, 0x90
	.type	free_mem4Dint.18,@function
free_mem4Dint.18:                       # @free_mem4Dint.18
	.cfi_startproc
# %bb.0:                                # %entry
	pushq	%rbp
	.cfi_def_cfa_offset 16
	.cfi_offset %rbp, -16
	movq	%rsp, %rbp
	.cfi_def_cfa_register %rbp
	subq	$32, %rsp
	movl	$706694429, -20(%rbp)   # imm = 0x2A1F4D1D
	movq	%rdi, -16(%rbp)
	movl	%esi, -28(%rbp)
	movl	%edx, -24(%rbp)
	cmpq	$0, -16(%rbp)
	je	.LBB44_6
# %bb.1:                                # %if.then
	movl	$0, -4(%rbp)
.LBB44_2:                               # %for.cond
                                        # =>This Inner Loop Header: Depth=1
	movl	-4(%rbp), %eax
	cmpl	-28(%rbp), %eax
	jge	.LBB44_5
# %bb.3:                                # %for.body
                                        #   in Loop: Header=BB44_2 Depth=1
	movq	-16(%rbp), %rax
	movslq	-4(%rbp), %rcx
	movq	(%rax,%rcx,8), %rdi
	movl	-24(%rbp), %esi
	callq	free_mem3Dint
# %bb.4:                                # %for.inc
                                        #   in Loop: Header=BB44_2 Depth=1
	movl	-4(%rbp), %eax
	addl	$1, %eax
	movl	%eax, -4(%rbp)
	jmp	.LBB44_2
.LBB44_5:                               # %for.end
	movq	-16(%rbp), %rdi
	callq	free
	jmp	.LBB44_7
.LBB44_6:                               # %if.else
	movabsq	$.L.str.19, %rdi
	movl	$100, %esi
	callq	error
.LBB44_7:                               # %if.end
	cmpl	$706694429, -20(%rbp)   # imm = 0x2A1F4D1D
	jne	.LBB44_9
.LBB44_8:
	addq	$32, %rsp
	popq	%rbp
	.cfi_def_cfa %rsp, 8
	retq
.LBB44_9:                               # %func_exit
	.cfi_def_cfa %rbp, 16
	callq	detect_breach
	jmp	.LBB44_8
.Lfunc_end44:
	.size	free_mem4Dint.18, .Lfunc_end44-free_mem4Dint.18
	.cfi_endproc
                                        # -- End function
	.globl	get_mem3Dshort.19       # -- Begin function get_mem3Dshort.19
	.p2align	4, 0x90
	.type	get_mem3Dshort.19,@function
get_mem3Dshort.19:                      # @get_mem3Dshort.19
	.cfi_startproc
# %bb.0:                                # %entry
	pushq	%rbp
	.cfi_def_cfa_offset 16
	.cfi_offset %rbp, -16
	movq	%rsp, %rbp
	.cfi_def_cfa_register %rbp
	pushq	%rbx
	subq	$40, %rsp
	.cfi_offset %rbx, -24
	movl	$1044839466, -28(%rbp)  # imm = 0x3E46FC2A
	movq	%rdi, -40(%rbp)
	movl	%esi, -16(%rbp)
	movl	%edx, -20(%rbp)
	movl	%ecx, -24(%rbp)
	movslq	-16(%rbp), %rdi
	movl	$8, %esi
	callq	calloc
	movq	-40(%rbp), %rcx
	movq	%rax, (%rcx)
	cmpq	$0, %rax
	jne	.LBB45_2
# %bb.1:                                # %if.then
	movabsq	$.L.str.22, %rdi
	callq	no_mem_exit
.LBB45_2:                               # %if.end
	movl	$0, -12(%rbp)
.LBB45_3:                               # %for.cond
                                        # =>This Inner Loop Header: Depth=1
	movl	-12(%rbp), %eax
	cmpl	-16(%rbp), %eax
	jge	.LBB45_6
# %bb.4:                                # %for.body
                                        #   in Loop: Header=BB45_3 Depth=1
	movq	-40(%rbp), %rax
	movq	(%rax), %rdi
	movslq	-12(%rbp), %rax
	shlq	$3, %rax
	addq	%rax, %rdi
	movl	-20(%rbp), %esi
	movl	-24(%rbp), %edx
	callq	get_mem2Dshort
# %bb.5:                                # %for.inc
                                        #   in Loop: Header=BB45_3 Depth=1
	movl	-12(%rbp), %eax
	addl	$1, %eax
	movl	%eax, -12(%rbp)
	jmp	.LBB45_3
.LBB45_6:                               # %for.end
	movl	-16(%rbp), %eax
	imull	-20(%rbp), %eax
	imull	-24(%rbp), %eax
	movslq	%eax, %rbx
	shlq	$1, %rbx
	cmpl	$1044839466, -28(%rbp)  # imm = 0x3E46FC2A
	jne	.LBB45_8
.LBB45_7:
	movl	%ebx, %eax
	addq	$40, %rsp
	popq	%rbx
	popq	%rbp
	.cfi_def_cfa %rsp, 8
	retq
.LBB45_8:                               # %func_exit
	.cfi_def_cfa %rbp, 16
	callq	detect_breach
	jmp	.LBB45_7
.Lfunc_end45:
	.size	get_mem3Dshort.19, .Lfunc_end45-get_mem3Dshort.19
	.cfi_endproc
                                        # -- End function
	.globl	free_mem3Dint.20        # -- Begin function free_mem3Dint.20
	.p2align	4, 0x90
	.type	free_mem3Dint.20,@function
free_mem3Dint.20:                       # @free_mem3Dint.20
	.cfi_startproc
# %bb.0:                                # %entry
	pushq	%rbp
	.cfi_def_cfa_offset 16
	.cfi_offset %rbp, -16
	movq	%rsp, %rbp
	.cfi_def_cfa_register %rbp
	subq	$32, %rsp
	movl	$2091542707, -20(%rbp)  # imm = 0x7CAA68B3
	movq	%rdi, -16(%rbp)
	movl	%esi, -24(%rbp)
	cmpq	$0, -16(%rbp)
	je	.LBB46_6
# %bb.1:                                # %if.then
	movl	$0, -4(%rbp)
.LBB46_2:                               # %for.cond
                                        # =>This Inner Loop Header: Depth=1
	movl	-4(%rbp), %eax
	cmpl	-24(%rbp), %eax
	jge	.LBB46_5
# %bb.3:                                # %for.body
                                        #   in Loop: Header=BB46_2 Depth=1
	movq	-16(%rbp), %rax
	movslq	-4(%rbp), %rcx
	movq	(%rax,%rcx,8), %rdi
	callq	free_mem2Dint
# %bb.4:                                # %for.inc
                                        #   in Loop: Header=BB46_2 Depth=1
	movl	-4(%rbp), %eax
	addl	$1, %eax
	movl	%eax, -4(%rbp)
	jmp	.LBB46_2
.LBB46_5:                               # %for.end
	movq	-16(%rbp), %rdi
	callq	free
	jmp	.LBB46_7
.LBB46_6:                               # %if.else
	movabsq	$.L.str.17, %rdi
	movl	$100, %esi
	callq	error
.LBB46_7:                               # %if.end
	cmpl	$2091542707, -20(%rbp)  # imm = 0x7CAA68B3
	jne	.LBB46_9
.LBB46_8:
	addq	$32, %rsp
	popq	%rbp
	.cfi_def_cfa %rsp, 8
	retq
.LBB46_9:                               # %func_exit
	.cfi_def_cfa %rbp, 16
	callq	detect_breach
	jmp	.LBB46_8
.Lfunc_end46:
	.size	free_mem3Dint.20, .Lfunc_end46-free_mem3Dint.20
	.cfi_endproc
                                        # -- End function
	.globl	get_mem2Dpel.21         # -- Begin function get_mem2Dpel.21
	.p2align	4, 0x90
	.type	get_mem2Dpel.21,@function
get_mem2Dpel.21:                        # @get_mem2Dpel.21
	.cfi_startproc
# %bb.0:                                # %entry
	pushq	%rbp
	.cfi_def_cfa_offset 16
	.cfi_offset %rbp, -16
	movq	%rsp, %rbp
	.cfi_def_cfa_register %rbp
	pushq	%rbx
	subq	$40, %rsp
	.cfi_offset %rbx, -24
	movl	$1701808516, -36(%rbp)  # imm = 0x656F8984
	movq	%rdi, -32(%rbp)
	movl	%esi, -16(%rbp)
	movl	%edx, -20(%rbp)
	movslq	-16(%rbp), %rdi
	movl	$8, %esi
	callq	calloc
	movq	-32(%rbp), %rcx
	movq	%rax, (%rcx)
	cmpq	$0, %rax
	jne	.LBB47_2
# %bb.1:                                # %if.then
	movabsq	$.L.str.2, %rdi
	callq	no_mem_exit
.LBB47_2:                               # %if.end
	movl	-16(%rbp), %eax
	imull	-20(%rbp), %eax
	movslq	%eax, %rdi
	movl	$2, %esi
	callq	calloc
	movq	-32(%rbp), %rcx
	movq	(%rcx), %rcx
	movq	%rax, (%rcx)
	cmpq	$0, %rax
	jne	.LBB47_4
# %bb.3:                                # %if.then6
	movabsq	$.L.str.2, %rdi
	callq	no_mem_exit
.LBB47_4:                               # %if.end7
	movl	$1, -12(%rbp)
.LBB47_5:                               # %for.cond
                                        # =>This Inner Loop Header: Depth=1
	movl	-12(%rbp), %eax
	cmpl	-16(%rbp), %eax
	jge	.LBB47_8
# %bb.6:                                # %for.body
                                        #   in Loop: Header=BB47_5 Depth=1
	movq	-32(%rbp), %rax
	movq	(%rax), %rax
	movl	-12(%rbp), %ecx
	subl	$1, %ecx
	movslq	%ecx, %rcx
	movq	(%rax,%rcx,8), %rax
	movslq	-20(%rbp), %rcx
	shlq	$1, %rcx
	addq	%rcx, %rax
	movq	-32(%rbp), %rcx
	movq	(%rcx), %rcx
	movslq	-12(%rbp), %rdx
	movq	%rax, (%rcx,%rdx,8)
# %bb.7:                                # %for.inc
                                        #   in Loop: Header=BB47_5 Depth=1
	movl	-12(%rbp), %eax
	addl	$1, %eax
	movl	%eax, -12(%rbp)
	jmp	.LBB47_5
.LBB47_8:                               # %for.end
	movl	-16(%rbp), %eax
	imull	-20(%rbp), %eax
	movslq	%eax, %rbx
	shlq	$1, %rbx
	cmpl	$1701808516, -36(%rbp)  # imm = 0x656F8984
	jne	.LBB47_10
.LBB47_9:
	movl	%ebx, %eax
	addq	$40, %rsp
	popq	%rbx
	popq	%rbp
	.cfi_def_cfa %rsp, 8
	retq
.LBB47_10:                              # %func_exit
	.cfi_def_cfa %rbp, 16
	callq	detect_breach
	jmp	.LBB47_9
.Lfunc_end47:
	.size	get_mem2Dpel.21, .Lfunc_end47-get_mem2Dpel.21
	.cfi_endproc
                                        # -- End function
	.globl	get_mem3Dpel.22         # -- Begin function get_mem3Dpel.22
	.p2align	4, 0x90
	.type	get_mem3Dpel.22,@function
get_mem3Dpel.22:                        # @get_mem3Dpel.22
	.cfi_startproc
# %bb.0:                                # %entry
	pushq	%rbp
	.cfi_def_cfa_offset 16
	.cfi_offset %rbp, -16
	movq	%rsp, %rbp
	.cfi_def_cfa_register %rbp
	pushq	%rbx
	subq	$40, %rsp
	.cfi_offset %rbx, -24
	movl	$217717579, -28(%rbp)   # imm = 0xCFA1B4B
	movq	%rdi, -40(%rbp)
	movl	%esi, -16(%rbp)
	movl	%edx, -20(%rbp)
	movl	%ecx, -24(%rbp)
	movslq	-16(%rbp), %rdi
	movl	$8, %esi
	callq	calloc
	movq	-40(%rbp), %rcx
	movq	%rax, (%rcx)
	cmpq	$0, %rax
	jne	.LBB48_2
# %bb.1:                                # %if.then
	movabsq	$.L.str.3, %rdi
	callq	no_mem_exit
.LBB48_2:                               # %if.end
	movl	$0, -12(%rbp)
.LBB48_3:                               # %for.cond
                                        # =>This Inner Loop Header: Depth=1
	movl	-12(%rbp), %eax
	cmpl	-16(%rbp), %eax
	jge	.LBB48_6
# %bb.4:                                # %for.body
                                        #   in Loop: Header=BB48_3 Depth=1
	movq	-40(%rbp), %rax
	movq	(%rax), %rdi
	movslq	-12(%rbp), %rax
	shlq	$3, %rax
	addq	%rax, %rdi
	movl	-20(%rbp), %esi
	movl	-24(%rbp), %edx
	callq	get_mem2Dpel
# %bb.5:                                # %for.inc
                                        #   in Loop: Header=BB48_3 Depth=1
	movl	-12(%rbp), %eax
	addl	$1, %eax
	movl	%eax, -12(%rbp)
	jmp	.LBB48_3
.LBB48_6:                               # %for.end
	movl	-16(%rbp), %eax
	imull	-20(%rbp), %eax
	imull	-24(%rbp), %eax
	movslq	%eax, %rbx
	shlq	$1, %rbx
	cmpl	$217717579, -28(%rbp)   # imm = 0xCFA1B4B
	jne	.LBB48_8
.LBB48_7:
	movl	%ebx, %eax
	addq	$40, %rsp
	popq	%rbx
	popq	%rbp
	.cfi_def_cfa %rsp, 8
	retq
.LBB48_8:                               # %func_exit
	.cfi_def_cfa %rbp, 16
	callq	detect_breach
	jmp	.LBB48_7
.Lfunc_end48:
	.size	get_mem3Dpel.22, .Lfunc_end48-get_mem3Dpel.22
	.cfi_endproc
                                        # -- End function
	.globl	free_mem3Dpel.23        # -- Begin function free_mem3Dpel.23
	.p2align	4, 0x90
	.type	free_mem3Dpel.23,@function
free_mem3Dpel.23:                       # @free_mem3Dpel.23
	.cfi_startproc
# %bb.0:                                # %entry
	pushq	%rbp
	.cfi_def_cfa_offset 16
	.cfi_offset %rbp, -16
	movq	%rsp, %rbp
	.cfi_def_cfa_register %rbp
	subq	$32, %rsp
	movl	$1824876375, -24(%rbp)  # imm = 0x6CC56757
	movq	%rdi, -16(%rbp)
	movl	%esi, -20(%rbp)
	cmpq	$0, -16(%rbp)
	je	.LBB49_6
# %bb.1:                                # %if.then
	movl	$0, -4(%rbp)
.LBB49_2:                               # %for.cond
                                        # =>This Inner Loop Header: Depth=1
	movl	-4(%rbp), %eax
	cmpl	-20(%rbp), %eax
	jge	.LBB49_5
# %bb.3:                                # %for.body
                                        #   in Loop: Header=BB49_2 Depth=1
	movq	-16(%rbp), %rax
	movslq	-4(%rbp), %rcx
	movq	(%rax,%rcx,8), %rdi
	callq	free_mem2Dpel
# %bb.4:                                # %for.inc
                                        #   in Loop: Header=BB49_2 Depth=1
	movl	-4(%rbp), %eax
	addl	$1, %eax
	movl	%eax, -4(%rbp)
	jmp	.LBB49_2
.LBB49_5:                               # %for.end
	movq	-16(%rbp), %rdi
	callq	free
	jmp	.LBB49_7
.LBB49_6:                               # %if.else
	movabsq	$.L.str.5, %rdi
	movl	$100, %esi
	callq	error
.LBB49_7:                               # %if.end
	cmpl	$1824876375, -24(%rbp)  # imm = 0x6CC56757
	jne	.LBB49_9
.LBB49_8:
	addq	$32, %rsp
	popq	%rbp
	.cfi_def_cfa %rsp, 8
	retq
.LBB49_9:                               # %func_exit
	.cfi_def_cfa %rbp, 16
	callq	detect_breach
	jmp	.LBB49_8
.Lfunc_end49:
	.size	free_mem3Dpel.23, .Lfunc_end49-free_mem3Dpel.23
	.cfi_endproc
                                        # -- End function
	.globl	get_mem3Dint.24         # -- Begin function get_mem3Dint.24
	.p2align	4, 0x90
	.type	get_mem3Dint.24,@function
get_mem3Dint.24:                        # @get_mem3Dint.24
	.cfi_startproc
# %bb.0:                                # %entry
	pushq	%rbp
	.cfi_def_cfa_offset 16
	.cfi_offset %rbp, -16
	movq	%rsp, %rbp
	.cfi_def_cfa_register %rbp
	pushq	%rbx
	subq	$40, %rsp
	.cfi_offset %rbx, -24
	movl	$975197607, -28(%rbp)   # imm = 0x3A2055A7
	movq	%rdi, -40(%rbp)
	movl	%esi, -16(%rbp)
	movl	%edx, -24(%rbp)
	movl	%ecx, -20(%rbp)
	movslq	-16(%rbp), %rdi
	movl	$8, %esi
	callq	calloc
	movq	-40(%rbp), %rcx
	movq	%rax, (%rcx)
	cmpq	$0, %rax
	jne	.LBB50_2
# %bb.1:                                # %if.then
	movabsq	$.L.str.10, %rdi
	callq	no_mem_exit
.LBB50_2:                               # %if.end
	movl	$0, -12(%rbp)
.LBB50_3:                               # %for.cond
                                        # =>This Inner Loop Header: Depth=1
	movl	-12(%rbp), %eax
	cmpl	-16(%rbp), %eax
	jge	.LBB50_6
# %bb.4:                                # %for.body
                                        #   in Loop: Header=BB50_3 Depth=1
	movq	-40(%rbp), %rax
	movq	(%rax), %rdi
	movslq	-12(%rbp), %rax
	shlq	$3, %rax
	addq	%rax, %rdi
	movl	-24(%rbp), %esi
	movl	-20(%rbp), %edx
	callq	get_mem2Dint
# %bb.5:                                # %for.inc
                                        #   in Loop: Header=BB50_3 Depth=1
	movl	-12(%rbp), %eax
	addl	$1, %eax
	movl	%eax, -12(%rbp)
	jmp	.LBB50_3
.LBB50_6:                               # %for.end
	movl	-16(%rbp), %eax
	imull	-24(%rbp), %eax
	imull	-20(%rbp), %eax
	movslq	%eax, %rbx
	shlq	$2, %rbx
	cmpl	$975197607, -28(%rbp)   # imm = 0x3A2055A7
	jne	.LBB50_8
.LBB50_7:
	movl	%ebx, %eax
	addq	$40, %rsp
	popq	%rbx
	popq	%rbp
	.cfi_def_cfa %rsp, 8
	retq
.LBB50_8:                               # %func_exit
	.cfi_def_cfa %rbp, 16
	callq	detect_breach
	jmp	.LBB50_7
.Lfunc_end50:
	.size	get_mem3Dint.24, .Lfunc_end50-get_mem3Dint.24
	.cfi_endproc
                                        # -- End function
	.globl	free_mem3Dint.25        # -- Begin function free_mem3Dint.25
	.p2align	4, 0x90
	.type	free_mem3Dint.25,@function
free_mem3Dint.25:                       # @free_mem3Dint.25
	.cfi_startproc
# %bb.0:                                # %entry
	pushq	%rbp
	.cfi_def_cfa_offset 16
	.cfi_offset %rbp, -16
	movq	%rsp, %rbp
	.cfi_def_cfa_register %rbp
	subq	$32, %rsp
	movl	$1267916836, -24(%rbp)  # imm = 0x4B92E024
	movq	%rdi, -16(%rbp)
	movl	%esi, -20(%rbp)
	cmpq	$0, -16(%rbp)
	je	.LBB51_6
# %bb.1:                                # %if.then
	movl	$0, -4(%rbp)
.LBB51_2:                               # %for.cond
                                        # =>This Inner Loop Header: Depth=1
	movl	-4(%rbp), %eax
	cmpl	-20(%rbp), %eax
	jge	.LBB51_5
# %bb.3:                                # %for.body
                                        #   in Loop: Header=BB51_2 Depth=1
	movq	-16(%rbp), %rax
	movslq	-4(%rbp), %rcx
	movq	(%rax,%rcx,8), %rdi
	callq	free_mem2Dint
# %bb.4:                                # %for.inc
                                        #   in Loop: Header=BB51_2 Depth=1
	movl	-4(%rbp), %eax
	addl	$1, %eax
	movl	%eax, -4(%rbp)
	jmp	.LBB51_2
.LBB51_5:                               # %for.end
	movq	-16(%rbp), %rdi
	callq	free
	jmp	.LBB51_7
.LBB51_6:                               # %if.else
	movabsq	$.L.str.17, %rdi
	movl	$100, %esi
	callq	error
.LBB51_7:                               # %if.end
	cmpl	$1267916836, -24(%rbp)  # imm = 0x4B92E024
	jne	.LBB51_9
.LBB51_8:
	addq	$32, %rsp
	popq	%rbp
	.cfi_def_cfa %rsp, 8
	retq
.LBB51_9:                               # %func_exit
	.cfi_def_cfa %rbp, 16
	callq	detect_breach
	jmp	.LBB51_8
.Lfunc_end51:
	.size	free_mem3Dint.25, .Lfunc_end51-free_mem3Dint.25
	.cfi_endproc
                                        # -- End function
	.globl	get_mem3Dint.26         # -- Begin function get_mem3Dint.26
	.p2align	4, 0x90
	.type	get_mem3Dint.26,@function
get_mem3Dint.26:                        # @get_mem3Dint.26
	.cfi_startproc
# %bb.0:                                # %entry
	pushq	%rbp
	.cfi_def_cfa_offset 16
	.cfi_offset %rbp, -16
	movq	%rsp, %rbp
	.cfi_def_cfa_register %rbp
	pushq	%rbx
	subq	$40, %rsp
	.cfi_offset %rbx, -24
	movl	$103846777, -28(%rbp)   # imm = 0x6309379
	movq	%rdi, -40(%rbp)
	movl	%esi, -16(%rbp)
	movl	%edx, -20(%rbp)
	movl	%ecx, -24(%rbp)
	movslq	-16(%rbp), %rdi
	movl	$8, %esi
	callq	calloc
	movq	-40(%rbp), %rcx
	movq	%rax, (%rcx)
	cmpq	$0, %rax
	jne	.LBB52_2
# %bb.1:                                # %if.then
	movabsq	$.L.str.10, %rdi
	callq	no_mem_exit
.LBB52_2:                               # %if.end
	movl	$0, -12(%rbp)
.LBB52_3:                               # %for.cond
                                        # =>This Inner Loop Header: Depth=1
	movl	-12(%rbp), %eax
	cmpl	-16(%rbp), %eax
	jge	.LBB52_6
# %bb.4:                                # %for.body
                                        #   in Loop: Header=BB52_3 Depth=1
	movq	-40(%rbp), %rax
	movq	(%rax), %rdi
	movslq	-12(%rbp), %rax
	shlq	$3, %rax
	addq	%rax, %rdi
	movl	-20(%rbp), %esi
	movl	-24(%rbp), %edx
	callq	get_mem2Dint
# %bb.5:                                # %for.inc
                                        #   in Loop: Header=BB52_3 Depth=1
	movl	-12(%rbp), %eax
	addl	$1, %eax
	movl	%eax, -12(%rbp)
	jmp	.LBB52_3
.LBB52_6:                               # %for.end
	movl	-16(%rbp), %eax
	imull	-20(%rbp), %eax
	imull	-24(%rbp), %eax
	movslq	%eax, %rbx
	shlq	$2, %rbx
	cmpl	$103846777, -28(%rbp)   # imm = 0x6309379
	jne	.LBB52_8
.LBB52_7:
	movl	%ebx, %eax
	addq	$40, %rsp
	popq	%rbx
	popq	%rbp
	.cfi_def_cfa %rsp, 8
	retq
.LBB52_8:                               # %func_exit
	.cfi_def_cfa %rbp, 16
	callq	detect_breach
	jmp	.LBB52_7
.Lfunc_end52:
	.size	get_mem3Dint.26, .Lfunc_end52-get_mem3Dint.26
	.cfi_endproc
                                        # -- End function
	.globl	free_mem4Dshort.27      # -- Begin function free_mem4Dshort.27
	.p2align	4, 0x90
	.type	free_mem4Dshort.27,@function
free_mem4Dshort.27:                     # @free_mem4Dshort.27
	.cfi_startproc
# %bb.0:                                # %entry
	pushq	%rbp
	.cfi_def_cfa_offset 16
	.cfi_offset %rbp, -16
	movq	%rsp, %rbp
	.cfi_def_cfa_register %rbp
	subq	$32, %rsp
	movl	$696935868, -24(%rbp)   # imm = 0x298A65BC
	movq	%rdi, -16(%rbp)
	movl	%esi, -20(%rbp)
	movl	%edx, -28(%rbp)
	cmpq	$0, -16(%rbp)
	je	.LBB53_6
# %bb.1:                                # %if.then
	movl	$0, -4(%rbp)
.LBB53_2:                               # %for.cond
                                        # =>This Inner Loop Header: Depth=1
	movl	-4(%rbp), %eax
	cmpl	-20(%rbp), %eax
	jge	.LBB53_5
# %bb.3:                                # %for.body
                                        #   in Loop: Header=BB53_2 Depth=1
	movq	-16(%rbp), %rax
	movslq	-4(%rbp), %rcx
	movq	(%rax,%rcx,8), %rdi
	movl	-28(%rbp), %esi
	callq	free_mem3Dshort
# %bb.4:                                # %for.inc
                                        #   in Loop: Header=BB53_2 Depth=1
	movl	-4(%rbp), %eax
	addl	$1, %eax
	movl	%eax, -4(%rbp)
	jmp	.LBB53_2
.LBB53_5:                               # %for.end
	movq	-16(%rbp), %rdi
	callq	free
	jmp	.LBB53_7
.LBB53_6:                               # %if.else
	movabsq	$.L.str.26, %rdi
	movl	$100, %esi
	callq	error
.LBB53_7:                               # %if.end
	cmpl	$696935868, -24(%rbp)   # imm = 0x298A65BC
	jne	.LBB53_9
.LBB53_8:
	addq	$32, %rsp
	popq	%rbp
	.cfi_def_cfa %rsp, 8
	retq
.LBB53_9:                               # %func_exit
	.cfi_def_cfa %rbp, 16
	callq	detect_breach
	jmp	.LBB53_8
.Lfunc_end53:
	.size	free_mem4Dshort.27, .Lfunc_end53-free_mem4Dshort.27
	.cfi_endproc
                                        # -- End function
	.globl	get_mem3Dint64.28       # -- Begin function get_mem3Dint64.28
	.p2align	4, 0x90
	.type	get_mem3Dint64.28,@function
get_mem3Dint64.28:                      # @get_mem3Dint64.28
	.cfi_startproc
# %bb.0:                                # %entry
	pushq	%rbp
	.cfi_def_cfa_offset 16
	.cfi_offset %rbp, -16
	movq	%rsp, %rbp
	.cfi_def_cfa_register %rbp
	pushq	%rbx
	subq	$40, %rsp
	.cfi_offset %rbx, -24
	movl	$1572903636, -28(%rbp)  # imm = 0x5DC09AD4
	movq	%rdi, -40(%rbp)
	movl	%esi, -16(%rbp)
	movl	%edx, -20(%rbp)
	movl	%ecx, -24(%rbp)
	movslq	-16(%rbp), %rdi
	movl	$8, %esi
	callq	calloc
	movq	-40(%rbp), %rcx
	movq	%rax, (%rcx)
	cmpq	$0, %rax
	jne	.LBB54_2
# %bb.1:                                # %if.then
	movabsq	$.L.str.11, %rdi
	callq	no_mem_exit
.LBB54_2:                               # %if.end
	movl	$0, -12(%rbp)
.LBB54_3:                               # %for.cond
                                        # =>This Inner Loop Header: Depth=1
	movl	-12(%rbp), %eax
	cmpl	-16(%rbp), %eax
	jge	.LBB54_6
# %bb.4:                                # %for.body
                                        #   in Loop: Header=BB54_3 Depth=1
	movq	-40(%rbp), %rax
	movq	(%rax), %rdi
	movslq	-12(%rbp), %rax
	shlq	$3, %rax
	addq	%rax, %rdi
	movl	-20(%rbp), %esi
	movl	-24(%rbp), %edx
	callq	get_mem2Dint64
# %bb.5:                                # %for.inc
                                        #   in Loop: Header=BB54_3 Depth=1
	movl	-12(%rbp), %eax
	addl	$1, %eax
	movl	%eax, -12(%rbp)
	jmp	.LBB54_3
.LBB54_6:                               # %for.end
	movl	-16(%rbp), %eax
	imull	-20(%rbp), %eax
	imull	-24(%rbp), %eax
	movslq	%eax, %rbx
	shlq	$3, %rbx
	cmpl	$1572903636, -28(%rbp)  # imm = 0x5DC09AD4
	jne	.LBB54_8
.LBB54_7:
	movl	%ebx, %eax
	addq	$40, %rsp
	popq	%rbx
	popq	%rbp
	.cfi_def_cfa %rsp, 8
	retq
.LBB54_8:                               # %func_exit
	.cfi_def_cfa %rbp, 16
	callq	detect_breach
	jmp	.LBB54_7
.Lfunc_end54:
	.size	get_mem3Dint64.28, .Lfunc_end54-get_mem3Dint64.28
	.cfi_endproc
                                        # -- End function
	.globl	get_mem3Dshort.29       # -- Begin function get_mem3Dshort.29
	.p2align	4, 0x90
	.type	get_mem3Dshort.29,@function
get_mem3Dshort.29:                      # @get_mem3Dshort.29
	.cfi_startproc
# %bb.0:                                # %entry
	pushq	%rbp
	.cfi_def_cfa_offset 16
	.cfi_offset %rbp, -16
	movq	%rsp, %rbp
	.cfi_def_cfa_register %rbp
	pushq	%rbx
	subq	$40, %rsp
	.cfi_offset %rbx, -24
	movl	$399709527, -28(%rbp)   # imm = 0x17D31557
	movq	%rdi, -40(%rbp)
	movl	%esi, -16(%rbp)
	movl	%edx, -24(%rbp)
	movl	%ecx, -20(%rbp)
	movslq	-16(%rbp), %rdi
	movl	$8, %esi
	callq	calloc
	movq	-40(%rbp), %rcx
	movq	%rax, (%rcx)
	cmpq	$0, %rax
	jne	.LBB55_2
# %bb.1:                                # %if.then
	movabsq	$.L.str.22, %rdi
	callq	no_mem_exit
.LBB55_2:                               # %if.end
	movl	$0, -12(%rbp)
.LBB55_3:                               # %for.cond
                                        # =>This Inner Loop Header: Depth=1
	movl	-12(%rbp), %eax
	cmpl	-16(%rbp), %eax
	jge	.LBB55_6
# %bb.4:                                # %for.body
                                        #   in Loop: Header=BB55_3 Depth=1
	movq	-40(%rbp), %rax
	movq	(%rax), %rdi
	movslq	-12(%rbp), %rax
	shlq	$3, %rax
	addq	%rax, %rdi
	movl	-24(%rbp), %esi
	movl	-20(%rbp), %edx
	callq	get_mem2Dshort
# %bb.5:                                # %for.inc
                                        #   in Loop: Header=BB55_3 Depth=1
	movl	-12(%rbp), %eax
	addl	$1, %eax
	movl	%eax, -12(%rbp)
	jmp	.LBB55_3
.LBB55_6:                               # %for.end
	movl	-16(%rbp), %eax
	imull	-24(%rbp), %eax
	imull	-20(%rbp), %eax
	movslq	%eax, %rbx
	shlq	$1, %rbx
	cmpl	$399709527, -28(%rbp)   # imm = 0x17D31557
	jne	.LBB55_8
.LBB55_7:
	movl	%ebx, %eax
	addq	$40, %rsp
	popq	%rbx
	popq	%rbp
	.cfi_def_cfa %rsp, 8
	retq
.LBB55_8:                               # %func_exit
	.cfi_def_cfa %rbp, 16
	callq	detect_breach
	jmp	.LBB55_7
.Lfunc_end55:
	.size	get_mem3Dshort.29, .Lfunc_end55-get_mem3Dshort.29
	.cfi_endproc
                                        # -- End function
	.globl	free_mem3Dint64.30      # -- Begin function free_mem3Dint64.30
	.p2align	4, 0x90
	.type	free_mem3Dint64.30,@function
free_mem3Dint64.30:                     # @free_mem3Dint64.30
	.cfi_startproc
# %bb.0:                                # %entry
	pushq	%rbp
	.cfi_def_cfa_offset 16
	.cfi_offset %rbp, -16
	movq	%rsp, %rbp
	.cfi_def_cfa_register %rbp
	subq	$32, %rsp
	movl	$643636384, -24(%rbp)   # imm = 0x265D1CA0
	movq	%rdi, -16(%rbp)
	movl	%esi, -20(%rbp)
	cmpq	$0, -16(%rbp)
	je	.LBB56_6
# %bb.1:                                # %if.then
	movl	$0, -4(%rbp)
.LBB56_2:                               # %for.cond
                                        # =>This Inner Loop Header: Depth=1
	movl	-4(%rbp), %eax
	cmpl	-20(%rbp), %eax
	jge	.LBB56_5
# %bb.3:                                # %for.body
                                        #   in Loop: Header=BB56_2 Depth=1
	movq	-16(%rbp), %rax
	movslq	-4(%rbp), %rcx
	movq	(%rax,%rcx,8), %rdi
	callq	free_mem2Dint64
# %bb.4:                                # %for.inc
                                        #   in Loop: Header=BB56_2 Depth=1
	movl	-4(%rbp), %eax
	addl	$1, %eax
	movl	%eax, -4(%rbp)
	jmp	.LBB56_2
.LBB56_5:                               # %for.end
	movq	-16(%rbp), %rdi
	callq	free
	jmp	.LBB56_7
.LBB56_6:                               # %if.else
	movabsq	$.L.str.18, %rdi
	movl	$100, %esi
	callq	error
.LBB56_7:                               # %if.end
	cmpl	$643636384, -24(%rbp)   # imm = 0x265D1CA0
	jne	.LBB56_9
.LBB56_8:
	addq	$32, %rsp
	popq	%rbp
	.cfi_def_cfa %rsp, 8
	retq
.LBB56_9:                               # %func_exit
	.cfi_def_cfa %rbp, 16
	callq	detect_breach
	jmp	.LBB56_8
.Lfunc_end56:
	.size	free_mem3Dint64.30, .Lfunc_end56-free_mem3Dint64.30
	.cfi_endproc
                                        # -- End function
	.globl	get_mem3D.31            # -- Begin function get_mem3D.31
	.p2align	4, 0x90
	.type	get_mem3D.31,@function
get_mem3D.31:                           # @get_mem3D.31
	.cfi_startproc
# %bb.0:                                # %entry
	pushq	%rbp
	.cfi_def_cfa_offset 16
	.cfi_offset %rbp, -16
	movq	%rsp, %rbp
	.cfi_def_cfa_register %rbp
	pushq	%rbx
	subq	$40, %rsp
	.cfi_offset %rbx, -24
	movl	$872848013, -28(%rbp)   # imm = 0x34069A8D
	movq	%rdi, -40(%rbp)
	movl	%esi, -16(%rbp)
	movl	%edx, -20(%rbp)
	movl	%ecx, -24(%rbp)
	movslq	-16(%rbp), %rdi
	movl	$8, %esi
	callq	calloc
	movq	-40(%rbp), %rcx
	movq	%rax, (%rcx)
	cmpq	$0, %rax
	jne	.LBB57_2
# %bb.1:                                # %if.then
	movabsq	$.L.str.9, %rdi
	callq	no_mem_exit
.LBB57_2:                               # %if.end
	movl	$0, -12(%rbp)
.LBB57_3:                               # %for.cond
                                        # =>This Inner Loop Header: Depth=1
	movl	-12(%rbp), %eax
	cmpl	-16(%rbp), %eax
	jge	.LBB57_6
# %bb.4:                                # %for.body
                                        #   in Loop: Header=BB57_3 Depth=1
	movq	-40(%rbp), %rax
	movq	(%rax), %rdi
	movslq	-12(%rbp), %rax
	shlq	$3, %rax
	addq	%rax, %rdi
	movl	-20(%rbp), %esi
	movl	-24(%rbp), %edx
	callq	get_mem2D
# %bb.5:                                # %for.inc
                                        #   in Loop: Header=BB57_3 Depth=1
	movl	-12(%rbp), %eax
	addl	$1, %eax
	movl	%eax, -12(%rbp)
	jmp	.LBB57_3
.LBB57_6:                               # %for.end
	movl	-16(%rbp), %ebx
	imull	-20(%rbp), %ebx
	imull	-24(%rbp), %ebx
	cmpl	$872848013, -28(%rbp)   # imm = 0x34069A8D
	jne	.LBB57_8
.LBB57_7:
	movl	%ebx, %eax
	addq	$40, %rsp
	popq	%rbx
	popq	%rbp
	.cfi_def_cfa %rsp, 8
	retq
.LBB57_8:                               # %func_exit
	.cfi_def_cfa %rbp, 16
	callq	detect_breach
	jmp	.LBB57_7
.Lfunc_end57:
	.size	get_mem3D.31, .Lfunc_end57-get_mem3D.31
	.cfi_endproc
                                        # -- End function
	.globl	get_mem3Dint.32         # -- Begin function get_mem3Dint.32
	.p2align	4, 0x90
	.type	get_mem3Dint.32,@function
get_mem3Dint.32:                        # @get_mem3Dint.32
	.cfi_startproc
# %bb.0:                                # %entry
	pushq	%rbp
	.cfi_def_cfa_offset 16
	.cfi_offset %rbp, -16
	movq	%rsp, %rbp
	.cfi_def_cfa_register %rbp
	pushq	%rbx
	subq	$40, %rsp
	.cfi_offset %rbx, -24
	movl	$2071272514, -28(%rbp)  # imm = 0x7B751C42
	movq	%rdi, -40(%rbp)
	movl	%esi, -16(%rbp)
	movl	%edx, -24(%rbp)
	movl	%ecx, -20(%rbp)
	movslq	-16(%rbp), %rdi
	movl	$8, %esi
	callq	calloc
	movq	-40(%rbp), %rcx
	movq	%rax, (%rcx)
	cmpq	$0, %rax
	jne	.LBB58_2
# %bb.1:                                # %if.then
	movabsq	$.L.str.10, %rdi
	callq	no_mem_exit
.LBB58_2:                               # %if.end
	movl	$0, -12(%rbp)
.LBB58_3:                               # %for.cond
                                        # =>This Inner Loop Header: Depth=1
	movl	-12(%rbp), %eax
	cmpl	-16(%rbp), %eax
	jge	.LBB58_6
# %bb.4:                                # %for.body
                                        #   in Loop: Header=BB58_3 Depth=1
	movq	-40(%rbp), %rax
	movq	(%rax), %rdi
	movslq	-12(%rbp), %rax
	shlq	$3, %rax
	addq	%rax, %rdi
	movl	-24(%rbp), %esi
	movl	-20(%rbp), %edx
	callq	get_mem2Dint
# %bb.5:                                # %for.inc
                                        #   in Loop: Header=BB58_3 Depth=1
	movl	-12(%rbp), %eax
	addl	$1, %eax
	movl	%eax, -12(%rbp)
	jmp	.LBB58_3
.LBB58_6:                               # %for.end
	movl	-16(%rbp), %eax
	imull	-24(%rbp), %eax
	imull	-20(%rbp), %eax
	movslq	%eax, %rbx
	shlq	$2, %rbx
	cmpl	$2071272514, -28(%rbp)  # imm = 0x7B751C42
	jne	.LBB58_8
.LBB58_7:
	movl	%ebx, %eax
	addq	$40, %rsp
	popq	%rbx
	popq	%rbp
	.cfi_def_cfa %rsp, 8
	retq
.LBB58_8:                               # %func_exit
	.cfi_def_cfa %rbp, 16
	callq	detect_breach
	jmp	.LBB58_7
.Lfunc_end58:
	.size	get_mem3Dint.32, .Lfunc_end58-get_mem3Dint.32
	.cfi_endproc
                                        # -- End function
	.globl	get_mem2Dpel.33         # -- Begin function get_mem2Dpel.33
	.p2align	4, 0x90
	.type	get_mem2Dpel.33,@function
get_mem2Dpel.33:                        # @get_mem2Dpel.33
	.cfi_startproc
# %bb.0:                                # %entry
	pushq	%rbp
	.cfi_def_cfa_offset 16
	.cfi_offset %rbp, -16
	movq	%rsp, %rbp
	.cfi_def_cfa_register %rbp
	pushq	%rbx
	subq	$40, %rsp
	.cfi_offset %rbx, -24
	movl	$1521897804, -36(%rbp)  # imm = 0x5AB6514C
	movq	%rdi, -32(%rbp)
	movl	%esi, -16(%rbp)
	movl	%edx, -20(%rbp)
	movslq	-16(%rbp), %rdi
	movl	$8, %esi
	callq	calloc
	movq	-32(%rbp), %rcx
	movq	%rax, (%rcx)
	cmpq	$0, %rax
	jne	.LBB59_2
# %bb.1:                                # %if.then
	movabsq	$.L.str.2, %rdi
	callq	no_mem_exit
.LBB59_2:                               # %if.end
	movl	-16(%rbp), %eax
	imull	-20(%rbp), %eax
	movslq	%eax, %rdi
	movl	$2, %esi
	callq	calloc
	movq	-32(%rbp), %rcx
	movq	(%rcx), %rcx
	movq	%rax, (%rcx)
	cmpq	$0, %rax
	jne	.LBB59_4
# %bb.3:                                # %if.then6
	movabsq	$.L.str.2, %rdi
	callq	no_mem_exit
.LBB59_4:                               # %if.end7
	movl	$1, -12(%rbp)
.LBB59_5:                               # %for.cond
                                        # =>This Inner Loop Header: Depth=1
	movl	-12(%rbp), %eax
	cmpl	-16(%rbp), %eax
	jge	.LBB59_8
# %bb.6:                                # %for.body
                                        #   in Loop: Header=BB59_5 Depth=1
	movq	-32(%rbp), %rax
	movq	(%rax), %rax
	movl	-12(%rbp), %ecx
	subl	$1, %ecx
	movslq	%ecx, %rcx
	movq	(%rax,%rcx,8), %rax
	movslq	-20(%rbp), %rcx
	shlq	$1, %rcx
	addq	%rcx, %rax
	movq	-32(%rbp), %rcx
	movq	(%rcx), %rcx
	movslq	-12(%rbp), %rdx
	movq	%rax, (%rcx,%rdx,8)
# %bb.7:                                # %for.inc
                                        #   in Loop: Header=BB59_5 Depth=1
	movl	-12(%rbp), %eax
	addl	$1, %eax
	movl	%eax, -12(%rbp)
	jmp	.LBB59_5
.LBB59_8:                               # %for.end
	movl	-16(%rbp), %eax
	imull	-20(%rbp), %eax
	movslq	%eax, %rbx
	shlq	$1, %rbx
	cmpl	$1521897804, -36(%rbp)  # imm = 0x5AB6514C
	jne	.LBB59_10
.LBB59_9:
	movl	%ebx, %eax
	addq	$40, %rsp
	popq	%rbx
	popq	%rbp
	.cfi_def_cfa %rsp, 8
	retq
.LBB59_10:                              # %func_exit
	.cfi_def_cfa %rbp, 16
	callq	detect_breach
	jmp	.LBB59_9
.Lfunc_end59:
	.size	get_mem2Dpel.33, .Lfunc_end59-get_mem2Dpel.33
	.cfi_endproc
                                        # -- End function
	.globl	free_mem3Dpel.34        # -- Begin function free_mem3Dpel.34
	.p2align	4, 0x90
	.type	free_mem3Dpel.34,@function
free_mem3Dpel.34:                       # @free_mem3Dpel.34
	.cfi_startproc
# %bb.0:                                # %entry
	pushq	%rbp
	.cfi_def_cfa_offset 16
	.cfi_offset %rbp, -16
	movq	%rsp, %rbp
	.cfi_def_cfa_register %rbp
	subq	$32, %rsp
	movl	$497050657, -24(%rbp)   # imm = 0x1DA06421
	movq	%rdi, -16(%rbp)
	movl	%esi, -20(%rbp)
	cmpq	$0, -16(%rbp)
	je	.LBB60_6
# %bb.1:                                # %if.then
	movl	$0, -4(%rbp)
.LBB60_2:                               # %for.cond
                                        # =>This Inner Loop Header: Depth=1
	movl	-4(%rbp), %eax
	cmpl	-20(%rbp), %eax
	jge	.LBB60_5
# %bb.3:                                # %for.body
                                        #   in Loop: Header=BB60_2 Depth=1
	movq	-16(%rbp), %rax
	movslq	-4(%rbp), %rcx
	movq	(%rax,%rcx,8), %rdi
	callq	free_mem2Dpel
# %bb.4:                                # %for.inc
                                        #   in Loop: Header=BB60_2 Depth=1
	movl	-4(%rbp), %eax
	addl	$1, %eax
	movl	%eax, -4(%rbp)
	jmp	.LBB60_2
.LBB60_5:                               # %for.end
	movq	-16(%rbp), %rdi
	callq	free
	jmp	.LBB60_7
.LBB60_6:                               # %if.else
	movabsq	$.L.str.5, %rdi
	movl	$100, %esi
	callq	error
.LBB60_7:                               # %if.end
	cmpl	$497050657, -24(%rbp)   # imm = 0x1DA06421
	jne	.LBB60_9
.LBB60_8:
	addq	$32, %rsp
	popq	%rbp
	.cfi_def_cfa %rsp, 8
	retq
.LBB60_9:                               # %func_exit
	.cfi_def_cfa %rbp, 16
	callq	detect_breach
	jmp	.LBB60_8
.Lfunc_end60:
	.size	free_mem3Dpel.34, .Lfunc_end60-free_mem3Dpel.34
	.cfi_endproc
                                        # -- End function
	.globl	get_mem3D.35            # -- Begin function get_mem3D.35
	.p2align	4, 0x90
	.type	get_mem3D.35,@function
get_mem3D.35:                           # @get_mem3D.35
	.cfi_startproc
# %bb.0:                                # %entry
	pushq	%rbp
	.cfi_def_cfa_offset 16
	.cfi_offset %rbp, -16
	movq	%rsp, %rbp
	.cfi_def_cfa_register %rbp
	pushq	%rbx
	subq	$40, %rsp
	.cfi_offset %rbx, -24
	movl	$379377940, -28(%rbp)   # imm = 0x169CD914
	movq	%rdi, -40(%rbp)
	movl	%esi, -16(%rbp)
	movl	%edx, -20(%rbp)
	movl	%ecx, -24(%rbp)
	movslq	-16(%rbp), %rdi
	movl	$8, %esi
	callq	calloc
	movq	-40(%rbp), %rcx
	movq	%rax, (%rcx)
	cmpq	$0, %rax
	jne	.LBB61_2
# %bb.1:                                # %if.then
	movabsq	$.L.str.9, %rdi
	callq	no_mem_exit
.LBB61_2:                               # %if.end
	movl	$0, -12(%rbp)
.LBB61_3:                               # %for.cond
                                        # =>This Inner Loop Header: Depth=1
	movl	-12(%rbp), %eax
	cmpl	-16(%rbp), %eax
	jge	.LBB61_6
# %bb.4:                                # %for.body
                                        #   in Loop: Header=BB61_3 Depth=1
	movq	-40(%rbp), %rax
	movq	(%rax), %rdi
	movslq	-12(%rbp), %rax
	shlq	$3, %rax
	addq	%rax, %rdi
	movl	-20(%rbp), %esi
	movl	-24(%rbp), %edx
	callq	get_mem2D
# %bb.5:                                # %for.inc
                                        #   in Loop: Header=BB61_3 Depth=1
	movl	-12(%rbp), %eax
	addl	$1, %eax
	movl	%eax, -12(%rbp)
	jmp	.LBB61_3
.LBB61_6:                               # %for.end
	movl	-16(%rbp), %ebx
	imull	-20(%rbp), %ebx
	imull	-24(%rbp), %ebx
	cmpl	$379377940, -28(%rbp)   # imm = 0x169CD914
	jne	.LBB61_8
.LBB61_7:
	movl	%ebx, %eax
	addq	$40, %rsp
	popq	%rbx
	popq	%rbp
	.cfi_def_cfa %rsp, 8
	retq
.LBB61_8:                               # %func_exit
	.cfi_def_cfa %rbp, 16
	callq	detect_breach
	jmp	.LBB61_7
.Lfunc_end61:
	.size	get_mem3D.35, .Lfunc_end61-get_mem3D.35
	.cfi_endproc
                                        # -- End function
	.globl	get_mem4Dshort.36       # -- Begin function get_mem4Dshort.36
	.p2align	4, 0x90
	.type	get_mem4Dshort.36,@function
get_mem4Dshort.36:                      # @get_mem4Dshort.36
	.cfi_startproc
# %bb.0:                                # %entry
	pushq	%rbp
	.cfi_def_cfa_offset 16
	.cfi_offset %rbp, -16
	movq	%rsp, %rbp
	.cfi_def_cfa_register %rbp
	pushq	%rbx
	subq	$40, %rsp
	.cfi_offset %rbx, -24
	movl	$1010744126, -32(%rbp)  # imm = 0x3C3EBB3E
	movq	%rdi, -40(%rbp)
	movl	%esi, -16(%rbp)
	movl	%edx, -20(%rbp)
	movl	%ecx, -28(%rbp)
	movl	%r8d, -24(%rbp)
	movslq	-16(%rbp), %rdi
	movl	$8, %esi
	callq	calloc
	movq	-40(%rbp), %rcx
	movq	%rax, (%rcx)
	cmpq	$0, %rax
	jne	.LBB62_2
# %bb.1:                                # %if.then
	movabsq	$.L.str.23, %rdi
	callq	no_mem_exit
.LBB62_2:                               # %if.end
	movl	$0, -12(%rbp)
.LBB62_3:                               # %for.cond
                                        # =>This Inner Loop Header: Depth=1
	movl	-12(%rbp), %eax
	cmpl	-16(%rbp), %eax
	jge	.LBB62_6
# %bb.4:                                # %for.body
                                        #   in Loop: Header=BB62_3 Depth=1
	movq	-40(%rbp), %rax
	movq	(%rax), %rdi
	movslq	-12(%rbp), %rax
	shlq	$3, %rax
	addq	%rax, %rdi
	movl	-20(%rbp), %esi
	movl	-28(%rbp), %edx
	movl	-24(%rbp), %ecx
	callq	get_mem3Dshort
# %bb.5:                                # %for.inc
                                        #   in Loop: Header=BB62_3 Depth=1
	movl	-12(%rbp), %eax
	addl	$1, %eax
	movl	%eax, -12(%rbp)
	jmp	.LBB62_3
.LBB62_6:                               # %for.end
	movl	-16(%rbp), %eax
	imull	-20(%rbp), %eax
	imull	-28(%rbp), %eax
	imull	-24(%rbp), %eax
	movslq	%eax, %rbx
	shlq	$1, %rbx
	cmpl	$1010744126, -32(%rbp)  # imm = 0x3C3EBB3E
	jne	.LBB62_8
.LBB62_7:
	movl	%ebx, %eax
	addq	$40, %rsp
	popq	%rbx
	popq	%rbp
	.cfi_def_cfa %rsp, 8
	retq
.LBB62_8:                               # %func_exit
	.cfi_def_cfa %rbp, 16
	callq	detect_breach
	jmp	.LBB62_7
.Lfunc_end62:
	.size	get_mem4Dshort.36, .Lfunc_end62-get_mem4Dshort.36
	.cfi_endproc
                                        # -- End function
	.globl	get_mem2Dint.37         # -- Begin function get_mem2Dint.37
	.p2align	4, 0x90
	.type	get_mem2Dint.37,@function
get_mem2Dint.37:                        # @get_mem2Dint.37
	.cfi_startproc
# %bb.0:                                # %entry
	pushq	%rbp
	.cfi_def_cfa_offset 16
	.cfi_offset %rbp, -16
	movq	%rsp, %rbp
	.cfi_def_cfa_register %rbp
	pushq	%rbx
	subq	$40, %rsp
	.cfi_offset %rbx, -24
	movl	$357406763, -36(%rbp)   # imm = 0x154D982B
	movq	%rdi, -32(%rbp)
	movl	%esi, -16(%rbp)
	movl	%edx, -20(%rbp)
	movslq	-16(%rbp), %rdi
	movl	$8, %esi
	callq	calloc
	movq	-32(%rbp), %rcx
	movq	%rax, (%rcx)
	cmpq	$0, %rax
	jne	.LBB63_2
# %bb.1:                                # %if.then
	movabsq	$.L.str.7, %rdi
	callq	no_mem_exit
.LBB63_2:                               # %if.end
	movl	-16(%rbp), %eax
	imull	-20(%rbp), %eax
	movslq	%eax, %rdi
	movl	$4, %esi
	callq	calloc
	movq	-32(%rbp), %rcx
	movq	(%rcx), %rcx
	movq	%rax, (%rcx)
	cmpq	$0, %rax
	jne	.LBB63_4
# %bb.3:                                # %if.then6
	movabsq	$.L.str.7, %rdi
	callq	no_mem_exit
.LBB63_4:                               # %if.end7
	movl	$1, -12(%rbp)
.LBB63_5:                               # %for.cond
                                        # =>This Inner Loop Header: Depth=1
	movl	-12(%rbp), %eax
	cmpl	-16(%rbp), %eax
	jge	.LBB63_8
# %bb.6:                                # %for.body
                                        #   in Loop: Header=BB63_5 Depth=1
	movq	-32(%rbp), %rax
	movq	(%rax), %rax
	movl	-12(%rbp), %ecx
	subl	$1, %ecx
	movslq	%ecx, %rcx
	movq	(%rax,%rcx,8), %rax
	movslq	-20(%rbp), %rcx
	shlq	$2, %rcx
	addq	%rcx, %rax
	movq	-32(%rbp), %rcx
	movq	(%rcx), %rcx
	movslq	-12(%rbp), %rdx
	movq	%rax, (%rcx,%rdx,8)
# %bb.7:                                # %for.inc
                                        #   in Loop: Header=BB63_5 Depth=1
	movl	-12(%rbp), %eax
	addl	$1, %eax
	movl	%eax, -12(%rbp)
	jmp	.LBB63_5
.LBB63_8:                               # %for.end
	movl	-16(%rbp), %eax
	imull	-20(%rbp), %eax
	movslq	%eax, %rbx
	shlq	$2, %rbx
	cmpl	$357406763, -36(%rbp)   # imm = 0x154D982B
	jne	.LBB63_10
.LBB63_9:
	movl	%ebx, %eax
	addq	$40, %rsp
	popq	%rbx
	popq	%rbp
	.cfi_def_cfa %rsp, 8
	retq
.LBB63_10:                              # %func_exit
	.cfi_def_cfa %rbp, 16
	callq	detect_breach
	jmp	.LBB63_9
.Lfunc_end63:
	.size	get_mem2Dint.37, .Lfunc_end63-get_mem2Dint.37
	.cfi_endproc
                                        # -- End function
	.globl	get_mem2Dpel.38         # -- Begin function get_mem2Dpel.38
	.p2align	4, 0x90
	.type	get_mem2Dpel.38,@function
get_mem2Dpel.38:                        # @get_mem2Dpel.38
	.cfi_startproc
# %bb.0:                                # %entry
	pushq	%rbp
	.cfi_def_cfa_offset 16
	.cfi_offset %rbp, -16
	movq	%rsp, %rbp
	.cfi_def_cfa_register %rbp
	pushq	%rbx
	subq	$40, %rsp
	.cfi_offset %rbx, -24
	movl	$1359672332, -36(%rbp)  # imm = 0x510AF40C
	movq	%rdi, -32(%rbp)
	movl	%esi, -16(%rbp)
	movl	%edx, -20(%rbp)
	movslq	-16(%rbp), %rdi
	movl	$8, %esi
	callq	calloc
	movq	-32(%rbp), %rcx
	movq	%rax, (%rcx)
	cmpq	$0, %rax
	jne	.LBB64_2
# %bb.1:                                # %if.then
	movabsq	$.L.str.2, %rdi
	callq	no_mem_exit
.LBB64_2:                               # %if.end
	movl	-16(%rbp), %eax
	imull	-20(%rbp), %eax
	movslq	%eax, %rdi
	movl	$2, %esi
	callq	calloc
	movq	-32(%rbp), %rcx
	movq	(%rcx), %rcx
	movq	%rax, (%rcx)
	cmpq	$0, %rax
	jne	.LBB64_4
# %bb.3:                                # %if.then6
	movabsq	$.L.str.2, %rdi
	callq	no_mem_exit
.LBB64_4:                               # %if.end7
	movl	$1, -12(%rbp)
.LBB64_5:                               # %for.cond
                                        # =>This Inner Loop Header: Depth=1
	movl	-12(%rbp), %eax
	cmpl	-16(%rbp), %eax
	jge	.LBB64_8
# %bb.6:                                # %for.body
                                        #   in Loop: Header=BB64_5 Depth=1
	movq	-32(%rbp), %rax
	movq	(%rax), %rax
	movl	-12(%rbp), %ecx
	subl	$1, %ecx
	movslq	%ecx, %rcx
	movq	(%rax,%rcx,8), %rax
	movslq	-20(%rbp), %rcx
	shlq	$1, %rcx
	addq	%rcx, %rax
	movq	-32(%rbp), %rcx
	movq	(%rcx), %rcx
	movslq	-12(%rbp), %rdx
	movq	%rax, (%rcx,%rdx,8)
# %bb.7:                                # %for.inc
                                        #   in Loop: Header=BB64_5 Depth=1
	movl	-12(%rbp), %eax
	addl	$1, %eax
	movl	%eax, -12(%rbp)
	jmp	.LBB64_5
.LBB64_8:                               # %for.end
	movl	-16(%rbp), %eax
	imull	-20(%rbp), %eax
	movslq	%eax, %rbx
	shlq	$1, %rbx
	cmpl	$1359672332, -36(%rbp)  # imm = 0x510AF40C
	jne	.LBB64_10
.LBB64_9:
	movl	%ebx, %eax
	addq	$40, %rsp
	popq	%rbx
	popq	%rbp
	.cfi_def_cfa %rsp, 8
	retq
.LBB64_10:                              # %func_exit
	.cfi_def_cfa %rbp, 16
	callq	detect_breach
	jmp	.LBB64_9
.Lfunc_end64:
	.size	get_mem2Dpel.38, .Lfunc_end64-get_mem2Dpel.38
	.cfi_endproc
                                        # -- End function
	.globl	get_mem3Dint64.39       # -- Begin function get_mem3Dint64.39
	.p2align	4, 0x90
	.type	get_mem3Dint64.39,@function
get_mem3Dint64.39:                      # @get_mem3Dint64.39
	.cfi_startproc
# %bb.0:                                # %entry
	pushq	%rbp
	.cfi_def_cfa_offset 16
	.cfi_offset %rbp, -16
	movq	%rsp, %rbp
	.cfi_def_cfa_register %rbp
	pushq	%rbx
	subq	$40, %rsp
	.cfi_offset %rbx, -24
	movl	$518878589, -28(%rbp)   # imm = 0x1EED757D
	movq	%rdi, -40(%rbp)
	movl	%esi, -16(%rbp)
	movl	%edx, -24(%rbp)
	movl	%ecx, -20(%rbp)
	movslq	-16(%rbp), %rdi
	movl	$8, %esi
	callq	calloc
	movq	-40(%rbp), %rcx
	movq	%rax, (%rcx)
	cmpq	$0, %rax
	jne	.LBB65_2
# %bb.1:                                # %if.then
	movabsq	$.L.str.11, %rdi
	callq	no_mem_exit
.LBB65_2:                               # %if.end
	movl	$0, -12(%rbp)
.LBB65_3:                               # %for.cond
                                        # =>This Inner Loop Header: Depth=1
	movl	-12(%rbp), %eax
	cmpl	-16(%rbp), %eax
	jge	.LBB65_6
# %bb.4:                                # %for.body
                                        #   in Loop: Header=BB65_3 Depth=1
	movq	-40(%rbp), %rax
	movq	(%rax), %rdi
	movslq	-12(%rbp), %rax
	shlq	$3, %rax
	addq	%rax, %rdi
	movl	-24(%rbp), %esi
	movl	-20(%rbp), %edx
	callq	get_mem2Dint64
# %bb.5:                                # %for.inc
                                        #   in Loop: Header=BB65_3 Depth=1
	movl	-12(%rbp), %eax
	addl	$1, %eax
	movl	%eax, -12(%rbp)
	jmp	.LBB65_3
.LBB65_6:                               # %for.end
	movl	-16(%rbp), %eax
	imull	-24(%rbp), %eax
	imull	-20(%rbp), %eax
	movslq	%eax, %rbx
	shlq	$3, %rbx
	cmpl	$518878589, -28(%rbp)   # imm = 0x1EED757D
	jne	.LBB65_8
.LBB65_7:
	movl	%ebx, %eax
	addq	$40, %rsp
	popq	%rbx
	popq	%rbp
	.cfi_def_cfa %rsp, 8
	retq
.LBB65_8:                               # %func_exit
	.cfi_def_cfa %rbp, 16
	callq	detect_breach
	jmp	.LBB65_7
.Lfunc_end65:
	.size	get_mem3Dint64.39, .Lfunc_end65-get_mem3Dint64.39
	.cfi_endproc
                                        # -- End function
	.globl	get_mem3Dpel.40         # -- Begin function get_mem3Dpel.40
	.p2align	4, 0x90
	.type	get_mem3Dpel.40,@function
get_mem3Dpel.40:                        # @get_mem3Dpel.40
	.cfi_startproc
# %bb.0:                                # %entry
	pushq	%rbp
	.cfi_def_cfa_offset 16
	.cfi_offset %rbp, -16
	movq	%rsp, %rbp
	.cfi_def_cfa_register %rbp
	pushq	%rbx
	subq	$40, %rsp
	.cfi_offset %rbx, -24
	movl	$1213315354, -28(%rbp)  # imm = 0x4851B91A
	movq	%rdi, -40(%rbp)
	movl	%esi, -16(%rbp)
	movl	%edx, -20(%rbp)
	movl	%ecx, -24(%rbp)
	movslq	-16(%rbp), %rdi
	movl	$8, %esi
	callq	calloc
	movq	-40(%rbp), %rcx
	movq	%rax, (%rcx)
	cmpq	$0, %rax
	jne	.LBB66_2
# %bb.1:                                # %if.then
	movabsq	$.L.str.3, %rdi
	callq	no_mem_exit
.LBB66_2:                               # %if.end
	movl	$0, -12(%rbp)
.LBB66_3:                               # %for.cond
                                        # =>This Inner Loop Header: Depth=1
	movl	-12(%rbp), %eax
	cmpl	-16(%rbp), %eax
	jge	.LBB66_6
# %bb.4:                                # %for.body
                                        #   in Loop: Header=BB66_3 Depth=1
	movq	-40(%rbp), %rax
	movq	(%rax), %rdi
	movslq	-12(%rbp), %rax
	shlq	$3, %rax
	addq	%rax, %rdi
	movl	-20(%rbp), %esi
	movl	-24(%rbp), %edx
	callq	get_mem2Dpel
# %bb.5:                                # %for.inc
                                        #   in Loop: Header=BB66_3 Depth=1
	movl	-12(%rbp), %eax
	addl	$1, %eax
	movl	%eax, -12(%rbp)
	jmp	.LBB66_3
.LBB66_6:                               # %for.end
	movl	-16(%rbp), %eax
	imull	-20(%rbp), %eax
	imull	-24(%rbp), %eax
	movslq	%eax, %rbx
	shlq	$1, %rbx
	cmpl	$1213315354, -28(%rbp)  # imm = 0x4851B91A
	jne	.LBB66_8
.LBB66_7:
	movl	%ebx, %eax
	addq	$40, %rsp
	popq	%rbx
	popq	%rbp
	.cfi_def_cfa %rsp, 8
	retq
.LBB66_8:                               # %func_exit
	.cfi_def_cfa %rbp, 16
	callq	detect_breach
	jmp	.LBB66_7
.Lfunc_end66:
	.size	get_mem3Dpel.40, .Lfunc_end66-get_mem3Dpel.40
	.cfi_endproc
                                        # -- End function
	.globl	get_mem3D.41            # -- Begin function get_mem3D.41
	.p2align	4, 0x90
	.type	get_mem3D.41,@function
get_mem3D.41:                           # @get_mem3D.41
	.cfi_startproc
# %bb.0:                                # %entry
	pushq	%rbp
	.cfi_def_cfa_offset 16
	.cfi_offset %rbp, -16
	movq	%rsp, %rbp
	.cfi_def_cfa_register %rbp
	pushq	%rbx
	subq	$40, %rsp
	.cfi_offset %rbx, -24
	movl	$935672637, -28(%rbp)   # imm = 0x37C53B3D
	movq	%rdi, -40(%rbp)
	movl	%esi, -16(%rbp)
	movl	%edx, -24(%rbp)
	movl	%ecx, -20(%rbp)
	movslq	-16(%rbp), %rdi
	movl	$8, %esi
	callq	calloc
	movq	-40(%rbp), %rcx
	movq	%rax, (%rcx)
	cmpq	$0, %rax
	jne	.LBB67_2
# %bb.1:                                # %if.then
	movabsq	$.L.str.9, %rdi
	callq	no_mem_exit
.LBB67_2:                               # %if.end
	movl	$0, -12(%rbp)
.LBB67_3:                               # %for.cond
                                        # =>This Inner Loop Header: Depth=1
	movl	-12(%rbp), %eax
	cmpl	-16(%rbp), %eax
	jge	.LBB67_6
# %bb.4:                                # %for.body
                                        #   in Loop: Header=BB67_3 Depth=1
	movq	-40(%rbp), %rax
	movq	(%rax), %rdi
	movslq	-12(%rbp), %rax
	shlq	$3, %rax
	addq	%rax, %rdi
	movl	-24(%rbp), %esi
	movl	-20(%rbp), %edx
	callq	get_mem2D
# %bb.5:                                # %for.inc
                                        #   in Loop: Header=BB67_3 Depth=1
	movl	-12(%rbp), %eax
	addl	$1, %eax
	movl	%eax, -12(%rbp)
	jmp	.LBB67_3
.LBB67_6:                               # %for.end
	movl	-16(%rbp), %ebx
	imull	-24(%rbp), %ebx
	imull	-20(%rbp), %ebx
	cmpl	$935672637, -28(%rbp)   # imm = 0x37C53B3D
	jne	.LBB67_8
.LBB67_7:
	movl	%ebx, %eax
	addq	$40, %rsp
	popq	%rbx
	popq	%rbp
	.cfi_def_cfa %rsp, 8
	retq
.LBB67_8:                               # %func_exit
	.cfi_def_cfa %rbp, 16
	callq	detect_breach
	jmp	.LBB67_7
.Lfunc_end67:
	.size	get_mem3D.41, .Lfunc_end67-get_mem3D.41
	.cfi_endproc
                                        # -- End function
	.globl	get_mem3Dint.42         # -- Begin function get_mem3Dint.42
	.p2align	4, 0x90
	.type	get_mem3Dint.42,@function
get_mem3Dint.42:                        # @get_mem3Dint.42
	.cfi_startproc
# %bb.0:                                # %entry
	pushq	%rbp
	.cfi_def_cfa_offset 16
	.cfi_offset %rbp, -16
	movq	%rsp, %rbp
	.cfi_def_cfa_register %rbp
	pushq	%rbx
	subq	$40, %rsp
	.cfi_offset %rbx, -24
	movl	$366521528, -28(%rbp)   # imm = 0x15D8ACB8
	movq	%rdi, -40(%rbp)
	movl	%esi, -16(%rbp)
	movl	%edx, -24(%rbp)
	movl	%ecx, -20(%rbp)
	movslq	-16(%rbp), %rdi
	movl	$8, %esi
	callq	calloc
	movq	-40(%rbp), %rcx
	movq	%rax, (%rcx)
	cmpq	$0, %rax
	jne	.LBB68_2
# %bb.1:                                # %if.then
	movabsq	$.L.str.10, %rdi
	callq	no_mem_exit
.LBB68_2:                               # %if.end
	movl	$0, -12(%rbp)
.LBB68_3:                               # %for.cond
                                        # =>This Inner Loop Header: Depth=1
	movl	-12(%rbp), %eax
	cmpl	-16(%rbp), %eax
	jge	.LBB68_6
# %bb.4:                                # %for.body
                                        #   in Loop: Header=BB68_3 Depth=1
	movq	-40(%rbp), %rax
	movq	(%rax), %rdi
	movslq	-12(%rbp), %rax
	shlq	$3, %rax
	addq	%rax, %rdi
	movl	-24(%rbp), %esi
	movl	-20(%rbp), %edx
	callq	get_mem2Dint
# %bb.5:                                # %for.inc
                                        #   in Loop: Header=BB68_3 Depth=1
	movl	-12(%rbp), %eax
	addl	$1, %eax
	movl	%eax, -12(%rbp)
	jmp	.LBB68_3
.LBB68_6:                               # %for.end
	movl	-16(%rbp), %eax
	imull	-24(%rbp), %eax
	imull	-20(%rbp), %eax
	movslq	%eax, %rbx
	shlq	$2, %rbx
	cmpl	$366521528, -28(%rbp)   # imm = 0x15D8ACB8
	jne	.LBB68_8
.LBB68_7:
	movl	%ebx, %eax
	addq	$40, %rsp
	popq	%rbx
	popq	%rbp
	.cfi_def_cfa %rsp, 8
	retq
.LBB68_8:                               # %func_exit
	.cfi_def_cfa %rbp, 16
	callq	detect_breach
	jmp	.LBB68_7
.Lfunc_end68:
	.size	get_mem3Dint.42, .Lfunc_end68-get_mem3Dint.42
	.cfi_endproc
                                        # -- End function
	.globl	get_mem2Dpel.43         # -- Begin function get_mem2Dpel.43
	.p2align	4, 0x90
	.type	get_mem2Dpel.43,@function
get_mem2Dpel.43:                        # @get_mem2Dpel.43
	.cfi_startproc
# %bb.0:                                # %entry
	pushq	%rbp
	.cfi_def_cfa_offset 16
	.cfi_offset %rbp, -16
	movq	%rsp, %rbp
	.cfi_def_cfa_register %rbp
	pushq	%rbx
	subq	$40, %rsp
	.cfi_offset %rbx, -24
	movl	$673550049, -36(%rbp)   # imm = 0x28258EE1
	movq	%rdi, -32(%rbp)
	movl	%esi, -16(%rbp)
	movl	%edx, -20(%rbp)
	movslq	-16(%rbp), %rdi
	movl	$8, %esi
	callq	calloc
	movq	-32(%rbp), %rcx
	movq	%rax, (%rcx)
	cmpq	$0, %rax
	jne	.LBB69_2
# %bb.1:                                # %if.then
	movabsq	$.L.str.2, %rdi
	callq	no_mem_exit
.LBB69_2:                               # %if.end
	movl	-16(%rbp), %eax
	imull	-20(%rbp), %eax
	movslq	%eax, %rdi
	movl	$2, %esi
	callq	calloc
	movq	-32(%rbp), %rcx
	movq	(%rcx), %rcx
	movq	%rax, (%rcx)
	cmpq	$0, %rax
	jne	.LBB69_4
# %bb.3:                                # %if.then6
	movabsq	$.L.str.2, %rdi
	callq	no_mem_exit
.LBB69_4:                               # %if.end7
	movl	$1, -12(%rbp)
.LBB69_5:                               # %for.cond
                                        # =>This Inner Loop Header: Depth=1
	movl	-12(%rbp), %eax
	cmpl	-16(%rbp), %eax
	jge	.LBB69_8
# %bb.6:                                # %for.body
                                        #   in Loop: Header=BB69_5 Depth=1
	movq	-32(%rbp), %rax
	movq	(%rax), %rax
	movl	-12(%rbp), %ecx
	subl	$1, %ecx
	movslq	%ecx, %rcx
	movq	(%rax,%rcx,8), %rax
	movslq	-20(%rbp), %rcx
	shlq	$1, %rcx
	addq	%rcx, %rax
	movq	-32(%rbp), %rcx
	movq	(%rcx), %rcx
	movslq	-12(%rbp), %rdx
	movq	%rax, (%rcx,%rdx,8)
# %bb.7:                                # %for.inc
                                        #   in Loop: Header=BB69_5 Depth=1
	movl	-12(%rbp), %eax
	addl	$1, %eax
	movl	%eax, -12(%rbp)
	jmp	.LBB69_5
.LBB69_8:                               # %for.end
	movl	-16(%rbp), %eax
	imull	-20(%rbp), %eax
	movslq	%eax, %rbx
	shlq	$1, %rbx
	cmpl	$673550049, -36(%rbp)   # imm = 0x28258EE1
	jne	.LBB69_10
.LBB69_9:
	movl	%ebx, %eax
	addq	$40, %rsp
	popq	%rbx
	popq	%rbp
	.cfi_def_cfa %rsp, 8
	retq
.LBB69_10:                              # %func_exit
	.cfi_def_cfa %rbp, 16
	callq	detect_breach
	jmp	.LBB69_9
.Lfunc_end69:
	.size	get_mem2Dpel.43, .Lfunc_end69-get_mem2Dpel.43
	.cfi_endproc
                                        # -- End function
	.globl	init_top_bot_planes.44  # -- Begin function init_top_bot_planes.44
	.p2align	4, 0x90
	.type	init_top_bot_planes.44,@function
init_top_bot_planes.44:                 # @init_top_bot_planes.44
	.cfi_startproc
# %bb.0:                                # %entry
	pushq	%rbp
	.cfi_def_cfa_offset 16
	.cfi_offset %rbp, -16
	movq	%rsp, %rbp
	.cfi_def_cfa_register %rbp
	pushq	%rbx
	subq	$56, %rsp
	.cfi_offset %rbx, -24
	movl	$922363157, -20(%rbp)   # imm = 0x36FA2515
	movq	%rdi, -32(%rbp)
	movl	%esi, -16(%rbp)
	movl	%edx, -52(%rbp)
	movq	%rcx, -40(%rbp)
	movq	%r8, -48(%rbp)
	movl	-16(%rbp), %eax
	cltd
	movl	$2, %ecx
	idivl	%ecx
	movslq	%eax, %rdi
	movl	$8, %esi
	callq	calloc
	movq	-40(%rbp), %rcx
	movq	%rax, (%rcx)
	cmpq	$0, %rax
	jne	.LBB70_2
# %bb.1:                                # %if.then
	movabsq	$.L.str, %rdi
	callq	no_mem_exit
.LBB70_2:                               # %if.end
	movl	-16(%rbp), %eax
	cltd
	movl	$2, %ecx
	idivl	%ecx
	movslq	%eax, %rdi
	movl	$8, %esi
	callq	calloc
	movq	-48(%rbp), %rcx
	movq	%rax, (%rcx)
	cmpq	$0, %rax
	jne	.LBB70_4
# %bb.3:                                # %if.then7
	movabsq	$.L.str.1, %rdi
	callq	no_mem_exit
.LBB70_4:                               # %if.end8
	movl	$0, -12(%rbp)
.LBB70_5:                               # %for.cond
                                        # =>This Inner Loop Header: Depth=1
	movl	-12(%rbp), %ecx
	movl	-16(%rbp), %eax
	cltd
	movl	$2, %esi
	idivl	%esi
	cmpl	%eax, %ecx
	jge	.LBB70_8
# %bb.6:                                # %for.body
                                        #   in Loop: Header=BB70_5 Depth=1
	movq	-32(%rbp), %rax
	movl	-12(%rbp), %ecx
	shll	$1, %ecx
	movslq	%ecx, %rcx
	movq	(%rax,%rcx,8), %rax
	movq	-40(%rbp), %rcx
	movq	(%rcx), %rcx
	movslq	-12(%rbp), %rdx
	movq	%rax, (%rcx,%rdx,8)
	movq	-32(%rbp), %rax
	movl	-12(%rbp), %ecx
	shll	$1, %ecx
	addl	$1, %ecx
	movslq	%ecx, %rcx
	movq	(%rax,%rcx,8), %rax
	movq	-48(%rbp), %rcx
	movq	(%rcx), %rcx
	movslq	-12(%rbp), %rdx
	movq	%rax, (%rcx,%rdx,8)
# %bb.7:                                # %for.inc
                                        #   in Loop: Header=BB70_5 Depth=1
	movl	-12(%rbp), %eax
	addl	$1, %eax
	movl	%eax, -12(%rbp)
	jmp	.LBB70_5
.LBB70_8:                               # %for.end
	movslq	-16(%rbp), %rbx
	shlq	$3, %rbx
	cmpl	$922363157, -20(%rbp)   # imm = 0x36FA2515
	jne	.LBB70_10
.LBB70_9:
	movl	%ebx, %eax
	addq	$56, %rsp
	popq	%rbx
	popq	%rbp
	.cfi_def_cfa %rsp, 8
	retq
.LBB70_10:                              # %func_exit
	.cfi_def_cfa %rbp, 16
	callq	detect_breach
	jmp	.LBB70_9
.Lfunc_end70:
	.size	init_top_bot_planes.44, .Lfunc_end70-init_top_bot_planes.44
	.cfi_endproc
                                        # -- End function
	.globl	get_mem3Dint64.45       # -- Begin function get_mem3Dint64.45
	.p2align	4, 0x90
	.type	get_mem3Dint64.45,@function
get_mem3Dint64.45:                      # @get_mem3Dint64.45
	.cfi_startproc
# %bb.0:                                # %entry
	pushq	%rbp
	.cfi_def_cfa_offset 16
	.cfi_offset %rbp, -16
	movq	%rsp, %rbp
	.cfi_def_cfa_register %rbp
	pushq	%rbx
	subq	$40, %rsp
	.cfi_offset %rbx, -24
	movl	$1598883679, -28(%rbp)  # imm = 0x5F4D075F
	movq	%rdi, -40(%rbp)
	movl	%esi, -16(%rbp)
	movl	%edx, -20(%rbp)
	movl	%ecx, -24(%rbp)
	movslq	-16(%rbp), %rdi
	movl	$8, %esi
	callq	calloc
	movq	-40(%rbp), %rcx
	movq	%rax, (%rcx)
	cmpq	$0, %rax
	jne	.LBB71_2
# %bb.1:                                # %if.then
	movabsq	$.L.str.11, %rdi
	callq	no_mem_exit
.LBB71_2:                               # %if.end
	movl	$0, -12(%rbp)
.LBB71_3:                               # %for.cond
                                        # =>This Inner Loop Header: Depth=1
	movl	-12(%rbp), %eax
	cmpl	-16(%rbp), %eax
	jge	.LBB71_6
# %bb.4:                                # %for.body
                                        #   in Loop: Header=BB71_3 Depth=1
	movq	-40(%rbp), %rax
	movq	(%rax), %rdi
	movslq	-12(%rbp), %rax
	shlq	$3, %rax
	addq	%rax, %rdi
	movl	-20(%rbp), %esi
	movl	-24(%rbp), %edx
	callq	get_mem2Dint64
# %bb.5:                                # %for.inc
                                        #   in Loop: Header=BB71_3 Depth=1
	movl	-12(%rbp), %eax
	addl	$1, %eax
	movl	%eax, -12(%rbp)
	jmp	.LBB71_3
.LBB71_6:                               # %for.end
	movl	-16(%rbp), %eax
	imull	-20(%rbp), %eax
	imull	-24(%rbp), %eax
	movslq	%eax, %rbx
	shlq	$3, %rbx
	cmpl	$1598883679, -28(%rbp)  # imm = 0x5F4D075F
	jne	.LBB71_8
.LBB71_7:
	movl	%ebx, %eax
	addq	$40, %rsp
	popq	%rbx
	popq	%rbp
	.cfi_def_cfa %rsp, 8
	retq
.LBB71_8:                               # %func_exit
	.cfi_def_cfa %rbp, 16
	callq	detect_breach
	jmp	.LBB71_7
.Lfunc_end71:
	.size	get_mem3Dint64.45, .Lfunc_end71-get_mem3Dint64.45
	.cfi_endproc
                                        # -- End function
	.globl	get_mem3Dint.46         # -- Begin function get_mem3Dint.46
	.p2align	4, 0x90
	.type	get_mem3Dint.46,@function
get_mem3Dint.46:                        # @get_mem3Dint.46
	.cfi_startproc
# %bb.0:                                # %entry
	pushq	%rbp
	.cfi_def_cfa_offset 16
	.cfi_offset %rbp, -16
	movq	%rsp, %rbp
	.cfi_def_cfa_register %rbp
	pushq	%rbx
	subq	$40, %rsp
	.cfi_offset %rbx, -24
	movl	$158823109, -28(%rbp)   # imm = 0x97772C5
	movq	%rdi, -40(%rbp)
	movl	%esi, -16(%rbp)
	movl	%edx, -24(%rbp)
	movl	%ecx, -20(%rbp)
	movslq	-16(%rbp), %rdi
	movl	$8, %esi
	callq	calloc
	movq	-40(%rbp), %rcx
	movq	%rax, (%rcx)
	cmpq	$0, %rax
	jne	.LBB72_2
# %bb.1:                                # %if.then
	movabsq	$.L.str.10, %rdi
	callq	no_mem_exit
.LBB72_2:                               # %if.end
	movl	$0, -12(%rbp)
.LBB72_3:                               # %for.cond
                                        # =>This Inner Loop Header: Depth=1
	movl	-12(%rbp), %eax
	cmpl	-16(%rbp), %eax
	jge	.LBB72_6
# %bb.4:                                # %for.body
                                        #   in Loop: Header=BB72_3 Depth=1
	movq	-40(%rbp), %rax
	movq	(%rax), %rdi
	movslq	-12(%rbp), %rax
	shlq	$3, %rax
	addq	%rax, %rdi
	movl	-24(%rbp), %esi
	movl	-20(%rbp), %edx
	callq	get_mem2Dint
# %bb.5:                                # %for.inc
                                        #   in Loop: Header=BB72_3 Depth=1
	movl	-12(%rbp), %eax
	addl	$1, %eax
	movl	%eax, -12(%rbp)
	jmp	.LBB72_3
.LBB72_6:                               # %for.end
	movl	-16(%rbp), %eax
	imull	-24(%rbp), %eax
	imull	-20(%rbp), %eax
	movslq	%eax, %rbx
	shlq	$2, %rbx
	cmpl	$158823109, -28(%rbp)   # imm = 0x97772C5
	jne	.LBB72_8
.LBB72_7:
	movl	%ebx, %eax
	addq	$40, %rsp
	popq	%rbx
	popq	%rbp
	.cfi_def_cfa %rsp, 8
	retq
.LBB72_8:                               # %func_exit
	.cfi_def_cfa %rbp, 16
	callq	detect_breach
	jmp	.LBB72_7
.Lfunc_end72:
	.size	get_mem3Dint.46, .Lfunc_end72-get_mem3Dint.46
	.cfi_endproc
                                        # -- End function
	.globl	get_mem4Dint.47         # -- Begin function get_mem4Dint.47
	.p2align	4, 0x90
	.type	get_mem4Dint.47,@function
get_mem4Dint.47:                        # @get_mem4Dint.47
	.cfi_startproc
# %bb.0:                                # %entry
	pushq	%rbp
	.cfi_def_cfa_offset 16
	.cfi_offset %rbp, -16
	movq	%rsp, %rbp
	.cfi_def_cfa_register %rbp
	pushq	%rbx
	subq	$40, %rsp
	.cfi_offset %rbx, -24
	movl	$564871373, -32(%rbp)   # imm = 0x21AB40CD
	movq	%rdi, -40(%rbp)
	movl	%esi, -16(%rbp)
	movl	%edx, -20(%rbp)
	movl	%ecx, -24(%rbp)
	movl	%r8d, -28(%rbp)
	movslq	-16(%rbp), %rdi
	movl	$8, %esi
	callq	calloc
	movq	-40(%rbp), %rcx
	movq	%rax, (%rcx)
	cmpq	$0, %rax
	jne	.LBB73_2
# %bb.1:                                # %if.then
	movabsq	$.L.str.12, %rdi
	callq	no_mem_exit
.LBB73_2:                               # %if.end
	movl	$0, -12(%rbp)
.LBB73_3:                               # %for.cond
                                        # =>This Inner Loop Header: Depth=1
	movl	-12(%rbp), %eax
	cmpl	-16(%rbp), %eax
	jge	.LBB73_6
# %bb.4:                                # %for.body
                                        #   in Loop: Header=BB73_3 Depth=1
	movq	-40(%rbp), %rax
	movq	(%rax), %rdi
	movslq	-12(%rbp), %rax
	shlq	$3, %rax
	addq	%rax, %rdi
	movl	-20(%rbp), %esi
	movl	-24(%rbp), %edx
	movl	-28(%rbp), %ecx
	callq	get_mem3Dint
# %bb.5:                                # %for.inc
                                        #   in Loop: Header=BB73_3 Depth=1
	movl	-12(%rbp), %eax
	addl	$1, %eax
	movl	%eax, -12(%rbp)
	jmp	.LBB73_3
.LBB73_6:                               # %for.end
	movl	-16(%rbp), %eax
	imull	-20(%rbp), %eax
	imull	-24(%rbp), %eax
	imull	-28(%rbp), %eax
	movslq	%eax, %rbx
	shlq	$2, %rbx
	cmpl	$564871373, -32(%rbp)   # imm = 0x21AB40CD
	jne	.LBB73_8
.LBB73_7:
	movl	%ebx, %eax
	addq	$40, %rsp
	popq	%rbx
	popq	%rbp
	.cfi_def_cfa %rsp, 8
	retq
.LBB73_8:                               # %func_exit
	.cfi_def_cfa %rbp, 16
	callq	detect_breach
	jmp	.LBB73_7
.Lfunc_end73:
	.size	get_mem4Dint.47, .Lfunc_end73-get_mem4Dint.47
	.cfi_endproc
                                        # -- End function
	.globl	get_mem2D.48            # -- Begin function get_mem2D.48
	.p2align	4, 0x90
	.type	get_mem2D.48,@function
get_mem2D.48:                           # @get_mem2D.48
	.cfi_startproc
# %bb.0:                                # %entry
	pushq	%rbp
	.cfi_def_cfa_offset 16
	.cfi_offset %rbp, -16
	movq	%rsp, %rbp
	.cfi_def_cfa_register %rbp
	pushq	%rbx
	subq	$40, %rsp
	.cfi_offset %rbx, -24
	movl	$789432040, -36(%rbp)   # imm = 0x2F0DC6E8
	movq	%rdi, -32(%rbp)
	movl	%esi, -16(%rbp)
	movl	%edx, -20(%rbp)
	movslq	-16(%rbp), %rdi
	movl	$8, %esi
	callq	calloc
	movq	-32(%rbp), %rcx
	movq	%rax, (%rcx)
	cmpq	$0, %rax
	jne	.LBB74_2
# %bb.1:                                # %if.then
	movabsq	$.L.str.6, %rdi
	callq	no_mem_exit
.LBB74_2:                               # %if.end
	movl	-20(%rbp), %eax
	imull	-16(%rbp), %eax
	movslq	%eax, %rdi
	movl	$1, %esi
	callq	calloc
	movq	-32(%rbp), %rcx
	movq	(%rcx), %rcx
	movq	%rax, (%rcx)
	cmpq	$0, %rax
	jne	.LBB74_4
# %bb.3:                                # %if.then6
	movabsq	$.L.str.6, %rdi
	callq	no_mem_exit
.LBB74_4:                               # %if.end7
	movl	$1, -12(%rbp)
.LBB74_5:                               # %for.cond
                                        # =>This Inner Loop Header: Depth=1
	movl	-12(%rbp), %eax
	cmpl	-16(%rbp), %eax
	jge	.LBB74_8
# %bb.6:                                # %for.body
                                        #   in Loop: Header=BB74_5 Depth=1
	movq	-32(%rbp), %rax
	movq	(%rax), %rax
	movl	-12(%rbp), %ecx
	subl	$1, %ecx
	movslq	%ecx, %rcx
	movq	(%rax,%rcx,8), %rax
	movslq	-20(%rbp), %rcx
	addq	%rcx, %rax
	movq	-32(%rbp), %rcx
	movq	(%rcx), %rcx
	movslq	-12(%rbp), %rdx
	movq	%rax, (%rcx,%rdx,8)
# %bb.7:                                # %for.inc
                                        #   in Loop: Header=BB74_5 Depth=1
	movl	-12(%rbp), %eax
	addl	$1, %eax
	movl	%eax, -12(%rbp)
	jmp	.LBB74_5
.LBB74_8:                               # %for.end
	movl	-16(%rbp), %ebx
	imull	-20(%rbp), %ebx
	cmpl	$789432040, -36(%rbp)   # imm = 0x2F0DC6E8
	jne	.LBB74_10
.LBB74_9:
	movl	%ebx, %eax
	addq	$40, %rsp
	popq	%rbx
	popq	%rbp
	.cfi_def_cfa %rsp, 8
	retq
.LBB74_10:                              # %func_exit
	.cfi_def_cfa %rbp, 16
	callq	detect_breach
	jmp	.LBB74_9
.Lfunc_end74:
	.size	get_mem2D.48, .Lfunc_end74-get_mem2D.48
	.cfi_endproc
                                        # -- End function
	.globl	get_mem3Dpel.49         # -- Begin function get_mem3Dpel.49
	.p2align	4, 0x90
	.type	get_mem3Dpel.49,@function
get_mem3Dpel.49:                        # @get_mem3Dpel.49
	.cfi_startproc
# %bb.0:                                # %entry
	pushq	%rbp
	.cfi_def_cfa_offset 16
	.cfi_offset %rbp, -16
	movq	%rsp, %rbp
	.cfi_def_cfa_register %rbp
	pushq	%rbx
	subq	$40, %rsp
	.cfi_offset %rbx, -24
	movl	$203360411, -28(%rbp)   # imm = 0xC1F089B
	movq	%rdi, -40(%rbp)
	movl	%esi, -16(%rbp)
	movl	%edx, -24(%rbp)
	movl	%ecx, -20(%rbp)
	movslq	-16(%rbp), %rdi
	movl	$8, %esi
	callq	calloc
	movq	-40(%rbp), %rcx
	movq	%rax, (%rcx)
	cmpq	$0, %rax
	jne	.LBB75_2
# %bb.1:                                # %if.then
	movabsq	$.L.str.3, %rdi
	callq	no_mem_exit
.LBB75_2:                               # %if.end
	movl	$0, -12(%rbp)
.LBB75_3:                               # %for.cond
                                        # =>This Inner Loop Header: Depth=1
	movl	-12(%rbp), %eax
	cmpl	-16(%rbp), %eax
	jge	.LBB75_6
# %bb.4:                                # %for.body
                                        #   in Loop: Header=BB75_3 Depth=1
	movq	-40(%rbp), %rax
	movq	(%rax), %rdi
	movslq	-12(%rbp), %rax
	shlq	$3, %rax
	addq	%rax, %rdi
	movl	-24(%rbp), %esi
	movl	-20(%rbp), %edx
	callq	get_mem2Dpel
# %bb.5:                                # %for.inc
                                        #   in Loop: Header=BB75_3 Depth=1
	movl	-12(%rbp), %eax
	addl	$1, %eax
	movl	%eax, -12(%rbp)
	jmp	.LBB75_3
.LBB75_6:                               # %for.end
	movl	-16(%rbp), %eax
	imull	-24(%rbp), %eax
	imull	-20(%rbp), %eax
	movslq	%eax, %rbx
	shlq	$1, %rbx
	cmpl	$203360411, -28(%rbp)   # imm = 0xC1F089B
	jne	.LBB75_8
.LBB75_7:
	movl	%ebx, %eax
	addq	$40, %rsp
	popq	%rbx
	popq	%rbp
	.cfi_def_cfa %rsp, 8
	retq
.LBB75_8:                               # %func_exit
	.cfi_def_cfa %rbp, 16
	callq	detect_breach
	jmp	.LBB75_7
.Lfunc_end75:
	.size	get_mem3Dpel.49, .Lfunc_end75-get_mem3Dpel.49
	.cfi_endproc
                                        # -- End function
	.globl	get_mem2Dpel.50         # -- Begin function get_mem2Dpel.50
	.p2align	4, 0x90
	.type	get_mem2Dpel.50,@function
get_mem2Dpel.50:                        # @get_mem2Dpel.50
	.cfi_startproc
# %bb.0:                                # %entry
	pushq	%rbp
	.cfi_def_cfa_offset 16
	.cfi_offset %rbp, -16
	movq	%rsp, %rbp
	.cfi_def_cfa_register %rbp
	pushq	%rbx
	subq	$40, %rsp
	.cfi_offset %rbx, -24
	movl	$1679337556, -36(%rbp)  # imm = 0x6418A854
	movq	%rdi, -32(%rbp)
	movl	%esi, -16(%rbp)
	movl	%edx, -20(%rbp)
	movslq	-16(%rbp), %rdi
	movl	$8, %esi
	callq	calloc
	movq	-32(%rbp), %rcx
	movq	%rax, (%rcx)
	cmpq	$0, %rax
	jne	.LBB76_2
# %bb.1:                                # %if.then
	movabsq	$.L.str.2, %rdi
	callq	no_mem_exit
.LBB76_2:                               # %if.end
	movl	-16(%rbp), %eax
	imull	-20(%rbp), %eax
	movslq	%eax, %rdi
	movl	$2, %esi
	callq	calloc
	movq	-32(%rbp), %rcx
	movq	(%rcx), %rcx
	movq	%rax, (%rcx)
	cmpq	$0, %rax
	jne	.LBB76_4
# %bb.3:                                # %if.then6
	movabsq	$.L.str.2, %rdi
	callq	no_mem_exit
.LBB76_4:                               # %if.end7
	movl	$1, -12(%rbp)
.LBB76_5:                               # %for.cond
                                        # =>This Inner Loop Header: Depth=1
	movl	-12(%rbp), %eax
	cmpl	-16(%rbp), %eax
	jge	.LBB76_8
# %bb.6:                                # %for.body
                                        #   in Loop: Header=BB76_5 Depth=1
	movq	-32(%rbp), %rax
	movq	(%rax), %rax
	movl	-12(%rbp), %ecx
	subl	$1, %ecx
	movslq	%ecx, %rcx
	movq	(%rax,%rcx,8), %rax
	movslq	-20(%rbp), %rcx
	shlq	$1, %rcx
	addq	%rcx, %rax
	movq	-32(%rbp), %rcx
	movq	(%rcx), %rcx
	movslq	-12(%rbp), %rdx
	movq	%rax, (%rcx,%rdx,8)
# %bb.7:                                # %for.inc
                                        #   in Loop: Header=BB76_5 Depth=1
	movl	-12(%rbp), %eax
	addl	$1, %eax
	movl	%eax, -12(%rbp)
	jmp	.LBB76_5
.LBB76_8:                               # %for.end
	movl	-16(%rbp), %eax
	imull	-20(%rbp), %eax
	movslq	%eax, %rbx
	shlq	$1, %rbx
	cmpl	$1679337556, -36(%rbp)  # imm = 0x6418A854
	jne	.LBB76_10
.LBB76_9:
	movl	%ebx, %eax
	addq	$40, %rsp
	popq	%rbx
	popq	%rbp
	.cfi_def_cfa %rsp, 8
	retq
.LBB76_10:                              # %func_exit
	.cfi_def_cfa %rbp, 16
	callq	detect_breach
	jmp	.LBB76_9
.Lfunc_end76:
	.size	get_mem2Dpel.50, .Lfunc_end76-get_mem2Dpel.50
	.cfi_endproc
                                        # -- End function
	.globl	get_mem2D.51            # -- Begin function get_mem2D.51
	.p2align	4, 0x90
	.type	get_mem2D.51,@function
get_mem2D.51:                           # @get_mem2D.51
	.cfi_startproc
# %bb.0:                                # %entry
	pushq	%rbp
	.cfi_def_cfa_offset 16
	.cfi_offset %rbp, -16
	movq	%rsp, %rbp
	.cfi_def_cfa_register %rbp
	pushq	%rbx
	subq	$40, %rsp
	.cfi_offset %rbx, -24
	movl	$1428422841, -36(%rbp)  # imm = 0x552400B9
	movq	%rdi, -32(%rbp)
	movl	%esi, -16(%rbp)
	movl	%edx, -20(%rbp)
	movslq	-16(%rbp), %rdi
	movl	$8, %esi
	callq	calloc
	movq	-32(%rbp), %rcx
	movq	%rax, (%rcx)
	cmpq	$0, %rax
	jne	.LBB77_2
# %bb.1:                                # %if.then
	movabsq	$.L.str.6, %rdi
	callq	no_mem_exit
.LBB77_2:                               # %if.end
	movl	-20(%rbp), %eax
	imull	-16(%rbp), %eax
	movslq	%eax, %rdi
	movl	$1, %esi
	callq	calloc
	movq	-32(%rbp), %rcx
	movq	(%rcx), %rcx
	movq	%rax, (%rcx)
	cmpq	$0, %rax
	jne	.LBB77_4
# %bb.3:                                # %if.then6
	movabsq	$.L.str.6, %rdi
	callq	no_mem_exit
.LBB77_4:                               # %if.end7
	movl	$1, -12(%rbp)
.LBB77_5:                               # %for.cond
                                        # =>This Inner Loop Header: Depth=1
	movl	-12(%rbp), %eax
	cmpl	-16(%rbp), %eax
	jge	.LBB77_8
# %bb.6:                                # %for.body
                                        #   in Loop: Header=BB77_5 Depth=1
	movq	-32(%rbp), %rax
	movq	(%rax), %rax
	movl	-12(%rbp), %ecx
	subl	$1, %ecx
	movslq	%ecx, %rcx
	movq	(%rax,%rcx,8), %rax
	movslq	-20(%rbp), %rcx
	addq	%rcx, %rax
	movq	-32(%rbp), %rcx
	movq	(%rcx), %rcx
	movslq	-12(%rbp), %rdx
	movq	%rax, (%rcx,%rdx,8)
# %bb.7:                                # %for.inc
                                        #   in Loop: Header=BB77_5 Depth=1
	movl	-12(%rbp), %eax
	addl	$1, %eax
	movl	%eax, -12(%rbp)
	jmp	.LBB77_5
.LBB77_8:                               # %for.end
	movl	-16(%rbp), %ebx
	imull	-20(%rbp), %ebx
	cmpl	$1428422841, -36(%rbp)  # imm = 0x552400B9
	jne	.LBB77_10
.LBB77_9:
	movl	%ebx, %eax
	addq	$40, %rsp
	popq	%rbx
	popq	%rbp
	.cfi_def_cfa %rsp, 8
	retq
.LBB77_10:                              # %func_exit
	.cfi_def_cfa %rbp, 16
	callq	detect_breach
	jmp	.LBB77_9
.Lfunc_end77:
	.size	get_mem2D.51, .Lfunc_end77-get_mem2D.51
	.cfi_endproc
                                        # -- End function
	.globl	get_mem2D.52            # -- Begin function get_mem2D.52
	.p2align	4, 0x90
	.type	get_mem2D.52,@function
get_mem2D.52:                           # @get_mem2D.52
	.cfi_startproc
# %bb.0:                                # %entry
	pushq	%rbp
	.cfi_def_cfa_offset 16
	.cfi_offset %rbp, -16
	movq	%rsp, %rbp
	.cfi_def_cfa_register %rbp
	pushq	%rbx
	subq	$40, %rsp
	.cfi_offset %rbx, -24
	movl	$377242724, -36(%rbp)   # imm = 0x167C4464
	movq	%rdi, -32(%rbp)
	movl	%esi, -16(%rbp)
	movl	%edx, -20(%rbp)
	movslq	-16(%rbp), %rdi
	movl	$8, %esi
	callq	calloc
	movq	-32(%rbp), %rcx
	movq	%rax, (%rcx)
	cmpq	$0, %rax
	jne	.LBB78_2
# %bb.1:                                # %if.then
	movabsq	$.L.str.6, %rdi
	callq	no_mem_exit
.LBB78_2:                               # %if.end
	movl	-20(%rbp), %eax
	imull	-16(%rbp), %eax
	movslq	%eax, %rdi
	movl	$1, %esi
	callq	calloc
	movq	-32(%rbp), %rcx
	movq	(%rcx), %rcx
	movq	%rax, (%rcx)
	cmpq	$0, %rax
	jne	.LBB78_4
# %bb.3:                                # %if.then6
	movabsq	$.L.str.6, %rdi
	callq	no_mem_exit
.LBB78_4:                               # %if.end7
	movl	$1, -12(%rbp)
.LBB78_5:                               # %for.cond
                                        # =>This Inner Loop Header: Depth=1
	movl	-12(%rbp), %eax
	cmpl	-16(%rbp), %eax
	jge	.LBB78_8
# %bb.6:                                # %for.body
                                        #   in Loop: Header=BB78_5 Depth=1
	movq	-32(%rbp), %rax
	movq	(%rax), %rax
	movl	-12(%rbp), %ecx
	subl	$1, %ecx
	movslq	%ecx, %rcx
	movq	(%rax,%rcx,8), %rax
	movslq	-20(%rbp), %rcx
	addq	%rcx, %rax
	movq	-32(%rbp), %rcx
	movq	(%rcx), %rcx
	movslq	-12(%rbp), %rdx
	movq	%rax, (%rcx,%rdx,8)
# %bb.7:                                # %for.inc
                                        #   in Loop: Header=BB78_5 Depth=1
	movl	-12(%rbp), %eax
	addl	$1, %eax
	movl	%eax, -12(%rbp)
	jmp	.LBB78_5
.LBB78_8:                               # %for.end
	movl	-16(%rbp), %ebx
	imull	-20(%rbp), %ebx
	cmpl	$377242724, -36(%rbp)   # imm = 0x167C4464
	jne	.LBB78_10
.LBB78_9:
	movl	%ebx, %eax
	addq	$40, %rsp
	popq	%rbx
	popq	%rbp
	.cfi_def_cfa %rsp, 8
	retq
.LBB78_10:                              # %func_exit
	.cfi_def_cfa %rbp, 16
	callq	detect_breach
	jmp	.LBB78_9
.Lfunc_end78:
	.size	get_mem2D.52, .Lfunc_end78-get_mem2D.52
	.cfi_endproc
                                        # -- End function
	.globl	get_mem3Dint.53         # -- Begin function get_mem3Dint.53
	.p2align	4, 0x90
	.type	get_mem3Dint.53,@function
get_mem3Dint.53:                        # @get_mem3Dint.53
	.cfi_startproc
# %bb.0:                                # %entry
	pushq	%rbp
	.cfi_def_cfa_offset 16
	.cfi_offset %rbp, -16
	movq	%rsp, %rbp
	.cfi_def_cfa_register %rbp
	pushq	%rbx
	subq	$40, %rsp
	.cfi_offset %rbx, -24
	movl	$662480869, -28(%rbp)   # imm = 0x277CA7E5
	movq	%rdi, -40(%rbp)
	movl	%esi, -16(%rbp)
	movl	%edx, -20(%rbp)
	movl	%ecx, -24(%rbp)
	movslq	-16(%rbp), %rdi
	movl	$8, %esi
	callq	calloc
	movq	-40(%rbp), %rcx
	movq	%rax, (%rcx)
	cmpq	$0, %rax
	jne	.LBB79_2
# %bb.1:                                # %if.then
	movabsq	$.L.str.10, %rdi
	callq	no_mem_exit
.LBB79_2:                               # %if.end
	movl	$0, -12(%rbp)
.LBB79_3:                               # %for.cond
                                        # =>This Inner Loop Header: Depth=1
	movl	-12(%rbp), %eax
	cmpl	-16(%rbp), %eax
	jge	.LBB79_6
# %bb.4:                                # %for.body
                                        #   in Loop: Header=BB79_3 Depth=1
	movq	-40(%rbp), %rax
	movq	(%rax), %rdi
	movslq	-12(%rbp), %rax
	shlq	$3, %rax
	addq	%rax, %rdi
	movl	-20(%rbp), %esi
	movl	-24(%rbp), %edx
	callq	get_mem2Dint
# %bb.5:                                # %for.inc
                                        #   in Loop: Header=BB79_3 Depth=1
	movl	-12(%rbp), %eax
	addl	$1, %eax
	movl	%eax, -12(%rbp)
	jmp	.LBB79_3
.LBB79_6:                               # %for.end
	movl	-16(%rbp), %eax
	imull	-20(%rbp), %eax
	imull	-24(%rbp), %eax
	movslq	%eax, %rbx
	shlq	$2, %rbx
	cmpl	$662480869, -28(%rbp)   # imm = 0x277CA7E5
	jne	.LBB79_8
.LBB79_7:
	movl	%ebx, %eax
	addq	$40, %rsp
	popq	%rbx
	popq	%rbp
	.cfi_def_cfa %rsp, 8
	retq
.LBB79_8:                               # %func_exit
	.cfi_def_cfa %rbp, 16
	callq	detect_breach
	jmp	.LBB79_7
.Lfunc_end79:
	.size	get_mem3Dint.53, .Lfunc_end79-get_mem3Dint.53
	.cfi_endproc
                                        # -- End function
	.globl	free_mem3Dint64.54      # -- Begin function free_mem3Dint64.54
	.p2align	4, 0x90
	.type	free_mem3Dint64.54,@function
free_mem3Dint64.54:                     # @free_mem3Dint64.54
	.cfi_startproc
# %bb.0:                                # %entry
	pushq	%rbp
	.cfi_def_cfa_offset 16
	.cfi_offset %rbp, -16
	movq	%rsp, %rbp
	.cfi_def_cfa_register %rbp
	subq	$32, %rsp
	movl	$779599246, -24(%rbp)   # imm = 0x2E77BD8E
	movq	%rdi, -16(%rbp)
	movl	%esi, -20(%rbp)
	cmpq	$0, -16(%rbp)
	je	.LBB80_6
# %bb.1:                                # %if.then
	movl	$0, -4(%rbp)
.LBB80_2:                               # %for.cond
                                        # =>This Inner Loop Header: Depth=1
	movl	-4(%rbp), %eax
	cmpl	-20(%rbp), %eax
	jge	.LBB80_5
# %bb.3:                                # %for.body
                                        #   in Loop: Header=BB80_2 Depth=1
	movq	-16(%rbp), %rax
	movslq	-4(%rbp), %rcx
	movq	(%rax,%rcx,8), %rdi
	callq	free_mem2Dint64
# %bb.4:                                # %for.inc
                                        #   in Loop: Header=BB80_2 Depth=1
	movl	-4(%rbp), %eax
	addl	$1, %eax
	movl	%eax, -4(%rbp)
	jmp	.LBB80_2
.LBB80_5:                               # %for.end
	movq	-16(%rbp), %rdi
	callq	free
	jmp	.LBB80_7
.LBB80_6:                               # %if.else
	movabsq	$.L.str.18, %rdi
	movl	$100, %esi
	callq	error
.LBB80_7:                               # %if.end
	cmpl	$779599246, -24(%rbp)   # imm = 0x2E77BD8E
	jne	.LBB80_9
.LBB80_8:
	addq	$32, %rsp
	popq	%rbp
	.cfi_def_cfa %rsp, 8
	retq
.LBB80_9:                               # %func_exit
	.cfi_def_cfa %rbp, 16
	callq	detect_breach
	jmp	.LBB80_8
.Lfunc_end80:
	.size	free_mem3Dint64.54, .Lfunc_end80-free_mem3Dint64.54
	.cfi_endproc
                                        # -- End function
	.globl	free_mem3Dint64.55      # -- Begin function free_mem3Dint64.55
	.p2align	4, 0x90
	.type	free_mem3Dint64.55,@function
free_mem3Dint64.55:                     # @free_mem3Dint64.55
	.cfi_startproc
# %bb.0:                                # %entry
	pushq	%rbp
	.cfi_def_cfa_offset 16
	.cfi_offset %rbp, -16
	movq	%rsp, %rbp
	.cfi_def_cfa_register %rbp
	subq	$32, %rsp
	movl	$1938035736, -24(%rbp)  # imm = 0x73841418
	movq	%rdi, -16(%rbp)
	movl	%esi, -20(%rbp)
	cmpq	$0, -16(%rbp)
	je	.LBB81_6
# %bb.1:                                # %if.then
	movl	$0, -4(%rbp)
.LBB81_2:                               # %for.cond
                                        # =>This Inner Loop Header: Depth=1
	movl	-4(%rbp), %eax
	cmpl	-20(%rbp), %eax
	jge	.LBB81_5
# %bb.3:                                # %for.body
                                        #   in Loop: Header=BB81_2 Depth=1
	movq	-16(%rbp), %rax
	movslq	-4(%rbp), %rcx
	movq	(%rax,%rcx,8), %rdi
	callq	free_mem2Dint64
# %bb.4:                                # %for.inc
                                        #   in Loop: Header=BB81_2 Depth=1
	movl	-4(%rbp), %eax
	addl	$1, %eax
	movl	%eax, -4(%rbp)
	jmp	.LBB81_2
.LBB81_5:                               # %for.end
	movq	-16(%rbp), %rdi
	callq	free
	jmp	.LBB81_7
.LBB81_6:                               # %if.else
	movabsq	$.L.str.18, %rdi
	movl	$100, %esi
	callq	error
.LBB81_7:                               # %if.end
	cmpl	$1938035736, -24(%rbp)  # imm = 0x73841418
	jne	.LBB81_9
.LBB81_8:
	addq	$32, %rsp
	popq	%rbp
	.cfi_def_cfa %rsp, 8
	retq
.LBB81_9:                               # %func_exit
	.cfi_def_cfa %rbp, 16
	callq	detect_breach
	jmp	.LBB81_8
.Lfunc_end81:
	.size	free_mem3Dint64.55, .Lfunc_end81-free_mem3Dint64.55
	.cfi_endproc
                                        # -- End function
	.globl	get_mem2Dshort.56       # -- Begin function get_mem2Dshort.56
	.p2align	4, 0x90
	.type	get_mem2Dshort.56,@function
get_mem2Dshort.56:                      # @get_mem2Dshort.56
	.cfi_startproc
# %bb.0:                                # %entry
	pushq	%rbp
	.cfi_def_cfa_offset 16
	.cfi_offset %rbp, -16
	movq	%rsp, %rbp
	.cfi_def_cfa_register %rbp
	pushq	%rbx
	subq	$40, %rsp
	.cfi_offset %rbx, -24
	movl	$2063724006, -36(%rbp)  # imm = 0x7B01EDE6
	movq	%rdi, -32(%rbp)
	movl	%esi, -16(%rbp)
	movl	%edx, -20(%rbp)
	movslq	-16(%rbp), %rdi
	movl	$8, %esi
	callq	calloc
	movq	-32(%rbp), %rcx
	movq	%rax, (%rcx)
	cmpq	$0, %rax
	jne	.LBB82_2
# %bb.1:                                # %if.then
	movabsq	$.L.str.21, %rdi
	callq	no_mem_exit
.LBB82_2:                               # %if.end
	movl	-16(%rbp), %eax
	imull	-20(%rbp), %eax
	movslq	%eax, %rdi
	movl	$2, %esi
	callq	calloc
	movq	-32(%rbp), %rcx
	movq	(%rcx), %rcx
	movq	%rax, (%rcx)
	cmpq	$0, %rax
	jne	.LBB82_4
# %bb.3:                                # %if.then6
	movabsq	$.L.str.21, %rdi
	callq	no_mem_exit
.LBB82_4:                               # %if.end7
	movl	$1, -12(%rbp)
.LBB82_5:                               # %for.cond
                                        # =>This Inner Loop Header: Depth=1
	movl	-12(%rbp), %eax
	cmpl	-16(%rbp), %eax
	jge	.LBB82_8
# %bb.6:                                # %for.body
                                        #   in Loop: Header=BB82_5 Depth=1
	movq	-32(%rbp), %rax
	movq	(%rax), %rax
	movl	-12(%rbp), %ecx
	subl	$1, %ecx
	movslq	%ecx, %rcx
	movq	(%rax,%rcx,8), %rax
	movslq	-20(%rbp), %rcx
	shlq	$1, %rcx
	addq	%rcx, %rax
	movq	-32(%rbp), %rcx
	movq	(%rcx), %rcx
	movslq	-12(%rbp), %rdx
	movq	%rax, (%rcx,%rdx,8)
# %bb.7:                                # %for.inc
                                        #   in Loop: Header=BB82_5 Depth=1
	movl	-12(%rbp), %eax
	addl	$1, %eax
	movl	%eax, -12(%rbp)
	jmp	.LBB82_5
.LBB82_8:                               # %for.end
	movl	-16(%rbp), %eax
	imull	-20(%rbp), %eax
	movslq	%eax, %rbx
	shlq	$1, %rbx
	cmpl	$2063724006, -36(%rbp)  # imm = 0x7B01EDE6
	jne	.LBB82_10
.LBB82_9:
	movl	%ebx, %eax
	addq	$40, %rsp
	popq	%rbx
	popq	%rbp
	.cfi_def_cfa %rsp, 8
	retq
.LBB82_10:                              # %func_exit
	.cfi_def_cfa %rbp, 16
	callq	detect_breach
	jmp	.LBB82_9
.Lfunc_end82:
	.size	get_mem2Dshort.56, .Lfunc_end82-get_mem2Dshort.56
	.cfi_endproc
                                        # -- End function
	.globl	free_mem3Dint.57        # -- Begin function free_mem3Dint.57
	.p2align	4, 0x90
	.type	free_mem3Dint.57,@function
free_mem3Dint.57:                       # @free_mem3Dint.57
	.cfi_startproc
# %bb.0:                                # %entry
	pushq	%rbp
	.cfi_def_cfa_offset 16
	.cfi_offset %rbp, -16
	movq	%rsp, %rbp
	.cfi_def_cfa_register %rbp
	subq	$32, %rsp
	movl	$1219520638, -24(%rbp)  # imm = 0x48B0687E
	movq	%rdi, -16(%rbp)
	movl	%esi, -20(%rbp)
	cmpq	$0, -16(%rbp)
	je	.LBB83_6
# %bb.1:                                # %if.then
	movl	$0, -4(%rbp)
.LBB83_2:                               # %for.cond
                                        # =>This Inner Loop Header: Depth=1
	movl	-4(%rbp), %eax
	cmpl	-20(%rbp), %eax
	jge	.LBB83_5
# %bb.3:                                # %for.body
                                        #   in Loop: Header=BB83_2 Depth=1
	movq	-16(%rbp), %rax
	movslq	-4(%rbp), %rcx
	movq	(%rax,%rcx,8), %rdi
	callq	free_mem2Dint
# %bb.4:                                # %for.inc
                                        #   in Loop: Header=BB83_2 Depth=1
	movl	-4(%rbp), %eax
	addl	$1, %eax
	movl	%eax, -4(%rbp)
	jmp	.LBB83_2
.LBB83_5:                               # %for.end
	movq	-16(%rbp), %rdi
	callq	free
	jmp	.LBB83_7
.LBB83_6:                               # %if.else
	movabsq	$.L.str.17, %rdi
	movl	$100, %esi
	callq	error
.LBB83_7:                               # %if.end
	cmpl	$1219520638, -24(%rbp)  # imm = 0x48B0687E
	jne	.LBB83_9
.LBB83_8:
	addq	$32, %rsp
	popq	%rbp
	.cfi_def_cfa %rsp, 8
	retq
.LBB83_9:                               # %func_exit
	.cfi_def_cfa %rbp, 16
	callq	detect_breach
	jmp	.LBB83_8
.Lfunc_end83:
	.size	free_mem3Dint.57, .Lfunc_end83-free_mem3Dint.57
	.cfi_endproc
                                        # -- End function
	.globl	get_mem2Dpel.58         # -- Begin function get_mem2Dpel.58
	.p2align	4, 0x90
	.type	get_mem2Dpel.58,@function
get_mem2Dpel.58:                        # @get_mem2Dpel.58
	.cfi_startproc
# %bb.0:                                # %entry
	pushq	%rbp
	.cfi_def_cfa_offset 16
	.cfi_offset %rbp, -16
	movq	%rsp, %rbp
	.cfi_def_cfa_register %rbp
	pushq	%rbx
	subq	$40, %rsp
	.cfi_offset %rbx, -24
	movl	$915995614, -36(%rbp)   # imm = 0x3698FBDE
	movq	%rdi, -32(%rbp)
	movl	%esi, -16(%rbp)
	movl	%edx, -20(%rbp)
	movslq	-16(%rbp), %rdi
	movl	$8, %esi
	callq	calloc
	movq	-32(%rbp), %rcx
	movq	%rax, (%rcx)
	cmpq	$0, %rax
	jne	.LBB84_2
# %bb.1:                                # %if.then
	movabsq	$.L.str.2, %rdi
	callq	no_mem_exit
.LBB84_2:                               # %if.end
	movl	-16(%rbp), %eax
	imull	-20(%rbp), %eax
	movslq	%eax, %rdi
	movl	$2, %esi
	callq	calloc
	movq	-32(%rbp), %rcx
	movq	(%rcx), %rcx
	movq	%rax, (%rcx)
	cmpq	$0, %rax
	jne	.LBB84_4
# %bb.3:                                # %if.then6
	movabsq	$.L.str.2, %rdi
	callq	no_mem_exit
.LBB84_4:                               # %if.end7
	movl	$1, -12(%rbp)
.LBB84_5:                               # %for.cond
                                        # =>This Inner Loop Header: Depth=1
	movl	-12(%rbp), %eax
	cmpl	-16(%rbp), %eax
	jge	.LBB84_8
# %bb.6:                                # %for.body
                                        #   in Loop: Header=BB84_5 Depth=1
	movq	-32(%rbp), %rax
	movq	(%rax), %rax
	movl	-12(%rbp), %ecx
	subl	$1, %ecx
	movslq	%ecx, %rcx
	movq	(%rax,%rcx,8), %rax
	movslq	-20(%rbp), %rcx
	shlq	$1, %rcx
	addq	%rcx, %rax
	movq	-32(%rbp), %rcx
	movq	(%rcx), %rcx
	movslq	-12(%rbp), %rdx
	movq	%rax, (%rcx,%rdx,8)
# %bb.7:                                # %for.inc
                                        #   in Loop: Header=BB84_5 Depth=1
	movl	-12(%rbp), %eax
	addl	$1, %eax
	movl	%eax, -12(%rbp)
	jmp	.LBB84_5
.LBB84_8:                               # %for.end
	movl	-16(%rbp), %eax
	imull	-20(%rbp), %eax
	movslq	%eax, %rbx
	shlq	$1, %rbx
	cmpl	$915995614, -36(%rbp)   # imm = 0x3698FBDE
	jne	.LBB84_10
.LBB84_9:
	movl	%ebx, %eax
	addq	$40, %rsp
	popq	%rbx
	popq	%rbp
	.cfi_def_cfa %rsp, 8
	retq
.LBB84_10:                              # %func_exit
	.cfi_def_cfa %rbp, 16
	callq	detect_breach
	jmp	.LBB84_9
.Lfunc_end84:
	.size	get_mem2Dpel.58, .Lfunc_end84-get_mem2Dpel.58
	.cfi_endproc
                                        # -- End function
	.globl	get_mem3Dint64.59       # -- Begin function get_mem3Dint64.59
	.p2align	4, 0x90
	.type	get_mem3Dint64.59,@function
get_mem3Dint64.59:                      # @get_mem3Dint64.59
	.cfi_startproc
# %bb.0:                                # %entry
	pushq	%rbp
	.cfi_def_cfa_offset 16
	.cfi_offset %rbp, -16
	movq	%rsp, %rbp
	.cfi_def_cfa_register %rbp
	pushq	%rbx
	subq	$40, %rsp
	.cfi_offset %rbx, -24
	movl	$1609622891, -28(%rbp)  # imm = 0x5FF0E56B
	movq	%rdi, -40(%rbp)
	movl	%esi, -16(%rbp)
	movl	%edx, -24(%rbp)
	movl	%ecx, -20(%rbp)
	movslq	-16(%rbp), %rdi
	movl	$8, %esi
	callq	calloc
	movq	-40(%rbp), %rcx
	movq	%rax, (%rcx)
	cmpq	$0, %rax
	jne	.LBB85_2
# %bb.1:                                # %if.then
	movabsq	$.L.str.11, %rdi
	callq	no_mem_exit
.LBB85_2:                               # %if.end
	movl	$0, -12(%rbp)
.LBB85_3:                               # %for.cond
                                        # =>This Inner Loop Header: Depth=1
	movl	-12(%rbp), %eax
	cmpl	-16(%rbp), %eax
	jge	.LBB85_6
# %bb.4:                                # %for.body
                                        #   in Loop: Header=BB85_3 Depth=1
	movq	-40(%rbp), %rax
	movq	(%rax), %rdi
	movslq	-12(%rbp), %rax
	shlq	$3, %rax
	addq	%rax, %rdi
	movl	-24(%rbp), %esi
	movl	-20(%rbp), %edx
	callq	get_mem2Dint64
# %bb.5:                                # %for.inc
                                        #   in Loop: Header=BB85_3 Depth=1
	movl	-12(%rbp), %eax
	addl	$1, %eax
	movl	%eax, -12(%rbp)
	jmp	.LBB85_3
.LBB85_6:                               # %for.end
	movl	-16(%rbp), %eax
	imull	-24(%rbp), %eax
	imull	-20(%rbp), %eax
	movslq	%eax, %rbx
	shlq	$3, %rbx
	cmpl	$1609622891, -28(%rbp)  # imm = 0x5FF0E56B
	jne	.LBB85_8
.LBB85_7:
	movl	%ebx, %eax
	addq	$40, %rsp
	popq	%rbx
	popq	%rbp
	.cfi_def_cfa %rsp, 8
	retq
.LBB85_8:                               # %func_exit
	.cfi_def_cfa %rbp, 16
	callq	detect_breach
	jmp	.LBB85_7
.Lfunc_end85:
	.size	get_mem3Dint64.59, .Lfunc_end85-get_mem3Dint64.59
	.cfi_endproc
                                        # -- End function
	.globl	get_mem2Dint.60         # -- Begin function get_mem2Dint.60
	.p2align	4, 0x90
	.type	get_mem2Dint.60,@function
get_mem2Dint.60:                        # @get_mem2Dint.60
	.cfi_startproc
# %bb.0:                                # %entry
	pushq	%rbp
	.cfi_def_cfa_offset 16
	.cfi_offset %rbp, -16
	movq	%rsp, %rbp
	.cfi_def_cfa_register %rbp
	pushq	%rbx
	subq	$40, %rsp
	.cfi_offset %rbx, -24
	movl	$727514275, -36(%rbp)   # imm = 0x2B5CFCA3
	movq	%rdi, -32(%rbp)
	movl	%esi, -16(%rbp)
	movl	%edx, -20(%rbp)
	movslq	-16(%rbp), %rdi
	movl	$8, %esi
	callq	calloc
	movq	-32(%rbp), %rcx
	movq	%rax, (%rcx)
	cmpq	$0, %rax
	jne	.LBB86_2
# %bb.1:                                # %if.then
	movabsq	$.L.str.7, %rdi
	callq	no_mem_exit
.LBB86_2:                               # %if.end
	movl	-16(%rbp), %eax
	imull	-20(%rbp), %eax
	movslq	%eax, %rdi
	movl	$4, %esi
	callq	calloc
	movq	-32(%rbp), %rcx
	movq	(%rcx), %rcx
	movq	%rax, (%rcx)
	cmpq	$0, %rax
	jne	.LBB86_4
# %bb.3:                                # %if.then6
	movabsq	$.L.str.7, %rdi
	callq	no_mem_exit
.LBB86_4:                               # %if.end7
	movl	$1, -12(%rbp)
.LBB86_5:                               # %for.cond
                                        # =>This Inner Loop Header: Depth=1
	movl	-12(%rbp), %eax
	cmpl	-16(%rbp), %eax
	jge	.LBB86_8
# %bb.6:                                # %for.body
                                        #   in Loop: Header=BB86_5 Depth=1
	movq	-32(%rbp), %rax
	movq	(%rax), %rax
	movl	-12(%rbp), %ecx
	subl	$1, %ecx
	movslq	%ecx, %rcx
	movq	(%rax,%rcx,8), %rax
	movslq	-20(%rbp), %rcx
	shlq	$2, %rcx
	addq	%rcx, %rax
	movq	-32(%rbp), %rcx
	movq	(%rcx), %rcx
	movslq	-12(%rbp), %rdx
	movq	%rax, (%rcx,%rdx,8)
# %bb.7:                                # %for.inc
                                        #   in Loop: Header=BB86_5 Depth=1
	movl	-12(%rbp), %eax
	addl	$1, %eax
	movl	%eax, -12(%rbp)
	jmp	.LBB86_5
.LBB86_8:                               # %for.end
	movl	-16(%rbp), %eax
	imull	-20(%rbp), %eax
	movslq	%eax, %rbx
	shlq	$2, %rbx
	cmpl	$727514275, -36(%rbp)   # imm = 0x2B5CFCA3
	jne	.LBB86_10
.LBB86_9:
	movl	%ebx, %eax
	addq	$40, %rsp
	popq	%rbx
	popq	%rbp
	.cfi_def_cfa %rsp, 8
	retq
.LBB86_10:                              # %func_exit
	.cfi_def_cfa %rbp, 16
	callq	detect_breach
	jmp	.LBB86_9
.Lfunc_end86:
	.size	get_mem2Dint.60, .Lfunc_end86-get_mem2Dint.60
	.cfi_endproc
                                        # -- End function
	.globl	get_mem3D.61            # -- Begin function get_mem3D.61
	.p2align	4, 0x90
	.type	get_mem3D.61,@function
get_mem3D.61:                           # @get_mem3D.61
	.cfi_startproc
# %bb.0:                                # %entry
	pushq	%rbp
	.cfi_def_cfa_offset 16
	.cfi_offset %rbp, -16
	movq	%rsp, %rbp
	.cfi_def_cfa_register %rbp
	pushq	%rbx
	subq	$40, %rsp
	.cfi_offset %rbx, -24
	movl	$600323675, -28(%rbp)   # imm = 0x23C8365B
	movq	%rdi, -40(%rbp)
	movl	%esi, -16(%rbp)
	movl	%edx, -24(%rbp)
	movl	%ecx, -20(%rbp)
	movslq	-16(%rbp), %rdi
	movl	$8, %esi
	callq	calloc
	movq	-40(%rbp), %rcx
	movq	%rax, (%rcx)
	cmpq	$0, %rax
	jne	.LBB87_2
# %bb.1:                                # %if.then
	movabsq	$.L.str.9, %rdi
	callq	no_mem_exit
.LBB87_2:                               # %if.end
	movl	$0, -12(%rbp)
.LBB87_3:                               # %for.cond
                                        # =>This Inner Loop Header: Depth=1
	movl	-12(%rbp), %eax
	cmpl	-16(%rbp), %eax
	jge	.LBB87_6
# %bb.4:                                # %for.body
                                        #   in Loop: Header=BB87_3 Depth=1
	movq	-40(%rbp), %rax
	movq	(%rax), %rdi
	movslq	-12(%rbp), %rax
	shlq	$3, %rax
	addq	%rax, %rdi
	movl	-24(%rbp), %esi
	movl	-20(%rbp), %edx
	callq	get_mem2D
# %bb.5:                                # %for.inc
                                        #   in Loop: Header=BB87_3 Depth=1
	movl	-12(%rbp), %eax
	addl	$1, %eax
	movl	%eax, -12(%rbp)
	jmp	.LBB87_3
.LBB87_6:                               # %for.end
	movl	-16(%rbp), %ebx
	imull	-24(%rbp), %ebx
	imull	-20(%rbp), %ebx
	cmpl	$600323675, -28(%rbp)   # imm = 0x23C8365B
	jne	.LBB87_8
.LBB87_7:
	movl	%ebx, %eax
	addq	$40, %rsp
	popq	%rbx
	popq	%rbp
	.cfi_def_cfa %rsp, 8
	retq
.LBB87_8:                               # %func_exit
	.cfi_def_cfa %rbp, 16
	callq	detect_breach
	jmp	.LBB87_7
.Lfunc_end87:
	.size	get_mem3D.61, .Lfunc_end87-get_mem3D.61
	.cfi_endproc
                                        # -- End function
	.globl	free_mem3Dshort.62      # -- Begin function free_mem3Dshort.62
	.p2align	4, 0x90
	.type	free_mem3Dshort.62,@function
free_mem3Dshort.62:                     # @free_mem3Dshort.62
	.cfi_startproc
# %bb.0:                                # %entry
	pushq	%rbp
	.cfi_def_cfa_offset 16
	.cfi_offset %rbp, -16
	movq	%rsp, %rbp
	.cfi_def_cfa_register %rbp
	subq	$32, %rsp
	movl	$1270553487, -24(%rbp)  # imm = 0x4BBB1B8F
	movq	%rdi, -16(%rbp)
	movl	%esi, -20(%rbp)
	cmpq	$0, -16(%rbp)
	je	.LBB88_6
# %bb.1:                                # %if.then
	movl	$0, -4(%rbp)
.LBB88_2:                               # %for.cond
                                        # =>This Inner Loop Header: Depth=1
	movl	-4(%rbp), %eax
	cmpl	-20(%rbp), %eax
	jge	.LBB88_5
# %bb.3:                                # %for.body
                                        #   in Loop: Header=BB88_2 Depth=1
	movq	-16(%rbp), %rax
	movslq	-4(%rbp), %rcx
	movq	(%rax,%rcx,8), %rdi
	callq	free_mem2Dshort
# %bb.4:                                # %for.inc
                                        #   in Loop: Header=BB88_2 Depth=1
	movl	-4(%rbp), %eax
	addl	$1, %eax
	movl	%eax, -4(%rbp)
	jmp	.LBB88_2
.LBB88_5:                               # %for.end
	movq	-16(%rbp), %rdi
	callq	free
	jmp	.LBB88_7
.LBB88_6:                               # %if.else
	movabsq	$.L.str.25, %rdi
	movl	$100, %esi
	callq	error
.LBB88_7:                               # %if.end
	cmpl	$1270553487, -24(%rbp)  # imm = 0x4BBB1B8F
	jne	.LBB88_9
.LBB88_8:
	addq	$32, %rsp
	popq	%rbp
	.cfi_def_cfa %rsp, 8
	retq
.LBB88_9:                               # %func_exit
	.cfi_def_cfa %rbp, 16
	callq	detect_breach
	jmp	.LBB88_8
.Lfunc_end88:
	.size	free_mem3Dshort.62, .Lfunc_end88-free_mem3Dshort.62
	.cfi_endproc
                                        # -- End function
	.globl	get_mem2Dint.63         # -- Begin function get_mem2Dint.63
	.p2align	4, 0x90
	.type	get_mem2Dint.63,@function
get_mem2Dint.63:                        # @get_mem2Dint.63
	.cfi_startproc
# %bb.0:                                # %entry
	pushq	%rbp
	.cfi_def_cfa_offset 16
	.cfi_offset %rbp, -16
	movq	%rsp, %rbp
	.cfi_def_cfa_register %rbp
	pushq	%rbx
	subq	$40, %rsp
	.cfi_offset %rbx, -24
	movl	$718247452, -36(%rbp)   # imm = 0x2ACF961C
	movq	%rdi, -32(%rbp)
	movl	%esi, -16(%rbp)
	movl	%edx, -20(%rbp)
	movslq	-16(%rbp), %rdi
	movl	$8, %esi
	callq	calloc
	movq	-32(%rbp), %rcx
	movq	%rax, (%rcx)
	cmpq	$0, %rax
	jne	.LBB89_2
# %bb.1:                                # %if.then
	movabsq	$.L.str.7, %rdi
	callq	no_mem_exit
.LBB89_2:                               # %if.end
	movl	-16(%rbp), %eax
	imull	-20(%rbp), %eax
	movslq	%eax, %rdi
	movl	$4, %esi
	callq	calloc
	movq	-32(%rbp), %rcx
	movq	(%rcx), %rcx
	movq	%rax, (%rcx)
	cmpq	$0, %rax
	jne	.LBB89_4
# %bb.3:                                # %if.then6
	movabsq	$.L.str.7, %rdi
	callq	no_mem_exit
.LBB89_4:                               # %if.end7
	movl	$1, -12(%rbp)
.LBB89_5:                               # %for.cond
                                        # =>This Inner Loop Header: Depth=1
	movl	-12(%rbp), %eax
	cmpl	-16(%rbp), %eax
	jge	.LBB89_8
# %bb.6:                                # %for.body
                                        #   in Loop: Header=BB89_5 Depth=1
	movq	-32(%rbp), %rax
	movq	(%rax), %rax
	movl	-12(%rbp), %ecx
	subl	$1, %ecx
	movslq	%ecx, %rcx
	movq	(%rax,%rcx,8), %rax
	movslq	-20(%rbp), %rcx
	shlq	$2, %rcx
	addq	%rcx, %rax
	movq	-32(%rbp), %rcx
	movq	(%rcx), %rcx
	movslq	-12(%rbp), %rdx
	movq	%rax, (%rcx,%rdx,8)
# %bb.7:                                # %for.inc
                                        #   in Loop: Header=BB89_5 Depth=1
	movl	-12(%rbp), %eax
	addl	$1, %eax
	movl	%eax, -12(%rbp)
	jmp	.LBB89_5
.LBB89_8:                               # %for.end
	movl	-16(%rbp), %eax
	imull	-20(%rbp), %eax
	movslq	%eax, %rbx
	shlq	$2, %rbx
	cmpl	$718247452, -36(%rbp)   # imm = 0x2ACF961C
	jne	.LBB89_10
.LBB89_9:
	movl	%ebx, %eax
	addq	$40, %rsp
	popq	%rbx
	popq	%rbp
	.cfi_def_cfa %rsp, 8
	retq
.LBB89_10:                              # %func_exit
	.cfi_def_cfa %rbp, 16
	callq	detect_breach
	jmp	.LBB89_9
.Lfunc_end89:
	.size	get_mem2Dint.63, .Lfunc_end89-get_mem2Dint.63
	.cfi_endproc
                                        # -- End function
	.globl	free_mem3D.64           # -- Begin function free_mem3D.64
	.p2align	4, 0x90
	.type	free_mem3D.64,@function
free_mem3D.64:                          # @free_mem3D.64
	.cfi_startproc
# %bb.0:                                # %entry
	pushq	%rbp
	.cfi_def_cfa_offset 16
	.cfi_offset %rbp, -16
	movq	%rsp, %rbp
	.cfi_def_cfa_register %rbp
	subq	$32, %rsp
	movl	$1694723677, -24(%rbp)  # imm = 0x65036E5D
	movq	%rdi, -16(%rbp)
	movl	%esi, -20(%rbp)
	cmpq	$0, -16(%rbp)
	je	.LBB90_6
# %bb.1:                                # %if.then
	movl	$0, -4(%rbp)
.LBB90_2:                               # %for.cond
                                        # =>This Inner Loop Header: Depth=1
	movl	-4(%rbp), %eax
	cmpl	-20(%rbp), %eax
	jge	.LBB90_5
# %bb.3:                                # %for.body
                                        #   in Loop: Header=BB90_2 Depth=1
	movq	-16(%rbp), %rax
	movslq	-4(%rbp), %rcx
	movq	(%rax,%rcx,8), %rdi
	callq	free_mem2D
# %bb.4:                                # %for.inc
                                        #   in Loop: Header=BB90_2 Depth=1
	movl	-4(%rbp), %eax
	addl	$1, %eax
	movl	%eax, -4(%rbp)
	jmp	.LBB90_2
.LBB90_5:                               # %for.end
	movq	-16(%rbp), %rdi
	callq	free
	jmp	.LBB90_7
.LBB90_6:                               # %if.else
	movabsq	$.L.str.16, %rdi
	movl	$100, %esi
	callq	error
.LBB90_7:                               # %if.end
	cmpl	$1694723677, -24(%rbp)  # imm = 0x65036E5D
	jne	.LBB90_9
.LBB90_8:
	addq	$32, %rsp
	popq	%rbp
	.cfi_def_cfa %rsp, 8
	retq
.LBB90_9:                               # %func_exit
	.cfi_def_cfa %rbp, 16
	callq	detect_breach
	jmp	.LBB90_8
.Lfunc_end90:
	.size	free_mem3D.64, .Lfunc_end90-free_mem3D.64
	.cfi_endproc
                                        # -- End function
	.globl	get_mem2Dint.65         # -- Begin function get_mem2Dint.65
	.p2align	4, 0x90
	.type	get_mem2Dint.65,@function
get_mem2Dint.65:                        # @get_mem2Dint.65
	.cfi_startproc
# %bb.0:                                # %entry
	pushq	%rbp
	.cfi_def_cfa_offset 16
	.cfi_offset %rbp, -16
	movq	%rsp, %rbp
	.cfi_def_cfa_register %rbp
	pushq	%rbx
	subq	$40, %rsp
	.cfi_offset %rbx, -24
	movl	$1540974017, -36(%rbp)  # imm = 0x5BD965C1
	movq	%rdi, -32(%rbp)
	movl	%esi, -16(%rbp)
	movl	%edx, -20(%rbp)
	movslq	-16(%rbp), %rdi
	movl	$8, %esi
	callq	calloc
	movq	-32(%rbp), %rcx
	movq	%rax, (%rcx)
	cmpq	$0, %rax
	jne	.LBB91_2
# %bb.1:                                # %if.then
	movabsq	$.L.str.7, %rdi
	callq	no_mem_exit
.LBB91_2:                               # %if.end
	movl	-16(%rbp), %eax
	imull	-20(%rbp), %eax
	movslq	%eax, %rdi
	movl	$4, %esi
	callq	calloc
	movq	-32(%rbp), %rcx
	movq	(%rcx), %rcx
	movq	%rax, (%rcx)
	cmpq	$0, %rax
	jne	.LBB91_4
# %bb.3:                                # %if.then6
	movabsq	$.L.str.7, %rdi
	callq	no_mem_exit
.LBB91_4:                               # %if.end7
	movl	$1, -12(%rbp)
.LBB91_5:                               # %for.cond
                                        # =>This Inner Loop Header: Depth=1
	movl	-12(%rbp), %eax
	cmpl	-16(%rbp), %eax
	jge	.LBB91_8
# %bb.6:                                # %for.body
                                        #   in Loop: Header=BB91_5 Depth=1
	movq	-32(%rbp), %rax
	movq	(%rax), %rax
	movl	-12(%rbp), %ecx
	subl	$1, %ecx
	movslq	%ecx, %rcx
	movq	(%rax,%rcx,8), %rax
	movslq	-20(%rbp), %rcx
	shlq	$2, %rcx
	addq	%rcx, %rax
	movq	-32(%rbp), %rcx
	movq	(%rcx), %rcx
	movslq	-12(%rbp), %rdx
	movq	%rax, (%rcx,%rdx,8)
# %bb.7:                                # %for.inc
                                        #   in Loop: Header=BB91_5 Depth=1
	movl	-12(%rbp), %eax
	addl	$1, %eax
	movl	%eax, -12(%rbp)
	jmp	.LBB91_5
.LBB91_8:                               # %for.end
	movl	-16(%rbp), %eax
	imull	-20(%rbp), %eax
	movslq	%eax, %rbx
	shlq	$2, %rbx
	cmpl	$1540974017, -36(%rbp)  # imm = 0x5BD965C1
	jne	.LBB91_10
.LBB91_9:
	movl	%ebx, %eax
	addq	$40, %rsp
	popq	%rbx
	popq	%rbp
	.cfi_def_cfa %rsp, 8
	retq
.LBB91_10:                              # %func_exit
	.cfi_def_cfa %rbp, 16
	callq	detect_breach
	jmp	.LBB91_9
.Lfunc_end91:
	.size	get_mem2Dint.65, .Lfunc_end91-get_mem2Dint.65
	.cfi_endproc
                                        # -- End function
	.globl	get_mem2Dshort.66       # -- Begin function get_mem2Dshort.66
	.p2align	4, 0x90
	.type	get_mem2Dshort.66,@function
get_mem2Dshort.66:                      # @get_mem2Dshort.66
	.cfi_startproc
# %bb.0:                                # %entry
	pushq	%rbp
	.cfi_def_cfa_offset 16
	.cfi_offset %rbp, -16
	movq	%rsp, %rbp
	.cfi_def_cfa_register %rbp
	pushq	%rbx
	subq	$40, %rsp
	.cfi_offset %rbx, -24
	movl	$137354575, -36(%rbp)   # imm = 0x82FDD4F
	movq	%rdi, -32(%rbp)
	movl	%esi, -16(%rbp)
	movl	%edx, -20(%rbp)
	movslq	-16(%rbp), %rdi
	movl	$8, %esi
	callq	calloc
	movq	-32(%rbp), %rcx
	movq	%rax, (%rcx)
	cmpq	$0, %rax
	jne	.LBB92_2
# %bb.1:                                # %if.then
	movabsq	$.L.str.21, %rdi
	callq	no_mem_exit
.LBB92_2:                               # %if.end
	movl	-16(%rbp), %eax
	imull	-20(%rbp), %eax
	movslq	%eax, %rdi
	movl	$2, %esi
	callq	calloc
	movq	-32(%rbp), %rcx
	movq	(%rcx), %rcx
	movq	%rax, (%rcx)
	cmpq	$0, %rax
	jne	.LBB92_4
# %bb.3:                                # %if.then6
	movabsq	$.L.str.21, %rdi
	callq	no_mem_exit
.LBB92_4:                               # %if.end7
	movl	$1, -12(%rbp)
.LBB92_5:                               # %for.cond
                                        # =>This Inner Loop Header: Depth=1
	movl	-12(%rbp), %eax
	cmpl	-16(%rbp), %eax
	jge	.LBB92_8
# %bb.6:                                # %for.body
                                        #   in Loop: Header=BB92_5 Depth=1
	movq	-32(%rbp), %rax
	movq	(%rax), %rax
	movl	-12(%rbp), %ecx
	subl	$1, %ecx
	movslq	%ecx, %rcx
	movq	(%rax,%rcx,8), %rax
	movslq	-20(%rbp), %rcx
	shlq	$1, %rcx
	addq	%rcx, %rax
	movq	-32(%rbp), %rcx
	movq	(%rcx), %rcx
	movslq	-12(%rbp), %rdx
	movq	%rax, (%rcx,%rdx,8)
# %bb.7:                                # %for.inc
                                        #   in Loop: Header=BB92_5 Depth=1
	movl	-12(%rbp), %eax
	addl	$1, %eax
	movl	%eax, -12(%rbp)
	jmp	.LBB92_5
.LBB92_8:                               # %for.end
	movl	-16(%rbp), %eax
	imull	-20(%rbp), %eax
	movslq	%eax, %rbx
	shlq	$1, %rbx
	cmpl	$137354575, -36(%rbp)   # imm = 0x82FDD4F
	jne	.LBB92_10
.LBB92_9:
	movl	%ebx, %eax
	addq	$40, %rsp
	popq	%rbx
	popq	%rbp
	.cfi_def_cfa %rsp, 8
	retq
.LBB92_10:                              # %func_exit
	.cfi_def_cfa %rbp, 16
	callq	detect_breach
	jmp	.LBB92_9
.Lfunc_end92:
	.size	get_mem2Dshort.66, .Lfunc_end92-get_mem2Dshort.66
	.cfi_endproc
                                        # -- End function
	.globl	get_mem2Dint.67         # -- Begin function get_mem2Dint.67
	.p2align	4, 0x90
	.type	get_mem2Dint.67,@function
get_mem2Dint.67:                        # @get_mem2Dint.67
	.cfi_startproc
# %bb.0:                                # %entry
	pushq	%rbp
	.cfi_def_cfa_offset 16
	.cfi_offset %rbp, -16
	movq	%rsp, %rbp
	.cfi_def_cfa_register %rbp
	pushq	%rbx
	subq	$40, %rsp
	.cfi_offset %rbx, -24
	movl	$1766028246, -36(%rbp)  # imm = 0x694373D6
	movq	%rdi, -32(%rbp)
	movl	%esi, -16(%rbp)
	movl	%edx, -20(%rbp)
	movslq	-16(%rbp), %rdi
	movl	$8, %esi
	callq	calloc
	movq	-32(%rbp), %rcx
	movq	%rax, (%rcx)
	cmpq	$0, %rax
	jne	.LBB93_2
# %bb.1:                                # %if.then
	movabsq	$.L.str.7, %rdi
	callq	no_mem_exit
.LBB93_2:                               # %if.end
	movl	-16(%rbp), %eax
	imull	-20(%rbp), %eax
	movslq	%eax, %rdi
	movl	$4, %esi
	callq	calloc
	movq	-32(%rbp), %rcx
	movq	(%rcx), %rcx
	movq	%rax, (%rcx)
	cmpq	$0, %rax
	jne	.LBB93_4
# %bb.3:                                # %if.then6
	movabsq	$.L.str.7, %rdi
	callq	no_mem_exit
.LBB93_4:                               # %if.end7
	movl	$1, -12(%rbp)
.LBB93_5:                               # %for.cond
                                        # =>This Inner Loop Header: Depth=1
	movl	-12(%rbp), %eax
	cmpl	-16(%rbp), %eax
	jge	.LBB93_8
# %bb.6:                                # %for.body
                                        #   in Loop: Header=BB93_5 Depth=1
	movq	-32(%rbp), %rax
	movq	(%rax), %rax
	movl	-12(%rbp), %ecx
	subl	$1, %ecx
	movslq	%ecx, %rcx
	movq	(%rax,%rcx,8), %rax
	movslq	-20(%rbp), %rcx
	shlq	$2, %rcx
	addq	%rcx, %rax
	movq	-32(%rbp), %rcx
	movq	(%rcx), %rcx
	movslq	-12(%rbp), %rdx
	movq	%rax, (%rcx,%rdx,8)
# %bb.7:                                # %for.inc
                                        #   in Loop: Header=BB93_5 Depth=1
	movl	-12(%rbp), %eax
	addl	$1, %eax
	movl	%eax, -12(%rbp)
	jmp	.LBB93_5
.LBB93_8:                               # %for.end
	movl	-16(%rbp), %eax
	imull	-20(%rbp), %eax
	movslq	%eax, %rbx
	shlq	$2, %rbx
	cmpl	$1766028246, -36(%rbp)  # imm = 0x694373D6
	jne	.LBB93_10
.LBB93_9:
	movl	%ebx, %eax
	addq	$40, %rsp
	popq	%rbx
	popq	%rbp
	.cfi_def_cfa %rsp, 8
	retq
.LBB93_10:                              # %func_exit
	.cfi_def_cfa %rbp, 16
	callq	detect_breach
	jmp	.LBB93_9
.Lfunc_end93:
	.size	get_mem2Dint.67, .Lfunc_end93-get_mem2Dint.67
	.cfi_endproc
                                        # -- End function
	.globl	get_mem4Dint.68         # -- Begin function get_mem4Dint.68
	.p2align	4, 0x90
	.type	get_mem4Dint.68,@function
get_mem4Dint.68:                        # @get_mem4Dint.68
	.cfi_startproc
# %bb.0:                                # %entry
	pushq	%rbp
	.cfi_def_cfa_offset 16
	.cfi_offset %rbp, -16
	movq	%rsp, %rbp
	.cfi_def_cfa_register %rbp
	pushq	%rbx
	subq	$40, %rsp
	.cfi_offset %rbx, -24
	movl	$1821304601, -32(%rbp)  # imm = 0x6C8EE719
	movq	%rdi, -40(%rbp)
	movl	%esi, -16(%rbp)
	movl	%edx, -28(%rbp)
	movl	%ecx, -24(%rbp)
	movl	%r8d, -20(%rbp)
	movslq	-16(%rbp), %rdi
	movl	$8, %esi
	callq	calloc
	movq	-40(%rbp), %rcx
	movq	%rax, (%rcx)
	cmpq	$0, %rax
	jne	.LBB94_2
# %bb.1:                                # %if.then
	movabsq	$.L.str.12, %rdi
	callq	no_mem_exit
.LBB94_2:                               # %if.end
	movl	$0, -12(%rbp)
.LBB94_3:                               # %for.cond
                                        # =>This Inner Loop Header: Depth=1
	movl	-12(%rbp), %eax
	cmpl	-16(%rbp), %eax
	jge	.LBB94_6
# %bb.4:                                # %for.body
                                        #   in Loop: Header=BB94_3 Depth=1
	movq	-40(%rbp), %rax
	movq	(%rax), %rdi
	movslq	-12(%rbp), %rax
	shlq	$3, %rax
	addq	%rax, %rdi
	movl	-28(%rbp), %esi
	movl	-24(%rbp), %edx
	movl	-20(%rbp), %ecx
	callq	get_mem3Dint
# %bb.5:                                # %for.inc
                                        #   in Loop: Header=BB94_3 Depth=1
	movl	-12(%rbp), %eax
	addl	$1, %eax
	movl	%eax, -12(%rbp)
	jmp	.LBB94_3
.LBB94_6:                               # %for.end
	movl	-16(%rbp), %eax
	imull	-28(%rbp), %eax
	imull	-24(%rbp), %eax
	imull	-20(%rbp), %eax
	movslq	%eax, %rbx
	shlq	$2, %rbx
	cmpl	$1821304601, -32(%rbp)  # imm = 0x6C8EE719
	jne	.LBB94_8
.LBB94_7:
	movl	%ebx, %eax
	addq	$40, %rsp
	popq	%rbx
	popq	%rbp
	.cfi_def_cfa %rsp, 8
	retq
.LBB94_8:                               # %func_exit
	.cfi_def_cfa %rbp, 16
	callq	detect_breach
	jmp	.LBB94_7
.Lfunc_end94:
	.size	get_mem4Dint.68, .Lfunc_end94-get_mem4Dint.68
	.cfi_endproc
                                        # -- End function
	.globl	free_mem3Dshort.69      # -- Begin function free_mem3Dshort.69
	.p2align	4, 0x90
	.type	free_mem3Dshort.69,@function
free_mem3Dshort.69:                     # @free_mem3Dshort.69
	.cfi_startproc
# %bb.0:                                # %entry
	pushq	%rbp
	.cfi_def_cfa_offset 16
	.cfi_offset %rbp, -16
	movq	%rsp, %rbp
	.cfi_def_cfa_register %rbp
	subq	$32, %rsp
	movl	$1414430421, -24(%rbp)  # imm = 0x544E7ED5
	movq	%rdi, -16(%rbp)
	movl	%esi, -20(%rbp)
	cmpq	$0, -16(%rbp)
	je	.LBB95_6
# %bb.1:                                # %if.then
	movl	$0, -4(%rbp)
.LBB95_2:                               # %for.cond
                                        # =>This Inner Loop Header: Depth=1
	movl	-4(%rbp), %eax
	cmpl	-20(%rbp), %eax
	jge	.LBB95_5
# %bb.3:                                # %for.body
                                        #   in Loop: Header=BB95_2 Depth=1
	movq	-16(%rbp), %rax
	movslq	-4(%rbp), %rcx
	movq	(%rax,%rcx,8), %rdi
	callq	free_mem2Dshort
# %bb.4:                                # %for.inc
                                        #   in Loop: Header=BB95_2 Depth=1
	movl	-4(%rbp), %eax
	addl	$1, %eax
	movl	%eax, -4(%rbp)
	jmp	.LBB95_2
.LBB95_5:                               # %for.end
	movq	-16(%rbp), %rdi
	callq	free
	jmp	.LBB95_7
.LBB95_6:                               # %if.else
	movabsq	$.L.str.25, %rdi
	movl	$100, %esi
	callq	error
.LBB95_7:                               # %if.end
	cmpl	$1414430421, -24(%rbp)  # imm = 0x544E7ED5
	jne	.LBB95_9
.LBB95_8:
	addq	$32, %rsp
	popq	%rbp
	.cfi_def_cfa %rsp, 8
	retq
.LBB95_9:                               # %func_exit
	.cfi_def_cfa %rbp, 16
	callq	detect_breach
	jmp	.LBB95_8
.Lfunc_end95:
	.size	free_mem3Dshort.69, .Lfunc_end95-free_mem3Dshort.69
	.cfi_endproc
                                        # -- End function
	.globl	free_mem3D.70           # -- Begin function free_mem3D.70
	.p2align	4, 0x90
	.type	free_mem3D.70,@function
free_mem3D.70:                          # @free_mem3D.70
	.cfi_startproc
# %bb.0:                                # %entry
	pushq	%rbp
	.cfi_def_cfa_offset 16
	.cfi_offset %rbp, -16
	movq	%rsp, %rbp
	.cfi_def_cfa_register %rbp
	subq	$32, %rsp
	movl	$1035667656, -20(%rbp)  # imm = 0x3DBB08C8
	movq	%rdi, -16(%rbp)
	movl	%esi, -24(%rbp)
	cmpq	$0, -16(%rbp)
	je	.LBB96_6
# %bb.1:                                # %if.then
	movl	$0, -4(%rbp)
.LBB96_2:                               # %for.cond
                                        # =>This Inner Loop Header: Depth=1
	movl	-4(%rbp), %eax
	cmpl	-24(%rbp), %eax
	jge	.LBB96_5
# %bb.3:                                # %for.body
                                        #   in Loop: Header=BB96_2 Depth=1
	movq	-16(%rbp), %rax
	movslq	-4(%rbp), %rcx
	movq	(%rax,%rcx,8), %rdi
	callq	free_mem2D
# %bb.4:                                # %for.inc
                                        #   in Loop: Header=BB96_2 Depth=1
	movl	-4(%rbp), %eax
	addl	$1, %eax
	movl	%eax, -4(%rbp)
	jmp	.LBB96_2
.LBB96_5:                               # %for.end
	movq	-16(%rbp), %rdi
	callq	free
	jmp	.LBB96_7
.LBB96_6:                               # %if.else
	movabsq	$.L.str.16, %rdi
	movl	$100, %esi
	callq	error
.LBB96_7:                               # %if.end
	cmpl	$1035667656, -20(%rbp)  # imm = 0x3DBB08C8
	jne	.LBB96_9
.LBB96_8:
	addq	$32, %rsp
	popq	%rbp
	.cfi_def_cfa %rsp, 8
	retq
.LBB96_9:                               # %func_exit
	.cfi_def_cfa %rbp, 16
	callq	detect_breach
	jmp	.LBB96_8
.Lfunc_end96:
	.size	free_mem3D.70, .Lfunc_end96-free_mem3D.70
	.cfi_endproc
                                        # -- End function
	.globl	init_top_bot_planes.71  # -- Begin function init_top_bot_planes.71
	.p2align	4, 0x90
	.type	init_top_bot_planes.71,@function
init_top_bot_planes.71:                 # @init_top_bot_planes.71
	.cfi_startproc
# %bb.0:                                # %entry
	pushq	%rbp
	.cfi_def_cfa_offset 16
	.cfi_offset %rbp, -16
	movq	%rsp, %rbp
	.cfi_def_cfa_register %rbp
	pushq	%rbx
	subq	$56, %rsp
	.cfi_offset %rbx, -24
	movl	$1195406511, -20(%rbp)  # imm = 0x474074AF
	movq	%rdi, -48(%rbp)
	movl	%esi, -16(%rbp)
	movl	%edx, -52(%rbp)
	movq	%rcx, -32(%rbp)
	movq	%r8, -40(%rbp)
	movl	-16(%rbp), %eax
	cltd
	movl	$2, %ecx
	idivl	%ecx
	movslq	%eax, %rdi
	movl	$8, %esi
	callq	calloc
	movq	-32(%rbp), %rcx
	movq	%rax, (%rcx)
	cmpq	$0, %rax
	jne	.LBB97_2
# %bb.1:                                # %if.then
	movabsq	$.L.str, %rdi
	callq	no_mem_exit
.LBB97_2:                               # %if.end
	movl	-16(%rbp), %eax
	cltd
	movl	$2, %ecx
	idivl	%ecx
	movslq	%eax, %rdi
	movl	$8, %esi
	callq	calloc
	movq	-40(%rbp), %rcx
	movq	%rax, (%rcx)
	cmpq	$0, %rax
	jne	.LBB97_4
# %bb.3:                                # %if.then7
	movabsq	$.L.str.1, %rdi
	callq	no_mem_exit
.LBB97_4:                               # %if.end8
	movl	$0, -12(%rbp)
.LBB97_5:                               # %for.cond
                                        # =>This Inner Loop Header: Depth=1
	movl	-12(%rbp), %ecx
	movl	-16(%rbp), %eax
	cltd
	movl	$2, %esi
	idivl	%esi
	cmpl	%eax, %ecx
	jge	.LBB97_8
# %bb.6:                                # %for.body
                                        #   in Loop: Header=BB97_5 Depth=1
	movq	-48(%rbp), %rax
	movl	-12(%rbp), %ecx
	shll	$1, %ecx
	movslq	%ecx, %rcx
	movq	(%rax,%rcx,8), %rax
	movq	-32(%rbp), %rcx
	movq	(%rcx), %rcx
	movslq	-12(%rbp), %rdx
	movq	%rax, (%rcx,%rdx,8)
	movq	-48(%rbp), %rax
	movl	-12(%rbp), %ecx
	shll	$1, %ecx
	addl	$1, %ecx
	movslq	%ecx, %rcx
	movq	(%rax,%rcx,8), %rax
	movq	-40(%rbp), %rcx
	movq	(%rcx), %rcx
	movslq	-12(%rbp), %rdx
	movq	%rax, (%rcx,%rdx,8)
# %bb.7:                                # %for.inc
                                        #   in Loop: Header=BB97_5 Depth=1
	movl	-12(%rbp), %eax
	addl	$1, %eax
	movl	%eax, -12(%rbp)
	jmp	.LBB97_5
.LBB97_8:                               # %for.end
	movslq	-16(%rbp), %rbx
	shlq	$3, %rbx
	cmpl	$1195406511, -20(%rbp)  # imm = 0x474074AF
	jne	.LBB97_10
.LBB97_9:
	movl	%ebx, %eax
	addq	$56, %rsp
	popq	%rbx
	popq	%rbp
	.cfi_def_cfa %rsp, 8
	retq
.LBB97_10:                              # %func_exit
	.cfi_def_cfa %rbp, 16
	callq	detect_breach
	jmp	.LBB97_9
.Lfunc_end97:
	.size	init_top_bot_planes.71, .Lfunc_end97-init_top_bot_planes.71
	.cfi_endproc
                                        # -- End function
	.globl	free_mem4Dshort.72      # -- Begin function free_mem4Dshort.72
	.p2align	4, 0x90
	.type	free_mem4Dshort.72,@function
free_mem4Dshort.72:                     # @free_mem4Dshort.72
	.cfi_startproc
# %bb.0:                                # %entry
	pushq	%rbp
	.cfi_def_cfa_offset 16
	.cfi_offset %rbp, -16
	movq	%rsp, %rbp
	.cfi_def_cfa_register %rbp
	subq	$32, %rsp
	movl	$269995375, -28(%rbp)   # imm = 0x1017CD6F
	movq	%rdi, -16(%rbp)
	movl	%esi, -20(%rbp)
	movl	%edx, -24(%rbp)
	cmpq	$0, -16(%rbp)
	je	.LBB98_6
# %bb.1:                                # %if.then
	movl	$0, -4(%rbp)
.LBB98_2:                               # %for.cond
                                        # =>This Inner Loop Header: Depth=1
	movl	-4(%rbp), %eax
	cmpl	-20(%rbp), %eax
	jge	.LBB98_5
# %bb.3:                                # %for.body
                                        #   in Loop: Header=BB98_2 Depth=1
	movq	-16(%rbp), %rax
	movslq	-4(%rbp), %rcx
	movq	(%rax,%rcx,8), %rdi
	movl	-24(%rbp), %esi
	callq	free_mem3Dshort
# %bb.4:                                # %for.inc
                                        #   in Loop: Header=BB98_2 Depth=1
	movl	-4(%rbp), %eax
	addl	$1, %eax
	movl	%eax, -4(%rbp)
	jmp	.LBB98_2
.LBB98_5:                               # %for.end
	movq	-16(%rbp), %rdi
	callq	free
	jmp	.LBB98_7
.LBB98_6:                               # %if.else
	movabsq	$.L.str.26, %rdi
	movl	$100, %esi
	callq	error
.LBB98_7:                               # %if.end
	cmpl	$269995375, -28(%rbp)   # imm = 0x1017CD6F
	jne	.LBB98_9
.LBB98_8:
	addq	$32, %rsp
	popq	%rbp
	.cfi_def_cfa %rsp, 8
	retq
.LBB98_9:                               # %func_exit
	.cfi_def_cfa %rbp, 16
	callq	detect_breach
	jmp	.LBB98_8
.Lfunc_end98:
	.size	free_mem4Dshort.72, .Lfunc_end98-free_mem4Dshort.72
	.cfi_endproc
                                        # -- End function
	.globl	free_mem3D.73           # -- Begin function free_mem3D.73
	.p2align	4, 0x90
	.type	free_mem3D.73,@function
free_mem3D.73:                          # @free_mem3D.73
	.cfi_startproc
# %bb.0:                                # %entry
	pushq	%rbp
	.cfi_def_cfa_offset 16
	.cfi_offset %rbp, -16
	movq	%rsp, %rbp
	.cfi_def_cfa_register %rbp
	subq	$32, %rsp
	movl	$587875359, -24(%rbp)   # imm = 0x230A441F
	movq	%rdi, -16(%rbp)
	movl	%esi, -20(%rbp)
	cmpq	$0, -16(%rbp)
	je	.LBB99_6
# %bb.1:                                # %if.then
	movl	$0, -4(%rbp)
.LBB99_2:                               # %for.cond
                                        # =>This Inner Loop Header: Depth=1
	movl	-4(%rbp), %eax
	cmpl	-20(%rbp), %eax
	jge	.LBB99_5
# %bb.3:                                # %for.body
                                        #   in Loop: Header=BB99_2 Depth=1
	movq	-16(%rbp), %rax
	movslq	-4(%rbp), %rcx
	movq	(%rax,%rcx,8), %rdi
	callq	free_mem2D
# %bb.4:                                # %for.inc
                                        #   in Loop: Header=BB99_2 Depth=1
	movl	-4(%rbp), %eax
	addl	$1, %eax
	movl	%eax, -4(%rbp)
	jmp	.LBB99_2
.LBB99_5:                               # %for.end
	movq	-16(%rbp), %rdi
	callq	free
	jmp	.LBB99_7
.LBB99_6:                               # %if.else
	movabsq	$.L.str.16, %rdi
	movl	$100, %esi
	callq	error
.LBB99_7:                               # %if.end
	cmpl	$587875359, -24(%rbp)   # imm = 0x230A441F
	jne	.LBB99_9
.LBB99_8:
	addq	$32, %rsp
	popq	%rbp
	.cfi_def_cfa %rsp, 8
	retq
.LBB99_9:                               # %func_exit
	.cfi_def_cfa %rbp, 16
	callq	detect_breach
	jmp	.LBB99_8
.Lfunc_end99:
	.size	free_mem3D.73, .Lfunc_end99-free_mem3D.73
	.cfi_endproc
                                        # -- End function
	.globl	get_mem3Dint64.74       # -- Begin function get_mem3Dint64.74
	.p2align	4, 0x90
	.type	get_mem3Dint64.74,@function
get_mem3Dint64.74:                      # @get_mem3Dint64.74
	.cfi_startproc
# %bb.0:                                # %entry
	pushq	%rbp
	.cfi_def_cfa_offset 16
	.cfi_offset %rbp, -16
	movq	%rsp, %rbp
	.cfi_def_cfa_register %rbp
	pushq	%rbx
	subq	$40, %rsp
	.cfi_offset %rbx, -24
	movl	$320305325, -28(%rbp)   # imm = 0x131778AD
	movq	%rdi, -40(%rbp)
	movl	%esi, -16(%rbp)
	movl	%edx, -24(%rbp)
	movl	%ecx, -20(%rbp)
	movslq	-16(%rbp), %rdi
	movl	$8, %esi
	callq	calloc
	movq	-40(%rbp), %rcx
	movq	%rax, (%rcx)
	cmpq	$0, %rax
	jne	.LBB100_2
# %bb.1:                                # %if.then
	movabsq	$.L.str.11, %rdi
	callq	no_mem_exit
.LBB100_2:                              # %if.end
	movl	$0, -12(%rbp)
.LBB100_3:                              # %for.cond
                                        # =>This Inner Loop Header: Depth=1
	movl	-12(%rbp), %eax
	cmpl	-16(%rbp), %eax
	jge	.LBB100_6
# %bb.4:                                # %for.body
                                        #   in Loop: Header=BB100_3 Depth=1
	movq	-40(%rbp), %rax
	movq	(%rax), %rdi
	movslq	-12(%rbp), %rax
	shlq	$3, %rax
	addq	%rax, %rdi
	movl	-24(%rbp), %esi
	movl	-20(%rbp), %edx
	callq	get_mem2Dint64
# %bb.5:                                # %for.inc
                                        #   in Loop: Header=BB100_3 Depth=1
	movl	-12(%rbp), %eax
	addl	$1, %eax
	movl	%eax, -12(%rbp)
	jmp	.LBB100_3
.LBB100_6:                              # %for.end
	movl	-16(%rbp), %eax
	imull	-24(%rbp), %eax
	imull	-20(%rbp), %eax
	movslq	%eax, %rbx
	shlq	$3, %rbx
	cmpl	$320305325, -28(%rbp)   # imm = 0x131778AD
	jne	.LBB100_8
.LBB100_7:
	movl	%ebx, %eax
	addq	$40, %rsp
	popq	%rbx
	popq	%rbp
	.cfi_def_cfa %rsp, 8
	retq
.LBB100_8:                              # %func_exit
	.cfi_def_cfa %rbp, 16
	callq	detect_breach
	jmp	.LBB100_7
.Lfunc_end100:
	.size	get_mem3Dint64.74, .Lfunc_end100-get_mem3Dint64.74
	.cfi_endproc
                                        # -- End function
	.globl	get_mem3D.75            # -- Begin function get_mem3D.75
	.p2align	4, 0x90
	.type	get_mem3D.75,@function
get_mem3D.75:                           # @get_mem3D.75
	.cfi_startproc
# %bb.0:                                # %entry
	pushq	%rbp
	.cfi_def_cfa_offset 16
	.cfi_offset %rbp, -16
	movq	%rsp, %rbp
	.cfi_def_cfa_register %rbp
	pushq	%rbx
	subq	$40, %rsp
	.cfi_offset %rbx, -24
	movl	$797112660, -28(%rbp)   # imm = 0x2F82F954
	movq	%rdi, -40(%rbp)
	movl	%esi, -16(%rbp)
	movl	%edx, -20(%rbp)
	movl	%ecx, -24(%rbp)
	movslq	-16(%rbp), %rdi
	movl	$8, %esi
	callq	calloc
	movq	-40(%rbp), %rcx
	movq	%rax, (%rcx)
	cmpq	$0, %rax
	jne	.LBB101_2
# %bb.1:                                # %if.then
	movabsq	$.L.str.9, %rdi
	callq	no_mem_exit
.LBB101_2:                              # %if.end
	movl	$0, -12(%rbp)
.LBB101_3:                              # %for.cond
                                        # =>This Inner Loop Header: Depth=1
	movl	-12(%rbp), %eax
	cmpl	-16(%rbp), %eax
	jge	.LBB101_6
# %bb.4:                                # %for.body
                                        #   in Loop: Header=BB101_3 Depth=1
	movq	-40(%rbp), %rax
	movq	(%rax), %rdi
	movslq	-12(%rbp), %rax
	shlq	$3, %rax
	addq	%rax, %rdi
	movl	-20(%rbp), %esi
	movl	-24(%rbp), %edx
	callq	get_mem2D
# %bb.5:                                # %for.inc
                                        #   in Loop: Header=BB101_3 Depth=1
	movl	-12(%rbp), %eax
	addl	$1, %eax
	movl	%eax, -12(%rbp)
	jmp	.LBB101_3
.LBB101_6:                              # %for.end
	movl	-16(%rbp), %ebx
	imull	-20(%rbp), %ebx
	imull	-24(%rbp), %ebx
	cmpl	$797112660, -28(%rbp)   # imm = 0x2F82F954
	jne	.LBB101_8
.LBB101_7:
	movl	%ebx, %eax
	addq	$40, %rsp
	popq	%rbx
	popq	%rbp
	.cfi_def_cfa %rsp, 8
	retq
.LBB101_8:                              # %func_exit
	.cfi_def_cfa %rbp, 16
	callq	detect_breach
	jmp	.LBB101_7
.Lfunc_end101:
	.size	get_mem3D.75, .Lfunc_end101-get_mem3D.75
	.cfi_endproc
                                        # -- End function
	.globl	free_mem3Dint.76        # -- Begin function free_mem3Dint.76
	.p2align	4, 0x90
	.type	free_mem3Dint.76,@function
free_mem3Dint.76:                       # @free_mem3Dint.76
	.cfi_startproc
# %bb.0:                                # %entry
	pushq	%rbp
	.cfi_def_cfa_offset 16
	.cfi_offset %rbp, -16
	movq	%rsp, %rbp
	.cfi_def_cfa_register %rbp
	subq	$32, %rsp
	movl	$2055664485, -24(%rbp)  # imm = 0x7A86F365
	movq	%rdi, -16(%rbp)
	movl	%esi, -20(%rbp)
	cmpq	$0, -16(%rbp)
	je	.LBB102_6
# %bb.1:                                # %if.then
	movl	$0, -4(%rbp)
.LBB102_2:                              # %for.cond
                                        # =>This Inner Loop Header: Depth=1
	movl	-4(%rbp), %eax
	cmpl	-20(%rbp), %eax
	jge	.LBB102_5
# %bb.3:                                # %for.body
                                        #   in Loop: Header=BB102_2 Depth=1
	movq	-16(%rbp), %rax
	movslq	-4(%rbp), %rcx
	movq	(%rax,%rcx,8), %rdi
	callq	free_mem2Dint
# %bb.4:                                # %for.inc
                                        #   in Loop: Header=BB102_2 Depth=1
	movl	-4(%rbp), %eax
	addl	$1, %eax
	movl	%eax, -4(%rbp)
	jmp	.LBB102_2
.LBB102_5:                              # %for.end
	movq	-16(%rbp), %rdi
	callq	free
	jmp	.LBB102_7
.LBB102_6:                              # %if.else
	movabsq	$.L.str.17, %rdi
	movl	$100, %esi
	callq	error
.LBB102_7:                              # %if.end
	cmpl	$2055664485, -24(%rbp)  # imm = 0x7A86F365
	jne	.LBB102_9
.LBB102_8:
	addq	$32, %rsp
	popq	%rbp
	.cfi_def_cfa %rsp, 8
	retq
.LBB102_9:                              # %func_exit
	.cfi_def_cfa %rbp, 16
	callq	detect_breach
	jmp	.LBB102_8
.Lfunc_end102:
	.size	free_mem3Dint.76, .Lfunc_end102-free_mem3Dint.76
	.cfi_endproc
                                        # -- End function
	.globl	get_mem3Dint.77         # -- Begin function get_mem3Dint.77
	.p2align	4, 0x90
	.type	get_mem3Dint.77,@function
get_mem3Dint.77:                        # @get_mem3Dint.77
	.cfi_startproc
# %bb.0:                                # %entry
	pushq	%rbp
	.cfi_def_cfa_offset 16
	.cfi_offset %rbp, -16
	movq	%rsp, %rbp
	.cfi_def_cfa_register %rbp
	pushq	%rbx
	subq	$40, %rsp
	.cfi_offset %rbx, -24
	movl	$1130705888, -28(%rbp)  # imm = 0x436533E0
	movq	%rdi, -40(%rbp)
	movl	%esi, -16(%rbp)
	movl	%edx, -20(%rbp)
	movl	%ecx, -24(%rbp)
	movslq	-16(%rbp), %rdi
	movl	$8, %esi
	callq	calloc
	movq	-40(%rbp), %rcx
	movq	%rax, (%rcx)
	cmpq	$0, %rax
	jne	.LBB103_2
# %bb.1:                                # %if.then
	movabsq	$.L.str.10, %rdi
	callq	no_mem_exit
.LBB103_2:                              # %if.end
	movl	$0, -12(%rbp)
.LBB103_3:                              # %for.cond
                                        # =>This Inner Loop Header: Depth=1
	movl	-12(%rbp), %eax
	cmpl	-16(%rbp), %eax
	jge	.LBB103_6
# %bb.4:                                # %for.body
                                        #   in Loop: Header=BB103_3 Depth=1
	movq	-40(%rbp), %rax
	movq	(%rax), %rdi
	movslq	-12(%rbp), %rax
	shlq	$3, %rax
	addq	%rax, %rdi
	movl	-20(%rbp), %esi
	movl	-24(%rbp), %edx
	callq	get_mem2Dint
# %bb.5:                                # %for.inc
                                        #   in Loop: Header=BB103_3 Depth=1
	movl	-12(%rbp), %eax
	addl	$1, %eax
	movl	%eax, -12(%rbp)
	jmp	.LBB103_3
.LBB103_6:                              # %for.end
	movl	-16(%rbp), %eax
	imull	-20(%rbp), %eax
	imull	-24(%rbp), %eax
	movslq	%eax, %rbx
	shlq	$2, %rbx
	cmpl	$1130705888, -28(%rbp)  # imm = 0x436533E0
	jne	.LBB103_8
.LBB103_7:
	movl	%ebx, %eax
	addq	$40, %rsp
	popq	%rbx
	popq	%rbp
	.cfi_def_cfa %rsp, 8
	retq
.LBB103_8:                              # %func_exit
	.cfi_def_cfa %rbp, 16
	callq	detect_breach
	jmp	.LBB103_7
.Lfunc_end103:
	.size	get_mem3Dint.77, .Lfunc_end103-get_mem3Dint.77
	.cfi_endproc
                                        # -- End function
	.globl	get_mem4Dshort.78       # -- Begin function get_mem4Dshort.78
	.p2align	4, 0x90
	.type	get_mem4Dshort.78,@function
get_mem4Dshort.78:                      # @get_mem4Dshort.78
	.cfi_startproc
# %bb.0:                                # %entry
	pushq	%rbp
	.cfi_def_cfa_offset 16
	.cfi_offset %rbp, -16
	movq	%rsp, %rbp
	.cfi_def_cfa_register %rbp
	pushq	%rbx
	subq	$40, %rsp
	.cfi_offset %rbx, -24
	movl	$1173679539, -32(%rbp)  # imm = 0x45F4EDB3
	movq	%rdi, -40(%rbp)
	movl	%esi, -16(%rbp)
	movl	%edx, -24(%rbp)
	movl	%ecx, -20(%rbp)
	movl	%r8d, -28(%rbp)
	movslq	-16(%rbp), %rdi
	movl	$8, %esi
	callq	calloc
	movq	-40(%rbp), %rcx
	movq	%rax, (%rcx)
	cmpq	$0, %rax
	jne	.LBB104_2
# %bb.1:                                # %if.then
	movabsq	$.L.str.23, %rdi
	callq	no_mem_exit
.LBB104_2:                              # %if.end
	movl	$0, -12(%rbp)
.LBB104_3:                              # %for.cond
                                        # =>This Inner Loop Header: Depth=1
	movl	-12(%rbp), %eax
	cmpl	-16(%rbp), %eax
	jge	.LBB104_6
# %bb.4:                                # %for.body
                                        #   in Loop: Header=BB104_3 Depth=1
	movq	-40(%rbp), %rax
	movq	(%rax), %rdi
	movslq	-12(%rbp), %rax
	shlq	$3, %rax
	addq	%rax, %rdi
	movl	-24(%rbp), %esi
	movl	-20(%rbp), %edx
	movl	-28(%rbp), %ecx
	callq	get_mem3Dshort
# %bb.5:                                # %for.inc
                                        #   in Loop: Header=BB104_3 Depth=1
	movl	-12(%rbp), %eax
	addl	$1, %eax
	movl	%eax, -12(%rbp)
	jmp	.LBB104_3
.LBB104_6:                              # %for.end
	movl	-16(%rbp), %eax
	imull	-24(%rbp), %eax
	imull	-20(%rbp), %eax
	imull	-28(%rbp), %eax
	movslq	%eax, %rbx
	shlq	$1, %rbx
	cmpl	$1173679539, -32(%rbp)  # imm = 0x45F4EDB3
	jne	.LBB104_8
.LBB104_7:
	movl	%ebx, %eax
	addq	$40, %rsp
	popq	%rbx
	popq	%rbp
	.cfi_def_cfa %rsp, 8
	retq
.LBB104_8:                              # %func_exit
	.cfi_def_cfa %rbp, 16
	callq	detect_breach
	jmp	.LBB104_7
.Lfunc_end104:
	.size	get_mem4Dshort.78, .Lfunc_end104-get_mem4Dshort.78
	.cfi_endproc
                                        # -- End function
	.globl	free_mem3Dint64.79      # -- Begin function free_mem3Dint64.79
	.p2align	4, 0x90
	.type	free_mem3Dint64.79,@function
free_mem3Dint64.79:                     # @free_mem3Dint64.79
	.cfi_startproc
# %bb.0:                                # %entry
	pushq	%rbp
	.cfi_def_cfa_offset 16
	.cfi_offset %rbp, -16
	movq	%rsp, %rbp
	.cfi_def_cfa_register %rbp
	subq	$32, %rsp
	movl	$1341123323, -24(%rbp)  # imm = 0x4FEFEAFB
	movq	%rdi, -16(%rbp)
	movl	%esi, -20(%rbp)
	cmpq	$0, -16(%rbp)
	je	.LBB105_6
# %bb.1:                                # %if.then
	movl	$0, -4(%rbp)
.LBB105_2:                              # %for.cond
                                        # =>This Inner Loop Header: Depth=1
	movl	-4(%rbp), %eax
	cmpl	-20(%rbp), %eax
	jge	.LBB105_5
# %bb.3:                                # %for.body
                                        #   in Loop: Header=BB105_2 Depth=1
	movq	-16(%rbp), %rax
	movslq	-4(%rbp), %rcx
	movq	(%rax,%rcx,8), %rdi
	callq	free_mem2Dint64
# %bb.4:                                # %for.inc
                                        #   in Loop: Header=BB105_2 Depth=1
	movl	-4(%rbp), %eax
	addl	$1, %eax
	movl	%eax, -4(%rbp)
	jmp	.LBB105_2
.LBB105_5:                              # %for.end
	movq	-16(%rbp), %rdi
	callq	free
	jmp	.LBB105_7
.LBB105_6:                              # %if.else
	movabsq	$.L.str.18, %rdi
	movl	$100, %esi
	callq	error
.LBB105_7:                              # %if.end
	cmpl	$1341123323, -24(%rbp)  # imm = 0x4FEFEAFB
	jne	.LBB105_9
.LBB105_8:
	addq	$32, %rsp
	popq	%rbp
	.cfi_def_cfa %rsp, 8
	retq
.LBB105_9:                              # %func_exit
	.cfi_def_cfa %rbp, 16
	callq	detect_breach
	jmp	.LBB105_8
.Lfunc_end105:
	.size	free_mem3Dint64.79, .Lfunc_end105-free_mem3Dint64.79
	.cfi_endproc
                                        # -- End function
	.globl	get_mem2Dpel.80         # -- Begin function get_mem2Dpel.80
	.p2align	4, 0x90
	.type	get_mem2Dpel.80,@function
get_mem2Dpel.80:                        # @get_mem2Dpel.80
	.cfi_startproc
# %bb.0:                                # %entry
	pushq	%rbp
	.cfi_def_cfa_offset 16
	.cfi_offset %rbp, -16
	movq	%rsp, %rbp
	.cfi_def_cfa_register %rbp
	pushq	%rbx
	subq	$40, %rsp
	.cfi_offset %rbx, -24
	movl	$453176905, -36(%rbp)   # imm = 0x1B02EE49
	movq	%rdi, -32(%rbp)
	movl	%esi, -16(%rbp)
	movl	%edx, -20(%rbp)
	movslq	-16(%rbp), %rdi
	movl	$8, %esi
	callq	calloc
	movq	-32(%rbp), %rcx
	movq	%rax, (%rcx)
	cmpq	$0, %rax
	jne	.LBB106_2
# %bb.1:                                # %if.then
	movabsq	$.L.str.2, %rdi
	callq	no_mem_exit
.LBB106_2:                              # %if.end
	movl	-16(%rbp), %eax
	imull	-20(%rbp), %eax
	movslq	%eax, %rdi
	movl	$2, %esi
	callq	calloc
	movq	-32(%rbp), %rcx
	movq	(%rcx), %rcx
	movq	%rax, (%rcx)
	cmpq	$0, %rax
	jne	.LBB106_4
# %bb.3:                                # %if.then6
	movabsq	$.L.str.2, %rdi
	callq	no_mem_exit
.LBB106_4:                              # %if.end7
	movl	$1, -12(%rbp)
.LBB106_5:                              # %for.cond
                                        # =>This Inner Loop Header: Depth=1
	movl	-12(%rbp), %eax
	cmpl	-16(%rbp), %eax
	jge	.LBB106_8
# %bb.6:                                # %for.body
                                        #   in Loop: Header=BB106_5 Depth=1
	movq	-32(%rbp), %rax
	movq	(%rax), %rax
	movl	-12(%rbp), %ecx
	subl	$1, %ecx
	movslq	%ecx, %rcx
	movq	(%rax,%rcx,8), %rax
	movslq	-20(%rbp), %rcx
	shlq	$1, %rcx
	addq	%rcx, %rax
	movq	-32(%rbp), %rcx
	movq	(%rcx), %rcx
	movslq	-12(%rbp), %rdx
	movq	%rax, (%rcx,%rdx,8)
# %bb.7:                                # %for.inc
                                        #   in Loop: Header=BB106_5 Depth=1
	movl	-12(%rbp), %eax
	addl	$1, %eax
	movl	%eax, -12(%rbp)
	jmp	.LBB106_5
.LBB106_8:                              # %for.end
	movl	-16(%rbp), %eax
	imull	-20(%rbp), %eax
	movslq	%eax, %rbx
	shlq	$1, %rbx
	cmpl	$453176905, -36(%rbp)   # imm = 0x1B02EE49
	jne	.LBB106_10
.LBB106_9:
	movl	%ebx, %eax
	addq	$40, %rsp
	popq	%rbx
	popq	%rbp
	.cfi_def_cfa %rsp, 8
	retq
.LBB106_10:                             # %func_exit
	.cfi_def_cfa %rbp, 16
	callq	detect_breach
	jmp	.LBB106_9
.Lfunc_end106:
	.size	get_mem2Dpel.80, .Lfunc_end106-get_mem2Dpel.80
	.cfi_endproc
                                        # -- End function
	.globl	free_mem3Dpel.81        # -- Begin function free_mem3Dpel.81
	.p2align	4, 0x90
	.type	free_mem3Dpel.81,@function
free_mem3Dpel.81:                       # @free_mem3Dpel.81
	.cfi_startproc
# %bb.0:                                # %entry
	pushq	%rbp
	.cfi_def_cfa_offset 16
	.cfi_offset %rbp, -16
	movq	%rsp, %rbp
	.cfi_def_cfa_register %rbp
	subq	$32, %rsp
	movl	$1929873309, -24(%rbp)  # imm = 0x7307879D
	movq	%rdi, -16(%rbp)
	movl	%esi, -20(%rbp)
	cmpq	$0, -16(%rbp)
	je	.LBB107_6
# %bb.1:                                # %if.then
	movl	$0, -4(%rbp)
.LBB107_2:                              # %for.cond
                                        # =>This Inner Loop Header: Depth=1
	movl	-4(%rbp), %eax
	cmpl	-20(%rbp), %eax
	jge	.LBB107_5
# %bb.3:                                # %for.body
                                        #   in Loop: Header=BB107_2 Depth=1
	movq	-16(%rbp), %rax
	movslq	-4(%rbp), %rcx
	movq	(%rax,%rcx,8), %rdi
	callq	free_mem2Dpel
# %bb.4:                                # %for.inc
                                        #   in Loop: Header=BB107_2 Depth=1
	movl	-4(%rbp), %eax
	addl	$1, %eax
	movl	%eax, -4(%rbp)
	jmp	.LBB107_2
.LBB107_5:                              # %for.end
	movq	-16(%rbp), %rdi
	callq	free
	jmp	.LBB107_7
.LBB107_6:                              # %if.else
	movabsq	$.L.str.5, %rdi
	movl	$100, %esi
	callq	error
.LBB107_7:                              # %if.end
	cmpl	$1929873309, -24(%rbp)  # imm = 0x7307879D
	jne	.LBB107_9
.LBB107_8:
	addq	$32, %rsp
	popq	%rbp
	.cfi_def_cfa %rsp, 8
	retq
.LBB107_9:                              # %func_exit
	.cfi_def_cfa %rbp, 16
	callq	detect_breach
	jmp	.LBB107_8
.Lfunc_end107:
	.size	free_mem3Dpel.81, .Lfunc_end107-free_mem3Dpel.81
	.cfi_endproc
                                        # -- End function
	.globl	get_mem2Dint64.82       # -- Begin function get_mem2Dint64.82
	.p2align	4, 0x90
	.type	get_mem2Dint64.82,@function
get_mem2Dint64.82:                      # @get_mem2Dint64.82
	.cfi_startproc
# %bb.0:                                # %entry
	pushq	%rbp
	.cfi_def_cfa_offset 16
	.cfi_offset %rbp, -16
	movq	%rsp, %rbp
	.cfi_def_cfa_register %rbp
	pushq	%rbx
	subq	$40, %rsp
	.cfi_offset %rbx, -24
	movl	$1925588047, -36(%rbp)  # imm = 0x72C6244F
	movq	%rdi, -32(%rbp)
	movl	%esi, -16(%rbp)
	movl	%edx, -20(%rbp)
	movslq	-16(%rbp), %rdi
	movl	$8, %esi
	callq	calloc
	movq	-32(%rbp), %rcx
	movq	%rax, (%rcx)
	cmpq	$0, %rax
	jne	.LBB108_2
# %bb.1:                                # %if.then
	movabsq	$.L.str.8, %rdi
	callq	no_mem_exit
.LBB108_2:                              # %if.end
	movl	-16(%rbp), %eax
	imull	-20(%rbp), %eax
	movslq	%eax, %rdi
	movl	$8, %esi
	callq	calloc
	movq	-32(%rbp), %rcx
	movq	(%rcx), %rcx
	movq	%rax, (%rcx)
	cmpq	$0, %rax
	jne	.LBB108_4
# %bb.3:                                # %if.then6
	movabsq	$.L.str.8, %rdi
	callq	no_mem_exit
.LBB108_4:                              # %if.end7
	movl	$1, -12(%rbp)
.LBB108_5:                              # %for.cond
                                        # =>This Inner Loop Header: Depth=1
	movl	-12(%rbp), %eax
	cmpl	-16(%rbp), %eax
	jge	.LBB108_8
# %bb.6:                                # %for.body
                                        #   in Loop: Header=BB108_5 Depth=1
	movq	-32(%rbp), %rax
	movq	(%rax), %rax
	movl	-12(%rbp), %ecx
	subl	$1, %ecx
	movslq	%ecx, %rcx
	movq	(%rax,%rcx,8), %rax
	movslq	-20(%rbp), %rcx
	shlq	$3, %rcx
	addq	%rcx, %rax
	movq	-32(%rbp), %rcx
	movq	(%rcx), %rcx
	movslq	-12(%rbp), %rdx
	movq	%rax, (%rcx,%rdx,8)
# %bb.7:                                # %for.inc
                                        #   in Loop: Header=BB108_5 Depth=1
	movl	-12(%rbp), %eax
	addl	$1, %eax
	movl	%eax, -12(%rbp)
	jmp	.LBB108_5
.LBB108_8:                              # %for.end
	movl	-16(%rbp), %eax
	imull	-20(%rbp), %eax
	movslq	%eax, %rbx
	shlq	$3, %rbx
	cmpl	$1925588047, -36(%rbp)  # imm = 0x72C6244F
	jne	.LBB108_10
.LBB108_9:
	movl	%ebx, %eax
	addq	$40, %rsp
	popq	%rbx
	popq	%rbp
	.cfi_def_cfa %rsp, 8
	retq
.LBB108_10:                             # %func_exit
	.cfi_def_cfa %rbp, 16
	callq	detect_breach
	jmp	.LBB108_9
.Lfunc_end108:
	.size	get_mem2Dint64.82, .Lfunc_end108-get_mem2Dint64.82
	.cfi_endproc
                                        # -- End function
	.globl	free_mem4Dint.83        # -- Begin function free_mem4Dint.83
	.p2align	4, 0x90
	.type	free_mem4Dint.83,@function
free_mem4Dint.83:                       # @free_mem4Dint.83
	.cfi_startproc
# %bb.0:                                # %entry
	pushq	%rbp
	.cfi_def_cfa_offset 16
	.cfi_offset %rbp, -16
	movq	%rsp, %rbp
	.cfi_def_cfa_register %rbp
	subq	$32, %rsp
	movl	$1665921400, -28(%rbp)  # imm = 0x634BF178
	movq	%rdi, -16(%rbp)
	movl	%esi, -20(%rbp)
	movl	%edx, -24(%rbp)
	cmpq	$0, -16(%rbp)
	je	.LBB109_6
# %bb.1:                                # %if.then
	movl	$0, -4(%rbp)
.LBB109_2:                              # %for.cond
                                        # =>This Inner Loop Header: Depth=1
	movl	-4(%rbp), %eax
	cmpl	-20(%rbp), %eax
	jge	.LBB109_5
# %bb.3:                                # %for.body
                                        #   in Loop: Header=BB109_2 Depth=1
	movq	-16(%rbp), %rax
	movslq	-4(%rbp), %rcx
	movq	(%rax,%rcx,8), %rdi
	movl	-24(%rbp), %esi
	callq	free_mem3Dint
# %bb.4:                                # %for.inc
                                        #   in Loop: Header=BB109_2 Depth=1
	movl	-4(%rbp), %eax
	addl	$1, %eax
	movl	%eax, -4(%rbp)
	jmp	.LBB109_2
.LBB109_5:                              # %for.end
	movq	-16(%rbp), %rdi
	callq	free
	jmp	.LBB109_7
.LBB109_6:                              # %if.else
	movabsq	$.L.str.19, %rdi
	movl	$100, %esi
	callq	error
.LBB109_7:                              # %if.end
	cmpl	$1665921400, -28(%rbp)  # imm = 0x634BF178
	jne	.LBB109_9
.LBB109_8:
	addq	$32, %rsp
	popq	%rbp
	.cfi_def_cfa %rsp, 8
	retq
.LBB109_9:                              # %func_exit
	.cfi_def_cfa %rbp, 16
	callq	detect_breach
	jmp	.LBB109_8
.Lfunc_end109:
	.size	free_mem4Dint.83, .Lfunc_end109-free_mem4Dint.83
	.cfi_endproc
                                        # -- End function
	.globl	free_mem4Dshort.84      # -- Begin function free_mem4Dshort.84
	.p2align	4, 0x90
	.type	free_mem4Dshort.84,@function
free_mem4Dshort.84:                     # @free_mem4Dshort.84
	.cfi_startproc
# %bb.0:                                # %entry
	pushq	%rbp
	.cfi_def_cfa_offset 16
	.cfi_offset %rbp, -16
	movq	%rsp, %rbp
	.cfi_def_cfa_register %rbp
	subq	$32, %rsp
	movl	$1731208117, -20(%rbp)  # imm = 0x673023B5
	movq	%rdi, -16(%rbp)
	movl	%esi, -28(%rbp)
	movl	%edx, -24(%rbp)
	cmpq	$0, -16(%rbp)
	je	.LBB110_6
# %bb.1:                                # %if.then
	movl	$0, -4(%rbp)
.LBB110_2:                              # %for.cond
                                        # =>This Inner Loop Header: Depth=1
	movl	-4(%rbp), %eax
	cmpl	-28(%rbp), %eax
	jge	.LBB110_5
# %bb.3:                                # %for.body
                                        #   in Loop: Header=BB110_2 Depth=1
	movq	-16(%rbp), %rax
	movslq	-4(%rbp), %rcx
	movq	(%rax,%rcx,8), %rdi
	movl	-24(%rbp), %esi
	callq	free_mem3Dshort
# %bb.4:                                # %for.inc
                                        #   in Loop: Header=BB110_2 Depth=1
	movl	-4(%rbp), %eax
	addl	$1, %eax
	movl	%eax, -4(%rbp)
	jmp	.LBB110_2
.LBB110_5:                              # %for.end
	movq	-16(%rbp), %rdi
	callq	free
	jmp	.LBB110_7
.LBB110_6:                              # %if.else
	movabsq	$.L.str.26, %rdi
	movl	$100, %esi
	callq	error
.LBB110_7:                              # %if.end
	cmpl	$1731208117, -20(%rbp)  # imm = 0x673023B5
	jne	.LBB110_9
.LBB110_8:
	addq	$32, %rsp
	popq	%rbp
	.cfi_def_cfa %rsp, 8
	retq
.LBB110_9:                              # %func_exit
	.cfi_def_cfa %rbp, 16
	callq	detect_breach
	jmp	.LBB110_8
.Lfunc_end110:
	.size	free_mem4Dshort.84, .Lfunc_end110-free_mem4Dshort.84
	.cfi_endproc
                                        # -- End function
	.globl	get_mem4Dshort.85       # -- Begin function get_mem4Dshort.85
	.p2align	4, 0x90
	.type	get_mem4Dshort.85,@function
get_mem4Dshort.85:                      # @get_mem4Dshort.85
	.cfi_startproc
# %bb.0:                                # %entry
	pushq	%rbp
	.cfi_def_cfa_offset 16
	.cfi_offset %rbp, -16
	movq	%rsp, %rbp
	.cfi_def_cfa_register %rbp
	pushq	%rbx
	subq	$40, %rsp
	.cfi_offset %rbx, -24
	movl	$1564083508, -32(%rbp)  # imm = 0x5D3A0534
	movq	%rdi, -40(%rbp)
	movl	%esi, -16(%rbp)
	movl	%edx, -20(%rbp)
	movl	%ecx, -28(%rbp)
	movl	%r8d, -24(%rbp)
	movslq	-16(%rbp), %rdi
	movl	$8, %esi
	callq	calloc
	movq	-40(%rbp), %rcx
	movq	%rax, (%rcx)
	cmpq	$0, %rax
	jne	.LBB111_2
# %bb.1:                                # %if.then
	movabsq	$.L.str.23, %rdi
	callq	no_mem_exit
.LBB111_2:                              # %if.end
	movl	$0, -12(%rbp)
.LBB111_3:                              # %for.cond
                                        # =>This Inner Loop Header: Depth=1
	movl	-12(%rbp), %eax
	cmpl	-16(%rbp), %eax
	jge	.LBB111_6
# %bb.4:                                # %for.body
                                        #   in Loop: Header=BB111_3 Depth=1
	movq	-40(%rbp), %rax
	movq	(%rax), %rdi
	movslq	-12(%rbp), %rax
	shlq	$3, %rax
	addq	%rax, %rdi
	movl	-20(%rbp), %esi
	movl	-28(%rbp), %edx
	movl	-24(%rbp), %ecx
	callq	get_mem3Dshort
# %bb.5:                                # %for.inc
                                        #   in Loop: Header=BB111_3 Depth=1
	movl	-12(%rbp), %eax
	addl	$1, %eax
	movl	%eax, -12(%rbp)
	jmp	.LBB111_3
.LBB111_6:                              # %for.end
	movl	-16(%rbp), %eax
	imull	-20(%rbp), %eax
	imull	-28(%rbp), %eax
	imull	-24(%rbp), %eax
	movslq	%eax, %rbx
	shlq	$1, %rbx
	cmpl	$1564083508, -32(%rbp)  # imm = 0x5D3A0534
	jne	.LBB111_8
.LBB111_7:
	movl	%ebx, %eax
	addq	$40, %rsp
	popq	%rbx
	popq	%rbp
	.cfi_def_cfa %rsp, 8
	retq
.LBB111_8:                              # %func_exit
	.cfi_def_cfa %rbp, 16
	callq	detect_breach
	jmp	.LBB111_7
.Lfunc_end111:
	.size	get_mem4Dshort.85, .Lfunc_end111-get_mem4Dshort.85
	.cfi_endproc
                                        # -- End function
	.globl	free_mem4Dint.86        # -- Begin function free_mem4Dint.86
	.p2align	4, 0x90
	.type	free_mem4Dint.86,@function
free_mem4Dint.86:                       # @free_mem4Dint.86
	.cfi_startproc
# %bb.0:                                # %entry
	pushq	%rbp
	.cfi_def_cfa_offset 16
	.cfi_offset %rbp, -16
	movq	%rsp, %rbp
	.cfi_def_cfa_register %rbp
	subq	$32, %rsp
	movl	$1011134849, -28(%rbp)  # imm = 0x3C44B181
	movq	%rdi, -16(%rbp)
	movl	%esi, -20(%rbp)
	movl	%edx, -24(%rbp)
	cmpq	$0, -16(%rbp)
	je	.LBB112_6
# %bb.1:                                # %if.then
	movl	$0, -4(%rbp)
.LBB112_2:                              # %for.cond
                                        # =>This Inner Loop Header: Depth=1
	movl	-4(%rbp), %eax
	cmpl	-20(%rbp), %eax
	jge	.LBB112_5
# %bb.3:                                # %for.body
                                        #   in Loop: Header=BB112_2 Depth=1
	movq	-16(%rbp), %rax
	movslq	-4(%rbp), %rcx
	movq	(%rax,%rcx,8), %rdi
	movl	-24(%rbp), %esi
	callq	free_mem3Dint
# %bb.4:                                # %for.inc
                                        #   in Loop: Header=BB112_2 Depth=1
	movl	-4(%rbp), %eax
	addl	$1, %eax
	movl	%eax, -4(%rbp)
	jmp	.LBB112_2
.LBB112_5:                              # %for.end
	movq	-16(%rbp), %rdi
	callq	free
	jmp	.LBB112_7
.LBB112_6:                              # %if.else
	movabsq	$.L.str.19, %rdi
	movl	$100, %esi
	callq	error
.LBB112_7:                              # %if.end
	cmpl	$1011134849, -28(%rbp)  # imm = 0x3C44B181
	jne	.LBB112_9
.LBB112_8:
	addq	$32, %rsp
	popq	%rbp
	.cfi_def_cfa %rsp, 8
	retq
.LBB112_9:                              # %func_exit
	.cfi_def_cfa %rbp, 16
	callq	detect_breach
	jmp	.LBB112_8
.Lfunc_end112:
	.size	free_mem4Dint.86, .Lfunc_end112-free_mem4Dint.86
	.cfi_endproc
                                        # -- End function
	.globl	get_mem2Dint64.87       # -- Begin function get_mem2Dint64.87
	.p2align	4, 0x90
	.type	get_mem2Dint64.87,@function
get_mem2Dint64.87:                      # @get_mem2Dint64.87
	.cfi_startproc
# %bb.0:                                # %entry
	pushq	%rbp
	.cfi_def_cfa_offset 16
	.cfi_offset %rbp, -16
	movq	%rsp, %rbp
	.cfi_def_cfa_register %rbp
	pushq	%rbx
	subq	$40, %rsp
	.cfi_offset %rbx, -24
	movl	$1708476852, -36(%rbp)  # imm = 0x65D549B4
	movq	%rdi, -32(%rbp)
	movl	%esi, -16(%rbp)
	movl	%edx, -20(%rbp)
	movslq	-16(%rbp), %rdi
	movl	$8, %esi
	callq	calloc
	movq	-32(%rbp), %rcx
	movq	%rax, (%rcx)
	cmpq	$0, %rax
	jne	.LBB113_2
# %bb.1:                                # %if.then
	movabsq	$.L.str.8, %rdi
	callq	no_mem_exit
.LBB113_2:                              # %if.end
	movl	-16(%rbp), %eax
	imull	-20(%rbp), %eax
	movslq	%eax, %rdi
	movl	$8, %esi
	callq	calloc
	movq	-32(%rbp), %rcx
	movq	(%rcx), %rcx
	movq	%rax, (%rcx)
	cmpq	$0, %rax
	jne	.LBB113_4
# %bb.3:                                # %if.then6
	movabsq	$.L.str.8, %rdi
	callq	no_mem_exit
.LBB113_4:                              # %if.end7
	movl	$1, -12(%rbp)
.LBB113_5:                              # %for.cond
                                        # =>This Inner Loop Header: Depth=1
	movl	-12(%rbp), %eax
	cmpl	-16(%rbp), %eax
	jge	.LBB113_8
# %bb.6:                                # %for.body
                                        #   in Loop: Header=BB113_5 Depth=1
	movq	-32(%rbp), %rax
	movq	(%rax), %rax
	movl	-12(%rbp), %ecx
	subl	$1, %ecx
	movslq	%ecx, %rcx
	movq	(%rax,%rcx,8), %rax
	movslq	-20(%rbp), %rcx
	shlq	$3, %rcx
	addq	%rcx, %rax
	movq	-32(%rbp), %rcx
	movq	(%rcx), %rcx
	movslq	-12(%rbp), %rdx
	movq	%rax, (%rcx,%rdx,8)
# %bb.7:                                # %for.inc
                                        #   in Loop: Header=BB113_5 Depth=1
	movl	-12(%rbp), %eax
	addl	$1, %eax
	movl	%eax, -12(%rbp)
	jmp	.LBB113_5
.LBB113_8:                              # %for.end
	movl	-16(%rbp), %eax
	imull	-20(%rbp), %eax
	movslq	%eax, %rbx
	shlq	$3, %rbx
	cmpl	$1708476852, -36(%rbp)  # imm = 0x65D549B4
	jne	.LBB113_10
.LBB113_9:
	movl	%ebx, %eax
	addq	$40, %rsp
	popq	%rbx
	popq	%rbp
	.cfi_def_cfa %rsp, 8
	retq
.LBB113_10:                             # %func_exit
	.cfi_def_cfa %rbp, 16
	callq	detect_breach
	jmp	.LBB113_9
.Lfunc_end113:
	.size	get_mem2Dint64.87, .Lfunc_end113-get_mem2Dint64.87
	.cfi_endproc
                                        # -- End function
	.globl	get_mem2D.88            # -- Begin function get_mem2D.88
	.p2align	4, 0x90
	.type	get_mem2D.88,@function
get_mem2D.88:                           # @get_mem2D.88
	.cfi_startproc
# %bb.0:                                # %entry
	pushq	%rbp
	.cfi_def_cfa_offset 16
	.cfi_offset %rbp, -16
	movq	%rsp, %rbp
	.cfi_def_cfa_register %rbp
	pushq	%rbx
	subq	$40, %rsp
	.cfi_offset %rbx, -24
	movl	$1936985168, -36(%rbp)  # imm = 0x73740C50
	movq	%rdi, -32(%rbp)
	movl	%esi, -16(%rbp)
	movl	%edx, -20(%rbp)
	movslq	-16(%rbp), %rdi
	movl	$8, %esi
	callq	calloc
	movq	-32(%rbp), %rcx
	movq	%rax, (%rcx)
	cmpq	$0, %rax
	jne	.LBB114_2
# %bb.1:                                # %if.then
	movabsq	$.L.str.6, %rdi
	callq	no_mem_exit
.LBB114_2:                              # %if.end
	movl	-20(%rbp), %eax
	imull	-16(%rbp), %eax
	movslq	%eax, %rdi
	movl	$1, %esi
	callq	calloc
	movq	-32(%rbp), %rcx
	movq	(%rcx), %rcx
	movq	%rax, (%rcx)
	cmpq	$0, %rax
	jne	.LBB114_4
# %bb.3:                                # %if.then6
	movabsq	$.L.str.6, %rdi
	callq	no_mem_exit
.LBB114_4:                              # %if.end7
	movl	$1, -12(%rbp)
.LBB114_5:                              # %for.cond
                                        # =>This Inner Loop Header: Depth=1
	movl	-12(%rbp), %eax
	cmpl	-16(%rbp), %eax
	jge	.LBB114_8
# %bb.6:                                # %for.body
                                        #   in Loop: Header=BB114_5 Depth=1
	movq	-32(%rbp), %rax
	movq	(%rax), %rax
	movl	-12(%rbp), %ecx
	subl	$1, %ecx
	movslq	%ecx, %rcx
	movq	(%rax,%rcx,8), %rax
	movslq	-20(%rbp), %rcx
	addq	%rcx, %rax
	movq	-32(%rbp), %rcx
