	.text
	.file	"memalloc.c"
	.globl	init_top_bot_planes     # -- Begin function init_top_bot_planes
	.p2align	4, 0x90
	.type	init_top_bot_planes,@function
init_top_bot_planes:                    # @init_top_bot_planes
	.cfi_startproc
# %bb.0:                                # %rand_bb
	pushq	%rbp
	.cfi_def_cfa_offset 16
	.cfi_offset %rbp, -16
	movq	%rsp, %rbp
	.cfi_def_cfa_register %rbp
	pushq	%r15
	pushq	%r14
	pushq	%r13
	pushq	%r12
	pushq	%rbx
	pushq	%rax
	.cfi_offset %rbx, -56
	.cfi_offset %r12, -48
	.cfi_offset %r13, -40
	.cfi_offset %r14, -32
	.cfi_offset %r15, -24
	movq	%r8, %r14
	movq	%rcx, %r15
	movl	%edx, %r12d
	movl	%esi, %r13d
	movq	%rdi, %rbx
	callq	get_urand
	cmpl	$0, %eax
	jne	.LBB0_17
# %bb.1:                                # %func_init_top_bot_planes.13
	movq	%rbx, %rdi
	movl	%r13d, %esi
	movl	%r12d, %edx
	movq	%r15, %rcx
	movq	%r14, %r8
	callq	init_top_bot_planes.13
	addq	$8, %rsp
	popq	%rbx
	popq	%r12
	popq	%r13
	popq	%r14
	popq	%r15
	popq	%rbp
	.cfi_def_cfa %rsp, 8
	retq
.LBB0_2:                                # %func_init_top_bot_planes.50
	.cfi_def_cfa %rbp, 16
	movq	%rbx, %rdi
	movl	%r13d, %esi
	movl	%r12d, %edx
	movq	%r15, %rcx
	movq	%r14, %r8
	callq	init_top_bot_planes.50
	addq	$8, %rsp
	popq	%rbx
	popq	%r12
	popq	%r13
	popq	%r14
	popq	%r15
	popq	%rbp
	.cfi_def_cfa %rsp, 8
	retq
.LBB0_3:                                # %func_init_top_bot_planes.69
	.cfi_def_cfa %rbp, 16
	movq	%rbx, %rdi
	movl	%r13d, %esi
	movl	%r12d, %edx
	movq	%r15, %rcx
	movq	%r14, %r8
	callq	init_top_bot_planes.69
	addq	$8, %rsp
	popq	%rbx
	popq	%r12
	popq	%r13
	popq	%r14
	popq	%r15
	popq	%rbp
	.cfi_def_cfa %rsp, 8
	retq
.LBB0_4:                                # %func_init_top_bot_planes.90
	.cfi_def_cfa %rbp, 16
	movq	%rbx, %rdi
	movl	%r13d, %esi
	movl	%r12d, %edx
	movq	%r15, %rcx
	movq	%r14, %r8
	callq	init_top_bot_planes.90
	addq	$8, %rsp
	popq	%rbx
	popq	%r12
	popq	%r13
	popq	%r14
	popq	%r15
	popq	%rbp
	.cfi_def_cfa %rsp, 8
	retq
.LBB0_5:                                # %func_init_top_bot_planes.127
	.cfi_def_cfa %rbp, 16
	movq	%rbx, %rdi
	movl	%r13d, %esi
	movl	%r12d, %edx
	movq	%r15, %rcx
	movq	%r14, %r8
	callq	init_top_bot_planes.127
	addq	$8, %rsp
	popq	%rbx
	popq	%r12
	popq	%r13
	popq	%r14
	popq	%r15
	popq	%rbp
	.cfi_def_cfa %rsp, 8
	retq
.LBB0_6:                                # %func_init_top_bot_planes.131
	.cfi_def_cfa %rbp, 16
	movq	%rbx, %rdi
	movl	%r13d, %esi
	movl	%r12d, %edx
	movq	%r15, %rcx
	movq	%r14, %r8
	callq	init_top_bot_planes.131
	addq	$8, %rsp
	popq	%rbx
	popq	%r12
	popq	%r13
	popq	%r14
	popq	%r15
	popq	%rbp
	.cfi_def_cfa %rsp, 8
	retq
.LBB0_7:                                # %func_init_top_bot_planes.139
	.cfi_def_cfa %rbp, 16
	movq	%rbx, %rdi
	movl	%r13d, %esi
	movl	%r12d, %edx
	movq	%r15, %rcx
	movq	%r14, %r8
	callq	init_top_bot_planes.139
	addq	$8, %rsp
	popq	%rbx
	popq	%r12
	popq	%r13
	popq	%r14
	popq	%r15
	popq	%rbp
	.cfi_def_cfa %rsp, 8
	retq
.LBB0_8:                                # %func_init_top_bot_planes.148
	.cfi_def_cfa %rbp, 16
	movq	%rbx, %rdi
	movl	%r13d, %esi
	movl	%r12d, %edx
	movq	%r15, %rcx
	movq	%r14, %r8
	callq	init_top_bot_planes.148
	addq	$8, %rsp
	popq	%rbx
	popq	%r12
	popq	%r13
	popq	%r14
	popq	%r15
	popq	%rbp
	.cfi_def_cfa %rsp, 8
	retq
.LBB0_9:                                # %func_init_top_bot_planes.149
	.cfi_def_cfa %rbp, 16
	movq	%rbx, %rdi
	movl	%r13d, %esi
	movl	%r12d, %edx
	movq	%r15, %rcx
	movq	%r14, %r8
	callq	init_top_bot_planes.149
	addq	$8, %rsp
	popq	%rbx
	popq	%r12
	popq	%r13
	popq	%r14
	popq	%r15
	popq	%rbp
	.cfi_def_cfa %rsp, 8
	retq
.LBB0_10:                               # %func_init_top_bot_planes.166
	.cfi_def_cfa %rbp, 16
	movq	%rbx, %rdi
	movl	%r13d, %esi
	movl	%r12d, %edx
	movq	%r15, %rcx
	movq	%r14, %r8
	callq	init_top_bot_planes.166
	addq	$8, %rsp
	popq	%rbx
	popq	%r12
	popq	%r13
	popq	%r14
	popq	%r15
	popq	%rbp
	.cfi_def_cfa %rsp, 8
	retq
.LBB0_11:                               # %func_init_top_bot_planes.204
	.cfi_def_cfa %rbp, 16
	movq	%rbx, %rdi
	movl	%r13d, %esi
	movl	%r12d, %edx
	movq	%r15, %rcx
	movq	%r14, %r8
	callq	init_top_bot_planes.204
	addq	$8, %rsp
	popq	%rbx
	popq	%r12
	popq	%r13
	popq	%r14
	popq	%r15
	popq	%rbp
	.cfi_def_cfa %rsp, 8
	retq
.LBB0_12:                               # %func_init_top_bot_planes.207
	.cfi_def_cfa %rbp, 16
	movq	%rbx, %rdi
	movl	%r13d, %esi
	movl	%r12d, %edx
	movq	%r15, %rcx
	movq	%r14, %r8
	callq	init_top_bot_planes.207
	addq	$8, %rsp
	popq	%rbx
	popq	%r12
	popq	%r13
	popq	%r14
	popq	%r15
	popq	%rbp
	.cfi_def_cfa %rsp, 8
	retq
.LBB0_13:                               # %func_init_top_bot_planes.212
	.cfi_def_cfa %rbp, 16
	movq	%rbx, %rdi
	movl	%r13d, %esi
	movl	%r12d, %edx
	movq	%r15, %rcx
	movq	%r14, %r8
	callq	init_top_bot_planes.212
	addq	$8, %rsp
	popq	%rbx
	popq	%r12
	popq	%r13
	popq	%r14
	popq	%r15
	popq	%rbp
	.cfi_def_cfa %rsp, 8
	retq
.LBB0_14:                               # %func_init_top_bot_planes.247
	.cfi_def_cfa %rbp, 16
	movq	%rbx, %rdi
	movl	%r13d, %esi
	movl	%r12d, %edx
	movq	%r15, %rcx
	movq	%r14, %r8
	callq	init_top_bot_planes.247
	addq	$8, %rsp
	popq	%rbx
	popq	%r12
	popq	%r13
	popq	%r14
	popq	%r15
	popq	%rbp
	.cfi_def_cfa %rsp, 8
	retq
.LBB0_15:                               # %func_init_top_bot_planes.256
	.cfi_def_cfa %rbp, 16
	movq	%rbx, %rdi
	movl	%r13d, %esi
	movl	%r12d, %edx
	movq	%r15, %rcx
	movq	%r14, %r8
	callq	init_top_bot_planes.256
	addq	$8, %rsp
	popq	%rbx
	popq	%r12
	popq	%r13
	popq	%r14
	popq	%r15
	popq	%rbp
	.cfi_def_cfa %rsp, 8
	retq
.LBB0_16:                               # %func_init_top_bot_planes.258
	.cfi_def_cfa %rbp, 16
	movq	%rbx, %rdi
	movl	%r13d, %esi
	movl	%r12d, %edx
	movq	%r15, %rcx
	movq	%r14, %r8
	callq	init_top_bot_planes.258
	addq	$8, %rsp
	popq	%rbx
	popq	%r12
	popq	%r13
	popq	%r14
	popq	%r15
	popq	%rbp
	.cfi_def_cfa %rsp, 8
	retq
.LBB0_17:                               # %ctrl0
	.cfi_def_cfa %rbp, 16
	cmpl	$1, %eax
	je	.LBB0_2
# %bb.18:                               # %ctrl1
	cmpl	$2, %eax
	je	.LBB0_3
# %bb.19:                               # %ctrl2
	cmpl	$3, %eax
	je	.LBB0_4
# %bb.20:                               # %ctrl3
	cmpl	$4, %eax
	je	.LBB0_5
# %bb.21:                               # %ctrl4
	cmpl	$5, %eax
	je	.LBB0_6
# %bb.22:                               # %ctrl5
	cmpl	$6, %eax
	je	.LBB0_7
# %bb.23:                               # %ctrl6
	cmpl	$7, %eax
	je	.LBB0_8
# %bb.24:                               # %ctrl7
	cmpl	$8, %eax
	je	.LBB0_9
# %bb.25:                               # %ctrl8
	cmpl	$9, %eax
	je	.LBB0_10
# %bb.26:                               # %ctrl9
	cmpl	$10, %eax
	je	.LBB0_11
# %bb.27:                               # %ctrl10
	cmpl	$11, %eax
	je	.LBB0_12
# %bb.28:                               # %ctrl11
	cmpl	$12, %eax
	je	.LBB0_13
# %bb.29:                               # %ctrl12
	cmpl	$13, %eax
	je	.LBB0_14
# %bb.30:                               # %ctrl13
	cmpl	$14, %eax
	je	.LBB0_15
	jmp	.LBB0_16
.Lfunc_end0:
	.size	init_top_bot_planes, .Lfunc_end0-init_top_bot_planes
	.cfi_endproc
                                        # -- End function
	.globl	no_mem_exit             # -- Begin function no_mem_exit
	.p2align	4, 0x90
	.type	no_mem_exit,@function
no_mem_exit:                            # @no_mem_exit
	.cfi_startproc
# %bb.0:                                # %entry
	pushq	%rbp
	.cfi_def_cfa_offset 16
	.cfi_offset %rbp, -16
	movq	%rsp, %rbp
	.cfi_def_cfa_register %rbp
	subq	$16, %rsp
	movq	%rdi, -8(%rbp)
	movq	-8(%rbp), %rcx
	movabsq	$errortext, %rdi
	movl	$300, %esi              # imm = 0x12C
	movabsq	$.L.str.20, %rdx
	movb	$0, %al
	callq	snprintf
	movabsq	$errortext, %rdi
	movl	$100, %esi
	callq	error
	addq	$16, %rsp
	popq	%rbp
	.cfi_def_cfa %rsp, 8
	retq
.Lfunc_end1:
	.size	no_mem_exit, .Lfunc_end1-no_mem_exit
	.cfi_endproc
                                        # -- End function
	.globl	free_top_bot_planes     # -- Begin function free_top_bot_planes
	.p2align	4, 0x90
	.type	free_top_bot_planes,@function
free_top_bot_planes:                    # @free_top_bot_planes
	.cfi_startproc
# %bb.0:                                # %rand_bb
	pushq	%rbp
	.cfi_def_cfa_offset 16
	.cfi_offset %rbp, -16
	movq	%rsp, %rbp
	.cfi_def_cfa_register %rbp
	pushq	%r14
	pushq	%rbx
	.cfi_offset %rbx, -32
	.cfi_offset %r14, -24
	movq	%rsi, %r14
	movq	%rdi, %rbx
	callq	get_urand
	cmpl	$0, %eax
	jne	.LBB2_2
# %bb.1:                                # %func_free_top_bot_planes.12
	movq	%rbx, %rdi
	movq	%r14, %rsi
	callq	free_top_bot_planes.12
	popq	%rbx
	popq	%r14
	popq	%rbp
	.cfi_def_cfa %rsp, 8
	retq
.LBB2_2:                                # %func_free_top_bot_planes.15
	.cfi_def_cfa %rbp, 16
	movq	%rbx, %rdi
	movq	%r14, %rsi
	callq	free_top_bot_planes.15
	popq	%rbx
	popq	%r14
	popq	%rbp
	.cfi_def_cfa %rsp, 8
	retq
.Lfunc_end2:
	.size	free_top_bot_planes, .Lfunc_end2-free_top_bot_planes
	.cfi_endproc
                                        # -- End function
	.globl	get_mem2Dpel            # -- Begin function get_mem2Dpel
	.p2align	4, 0x90
	.type	get_mem2Dpel,@function
get_mem2Dpel:                           # @get_mem2Dpel
	.cfi_startproc
# %bb.0:                                # %rand_bb
	pushq	%rbp
	.cfi_def_cfa_offset 16
	.cfi_offset %rbp, -16
	movq	%rsp, %rbp
	.cfi_def_cfa_register %rbp
	pushq	%r15
	pushq	%r14
	pushq	%rbx
	pushq	%rax
	.cfi_offset %rbx, -40
	.cfi_offset %r14, -32
	.cfi_offset %r15, -24
	movl	%edx, %r14d
	movl	%esi, %r15d
	movq	%rdi, %rbx
	callq	get_urand
	cmpl	$0, %eax
	jne	.LBB3_17
# %bb.1:                                # %func_get_mem2Dpel.2
	movq	%rbx, %rdi
	movl	%r15d, %esi
	movl	%r14d, %edx
	callq	get_mem2Dpel.2
	addq	$8, %rsp
	popq	%rbx
	popq	%r14
	popq	%r15
	popq	%rbp
	.cfi_def_cfa %rsp, 8
	retq
.LBB3_2:                                # %func_get_mem2Dpel.8
	.cfi_def_cfa %rbp, 16
	movq	%rbx, %rdi
	movl	%r15d, %esi
	movl	%r14d, %edx
	callq	get_mem2Dpel.8
	addq	$8, %rsp
	popq	%rbx
	popq	%r14
	popq	%r15
	popq	%rbp
	.cfi_def_cfa %rsp, 8
	retq
.LBB3_3:                                # %func_get_mem2Dpel.58
	.cfi_def_cfa %rbp, 16
	movq	%rbx, %rdi
	movl	%r15d, %esi
	movl	%r14d, %edx
	callq	get_mem2Dpel.58
	addq	$8, %rsp
	popq	%rbx
	popq	%r14
	popq	%r15
	popq	%rbp
	.cfi_def_cfa %rsp, 8
	retq
.LBB3_4:                                # %func_get_mem2Dpel.81
	.cfi_def_cfa %rbp, 16
	movq	%rbx, %rdi
	movl	%r15d, %esi
	movl	%r14d, %edx
	callq	get_mem2Dpel.81
	addq	$8, %rsp
	popq	%rbx
	popq	%r14
	popq	%r15
	popq	%rbp
	.cfi_def_cfa %rsp, 8
	retq
.LBB3_5:                                # %func_get_mem2Dpel.85
	.cfi_def_cfa %rbp, 16
	movq	%rbx, %rdi
	movl	%r15d, %esi
	movl	%r14d, %edx
	callq	get_mem2Dpel.85
	addq	$8, %rsp
	popq	%rbx
	popq	%r14
	popq	%r15
	popq	%rbp
	.cfi_def_cfa %rsp, 8
	retq
.LBB3_6:                                # %func_get_mem2Dpel.95
	.cfi_def_cfa %rbp, 16
	movq	%rbx, %rdi
	movl	%r15d, %esi
	movl	%r14d, %edx
	callq	get_mem2Dpel.95
	addq	$8, %rsp
	popq	%rbx
	popq	%r14
	popq	%r15
	popq	%rbp
	.cfi_def_cfa %rsp, 8
	retq
.LBB3_7:                                # %func_get_mem2Dpel.106
	.cfi_def_cfa %rbp, 16
	movq	%rbx, %rdi
	movl	%r15d, %esi
	movl	%r14d, %edx
	callq	get_mem2Dpel.106
	addq	$8, %rsp
	popq	%rbx
	popq	%r14
	popq	%r15
	popq	%rbp
	.cfi_def_cfa %rsp, 8
	retq
.LBB3_8:                                # %func_get_mem2Dpel.117
	.cfi_def_cfa %rbp, 16
	movq	%rbx, %rdi
	movl	%r15d, %esi
	movl	%r14d, %edx
	callq	get_mem2Dpel.117
	addq	$8, %rsp
	popq	%rbx
	popq	%r14
	popq	%r15
	popq	%rbp
	.cfi_def_cfa %rsp, 8
	retq
.LBB3_9:                                # %func_get_mem2Dpel.123
	.cfi_def_cfa %rbp, 16
	movq	%rbx, %rdi
	movl	%r15d, %esi
	movl	%r14d, %edx
	callq	get_mem2Dpel.123
	addq	$8, %rsp
	popq	%rbx
	popq	%r14
	popq	%r15
	popq	%rbp
	.cfi_def_cfa %rsp, 8
	retq
.LBB3_10:                               # %func_get_mem2Dpel.145
	.cfi_def_cfa %rbp, 16
	movq	%rbx, %rdi
	movl	%r15d, %esi
	movl	%r14d, %edx
	callq	get_mem2Dpel.145
	addq	$8, %rsp
	popq	%rbx
	popq	%r14
	popq	%r15
	popq	%rbp
	.cfi_def_cfa %rsp, 8
	retq
.LBB3_11:                               # %func_get_mem2Dpel.177
	.cfi_def_cfa %rbp, 16
	movq	%rbx, %rdi
	movl	%r15d, %esi
	movl	%r14d, %edx
	callq	get_mem2Dpel.177
	addq	$8, %rsp
	popq	%rbx
	popq	%r14
	popq	%r15
	popq	%rbp
	.cfi_def_cfa %rsp, 8
	retq
.LBB3_12:                               # %func_get_mem2Dpel.180
	.cfi_def_cfa %rbp, 16
	movq	%rbx, %rdi
	movl	%r15d, %esi
	movl	%r14d, %edx
	callq	get_mem2Dpel.180
	addq	$8, %rsp
	popq	%rbx
	popq	%r14
	popq	%r15
	popq	%rbp
	.cfi_def_cfa %rsp, 8
	retq
.LBB3_13:                               # %func_get_mem2Dpel.183
	.cfi_def_cfa %rbp, 16
	movq	%rbx, %rdi
	movl	%r15d, %esi
	movl	%r14d, %edx
	callq	get_mem2Dpel.183
	addq	$8, %rsp
	popq	%rbx
	popq	%r14
	popq	%r15
	popq	%rbp
	.cfi_def_cfa %rsp, 8
	retq
.LBB3_14:                               # %func_get_mem2Dpel.198
	.cfi_def_cfa %rbp, 16
	movq	%rbx, %rdi
	movl	%r15d, %esi
	movl	%r14d, %edx
	callq	get_mem2Dpel.198
	addq	$8, %rsp
	popq	%rbx
	popq	%r14
	popq	%r15
	popq	%rbp
	.cfi_def_cfa %rsp, 8
	retq
.LBB3_15:                               # %func_get_mem2Dpel.213
	.cfi_def_cfa %rbp, 16
	movq	%rbx, %rdi
	movl	%r15d, %esi
	movl	%r14d, %edx
	callq	get_mem2Dpel.213
	addq	$8, %rsp
	popq	%rbx
	popq	%r14
	popq	%r15
	popq	%rbp
	.cfi_def_cfa %rsp, 8
	retq
.LBB3_16:                               # %func_get_mem2Dpel.219
	.cfi_def_cfa %rbp, 16
	movq	%rbx, %rdi
	movl	%r15d, %esi
	movl	%r14d, %edx
	callq	get_mem2Dpel.219
	addq	$8, %rsp
	popq	%rbx
	popq	%r14
	popq	%r15
	popq	%rbp
	.cfi_def_cfa %rsp, 8
	retq
.LBB3_17:                               # %ctrl0
	.cfi_def_cfa %rbp, 16
	cmpl	$1, %eax
	je	.LBB3_2
# %bb.18:                               # %ctrl1
	cmpl	$2, %eax
	je	.LBB3_3
# %bb.19:                               # %ctrl2
	cmpl	$3, %eax
	je	.LBB3_4
# %bb.20:                               # %ctrl3
	cmpl	$4, %eax
	je	.LBB3_5
# %bb.21:                               # %ctrl4
	cmpl	$5, %eax
	je	.LBB3_6
# %bb.22:                               # %ctrl5
	cmpl	$6, %eax
	je	.LBB3_7
# %bb.23:                               # %ctrl6
	cmpl	$7, %eax
	je	.LBB3_8
# %bb.24:                               # %ctrl7
	cmpl	$8, %eax
	je	.LBB3_9
# %bb.25:                               # %ctrl8
	cmpl	$9, %eax
	je	.LBB3_10
# %bb.26:                               # %ctrl9
	cmpl	$10, %eax
	je	.LBB3_11
# %bb.27:                               # %ctrl10
	cmpl	$11, %eax
	je	.LBB3_12
# %bb.28:                               # %ctrl11
	cmpl	$12, %eax
	je	.LBB3_13
# %bb.29:                               # %ctrl12
	cmpl	$13, %eax
	je	.LBB3_14
# %bb.30:                               # %ctrl13
	cmpl	$14, %eax
	je	.LBB3_15
	jmp	.LBB3_16
.Lfunc_end3:
	.size	get_mem2Dpel, .Lfunc_end3-get_mem2Dpel
	.cfi_endproc
                                        # -- End function
	.globl	get_mem3Dpel            # -- Begin function get_mem3Dpel
	.p2align	4, 0x90
	.type	get_mem3Dpel,@function
get_mem3Dpel:                           # @get_mem3Dpel
	.cfi_startproc
# %bb.0:                                # %rand_bb
	pushq	%rbp
	.cfi_def_cfa_offset 16
	.cfi_offset %rbp, -16
	movq	%rsp, %rbp
	.cfi_def_cfa_register %rbp
	pushq	%r15
	pushq	%r14
	pushq	%r12
	pushq	%rbx
	.cfi_offset %rbx, -48
	.cfi_offset %r12, -40
	.cfi_offset %r14, -32
	.cfi_offset %r15, -24
	movl	%ecx, %r14d
	movl	%edx, %r15d
	movl	%esi, %r12d
	movq	%rdi, %rbx
	callq	get_urand
	cmpl	$0, %eax
	jne	.LBB4_17
# %bb.1:                                # %func_get_mem3Dpel.9
	movq	%rbx, %rdi
	movl	%r12d, %esi
	movl	%r15d, %edx
	movl	%r14d, %ecx
	callq	get_mem3Dpel.9
	popq	%rbx
	popq	%r12
	popq	%r14
	popq	%r15
	popq	%rbp
	.cfi_def_cfa %rsp, 8
	retq
.LBB4_2:                                # %func_get_mem3Dpel.43
	.cfi_def_cfa %rbp, 16
	movq	%rbx, %rdi
	movl	%r12d, %esi
	movl	%r15d, %edx
	movl	%r14d, %ecx
	callq	get_mem3Dpel.43
	popq	%rbx
	popq	%r12
	popq	%r14
	popq	%r15
	popq	%rbp
	.cfi_def_cfa %rsp, 8
	retq
.LBB4_3:                                # %func_get_mem3Dpel.59
	.cfi_def_cfa %rbp, 16
	movq	%rbx, %rdi
	movl	%r12d, %esi
	movl	%r15d, %edx
	movl	%r14d, %ecx
	callq	get_mem3Dpel.59
	popq	%rbx
	popq	%r12
	popq	%r14
	popq	%r15
	popq	%rbp
	.cfi_def_cfa %rsp, 8
	retq
.LBB4_4:                                # %func_get_mem3Dpel.79
	.cfi_def_cfa %rbp, 16
	movq	%rbx, %rdi
	movl	%r12d, %esi
	movl	%r15d, %edx
	movl	%r14d, %ecx
	callq	get_mem3Dpel.79
	popq	%rbx
	popq	%r12
	popq	%r14
	popq	%r15
	popq	%rbp
	.cfi_def_cfa %rsp, 8
	retq
.LBB4_5:                                # %func_get_mem3Dpel.91
	.cfi_def_cfa %rbp, 16
	movq	%rbx, %rdi
	movl	%r12d, %esi
	movl	%r15d, %edx
	movl	%r14d, %ecx
	callq	get_mem3Dpel.91
	popq	%rbx
	popq	%r12
	popq	%r14
	popq	%r15
	popq	%rbp
	.cfi_def_cfa %rsp, 8
	retq
.LBB4_6:                                # %func_get_mem3Dpel.128
	.cfi_def_cfa %rbp, 16
	movq	%rbx, %rdi
	movl	%r12d, %esi
	movl	%r15d, %edx
	movl	%r14d, %ecx
	callq	get_mem3Dpel.128
	popq	%rbx
	popq	%r12
	popq	%r14
	popq	%r15
	popq	%rbp
	.cfi_def_cfa %rsp, 8
	retq
.LBB4_7:                                # %func_get_mem3Dpel.142
	.cfi_def_cfa %rbp, 16
	movq	%rbx, %rdi
	movl	%r12d, %esi
	movl	%r15d, %edx
	movl	%r14d, %ecx
	callq	get_mem3Dpel.142
	popq	%rbx
	popq	%r12
	popq	%r14
	popq	%r15
	popq	%rbp
	.cfi_def_cfa %rsp, 8
	retq
.LBB4_8:                                # %func_get_mem3Dpel.185
	.cfi_def_cfa %rbp, 16
	movq	%rbx, %rdi
	movl	%r12d, %esi
	movl	%r15d, %edx
	movl	%r14d, %ecx
	callq	get_mem3Dpel.185
	popq	%rbx
	popq	%r12
	popq	%r14
	popq	%r15
	popq	%rbp
	.cfi_def_cfa %rsp, 8
	retq
.LBB4_9:                                # %func_get_mem3Dpel.192
	.cfi_def_cfa %rbp, 16
	movq	%rbx, %rdi
	movl	%r12d, %esi
	movl	%r15d, %edx
	movl	%r14d, %ecx
	callq	get_mem3Dpel.192
	popq	%rbx
	popq	%r12
	popq	%r14
	popq	%r15
	popq	%rbp
	.cfi_def_cfa %rsp, 8
	retq
.LBB4_10:                               # %func_get_mem3Dpel.202
	.cfi_def_cfa %rbp, 16
	movq	%rbx, %rdi
	movl	%r12d, %esi
	movl	%r15d, %edx
	movl	%r14d, %ecx
	callq	get_mem3Dpel.202
	popq	%rbx
	popq	%r12
	popq	%r14
	popq	%r15
	popq	%rbp
	.cfi_def_cfa %rsp, 8
	retq
.LBB4_11:                               # %func_get_mem3Dpel.221
	.cfi_def_cfa %rbp, 16
	movq	%rbx, %rdi
	movl	%r12d, %esi
	movl	%r15d, %edx
	movl	%r14d, %ecx
	callq	get_mem3Dpel.221
	popq	%rbx
	popq	%r12
	popq	%r14
	popq	%r15
	popq	%rbp
	.cfi_def_cfa %rsp, 8
	retq
.LBB4_12:                               # %func_get_mem3Dpel.243
	.cfi_def_cfa %rbp, 16
	movq	%rbx, %rdi
	movl	%r12d, %esi
	movl	%r15d, %edx
	movl	%r14d, %ecx
	callq	get_mem3Dpel.243
	popq	%rbx
	popq	%r12
	popq	%r14
	popq	%r15
	popq	%rbp
	.cfi_def_cfa %rsp, 8
	retq
.LBB4_13:                               # %func_get_mem3Dpel.246
	.cfi_def_cfa %rbp, 16
	movq	%rbx, %rdi
	movl	%r12d, %esi
	movl	%r15d, %edx
	movl	%r14d, %ecx
	callq	get_mem3Dpel.246
	popq	%rbx
	popq	%r12
	popq	%r14
	popq	%r15
	popq	%rbp
	.cfi_def_cfa %rsp, 8
	retq
.LBB4_14:                               # %func_get_mem3Dpel.248
	.cfi_def_cfa %rbp, 16
	movq	%rbx, %rdi
	movl	%r12d, %esi
	movl	%r15d, %edx
	movl	%r14d, %ecx
	callq	get_mem3Dpel.248
	popq	%rbx
	popq	%r12
	popq	%r14
	popq	%r15
	popq	%rbp
	.cfi_def_cfa %rsp, 8
	retq
.LBB4_15:                               # %func_get_mem3Dpel.259
	.cfi_def_cfa %rbp, 16
	movq	%rbx, %rdi
	movl	%r12d, %esi
	movl	%r15d, %edx
	movl	%r14d, %ecx
	callq	get_mem3Dpel.259
	popq	%rbx
	popq	%r12
	popq	%r14
	popq	%r15
	popq	%rbp
	.cfi_def_cfa %rsp, 8
	retq
.LBB4_16:                               # %func_get_mem3Dpel.264
	.cfi_def_cfa %rbp, 16
	movq	%rbx, %rdi
	movl	%r12d, %esi
	movl	%r15d, %edx
	movl	%r14d, %ecx
	callq	get_mem3Dpel.264
	popq	%rbx
	popq	%r12
	popq	%r14
	popq	%r15
	popq	%rbp
	.cfi_def_cfa %rsp, 8
	retq
.LBB4_17:                               # %ctrl0
	.cfi_def_cfa %rbp, 16
	cmpl	$1, %eax
	je	.LBB4_2
# %bb.18:                               # %ctrl1
	cmpl	$2, %eax
	je	.LBB4_3
# %bb.19:                               # %ctrl2
	cmpl	$3, %eax
	je	.LBB4_4
# %bb.20:                               # %ctrl3
	cmpl	$4, %eax
	je	.LBB4_5
# %bb.21:                               # %ctrl4
	cmpl	$5, %eax
	je	.LBB4_6
# %bb.22:                               # %ctrl5
	cmpl	$6, %eax
	je	.LBB4_7
# %bb.23:                               # %ctrl6
	cmpl	$7, %eax
	je	.LBB4_8
# %bb.24:                               # %ctrl7
	cmpl	$8, %eax
	je	.LBB4_9
# %bb.25:                               # %ctrl8
	cmpl	$9, %eax
	je	.LBB4_10
# %bb.26:                               # %ctrl9
	cmpl	$10, %eax
	je	.LBB4_11
# %bb.27:                               # %ctrl10
	cmpl	$11, %eax
	je	.LBB4_12
# %bb.28:                               # %ctrl11
	cmpl	$12, %eax
	je	.LBB4_13
# %bb.29:                               # %ctrl12
	cmpl	$13, %eax
	je	.LBB4_14
# %bb.30:                               # %ctrl13
	cmpl	$14, %eax
	je	.LBB4_15
	jmp	.LBB4_16
.Lfunc_end4:
	.size	get_mem3Dpel, .Lfunc_end4-get_mem3Dpel
	.cfi_endproc
                                        # -- End function
	.globl	free_mem2Dpel           # -- Begin function free_mem2Dpel
	.p2align	4, 0x90
	.type	free_mem2Dpel,@function
free_mem2Dpel:                          # @free_mem2Dpel
	.cfi_startproc
# %bb.0:                                # %entry
	pushq	%rbp
	.cfi_def_cfa_offset 16
	.cfi_offset %rbp, -16
	movq	%rsp, %rbp
	.cfi_def_cfa_register %rbp
	subq	$16, %rsp
	movq	%rdi, -8(%rbp)
	cmpq	$0, -8(%rbp)
	je	.LBB5_5
# %bb.1:                                # %if.then
	movq	-8(%rbp), %rax
	cmpq	$0, (%rax)
	je	.LBB5_3
# %bb.2:                                # %if.then2
	movq	-8(%rbp), %rax
	movq	(%rax), %rdi
	callq	free
	jmp	.LBB5_4
.LBB5_3:                                # %if.else
	movabsq	$.L.str.4, %rdi
	movl	$100, %esi
	callq	error
.LBB5_4:                                # %if.end
	movq	-8(%rbp), %rdi
	callq	free
	jmp	.LBB5_6
.LBB5_5:                                # %if.else4
	movabsq	$.L.str.4, %rdi
	movl	$100, %esi
	callq	error
.LBB5_6:                                # %if.end5
	addq	$16, %rsp
	popq	%rbp
	.cfi_def_cfa %rsp, 8
	retq
.Lfunc_end5:
	.size	free_mem2Dpel, .Lfunc_end5-free_mem2Dpel
	.cfi_endproc
                                        # -- End function
	.globl	free_mem3Dpel           # -- Begin function free_mem3Dpel
	.p2align	4, 0x90
	.type	free_mem3Dpel,@function
free_mem3Dpel:                          # @free_mem3Dpel
	.cfi_startproc
# %bb.0:                                # %rand_bb
	pushq	%rbp
	.cfi_def_cfa_offset 16
	.cfi_offset %rbp, -16
	movq	%rsp, %rbp
	.cfi_def_cfa_register %rbp
	pushq	%r14
	pushq	%rbx
	.cfi_offset %rbx, -32
	.cfi_offset %r14, -24
	movl	%esi, %r14d
	movq	%rdi, %rbx
	callq	get_urand
	cmpl	$0, %eax
	jne	.LBB6_7
# %bb.1:                                # %func_free_mem3Dpel.49
	movq	%rbx, %rdi
	movl	%r14d, %esi
	callq	free_mem3Dpel.49
	popq	%rbx
	popq	%r14
	popq	%rbp
	.cfi_def_cfa %rsp, 8
	retq
.LBB6_2:                                # %func_free_mem3Dpel.54
	.cfi_def_cfa %rbp, 16
	movq	%rbx, %rdi
	movl	%r14d, %esi
	callq	free_mem3Dpel.54
	popq	%rbx
	popq	%r14
	popq	%rbp
	.cfi_def_cfa %rsp, 8
	retq
.LBB6_3:                                # %func_free_mem3Dpel.96
	.cfi_def_cfa %rbp, 16
	movq	%rbx, %rdi
	movl	%r14d, %esi
	callq	free_mem3Dpel.96
	popq	%rbx
	popq	%r14
	popq	%rbp
	.cfi_def_cfa %rsp, 8
	retq
.LBB6_4:                                # %func_free_mem3Dpel.109
	.cfi_def_cfa %rbp, 16
	movq	%rbx, %rdi
	movl	%r14d, %esi
	callq	free_mem3Dpel.109
	popq	%rbx
	popq	%r14
	popq	%rbp
	.cfi_def_cfa %rsp, 8
	retq
.LBB6_5:                                # %func_free_mem3Dpel.115
	.cfi_def_cfa %rbp, 16
	movq	%rbx, %rdi
	movl	%r14d, %esi
	callq	free_mem3Dpel.115
	popq	%rbx
	popq	%r14
	popq	%rbp
	.cfi_def_cfa %rsp, 8
	retq
.LBB6_6:                                # %func_free_mem3Dpel.118
	.cfi_def_cfa %rbp, 16
	movq	%rbx, %rdi
	movl	%r14d, %esi
	callq	free_mem3Dpel.118
	popq	%rbx
	popq	%r14
	popq	%rbp
	.cfi_def_cfa %rsp, 8
	retq
.LBB6_7:                                # %ctrl0
	.cfi_def_cfa %rbp, 16
	cmpl	$1, %eax
	je	.LBB6_2
# %bb.8:                                # %ctrl1
	cmpl	$2, %eax
	je	.LBB6_3
# %bb.9:                                # %ctrl2
	cmpl	$3, %eax
	je	.LBB6_4
# %bb.10:                               # %ctrl3
	cmpl	$4, %eax
	je	.LBB6_5
	jmp	.LBB6_6
.Lfunc_end6:
	.size	free_mem3Dpel, .Lfunc_end6-free_mem3Dpel
	.cfi_endproc
                                        # -- End function
	.globl	get_mem2D               # -- Begin function get_mem2D
	.p2align	4, 0x90
	.type	get_mem2D,@function
get_mem2D:                              # @get_mem2D
	.cfi_startproc
# %bb.0:                                # %rand_bb
	pushq	%rbp
	.cfi_def_cfa_offset 16
	.cfi_offset %rbp, -16
	movq	%rsp, %rbp
	.cfi_def_cfa_register %rbp
	pushq	%r15
	pushq	%r14
	pushq	%rbx
	pushq	%rax
	.cfi_offset %rbx, -40
	.cfi_offset %r14, -32
	.cfi_offset %r15, -24
	movl	%edx, %r14d
	movl	%esi, %r15d
	movq	%rdi, %rbx
	callq	get_urand
	cmpl	$0, %eax
	jne	.LBB7_17
# %bb.1:                                # %func_get_mem2D.41
	movq	%rbx, %rdi
	movl	%r15d, %esi
	movl	%r14d, %edx
	callq	get_mem2D.41
	addq	$8, %rsp
	popq	%rbx
	popq	%r14
	popq	%r15
	popq	%rbp
	.cfi_def_cfa %rsp, 8
	retq
.LBB7_2:                                # %func_get_mem2D.101
	.cfi_def_cfa %rbp, 16
	movq	%rbx, %rdi
	movl	%r15d, %esi
	movl	%r14d, %edx
	callq	get_mem2D.101
	addq	$8, %rsp
	popq	%rbx
	popq	%r14
	popq	%r15
	popq	%rbp
	.cfi_def_cfa %rsp, 8
	retq
.LBB7_3:                                # %func_get_mem2D.102
	.cfi_def_cfa %rbp, 16
	movq	%rbx, %rdi
	movl	%r15d, %esi
	movl	%r14d, %edx
	callq	get_mem2D.102
	addq	$8, %rsp
	popq	%rbx
	popq	%r14
	popq	%r15
	popq	%rbp
	.cfi_def_cfa %rsp, 8
	retq
.LBB7_4:                                # %func_get_mem2D.107
	.cfi_def_cfa %rbp, 16
	movq	%rbx, %rdi
	movl	%r15d, %esi
	movl	%r14d, %edx
	callq	get_mem2D.107
	addq	$8, %rsp
	popq	%rbx
	popq	%r14
	popq	%r15
	popq	%rbp
	.cfi_def_cfa %rsp, 8
	retq
.LBB7_5:                                # %func_get_mem2D.112
	.cfi_def_cfa %rbp, 16
	movq	%rbx, %rdi
	movl	%r15d, %esi
	movl	%r14d, %edx
	callq	get_mem2D.112
	addq	$8, %rsp
	popq	%rbx
	popq	%r14
	popq	%r15
	popq	%rbp
	.cfi_def_cfa %rsp, 8
	retq
.LBB7_6:                                # %func_get_mem2D.141
	.cfi_def_cfa %rbp, 16
	movq	%rbx, %rdi
	movl	%r15d, %esi
	movl	%r14d, %edx
	callq	get_mem2D.141
	addq	$8, %rsp
	popq	%rbx
	popq	%r14
	popq	%r15
	popq	%rbp
	.cfi_def_cfa %rsp, 8
	retq
.LBB7_7:                                # %func_get_mem2D.156
	.cfi_def_cfa %rbp, 16
	movq	%rbx, %rdi
	movl	%r15d, %esi
	movl	%r14d, %edx
	callq	get_mem2D.156
	addq	$8, %rsp
	popq	%rbx
	popq	%r14
	popq	%r15
	popq	%rbp
	.cfi_def_cfa %rsp, 8
	retq
.LBB7_8:                                # %func_get_mem2D.181
	.cfi_def_cfa %rbp, 16
	movq	%rbx, %rdi
	movl	%r15d, %esi
	movl	%r14d, %edx
	callq	get_mem2D.181
	addq	$8, %rsp
	popq	%rbx
	popq	%r14
	popq	%r15
	popq	%rbp
	.cfi_def_cfa %rsp, 8
	retq
.LBB7_9:                                # %func_get_mem2D.186
	.cfi_def_cfa %rbp, 16
	movq	%rbx, %rdi
	movl	%r15d, %esi
	movl	%r14d, %edx
	callq	get_mem2D.186
	addq	$8, %rsp
	popq	%rbx
	popq	%r14
	popq	%r15
	popq	%rbp
	.cfi_def_cfa %rsp, 8
	retq
.LBB7_10:                               # %func_get_mem2D.195
	.cfi_def_cfa %rbp, 16
	movq	%rbx, %rdi
	movl	%r15d, %esi
	movl	%r14d, %edx
	callq	get_mem2D.195
	addq	$8, %rsp
	popq	%rbx
	popq	%r14
	popq	%r15
	popq	%rbp
	.cfi_def_cfa %rsp, 8
	retq
.LBB7_11:                               # %func_get_mem2D.201
	.cfi_def_cfa %rbp, 16
	movq	%rbx, %rdi
	movl	%r15d, %esi
	movl	%r14d, %edx
	callq	get_mem2D.201
	addq	$8, %rsp
	popq	%rbx
	popq	%r14
	popq	%r15
	popq	%rbp
	.cfi_def_cfa %rsp, 8
	retq
.LBB7_12:                               # %func_get_mem2D.225
	.cfi_def_cfa %rbp, 16
	movq	%rbx, %rdi
	movl	%r15d, %esi
	movl	%r14d, %edx
	callq	get_mem2D.225
	addq	$8, %rsp
	popq	%rbx
	popq	%r14
	popq	%r15
	popq	%rbp
	.cfi_def_cfa %rsp, 8
	retq
.LBB7_13:                               # %func_get_mem2D.226
	.cfi_def_cfa %rbp, 16
	movq	%rbx, %rdi
	movl	%r15d, %esi
	movl	%r14d, %edx
	callq	get_mem2D.226
	addq	$8, %rsp
	popq	%rbx
	popq	%r14
	popq	%r15
	popq	%rbp
	.cfi_def_cfa %rsp, 8
	retq
.LBB7_14:                               # %func_get_mem2D.233
	.cfi_def_cfa %rbp, 16
	movq	%rbx, %rdi
	movl	%r15d, %esi
	movl	%r14d, %edx
	callq	get_mem2D.233
	addq	$8, %rsp
	popq	%rbx
	popq	%r14
	popq	%r15
	popq	%rbp
	.cfi_def_cfa %rsp, 8
	retq
.LBB7_15:                               # %func_get_mem2D.235
	.cfi_def_cfa %rbp, 16
	movq	%rbx, %rdi
	movl	%r15d, %esi
	movl	%r14d, %edx
	callq	get_mem2D.235
	addq	$8, %rsp
	popq	%rbx
	popq	%r14
	popq	%r15
	popq	%rbp
	.cfi_def_cfa %rsp, 8
	retq
.LBB7_16:                               # %func_get_mem2D.236
	.cfi_def_cfa %rbp, 16
	movq	%rbx, %rdi
	movl	%r15d, %esi
	movl	%r14d, %edx
	callq	get_mem2D.236
	addq	$8, %rsp
	popq	%rbx
	popq	%r14
	popq	%r15
	popq	%rbp
	.cfi_def_cfa %rsp, 8
	retq
.LBB7_17:                               # %ctrl0
	.cfi_def_cfa %rbp, 16
	cmpl	$1, %eax
	je	.LBB7_2
# %bb.18:                               # %ctrl1
	cmpl	$2, %eax
	je	.LBB7_3
# %bb.19:                               # %ctrl2
	cmpl	$3, %eax
	je	.LBB7_4
# %bb.20:                               # %ctrl3
	cmpl	$4, %eax
	je	.LBB7_5
# %bb.21:                               # %ctrl4
	cmpl	$5, %eax
	je	.LBB7_6
# %bb.22:                               # %ctrl5
	cmpl	$6, %eax
	je	.LBB7_7
# %bb.23:                               # %ctrl6
	cmpl	$7, %eax
	je	.LBB7_8
# %bb.24:                               # %ctrl7
	cmpl	$8, %eax
	je	.LBB7_9
# %bb.25:                               # %ctrl8
	cmpl	$9, %eax
	je	.LBB7_10
# %bb.26:                               # %ctrl9
	cmpl	$10, %eax
	je	.LBB7_11
# %bb.27:                               # %ctrl10
	cmpl	$11, %eax
	je	.LBB7_12
# %bb.28:                               # %ctrl11
	cmpl	$12, %eax
	je	.LBB7_13
# %bb.29:                               # %ctrl12
	cmpl	$13, %eax
	je	.LBB7_14
# %bb.30:                               # %ctrl13
	cmpl	$14, %eax
	je	.LBB7_15
	jmp	.LBB7_16
.Lfunc_end7:
	.size	get_mem2D, .Lfunc_end7-get_mem2D
	.cfi_endproc
                                        # -- End function
	.globl	get_mem2Dint            # -- Begin function get_mem2Dint
	.p2align	4, 0x90
	.type	get_mem2Dint,@function
get_mem2Dint:                           # @get_mem2Dint
	.cfi_startproc
# %bb.0:                                # %rand_bb
	pushq	%rbp
	.cfi_def_cfa_offset 16
	.cfi_offset %rbp, -16
	movq	%rsp, %rbp
	.cfi_def_cfa_register %rbp
	pushq	%r15
	pushq	%r14
	pushq	%rbx
	pushq	%rax
	.cfi_offset %rbx, -40
	.cfi_offset %r14, -32
	.cfi_offset %r15, -24
	movl	%edx, %r14d
	movl	%esi, %r15d
	movq	%rdi, %rbx
	callq	get_urand
	cmpl	$0, %eax
	jne	.LBB8_17
# %bb.1:                                # %func_get_mem2Dint.31
	movq	%rbx, %rdi
	movl	%r15d, %esi
	movl	%r14d, %edx
	callq	get_mem2Dint.31
	addq	$8, %rsp
	popq	%rbx
	popq	%r14
	popq	%r15
	popq	%rbp
	.cfi_def_cfa %rsp, 8
	retq
.LBB8_2:                                # %func_get_mem2Dint.32
	.cfi_def_cfa %rbp, 16
	movq	%rbx, %rdi
	movl	%r15d, %esi
	movl	%r14d, %edx
	callq	get_mem2Dint.32
	addq	$8, %rsp
	popq	%rbx
	popq	%r14
	popq	%r15
	popq	%rbp
	.cfi_def_cfa %rsp, 8
	retq
.LBB8_3:                                # %func_get_mem2Dint.48
	.cfi_def_cfa %rbp, 16
	movq	%rbx, %rdi
	movl	%r15d, %esi
	movl	%r14d, %edx
	callq	get_mem2Dint.48
	addq	$8, %rsp
	popq	%rbx
	popq	%r14
	popq	%r15
	popq	%rbp
	.cfi_def_cfa %rsp, 8
	retq
.LBB8_4:                                # %func_get_mem2Dint.71
	.cfi_def_cfa %rbp, 16
	movq	%rbx, %rdi
	movl	%r15d, %esi
	movl	%r14d, %edx
	callq	get_mem2Dint.71
	addq	$8, %rsp
	popq	%rbx
	popq	%r14
	popq	%r15
	popq	%rbp
	.cfi_def_cfa %rsp, 8
	retq
.LBB8_5:                                # %func_get_mem2Dint.129
	.cfi_def_cfa %rbp, 16
	movq	%rbx, %rdi
	movl	%r15d, %esi
	movl	%r14d, %edx
	callq	get_mem2Dint.129
	addq	$8, %rsp
	popq	%rbx
	popq	%r14
	popq	%r15
	popq	%rbp
	.cfi_def_cfa %rsp, 8
	retq
.LBB8_6:                                # %func_get_mem2Dint.132
	.cfi_def_cfa %rbp, 16
	movq	%rbx, %rdi
	movl	%r15d, %esi
	movl	%r14d, %edx
	callq	get_mem2Dint.132
	addq	$8, %rsp
	popq	%rbx
	popq	%r14
	popq	%r15
	popq	%rbp
	.cfi_def_cfa %rsp, 8
	retq
.LBB8_7:                                # %func_get_mem2Dint.140
	.cfi_def_cfa %rbp, 16
	movq	%rbx, %rdi
	movl	%r15d, %esi
	movl	%r14d, %edx
	callq	get_mem2Dint.140
	addq	$8, %rsp
	popq	%rbx
	popq	%r14
	popq	%r15
	popq	%rbp
	.cfi_def_cfa %rsp, 8
	retq
.LBB8_8:                                # %func_get_mem2Dint.153
	.cfi_def_cfa %rbp, 16
	movq	%rbx, %rdi
	movl	%r15d, %esi
	movl	%r14d, %edx
	callq	get_mem2Dint.153
	addq	$8, %rsp
	popq	%rbx
	popq	%r14
	popq	%r15
	popq	%rbp
	.cfi_def_cfa %rsp, 8
	retq
.LBB8_9:                                # %func_get_mem2Dint.168
	.cfi_def_cfa %rbp, 16
	movq	%rbx, %rdi
	movl	%r15d, %esi
	movl	%r14d, %edx
	callq	get_mem2Dint.168
	addq	$8, %rsp
	popq	%rbx
	popq	%r14
	popq	%r15
	popq	%rbp
	.cfi_def_cfa %rsp, 8
	retq
.LBB8_10:                               # %func_get_mem2Dint.203
	.cfi_def_cfa %rbp, 16
	movq	%rbx, %rdi
	movl	%r15d, %esi
	movl	%r14d, %edx
	callq	get_mem2Dint.203
	addq	$8, %rsp
	popq	%rbx
	popq	%r14
	popq	%r15
	popq	%rbp
	.cfi_def_cfa %rsp, 8
	retq
.LBB8_11:                               # %func_get_mem2Dint.210
	.cfi_def_cfa %rbp, 16
	movq	%rbx, %rdi
	movl	%r15d, %esi
	movl	%r14d, %edx
	callq	get_mem2Dint.210
	addq	$8, %rsp
	popq	%rbx
	popq	%r14
	popq	%r15
	popq	%rbp
	.cfi_def_cfa %rsp, 8
	retq
.LBB8_12:                               # %func_get_mem2Dint.222
	.cfi_def_cfa %rbp, 16
	movq	%rbx, %rdi
	movl	%r15d, %esi
	movl	%r14d, %edx
	callq	get_mem2Dint.222
	addq	$8, %rsp
	popq	%rbx
	popq	%r14
	popq	%r15
	popq	%rbp
	.cfi_def_cfa %rsp, 8
	retq
.LBB8_13:                               # %func_get_mem2Dint.229
	.cfi_def_cfa %rbp, 16
	movq	%rbx, %rdi
	movl	%r15d, %esi
	movl	%r14d, %edx
	callq	get_mem2Dint.229
	addq	$8, %rsp
	popq	%rbx
	popq	%r14
	popq	%r15
	popq	%rbp
	.cfi_def_cfa %rsp, 8
	retq
.LBB8_14:                               # %func_get_mem2Dint.250
	.cfi_def_cfa %rbp, 16
	movq	%rbx, %rdi
	movl	%r15d, %esi
	movl	%r14d, %edx
	callq	get_mem2Dint.250
	addq	$8, %rsp
	popq	%rbx
	popq	%r14
	popq	%r15
	popq	%rbp
	.cfi_def_cfa %rsp, 8
	retq
.LBB8_15:                               # %func_get_mem2Dint.267
	.cfi_def_cfa %rbp, 16
	movq	%rbx, %rdi
	movl	%r15d, %esi
	movl	%r14d, %edx
	callq	get_mem2Dint.267
	addq	$8, %rsp
	popq	%rbx
	popq	%r14
	popq	%r15
	popq	%rbp
	.cfi_def_cfa %rsp, 8
	retq
.LBB8_16:                               # %func_get_mem2Dint.268
	.cfi_def_cfa %rbp, 16
	movq	%rbx, %rdi
	movl	%r15d, %esi
	movl	%r14d, %edx
	callq	get_mem2Dint.268
	addq	$8, %rsp
	popq	%rbx
	popq	%r14
	popq	%r15
	popq	%rbp
	.cfi_def_cfa %rsp, 8
	retq
.LBB8_17:                               # %ctrl0
	.cfi_def_cfa %rbp, 16
	cmpl	$1, %eax
	je	.LBB8_2
# %bb.18:                               # %ctrl1
	cmpl	$2, %eax
	je	.LBB8_3
# %bb.19:                               # %ctrl2
	cmpl	$3, %eax
	je	.LBB8_4
# %bb.20:                               # %ctrl3
	cmpl	$4, %eax
	je	.LBB8_5
# %bb.21:                               # %ctrl4
	cmpl	$5, %eax
	je	.LBB8_6
# %bb.22:                               # %ctrl5
	cmpl	$6, %eax
	je	.LBB8_7
# %bb.23:                               # %ctrl6
	cmpl	$7, %eax
	je	.LBB8_8
# %bb.24:                               # %ctrl7
	cmpl	$8, %eax
	je	.LBB8_9
# %bb.25:                               # %ctrl8
	cmpl	$9, %eax
	je	.LBB8_10
# %bb.26:                               # %ctrl9
	cmpl	$10, %eax
	je	.LBB8_11
# %bb.27:                               # %ctrl10
	cmpl	$11, %eax
	je	.LBB8_12
# %bb.28:                               # %ctrl11
	cmpl	$12, %eax
	je	.LBB8_13
# %bb.29:                               # %ctrl12
	cmpl	$13, %eax
	je	.LBB8_14
# %bb.30:                               # %ctrl13
	cmpl	$14, %eax
	je	.LBB8_15
	jmp	.LBB8_16
.Lfunc_end8:
	.size	get_mem2Dint, .Lfunc_end8-get_mem2Dint
	.cfi_endproc
                                        # -- End function
	.globl	get_mem2Dint64          # -- Begin function get_mem2Dint64
	.p2align	4, 0x90
	.type	get_mem2Dint64,@function
get_mem2Dint64:                         # @get_mem2Dint64
	.cfi_startproc
# %bb.0:                                # %rand_bb
	pushq	%rbp
	.cfi_def_cfa_offset 16
	.cfi_offset %rbp, -16
	movq	%rsp, %rbp
	.cfi_def_cfa_register %rbp
	pushq	%r15
	pushq	%r14
	pushq	%rbx
	pushq	%rax
	.cfi_offset %rbx, -40
	.cfi_offset %r14, -32
	.cfi_offset %r15, -24
	movl	%edx, %r14d
	movl	%esi, %r15d
	movq	%rdi, %rbx
	callq	get_urand
	cmpl	$0, %eax
	jne	.LBB9_17
# %bb.1:                                # %func_get_mem2Dint64.16
	movq	%rbx, %rdi
	movl	%r15d, %esi
	movl	%r14d, %edx
	callq	get_mem2Dint64.16
	addq	$8, %rsp
	popq	%rbx
	popq	%r14
	popq	%r15
	popq	%rbp
	.cfi_def_cfa %rsp, 8
	retq
.LBB9_2:                                # %func_get_mem2Dint64.64
	.cfi_def_cfa %rbp, 16
	movq	%rbx, %rdi
	movl	%r15d, %esi
	movl	%r14d, %edx
	callq	get_mem2Dint64.64
	addq	$8, %rsp
	popq	%rbx
	popq	%r14
	popq	%r15
	popq	%rbp
	.cfi_def_cfa %rsp, 8
	retq
.LBB9_3:                                # %func_get_mem2Dint64.70
	.cfi_def_cfa %rbp, 16
	movq	%rbx, %rdi
	movl	%r15d, %esi
	movl	%r14d, %edx
	callq	get_mem2Dint64.70
	addq	$8, %rsp
	popq	%rbx
	popq	%r14
	popq	%r15
	popq	%rbp
	.cfi_def_cfa %rsp, 8
	retq
.LBB9_4:                                # %func_get_mem2Dint64.82
	.cfi_def_cfa %rbp, 16
	movq	%rbx, %rdi
	movl	%r15d, %esi
	movl	%r14d, %edx
	callq	get_mem2Dint64.82
	addq	$8, %rsp
	popq	%rbx
	popq	%r14
	popq	%r15
	popq	%rbp
	.cfi_def_cfa %rsp, 8
	retq
.LBB9_5:                                # %func_get_mem2Dint64.138
	.cfi_def_cfa %rbp, 16
	movq	%rbx, %rdi
	movl	%r15d, %esi
	movl	%r14d, %edx
	callq	get_mem2Dint64.138
	addq	$8, %rsp
	popq	%rbx
	popq	%r14
	popq	%r15
	popq	%rbp
	.cfi_def_cfa %rsp, 8
	retq
.LBB9_6:                                # %func_get_mem2Dint64.144
	.cfi_def_cfa %rbp, 16
	movq	%rbx, %rdi
	movl	%r15d, %esi
	movl	%r14d, %edx
	callq	get_mem2Dint64.144
	addq	$8, %rsp
	popq	%rbx
	popq	%r14
	popq	%r15
	popq	%rbp
	.cfi_def_cfa %rsp, 8
	retq
.LBB9_7:                                # %func_get_mem2Dint64.172
	.cfi_def_cfa %rbp, 16
	movq	%rbx, %rdi
	movl	%r15d, %esi
	movl	%r14d, %edx
	callq	get_mem2Dint64.172
	addq	$8, %rsp
	popq	%rbx
	popq	%r14
	popq	%r15
	popq	%rbp
	.cfi_def_cfa %rsp, 8
	retq
.LBB9_8:                                # %func_get_mem2Dint64.174
	.cfi_def_cfa %rbp, 16
	movq	%rbx, %rdi
	movl	%r15d, %esi
	movl	%r14d, %edx
	callq	get_mem2Dint64.174
	addq	$8, %rsp
	popq	%rbx
	popq	%r14
	popq	%r15
	popq	%rbp
	.cfi_def_cfa %rsp, 8
	retq
.LBB9_9:                                # %func_get_mem2Dint64.176
	.cfi_def_cfa %rbp, 16
	movq	%rbx, %rdi
	movl	%r15d, %esi
	movl	%r14d, %edx
	callq	get_mem2Dint64.176
	addq	$8, %rsp
	popq	%rbx
	popq	%r14
	popq	%r15
	popq	%rbp
	.cfi_def_cfa %rsp, 8
	retq
.LBB9_10:                               # %func_get_mem2Dint64.178
	.cfi_def_cfa %rbp, 16
	movq	%rbx, %rdi
	movl	%r15d, %esi
	movl	%r14d, %edx
	callq	get_mem2Dint64.178
	addq	$8, %rsp
	popq	%rbx
	popq	%r14
	popq	%r15
	popq	%rbp
	.cfi_def_cfa %rsp, 8
	retq
.LBB9_11:                               # %func_get_mem2Dint64.179
	.cfi_def_cfa %rbp, 16
	movq	%rbx, %rdi
	movl	%r15d, %esi
	movl	%r14d, %edx
	callq	get_mem2Dint64.179
	addq	$8, %rsp
	popq	%rbx
	popq	%r14
	popq	%r15
	popq	%rbp
	.cfi_def_cfa %rsp, 8
	retq
.LBB9_12:                               # %func_get_mem2Dint64.182
	.cfi_def_cfa %rbp, 16
	movq	%rbx, %rdi
	movl	%r15d, %esi
	movl	%r14d, %edx
	callq	get_mem2Dint64.182
	addq	$8, %rsp
	popq	%rbx
	popq	%r14
	popq	%r15
	popq	%rbp
	.cfi_def_cfa %rsp, 8
	retq
.LBB9_13:                               # %func_get_mem2Dint64.200
	.cfi_def_cfa %rbp, 16
	movq	%rbx, %rdi
	movl	%r15d, %esi
	movl	%r14d, %edx
	callq	get_mem2Dint64.200
	addq	$8, %rsp
	popq	%rbx
	popq	%r14
	popq	%r15
	popq	%rbp
	.cfi_def_cfa %rsp, 8
	retq
.LBB9_14:                               # %func_get_mem2Dint64.208
	.cfi_def_cfa %rbp, 16
	movq	%rbx, %rdi
	movl	%r15d, %esi
	movl	%r14d, %edx
	callq	get_mem2Dint64.208
	addq	$8, %rsp
	popq	%rbx
	popq	%r14
	popq	%r15
	popq	%rbp
	.cfi_def_cfa %rsp, 8
	retq
.LBB9_15:                               # %func_get_mem2Dint64.240
	.cfi_def_cfa %rbp, 16
	movq	%rbx, %rdi
	movl	%r15d, %esi
	movl	%r14d, %edx
	callq	get_mem2Dint64.240
	addq	$8, %rsp
	popq	%rbx
	popq	%r14
	popq	%r15
	popq	%rbp
	.cfi_def_cfa %rsp, 8
	retq
.LBB9_16:                               # %func_get_mem2Dint64.251
	.cfi_def_cfa %rbp, 16
	movq	%rbx, %rdi
	movl	%r15d, %esi
	movl	%r14d, %edx
	callq	get_mem2Dint64.251
	addq	$8, %rsp
	popq	%rbx
	popq	%r14
	popq	%r15
	popq	%rbp
	.cfi_def_cfa %rsp, 8
	retq
.LBB9_17:                               # %ctrl0
	.cfi_def_cfa %rbp, 16
	cmpl	$1, %eax
	je	.LBB9_2
# %bb.18:                               # %ctrl1
	cmpl	$2, %eax
	je	.LBB9_3
# %bb.19:                               # %ctrl2
	cmpl	$3, %eax
	je	.LBB9_4
# %bb.20:                               # %ctrl3
	cmpl	$4, %eax
	je	.LBB9_5
# %bb.21:                               # %ctrl4
	cmpl	$5, %eax
	je	.LBB9_6
# %bb.22:                               # %ctrl5
	cmpl	$6, %eax
	je	.LBB9_7
# %bb.23:                               # %ctrl6
	cmpl	$7, %eax
	je	.LBB9_8
# %bb.24:                               # %ctrl7
	cmpl	$8, %eax
	je	.LBB9_9
# %bb.25:                               # %ctrl8
	cmpl	$9, %eax
	je	.LBB9_10
# %bb.26:                               # %ctrl9
	cmpl	$10, %eax
	je	.LBB9_11
# %bb.27:                               # %ctrl10
	cmpl	$11, %eax
	je	.LBB9_12
# %bb.28:                               # %ctrl11
	cmpl	$12, %eax
	je	.LBB9_13
# %bb.29:                               # %ctrl12
	cmpl	$13, %eax
	je	.LBB9_14
# %bb.30:                               # %ctrl13
	cmpl	$14, %eax
	je	.LBB9_15
	jmp	.LBB9_16
.Lfunc_end9:
	.size	get_mem2Dint64, .Lfunc_end9-get_mem2Dint64
	.cfi_endproc
                                        # -- End function
	.globl	get_mem3D               # -- Begin function get_mem3D
	.p2align	4, 0x90
	.type	get_mem3D,@function
get_mem3D:                              # @get_mem3D
	.cfi_startproc
# %bb.0:                                # %rand_bb
	pushq	%rbp
	.cfi_def_cfa_offset 16
	.cfi_offset %rbp, -16
	movq	%rsp, %rbp
	.cfi_def_cfa_register %rbp
	pushq	%r15
	pushq	%r14
	pushq	%r12
	pushq	%rbx
	.cfi_offset %rbx, -48
	.cfi_offset %r12, -40
	.cfi_offset %r14, -32
	.cfi_offset %r15, -24
	movl	%ecx, %r14d
	movl	%edx, %r15d
	movl	%esi, %r12d
	movq	%rdi, %rbx
	callq	get_urand
	cmpl	$0, %eax
	jne	.LBB10_17
# %bb.1:                                # %func_get_mem3D.29
	movq	%rbx, %rdi
	movl	%r12d, %esi
	movl	%r15d, %edx
	movl	%r14d, %ecx
	callq	get_mem3D.29
	popq	%rbx
	popq	%r12
	popq	%r14
	popq	%r15
	popq	%rbp
	.cfi_def_cfa %rsp, 8
	retq
.LBB10_2:                               # %func_get_mem3D.47
	.cfi_def_cfa %rbp, 16
	movq	%rbx, %rdi
	movl	%r12d, %esi
	movl	%r15d, %edx
	movl	%r14d, %ecx
	callq	get_mem3D.47
	popq	%rbx
	popq	%r12
	popq	%r14
	popq	%r15
	popq	%rbp
	.cfi_def_cfa %rsp, 8
	retq
.LBB10_3:                               # %func_get_mem3D.53
	.cfi_def_cfa %rbp, 16
	movq	%rbx, %rdi
	movl	%r12d, %esi
	movl	%r15d, %edx
	movl	%r14d, %ecx
	callq	get_mem3D.53
	popq	%rbx
	popq	%r12
	popq	%r14
	popq	%r15
	popq	%rbp
	.cfi_def_cfa %rsp, 8
	retq
.LBB10_4:                               # %func_get_mem3D.60
	.cfi_def_cfa %rbp, 16
	movq	%rbx, %rdi
	movl	%r12d, %esi
	movl	%r15d, %edx
	movl	%r14d, %ecx
	callq	get_mem3D.60
	popq	%rbx
	popq	%r12
	popq	%r14
	popq	%r15
	popq	%rbp
	.cfi_def_cfa %rsp, 8
	retq
.LBB10_5:                               # %func_get_mem3D.88
	.cfi_def_cfa %rbp, 16
	movq	%rbx, %rdi
	movl	%r12d, %esi
	movl	%r15d, %edx
	movl	%r14d, %ecx
	callq	get_mem3D.88
	popq	%rbx
	popq	%r12
	popq	%r14
	popq	%r15
	popq	%rbp
	.cfi_def_cfa %rsp, 8
	retq
.LBB10_6:                               # %func_get_mem3D.120
	.cfi_def_cfa %rbp, 16
	movq	%rbx, %rdi
	movl	%r12d, %esi
	movl	%r15d, %edx
	movl	%r14d, %ecx
	callq	get_mem3D.120
	popq	%rbx
	popq	%r12
	popq	%r14
	popq	%r15
	popq	%rbp
	.cfi_def_cfa %rsp, 8
	retq
.LBB10_7:                               # %func_get_mem3D.133
	.cfi_def_cfa %rbp, 16
	movq	%rbx, %rdi
	movl	%r12d, %esi
	movl	%r15d, %edx
	movl	%r14d, %ecx
	callq	get_mem3D.133
	popq	%rbx
	popq	%r12
	popq	%r14
	popq	%r15
	popq	%rbp
	.cfi_def_cfa %rsp, 8
	retq
.LBB10_8:                               # %func_get_mem3D.134
	.cfi_def_cfa %rbp, 16
	movq	%rbx, %rdi
	movl	%r12d, %esi
	movl	%r15d, %edx
	movl	%r14d, %ecx
	callq	get_mem3D.134
	popq	%rbx
	popq	%r12
	popq	%r14
	popq	%r15
	popq	%rbp
	.cfi_def_cfa %rsp, 8
	retq
.LBB10_9:                               # %func_get_mem3D.150
	.cfi_def_cfa %rbp, 16
	movq	%rbx, %rdi
	movl	%r12d, %esi
	movl	%r15d, %edx
	movl	%r14d, %ecx
	callq	get_mem3D.150
	popq	%rbx
	popq	%r12
	popq	%r14
	popq	%r15
	popq	%rbp
	.cfi_def_cfa %rsp, 8
	retq
.LBB10_10:                              # %func_get_mem3D.184
	.cfi_def_cfa %rbp, 16
	movq	%rbx, %rdi
	movl	%r12d, %esi
	movl	%r15d, %edx
	movl	%r14d, %ecx
	callq	get_mem3D.184
	popq	%rbx
	popq	%r12
	popq	%r14
	popq	%r15
	popq	%rbp
	.cfi_def_cfa %rsp, 8
	retq
.LBB10_11:                              # %func_get_mem3D.191
	.cfi_def_cfa %rbp, 16
	movq	%rbx, %rdi
	movl	%r12d, %esi
	movl	%r15d, %edx
	movl	%r14d, %ecx
	callq	get_mem3D.191
	popq	%rbx
	popq	%r12
	popq	%r14
	popq	%r15
	popq	%rbp
	.cfi_def_cfa %rsp, 8
	retq
.LBB10_12:                              # %func_get_mem3D.196
	.cfi_def_cfa %rbp, 16
	movq	%rbx, %rdi
	movl	%r12d, %esi
	movl	%r15d, %edx
	movl	%r14d, %ecx
	callq	get_mem3D.196
	popq	%rbx
	popq	%r12
	popq	%r14
	popq	%r15
	popq	%rbp
	.cfi_def_cfa %rsp, 8
	retq
.LBB10_13:                              # %func_get_mem3D.227
	.cfi_def_cfa %rbp, 16
	movq	%rbx, %rdi
	movl	%r12d, %esi
	movl	%r15d, %edx
	movl	%r14d, %ecx
	callq	get_mem3D.227
	popq	%rbx
	popq	%r12
	popq	%r14
	popq	%r15
	popq	%rbp
	.cfi_def_cfa %rsp, 8
	retq
.LBB10_14:                              # %func_get_mem3D.231
	.cfi_def_cfa %rbp, 16
	movq	%rbx, %rdi
	movl	%r12d, %esi
	movl	%r15d, %edx
	movl	%r14d, %ecx
	callq	get_mem3D.231
	popq	%rbx
	popq	%r12
	popq	%r14
	popq	%r15
	popq	%rbp
	.cfi_def_cfa %rsp, 8
	retq
.LBB10_15:                              # %func_get_mem3D.241
	.cfi_def_cfa %rbp, 16
	movq	%rbx, %rdi
	movl	%r12d, %esi
	movl	%r15d, %edx
	movl	%r14d, %ecx
	callq	get_mem3D.241
	popq	%rbx
	popq	%r12
	popq	%r14
	popq	%r15
	popq	%rbp
	.cfi_def_cfa %rsp, 8
	retq
.LBB10_16:                              # %func_get_mem3D.249
	.cfi_def_cfa %rbp, 16
	movq	%rbx, %rdi
	movl	%r12d, %esi
	movl	%r15d, %edx
	movl	%r14d, %ecx
	callq	get_mem3D.249
	popq	%rbx
	popq	%r12
	popq	%r14
	popq	%r15
	popq	%rbp
	.cfi_def_cfa %rsp, 8
	retq
.LBB10_17:                              # %ctrl0
	.cfi_def_cfa %rbp, 16
	cmpl	$1, %eax
	je	.LBB10_2
# %bb.18:                               # %ctrl1
	cmpl	$2, %eax
	je	.LBB10_3
# %bb.19:                               # %ctrl2
	cmpl	$3, %eax
	je	.LBB10_4
# %bb.20:                               # %ctrl3
	cmpl	$4, %eax
	je	.LBB10_5
# %bb.21:                               # %ctrl4
	cmpl	$5, %eax
	je	.LBB10_6
# %bb.22:                               # %ctrl5
	cmpl	$6, %eax
	je	.LBB10_7
# %bb.23:                               # %ctrl6
	cmpl	$7, %eax
	je	.LBB10_8
# %bb.24:                               # %ctrl7
	cmpl	$8, %eax
	je	.LBB10_9
# %bb.25:                               # %ctrl8
	cmpl	$9, %eax
	je	.LBB10_10
# %bb.26:                               # %ctrl9
	cmpl	$10, %eax
	je	.LBB10_11
# %bb.27:                               # %ctrl10
	cmpl	$11, %eax
	je	.LBB10_12
# %bb.28:                               # %ctrl11
	cmpl	$12, %eax
	je	.LBB10_13
# %bb.29:                               # %ctrl12
	cmpl	$13, %eax
	je	.LBB10_14
# %bb.30:                               # %ctrl13
	cmpl	$14, %eax
	je	.LBB10_15
	jmp	.LBB10_16
.Lfunc_end10:
	.size	get_mem3D, .Lfunc_end10-get_mem3D
	.cfi_endproc
                                        # -- End function
	.globl	get_mem3Dint            # -- Begin function get_mem3Dint
	.p2align	4, 0x90
	.type	get_mem3Dint,@function
get_mem3Dint:                           # @get_mem3Dint
	.cfi_startproc
# %bb.0:                                # %rand_bb
	pushq	%rbp
	.cfi_def_cfa_offset 16
	.cfi_offset %rbp, -16
	movq	%rsp, %rbp
	.cfi_def_cfa_register %rbp
	pushq	%r15
	pushq	%r14
	pushq	%r12
	pushq	%rbx
	.cfi_offset %rbx, -48
	.cfi_offset %r12, -40
	.cfi_offset %r14, -32
	.cfi_offset %r15, -24
	movl	%ecx, %r14d
	movl	%edx, %r15d
	movl	%esi, %r12d
	movq	%rdi, %rbx
	callq	get_urand
	cmpl	$0, %eax
	jne	.LBB11_17
# %bb.1:                                # %func_get_mem3Dint.25
	movq	%rbx, %rdi
	movl	%r12d, %esi
	movl	%r15d, %edx
	movl	%r14d, %ecx
	callq	get_mem3Dint.25
	popq	%rbx
	popq	%r12
	popq	%r14
	popq	%r15
	popq	%rbp
	.cfi_def_cfa %rsp, 8
	retq
.LBB11_2:                               # %func_get_mem3Dint.46
	.cfi_def_cfa %rbp, 16
	movq	%rbx, %rdi
	movl	%r12d, %esi
	movl	%r15d, %edx
	movl	%r14d, %ecx
	callq	get_mem3Dint.46
	popq	%rbx
	popq	%r12
	popq	%r14
	popq	%r15
	popq	%rbp
	.cfi_def_cfa %rsp, 8
	retq
.LBB11_3:                               # %func_get_mem3Dint.66
	.cfi_def_cfa %rbp, 16
	movq	%rbx, %rdi
	movl	%r12d, %esi
	movl	%r15d, %edx
	movl	%r14d, %ecx
	callq	get_mem3Dint.66
	popq	%rbx
	popq	%r12
	popq	%r14
	popq	%r15
	popq	%rbp
	.cfi_def_cfa %rsp, 8
	retq
.LBB11_4:                               # %func_get_mem3Dint.67
	.cfi_def_cfa %rbp, 16
	movq	%rbx, %rdi
	movl	%r12d, %esi
	movl	%r15d, %edx
	movl	%r14d, %ecx
	callq	get_mem3Dint.67
	popq	%rbx
	popq	%r12
	popq	%r14
	popq	%r15
	popq	%rbp
	.cfi_def_cfa %rsp, 8
	retq
.LBB11_5:                               # %func_get_mem3Dint.98
	.cfi_def_cfa %rbp, 16
	movq	%rbx, %rdi
	movl	%r12d, %esi
	movl	%r15d, %edx
	movl	%r14d, %ecx
	callq	get_mem3Dint.98
	popq	%rbx
	popq	%r12
	popq	%r14
	popq	%r15
	popq	%rbp
	.cfi_def_cfa %rsp, 8
	retq
.LBB11_6:                               # %func_get_mem3Dint.103
	.cfi_def_cfa %rbp, 16
	movq	%rbx, %rdi
	movl	%r12d, %esi
	movl	%r15d, %edx
	movl	%r14d, %ecx
	callq	get_mem3Dint.103
	popq	%rbx
	popq	%r12
	popq	%r14
	popq	%r15
	popq	%rbp
	.cfi_def_cfa %rsp, 8
	retq
.LBB11_7:                               # %func_get_mem3Dint.111
	.cfi_def_cfa %rbp, 16
	movq	%rbx, %rdi
	movl	%r12d, %esi
	movl	%r15d, %edx
	movl	%r14d, %ecx
	callq	get_mem3Dint.111
	popq	%rbx
	popq	%r12
	popq	%r14
	popq	%r15
	popq	%rbp
	.cfi_def_cfa %rsp, 8
	retq
.LBB11_8:                               # %func_get_mem3Dint.114
	.cfi_def_cfa %rbp, 16
	movq	%rbx, %rdi
	movl	%r12d, %esi
	movl	%r15d, %edx
	movl	%r14d, %ecx
	callq	get_mem3Dint.114
	popq	%rbx
	popq	%r12
	popq	%r14
	popq	%r15
	popq	%rbp
	.cfi_def_cfa %rsp, 8
	retq
.LBB11_9:                               # %func_get_mem3Dint.146
	.cfi_def_cfa %rbp, 16
	movq	%rbx, %rdi
	movl	%r12d, %esi
	movl	%r15d, %edx
	movl	%r14d, %ecx
	callq	get_mem3Dint.146
	popq	%rbx
	popq	%r12
	popq	%r14
	popq	%r15
	popq	%rbp
	.cfi_def_cfa %rsp, 8
	retq
.LBB11_10:                              # %func_get_mem3Dint.155
	.cfi_def_cfa %rbp, 16
	movq	%rbx, %rdi
	movl	%r12d, %esi
	movl	%r15d, %edx
	movl	%r14d, %ecx
	callq	get_mem3Dint.155
	popq	%rbx
	popq	%r12
	popq	%r14
	popq	%r15
	popq	%rbp
	.cfi_def_cfa %rsp, 8
	retq
.LBB11_11:                              # %func_get_mem3Dint.160
	.cfi_def_cfa %rbp, 16
	movq	%rbx, %rdi
	movl	%r12d, %esi
	movl	%r15d, %edx
	movl	%r14d, %ecx
	callq	get_mem3Dint.160
	popq	%rbx
	popq	%r12
	popq	%r14
	popq	%r15
	popq	%rbp
	.cfi_def_cfa %rsp, 8
	retq
.LBB11_12:                              # %func_get_mem3Dint.165
	.cfi_def_cfa %rbp, 16
	movq	%rbx, %rdi
	movl	%r12d, %esi
	movl	%r15d, %edx
	movl	%r14d, %ecx
	callq	get_mem3Dint.165
	popq	%rbx
	popq	%r12
	popq	%r14
	popq	%r15
	popq	%rbp
	.cfi_def_cfa %rsp, 8
	retq
.LBB11_13:                              # %func_get_mem3Dint.223
	.cfi_def_cfa %rbp, 16
	movq	%rbx, %rdi
	movl	%r12d, %esi
	movl	%r15d, %edx
	movl	%r14d, %ecx
	callq	get_mem3Dint.223
	popq	%rbx
	popq	%r12
	popq	%r14
	popq	%r15
	popq	%rbp
	.cfi_def_cfa %rsp, 8
	retq
.LBB11_14:                              # %func_get_mem3Dint.224
	.cfi_def_cfa %rbp, 16
	movq	%rbx, %rdi
	movl	%r12d, %esi
	movl	%r15d, %edx
	movl	%r14d, %ecx
	callq	get_mem3Dint.224
	popq	%rbx
	popq	%r12
	popq	%r14
	popq	%r15
	popq	%rbp
	.cfi_def_cfa %rsp, 8
	retq
.LBB11_15:                              # %func_get_mem3Dint.230
	.cfi_def_cfa %rbp, 16
	movq	%rbx, %rdi
	movl	%r12d, %esi
	movl	%r15d, %edx
	movl	%r14d, %ecx
	callq	get_mem3Dint.230
	popq	%rbx
	popq	%r12
	popq	%r14
	popq	%r15
	popq	%rbp
	.cfi_def_cfa %rsp, 8
	retq
.LBB11_16:                              # %func_get_mem3Dint.242
	.cfi_def_cfa %rbp, 16
	movq	%rbx, %rdi
	movl	%r12d, %esi
	movl	%r15d, %edx
	movl	%r14d, %ecx
	callq	get_mem3Dint.242
	popq	%rbx
	popq	%r12
	popq	%r14
	popq	%r15
	popq	%rbp
	.cfi_def_cfa %rsp, 8
	retq
.LBB11_17:                              # %ctrl0
	.cfi_def_cfa %rbp, 16
	cmpl	$1, %eax
	je	.LBB11_2
# %bb.18:                               # %ctrl1
	cmpl	$2, %eax
	je	.LBB11_3
# %bb.19:                               # %ctrl2
	cmpl	$3, %eax
	je	.LBB11_4
# %bb.20:                               # %ctrl3
	cmpl	$4, %eax
	je	.LBB11_5
# %bb.21:                               # %ctrl4
	cmpl	$5, %eax
	je	.LBB11_6
# %bb.22:                               # %ctrl5
	cmpl	$6, %eax
	je	.LBB11_7
# %bb.23:                               # %ctrl6
	cmpl	$7, %eax
	je	.LBB11_8
# %bb.24:                               # %ctrl7
	cmpl	$8, %eax
	je	.LBB11_9
# %bb.25:                               # %ctrl8
	cmpl	$9, %eax
	je	.LBB11_10
# %bb.26:                               # %ctrl9
	cmpl	$10, %eax
	je	.LBB11_11
# %bb.27:                               # %ctrl10
	cmpl	$11, %eax
	je	.LBB11_12
# %bb.28:                               # %ctrl11
	cmpl	$12, %eax
	je	.LBB11_13
# %bb.29:                               # %ctrl12
	cmpl	$13, %eax
	je	.LBB11_14
# %bb.30:                               # %ctrl13
	cmpl	$14, %eax
	je	.LBB11_15
	jmp	.LBB11_16
.Lfunc_end11:
	.size	get_mem3Dint, .Lfunc_end11-get_mem3Dint
	.cfi_endproc
                                        # -- End function
	.globl	get_mem3Dint64          # -- Begin function get_mem3Dint64
	.p2align	4, 0x90
	.type	get_mem3Dint64,@function
get_mem3Dint64:                         # @get_mem3Dint64
	.cfi_startproc
# %bb.0:                                # %rand_bb
	pushq	%rbp
	.cfi_def_cfa_offset 16
	.cfi_offset %rbp, -16
	movq	%rsp, %rbp
	.cfi_def_cfa_register %rbp
	pushq	%r15
	pushq	%r14
	pushq	%r12
	pushq	%rbx
	.cfi_offset %rbx, -48
	.cfi_offset %r12, -40
	.cfi_offset %r14, -32
	.cfi_offset %r15, -24
	movl	%ecx, %r14d
	movl	%edx, %r15d
	movl	%esi, %r12d
	movq	%rdi, %rbx
	callq	get_urand
	cmpl	$0, %eax
	jne	.LBB12_17
# %bb.1:                                # %func_get_mem3Dint64.36
	movq	%rbx, %rdi
	movl	%r12d, %esi
	movl	%r15d, %edx
	movl	%r14d, %ecx
	callq	get_mem3Dint64.36
	popq	%rbx
	popq	%r12
	popq	%r14
	popq	%r15
	popq	%rbp
	.cfi_def_cfa %rsp, 8
	retq
.LBB12_2:                               # %func_get_mem3Dint64.38
	.cfi_def_cfa %rbp, 16
	movq	%rbx, %rdi
	movl	%r12d, %esi
	movl	%r15d, %edx
	movl	%r14d, %ecx
	callq	get_mem3Dint64.38
	popq	%rbx
	popq	%r12
	popq	%r14
	popq	%r15
	popq	%rbp
	.cfi_def_cfa %rsp, 8
	retq
.LBB12_3:                               # %func_get_mem3Dint64.72
	.cfi_def_cfa %rbp, 16
	movq	%rbx, %rdi
	movl	%r12d, %esi
	movl	%r15d, %edx
	movl	%r14d, %ecx
	callq	get_mem3Dint64.72
	popq	%rbx
	popq	%r12
	popq	%r14
	popq	%r15
	popq	%rbp
	.cfi_def_cfa %rsp, 8
	retq
.LBB12_4:                               # %func_get_mem3Dint64.74
	.cfi_def_cfa %rbp, 16
	movq	%rbx, %rdi
	movl	%r12d, %esi
	movl	%r15d, %edx
	movl	%r14d, %ecx
	callq	get_mem3Dint64.74
	popq	%rbx
	popq	%r12
	popq	%r14
	popq	%r15
	popq	%rbp
	.cfi_def_cfa %rsp, 8
	retq
.LBB12_5:                               # %func_get_mem3Dint64.77
	.cfi_def_cfa %rbp, 16
	movq	%rbx, %rdi
	movl	%r12d, %esi
	movl	%r15d, %edx
	movl	%r14d, %ecx
	callq	get_mem3Dint64.77
	popq	%rbx
	popq	%r12
	popq	%r14
	popq	%r15
	popq	%rbp
	.cfi_def_cfa %rsp, 8
	retq
.LBB12_6:                               # %func_get_mem3Dint64.94
	.cfi_def_cfa %rbp, 16
	movq	%rbx, %rdi
	movl	%r12d, %esi
	movl	%r15d, %edx
	movl	%r14d, %ecx
	callq	get_mem3Dint64.94
	popq	%rbx
	popq	%r12
	popq	%r14
	popq	%r15
	popq	%rbp
	.cfi_def_cfa %rsp, 8
	retq
.LBB12_7:                               # %func_get_mem3Dint64.108
	.cfi_def_cfa %rbp, 16
	movq	%rbx, %rdi
	movl	%r12d, %esi
	movl	%r15d, %edx
	movl	%r14d, %ecx
	callq	get_mem3Dint64.108
	popq	%rbx
	popq	%r12
	popq	%r14
	popq	%r15
	popq	%rbp
	.cfi_def_cfa %rsp, 8
	retq
.LBB12_8:                               # %func_get_mem3Dint64.110
	.cfi_def_cfa %rbp, 16
	movq	%rbx, %rdi
	movl	%r12d, %esi
	movl	%r15d, %edx
	movl	%r14d, %ecx
	callq	get_mem3Dint64.110
	popq	%rbx
	popq	%r12
	popq	%r14
	popq	%r15
	popq	%rbp
	.cfi_def_cfa %rsp, 8
	retq
.LBB12_9:                               # %func_get_mem3Dint64.147
	.cfi_def_cfa %rbp, 16
	movq	%rbx, %rdi
	movl	%r12d, %esi
	movl	%r15d, %edx
	movl	%r14d, %ecx
	callq	get_mem3Dint64.147
	popq	%rbx
	popq	%r12
	popq	%r14
	popq	%r15
	popq	%rbp
	.cfi_def_cfa %rsp, 8
	retq
.LBB12_10:                              # %func_get_mem3Dint64.151
	.cfi_def_cfa %rbp, 16
	movq	%rbx, %rdi
	movl	%r12d, %esi
	movl	%r15d, %edx
	movl	%r14d, %ecx
	callq	get_mem3Dint64.151
	popq	%rbx
	popq	%r12
	popq	%r14
	popq	%r15
	popq	%rbp
	.cfi_def_cfa %rsp, 8
	retq
.LBB12_11:                              # %func_get_mem3Dint64.170
	.cfi_def_cfa %rbp, 16
	movq	%rbx, %rdi
	movl	%r12d, %esi
	movl	%r15d, %edx
	movl	%r14d, %ecx
	callq	get_mem3Dint64.170
	popq	%rbx
	popq	%r12
	popq	%r14
	popq	%r15
	popq	%rbp
	.cfi_def_cfa %rsp, 8
	retq
.LBB12_12:                              # %func_get_mem3Dint64.189
	.cfi_def_cfa %rbp, 16
	movq	%rbx, %rdi
	movl	%r12d, %esi
	movl	%r15d, %edx
	movl	%r14d, %ecx
	callq	get_mem3Dint64.189
	popq	%rbx
	popq	%r12
	popq	%r14
	popq	%r15
	popq	%rbp
	.cfi_def_cfa %rsp, 8
	retq
.LBB12_13:                              # %func_get_mem3Dint64.216
	.cfi_def_cfa %rbp, 16
	movq	%rbx, %rdi
	movl	%r12d, %esi
	movl	%r15d, %edx
	movl	%r14d, %ecx
	callq	get_mem3Dint64.216
	popq	%rbx
	popq	%r12
	popq	%r14
	popq	%r15
	popq	%rbp
	.cfi_def_cfa %rsp, 8
	retq
.LBB12_14:                              # %func_get_mem3Dint64.244
	.cfi_def_cfa %rbp, 16
	movq	%rbx, %rdi
	movl	%r12d, %esi
	movl	%r15d, %edx
	movl	%r14d, %ecx
	callq	get_mem3Dint64.244
	popq	%rbx
	popq	%r12
	popq	%r14
	popq	%r15
	popq	%rbp
	.cfi_def_cfa %rsp, 8
	retq
.LBB12_15:                              # %func_get_mem3Dint64.255
	.cfi_def_cfa %rbp, 16
	movq	%rbx, %rdi
	movl	%r12d, %esi
	movl	%r15d, %edx
	movl	%r14d, %ecx
	callq	get_mem3Dint64.255
	popq	%rbx
	popq	%r12
	popq	%r14
	popq	%r15
	popq	%rbp
	.cfi_def_cfa %rsp, 8
	retq
.LBB12_16:                              # %func_get_mem3Dint64.257
	.cfi_def_cfa %rbp, 16
	movq	%rbx, %rdi
	movl	%r12d, %esi
	movl	%r15d, %edx
	movl	%r14d, %ecx
	callq	get_mem3Dint64.257
	popq	%rbx
	popq	%r12
	popq	%r14
	popq	%r15
	popq	%rbp
	.cfi_def_cfa %rsp, 8
	retq
.LBB12_17:                              # %ctrl0
	.cfi_def_cfa %rbp, 16
	cmpl	$1, %eax
	je	.LBB12_2
# %bb.18:                               # %ctrl1
	cmpl	$2, %eax
	je	.LBB12_3
# %bb.19:                               # %ctrl2
	cmpl	$3, %eax
	je	.LBB12_4
# %bb.20:                               # %ctrl3
	cmpl	$4, %eax
	je	.LBB12_5
# %bb.21:                               # %ctrl4
	cmpl	$5, %eax
	je	.LBB12_6
# %bb.22:                               # %ctrl5
	cmpl	$6, %eax
	je	.LBB12_7
# %bb.23:                               # %ctrl6
	cmpl	$7, %eax
	je	.LBB12_8
# %bb.24:                               # %ctrl7
	cmpl	$8, %eax
	je	.LBB12_9
# %bb.25:                               # %ctrl8
	cmpl	$9, %eax
	je	.LBB12_10
# %bb.26:                               # %ctrl9
	cmpl	$10, %eax
	je	.LBB12_11
# %bb.27:                               # %ctrl10
	cmpl	$11, %eax
	je	.LBB12_12
# %bb.28:                               # %ctrl11
	cmpl	$12, %eax
	je	.LBB12_13
# %bb.29:                               # %ctrl12
	cmpl	$13, %eax
	je	.LBB12_14
# %bb.30:                               # %ctrl13
	cmpl	$14, %eax
	je	.LBB12_15
	jmp	.LBB12_16
.Lfunc_end12:
	.size	get_mem3Dint64, .Lfunc_end12-get_mem3Dint64
	.cfi_endproc
                                        # -- End function
	.globl	get_mem4Dint            # -- Begin function get_mem4Dint
	.p2align	4, 0x90
	.type	get_mem4Dint,@function
get_mem4Dint:                           # @get_mem4Dint
	.cfi_startproc
# %bb.0:                                # %rand_bb
	pushq	%rbp
	.cfi_def_cfa_offset 16
	.cfi_offset %rbp, -16
	movq	%rsp, %rbp
	.cfi_def_cfa_register %rbp
	pushq	%r15
	pushq	%r14
	pushq	%r13
	pushq	%r12
	pushq	%rbx
	pushq	%rax
	.cfi_offset %rbx, -56
	.cfi_offset %r12, -48
	.cfi_offset %r13, -40
	.cfi_offset %r14, -32
	.cfi_offset %r15, -24
	movl	%r8d, %r14d
	movl	%ecx, %r15d
	movl	%edx, %r12d
	movl	%esi, %r13d
	movq	%rdi, %rbx
	callq	get_urand
	cmpl	$0, %eax
	jne	.LBB13_17
# %bb.1:                                # %func_get_mem4Dint.18
	movq	%rbx, %rdi
	movl	%r13d, %esi
	movl	%r12d, %edx
	movl	%r15d, %ecx
	movl	%r14d, %r8d
	callq	get_mem4Dint.18
	addq	$8, %rsp
	popq	%rbx
	popq	%r12
	popq	%r13
	popq	%r14
	popq	%r15
	popq	%rbp
	.cfi_def_cfa %rsp, 8
	retq
.LBB13_2:                               # %func_get_mem4Dint.63
	.cfi_def_cfa %rbp, 16
	movq	%rbx, %rdi
	movl	%r13d, %esi
	movl	%r12d, %edx
	movl	%r15d, %ecx
	movl	%r14d, %r8d
	callq	get_mem4Dint.63
	addq	$8, %rsp
	popq	%rbx
	popq	%r12
	popq	%r13
	popq	%r14
	popq	%r15
	popq	%rbp
	.cfi_def_cfa %rsp, 8
	retq
.LBB13_3:                               # %func_get_mem4Dint.92
	.cfi_def_cfa %rbp, 16
	movq	%rbx, %rdi
	movl	%r13d, %esi
	movl	%r12d, %edx
	movl	%r15d, %ecx
	movl	%r14d, %r8d
	callq	get_mem4Dint.92
	addq	$8, %rsp
	popq	%rbx
	popq	%r12
	popq	%r13
	popq	%r14
	popq	%r15
	popq	%rbp
	.cfi_def_cfa %rsp, 8
	retq
.LBB13_4:                               # %func_get_mem4Dint.93
	.cfi_def_cfa %rbp, 16
	movq	%rbx, %rdi
	movl	%r13d, %esi
	movl	%r12d, %edx
	movl	%r15d, %ecx
	movl	%r14d, %r8d
	callq	get_mem4Dint.93
	addq	$8, %rsp
	popq	%rbx
	popq	%r12
	popq	%r13
	popq	%r14
	popq	%r15
	popq	%rbp
	.cfi_def_cfa %rsp, 8
	retq
.LBB13_5:                               # %func_get_mem4Dint.113
	.cfi_def_cfa %rbp, 16
	movq	%rbx, %rdi
	movl	%r13d, %esi
	movl	%r12d, %edx
	movl	%r15d, %ecx
	movl	%r14d, %r8d
	callq	get_mem4Dint.113
	addq	$8, %rsp
	popq	%rbx
	popq	%r12
	popq	%r13
	popq	%r14
	popq	%r15
	popq	%rbp
	.cfi_def_cfa %rsp, 8
	retq
.LBB13_6:                               # %func_get_mem4Dint.154
	.cfi_def_cfa %rbp, 16
	movq	%rbx, %rdi
	movl	%r13d, %esi
	movl	%r12d, %edx
	movl	%r15d, %ecx
	movl	%r14d, %r8d
	callq	get_mem4Dint.154
	addq	$8, %rsp
	popq	%rbx
	popq	%r12
	popq	%r13
	popq	%r14
	popq	%r15
	popq	%rbp
	.cfi_def_cfa %rsp, 8
	retq
.LBB13_7:                               # %func_get_mem4Dint.161
	.cfi_def_cfa %rbp, 16
	movq	%rbx, %rdi
	movl	%r13d, %esi
	movl	%r12d, %edx
	movl	%r15d, %ecx
	movl	%r14d, %r8d
	callq	get_mem4Dint.161
	addq	$8, %rsp
	popq	%rbx
	popq	%r12
	popq	%r13
	popq	%r14
	popq	%r15
	popq	%rbp
	.cfi_def_cfa %rsp, 8
	retq
.LBB13_8:                               # %func_get_mem4Dint.187
	.cfi_def_cfa %rbp, 16
	movq	%rbx, %rdi
	movl	%r13d, %esi
	movl	%r12d, %edx
	movl	%r15d, %ecx
	movl	%r14d, %r8d
	callq	get_mem4Dint.187
	addq	$8, %rsp
	popq	%rbx
	popq	%r12
	popq	%r13
	popq	%r14
	popq	%r15
	popq	%rbp
	.cfi_def_cfa %rsp, 8
	retq
.LBB13_9:                               # %func_get_mem4Dint.197
	.cfi_def_cfa %rbp, 16
	movq	%rbx, %rdi
	movl	%r13d, %esi
	movl	%r12d, %edx
	movl	%r15d, %ecx
	movl	%r14d, %r8d
	callq	get_mem4Dint.197
	addq	$8, %rsp
	popq	%rbx
	popq	%r12
	popq	%r13
	popq	%r14
	popq	%r15
	popq	%rbp
	.cfi_def_cfa %rsp, 8
	retq
.LBB13_10:                              # %func_get_mem4Dint.220
	.cfi_def_cfa %rbp, 16
	movq	%rbx, %rdi
	movl	%r13d, %esi
	movl	%r12d, %edx
	movl	%r15d, %ecx
	movl	%r14d, %r8d
	callq	get_mem4Dint.220
	addq	$8, %rsp
	popq	%rbx
	popq	%r12
	popq	%r13
	popq	%r14
	popq	%r15
	popq	%rbp
	.cfi_def_cfa %rsp, 8
	retq
.LBB13_11:                              # %func_get_mem4Dint.228
	.cfi_def_cfa %rbp, 16
	movq	%rbx, %rdi
	movl	%r13d, %esi
	movl	%r12d, %edx
	movl	%r15d, %ecx
	movl	%r14d, %r8d
	callq	get_mem4Dint.228
	addq	$8, %rsp
	popq	%rbx
	popq	%r12
	popq	%r13
	popq	%r14
	popq	%r15
	popq	%rbp
	.cfi_def_cfa %rsp, 8
	retq
.LBB13_12:                              # %func_get_mem4Dint.232
	.cfi_def_cfa %rbp, 16
	movq	%rbx, %rdi
	movl	%r13d, %esi
	movl	%r12d, %edx
	movl	%r15d, %ecx
	movl	%r14d, %r8d
	callq	get_mem4Dint.232
	addq	$8, %rsp
	popq	%rbx
	popq	%r12
	popq	%r13
	popq	%r14
	popq	%r15
	popq	%rbp
	.cfi_def_cfa %rsp, 8
	retq
.LBB13_13:                              # %func_get_mem4Dint.245
	.cfi_def_cfa %rbp, 16
	movq	%rbx, %rdi
	movl	%r13d, %esi
	movl	%r12d, %edx
	movl	%r15d, %ecx
	movl	%r14d, %r8d
	callq	get_mem4Dint.245
	addq	$8, %rsp
	popq	%rbx
	popq	%r12
	popq	%r13
	popq	%r14
	popq	%r15
	popq	%rbp
	.cfi_def_cfa %rsp, 8
	retq
.LBB13_14:                              # %func_get_mem4Dint.263
	.cfi_def_cfa %rbp, 16
	movq	%rbx, %rdi
	movl	%r13d, %esi
	movl	%r12d, %edx
	movl	%r15d, %ecx
	movl	%r14d, %r8d
	callq	get_mem4Dint.263
	addq	$8, %rsp
	popq	%rbx
	popq	%r12
	popq	%r13
	popq	%r14
	popq	%r15
	popq	%rbp
	.cfi_def_cfa %rsp, 8
	retq
.LBB13_15:                              # %func_get_mem4Dint.265
	.cfi_def_cfa %rbp, 16
	movq	%rbx, %rdi
	movl	%r13d, %esi
	movl	%r12d, %edx
	movl	%r15d, %ecx
	movl	%r14d, %r8d
	callq	get_mem4Dint.265
	addq	$8, %rsp
	popq	%rbx
	popq	%r12
	popq	%r13
	popq	%r14
	popq	%r15
	popq	%rbp
	.cfi_def_cfa %rsp, 8
	retq
.LBB13_16:                              # %func_get_mem4Dint.270
	.cfi_def_cfa %rbp, 16
	movq	%rbx, %rdi
	movl	%r13d, %esi
	movl	%r12d, %edx
	movl	%r15d, %ecx
	movl	%r14d, %r8d
	callq	get_mem4Dint.270
	addq	$8, %rsp
	popq	%rbx
	popq	%r12
	popq	%r13
	popq	%r14
	popq	%r15
	popq	%rbp
	.cfi_def_cfa %rsp, 8
	retq
.LBB13_17:                              # %ctrl0
	.cfi_def_cfa %rbp, 16
	cmpl	$1, %eax
	je	.LBB13_2
# %bb.18:                               # %ctrl1
	cmpl	$2, %eax
	je	.LBB13_3
# %bb.19:                               # %ctrl2
	cmpl	$3, %eax
	je	.LBB13_4
# %bb.20:                               # %ctrl3
	cmpl	$4, %eax
	je	.LBB13_5
# %bb.21:                               # %ctrl4
	cmpl	$5, %eax
	je	.LBB13_6
# %bb.22:                               # %ctrl5
	cmpl	$6, %eax
	je	.LBB13_7
# %bb.23:                               # %ctrl6
	cmpl	$7, %eax
	je	.LBB13_8
# %bb.24:                               # %ctrl7
	cmpl	$8, %eax
	je	.LBB13_9
# %bb.25:                               # %ctrl8
	cmpl	$9, %eax
	je	.LBB13_10
# %bb.26:                               # %ctrl9
	cmpl	$10, %eax
	je	.LBB13_11
# %bb.27:                               # %ctrl10
	cmpl	$11, %eax
	je	.LBB13_12
# %bb.28:                               # %ctrl11
	cmpl	$12, %eax
	je	.LBB13_13
# %bb.29:                               # %ctrl12
	cmpl	$13, %eax
	je	.LBB13_14
# %bb.30:                               # %ctrl13
	cmpl	$14, %eax
	je	.LBB13_15
	jmp	.LBB13_16
.Lfunc_end13:
	.size	get_mem4Dint, .Lfunc_end13-get_mem4Dint
	.cfi_endproc
                                        # -- End function
	.globl	free_mem2D              # -- Begin function free_mem2D
	.p2align	4, 0x90
	.type	free_mem2D,@function
free_mem2D:                             # @free_mem2D
	.cfi_startproc
# %bb.0:                                # %entry
	pushq	%rbp
	.cfi_def_cfa_offset 16
	.cfi_offset %rbp, -16
	movq	%rsp, %rbp
	.cfi_def_cfa_register %rbp
	subq	$16, %rsp
	movq	%rdi, -8(%rbp)
	cmpq	$0, -8(%rbp)
	je	.LBB14_5
# %bb.1:                                # %if.then
	movq	-8(%rbp), %rax
	cmpq	$0, (%rax)
	je	.LBB14_3
# %bb.2:                                # %if.then2
	movq	-8(%rbp), %rax
	movq	(%rax), %rdi
	callq	free
	jmp	.LBB14_4
.LBB14_3:                               # %if.else
	movabsq	$.L.str.13, %rdi
	movl	$100, %esi
	callq	error
.LBB14_4:                               # %if.end
	movq	-8(%rbp), %rdi
	callq	free
	jmp	.LBB14_6
.LBB14_5:                               # %if.else4
	movabsq	$.L.str.13, %rdi
	movl	$100, %esi
	callq	error
.LBB14_6:                               # %if.end5
	addq	$16, %rsp
	popq	%rbp
	.cfi_def_cfa %rsp, 8
	retq
.Lfunc_end14:
	.size	free_mem2D, .Lfunc_end14-free_mem2D
	.cfi_endproc
                                        # -- End function
	.globl	free_mem2Dint           # -- Begin function free_mem2Dint
	.p2align	4, 0x90
	.type	free_mem2Dint,@function
free_mem2Dint:                          # @free_mem2Dint
	.cfi_startproc
# %bb.0:                                # %entry
	pushq	%rbp
	.cfi_def_cfa_offset 16
	.cfi_offset %rbp, -16
	movq	%rsp, %rbp
	.cfi_def_cfa_register %rbp
	subq	$16, %rsp
	movq	%rdi, -8(%rbp)
	cmpq	$0, -8(%rbp)
	je	.LBB15_5
# %bb.1:                                # %if.then
	movq	-8(%rbp), %rax
	cmpq	$0, (%rax)
	je	.LBB15_3
# %bb.2:                                # %if.then2
	movq	-8(%rbp), %rax
	movq	(%rax), %rdi
	callq	free
	jmp	.LBB15_4
.LBB15_3:                               # %if.else
	movabsq	$.L.str.14, %rdi
	movl	$100, %esi
	callq	error
.LBB15_4:                               # %if.end
	movq	-8(%rbp), %rdi
	callq	free
	jmp	.LBB15_6
.LBB15_5:                               # %if.else4
	movabsq	$.L.str.14, %rdi
	movl	$100, %esi
	callq	error
.LBB15_6:                               # %if.end5
	addq	$16, %rsp
	popq	%rbp
	.cfi_def_cfa %rsp, 8
	retq
.Lfunc_end15:
	.size	free_mem2Dint, .Lfunc_end15-free_mem2Dint
	.cfi_endproc
                                        # -- End function
	.globl	free_mem2Dint64         # -- Begin function free_mem2Dint64
	.p2align	4, 0x90
	.type	free_mem2Dint64,@function
free_mem2Dint64:                        # @free_mem2Dint64
	.cfi_startproc
# %bb.0:                                # %entry
	pushq	%rbp
	.cfi_def_cfa_offset 16
	.cfi_offset %rbp, -16
	movq	%rsp, %rbp
	.cfi_def_cfa_register %rbp
	subq	$16, %rsp
	movq	%rdi, -8(%rbp)
	cmpq	$0, -8(%rbp)
	je	.LBB16_5
# %bb.1:                                # %if.then
	movq	-8(%rbp), %rax
	cmpq	$0, (%rax)
	je	.LBB16_3
# %bb.2:                                # %if.then2
	movq	-8(%rbp), %rax
	movq	(%rax), %rdi
	callq	free
	jmp	.LBB16_4
.LBB16_3:                               # %if.else
	movabsq	$.L.str.15, %rdi
	movl	$100, %esi
	callq	error
.LBB16_4:                               # %if.end
	movq	-8(%rbp), %rdi
	callq	free
	jmp	.LBB16_6
.LBB16_5:                               # %if.else4
	movabsq	$.L.str.15, %rdi
	movl	$100, %esi
	callq	error
.LBB16_6:                               # %if.end5
	addq	$16, %rsp
	popq	%rbp
	.cfi_def_cfa %rsp, 8
	retq
.Lfunc_end16:
	.size	free_mem2Dint64, .Lfunc_end16-free_mem2Dint64
	.cfi_endproc
                                        # -- End function
	.globl	free_mem3D              # -- Begin function free_mem3D
	.p2align	4, 0x90
	.type	free_mem3D,@function
free_mem3D:                             # @free_mem3D
	.cfi_startproc
# %bb.0:                                # %rand_bb
	pushq	%rbp
	.cfi_def_cfa_offset 16
	.cfi_offset %rbp, -16
	movq	%rsp, %rbp
	.cfi_def_cfa_register %rbp
	pushq	%r14
	pushq	%rbx
	.cfi_offset %rbx, -32
	.cfi_offset %r14, -24
	movl	%esi, %r14d
	movq	%rdi, %rbx
	callq	get_urand
	cmpl	$0, %eax
	jne	.LBB17_7
# %bb.1:                                # %func_free_mem3D.7
	movq	%rbx, %rdi
	movl	%r14d, %esi
	callq	free_mem3D.7
	popq	%rbx
	popq	%r14
	popq	%rbp
	.cfi_def_cfa %rsp, 8
	retq
.LBB17_2:                               # %func_free_mem3D.11
	.cfi_def_cfa %rbp, 16
	movq	%rbx, %rdi
	movl	%r14d, %esi
	callq	free_mem3D.11
	popq	%rbx
	popq	%r14
	popq	%rbp
	.cfi_def_cfa %rsp, 8
	retq
.LBB17_3:                               # %func_free_mem3D.24
	.cfi_def_cfa %rbp, 16
	movq	%rbx, %rdi
	movl	%r14d, %esi
	callq	free_mem3D.24
	popq	%rbx
	popq	%r14
	popq	%rbp
	.cfi_def_cfa %rsp, 8
	retq
.LBB17_4:                               # %func_free_mem3D.28
	.cfi_def_cfa %rbp, 16
	movq	%rbx, %rdi
	movl	%r14d, %esi
	callq	free_mem3D.28
	popq	%rbx
	popq	%r14
	popq	%rbp
	.cfi_def_cfa %rsp, 8
	retq
.LBB17_5:                               # %func_free_mem3D.39
	.cfi_def_cfa %rbp, 16
	movq	%rbx, %rdi
	movl	%r14d, %esi
	callq	free_mem3D.39
	popq	%rbx
	popq	%r14
	popq	%rbp
	.cfi_def_cfa %rsp, 8
	retq
.LBB17_6:                               # %func_free_mem3D.44
	.cfi_def_cfa %rbp, 16
	movq	%rbx, %rdi
	movl	%r14d, %esi
	callq	free_mem3D.44
	popq	%rbx
	popq	%r14
	popq	%rbp
	.cfi_def_cfa %rsp, 8
	retq
.LBB17_7:                               # %ctrl0
	.cfi_def_cfa %rbp, 16
	cmpl	$1, %eax
	je	.LBB17_2
# %bb.8:                                # %ctrl1
	cmpl	$2, %eax
	je	.LBB17_3
# %bb.9:                                # %ctrl2
	cmpl	$3, %eax
	je	.LBB17_4
# %bb.10:                               # %ctrl3
	cmpl	$4, %eax
	je	.LBB17_5
	jmp	.LBB17_6
.Lfunc_end17:
	.size	free_mem3D, .Lfunc_end17-free_mem3D
	.cfi_endproc
                                        # -- End function
	.globl	free_mem3Dint           # -- Begin function free_mem3Dint
	.p2align	4, 0x90
	.type	free_mem3Dint,@function
free_mem3Dint:                          # @free_mem3Dint
	.cfi_startproc
# %bb.0:                                # %rand_bb
	pushq	%rbp
	.cfi_def_cfa_offset 16
	.cfi_offset %rbp, -16
	movq	%rsp, %rbp
	.cfi_def_cfa_register %rbp
	pushq	%r14
	pushq	%rbx
	.cfi_offset %rbx, -32
	.cfi_offset %r14, -24
	movl	%esi, %r14d
	movq	%rdi, %rbx
	callq	get_urand
	cmpl	$0, %eax
	jne	.LBB18_7
# %bb.1:                                # %func_free_mem3Dint.14
	movq	%rbx, %rdi
	movl	%r14d, %esi
	callq	free_mem3Dint.14
	popq	%rbx
	popq	%r14
	popq	%rbp
	.cfi_def_cfa %rsp, 8
	retq
.LBB18_2:                               # %func_free_mem3Dint.21
	.cfi_def_cfa %rbp, 16
	movq	%rbx, %rdi
	movl	%r14d, %esi
	callq	free_mem3Dint.21
	popq	%rbx
	popq	%r14
	popq	%rbp
	.cfi_def_cfa %rsp, 8
	retq
.LBB18_3:                               # %func_free_mem3Dint.26
	.cfi_def_cfa %rbp, 16
	movq	%rbx, %rdi
	movl	%r14d, %esi
	callq	free_mem3Dint.26
	popq	%rbx
	popq	%r14
	popq	%rbp
	.cfi_def_cfa %rsp, 8
	retq
.LBB18_4:                               # %func_free_mem3Dint.30
	.cfi_def_cfa %rbp, 16
	movq	%rbx, %rdi
	movl	%r14d, %esi
	callq	free_mem3Dint.30
	popq	%rbx
	popq	%r14
	popq	%rbp
	.cfi_def_cfa %rsp, 8
	retq
.LBB18_5:                               # %func_free_mem3Dint.33
	.cfi_def_cfa %rbp, 16
	movq	%rbx, %rdi
	movl	%r14d, %esi
	callq	free_mem3Dint.33
	popq	%rbx
	popq	%r14
	popq	%rbp
	.cfi_def_cfa %rsp, 8
	retq
.LBB18_6:                               # %func_free_mem3Dint.78
	.cfi_def_cfa %rbp, 16
	movq	%rbx, %rdi
	movl	%r14d, %esi
	callq	free_mem3Dint.78
	popq	%rbx
	popq	%r14
	popq	%rbp
	.cfi_def_cfa %rsp, 8
	retq
.LBB18_7:                               # %ctrl0
	.cfi_def_cfa %rbp, 16
	cmpl	$1, %eax
	je	.LBB18_2
# %bb.8:                                # %ctrl1
	cmpl	$2, %eax
	je	.LBB18_3
# %bb.9:                                # %ctrl2
	cmpl	$3, %eax
	je	.LBB18_4
# %bb.10:                               # %ctrl3
	cmpl	$4, %eax
	je	.LBB18_5
	jmp	.LBB18_6
.Lfunc_end18:
	.size	free_mem3Dint, .Lfunc_end18-free_mem3Dint
	.cfi_endproc
                                        # -- End function
	.globl	free_mem3Dint64         # -- Begin function free_mem3Dint64
	.p2align	4, 0x90
	.type	free_mem3Dint64,@function
free_mem3Dint64:                        # @free_mem3Dint64
	.cfi_startproc
# %bb.0:                                # %rand_bb
	pushq	%rbp
	.cfi_def_cfa_offset 16
	.cfi_offset %rbp, -16
	movq	%rsp, %rbp
	.cfi_def_cfa_register %rbp
	pushq	%r14
	pushq	%rbx
	.cfi_offset %rbx, -32
	.cfi_offset %r14, -24
	movl	%esi, %r14d
	movq	%rdi, %rbx
	callq	get_urand
	cmpl	$0, %eax
	jne	.LBB19_7
# %bb.1:                                # %func_free_mem3Dint64.4
	movq	%rbx, %rdi
	movl	%r14d, %esi
	callq	free_mem3Dint64.4
	popq	%rbx
	popq	%r14
	popq	%rbp
	.cfi_def_cfa %rsp, 8
	retq
.LBB19_2:                               # %func_free_mem3Dint64.27
	.cfi_def_cfa %rbp, 16
	movq	%rbx, %rdi
	movl	%r14d, %esi
	callq	free_mem3Dint64.27
	popq	%rbx
	popq	%r14
	popq	%rbp
	.cfi_def_cfa %rsp, 8
	retq
.LBB19_3:                               # %func_free_mem3Dint64.75
	.cfi_def_cfa %rbp, 16
	movq	%rbx, %rdi
	movl	%r14d, %esi
	callq	free_mem3Dint64.75
	popq	%rbx
	popq	%r14
	popq	%rbp
	.cfi_def_cfa %rsp, 8
	retq
.LBB19_4:                               # %func_free_mem3Dint64.76
	.cfi_def_cfa %rbp, 16
	movq	%rbx, %rdi
	movl	%r14d, %esi
	callq	free_mem3Dint64.76
	popq	%rbx
	popq	%r14
	popq	%rbp
	.cfi_def_cfa %rsp, 8
	retq
.LBB19_5:                               # %func_free_mem3Dint64.83
	.cfi_def_cfa %rbp, 16
	movq	%rbx, %rdi
	movl	%r14d, %esi
	callq	free_mem3Dint64.83
	popq	%rbx
	popq	%r14
	popq	%rbp
	.cfi_def_cfa %rsp, 8
	retq
.LBB19_6:                               # %func_free_mem3Dint64.121
	.cfi_def_cfa %rbp, 16
	movq	%rbx, %rdi
	movl	%r14d, %esi
	callq	free_mem3Dint64.121
	popq	%rbx
	popq	%r14
	popq	%rbp
	.cfi_def_cfa %rsp, 8
	retq
.LBB19_7:                               # %ctrl0
	.cfi_def_cfa %rbp, 16
	cmpl	$1, %eax
	je	.LBB19_2
# %bb.8:                                # %ctrl1
	cmpl	$2, %eax
	je	.LBB19_3
# %bb.9:                                # %ctrl2
	cmpl	$3, %eax
	je	.LBB19_4
# %bb.10:                               # %ctrl3
	cmpl	$4, %eax
	je	.LBB19_5
	jmp	.LBB19_6
.Lfunc_end19:
	.size	free_mem3Dint64, .Lfunc_end19-free_mem3Dint64
	.cfi_endproc
                                        # -- End function
	.globl	free_mem4Dint           # -- Begin function free_mem4Dint
	.p2align	4, 0x90
	.type	free_mem4Dint,@function
free_mem4Dint:                          # @free_mem4Dint
	.cfi_startproc
# %bb.0:                                # %rand_bb
	pushq	%rbp
	.cfi_def_cfa_offset 16
	.cfi_offset %rbp, -16
	movq	%rsp, %rbp
	.cfi_def_cfa_register %rbp
	pushq	%r15
	pushq	%r14
	pushq	%rbx
	pushq	%rax
	.cfi_offset %rbx, -40
	.cfi_offset %r14, -32
	.cfi_offset %r15, -24
	movl	%edx, %r14d
	movl	%esi, %r15d
	movq	%rdi, %rbx
	callq	get_urand
	cmpl	$0, %eax
	jne	.LBB20_17
# %bb.1:                                # %func_free_mem4Dint.3
	movq	%rbx, %rdi
	movl	%r15d, %esi
	movl	%r14d, %edx
	callq	free_mem4Dint.3
	addq	$8, %rsp
	popq	%rbx
	popq	%r14
	popq	%r15
	popq	%rbp
	.cfi_def_cfa %rsp, 8
	retq
.LBB20_2:                               # %func_free_mem4Dint.20
	.cfi_def_cfa %rbp, 16
	movq	%rbx, %rdi
	movl	%r15d, %esi
	movl	%r14d, %edx
	callq	free_mem4Dint.20
	addq	$8, %rsp
	popq	%rbx
	popq	%r14
	popq	%r15
	popq	%rbp
	.cfi_def_cfa %rsp, 8
	retq
.LBB20_3:                               # %func_free_mem4Dint.23
	.cfi_def_cfa %rbp, 16
	movq	%rbx, %rdi
	movl	%r15d, %esi
	movl	%r14d, %edx
	callq	free_mem4Dint.23
	addq	$8, %rsp
	popq	%rbx
	popq	%r14
	popq	%r15
	popq	%rbp
	.cfi_def_cfa %rsp, 8
	retq
.LBB20_4:                               # %func_free_mem4Dint.73
	.cfi_def_cfa %rbp, 16
	movq	%rbx, %rdi
	movl	%r15d, %esi
	movl	%r14d, %edx
	callq	free_mem4Dint.73
	addq	$8, %rsp
	popq	%rbx
	popq	%r14
	popq	%r15
	popq	%rbp
	.cfi_def_cfa %rsp, 8
	retq
.LBB20_5:                               # %func_free_mem4Dint.124
	.cfi_def_cfa %rbp, 16
	movq	%rbx, %rdi
	movl	%r15d, %esi
	movl	%r14d, %edx
	callq	free_mem4Dint.124
	addq	$8, %rsp
	popq	%rbx
	popq	%r14
	popq	%r15
	popq	%rbp
	.cfi_def_cfa %rsp, 8
	retq
.LBB20_6:                               # %func_free_mem4Dint.159
	.cfi_def_cfa %rbp, 16
	movq	%rbx, %rdi
	movl	%r15d, %esi
	movl	%r14d, %edx
	callq	free_mem4Dint.159
	addq	$8, %rsp
	popq	%rbx
	popq	%r14
	popq	%r15
	popq	%rbp
	.cfi_def_cfa %rsp, 8
	retq
.LBB20_7:                               # %func_free_mem4Dint.162
	.cfi_def_cfa %rbp, 16
	movq	%rbx, %rdi
	movl	%r15d, %esi
	movl	%r14d, %edx
	callq	free_mem4Dint.162
	addq	$8, %rsp
	popq	%rbx
	popq	%r14
	popq	%r15
	popq	%rbp
	.cfi_def_cfa %rsp, 8
	retq
.LBB20_8:                               # %func_free_mem4Dint.193
	.cfi_def_cfa %rbp, 16
	movq	%rbx, %rdi
	movl	%r15d, %esi
	movl	%r14d, %edx
	callq	free_mem4Dint.193
	addq	$8, %rsp
	popq	%rbx
	popq	%r14
	popq	%r15
	popq	%rbp
	.cfi_def_cfa %rsp, 8
	retq
.LBB20_9:                               # %func_free_mem4Dint.205
	.cfi_def_cfa %rbp, 16
	movq	%rbx, %rdi
	movl	%r15d, %esi
	movl	%r14d, %edx
	callq	free_mem4Dint.205
	addq	$8, %rsp
	popq	%rbx
	popq	%r14
	popq	%r15
	popq	%rbp
	.cfi_def_cfa %rsp, 8
	retq
.LBB20_10:                              # %func_free_mem4Dint.234
	.cfi_def_cfa %rbp, 16
	movq	%rbx, %rdi
	movl	%r15d, %esi
	movl	%r14d, %edx
	callq	free_mem4Dint.234
	addq	$8, %rsp
	popq	%rbx
	popq	%r14
	popq	%r15
	popq	%rbp
	.cfi_def_cfa %rsp, 8
	retq
.LBB20_11:                              # %func_free_mem4Dint.253
	.cfi_def_cfa %rbp, 16
	movq	%rbx, %rdi
	movl	%r15d, %esi
	movl	%r14d, %edx
	callq	free_mem4Dint.253
	addq	$8, %rsp
	popq	%rbx
	popq	%r14
	popq	%r15
	popq	%rbp
	.cfi_def_cfa %rsp, 8
	retq
.LBB20_12:                              # %func_free_mem4Dint.261
	.cfi_def_cfa %rbp, 16
	movq	%rbx, %rdi
	movl	%r15d, %esi
	movl	%r14d, %edx
	callq	free_mem4Dint.261
	addq	$8, %rsp
	popq	%rbx
	popq	%r14
	popq	%r15
	popq	%rbp
	.cfi_def_cfa %rsp, 8
	retq
.LBB20_13:                              # %func_free_mem4Dint.266
	.cfi_def_cfa %rbp, 16
	movq	%rbx, %rdi
	movl	%r15d, %esi
	movl	%r14d, %edx
	callq	free_mem4Dint.266
	addq	$8, %rsp
	popq	%rbx
	popq	%r14
	popq	%r15
	popq	%rbp
	.cfi_def_cfa %rsp, 8
	retq
.LBB20_14:                              # %func_free_mem4Dint.269
	.cfi_def_cfa %rbp, 16
	movq	%rbx, %rdi
	movl	%r15d, %esi
	movl	%r14d, %edx
	callq	free_mem4Dint.269
	addq	$8, %rsp
	popq	%rbx
	popq	%r14
	popq	%r15
	popq	%rbp
	.cfi_def_cfa %rsp, 8
	retq
.LBB20_15:                              # %func_free_mem4Dint.271
	.cfi_def_cfa %rbp, 16
	movq	%rbx, %rdi
	movl	%r15d, %esi
	movl	%r14d, %edx
	callq	free_mem4Dint.271
	addq	$8, %rsp
	popq	%rbx
	popq	%r14
	popq	%r15
	popq	%rbp
	.cfi_def_cfa %rsp, 8
	retq
.LBB20_16:                              # %func_free_mem4Dint.272
	.cfi_def_cfa %rbp, 16
	movq	%rbx, %rdi
	movl	%r15d, %esi
	movl	%r14d, %edx
	callq	free_mem4Dint.272
	addq	$8, %rsp
	popq	%rbx
	popq	%r14
	popq	%r15
	popq	%rbp
	.cfi_def_cfa %rsp, 8
	retq
.LBB20_17:                              # %ctrl0
	.cfi_def_cfa %rbp, 16
	cmpl	$1, %eax
	je	.LBB20_2
# %bb.18:                               # %ctrl1
	cmpl	$2, %eax
	je	.LBB20_3
# %bb.19:                               # %ctrl2
	cmpl	$3, %eax
	je	.LBB20_4
# %bb.20:                               # %ctrl3
	cmpl	$4, %eax
	je	.LBB20_5
# %bb.21:                               # %ctrl4
	cmpl	$5, %eax
	je	.LBB20_6
# %bb.22:                               # %ctrl5
	cmpl	$6, %eax
	je	.LBB20_7
# %bb.23:                               # %ctrl6
	cmpl	$7, %eax
	je	.LBB20_8
# %bb.24:                               # %ctrl7
	cmpl	$8, %eax
	je	.LBB20_9
# %bb.25:                               # %ctrl8
	cmpl	$9, %eax
	je	.LBB20_10
# %bb.26:                               # %ctrl9
	cmpl	$10, %eax
	je	.LBB20_11
# %bb.27:                               # %ctrl10
	cmpl	$11, %eax
	je	.LBB20_12
# %bb.28:                               # %ctrl11
	cmpl	$12, %eax
	je	.LBB20_13
# %bb.29:                               # %ctrl12
	cmpl	$13, %eax
	je	.LBB20_14
# %bb.30:                               # %ctrl13
	cmpl	$14, %eax
	je	.LBB20_15
	jmp	.LBB20_16
.Lfunc_end20:
	.size	free_mem4Dint, .Lfunc_end20-free_mem4Dint
	.cfi_endproc
                                        # -- End function
	.globl	get_mem2Dshort          # -- Begin function get_mem2Dshort
	.p2align	4, 0x90
	.type	get_mem2Dshort,@function
get_mem2Dshort:                         # @get_mem2Dshort
	.cfi_startproc
# %bb.0:                                # %rand_bb
	pushq	%rbp
	.cfi_def_cfa_offset 16
	.cfi_offset %rbp, -16
	movq	%rsp, %rbp
	.cfi_def_cfa_register %rbp
	pushq	%r15
	pushq	%r14
	pushq	%rbx
	pushq	%rax
	.cfi_offset %rbx, -40
	.cfi_offset %r14, -32
	.cfi_offset %r15, -24
	movl	%edx, %r14d
	movl	%esi, %r15d
	movq	%rdi, %rbx
	callq	get_urand
	cmpl	$0, %eax
	jne	.LBB21_17
# %bb.1:                                # %func_get_mem2Dshort.10
	movq	%rbx, %rdi
	movl	%r15d, %esi
	movl	%r14d, %edx
	callq	get_mem2Dshort.10
	addq	$8, %rsp
	popq	%rbx
	popq	%r14
	popq	%r15
	popq	%rbp
	.cfi_def_cfa %rsp, 8
	retq
.LBB21_2:                               # %func_get_mem2Dshort.22
	.cfi_def_cfa %rbp, 16
	movq	%rbx, %rdi
	movl	%r15d, %esi
	movl	%r14d, %edx
	callq	get_mem2Dshort.22
	addq	$8, %rsp
	popq	%rbx
	popq	%r14
	popq	%r15
	popq	%rbp
	.cfi_def_cfa %rsp, 8
	retq
.LBB21_3:                               # %func_get_mem2Dshort.62
	.cfi_def_cfa %rbp, 16
	movq	%rbx, %rdi
	movl	%r15d, %esi
	movl	%r14d, %edx
	callq	get_mem2Dshort.62
	addq	$8, %rsp
	popq	%rbx
	popq	%r14
	popq	%r15
	popq	%rbp
	.cfi_def_cfa %rsp, 8
	retq
.LBB21_4:                               # %func_get_mem2Dshort.65
	.cfi_def_cfa %rbp, 16
	movq	%rbx, %rdi
	movl	%r15d, %esi
	movl	%r14d, %edx
	callq	get_mem2Dshort.65
	addq	$8, %rsp
	popq	%rbx
	popq	%r14
	popq	%r15
	popq	%rbp
	.cfi_def_cfa %rsp, 8
	retq
.LBB21_5:                               # %func_get_mem2Dshort.80
	.cfi_def_cfa %rbp, 16
	movq	%rbx, %rdi
	movl	%r15d, %esi
	movl	%r14d, %edx
	callq	get_mem2Dshort.80
	addq	$8, %rsp
	popq	%rbx
	popq	%r14
	popq	%r15
	popq	%rbp
	.cfi_def_cfa %rsp, 8
	retq
.LBB21_6:                               # %func_get_mem2Dshort.89
	.cfi_def_cfa %rbp, 16
	movq	%rbx, %rdi
	movl	%r15d, %esi
	movl	%r14d, %edx
	callq	get_mem2Dshort.89
	addq	$8, %rsp
	popq	%rbx
	popq	%r14
	popq	%r15
	popq	%rbp
	.cfi_def_cfa %rsp, 8
	retq
.LBB21_7:                               # %func_get_mem2Dshort.99
	.cfi_def_cfa %rbp, 16
	movq	%rbx, %rdi
	movl	%r15d, %esi
	movl	%r14d, %edx
	callq	get_mem2Dshort.99
	addq	$8, %rsp
	popq	%rbx
	popq	%r14
	popq	%r15
	popq	%rbp
	.cfi_def_cfa %rsp, 8
	retq
.LBB21_8:                               # %func_get_mem2Dshort.104
	.cfi_def_cfa %rbp, 16
	movq	%rbx, %rdi
	movl	%r15d, %esi
	movl	%r14d, %edx
	callq	get_mem2Dshort.104
	addq	$8, %rsp
	popq	%rbx
	popq	%r14
	popq	%r15
	popq	%rbp
	.cfi_def_cfa %rsp, 8
	retq
.LBB21_9:                               # %func_get_mem2Dshort.122
	.cfi_def_cfa %rbp, 16
	movq	%rbx, %rdi
	movl	%r15d, %esi
	movl	%r14d, %edx
	callq	get_mem2Dshort.122
	addq	$8, %rsp
	popq	%rbx
	popq	%r14
	popq	%r15
	popq	%rbp
	.cfi_def_cfa %rsp, 8
	retq
.LBB21_10:                              # %func_get_mem2Dshort.130
	.cfi_def_cfa %rbp, 16
	movq	%rbx, %rdi
	movl	%r15d, %esi
	movl	%r14d, %edx
	callq	get_mem2Dshort.130
	addq	$8, %rsp
	popq	%rbx
	popq	%r14
	popq	%r15
	popq	%rbp
	.cfi_def_cfa %rsp, 8
	retq
.LBB21_11:                              # %func_get_mem2Dshort.136
	.cfi_def_cfa %rbp, 16
	movq	%rbx, %rdi
	movl	%r15d, %esi
	movl	%r14d, %edx
	callq	get_mem2Dshort.136
	addq	$8, %rsp
	popq	%rbx
	popq	%r14
	popq	%r15
	popq	%rbp
	.cfi_def_cfa %rsp, 8
	retq
.LBB21_12:                              # %func_get_mem2Dshort.143
	.cfi_def_cfa %rbp, 16
	movq	%rbx, %rdi
	movl	%r15d, %esi
	movl	%r14d, %edx
	callq	get_mem2Dshort.143
	addq	$8, %rsp
	popq	%rbx
	popq	%r14
	popq	%r15
	popq	%rbp
	.cfi_def_cfa %rsp, 8
	retq
.LBB21_13:                              # %func_get_mem2Dshort.163
	.cfi_def_cfa %rbp, 16
	movq	%rbx, %rdi
	movl	%r15d, %esi
	movl	%r14d, %edx
	callq	get_mem2Dshort.163
	addq	$8, %rsp
	popq	%rbx
	popq	%r14
	popq	%r15
	popq	%rbp
	.cfi_def_cfa %rsp, 8
	retq
.LBB21_14:                              # %func_get_mem2Dshort.164
	.cfi_def_cfa %rbp, 16
	movq	%rbx, %rdi
	movl	%r15d, %esi
	movl	%r14d, %edx
	callq	get_mem2Dshort.164
	addq	$8, %rsp
	popq	%rbx
	popq	%r14
	popq	%r15
	popq	%rbp
	.cfi_def_cfa %rsp, 8
	retq
.LBB21_15:                              # %func_get_mem2Dshort.169
	.cfi_def_cfa %rbp, 16
	movq	%rbx, %rdi
	movl	%r15d, %esi
	movl	%r14d, %edx
	callq	get_mem2Dshort.169
	addq	$8, %rsp
	popq	%rbx
	popq	%r14
	popq	%r15
	popq	%rbp
	.cfi_def_cfa %rsp, 8
	retq
.LBB21_16:                              # %func_get_mem2Dshort.175
	.cfi_def_cfa %rbp, 16
	movq	%rbx, %rdi
	movl	%r15d, %esi
	movl	%r14d, %edx
	callq	get_mem2Dshort.175
	addq	$8, %rsp
	popq	%rbx
	popq	%r14
	popq	%r15
	popq	%rbp
	.cfi_def_cfa %rsp, 8
	retq
.LBB21_17:                              # %ctrl0
	.cfi_def_cfa %rbp, 16
	cmpl	$1, %eax
	je	.LBB21_2
# %bb.18:                               # %ctrl1
	cmpl	$2, %eax
	je	.LBB21_3
# %bb.19:                               # %ctrl2
	cmpl	$3, %eax
	je	.LBB21_4
# %bb.20:                               # %ctrl3
	cmpl	$4, %eax
	je	.LBB21_5
# %bb.21:                               # %ctrl4
	cmpl	$5, %eax
	je	.LBB21_6
# %bb.22:                               # %ctrl5
	cmpl	$6, %eax
	je	.LBB21_7
# %bb.23:                               # %ctrl6
	cmpl	$7, %eax
	je	.LBB21_8
# %bb.24:                               # %ctrl7
	cmpl	$8, %eax
	je	.LBB21_9
# %bb.25:                               # %ctrl8
	cmpl	$9, %eax
	je	.LBB21_10
# %bb.26:                               # %ctrl9
	cmpl	$10, %eax
	je	.LBB21_11
# %bb.27:                               # %ctrl10
	cmpl	$11, %eax
	je	.LBB21_12
# %bb.28:                               # %ctrl11
	cmpl	$12, %eax
	je	.LBB21_13
# %bb.29:                               # %ctrl12
	cmpl	$13, %eax
	je	.LBB21_14
# %bb.30:                               # %ctrl13
	cmpl	$14, %eax
	je	.LBB21_15
	jmp	.LBB21_16
.Lfunc_end21:
	.size	get_mem2Dshort, .Lfunc_end21-get_mem2Dshort
	.cfi_endproc
                                        # -- End function
	.globl	get_mem3Dshort          # -- Begin function get_mem3Dshort
	.p2align	4, 0x90
	.type	get_mem3Dshort,@function
get_mem3Dshort:                         # @get_mem3Dshort
	.cfi_startproc
# %bb.0:                                # %rand_bb
	pushq	%rbp
	.cfi_def_cfa_offset 16
	.cfi_offset %rbp, -16
	movq	%rsp, %rbp
	.cfi_def_cfa_register %rbp
	pushq	%r15
	pushq	%r14
	pushq	%r12
	pushq	%rbx
	.cfi_offset %rbx, -48
	.cfi_offset %r12, -40
	.cfi_offset %r14, -32
	.cfi_offset %r15, -24
	movl	%ecx, %r14d
	movl	%edx, %r15d
	movl	%esi, %r12d
	movq	%rdi, %rbx
	callq	get_urand
	cmpl	$0, %eax
	jne	.LBB22_17
# %bb.1:                                # %func_get_mem3Dshort.37
	movq	%rbx, %rdi
	movl	%r12d, %esi
	movl	%r15d, %edx
	movl	%r14d, %ecx
	callq	get_mem3Dshort.37
	popq	%rbx
	popq	%r12
	popq	%r14
	popq	%r15
	popq	%rbp
	.cfi_def_cfa %rsp, 8
	retq
.LBB22_2:                               # %func_get_mem3Dshort.57
	.cfi_def_cfa %rbp, 16
	movq	%rbx, %rdi
	movl	%r12d, %esi
	movl	%r15d, %edx
	movl	%r14d, %ecx
	callq	get_mem3Dshort.57
	popq	%rbx
	popq	%r12
	popq	%r14
	popq	%r15
	popq	%rbp
	.cfi_def_cfa %rsp, 8
	retq
.LBB22_3:                               # %func_get_mem3Dshort.86
	.cfi_def_cfa %rbp, 16
	movq	%rbx, %rdi
	movl	%r12d, %esi
	movl	%r15d, %edx
	movl	%r14d, %ecx
	callq	get_mem3Dshort.86
	popq	%rbx
	popq	%r12
	popq	%r14
	popq	%r15
	popq	%rbp
	.cfi_def_cfa %rsp, 8
	retq
.LBB22_4:                               # %func_get_mem3Dshort.97
	.cfi_def_cfa %rbp, 16
	movq	%rbx, %rdi
	movl	%r12d, %esi
	movl	%r15d, %edx
	movl	%r14d, %ecx
	callq	get_mem3Dshort.97
	popq	%rbx
	popq	%r12
	popq	%r14
	popq	%r15
	popq	%rbp
	.cfi_def_cfa %rsp, 8
	retq
.LBB22_5:                               # %func_get_mem3Dshort.100
	.cfi_def_cfa %rbp, 16
	movq	%rbx, %rdi
	movl	%r12d, %esi
	movl	%r15d, %edx
	movl	%r14d, %ecx
	callq	get_mem3Dshort.100
	popq	%rbx
	popq	%r12
	popq	%r14
	popq	%r15
	popq	%rbp
	.cfi_def_cfa %rsp, 8
	retq
.LBB22_6:                               # %func_get_mem3Dshort.116
	.cfi_def_cfa %rbp, 16
	movq	%rbx, %rdi
	movl	%r12d, %esi
	movl	%r15d, %edx
	movl	%r14d, %ecx
	callq	get_mem3Dshort.116
	popq	%rbx
	popq	%r12
	popq	%r14
	popq	%r15
	popq	%rbp
	.cfi_def_cfa %rsp, 8
	retq
.LBB22_7:                               # %func_get_mem3Dshort.126
	.cfi_def_cfa %rbp, 16
	movq	%rbx, %rdi
	movl	%r12d, %esi
	movl	%r15d, %edx
	movl	%r14d, %ecx
	callq	get_mem3Dshort.126
	popq	%rbx
	popq	%r12
	popq	%r14
	popq	%r15
	popq	%rbp
	.cfi_def_cfa %rsp, 8
	retq
.LBB22_8:                               # %func_get_mem3Dshort.135
	.cfi_def_cfa %rbp, 16
	movq	%rbx, %rdi
	movl	%r12d, %esi
	movl	%r15d, %edx
	movl	%r14d, %ecx
	callq	get_mem3Dshort.135
	popq	%rbx
	popq	%r12
	popq	%r14
	popq	%r15
	popq	%rbp
	.cfi_def_cfa %rsp, 8
	retq
.LBB22_9:                               # %func_get_mem3Dshort.158
	.cfi_def_cfa %rbp, 16
	movq	%rbx, %rdi
	movl	%r12d, %esi
	movl	%r15d, %edx
	movl	%r14d, %ecx
	callq	get_mem3Dshort.158
	popq	%rbx
	popq	%r12
	popq	%r14
	popq	%r15
	popq	%rbp
	.cfi_def_cfa %rsp, 8
	retq
.LBB22_10:                              # %func_get_mem3Dshort.171
	.cfi_def_cfa %rbp, 16
	movq	%rbx, %rdi
	movl	%r12d, %esi
	movl	%r15d, %edx
	movl	%r14d, %ecx
	callq	get_mem3Dshort.171
	popq	%rbx
	popq	%r12
	popq	%r14
	popq	%r15
	popq	%rbp
	.cfi_def_cfa %rsp, 8
	retq
.LBB22_11:                              # %func_get_mem3Dshort.190
	.cfi_def_cfa %rbp, 16
	movq	%rbx, %rdi
	movl	%r12d, %esi
	movl	%r15d, %edx
	movl	%r14d, %ecx
	callq	get_mem3Dshort.190
	popq	%rbx
	popq	%r12
	popq	%r14
	popq	%r15
	popq	%rbp
	.cfi_def_cfa %rsp, 8
	retq
.LBB22_12:                              # %func_get_mem3Dshort.194
	.cfi_def_cfa %rbp, 16
	movq	%rbx, %rdi
	movl	%r12d, %esi
	movl	%r15d, %edx
	movl	%r14d, %ecx
	callq	get_mem3Dshort.194
	popq	%rbx
	popq	%r12
	popq	%r14
	popq	%r15
	popq	%rbp
	.cfi_def_cfa %rsp, 8
	retq
.LBB22_13:                              # %func_get_mem3Dshort.211
	.cfi_def_cfa %rbp, 16
	movq	%rbx, %rdi
	movl	%r12d, %esi
	movl	%r15d, %edx
	movl	%r14d, %ecx
	callq	get_mem3Dshort.211
	popq	%rbx
	popq	%r12
	popq	%r14
	popq	%r15
	popq	%rbp
	.cfi_def_cfa %rsp, 8
	retq
.LBB22_14:                              # %func_get_mem3Dshort.214
	.cfi_def_cfa %rbp, 16
	movq	%rbx, %rdi
	movl	%r12d, %esi
	movl	%r15d, %edx
	movl	%r14d, %ecx
	callq	get_mem3Dshort.214
	popq	%rbx
	popq	%r12
	popq	%r14
	popq	%r15
	popq	%rbp
	.cfi_def_cfa %rsp, 8
	retq
.LBB22_15:                              # %func_get_mem3Dshort.215
	.cfi_def_cfa %rbp, 16
	movq	%rbx, %rdi
	movl	%r12d, %esi
	movl	%r15d, %edx
	movl	%r14d, %ecx
	callq	get_mem3Dshort.215
	popq	%rbx
	popq	%r12
	popq	%r14
	popq	%r15
	popq	%rbp
	.cfi_def_cfa %rsp, 8
	retq
.LBB22_16:                              # %func_get_mem3Dshort.237
	.cfi_def_cfa %rbp, 16
	movq	%rbx, %rdi
	movl	%r12d, %esi
	movl	%r15d, %edx
	movl	%r14d, %ecx
	callq	get_mem3Dshort.237
	popq	%rbx
	popq	%r12
	popq	%r14
	popq	%r15
	popq	%rbp
	.cfi_def_cfa %rsp, 8
	retq
.LBB22_17:                              # %ctrl0
	.cfi_def_cfa %rbp, 16
	cmpl	$1, %eax
	je	.LBB22_2
# %bb.18:                               # %ctrl1
	cmpl	$2, %eax
	je	.LBB22_3
# %bb.19:                               # %ctrl2
	cmpl	$3, %eax
	je	.LBB22_4
# %bb.20:                               # %ctrl3
	cmpl	$4, %eax
	je	.LBB22_5
# %bb.21:                               # %ctrl4
	cmpl	$5, %eax
	je	.LBB22_6
# %bb.22:                               # %ctrl5
	cmpl	$6, %eax
	je	.LBB22_7
# %bb.23:                               # %ctrl6
	cmpl	$7, %eax
	je	.LBB22_8
# %bb.24:                               # %ctrl7
	cmpl	$8, %eax
	je	.LBB22_9
# %bb.25:                               # %ctrl8
	cmpl	$9, %eax
	je	.LBB22_10
# %bb.26:                               # %ctrl9
	cmpl	$10, %eax
	je	.LBB22_11
# %bb.27:                               # %ctrl10
	cmpl	$11, %eax
	je	.LBB22_12
# %bb.28:                               # %ctrl11
	cmpl	$12, %eax
	je	.LBB22_13
# %bb.29:                               # %ctrl12
	cmpl	$13, %eax
	je	.LBB22_14
# %bb.30:                               # %ctrl13
	cmpl	$14, %eax
	je	.LBB22_15
	jmp	.LBB22_16
.Lfunc_end22:
	.size	get_mem3Dshort, .Lfunc_end22-get_mem3Dshort
	.cfi_endproc
                                        # -- End function
	.globl	get_mem4Dshort          # -- Begin function get_mem4Dshort
	.p2align	4, 0x90
	.type	get_mem4Dshort,@function
get_mem4Dshort:                         # @get_mem4Dshort
	.cfi_startproc
# %bb.0:                                # %rand_bb
	pushq	%rbp
	.cfi_def_cfa_offset 16
	.cfi_offset %rbp, -16
	movq	%rsp, %rbp
	.cfi_def_cfa_register %rbp
	pushq	%r15
	pushq	%r14
	pushq	%r13
	pushq	%r12
	pushq	%rbx
	pushq	%rax
	.cfi_offset %rbx, -56
	.cfi_offset %r12, -48
	.cfi_offset %r13, -40
	.cfi_offset %r14, -32
	.cfi_offset %r15, -24
	movl	%r8d, %r14d
	movl	%ecx, %r15d
	movl	%edx, %r12d
	movl	%esi, %r13d
	movq	%rdi, %rbx
	callq	get_urand
	cmpl	$0, %eax
	jne	.LBB23_17
# %bb.1:                                # %func_get_mem4Dshort.19
	movq	%rbx, %rdi
	movl	%r13d, %esi
	movl	%r12d, %edx
	movl	%r15d, %ecx
	movl	%r14d, %r8d
	callq	get_mem4Dshort.19
	addq	$8, %rsp
	popq	%rbx
	popq	%r12
	popq	%r13
	popq	%r14
	popq	%r15
	popq	%rbp
	.cfi_def_cfa %rsp, 8
	retq
.LBB23_2:                               # %func_get_mem4Dshort.40
	.cfi_def_cfa %rbp, 16
	movq	%rbx, %rdi
	movl	%r13d, %esi
	movl	%r12d, %edx
	movl	%r15d, %ecx
	movl	%r14d, %r8d
	callq	get_mem4Dshort.40
	addq	$8, %rsp
	popq	%rbx
	popq	%r12
	popq	%r13
	popq	%r14
	popq	%r15
	popq	%rbp
	.cfi_def_cfa %rsp, 8
	retq
.LBB23_3:                               # %func_get_mem4Dshort.56
	.cfi_def_cfa %rbp, 16
	movq	%rbx, %rdi
	movl	%r13d, %esi
	movl	%r12d, %edx
	movl	%r15d, %ecx
	movl	%r14d, %r8d
	callq	get_mem4Dshort.56
	addq	$8, %rsp
	popq	%rbx
	popq	%r12
	popq	%r13
	popq	%r14
	popq	%r15
	popq	%rbp
	.cfi_def_cfa %rsp, 8
	retq
.LBB23_4:                               # %func_get_mem4Dshort.61
	.cfi_def_cfa %rbp, 16
	movq	%rbx, %rdi
	movl	%r13d, %esi
	movl	%r12d, %edx
	movl	%r15d, %ecx
	movl	%r14d, %r8d
	callq	get_mem4Dshort.61
	addq	$8, %rsp
	popq	%rbx
	popq	%r12
	popq	%r13
	popq	%r14
	popq	%r15
	popq	%rbp
	.cfi_def_cfa %rsp, 8
	retq
.LBB23_5:                               # %func_get_mem4Dshort.68
	.cfi_def_cfa %rbp, 16
	movq	%rbx, %rdi
	movl	%r13d, %esi
	movl	%r12d, %edx
	movl	%r15d, %ecx
	movl	%r14d, %r8d
	callq	get_mem4Dshort.68
	addq	$8, %rsp
	popq	%rbx
	popq	%r12
	popq	%r13
	popq	%r14
	popq	%r15
	popq	%rbp
	.cfi_def_cfa %rsp, 8
	retq
.LBB23_6:                               # %func_get_mem4Dshort.84
	.cfi_def_cfa %rbp, 16
	movq	%rbx, %rdi
	movl	%r13d, %esi
	movl	%r12d, %edx
	movl	%r15d, %ecx
	movl	%r14d, %r8d
	callq	get_mem4Dshort.84
	addq	$8, %rsp
	popq	%rbx
	popq	%r12
	popq	%r13
	popq	%r14
	popq	%r15
	popq	%rbp
	.cfi_def_cfa %rsp, 8
	retq
.LBB23_7:                               # %func_get_mem4Dshort.125
	.cfi_def_cfa %rbp, 16
	movq	%rbx, %rdi
	movl	%r13d, %esi
	movl	%r12d, %edx
	movl	%r15d, %ecx
	movl	%r14d, %r8d
	callq	get_mem4Dshort.125
	addq	$8, %rsp
	popq	%rbx
	popq	%r12
	popq	%r13
	popq	%r14
	popq	%r15
	popq	%rbp
	.cfi_def_cfa %rsp, 8
	retq
.LBB23_8:                               # %func_get_mem4Dshort.137
	.cfi_def_cfa %rbp, 16
	movq	%rbx, %rdi
	movl	%r13d, %esi
	movl	%r12d, %edx
	movl	%r15d, %ecx
	movl	%r14d, %r8d
	callq	get_mem4Dshort.137
	addq	$8, %rsp
	popq	%rbx
	popq	%r12
	popq	%r13
	popq	%r14
	popq	%r15
	popq	%rbp
	.cfi_def_cfa %rsp, 8
	retq
.LBB23_9:                               # %func_get_mem4Dshort.152
	.cfi_def_cfa %rbp, 16
	movq	%rbx, %rdi
	movl	%r13d, %esi
	movl	%r12d, %edx
	movl	%r15d, %ecx
	movl	%r14d, %r8d
	callq	get_mem4Dshort.152
	addq	$8, %rsp
	popq	%rbx
	popq	%r12
	popq	%r13
	popq	%r14
	popq	%r15
	popq	%rbp
	.cfi_def_cfa %rsp, 8
	retq
.LBB23_10:                              # %func_get_mem4Dshort.157
	.cfi_def_cfa %rbp, 16
	movq	%rbx, %rdi
	movl	%r13d, %esi
	movl	%r12d, %edx
	movl	%r15d, %ecx
	movl	%r14d, %r8d
	callq	get_mem4Dshort.157
	addq	$8, %rsp
	popq	%rbx
	popq	%r12
	popq	%r13
	popq	%r14
	popq	%r15
	popq	%rbp
	.cfi_def_cfa %rsp, 8
	retq
.LBB23_11:                              # %func_get_mem4Dshort.167
	.cfi_def_cfa %rbp, 16
	movq	%rbx, %rdi
	movl	%r13d, %esi
	movl	%r12d, %edx
	movl	%r15d, %ecx
	movl	%r14d, %r8d
	callq	get_mem4Dshort.167
	addq	$8, %rsp
	popq	%rbx
	popq	%r12
	popq	%r13
	popq	%r14
	popq	%r15
	popq	%rbp
	.cfi_def_cfa %rsp, 8
	retq
.LBB23_12:                              # %func_get_mem4Dshort.173
	.cfi_def_cfa %rbp, 16
	movq	%rbx, %rdi
	movl	%r13d, %esi
	movl	%r12d, %edx
	movl	%r15d, %ecx
	movl	%r14d, %r8d
	callq	get_mem4Dshort.173
	addq	$8, %rsp
	popq	%rbx
	popq	%r12
	popq	%r13
	popq	%r14
	popq	%r15
	popq	%rbp
	.cfi_def_cfa %rsp, 8
	retq
.LBB23_13:                              # %func_get_mem4Dshort.199
	.cfi_def_cfa %rbp, 16
	movq	%rbx, %rdi
	movl	%r13d, %esi
	movl	%r12d, %edx
	movl	%r15d, %ecx
	movl	%r14d, %r8d
	callq	get_mem4Dshort.199
	addq	$8, %rsp
	popq	%rbx
	popq	%r12
	popq	%r13
	popq	%r14
	popq	%r15
	popq	%rbp
	.cfi_def_cfa %rsp, 8
	retq
.LBB23_14:                              # %func_get_mem4Dshort.206
	.cfi_def_cfa %rbp, 16
	movq	%rbx, %rdi
	movl	%r13d, %esi
	movl	%r12d, %edx
	movl	%r15d, %ecx
	movl	%r14d, %r8d
	callq	get_mem4Dshort.206
	addq	$8, %rsp
	popq	%rbx
	popq	%r12
	popq	%r13
	popq	%r14
	popq	%r15
	popq	%rbp
	.cfi_def_cfa %rsp, 8
	retq
.LBB23_15:                              # %func_get_mem4Dshort.209
	.cfi_def_cfa %rbp, 16
	movq	%rbx, %rdi
	movl	%r13d, %esi
	movl	%r12d, %edx
	movl	%r15d, %ecx
	movl	%r14d, %r8d
	callq	get_mem4Dshort.209
	addq	$8, %rsp
	popq	%rbx
	popq	%r12
	popq	%r13
	popq	%r14
	popq	%r15
	popq	%rbp
	.cfi_def_cfa %rsp, 8
	retq
.LBB23_16:                              # %func_get_mem4Dshort.217
	.cfi_def_cfa %rbp, 16
	movq	%rbx, %rdi
	movl	%r13d, %esi
	movl	%r12d, %edx
	movl	%r15d, %ecx
	movl	%r14d, %r8d
	callq	get_mem4Dshort.217
	addq	$8, %rsp
	popq	%rbx
	popq	%r12
	popq	%r13
	popq	%r14
	popq	%r15
	popq	%rbp
	.cfi_def_cfa %rsp, 8
	retq
.LBB23_17:                              # %ctrl0
	.cfi_def_cfa %rbp, 16
	cmpl	$1, %eax
	je	.LBB23_2
# %bb.18:                               # %ctrl1
	cmpl	$2, %eax
	je	.LBB23_3
# %bb.19:                               # %ctrl2
	cmpl	$3, %eax
	je	.LBB23_4
# %bb.20:                               # %ctrl3
	cmpl	$4, %eax
	je	.LBB23_5
# %bb.21:                               # %ctrl4
	cmpl	$5, %eax
	je	.LBB23_6
# %bb.22:                               # %ctrl5
	cmpl	$6, %eax
	je	.LBB23_7
# %bb.23:                               # %ctrl6
	cmpl	$7, %eax
	je	.LBB23_8
# %bb.24:                               # %ctrl7
	cmpl	$8, %eax
	je	.LBB23_9
# %bb.25:                               # %ctrl8
	cmpl	$9, %eax
	je	.LBB23_10
# %bb.26:                               # %ctrl9
	cmpl	$10, %eax
	je	.LBB23_11
# %bb.27:                               # %ctrl10
	cmpl	$11, %eax
	je	.LBB23_12
# %bb.28:                               # %ctrl11
	cmpl	$12, %eax
	je	.LBB23_13
# %bb.29:                               # %ctrl12
	cmpl	$13, %eax
	je	.LBB23_14
# %bb.30:                               # %ctrl13
	cmpl	$14, %eax
	je	.LBB23_15
	jmp	.LBB23_16
.Lfunc_end23:
	.size	get_mem4Dshort, .Lfunc_end23-get_mem4Dshort
	.cfi_endproc
                                        # -- End function
	.globl	free_mem2Dshort         # -- Begin function free_mem2Dshort
	.p2align	4, 0x90
	.type	free_mem2Dshort,@function
free_mem2Dshort:                        # @free_mem2Dshort
	.cfi_startproc
# %bb.0:                                # %entry
	pushq	%rbp
	.cfi_def_cfa_offset 16
	.cfi_offset %rbp, -16
	movq	%rsp, %rbp
	.cfi_def_cfa_register %rbp
	subq	$16, %rsp
	movq	%rdi, -8(%rbp)
	cmpq	$0, -8(%rbp)
	je	.LBB24_5
# %bb.1:                                # %if.then
	movq	-8(%rbp), %rax
	cmpq	$0, (%rax)
	je	.LBB24_3
# %bb.2:                                # %if.then2
	movq	-8(%rbp), %rax
	movq	(%rax), %rdi
	callq	free
	jmp	.LBB24_4
.LBB24_3:                               # %if.else
	movabsq	$.L.str.24, %rdi
	movl	$100, %esi
	callq	error
.LBB24_4:                               # %if.end
	movq	-8(%rbp), %rdi
	callq	free
	jmp	.LBB24_6
.LBB24_5:                               # %if.else4
	movabsq	$.L.str.24, %rdi
	movl	$100, %esi
	callq	error
.LBB24_6:                               # %if.end5
	addq	$16, %rsp
	popq	%rbp
	.cfi_def_cfa %rsp, 8
	retq
.Lfunc_end24:
	.size	free_mem2Dshort, .Lfunc_end24-free_mem2Dshort
	.cfi_endproc
                                        # -- End function
	.globl	free_mem3Dshort         # -- Begin function free_mem3Dshort
	.p2align	4, 0x90
	.type	free_mem3Dshort,@function
free_mem3Dshort:                        # @free_mem3Dshort
	.cfi_startproc
# %bb.0:                                # %rand_bb
	pushq	%rbp
	.cfi_def_cfa_offset 16
	.cfi_offset %rbp, -16
	movq	%rsp, %rbp
	.cfi_def_cfa_register %rbp
	pushq	%r14
	pushq	%rbx
	.cfi_offset %rbx, -32
	.cfi_offset %r14, -24
	movl	%esi, %r14d
	movq	%rdi, %rbx
	callq	get_urand
	cmpl	$0, %eax
	jne	.LBB25_7
# %bb.1:                                # %func_free_mem3Dshort.5
	movq	%rbx, %rdi
	movl	%r14d, %esi
	callq	free_mem3Dshort.5
	popq	%rbx
	popq	%r14
	popq	%rbp
	.cfi_def_cfa %rsp, 8
	retq
.LBB25_2:                               # %func_free_mem3Dshort.6
	.cfi_def_cfa %rbp, 16
	movq	%rbx, %rdi
	movl	%r14d, %esi
	callq	free_mem3Dshort.6
	popq	%rbx
	popq	%r14
	popq	%rbp
	.cfi_def_cfa %rsp, 8
	retq
.LBB25_3:                               # %func_free_mem3Dshort.34
	.cfi_def_cfa %rbp, 16
	movq	%rbx, %rdi
	movl	%r14d, %esi
	callq	free_mem3Dshort.34
	popq	%rbx
	popq	%r14
	popq	%rbp
	.cfi_def_cfa %rsp, 8
	retq
.LBB25_4:                               # %func_free_mem3Dshort.45
	.cfi_def_cfa %rbp, 16
	movq	%rbx, %rdi
	movl	%r14d, %esi
	callq	free_mem3Dshort.45
	popq	%rbx
	popq	%r14
	popq	%rbp
	.cfi_def_cfa %rsp, 8
	retq
.LBB25_5:                               # %func_free_mem3Dshort.52
	.cfi_def_cfa %rbp, 16
	movq	%rbx, %rdi
	movl	%r14d, %esi
	callq	free_mem3Dshort.52
	popq	%rbx
	popq	%r14
	popq	%rbp
	.cfi_def_cfa %rsp, 8
	retq
.LBB25_6:                               # %func_free_mem3Dshort.55
	.cfi_def_cfa %rbp, 16
	movq	%rbx, %rdi
	movl	%r14d, %esi
	callq	free_mem3Dshort.55
	popq	%rbx
	popq	%r14
	popq	%rbp
	.cfi_def_cfa %rsp, 8
	retq
.LBB25_7:                               # %ctrl0
	.cfi_def_cfa %rbp, 16
	cmpl	$1, %eax
	je	.LBB25_2
# %bb.8:                                # %ctrl1
	cmpl	$2, %eax
	je	.LBB25_3
# %bb.9:                                # %ctrl2
	cmpl	$3, %eax
	je	.LBB25_4
# %bb.10:                               # %ctrl3
	cmpl	$4, %eax
	je	.LBB25_5
	jmp	.LBB25_6
.Lfunc_end25:
	.size	free_mem3Dshort, .Lfunc_end25-free_mem3Dshort
	.cfi_endproc
                                        # -- End function
	.globl	free_mem4Dshort         # -- Begin function free_mem4Dshort
	.p2align	4, 0x90
	.type	free_mem4Dshort,@function
free_mem4Dshort:                        # @free_mem4Dshort
	.cfi_startproc
# %bb.0:                                # %rand_bb
	pushq	%rbp
	.cfi_def_cfa_offset 16
	.cfi_offset %rbp, -16
	movq	%rsp, %rbp
	.cfi_def_cfa_register %rbp
	pushq	%r15
	pushq	%r14
	pushq	%rbx
	pushq	%rax
	.cfi_offset %rbx, -40
	.cfi_offset %r14, -32
	.cfi_offset %r15, -24
	movl	%edx, %r14d
	movl	%esi, %r15d
	movq	%rdi, %rbx
	callq	get_urand
	cmpl	$0, %eax
	jne	.LBB26_17
# %bb.1:                                # %func_free_mem4Dshort.1
	movq	%rbx, %rdi
	movl	%r15d, %esi
	movl	%r14d, %edx
	callq	free_mem4Dshort.1
	addq	$8, %rsp
	popq	%rbx
	popq	%r14
	popq	%r15
	popq	%rbp
	.cfi_def_cfa %rsp, 8
	retq
.LBB26_2:                               # %func_free_mem4Dshort.17
	.cfi_def_cfa %rbp, 16
	movq	%rbx, %rdi
	movl	%r15d, %esi
	movl	%r14d, %edx
	callq	free_mem4Dshort.17
	addq	$8, %rsp
	popq	%rbx
	popq	%r14
	popq	%r15
	popq	%rbp
	.cfi_def_cfa %rsp, 8
	retq
.LBB26_3:                               # %func_free_mem4Dshort.35
	.cfi_def_cfa %rbp, 16
	movq	%rbx, %rdi
	movl	%r15d, %esi
	movl	%r14d, %edx
	callq	free_mem4Dshort.35
	addq	$8, %rsp
	popq	%rbx
	popq	%r14
	popq	%r15
	popq	%rbp
	.cfi_def_cfa %rsp, 8
	retq
.LBB26_4:                               # %func_free_mem4Dshort.42
	.cfi_def_cfa %rbp, 16
	movq	%rbx, %rdi
	movl	%r15d, %esi
	movl	%r14d, %edx
	callq	free_mem4Dshort.42
	addq	$8, %rsp
	popq	%rbx
	popq	%r14
	popq	%r15
	popq	%rbp
	.cfi_def_cfa %rsp, 8
	retq
.LBB26_5:                               # %func_free_mem4Dshort.51
	.cfi_def_cfa %rbp, 16
	movq	%rbx, %rdi
	movl	%r15d, %esi
	movl	%r14d, %edx
	callq	free_mem4Dshort.51
	addq	$8, %rsp
	popq	%rbx
	popq	%r14
	popq	%r15
	popq	%rbp
	.cfi_def_cfa %rsp, 8
	retq
.LBB26_6:                               # %func_free_mem4Dshort.87
	.cfi_def_cfa %rbp, 16
	movq	%rbx, %rdi
	movl	%r15d, %esi
	movl	%r14d, %edx
	callq	free_mem4Dshort.87
	addq	$8, %rsp
	popq	%rbx
	popq	%r14
	popq	%r15
	popq	%rbp
	.cfi_def_cfa %rsp, 8
	retq
.LBB26_7:                               # %func_free_mem4Dshort.105
	.cfi_def_cfa %rbp, 16
	movq	%rbx, %rdi
	movl	%r15d, %esi
	movl	%r14d, %edx
	callq	free_mem4Dshort.105
	addq	$8, %rsp
	popq	%rbx
	popq	%r14
	popq	%r15
	popq	%rbp
	.cfi_def_cfa %rsp, 8
	retq
.LBB26_8:                               # %func_free_mem4Dshort.119
	.cfi_def_cfa %rbp, 16
	movq	%rbx, %rdi
	movl	%r15d, %esi
	movl	%r14d, %edx
	callq	free_mem4Dshort.119
	addq	$8, %rsp
	popq	%rbx
	popq	%r14
	popq	%r15
	popq	%rbp
	.cfi_def_cfa %rsp, 8
	retq
.LBB26_9:                               # %func_free_mem4Dshort.188
	.cfi_def_cfa %rbp, 16
	movq	%rbx, %rdi
	movl	%r15d, %esi
	movl	%r14d, %edx
	callq	free_mem4Dshort.188
	addq	$8, %rsp
	popq	%rbx
	popq	%r14
	popq	%r15
	popq	%rbp
	.cfi_def_cfa %rsp, 8
	retq
.LBB26_10:                              # %func_free_mem4Dshort.218
	.cfi_def_cfa %rbp, 16
	movq	%rbx, %rdi
	movl	%r15d, %esi
	movl	%r14d, %edx
	callq	free_mem4Dshort.218
	addq	$8, %rsp
	popq	%rbx
	popq	%r14
	popq	%r15
	popq	%rbp
	.cfi_def_cfa %rsp, 8
	retq
.LBB26_11:                              # %func_free_mem4Dshort.238
	.cfi_def_cfa %rbp, 16
	movq	%rbx, %rdi
	movl	%r15d, %esi
	movl	%r14d, %edx
	callq	free_mem4Dshort.238
	addq	$8, %rsp
	popq	%rbx
	popq	%r14
	popq	%r15
	popq	%rbp
	.cfi_def_cfa %rsp, 8
	retq
.LBB26_12:                              # %func_free_mem4Dshort.239
	.cfi_def_cfa %rbp, 16
	movq	%rbx, %rdi
	movl	%r15d, %esi
	movl	%r14d, %edx
	callq	free_mem4Dshort.239
	addq	$8, %rsp
	popq	%rbx
	popq	%r14
	popq	%r15
	popq	%rbp
	.cfi_def_cfa %rsp, 8
	retq
.LBB26_13:                              # %func_free_mem4Dshort.252
	.cfi_def_cfa %rbp, 16
	movq	%rbx, %rdi
	movl	%r15d, %esi
	movl	%r14d, %edx
	callq	free_mem4Dshort.252
	addq	$8, %rsp
	popq	%rbx
	popq	%r14
	popq	%r15
	popq	%rbp
	.cfi_def_cfa %rsp, 8
	retq
.LBB26_14:                              # %func_free_mem4Dshort.254
	.cfi_def_cfa %rbp, 16
	movq	%rbx, %rdi
	movl	%r15d, %esi
	movl	%r14d, %edx
	callq	free_mem4Dshort.254
	addq	$8, %rsp
	popq	%rbx
	popq	%r14
	popq	%r15
	popq	%rbp
	.cfi_def_cfa %rsp, 8
	retq
.LBB26_15:                              # %func_free_mem4Dshort.260
	.cfi_def_cfa %rbp, 16
	movq	%rbx, %rdi
	movl	%r15d, %esi
	movl	%r14d, %edx
	callq	free_mem4Dshort.260
	addq	$8, %rsp
	popq	%rbx
	popq	%r14
	popq	%r15
	popq	%rbp
	.cfi_def_cfa %rsp, 8
	retq
.LBB26_16:                              # %func_free_mem4Dshort.262
	.cfi_def_cfa %rbp, 16
	movq	%rbx, %rdi
	movl	%r15d, %esi
	movl	%r14d, %edx
	callq	free_mem4Dshort.262
	addq	$8, %rsp
	popq	%rbx
	popq	%r14
	popq	%r15
	popq	%rbp
	.cfi_def_cfa %rsp, 8
	retq
.LBB26_17:                              # %ctrl0
	.cfi_def_cfa %rbp, 16
	cmpl	$1, %eax
	je	.LBB26_2
# %bb.18:                               # %ctrl1
	cmpl	$2, %eax
	je	.LBB26_3
# %bb.19:                               # %ctrl2
	cmpl	$3, %eax
	je	.LBB26_4
# %bb.20:                               # %ctrl3
	cmpl	$4, %eax
	je	.LBB26_5
# %bb.21:                               # %ctrl4
	cmpl	$5, %eax
	je	.LBB26_6
# %bb.22:                               # %ctrl5
	cmpl	$6, %eax
	je	.LBB26_7
# %bb.23:                               # %ctrl6
	cmpl	$7, %eax
	je	.LBB26_8
# %bb.24:                               # %ctrl7
	cmpl	$8, %eax
	je	.LBB26_9
# %bb.25:                               # %ctrl8
	cmpl	$9, %eax
	je	.LBB26_10
# %bb.26:                               # %ctrl9
	cmpl	$10, %eax
	je	.LBB26_11
# %bb.27:                               # %ctrl10
	cmpl	$11, %eax
	je	.LBB26_12
# %bb.28:                               # %ctrl11
	cmpl	$12, %eax
	je	.LBB26_13
# %bb.29:                               # %ctrl12
	cmpl	$13, %eax
	je	.LBB26_14
# %bb.30:                               # %ctrl13
	cmpl	$14, %eax
	je	.LBB26_15
	jmp	.LBB26_16
.Lfunc_end26:
	.size	free_mem4Dshort, .Lfunc_end26-free_mem4Dshort
	.cfi_endproc
                                        # -- End function
	.globl	free_mem4Dshort.1       # -- Begin function free_mem4Dshort.1
	.p2align	4, 0x90
	.type	free_mem4Dshort.1,@function
free_mem4Dshort.1:                      # @free_mem4Dshort.1
	.cfi_startproc
# %bb.0:                                # %entry
	pushq	%rbp
	.cfi_def_cfa_offset 16
	.cfi_offset %rbp, -16
	movq	%rsp, %rbp
	.cfi_def_cfa_register %rbp
	subq	$32, %rsp
	movl	$1222603927, -28(%rbp)  # imm = 0x48DF7497
	movq	%rdi, -16(%rbp)
	movl	%esi, -20(%rbp)
	movl	%edx, -24(%rbp)
	cmpq	$0, -16(%rbp)
	je	.LBB27_6
# %bb.1:                                # %if.then
	movl	$0, -4(%rbp)
.LBB27_2:                               # %for.cond
                                        # =>This Inner Loop Header: Depth=1
	movl	-4(%rbp), %eax
	cmpl	-20(%rbp), %eax
	jge	.LBB27_5
# %bb.3:                                # %for.body
                                        #   in Loop: Header=BB27_2 Depth=1
	movq	-16(%rbp), %rax
	movslq	-4(%rbp), %rcx
	movq	(%rax,%rcx,8), %rdi
	movl	-24(%rbp), %esi
	callq	free_mem3Dshort
# %bb.4:                                # %for.inc
                                        #   in Loop: Header=BB27_2 Depth=1
	movl	-4(%rbp), %eax
	addl	$1, %eax
	movl	%eax, -4(%rbp)
	jmp	.LBB27_2
.LBB27_5:                               # %for.end
	movq	-16(%rbp), %rdi
	callq	free
	jmp	.LBB27_7
.LBB27_6:                               # %if.else
	movabsq	$.L.str.26, %rdi
	movl	$100, %esi
	callq	error
.LBB27_7:                               # %if.end
	cmpl	$1222603927, -28(%rbp)  # imm = 0x48DF7497
	jne	.LBB27_9
.LBB27_8:
	addq	$32, %rsp
	popq	%rbp
	.cfi_def_cfa %rsp, 8
	retq
.LBB27_9:                               # %func_exit
	.cfi_def_cfa %rbp, 16
	callq	detect_breach
	jmp	.LBB27_8
.Lfunc_end27:
	.size	free_mem4Dshort.1, .Lfunc_end27-free_mem4Dshort.1
	.cfi_endproc
                                        # -- End function
	.globl	get_mem2Dpel.2          # -- Begin function get_mem2Dpel.2
	.p2align	4, 0x90
	.type	get_mem2Dpel.2,@function
get_mem2Dpel.2:                         # @get_mem2Dpel.2
	.cfi_startproc
# %bb.0:                                # %entry
	pushq	%rbp
	.cfi_def_cfa_offset 16
	.cfi_offset %rbp, -16
	movq	%rsp, %rbp
	.cfi_def_cfa_register %rbp
	pushq	%rbx
	subq	$40, %rsp
	.cfi_offset %rbx, -24
	movl	$783386507, -36(%rbp)   # imm = 0x2EB1878B
	movq	%rdi, -32(%rbp)
	movl	%esi, -16(%rbp)
	movl	%edx, -20(%rbp)
	movslq	-16(%rbp), %rdi
	movl	$8, %esi
	callq	calloc
	movq	-32(%rbp), %rcx
	movq	%rax, (%rcx)
	cmpq	$0, %rax
	jne	.LBB28_2
# %bb.1:                                # %if.then
	movabsq	$.L.str.2, %rdi
	callq	no_mem_exit
.LBB28_2:                               # %if.end
	movl	-16(%rbp), %eax
	imull	-20(%rbp), %eax
	movslq	%eax, %rdi
	movl	$2, %esi
	callq	calloc
	movq	-32(%rbp), %rcx
	movq	(%rcx), %rcx
	movq	%rax, (%rcx)
	cmpq	$0, %rax
	jne	.LBB28_4
# %bb.3:                                # %if.then6
	movabsq	$.L.str.2, %rdi
	callq	no_mem_exit
.LBB28_4:                               # %if.end7
	movl	$1, -12(%rbp)
.LBB28_5:                               # %for.cond
                                        # =>This Inner Loop Header: Depth=1
	movl	-12(%rbp), %eax
	cmpl	-16(%rbp), %eax
	jge	.LBB28_8
# %bb.6:                                # %for.body
                                        #   in Loop: Header=BB28_5 Depth=1
	movq	-32(%rbp), %rax
	movq	(%rax), %rax
	movl	-12(%rbp), %ecx
	subl	$1, %ecx
	movslq	%ecx, %rcx
	movq	(%rax,%rcx,8), %rax
	movslq	-20(%rbp), %rcx
	shlq	$1, %rcx
	addq	%rcx, %rax
	movq	-32(%rbp), %rcx
	movq	(%rcx), %rcx
	movslq	-12(%rbp), %rdx
	movq	%rax, (%rcx,%rdx,8)
# %bb.7:                                # %for.inc
                                        #   in Loop: Header=BB28_5 Depth=1
	movl	-12(%rbp), %eax
	addl	$1, %eax
	movl	%eax, -12(%rbp)
	jmp	.LBB28_5
.LBB28_8:                               # %for.end
	movl	-16(%rbp), %eax
	imull	-20(%rbp), %eax
	movslq	%eax, %rbx
	shlq	$1, %rbx
	cmpl	$783386507, -36(%rbp)   # imm = 0x2EB1878B
	jne	.LBB28_10
.LBB28_9:
	movl	%ebx, %eax
	addq	$40, %rsp
	popq	%rbx
	popq	%rbp
	.cfi_def_cfa %rsp, 8
	retq
.LBB28_10:                              # %func_exit
	.cfi_def_cfa %rbp, 16
	callq	detect_breach
	jmp	.LBB28_9
.Lfunc_end28:
	.size	get_mem2Dpel.2, .Lfunc_end28-get_mem2Dpel.2
	.cfi_endproc
                                        # -- End function
	.globl	free_mem4Dint.3         # -- Begin function free_mem4Dint.3
	.p2align	4, 0x90
	.type	free_mem4Dint.3,@function
free_mem4Dint.3:                        # @free_mem4Dint.3
	.cfi_startproc
# %bb.0:                                # %entry
	pushq	%rbp
	.cfi_def_cfa_offset 16
	.cfi_offset %rbp, -16
	movq	%rsp, %rbp
	.cfi_def_cfa_register %rbp
	subq	$32, %rsp
	movl	$1013457368, -28(%rbp)  # imm = 0x3C6821D8
	movq	%rdi, -16(%rbp)
	movl	%esi, -24(%rbp)
	movl	%edx, -20(%rbp)
	cmpq	$0, -16(%rbp)
	je	.LBB29_6
# %bb.1:                                # %if.then
	movl	$0, -4(%rbp)
.LBB29_2:                               # %for.cond
                                        # =>This Inner Loop Header: Depth=1
	movl	-4(%rbp), %eax
	cmpl	-24(%rbp), %eax
	jge	.LBB29_5
# %bb.3:                                # %for.body
                                        #   in Loop: Header=BB29_2 Depth=1
	movq	-16(%rbp), %rax
	movslq	-4(%rbp), %rcx
	movq	(%rax,%rcx,8), %rdi
	movl	-20(%rbp), %esi
	callq	free_mem3Dint
# %bb.4:                                # %for.inc
                                        #   in Loop: Header=BB29_2 Depth=1
	movl	-4(%rbp), %eax
	addl	$1, %eax
	movl	%eax, -4(%rbp)
	jmp	.LBB29_2
.LBB29_5:                               # %for.end
	movq	-16(%rbp), %rdi
	callq	free
	jmp	.LBB29_7
.LBB29_6:                               # %if.else
	movabsq	$.L.str.19, %rdi
	movl	$100, %esi
	callq	error
.LBB29_7:                               # %if.end
	cmpl	$1013457368, -28(%rbp)  # imm = 0x3C6821D8
	jne	.LBB29_9
.LBB29_8:
	addq	$32, %rsp
	popq	%rbp
	.cfi_def_cfa %rsp, 8
	retq
.LBB29_9:                               # %func_exit
	.cfi_def_cfa %rbp, 16
	callq	detect_breach
	jmp	.LBB29_8
.Lfunc_end29:
	.size	free_mem4Dint.3, .Lfunc_end29-free_mem4Dint.3
	.cfi_endproc
                                        # -- End function
	.globl	free_mem3Dint64.4       # -- Begin function free_mem3Dint64.4
	.p2align	4, 0x90
	.type	free_mem3Dint64.4,@function
free_mem3Dint64.4:                      # @free_mem3Dint64.4
	.cfi_startproc
# %bb.0:                                # %entry
	pushq	%rbp
	.cfi_def_cfa_offset 16
	.cfi_offset %rbp, -16
	movq	%rsp, %rbp
	.cfi_def_cfa_register %rbp
	subq	$32, %rsp
	movl	$928401485, -20(%rbp)   # imm = 0x3756484D
	movq	%rdi, -16(%rbp)
	movl	%esi, -24(%rbp)
	cmpq	$0, -16(%rbp)
	je	.LBB30_6
# %bb.1:                                # %if.then
	movl	$0, -4(%rbp)
.LBB30_2:                               # %for.cond
                                        # =>This Inner Loop Header: Depth=1
	movl	-4(%rbp), %eax
	cmpl	-24(%rbp), %eax
	jge	.LBB30_5
# %bb.3:                                # %for.body
                                        #   in Loop: Header=BB30_2 Depth=1
	movq	-16(%rbp), %rax
	movslq	-4(%rbp), %rcx
	movq	(%rax,%rcx,8), %rdi
	callq	free_mem2Dint64
# %bb.4:                                # %for.inc
                                        #   in Loop: Header=BB30_2 Depth=1
	movl	-4(%rbp), %eax
	addl	$1, %eax
	movl	%eax, -4(%rbp)
	jmp	.LBB30_2
.LBB30_5:                               # %for.end
	movq	-16(%rbp), %rdi
	callq	free
	jmp	.LBB30_7
.LBB30_6:                               # %if.else
	movabsq	$.L.str.18, %rdi
	movl	$100, %esi
	callq	error
.LBB30_7:                               # %if.end
	cmpl	$928401485, -20(%rbp)   # imm = 0x3756484D
	jne	.LBB30_9
.LBB30_8:
	addq	$32, %rsp
	popq	%rbp
	.cfi_def_cfa %rsp, 8
	retq
.LBB30_9:                               # %func_exit
	.cfi_def_cfa %rbp, 16
	callq	detect_breach
	jmp	.LBB30_8
.Lfunc_end30:
	.size	free_mem3Dint64.4, .Lfunc_end30-free_mem3Dint64.4
	.cfi_endproc
                                        # -- End function
	.globl	free_mem3Dshort.5       # -- Begin function free_mem3Dshort.5
	.p2align	4, 0x90
	.type	free_mem3Dshort.5,@function
free_mem3Dshort.5:                      # @free_mem3Dshort.5
	.cfi_startproc
# %bb.0:                                # %entry
	pushq	%rbp
	.cfi_def_cfa_offset 16
	.cfi_offset %rbp, -16
	movq	%rsp, %rbp
	.cfi_def_cfa_register %rbp
	subq	$32, %rsp
	movl	$2146527964, -24(%rbp)  # imm = 0x7FF16ADC
	movq	%rdi, -16(%rbp)
	movl	%esi, -20(%rbp)
	cmpq	$0, -16(%rbp)
	je	.LBB31_6
# %bb.1:                                # %if.then
	movl	$0, -4(%rbp)
.LBB31_2:                               # %for.cond
                                        # =>This Inner Loop Header: Depth=1
	movl	-4(%rbp), %eax
	cmpl	-20(%rbp), %eax
	jge	.LBB31_5
# %bb.3:                                # %for.body
                                        #   in Loop: Header=BB31_2 Depth=1
	movq	-16(%rbp), %rax
	movslq	-4(%rbp), %rcx
	movq	(%rax,%rcx,8), %rdi
	callq	free_mem2Dshort
# %bb.4:                                # %for.inc
                                        #   in Loop: Header=BB31_2 Depth=1
	movl	-4(%rbp), %eax
	addl	$1, %eax
	movl	%eax, -4(%rbp)
	jmp	.LBB31_2
.LBB31_5:                               # %for.end
	movq	-16(%rbp), %rdi
	callq	free
	jmp	.LBB31_7
.LBB31_6:                               # %if.else
	movabsq	$.L.str.25, %rdi
	movl	$100, %esi
	callq	error
.LBB31_7:                               # %if.end
	cmpl	$2146527964, -24(%rbp)  # imm = 0x7FF16ADC
	jne	.LBB31_9
.LBB31_8:
	addq	$32, %rsp
	popq	%rbp
	.cfi_def_cfa %rsp, 8
	retq
.LBB31_9:                               # %func_exit
	.cfi_def_cfa %rbp, 16
	callq	detect_breach
	jmp	.LBB31_8
.Lfunc_end31:
	.size	free_mem3Dshort.5, .Lfunc_end31-free_mem3Dshort.5
	.cfi_endproc
                                        # -- End function
	.globl	free_mem3Dshort.6       # -- Begin function free_mem3Dshort.6
	.p2align	4, 0x90
	.type	free_mem3Dshort.6,@function
free_mem3Dshort.6:                      # @free_mem3Dshort.6
	.cfi_startproc
# %bb.0:                                # %entry
	pushq	%rbp
	.cfi_def_cfa_offset 16
	.cfi_offset %rbp, -16
	movq	%rsp, %rbp
	.cfi_def_cfa_register %rbp
	subq	$32, %rsp
	movl	$664052392, -24(%rbp)   # imm = 0x2794A2A8
	movq	%rdi, -16(%rbp)
	movl	%esi, -20(%rbp)
	cmpq	$0, -16(%rbp)
	je	.LBB32_6
# %bb.1:                                # %if.then
	movl	$0, -4(%rbp)
.LBB32_2:                               # %for.cond
                                        # =>This Inner Loop Header: Depth=1
	movl	-4(%rbp), %eax
	cmpl	-20(%rbp), %eax
	jge	.LBB32_5
# %bb.3:                                # %for.body
                                        #   in Loop: Header=BB32_2 Depth=1
	movq	-16(%rbp), %rax
	movslq	-4(%rbp), %rcx
	movq	(%rax,%rcx,8), %rdi
	callq	free_mem2Dshort
# %bb.4:                                # %for.inc
                                        #   in Loop: Header=BB32_2 Depth=1
	movl	-4(%rbp), %eax
	addl	$1, %eax
	movl	%eax, -4(%rbp)
	jmp	.LBB32_2
.LBB32_5:                               # %for.end
	movq	-16(%rbp), %rdi
	callq	free
	jmp	.LBB32_7
.LBB32_6:                               # %if.else
	movabsq	$.L.str.25, %rdi
	movl	$100, %esi
	callq	error
.LBB32_7:                               # %if.end
	cmpl	$664052392, -24(%rbp)   # imm = 0x2794A2A8
	jne	.LBB32_9
.LBB32_8:
	addq	$32, %rsp
	popq	%rbp
	.cfi_def_cfa %rsp, 8
	retq
.LBB32_9:                               # %func_exit
	.cfi_def_cfa %rbp, 16
	callq	detect_breach
	jmp	.LBB32_8
.Lfunc_end32:
	.size	free_mem3Dshort.6, .Lfunc_end32-free_mem3Dshort.6
	.cfi_endproc
                                        # -- End function
	.globl	free_mem3D.7            # -- Begin function free_mem3D.7
	.p2align	4, 0x90
	.type	free_mem3D.7,@function
free_mem3D.7:                           # @free_mem3D.7
	.cfi_startproc
# %bb.0:                                # %entry
	pushq	%rbp
	.cfi_def_cfa_offset 16
	.cfi_offset %rbp, -16
	movq	%rsp, %rbp
	.cfi_def_cfa_register %rbp
	subq	$32, %rsp
	movl	$2046191197, -24(%rbp)  # imm = 0x79F6665D
	movq	%rdi, -16(%rbp)
	movl	%esi, -20(%rbp)
	cmpq	$0, -16(%rbp)
	je	.LBB33_6
# %bb.1:                                # %if.then
	movl	$0, -4(%rbp)
.LBB33_2:                               # %for.cond
                                        # =>This Inner Loop Header: Depth=1
	movl	-4(%rbp), %eax
	cmpl	-20(%rbp), %eax
	jge	.LBB33_5
# %bb.3:                                # %for.body
                                        #   in Loop: Header=BB33_2 Depth=1
	movq	-16(%rbp), %rax
	movslq	-4(%rbp), %rcx
	movq	(%rax,%rcx,8), %rdi
	callq	free_mem2D
# %bb.4:                                # %for.inc
                                        #   in Loop: Header=BB33_2 Depth=1
	movl	-4(%rbp), %eax
	addl	$1, %eax
	movl	%eax, -4(%rbp)
	jmp	.LBB33_2
.LBB33_5:                               # %for.end
	movq	-16(%rbp), %rdi
	callq	free
	jmp	.LBB33_7
.LBB33_6:                               # %if.else
	movabsq	$.L.str.16, %rdi
	movl	$100, %esi
	callq	error
.LBB33_7:                               # %if.end
	cmpl	$2046191197, -24(%rbp)  # imm = 0x79F6665D
	jne	.LBB33_9
.LBB33_8:
	addq	$32, %rsp
	popq	%rbp
	.cfi_def_cfa %rsp, 8
	retq
.LBB33_9:                               # %func_exit
	.cfi_def_cfa %rbp, 16
	callq	detect_breach
	jmp	.LBB33_8
.Lfunc_end33:
	.size	free_mem3D.7, .Lfunc_end33-free_mem3D.7
	.cfi_endproc
                                        # -- End function
	.globl	get_mem2Dpel.8          # -- Begin function get_mem2Dpel.8
	.p2align	4, 0x90
	.type	get_mem2Dpel.8,@function
get_mem2Dpel.8:                         # @get_mem2Dpel.8
	.cfi_startproc
# %bb.0:                                # %entry
	pushq	%rbp
	.cfi_def_cfa_offset 16
	.cfi_offset %rbp, -16
	movq	%rsp, %rbp
	.cfi_def_cfa_register %rbp
	pushq	%rbx
	subq	$40, %rsp
	.cfi_offset %rbx, -24
	movl	$1111539835, -36(%rbp)  # imm = 0x4240C07B
	movq	%rdi, -32(%rbp)
	movl	%esi, -16(%rbp)
	movl	%edx, -20(%rbp)
	movslq	-16(%rbp), %rdi
	movl	$8, %esi
	callq	calloc
	movq	-32(%rbp), %rcx
	movq	%rax, (%rcx)
	cmpq	$0, %rax
	jne	.LBB34_2
# %bb.1:                                # %if.then
	movabsq	$.L.str.2, %rdi
	callq	no_mem_exit
.LBB34_2:                               # %if.end
	movl	-16(%rbp), %eax
	imull	-20(%rbp), %eax
	movslq	%eax, %rdi
	movl	$2, %esi
	callq	calloc
	movq	-32(%rbp), %rcx
	movq	(%rcx), %rcx
	movq	%rax, (%rcx)
	cmpq	$0, %rax
	jne	.LBB34_4
# %bb.3:                                # %if.then6
	movabsq	$.L.str.2, %rdi
	callq	no_mem_exit
.LBB34_4:                               # %if.end7
	movl	$1, -12(%rbp)
.LBB34_5:                               # %for.cond
                                        # =>This Inner Loop Header: Depth=1
	movl	-12(%rbp), %eax
	cmpl	-16(%rbp), %eax
	jge	.LBB34_8
# %bb.6:                                # %for.body
                                        #   in Loop: Header=BB34_5 Depth=1
	movq	-32(%rbp), %rax
	movq	(%rax), %rax
	movl	-12(%rbp), %ecx
	subl	$1, %ecx
	movslq	%ecx, %rcx
	movq	(%rax,%rcx,8), %rax
	movslq	-20(%rbp), %rcx
	shlq	$1, %rcx
	addq	%rcx, %rax
	movq	-32(%rbp), %rcx
	movq	(%rcx), %rcx
	movslq	-12(%rbp), %rdx
	movq	%rax, (%rcx,%rdx,8)
# %bb.7:                                # %for.inc
                                        #   in Loop: Header=BB34_5 Depth=1
	movl	-12(%rbp), %eax
	addl	$1, %eax
	movl	%eax, -12(%rbp)
	jmp	.LBB34_5
.LBB34_8:                               # %for.end
	movl	-16(%rbp), %eax
	imull	-20(%rbp), %eax
	movslq	%eax, %rbx
	shlq	$1, %rbx
	cmpl	$1111539835, -36(%rbp)  # imm = 0x4240C07B
	jne	.LBB34_10
.LBB34_9:
	movl	%ebx, %eax
	addq	$40, %rsp
	popq	%rbx
	popq	%rbp
	.cfi_def_cfa %rsp, 8
	retq
.LBB34_10:                              # %func_exit
	.cfi_def_cfa %rbp, 16
	callq	detect_breach
	jmp	.LBB34_9
.Lfunc_end34:
	.size	get_mem2Dpel.8, .Lfunc_end34-get_mem2Dpel.8
	.cfi_endproc
                                        # -- End function
	.globl	get_mem3Dpel.9          # -- Begin function get_mem3Dpel.9
	.p2align	4, 0x90
	.type	get_mem3Dpel.9,@function
get_mem3Dpel.9:                         # @get_mem3Dpel.9
	.cfi_startproc
# %bb.0:                                # %entry
	pushq	%rbp
	.cfi_def_cfa_offset 16
	.cfi_offset %rbp, -16
	movq	%rsp, %rbp
	.cfi_def_cfa_register %rbp
	pushq	%rbx
	subq	$40, %rsp
	.cfi_offset %rbx, -24
	movl	$1030420510, -28(%rbp)  # imm = 0x3D6AF81E
	movq	%rdi, -40(%rbp)
	movl	%esi, -16(%rbp)
	movl	%edx, -20(%rbp)
	movl	%ecx, -24(%rbp)
	movslq	-16(%rbp), %rdi
	movl	$8, %esi
	callq	calloc
	movq	-40(%rbp), %rcx
	movq	%rax, (%rcx)
	cmpq	$0, %rax
	jne	.LBB35_2
# %bb.1:                                # %if.then
	movabsq	$.L.str.3, %rdi
	callq	no_mem_exit
.LBB35_2:                               # %if.end
	movl	$0, -12(%rbp)
.LBB35_3:                               # %for.cond
                                        # =>This Inner Loop Header: Depth=1
	movl	-12(%rbp), %eax
	cmpl	-16(%rbp), %eax
	jge	.LBB35_6
# %bb.4:                                # %for.body
                                        #   in Loop: Header=BB35_3 Depth=1
	movq	-40(%rbp), %rax
	movq	(%rax), %rdi
	movslq	-12(%rbp), %rax
	shlq	$3, %rax
	addq	%rax, %rdi
	movl	-20(%rbp), %esi
	movl	-24(%rbp), %edx
	callq	get_mem2Dpel
# %bb.5:                                # %for.inc
                                        #   in Loop: Header=BB35_3 Depth=1
	movl	-12(%rbp), %eax
	addl	$1, %eax
	movl	%eax, -12(%rbp)
	jmp	.LBB35_3
.LBB35_6:                               # %for.end
	movl	-16(%rbp), %eax
	imull	-20(%rbp), %eax
	imull	-24(%rbp), %eax
	movslq	%eax, %rbx
	shlq	$1, %rbx
	cmpl	$1030420510, -28(%rbp)  # imm = 0x3D6AF81E
	jne	.LBB35_8
.LBB35_7:
	movl	%ebx, %eax
	addq	$40, %rsp
	popq	%rbx
	popq	%rbp
	.cfi_def_cfa %rsp, 8
	retq
.LBB35_8:                               # %func_exit
	.cfi_def_cfa %rbp, 16
	callq	detect_breach
	jmp	.LBB35_7
.Lfunc_end35:
	.size	get_mem3Dpel.9, .Lfunc_end35-get_mem3Dpel.9
	.cfi_endproc
                                        # -- End function
	.globl	get_mem2Dshort.10       # -- Begin function get_mem2Dshort.10
	.p2align	4, 0x90
	.type	get_mem2Dshort.10,@function
get_mem2Dshort.10:                      # @get_mem2Dshort.10
	.cfi_startproc
# %bb.0:                                # %entry
	pushq	%rbp
	.cfi_def_cfa_offset 16
	.cfi_offset %rbp, -16
	movq	%rsp, %rbp
	.cfi_def_cfa_register %rbp
	pushq	%rbx
	subq	$40, %rsp
	.cfi_offset %rbx, -24
	movl	$594840435, -36(%rbp)   # imm = 0x23748B73
	movq	%rdi, -32(%rbp)
	movl	%esi, -16(%rbp)
	movl	%edx, -20(%rbp)
	movslq	-16(%rbp), %rdi
	movl	$8, %esi
	callq	calloc
	movq	-32(%rbp), %rcx
	movq	%rax, (%rcx)
	cmpq	$0, %rax
	jne	.LBB36_2
# %bb.1:                                # %if.then
	movabsq	$.L.str.21, %rdi
	callq	no_mem_exit
.LBB36_2:                               # %if.end
	movl	-16(%rbp), %eax
	imull	-20(%rbp), %eax
	movslq	%eax, %rdi
	movl	$2, %esi
	callq	calloc
	movq	-32(%rbp), %rcx
	movq	(%rcx), %rcx
	movq	%rax, (%rcx)
	cmpq	$0, %rax
	jne	.LBB36_4
# %bb.3:                                # %if.then6
	movabsq	$.L.str.21, %rdi
	callq	no_mem_exit
.LBB36_4:                               # %if.end7
	movl	$1, -12(%rbp)
.LBB36_5:                               # %for.cond
                                        # =>This Inner Loop Header: Depth=1
	movl	-12(%rbp), %eax
	cmpl	-16(%rbp), %eax
	jge	.LBB36_8
# %bb.6:                                # %for.body
                                        #   in Loop: Header=BB36_5 Depth=1
	movq	-32(%rbp), %rax
	movq	(%rax), %rax
	movl	-12(%rbp), %ecx
	subl	$1, %ecx
	movslq	%ecx, %rcx
	movq	(%rax,%rcx,8), %rax
	movslq	-20(%rbp), %rcx
	shlq	$1, %rcx
	addq	%rcx, %rax
	movq	-32(%rbp), %rcx
	movq	(%rcx), %rcx
	movslq	-12(%rbp), %rdx
	movq	%rax, (%rcx,%rdx,8)
# %bb.7:                                # %for.inc
                                        #   in Loop: Header=BB36_5 Depth=1
	movl	-12(%rbp), %eax
	addl	$1, %eax
	movl	%eax, -12(%rbp)
	jmp	.LBB36_5
.LBB36_8:                               # %for.end
	movl	-16(%rbp), %eax
	imull	-20(%rbp), %eax
	movslq	%eax, %rbx
	shlq	$1, %rbx
	cmpl	$594840435, -36(%rbp)   # imm = 0x23748B73
	jne	.LBB36_10
.LBB36_9:
	movl	%ebx, %eax
	addq	$40, %rsp
	popq	%rbx
	popq	%rbp
	.cfi_def_cfa %rsp, 8
	retq
.LBB36_10:                              # %func_exit
	.cfi_def_cfa %rbp, 16
	callq	detect_breach
	jmp	.LBB36_9
.Lfunc_end36:
	.size	get_mem2Dshort.10, .Lfunc_end36-get_mem2Dshort.10
	.cfi_endproc
                                        # -- End function
	.globl	free_mem3D.11           # -- Begin function free_mem3D.11
	.p2align	4, 0x90
	.type	free_mem3D.11,@function
free_mem3D.11:                          # @free_mem3D.11
	.cfi_startproc
# %bb.0:                                # %entry
	pushq	%rbp
	.cfi_def_cfa_offset 16
	.cfi_offset %rbp, -16
	movq	%rsp, %rbp
	.cfi_def_cfa_register %rbp
	subq	$32, %rsp
	movl	$52245216, -20(%rbp)    # imm = 0x31D32E0
	movq	%rdi, -16(%rbp)
	movl	%esi, -24(%rbp)
	cmpq	$0, -16(%rbp)
	je	.LBB37_6
# %bb.1:                                # %if.then
	movl	$0, -4(%rbp)
.LBB37_2:                               # %for.cond
                                        # =>This Inner Loop Header: Depth=1
	movl	-4(%rbp), %eax
	cmpl	-24(%rbp), %eax
	jge	.LBB37_5
# %bb.3:                                # %for.body
                                        #   in Loop: Header=BB37_2 Depth=1
	movq	-16(%rbp), %rax
	movslq	-4(%rbp), %rcx
	movq	(%rax,%rcx,8), %rdi
	callq	free_mem2D
# %bb.4:                                # %for.inc
                                        #   in Loop: Header=BB37_2 Depth=1
	movl	-4(%rbp), %eax
	addl	$1, %eax
	movl	%eax, -4(%rbp)
	jmp	.LBB37_2
.LBB37_5:                               # %for.end
	movq	-16(%rbp), %rdi
	callq	free
	jmp	.LBB37_7
.LBB37_6:                               # %if.else
	movabsq	$.L.str.16, %rdi
	movl	$100, %esi
	callq	error
.LBB37_7:                               # %if.end
	cmpl	$52245216, -20(%rbp)    # imm = 0x31D32E0
	jne	.LBB37_9
.LBB37_8:
	addq	$32, %rsp
	popq	%rbp
	.cfi_def_cfa %rsp, 8
	retq
.LBB37_9:                               # %func_exit
	.cfi_def_cfa %rbp, 16
	callq	detect_breach
	jmp	.LBB37_8
.Lfunc_end37:
	.size	free_mem3D.11, .Lfunc_end37-free_mem3D.11
	.cfi_endproc
                                        # -- End function
	.globl	free_top_bot_planes.12  # -- Begin function free_top_bot_planes.12
	.p2align	4, 0x90
	.type	free_top_bot_planes.12,@function
free_top_bot_planes.12:                 # @free_top_bot_planes.12
	.cfi_startproc
# %bb.0:                                # %entry
	pushq	%rbp
	.cfi_def_cfa_offset 16
	.cfi_offset %rbp, -16
	movq	%rsp, %rbp
	.cfi_def_cfa_register %rbp
	subq	$32, %rsp
	movl	$60298093, -4(%rbp)     # imm = 0x398136D
	movq	%rdi, -24(%rbp)
	movq	%rsi, -16(%rbp)
	movq	-24(%rbp), %rdi
	callq	free
	movq	-16(%rbp), %rdi
	callq	free
	cmpl	$60298093, -4(%rbp)     # imm = 0x398136D
	jne	.LBB38_2
.LBB38_1:
	addq	$32, %rsp
	popq	%rbp
	.cfi_def_cfa %rsp, 8
	retq
.LBB38_2:                               # %func_exit
	.cfi_def_cfa %rbp, 16
	callq	detect_breach
	jmp	.LBB38_1
.Lfunc_end38:
	.size	free_top_bot_planes.12, .Lfunc_end38-free_top_bot_planes.12
	.cfi_endproc
                                        # -- End function
	.globl	init_top_bot_planes.13  # -- Begin function init_top_bot_planes.13
	.p2align	4, 0x90
	.type	init_top_bot_planes.13,@function
init_top_bot_planes.13:                 # @init_top_bot_planes.13
	.cfi_startproc
# %bb.0:                                # %entry
	pushq	%rbp
	.cfi_def_cfa_offset 16
	.cfi_offset %rbp, -16
	movq	%rsp, %rbp
	.cfi_def_cfa_register %rbp
	pushq	%rbx
	subq	$56, %rsp
	.cfi_offset %rbx, -24
	movl	$487365161, -20(%rbp)   # imm = 0x1D0C9A29
	movq	%rdi, -32(%rbp)
	movl	%esi, -16(%rbp)
	movl	%edx, -52(%rbp)
	movq	%rcx, -40(%rbp)
	movq	%r8, -48(%rbp)
	movl	-16(%rbp), %eax
	cltd
	movl	$2, %ecx
	idivl	%ecx
	movslq	%eax, %rdi
	movl	$8, %esi
	callq	calloc
	movq	-40(%rbp), %rcx
	movq	%rax, (%rcx)
	cmpq	$0, %rax
	jne	.LBB39_2
# %bb.1:                                # %if.then
	movabsq	$.L.str, %rdi
	callq	no_mem_exit
.LBB39_2:                               # %if.end
	movl	-16(%rbp), %eax
	cltd
	movl	$2, %ecx
	idivl	%ecx
	movslq	%eax, %rdi
	movl	$8, %esi
	callq	calloc
	movq	-48(%rbp), %rcx
	movq	%rax, (%rcx)
	cmpq	$0, %rax
	jne	.LBB39_4
# %bb.3:                                # %if.then7
	movabsq	$.L.str.1, %rdi
	callq	no_mem_exit
.LBB39_4:                               # %if.end8
	movl	$0, -12(%rbp)
.LBB39_5:                               # %for.cond
                                        # =>This Inner Loop Header: Depth=1
	movl	-12(%rbp), %ecx
	movl	-16(%rbp), %eax
	cltd
	movl	$2, %esi
	idivl	%esi
	cmpl	%eax, %ecx
	jge	.LBB39_8
# %bb.6:                                # %for.body
                                        #   in Loop: Header=BB39_5 Depth=1
	movq	-32(%rbp), %rax
	movl	-12(%rbp), %ecx
	shll	$1, %ecx
	movslq	%ecx, %rcx
	movq	(%rax,%rcx,8), %rax
	movq	-40(%rbp), %rcx
	movq	(%rcx), %rcx
	movslq	-12(%rbp), %rdx
	movq	%rax, (%rcx,%rdx,8)
	movq	-32(%rbp), %rax
	movl	-12(%rbp), %ecx
	shll	$1, %ecx
	addl	$1, %ecx
	movslq	%ecx, %rcx
	movq	(%rax,%rcx,8), %rax
	movq	-48(%rbp), %rcx
	movq	(%rcx), %rcx
	movslq	-12(%rbp), %rdx
	movq	%rax, (%rcx,%rdx,8)
# %bb.7:                                # %for.inc
                                        #   in Loop: Header=BB39_5 Depth=1
	movl	-12(%rbp), %eax
	addl	$1, %eax
	movl	%eax, -12(%rbp)
	jmp	.LBB39_5
.LBB39_8:                               # %for.end
	movslq	-16(%rbp), %rbx
	shlq	$3, %rbx
	cmpl	$487365161, -20(%rbp)   # imm = 0x1D0C9A29
	jne	.LBB39_10
.LBB39_9:
	movl	%ebx, %eax
	addq	$56, %rsp
	popq	%rbx
	popq	%rbp
	.cfi_def_cfa %rsp, 8
	retq
.LBB39_10:                              # %func_exit
	.cfi_def_cfa %rbp, 16
	callq	detect_breach
	jmp	.LBB39_9
.Lfunc_end39:
	.size	init_top_bot_planes.13, .Lfunc_end39-init_top_bot_planes.13
	.cfi_endproc
                                        # -- End function
	.globl	free_mem3Dint.14        # -- Begin function free_mem3Dint.14
	.p2align	4, 0x90
	.type	free_mem3Dint.14,@function
free_mem3Dint.14:                       # @free_mem3Dint.14
	.cfi_startproc
# %bb.0:                                # %entry
	pushq	%rbp
	.cfi_def_cfa_offset 16
	.cfi_offset %rbp, -16
	movq	%rsp, %rbp
	.cfi_def_cfa_register %rbp
	subq	$32, %rsp
	movl	$148239215, -24(%rbp)   # imm = 0x8D5F36F
	movq	%rdi, -16(%rbp)
	movl	%esi, -20(%rbp)
	cmpq	$0, -16(%rbp)
	je	.LBB40_6
# %bb.1:                                # %if.then
	movl	$0, -4(%rbp)
.LBB40_2:                               # %for.cond
                                        # =>This Inner Loop Header: Depth=1
	movl	-4(%rbp), %eax
	cmpl	-20(%rbp), %eax
	jge	.LBB40_5
# %bb.3:                                # %for.body
                                        #   in Loop: Header=BB40_2 Depth=1
	movq	-16(%rbp), %rax
	movslq	-4(%rbp), %rcx
	movq	(%rax,%rcx,8), %rdi
	callq	free_mem2Dint
# %bb.4:                                # %for.inc
                                        #   in Loop: Header=BB40_2 Depth=1
	movl	-4(%rbp), %eax
	addl	$1, %eax
	movl	%eax, -4(%rbp)
	jmp	.LBB40_2
.LBB40_5:                               # %for.end
	movq	-16(%rbp), %rdi
	callq	free
	jmp	.LBB40_7
.LBB40_6:                               # %if.else
	movabsq	$.L.str.17, %rdi
	movl	$100, %esi
	callq	error
.LBB40_7:                               # %if.end
	cmpl	$148239215, -24(%rbp)   # imm = 0x8D5F36F
	jne	.LBB40_9
.LBB40_8:
	addq	$32, %rsp
	popq	%rbp
	.cfi_def_cfa %rsp, 8
	retq
.LBB40_9:                               # %func_exit
	.cfi_def_cfa %rbp, 16
	callq	detect_breach
	jmp	.LBB40_8
.Lfunc_end40:
	.size	free_mem3Dint.14, .Lfunc_end40-free_mem3Dint.14
	.cfi_endproc
                                        # -- End function
	.globl	free_top_bot_planes.15  # -- Begin function free_top_bot_planes.15
	.p2align	4, 0x90
	.type	free_top_bot_planes.15,@function
free_top_bot_planes.15:                 # @free_top_bot_planes.15
	.cfi_startproc
# %bb.0:                                # %entry
	pushq	%rbp
	.cfi_def_cfa_offset 16
	.cfi_offset %rbp, -16
	movq	%rsp, %rbp
	.cfi_def_cfa_register %rbp
	subq	$32, %rsp
	movl	$60919272, -4(%rbp)     # imm = 0x3A18DE8
	movq	%rdi, -16(%rbp)
	movq	%rsi, -24(%rbp)
	movq	-16(%rbp), %rdi
	callq	free
	movq	-24(%rbp), %rdi
	callq	free
	cmpl	$60919272, -4(%rbp)     # imm = 0x3A18DE8
	jne	.LBB41_2
.LBB41_1:
	addq	$32, %rsp
	popq	%rbp
	.cfi_def_cfa %rsp, 8
	retq
.LBB41_2:                               # %func_exit
	.cfi_def_cfa %rbp, 16
	callq	detect_breach
	jmp	.LBB41_1
.Lfunc_end41:
	.size	free_top_bot_planes.15, .Lfunc_end41-free_top_bot_planes.15
	.cfi_endproc
                                        # -- End function
	.globl	get_mem2Dint64.16       # -- Begin function get_mem2Dint64.16
	.p2align	4, 0x90
	.type	get_mem2Dint64.16,@function
get_mem2Dint64.16:                      # @get_mem2Dint64.16
	.cfi_startproc
# %bb.0:                                # %entry
	pushq	%rbp
	.cfi_def_cfa_offset 16
	.cfi_offset %rbp, -16
	movq	%rsp, %rbp
	.cfi_def_cfa_register %rbp
	pushq	%rbx
	subq	$40, %rsp
	.cfi_offset %rbx, -24
	movl	$467746216, -36(%rbp)   # imm = 0x1BE13DA8
	movq	%rdi, -32(%rbp)
	movl	%esi, -16(%rbp)
	movl	%edx, -20(%rbp)
	movslq	-16(%rbp), %rdi
	movl	$8, %esi
	callq	calloc
	movq	-32(%rbp), %rcx
	movq	%rax, (%rcx)
	cmpq	$0, %rax
	jne	.LBB42_2
# %bb.1:                                # %if.then
	movabsq	$.L.str.8, %rdi
	callq	no_mem_exit
.LBB42_2:                               # %if.end
	movl	-16(%rbp), %eax
	imull	-20(%rbp), %eax
	movslq	%eax, %rdi
	movl	$8, %esi
	callq	calloc
	movq	-32(%rbp), %rcx
	movq	(%rcx), %rcx
	movq	%rax, (%rcx)
	cmpq	$0, %rax
	jne	.LBB42_4
# %bb.3:                                # %if.then6
	movabsq	$.L.str.8, %rdi
	callq	no_mem_exit
.LBB42_4:                               # %if.end7
	movl	$1, -12(%rbp)
.LBB42_5:                               # %for.cond
                                        # =>This Inner Loop Header: Depth=1
	movl	-12(%rbp), %eax
	cmpl	-16(%rbp), %eax
	jge	.LBB42_8
# %bb.6:                                # %for.body
                                        #   in Loop: Header=BB42_5 Depth=1
	movq	-32(%rbp), %rax
	movq	(%rax), %rax
	movl	-12(%rbp), %ecx
	subl	$1, %ecx
	movslq	%ecx, %rcx
	movq	(%rax,%rcx,8), %rax
	movslq	-20(%rbp), %rcx
	shlq	$3, %rcx
	addq	%rcx, %rax
	movq	-32(%rbp), %rcx
	movq	(%rcx), %rcx
	movslq	-12(%rbp), %rdx
	movq	%rax, (%rcx,%rdx,8)
# %bb.7:                                # %for.inc
                                        #   in Loop: Header=BB42_5 Depth=1
	movl	-12(%rbp), %eax
	addl	$1, %eax
	movl	%eax, -12(%rbp)
	jmp	.LBB42_5
.LBB42_8:                               # %for.end
	movl	-16(%rbp), %eax
	imull	-20(%rbp), %eax
	movslq	%eax, %rbx
	shlq	$3, %rbx
	cmpl	$467746216, -36(%rbp)   # imm = 0x1BE13DA8
	jne	.LBB42_10
.LBB42_9:
	movl	%ebx, %eax
	addq	$40, %rsp
	popq	%rbx
	popq	%rbp
	.cfi_def_cfa %rsp, 8
	retq
.LBB42_10:                              # %func_exit
	.cfi_def_cfa %rbp, 16
	callq	detect_breach
	jmp	.LBB42_9
.Lfunc_end42:
	.size	get_mem2Dint64.16, .Lfunc_end42-get_mem2Dint64.16
	.cfi_endproc
                                        # -- End function
	.globl	free_mem4Dshort.17      # -- Begin function free_mem4Dshort.17
	.p2align	4, 0x90
	.type	free_mem4Dshort.17,@function
free_mem4Dshort.17:                     # @free_mem4Dshort.17
	.cfi_startproc
# %bb.0:                                # %entry
	pushq	%rbp
	.cfi_def_cfa_offset 16
	.cfi_offset %rbp, -16
	movq	%rsp, %rbp
	.cfi_def_cfa_register %rbp
	subq	$32, %rsp
	movl	$2060291396, -28(%rbp)  # imm = 0x7ACD8D44
	movq	%rdi, -16(%rbp)
	movl	%esi, -20(%rbp)
	movl	%edx, -24(%rbp)
	cmpq	$0, -16(%rbp)
	je	.LBB43_6
# %bb.1:                                # %if.then
	movl	$0, -4(%rbp)
.LBB43_2:                               # %for.cond
                                        # =>This Inner Loop Header: Depth=1
	movl	-4(%rbp), %eax
	cmpl	-20(%rbp), %eax
	jge	.LBB43_5
# %bb.3:                                # %for.body
                                        #   in Loop: Header=BB43_2 Depth=1
	movq	-16(%rbp), %rax
	movslq	-4(%rbp), %rcx
	movq	(%rax,%rcx,8), %rdi
	movl	-24(%rbp), %esi
	callq	free_mem3Dshort
# %bb.4:                                # %for.inc
                                        #   in Loop: Header=BB43_2 Depth=1
	movl	-4(%rbp), %eax
	addl	$1, %eax
	movl	%eax, -4(%rbp)
	jmp	.LBB43_2
.LBB43_5:                               # %for.end
	movq	-16(%rbp), %rdi
	callq	free
	jmp	.LBB43_7
.LBB43_6:                               # %if.else
	movabsq	$.L.str.26, %rdi
	movl	$100, %esi
	callq	error
.LBB43_7:                               # %if.end
	cmpl	$2060291396, -28(%rbp)  # imm = 0x7ACD8D44
	jne	.LBB43_9
.LBB43_8:
	addq	$32, %rsp
	popq	%rbp
	.cfi_def_cfa %rsp, 8
	retq
.LBB43_9:                               # %func_exit
	.cfi_def_cfa %rbp, 16
	callq	detect_breach
	jmp	.LBB43_8
.Lfunc_end43:
	.size	free_mem4Dshort.17, .Lfunc_end43-free_mem4Dshort.17
	.cfi_endproc
                                        # -- End function
	.globl	get_mem4Dint.18         # -- Begin function get_mem4Dint.18
	.p2align	4, 0x90
	.type	get_mem4Dint.18,@function
get_mem4Dint.18:                        # @get_mem4Dint.18
	.cfi_startproc
# %bb.0:                                # %entry
	pushq	%rbp
	.cfi_def_cfa_offset 16
	.cfi_offset %rbp, -16
	movq	%rsp, %rbp
	.cfi_def_cfa_register %rbp
	pushq	%rbx
	subq	$40, %rsp
	.cfi_offset %rbx, -24
	movl	$905125288, -32(%rbp)   # imm = 0x35F31DA8
	movq	%rdi, -40(%rbp)
	movl	%esi, -16(%rbp)
	movl	%edx, -28(%rbp)
	movl	%ecx, -24(%rbp)
	movl	%r8d, -20(%rbp)
	movslq	-16(%rbp), %rdi
	movl	$8, %esi
	callq	calloc
	movq	-40(%rbp), %rcx
	movq	%rax, (%rcx)
	cmpq	$0, %rax
	jne	.LBB44_2
# %bb.1:                                # %if.then
	movabsq	$.L.str.12, %rdi
	callq	no_mem_exit
.LBB44_2:                               # %if.end
	movl	$0, -12(%rbp)
.LBB44_3:                               # %for.cond
                                        # =>This Inner Loop Header: Depth=1
	movl	-12(%rbp), %eax
	cmpl	-16(%rbp), %eax
	jge	.LBB44_6
# %bb.4:                                # %for.body
                                        #   in Loop: Header=BB44_3 Depth=1
	movq	-40(%rbp), %rax
	movq	(%rax), %rdi
	movslq	-12(%rbp), %rax
	shlq	$3, %rax
	addq	%rax, %rdi
	movl	-28(%rbp), %esi
	movl	-24(%rbp), %edx
	movl	-20(%rbp), %ecx
	callq	get_mem3Dint
# %bb.5:                                # %for.inc
                                        #   in Loop: Header=BB44_3 Depth=1
	movl	-12(%rbp), %eax
	addl	$1, %eax
	movl	%eax, -12(%rbp)
	jmp	.LBB44_3
.LBB44_6:                               # %for.end
	movl	-16(%rbp), %eax
	imull	-28(%rbp), %eax
	imull	-24(%rbp), %eax
	imull	-20(%rbp), %eax
	movslq	%eax, %rbx
	shlq	$2, %rbx
	cmpl	$905125288, -32(%rbp)   # imm = 0x35F31DA8
	jne	.LBB44_8
.LBB44_7:
	movl	%ebx, %eax
	addq	$40, %rsp
	popq	%rbx
	popq	%rbp
	.cfi_def_cfa %rsp, 8
	retq
.LBB44_8:                               # %func_exit
	.cfi_def_cfa %rbp, 16
	callq	detect_breach
	jmp	.LBB44_7
.Lfunc_end44:
	.size	get_mem4Dint.18, .Lfunc_end44-get_mem4Dint.18
	.cfi_endproc
                                        # -- End function
	.globl	get_mem4Dshort.19       # -- Begin function get_mem4Dshort.19
	.p2align	4, 0x90
	.type	get_mem4Dshort.19,@function
get_mem4Dshort.19:                      # @get_mem4Dshort.19
	.cfi_startproc
# %bb.0:                                # %entry
	pushq	%rbp
	.cfi_def_cfa_offset 16
	.cfi_offset %rbp, -16
	movq	%rsp, %rbp
	.cfi_def_cfa_register %rbp
	pushq	%rbx
	subq	$40, %rsp
	.cfi_offset %rbx, -24
	movl	$979651034, -32(%rbp)   # imm = 0x3A6449DA
	movq	%rdi, -40(%rbp)
	movl	%esi, -16(%rbp)
	movl	%edx, -24(%rbp)
	movl	%ecx, -28(%rbp)
	movl	%r8d, -20(%rbp)
	movslq	-16(%rbp), %rdi
	movl	$8, %esi
	callq	calloc
	movq	-40(%rbp), %rcx
	movq	%rax, (%rcx)
	cmpq	$0, %rax
	jne	.LBB45_2
# %bb.1:                                # %if.then
	movabsq	$.L.str.23, %rdi
	callq	no_mem_exit
.LBB45_2:                               # %if.end
	movl	$0, -12(%rbp)
.LBB45_3:                               # %for.cond
                                        # =>This Inner Loop Header: Depth=1
	movl	-12(%rbp), %eax
	cmpl	-16(%rbp), %eax
	jge	.LBB45_6
# %bb.4:                                # %for.body
                                        #   in Loop: Header=BB45_3 Depth=1
	movq	-40(%rbp), %rax
	movq	(%rax), %rdi
	movslq	-12(%rbp), %rax
	shlq	$3, %rax
	addq	%rax, %rdi
	movl	-24(%rbp), %esi
	movl	-28(%rbp), %edx
	movl	-20(%rbp), %ecx
	callq	get_mem3Dshort
# %bb.5:                                # %for.inc
                                        #   in Loop: Header=BB45_3 Depth=1
	movl	-12(%rbp), %eax
	addl	$1, %eax
	movl	%eax, -12(%rbp)
	jmp	.LBB45_3
.LBB45_6:                               # %for.end
	movl	-16(%rbp), %eax
	imull	-24(%rbp), %eax
	imull	-28(%rbp), %eax
	imull	-20(%rbp), %eax
	movslq	%eax, %rbx
	shlq	$1, %rbx
	cmpl	$979651034, -32(%rbp)   # imm = 0x3A6449DA
	jne	.LBB45_8
.LBB45_7:
	movl	%ebx, %eax
	addq	$40, %rsp
	popq	%rbx
	popq	%rbp
	.cfi_def_cfa %rsp, 8
	retq
.LBB45_8:                               # %func_exit
	.cfi_def_cfa %rbp, 16
	callq	detect_breach
	jmp	.LBB45_7
.Lfunc_end45:
	.size	get_mem4Dshort.19, .Lfunc_end45-get_mem4Dshort.19
	.cfi_endproc
                                        # -- End function
	.globl	free_mem4Dint.20        # -- Begin function free_mem4Dint.20
	.p2align	4, 0x90
	.type	free_mem4Dint.20,@function
free_mem4Dint.20:                       # @free_mem4Dint.20
	.cfi_startproc
# %bb.0:                                # %entry
	pushq	%rbp
	.cfi_def_cfa_offset 16
	.cfi_offset %rbp, -16
	movq	%rsp, %rbp
	.cfi_def_cfa_register %rbp
	subq	$32, %rsp
	movl	$623171293, -20(%rbp)   # imm = 0x2524D6DD
	movq	%rdi, -16(%rbp)
	movl	%esi, -28(%rbp)
	movl	%edx, -24(%rbp)
	cmpq	$0, -16(%rbp)
	je	.LBB46_6
# %bb.1:                                # %if.then
	movl	$0, -4(%rbp)
.LBB46_2:                               # %for.cond
                                        # =>This Inner Loop Header: Depth=1
	movl	-4(%rbp), %eax
	cmpl	-28(%rbp), %eax
	jge	.LBB46_5
# %bb.3:                                # %for.body
                                        #   in Loop: Header=BB46_2 Depth=1
	movq	-16(%rbp), %rax
	movslq	-4(%rbp), %rcx
	movq	(%rax,%rcx,8), %rdi
	movl	-24(%rbp), %esi
	callq	free_mem3Dint
# %bb.4:                                # %for.inc
                                        #   in Loop: Header=BB46_2 Depth=1
	movl	-4(%rbp), %eax
	addl	$1, %eax
	movl	%eax, -4(%rbp)
	jmp	.LBB46_2
.LBB46_5:                               # %for.end
	movq	-16(%rbp), %rdi
	callq	free
	jmp	.LBB46_7
.LBB46_6:                               # %if.else
	movabsq	$.L.str.19, %rdi
	movl	$100, %esi
	callq	error
.LBB46_7:                               # %if.end
	cmpl	$623171293, -20(%rbp)   # imm = 0x2524D6DD
	jne	.LBB46_9
.LBB46_8:
	addq	$32, %rsp
	popq	%rbp
	.cfi_def_cfa %rsp, 8
	retq
.LBB46_9:                               # %func_exit
	.cfi_def_cfa %rbp, 16
	callq	detect_breach
	jmp	.LBB46_8
.Lfunc_end46:
	.size	free_mem4Dint.20, .Lfunc_end46-free_mem4Dint.20
	.cfi_endproc
                                        # -- End function
	.globl	free_mem3Dint.21        # -- Begin function free_mem3Dint.21
	.p2align	4, 0x90
	.type	free_mem3Dint.21,@function
free_mem3Dint.21:                       # @free_mem3Dint.21
	.cfi_startproc
# %bb.0:                                # %entry
	pushq	%rbp
	.cfi_def_cfa_offset 16
	.cfi_offset %rbp, -16
	movq	%rsp, %rbp
	.cfi_def_cfa_register %rbp
	subq	$32, %rsp
	movl	$675875327, -24(%rbp)   # imm = 0x284909FF
	movq	%rdi, -16(%rbp)
	movl	%esi, -20(%rbp)
	cmpq	$0, -16(%rbp)
	je	.LBB47_6
# %bb.1:                                # %if.then
	movl	$0, -4(%rbp)
.LBB47_2:                               # %for.cond
                                        # =>This Inner Loop Header: Depth=1
	movl	-4(%rbp), %eax
	cmpl	-20(%rbp), %eax
	jge	.LBB47_5
# %bb.3:                                # %for.body
                                        #   in Loop: Header=BB47_2 Depth=1
	movq	-16(%rbp), %rax
	movslq	-4(%rbp), %rcx
	movq	(%rax,%rcx,8), %rdi
	callq	free_mem2Dint
# %bb.4:                                # %for.inc
                                        #   in Loop: Header=BB47_2 Depth=1
	movl	-4(%rbp), %eax
	addl	$1, %eax
	movl	%eax, -4(%rbp)
	jmp	.LBB47_2
.LBB47_5:                               # %for.end
	movq	-16(%rbp), %rdi
	callq	free
	jmp	.LBB47_7
.LBB47_6:                               # %if.else
	movabsq	$.L.str.17, %rdi
	movl	$100, %esi
	callq	error
.LBB47_7:                               # %if.end
	cmpl	$675875327, -24(%rbp)   # imm = 0x284909FF
	jne	.LBB47_9
.LBB47_8:
	addq	$32, %rsp
	popq	%rbp
	.cfi_def_cfa %rsp, 8
	retq
.LBB47_9:                               # %func_exit
	.cfi_def_cfa %rbp, 16
	callq	detect_breach
	jmp	.LBB47_8
.Lfunc_end47:
	.size	free_mem3Dint.21, .Lfunc_end47-free_mem3Dint.21
	.cfi_endproc
                                        # -- End function
	.globl	get_mem2Dshort.22       # -- Begin function get_mem2Dshort.22
	.p2align	4, 0x90
	.type	get_mem2Dshort.22,@function
get_mem2Dshort.22:                      # @get_mem2Dshort.22
	.cfi_startproc
# %bb.0:                                # %entry
	pushq	%rbp
	.cfi_def_cfa_offset 16
	.cfi_offset %rbp, -16
	movq	%rsp, %rbp
	.cfi_def_cfa_register %rbp
	pushq	%rbx
	subq	$40, %rsp
	.cfi_offset %rbx, -24
	movl	$527786662, -36(%rbp)   # imm = 0x1F7562A6
	movq	%rdi, -32(%rbp)
	movl	%esi, -16(%rbp)
	movl	%edx, -20(%rbp)
	movslq	-16(%rbp), %rdi
	movl	$8, %esi
	callq	calloc
	movq	-32(%rbp), %rcx
	movq	%rax, (%rcx)
	cmpq	$0, %rax
	jne	.LBB48_2
# %bb.1:                                # %if.then
	movabsq	$.L.str.21, %rdi
	callq	no_mem_exit
.LBB48_2:                               # %if.end
	movl	-16(%rbp), %eax
	imull	-20(%rbp), %eax
	movslq	%eax, %rdi
	movl	$2, %esi
	callq	calloc
	movq	-32(%rbp), %rcx
	movq	(%rcx), %rcx
	movq	%rax, (%rcx)
	cmpq	$0, %rax
	jne	.LBB48_4
# %bb.3:                                # %if.then6
	movabsq	$.L.str.21, %rdi
	callq	no_mem_exit
.LBB48_4:                               # %if.end7
	movl	$1, -12(%rbp)
.LBB48_5:                               # %for.cond
                                        # =>This Inner Loop Header: Depth=1
	movl	-12(%rbp), %eax
	cmpl	-16(%rbp), %eax
	jge	.LBB48_8
# %bb.6:                                # %for.body
                                        #   in Loop: Header=BB48_5 Depth=1
	movq	-32(%rbp), %rax
	movq	(%rax), %rax
	movl	-12(%rbp), %ecx
	subl	$1, %ecx
	movslq	%ecx, %rcx
	movq	(%rax,%rcx,8), %rax
	movslq	-20(%rbp), %rcx
	shlq	$1, %rcx
	addq	%rcx, %rax
	movq	-32(%rbp), %rcx
	movq	(%rcx), %rcx
	movslq	-12(%rbp), %rdx
	movq	%rax, (%rcx,%rdx,8)
# %bb.7:                                # %for.inc
                                        #   in Loop: Header=BB48_5 Depth=1
	movl	-12(%rbp), %eax
	addl	$1, %eax
	movl	%eax, -12(%rbp)
	jmp	.LBB48_5
.LBB48_8:                               # %for.end
	movl	-16(%rbp), %eax
	imull	-20(%rbp), %eax
	movslq	%eax, %rbx
	shlq	$1, %rbx
	cmpl	$527786662, -36(%rbp)   # imm = 0x1F7562A6
	jne	.LBB48_10
.LBB48_9:
	movl	%ebx, %eax
	addq	$40, %rsp
	popq	%rbx
	popq	%rbp
	.cfi_def_cfa %rsp, 8
	retq
.LBB48_10:                              # %func_exit
	.cfi_def_cfa %rbp, 16
	callq	detect_breach
	jmp	.LBB48_9
.Lfunc_end48:
	.size	get_mem2Dshort.22, .Lfunc_end48-get_mem2Dshort.22
	.cfi_endproc
                                        # -- End function
	.globl	free_mem4Dint.23        # -- Begin function free_mem4Dint.23
	.p2align	4, 0x90
	.type	free_mem4Dint.23,@function
free_mem4Dint.23:                       # @free_mem4Dint.23
	.cfi_startproc
# %bb.0:                                # %entry
	pushq	%rbp
	.cfi_def_cfa_offset 16
	.cfi_offset %rbp, -16
	movq	%rsp, %rbp
	.cfi_def_cfa_register %rbp
	subq	$32, %rsp
	movl	$2068839456, -24(%rbp)  # imm = 0x7B4FFC20
	movq	%rdi, -16(%rbp)
	movl	%esi, -20(%rbp)
	movl	%edx, -28(%rbp)
	cmpq	$0, -16(%rbp)
	je	.LBB49_6
# %bb.1:                                # %if.then
	movl	$0, -4(%rbp)
.LBB49_2:                               # %for.cond
                                        # =>This Inner Loop Header: Depth=1
	movl	-4(%rbp), %eax
	cmpl	-20(%rbp), %eax
	jge	.LBB49_5
# %bb.3:                                # %for.body
                                        #   in Loop: Header=BB49_2 Depth=1
	movq	-16(%rbp), %rax
	movslq	-4(%rbp), %rcx
	movq	(%rax,%rcx,8), %rdi
	movl	-28(%rbp), %esi
	callq	free_mem3Dint
# %bb.4:                                # %for.inc
                                        #   in Loop: Header=BB49_2 Depth=1
	movl	-4(%rbp), %eax
	addl	$1, %eax
	movl	%eax, -4(%rbp)
	jmp	.LBB49_2
.LBB49_5:                               # %for.end
	movq	-16(%rbp), %rdi
	callq	free
	jmp	.LBB49_7
.LBB49_6:                               # %if.else
	movabsq	$.L.str.19, %rdi
	movl	$100, %esi
	callq	error
.LBB49_7:                               # %if.end
	cmpl	$2068839456, -24(%rbp)  # imm = 0x7B4FFC20
	jne	.LBB49_9
.LBB49_8:
	addq	$32, %rsp
	popq	%rbp
	.cfi_def_cfa %rsp, 8
	retq
.LBB49_9:                               # %func_exit
	.cfi_def_cfa %rbp, 16
	callq	detect_breach
	jmp	.LBB49_8
.Lfunc_end49:
	.size	free_mem4Dint.23, .Lfunc_end49-free_mem4Dint.23
	.cfi_endproc
                                        # -- End function
	.globl	free_mem3D.24           # -- Begin function free_mem3D.24
	.p2align	4, 0x90
	.type	free_mem3D.24,@function
free_mem3D.24:                          # @free_mem3D.24
	.cfi_startproc
# %bb.0:                                # %entry
	pushq	%rbp
	.cfi_def_cfa_offset 16
	.cfi_offset %rbp, -16
	movq	%rsp, %rbp
	.cfi_def_cfa_register %rbp
	subq	$32, %rsp
	movl	$1965737739, -20(%rbp)  # imm = 0x752AC70B
	movq	%rdi, -16(%rbp)
	movl	%esi, -24(%rbp)
	cmpq	$0, -16(%rbp)
	je	.LBB50_6
# %bb.1:                                # %if.then
	movl	$0, -4(%rbp)
.LBB50_2:                               # %for.cond
                                        # =>This Inner Loop Header: Depth=1
	movl	-4(%rbp), %eax
	cmpl	-24(%rbp), %eax
	jge	.LBB50_5
# %bb.3:                                # %for.body
                                        #   in Loop: Header=BB50_2 Depth=1
	movq	-16(%rbp), %rax
	movslq	-4(%rbp), %rcx
	movq	(%rax,%rcx,8), %rdi
	callq	free_mem2D
# %bb.4:                                # %for.inc
                                        #   in Loop: Header=BB50_2 Depth=1
	movl	-4(%rbp), %eax
	addl	$1, %eax
	movl	%eax, -4(%rbp)
	jmp	.LBB50_2
.LBB50_5:                               # %for.end
	movq	-16(%rbp), %rdi
	callq	free
	jmp	.LBB50_7
.LBB50_6:                               # %if.else
	movabsq	$.L.str.16, %rdi
	movl	$100, %esi
	callq	error
.LBB50_7:                               # %if.end
	cmpl	$1965737739, -20(%rbp)  # imm = 0x752AC70B
	jne	.LBB50_9
.LBB50_8:
	addq	$32, %rsp
	popq	%rbp
	.cfi_def_cfa %rsp, 8
	retq
.LBB50_9:                               # %func_exit
	.cfi_def_cfa %rbp, 16
	callq	detect_breach
	jmp	.LBB50_8
.Lfunc_end50:
	.size	free_mem3D.24, .Lfunc_end50-free_mem3D.24
	.cfi_endproc
                                        # -- End function
	.globl	get_mem3Dint.25         # -- Begin function get_mem3Dint.25
	.p2align	4, 0x90
	.type	get_mem3Dint.25,@function
get_mem3Dint.25:                        # @get_mem3Dint.25
	.cfi_startproc
# %bb.0:                                # %entry
	pushq	%rbp
	.cfi_def_cfa_offset 16
	.cfi_offset %rbp, -16
	movq	%rsp, %rbp
	.cfi_def_cfa_register %rbp
	pushq	%rbx
	subq	$40, %rsp
	.cfi_offset %rbx, -24
	movl	$470259226, -28(%rbp)   # imm = 0x1C07961A
	movq	%rdi, -40(%rbp)
	movl	%esi, -16(%rbp)
	movl	%edx, -24(%rbp)
	movl	%ecx, -20(%rbp)
	movslq	-16(%rbp), %rdi
	movl	$8, %esi
	callq	calloc
	movq	-40(%rbp), %rcx
	movq	%rax, (%rcx)
	cmpq	$0, %rax
	jne	.LBB51_2
# %bb.1:                                # %if.then
	movabsq	$.L.str.10, %rdi
	callq	no_mem_exit
.LBB51_2:                               # %if.end
	movl	$0, -12(%rbp)
.LBB51_3:                               # %for.cond
                                        # =>This Inner Loop Header: Depth=1
	movl	-12(%rbp), %eax
	cmpl	-16(%rbp), %eax
	jge	.LBB51_6
# %bb.4:                                # %for.body
                                        #   in Loop: Header=BB51_3 Depth=1
	movq	-40(%rbp), %rax
	movq	(%rax), %rdi
	movslq	-12(%rbp), %rax
	shlq	$3, %rax
	addq	%rax, %rdi
	movl	-24(%rbp), %esi
	movl	-20(%rbp), %edx
	callq	get_mem2Dint
# %bb.5:                                # %for.inc
                                        #   in Loop: Header=BB51_3 Depth=1
	movl	-12(%rbp), %eax
	addl	$1, %eax
	movl	%eax, -12(%rbp)
	jmp	.LBB51_3
.LBB51_6:                               # %for.end
	movl	-16(%rbp), %eax
	imull	-24(%rbp), %eax
	imull	-20(%rbp), %eax
	movslq	%eax, %rbx
	shlq	$2, %rbx
	cmpl	$470259226, -28(%rbp)   # imm = 0x1C07961A
	jne	.LBB51_8
.LBB51_7:
	movl	%ebx, %eax
	addq	$40, %rsp
	popq	%rbx
	popq	%rbp
	.cfi_def_cfa %rsp, 8
	retq
.LBB51_8:                               # %func_exit
	.cfi_def_cfa %rbp, 16
	callq	detect_breach
	jmp	.LBB51_7
.Lfunc_end51:
	.size	get_mem3Dint.25, .Lfunc_end51-get_mem3Dint.25
	.cfi_endproc
                                        # -- End function
	.globl	free_mem3Dint.26        # -- Begin function free_mem3Dint.26
	.p2align	4, 0x90
	.type	free_mem3Dint.26,@function
free_mem3Dint.26:                       # @free_mem3Dint.26
	.cfi_startproc
# %bb.0:                                # %entry
	pushq	%rbp
	.cfi_def_cfa_offset 16
	.cfi_offset %rbp, -16
	movq	%rsp, %rbp
	.cfi_def_cfa_register %rbp
	subq	$32, %rsp
	movl	$2001598932, -20(%rbp)  # imm = 0x774DF9D4
	movq	%rdi, -16(%rbp)
	movl	%esi, -24(%rbp)
	cmpq	$0, -16(%rbp)
	je	.LBB52_6
# %bb.1:                                # %if.then
	movl	$0, -4(%rbp)
.LBB52_2:                               # %for.cond
                                        # =>This Inner Loop Header: Depth=1
	movl	-4(%rbp), %eax
	cmpl	-24(%rbp), %eax
	jge	.LBB52_5
# %bb.3:                                # %for.body
                                        #   in Loop: Header=BB52_2 Depth=1
	movq	-16(%rbp), %rax
	movslq	-4(%rbp), %rcx
	movq	(%rax,%rcx,8), %rdi
	callq	free_mem2Dint
# %bb.4:                                # %for.inc
                                        #   in Loop: Header=BB52_2 Depth=1
	movl	-4(%rbp), %eax
	addl	$1, %eax
	movl	%eax, -4(%rbp)
	jmp	.LBB52_2
.LBB52_5:                               # %for.end
	movq	-16(%rbp), %rdi
	callq	free
	jmp	.LBB52_7
.LBB52_6:                               # %if.else
	movabsq	$.L.str.17, %rdi
	movl	$100, %esi
	callq	error
.LBB52_7:                               # %if.end
	cmpl	$2001598932, -20(%rbp)  # imm = 0x774DF9D4
	jne	.LBB52_9
.LBB52_8:
	addq	$32, %rsp
	popq	%rbp
	.cfi_def_cfa %rsp, 8
	retq
.LBB52_9:                               # %func_exit
	.cfi_def_cfa %rbp, 16
	callq	detect_breach
	jmp	.LBB52_8
.Lfunc_end52:
	.size	free_mem3Dint.26, .Lfunc_end52-free_mem3Dint.26
	.cfi_endproc
                                        # -- End function
	.globl	free_mem3Dint64.27      # -- Begin function free_mem3Dint64.27
	.p2align	4, 0x90
	.type	free_mem3Dint64.27,@function
free_mem3Dint64.27:                     # @free_mem3Dint64.27
	.cfi_startproc
# %bb.0:                                # %entry
	pushq	%rbp
	.cfi_def_cfa_offset 16
	.cfi_offset %rbp, -16
	movq	%rsp, %rbp
	.cfi_def_cfa_register %rbp
	subq	$32, %rsp
	movl	$265738298, -24(%rbp)   # imm = 0xFD6D83A
	movq	%rdi, -16(%rbp)
	movl	%esi, -20(%rbp)
	cmpq	$0, -16(%rbp)
	je	.LBB53_6
# %bb.1:                                # %if.then
	movl	$0, -4(%rbp)
.LBB53_2:                               # %for.cond
                                        # =>This Inner Loop Header: Depth=1
	movl	-4(%rbp), %eax
	cmpl	-20(%rbp), %eax
	jge	.LBB53_5
# %bb.3:                                # %for.body
                                        #   in Loop: Header=BB53_2 Depth=1
	movq	-16(%rbp), %rax
	movslq	-4(%rbp), %rcx
	movq	(%rax,%rcx,8), %rdi
	callq	free_mem2Dint64
# %bb.4:                                # %for.inc
                                        #   in Loop: Header=BB53_2 Depth=1
	movl	-4(%rbp), %eax
	addl	$1, %eax
	movl	%eax, -4(%rbp)
	jmp	.LBB53_2
.LBB53_5:                               # %for.end
	movq	-16(%rbp), %rdi
	callq	free
	jmp	.LBB53_7
.LBB53_6:                               # %if.else
	movabsq	$.L.str.18, %rdi
	movl	$100, %esi
	callq	error
.LBB53_7:                               # %if.end
	cmpl	$265738298, -24(%rbp)   # imm = 0xFD6D83A
	jne	.LBB53_9
.LBB53_8:
	addq	$32, %rsp
	popq	%rbp
	.cfi_def_cfa %rsp, 8
	retq
.LBB53_9:                               # %func_exit
	.cfi_def_cfa %rbp, 16
	callq	detect_breach
	jmp	.LBB53_8
.Lfunc_end53:
	.size	free_mem3Dint64.27, .Lfunc_end53-free_mem3Dint64.27
	.cfi_endproc
                                        # -- End function
	.globl	free_mem3D.28           # -- Begin function free_mem3D.28
	.p2align	4, 0x90
	.type	free_mem3D.28,@function
free_mem3D.28:                          # @free_mem3D.28
	.cfi_startproc
# %bb.0:                                # %entry
	pushq	%rbp
	.cfi_def_cfa_offset 16
	.cfi_offset %rbp, -16
	movq	%rsp, %rbp
	.cfi_def_cfa_register %rbp
	subq	$32, %rsp
	movl	$319659667, -20(%rbp)   # imm = 0x130D9E93
	movq	%rdi, -16(%rbp)
	movl	%esi, -24(%rbp)
	cmpq	$0, -16(%rbp)
	je	.LBB54_6
# %bb.1:                                # %if.then
	movl	$0, -4(%rbp)
.LBB54_2:                               # %for.cond
                                        # =>This Inner Loop Header: Depth=1
	movl	-4(%rbp), %eax
	cmpl	-24(%rbp), %eax
	jge	.LBB54_5
# %bb.3:                                # %for.body
                                        #   in Loop: Header=BB54_2 Depth=1
	movq	-16(%rbp), %rax
	movslq	-4(%rbp), %rcx
	movq	(%rax,%rcx,8), %rdi
	callq	free_mem2D
# %bb.4:                                # %for.inc
                                        #   in Loop: Header=BB54_2 Depth=1
	movl	-4(%rbp), %eax
	addl	$1, %eax
	movl	%eax, -4(%rbp)
	jmp	.LBB54_2
.LBB54_5:                               # %for.end
	movq	-16(%rbp), %rdi
	callq	free
	jmp	.LBB54_7
.LBB54_6:                               # %if.else
	movabsq	$.L.str.16, %rdi
	movl	$100, %esi
	callq	error
.LBB54_7:                               # %if.end
	cmpl	$319659667, -20(%rbp)   # imm = 0x130D9E93
	jne	.LBB54_9
.LBB54_8:
	addq	$32, %rsp
	popq	%rbp
	.cfi_def_cfa %rsp, 8
	retq
.LBB54_9:                               # %func_exit
	.cfi_def_cfa %rbp, 16
	callq	detect_breach
	jmp	.LBB54_8
.Lfunc_end54:
	.size	free_mem3D.28, .Lfunc_end54-free_mem3D.28
	.cfi_endproc
                                        # -- End function
	.globl	get_mem3D.29            # -- Begin function get_mem3D.29
	.p2align	4, 0x90
	.type	get_mem3D.29,@function
get_mem3D.29:                           # @get_mem3D.29
	.cfi_startproc
# %bb.0:                                # %entry
	pushq	%rbp
	.cfi_def_cfa_offset 16
	.cfi_offset %rbp, -16
	movq	%rsp, %rbp
	.cfi_def_cfa_register %rbp
	pushq	%rbx
	subq	$40, %rsp
	.cfi_offset %rbx, -24
	movl	$1760006087, -28(%rbp)  # imm = 0x68E78FC7
	movq	%rdi, -40(%rbp)
	movl	%esi, -16(%rbp)
	movl	%edx, -20(%rbp)
	movl	%ecx, -24(%rbp)
	movslq	-16(%rbp), %rdi
	movl	$8, %esi
	callq	calloc
	movq	-40(%rbp), %rcx
	movq	%rax, (%rcx)
	cmpq	$0, %rax
	jne	.LBB55_2
# %bb.1:                                # %if.then
	movabsq	$.L.str.9, %rdi
	callq	no_mem_exit
.LBB55_2:                               # %if.end
	movl	$0, -12(%rbp)
.LBB55_3:                               # %for.cond
                                        # =>This Inner Loop Header: Depth=1
	movl	-12(%rbp), %eax
	cmpl	-16(%rbp), %eax
	jge	.LBB55_6
# %bb.4:                                # %for.body
                                        #   in Loop: Header=BB55_3 Depth=1
	movq	-40(%rbp), %rax
	movq	(%rax), %rdi
	movslq	-12(%rbp), %rax
	shlq	$3, %rax
	addq	%rax, %rdi
	movl	-20(%rbp), %esi
	movl	-24(%rbp), %edx
	callq	get_mem2D
# %bb.5:                                # %for.inc
                                        #   in Loop: Header=BB55_3 Depth=1
	movl	-12(%rbp), %eax
	addl	$1, %eax
	movl	%eax, -12(%rbp)
	jmp	.LBB55_3
.LBB55_6:                               # %for.end
	movl	-16(%rbp), %ebx
	imull	-20(%rbp), %ebx
	imull	-24(%rbp), %ebx
	cmpl	$1760006087, -28(%rbp)  # imm = 0x68E78FC7
	jne	.LBB55_8
.LBB55_7:
	movl	%ebx, %eax
	addq	$40, %rsp
	popq	%rbx
	popq	%rbp
	.cfi_def_cfa %rsp, 8
	retq
.LBB55_8:                               # %func_exit
	.cfi_def_cfa %rbp, 16
	callq	detect_breach
	jmp	.LBB55_7
.Lfunc_end55:
	.size	get_mem3D.29, .Lfunc_end55-get_mem3D.29
	.cfi_endproc
                                        # -- End function
	.globl	free_mem3Dint.30        # -- Begin function free_mem3Dint.30
	.p2align	4, 0x90
	.type	free_mem3Dint.30,@function
free_mem3Dint.30:                       # @free_mem3Dint.30
	.cfi_startproc
# %bb.0:                                # %entry
	pushq	%rbp
	.cfi_def_cfa_offset 16
	.cfi_offset %rbp, -16
	movq	%rsp, %rbp
	.cfi_def_cfa_register %rbp
	subq	$32, %rsp
	movl	$851866236, -24(%rbp)   # imm = 0x32C6727C
	movq	%rdi, -16(%rbp)
	movl	%esi, -20(%rbp)
	cmpq	$0, -16(%rbp)
	je	.LBB56_6
# %bb.1:                                # %if.then
	movl	$0, -4(%rbp)
.LBB56_2:                               # %for.cond
                                        # =>This Inner Loop Header: Depth=1
	movl	-4(%rbp), %eax
	cmpl	-20(%rbp), %eax
	jge	.LBB56_5
# %bb.3:                                # %for.body
                                        #   in Loop: Header=BB56_2 Depth=1
	movq	-16(%rbp), %rax
	movslq	-4(%rbp), %rcx
	movq	(%rax,%rcx,8), %rdi
	callq	free_mem2Dint
# %bb.4:                                # %for.inc
                                        #   in Loop: Header=BB56_2 Depth=1
	movl	-4(%rbp), %eax
	addl	$1, %eax
	movl	%eax, -4(%rbp)
	jmp	.LBB56_2
.LBB56_5:                               # %for.end
	movq	-16(%rbp), %rdi
	callq	free
	jmp	.LBB56_7
.LBB56_6:                               # %if.else
	movabsq	$.L.str.17, %rdi
	movl	$100, %esi
	callq	error
.LBB56_7:                               # %if.end
	cmpl	$851866236, -24(%rbp)   # imm = 0x32C6727C
	jne	.LBB56_9
.LBB56_8:
	addq	$32, %rsp
	popq	%rbp
	.cfi_def_cfa %rsp, 8
	retq
.LBB56_9:                               # %func_exit
	.cfi_def_cfa %rbp, 16
	callq	detect_breach
	jmp	.LBB56_8
.Lfunc_end56:
	.size	free_mem3Dint.30, .Lfunc_end56-free_mem3Dint.30
	.cfi_endproc
                                        # -- End function
	.globl	get_mem2Dint.31         # -- Begin function get_mem2Dint.31
	.p2align	4, 0x90
	.type	get_mem2Dint.31,@function
get_mem2Dint.31:                        # @get_mem2Dint.31
	.cfi_startproc
# %bb.0:                                # %entry
	pushq	%rbp
	.cfi_def_cfa_offset 16
	.cfi_offset %rbp, -16
	movq	%rsp, %rbp
	.cfi_def_cfa_register %rbp
	pushq	%rbx
	subq	$40, %rsp
	.cfi_offset %rbx, -24
	movl	$744079649, -36(%rbp)   # imm = 0x2C59C121
	movq	%rdi, -32(%rbp)
	movl	%esi, -16(%rbp)
	movl	%edx, -20(%rbp)
	movslq	-16(%rbp), %rdi
	movl	$8, %esi
	callq	calloc
	movq	-32(%rbp), %rcx
	movq	%rax, (%rcx)
	cmpq	$0, %rax
	jne	.LBB57_2
# %bb.1:                                # %if.then
	movabsq	$.L.str.7, %rdi
	callq	no_mem_exit
.LBB57_2:                               # %if.end
	movl	-16(%rbp), %eax
	imull	-20(%rbp), %eax
	movslq	%eax, %rdi
	movl	$4, %esi
	callq	calloc
	movq	-32(%rbp), %rcx
	movq	(%rcx), %rcx
	movq	%rax, (%rcx)
	cmpq	$0, %rax
	jne	.LBB57_4
# %bb.3:                                # %if.then6
	movabsq	$.L.str.7, %rdi
	callq	no_mem_exit
.LBB57_4:                               # %if.end7
	movl	$1, -12(%rbp)
.LBB57_5:                               # %for.cond
                                        # =>This Inner Loop Header: Depth=1
	movl	-12(%rbp), %eax
	cmpl	-16(%rbp), %eax
	jge	.LBB57_8
# %bb.6:                                # %for.body
                                        #   in Loop: Header=BB57_5 Depth=1
	movq	-32(%rbp), %rax
	movq	(%rax), %rax
	movl	-12(%rbp), %ecx
	subl	$1, %ecx
	movslq	%ecx, %rcx
	movq	(%rax,%rcx,8), %rax
	movslq	-20(%rbp), %rcx
	shlq	$2, %rcx
	addq	%rcx, %rax
	movq	-32(%rbp), %rcx
	movq	(%rcx), %rcx
	movslq	-12(%rbp), %rdx
	movq	%rax, (%rcx,%rdx,8)
# %bb.7:                                # %for.inc
                                        #   in Loop: Header=BB57_5 Depth=1
	movl	-12(%rbp), %eax
	addl	$1, %eax
	movl	%eax, -12(%rbp)
	jmp	.LBB57_5
.LBB57_8:                               # %for.end
	movl	-16(%rbp), %eax
	imull	-20(%rbp), %eax
	movslq	%eax, %rbx
	shlq	$2, %rbx
	cmpl	$744079649, -36(%rbp)   # imm = 0x2C59C121
	jne	.LBB57_10
.LBB57_9:
	movl	%ebx, %eax
	addq	$40, %rsp
	popq	%rbx
	popq	%rbp
	.cfi_def_cfa %rsp, 8
	retq
.LBB57_10:                              # %func_exit
	.cfi_def_cfa %rbp, 16
	callq	detect_breach
	jmp	.LBB57_9
.Lfunc_end57:
	.size	get_mem2Dint.31, .Lfunc_end57-get_mem2Dint.31
	.cfi_endproc
                                        # -- End function
	.globl	get_mem2Dint.32         # -- Begin function get_mem2Dint.32
	.p2align	4, 0x90
	.type	get_mem2Dint.32,@function
get_mem2Dint.32:                        # @get_mem2Dint.32
	.cfi_startproc
# %bb.0:                                # %entry
	pushq	%rbp
	.cfi_def_cfa_offset 16
	.cfi_offset %rbp, -16
	movq	%rsp, %rbp
	.cfi_def_cfa_register %rbp
	pushq	%rbx
	subq	$40, %rsp
	.cfi_offset %rbx, -24
	movl	$302849363, -36(%rbp)   # imm = 0x120D1D53
	movq	%rdi, -32(%rbp)
	movl	%esi, -16(%rbp)
	movl	%edx, -20(%rbp)
	movslq	-16(%rbp), %rdi
	movl	$8, %esi
	callq	calloc
	movq	-32(%rbp), %rcx
	movq	%rax, (%rcx)
	cmpq	$0, %rax
	jne	.LBB58_2
# %bb.1:                                # %if.then
	movabsq	$.L.str.7, %rdi
	callq	no_mem_exit
.LBB58_2:                               # %if.end
	movl	-16(%rbp), %eax
	imull	-20(%rbp), %eax
	movslq	%eax, %rdi
	movl	$4, %esi
	callq	calloc
	movq	-32(%rbp), %rcx
	movq	(%rcx), %rcx
	movq	%rax, (%rcx)
	cmpq	$0, %rax
	jne	.LBB58_4
# %bb.3:                                # %if.then6
	movabsq	$.L.str.7, %rdi
	callq	no_mem_exit
.LBB58_4:                               # %if.end7
	movl	$1, -12(%rbp)
.LBB58_5:                               # %for.cond
                                        # =>This Inner Loop Header: Depth=1
	movl	-12(%rbp), %eax
	cmpl	-16(%rbp), %eax
	jge	.LBB58_8
# %bb.6:                                # %for.body
                                        #   in Loop: Header=BB58_5 Depth=1
	movq	-32(%rbp), %rax
	movq	(%rax), %rax
	movl	-12(%rbp), %ecx
	subl	$1, %ecx
	movslq	%ecx, %rcx
	movq	(%rax,%rcx,8), %rax
	movslq	-20(%rbp), %rcx
	shlq	$2, %rcx
	addq	%rcx, %rax
	movq	-32(%rbp), %rcx
	movq	(%rcx), %rcx
	movslq	-12(%rbp), %rdx
	movq	%rax, (%rcx,%rdx,8)
# %bb.7:                                # %for.inc
                                        #   in Loop: Header=BB58_5 Depth=1
	movl	-12(%rbp), %eax
	addl	$1, %eax
	movl	%eax, -12(%rbp)
	jmp	.LBB58_5
.LBB58_8:                               # %for.end
	movl	-16(%rbp), %eax
	imull	-20(%rbp), %eax
	movslq	%eax, %rbx
	shlq	$2, %rbx
	cmpl	$302849363, -36(%rbp)   # imm = 0x120D1D53
	jne	.LBB58_10
.LBB58_9:
	movl	%ebx, %eax
	addq	$40, %rsp
	popq	%rbx
	popq	%rbp
	.cfi_def_cfa %rsp, 8
	retq
.LBB58_10:                              # %func_exit
	.cfi_def_cfa %rbp, 16
	callq	detect_breach
	jmp	.LBB58_9
.Lfunc_end58:
	.size	get_mem2Dint.32, .Lfunc_end58-get_mem2Dint.32
	.cfi_endproc
                                        # -- End function
	.globl	free_mem3Dint.33        # -- Begin function free_mem3Dint.33
	.p2align	4, 0x90
	.type	free_mem3Dint.33,@function
free_mem3Dint.33:                       # @free_mem3Dint.33
	.cfi_startproc
# %bb.0:                                # %entry
	pushq	%rbp
	.cfi_def_cfa_offset 16
	.cfi_offset %rbp, -16
	movq	%rsp, %rbp
	.cfi_def_cfa_register %rbp
	subq	$32, %rsp
	movl	$521702229, -20(%rbp)   # imm = 0x1F188B55
	movq	%rdi, -16(%rbp)
	movl	%esi, -24(%rbp)
	cmpq	$0, -16(%rbp)
	je	.LBB59_6
# %bb.1:                                # %if.then
	movl	$0, -4(%rbp)
.LBB59_2:                               # %for.cond
                                        # =>This Inner Loop Header: Depth=1
	movl	-4(%rbp), %eax
	cmpl	-24(%rbp), %eax
	jge	.LBB59_5
# %bb.3:                                # %for.body
                                        #   in Loop: Header=BB59_2 Depth=1
	movq	-16(%rbp), %rax
	movslq	-4(%rbp), %rcx
	movq	(%rax,%rcx,8), %rdi
	callq	free_mem2Dint
# %bb.4:                                # %for.inc
                                        #   in Loop: Header=BB59_2 Depth=1
	movl	-4(%rbp), %eax
	addl	$1, %eax
	movl	%eax, -4(%rbp)
	jmp	.LBB59_2
.LBB59_5:                               # %for.end
	movq	-16(%rbp), %rdi
	callq	free
	jmp	.LBB59_7
.LBB59_6:                               # %if.else
	movabsq	$.L.str.17, %rdi
	movl	$100, %esi
	callq	error
.LBB59_7:                               # %if.end
	cmpl	$521702229, -20(%rbp)   # imm = 0x1F188B55
	jne	.LBB59_9
.LBB59_8:
	addq	$32, %rsp
	popq	%rbp
	.cfi_def_cfa %rsp, 8
	retq
.LBB59_9:                               # %func_exit
	.cfi_def_cfa %rbp, 16
	callq	detect_breach
	jmp	.LBB59_8
.Lfunc_end59:
	.size	free_mem3Dint.33, .Lfunc_end59-free_mem3Dint.33
	.cfi_endproc
                                        # -- End function
	.globl	free_mem3Dshort.34      # -- Begin function free_mem3Dshort.34
	.p2align	4, 0x90
	.type	free_mem3Dshort.34,@function
free_mem3Dshort.34:                     # @free_mem3Dshort.34
	.cfi_startproc
# %bb.0:                                # %entry
	pushq	%rbp
	.cfi_def_cfa_offset 16
	.cfi_offset %rbp, -16
	movq	%rsp, %rbp
	.cfi_def_cfa_register %rbp
	subq	$32, %rsp
	movl	$1015473837, -24(%rbp)  # imm = 0x3C86E6AD
	movq	%rdi, -16(%rbp)
	movl	%esi, -20(%rbp)
	cmpq	$0, -16(%rbp)
	je	.LBB60_6
# %bb.1:                                # %if.then
	movl	$0, -4(%rbp)
.LBB60_2:                               # %for.cond
                                        # =>This Inner Loop Header: Depth=1
	movl	-4(%rbp), %eax
	cmpl	-20(%rbp), %eax
	jge	.LBB60_5
# %bb.3:                                # %for.body
                                        #   in Loop: Header=BB60_2 Depth=1
	movq	-16(%rbp), %rax
	movslq	-4(%rbp), %rcx
	movq	(%rax,%rcx,8), %rdi
	callq	free_mem2Dshort
# %bb.4:                                # %for.inc
                                        #   in Loop: Header=BB60_2 Depth=1
	movl	-4(%rbp), %eax
	addl	$1, %eax
	movl	%eax, -4(%rbp)
	jmp	.LBB60_2
.LBB60_5:                               # %for.end
	movq	-16(%rbp), %rdi
	callq	free
	jmp	.LBB60_7
.LBB60_6:                               # %if.else
	movabsq	$.L.str.25, %rdi
	movl	$100, %esi
	callq	error
.LBB60_7:                               # %if.end
	cmpl	$1015473837, -24(%rbp)  # imm = 0x3C86E6AD
	jne	.LBB60_9
.LBB60_8:
	addq	$32, %rsp
	popq	%rbp
	.cfi_def_cfa %rsp, 8
	retq
.LBB60_9:                               # %func_exit
	.cfi_def_cfa %rbp, 16
	callq	detect_breach
	jmp	.LBB60_8
.Lfunc_end60:
	.size	free_mem3Dshort.34, .Lfunc_end60-free_mem3Dshort.34
	.cfi_endproc
                                        # -- End function
	.globl	free_mem4Dshort.35      # -- Begin function free_mem4Dshort.35
	.p2align	4, 0x90
	.type	free_mem4Dshort.35,@function
free_mem4Dshort.35:                     # @free_mem4Dshort.35
	.cfi_startproc
# %bb.0:                                # %entry
	pushq	%rbp
	.cfi_def_cfa_offset 16
	.cfi_offset %rbp, -16
	movq	%rsp, %rbp
	.cfi_def_cfa_register %rbp
	subq	$32, %rsp
	movl	$592123710, -28(%rbp)   # imm = 0x234B173E
	movq	%rdi, -16(%rbp)
	movl	%esi, -20(%rbp)
	movl	%edx, -24(%rbp)
	cmpq	$0, -16(%rbp)
	je	.LBB61_6
# %bb.1:                                # %if.then
	movl	$0, -4(%rbp)
.LBB61_2:                               # %for.cond
                                        # =>This Inner Loop Header: Depth=1
	movl	-4(%rbp), %eax
	cmpl	-20(%rbp), %eax
	jge	.LBB61_5
# %bb.3:                                # %for.body
                                        #   in Loop: Header=BB61_2 Depth=1
	movq	-16(%rbp), %rax
	movslq	-4(%rbp), %rcx
	movq	(%rax,%rcx,8), %rdi
	movl	-24(%rbp), %esi
	callq	free_mem3Dshort
# %bb.4:                                # %for.inc
                                        #   in Loop: Header=BB61_2 Depth=1
	movl	-4(%rbp), %eax
	addl	$1, %eax
	movl	%eax, -4(%rbp)
	jmp	.LBB61_2
.LBB61_5:                               # %for.end
	movq	-16(%rbp), %rdi
	callq	free
	jmp	.LBB61_7
.LBB61_6:                               # %if.else
	movabsq	$.L.str.26, %rdi
	movl	$100, %esi
	callq	error
.LBB61_7:                               # %if.end
	cmpl	$592123710, -28(%rbp)   # imm = 0x234B173E
	jne	.LBB61_9
.LBB61_8:
	addq	$32, %rsp
	popq	%rbp
	.cfi_def_cfa %rsp, 8
	retq
.LBB61_9:                               # %func_exit
	.cfi_def_cfa %rbp, 16
	callq	detect_breach
	jmp	.LBB61_8
.Lfunc_end61:
	.size	free_mem4Dshort.35, .Lfunc_end61-free_mem4Dshort.35
	.cfi_endproc
                                        # -- End function
	.globl	get_mem3Dint64.36       # -- Begin function get_mem3Dint64.36
	.p2align	4, 0x90
	.type	get_mem3Dint64.36,@function
get_mem3Dint64.36:                      # @get_mem3Dint64.36
	.cfi_startproc
# %bb.0:                                # %entry
	pushq	%rbp
	.cfi_def_cfa_offset 16
	.cfi_offset %rbp, -16
	movq	%rsp, %rbp
	.cfi_def_cfa_register %rbp
	pushq	%rbx
	subq	$40, %rsp
	.cfi_offset %rbx, -24
	movl	$965436655, -28(%rbp)   # imm = 0x398B64EF
	movq	%rdi, -40(%rbp)
	movl	%esi, -16(%rbp)
	movl	%edx, -24(%rbp)
	movl	%ecx, -20(%rbp)
	movslq	-16(%rbp), %rdi
	movl	$8, %esi
	callq	calloc
	movq	-40(%rbp), %rcx
	movq	%rax, (%rcx)
	cmpq	$0, %rax
	jne	.LBB62_2
# %bb.1:                                # %if.then
	movabsq	$.L.str.11, %rdi
	callq	no_mem_exit
.LBB62_2:                               # %if.end
	movl	$0, -12(%rbp)
.LBB62_3:                               # %for.cond
                                        # =>This Inner Loop Header: Depth=1
	movl	-12(%rbp), %eax
	cmpl	-16(%rbp), %eax
	jge	.LBB62_6
# %bb.4:                                # %for.body
                                        #   in Loop: Header=BB62_3 Depth=1
	movq	-40(%rbp), %rax
	movq	(%rax), %rdi
	movslq	-12(%rbp), %rax
	shlq	$3, %rax
	addq	%rax, %rdi
	movl	-24(%rbp), %esi
	movl	-20(%rbp), %edx
	callq	get_mem2Dint64
# %bb.5:                                # %for.inc
                                        #   in Loop: Header=BB62_3 Depth=1
	movl	-12(%rbp), %eax
	addl	$1, %eax
	movl	%eax, -12(%rbp)
	jmp	.LBB62_3
.LBB62_6:                               # %for.end
	movl	-16(%rbp), %eax
	imull	-24(%rbp), %eax
	imull	-20(%rbp), %eax
	movslq	%eax, %rbx
	shlq	$3, %rbx
	cmpl	$965436655, -28(%rbp)   # imm = 0x398B64EF
	jne	.LBB62_8
.LBB62_7:
	movl	%ebx, %eax
	addq	$40, %rsp
	popq	%rbx
	popq	%rbp
	.cfi_def_cfa %rsp, 8
	retq
.LBB62_8:                               # %func_exit
	.cfi_def_cfa %rbp, 16
	callq	detect_breach
	jmp	.LBB62_7
.Lfunc_end62:
	.size	get_mem3Dint64.36, .Lfunc_end62-get_mem3Dint64.36
	.cfi_endproc
                                        # -- End function
	.globl	get_mem3Dshort.37       # -- Begin function get_mem3Dshort.37
	.p2align	4, 0x90
	.type	get_mem3Dshort.37,@function
get_mem3Dshort.37:                      # @get_mem3Dshort.37
	.cfi_startproc
# %bb.0:                                # %entry
	pushq	%rbp
	.cfi_def_cfa_offset 16
	.cfi_offset %rbp, -16
	movq	%rsp, %rbp
	.cfi_def_cfa_register %rbp
	pushq	%rbx
	subq	$40, %rsp
	.cfi_offset %rbx, -24
	movl	$960568468, -28(%rbp)   # imm = 0x39411C94
	movq	%rdi, -40(%rbp)
	movl	%esi, -16(%rbp)
	movl	%edx, -24(%rbp)
	movl	%ecx, -20(%rbp)
	movslq	-16(%rbp), %rdi
	movl	$8, %esi
	callq	calloc
	movq	-40(%rbp), %rcx
	movq	%rax, (%rcx)
	cmpq	$0, %rax
	jne	.LBB63_2
# %bb.1:                                # %if.then
	movabsq	$.L.str.22, %rdi
	callq	no_mem_exit
.LBB63_2:                               # %if.end
	movl	$0, -12(%rbp)
.LBB63_3:                               # %for.cond
                                        # =>This Inner Loop Header: Depth=1
	movl	-12(%rbp), %eax
	cmpl	-16(%rbp), %eax
	jge	.LBB63_6
# %bb.4:                                # %for.body
                                        #   in Loop: Header=BB63_3 Depth=1
	movq	-40(%rbp), %rax
	movq	(%rax), %rdi
	movslq	-12(%rbp), %rax
	shlq	$3, %rax
	addq	%rax, %rdi
	movl	-24(%rbp), %esi
	movl	-20(%rbp), %edx
	callq	get_mem2Dshort
# %bb.5:                                # %for.inc
                                        #   in Loop: Header=BB63_3 Depth=1
	movl	-12(%rbp), %eax
	addl	$1, %eax
	movl	%eax, -12(%rbp)
	jmp	.LBB63_3
.LBB63_6:                               # %for.end
	movl	-16(%rbp), %eax
	imull	-24(%rbp), %eax
	imull	-20(%rbp), %eax
	movslq	%eax, %rbx
	shlq	$1, %rbx
	cmpl	$960568468, -28(%rbp)   # imm = 0x39411C94
	jne	.LBB63_8
.LBB63_7:
	movl	%ebx, %eax
	addq	$40, %rsp
	popq	%rbx
	popq	%rbp
	.cfi_def_cfa %rsp, 8
	retq
.LBB63_8:                               # %func_exit
	.cfi_def_cfa %rbp, 16
	callq	detect_breach
	jmp	.LBB63_7
.Lfunc_end63:
	.size	get_mem3Dshort.37, .Lfunc_end63-get_mem3Dshort.37
	.cfi_endproc
                                        # -- End function
	.globl	get_mem3Dint64.38       # -- Begin function get_mem3Dint64.38
	.p2align	4, 0x90
	.type	get_mem3Dint64.38,@function
get_mem3Dint64.38:                      # @get_mem3Dint64.38
	.cfi_startproc
# %bb.0:                                # %entry
	pushq	%rbp
	.cfi_def_cfa_offset 16
	.cfi_offset %rbp, -16
	movq	%rsp, %rbp
	.cfi_def_cfa_register %rbp
	pushq	%rbx
	subq	$40, %rsp
	.cfi_offset %rbx, -24
	movl	$1116855499, -28(%rbp)  # imm = 0x4291DCCB
	movq	%rdi, -40(%rbp)
	movl	%esi, -16(%rbp)
	movl	%edx, -24(%rbp)
	movl	%ecx, -20(%rbp)
	movslq	-16(%rbp), %rdi
	movl	$8, %esi
	callq	calloc
	movq	-40(%rbp), %rcx
	movq	%rax, (%rcx)
	cmpq	$0, %rax
	jne	.LBB64_2
# %bb.1:                                # %if.then
	movabsq	$.L.str.11, %rdi
	callq	no_mem_exit
.LBB64_2:                               # %if.end
	movl	$0, -12(%rbp)
.LBB64_3:                               # %for.cond
                                        # =>This Inner Loop Header: Depth=1
	movl	-12(%rbp), %eax
	cmpl	-16(%rbp), %eax
	jge	.LBB64_6
# %bb.4:                                # %for.body
                                        #   in Loop: Header=BB64_3 Depth=1
	movq	-40(%rbp), %rax
	movq	(%rax), %rdi
	movslq	-12(%rbp), %rax
	shlq	$3, %rax
	addq	%rax, %rdi
	movl	-24(%rbp), %esi
	movl	-20(%rbp), %edx
	callq	get_mem2Dint64
# %bb.5:                                # %for.inc
                                        #   in Loop: Header=BB64_3 Depth=1
	movl	-12(%rbp), %eax
	addl	$1, %eax
	movl	%eax, -12(%rbp)
	jmp	.LBB64_3
.LBB64_6:                               # %for.end
	movl	-16(%rbp), %eax
	imull	-24(%rbp), %eax
	imull	-20(%rbp), %eax
	movslq	%eax, %rbx
	shlq	$3, %rbx
	cmpl	$1116855499, -28(%rbp)  # imm = 0x4291DCCB
	jne	.LBB64_8
.LBB64_7:
	movl	%ebx, %eax
	addq	$40, %rsp
	popq	%rbx
	popq	%rbp
	.cfi_def_cfa %rsp, 8
	retq
.LBB64_8:                               # %func_exit
	.cfi_def_cfa %rbp, 16
	callq	detect_breach
	jmp	.LBB64_7
.Lfunc_end64:
	.size	get_mem3Dint64.38, .Lfunc_end64-get_mem3Dint64.38
	.cfi_endproc
                                        # -- End function
	.globl	free_mem3D.39           # -- Begin function free_mem3D.39
	.p2align	4, 0x90
	.type	free_mem3D.39,@function
free_mem3D.39:                          # @free_mem3D.39
	.cfi_startproc
# %bb.0:                                # %entry
	pushq	%rbp
	.cfi_def_cfa_offset 16
	.cfi_offset %rbp, -16
	movq	%rsp, %rbp
	.cfi_def_cfa_register %rbp
	subq	$32, %rsp
	movl	$1718045172, -20(%rbp)  # imm = 0x666749F4
	movq	%rdi, -16(%rbp)
	movl	%esi, -24(%rbp)
	cmpq	$0, -16(%rbp)
	je	.LBB65_6
# %bb.1:                                # %if.then
	movl	$0, -4(%rbp)
.LBB65_2:                               # %for.cond
                                        # =>This Inner Loop Header: Depth=1
	movl	-4(%rbp), %eax
	cmpl	-24(%rbp), %eax
	jge	.LBB65_5
# %bb.3:                                # %for.body
                                        #   in Loop: Header=BB65_2 Depth=1
	movq	-16(%rbp), %rax
	movslq	-4(%rbp), %rcx
	movq	(%rax,%rcx,8), %rdi
	callq	free_mem2D
# %bb.4:                                # %for.inc
                                        #   in Loop: Header=BB65_2 Depth=1
	movl	-4(%rbp), %eax
	addl	$1, %eax
	movl	%eax, -4(%rbp)
	jmp	.LBB65_2
.LBB65_5:                               # %for.end
	movq	-16(%rbp), %rdi
	callq	free
	jmp	.LBB65_7
.LBB65_6:                               # %if.else
	movabsq	$.L.str.16, %rdi
	movl	$100, %esi
	callq	error
.LBB65_7:                               # %if.end
	cmpl	$1718045172, -20(%rbp)  # imm = 0x666749F4
	jne	.LBB65_9
.LBB65_8:
	addq	$32, %rsp
	popq	%rbp
	.cfi_def_cfa %rsp, 8
	retq
.LBB65_9:                               # %func_exit
	.cfi_def_cfa %rbp, 16
	callq	detect_breach
	jmp	.LBB65_8
.Lfunc_end65:
	.size	free_mem3D.39, .Lfunc_end65-free_mem3D.39
	.cfi_endproc
                                        # -- End function
	.globl	get_mem4Dshort.40       # -- Begin function get_mem4Dshort.40
	.p2align	4, 0x90
	.type	get_mem4Dshort.40,@function
get_mem4Dshort.40:                      # @get_mem4Dshort.40
	.cfi_startproc
# %bb.0:                                # %entry
	pushq	%rbp
	.cfi_def_cfa_offset 16
	.cfi_offset %rbp, -16
	movq	%rsp, %rbp
	.cfi_def_cfa_register %rbp
	pushq	%rbx
	subq	$40, %rsp
	.cfi_offset %rbx, -24
	movl	$178582655, -32(%rbp)   # imm = 0xAA4F47F
	movq	%rdi, -40(%rbp)
	movl	%esi, -16(%rbp)
	movl	%edx, -20(%rbp)
	movl	%ecx, -24(%rbp)
	movl	%r8d, -28(%rbp)
	movslq	-16(%rbp), %rdi
	movl	$8, %esi
	callq	calloc
	movq	-40(%rbp), %rcx
	movq	%rax, (%rcx)
	cmpq	$0, %rax
	jne	.LBB66_2
# %bb.1:                                # %if.then
	movabsq	$.L.str.23, %rdi
	callq	no_mem_exit
.LBB66_2:                               # %if.end
	movl	$0, -12(%rbp)
.LBB66_3:                               # %for.cond
                                        # =>This Inner Loop Header: Depth=1
	movl	-12(%rbp), %eax
	cmpl	-16(%rbp), %eax
	jge	.LBB66_6
# %bb.4:                                # %for.body
                                        #   in Loop: Header=BB66_3 Depth=1
	movq	-40(%rbp), %rax
	movq	(%rax), %rdi
	movslq	-12(%rbp), %rax
	shlq	$3, %rax
	addq	%rax, %rdi
	movl	-20(%rbp), %esi
	movl	-24(%rbp), %edx
	movl	-28(%rbp), %ecx
	callq	get_mem3Dshort
# %bb.5:                                # %for.inc
                                        #   in Loop: Header=BB66_3 Depth=1
	movl	-12(%rbp), %eax
	addl	$1, %eax
	movl	%eax, -12(%rbp)
	jmp	.LBB66_3
.LBB66_6:                               # %for.end
	movl	-16(%rbp), %eax
	imull	-20(%rbp), %eax
	imull	-24(%rbp), %eax
	imull	-28(%rbp), %eax
	movslq	%eax, %rbx
	shlq	$1, %rbx
	cmpl	$178582655, -32(%rbp)   # imm = 0xAA4F47F
	jne	.LBB66_8
.LBB66_7:
	movl	%ebx, %eax
	addq	$40, %rsp
	popq	%rbx
	popq	%rbp
	.cfi_def_cfa %rsp, 8
	retq
.LBB66_8:                               # %func_exit
	.cfi_def_cfa %rbp, 16
	callq	detect_breach
	jmp	.LBB66_7
.Lfunc_end66:
	.size	get_mem4Dshort.40, .Lfunc_end66-get_mem4Dshort.40
	.cfi_endproc
                                        # -- End function
	.globl	get_mem2D.41            # -- Begin function get_mem2D.41
	.p2align	4, 0x90
	.type	get_mem2D.41,@function
get_mem2D.41:                           # @get_mem2D.41
	.cfi_startproc
# %bb.0:                                # %entry
	pushq	%rbp
	.cfi_def_cfa_offset 16
	.cfi_offset %rbp, -16
	movq	%rsp, %rbp
	.cfi_def_cfa_register %rbp
	pushq	%rbx
	subq	$40, %rsp
	.cfi_offset %rbx, -24
	movl	$1976542392, -36(%rbp)  # imm = 0x75CFA4B8
	movq	%rdi, -32(%rbp)
	movl	%esi, -16(%rbp)
	movl	%edx, -20(%rbp)
	movslq	-16(%rbp), %rdi
	movl	$8, %esi
	callq	calloc
	movq	-32(%rbp), %rcx
	movq	%rax, (%rcx)
	cmpq	$0, %rax
	jne	.LBB67_2
# %bb.1:                                # %if.then
	movabsq	$.L.str.6, %rdi
	callq	no_mem_exit
.LBB67_2:                               # %if.end
	movl	-20(%rbp), %eax
	imull	-16(%rbp), %eax
	movslq	%eax, %rdi
	movl	$1, %esi
	callq	calloc
	movq	-32(%rbp), %rcx
	movq	(%rcx), %rcx
	movq	%rax, (%rcx)
	cmpq	$0, %rax
	jne	.LBB67_4
# %bb.3:                                # %if.then6
	movabsq	$.L.str.6, %rdi
	callq	no_mem_exit
.LBB67_4:                               # %if.end7
	movl	$1, -12(%rbp)
.LBB67_5:                               # %for.cond
                                        # =>This Inner Loop Header: Depth=1
	movl	-12(%rbp), %eax
	cmpl	-16(%rbp), %eax
	jge	.LBB67_8
# %bb.6:                                # %for.body
                                        #   in Loop: Header=BB67_5 Depth=1
	movq	-32(%rbp), %rax
	movq	(%rax), %rax
	movl	-12(%rbp), %ecx
	subl	$1, %ecx
	movslq	%ecx, %rcx
	movq	(%rax,%rcx,8), %rax
	movslq	-20(%rbp), %rcx
	addq	%rcx, %rax
	movq	-32(%rbp), %rcx
	movq	(%rcx), %rcx
	movslq	-12(%rbp), %rdx
	movq	%rax, (%rcx,%rdx,8)
# %bb.7:                                # %for.inc
                                        #   in Loop: Header=BB67_5 Depth=1
	movl	-12(%rbp), %eax
	addl	$1, %eax
	movl	%eax, -12(%rbp)
	jmp	.LBB67_5
.LBB67_8:                               # %for.end
	movl	-16(%rbp), %ebx
	imull	-20(%rbp), %ebx
	cmpl	$1976542392, -36(%rbp)  # imm = 0x75CFA4B8
	jne	.LBB67_10
.LBB67_9:
	movl	%ebx, %eax
	addq	$40, %rsp
	popq	%rbx
	popq	%rbp
	.cfi_def_cfa %rsp, 8
	retq
.LBB67_10:                              # %func_exit
	.cfi_def_cfa %rbp, 16
	callq	detect_breach
	jmp	.LBB67_9
.Lfunc_end67:
	.size	get_mem2D.41, .Lfunc_end67-get_mem2D.41
	.cfi_endproc
                                        # -- End function
	.globl	free_mem4Dshort.42      # -- Begin function free_mem4Dshort.42
	.p2align	4, 0x90
	.type	free_mem4Dshort.42,@function
free_mem4Dshort.42:                     # @free_mem4Dshort.42
	.cfi_startproc
# %bb.0:                                # %entry
	pushq	%rbp
	.cfi_def_cfa_offset 16
	.cfi_offset %rbp, -16
	movq	%rsp, %rbp
	.cfi_def_cfa_register %rbp
	subq	$32, %rsp
	movl	$1283271747, -28(%rbp)  # imm = 0x4C7D2C43
	movq	%rdi, -16(%rbp)
	movl	%esi, -24(%rbp)
	movl	%edx, -20(%rbp)
	cmpq	$0, -16(%rbp)
	je	.LBB68_6
# %bb.1:                                # %if.then
	movl	$0, -4(%rbp)
.LBB68_2:                               # %for.cond
                                        # =>This Inner Loop Header: Depth=1
	movl	-4(%rbp), %eax
	cmpl	-24(%rbp), %eax
	jge	.LBB68_5
# %bb.3:                                # %for.body
                                        #   in Loop: Header=BB68_2 Depth=1
	movq	-16(%rbp), %rax
	movslq	-4(%rbp), %rcx
	movq	(%rax,%rcx,8), %rdi
	movl	-20(%rbp), %esi
	callq	free_mem3Dshort
# %bb.4:                                # %for.inc
                                        #   in Loop: Header=BB68_2 Depth=1
	movl	-4(%rbp), %eax
	addl	$1, %eax
	movl	%eax, -4(%rbp)
	jmp	.LBB68_2
.LBB68_5:                               # %for.end
	movq	-16(%rbp), %rdi
	callq	free
	jmp	.LBB68_7
.LBB68_6:                               # %if.else
	movabsq	$.L.str.26, %rdi
	movl	$100, %esi
	callq	error
.LBB68_7:                               # %if.end
	cmpl	$1283271747, -28(%rbp)  # imm = 0x4C7D2C43
	jne	.LBB68_9
.LBB68_8:
	addq	$32, %rsp
	popq	%rbp
	.cfi_def_cfa %rsp, 8
	retq
.LBB68_9:                               # %func_exit
	.cfi_def_cfa %rbp, 16
	callq	detect_breach
	jmp	.LBB68_8
.Lfunc_end68:
	.size	free_mem4Dshort.42, .Lfunc_end68-free_mem4Dshort.42
	.cfi_endproc
                                        # -- End function
	.globl	get_mem3Dpel.43         # -- Begin function get_mem3Dpel.43
	.p2align	4, 0x90
	.type	get_mem3Dpel.43,@function
get_mem3Dpel.43:                        # @get_mem3Dpel.43
	.cfi_startproc
# %bb.0:                                # %entry
	pushq	%rbp
	.cfi_def_cfa_offset 16
	.cfi_offset %rbp, -16
	movq	%rsp, %rbp
	.cfi_def_cfa_register %rbp
	pushq	%rbx
	subq	$40, %rsp
	.cfi_offset %rbx, -24
	movl	$423918731, -28(%rbp)   # imm = 0x19447C8B
	movq	%rdi, -40(%rbp)
	movl	%esi, -16(%rbp)
	movl	%edx, -24(%rbp)
	movl	%ecx, -20(%rbp)
	movslq	-16(%rbp), %rdi
	movl	$8, %esi
	callq	calloc
	movq	-40(%rbp), %rcx
	movq	%rax, (%rcx)
	cmpq	$0, %rax
	jne	.LBB69_2
# %bb.1:                                # %if.then
	movabsq	$.L.str.3, %rdi
	callq	no_mem_exit
.LBB69_2:                               # %if.end
	movl	$0, -12(%rbp)
.LBB69_3:                               # %for.cond
                                        # =>This Inner Loop Header: Depth=1
	movl	-12(%rbp), %eax
	cmpl	-16(%rbp), %eax
	jge	.LBB69_6
# %bb.4:                                # %for.body
                                        #   in Loop: Header=BB69_3 Depth=1
	movq	-40(%rbp), %rax
	movq	(%rax), %rdi
	movslq	-12(%rbp), %rax
	shlq	$3, %rax
	addq	%rax, %rdi
	movl	-24(%rbp), %esi
	movl	-20(%rbp), %edx
	callq	get_mem2Dpel
# %bb.5:                                # %for.inc
                                        #   in Loop: Header=BB69_3 Depth=1
	movl	-12(%rbp), %eax
	addl	$1, %eax
	movl	%eax, -12(%rbp)
	jmp	.LBB69_3
.LBB69_6:                               # %for.end
	movl	-16(%rbp), %eax
	imull	-24(%rbp), %eax
	imull	-20(%rbp), %eax
	movslq	%eax, %rbx
	shlq	$1, %rbx
	cmpl	$423918731, -28(%rbp)   # imm = 0x19447C8B
	jne	.LBB69_8
.LBB69_7:
	movl	%ebx, %eax
	addq	$40, %rsp
	popq	%rbx
	popq	%rbp
	.cfi_def_cfa %rsp, 8
	retq
.LBB69_8:                               # %func_exit
	.cfi_def_cfa %rbp, 16
	callq	detect_breach
	jmp	.LBB69_7
.Lfunc_end69:
	.size	get_mem3Dpel.43, .Lfunc_end69-get_mem3Dpel.43
	.cfi_endproc
                                        # -- End function
	.globl	free_mem3D.44           # -- Begin function free_mem3D.44
	.p2align	4, 0x90
	.type	free_mem3D.44,@function
free_mem3D.44:                          # @free_mem3D.44
	.cfi_startproc
# %bb.0:                                # %entry
	pushq	%rbp
	.cfi_def_cfa_offset 16
	.cfi_offset %rbp, -16
	movq	%rsp, %rbp
	.cfi_def_cfa_register %rbp
	subq	$32, %rsp
	movl	$745525073, -24(%rbp)   # imm = 0x2C6FCF51
	movq	%rdi, -16(%rbp)
	movl	%esi, -20(%rbp)
	cmpq	$0, -16(%rbp)
	je	.LBB70_6
# %bb.1:                                # %if.then
	movl	$0, -4(%rbp)
.LBB70_2:                               # %for.cond
                                        # =>This Inner Loop Header: Depth=1
	movl	-4(%rbp), %eax
	cmpl	-20(%rbp), %eax
	jge	.LBB70_5
# %bb.3:                                # %for.body
                                        #   in Loop: Header=BB70_2 Depth=1
	movq	-16(%rbp), %rax
	movslq	-4(%rbp), %rcx
	movq	(%rax,%rcx,8), %rdi
	callq	free_mem2D
# %bb.4:                                # %for.inc
                                        #   in Loop: Header=BB70_2 Depth=1
	movl	-4(%rbp), %eax
	addl	$1, %eax
	movl	%eax, -4(%rbp)
	jmp	.LBB70_2
.LBB70_5:                               # %for.end
	movq	-16(%rbp), %rdi
	callq	free
	jmp	.LBB70_7
.LBB70_6:                               # %if.else
	movabsq	$.L.str.16, %rdi
	movl	$100, %esi
	callq	error
.LBB70_7:                               # %if.end
	cmpl	$745525073, -24(%rbp)   # imm = 0x2C6FCF51
	jne	.LBB70_9
.LBB70_8:
	addq	$32, %rsp
	popq	%rbp
	.cfi_def_cfa %rsp, 8
	retq
.LBB70_9:                               # %func_exit
	.cfi_def_cfa %rbp, 16
	callq	detect_breach
	jmp	.LBB70_8
.Lfunc_end70:
	.size	free_mem3D.44, .Lfunc_end70-free_mem3D.44
	.cfi_endproc
                                        # -- End function
	.globl	free_mem3Dshort.45      # -- Begin function free_mem3Dshort.45
	.p2align	4, 0x90
	.type	free_mem3Dshort.45,@function
free_mem3Dshort.45:                     # @free_mem3Dshort.45
	.cfi_startproc
# %bb.0:                                # %entry
	pushq	%rbp
	.cfi_def_cfa_offset 16
	.cfi_offset %rbp, -16
	movq	%rsp, %rbp
	.cfi_def_cfa_register %rbp
	subq	$32, %rsp
	movl	$1654890034, -24(%rbp)  # imm = 0x62A39E32
	movq	%rdi, -16(%rbp)
	movl	%esi, -20(%rbp)
	cmpq	$0, -16(%rbp)
	je	.LBB71_6
# %bb.1:                                # %if.then
	movl	$0, -4(%rbp)
.LBB71_2:                               # %for.cond
                                        # =>This Inner Loop Header: Depth=1
	movl	-4(%rbp), %eax
	cmpl	-20(%rbp), %eax
	jge	.LBB71_5
# %bb.3:                                # %for.body
                                        #   in Loop: Header=BB71_2 Depth=1
	movq	-16(%rbp), %rax
	movslq	-4(%rbp), %rcx
	movq	(%rax,%rcx,8), %rdi
	callq	free_mem2Dshort
# %bb.4:                                # %for.inc
                                        #   in Loop: Header=BB71_2 Depth=1
	movl	-4(%rbp), %eax
	addl	$1, %eax
	movl	%eax, -4(%rbp)
	jmp	.LBB71_2
.LBB71_5:                               # %for.end
	movq	-16(%rbp), %rdi
	callq	free
	jmp	.LBB71_7
.LBB71_6:                               # %if.else
	movabsq	$.L.str.25, %rdi
	movl	$100, %esi
	callq	error
.LBB71_7:                               # %if.end
	cmpl	$1654890034, -24(%rbp)  # imm = 0x62A39E32
	jne	.LBB71_9
.LBB71_8:
	addq	$32, %rsp
	popq	%rbp
	.cfi_def_cfa %rsp, 8
	retq
.LBB71_9:                               # %func_exit
	.cfi_def_cfa %rbp, 16
	callq	detect_breach
	jmp	.LBB71_8
.Lfunc_end71:
	.size	free_mem3Dshort.45, .Lfunc_end71-free_mem3Dshort.45
	.cfi_endproc
                                        # -- End function
	.globl	get_mem3Dint.46         # -- Begin function get_mem3Dint.46
	.p2align	4, 0x90
	.type	get_mem3Dint.46,@function
get_mem3Dint.46:                        # @get_mem3Dint.46
	.cfi_startproc
# %bb.0:                                # %entry
	pushq	%rbp
	.cfi_def_cfa_offset 16
	.cfi_offset %rbp, -16
	movq	%rsp, %rbp
	.cfi_def_cfa_register %rbp
	pushq	%rbx
	subq	$40, %rsp
	.cfi_offset %rbx, -24
	movl	$1487961662, -28(%rbp)  # imm = 0x58B07E3E
	movq	%rdi, -40(%rbp)
	movl	%esi, -16(%rbp)
	movl	%edx, -20(%rbp)
	movl	%ecx, -24(%rbp)
	movslq	-16(%rbp), %rdi
	movl	$8, %esi
	callq	calloc
	movq	-40(%rbp), %rcx
	movq	%rax, (%rcx)
	cmpq	$0, %rax
	jne	.LBB72_2
# %bb.1:                                # %if.then
	movabsq	$.L.str.10, %rdi
	callq	no_mem_exit
.LBB72_2:                               # %if.end
	movl	$0, -12(%rbp)
.LBB72_3:                               # %for.cond
                                        # =>This Inner Loop Header: Depth=1
	movl	-12(%rbp), %eax
	cmpl	-16(%rbp), %eax
	jge	.LBB72_6
# %bb.4:                                # %for.body
                                        #   in Loop: Header=BB72_3 Depth=1
	movq	-40(%rbp), %rax
	movq	(%rax), %rdi
	movslq	-12(%rbp), %rax
	shlq	$3, %rax
	addq	%rax, %rdi
	movl	-20(%rbp), %esi
	movl	-24(%rbp), %edx
	callq	get_mem2Dint
# %bb.5:                                # %for.inc
                                        #   in Loop: Header=BB72_3 Depth=1
	movl	-12(%rbp), %eax
	addl	$1, %eax
	movl	%eax, -12(%rbp)
	jmp	.LBB72_3
.LBB72_6:                               # %for.end
	movl	-16(%rbp), %eax
	imull	-20(%rbp), %eax
	imull	-24(%rbp), %eax
	movslq	%eax, %rbx
	shlq	$2, %rbx
	cmpl	$1487961662, -28(%rbp)  # imm = 0x58B07E3E
	jne	.LBB72_8
.LBB72_7:
	movl	%ebx, %eax
	addq	$40, %rsp
	popq	%rbx
	popq	%rbp
	.cfi_def_cfa %rsp, 8
	retq
.LBB72_8:                               # %func_exit
	.cfi_def_cfa %rbp, 16
	callq	detect_breach
	jmp	.LBB72_7
.Lfunc_end72:
	.size	get_mem3Dint.46, .Lfunc_end72-get_mem3Dint.46
	.cfi_endproc
                                        # -- End function
	.globl	get_mem3D.47            # -- Begin function get_mem3D.47
	.p2align	4, 0x90
	.type	get_mem3D.47,@function
get_mem3D.47:                           # @get_mem3D.47
	.cfi_startproc
# %bb.0:                                # %entry
	pushq	%rbp
	.cfi_def_cfa_offset 16
	.cfi_offset %rbp, -16
	movq	%rsp, %rbp
	.cfi_def_cfa_register %rbp
	pushq	%rbx
	subq	$40, %rsp
	.cfi_offset %rbx, -24
	movl	$184348458, -28(%rbp)   # imm = 0xAFCEF2A
	movq	%rdi, -40(%rbp)
	movl	%esi, -16(%rbp)
	movl	%edx, -24(%rbp)
	movl	%ecx, -20(%rbp)
	movslq	-16(%rbp), %rdi
	movl	$8, %esi
	callq	calloc
	movq	-40(%rbp), %rcx
	movq	%rax, (%rcx)
	cmpq	$0, %rax
	jne	.LBB73_2
# %bb.1:                                # %if.then
	movabsq	$.L.str.9, %rdi
	callq	no_mem_exit
.LBB73_2:                               # %if.end
	movl	$0, -12(%rbp)
.LBB73_3:                               # %for.cond
                                        # =>This Inner Loop Header: Depth=1
	movl	-12(%rbp), %eax
	cmpl	-16(%rbp), %eax
	jge	.LBB73_6
# %bb.4:                                # %for.body
                                        #   in Loop: Header=BB73_3 Depth=1
	movq	-40(%rbp), %rax
	movq	(%rax), %rdi
	movslq	-12(%rbp), %rax
	shlq	$3, %rax
	addq	%rax, %rdi
	movl	-24(%rbp), %esi
	movl	-20(%rbp), %edx
	callq	get_mem2D
# %bb.5:                                # %for.inc
                                        #   in Loop: Header=BB73_3 Depth=1
	movl	-12(%rbp), %eax
	addl	$1, %eax
	movl	%eax, -12(%rbp)
	jmp	.LBB73_3
.LBB73_6:                               # %for.end
	movl	-16(%rbp), %ebx
	imull	-24(%rbp), %ebx
	imull	-20(%rbp), %ebx
	cmpl	$184348458, -28(%rbp)   # imm = 0xAFCEF2A
	jne	.LBB73_8
.LBB73_7:
	movl	%ebx, %eax
	addq	$40, %rsp
	popq	%rbx
	popq	%rbp
	.cfi_def_cfa %rsp, 8
	retq
.LBB73_8:                               # %func_exit
	.cfi_def_cfa %rbp, 16
	callq	detect_breach
	jmp	.LBB73_7
.Lfunc_end73:
	.size	get_mem3D.47, .Lfunc_end73-get_mem3D.47
	.cfi_endproc
                                        # -- End function
	.globl	get_mem2Dint.48         # -- Begin function get_mem2Dint.48
	.p2align	4, 0x90
	.type	get_mem2Dint.48,@function
get_mem2Dint.48:                        # @get_mem2Dint.48
	.cfi_startproc
# %bb.0:                                # %entry
	pushq	%rbp
	.cfi_def_cfa_offset 16
	.cfi_offset %rbp, -16
	movq	%rsp, %rbp
	.cfi_def_cfa_register %rbp
	pushq	%rbx
	subq	$40, %rsp
	.cfi_offset %rbx, -24
	movl	$511289179, -36(%rbp)   # imm = 0x1E79A75B
	movq	%rdi, -32(%rbp)
	movl	%esi, -16(%rbp)
	movl	%edx, -20(%rbp)
	movslq	-16(%rbp), %rdi
	movl	$8, %esi
	callq	calloc
	movq	-32(%rbp), %rcx
	movq	%rax, (%rcx)
	cmpq	$0, %rax
	jne	.LBB74_2
# %bb.1:                                # %if.then
	movabsq	$.L.str.7, %rdi
	callq	no_mem_exit
.LBB74_2:                               # %if.end
	movl	-16(%rbp), %eax
	imull	-20(%rbp), %eax
	movslq	%eax, %rdi
	movl	$4, %esi
	callq	calloc
	movq	-32(%rbp), %rcx
	movq	(%rcx), %rcx
	movq	%rax, (%rcx)
	cmpq	$0, %rax
	jne	.LBB74_4
# %bb.3:                                # %if.then6
	movabsq	$.L.str.7, %rdi
	callq	no_mem_exit
.LBB74_4:                               # %if.end7
	movl	$1, -12(%rbp)
.LBB74_5:                               # %for.cond
                                        # =>This Inner Loop Header: Depth=1
	movl	-12(%rbp), %eax
	cmpl	-16(%rbp), %eax
	jge	.LBB74_8
# %bb.6:                                # %for.body
                                        #   in Loop: Header=BB74_5 Depth=1
	movq	-32(%rbp), %rax
	movq	(%rax), %rax
	movl	-12(%rbp), %ecx
	subl	$1, %ecx
	movslq	%ecx, %rcx
	movq	(%rax,%rcx,8), %rax
	movslq	-20(%rbp), %rcx
	shlq	$2, %rcx
	addq	%rcx, %rax
	movq	-32(%rbp), %rcx
	movq	(%rcx), %rcx
	movslq	-12(%rbp), %rdx
	movq	%rax, (%rcx,%rdx,8)
# %bb.7:                                # %for.inc
                                        #   in Loop: Header=BB74_5 Depth=1
	movl	-12(%rbp), %eax
	addl	$1, %eax
	movl	%eax, -12(%rbp)
	jmp	.LBB74_5
.LBB74_8:                               # %for.end
	movl	-16(%rbp), %eax
	imull	-20(%rbp), %eax
	movslq	%eax, %rbx
	shlq	$2, %rbx
	cmpl	$511289179, -36(%rbp)   # imm = 0x1E79A75B
	jne	.LBB74_10
.LBB74_9:
	movl	%ebx, %eax
	addq	$40, %rsp
	popq	%rbx
	popq	%rbp
	.cfi_def_cfa %rsp, 8
	retq
.LBB74_10:                              # %func_exit
	.cfi_def_cfa %rbp, 16
	callq	detect_breach
	jmp	.LBB74_9
.Lfunc_end74:
	.size	get_mem2Dint.48, .Lfunc_end74-get_mem2Dint.48
	.cfi_endproc
                                        # -- End function
	.globl	free_mem3Dpel.49        # -- Begin function free_mem3Dpel.49
	.p2align	4, 0x90
	.type	free_mem3Dpel.49,@function
free_mem3Dpel.49:                       # @free_mem3Dpel.49
	.cfi_startproc
# %bb.0:                                # %entry
	pushq	%rbp
	.cfi_def_cfa_offset 16
	.cfi_offset %rbp, -16
	movq	%rsp, %rbp
	.cfi_def_cfa_register %rbp
	subq	$32, %rsp
	movl	$314611153, -24(%rbp)   # imm = 0x12C095D1
	movq	%rdi, -16(%rbp)
	movl	%esi, -20(%rbp)
	cmpq	$0, -16(%rbp)
	je	.LBB75_6
# %bb.1:                                # %if.then
	movl	$0, -4(%rbp)
.LBB75_2:                               # %for.cond
                                        # =>This Inner Loop Header: Depth=1
	movl	-4(%rbp), %eax
	cmpl	-20(%rbp), %eax
	jge	.LBB75_5
# %bb.3:                                # %for.body
                                        #   in Loop: Header=BB75_2 Depth=1
	movq	-16(%rbp), %rax
	movslq	-4(%rbp), %rcx
	movq	(%rax,%rcx,8), %rdi
	callq	free_mem2Dpel
# %bb.4:                                # %for.inc
                                        #   in Loop: Header=BB75_2 Depth=1
	movl	-4(%rbp), %eax
	addl	$1, %eax
	movl	%eax, -4(%rbp)
	jmp	.LBB75_2
.LBB75_5:                               # %for.end
	movq	-16(%rbp), %rdi
	callq	free
	jmp	.LBB75_7
.LBB75_6:                               # %if.else
	movabsq	$.L.str.5, %rdi
	movl	$100, %esi
	callq	error
.LBB75_7:                               # %if.end
	cmpl	$314611153, -24(%rbp)   # imm = 0x12C095D1
	jne	.LBB75_9
.LBB75_8:
	addq	$32, %rsp
	popq	%rbp
	.cfi_def_cfa %rsp, 8
	retq
.LBB75_9:                               # %func_exit
	.cfi_def_cfa %rbp, 16
	callq	detect_breach
	jmp	.LBB75_8
.Lfunc_end75:
	.size	free_mem3Dpel.49, .Lfunc_end75-free_mem3Dpel.49
	.cfi_endproc
                                        # -- End function
	.globl	init_top_bot_planes.50  # -- Begin function init_top_bot_planes.50
	.p2align	4, 0x90
	.type	init_top_bot_planes.50,@function
init_top_bot_planes.50:                 # @init_top_bot_planes.50
	.cfi_startproc
# %bb.0:                                # %entry
	pushq	%rbp
	.cfi_def_cfa_offset 16
	.cfi_offset %rbp, -16
	movq	%rsp, %rbp
	.cfi_def_cfa_register %rbp
	pushq	%rbx
	subq	$56, %rsp
	.cfi_offset %rbx, -24
	movl	$46839951, -20(%rbp)    # imm = 0x2CAB88F
	movq	%rdi, -40(%rbp)
	movl	%esi, -16(%rbp)
	movl	%edx, -52(%rbp)
	movq	%rcx, -48(%rbp)
	movq	%r8, -32(%rbp)
	movl	-16(%rbp), %eax
	cltd
	movl	$2, %ecx
	idivl	%ecx
	movslq	%eax, %rdi
	movl	$8, %esi
	callq	calloc
	movq	-48(%rbp), %rcx
	movq	%rax, (%rcx)
	cmpq	$0, %rax
	jne	.LBB76_2
# %bb.1:                                # %if.then
	movabsq	$.L.str, %rdi
	callq	no_mem_exit
.LBB76_2:                               # %if.end
	movl	-16(%rbp), %eax
	cltd
	movl	$2, %ecx
	idivl	%ecx
	movslq	%eax, %rdi
	movl	$8, %esi
	callq	calloc
	movq	-32(%rbp), %rcx
	movq	%rax, (%rcx)
	cmpq	$0, %rax
	jne	.LBB76_4
# %bb.3:                                # %if.then7
	movabsq	$.L.str.1, %rdi
	callq	no_mem_exit
.LBB76_4:                               # %if.end8
	movl	$0, -12(%rbp)
.LBB76_5:                               # %for.cond
                                        # =>This Inner Loop Header: Depth=1
	movl	-12(%rbp), %ecx
	movl	-16(%rbp), %eax
	cltd
	movl	$2, %esi
	idivl	%esi
	cmpl	%eax, %ecx
	jge	.LBB76_8
# %bb.6:                                # %for.body
                                        #   in Loop: Header=BB76_5 Depth=1
	movq	-40(%rbp), %rax
	movl	-12(%rbp), %ecx
	shll	$1, %ecx
	movslq	%ecx, %rcx
	movq	(%rax,%rcx,8), %rax
	movq	-48(%rbp), %rcx
	movq	(%rcx), %rcx
	movslq	-12(%rbp), %rdx
	movq	%rax, (%rcx,%rdx,8)
	movq	-40(%rbp), %rax
	movl	-12(%rbp), %ecx
	shll	$1, %ecx
	addl	$1, %ecx
	movslq	%ecx, %rcx
	movq	(%rax,%rcx,8), %rax
	movq	-32(%rbp), %rcx
	movq	(%rcx), %rcx
	movslq	-12(%rbp), %rdx
	movq	%rax, (%rcx,%rdx,8)
# %bb.7:                                # %for.inc
                                        #   in Loop: Header=BB76_5 Depth=1
	movl	-12(%rbp), %eax
	addl	$1, %eax
	movl	%eax, -12(%rbp)
	jmp	.LBB76_5
.LBB76_8:                               # %for.end
	movslq	-16(%rbp), %rbx
	shlq	$3, %rbx
	cmpl	$46839951, -20(%rbp)    # imm = 0x2CAB88F
	jne	.LBB76_10
.LBB76_9:
	movl	%ebx, %eax
	addq	$56, %rsp
	popq	%rbx
	popq	%rbp
	.cfi_def_cfa %rsp, 8
	retq
.LBB76_10:                              # %func_exit
	.cfi_def_cfa %rbp, 16
	callq	detect_breach
	jmp	.LBB76_9
.Lfunc_end76:
	.size	init_top_bot_planes.50, .Lfunc_end76-init_top_bot_planes.50
	.cfi_endproc
                                        # -- End function
	.globl	free_mem4Dshort.51      # -- Begin function free_mem4Dshort.51
	.p2align	4, 0x90
	.type	free_mem4Dshort.51,@function
free_mem4Dshort.51:                     # @free_mem4Dshort.51
	.cfi_startproc
# %bb.0:                                # %entry
	pushq	%rbp
	.cfi_def_cfa_offset 16
	.cfi_offset %rbp, -16
	movq	%rsp, %rbp
	.cfi_def_cfa_register %rbp
	subq	$32, %rsp
	movl	$231265676, -28(%rbp)   # imm = 0xDC8D58C
	movq	%rdi, -16(%rbp)
	movl	%esi, -24(%rbp)
	movl	%edx, -20(%rbp)
	cmpq	$0, -16(%rbp)
	je	.LBB77_6
# %bb.1:                                # %if.then
	movl	$0, -4(%rbp)
.LBB77_2:                               # %for.cond
                                        # =>This Inner Loop Header: Depth=1
	movl	-4(%rbp), %eax
	cmpl	-24(%rbp), %eax
	jge	.LBB77_5
# %bb.3:                                # %for.body
                                        #   in Loop: Header=BB77_2 Depth=1
	movq	-16(%rbp), %rax
	movslq	-4(%rbp), %rcx
	movq	(%rax,%rcx,8), %rdi
	movl	-20(%rbp), %esi
	callq	free_mem3Dshort
# %bb.4:                                # %for.inc
                                        #   in Loop: Header=BB77_2 Depth=1
	movl	-4(%rbp), %eax
	addl	$1, %eax
	movl	%eax, -4(%rbp)
	jmp	.LBB77_2
.LBB77_5:                               # %for.end
	movq	-16(%rbp), %rdi
	callq	free
	jmp	.LBB77_7
.LBB77_6:                               # %if.else
	movabsq	$.L.str.26, %rdi
	movl	$100, %esi
	callq	error
.LBB77_7:                               # %if.end
	cmpl	$231265676, -28(%rbp)   # imm = 0xDC8D58C
	jne	.LBB77_9
.LBB77_8:
	addq	$32, %rsp
	popq	%rbp
	.cfi_def_cfa %rsp, 8
	retq
.LBB77_9:                               # %func_exit
	.cfi_def_cfa %rbp, 16
	callq	detect_breach
	jmp	.LBB77_8
.Lfunc_end77:
	.size	free_mem4Dshort.51, .Lfunc_end77-free_mem4Dshort.51
	.cfi_endproc
                                        # -- End function
	.globl	free_mem3Dshort.52      # -- Begin function free_mem3Dshort.52
	.p2align	4, 0x90
	.type	free_mem3Dshort.52,@function
free_mem3Dshort.52:                     # @free_mem3Dshort.52
	.cfi_startproc
# %bb.0:                                # %entry
	pushq	%rbp
	.cfi_def_cfa_offset 16
	.cfi_offset %rbp, -16
	movq	%rsp, %rbp
	.cfi_def_cfa_register %rbp
	subq	$32, %rsp
	movl	$1823291262, -20(%rbp)  # imm = 0x6CAD377E
	movq	%rdi, -16(%rbp)
	movl	%esi, -24(%rbp)
	cmpq	$0, -16(%rbp)
	je	.LBB78_6
# %bb.1:                                # %if.then
	movl	$0, -4(%rbp)
.LBB78_2:                               # %for.cond
                                        # =>This Inner Loop Header: Depth=1
	movl	-4(%rbp), %eax
	cmpl	-24(%rbp), %eax
	jge	.LBB78_5
# %bb.3:                                # %for.body
                                        #   in Loop: Header=BB78_2 Depth=1
	movq	-16(%rbp), %rax
	movslq	-4(%rbp), %rcx
	movq	(%rax,%rcx,8), %rdi
	callq	free_mem2Dshort
# %bb.4:                                # %for.inc
                                        #   in Loop: Header=BB78_2 Depth=1
	movl	-4(%rbp), %eax
	addl	$1, %eax
	movl	%eax, -4(%rbp)
	jmp	.LBB78_2
.LBB78_5:                               # %for.end
	movq	-16(%rbp), %rdi
	callq	free
	jmp	.LBB78_7
.LBB78_6:                               # %if.else
	movabsq	$.L.str.25, %rdi
	movl	$100, %esi
	callq	error
.LBB78_7:                               # %if.end
	cmpl	$1823291262, -20(%rbp)  # imm = 0x6CAD377E
	jne	.LBB78_9
.LBB78_8:
	addq	$32, %rsp
	popq	%rbp
	.cfi_def_cfa %rsp, 8
	retq
.LBB78_9:                               # %func_exit
	.cfi_def_cfa %rbp, 16
	callq	detect_breach
	jmp	.LBB78_8
.Lfunc_end78:
	.size	free_mem3Dshort.52, .Lfunc_end78-free_mem3Dshort.52
	.cfi_endproc
                                        # -- End function
	.globl	get_mem3D.53            # -- Begin function get_mem3D.53
	.p2align	4, 0x90
	.type	get_mem3D.53,@function
get_mem3D.53:                           # @get_mem3D.53
	.cfi_startproc
# %bb.0:                                # %entry
	pushq	%rbp
	.cfi_def_cfa_offset 16
	.cfi_offset %rbp, -16
	movq	%rsp, %rbp
	.cfi_def_cfa_register %rbp
	pushq	%rbx
	subq	$40, %rsp
	.cfi_offset %rbx, -24
	movl	$338014556, -28(%rbp)   # imm = 0x1425B15C
	movq	%rdi, -40(%rbp)
	movl	%esi, -16(%rbp)
	movl	%edx, -24(%rbp)
	movl	%ecx, -20(%rbp)
	movslq	-16(%rbp), %rdi
	movl	$8, %esi
	callq	calloc
	movq	-40(%rbp), %rcx
	movq	%rax, (%rcx)
	cmpq	$0, %rax
	jne	.LBB79_2
# %bb.1:                                # %if.then
	movabsq	$.L.str.9, %rdi
	callq	no_mem_exit
.LBB79_2:                               # %if.end
	movl	$0, -12(%rbp)
.LBB79_3:                               # %for.cond
                                        # =>This Inner Loop Header: Depth=1
	movl	-12(%rbp), %eax
	cmpl	-16(%rbp), %eax
	jge	.LBB79_6
# %bb.4:                                # %for.body
                                        #   in Loop: Header=BB79_3 Depth=1
	movq	-40(%rbp), %rax
	movq	(%rax), %rdi
	movslq	-12(%rbp), %rax
	shlq	$3, %rax
	addq	%rax, %rdi
	movl	-24(%rbp), %esi
	movl	-20(%rbp), %edx
	callq	get_mem2D
# %bb.5:                                # %for.inc
                                        #   in Loop: Header=BB79_3 Depth=1
	movl	-12(%rbp), %eax
	addl	$1, %eax
	movl	%eax, -12(%rbp)
	jmp	.LBB79_3
.LBB79_6:                               # %for.end
	movl	-16(%rbp), %ebx
	imull	-24(%rbp), %ebx
	imull	-20(%rbp), %ebx
	cmpl	$338014556, -28(%rbp)   # imm = 0x1425B15C
	jne	.LBB79_8
.LBB79_7:
	movl	%ebx, %eax
	addq	$40, %rsp
	popq	%rbx
	popq	%rbp
	.cfi_def_cfa %rsp, 8
	retq
.LBB79_8:                               # %func_exit
	.cfi_def_cfa %rbp, 16
	callq	detect_breach
	jmp	.LBB79_7
.Lfunc_end79:
	.size	get_mem3D.53, .Lfunc_end79-get_mem3D.53
	.cfi_endproc
                                        # -- End function
	.globl	free_mem3Dpel.54        # -- Begin function free_mem3Dpel.54
	.p2align	4, 0x90
	.type	free_mem3Dpel.54,@function
free_mem3Dpel.54:                       # @free_mem3Dpel.54
	.cfi_startproc
# %bb.0:                                # %entry
	pushq	%rbp
	.cfi_def_cfa_offset 16
	.cfi_offset %rbp, -16
	movq	%rsp, %rbp
	.cfi_def_cfa_register %rbp
	subq	$32, %rsp
	movl	$904273122, -24(%rbp)   # imm = 0x35E61CE2
	movq	%rdi, -16(%rbp)
	movl	%esi, -20(%rbp)
	cmpq	$0, -16(%rbp)
	je	.LBB80_6
# %bb.1:                                # %if.then
	movl	$0, -4(%rbp)
.LBB80_2:                               # %for.cond
                                        # =>This Inner Loop Header: Depth=1
	movl	-4(%rbp), %eax
	cmpl	-20(%rbp), %eax
	jge	.LBB80_5
# %bb.3:                                # %for.body
                                        #   in Loop: Header=BB80_2 Depth=1
	movq	-16(%rbp), %rax
	movslq	-4(%rbp), %rcx
	movq	(%rax,%rcx,8), %rdi
	callq	free_mem2Dpel
# %bb.4:                                # %for.inc
                                        #   in Loop: Header=BB80_2 Depth=1
	movl	-4(%rbp), %eax
	addl	$1, %eax
	movl	%eax, -4(%rbp)
	jmp	.LBB80_2
.LBB80_5:                               # %for.end
	movq	-16(%rbp), %rdi
	callq	free
	jmp	.LBB80_7
.LBB80_6:                               # %if.else
	movabsq	$.L.str.5, %rdi
	movl	$100, %esi
	callq	error
.LBB80_7:                               # %if.end
	cmpl	$904273122, -24(%rbp)   # imm = 0x35E61CE2
	jne	.LBB80_9
.LBB80_8:
	addq	$32, %rsp
	popq	%rbp
	.cfi_def_cfa %rsp, 8
	retq
.LBB80_9:                               # %func_exit
	.cfi_def_cfa %rbp, 16
	callq	detect_breach
	jmp	.LBB80_8
.Lfunc_end80:
	.size	free_mem3Dpel.54, .Lfunc_end80-free_mem3Dpel.54
	.cfi_endproc
                                        # -- End function
	.globl	free_mem3Dshort.55      # -- Begin function free_mem3Dshort.55
	.p2align	4, 0x90
	.type	free_mem3Dshort.55,@function
free_mem3Dshort.55:                     # @free_mem3Dshort.55
	.cfi_startproc
# %bb.0:                                # %entry
	pushq	%rbp
	.cfi_def_cfa_offset 16
	.cfi_offset %rbp, -16
	movq	%rsp, %rbp
	.cfi_def_cfa_register %rbp
	subq	$32, %rsp
	movl	$811460700, -24(%rbp)   # imm = 0x305DE85C
	movq	%rdi, -16(%rbp)
	movl	%esi, -20(%rbp)
	cmpq	$0, -16(%rbp)
	je	.LBB81_6
# %bb.1:                                # %if.then
	movl	$0, -4(%rbp)
.LBB81_2:                               # %for.cond
                                        # =>This Inner Loop Header: Depth=1
	movl	-4(%rbp), %eax
	cmpl	-20(%rbp), %eax
	jge	.LBB81_5
# %bb.3:                                # %for.body
                                        #   in Loop: Header=BB81_2 Depth=1
	movq	-16(%rbp), %rax
	movslq	-4(%rbp), %rcx
	movq	(%rax,%rcx,8), %rdi
	callq	free_mem2Dshort
# %bb.4:                                # %for.inc
                                        #   in Loop: Header=BB81_2 Depth=1
	movl	-4(%rbp), %eax
	addl	$1, %eax
	movl	%eax, -4(%rbp)
	jmp	.LBB81_2
.LBB81_5:                               # %for.end
	movq	-16(%rbp), %rdi
	callq	free
	jmp	.LBB81_7
.LBB81_6:                               # %if.else
	movabsq	$.L.str.25, %rdi
	movl	$100, %esi
	callq	error
.LBB81_7:                               # %if.end
	cmpl	$811460700, -24(%rbp)   # imm = 0x305DE85C
	jne	.LBB81_9
.LBB81_8:
	addq	$32, %rsp
	popq	%rbp
	.cfi_def_cfa %rsp, 8
	retq
.LBB81_9:                               # %func_exit
	.cfi_def_cfa %rbp, 16
	callq	detect_breach
	jmp	.LBB81_8
.Lfunc_end81:
	.size	free_mem3Dshort.55, .Lfunc_end81-free_mem3Dshort.55
	.cfi_endproc
                                        # -- End function
	.globl	get_mem4Dshort.56       # -- Begin function get_mem4Dshort.56
	.p2align	4, 0x90
	.type	get_mem4Dshort.56,@function
get_mem4Dshort.56:                      # @get_mem4Dshort.56
	.cfi_startproc
# %bb.0:                                # %entry
	pushq	%rbp
	.cfi_def_cfa_offset 16
	.cfi_offset %rbp, -16
	movq	%rsp, %rbp
	.cfi_def_cfa_register %rbp
	pushq	%rbx
	subq	$40, %rsp
	.cfi_offset %rbx, -24
	movl	$639400767, -32(%rbp)   # imm = 0x261C7B3F
	movq	%rdi, -40(%rbp)
	movl	%esi, -16(%rbp)
	movl	%edx, -24(%rbp)
	movl	%ecx, -28(%rbp)
	movl	%r8d, -20(%rbp)
	movslq	-16(%rbp), %rdi
	movl	$8, %esi
	callq	calloc
	movq	-40(%rbp), %rcx
	movq	%rax, (%rcx)
	cmpq	$0, %rax
	jne	.LBB82_2
# %bb.1:                                # %if.then
	movabsq	$.L.str.23, %rdi
	callq	no_mem_exit
.LBB82_2:                               # %if.end
	movl	$0, -12(%rbp)
.LBB82_3:                               # %for.cond
                                        # =>This Inner Loop Header: Depth=1
	movl	-12(%rbp), %eax
	cmpl	-16(%rbp), %eax
	jge	.LBB82_6
# %bb.4:                                # %for.body
                                        #   in Loop: Header=BB82_3 Depth=1
	movq	-40(%rbp), %rax
	movq	(%rax), %rdi
	movslq	-12(%rbp), %rax
	shlq	$3, %rax
	addq	%rax, %rdi
	movl	-24(%rbp), %esi
	movl	-28(%rbp), %edx
	movl	-20(%rbp), %ecx
	callq	get_mem3Dshort
# %bb.5:                                # %for.inc
                                        #   in Loop: Header=BB82_3 Depth=1
	movl	-12(%rbp), %eax
	addl	$1, %eax
	movl	%eax, -12(%rbp)
	jmp	.LBB82_3
.LBB82_6:                               # %for.end
	movl	-16(%rbp), %eax
	imull	-24(%rbp), %eax
	imull	-28(%rbp), %eax
	imull	-20(%rbp), %eax
	movslq	%eax, %rbx
	shlq	$1, %rbx
	cmpl	$639400767, -32(%rbp)   # imm = 0x261C7B3F
	jne	.LBB82_8
.LBB82_7:
	movl	%ebx, %eax
	addq	$40, %rsp
	popq	%rbx
	popq	%rbp
	.cfi_def_cfa %rsp, 8
	retq
.LBB82_8:                               # %func_exit
	.cfi_def_cfa %rbp, 16
	callq	detect_breach
	jmp	.LBB82_7
.Lfunc_end82:
	.size	get_mem4Dshort.56, .Lfunc_end82-get_mem4Dshort.56
	.cfi_endproc
                                        # -- End function
	.globl	get_mem3Dshort.57       # -- Begin function get_mem3Dshort.57
	.p2align	4, 0x90
	.type	get_mem3Dshort.57,@function
get_mem3Dshort.57:                      # @get_mem3Dshort.57
	.cfi_startproc
# %bb.0:                                # %entry
	pushq	%rbp
	.cfi_def_cfa_offset 16
	.cfi_offset %rbp, -16
	movq	%rsp, %rbp
	.cfi_def_cfa_register %rbp
	pushq	%rbx
	subq	$40, %rsp
	.cfi_offset %rbx, -24
	movl	$1277068081, -28(%rbp)  # imm = 0x4C1E8331
	movq	%rdi, -40(%rbp)
	movl	%esi, -16(%rbp)
	movl	%edx, -20(%rbp)
	movl	%ecx, -24(%rbp)
	movslq	-16(%rbp), %rdi
	movl	$8, %esi
	callq	calloc
	movq	-40(%rbp), %rcx
	movq	%rax, (%rcx)
	cmpq	$0, %rax
	jne	.LBB83_2
# %bb.1:                                # %if.then
	movabsq	$.L.str.22, %rdi
	callq	no_mem_exit
.LBB83_2:                               # %if.end
	movl	$0, -12(%rbp)
.LBB83_3:                               # %for.cond
                                        # =>This Inner Loop Header: Depth=1
	movl	-12(%rbp), %eax
	cmpl	-16(%rbp), %eax
	jge	.LBB83_6
# %bb.4:                                # %for.body
                                        #   in Loop: Header=BB83_3 Depth=1
	movq	-40(%rbp), %rax
	movq	(%rax), %rdi
	movslq	-12(%rbp), %rax
	shlq	$3, %rax
	addq	%rax, %rdi
	movl	-20(%rbp), %esi
	movl	-24(%rbp), %edx
	callq	get_mem2Dshort
# %bb.5:                                # %for.inc
                                        #   in Loop: Header=BB83_3 Depth=1
	movl	-12(%rbp), %eax
	addl	$1, %eax
	movl	%eax, -12(%rbp)
	jmp	.LBB83_3
.LBB83_6:                               # %for.end
	movl	-16(%rbp), %eax
	imull	-20(%rbp), %eax
	imull	-24(%rbp), %eax
	movslq	%eax, %rbx
	shlq	$1, %rbx
	cmpl	$1277068081, -28(%rbp)  # imm = 0x4C1E8331
	jne	.LBB83_8
.LBB83_7:
	movl	%ebx, %eax
	addq	$40, %rsp
	popq	%rbx
	popq	%rbp
	.cfi_def_cfa %rsp, 8
	retq
.LBB83_8:                               # %func_exit
	.cfi_def_cfa %rbp, 16
	callq	detect_breach
	jmp	.LBB83_7
.Lfunc_end83:
	.size	get_mem3Dshort.57, .Lfunc_end83-get_mem3Dshort.57
	.cfi_endproc
                                        # -- End function
	.globl	get_mem2Dpel.58         # -- Begin function get_mem2Dpel.58
	.p2align	4, 0x90
	.type	get_mem2Dpel.58,@function
get_mem2Dpel.58:                        # @get_mem2Dpel.58
	.cfi_startproc
# %bb.0:                                # %entry
	pushq	%rbp
	.cfi_def_cfa_offset 16
	.cfi_offset %rbp, -16
	movq	%rsp, %rbp
	.cfi_def_cfa_register %rbp
	pushq	%rbx
	subq	$40, %rsp
	.cfi_offset %rbx, -24
	movl	$1803601995, -36(%rbp)  # imm = 0x6B80C84B
	movq	%rdi, -32(%rbp)
	movl	%esi, -16(%rbp)
	movl	%edx, -20(%rbp)
	movslq	-16(%rbp), %rdi
	movl	$8, %esi
	callq	calloc
	movq	-32(%rbp), %rcx
	movq	%rax, (%rcx)
	cmpq	$0, %rax
	jne	.LBB84_2
# %bb.1:                                # %if.then
	movabsq	$.L.str.2, %rdi
	callq	no_mem_exit
.LBB84_2:                               # %if.end
	movl	-16(%rbp), %eax
	imull	-20(%rbp), %eax
	movslq	%eax, %rdi
	movl	$2, %esi
	callq	calloc
	movq	-32(%rbp), %rcx
	movq	(%rcx), %rcx
	movq	%rax, (%rcx)
	cmpq	$0, %rax
	jne	.LBB84_4
# %bb.3:                                # %if.then6
	movabsq	$.L.str.2, %rdi
	callq	no_mem_exit
.LBB84_4:                               # %if.end7
	movl	$1, -12(%rbp)
.LBB84_5:                               # %for.cond
                                        # =>This Inner Loop Header: Depth=1
	movl	-12(%rbp), %eax
	cmpl	-16(%rbp), %eax
	jge	.LBB84_8
# %bb.6:                                # %for.body
                                        #   in Loop: Header=BB84_5 Depth=1
	movq	-32(%rbp), %rax
	movq	(%rax), %rax
	movl	-12(%rbp), %ecx
	subl	$1, %ecx
	movslq	%ecx, %rcx
	movq	(%rax,%rcx,8), %rax
	movslq	-20(%rbp), %rcx
	shlq	$1, %rcx
	addq	%rcx, %rax
	movq	-32(%rbp), %rcx
	movq	(%rcx), %rcx
	movslq	-12(%rbp), %rdx
	movq	%rax, (%rcx,%rdx,8)
# %bb.7:                                # %for.inc
                                        #   in Loop: Header=BB84_5 Depth=1
	movl	-12(%rbp), %eax
	addl	$1, %eax
	movl	%eax, -12(%rbp)
	jmp	.LBB84_5
.LBB84_8:                               # %for.end
	movl	-16(%rbp), %eax
	imull	-20(%rbp), %eax
	movslq	%eax, %rbx
	shlq	$1, %rbx
	cmpl	$1803601995, -36(%rbp)  # imm = 0x6B80C84B
	jne	.LBB84_10
.LBB84_9:
	movl	%ebx, %eax
	addq	$40, %rsp
	popq	%rbx
	popq	%rbp
	.cfi_def_cfa %rsp, 8
	retq
.LBB84_10:                              # %func_exit
	.cfi_def_cfa %rbp, 16
	callq	detect_breach
	jmp	.LBB84_9
.Lfunc_end84:
	.size	get_mem2Dpel.58, .Lfunc_end84-get_mem2Dpel.58
	.cfi_endproc
                                        # -- End function
	.globl	get_mem3Dpel.59         # -- Begin function get_mem3Dpel.59
	.p2align	4, 0x90
	.type	get_mem3Dpel.59,@function
get_mem3Dpel.59:                        # @get_mem3Dpel.59
	.cfi_startproc
# %bb.0:                                # %entry
	pushq	%rbp
	.cfi_def_cfa_offset 16
	.cfi_offset %rbp, -16
	movq	%rsp, %rbp
	.cfi_def_cfa_register %rbp
	pushq	%rbx
	subq	$40, %rsp
	.cfi_offset %rbx, -24
	movl	$1999839373, -28(%rbp)  # imm = 0x7733208D
	movq	%rdi, -40(%rbp)
	movl	%esi, -16(%rbp)
	movl	%edx, -20(%rbp)
	movl	%ecx, -24(%rbp)
	movslq	-16(%rbp), %rdi
	movl	$8, %esi
	callq	calloc
	movq	-40(%rbp), %rcx
	movq	%rax, (%rcx)
	cmpq	$0, %rax
	jne	.LBB85_2
# %bb.1:                                # %if.then
	movabsq	$.L.str.3, %rdi
	callq	no_mem_exit
.LBB85_2:                               # %if.end
	movl	$0, -12(%rbp)
.LBB85_3:                               # %for.cond
                                        # =>This Inner Loop Header: Depth=1
	movl	-12(%rbp), %eax
	cmpl	-16(%rbp), %eax
	jge	.LBB85_6
# %bb.4:                                # %for.body
                                        #   in Loop: Header=BB85_3 Depth=1
	movq	-40(%rbp), %rax
	movq	(%rax), %rdi
	movslq	-12(%rbp), %rax
	shlq	$3, %rax
	addq	%rax, %rdi
	movl	-20(%rbp), %esi
	movl	-24(%rbp), %edx
	callq	get_mem2Dpel
# %bb.5:                                # %for.inc
                                        #   in Loop: Header=BB85_3 Depth=1
	movl	-12(%rbp), %eax
	addl	$1, %eax
	movl	%eax, -12(%rbp)
	jmp	.LBB85_3
.LBB85_6:                               # %for.end
	movl	-16(%rbp), %eax
	imull	-20(%rbp), %eax
	imull	-24(%rbp), %eax
	movslq	%eax, %rbx
	shlq	$1, %rbx
	cmpl	$1999839373, -28(%rbp)  # imm = 0x7733208D
	jne	.LBB85_8
.LBB85_7:
	movl	%ebx, %eax
	addq	$40, %rsp
	popq	%rbx
	popq	%rbp
	.cfi_def_cfa %rsp, 8
	retq
.LBB85_8:                               # %func_exit
	.cfi_def_cfa %rbp, 16
	callq	detect_breach
	jmp	.LBB85_7
.Lfunc_end85:
	.size	get_mem3Dpel.59, .Lfunc_end85-get_mem3Dpel.59
	.cfi_endproc
                                        # -- End function
	.globl	get_mem3D.60            # -- Begin function get_mem3D.60
	.p2align	4, 0x90
	.type	get_mem3D.60,@function
get_mem3D.60:                           # @get_mem3D.60
	.cfi_startproc
# %bb.0:                                # %entry
	pushq	%rbp
	.cfi_def_cfa_offset 16
	.cfi_offset %rbp, -16
	movq	%rsp, %rbp
	.cfi_def_cfa_register %rbp
	pushq	%rbx
	subq	$40, %rsp
	.cfi_offset %rbx, -24
	movl	$532541925, -28(%rbp)   # imm = 0x1FBDF1E5
	movq	%rdi, -40(%rbp)
	movl	%esi, -16(%rbp)
	movl	%edx, -24(%rbp)
	movl	%ecx, -20(%rbp)
	movslq	-16(%rbp), %rdi
	movl	$8, %esi
	callq	calloc
	movq	-40(%rbp), %rcx
	movq	%rax, (%rcx)
	cmpq	$0, %rax
	jne	.LBB86_2
# %bb.1:                                # %if.then
	movabsq	$.L.str.9, %rdi
	callq	no_mem_exit
.LBB86_2:                               # %if.end
	movl	$0, -12(%rbp)
.LBB86_3:                               # %for.cond
                                        # =>This Inner Loop Header: Depth=1
	movl	-12(%rbp), %eax
	cmpl	-16(%rbp), %eax
	jge	.LBB86_6
# %bb.4:                                # %for.body
                                        #   in Loop: Header=BB86_3 Depth=1
	movq	-40(%rbp), %rax
	movq	(%rax), %rdi
	movslq	-12(%rbp), %rax
	shlq	$3, %rax
	addq	%rax, %rdi
	movl	-24(%rbp), %esi
	movl	-20(%rbp), %edx
	callq	get_mem2D
# %bb.5:                                # %for.inc
                                        #   in Loop: Header=BB86_3 Depth=1
	movl	-12(%rbp), %eax
	addl	$1, %eax
	movl	%eax, -12(%rbp)
	jmp	.LBB86_3
.LBB86_6:                               # %for.end
	movl	-16(%rbp), %ebx
	imull	-24(%rbp), %ebx
	imull	-20(%rbp), %ebx
	cmpl	$532541925, -28(%rbp)   # imm = 0x1FBDF1E5
	jne	.LBB86_8
.LBB86_7:
	movl	%ebx, %eax
	addq	$40, %rsp
	popq	%rbx
	popq	%rbp
	.cfi_def_cfa %rsp, 8
	retq
.LBB86_8:                               # %func_exit
	.cfi_def_cfa %rbp, 16
	callq	detect_breach
	jmp	.LBB86_7
.Lfunc_end86:
	.size	get_mem3D.60, .Lfunc_end86-get_mem3D.60
	.cfi_endproc
                                        # -- End function
	.globl	get_mem4Dshort.61       # -- Begin function get_mem4Dshort.61
	.p2align	4, 0x90
	.type	get_mem4Dshort.61,@function
get_mem4Dshort.61:                      # @get_mem4Dshort.61
	.cfi_startproc
# %bb.0:                                # %entry
	pushq	%rbp
	.cfi_def_cfa_offset 16
	.cfi_offset %rbp, -16
	movq	%rsp, %rbp
	.cfi_def_cfa_register %rbp
	pushq	%rbx
	subq	$40, %rsp
	.cfi_offset %rbx, -24
	movl	$788861290, -32(%rbp)   # imm = 0x2F05116A
	movq	%rdi, -40(%rbp)
	movl	%esi, -16(%rbp)
	movl	%edx, -20(%rbp)
	movl	%ecx, -24(%rbp)
	movl	%r8d, -28(%rbp)
	movslq	-16(%rbp), %rdi
	movl	$8, %esi
	callq	calloc
	movq	-40(%rbp), %rcx
	movq	%rax, (%rcx)
	cmpq	$0, %rax
	jne	.LBB87_2
# %bb.1:                                # %if.then
	movabsq	$.L.str.23, %rdi
	callq	no_mem_exit
.LBB87_2:                               # %if.end
	movl	$0, -12(%rbp)
.LBB87_3:                               # %for.cond
                                        # =>This Inner Loop Header: Depth=1
	movl	-12(%rbp), %eax
	cmpl	-16(%rbp), %eax
	jge	.LBB87_6
# %bb.4:                                # %for.body
                                        #   in Loop: Header=BB87_3 Depth=1
	movq	-40(%rbp), %rax
	movq	(%rax), %rdi
	movslq	-12(%rbp), %rax
	shlq	$3, %rax
	addq	%rax, %rdi
	movl	-20(%rbp), %esi
	movl	-24(%rbp), %edx
	movl	-28(%rbp), %ecx
	callq	get_mem3Dshort
# %bb.5:                                # %for.inc
                                        #   in Loop: Header=BB87_3 Depth=1
	movl	-12(%rbp), %eax
	addl	$1, %eax
	movl	%eax, -12(%rbp)
	jmp	.LBB87_3
.LBB87_6:                               # %for.end
	movl	-16(%rbp), %eax
	imull	-20(%rbp), %eax
	imull	-24(%rbp), %eax
	imull	-28(%rbp), %eax
	movslq	%eax, %rbx
	shlq	$1, %rbx
	cmpl	$788861290, -32(%rbp)   # imm = 0x2F05116A
	jne	.LBB87_8
.LBB87_7:
	movl	%ebx, %eax
	addq	$40, %rsp
	popq	%rbx
	popq	%rbp
	.cfi_def_cfa %rsp, 8
	retq
.LBB87_8:                               # %func_exit
	.cfi_def_cfa %rbp, 16
	callq	detect_breach
	jmp	.LBB87_7
.Lfunc_end87:
	.size	get_mem4Dshort.61, .Lfunc_end87-get_mem4Dshort.61
	.cfi_endproc
                                        # -- End function
	.globl	get_mem2Dshort.62       # -- Begin function get_mem2Dshort.62
	.p2align	4, 0x90
	.type	get_mem2Dshort.62,@function
get_mem2Dshort.62:                      # @get_mem2Dshort.62
	.cfi_startproc
# %bb.0:                                # %entry
	pushq	%rbp
	.cfi_def_cfa_offset 16
	.cfi_offset %rbp, -16
	movq	%rsp, %rbp
	.cfi_def_cfa_register %rbp
	pushq	%rbx
	subq	$40, %rsp
	.cfi_offset %rbx, -24
	movl	$857891163, -36(%rbp)   # imm = 0x3322615B
	movq	%rdi, -32(%rbp)
	movl	%esi, -16(%rbp)
	movl	%edx, -20(%rbp)
	movslq	-16(%rbp), %rdi
	movl	$8, %esi
	callq	calloc
	movq	-32(%rbp), %rcx
	movq	%rax, (%rcx)
	cmpq	$0, %rax
	jne	.LBB88_2
# %bb.1:                                # %if.then
	movabsq	$.L.str.21, %rdi
	callq	no_mem_exit
.LBB88_2:                               # %if.end
	movl	-16(%rbp), %eax
	imull	-20(%rbp), %eax
	movslq	%eax, %rdi
	movl	$2, %esi
	callq	calloc
	movq	-32(%rbp), %rcx
	movq	(%rcx), %rcx
	movq	%rax, (%rcx)
	cmpq	$0, %rax
	jne	.LBB88_4
# %bb.3:                                # %if.then6
	movabsq	$.L.str.21, %rdi
	callq	no_mem_exit
.LBB88_4:                               # %if.end7
	movl	$1, -12(%rbp)
.LBB88_5:                               # %for.cond
                                        # =>This Inner Loop Header: Depth=1
	movl	-12(%rbp), %eax
	cmpl	-16(%rbp), %eax
	jge	.LBB88_8
# %bb.6:                                # %for.body
                                        #   in Loop: Header=BB88_5 Depth=1
	movq	-32(%rbp), %rax
	movq	(%rax), %rax
	movl	-12(%rbp), %ecx
	subl	$1, %ecx
	movslq	%ecx, %rcx
	movq	(%rax,%rcx,8), %rax
	movslq	-20(%rbp), %rcx
	shlq	$1, %rcx
	addq	%rcx, %rax
	movq	-32(%rbp), %rcx
	movq	(%rcx), %rcx
	movslq	-12(%rbp), %rdx
	movq	%rax, (%rcx,%rdx,8)
# %bb.7:                                # %for.inc
                                        #   in Loop: Header=BB88_5 Depth=1
	movl	-12(%rbp), %eax
	addl	$1, %eax
	movl	%eax, -12(%rbp)
	jmp	.LBB88_5
.LBB88_8:                               # %for.end
	movl	-16(%rbp), %eax
	imull	-20(%rbp), %eax
	movslq	%eax, %rbx
	shlq	$1, %rbx
	cmpl	$857891163, -36(%rbp)   # imm = 0x3322615B
	jne	.LBB88_10
.LBB88_9:
	movl	%ebx, %eax
	addq	$40, %rsp
	popq	%rbx
	popq	%rbp
	.cfi_def_cfa %rsp, 8
	retq
.LBB88_10:                              # %func_exit
	.cfi_def_cfa %rbp, 16
	callq	detect_breach
	jmp	.LBB88_9
.Lfunc_end88:
	.size	get_mem2Dshort.62, .Lfunc_end88-get_mem2Dshort.62
	.cfi_endproc
                                        # -- End function
	.globl	get_mem4Dint.63         # -- Begin function get_mem4Dint.63
	.p2align	4, 0x90
	.type	get_mem4Dint.63,@function
get_mem4Dint.63:                        # @get_mem4Dint.63
	.cfi_startproc
# %bb.0:                                # %entry
	pushq	%rbp
	.cfi_def_cfa_offset 16
	.cfi_offset %rbp, -16
	movq	%rsp, %rbp
	.cfi_def_cfa_register %rbp
	pushq	%rbx
	subq	$40, %rsp
	.cfi_offset %rbx, -24
	movl	$425610137, -32(%rbp)   # imm = 0x195E4B99
	movq	%rdi, -40(%rbp)
	movl	%esi, -16(%rbp)
	movl	%edx, -24(%rbp)
	movl	%ecx, -28(%rbp)
	movl	%r8d, -20(%rbp)
	movslq	-16(%rbp), %rdi
	movl	$8, %esi
	callq	calloc
	movq	-40(%rbp), %rcx
	movq	%rax, (%rcx)
	cmpq	$0, %rax
	jne	.LBB89_2
# %bb.1:                                # %if.then
	movabsq	$.L.str.12, %rdi
	callq	no_mem_exit
.LBB89_2:                               # %if.end
	movl	$0, -12(%rbp)
.LBB89_3:                               # %for.cond
                                        # =>This Inner Loop Header: Depth=1
	movl	-12(%rbp), %eax
	cmpl	-16(%rbp), %eax
	jge	.LBB89_6
# %bb.4:                                # %for.body
                                        #   in Loop: Header=BB89_3 Depth=1
	movq	-40(%rbp), %rax
	movq	(%rax), %rdi
	movslq	-12(%rbp), %rax
	shlq	$3, %rax
	addq	%rax, %rdi
	movl	-24(%rbp), %esi
	movl	-28(%rbp), %edx
	movl	-20(%rbp), %ecx
	callq	get_mem3Dint
# %bb.5:                                # %for.inc
                                        #   in Loop: Header=BB89_3 Depth=1
	movl	-12(%rbp), %eax
	addl	$1, %eax
	movl	%eax, -12(%rbp)
	jmp	.LBB89_3
.LBB89_6:                               # %for.end
	movl	-16(%rbp), %eax
	imull	-24(%rbp), %eax
	imull	-28(%rbp), %eax
	imull	-20(%rbp), %eax
	movslq	%eax, %rbx
	shlq	$2, %rbx
	cmpl	$425610137, -32(%rbp)   # imm = 0x195E4B99
	jne	.LBB89_8
.LBB89_7:
	movl	%ebx, %eax
	addq	$40, %rsp
	popq	%rbx
	popq	%rbp
	.cfi_def_cfa %rsp, 8
	retq
.LBB89_8:                               # %func_exit
	.cfi_def_cfa %rbp, 16
	callq	detect_breach
	jmp	.LBB89_7
.Lfunc_end89:
	.size	get_mem4Dint.63, .Lfunc_end89-get_mem4Dint.63
	.cfi_endproc
                                        # -- End function
	.globl	get_mem2Dint64.64       # -- Begin function get_mem2Dint64.64
	.p2align	4, 0x90
	.type	get_mem2Dint64.64,@function
get_mem2Dint64.64:                      # @get_mem2Dint64.64
	.cfi_startproc
# %bb.0:                                # %entry
	pushq	%rbp
	.cfi_def_cfa_offset 16
	.cfi_offset %rbp, -16
	movq	%rsp, %rbp
	.cfi_def_cfa_register %rbp
	pushq	%rbx
	subq	$40, %rsp
	.cfi_offset %rbx, -24
	movl	$970886207, -36(%rbp)   # imm = 0x39DE8C3F
	movq	%rdi, -32(%rbp)
	movl	%esi, -16(%rbp)
	movl	%edx, -20(%rbp)
	movslq	-16(%rbp), %rdi
	movl	$8, %esi
	callq	calloc
	movq	-32(%rbp), %rcx
	movq	%rax, (%rcx)
	cmpq	$0, %rax
	jne	.LBB90_2
# %bb.1:                                # %if.then
	movabsq	$.L.str.8, %rdi
	callq	no_mem_exit
.LBB90_2:                               # %if.end
	movl	-16(%rbp), %eax
	imull	-20(%rbp), %eax
	movslq	%eax, %rdi
	movl	$8, %esi
	callq	calloc
	movq	-32(%rbp), %rcx
	movq	(%rcx), %rcx
	movq	%rax, (%rcx)
	cmpq	$0, %rax
	jne	.LBB90_4
# %bb.3:                                # %if.then6
	movabsq	$.L.str.8, %rdi
	callq	no_mem_exit
.LBB90_4:                               # %if.end7
	movl	$1, -12(%rbp)
.LBB90_5:                               # %for.cond
                                        # =>This Inner Loop Header: Depth=1
	movl	-12(%rbp), %eax
	cmpl	-16(%rbp), %eax
	jge	.LBB90_8
# %bb.6:                                # %for.body
                                        #   in Loop: Header=BB90_5 Depth=1
	movq	-32(%rbp), %rax
	movq	(%rax), %rax
	movl	-12(%rbp), %ecx
	subl	$1, %ecx
	movslq	%ecx, %rcx
	movq	(%rax,%rcx,8), %rax
	movslq	-20(%rbp), %rcx
	shlq	$3, %rcx
	addq	%rcx, %rax
	movq	-32(%rbp), %rcx
	movq	(%rcx), %rcx
	movslq	-12(%rbp), %rdx
	movq	%rax, (%rcx,%rdx,8)
# %bb.7:                                # %for.inc
                                        #   in Loop: Header=BB90_5 Depth=1
	movl	-12(%rbp), %eax
	addl	$1, %eax
	movl	%eax, -12(%rbp)
	jmp	.LBB90_5
.LBB90_8:                               # %for.end
	movl	-16(%rbp), %eax
	imull	-20(%rbp), %eax
	movslq	%eax, %rbx
	shlq	$3, %rbx
	cmpl	$970886207, -36(%rbp)   # imm = 0x39DE8C3F
	jne	.LBB90_10
.LBB90_9:
	movl	%ebx, %eax
	addq	$40, %rsp
	popq	%rbx
	popq	%rbp
	.cfi_def_cfa %rsp, 8
	retq
.LBB90_10:                              # %func_exit
	.cfi_def_cfa %rbp, 16
	callq	detect_breach
	jmp	.LBB90_9
.Lfunc_end90:
	.size	get_mem2Dint64.64, .Lfunc_end90-get_mem2Dint64.64
	.cfi_endproc
                                        # -- End function
	.globl	get_mem2Dshort.65       # -- Begin function get_mem2Dshort.65
	.p2align	4, 0x90
	.type	get_mem2Dshort.65,@function
get_mem2Dshort.65:                      # @get_mem2Dshort.65
	.cfi_startproc
# %bb.0:                                # %entry
	pushq	%rbp
	.cfi_def_cfa_offset 16
	.cfi_offset %rbp, -16
	movq	%rsp, %rbp
	.cfi_def_cfa_register %rbp
	pushq	%rbx
	subq	$40, %rsp
	.cfi_offset %rbx, -24
	movl	$1041283590, -36(%rbp)  # imm = 0x3E10BA06
	movq	%rdi, -32(%rbp)
	movl	%esi, -16(%rbp)
	movl	%edx, -20(%rbp)
	movslq	-16(%rbp), %rdi
	movl	$8, %esi
	callq	calloc
	movq	-32(%rbp), %rcx
	movq	%rax, (%rcx)
	cmpq	$0, %rax
	jne	.LBB91_2
# %bb.1:                                # %if.then
	movabsq	$.L.str.21, %rdi
	callq	no_mem_exit
.LBB91_2:                               # %if.end
	movl	-16(%rbp), %eax
	imull	-20(%rbp), %eax
	movslq	%eax, %rdi
	movl	$2, %esi
	callq	calloc
	movq	-32(%rbp), %rcx
	movq	(%rcx), %rcx
	movq	%rax, (%rcx)
	cmpq	$0, %rax
	jne	.LBB91_4
# %bb.3:                                # %if.then6
	movabsq	$.L.str.21, %rdi
	callq	no_mem_exit
.LBB91_4:                               # %if.end7
	movl	$1, -12(%rbp)
.LBB91_5:                               # %for.cond
                                        # =>This Inner Loop Header: Depth=1
	movl	-12(%rbp), %eax
	cmpl	-16(%rbp), %eax
	jge	.LBB91_8
# %bb.6:                                # %for.body
                                        #   in Loop: Header=BB91_5 Depth=1
	movq	-32(%rbp), %rax
	movq	(%rax), %rax
	movl	-12(%rbp), %ecx
	subl	$1, %ecx
	movslq	%ecx, %rcx
	movq	(%rax,%rcx,8), %rax
	movslq	-20(%rbp), %rcx
	shlq	$1, %rcx
	addq	%rcx, %rax
	movq	-32(%rbp), %rcx
	movq	(%rcx), %rcx
	movslq	-12(%rbp), %rdx
	movq	%rax, (%rcx,%rdx,8)
# %bb.7:                                # %for.inc
                                        #   in Loop: Header=BB91_5 Depth=1
	movl	-12(%rbp), %eax
	addl	$1, %eax
	movl	%eax, -12(%rbp)
	jmp	.LBB91_5
.LBB91_8:                               # %for.end
	movl	-16(%rbp), %eax
	imull	-20(%rbp), %eax
	movslq	%eax, %rbx
	shlq	$1, %rbx
	cmpl	$1041283590, -36(%rbp)  # imm = 0x3E10BA06
	jne	.LBB91_10
.LBB91_9:
	movl	%ebx, %eax
	addq	$40, %rsp
	popq	%rbx
	popq	%rbp
	.cfi_def_cfa %rsp, 8
	retq
.LBB91_10:                              # %func_exit
	.cfi_def_cfa %rbp, 16
	callq	detect_breach
	jmp	.LBB91_9
.Lfunc_end91:
	.size	get_mem2Dshort.65, .Lfunc_end91-get_mem2Dshort.65
	.cfi_endproc
                                        # -- End function
	.globl	get_mem3Dint.66         # -- Begin function get_mem3Dint.66
	.p2align	4, 0x90
	.type	get_mem3Dint.66,@function
get_mem3Dint.66:                        # @get_mem3Dint.66
	.cfi_startproc
# %bb.0:                                # %entry
	pushq	%rbp
	.cfi_def_cfa_offset 16
	.cfi_offset %rbp, -16
	movq	%rsp, %rbp
	.cfi_def_cfa_register %rbp
	pushq	%rbx
	subq	$40, %rsp
	.cfi_offset %rbx, -24
	movl	$22311546, -28(%rbp)    # imm = 0x154727A
	movq	%rdi, -40(%rbp)
	movl	%esi, -16(%rbp)
	movl	%edx, -24(%rbp)
	movl	%ecx, -20(%rbp)
	movslq	-16(%rbp), %rdi
	movl	$8, %esi
	callq	calloc
	movq	-40(%rbp), %rcx
	movq	%rax, (%rcx)
	cmpq	$0, %rax
	jne	.LBB92_2
# %bb.1:                                # %if.then
	movabsq	$.L.str.10, %rdi
	callq	no_mem_exit
.LBB92_2:                               # %if.end
	movl	$0, -12(%rbp)
.LBB92_3:                               # %for.cond
                                        # =>This Inner Loop Header: Depth=1
	movl	-12(%rbp), %eax
	cmpl	-16(%rbp), %eax
	jge	.LBB92_6
# %bb.4:                                # %for.body
                                        #   in Loop: Header=BB92_3 Depth=1
	movq	-40(%rbp), %rax
	movq	(%rax), %rdi
	movslq	-12(%rbp), %rax
	shlq	$3, %rax
	addq	%rax, %rdi
	movl	-24(%rbp), %esi
	movl	-20(%rbp), %edx
	callq	get_mem2Dint
# %bb.5:                                # %for.inc
                                        #   in Loop: Header=BB92_3 Depth=1
	movl	-12(%rbp), %eax
	addl	$1, %eax
	movl	%eax, -12(%rbp)
	jmp	.LBB92_3
.LBB92_6:                               # %for.end
	movl	-16(%rbp), %eax
	imull	-24(%rbp), %eax
	imull	-20(%rbp), %eax
	movslq	%eax, %rbx
	shlq	$2, %rbx
	cmpl	$22311546, -28(%rbp)    # imm = 0x154727A
	jne	.LBB92_8
.LBB92_7:
	movl	%ebx, %eax
	addq	$40, %rsp
	popq	%rbx
	popq	%rbp
	.cfi_def_cfa %rsp, 8
	retq
.LBB92_8:                               # %func_exit
	.cfi_def_cfa %rbp, 16
	callq	detect_breach
	jmp	.LBB92_7
.Lfunc_end92:
	.size	get_mem3Dint.66, .Lfunc_end92-get_mem3Dint.66
	.cfi_endproc
                                        # -- End function
	.globl	get_mem3Dint.67         # -- Begin function get_mem3Dint.67
	.p2align	4, 0x90
	.type	get_mem3Dint.67,@function
get_mem3Dint.67:                        # @get_mem3Dint.67
	.cfi_startproc
# %bb.0:                                # %entry
	pushq	%rbp
	.cfi_def_cfa_offset 16
	.cfi_offset %rbp, -16
	movq	%rsp, %rbp
	.cfi_def_cfa_register %rbp
	pushq	%rbx
	subq	$40, %rsp
	.cfi_offset %rbx, -24
	movl	$1738667895, -28(%rbp)  # imm = 0x67A1F777
	movq	%rdi, -40(%rbp)
	movl	%esi, -16(%rbp)
	movl	%edx, -24(%rbp)
	movl	%ecx, -20(%rbp)
	movslq	-16(%rbp), %rdi
	movl	$8, %esi
	callq	calloc
	movq	-40(%rbp), %rcx
	movq	%rax, (%rcx)
	cmpq	$0, %rax
	jne	.LBB93_2
# %bb.1:                                # %if.then
	movabsq	$.L.str.10, %rdi
	callq	no_mem_exit
.LBB93_2:                               # %if.end
	movl	$0, -12(%rbp)
.LBB93_3:                               # %for.cond
                                        # =>This Inner Loop Header: Depth=1
	movl	-12(%rbp), %eax
	cmpl	-16(%rbp), %eax
	jge	.LBB93_6
# %bb.4:                                # %for.body
                                        #   in Loop: Header=BB93_3 Depth=1
	movq	-40(%rbp), %rax
	movq	(%rax), %rdi
	movslq	-12(%rbp), %rax
	shlq	$3, %rax
	addq	%rax, %rdi
	movl	-24(%rbp), %esi
	movl	-20(%rbp), %edx
	callq	get_mem2Dint
# %bb.5:                                # %for.inc
                                        #   in Loop: Header=BB93_3 Depth=1
	movl	-12(%rbp), %eax
	addl	$1, %eax
	movl	%eax, -12(%rbp)
	jmp	.LBB93_3
.LBB93_6:                               # %for.end
	movl	-16(%rbp), %eax
	imull	-24(%rbp), %eax
	imull	-20(%rbp), %eax
	movslq	%eax, %rbx
	shlq	$2, %rbx
	cmpl	$1738667895, -28(%rbp)  # imm = 0x67A1F777
	jne	.LBB93_8
.LBB93_7:
	movl	%ebx, %eax
	addq	$40, %rsp
	popq	%rbx
	popq	%rbp
	.cfi_def_cfa %rsp, 8
	retq
.LBB93_8:                               # %func_exit
	.cfi_def_cfa %rbp, 16
	callq	detect_breach
	jmp	.LBB93_7
.Lfunc_end93:
	.size	get_mem3Dint.67, .Lfunc_end93-get_mem3Dint.67
	.cfi_endproc
                                        # -- End function
	.globl	get_mem4Dshort.68       # -- Begin function get_mem4Dshort.68
	.p2align	4, 0x90
	.type	get_mem4Dshort.68,@function
get_mem4Dshort.68:                      # @get_mem4Dshort.68
	.cfi_startproc
# %bb.0:                                # %entry
	pushq	%rbp
	.cfi_def_cfa_offset 16
	.cfi_offset %rbp, -16
	movq	%rsp, %rbp
	.cfi_def_cfa_register %rbp
	pushq	%rbx
	subq	$40, %rsp
	.cfi_offset %rbx, -24
	movl	$1418477598, -32(%rbp)  # imm = 0x548C401E
	movq	%rdi, -40(%rbp)
	movl	%esi, -16(%rbp)
	movl	%edx, -20(%rbp)
	movl	%ecx, -28(%rbp)
	movl	%r8d, -24(%rbp)
	movslq	-16(%rbp), %rdi
	movl	$8, %esi
	callq	calloc
	movq	-40(%rbp), %rcx
	movq	%rax, (%rcx)
	cmpq	$0, %rax
	jne	.LBB94_2
# %bb.1:                                # %if.then
	movabsq	$.L.str.23, %rdi
	callq	no_mem_exit
.LBB94_2:                               # %if.end
	movl	$0, -12(%rbp)
.LBB94_3:                               # %for.cond
                                        # =>This Inner Loop Header: Depth=1
	movl	-12(%rbp), %eax
	cmpl	-16(%rbp), %eax
	jge	.LBB94_6
# %bb.4:                                # %for.body
                                        #   in Loop: Header=BB94_3 Depth=1
	movq	-40(%rbp), %rax
	movq	(%rax), %rdi
	movslq	-12(%rbp), %rax
	shlq	$3, %rax
	addq	%rax, %rdi
	movl	-20(%rbp), %esi
	movl	-28(%rbp), %edx
	movl	-24(%rbp), %ecx
	callq	get_mem3Dshort
# %bb.5:                                # %for.inc
                                        #   in Loop: Header=BB94_3 Depth=1
	movl	-12(%rbp), %eax
	addl	$1, %eax
	movl	%eax, -12(%rbp)
	jmp	.LBB94_3
.LBB94_6:                               # %for.end
	movl	-16(%rbp), %eax
	imull	-20(%rbp), %eax
	imull	-28(%rbp), %eax
	imull	-24(%rbp), %eax
	movslq	%eax, %rbx
	shlq	$1, %rbx
	cmpl	$1418477598, -32(%rbp)  # imm = 0x548C401E
	jne	.LBB94_8
.LBB94_7:
	movl	%ebx, %eax
	addq	$40, %rsp
	popq	%rbx
	popq	%rbp
	.cfi_def_cfa %rsp, 8
	retq
.LBB94_8:                               # %func_exit
	.cfi_def_cfa %rbp, 16
	callq	detect_breach
	jmp	.LBB94_7
.Lfunc_end94:
	.size	get_mem4Dshort.68, .Lfunc_end94-get_mem4Dshort.68
	.cfi_endproc
                                        # -- End function
	.globl	init_top_bot_planes.69  # -- Begin function init_top_bot_planes.69
	.p2align	4, 0x90
	.type	init_top_bot_planes.69,@function
init_top_bot_planes.69:                 # @init_top_bot_planes.69
	.cfi_startproc
# %bb.0:                                # %entry
	pushq	%rbp
	.cfi_def_cfa_offset 16
	.cfi_offset %rbp, -16
	movq	%rsp, %rbp
	.cfi_def_cfa_register %rbp
	pushq	%rbx
	subq	$56, %rsp
	.cfi_offset %rbx, -24
	movl	$1581111169, -20(%rbp)  # imm = 0x5E3DD781
	movq	%rdi, -48(%rbp)
	movl	%esi, -16(%rbp)
	movl	%edx, -52(%rbp)
	movq	%rcx, -32(%rbp)
	movq	%r8, -40(%rbp)
	movl	-16(%rbp), %eax
	cltd
	movl	$2, %ecx
	idivl	%ecx
	movslq	%eax, %rdi
	movl	$8, %esi
	callq	calloc
	movq	-32(%rbp), %rcx
	movq	%rax, (%rcx)
	cmpq	$0, %rax
	jne	.LBB95_2
# %bb.1:                                # %if.then
	movabsq	$.L.str, %rdi
	callq	no_mem_exit
.LBB95_2:                               # %if.end
	movl	-16(%rbp), %eax
	cltd
	movl	$2, %ecx
	idivl	%ecx
	movslq	%eax, %rdi
	movl	$8, %esi
	callq	calloc
	movq	-40(%rbp), %rcx
	movq	%rax, (%rcx)
	cmpq	$0, %rax
	jne	.LBB95_4
# %bb.3:                                # %if.then7
	movabsq	$.L.str.1, %rdi
	callq	no_mem_exit
.LBB95_4:                               # %if.end8
	movl	$0, -12(%rbp)
.LBB95_5:                               # %for.cond
                                        # =>This Inner Loop Header: Depth=1
	movl	-12(%rbp), %ecx
	movl	-16(%rbp), %eax
	cltd
	movl	$2, %esi
	idivl	%esi
	cmpl	%eax, %ecx
	jge	.LBB95_8
# %bb.6:                                # %for.body
                                        #   in Loop: Header=BB95_5 Depth=1
	movq	-48(%rbp), %rax
	movl	-12(%rbp), %ecx
	shll	$1, %ecx
	movslq	%ecx, %rcx
	movq	(%rax,%rcx,8), %rax
	movq	-32(%rbp), %rcx
	movq	(%rcx), %rcx
	movslq	-12(%rbp), %rdx
	movq	%rax, (%rcx,%rdx,8)
	movq	-48(%rbp), %rax
	movl	-12(%rbp), %ecx
	shll	$1, %ecx
	addl	$1, %ecx
