	.text
	.file	"memalloc.c"
	.globl	init_top_bot_planes     # -- Begin function init_top_bot_planes
	.p2align	4, 0x90
	.type	init_top_bot_planes,@function
init_top_bot_planes:                    # @init_top_bot_planes
	.cfi_startproc
# %bb.0:                                # %rand_bb
	pushq	%rbp
	.cfi_def_cfa_offset 16
	.cfi_offset %rbp, -16
	movq	%rsp, %rbp
	.cfi_def_cfa_register %rbp
	pushq	%r15
	pushq	%r14
	pushq	%r13
	pushq	%r12
	pushq	%rbx
	pushq	%rax
	.cfi_offset %rbx, -56
	.cfi_offset %r12, -48
	.cfi_offset %r13, -40
	.cfi_offset %r14, -32
	.cfi_offset %r15, -24
	movq	%r8, %r14
	movq	%rcx, %r15
	movl	%edx, %r12d
	movl	%esi, %r13d
	movq	%rdi, %rbx
	callq	get_rand
	cmpl	$0, %eax
	jne	.LBB0_17
# %bb.1:                                # %func_init_top_bot_planes.57
	movq	%rbx, %rdi
	movl	%r13d, %esi
	movl	%r12d, %edx
	movq	%r15, %rcx
	movq	%r14, %r8
	callq	init_top_bot_planes.57
	addq	$8, %rsp
	popq	%rbx
	popq	%r12
	popq	%r13
	popq	%r14
	popq	%r15
	popq	%rbp
	.cfi_def_cfa %rsp, 8
	retq
.LBB0_2:                                # %func_init_top_bot_planes.80
	.cfi_def_cfa %rbp, 16
	movq	%rbx, %rdi
	movl	%r13d, %esi
	movl	%r12d, %edx
	movq	%r15, %rcx
	movq	%r14, %r8
	callq	init_top_bot_planes.80
	addq	$8, %rsp
	popq	%rbx
	popq	%r12
	popq	%r13
	popq	%r14
	popq	%r15
	popq	%rbp
	.cfi_def_cfa %rsp, 8
	retq
.LBB0_3:                                # %func_init_top_bot_planes.175
	.cfi_def_cfa %rbp, 16
	movq	%rbx, %rdi
	movl	%r13d, %esi
	movl	%r12d, %edx
	movq	%r15, %rcx
	movq	%r14, %r8
	callq	init_top_bot_planes.175
	addq	$8, %rsp
	popq	%rbx
	popq	%r12
	popq	%r13
	popq	%r14
	popq	%r15
	popq	%rbp
	.cfi_def_cfa %rsp, 8
	retq
.LBB0_4:                                # %func_init_top_bot_planes.179
	.cfi_def_cfa %rbp, 16
	movq	%rbx, %rdi
	movl	%r13d, %esi
	movl	%r12d, %edx
	movq	%r15, %rcx
	movq	%r14, %r8
	callq	init_top_bot_planes.179
	addq	$8, %rsp
	popq	%rbx
	popq	%r12
	popq	%r13
	popq	%r14
	popq	%r15
	popq	%rbp
	.cfi_def_cfa %rsp, 8
	retq
.LBB0_5:                                # %func_init_top_bot_planes.185
	.cfi_def_cfa %rbp, 16
	movq	%rbx, %rdi
	movl	%r13d, %esi
	movl	%r12d, %edx
	movq	%r15, %rcx
	movq	%r14, %r8
	callq	init_top_bot_planes.185
	addq	$8, %rsp
	popq	%rbx
	popq	%r12
	popq	%r13
	popq	%r14
	popq	%r15
	popq	%rbp
	.cfi_def_cfa %rsp, 8
	retq
.LBB0_6:                                # %func_init_top_bot_planes.231
	.cfi_def_cfa %rbp, 16
	movq	%rbx, %rdi
	movl	%r13d, %esi
	movl	%r12d, %edx
	movq	%r15, %rcx
	movq	%r14, %r8
	callq	init_top_bot_planes.231
	addq	$8, %rsp
	popq	%rbx
	popq	%r12
	popq	%r13
	popq	%r14
	popq	%r15
	popq	%rbp
	.cfi_def_cfa %rsp, 8
	retq
.LBB0_7:                                # %func_init_top_bot_planes.241
	.cfi_def_cfa %rbp, 16
	movq	%rbx, %rdi
	movl	%r13d, %esi
	movl	%r12d, %edx
	movq	%r15, %rcx
	movq	%r14, %r8
	callq	init_top_bot_planes.241
	addq	$8, %rsp
	popq	%rbx
	popq	%r12
	popq	%r13
	popq	%r14
	popq	%r15
	popq	%rbp
	.cfi_def_cfa %rsp, 8
	retq
.LBB0_8:                                # %func_init_top_bot_planes.244
	.cfi_def_cfa %rbp, 16
	movq	%rbx, %rdi
	movl	%r13d, %esi
	movl	%r12d, %edx
	movq	%r15, %rcx
	movq	%r14, %r8
	callq	init_top_bot_planes.244
	addq	$8, %rsp
	popq	%rbx
	popq	%r12
	popq	%r13
	popq	%r14
	popq	%r15
	popq	%rbp
	.cfi_def_cfa %rsp, 8
	retq
.LBB0_9:                                # %func_init_top_bot_planes.246
	.cfi_def_cfa %rbp, 16
	movq	%rbx, %rdi
	movl	%r13d, %esi
	movl	%r12d, %edx
	movq	%r15, %rcx
	movq	%r14, %r8
	callq	init_top_bot_planes.246
	addq	$8, %rsp
	popq	%rbx
	popq	%r12
	popq	%r13
	popq	%r14
	popq	%r15
	popq	%rbp
	.cfi_def_cfa %rsp, 8
	retq
.LBB0_10:                               # %func_init_top_bot_planes.247
	.cfi_def_cfa %rbp, 16
	movq	%rbx, %rdi
	movl	%r13d, %esi
	movl	%r12d, %edx
	movq	%r15, %rcx
	movq	%r14, %r8
	callq	init_top_bot_planes.247
	addq	$8, %rsp
	popq	%rbx
	popq	%r12
	popq	%r13
	popq	%r14
	popq	%r15
	popq	%rbp
	.cfi_def_cfa %rsp, 8
	retq
.LBB0_11:                               # %func_init_top_bot_planes.249
	.cfi_def_cfa %rbp, 16
	movq	%rbx, %rdi
	movl	%r13d, %esi
	movl	%r12d, %edx
	movq	%r15, %rcx
	movq	%r14, %r8
	callq	init_top_bot_planes.249
	addq	$8, %rsp
	popq	%rbx
	popq	%r12
	popq	%r13
	popq	%r14
	popq	%r15
	popq	%rbp
	.cfi_def_cfa %rsp, 8
	retq
.LBB0_12:                               # %func_init_top_bot_planes.250
	.cfi_def_cfa %rbp, 16
	movq	%rbx, %rdi
	movl	%r13d, %esi
	movl	%r12d, %edx
	movq	%r15, %rcx
	movq	%r14, %r8
	callq	init_top_bot_planes.250
	addq	$8, %rsp
	popq	%rbx
	popq	%r12
	popq	%r13
	popq	%r14
	popq	%r15
	popq	%rbp
	.cfi_def_cfa %rsp, 8
	retq
.LBB0_13:                               # %func_init_top_bot_planes.261
	.cfi_def_cfa %rbp, 16
	movq	%rbx, %rdi
	movl	%r13d, %esi
	movl	%r12d, %edx
	movq	%r15, %rcx
	movq	%r14, %r8
	callq	init_top_bot_planes.261
	addq	$8, %rsp
	popq	%rbx
	popq	%r12
	popq	%r13
	popq	%r14
	popq	%r15
	popq	%rbp
	.cfi_def_cfa %rsp, 8
	retq
.LBB0_14:                               # %func_init_top_bot_planes.269
	.cfi_def_cfa %rbp, 16
	movq	%rbx, %rdi
	movl	%r13d, %esi
	movl	%r12d, %edx
	movq	%r15, %rcx
	movq	%r14, %r8
	callq	init_top_bot_planes.269
	addq	$8, %rsp
	popq	%rbx
	popq	%r12
	popq	%r13
	popq	%r14
	popq	%r15
	popq	%rbp
	.cfi_def_cfa %rsp, 8
	retq
.LBB0_15:                               # %func_init_top_bot_planes.270
	.cfi_def_cfa %rbp, 16
	movq	%rbx, %rdi
	movl	%r13d, %esi
	movl	%r12d, %edx
	movq	%r15, %rcx
	movq	%r14, %r8
	callq	init_top_bot_planes.270
	addq	$8, %rsp
	popq	%rbx
	popq	%r12
	popq	%r13
	popq	%r14
	popq	%r15
	popq	%rbp
	.cfi_def_cfa %rsp, 8
	retq
.LBB0_16:                               # %func_init_top_bot_planes.271
	.cfi_def_cfa %rbp, 16
	movq	%rbx, %rdi
	movl	%r13d, %esi
	movl	%r12d, %edx
	movq	%r15, %rcx
	movq	%r14, %r8
	callq	init_top_bot_planes.271
	addq	$8, %rsp
	popq	%rbx
	popq	%r12
	popq	%r13
	popq	%r14
	popq	%r15
	popq	%rbp
	.cfi_def_cfa %rsp, 8
	retq
.LBB0_17:                               # %ctrl0
	.cfi_def_cfa %rbp, 16
	cmpl	$1, %eax
	je	.LBB0_2
# %bb.18:                               # %ctrl1
	cmpl	$2, %eax
	je	.LBB0_3
# %bb.19:                               # %ctrl2
	cmpl	$3, %eax
	je	.LBB0_4
# %bb.20:                               # %ctrl3
	cmpl	$4, %eax
	je	.LBB0_5
# %bb.21:                               # %ctrl4
	cmpl	$5, %eax
	je	.LBB0_6
# %bb.22:                               # %ctrl5
	cmpl	$6, %eax
	je	.LBB0_7
# %bb.23:                               # %ctrl6
	cmpl	$7, %eax
	je	.LBB0_8
# %bb.24:                               # %ctrl7
	cmpl	$8, %eax
	je	.LBB0_9
# %bb.25:                               # %ctrl8
	cmpl	$9, %eax
	je	.LBB0_10
# %bb.26:                               # %ctrl9
	cmpl	$10, %eax
	je	.LBB0_11
# %bb.27:                               # %ctrl10
	cmpl	$11, %eax
	je	.LBB0_12
# %bb.28:                               # %ctrl11
	cmpl	$12, %eax
	je	.LBB0_13
# %bb.29:                               # %ctrl12
	cmpl	$13, %eax
	je	.LBB0_14
# %bb.30:                               # %ctrl13
	cmpl	$14, %eax
	je	.LBB0_15
	jmp	.LBB0_16
.Lfunc_end0:
	.size	init_top_bot_planes, .Lfunc_end0-init_top_bot_planes
	.cfi_endproc
                                        # -- End function
	.globl	no_mem_exit             # -- Begin function no_mem_exit
	.p2align	4, 0x90
	.type	no_mem_exit,@function
no_mem_exit:                            # @no_mem_exit
	.cfi_startproc
# %bb.0:                                # %entry
	pushq	%rbp
	.cfi_def_cfa_offset 16
	.cfi_offset %rbp, -16
	movq	%rsp, %rbp
	.cfi_def_cfa_register %rbp
	subq	$16, %rsp
	movq	%rdi, -8(%rbp)
	movq	-8(%rbp), %rcx
	movabsq	$errortext, %rdi
	movl	$300, %esi              # imm = 0x12C
	movabsq	$.L.str.20, %rdx
	movb	$0, %al
	callq	snprintf
	movabsq	$errortext, %rdi
	movl	$100, %esi
	callq	error
	addq	$16, %rsp
	popq	%rbp
	.cfi_def_cfa %rsp, 8
	retq
.Lfunc_end1:
	.size	no_mem_exit, .Lfunc_end1-no_mem_exit
	.cfi_endproc
                                        # -- End function
	.globl	free_top_bot_planes     # -- Begin function free_top_bot_planes
	.p2align	4, 0x90
	.type	free_top_bot_planes,@function
free_top_bot_planes:                    # @free_top_bot_planes
	.cfi_startproc
# %bb.0:                                # %rand_bb
	pushq	%rbp
	.cfi_def_cfa_offset 16
	.cfi_offset %rbp, -16
	movq	%rsp, %rbp
	.cfi_def_cfa_register %rbp
	pushq	%r14
	pushq	%rbx
	.cfi_offset %rbx, -32
	.cfi_offset %r14, -24
	movq	%rsi, %r14
	movq	%rdi, %rbx
	callq	get_rand
	cmpl	$0, %eax
	jne	.LBB2_2
# %bb.1:                                # %func_free_top_bot_planes.39
	movq	%rbx, %rdi
	movq	%r14, %rsi
	callq	free_top_bot_planes.39
	popq	%rbx
	popq	%r14
	popq	%rbp
	.cfi_def_cfa %rsp, 8
	retq
.LBB2_2:                                # %func_free_top_bot_planes.54
	.cfi_def_cfa %rbp, 16
	movq	%rbx, %rdi
	movq	%r14, %rsi
	callq	free_top_bot_planes.54
	popq	%rbx
	popq	%r14
	popq	%rbp
	.cfi_def_cfa %rsp, 8
	retq
.Lfunc_end2:
	.size	free_top_bot_planes, .Lfunc_end2-free_top_bot_planes
	.cfi_endproc
                                        # -- End function
	.globl	get_mem2Dpel            # -- Begin function get_mem2Dpel
	.p2align	4, 0x90
	.type	get_mem2Dpel,@function
get_mem2Dpel:                           # @get_mem2Dpel
	.cfi_startproc
# %bb.0:                                # %rand_bb
	pushq	%rbp
	.cfi_def_cfa_offset 16
	.cfi_offset %rbp, -16
	movq	%rsp, %rbp
	.cfi_def_cfa_register %rbp
	pushq	%r15
	pushq	%r14
	pushq	%rbx
	pushq	%rax
	.cfi_offset %rbx, -40
	.cfi_offset %r14, -32
	.cfi_offset %r15, -24
	movl	%edx, %r14d
	movl	%esi, %r15d
	movq	%rdi, %rbx
	callq	get_rand
	cmpl	$0, %eax
	jne	.LBB3_17
# %bb.1:                                # %func_get_mem2Dpel.2
	movq	%rbx, %rdi
	movl	%r15d, %esi
	movl	%r14d, %edx
	callq	get_mem2Dpel.2
	addq	$8, %rsp
	popq	%rbx
	popq	%r14
	popq	%r15
	popq	%rbp
	.cfi_def_cfa %rsp, 8
	retq
.LBB3_2:                                # %func_get_mem2Dpel.35
	.cfi_def_cfa %rbp, 16
	movq	%rbx, %rdi
	movl	%r15d, %esi
	movl	%r14d, %edx
	callq	get_mem2Dpel.35
	addq	$8, %rsp
	popq	%rbx
	popq	%r14
	popq	%r15
	popq	%rbp
	.cfi_def_cfa %rsp, 8
	retq
.LBB3_3:                                # %func_get_mem2Dpel.63
	.cfi_def_cfa %rbp, 16
	movq	%rbx, %rdi
	movl	%r15d, %esi
	movl	%r14d, %edx
	callq	get_mem2Dpel.63
	addq	$8, %rsp
	popq	%rbx
	popq	%r14
	popq	%r15
	popq	%rbp
	.cfi_def_cfa %rsp, 8
	retq
.LBB3_4:                                # %func_get_mem2Dpel.74
	.cfi_def_cfa %rbp, 16
	movq	%rbx, %rdi
	movl	%r15d, %esi
	movl	%r14d, %edx
	callq	get_mem2Dpel.74
	addq	$8, %rsp
	popq	%rbx
	popq	%r14
	popq	%r15
	popq	%rbp
	.cfi_def_cfa %rsp, 8
	retq
.LBB3_5:                                # %func_get_mem2Dpel.81
	.cfi_def_cfa %rbp, 16
	movq	%rbx, %rdi
	movl	%r15d, %esi
	movl	%r14d, %edx
	callq	get_mem2Dpel.81
	addq	$8, %rsp
	popq	%rbx
	popq	%r14
	popq	%r15
	popq	%rbp
	.cfi_def_cfa %rsp, 8
	retq
.LBB3_6:                                # %func_get_mem2Dpel.82
	.cfi_def_cfa %rbp, 16
	movq	%rbx, %rdi
	movl	%r15d, %esi
	movl	%r14d, %edx
	callq	get_mem2Dpel.82
	addq	$8, %rsp
	popq	%rbx
	popq	%r14
	popq	%r15
	popq	%rbp
	.cfi_def_cfa %rsp, 8
	retq
.LBB3_7:                                # %func_get_mem2Dpel.84
	.cfi_def_cfa %rbp, 16
	movq	%rbx, %rdi
	movl	%r15d, %esi
	movl	%r14d, %edx
	callq	get_mem2Dpel.84
	addq	$8, %rsp
	popq	%rbx
	popq	%r14
	popq	%r15
	popq	%rbp
	.cfi_def_cfa %rsp, 8
	retq
.LBB3_8:                                # %func_get_mem2Dpel.110
	.cfi_def_cfa %rbp, 16
	movq	%rbx, %rdi
	movl	%r15d, %esi
	movl	%r14d, %edx
	callq	get_mem2Dpel.110
	addq	$8, %rsp
	popq	%rbx
	popq	%r14
	popq	%r15
	popq	%rbp
	.cfi_def_cfa %rsp, 8
	retq
.LBB3_9:                                # %func_get_mem2Dpel.113
	.cfi_def_cfa %rbp, 16
	movq	%rbx, %rdi
	movl	%r15d, %esi
	movl	%r14d, %edx
	callq	get_mem2Dpel.113
	addq	$8, %rsp
	popq	%rbx
	popq	%r14
	popq	%r15
	popq	%rbp
	.cfi_def_cfa %rsp, 8
	retq
.LBB3_10:                               # %func_get_mem2Dpel.132
	.cfi_def_cfa %rbp, 16
	movq	%rbx, %rdi
	movl	%r15d, %esi
	movl	%r14d, %edx
	callq	get_mem2Dpel.132
	addq	$8, %rsp
	popq	%rbx
	popq	%r14
	popq	%r15
	popq	%rbp
	.cfi_def_cfa %rsp, 8
	retq
.LBB3_11:                               # %func_get_mem2Dpel.142
	.cfi_def_cfa %rbp, 16
	movq	%rbx, %rdi
	movl	%r15d, %esi
	movl	%r14d, %edx
	callq	get_mem2Dpel.142
	addq	$8, %rsp
	popq	%rbx
	popq	%r14
	popq	%r15
	popq	%rbp
	.cfi_def_cfa %rsp, 8
	retq
.LBB3_12:                               # %func_get_mem2Dpel.154
	.cfi_def_cfa %rbp, 16
	movq	%rbx, %rdi
	movl	%r15d, %esi
	movl	%r14d, %edx
	callq	get_mem2Dpel.154
	addq	$8, %rsp
	popq	%rbx
	popq	%r14
	popq	%r15
	popq	%rbp
	.cfi_def_cfa %rsp, 8
	retq
.LBB3_13:                               # %func_get_mem2Dpel.187
	.cfi_def_cfa %rbp, 16
	movq	%rbx, %rdi
	movl	%r15d, %esi
	movl	%r14d, %edx
	callq	get_mem2Dpel.187
	addq	$8, %rsp
	popq	%rbx
	popq	%r14
	popq	%r15
	popq	%rbp
	.cfi_def_cfa %rsp, 8
	retq
.LBB3_14:                               # %func_get_mem2Dpel.211
	.cfi_def_cfa %rbp, 16
	movq	%rbx, %rdi
	movl	%r15d, %esi
	movl	%r14d, %edx
	callq	get_mem2Dpel.211
	addq	$8, %rsp
	popq	%rbx
	popq	%r14
	popq	%r15
	popq	%rbp
	.cfi_def_cfa %rsp, 8
	retq
.LBB3_15:                               # %func_get_mem2Dpel.219
	.cfi_def_cfa %rbp, 16
	movq	%rbx, %rdi
	movl	%r15d, %esi
	movl	%r14d, %edx
	callq	get_mem2Dpel.219
	addq	$8, %rsp
	popq	%rbx
	popq	%r14
	popq	%r15
	popq	%rbp
	.cfi_def_cfa %rsp, 8
	retq
.LBB3_16:                               # %func_get_mem2Dpel.221
	.cfi_def_cfa %rbp, 16
	movq	%rbx, %rdi
	movl	%r15d, %esi
	movl	%r14d, %edx
	callq	get_mem2Dpel.221
	addq	$8, %rsp
	popq	%rbx
	popq	%r14
	popq	%r15
	popq	%rbp
	.cfi_def_cfa %rsp, 8
	retq
.LBB3_17:                               # %ctrl0
	.cfi_def_cfa %rbp, 16
	cmpl	$1, %eax
	je	.LBB3_2
# %bb.18:                               # %ctrl1
	cmpl	$2, %eax
	je	.LBB3_3
# %bb.19:                               # %ctrl2
	cmpl	$3, %eax
	je	.LBB3_4
# %bb.20:                               # %ctrl3
	cmpl	$4, %eax
	je	.LBB3_5
# %bb.21:                               # %ctrl4
	cmpl	$5, %eax
	je	.LBB3_6
# %bb.22:                               # %ctrl5
	cmpl	$6, %eax
	je	.LBB3_7
# %bb.23:                               # %ctrl6
	cmpl	$7, %eax
	je	.LBB3_8
# %bb.24:                               # %ctrl7
	cmpl	$8, %eax
	je	.LBB3_9
# %bb.25:                               # %ctrl8
	cmpl	$9, %eax
	je	.LBB3_10
# %bb.26:                               # %ctrl9
	cmpl	$10, %eax
	je	.LBB3_11
# %bb.27:                               # %ctrl10
	cmpl	$11, %eax
	je	.LBB3_12
# %bb.28:                               # %ctrl11
	cmpl	$12, %eax
	je	.LBB3_13
# %bb.29:                               # %ctrl12
	cmpl	$13, %eax
	je	.LBB3_14
# %bb.30:                               # %ctrl13
	cmpl	$14, %eax
	je	.LBB3_15
	jmp	.LBB3_16
.Lfunc_end3:
	.size	get_mem2Dpel, .Lfunc_end3-get_mem2Dpel
	.cfi_endproc
                                        # -- End function
	.globl	get_mem3Dpel            # -- Begin function get_mem3Dpel
	.p2align	4, 0x90
	.type	get_mem3Dpel,@function
get_mem3Dpel:                           # @get_mem3Dpel
	.cfi_startproc
# %bb.0:                                # %rand_bb
	pushq	%rbp
	.cfi_def_cfa_offset 16
	.cfi_offset %rbp, -16
	movq	%rsp, %rbp
	.cfi_def_cfa_register %rbp
	pushq	%r15
	pushq	%r14
	pushq	%r12
	pushq	%rbx
	.cfi_offset %rbx, -48
	.cfi_offset %r12, -40
	.cfi_offset %r14, -32
	.cfi_offset %r15, -24
	movl	%ecx, %r14d
	movl	%edx, %r15d
	movl	%esi, %r12d
	movq	%rdi, %rbx
	callq	get_rand
	cmpl	$0, %eax
	jne	.LBB4_17
# %bb.1:                                # %func_get_mem3Dpel.45
	movq	%rbx, %rdi
	movl	%r12d, %esi
	movl	%r15d, %edx
	movl	%r14d, %ecx
	callq	get_mem3Dpel.45
	popq	%rbx
	popq	%r12
	popq	%r14
	popq	%r15
	popq	%rbp
	.cfi_def_cfa %rsp, 8
	retq
.LBB4_2:                                # %func_get_mem3Dpel.71
	.cfi_def_cfa %rbp, 16
	movq	%rbx, %rdi
	movl	%r12d, %esi
	movl	%r15d, %edx
	movl	%r14d, %ecx
	callq	get_mem3Dpel.71
	popq	%rbx
	popq	%r12
	popq	%r14
	popq	%r15
	popq	%rbp
	.cfi_def_cfa %rsp, 8
	retq
.LBB4_3:                                # %func_get_mem3Dpel.85
	.cfi_def_cfa %rbp, 16
	movq	%rbx, %rdi
	movl	%r12d, %esi
	movl	%r15d, %edx
	movl	%r14d, %ecx
	callq	get_mem3Dpel.85
	popq	%rbx
	popq	%r12
	popq	%r14
	popq	%r15
	popq	%rbp
	.cfi_def_cfa %rsp, 8
	retq
.LBB4_4:                                # %func_get_mem3Dpel.88
	.cfi_def_cfa %rbp, 16
	movq	%rbx, %rdi
	movl	%r12d, %esi
	movl	%r15d, %edx
	movl	%r14d, %ecx
	callq	get_mem3Dpel.88
	popq	%rbx
	popq	%r12
	popq	%r14
	popq	%r15
	popq	%rbp
	.cfi_def_cfa %rsp, 8
	retq
.LBB4_5:                                # %func_get_mem3Dpel.102
	.cfi_def_cfa %rbp, 16
	movq	%rbx, %rdi
	movl	%r12d, %esi
	movl	%r15d, %edx
	movl	%r14d, %ecx
	callq	get_mem3Dpel.102
	popq	%rbx
	popq	%r12
	popq	%r14
	popq	%r15
	popq	%rbp
	.cfi_def_cfa %rsp, 8
	retq
.LBB4_6:                                # %func_get_mem3Dpel.106
	.cfi_def_cfa %rbp, 16
	movq	%rbx, %rdi
	movl	%r12d, %esi
	movl	%r15d, %edx
	movl	%r14d, %ecx
	callq	get_mem3Dpel.106
	popq	%rbx
	popq	%r12
	popq	%r14
	popq	%r15
	popq	%rbp
	.cfi_def_cfa %rsp, 8
	retq
.LBB4_7:                                # %func_get_mem3Dpel.108
	.cfi_def_cfa %rbp, 16
	movq	%rbx, %rdi
	movl	%r12d, %esi
	movl	%r15d, %edx
	movl	%r14d, %ecx
	callq	get_mem3Dpel.108
	popq	%rbx
	popq	%r12
	popq	%r14
	popq	%r15
	popq	%rbp
	.cfi_def_cfa %rsp, 8
	retq
.LBB4_8:                                # %func_get_mem3Dpel.121
	.cfi_def_cfa %rbp, 16
	movq	%rbx, %rdi
	movl	%r12d, %esi
	movl	%r15d, %edx
	movl	%r14d, %ecx
	callq	get_mem3Dpel.121
	popq	%rbx
	popq	%r12
	popq	%r14
	popq	%r15
	popq	%rbp
	.cfi_def_cfa %rsp, 8
	retq
.LBB4_9:                                # %func_get_mem3Dpel.138
	.cfi_def_cfa %rbp, 16
	movq	%rbx, %rdi
	movl	%r12d, %esi
	movl	%r15d, %edx
	movl	%r14d, %ecx
	callq	get_mem3Dpel.138
	popq	%rbx
	popq	%r12
	popq	%r14
	popq	%r15
	popq	%rbp
	.cfi_def_cfa %rsp, 8
	retq
.LBB4_10:                               # %func_get_mem3Dpel.151
	.cfi_def_cfa %rbp, 16
	movq	%rbx, %rdi
	movl	%r12d, %esi
	movl	%r15d, %edx
	movl	%r14d, %ecx
	callq	get_mem3Dpel.151
	popq	%rbx
	popq	%r12
	popq	%r14
	popq	%r15
	popq	%rbp
	.cfi_def_cfa %rsp, 8
	retq
.LBB4_11:                               # %func_get_mem3Dpel.159
	.cfi_def_cfa %rbp, 16
	movq	%rbx, %rdi
	movl	%r12d, %esi
	movl	%r15d, %edx
	movl	%r14d, %ecx
	callq	get_mem3Dpel.159
	popq	%rbx
	popq	%r12
	popq	%r14
	popq	%r15
	popq	%rbp
	.cfi_def_cfa %rsp, 8
	retq
.LBB4_12:                               # %func_get_mem3Dpel.161
	.cfi_def_cfa %rbp, 16
	movq	%rbx, %rdi
	movl	%r12d, %esi
	movl	%r15d, %edx
	movl	%r14d, %ecx
	callq	get_mem3Dpel.161
	popq	%rbx
	popq	%r12
	popq	%r14
	popq	%r15
	popq	%rbp
	.cfi_def_cfa %rsp, 8
	retq
.LBB4_13:                               # %func_get_mem3Dpel.170
	.cfi_def_cfa %rbp, 16
	movq	%rbx, %rdi
	movl	%r12d, %esi
	movl	%r15d, %edx
	movl	%r14d, %ecx
	callq	get_mem3Dpel.170
	popq	%rbx
	popq	%r12
	popq	%r14
	popq	%r15
	popq	%rbp
	.cfi_def_cfa %rsp, 8
	retq
.LBB4_14:                               # %func_get_mem3Dpel.178
	.cfi_def_cfa %rbp, 16
	movq	%rbx, %rdi
	movl	%r12d, %esi
	movl	%r15d, %edx
	movl	%r14d, %ecx
	callq	get_mem3Dpel.178
	popq	%rbx
	popq	%r12
	popq	%r14
	popq	%r15
	popq	%rbp
	.cfi_def_cfa %rsp, 8
	retq
.LBB4_15:                               # %func_get_mem3Dpel.181
	.cfi_def_cfa %rbp, 16
	movq	%rbx, %rdi
	movl	%r12d, %esi
	movl	%r15d, %edx
	movl	%r14d, %ecx
	callq	get_mem3Dpel.181
	popq	%rbx
	popq	%r12
	popq	%r14
	popq	%r15
	popq	%rbp
	.cfi_def_cfa %rsp, 8
	retq
.LBB4_16:                               # %func_get_mem3Dpel.190
	.cfi_def_cfa %rbp, 16
	movq	%rbx, %rdi
	movl	%r12d, %esi
	movl	%r15d, %edx
	movl	%r14d, %ecx
	callq	get_mem3Dpel.190
	popq	%rbx
	popq	%r12
	popq	%r14
	popq	%r15
	popq	%rbp
	.cfi_def_cfa %rsp, 8
	retq
.LBB4_17:                               # %ctrl0
	.cfi_def_cfa %rbp, 16
	cmpl	$1, %eax
	je	.LBB4_2
# %bb.18:                               # %ctrl1
	cmpl	$2, %eax
	je	.LBB4_3
# %bb.19:                               # %ctrl2
	cmpl	$3, %eax
	je	.LBB4_4
# %bb.20:                               # %ctrl3
	cmpl	$4, %eax
	je	.LBB4_5
# %bb.21:                               # %ctrl4
	cmpl	$5, %eax
	je	.LBB4_6
# %bb.22:                               # %ctrl5
	cmpl	$6, %eax
	je	.LBB4_7
# %bb.23:                               # %ctrl6
	cmpl	$7, %eax
	je	.LBB4_8
# %bb.24:                               # %ctrl7
	cmpl	$8, %eax
	je	.LBB4_9
# %bb.25:                               # %ctrl8
	cmpl	$9, %eax
	je	.LBB4_10
# %bb.26:                               # %ctrl9
	cmpl	$10, %eax
	je	.LBB4_11
# %bb.27:                               # %ctrl10
	cmpl	$11, %eax
	je	.LBB4_12
# %bb.28:                               # %ctrl11
	cmpl	$12, %eax
	je	.LBB4_13
# %bb.29:                               # %ctrl12
	cmpl	$13, %eax
	je	.LBB4_14
# %bb.30:                               # %ctrl13
	cmpl	$14, %eax
	je	.LBB4_15
	jmp	.LBB4_16
.Lfunc_end4:
	.size	get_mem3Dpel, .Lfunc_end4-get_mem3Dpel
	.cfi_endproc
                                        # -- End function
	.globl	free_mem2Dpel           # -- Begin function free_mem2Dpel
	.p2align	4, 0x90
	.type	free_mem2Dpel,@function
free_mem2Dpel:                          # @free_mem2Dpel
	.cfi_startproc
# %bb.0:                                # %entry
	pushq	%rbp
	.cfi_def_cfa_offset 16
	.cfi_offset %rbp, -16
	movq	%rsp, %rbp
	.cfi_def_cfa_register %rbp
	subq	$16, %rsp
	movq	%rdi, -8(%rbp)
	cmpq	$0, -8(%rbp)
	je	.LBB5_5
# %bb.1:                                # %if.then
	movq	-8(%rbp), %rax
	cmpq	$0, (%rax)
	je	.LBB5_3
# %bb.2:                                # %if.then2
	movq	-8(%rbp), %rax
	movq	(%rax), %rdi
	callq	free
	jmp	.LBB5_4
.LBB5_3:                                # %if.else
	movabsq	$.L.str.4, %rdi
	movl	$100, %esi
	callq	error
.LBB5_4:                                # %if.end
	movq	-8(%rbp), %rdi
	callq	free
	jmp	.LBB5_6
.LBB5_5:                                # %if.else4
	movabsq	$.L.str.4, %rdi
	movl	$100, %esi
	callq	error
.LBB5_6:                                # %if.end5
	addq	$16, %rsp
	popq	%rbp
	.cfi_def_cfa %rsp, 8
	retq
.Lfunc_end5:
	.size	free_mem2Dpel, .Lfunc_end5-free_mem2Dpel
	.cfi_endproc
                                        # -- End function
	.globl	free_mem3Dpel           # -- Begin function free_mem3Dpel
	.p2align	4, 0x90
	.type	free_mem3Dpel,@function
free_mem3Dpel:                          # @free_mem3Dpel
	.cfi_startproc
# %bb.0:                                # %rand_bb
	pushq	%rbp
	.cfi_def_cfa_offset 16
	.cfi_offset %rbp, -16
	movq	%rsp, %rbp
	.cfi_def_cfa_register %rbp
	pushq	%r14
	pushq	%rbx
	.cfi_offset %rbx, -32
	.cfi_offset %r14, -24
	movl	%esi, %r14d
	movq	%rdi, %rbx
	callq	get_rand
	cmpl	$0, %eax
	jne	.LBB6_7
# %bb.1:                                # %func_free_mem3Dpel.15
	movq	%rbx, %rdi
	movl	%r14d, %esi
	callq	free_mem3Dpel.15
	popq	%rbx
	popq	%r14
	popq	%rbp
	.cfi_def_cfa %rsp, 8
	retq
.LBB6_2:                                # %func_free_mem3Dpel.29
	.cfi_def_cfa %rbp, 16
	movq	%rbx, %rdi
	movl	%r14d, %esi
	callq	free_mem3Dpel.29
	popq	%rbx
	popq	%r14
	popq	%rbp
	.cfi_def_cfa %rsp, 8
	retq
.LBB6_3:                                # %func_free_mem3Dpel.31
	.cfi_def_cfa %rbp, 16
	movq	%rbx, %rdi
	movl	%r14d, %esi
	callq	free_mem3Dpel.31
	popq	%rbx
	popq	%r14
	popq	%rbp
	.cfi_def_cfa %rsp, 8
	retq
.LBB6_4:                                # %func_free_mem3Dpel.86
	.cfi_def_cfa %rbp, 16
	movq	%rbx, %rdi
	movl	%r14d, %esi
	callq	free_mem3Dpel.86
	popq	%rbx
	popq	%r14
	popq	%rbp
	.cfi_def_cfa %rsp, 8
	retq
.LBB6_5:                                # %func_free_mem3Dpel.96
	.cfi_def_cfa %rbp, 16
	movq	%rbx, %rdi
	movl	%r14d, %esi
	callq	free_mem3Dpel.96
	popq	%rbx
	popq	%r14
	popq	%rbp
	.cfi_def_cfa %rsp, 8
	retq
.LBB6_6:                                # %func_free_mem3Dpel.97
	.cfi_def_cfa %rbp, 16
	movq	%rbx, %rdi
	movl	%r14d, %esi
	callq	free_mem3Dpel.97
	popq	%rbx
	popq	%r14
	popq	%rbp
	.cfi_def_cfa %rsp, 8
	retq
.LBB6_7:                                # %ctrl0
	.cfi_def_cfa %rbp, 16
	cmpl	$1, %eax
	je	.LBB6_2
# %bb.8:                                # %ctrl1
	cmpl	$2, %eax
	je	.LBB6_3
# %bb.9:                                # %ctrl2
	cmpl	$3, %eax
	je	.LBB6_4
# %bb.10:                               # %ctrl3
	cmpl	$4, %eax
	je	.LBB6_5
	jmp	.LBB6_6
.Lfunc_end6:
	.size	free_mem3Dpel, .Lfunc_end6-free_mem3Dpel
	.cfi_endproc
                                        # -- End function
	.globl	get_mem2D               # -- Begin function get_mem2D
	.p2align	4, 0x90
	.type	get_mem2D,@function
get_mem2D:                              # @get_mem2D
	.cfi_startproc
# %bb.0:                                # %rand_bb
	pushq	%rbp
	.cfi_def_cfa_offset 16
	.cfi_offset %rbp, -16
	movq	%rsp, %rbp
	.cfi_def_cfa_register %rbp
	pushq	%r15
	pushq	%r14
	pushq	%rbx
	pushq	%rax
	.cfi_offset %rbx, -40
	.cfi_offset %r14, -32
	.cfi_offset %r15, -24
	movl	%edx, %r14d
	movl	%esi, %r15d
	movq	%rdi, %rbx
	callq	get_rand
	cmpl	$0, %eax
	jne	.LBB7_17
# %bb.1:                                # %func_get_mem2D.10
	movq	%rbx, %rdi
	movl	%r15d, %esi
	movl	%r14d, %edx
	callq	get_mem2D.10
	addq	$8, %rsp
	popq	%rbx
	popq	%r14
	popq	%r15
	popq	%rbp
	.cfi_def_cfa %rsp, 8
	retq
.LBB7_2:                                # %func_get_mem2D.62
	.cfi_def_cfa %rbp, 16
	movq	%rbx, %rdi
	movl	%r15d, %esi
	movl	%r14d, %edx
	callq	get_mem2D.62
	addq	$8, %rsp
	popq	%rbx
	popq	%r14
	popq	%r15
	popq	%rbp
	.cfi_def_cfa %rsp, 8
	retq
.LBB7_3:                                # %func_get_mem2D.90
	.cfi_def_cfa %rbp, 16
	movq	%rbx, %rdi
	movl	%r15d, %esi
	movl	%r14d, %edx
	callq	get_mem2D.90
	addq	$8, %rsp
	popq	%rbx
	popq	%r14
	popq	%r15
	popq	%rbp
	.cfi_def_cfa %rsp, 8
	retq
.LBB7_4:                                # %func_get_mem2D.107
	.cfi_def_cfa %rbp, 16
	movq	%rbx, %rdi
	movl	%r15d, %esi
	movl	%r14d, %edx
	callq	get_mem2D.107
	addq	$8, %rsp
	popq	%rbx
	popq	%r14
	popq	%r15
	popq	%rbp
	.cfi_def_cfa %rsp, 8
	retq
.LBB7_5:                                # %func_get_mem2D.112
	.cfi_def_cfa %rbp, 16
	movq	%rbx, %rdi
	movl	%r15d, %esi
	movl	%r14d, %edx
	callq	get_mem2D.112
	addq	$8, %rsp
	popq	%rbx
	popq	%r14
	popq	%r15
	popq	%rbp
	.cfi_def_cfa %rsp, 8
	retq
.LBB7_6:                                # %func_get_mem2D.176
	.cfi_def_cfa %rbp, 16
	movq	%rbx, %rdi
	movl	%r15d, %esi
	movl	%r14d, %edx
	callq	get_mem2D.176
	addq	$8, %rsp
	popq	%rbx
	popq	%r14
	popq	%r15
	popq	%rbp
	.cfi_def_cfa %rsp, 8
	retq
.LBB7_7:                                # %func_get_mem2D.194
	.cfi_def_cfa %rbp, 16
	movq	%rbx, %rdi
	movl	%r15d, %esi
	movl	%r14d, %edx
	callq	get_mem2D.194
	addq	$8, %rsp
	popq	%rbx
	popq	%r14
	popq	%r15
	popq	%rbp
	.cfi_def_cfa %rsp, 8
	retq
.LBB7_8:                                # %func_get_mem2D.222
	.cfi_def_cfa %rbp, 16
	movq	%rbx, %rdi
	movl	%r15d, %esi
	movl	%r14d, %edx
	callq	get_mem2D.222
	addq	$8, %rsp
	popq	%rbx
	popq	%r14
	popq	%r15
	popq	%rbp
	.cfi_def_cfa %rsp, 8
	retq
.LBB7_9:                                # %func_get_mem2D.252
	.cfi_def_cfa %rbp, 16
	movq	%rbx, %rdi
	movl	%r15d, %esi
	movl	%r14d, %edx
	callq	get_mem2D.252
	addq	$8, %rsp
	popq	%rbx
	popq	%r14
	popq	%r15
	popq	%rbp
	.cfi_def_cfa %rsp, 8
	retq
.LBB7_10:                               # %func_get_mem2D.253
	.cfi_def_cfa %rbp, 16
	movq	%rbx, %rdi
	movl	%r15d, %esi
	movl	%r14d, %edx
	callq	get_mem2D.253
	addq	$8, %rsp
	popq	%rbx
	popq	%r14
	popq	%r15
	popq	%rbp
	.cfi_def_cfa %rsp, 8
	retq
.LBB7_11:                               # %func_get_mem2D.255
	.cfi_def_cfa %rbp, 16
	movq	%rbx, %rdi
	movl	%r15d, %esi
	movl	%r14d, %edx
	callq	get_mem2D.255
	addq	$8, %rsp
	popq	%rbx
	popq	%r14
	popq	%r15
	popq	%rbp
	.cfi_def_cfa %rsp, 8
	retq
.LBB7_12:                               # %func_get_mem2D.264
	.cfi_def_cfa %rbp, 16
	movq	%rbx, %rdi
	movl	%r15d, %esi
	movl	%r14d, %edx
	callq	get_mem2D.264
	addq	$8, %rsp
	popq	%rbx
	popq	%r14
	popq	%r15
	popq	%rbp
	.cfi_def_cfa %rsp, 8
	retq
.LBB7_13:                               # %func_get_mem2D.266
	.cfi_def_cfa %rbp, 16
	movq	%rbx, %rdi
	movl	%r15d, %esi
	movl	%r14d, %edx
	callq	get_mem2D.266
	addq	$8, %rsp
	popq	%rbx
	popq	%r14
	popq	%r15
	popq	%rbp
	.cfi_def_cfa %rsp, 8
	retq
.LBB7_14:                               # %func_get_mem2D.267
	.cfi_def_cfa %rbp, 16
	movq	%rbx, %rdi
	movl	%r15d, %esi
	movl	%r14d, %edx
	callq	get_mem2D.267
	addq	$8, %rsp
	popq	%rbx
	popq	%r14
	popq	%r15
	popq	%rbp
	.cfi_def_cfa %rsp, 8
	retq
.LBB7_15:                               # %func_get_mem2D.268
	.cfi_def_cfa %rbp, 16
	movq	%rbx, %rdi
	movl	%r15d, %esi
	movl	%r14d, %edx
	callq	get_mem2D.268
	addq	$8, %rsp
	popq	%rbx
	popq	%r14
	popq	%r15
	popq	%rbp
	.cfi_def_cfa %rsp, 8
	retq
.LBB7_16:                               # %func_get_mem2D.272
	.cfi_def_cfa %rbp, 16
	movq	%rbx, %rdi
	movl	%r15d, %esi
	movl	%r14d, %edx
	callq	get_mem2D.272
	addq	$8, %rsp
	popq	%rbx
	popq	%r14
	popq	%r15
	popq	%rbp
	.cfi_def_cfa %rsp, 8
	retq
.LBB7_17:                               # %ctrl0
	.cfi_def_cfa %rbp, 16
	cmpl	$1, %eax
	je	.LBB7_2
# %bb.18:                               # %ctrl1
	cmpl	$2, %eax
	je	.LBB7_3
# %bb.19:                               # %ctrl2
	cmpl	$3, %eax
	je	.LBB7_4
# %bb.20:                               # %ctrl3
	cmpl	$4, %eax
	je	.LBB7_5
# %bb.21:                               # %ctrl4
	cmpl	$5, %eax
	je	.LBB7_6
# %bb.22:                               # %ctrl5
	cmpl	$6, %eax
	je	.LBB7_7
# %bb.23:                               # %ctrl6
	cmpl	$7, %eax
	je	.LBB7_8
# %bb.24:                               # %ctrl7
	cmpl	$8, %eax
	je	.LBB7_9
# %bb.25:                               # %ctrl8
	cmpl	$9, %eax
	je	.LBB7_10
# %bb.26:                               # %ctrl9
	cmpl	$10, %eax
	je	.LBB7_11
# %bb.27:                               # %ctrl10
	cmpl	$11, %eax
	je	.LBB7_12
# %bb.28:                               # %ctrl11
	cmpl	$12, %eax
	je	.LBB7_13
# %bb.29:                               # %ctrl12
	cmpl	$13, %eax
	je	.LBB7_14
# %bb.30:                               # %ctrl13
	cmpl	$14, %eax
	je	.LBB7_15
	jmp	.LBB7_16
.Lfunc_end7:
	.size	get_mem2D, .Lfunc_end7-get_mem2D
	.cfi_endproc
                                        # -- End function
	.globl	get_mem2Dint            # -- Begin function get_mem2Dint
	.p2align	4, 0x90
	.type	get_mem2Dint,@function
get_mem2Dint:                           # @get_mem2Dint
	.cfi_startproc
# %bb.0:                                # %rand_bb
	pushq	%rbp
	.cfi_def_cfa_offset 16
	.cfi_offset %rbp, -16
	movq	%rsp, %rbp
	.cfi_def_cfa_register %rbp
	pushq	%r15
	pushq	%r14
	pushq	%rbx
	pushq	%rax
	.cfi_offset %rbx, -40
	.cfi_offset %r14, -32
	.cfi_offset %r15, -24
	movl	%edx, %r14d
	movl	%esi, %r15d
	movq	%rdi, %rbx
	callq	get_rand
	cmpl	$0, %eax
	jne	.LBB8_17
# %bb.1:                                # %func_get_mem2Dint.14
	movq	%rbx, %rdi
	movl	%r15d, %esi
	movl	%r14d, %edx
	callq	get_mem2Dint.14
	addq	$8, %rsp
	popq	%rbx
	popq	%r14
	popq	%r15
	popq	%rbp
	.cfi_def_cfa %rsp, 8
	retq
.LBB8_2:                                # %func_get_mem2Dint.76
	.cfi_def_cfa %rbp, 16
	movq	%rbx, %rdi
	movl	%r15d, %esi
	movl	%r14d, %edx
	callq	get_mem2Dint.76
	addq	$8, %rsp
	popq	%rbx
	popq	%r14
	popq	%r15
	popq	%rbp
	.cfi_def_cfa %rsp, 8
	retq
.LBB8_3:                                # %func_get_mem2Dint.123
	.cfi_def_cfa %rbp, 16
	movq	%rbx, %rdi
	movl	%r15d, %esi
	movl	%r14d, %edx
	callq	get_mem2Dint.123
	addq	$8, %rsp
	popq	%rbx
	popq	%r14
	popq	%r15
	popq	%rbp
	.cfi_def_cfa %rsp, 8
	retq
.LBB8_4:                                # %func_get_mem2Dint.149
	.cfi_def_cfa %rbp, 16
	movq	%rbx, %rdi
	movl	%r15d, %esi
	movl	%r14d, %edx
	callq	get_mem2Dint.149
	addq	$8, %rsp
	popq	%rbx
	popq	%r14
	popq	%r15
	popq	%rbp
	.cfi_def_cfa %rsp, 8
	retq
.LBB8_5:                                # %func_get_mem2Dint.164
	.cfi_def_cfa %rbp, 16
	movq	%rbx, %rdi
	movl	%r15d, %esi
	movl	%r14d, %edx
	callq	get_mem2Dint.164
	addq	$8, %rsp
	popq	%rbx
	popq	%r14
	popq	%r15
	popq	%rbp
	.cfi_def_cfa %rsp, 8
	retq
.LBB8_6:                                # %func_get_mem2Dint.166
	.cfi_def_cfa %rbp, 16
	movq	%rbx, %rdi
	movl	%r15d, %esi
	movl	%r14d, %edx
	callq	get_mem2Dint.166
	addq	$8, %rsp
	popq	%rbx
	popq	%r14
	popq	%r15
	popq	%rbp
	.cfi_def_cfa %rsp, 8
	retq
.LBB8_7:                                # %func_get_mem2Dint.174
	.cfi_def_cfa %rbp, 16
	movq	%rbx, %rdi
	movl	%r15d, %esi
	movl	%r14d, %edx
	callq	get_mem2Dint.174
	addq	$8, %rsp
	popq	%rbx
	popq	%r14
	popq	%r15
	popq	%rbp
	.cfi_def_cfa %rsp, 8
	retq
.LBB8_8:                                # %func_get_mem2Dint.202
	.cfi_def_cfa %rbp, 16
	movq	%rbx, %rdi
	movl	%r15d, %esi
	movl	%r14d, %edx
	callq	get_mem2Dint.202
	addq	$8, %rsp
	popq	%rbx
	popq	%r14
	popq	%r15
	popq	%rbp
	.cfi_def_cfa %rsp, 8
	retq
.LBB8_9:                                # %func_get_mem2Dint.216
	.cfi_def_cfa %rbp, 16
	movq	%rbx, %rdi
	movl	%r15d, %esi
	movl	%r14d, %edx
	callq	get_mem2Dint.216
	addq	$8, %rsp
	popq	%rbx
	popq	%r14
	popq	%r15
	popq	%rbp
	.cfi_def_cfa %rsp, 8
	retq
.LBB8_10:                               # %func_get_mem2Dint.236
	.cfi_def_cfa %rbp, 16
	movq	%rbx, %rdi
	movl	%r15d, %esi
	movl	%r14d, %edx
	callq	get_mem2Dint.236
	addq	$8, %rsp
	popq	%rbx
	popq	%r14
	popq	%r15
	popq	%rbp
	.cfi_def_cfa %rsp, 8
	retq
.LBB8_11:                               # %func_get_mem2Dint.240
	.cfi_def_cfa %rbp, 16
	movq	%rbx, %rdi
	movl	%r15d, %esi
	movl	%r14d, %edx
	callq	get_mem2Dint.240
	addq	$8, %rsp
	popq	%rbx
	popq	%r14
	popq	%r15
	popq	%rbp
	.cfi_def_cfa %rsp, 8
	retq
.LBB8_12:                               # %func_get_mem2Dint.254
	.cfi_def_cfa %rbp, 16
	movq	%rbx, %rdi
	movl	%r15d, %esi
	movl	%r14d, %edx
	callq	get_mem2Dint.254
	addq	$8, %rsp
	popq	%rbx
	popq	%r14
	popq	%r15
	popq	%rbp
	.cfi_def_cfa %rsp, 8
	retq
.LBB8_13:                               # %func_get_mem2Dint.256
	.cfi_def_cfa %rbp, 16
	movq	%rbx, %rdi
	movl	%r15d, %esi
	movl	%r14d, %edx
	callq	get_mem2Dint.256
	addq	$8, %rsp
	popq	%rbx
	popq	%r14
	popq	%r15
	popq	%rbp
	.cfi_def_cfa %rsp, 8
	retq
.LBB8_14:                               # %func_get_mem2Dint.257
	.cfi_def_cfa %rbp, 16
	movq	%rbx, %rdi
	movl	%r15d, %esi
	movl	%r14d, %edx
	callq	get_mem2Dint.257
	addq	$8, %rsp
	popq	%rbx
	popq	%r14
	popq	%r15
	popq	%rbp
	.cfi_def_cfa %rsp, 8
	retq
.LBB8_15:                               # %func_get_mem2Dint.259
	.cfi_def_cfa %rbp, 16
	movq	%rbx, %rdi
	movl	%r15d, %esi
	movl	%r14d, %edx
	callq	get_mem2Dint.259
	addq	$8, %rsp
	popq	%rbx
	popq	%r14
	popq	%r15
	popq	%rbp
	.cfi_def_cfa %rsp, 8
	retq
.LBB8_16:                               # %func_get_mem2Dint.262
	.cfi_def_cfa %rbp, 16
	movq	%rbx, %rdi
	movl	%r15d, %esi
	movl	%r14d, %edx
	callq	get_mem2Dint.262
	addq	$8, %rsp
	popq	%rbx
	popq	%r14
	popq	%r15
	popq	%rbp
	.cfi_def_cfa %rsp, 8
	retq
.LBB8_17:                               # %ctrl0
	.cfi_def_cfa %rbp, 16
	cmpl	$1, %eax
	je	.LBB8_2
# %bb.18:                               # %ctrl1
	cmpl	$2, %eax
	je	.LBB8_3
# %bb.19:                               # %ctrl2
	cmpl	$3, %eax
	je	.LBB8_4
# %bb.20:                               # %ctrl3
	cmpl	$4, %eax
	je	.LBB8_5
# %bb.21:                               # %ctrl4
	cmpl	$5, %eax
	je	.LBB8_6
# %bb.22:                               # %ctrl5
	cmpl	$6, %eax
	je	.LBB8_7
# %bb.23:                               # %ctrl6
	cmpl	$7, %eax
	je	.LBB8_8
# %bb.24:                               # %ctrl7
	cmpl	$8, %eax
	je	.LBB8_9
# %bb.25:                               # %ctrl8
	cmpl	$9, %eax
	je	.LBB8_10
# %bb.26:                               # %ctrl9
	cmpl	$10, %eax
	je	.LBB8_11
# %bb.27:                               # %ctrl10
	cmpl	$11, %eax
	je	.LBB8_12
# %bb.28:                               # %ctrl11
	cmpl	$12, %eax
	je	.LBB8_13
# %bb.29:                               # %ctrl12
	cmpl	$13, %eax
	je	.LBB8_14
# %bb.30:                               # %ctrl13
	cmpl	$14, %eax
	je	.LBB8_15
	jmp	.LBB8_16
.Lfunc_end8:
	.size	get_mem2Dint, .Lfunc_end8-get_mem2Dint
	.cfi_endproc
                                        # -- End function
	.globl	get_mem2Dint64          # -- Begin function get_mem2Dint64
	.p2align	4, 0x90
	.type	get_mem2Dint64,@function
get_mem2Dint64:                         # @get_mem2Dint64
	.cfi_startproc
# %bb.0:                                # %rand_bb
	pushq	%rbp
	.cfi_def_cfa_offset 16
	.cfi_offset %rbp, -16
	movq	%rsp, %rbp
	.cfi_def_cfa_register %rbp
	pushq	%r15
	pushq	%r14
	pushq	%rbx
	pushq	%rax
	.cfi_offset %rbx, -40
	.cfi_offset %r14, -32
	.cfi_offset %r15, -24
	movl	%edx, %r14d
	movl	%esi, %r15d
	movq	%rdi, %rbx
	callq	get_rand
	cmpl	$0, %eax
	jne	.LBB9_17
# %bb.1:                                # %func_get_mem2Dint64.7
	movq	%rbx, %rdi
	movl	%r15d, %esi
	movl	%r14d, %edx
	callq	get_mem2Dint64.7
	addq	$8, %rsp
	popq	%rbx
	popq	%r14
	popq	%r15
	popq	%rbp
	.cfi_def_cfa %rsp, 8
	retq
.LBB9_2:                                # %func_get_mem2Dint64.9
	.cfi_def_cfa %rbp, 16
	movq	%rbx, %rdi
	movl	%r15d, %esi
	movl	%r14d, %edx
	callq	get_mem2Dint64.9
	addq	$8, %rsp
	popq	%rbx
	popq	%r14
	popq	%r15
	popq	%rbp
	.cfi_def_cfa %rsp, 8
	retq
.LBB9_3:                                # %func_get_mem2Dint64.38
	.cfi_def_cfa %rbp, 16
	movq	%rbx, %rdi
	movl	%r15d, %esi
	movl	%r14d, %edx
	callq	get_mem2Dint64.38
	addq	$8, %rsp
	popq	%rbx
	popq	%r14
	popq	%r15
	popq	%rbp
	.cfi_def_cfa %rsp, 8
	retq
.LBB9_4:                                # %func_get_mem2Dint64.43
	.cfi_def_cfa %rbp, 16
	movq	%rbx, %rdi
	movl	%r15d, %esi
	movl	%r14d, %edx
	callq	get_mem2Dint64.43
	addq	$8, %rsp
	popq	%rbx
	popq	%r14
	popq	%r15
	popq	%rbp
	.cfi_def_cfa %rsp, 8
	retq
.LBB9_5:                                # %func_get_mem2Dint64.49
	.cfi_def_cfa %rbp, 16
	movq	%rbx, %rdi
	movl	%r15d, %esi
	movl	%r14d, %edx
	callq	get_mem2Dint64.49
	addq	$8, %rsp
	popq	%rbx
	popq	%r14
	popq	%r15
	popq	%rbp
	.cfi_def_cfa %rsp, 8
	retq
.LBB9_6:                                # %func_get_mem2Dint64.103
	.cfi_def_cfa %rbp, 16
	movq	%rbx, %rdi
	movl	%r15d, %esi
	movl	%r14d, %edx
	callq	get_mem2Dint64.103
	addq	$8, %rsp
	popq	%rbx
	popq	%r14
	popq	%r15
	popq	%rbp
	.cfi_def_cfa %rsp, 8
	retq
.LBB9_7:                                # %func_get_mem2Dint64.126
	.cfi_def_cfa %rbp, 16
	movq	%rbx, %rdi
	movl	%r15d, %esi
	movl	%r14d, %edx
	callq	get_mem2Dint64.126
	addq	$8, %rsp
	popq	%rbx
	popq	%r14
	popq	%r15
	popq	%rbp
	.cfi_def_cfa %rsp, 8
	retq
.LBB9_8:                                # %func_get_mem2Dint64.134
	.cfi_def_cfa %rbp, 16
	movq	%rbx, %rdi
	movl	%r15d, %esi
	movl	%r14d, %edx
	callq	get_mem2Dint64.134
	addq	$8, %rsp
	popq	%rbx
	popq	%r14
	popq	%r15
	popq	%rbp
	.cfi_def_cfa %rsp, 8
	retq
.LBB9_9:                                # %func_get_mem2Dint64.137
	.cfi_def_cfa %rbp, 16
	movq	%rbx, %rdi
	movl	%r15d, %esi
	movl	%r14d, %edx
	callq	get_mem2Dint64.137
	addq	$8, %rsp
	popq	%rbx
	popq	%r14
	popq	%r15
	popq	%rbp
	.cfi_def_cfa %rsp, 8
	retq
.LBB9_10:                               # %func_get_mem2Dint64.146
	.cfi_def_cfa %rbp, 16
	movq	%rbx, %rdi
	movl	%r15d, %esi
	movl	%r14d, %edx
	callq	get_mem2Dint64.146
	addq	$8, %rsp
	popq	%rbx
	popq	%r14
	popq	%r15
	popq	%rbp
	.cfi_def_cfa %rsp, 8
	retq
.LBB9_11:                               # %func_get_mem2Dint64.150
	.cfi_def_cfa %rbp, 16
	movq	%rbx, %rdi
	movl	%r15d, %esi
	movl	%r14d, %edx
	callq	get_mem2Dint64.150
	addq	$8, %rsp
	popq	%rbx
	popq	%r14
	popq	%r15
	popq	%rbp
	.cfi_def_cfa %rsp, 8
	retq
.LBB9_12:                               # %func_get_mem2Dint64.173
	.cfi_def_cfa %rbp, 16
	movq	%rbx, %rdi
	movl	%r15d, %esi
	movl	%r14d, %edx
	callq	get_mem2Dint64.173
	addq	$8, %rsp
	popq	%rbx
	popq	%r14
	popq	%r15
	popq	%rbp
	.cfi_def_cfa %rsp, 8
	retq
.LBB9_13:                               # %func_get_mem2Dint64.196
	.cfi_def_cfa %rbp, 16
	movq	%rbx, %rdi
	movl	%r15d, %esi
	movl	%r14d, %edx
	callq	get_mem2Dint64.196
	addq	$8, %rsp
	popq	%rbx
	popq	%r14
	popq	%r15
	popq	%rbp
	.cfi_def_cfa %rsp, 8
	retq
.LBB9_14:                               # %func_get_mem2Dint64.204
	.cfi_def_cfa %rbp, 16
	movq	%rbx, %rdi
	movl	%r15d, %esi
	movl	%r14d, %edx
	callq	get_mem2Dint64.204
	addq	$8, %rsp
	popq	%rbx
	popq	%r14
	popq	%r15
	popq	%rbp
	.cfi_def_cfa %rsp, 8
	retq
.LBB9_15:                               # %func_get_mem2Dint64.225
	.cfi_def_cfa %rbp, 16
	movq	%rbx, %rdi
	movl	%r15d, %esi
	movl	%r14d, %edx
	callq	get_mem2Dint64.225
	addq	$8, %rsp
	popq	%rbx
	popq	%r14
	popq	%r15
	popq	%rbp
	.cfi_def_cfa %rsp, 8
	retq
.LBB9_16:                               # %func_get_mem2Dint64.229
	.cfi_def_cfa %rbp, 16
	movq	%rbx, %rdi
	movl	%r15d, %esi
	movl	%r14d, %edx
	callq	get_mem2Dint64.229
	addq	$8, %rsp
	popq	%rbx
	popq	%r14
	popq	%r15
	popq	%rbp
	.cfi_def_cfa %rsp, 8
	retq
.LBB9_17:                               # %ctrl0
	.cfi_def_cfa %rbp, 16
	cmpl	$1, %eax
	je	.LBB9_2
# %bb.18:                               # %ctrl1
	cmpl	$2, %eax
	je	.LBB9_3
# %bb.19:                               # %ctrl2
	cmpl	$3, %eax
	je	.LBB9_4
# %bb.20:                               # %ctrl3
	cmpl	$4, %eax
	je	.LBB9_5
# %bb.21:                               # %ctrl4
	cmpl	$5, %eax
	je	.LBB9_6
# %bb.22:                               # %ctrl5
	cmpl	$6, %eax
	je	.LBB9_7
# %bb.23:                               # %ctrl6
	cmpl	$7, %eax
	je	.LBB9_8
# %bb.24:                               # %ctrl7
	cmpl	$8, %eax
	je	.LBB9_9
# %bb.25:                               # %ctrl8
	cmpl	$9, %eax
	je	.LBB9_10
# %bb.26:                               # %ctrl9
	cmpl	$10, %eax
	je	.LBB9_11
# %bb.27:                               # %ctrl10
	cmpl	$11, %eax
	je	.LBB9_12
# %bb.28:                               # %ctrl11
	cmpl	$12, %eax
	je	.LBB9_13
# %bb.29:                               # %ctrl12
	cmpl	$13, %eax
	je	.LBB9_14
# %bb.30:                               # %ctrl13
	cmpl	$14, %eax
	je	.LBB9_15
	jmp	.LBB9_16
.Lfunc_end9:
	.size	get_mem2Dint64, .Lfunc_end9-get_mem2Dint64
	.cfi_endproc
                                        # -- End function
	.globl	get_mem3D               # -- Begin function get_mem3D
	.p2align	4, 0x90
	.type	get_mem3D,@function
get_mem3D:                              # @get_mem3D
	.cfi_startproc
# %bb.0:                                # %rand_bb
	pushq	%rbp
	.cfi_def_cfa_offset 16
	.cfi_offset %rbp, -16
	movq	%rsp, %rbp
	.cfi_def_cfa_register %rbp
	pushq	%r15
	pushq	%r14
	pushq	%r12
	pushq	%rbx
	.cfi_offset %rbx, -48
	.cfi_offset %r12, -40
	.cfi_offset %r14, -32
	.cfi_offset %r15, -24
	movl	%ecx, %r14d
	movl	%edx, %r15d
	movl	%esi, %r12d
	movq	%rdi, %rbx
	callq	get_rand
	cmpl	$0, %eax
	jne	.LBB10_17
# %bb.1:                                # %func_get_mem3D.1
	movq	%rbx, %rdi
	movl	%r12d, %esi
	movl	%r15d, %edx
	movl	%r14d, %ecx
	callq	get_mem3D.1
	popq	%rbx
	popq	%r12
	popq	%r14
	popq	%r15
	popq	%rbp
	.cfi_def_cfa %rsp, 8
	retq
.LBB10_2:                               # %func_get_mem3D.3
	.cfi_def_cfa %rbp, 16
	movq	%rbx, %rdi
	movl	%r12d, %esi
	movl	%r15d, %edx
	movl	%r14d, %ecx
	callq	get_mem3D.3
	popq	%rbx
	popq	%r12
	popq	%r14
	popq	%r15
	popq	%rbp
	.cfi_def_cfa %rsp, 8
	retq
.LBB10_3:                               # %func_get_mem3D.22
	.cfi_def_cfa %rbp, 16
	movq	%rbx, %rdi
	movl	%r12d, %esi
	movl	%r15d, %edx
	movl	%r14d, %ecx
	callq	get_mem3D.22
	popq	%rbx
	popq	%r12
	popq	%r14
	popq	%r15
	popq	%rbp
	.cfi_def_cfa %rsp, 8
	retq
.LBB10_4:                               # %func_get_mem3D.23
	.cfi_def_cfa %rbp, 16
	movq	%rbx, %rdi
	movl	%r12d, %esi
	movl	%r15d, %edx
	movl	%r14d, %ecx
	callq	get_mem3D.23
	popq	%rbx
	popq	%r12
	popq	%r14
	popq	%r15
	popq	%rbp
	.cfi_def_cfa %rsp, 8
	retq
.LBB10_5:                               # %func_get_mem3D.24
	.cfi_def_cfa %rbp, 16
	movq	%rbx, %rdi
	movl	%r12d, %esi
	movl	%r15d, %edx
	movl	%r14d, %ecx
	callq	get_mem3D.24
	popq	%rbx
	popq	%r12
	popq	%r14
	popq	%r15
	popq	%rbp
	.cfi_def_cfa %rsp, 8
	retq
.LBB10_6:                               # %func_get_mem3D.28
	.cfi_def_cfa %rbp, 16
	movq	%rbx, %rdi
	movl	%r12d, %esi
	movl	%r15d, %edx
	movl	%r14d, %ecx
	callq	get_mem3D.28
	popq	%rbx
	popq	%r12
	popq	%r14
	popq	%r15
	popq	%rbp
	.cfi_def_cfa %rsp, 8
	retq
.LBB10_7:                               # %func_get_mem3D.37
	.cfi_def_cfa %rbp, 16
	movq	%rbx, %rdi
	movl	%r12d, %esi
	movl	%r15d, %edx
	movl	%r14d, %ecx
	callq	get_mem3D.37
	popq	%rbx
	popq	%r12
	popq	%r14
	popq	%r15
	popq	%rbp
	.cfi_def_cfa %rsp, 8
	retq
.LBB10_8:                               # %func_get_mem3D.65
	.cfi_def_cfa %rbp, 16
	movq	%rbx, %rdi
	movl	%r12d, %esi
	movl	%r15d, %edx
	movl	%r14d, %ecx
	callq	get_mem3D.65
	popq	%rbx
	popq	%r12
	popq	%r14
	popq	%r15
	popq	%rbp
	.cfi_def_cfa %rsp, 8
	retq
.LBB10_9:                               # %func_get_mem3D.70
	.cfi_def_cfa %rbp, 16
	movq	%rbx, %rdi
	movl	%r12d, %esi
	movl	%r15d, %edx
	movl	%r14d, %ecx
	callq	get_mem3D.70
	popq	%rbx
	popq	%r12
	popq	%r14
	popq	%r15
	popq	%rbp
	.cfi_def_cfa %rsp, 8
	retq
.LBB10_10:                              # %func_get_mem3D.117
	.cfi_def_cfa %rbp, 16
	movq	%rbx, %rdi
	movl	%r12d, %esi
	movl	%r15d, %edx
	movl	%r14d, %ecx
	callq	get_mem3D.117
	popq	%rbx
	popq	%r12
	popq	%r14
	popq	%r15
	popq	%rbp
	.cfi_def_cfa %rsp, 8
	retq
.LBB10_11:                              # %func_get_mem3D.118
	.cfi_def_cfa %rbp, 16
	movq	%rbx, %rdi
	movl	%r12d, %esi
	movl	%r15d, %edx
	movl	%r14d, %ecx
	callq	get_mem3D.118
	popq	%rbx
	popq	%r12
	popq	%r14
	popq	%r15
	popq	%rbp
	.cfi_def_cfa %rsp, 8
	retq
.LBB10_12:                              # %func_get_mem3D.135
	.cfi_def_cfa %rbp, 16
	movq	%rbx, %rdi
	movl	%r12d, %esi
	movl	%r15d, %edx
	movl	%r14d, %ecx
	callq	get_mem3D.135
	popq	%rbx
	popq	%r12
	popq	%r14
	popq	%r15
	popq	%rbp
	.cfi_def_cfa %rsp, 8
	retq
.LBB10_13:                              # %func_get_mem3D.158
	.cfi_def_cfa %rbp, 16
	movq	%rbx, %rdi
	movl	%r12d, %esi
	movl	%r15d, %edx
	movl	%r14d, %ecx
	callq	get_mem3D.158
	popq	%rbx
	popq	%r12
	popq	%r14
	popq	%r15
	popq	%rbp
	.cfi_def_cfa %rsp, 8
	retq
.LBB10_14:                              # %func_get_mem3D.199
	.cfi_def_cfa %rbp, 16
	movq	%rbx, %rdi
	movl	%r12d, %esi
	movl	%r15d, %edx
	movl	%r14d, %ecx
	callq	get_mem3D.199
	popq	%rbx
	popq	%r12
	popq	%r14
	popq	%r15
	popq	%rbp
	.cfi_def_cfa %rsp, 8
	retq
.LBB10_15:                              # %func_get_mem3D.200
	.cfi_def_cfa %rbp, 16
	movq	%rbx, %rdi
	movl	%r12d, %esi
	movl	%r15d, %edx
	movl	%r14d, %ecx
	callq	get_mem3D.200
	popq	%rbx
	popq	%r12
	popq	%r14
	popq	%r15
	popq	%rbp
	.cfi_def_cfa %rsp, 8
	retq
.LBB10_16:                              # %func_get_mem3D.217
	.cfi_def_cfa %rbp, 16
	movq	%rbx, %rdi
	movl	%r12d, %esi
	movl	%r15d, %edx
	movl	%r14d, %ecx
	callq	get_mem3D.217
	popq	%rbx
	popq	%r12
	popq	%r14
	popq	%r15
	popq	%rbp
	.cfi_def_cfa %rsp, 8
	retq
.LBB10_17:                              # %ctrl0
	.cfi_def_cfa %rbp, 16
	cmpl	$1, %eax
	je	.LBB10_2
# %bb.18:                               # %ctrl1
	cmpl	$2, %eax
	je	.LBB10_3
# %bb.19:                               # %ctrl2
	cmpl	$3, %eax
	je	.LBB10_4
# %bb.20:                               # %ctrl3
	cmpl	$4, %eax
	je	.LBB10_5
# %bb.21:                               # %ctrl4
	cmpl	$5, %eax
	je	.LBB10_6
# %bb.22:                               # %ctrl5
	cmpl	$6, %eax
	je	.LBB10_7
# %bb.23:                               # %ctrl6
	cmpl	$7, %eax
	je	.LBB10_8
# %bb.24:                               # %ctrl7
	cmpl	$8, %eax
	je	.LBB10_9
# %bb.25:                               # %ctrl8
	cmpl	$9, %eax
	je	.LBB10_10
# %bb.26:                               # %ctrl9
	cmpl	$10, %eax
	je	.LBB10_11
# %bb.27:                               # %ctrl10
	cmpl	$11, %eax
	je	.LBB10_12
# %bb.28:                               # %ctrl11
	cmpl	$12, %eax
	je	.LBB10_13
# %bb.29:                               # %ctrl12
	cmpl	$13, %eax
	je	.LBB10_14
# %bb.30:                               # %ctrl13
	cmpl	$14, %eax
	je	.LBB10_15
	jmp	.LBB10_16
.Lfunc_end10:
	.size	get_mem3D, .Lfunc_end10-get_mem3D
	.cfi_endproc
                                        # -- End function
	.globl	get_mem3Dint            # -- Begin function get_mem3Dint
	.p2align	4, 0x90
	.type	get_mem3Dint,@function
get_mem3Dint:                           # @get_mem3Dint
	.cfi_startproc
# %bb.0:                                # %rand_bb
	pushq	%rbp
	.cfi_def_cfa_offset 16
	.cfi_offset %rbp, -16
	movq	%rsp, %rbp
	.cfi_def_cfa_register %rbp
	pushq	%r15
	pushq	%r14
	pushq	%r12
	pushq	%rbx
	.cfi_offset %rbx, -48
	.cfi_offset %r12, -40
	.cfi_offset %r14, -32
	.cfi_offset %r15, -24
	movl	%ecx, %r14d
	movl	%edx, %r15d
	movl	%esi, %r12d
	movq	%rdi, %rbx
	callq	get_rand
	cmpl	$0, %eax
	jne	.LBB11_17
# %bb.1:                                # %func_get_mem3Dint.21
	movq	%rbx, %rdi
	movl	%r12d, %esi
	movl	%r15d, %edx
	movl	%r14d, %ecx
	callq	get_mem3Dint.21
	popq	%rbx
	popq	%r12
	popq	%r14
	popq	%r15
	popq	%rbp
	.cfi_def_cfa %rsp, 8
	retq
.LBB11_2:                               # %func_get_mem3Dint.26
	.cfi_def_cfa %rbp, 16
	movq	%rbx, %rdi
	movl	%r12d, %esi
	movl	%r15d, %edx
	movl	%r14d, %ecx
	callq	get_mem3Dint.26
	popq	%rbx
	popq	%r12
	popq	%r14
	popq	%r15
	popq	%rbp
	.cfi_def_cfa %rsp, 8
	retq
.LBB11_3:                               # %func_get_mem3Dint.50
	.cfi_def_cfa %rbp, 16
	movq	%rbx, %rdi
	movl	%r12d, %esi
	movl	%r15d, %edx
	movl	%r14d, %ecx
	callq	get_mem3Dint.50
	popq	%rbx
	popq	%r12
	popq	%r14
	popq	%r15
	popq	%rbp
	.cfi_def_cfa %rsp, 8
	retq
.LBB11_4:                               # %func_get_mem3Dint.55
	.cfi_def_cfa %rbp, 16
	movq	%rbx, %rdi
	movl	%r12d, %esi
	movl	%r15d, %edx
	movl	%r14d, %ecx
	callq	get_mem3Dint.55
	popq	%rbx
	popq	%r12
	popq	%r14
	popq	%r15
	popq	%rbp
	.cfi_def_cfa %rsp, 8
	retq
.LBB11_5:                               # %func_get_mem3Dint.78
	.cfi_def_cfa %rbp, 16
	movq	%rbx, %rdi
	movl	%r12d, %esi
	movl	%r15d, %edx
	movl	%r14d, %ecx
	callq	get_mem3Dint.78
	popq	%rbx
	popq	%r12
	popq	%r14
	popq	%r15
	popq	%rbp
	.cfi_def_cfa %rsp, 8
	retq
.LBB11_6:                               # %func_get_mem3Dint.94
	.cfi_def_cfa %rbp, 16
	movq	%rbx, %rdi
	movl	%r12d, %esi
	movl	%r15d, %edx
	movl	%r14d, %ecx
	callq	get_mem3Dint.94
	popq	%rbx
	popq	%r12
	popq	%r14
	popq	%r15
	popq	%rbp
	.cfi_def_cfa %rsp, 8
	retq
.LBB11_7:                               # %func_get_mem3Dint.98
	.cfi_def_cfa %rbp, 16
	movq	%rbx, %rdi
	movl	%r12d, %esi
	movl	%r15d, %edx
	movl	%r14d, %ecx
	callq	get_mem3Dint.98
	popq	%rbx
	popq	%r12
	popq	%r14
	popq	%r15
	popq	%rbp
	.cfi_def_cfa %rsp, 8
	retq
.LBB11_8:                               # %func_get_mem3Dint.120
	.cfi_def_cfa %rbp, 16
	movq	%rbx, %rdi
	movl	%r12d, %esi
	movl	%r15d, %edx
	movl	%r14d, %ecx
	callq	get_mem3Dint.120
	popq	%rbx
	popq	%r12
	popq	%r14
	popq	%r15
	popq	%rbp
	.cfi_def_cfa %rsp, 8
	retq
.LBB11_9:                               # %func_get_mem3Dint.129
	.cfi_def_cfa %rbp, 16
	movq	%rbx, %rdi
	movl	%r12d, %esi
	movl	%r15d, %edx
	movl	%r14d, %ecx
	callq	get_mem3Dint.129
	popq	%rbx
	popq	%r12
	popq	%r14
	popq	%r15
	popq	%rbp
	.cfi_def_cfa %rsp, 8
	retq
.LBB11_10:                              # %func_get_mem3Dint.144
	.cfi_def_cfa %rbp, 16
	movq	%rbx, %rdi
	movl	%r12d, %esi
	movl	%r15d, %edx
	movl	%r14d, %ecx
	callq	get_mem3Dint.144
	popq	%rbx
	popq	%r12
	popq	%r14
	popq	%r15
	popq	%rbp
	.cfi_def_cfa %rsp, 8
	retq
.LBB11_11:                              # %func_get_mem3Dint.191
	.cfi_def_cfa %rbp, 16
	movq	%rbx, %rdi
	movl	%r12d, %esi
	movl	%r15d, %edx
	movl	%r14d, %ecx
	callq	get_mem3Dint.191
	popq	%rbx
	popq	%r12
	popq	%r14
	popq	%r15
	popq	%rbp
	.cfi_def_cfa %rsp, 8
	retq
.LBB11_12:                              # %func_get_mem3Dint.198
	.cfi_def_cfa %rbp, 16
	movq	%rbx, %rdi
	movl	%r12d, %esi
	movl	%r15d, %edx
	movl	%r14d, %ecx
	callq	get_mem3Dint.198
	popq	%rbx
	popq	%r12
	popq	%r14
	popq	%r15
	popq	%rbp
	.cfi_def_cfa %rsp, 8
	retq
.LBB11_13:                              # %func_get_mem3Dint.201
	.cfi_def_cfa %rbp, 16
	movq	%rbx, %rdi
	movl	%r12d, %esi
	movl	%r15d, %edx
	movl	%r14d, %ecx
	callq	get_mem3Dint.201
	popq	%rbx
	popq	%r12
	popq	%r14
	popq	%r15
	popq	%rbp
	.cfi_def_cfa %rsp, 8
	retq
.LBB11_14:                              # %func_get_mem3Dint.214
	.cfi_def_cfa %rbp, 16
	movq	%rbx, %rdi
	movl	%r12d, %esi
	movl	%r15d, %edx
	movl	%r14d, %ecx
	callq	get_mem3Dint.214
	popq	%rbx
	popq	%r12
	popq	%r14
	popq	%r15
	popq	%rbp
	.cfi_def_cfa %rsp, 8
	retq
.LBB11_15:                              # %func_get_mem3Dint.228
	.cfi_def_cfa %rbp, 16
	movq	%rbx, %rdi
	movl	%r12d, %esi
	movl	%r15d, %edx
	movl	%r14d, %ecx
	callq	get_mem3Dint.228
	popq	%rbx
	popq	%r12
	popq	%r14
	popq	%r15
	popq	%rbp
	.cfi_def_cfa %rsp, 8
	retq
.LBB11_16:                              # %func_get_mem3Dint.233
	.cfi_def_cfa %rbp, 16
	movq	%rbx, %rdi
	movl	%r12d, %esi
	movl	%r15d, %edx
	movl	%r14d, %ecx
	callq	get_mem3Dint.233
	popq	%rbx
	popq	%r12
	popq	%r14
	popq	%r15
	popq	%rbp
	.cfi_def_cfa %rsp, 8
	retq
.LBB11_17:                              # %ctrl0
	.cfi_def_cfa %rbp, 16
	cmpl	$1, %eax
	je	.LBB11_2
# %bb.18:                               # %ctrl1
	cmpl	$2, %eax
	je	.LBB11_3
# %bb.19:                               # %ctrl2
	cmpl	$3, %eax
	je	.LBB11_4
# %bb.20:                               # %ctrl3
	cmpl	$4, %eax
	je	.LBB11_5
# %bb.21:                               # %ctrl4
	cmpl	$5, %eax
	je	.LBB11_6
# %bb.22:                               # %ctrl5
	cmpl	$6, %eax
	je	.LBB11_7
# %bb.23:                               # %ctrl6
	cmpl	$7, %eax
	je	.LBB11_8
# %bb.24:                               # %ctrl7
	cmpl	$8, %eax
	je	.LBB11_9
# %bb.25:                               # %ctrl8
	cmpl	$9, %eax
	je	.LBB11_10
# %bb.26:                               # %ctrl9
	cmpl	$10, %eax
	je	.LBB11_11
# %bb.27:                               # %ctrl10
	cmpl	$11, %eax
	je	.LBB11_12
# %bb.28:                               # %ctrl11
	cmpl	$12, %eax
	je	.LBB11_13
# %bb.29:                               # %ctrl12
	cmpl	$13, %eax
	je	.LBB11_14
# %bb.30:                               # %ctrl13
	cmpl	$14, %eax
	je	.LBB11_15
	jmp	.LBB11_16
.Lfunc_end11:
	.size	get_mem3Dint, .Lfunc_end11-get_mem3Dint
	.cfi_endproc
                                        # -- End function
	.globl	get_mem3Dint64          # -- Begin function get_mem3Dint64
	.p2align	4, 0x90
	.type	get_mem3Dint64,@function
get_mem3Dint64:                         # @get_mem3Dint64
	.cfi_startproc
# %bb.0:                                # %rand_bb
	pushq	%rbp
	.cfi_def_cfa_offset 16
	.cfi_offset %rbp, -16
	movq	%rsp, %rbp
	.cfi_def_cfa_register %rbp
	pushq	%r15
	pushq	%r14
	pushq	%r12
	pushq	%rbx
	.cfi_offset %rbx, -48
	.cfi_offset %r12, -40
	.cfi_offset %r14, -32
	.cfi_offset %r15, -24
	movl	%ecx, %r14d
	movl	%edx, %r15d
	movl	%esi, %r12d
	movq	%rdi, %rbx
	callq	get_rand
	cmpl	$0, %eax
	jne	.LBB12_17
# %bb.1:                                # %func_get_mem3Dint64.4
	movq	%rbx, %rdi
	movl	%r12d, %esi
	movl	%r15d, %edx
	movl	%r14d, %ecx
	callq	get_mem3Dint64.4
	popq	%rbx
	popq	%r12
	popq	%r14
	popq	%r15
	popq	%rbp
	.cfi_def_cfa %rsp, 8
	retq
.LBB12_2:                               # %func_get_mem3Dint64.13
	.cfi_def_cfa %rbp, 16
	movq	%rbx, %rdi
	movl	%r12d, %esi
	movl	%r15d, %edx
	movl	%r14d, %ecx
	callq	get_mem3Dint64.13
	popq	%rbx
	popq	%r12
	popq	%r14
	popq	%r15
	popq	%rbp
	.cfi_def_cfa %rsp, 8
	retq
.LBB12_3:                               # %func_get_mem3Dint64.36
	.cfi_def_cfa %rbp, 16
	movq	%rbx, %rdi
	movl	%r12d, %esi
	movl	%r15d, %edx
	movl	%r14d, %ecx
	callq	get_mem3Dint64.36
	popq	%rbx
	popq	%r12
	popq	%r14
	popq	%r15
	popq	%rbp
	.cfi_def_cfa %rsp, 8
	retq
.LBB12_4:                               # %func_get_mem3Dint64.41
	.cfi_def_cfa %rbp, 16
	movq	%rbx, %rdi
	movl	%r12d, %esi
	movl	%r15d, %edx
	movl	%r14d, %ecx
	callq	get_mem3Dint64.41
	popq	%rbx
	popq	%r12
	popq	%r14
	popq	%r15
	popq	%rbp
	.cfi_def_cfa %rsp, 8
	retq
.LBB12_5:                               # %func_get_mem3Dint64.72
	.cfi_def_cfa %rbp, 16
	movq	%rbx, %rdi
	movl	%r12d, %esi
	movl	%r15d, %edx
	movl	%r14d, %ecx
	callq	get_mem3Dint64.72
	popq	%rbx
	popq	%r12
	popq	%r14
	popq	%r15
	popq	%rbp
	.cfi_def_cfa %rsp, 8
	retq
.LBB12_6:                               # %func_get_mem3Dint64.101
	.cfi_def_cfa %rbp, 16
	movq	%rbx, %rdi
	movl	%r12d, %esi
	movl	%r15d, %edx
	movl	%r14d, %ecx
	callq	get_mem3Dint64.101
	popq	%rbx
	popq	%r12
	popq	%r14
	popq	%r15
	popq	%rbp
	.cfi_def_cfa %rsp, 8
	retq
.LBB12_7:                               # %func_get_mem3Dint64.122
	.cfi_def_cfa %rbp, 16
	movq	%rbx, %rdi
	movl	%r12d, %esi
	movl	%r15d, %edx
	movl	%r14d, %ecx
	callq	get_mem3Dint64.122
	popq	%rbx
	popq	%r12
	popq	%r14
	popq	%r15
	popq	%rbp
	.cfi_def_cfa %rsp, 8
	retq
.LBB12_8:                               # %func_get_mem3Dint64.167
	.cfi_def_cfa %rbp, 16
	movq	%rbx, %rdi
	movl	%r12d, %esi
	movl	%r15d, %edx
	movl	%r14d, %ecx
	callq	get_mem3Dint64.167
	popq	%rbx
	popq	%r12
	popq	%r14
	popq	%r15
	popq	%rbp
	.cfi_def_cfa %rsp, 8
	retq
.LBB12_9:                               # %func_get_mem3Dint64.172
	.cfi_def_cfa %rbp, 16
	movq	%rbx, %rdi
	movl	%r12d, %esi
	movl	%r15d, %edx
	movl	%r14d, %ecx
	callq	get_mem3Dint64.172
	popq	%rbx
	popq	%r12
	popq	%r14
	popq	%r15
	popq	%rbp
	.cfi_def_cfa %rsp, 8
	retq
.LBB12_10:                              # %func_get_mem3Dint64.209
	.cfi_def_cfa %rbp, 16
	movq	%rbx, %rdi
	movl	%r12d, %esi
	movl	%r15d, %edx
	movl	%r14d, %ecx
	callq	get_mem3Dint64.209
	popq	%rbx
	popq	%r12
	popq	%r14
	popq	%r15
	popq	%rbp
	.cfi_def_cfa %rsp, 8
	retq
.LBB12_11:                              # %func_get_mem3Dint64.227
	.cfi_def_cfa %rbp, 16
	movq	%rbx, %rdi
	movl	%r12d, %esi
	movl	%r15d, %edx
	movl	%r14d, %ecx
	callq	get_mem3Dint64.227
	popq	%rbx
	popq	%r12
	popq	%r14
	popq	%r15
	popq	%rbp
	.cfi_def_cfa %rsp, 8
	retq
.LBB12_12:                              # %func_get_mem3Dint64.234
	.cfi_def_cfa %rbp, 16
	movq	%rbx, %rdi
	movl	%r12d, %esi
	movl	%r15d, %edx
	movl	%r14d, %ecx
	callq	get_mem3Dint64.234
	popq	%rbx
	popq	%r12
	popq	%r14
	popq	%r15
	popq	%rbp
	.cfi_def_cfa %rsp, 8
	retq
.LBB12_13:                              # %func_get_mem3Dint64.237
	.cfi_def_cfa %rbp, 16
	movq	%rbx, %rdi
	movl	%r12d, %esi
	movl	%r15d, %edx
	movl	%r14d, %ecx
	callq	get_mem3Dint64.237
	popq	%rbx
	popq	%r12
	popq	%r14
	popq	%r15
	popq	%rbp
	.cfi_def_cfa %rsp, 8
	retq
.LBB12_14:                              # %func_get_mem3Dint64.251
	.cfi_def_cfa %rbp, 16
	movq	%rbx, %rdi
	movl	%r12d, %esi
	movl	%r15d, %edx
	movl	%r14d, %ecx
	callq	get_mem3Dint64.251
	popq	%rbx
	popq	%r12
	popq	%r14
	popq	%r15
	popq	%rbp
	.cfi_def_cfa %rsp, 8
	retq
.LBB12_15:                              # %func_get_mem3Dint64.263
	.cfi_def_cfa %rbp, 16
	movq	%rbx, %rdi
	movl	%r12d, %esi
	movl	%r15d, %edx
	movl	%r14d, %ecx
	callq	get_mem3Dint64.263
	popq	%rbx
	popq	%r12
	popq	%r14
	popq	%r15
	popq	%rbp
	.cfi_def_cfa %rsp, 8
	retq
.LBB12_16:                              # %func_get_mem3Dint64.265
	.cfi_def_cfa %rbp, 16
	movq	%rbx, %rdi
	movl	%r12d, %esi
	movl	%r15d, %edx
	movl	%r14d, %ecx
	callq	get_mem3Dint64.265
	popq	%rbx
	popq	%r12
	popq	%r14
	popq	%r15
	popq	%rbp
	.cfi_def_cfa %rsp, 8
	retq
.LBB12_17:                              # %ctrl0
	.cfi_def_cfa %rbp, 16
	cmpl	$1, %eax
	je	.LBB12_2
# %bb.18:                               # %ctrl1
	cmpl	$2, %eax
	je	.LBB12_3
# %bb.19:                               # %ctrl2
	cmpl	$3, %eax
	je	.LBB12_4
# %bb.20:                               # %ctrl3
	cmpl	$4, %eax
	je	.LBB12_5
# %bb.21:                               # %ctrl4
	cmpl	$5, %eax
	je	.LBB12_6
# %bb.22:                               # %ctrl5
	cmpl	$6, %eax
	je	.LBB12_7
# %bb.23:                               # %ctrl6
	cmpl	$7, %eax
	je	.LBB12_8
# %bb.24:                               # %ctrl7
	cmpl	$8, %eax
	je	.LBB12_9
# %bb.25:                               # %ctrl8
	cmpl	$9, %eax
	je	.LBB12_10
# %bb.26:                               # %ctrl9
	cmpl	$10, %eax
	je	.LBB12_11
# %bb.27:                               # %ctrl10
	cmpl	$11, %eax
	je	.LBB12_12
# %bb.28:                               # %ctrl11
	cmpl	$12, %eax
	je	.LBB12_13
# %bb.29:                               # %ctrl12
	cmpl	$13, %eax
	je	.LBB12_14
# %bb.30:                               # %ctrl13
	cmpl	$14, %eax
	je	.LBB12_15
	jmp	.LBB12_16
.Lfunc_end12:
	.size	get_mem3Dint64, .Lfunc_end12-get_mem3Dint64
	.cfi_endproc
                                        # -- End function
	.globl	get_mem4Dint            # -- Begin function get_mem4Dint
	.p2align	4, 0x90
	.type	get_mem4Dint,@function
get_mem4Dint:                           # @get_mem4Dint
	.cfi_startproc
# %bb.0:                                # %rand_bb
	pushq	%rbp
	.cfi_def_cfa_offset 16
	.cfi_offset %rbp, -16
	movq	%rsp, %rbp
	.cfi_def_cfa_register %rbp
	pushq	%r15
	pushq	%r14
	pushq	%r13
	pushq	%r12
	pushq	%rbx
	pushq	%rax
	.cfi_offset %rbx, -56
	.cfi_offset %r12, -48
	.cfi_offset %r13, -40
	.cfi_offset %r14, -32
	.cfi_offset %r15, -24
	movl	%r8d, %r14d
	movl	%ecx, %r15d
	movl	%edx, %r12d
	movl	%esi, %r13d
	movq	%rdi, %rbx
	callq	get_rand
	cmpl	$0, %eax
	jne	.LBB13_17
# %bb.1:                                # %func_get_mem4Dint.46
	movq	%rbx, %rdi
	movl	%r13d, %esi
	movl	%r12d, %edx
	movl	%r15d, %ecx
	movl	%r14d, %r8d
	callq	get_mem4Dint.46
	addq	$8, %rsp
	popq	%rbx
	popq	%r12
	popq	%r13
	popq	%r14
	popq	%r15
	popq	%rbp
	.cfi_def_cfa %rsp, 8
	retq
.LBB13_2:                               # %func_get_mem4Dint.56
	.cfi_def_cfa %rbp, 16
	movq	%rbx, %rdi
	movl	%r13d, %esi
	movl	%r12d, %edx
	movl	%r15d, %ecx
	movl	%r14d, %r8d
	callq	get_mem4Dint.56
	addq	$8, %rsp
	popq	%rbx
	popq	%r12
	popq	%r13
	popq	%r14
	popq	%r15
	popq	%rbp
	.cfi_def_cfa %rsp, 8
	retq
.LBB13_3:                               # %func_get_mem4Dint.60
	.cfi_def_cfa %rbp, 16
	movq	%rbx, %rdi
	movl	%r13d, %esi
	movl	%r12d, %edx
	movl	%r15d, %ecx
	movl	%r14d, %r8d
	callq	get_mem4Dint.60
	addq	$8, %rsp
	popq	%rbx
	popq	%r12
	popq	%r13
	popq	%r14
	popq	%r15
	popq	%rbp
	.cfi_def_cfa %rsp, 8
	retq
.LBB13_4:                               # %func_get_mem4Dint.69
	.cfi_def_cfa %rbp, 16
	movq	%rbx, %rdi
	movl	%r13d, %esi
	movl	%r12d, %edx
	movl	%r15d, %ecx
	movl	%r14d, %r8d
	callq	get_mem4Dint.69
	addq	$8, %rsp
	popq	%rbx
	popq	%r12
	popq	%r13
	popq	%r14
	popq	%r15
	popq	%rbp
	.cfi_def_cfa %rsp, 8
	retq
.LBB13_5:                               # %func_get_mem4Dint.79
	.cfi_def_cfa %rbp, 16
	movq	%rbx, %rdi
	movl	%r13d, %esi
	movl	%r12d, %edx
	movl	%r15d, %ecx
	movl	%r14d, %r8d
	callq	get_mem4Dint.79
	addq	$8, %rsp
	popq	%rbx
	popq	%r12
	popq	%r13
	popq	%r14
	popq	%r15
	popq	%rbp
	.cfi_def_cfa %rsp, 8
	retq
.LBB13_6:                               # %func_get_mem4Dint.92
	.cfi_def_cfa %rbp, 16
	movq	%rbx, %rdi
	movl	%r13d, %esi
	movl	%r12d, %edx
	movl	%r15d, %ecx
	movl	%r14d, %r8d
	callq	get_mem4Dint.92
	addq	$8, %rsp
	popq	%rbx
	popq	%r12
	popq	%r13
	popq	%r14
	popq	%r15
	popq	%rbp
	.cfi_def_cfa %rsp, 8
	retq
.LBB13_7:                               # %func_get_mem4Dint.105
	.cfi_def_cfa %rbp, 16
	movq	%rbx, %rdi
	movl	%r13d, %esi
	movl	%r12d, %edx
	movl	%r15d, %ecx
	movl	%r14d, %r8d
	callq	get_mem4Dint.105
	addq	$8, %rsp
	popq	%rbx
	popq	%r12
	popq	%r13
	popq	%r14
	popq	%r15
	popq	%rbp
	.cfi_def_cfa %rsp, 8
	retq
.LBB13_8:                               # %func_get_mem4Dint.153
	.cfi_def_cfa %rbp, 16
	movq	%rbx, %rdi
	movl	%r13d, %esi
	movl	%r12d, %edx
	movl	%r15d, %ecx
	movl	%r14d, %r8d
	callq	get_mem4Dint.153
	addq	$8, %rsp
	popq	%rbx
	popq	%r12
	popq	%r13
	popq	%r14
	popq	%r15
	popq	%rbp
	.cfi_def_cfa %rsp, 8
	retq
.LBB13_9:                               # %func_get_mem4Dint.155
	.cfi_def_cfa %rbp, 16
	movq	%rbx, %rdi
	movl	%r13d, %esi
	movl	%r12d, %edx
	movl	%r15d, %ecx
	movl	%r14d, %r8d
	callq	get_mem4Dint.155
	addq	$8, %rsp
	popq	%rbx
	popq	%r12
	popq	%r13
	popq	%r14
	popq	%r15
	popq	%rbp
	.cfi_def_cfa %rsp, 8
	retq
.LBB13_10:                              # %func_get_mem4Dint.168
	.cfi_def_cfa %rbp, 16
	movq	%rbx, %rdi
	movl	%r13d, %esi
	movl	%r12d, %edx
	movl	%r15d, %ecx
	movl	%r14d, %r8d
	callq	get_mem4Dint.168
	addq	$8, %rsp
	popq	%rbx
	popq	%r12
	popq	%r13
	popq	%r14
	popq	%r15
	popq	%rbp
	.cfi_def_cfa %rsp, 8
	retq
.LBB13_11:                              # %func_get_mem4Dint.177
	.cfi_def_cfa %rbp, 16
	movq	%rbx, %rdi
	movl	%r13d, %esi
	movl	%r12d, %edx
	movl	%r15d, %ecx
	movl	%r14d, %r8d
	callq	get_mem4Dint.177
	addq	$8, %rsp
	popq	%rbx
	popq	%r12
	popq	%r13
	popq	%r14
	popq	%r15
	popq	%rbp
	.cfi_def_cfa %rsp, 8
	retq
.LBB13_12:                              # %func_get_mem4Dint.197
	.cfi_def_cfa %rbp, 16
	movq	%rbx, %rdi
	movl	%r13d, %esi
	movl	%r12d, %edx
	movl	%r15d, %ecx
	movl	%r14d, %r8d
	callq	get_mem4Dint.197
	addq	$8, %rsp
	popq	%rbx
	popq	%r12
	popq	%r13
	popq	%r14
	popq	%r15
	popq	%rbp
	.cfi_def_cfa %rsp, 8
	retq
.LBB13_13:                              # %func_get_mem4Dint.208
	.cfi_def_cfa %rbp, 16
	movq	%rbx, %rdi
	movl	%r13d, %esi
	movl	%r12d, %edx
	movl	%r15d, %ecx
	movl	%r14d, %r8d
	callq	get_mem4Dint.208
	addq	$8, %rsp
	popq	%rbx
	popq	%r12
	popq	%r13
	popq	%r14
	popq	%r15
	popq	%rbp
	.cfi_def_cfa %rsp, 8
	retq
.LBB13_14:                              # %func_get_mem4Dint.212
	.cfi_def_cfa %rbp, 16
	movq	%rbx, %rdi
	movl	%r13d, %esi
	movl	%r12d, %edx
	movl	%r15d, %ecx
	movl	%r14d, %r8d
	callq	get_mem4Dint.212
	addq	$8, %rsp
	popq	%rbx
	popq	%r12
	popq	%r13
	popq	%r14
	popq	%r15
	popq	%rbp
	.cfi_def_cfa %rsp, 8
	retq
.LBB13_15:                              # %func_get_mem4Dint.223
	.cfi_def_cfa %rbp, 16
	movq	%rbx, %rdi
	movl	%r13d, %esi
	movl	%r12d, %edx
	movl	%r15d, %ecx
	movl	%r14d, %r8d
	callq	get_mem4Dint.223
	addq	$8, %rsp
	popq	%rbx
	popq	%r12
	popq	%r13
	popq	%r14
	popq	%r15
	popq	%rbp
	.cfi_def_cfa %rsp, 8
	retq
.LBB13_16:                              # %func_get_mem4Dint.242
	.cfi_def_cfa %rbp, 16
	movq	%rbx, %rdi
	movl	%r13d, %esi
	movl	%r12d, %edx
	movl	%r15d, %ecx
	movl	%r14d, %r8d
	callq	get_mem4Dint.242
	addq	$8, %rsp
	popq	%rbx
	popq	%r12
	popq	%r13
	popq	%r14
	popq	%r15
	popq	%rbp
	.cfi_def_cfa %rsp, 8
	retq
.LBB13_17:                              # %ctrl0
	.cfi_def_cfa %rbp, 16
	cmpl	$1, %eax
	je	.LBB13_2
# %bb.18:                               # %ctrl1
	cmpl	$2, %eax
	je	.LBB13_3
# %bb.19:                               # %ctrl2
	cmpl	$3, %eax
	je	.LBB13_4
# %bb.20:                               # %ctrl3
	cmpl	$4, %eax
	je	.LBB13_5
# %bb.21:                               # %ctrl4
	cmpl	$5, %eax
	je	.LBB13_6
# %bb.22:                               # %ctrl5
	cmpl	$6, %eax
	je	.LBB13_7
# %bb.23:                               # %ctrl6
	cmpl	$7, %eax
	je	.LBB13_8
# %bb.24:                               # %ctrl7
	cmpl	$8, %eax
	je	.LBB13_9
# %bb.25:                               # %ctrl8
	cmpl	$9, %eax
	je	.LBB13_10
# %bb.26:                               # %ctrl9
	cmpl	$10, %eax
	je	.LBB13_11
# %bb.27:                               # %ctrl10
	cmpl	$11, %eax
	je	.LBB13_12
# %bb.28:                               # %ctrl11
	cmpl	$12, %eax
	je	.LBB13_13
# %bb.29:                               # %ctrl12
	cmpl	$13, %eax
	je	.LBB13_14
# %bb.30:                               # %ctrl13
	cmpl	$14, %eax
	je	.LBB13_15
	jmp	.LBB13_16
.Lfunc_end13:
	.size	get_mem4Dint, .Lfunc_end13-get_mem4Dint
	.cfi_endproc
                                        # -- End function
	.globl	free_mem2D              # -- Begin function free_mem2D
	.p2align	4, 0x90
	.type	free_mem2D,@function
free_mem2D:                             # @free_mem2D
	.cfi_startproc
# %bb.0:                                # %entry
	pushq	%rbp
	.cfi_def_cfa_offset 16
	.cfi_offset %rbp, -16
	movq	%rsp, %rbp
	.cfi_def_cfa_register %rbp
	subq	$16, %rsp
	movq	%rdi, -8(%rbp)
	cmpq	$0, -8(%rbp)
	je	.LBB14_5
# %bb.1:                                # %if.then
	movq	-8(%rbp), %rax
	cmpq	$0, (%rax)
	je	.LBB14_3
# %bb.2:                                # %if.then2
	movq	-8(%rbp), %rax
	movq	(%rax), %rdi
	callq	free
	jmp	.LBB14_4
.LBB14_3:                               # %if.else
	movabsq	$.L.str.13, %rdi
	movl	$100, %esi
	callq	error
.LBB14_4:                               # %if.end
	movq	-8(%rbp), %rdi
	callq	free
	jmp	.LBB14_6
.LBB14_5:                               # %if.else4
	movabsq	$.L.str.13, %rdi
	movl	$100, %esi
	callq	error
.LBB14_6:                               # %if.end5
	addq	$16, %rsp
	popq	%rbp
	.cfi_def_cfa %rsp, 8
	retq
.Lfunc_end14:
	.size	free_mem2D, .Lfunc_end14-free_mem2D
	.cfi_endproc
                                        # -- End function
	.globl	free_mem2Dint           # -- Begin function free_mem2Dint
	.p2align	4, 0x90
	.type	free_mem2Dint,@function
free_mem2Dint:                          # @free_mem2Dint
	.cfi_startproc
# %bb.0:                                # %entry
	pushq	%rbp
	.cfi_def_cfa_offset 16
	.cfi_offset %rbp, -16
	movq	%rsp, %rbp
	.cfi_def_cfa_register %rbp
	subq	$16, %rsp
	movq	%rdi, -8(%rbp)
	cmpq	$0, -8(%rbp)
	je	.LBB15_5
# %bb.1:                                # %if.then
	movq	-8(%rbp), %rax
	cmpq	$0, (%rax)
	je	.LBB15_3
# %bb.2:                                # %if.then2
	movq	-8(%rbp), %rax
	movq	(%rax), %rdi
	callq	free
	jmp	.LBB15_4
.LBB15_3:                               # %if.else
	movabsq	$.L.str.14, %rdi
	movl	$100, %esi
	callq	error
.LBB15_4:                               # %if.end
	movq	-8(%rbp), %rdi
	callq	free
	jmp	.LBB15_6
.LBB15_5:                               # %if.else4
	movabsq	$.L.str.14, %rdi
	movl	$100, %esi
	callq	error
.LBB15_6:                               # %if.end5
	addq	$16, %rsp
	popq	%rbp
	.cfi_def_cfa %rsp, 8
	retq
.Lfunc_end15:
	.size	free_mem2Dint, .Lfunc_end15-free_mem2Dint
	.cfi_endproc
                                        # -- End function
	.globl	free_mem2Dint64         # -- Begin function free_mem2Dint64
	.p2align	4, 0x90
	.type	free_mem2Dint64,@function
free_mem2Dint64:                        # @free_mem2Dint64
	.cfi_startproc
# %bb.0:                                # %entry
	pushq	%rbp
	.cfi_def_cfa_offset 16
	.cfi_offset %rbp, -16
	movq	%rsp, %rbp
	.cfi_def_cfa_register %rbp
	subq	$16, %rsp
	movq	%rdi, -8(%rbp)
	cmpq	$0, -8(%rbp)
	je	.LBB16_5
# %bb.1:                                # %if.then
	movq	-8(%rbp), %rax
	cmpq	$0, (%rax)
	je	.LBB16_3
# %bb.2:                                # %if.then2
	movq	-8(%rbp), %rax
	movq	(%rax), %rdi
	callq	free
	jmp	.LBB16_4
.LBB16_3:                               # %if.else
	movabsq	$.L.str.15, %rdi
	movl	$100, %esi
	callq	error
.LBB16_4:                               # %if.end
	movq	-8(%rbp), %rdi
	callq	free
	jmp	.LBB16_6
.LBB16_5:                               # %if.else4
	movabsq	$.L.str.15, %rdi
	movl	$100, %esi
	callq	error
.LBB16_6:                               # %if.end5
	addq	$16, %rsp
	popq	%rbp
	.cfi_def_cfa %rsp, 8
	retq
.Lfunc_end16:
	.size	free_mem2Dint64, .Lfunc_end16-free_mem2Dint64
	.cfi_endproc
                                        # -- End function
	.globl	free_mem3D              # -- Begin function free_mem3D
	.p2align	4, 0x90
	.type	free_mem3D,@function
free_mem3D:                             # @free_mem3D
	.cfi_startproc
# %bb.0:                                # %rand_bb
	pushq	%rbp
	.cfi_def_cfa_offset 16
	.cfi_offset %rbp, -16
	movq	%rsp, %rbp
	.cfi_def_cfa_register %rbp
	pushq	%r14
	pushq	%rbx
	.cfi_offset %rbx, -32
	.cfi_offset %r14, -24
	movl	%esi, %r14d
	movq	%rdi, %rbx
	callq	get_rand
	cmpl	$0, %eax
	jne	.LBB17_7
# %bb.1:                                # %func_free_mem3D.34
	movq	%rbx, %rdi
	movl	%r14d, %esi
	callq	free_mem3D.34
	popq	%rbx
	popq	%r14
	popq	%rbp
	.cfi_def_cfa %rsp, 8
	retq
.LBB17_2:                               # %func_free_mem3D.47
	.cfi_def_cfa %rbp, 16
	movq	%rbx, %rdi
	movl	%r14d, %esi
	callq	free_mem3D.47
	popq	%rbx
	popq	%r14
	popq	%rbp
	.cfi_def_cfa %rsp, 8
	retq
.LBB17_3:                               # %func_free_mem3D.64
	.cfi_def_cfa %rbp, 16
	movq	%rbx, %rdi
	movl	%r14d, %esi
	callq	free_mem3D.64
	popq	%rbx
	popq	%r14
	popq	%rbp
	.cfi_def_cfa %rsp, 8
	retq
.LBB17_4:                               # %func_free_mem3D.66
	.cfi_def_cfa %rbp, 16
	movq	%rbx, %rdi
	movl	%r14d, %esi
	callq	free_mem3D.66
	popq	%rbx
	popq	%r14
	popq	%rbp
	.cfi_def_cfa %rsp, 8
	retq
.LBB17_5:                               # %func_free_mem3D.77
	.cfi_def_cfa %rbp, 16
	movq	%rbx, %rdi
	movl	%r14d, %esi
	callq	free_mem3D.77
	popq	%rbx
	popq	%r14
	popq	%rbp
	.cfi_def_cfa %rsp, 8
	retq
.LBB17_6:                               # %func_free_mem3D.100
	.cfi_def_cfa %rbp, 16
	movq	%rbx, %rdi
	movl	%r14d, %esi
	callq	free_mem3D.100
	popq	%rbx
	popq	%r14
	popq	%rbp
	.cfi_def_cfa %rsp, 8
	retq
.LBB17_7:                               # %ctrl0
	.cfi_def_cfa %rbp, 16
	cmpl	$1, %eax
	je	.LBB17_2
# %bb.8:                                # %ctrl1
	cmpl	$2, %eax
	je	.LBB17_3
# %bb.9:                                # %ctrl2
	cmpl	$3, %eax
	je	.LBB17_4
# %bb.10:                               # %ctrl3
	cmpl	$4, %eax
	je	.LBB17_5
	jmp	.LBB17_6
.Lfunc_end17:
	.size	free_mem3D, .Lfunc_end17-free_mem3D
	.cfi_endproc
                                        # -- End function
	.globl	free_mem3Dint           # -- Begin function free_mem3Dint
	.p2align	4, 0x90
	.type	free_mem3Dint,@function
free_mem3Dint:                          # @free_mem3Dint
	.cfi_startproc
# %bb.0:                                # %rand_bb
	pushq	%rbp
	.cfi_def_cfa_offset 16
	.cfi_offset %rbp, -16
	movq	%rsp, %rbp
	.cfi_def_cfa_register %rbp
	pushq	%r14
	pushq	%rbx
	.cfi_offset %rbx, -32
	.cfi_offset %r14, -24
	movl	%esi, %r14d
	movq	%rdi, %rbx
	callq	get_rand
	cmpl	$0, %eax
	jne	.LBB18_7
# %bb.1:                                # %func_free_mem3Dint.30
	movq	%rbx, %rdi
	movl	%r14d, %esi
	callq	free_mem3Dint.30
	popq	%rbx
	popq	%r14
	popq	%rbp
	.cfi_def_cfa %rsp, 8
	retq
.LBB18_2:                               # %func_free_mem3Dint.32
	.cfi_def_cfa %rbp, 16
	movq	%rbx, %rdi
	movl	%r14d, %esi
	callq	free_mem3Dint.32
	popq	%rbx
	popq	%r14
	popq	%rbp
	.cfi_def_cfa %rsp, 8
	retq
.LBB18_3:                               # %func_free_mem3Dint.33
	.cfi_def_cfa %rbp, 16
	movq	%rbx, %rdi
	movl	%r14d, %esi
	callq	free_mem3Dint.33
	popq	%rbx
	popq	%r14
	popq	%rbp
	.cfi_def_cfa %rsp, 8
	retq
.LBB18_4:                               # %func_free_mem3Dint.40
	.cfi_def_cfa %rbp, 16
	movq	%rbx, %rdi
	movl	%r14d, %esi
	callq	free_mem3Dint.40
	popq	%rbx
	popq	%r14
	popq	%rbp
	.cfi_def_cfa %rsp, 8
	retq
.LBB18_5:                               # %func_free_mem3Dint.68
	.cfi_def_cfa %rbp, 16
	movq	%rbx, %rdi
	movl	%r14d, %esi
	callq	free_mem3Dint.68
	popq	%rbx
	popq	%r14
	popq	%rbp
	.cfi_def_cfa %rsp, 8
	retq
.LBB18_6:                               # %func_free_mem3Dint.87
	.cfi_def_cfa %rbp, 16
	movq	%rbx, %rdi
	movl	%r14d, %esi
	callq	free_mem3Dint.87
	popq	%rbx
	popq	%r14
	popq	%rbp
	.cfi_def_cfa %rsp, 8
	retq
.LBB18_7:                               # %ctrl0
	.cfi_def_cfa %rbp, 16
	cmpl	$1, %eax
	je	.LBB18_2
# %bb.8:                                # %ctrl1
	cmpl	$2, %eax
	je	.LBB18_3
# %bb.9:                                # %ctrl2
	cmpl	$3, %eax
	je	.LBB18_4
# %bb.10:                               # %ctrl3
	cmpl	$4, %eax
	je	.LBB18_5
	jmp	.LBB18_6
.Lfunc_end18:
	.size	free_mem3Dint, .Lfunc_end18-free_mem3Dint
	.cfi_endproc
                                        # -- End function
	.globl	free_mem3Dint64         # -- Begin function free_mem3Dint64
	.p2align	4, 0x90
	.type	free_mem3Dint64,@function
free_mem3Dint64:                        # @free_mem3Dint64
	.cfi_startproc
# %bb.0:                                # %rand_bb
	pushq	%rbp
	.cfi_def_cfa_offset 16
	.cfi_offset %rbp, -16
	movq	%rsp, %rbp
	.cfi_def_cfa_register %rbp
	pushq	%r14
	pushq	%rbx
	.cfi_offset %rbx, -32
	.cfi_offset %r14, -24
	movl	%esi, %r14d
	movq	%rdi, %rbx
	callq	get_rand
	cmpl	$0, %eax
	jne	.LBB19_7
# %bb.1:                                # %func_free_mem3Dint64.8
	movq	%rbx, %rdi
	movl	%r14d, %esi
	callq	free_mem3Dint64.8
	popq	%rbx
	popq	%r14
	popq	%rbp
	.cfi_def_cfa %rsp, 8
	retq
.LBB19_2:                               # %func_free_mem3Dint64.16
	.cfi_def_cfa %rbp, 16
	movq	%rbx, %rdi
	movl	%r14d, %esi
	callq	free_mem3Dint64.16
	popq	%rbx
	popq	%r14
	popq	%rbp
	.cfi_def_cfa %rsp, 8
	retq
.LBB19_3:                               # %func_free_mem3Dint64.51
	.cfi_def_cfa %rbp, 16
	movq	%rbx, %rdi
	movl	%r14d, %esi
	callq	free_mem3Dint64.51
	popq	%rbx
	popq	%r14
	popq	%rbp
	.cfi_def_cfa %rsp, 8
	retq
.LBB19_4:                               # %func_free_mem3Dint64.52
	.cfi_def_cfa %rbp, 16
	movq	%rbx, %rdi
	movl	%r14d, %esi
	callq	free_mem3Dint64.52
	popq	%rbx
	popq	%r14
	popq	%rbp
	.cfi_def_cfa %rsp, 8
	retq
.LBB19_5:                               # %func_free_mem3Dint64.75
	.cfi_def_cfa %rbp, 16
	movq	%rbx, %rdi
	movl	%r14d, %esi
	callq	free_mem3Dint64.75
	popq	%rbx
	popq	%r14
	popq	%rbp
	.cfi_def_cfa %rsp, 8
	retq
.LBB19_6:                               # %func_free_mem3Dint64.145
	.cfi_def_cfa %rbp, 16
	movq	%rbx, %rdi
	movl	%r14d, %esi
	callq	free_mem3Dint64.145
	popq	%rbx
	popq	%r14
	popq	%rbp
	.cfi_def_cfa %rsp, 8
	retq
.LBB19_7:                               # %ctrl0
	.cfi_def_cfa %rbp, 16
	cmpl	$1, %eax
	je	.LBB19_2
# %bb.8:                                # %ctrl1
	cmpl	$2, %eax
	je	.LBB19_3
# %bb.9:                                # %ctrl2
	cmpl	$3, %eax
	je	.LBB19_4
# %bb.10:                               # %ctrl3
	cmpl	$4, %eax
	je	.LBB19_5
	jmp	.LBB19_6
.Lfunc_end19:
	.size	free_mem3Dint64, .Lfunc_end19-free_mem3Dint64
	.cfi_endproc
                                        # -- End function
	.globl	free_mem4Dint           # -- Begin function free_mem4Dint
	.p2align	4, 0x90
	.type	free_mem4Dint,@function
free_mem4Dint:                          # @free_mem4Dint
	.cfi_startproc
# %bb.0:                                # %rand_bb
	pushq	%rbp
	.cfi_def_cfa_offset 16
	.cfi_offset %rbp, -16
	movq	%rsp, %rbp
	.cfi_def_cfa_register %rbp
	pushq	%r15
	pushq	%r14
	pushq	%rbx
	pushq	%rax
	.cfi_offset %rbx, -40
	.cfi_offset %r14, -32
	.cfi_offset %r15, -24
	movl	%edx, %r14d
	movl	%esi, %r15d
	movq	%rdi, %rbx
	callq	get_rand
	cmpl	$0, %eax
	jne	.LBB20_17
# %bb.1:                                # %func_free_mem4Dint.17
	movq	%rbx, %rdi
	movl	%r15d, %esi
	movl	%r14d, %edx
	callq	free_mem4Dint.17
	addq	$8, %rsp
	popq	%rbx
	popq	%r14
	popq	%r15
	popq	%rbp
	.cfi_def_cfa %rsp, 8
	retq
.LBB20_2:                               # %func_free_mem4Dint.25
	.cfi_def_cfa %rbp, 16
	movq	%rbx, %rdi
	movl	%r15d, %esi
	movl	%r14d, %edx
	callq	free_mem4Dint.25
	addq	$8, %rsp
	popq	%rbx
	popq	%r14
	popq	%r15
	popq	%rbp
	.cfi_def_cfa %rsp, 8
	retq
.LBB20_3:                               # %func_free_mem4Dint.59
	.cfi_def_cfa %rbp, 16
	movq	%rbx, %rdi
	movl	%r15d, %esi
	movl	%r14d, %edx
	callq	free_mem4Dint.59
	addq	$8, %rsp
	popq	%rbx
	popq	%r14
	popq	%r15
	popq	%rbp
	.cfi_def_cfa %rsp, 8
	retq
.LBB20_4:                               # %func_free_mem4Dint.73
	.cfi_def_cfa %rbp, 16
	movq	%rbx, %rdi
	movl	%r15d, %esi
	movl	%r14d, %edx
	callq	free_mem4Dint.73
	addq	$8, %rsp
	popq	%rbx
	popq	%r14
	popq	%r15
	popq	%rbp
	.cfi_def_cfa %rsp, 8
	retq
.LBB20_5:                               # %func_free_mem4Dint.93
	.cfi_def_cfa %rbp, 16
	movq	%rbx, %rdi
	movl	%r15d, %esi
	movl	%r14d, %edx
	callq	free_mem4Dint.93
	addq	$8, %rsp
	popq	%rbx
	popq	%r14
	popq	%r15
	popq	%rbp
	.cfi_def_cfa %rsp, 8
	retq
.LBB20_6:                               # %func_free_mem4Dint.99
	.cfi_def_cfa %rbp, 16
	movq	%rbx, %rdi
	movl	%r15d, %esi
	movl	%r14d, %edx
	callq	free_mem4Dint.99
	addq	$8, %rsp
	popq	%rbx
	popq	%r14
	popq	%r15
	popq	%rbp
	.cfi_def_cfa %rsp, 8
	retq
.LBB20_7:                               # %func_free_mem4Dint.104
	.cfi_def_cfa %rbp, 16
	movq	%rbx, %rdi
	movl	%r15d, %esi
	movl	%r14d, %edx
	callq	free_mem4Dint.104
	addq	$8, %rsp
	popq	%rbx
	popq	%r14
	popq	%r15
	popq	%rbp
	.cfi_def_cfa %rsp, 8
	retq
.LBB20_8:                               # %func_free_mem4Dint.125
	.cfi_def_cfa %rbp, 16
	movq	%rbx, %rdi
	movl	%r15d, %esi
	movl	%r14d, %edx
	callq	free_mem4Dint.125
	addq	$8, %rsp
	popq	%rbx
	popq	%r14
	popq	%r15
	popq	%rbp
	.cfi_def_cfa %rsp, 8
	retq
.LBB20_9:                               # %func_free_mem4Dint.140
	.cfi_def_cfa %rbp, 16
	movq	%rbx, %rdi
	movl	%r15d, %esi
	movl	%r14d, %edx
	callq	free_mem4Dint.140
	addq	$8, %rsp
	popq	%rbx
	popq	%r14
	popq	%r15
	popq	%rbp
	.cfi_def_cfa %rsp, 8
	retq
.LBB20_10:                              # %func_free_mem4Dint.171
	.cfi_def_cfa %rbp, 16
	movq	%rbx, %rdi
	movl	%r15d, %esi
	movl	%r14d, %edx
	callq	free_mem4Dint.171
	addq	$8, %rsp
	popq	%rbx
	popq	%r14
	popq	%r15
	popq	%rbp
	.cfi_def_cfa %rsp, 8
	retq
.LBB20_11:                              # %func_free_mem4Dint.206
	.cfi_def_cfa %rbp, 16
	movq	%rbx, %rdi
	movl	%r15d, %esi
	movl	%r14d, %edx
	callq	free_mem4Dint.206
	addq	$8, %rsp
	popq	%rbx
	popq	%r14
	popq	%r15
	popq	%rbp
	.cfi_def_cfa %rsp, 8
	retq
.LBB20_12:                              # %func_free_mem4Dint.215
	.cfi_def_cfa %rbp, 16
	movq	%rbx, %rdi
	movl	%r15d, %esi
	movl	%r14d, %edx
	callq	free_mem4Dint.215
	addq	$8, %rsp
	popq	%rbx
	popq	%r14
	popq	%r15
	popq	%rbp
	.cfi_def_cfa %rsp, 8
	retq
.LBB20_13:                              # %func_free_mem4Dint.226
	.cfi_def_cfa %rbp, 16
	movq	%rbx, %rdi
	movl	%r15d, %esi
	movl	%r14d, %edx
	callq	free_mem4Dint.226
	addq	$8, %rsp
	popq	%rbx
	popq	%r14
	popq	%r15
	popq	%rbp
	.cfi_def_cfa %rsp, 8
	retq
.LBB20_14:                              # %func_free_mem4Dint.239
	.cfi_def_cfa %rbp, 16
	movq	%rbx, %rdi
	movl	%r15d, %esi
	movl	%r14d, %edx
	callq	free_mem4Dint.239
	addq	$8, %rsp
	popq	%rbx
	popq	%r14
	popq	%r15
	popq	%rbp
	.cfi_def_cfa %rsp, 8
	retq
.LBB20_15:                              # %func_free_mem4Dint.258
	.cfi_def_cfa %rbp, 16
	movq	%rbx, %rdi
	movl	%r15d, %esi
	movl	%r14d, %edx
	callq	free_mem4Dint.258
	addq	$8, %rsp
	popq	%rbx
	popq	%r14
	popq	%r15
	popq	%rbp
	.cfi_def_cfa %rsp, 8
	retq
.LBB20_16:                              # %func_free_mem4Dint.260
	.cfi_def_cfa %rbp, 16
	movq	%rbx, %rdi
	movl	%r15d, %esi
	movl	%r14d, %edx
	callq	free_mem4Dint.260
	addq	$8, %rsp
	popq	%rbx
	popq	%r14
	popq	%r15
	popq	%rbp
	.cfi_def_cfa %rsp, 8
	retq
.LBB20_17:                              # %ctrl0
	.cfi_def_cfa %rbp, 16
	cmpl	$1, %eax
	je	.LBB20_2
# %bb.18:                               # %ctrl1
	cmpl	$2, %eax
	je	.LBB20_3
# %bb.19:                               # %ctrl2
	cmpl	$3, %eax
	je	.LBB20_4
# %bb.20:                               # %ctrl3
	cmpl	$4, %eax
	je	.LBB20_5
# %bb.21:                               # %ctrl4
	cmpl	$5, %eax
	je	.LBB20_6
# %bb.22:                               # %ctrl5
	cmpl	$6, %eax
	je	.LBB20_7
# %bb.23:                               # %ctrl6
	cmpl	$7, %eax
	je	.LBB20_8
# %bb.24:                               # %ctrl7
	cmpl	$8, %eax
	je	.LBB20_9
# %bb.25:                               # %ctrl8
	cmpl	$9, %eax
	je	.LBB20_10
# %bb.26:                               # %ctrl9
	cmpl	$10, %eax
	je	.LBB20_11
# %bb.27:                               # %ctrl10
	cmpl	$11, %eax
	je	.LBB20_12
# %bb.28:                               # %ctrl11
	cmpl	$12, %eax
	je	.LBB20_13
# %bb.29:                               # %ctrl12
	cmpl	$13, %eax
	je	.LBB20_14
# %bb.30:                               # %ctrl13
	cmpl	$14, %eax
	je	.LBB20_15
	jmp	.LBB20_16
.Lfunc_end20:
	.size	free_mem4Dint, .Lfunc_end20-free_mem4Dint
	.cfi_endproc
                                        # -- End function
	.globl	get_mem2Dshort          # -- Begin function get_mem2Dshort
	.p2align	4, 0x90
	.type	get_mem2Dshort,@function
get_mem2Dshort:                         # @get_mem2Dshort
	.cfi_startproc
# %bb.0:                                # %rand_bb
	pushq	%rbp
	.cfi_def_cfa_offset 16
	.cfi_offset %rbp, -16
	movq	%rsp, %rbp
	.cfi_def_cfa_register %rbp
	pushq	%r15
	pushq	%r14
	pushq	%rbx
	pushq	%rax
	.cfi_offset %rbx, -40
	.cfi_offset %r14, -32
	.cfi_offset %r15, -24
	movl	%edx, %r14d
	movl	%esi, %r15d
	movq	%rdi, %rbx
	callq	get_rand
	cmpl	$0, %eax
	jne	.LBB21_17
# %bb.1:                                # %func_get_mem2Dshort.6
	movq	%rbx, %rdi
	movl	%r15d, %esi
	movl	%r14d, %edx
	callq	get_mem2Dshort.6
	addq	$8, %rsp
	popq	%rbx
	popq	%r14
	popq	%r15
	popq	%rbp
	.cfi_def_cfa %rsp, 8
	retq
.LBB21_2:                               # %func_get_mem2Dshort.12
	.cfi_def_cfa %rbp, 16
	movq	%rbx, %rdi
	movl	%r15d, %esi
	movl	%r14d, %edx
	callq	get_mem2Dshort.12
	addq	$8, %rsp
	popq	%rbx
	popq	%r14
	popq	%r15
	popq	%rbp
	.cfi_def_cfa %rsp, 8
	retq
.LBB21_3:                               # %func_get_mem2Dshort.58
	.cfi_def_cfa %rbp, 16
	movq	%rbx, %rdi
	movl	%r15d, %esi
	movl	%r14d, %edx
	callq	get_mem2Dshort.58
	addq	$8, %rsp
	popq	%rbx
	popq	%r14
	popq	%r15
	popq	%rbp
	.cfi_def_cfa %rsp, 8
	retq
.LBB21_4:                               # %func_get_mem2Dshort.83
	.cfi_def_cfa %rbp, 16
	movq	%rbx, %rdi
	movl	%r15d, %esi
	movl	%r14d, %edx
	callq	get_mem2Dshort.83
	addq	$8, %rsp
	popq	%rbx
	popq	%r14
	popq	%r15
	popq	%rbp
	.cfi_def_cfa %rsp, 8
	retq
.LBB21_5:                               # %func_get_mem2Dshort.119
	.cfi_def_cfa %rbp, 16
	movq	%rbx, %rdi
	movl	%r15d, %esi
	movl	%r14d, %edx
	callq	get_mem2Dshort.119
	addq	$8, %rsp
	popq	%rbx
	popq	%r14
	popq	%r15
	popq	%rbp
	.cfi_def_cfa %rsp, 8
	retq
.LBB21_6:                               # %func_get_mem2Dshort.131
	.cfi_def_cfa %rbp, 16
	movq	%rbx, %rdi
	movl	%r15d, %esi
	movl	%r14d, %edx
	callq	get_mem2Dshort.131
	addq	$8, %rsp
	popq	%rbx
	popq	%r14
	popq	%r15
	popq	%rbp
	.cfi_def_cfa %rsp, 8
	retq
.LBB21_7:                               # %func_get_mem2Dshort.141
	.cfi_def_cfa %rbp, 16
	movq	%rbx, %rdi
	movl	%r15d, %esi
	movl	%r14d, %edx
	callq	get_mem2Dshort.141
	addq	$8, %rsp
	popq	%rbx
	popq	%r14
	popq	%r15
	popq	%rbp
	.cfi_def_cfa %rsp, 8
	retq
.LBB21_8:                               # %func_get_mem2Dshort.147
	.cfi_def_cfa %rbp, 16
	movq	%rbx, %rdi
	movl	%r15d, %esi
	movl	%r14d, %edx
	callq	get_mem2Dshort.147
	addq	$8, %rsp
	popq	%rbx
	popq	%r14
	popq	%r15
	popq	%rbp
	.cfi_def_cfa %rsp, 8
	retq
.LBB21_9:                               # %func_get_mem2Dshort.148
	.cfi_def_cfa %rbp, 16
	movq	%rbx, %rdi
	movl	%r15d, %esi
	movl	%r14d, %edx
	callq	get_mem2Dshort.148
	addq	$8, %rsp
	popq	%rbx
	popq	%r14
	popq	%r15
	popq	%rbp
	.cfi_def_cfa %rsp, 8
	retq
.LBB21_10:                              # %func_get_mem2Dshort.189
	.cfi_def_cfa %rbp, 16
	movq	%rbx, %rdi
	movl	%r15d, %esi
	movl	%r14d, %edx
	callq	get_mem2Dshort.189
	addq	$8, %rsp
	popq	%rbx
	popq	%r14
	popq	%r15
	popq	%rbp
	.cfi_def_cfa %rsp, 8
	retq
.LBB21_11:                              # %func_get_mem2Dshort.210
	.cfi_def_cfa %rbp, 16
	movq	%rbx, %rdi
	movl	%r15d, %esi
	movl	%r14d, %edx
	callq	get_mem2Dshort.210
	addq	$8, %rsp
	popq	%rbx
	popq	%r14
	popq	%r15
	popq	%rbp
	.cfi_def_cfa %rsp, 8
	retq
.LBB21_12:                              # %func_get_mem2Dshort.224
	.cfi_def_cfa %rbp, 16
	movq	%rbx, %rdi
	movl	%r15d, %esi
	movl	%r14d, %edx
	callq	get_mem2Dshort.224
	addq	$8, %rsp
	popq	%rbx
	popq	%r14
	popq	%r15
	popq	%rbp
	.cfi_def_cfa %rsp, 8
	retq
.LBB21_13:                              # %func_get_mem2Dshort.230
	.cfi_def_cfa %rbp, 16
	movq	%rbx, %rdi
	movl	%r15d, %esi
	movl	%r14d, %edx
	callq	get_mem2Dshort.230
	addq	$8, %rsp
	popq	%rbx
	popq	%r14
	popq	%r15
	popq	%rbp
	.cfi_def_cfa %rsp, 8
	retq
.LBB21_14:                              # %func_get_mem2Dshort.243
	.cfi_def_cfa %rbp, 16
	movq	%rbx, %rdi
	movl	%r15d, %esi
	movl	%r14d, %edx
	callq	get_mem2Dshort.243
	addq	$8, %rsp
	popq	%rbx
	popq	%r14
	popq	%r15
	popq	%rbp
	.cfi_def_cfa %rsp, 8
	retq
.LBB21_15:                              # %func_get_mem2Dshort.245
	.cfi_def_cfa %rbp, 16
	movq	%rbx, %rdi
	movl	%r15d, %esi
	movl	%r14d, %edx
	callq	get_mem2Dshort.245
	addq	$8, %rsp
	popq	%rbx
	popq	%r14
	popq	%r15
	popq	%rbp
	.cfi_def_cfa %rsp, 8
	retq
.LBB21_16:                              # %func_get_mem2Dshort.248
	.cfi_def_cfa %rbp, 16
	movq	%rbx, %rdi
	movl	%r15d, %esi
	movl	%r14d, %edx
	callq	get_mem2Dshort.248
	addq	$8, %rsp
	popq	%rbx
	popq	%r14
	popq	%r15
	popq	%rbp
	.cfi_def_cfa %rsp, 8
	retq
.LBB21_17:                              # %ctrl0
	.cfi_def_cfa %rbp, 16
	cmpl	$1, %eax
	je	.LBB21_2
# %bb.18:                               # %ctrl1
	cmpl	$2, %eax
	je	.LBB21_3
# %bb.19:                               # %ctrl2
	cmpl	$3, %eax
	je	.LBB21_4
# %bb.20:                               # %ctrl3
	cmpl	$4, %eax
	je	.LBB21_5
# %bb.21:                               # %ctrl4
	cmpl	$5, %eax
	je	.LBB21_6
# %bb.22:                               # %ctrl5
	cmpl	$6, %eax
	je	.LBB21_7
# %bb.23:                               # %ctrl6
	cmpl	$7, %eax
	je	.LBB21_8
# %bb.24:                               # %ctrl7
	cmpl	$8, %eax
	je	.LBB21_9
# %bb.25:                               # %ctrl8
	cmpl	$9, %eax
	je	.LBB21_10
# %bb.26:                               # %ctrl9
	cmpl	$10, %eax
	je	.LBB21_11
# %bb.27:                               # %ctrl10
	cmpl	$11, %eax
	je	.LBB21_12
# %bb.28:                               # %ctrl11
	cmpl	$12, %eax
	je	.LBB21_13
# %bb.29:                               # %ctrl12
	cmpl	$13, %eax
	je	.LBB21_14
# %bb.30:                               # %ctrl13
	cmpl	$14, %eax
	je	.LBB21_15
	jmp	.LBB21_16
.Lfunc_end21:
	.size	get_mem2Dshort, .Lfunc_end21-get_mem2Dshort
	.cfi_endproc
                                        # -- End function
	.globl	get_mem3Dshort          # -- Begin function get_mem3Dshort
	.p2align	4, 0x90
	.type	get_mem3Dshort,@function
get_mem3Dshort:                         # @get_mem3Dshort
	.cfi_startproc
# %bb.0:                                # %rand_bb
	pushq	%rbp
	.cfi_def_cfa_offset 16
	.cfi_offset %rbp, -16
	movq	%rsp, %rbp
	.cfi_def_cfa_register %rbp
	pushq	%r15
	pushq	%r14
	pushq	%r12
	pushq	%rbx
	.cfi_offset %rbx, -48
	.cfi_offset %r12, -40
	.cfi_offset %r14, -32
	.cfi_offset %r15, -24
	movl	%ecx, %r14d
	movl	%edx, %r15d
	movl	%esi, %r12d
	movq	%rdi, %rbx
	callq	get_rand
	cmpl	$0, %eax
	jne	.LBB22_17
# %bb.1:                                # %func_get_mem3Dshort.5
	movq	%rbx, %rdi
	movl	%r12d, %esi
	movl	%r15d, %edx
	movl	%r14d, %ecx
	callq	get_mem3Dshort.5
	popq	%rbx
	popq	%r12
	popq	%r14
	popq	%r15
	popq	%rbp
	.cfi_def_cfa %rsp, 8
	retq
.LBB22_2:                               # %func_get_mem3Dshort.53
	.cfi_def_cfa %rbp, 16
	movq	%rbx, %rdi
	movl	%r12d, %esi
	movl	%r15d, %edx
	movl	%r14d, %ecx
	callq	get_mem3Dshort.53
	popq	%rbx
	popq	%r12
	popq	%r14
	popq	%r15
	popq	%rbp
	.cfi_def_cfa %rsp, 8
	retq
.LBB22_3:                               # %func_get_mem3Dshort.95
	.cfi_def_cfa %rbp, 16
	movq	%rbx, %rdi
	movl	%r12d, %esi
	movl	%r15d, %edx
	movl	%r14d, %ecx
	callq	get_mem3Dshort.95
	popq	%rbx
	popq	%r12
	popq	%r14
	popq	%r15
	popq	%rbp
	.cfi_def_cfa %rsp, 8
	retq
.LBB22_4:                               # %func_get_mem3Dshort.111
	.cfi_def_cfa %rbp, 16
	movq	%rbx, %rdi
	movl	%r12d, %esi
	movl	%r15d, %edx
	movl	%r14d, %ecx
	callq	get_mem3Dshort.111
	popq	%rbx
	popq	%r12
	popq	%r14
	popq	%r15
	popq	%rbp
	.cfi_def_cfa %rsp, 8
	retq
.LBB22_5:                               # %func_get_mem3Dshort.139
	.cfi_def_cfa %rbp, 16
	movq	%rbx, %rdi
	movl	%r12d, %esi
	movl	%r15d, %edx
	movl	%r14d, %ecx
	callq	get_mem3Dshort.139
	popq	%rbx
	popq	%r12
	popq	%r14
	popq	%r15
	popq	%rbp
	.cfi_def_cfa %rsp, 8
	retq
.LBB22_6:                               # %func_get_mem3Dshort.156
	.cfi_def_cfa %rbp, 16
	movq	%rbx, %rdi
	movl	%r12d, %esi
	movl	%r15d, %edx
	movl	%r14d, %ecx
	callq	get_mem3Dshort.156
	popq	%rbx
	popq	%r12
	popq	%r14
	popq	%r15
	popq	%rbp
	.cfi_def_cfa %rsp, 8
	retq
.LBB22_7:                               # %func_get_mem3Dshort.162
	.cfi_def_cfa %rbp, 16
	movq	%rbx, %rdi
	movl	%r12d, %esi
	movl	%r15d, %edx
	movl	%r14d, %ecx
	callq	get_mem3Dshort.162
	popq	%rbx
	popq	%r12
	popq	%r14
	popq	%r15
	popq	%rbp
	.cfi_def_cfa %rsp, 8
	retq
.LBB22_8:                               # %func_get_mem3Dshort.165
	.cfi_def_cfa %rbp, 16
	movq	%rbx, %rdi
	movl	%r12d, %esi
	movl	%r15d, %edx
	movl	%r14d, %ecx
	callq	get_mem3Dshort.165
	popq	%rbx
	popq	%r12
	popq	%r14
	popq	%r15
	popq	%rbp
	.cfi_def_cfa %rsp, 8
	retq
.LBB22_9:                               # %func_get_mem3Dshort.180
	.cfi_def_cfa %rbp, 16
	movq	%rbx, %rdi
	movl	%r12d, %esi
	movl	%r15d, %edx
	movl	%r14d, %ecx
	callq	get_mem3Dshort.180
	popq	%rbx
	popq	%r12
	popq	%r14
	popq	%r15
	popq	%rbp
	.cfi_def_cfa %rsp, 8
	retq
.LBB22_10:                              # %func_get_mem3Dshort.203
	.cfi_def_cfa %rbp, 16
	movq	%rbx, %rdi
	movl	%r12d, %esi
	movl	%r15d, %edx
	movl	%r14d, %ecx
	callq	get_mem3Dshort.203
	popq	%rbx
	popq	%r12
	popq	%r14
	popq	%r15
	popq	%rbp
	.cfi_def_cfa %rsp, 8
	retq
.LBB22_11:                              # %func_get_mem3Dshort.207
	.cfi_def_cfa %rbp, 16
	movq	%rbx, %rdi
	movl	%r12d, %esi
	movl	%r15d, %edx
	movl	%r14d, %ecx
	callq	get_mem3Dshort.207
	popq	%rbx
	popq	%r12
	popq	%r14
	popq	%r15
	popq	%rbp
	.cfi_def_cfa %rsp, 8
	retq
.LBB22_12:                              # %func_get_mem3Dshort.218
	.cfi_def_cfa %rbp, 16
	movq	%rbx, %rdi
	movl	%r12d, %esi
	movl	%r15d, %edx
	movl	%r14d, %ecx
	callq	get_mem3Dshort.218
	popq	%rbx
	popq	%r12
	popq	%r14
	popq	%r15
	popq	%rbp
	.cfi_def_cfa %rsp, 8
	retq
.LBB22_13:                              # %func_get_mem3Dshort.220
	.cfi_def_cfa %rbp, 16
	movq	%rbx, %rdi
	movl	%r12d, %esi
	movl	%r15d, %edx
	movl	%r14d, %ecx
	callq	get_mem3Dshort.220
	popq	%rbx
	popq	%r12
	popq	%r14
	popq	%r15
	popq	%rbp
	.cfi_def_cfa %rsp, 8
	retq
.LBB22_14:                              # %func_get_mem3Dshort.232
	.cfi_def_cfa %rbp, 16
	movq	%rbx, %rdi
	movl	%r12d, %esi
	movl	%r15d, %edx
	movl	%r14d, %ecx
	callq	get_mem3Dshort.232
	popq	%rbx
	popq	%r12
	popq	%r14
	popq	%r15
	popq	%rbp
	.cfi_def_cfa %rsp, 8
	retq
.LBB22_15:                              # %func_get_mem3Dshort.235
	.cfi_def_cfa %rbp, 16
	movq	%rbx, %rdi
	movl	%r12d, %esi
	movl	%r15d, %edx
	movl	%r14d, %ecx
	callq	get_mem3Dshort.235
	popq	%rbx
	popq	%r12
	popq	%r14
	popq	%r15
	popq	%rbp
	.cfi_def_cfa %rsp, 8
	retq
.LBB22_16:                              # %func_get_mem3Dshort.238
	.cfi_def_cfa %rbp, 16
	movq	%rbx, %rdi
	movl	%r12d, %esi
	movl	%r15d, %edx
	movl	%r14d, %ecx
	callq	get_mem3Dshort.238
	popq	%rbx
	popq	%r12
	popq	%r14
	popq	%r15
	popq	%rbp
	.cfi_def_cfa %rsp, 8
	retq
.LBB22_17:                              # %ctrl0
	.cfi_def_cfa %rbp, 16
	cmpl	$1, %eax
	je	.LBB22_2
# %bb.18:                               # %ctrl1
	cmpl	$2, %eax
	je	.LBB22_3
# %bb.19:                               # %ctrl2
	cmpl	$3, %eax
	je	.LBB22_4
# %bb.20:                               # %ctrl3
	cmpl	$4, %eax
	je	.LBB22_5
# %bb.21:                               # %ctrl4
	cmpl	$5, %eax
	je	.LBB22_6
# %bb.22:                               # %ctrl5
	cmpl	$6, %eax
	je	.LBB22_7
# %bb.23:                               # %ctrl6
	cmpl	$7, %eax
	je	.LBB22_8
# %bb.24:                               # %ctrl7
	cmpl	$8, %eax
	je	.LBB22_9
# %bb.25:                               # %ctrl8
	cmpl	$9, %eax
	je	.LBB22_10
# %bb.26:                               # %ctrl9
	cmpl	$10, %eax
	je	.LBB22_11
# %bb.27:                               # %ctrl10
	cmpl	$11, %eax
	je	.LBB22_12
# %bb.28:                               # %ctrl11
	cmpl	$12, %eax
	je	.LBB22_13
# %bb.29:                               # %ctrl12
	cmpl	$13, %eax
	je	.LBB22_14
# %bb.30:                               # %ctrl13
	cmpl	$14, %eax
	je	.LBB22_15
	jmp	.LBB22_16
.Lfunc_end22:
	.size	get_mem3Dshort, .Lfunc_end22-get_mem3Dshort
	.cfi_endproc
                                        # -- End function
	.globl	get_mem4Dshort          # -- Begin function get_mem4Dshort
	.p2align	4, 0x90
	.type	get_mem4Dshort,@function
get_mem4Dshort:                         # @get_mem4Dshort
	.cfi_startproc
# %bb.0:                                # %rand_bb
	pushq	%rbp
	.cfi_def_cfa_offset 16
	.cfi_offset %rbp, -16
	movq	%rsp, %rbp
	.cfi_def_cfa_register %rbp
	pushq	%r15
	pushq	%r14
	pushq	%r13
	pushq	%r12
	pushq	%rbx
	pushq	%rax
	.cfi_offset %rbx, -56
	.cfi_offset %r12, -48
	.cfi_offset %r13, -40
	.cfi_offset %r14, -32
	.cfi_offset %r15, -24
	movl	%r8d, %r14d
	movl	%ecx, %r15d
	movl	%edx, %r12d
	movl	%esi, %r13d
	movq	%rdi, %rbx
	callq	get_rand
	cmpl	$0, %eax
	jne	.LBB23_17
# %bb.1:                                # %func_get_mem4Dshort.11
	movq	%rbx, %rdi
	movl	%r13d, %esi
	movl	%r12d, %edx
	movl	%r15d, %ecx
	movl	%r14d, %r8d
	callq	get_mem4Dshort.11
	addq	$8, %rsp
	popq	%rbx
	popq	%r12
	popq	%r13
	popq	%r14
	popq	%r15
	popq	%rbp
	.cfi_def_cfa %rsp, 8
	retq
.LBB23_2:                               # %func_get_mem4Dshort.18
	.cfi_def_cfa %rbp, 16
	movq	%rbx, %rdi
	movl	%r13d, %esi
	movl	%r12d, %edx
	movl	%r15d, %ecx
	movl	%r14d, %r8d
	callq	get_mem4Dshort.18
	addq	$8, %rsp
	popq	%rbx
	popq	%r12
	popq	%r13
	popq	%r14
	popq	%r15
	popq	%rbp
	.cfi_def_cfa %rsp, 8
	retq
.LBB23_3:                               # %func_get_mem4Dshort.20
	.cfi_def_cfa %rbp, 16
	movq	%rbx, %rdi
	movl	%r13d, %esi
	movl	%r12d, %edx
	movl	%r15d, %ecx
	movl	%r14d, %r8d
	callq	get_mem4Dshort.20
	addq	$8, %rsp
	popq	%rbx
	popq	%r12
	popq	%r13
	popq	%r14
	popq	%r15
	popq	%rbp
	.cfi_def_cfa %rsp, 8
	retq
.LBB23_4:                               # %func_get_mem4Dshort.48
	.cfi_def_cfa %rbp, 16
	movq	%rbx, %rdi
	movl	%r13d, %esi
	movl	%r12d, %edx
	movl	%r15d, %ecx
	movl	%r14d, %r8d
	callq	get_mem4Dshort.48
	addq	$8, %rsp
	popq	%rbx
	popq	%r12
	popq	%r13
	popq	%r14
	popq	%r15
	popq	%rbp
	.cfi_def_cfa %rsp, 8
	retq
.LBB23_5:                               # %func_get_mem4Dshort.67
	.cfi_def_cfa %rbp, 16
	movq	%rbx, %rdi
	movl	%r13d, %esi
	movl	%r12d, %edx
	movl	%r15d, %ecx
	movl	%r14d, %r8d
	callq	get_mem4Dshort.67
	addq	$8, %rsp
	popq	%rbx
	popq	%r12
	popq	%r13
	popq	%r14
	popq	%r15
	popq	%rbp
	.cfi_def_cfa %rsp, 8
	retq
.LBB23_6:                               # %func_get_mem4Dshort.115
	.cfi_def_cfa %rbp, 16
	movq	%rbx, %rdi
	movl	%r13d, %esi
	movl	%r12d, %edx
	movl	%r15d, %ecx
	movl	%r14d, %r8d
	callq	get_mem4Dshort.115
	addq	$8, %rsp
	popq	%rbx
	popq	%r12
	popq	%r13
	popq	%r14
	popq	%r15
	popq	%rbp
	.cfi_def_cfa %rsp, 8
	retq
.LBB23_7:                               # %func_get_mem4Dshort.127
	.cfi_def_cfa %rbp, 16
	movq	%rbx, %rdi
	movl	%r13d, %esi
	movl	%r12d, %edx
	movl	%r15d, %ecx
	movl	%r14d, %r8d
	callq	get_mem4Dshort.127
	addq	$8, %rsp
	popq	%rbx
	popq	%r12
	popq	%r13
	popq	%r14
	popq	%r15
	popq	%rbp
	.cfi_def_cfa %rsp, 8
	retq
.LBB23_8:                               # %func_get_mem4Dshort.128
	.cfi_def_cfa %rbp, 16
	movq	%rbx, %rdi
	movl	%r13d, %esi
	movl	%r12d, %edx
	movl	%r15d, %ecx
	movl	%r14d, %r8d
	callq	get_mem4Dshort.128
	addq	$8, %rsp
	popq	%rbx
	popq	%r12
	popq	%r13
	popq	%r14
	popq	%r15
	popq	%rbp
	.cfi_def_cfa %rsp, 8
	retq
.LBB23_9:                               # %func_get_mem4Dshort.133
	.cfi_def_cfa %rbp, 16
	movq	%rbx, %rdi
	movl	%r13d, %esi
	movl	%r12d, %edx
	movl	%r15d, %ecx
	movl	%r14d, %r8d
	callq	get_mem4Dshort.133
	addq	$8, %rsp
	popq	%rbx
	popq	%r12
	popq	%r13
	popq	%r14
	popq	%r15
	popq	%rbp
	.cfi_def_cfa %rsp, 8
	retq
.LBB23_10:                              # %func_get_mem4Dshort.136
	.cfi_def_cfa %rbp, 16
	movq	%rbx, %rdi
	movl	%r13d, %esi
	movl	%r12d, %edx
	movl	%r15d, %ecx
	movl	%r14d, %r8d
	callq	get_mem4Dshort.136
	addq	$8, %rsp
	popq	%rbx
	popq	%r12
	popq	%r13
	popq	%r14
	popq	%r15
	popq	%rbp
	.cfi_def_cfa %rsp, 8
	retq
.LBB23_11:                              # %func_get_mem4Dshort.143
	.cfi_def_cfa %rbp, 16
	movq	%rbx, %rdi
	movl	%r13d, %esi
	movl	%r12d, %edx
	movl	%r15d, %ecx
	movl	%r14d, %r8d
	callq	get_mem4Dshort.143
	addq	$8, %rsp
	popq	%rbx
	popq	%r12
	popq	%r13
	popq	%r14
	popq	%r15
	popq	%rbp
	.cfi_def_cfa %rsp, 8
	retq
.LBB23_12:                              # %func_get_mem4Dshort.192
	.cfi_def_cfa %rbp, 16
	movq	%rbx, %rdi
	movl	%r13d, %esi
	movl	%r12d, %edx
	movl	%r15d, %ecx
	movl	%r14d, %r8d
	callq	get_mem4Dshort.192
	addq	$8, %rsp
	popq	%rbx
	popq	%r12
	popq	%r13
	popq	%r14
	popq	%r15
	popq	%rbp
	.cfi_def_cfa %rsp, 8
	retq
.LBB23_13:                              # %func_get_mem4Dshort.193
	.cfi_def_cfa %rbp, 16
	movq	%rbx, %rdi
	movl	%r13d, %esi
	movl	%r12d, %edx
	movl	%r15d, %ecx
	movl	%r14d, %r8d
	callq	get_mem4Dshort.193
	addq	$8, %rsp
	popq	%rbx
	popq	%r12
	popq	%r13
	popq	%r14
	popq	%r15
	popq	%rbp
	.cfi_def_cfa %rsp, 8
	retq
.LBB23_14:                              # %func_get_mem4Dshort.195
	.cfi_def_cfa %rbp, 16
	movq	%rbx, %rdi
	movl	%r13d, %esi
	movl	%r12d, %edx
	movl	%r15d, %ecx
	movl	%r14d, %r8d
	callq	get_mem4Dshort.195
	addq	$8, %rsp
	popq	%rbx
	popq	%r12
	popq	%r13
	popq	%r14
	popq	%r15
	popq	%rbp
	.cfi_def_cfa %rsp, 8
	retq
.LBB23_15:                              # %func_get_mem4Dshort.205
	.cfi_def_cfa %rbp, 16
	movq	%rbx, %rdi
	movl	%r13d, %esi
	movl	%r12d, %edx
	movl	%r15d, %ecx
	movl	%r14d, %r8d
	callq	get_mem4Dshort.205
	addq	$8, %rsp
	popq	%rbx
	popq	%r12
	popq	%r13
	popq	%r14
	popq	%r15
	popq	%rbp
	.cfi_def_cfa %rsp, 8
	retq
.LBB23_16:                              # %func_get_mem4Dshort.213
	.cfi_def_cfa %rbp, 16
	movq	%rbx, %rdi
	movl	%r13d, %esi
	movl	%r12d, %edx
	movl	%r15d, %ecx
	movl	%r14d, %r8d
	callq	get_mem4Dshort.213
	addq	$8, %rsp
	popq	%rbx
	popq	%r12
	popq	%r13
	popq	%r14
	popq	%r15
	popq	%rbp
	.cfi_def_cfa %rsp, 8
	retq
.LBB23_17:                              # %ctrl0
	.cfi_def_cfa %rbp, 16
	cmpl	$1, %eax
	je	.LBB23_2
# %bb.18:                               # %ctrl1
	cmpl	$2, %eax
	je	.LBB23_3
# %bb.19:                               # %ctrl2
	cmpl	$3, %eax
	je	.LBB23_4
# %bb.20:                               # %ctrl3
	cmpl	$4, %eax
	je	.LBB23_5
# %bb.21:                               # %ctrl4
	cmpl	$5, %eax
	je	.LBB23_6
# %bb.22:                               # %ctrl5
	cmpl	$6, %eax
	je	.LBB23_7
# %bb.23:                               # %ctrl6
	cmpl	$7, %eax
	je	.LBB23_8
# %bb.24:                               # %ctrl7
	cmpl	$8, %eax
	je	.LBB23_9
# %bb.25:                               # %ctrl8
	cmpl	$9, %eax
	je	.LBB23_10
# %bb.26:                               # %ctrl9
	cmpl	$10, %eax
	je	.LBB23_11
# %bb.27:                               # %ctrl10
	cmpl	$11, %eax
	je	.LBB23_12
# %bb.28:                               # %ctrl11
	cmpl	$12, %eax
	je	.LBB23_13
# %bb.29:                               # %ctrl12
	cmpl	$13, %eax
	je	.LBB23_14
# %bb.30:                               # %ctrl13
	cmpl	$14, %eax
	je	.LBB23_15
	jmp	.LBB23_16
.Lfunc_end23:
	.size	get_mem4Dshort, .Lfunc_end23-get_mem4Dshort
	.cfi_endproc
                                        # -- End function
	.globl	free_mem2Dshort         # -- Begin function free_mem2Dshort
	.p2align	4, 0x90
	.type	free_mem2Dshort,@function
free_mem2Dshort:                        # @free_mem2Dshort
	.cfi_startproc
# %bb.0:                                # %entry
	pushq	%rbp
	.cfi_def_cfa_offset 16
	.cfi_offset %rbp, -16
	movq	%rsp, %rbp
	.cfi_def_cfa_register %rbp
	subq	$16, %rsp
	movq	%rdi, -8(%rbp)
	cmpq	$0, -8(%rbp)
	je	.LBB24_5
# %bb.1:                                # %if.then
	movq	-8(%rbp), %rax
	cmpq	$0, (%rax)
	je	.LBB24_3
# %bb.2:                                # %if.then2
	movq	-8(%rbp), %rax
	movq	(%rax), %rdi
	callq	free
	jmp	.LBB24_4
.LBB24_3:                               # %if.else
	movabsq	$.L.str.24, %rdi
	movl	$100, %esi
	callq	error
.LBB24_4:                               # %if.end
	movq	-8(%rbp), %rdi
	callq	free
	jmp	.LBB24_6
.LBB24_5:                               # %if.else4
	movabsq	$.L.str.24, %rdi
	movl	$100, %esi
	callq	error
.LBB24_6:                               # %if.end5
	addq	$16, %rsp
	popq	%rbp
	.cfi_def_cfa %rsp, 8
	retq
.Lfunc_end24:
	.size	free_mem2Dshort, .Lfunc_end24-free_mem2Dshort
	.cfi_endproc
                                        # -- End function
	.globl	free_mem3Dshort         # -- Begin function free_mem3Dshort
	.p2align	4, 0x90
	.type	free_mem3Dshort,@function
free_mem3Dshort:                        # @free_mem3Dshort
	.cfi_startproc
# %bb.0:                                # %rand_bb
	pushq	%rbp
	.cfi_def_cfa_offset 16
	.cfi_offset %rbp, -16
	movq	%rsp, %rbp
	.cfi_def_cfa_register %rbp
	pushq	%r14
	pushq	%rbx
	.cfi_offset %rbx, -32
	.cfi_offset %r14, -24
	movl	%esi, %r14d
	movq	%rdi, %rbx
	callq	get_rand
	cmpl	$0, %eax
	jne	.LBB25_7
# %bb.1:                                # %func_free_mem3Dshort.109
	movq	%rbx, %rdi
	movl	%r14d, %esi
	callq	free_mem3Dshort.109
	popq	%rbx
	popq	%r14
	popq	%rbp
	.cfi_def_cfa %rsp, 8
	retq
.LBB25_2:                               # %func_free_mem3Dshort.124
	.cfi_def_cfa %rbp, 16
	movq	%rbx, %rdi
	movl	%r14d, %esi
	callq	free_mem3Dshort.124
	popq	%rbx
	popq	%r14
	popq	%rbp
	.cfi_def_cfa %rsp, 8
	retq
.LBB25_3:                               # %func_free_mem3Dshort.130
	.cfi_def_cfa %rbp, 16
	movq	%rbx, %rdi
	movl	%r14d, %esi
	callq	free_mem3Dshort.130
	popq	%rbx
	popq	%r14
	popq	%rbp
	.cfi_def_cfa %rsp, 8
	retq
.LBB25_4:                               # %func_free_mem3Dshort.152
	.cfi_def_cfa %rbp, 16
	movq	%rbx, %rdi
	movl	%r14d, %esi
	callq	free_mem3Dshort.152
	popq	%rbx
	popq	%r14
	popq	%rbp
	.cfi_def_cfa %rsp, 8
	retq
.LBB25_5:                               # %func_free_mem3Dshort.160
	.cfi_def_cfa %rbp, 16
	movq	%rbx, %rdi
	movl	%r14d, %esi
	callq	free_mem3Dshort.160
	popq	%rbx
	popq	%r14
	popq	%rbp
	.cfi_def_cfa %rsp, 8
	retq
.LBB25_6:                               # %func_free_mem3Dshort.163
	.cfi_def_cfa %rbp, 16
	movq	%rbx, %rdi
	movl	%r14d, %esi
	callq	free_mem3Dshort.163
	popq	%rbx
	popq	%r14
	popq	%rbp
	.cfi_def_cfa %rsp, 8
	retq
.LBB25_7:                               # %ctrl0
	.cfi_def_cfa %rbp, 16
	cmpl	$1, %eax
	je	.LBB25_2
# %bb.8:                                # %ctrl1
	cmpl	$2, %eax
	je	.LBB25_3
# %bb.9:                                # %ctrl2
	cmpl	$3, %eax
	je	.LBB25_4
# %bb.10:                               # %ctrl3
	cmpl	$4, %eax
	je	.LBB25_5
	jmp	.LBB25_6
.Lfunc_end25:
	.size	free_mem3Dshort, .Lfunc_end25-free_mem3Dshort
	.cfi_endproc
                                        # -- End function
	.globl	free_mem4Dshort         # -- Begin function free_mem4Dshort
	.p2align	4, 0x90
	.type	free_mem4Dshort,@function
free_mem4Dshort:                        # @free_mem4Dshort
	.cfi_startproc
# %bb.0:                                # %rand_bb
	pushq	%rbp
	.cfi_def_cfa_offset 16
	.cfi_offset %rbp, -16
	movq	%rsp, %rbp
	.cfi_def_cfa_register %rbp
	pushq	%r15
	pushq	%r14
	pushq	%rbx
	pushq	%rax
	.cfi_offset %rbx, -40
	.cfi_offset %r14, -32
	.cfi_offset %r15, -24
	movl	%edx, %r14d
	movl	%esi, %r15d
	movq	%rdi, %rbx
	callq	get_rand
	cmpl	$0, %eax
	jne	.LBB26_17
# %bb.1:                                # %func_free_mem4Dshort.19
	movq	%rbx, %rdi
	movl	%r15d, %esi
	movl	%r14d, %edx
	callq	free_mem4Dshort.19
	addq	$8, %rsp
	popq	%rbx
	popq	%r14
	popq	%r15
	popq	%rbp
	.cfi_def_cfa %rsp, 8
	retq
.LBB26_2:                               # %func_free_mem4Dshort.27
	.cfi_def_cfa %rbp, 16
	movq	%rbx, %rdi
	movl	%r15d, %esi
	movl	%r14d, %edx
	callq	free_mem4Dshort.27
	addq	$8, %rsp
	popq	%rbx
	popq	%r14
	popq	%r15
	popq	%rbp
	.cfi_def_cfa %rsp, 8
	retq
.LBB26_3:                               # %func_free_mem4Dshort.42
	.cfi_def_cfa %rbp, 16
	movq	%rbx, %rdi
	movl	%r15d, %esi
	movl	%r14d, %edx
	callq	free_mem4Dshort.42
	addq	$8, %rsp
	popq	%rbx
	popq	%r14
	popq	%r15
	popq	%rbp
	.cfi_def_cfa %rsp, 8
	retq
.LBB26_4:                               # %func_free_mem4Dshort.44
	.cfi_def_cfa %rbp, 16
	movq	%rbx, %rdi
	movl	%r15d, %esi
	movl	%r14d, %edx
	callq	free_mem4Dshort.44
	addq	$8, %rsp
	popq	%rbx
	popq	%r14
	popq	%r15
	popq	%rbp
	.cfi_def_cfa %rsp, 8
	retq
.LBB26_5:                               # %func_free_mem4Dshort.61
	.cfi_def_cfa %rbp, 16
	movq	%rbx, %rdi
	movl	%r15d, %esi
	movl	%r14d, %edx
	callq	free_mem4Dshort.61
	addq	$8, %rsp
	popq	%rbx
	popq	%r14
	popq	%r15
	popq	%rbp
	.cfi_def_cfa %rsp, 8
	retq
.LBB26_6:                               # %func_free_mem4Dshort.89
	.cfi_def_cfa %rbp, 16
	movq	%rbx, %rdi
	movl	%r15d, %esi
	movl	%r14d, %edx
	callq	free_mem4Dshort.89
	addq	$8, %rsp
	popq	%rbx
	popq	%r14
	popq	%r15
	popq	%rbp
	.cfi_def_cfa %rsp, 8
	retq
.LBB26_7:                               # %func_free_mem4Dshort.91
	.cfi_def_cfa %rbp, 16
	movq	%rbx, %rdi
	movl	%r15d, %esi
	movl	%r14d, %edx
	callq	free_mem4Dshort.91
	addq	$8, %rsp
	popq	%rbx
	popq	%r14
	popq	%r15
	popq	%rbp
	.cfi_def_cfa %rsp, 8
	retq
.LBB26_8:                               # %func_free_mem4Dshort.114
	.cfi_def_cfa %rbp, 16
	movq	%rbx, %rdi
	movl	%r15d, %esi
	movl	%r14d, %edx
	callq	free_mem4Dshort.114
	addq	$8, %rsp
	popq	%rbx
	popq	%r14
	popq	%r15
	popq	%rbp
	.cfi_def_cfa %rsp, 8
	retq
.LBB26_9:                               # %func_free_mem4Dshort.116
	.cfi_def_cfa %rbp, 16
	movq	%rbx, %rdi
	movl	%r15d, %esi
	movl	%r14d, %edx
	callq	free_mem4Dshort.116
	addq	$8, %rsp
	popq	%rbx
	popq	%r14
	popq	%r15
	popq	%rbp
	.cfi_def_cfa %rsp, 8
	retq
.LBB26_10:                              # %func_free_mem4Dshort.157
	.cfi_def_cfa %rbp, 16
	movq	%rbx, %rdi
	movl	%r15d, %esi
	movl	%r14d, %edx
	callq	free_mem4Dshort.157
	addq	$8, %rsp
	popq	%rbx
	popq	%r14
	popq	%r15
	popq	%rbp
	.cfi_def_cfa %rsp, 8
	retq
.LBB26_11:                              # %func_free_mem4Dshort.169
	.cfi_def_cfa %rbp, 16
	movq	%rbx, %rdi
	movl	%r15d, %esi
	movl	%r14d, %edx
	callq	free_mem4Dshort.169
	addq	$8, %rsp
	popq	%rbx
	popq	%r14
	popq	%r15
	popq	%rbp
	.cfi_def_cfa %rsp, 8
	retq
.LBB26_12:                              # %func_free_mem4Dshort.182
	.cfi_def_cfa %rbp, 16
	movq	%rbx, %rdi
	movl	%r15d, %esi
	movl	%r14d, %edx
	callq	free_mem4Dshort.182
	addq	$8, %rsp
	popq	%rbx
	popq	%r14
	popq	%r15
	popq	%rbp
	.cfi_def_cfa %rsp, 8
	retq
.LBB26_13:                              # %func_free_mem4Dshort.183
	.cfi_def_cfa %rbp, 16
	movq	%rbx, %rdi
	movl	%r15d, %esi
	movl	%r14d, %edx
	callq	free_mem4Dshort.183
	addq	$8, %rsp
	popq	%rbx
	popq	%r14
	popq	%r15
	popq	%rbp
	.cfi_def_cfa %rsp, 8
	retq
.LBB26_14:                              # %func_free_mem4Dshort.184
	.cfi_def_cfa %rbp, 16
	movq	%rbx, %rdi
	movl	%r15d, %esi
	movl	%r14d, %edx
	callq	free_mem4Dshort.184
	addq	$8, %rsp
	popq	%rbx
	popq	%r14
	popq	%r15
	popq	%rbp
	.cfi_def_cfa %rsp, 8
	retq
.LBB26_15:                              # %func_free_mem4Dshort.186
	.cfi_def_cfa %rbp, 16
	movq	%rbx, %rdi
	movl	%r15d, %esi
	movl	%r14d, %edx
	callq	free_mem4Dshort.186
	addq	$8, %rsp
	popq	%rbx
	popq	%r14
	popq	%r15
	popq	%rbp
	.cfi_def_cfa %rsp, 8
	retq
.LBB26_16:                              # %func_free_mem4Dshort.188
	.cfi_def_cfa %rbp, 16
	movq	%rbx, %rdi
	movl	%r15d, %esi
	movl	%r14d, %edx
	callq	free_mem4Dshort.188
	addq	$8, %rsp
	popq	%rbx
	popq	%r14
	popq	%r15
	popq	%rbp
	.cfi_def_cfa %rsp, 8
	retq
.LBB26_17:                              # %ctrl0
	.cfi_def_cfa %rbp, 16
	cmpl	$1, %eax
	je	.LBB26_2
# %bb.18:                               # %ctrl1
	cmpl	$2, %eax
	je	.LBB26_3
# %bb.19:                               # %ctrl2
	cmpl	$3, %eax
	je	.LBB26_4
# %bb.20:                               # %ctrl3
	cmpl	$4, %eax
	je	.LBB26_5
# %bb.21:                               # %ctrl4
	cmpl	$5, %eax
	je	.LBB26_6
# %bb.22:                               # %ctrl5
	cmpl	$6, %eax
	je	.LBB26_7
# %bb.23:                               # %ctrl6
	cmpl	$7, %eax
	je	.LBB26_8
# %bb.24:                               # %ctrl7
	cmpl	$8, %eax
	je	.LBB26_9
# %bb.25:                               # %ctrl8
	cmpl	$9, %eax
	je	.LBB26_10
# %bb.26:                               # %ctrl9
	cmpl	$10, %eax
	je	.LBB26_11
# %bb.27:                               # %ctrl10
	cmpl	$11, %eax
	je	.LBB26_12
# %bb.28:                               # %ctrl11
	cmpl	$12, %eax
	je	.LBB26_13
# %bb.29:                               # %ctrl12
	cmpl	$13, %eax
	je	.LBB26_14
# %bb.30:                               # %ctrl13
	cmpl	$14, %eax
	je	.LBB26_15
	jmp	.LBB26_16
.Lfunc_end26:
	.size	free_mem4Dshort, .Lfunc_end26-free_mem4Dshort
	.cfi_endproc
                                        # -- End function
	.globl	get_mem3D.1             # -- Begin function get_mem3D.1
	.p2align	4, 0x90
	.type	get_mem3D.1,@function
get_mem3D.1:                            # @get_mem3D.1
	.cfi_startproc
# %bb.0:                                # %entry
	pushq	%rbp
	.cfi_def_cfa_offset 16
	.cfi_offset %rbp, -16
	movq	%rsp, %rbp
	.cfi_def_cfa_register %rbp
	pushq	%rbx
	subq	$40, %rsp
	.cfi_offset %rbx, -24
	movl	$336588004, -28(%rbp)   # imm = 0x140FECE4
	movq	%rdi, -40(%rbp)
	movl	%esi, -16(%rbp)
	movl	%edx, -20(%rbp)
	movl	%ecx, -24(%rbp)
	movslq	-16(%rbp), %rdi
	movl	$8, %esi
	callq	calloc
	movq	-40(%rbp), %rcx
	movq	%rax, (%rcx)
	cmpq	$0, %rax
	jne	.LBB27_2
# %bb.1:                                # %if.then
	movabsq	$.L.str.9, %rdi
	callq	no_mem_exit
.LBB27_2:                               # %if.end
	movl	$0, -12(%rbp)
.LBB27_3:                               # %for.cond
                                        # =>This Inner Loop Header: Depth=1
	movl	-12(%rbp), %eax
	cmpl	-16(%rbp), %eax
	jge	.LBB27_6
# %bb.4:                                # %for.body
                                        #   in Loop: Header=BB27_3 Depth=1
	movq	-40(%rbp), %rax
	movq	(%rax), %rdi
	movslq	-12(%rbp), %rax
	shlq	$3, %rax
	addq	%rax, %rdi
	movl	-20(%rbp), %esi
	movl	-24(%rbp), %edx
	callq	get_mem2D
# %bb.5:                                # %for.inc
                                        #   in Loop: Header=BB27_3 Depth=1
	movl	-12(%rbp), %eax
	addl	$1, %eax
	movl	%eax, -12(%rbp)
	jmp	.LBB27_3
.LBB27_6:                               # %for.end
	movl	-16(%rbp), %ebx
	imull	-20(%rbp), %ebx
	imull	-24(%rbp), %ebx
	cmpl	$336588004, -28(%rbp)   # imm = 0x140FECE4
	jne	.LBB27_8
.LBB27_7:
	movl	%ebx, %eax
	addq	$40, %rsp
	popq	%rbx
	popq	%rbp
	.cfi_def_cfa %rsp, 8
	retq
.LBB27_8:                               # %func_exit
	.cfi_def_cfa %rbp, 16
	callq	detect_breach
	jmp	.LBB27_7
.Lfunc_end27:
	.size	get_mem3D.1, .Lfunc_end27-get_mem3D.1
	.cfi_endproc
                                        # -- End function
	.globl	get_mem2Dpel.2          # -- Begin function get_mem2Dpel.2
	.p2align	4, 0x90
	.type	get_mem2Dpel.2,@function
get_mem2Dpel.2:                         # @get_mem2Dpel.2
	.cfi_startproc
# %bb.0:                                # %entry
	pushq	%rbp
	.cfi_def_cfa_offset 16
	.cfi_offset %rbp, -16
	movq	%rsp, %rbp
	.cfi_def_cfa_register %rbp
	pushq	%rbx
	subq	$40, %rsp
	.cfi_offset %rbx, -24
	movl	$1252267084, -36(%rbp)  # imm = 0x4AA4144C
	movq	%rdi, -32(%rbp)
	movl	%esi, -16(%rbp)
	movl	%edx, -20(%rbp)
	movslq	-16(%rbp), %rdi
	movl	$8, %esi
	callq	calloc
	movq	-32(%rbp), %rcx
	movq	%rax, (%rcx)
	cmpq	$0, %rax
	jne	.LBB28_2
# %bb.1:                                # %if.then
	movabsq	$.L.str.2, %rdi
	callq	no_mem_exit
.LBB28_2:                               # %if.end
	movl	-16(%rbp), %eax
	imull	-20(%rbp), %eax
	movslq	%eax, %rdi
	movl	$2, %esi
	callq	calloc
	movq	-32(%rbp), %rcx
	movq	(%rcx), %rcx
	movq	%rax, (%rcx)
	cmpq	$0, %rax
	jne	.LBB28_4
# %bb.3:                                # %if.then6
	movabsq	$.L.str.2, %rdi
	callq	no_mem_exit
.LBB28_4:                               # %if.end7
	movl	$1, -12(%rbp)
.LBB28_5:                               # %for.cond
                                        # =>This Inner Loop Header: Depth=1
	movl	-12(%rbp), %eax
	cmpl	-16(%rbp), %eax
	jge	.LBB28_8
# %bb.6:                                # %for.body
                                        #   in Loop: Header=BB28_5 Depth=1
	movq	-32(%rbp), %rax
	movq	(%rax), %rax
	movl	-12(%rbp), %ecx
	subl	$1, %ecx
	movslq	%ecx, %rcx
	movq	(%rax,%rcx,8), %rax
	movslq	-20(%rbp), %rcx
	shlq	$1, %rcx
	addq	%rcx, %rax
	movq	-32(%rbp), %rcx
	movq	(%rcx), %rcx
	movslq	-12(%rbp), %rdx
	movq	%rax, (%rcx,%rdx,8)
# %bb.7:                                # %for.inc
                                        #   in Loop: Header=BB28_5 Depth=1
	movl	-12(%rbp), %eax
	addl	$1, %eax
	movl	%eax, -12(%rbp)
	jmp	.LBB28_5
.LBB28_8:                               # %for.end
	movl	-16(%rbp), %eax
	imull	-20(%rbp), %eax
	movslq	%eax, %rbx
	shlq	$1, %rbx
	cmpl	$1252267084, -36(%rbp)  # imm = 0x4AA4144C
	jne	.LBB28_10
.LBB28_9:
	movl	%ebx, %eax
	addq	$40, %rsp
	popq	%rbx
	popq	%rbp
	.cfi_def_cfa %rsp, 8
	retq
.LBB28_10:                              # %func_exit
	.cfi_def_cfa %rbp, 16
	callq	detect_breach
	jmp	.LBB28_9
.Lfunc_end28:
	.size	get_mem2Dpel.2, .Lfunc_end28-get_mem2Dpel.2
	.cfi_endproc
                                        # -- End function
	.globl	get_mem3D.3             # -- Begin function get_mem3D.3
	.p2align	4, 0x90
	.type	get_mem3D.3,@function
get_mem3D.3:                            # @get_mem3D.3
	.cfi_startproc
# %bb.0:                                # %entry
	pushq	%rbp
	.cfi_def_cfa_offset 16
	.cfi_offset %rbp, -16
	movq	%rsp, %rbp
	.cfi_def_cfa_register %rbp
	pushq	%rbx
	subq	$40, %rsp
	.cfi_offset %rbx, -24
	movl	$1699180044, -28(%rbp)  # imm = 0x65476E0C
	movq	%rdi, -40(%rbp)
	movl	%esi, -16(%rbp)
	movl	%edx, -20(%rbp)
	movl	%ecx, -24(%rbp)
	movslq	-16(%rbp), %rdi
	movl	$8, %esi
	callq	calloc
	movq	-40(%rbp), %rcx
	movq	%rax, (%rcx)
	cmpq	$0, %rax
	jne	.LBB29_2
# %bb.1:                                # %if.then
	movabsq	$.L.str.9, %rdi
	callq	no_mem_exit
.LBB29_2:                               # %if.end
	movl	$0, -12(%rbp)
.LBB29_3:                               # %for.cond
                                        # =>This Inner Loop Header: Depth=1
	movl	-12(%rbp), %eax
	cmpl	-16(%rbp), %eax
	jge	.LBB29_6
# %bb.4:                                # %for.body
                                        #   in Loop: Header=BB29_3 Depth=1
	movq	-40(%rbp), %rax
	movq	(%rax), %rdi
	movslq	-12(%rbp), %rax
	shlq	$3, %rax
	addq	%rax, %rdi
	movl	-20(%rbp), %esi
	movl	-24(%rbp), %edx
	callq	get_mem2D
# %bb.5:                                # %for.inc
                                        #   in Loop: Header=BB29_3 Depth=1
	movl	-12(%rbp), %eax
	addl	$1, %eax
	movl	%eax, -12(%rbp)
	jmp	.LBB29_3
.LBB29_6:                               # %for.end
	movl	-16(%rbp), %ebx
	imull	-20(%rbp), %ebx
	imull	-24(%rbp), %ebx
	cmpl	$1699180044, -28(%rbp)  # imm = 0x65476E0C
	jne	.LBB29_8
.LBB29_7:
	movl	%ebx, %eax
	addq	$40, %rsp
	popq	%rbx
	popq	%rbp
	.cfi_def_cfa %rsp, 8
	retq
.LBB29_8:                               # %func_exit
	.cfi_def_cfa %rbp, 16
	callq	detect_breach
	jmp	.LBB29_7
.Lfunc_end29:
	.size	get_mem3D.3, .Lfunc_end29-get_mem3D.3
	.cfi_endproc
                                        # -- End function
	.globl	get_mem3Dint64.4        # -- Begin function get_mem3Dint64.4
	.p2align	4, 0x90
	.type	get_mem3Dint64.4,@function
get_mem3Dint64.4:                       # @get_mem3Dint64.4
	.cfi_startproc
# %bb.0:                                # %entry
	pushq	%rbp
	.cfi_def_cfa_offset 16
	.cfi_offset %rbp, -16
	movq	%rsp, %rbp
	.cfi_def_cfa_register %rbp
	pushq	%rbx
	subq	$40, %rsp
	.cfi_offset %rbx, -24
	movl	$507945893, -28(%rbp)   # imm = 0x1E46A3A5
	movq	%rdi, -40(%rbp)
	movl	%esi, -16(%rbp)
	movl	%edx, -24(%rbp)
	movl	%ecx, -20(%rbp)
	movslq	-16(%rbp), %rdi
	movl	$8, %esi
	callq	calloc
	movq	-40(%rbp), %rcx
	movq	%rax, (%rcx)
	cmpq	$0, %rax
	jne	.LBB30_2
# %bb.1:                                # %if.then
	movabsq	$.L.str.11, %rdi
	callq	no_mem_exit
.LBB30_2:                               # %if.end
	movl	$0, -12(%rbp)
.LBB30_3:                               # %for.cond
                                        # =>This Inner Loop Header: Depth=1
	movl	-12(%rbp), %eax
	cmpl	-16(%rbp), %eax
	jge	.LBB30_6
# %bb.4:                                # %for.body
                                        #   in Loop: Header=BB30_3 Depth=1
	movq	-40(%rbp), %rax
	movq	(%rax), %rdi
	movslq	-12(%rbp), %rax
	shlq	$3, %rax
	addq	%rax, %rdi
	movl	-24(%rbp), %esi
	movl	-20(%rbp), %edx
	callq	get_mem2Dint64
# %bb.5:                                # %for.inc
                                        #   in Loop: Header=BB30_3 Depth=1
	movl	-12(%rbp), %eax
	addl	$1, %eax
	movl	%eax, -12(%rbp)
	jmp	.LBB30_3
.LBB30_6:                               # %for.end
	movl	-16(%rbp), %eax
	imull	-24(%rbp), %eax
	imull	-20(%rbp), %eax
	movslq	%eax, %rbx
	shlq	$3, %rbx
	cmpl	$507945893, -28(%rbp)   # imm = 0x1E46A3A5
	jne	.LBB30_8
.LBB30_7:
	movl	%ebx, %eax
	addq	$40, %rsp
	popq	%rbx
	popq	%rbp
	.cfi_def_cfa %rsp, 8
	retq
.LBB30_8:                               # %func_exit
	.cfi_def_cfa %rbp, 16
	callq	detect_breach
	jmp	.LBB30_7
.Lfunc_end30:
	.size	get_mem3Dint64.4, .Lfunc_end30-get_mem3Dint64.4
	.cfi_endproc
                                        # -- End function
	.globl	get_mem3Dshort.5        # -- Begin function get_mem3Dshort.5
	.p2align	4, 0x90
	.type	get_mem3Dshort.5,@function
get_mem3Dshort.5:                       # @get_mem3Dshort.5
	.cfi_startproc
# %bb.0:                                # %entry
	pushq	%rbp
	.cfi_def_cfa_offset 16
	.cfi_offset %rbp, -16
	movq	%rsp, %rbp
	.cfi_def_cfa_register %rbp
	pushq	%rbx
	subq	$40, %rsp
	.cfi_offset %rbx, -24
	movl	$174610863, -28(%rbp)   # imm = 0xA6859AF
	movq	%rdi, -40(%rbp)
	movl	%esi, -16(%rbp)
	movl	%edx, -24(%rbp)
	movl	%ecx, -20(%rbp)
	movslq	-16(%rbp), %rdi
	movl	$8, %esi
	callq	calloc
	movq	-40(%rbp), %rcx
	movq	%rax, (%rcx)
	cmpq	$0, %rax
	jne	.LBB31_2
# %bb.1:                                # %if.then
	movabsq	$.L.str.22, %rdi
	callq	no_mem_exit
.LBB31_2:                               # %if.end
	movl	$0, -12(%rbp)
.LBB31_3:                               # %for.cond
                                        # =>This Inner Loop Header: Depth=1
	movl	-12(%rbp), %eax
	cmpl	-16(%rbp), %eax
	jge	.LBB31_6
# %bb.4:                                # %for.body
                                        #   in Loop: Header=BB31_3 Depth=1
	movq	-40(%rbp), %rax
	movq	(%rax), %rdi
	movslq	-12(%rbp), %rax
	shlq	$3, %rax
	addq	%rax, %rdi
	movl	-24(%rbp), %esi
	movl	-20(%rbp), %edx
	callq	get_mem2Dshort
# %bb.5:                                # %for.inc
                                        #   in Loop: Header=BB31_3 Depth=1
	movl	-12(%rbp), %eax
	addl	$1, %eax
	movl	%eax, -12(%rbp)
	jmp	.LBB31_3
.LBB31_6:                               # %for.end
	movl	-16(%rbp), %eax
	imull	-24(%rbp), %eax
	imull	-20(%rbp), %eax
	movslq	%eax, %rbx
	shlq	$1, %rbx
	cmpl	$174610863, -28(%rbp)   # imm = 0xA6859AF
	jne	.LBB31_8
.LBB31_7:
	movl	%ebx, %eax
	addq	$40, %rsp
	popq	%rbx
	popq	%rbp
	.cfi_def_cfa %rsp, 8
	retq
.LBB31_8:                               # %func_exit
	.cfi_def_cfa %rbp, 16
	callq	detect_breach
	jmp	.LBB31_7
.Lfunc_end31:
	.size	get_mem3Dshort.5, .Lfunc_end31-get_mem3Dshort.5
	.cfi_endproc
                                        # -- End function
	.globl	get_mem2Dshort.6        # -- Begin function get_mem2Dshort.6
	.p2align	4, 0x90
	.type	get_mem2Dshort.6,@function
get_mem2Dshort.6:                       # @get_mem2Dshort.6
	.cfi_startproc
# %bb.0:                                # %entry
	pushq	%rbp
	.cfi_def_cfa_offset 16
	.cfi_offset %rbp, -16
	movq	%rsp, %rbp
	.cfi_def_cfa_register %rbp
	pushq	%rbx
	subq	$40, %rsp
	.cfi_offset %rbx, -24
	movl	$1945137802, -36(%rbp)  # imm = 0x73F0728A
	movq	%rdi, -32(%rbp)
	movl	%esi, -16(%rbp)
	movl	%edx, -20(%rbp)
	movslq	-16(%rbp), %rdi
	movl	$8, %esi
	callq	calloc
	movq	-32(%rbp), %rcx
	movq	%rax, (%rcx)
	cmpq	$0, %rax
	jne	.LBB32_2
# %bb.1:                                # %if.then
	movabsq	$.L.str.21, %rdi
	callq	no_mem_exit
.LBB32_2:                               # %if.end
	movl	-16(%rbp), %eax
	imull	-20(%rbp), %eax
	movslq	%eax, %rdi
	movl	$2, %esi
	callq	calloc
	movq	-32(%rbp), %rcx
	movq	(%rcx), %rcx
	movq	%rax, (%rcx)
	cmpq	$0, %rax
	jne	.LBB32_4
# %bb.3:                                # %if.then6
	movabsq	$.L.str.21, %rdi
	callq	no_mem_exit
.LBB32_4:                               # %if.end7
	movl	$1, -12(%rbp)
.LBB32_5:                               # %for.cond
                                        # =>This Inner Loop Header: Depth=1
	movl	-12(%rbp), %eax
	cmpl	-16(%rbp), %eax
	jge	.LBB32_8
# %bb.6:                                # %for.body
                                        #   in Loop: Header=BB32_5 Depth=1
	movq	-32(%rbp), %rax
	movq	(%rax), %rax
	movl	-12(%rbp), %ecx
	subl	$1, %ecx
	movslq	%ecx, %rcx
	movq	(%rax,%rcx,8), %rax
	movslq	-20(%rbp), %rcx
	shlq	$1, %rcx
	addq	%rcx, %rax
	movq	-32(%rbp), %rcx
	movq	(%rcx), %rcx
	movslq	-12(%rbp), %rdx
	movq	%rax, (%rcx,%rdx,8)
# %bb.7:                                # %for.inc
                                        #   in Loop: Header=BB32_5 Depth=1
	movl	-12(%rbp), %eax
	addl	$1, %eax
	movl	%eax, -12(%rbp)
	jmp	.LBB32_5
.LBB32_8:                               # %for.end
	movl	-16(%rbp), %eax
	imull	-20(%rbp), %eax
	movslq	%eax, %rbx
	shlq	$1, %rbx
	cmpl	$1945137802, -36(%rbp)  # imm = 0x73F0728A
	jne	.LBB32_10
.LBB32_9:
	movl	%ebx, %eax
	addq	$40, %rsp
	popq	%rbx
	popq	%rbp
	.cfi_def_cfa %rsp, 8
	retq
.LBB32_10:                              # %func_exit
	.cfi_def_cfa %rbp, 16
	callq	detect_breach
	jmp	.LBB32_9
.Lfunc_end32:
	.size	get_mem2Dshort.6, .Lfunc_end32-get_mem2Dshort.6
	.cfi_endproc
                                        # -- End function
	.globl	get_mem2Dint64.7        # -- Begin function get_mem2Dint64.7
	.p2align	4, 0x90
	.type	get_mem2Dint64.7,@function
get_mem2Dint64.7:                       # @get_mem2Dint64.7
	.cfi_startproc
# %bb.0:                                # %entry
	pushq	%rbp
	.cfi_def_cfa_offset 16
	.cfi_offset %rbp, -16
	movq	%rsp, %rbp
	.cfi_def_cfa_register %rbp
	pushq	%rbx
	subq	$40, %rsp
	.cfi_offset %rbx, -24
	movl	$803882743, -36(%rbp)   # imm = 0x2FEA46F7
	movq	%rdi, -32(%rbp)
	movl	%esi, -16(%rbp)
	movl	%edx, -20(%rbp)
	movslq	-16(%rbp), %rdi
	movl	$8, %esi
	callq	calloc
	movq	-32(%rbp), %rcx
	movq	%rax, (%rcx)
	cmpq	$0, %rax
	jne	.LBB33_2
# %bb.1:                                # %if.then
	movabsq	$.L.str.8, %rdi
	callq	no_mem_exit
.LBB33_2:                               # %if.end
	movl	-16(%rbp), %eax
	imull	-20(%rbp), %eax
	movslq	%eax, %rdi
	movl	$8, %esi
	callq	calloc
	movq	-32(%rbp), %rcx
	movq	(%rcx), %rcx
	movq	%rax, (%rcx)
	cmpq	$0, %rax
	jne	.LBB33_4
# %bb.3:                                # %if.then6
	movabsq	$.L.str.8, %rdi
	callq	no_mem_exit
.LBB33_4:                               # %if.end7
	movl	$1, -12(%rbp)
.LBB33_5:                               # %for.cond
                                        # =>This Inner Loop Header: Depth=1
	movl	-12(%rbp), %eax
	cmpl	-16(%rbp), %eax
	jge	.LBB33_8
# %bb.6:                                # %for.body
                                        #   in Loop: Header=BB33_5 Depth=1
	movq	-32(%rbp), %rax
	movq	(%rax), %rax
	movl	-12(%rbp), %ecx
	subl	$1, %ecx
	movslq	%ecx, %rcx
	movq	(%rax,%rcx,8), %rax
	movslq	-20(%rbp), %rcx
	shlq	$3, %rcx
	addq	%rcx, %rax
	movq	-32(%rbp), %rcx
	movq	(%rcx), %rcx
	movslq	-12(%rbp), %rdx
	movq	%rax, (%rcx,%rdx,8)
# %bb.7:                                # %for.inc
                                        #   in Loop: Header=BB33_5 Depth=1
	movl	-12(%rbp), %eax
	addl	$1, %eax
	movl	%eax, -12(%rbp)
	jmp	.LBB33_5
.LBB33_8:                               # %for.end
	movl	-16(%rbp), %eax
	imull	-20(%rbp), %eax
	movslq	%eax, %rbx
	shlq	$3, %rbx
	cmpl	$803882743, -36(%rbp)   # imm = 0x2FEA46F7
	jne	.LBB33_10
.LBB33_9:
	movl	%ebx, %eax
	addq	$40, %rsp
	popq	%rbx
	popq	%rbp
	.cfi_def_cfa %rsp, 8
	retq
.LBB33_10:                              # %func_exit
	.cfi_def_cfa %rbp, 16
	callq	detect_breach
	jmp	.LBB33_9
.Lfunc_end33:
	.size	get_mem2Dint64.7, .Lfunc_end33-get_mem2Dint64.7
	.cfi_endproc
                                        # -- End function
	.globl	free_mem3Dint64.8       # -- Begin function free_mem3Dint64.8
	.p2align	4, 0x90
	.type	free_mem3Dint64.8,@function
free_mem3Dint64.8:                      # @free_mem3Dint64.8
	.cfi_startproc
# %bb.0:                                # %entry
	pushq	%rbp
	.cfi_def_cfa_offset 16
	.cfi_offset %rbp, -16
	movq	%rsp, %rbp
	.cfi_def_cfa_register %rbp
	subq	$32, %rsp
	movl	$1038715269, -20(%rbp)  # imm = 0x3DE98985
	movq	%rdi, -16(%rbp)
	movl	%esi, -24(%rbp)
	cmpq	$0, -16(%rbp)
	je	.LBB34_6
# %bb.1:                                # %if.then
	movl	$0, -4(%rbp)
.LBB34_2:                               # %for.cond
                                        # =>This Inner Loop Header: Depth=1
	movl	-4(%rbp), %eax
	cmpl	-24(%rbp), %eax
	jge	.LBB34_5
# %bb.3:                                # %for.body
                                        #   in Loop: Header=BB34_2 Depth=1
	movq	-16(%rbp), %rax
	movslq	-4(%rbp), %rcx
	movq	(%rax,%rcx,8), %rdi
	callq	free_mem2Dint64
# %bb.4:                                # %for.inc
                                        #   in Loop: Header=BB34_2 Depth=1
	movl	-4(%rbp), %eax
	addl	$1, %eax
	movl	%eax, -4(%rbp)
	jmp	.LBB34_2
.LBB34_5:                               # %for.end
	movq	-16(%rbp), %rdi
	callq	free
	jmp	.LBB34_7
.LBB34_6:                               # %if.else
	movabsq	$.L.str.18, %rdi
	movl	$100, %esi
	callq	error
.LBB34_7:                               # %if.end
	cmpl	$1038715269, -20(%rbp)  # imm = 0x3DE98985
	jne	.LBB34_9
.LBB34_8:
	addq	$32, %rsp
	popq	%rbp
	.cfi_def_cfa %rsp, 8
	retq
.LBB34_9:                               # %func_exit
	.cfi_def_cfa %rbp, 16
	callq	detect_breach
	jmp	.LBB34_8
.Lfunc_end34:
	.size	free_mem3Dint64.8, .Lfunc_end34-free_mem3Dint64.8
	.cfi_endproc
                                        # -- End function
	.globl	get_mem2Dint64.9        # -- Begin function get_mem2Dint64.9
	.p2align	4, 0x90
	.type	get_mem2Dint64.9,@function
get_mem2Dint64.9:                       # @get_mem2Dint64.9
	.cfi_startproc
# %bb.0:                                # %entry
	pushq	%rbp
	.cfi_def_cfa_offset 16
	.cfi_offset %rbp, -16
	movq	%rsp, %rbp
	.cfi_def_cfa_register %rbp
	pushq	%rbx
	subq	$40, %rsp
	.cfi_offset %rbx, -24
	movl	$499487761, -36(%rbp)   # imm = 0x1DC59411
	movq	%rdi, -32(%rbp)
	movl	%esi, -16(%rbp)
	movl	%edx, -20(%rbp)
	movslq	-16(%rbp), %rdi
	movl	$8, %esi
	callq	calloc
	movq	-32(%rbp), %rcx
	movq	%rax, (%rcx)
	cmpq	$0, %rax
	jne	.LBB35_2
# %bb.1:                                # %if.then
	movabsq	$.L.str.8, %rdi
	callq	no_mem_exit
.LBB35_2:                               # %if.end
	movl	-16(%rbp), %eax
	imull	-20(%rbp), %eax
	movslq	%eax, %rdi
	movl	$8, %esi
	callq	calloc
	movq	-32(%rbp), %rcx
	movq	(%rcx), %rcx
	movq	%rax, (%rcx)
	cmpq	$0, %rax
	jne	.LBB35_4
# %bb.3:                                # %if.then6
	movabsq	$.L.str.8, %rdi
	callq	no_mem_exit
.LBB35_4:                               # %if.end7
	movl	$1, -12(%rbp)
.LBB35_5:                               # %for.cond
                                        # =>This Inner Loop Header: Depth=1
	movl	-12(%rbp), %eax
	cmpl	-16(%rbp), %eax
	jge	.LBB35_8
# %bb.6:                                # %for.body
                                        #   in Loop: Header=BB35_5 Depth=1
	movq	-32(%rbp), %rax
	movq	(%rax), %rax
	movl	-12(%rbp), %ecx
	subl	$1, %ecx
	movslq	%ecx, %rcx
	movq	(%rax,%rcx,8), %rax
	movslq	-20(%rbp), %rcx
	shlq	$3, %rcx
	addq	%rcx, %rax
	movq	-32(%rbp), %rcx
	movq	(%rcx), %rcx
	movslq	-12(%rbp), %rdx
	movq	%rax, (%rcx,%rdx,8)
# %bb.7:                                # %for.inc
                                        #   in Loop: Header=BB35_5 Depth=1
	movl	-12(%rbp), %eax
	addl	$1, %eax
	movl	%eax, -12(%rbp)
	jmp	.LBB35_5
.LBB35_8:                               # %for.end
	movl	-16(%rbp), %eax
	imull	-20(%rbp), %eax
	movslq	%eax, %rbx
	shlq	$3, %rbx
	cmpl	$499487761, -36(%rbp)   # imm = 0x1DC59411
	jne	.LBB35_10
.LBB35_9:
	movl	%ebx, %eax
	addq	$40, %rsp
	popq	%rbx
	popq	%rbp
	.cfi_def_cfa %rsp, 8
	retq
.LBB35_10:                              # %func_exit
	.cfi_def_cfa %rbp, 16
	callq	detect_breach
	jmp	.LBB35_9
.Lfunc_end35:
	.size	get_mem2Dint64.9, .Lfunc_end35-get_mem2Dint64.9
	.cfi_endproc
                                        # -- End function
	.globl	get_mem2D.10            # -- Begin function get_mem2D.10
	.p2align	4, 0x90
	.type	get_mem2D.10,@function
get_mem2D.10:                           # @get_mem2D.10
	.cfi_startproc
# %bb.0:                                # %entry
	pushq	%rbp
	.cfi_def_cfa_offset 16
	.cfi_offset %rbp, -16
	movq	%rsp, %rbp
	.cfi_def_cfa_register %rbp
	pushq	%rbx
	subq	$40, %rsp
	.cfi_offset %rbx, -24
	movl	$198524943, -36(%rbp)   # imm = 0xBD5400F
	movq	%rdi, -32(%rbp)
	movl	%esi, -16(%rbp)
	movl	%edx, -20(%rbp)
	movslq	-16(%rbp), %rdi
	movl	$8, %esi
	callq	calloc
	movq	-32(%rbp), %rcx
	movq	%rax, (%rcx)
	cmpq	$0, %rax
	jne	.LBB36_2
# %bb.1:                                # %if.then
	movabsq	$.L.str.6, %rdi
	callq	no_mem_exit
.LBB36_2:                               # %if.end
	movl	-20(%rbp), %eax
	imull	-16(%rbp), %eax
	movslq	%eax, %rdi
	movl	$1, %esi
	callq	calloc
	movq	-32(%rbp), %rcx
	movq	(%rcx), %rcx
	movq	%rax, (%rcx)
	cmpq	$0, %rax
	jne	.LBB36_4
# %bb.3:                                # %if.then6
	movabsq	$.L.str.6, %rdi
	callq	no_mem_exit
.LBB36_4:                               # %if.end7
	movl	$1, -12(%rbp)
.LBB36_5:                               # %for.cond
                                        # =>This Inner Loop Header: Depth=1
	movl	-12(%rbp), %eax
	cmpl	-16(%rbp), %eax
	jge	.LBB36_8
# %bb.6:                                # %for.body
                                        #   in Loop: Header=BB36_5 Depth=1
	movq	-32(%rbp), %rax
	movq	(%rax), %rax
	movl	-12(%rbp), %ecx
	subl	$1, %ecx
	movslq	%ecx, %rcx
	movq	(%rax,%rcx,8), %rax
	movslq	-20(%rbp), %rcx
	addq	%rcx, %rax
	movq	-32(%rbp), %rcx
	movq	(%rcx), %rcx
	movslq	-12(%rbp), %rdx
	movq	%rax, (%rcx,%rdx,8)
# %bb.7:                                # %for.inc
                                        #   in Loop: Header=BB36_5 Depth=1
	movl	-12(%rbp), %eax
	addl	$1, %eax
	movl	%eax, -12(%rbp)
	jmp	.LBB36_5
.LBB36_8:                               # %for.end
	movl	-16(%rbp), %ebx
	imull	-20(%rbp), %ebx
	cmpl	$198524943, -36(%rbp)   # imm = 0xBD5400F
	jne	.LBB36_10
.LBB36_9:
	movl	%ebx, %eax
	addq	$40, %rsp
	popq	%rbx
	popq	%rbp
	.cfi_def_cfa %rsp, 8
	retq
.LBB36_10:                              # %func_exit
	.cfi_def_cfa %rbp, 16
	callq	detect_breach
	jmp	.LBB36_9
.Lfunc_end36:
	.size	get_mem2D.10, .Lfunc_end36-get_mem2D.10
	.cfi_endproc
                                        # -- End function
	.globl	get_mem4Dshort.11       # -- Begin function get_mem4Dshort.11
	.p2align	4, 0x90
	.type	get_mem4Dshort.11,@function
get_mem4Dshort.11:                      # @get_mem4Dshort.11
	.cfi_startproc
# %bb.0:                                # %entry
	pushq	%rbp
	.cfi_def_cfa_offset 16
	.cfi_offset %rbp, -16
	movq	%rsp, %rbp
	.cfi_def_cfa_register %rbp
	pushq	%rbx
	subq	$40, %rsp
	.cfi_offset %rbx, -24
	movl	$1380213662, -32(%rbp)  # imm = 0x5244639E
	movq	%rdi, -40(%rbp)
	movl	%esi, -16(%rbp)
	movl	%edx, -24(%rbp)
	movl	%ecx, -20(%rbp)
	movl	%r8d, -28(%rbp)
	movslq	-16(%rbp), %rdi
	movl	$8, %esi
	callq	calloc
	movq	-40(%rbp), %rcx
	movq	%rax, (%rcx)
	cmpq	$0, %rax
	jne	.LBB37_2
# %bb.1:                                # %if.then
	movabsq	$.L.str.23, %rdi
	callq	no_mem_exit
.LBB37_2:                               # %if.end
	movl	$0, -12(%rbp)
.LBB37_3:                               # %for.cond
                                        # =>This Inner Loop Header: Depth=1
	movl	-12(%rbp), %eax
	cmpl	-16(%rbp), %eax
	jge	.LBB37_6
# %bb.4:                                # %for.body
                                        #   in Loop: Header=BB37_3 Depth=1
	movq	-40(%rbp), %rax
	movq	(%rax), %rdi
	movslq	-12(%rbp), %rax
	shlq	$3, %rax
	addq	%rax, %rdi
	movl	-24(%rbp), %esi
	movl	-20(%rbp), %edx
	movl	-28(%rbp), %ecx
	callq	get_mem3Dshort
# %bb.5:                                # %for.inc
                                        #   in Loop: Header=BB37_3 Depth=1
	movl	-12(%rbp), %eax
	addl	$1, %eax
	movl	%eax, -12(%rbp)
	jmp	.LBB37_3
.LBB37_6:                               # %for.end
	movl	-16(%rbp), %eax
	imull	-24(%rbp), %eax
	imull	-20(%rbp), %eax
	imull	-28(%rbp), %eax
	movslq	%eax, %rbx
	shlq	$1, %rbx
	cmpl	$1380213662, -32(%rbp)  # imm = 0x5244639E
	jne	.LBB37_8
.LBB37_7:
	movl	%ebx, %eax
	addq	$40, %rsp
	popq	%rbx
	popq	%rbp
	.cfi_def_cfa %rsp, 8
	retq
.LBB37_8:                               # %func_exit
	.cfi_def_cfa %rbp, 16
	callq	detect_breach
	jmp	.LBB37_7
.Lfunc_end37:
	.size	get_mem4Dshort.11, .Lfunc_end37-get_mem4Dshort.11
	.cfi_endproc
                                        # -- End function
	.globl	get_mem2Dshort.12       # -- Begin function get_mem2Dshort.12
	.p2align	4, 0x90
	.type	get_mem2Dshort.12,@function
get_mem2Dshort.12:                      # @get_mem2Dshort.12
	.cfi_startproc
# %bb.0:                                # %entry
	pushq	%rbp
	.cfi_def_cfa_offset 16
	.cfi_offset %rbp, -16
	movq	%rsp, %rbp
	.cfi_def_cfa_register %rbp
	pushq	%rbx
	subq	$40, %rsp
	.cfi_offset %rbx, -24
	movl	$2048893349, -36(%rbp)  # imm = 0x7A1FA1A5
	movq	%rdi, -32(%rbp)
	movl	%esi, -16(%rbp)
	movl	%edx, -20(%rbp)
	movslq	-16(%rbp), %rdi
	movl	$8, %esi
	callq	calloc
	movq	-32(%rbp), %rcx
	movq	%rax, (%rcx)
	cmpq	$0, %rax
	jne	.LBB38_2
# %bb.1:                                # %if.then
	movabsq	$.L.str.21, %rdi
	callq	no_mem_exit
.LBB38_2:                               # %if.end
	movl	-16(%rbp), %eax
	imull	-20(%rbp), %eax
	movslq	%eax, %rdi
	movl	$2, %esi
	callq	calloc
	movq	-32(%rbp), %rcx
	movq	(%rcx), %rcx
	movq	%rax, (%rcx)
	cmpq	$0, %rax
	jne	.LBB38_4
# %bb.3:                                # %if.then6
	movabsq	$.L.str.21, %rdi
	callq	no_mem_exit
.LBB38_4:                               # %if.end7
	movl	$1, -12(%rbp)
.LBB38_5:                               # %for.cond
                                        # =>This Inner Loop Header: Depth=1
	movl	-12(%rbp), %eax
	cmpl	-16(%rbp), %eax
	jge	.LBB38_8
# %bb.6:                                # %for.body
                                        #   in Loop: Header=BB38_5 Depth=1
	movq	-32(%rbp), %rax
	movq	(%rax), %rax
	movl	-12(%rbp), %ecx
	subl	$1, %ecx
	movslq	%ecx, %rcx
	movq	(%rax,%rcx,8), %rax
	movslq	-20(%rbp), %rcx
	shlq	$1, %rcx
	addq	%rcx, %rax
	movq	-32(%rbp), %rcx
	movq	(%rcx), %rcx
	movslq	-12(%rbp), %rdx
	movq	%rax, (%rcx,%rdx,8)
# %bb.7:                                # %for.inc
                                        #   in Loop: Header=BB38_5 Depth=1
	movl	-12(%rbp), %eax
	addl	$1, %eax
	movl	%eax, -12(%rbp)
	jmp	.LBB38_5
.LBB38_8:                               # %for.end
	movl	-16(%rbp), %eax
	imull	-20(%rbp), %eax
	movslq	%eax, %rbx
	shlq	$1, %rbx
	cmpl	$2048893349, -36(%rbp)  # imm = 0x7A1FA1A5
	jne	.LBB38_10
.LBB38_9:
	movl	%ebx, %eax
	addq	$40, %rsp
	popq	%rbx
	popq	%rbp
	.cfi_def_cfa %rsp, 8
	retq
.LBB38_10:                              # %func_exit
	.cfi_def_cfa %rbp, 16
	callq	detect_breach
	jmp	.LBB38_9
.Lfunc_end38:
	.size	get_mem2Dshort.12, .Lfunc_end38-get_mem2Dshort.12
	.cfi_endproc
                                        # -- End function
	.globl	get_mem3Dint64.13       # -- Begin function get_mem3Dint64.13
	.p2align	4, 0x90
	.type	get_mem3Dint64.13,@function
get_mem3Dint64.13:                      # @get_mem3Dint64.13
	.cfi_startproc
# %bb.0:                                # %entry
	pushq	%rbp
	.cfi_def_cfa_offset 16
	.cfi_offset %rbp, -16
	movq	%rsp, %rbp
	.cfi_def_cfa_register %rbp
	pushq	%rbx
	subq	$40, %rsp
	.cfi_offset %rbx, -24
	movl	$217519018, -28(%rbp)   # imm = 0xCF713AA
	movq	%rdi, -40(%rbp)
	movl	%esi, -16(%rbp)
	movl	%edx, -20(%rbp)
	movl	%ecx, -24(%rbp)
	movslq	-16(%rbp), %rdi
	movl	$8, %esi
	callq	calloc
	movq	-40(%rbp), %rcx
	movq	%rax, (%rcx)
	cmpq	$0, %rax
	jne	.LBB39_2
# %bb.1:                                # %if.then
	movabsq	$.L.str.11, %rdi
	callq	no_mem_exit
.LBB39_2:                               # %if.end
	movl	$0, -12(%rbp)
.LBB39_3:                               # %for.cond
                                        # =>This Inner Loop Header: Depth=1
	movl	-12(%rbp), %eax
	cmpl	-16(%rbp), %eax
	jge	.LBB39_6
# %bb.4:                                # %for.body
                                        #   in Loop: Header=BB39_3 Depth=1
	movq	-40(%rbp), %rax
	movq	(%rax), %rdi
	movslq	-12(%rbp), %rax
	shlq	$3, %rax
	addq	%rax, %rdi
	movl	-20(%rbp), %esi
	movl	-24(%rbp), %edx
	callq	get_mem2Dint64
# %bb.5:                                # %for.inc
                                        #   in Loop: Header=BB39_3 Depth=1
	movl	-12(%rbp), %eax
	addl	$1, %eax
	movl	%eax, -12(%rbp)
	jmp	.LBB39_3
.LBB39_6:                               # %for.end
	movl	-16(%rbp), %eax
	imull	-20(%rbp), %eax
	imull	-24(%rbp), %eax
	movslq	%eax, %rbx
	shlq	$3, %rbx
	cmpl	$217519018, -28(%rbp)   # imm = 0xCF713AA
	jne	.LBB39_8
.LBB39_7:
	movl	%ebx, %eax
	addq	$40, %rsp
	popq	%rbx
	popq	%rbp
	.cfi_def_cfa %rsp, 8
	retq
.LBB39_8:                               # %func_exit
	.cfi_def_cfa %rbp, 16
	callq	detect_breach
	jmp	.LBB39_7
.Lfunc_end39:
	.size	get_mem3Dint64.13, .Lfunc_end39-get_mem3Dint64.13
	.cfi_endproc
                                        # -- End function
	.globl	get_mem2Dint.14         # -- Begin function get_mem2Dint.14
	.p2align	4, 0x90
	.type	get_mem2Dint.14,@function
get_mem2Dint.14:                        # @get_mem2Dint.14
	.cfi_startproc
# %bb.0:                                # %entry
	pushq	%rbp
	.cfi_def_cfa_offset 16
	.cfi_offset %rbp, -16
	movq	%rsp, %rbp
	.cfi_def_cfa_register %rbp
	pushq	%rbx
	subq	$40, %rsp
	.cfi_offset %rbx, -24
	movl	$1915751700, -36(%rbp)  # imm = 0x72300D14
	movq	%rdi, -32(%rbp)
	movl	%esi, -16(%rbp)
	movl	%edx, -20(%rbp)
	movslq	-16(%rbp), %rdi
	movl	$8, %esi
	callq	calloc
	movq	-32(%rbp), %rcx
	movq	%rax, (%rcx)
	cmpq	$0, %rax
	jne	.LBB40_2
# %bb.1:                                # %if.then
	movabsq	$.L.str.7, %rdi
	callq	no_mem_exit
.LBB40_2:                               # %if.end
	movl	-16(%rbp), %eax
	imull	-20(%rbp), %eax
	movslq	%eax, %rdi
	movl	$4, %esi
	callq	calloc
	movq	-32(%rbp), %rcx
	movq	(%rcx), %rcx
	movq	%rax, (%rcx)
	cmpq	$0, %rax
	jne	.LBB40_4
# %bb.3:                                # %if.then6
	movabsq	$.L.str.7, %rdi
	callq	no_mem_exit
.LBB40_4:                               # %if.end7
	movl	$1, -12(%rbp)
.LBB40_5:                               # %for.cond
                                        # =>This Inner Loop Header: Depth=1
	movl	-12(%rbp), %eax
	cmpl	-16(%rbp), %eax
	jge	.LBB40_8
# %bb.6:                                # %for.body
                                        #   in Loop: Header=BB40_5 Depth=1
	movq	-32(%rbp), %rax
	movq	(%rax), %rax
	movl	-12(%rbp), %ecx
	subl	$1, %ecx
	movslq	%ecx, %rcx
	movq	(%rax,%rcx,8), %rax
	movslq	-20(%rbp), %rcx
	shlq	$2, %rcx
	addq	%rcx, %rax
	movq	-32(%rbp), %rcx
	movq	(%rcx), %rcx
	movslq	-12(%rbp), %rdx
	movq	%rax, (%rcx,%rdx,8)
# %bb.7:                                # %for.inc
                                        #   in Loop: Header=BB40_5 Depth=1
	movl	-12(%rbp), %eax
	addl	$1, %eax
	movl	%eax, -12(%rbp)
	jmp	.LBB40_5
.LBB40_8:                               # %for.end
	movl	-16(%rbp), %eax
	imull	-20(%rbp), %eax
	movslq	%eax, %rbx
	shlq	$2, %rbx
	cmpl	$1915751700, -36(%rbp)  # imm = 0x72300D14
	jne	.LBB40_10
.LBB40_9:
	movl	%ebx, %eax
	addq	$40, %rsp
	popq	%rbx
	popq	%rbp
	.cfi_def_cfa %rsp, 8
	retq
.LBB40_10:                              # %func_exit
	.cfi_def_cfa %rbp, 16
	callq	detect_breach
	jmp	.LBB40_9
.Lfunc_end40:
	.size	get_mem2Dint.14, .Lfunc_end40-get_mem2Dint.14
	.cfi_endproc
                                        # -- End function
	.globl	free_mem3Dpel.15        # -- Begin function free_mem3Dpel.15
	.p2align	4, 0x90
	.type	free_mem3Dpel.15,@function
free_mem3Dpel.15:                       # @free_mem3Dpel.15
	.cfi_startproc
# %bb.0:                                # %entry
	pushq	%rbp
	.cfi_def_cfa_offset 16
	.cfi_offset %rbp, -16
	movq	%rsp, %rbp
	.cfi_def_cfa_register %rbp
	subq	$32, %rsp
	movl	$1780924735, -24(%rbp)  # imm = 0x6A26C13F
	movq	%rdi, -16(%rbp)
	movl	%esi, -20(%rbp)
	cmpq	$0, -16(%rbp)
	je	.LBB41_6
# %bb.1:                                # %if.then
	movl	$0, -4(%rbp)
.LBB41_2:                               # %for.cond
                                        # =>This Inner Loop Header: Depth=1
	movl	-4(%rbp), %eax
	cmpl	-20(%rbp), %eax
	jge	.LBB41_5
# %bb.3:                                # %for.body
                                        #   in Loop: Header=BB41_2 Depth=1
	movq	-16(%rbp), %rax
	movslq	-4(%rbp), %rcx
	movq	(%rax,%rcx,8), %rdi
	callq	free_mem2Dpel
# %bb.4:                                # %for.inc
                                        #   in Loop: Header=BB41_2 Depth=1
	movl	-4(%rbp), %eax
	addl	$1, %eax
	movl	%eax, -4(%rbp)
	jmp	.LBB41_2
.LBB41_5:                               # %for.end
	movq	-16(%rbp), %rdi
	callq	free
	jmp	.LBB41_7
.LBB41_6:                               # %if.else
	movabsq	$.L.str.5, %rdi
	movl	$100, %esi
	callq	error
.LBB41_7:                               # %if.end
	cmpl	$1780924735, -24(%rbp)  # imm = 0x6A26C13F
	jne	.LBB41_9
.LBB41_8:
	addq	$32, %rsp
	popq	%rbp
	.cfi_def_cfa %rsp, 8
	retq
.LBB41_9:                               # %func_exit
	.cfi_def_cfa %rbp, 16
	callq	detect_breach
	jmp	.LBB41_8
.Lfunc_end41:
	.size	free_mem3Dpel.15, .Lfunc_end41-free_mem3Dpel.15
	.cfi_endproc
                                        # -- End function
	.globl	free_mem3Dint64.16      # -- Begin function free_mem3Dint64.16
	.p2align	4, 0x90
	.type	free_mem3Dint64.16,@function
free_mem3Dint64.16:                     # @free_mem3Dint64.16
	.cfi_startproc
# %bb.0:                                # %entry
	pushq	%rbp
	.cfi_def_cfa_offset 16
	.cfi_offset %rbp, -16
	movq	%rsp, %rbp
	.cfi_def_cfa_register %rbp
	subq	$32, %rsp
	movl	$460476107, -24(%rbp)   # imm = 0x1B724ECB
	movq	%rdi, -16(%rbp)
	movl	%esi, -20(%rbp)
	cmpq	$0, -16(%rbp)
	je	.LBB42_6
# %bb.1:                                # %if.then
	movl	$0, -4(%rbp)
.LBB42_2:                               # %for.cond
                                        # =>This Inner Loop Header: Depth=1
	movl	-4(%rbp), %eax
	cmpl	-20(%rbp), %eax
	jge	.LBB42_5
# %bb.3:                                # %for.body
                                        #   in Loop: Header=BB42_2 Depth=1
	movq	-16(%rbp), %rax
	movslq	-4(%rbp), %rcx
	movq	(%rax,%rcx,8), %rdi
	callq	free_mem2Dint64
# %bb.4:                                # %for.inc
                                        #   in Loop: Header=BB42_2 Depth=1
	movl	-4(%rbp), %eax
	addl	$1, %eax
	movl	%eax, -4(%rbp)
	jmp	.LBB42_2
.LBB42_5:                               # %for.end
	movq	-16(%rbp), %rdi
	callq	free
	jmp	.LBB42_7
.LBB42_6:                               # %if.else
	movabsq	$.L.str.18, %rdi
	movl	$100, %esi
	callq	error
.LBB42_7:                               # %if.end
	cmpl	$460476107, -24(%rbp)   # imm = 0x1B724ECB
	jne	.LBB42_9
.LBB42_8:
	addq	$32, %rsp
	popq	%rbp
	.cfi_def_cfa %rsp, 8
	retq
.LBB42_9:                               # %func_exit
	.cfi_def_cfa %rbp, 16
	callq	detect_breach
	jmp	.LBB42_8
.Lfunc_end42:
	.size	free_mem3Dint64.16, .Lfunc_end42-free_mem3Dint64.16
	.cfi_endproc
                                        # -- End function
	.globl	free_mem4Dint.17        # -- Begin function free_mem4Dint.17
	.p2align	4, 0x90
	.type	free_mem4Dint.17,@function
free_mem4Dint.17:                       # @free_mem4Dint.17
	.cfi_startproc
# %bb.0:                                # %entry
	pushq	%rbp
	.cfi_def_cfa_offset 16
	.cfi_offset %rbp, -16
	movq	%rsp, %rbp
	.cfi_def_cfa_register %rbp
	subq	$32, %rsp
	movl	$30962385, -24(%rbp)    # imm = 0x1D872D1
	movq	%rdi, -16(%rbp)
	movl	%esi, -20(%rbp)
	movl	%edx, -28(%rbp)
	cmpq	$0, -16(%rbp)
	je	.LBB43_6
# %bb.1:                                # %if.then
	movl	$0, -4(%rbp)
.LBB43_2:                               # %for.cond
                                        # =>This Inner Loop Header: Depth=1
	movl	-4(%rbp), %eax
	cmpl	-20(%rbp), %eax
	jge	.LBB43_5
# %bb.3:                                # %for.body
                                        #   in Loop: Header=BB43_2 Depth=1
	movq	-16(%rbp), %rax
	movslq	-4(%rbp), %rcx
	movq	(%rax,%rcx,8), %rdi
	movl	-28(%rbp), %esi
	callq	free_mem3Dint
# %bb.4:                                # %for.inc
                                        #   in Loop: Header=BB43_2 Depth=1
	movl	-4(%rbp), %eax
	addl	$1, %eax
	movl	%eax, -4(%rbp)
	jmp	.LBB43_2
.LBB43_5:                               # %for.end
	movq	-16(%rbp), %rdi
	callq	free
	jmp	.LBB43_7
.LBB43_6:                               # %if.else
	movabsq	$.L.str.19, %rdi
	movl	$100, %esi
	callq	error
.LBB43_7:                               # %if.end
	cmpl	$30962385, -24(%rbp)    # imm = 0x1D872D1
	jne	.LBB43_9
.LBB43_8:
	addq	$32, %rsp
	popq	%rbp
	.cfi_def_cfa %rsp, 8
	retq
.LBB43_9:                               # %func_exit
	.cfi_def_cfa %rbp, 16
	callq	detect_breach
	jmp	.LBB43_8
.Lfunc_end43:
	.size	free_mem4Dint.17, .Lfunc_end43-free_mem4Dint.17
	.cfi_endproc
                                        # -- End function
	.globl	get_mem4Dshort.18       # -- Begin function get_mem4Dshort.18
	.p2align	4, 0x90
	.type	get_mem4Dshort.18,@function
get_mem4Dshort.18:                      # @get_mem4Dshort.18
	.cfi_startproc
# %bb.0:                                # %entry
	pushq	%rbp
	.cfi_def_cfa_offset 16
	.cfi_offset %rbp, -16
	movq	%rsp, %rbp
	.cfi_def_cfa_register %rbp
	pushq	%rbx
	subq	$40, %rsp
	.cfi_offset %rbx, -24
	movl	$1948999914, -32(%rbp)  # imm = 0x742B60EA
	movq	%rdi, -40(%rbp)
	movl	%esi, -16(%rbp)
	movl	%edx, -28(%rbp)
	movl	%ecx, -20(%rbp)
	movl	%r8d, -24(%rbp)
	movslq	-16(%rbp), %rdi
	movl	$8, %esi
	callq	calloc
	movq	-40(%rbp), %rcx
	movq	%rax, (%rcx)
	cmpq	$0, %rax
	jne	.LBB44_2
# %bb.1:                                # %if.then
	movabsq	$.L.str.23, %rdi
	callq	no_mem_exit
.LBB44_2:                               # %if.end
	movl	$0, -12(%rbp)
.LBB44_3:                               # %for.cond
                                        # =>This Inner Loop Header: Depth=1
	movl	-12(%rbp), %eax
	cmpl	-16(%rbp), %eax
	jge	.LBB44_6
# %bb.4:                                # %for.body
                                        #   in Loop: Header=BB44_3 Depth=1
	movq	-40(%rbp), %rax
	movq	(%rax), %rdi
	movslq	-12(%rbp), %rax
	shlq	$3, %rax
	addq	%rax, %rdi
	movl	-28(%rbp), %esi
	movl	-20(%rbp), %edx
	movl	-24(%rbp), %ecx
	callq	get_mem3Dshort
# %bb.5:                                # %for.inc
                                        #   in Loop: Header=BB44_3 Depth=1
	movl	-12(%rbp), %eax
	addl	$1, %eax
	movl	%eax, -12(%rbp)
	jmp	.LBB44_3
.LBB44_6:                               # %for.end
	movl	-16(%rbp), %eax
	imull	-28(%rbp), %eax
	imull	-20(%rbp), %eax
	imull	-24(%rbp), %eax
	movslq	%eax, %rbx
	shlq	$1, %rbx
	cmpl	$1948999914, -32(%rbp)  # imm = 0x742B60EA
	jne	.LBB44_8
.LBB44_7:
	movl	%ebx, %eax
	addq	$40, %rsp
	popq	%rbx
	popq	%rbp
	.cfi_def_cfa %rsp, 8
	retq
.LBB44_8:                               # %func_exit
	.cfi_def_cfa %rbp, 16
	callq	detect_breach
	jmp	.LBB44_7
.Lfunc_end44:
	.size	get_mem4Dshort.18, .Lfunc_end44-get_mem4Dshort.18
	.cfi_endproc
                                        # -- End function
	.globl	free_mem4Dshort.19      # -- Begin function free_mem4Dshort.19
	.p2align	4, 0x90
	.type	free_mem4Dshort.19,@function
free_mem4Dshort.19:                     # @free_mem4Dshort.19
	.cfi_startproc
# %bb.0:                                # %entry
	pushq	%rbp
	.cfi_def_cfa_offset 16
	.cfi_offset %rbp, -16
	movq	%rsp, %rbp
	.cfi_def_cfa_register %rbp
	subq	$32, %rsp
	movl	$462654068, -28(%rbp)   # imm = 0x1B938A74
	movq	%rdi, -16(%rbp)
	movl	%esi, -24(%rbp)
	movl	%edx, -20(%rbp)
	cmpq	$0, -16(%rbp)
	je	.LBB45_6
# %bb.1:                                # %if.then
	movl	$0, -4(%rbp)
.LBB45_2:                               # %for.cond
                                        # =>This Inner Loop Header: Depth=1
	movl	-4(%rbp), %eax
	cmpl	-24(%rbp), %eax
	jge	.LBB45_5
# %bb.3:                                # %for.body
                                        #   in Loop: Header=BB45_2 Depth=1
	movq	-16(%rbp), %rax
	movslq	-4(%rbp), %rcx
	movq	(%rax,%rcx,8), %rdi
	movl	-20(%rbp), %esi
	callq	free_mem3Dshort
# %bb.4:                                # %for.inc
                                        #   in Loop: Header=BB45_2 Depth=1
	movl	-4(%rbp), %eax
	addl	$1, %eax
	movl	%eax, -4(%rbp)
	jmp	.LBB45_2
.LBB45_5:                               # %for.end
	movq	-16(%rbp), %rdi
	callq	free
	jmp	.LBB45_7
.LBB45_6:                               # %if.else
	movabsq	$.L.str.26, %rdi
	movl	$100, %esi
	callq	error
.LBB45_7:                               # %if.end
	cmpl	$462654068, -28(%rbp)   # imm = 0x1B938A74
	jne	.LBB45_9
.LBB45_8:
	addq	$32, %rsp
	popq	%rbp
	.cfi_def_cfa %rsp, 8
	retq
.LBB45_9:                               # %func_exit
	.cfi_def_cfa %rbp, 16
	callq	detect_breach
	jmp	.LBB45_8
.Lfunc_end45:
	.size	free_mem4Dshort.19, .Lfunc_end45-free_mem4Dshort.19
	.cfi_endproc
                                        # -- End function
	.globl	get_mem4Dshort.20       # -- Begin function get_mem4Dshort.20
	.p2align	4, 0x90
	.type	get_mem4Dshort.20,@function
get_mem4Dshort.20:                      # @get_mem4Dshort.20
	.cfi_startproc
# %bb.0:                                # %entry
	pushq	%rbp
	.cfi_def_cfa_offset 16
	.cfi_offset %rbp, -16
	movq	%rsp, %rbp
	.cfi_def_cfa_register %rbp
	pushq	%rbx
	subq	$40, %rsp
	.cfi_offset %rbx, -24
	movl	$1121109407, -32(%rbp)  # imm = 0x42D2C59F
	movq	%rdi, -40(%rbp)
	movl	%esi, -16(%rbp)
	movl	%edx, -20(%rbp)
	movl	%ecx, -28(%rbp)
	movl	%r8d, -24(%rbp)
	movslq	-16(%rbp), %rdi
	movl	$8, %esi
	callq	calloc
	movq	-40(%rbp), %rcx
	movq	%rax, (%rcx)
	cmpq	$0, %rax
	jne	.LBB46_2
# %bb.1:                                # %if.then
	movabsq	$.L.str.23, %rdi
	callq	no_mem_exit
.LBB46_2:                               # %if.end
	movl	$0, -12(%rbp)
.LBB46_3:                               # %for.cond
                                        # =>This Inner Loop Header: Depth=1
	movl	-12(%rbp), %eax
	cmpl	-16(%rbp), %eax
	jge	.LBB46_6
# %bb.4:                                # %for.body
                                        #   in Loop: Header=BB46_3 Depth=1
	movq	-40(%rbp), %rax
	movq	(%rax), %rdi
	movslq	-12(%rbp), %rax
	shlq	$3, %rax
	addq	%rax, %rdi
	movl	-20(%rbp), %esi
	movl	-28(%rbp), %edx
	movl	-24(%rbp), %ecx
	callq	get_mem3Dshort
# %bb.5:                                # %for.inc
                                        #   in Loop: Header=BB46_3 Depth=1
	movl	-12(%rbp), %eax
	addl	$1, %eax
	movl	%eax, -12(%rbp)
	jmp	.LBB46_3
.LBB46_6:                               # %for.end
	movl	-16(%rbp), %eax
	imull	-20(%rbp), %eax
	imull	-28(%rbp), %eax
	imull	-24(%rbp), %eax
	movslq	%eax, %rbx
	shlq	$1, %rbx
	cmpl	$1121109407, -32(%rbp)  # imm = 0x42D2C59F
	jne	.LBB46_8
.LBB46_7:
	movl	%ebx, %eax
	addq	$40, %rsp
	popq	%rbx
	popq	%rbp
	.cfi_def_cfa %rsp, 8
	retq
.LBB46_8:                               # %func_exit
	.cfi_def_cfa %rbp, 16
	callq	detect_breach
	jmp	.LBB46_7
.Lfunc_end46:
	.size	get_mem4Dshort.20, .Lfunc_end46-get_mem4Dshort.20
	.cfi_endproc
                                        # -- End function
	.globl	get_mem3Dint.21         # -- Begin function get_mem3Dint.21
	.p2align	4, 0x90
	.type	get_mem3Dint.21,@function
get_mem3Dint.21:                        # @get_mem3Dint.21
	.cfi_startproc
# %bb.0:                                # %entry
	pushq	%rbp
	.cfi_def_cfa_offset 16
	.cfi_offset %rbp, -16
	movq	%rsp, %rbp
	.cfi_def_cfa_register %rbp
	pushq	%rbx
	subq	$40, %rsp
	.cfi_offset %rbx, -24
	movl	$413550844, -28(%rbp)   # imm = 0x18A648FC
	movq	%rdi, -40(%rbp)
	movl	%esi, -16(%rbp)
	movl	%edx, -24(%rbp)
	movl	%ecx, -20(%rbp)
	movslq	-16(%rbp), %rdi
	movl	$8, %esi
	callq	calloc
	movq	-40(%rbp), %rcx
	movq	%rax, (%rcx)
	cmpq	$0, %rax
	jne	.LBB47_2
# %bb.1:                                # %if.then
	movabsq	$.L.str.10, %rdi
	callq	no_mem_exit
.LBB47_2:                               # %if.end
	movl	$0, -12(%rbp)
.LBB47_3:                               # %for.cond
                                        # =>This Inner Loop Header: Depth=1
	movl	-12(%rbp), %eax
	cmpl	-16(%rbp), %eax
	jge	.LBB47_6
# %bb.4:                                # %for.body
                                        #   in Loop: Header=BB47_3 Depth=1
	movq	-40(%rbp), %rax
	movq	(%rax), %rdi
	movslq	-12(%rbp), %rax
	shlq	$3, %rax
	addq	%rax, %rdi
	movl	-24(%rbp), %esi
	movl	-20(%rbp), %edx
	callq	get_mem2Dint
# %bb.5:                                # %for.inc
                                        #   in Loop: Header=BB47_3 Depth=1
	movl	-12(%rbp), %eax
	addl	$1, %eax
	movl	%eax, -12(%rbp)
	jmp	.LBB47_3
.LBB47_6:                               # %for.end
	movl	-16(%rbp), %eax
	imull	-24(%rbp), %eax
	imull	-20(%rbp), %eax
	movslq	%eax, %rbx
	shlq	$2, %rbx
	cmpl	$413550844, -28(%rbp)   # imm = 0x18A648FC
	jne	.LBB47_8
.LBB47_7:
	movl	%ebx, %eax
	addq	$40, %rsp
	popq	%rbx
	popq	%rbp
	.cfi_def_cfa %rsp, 8
	retq
.LBB47_8:                               # %func_exit
	.cfi_def_cfa %rbp, 16
	callq	detect_breach
	jmp	.LBB47_7
.Lfunc_end47:
	.size	get_mem3Dint.21, .Lfunc_end47-get_mem3Dint.21
	.cfi_endproc
                                        # -- End function
	.globl	get_mem3D.22            # -- Begin function get_mem3D.22
	.p2align	4, 0x90
	.type	get_mem3D.22,@function
get_mem3D.22:                           # @get_mem3D.22
	.cfi_startproc
# %bb.0:                                # %entry
	pushq	%rbp
	.cfi_def_cfa_offset 16
	.cfi_offset %rbp, -16
	movq	%rsp, %rbp
	.cfi_def_cfa_register %rbp
	pushq	%rbx
	subq	$40, %rsp
	.cfi_offset %rbx, -24
	movl	$2132147748, -28(%rbp)  # imm = 0x7F15FE24
	movq	%rdi, -40(%rbp)
	movl	%esi, -16(%rbp)
	movl	%edx, -24(%rbp)
	movl	%ecx, -20(%rbp)
	movslq	-16(%rbp), %rdi
	movl	$8, %esi
	callq	calloc
	movq	-40(%rbp), %rcx
	movq	%rax, (%rcx)
	cmpq	$0, %rax
	jne	.LBB48_2
# %bb.1:                                # %if.then
	movabsq	$.L.str.9, %rdi
	callq	no_mem_exit
.LBB48_2:                               # %if.end
	movl	$0, -12(%rbp)
.LBB48_3:                               # %for.cond
                                        # =>This Inner Loop Header: Depth=1
	movl	-12(%rbp), %eax
	cmpl	-16(%rbp), %eax
	jge	.LBB48_6
# %bb.4:                                # %for.body
                                        #   in Loop: Header=BB48_3 Depth=1
	movq	-40(%rbp), %rax
	movq	(%rax), %rdi
	movslq	-12(%rbp), %rax
	shlq	$3, %rax
	addq	%rax, %rdi
	movl	-24(%rbp), %esi
	movl	-20(%rbp), %edx
	callq	get_mem2D
# %bb.5:                                # %for.inc
                                        #   in Loop: Header=BB48_3 Depth=1
	movl	-12(%rbp), %eax
	addl	$1, %eax
	movl	%eax, -12(%rbp)
	jmp	.LBB48_3
.LBB48_6:                               # %for.end
	movl	-16(%rbp), %ebx
	imull	-24(%rbp), %ebx
	imull	-20(%rbp), %ebx
	cmpl	$2132147748, -28(%rbp)  # imm = 0x7F15FE24
	jne	.LBB48_8
.LBB48_7:
	movl	%ebx, %eax
	addq	$40, %rsp
	popq	%rbx
	popq	%rbp
	.cfi_def_cfa %rsp, 8
	retq
.LBB48_8:                               # %func_exit
	.cfi_def_cfa %rbp, 16
	callq	detect_breach
	jmp	.LBB48_7
.Lfunc_end48:
	.size	get_mem3D.22, .Lfunc_end48-get_mem3D.22
	.cfi_endproc
                                        # -- End function
	.globl	get_mem3D.23            # -- Begin function get_mem3D.23
	.p2align	4, 0x90
	.type	get_mem3D.23,@function
get_mem3D.23:                           # @get_mem3D.23
	.cfi_startproc
# %bb.0:                                # %entry
	pushq	%rbp
	.cfi_def_cfa_offset 16
	.cfi_offset %rbp, -16
	movq	%rsp, %rbp
	.cfi_def_cfa_register %rbp
	pushq	%rbx
	subq	$40, %rsp
	.cfi_offset %rbx, -24
	movl	$665711073, -28(%rbp)   # imm = 0x27ADF1E1
	movq	%rdi, -40(%rbp)
	movl	%esi, -16(%rbp)
	movl	%edx, -20(%rbp)
	movl	%ecx, -24(%rbp)
	movslq	-16(%rbp), %rdi
	movl	$8, %esi
	callq	calloc
	movq	-40(%rbp), %rcx
	movq	%rax, (%rcx)
	cmpq	$0, %rax
	jne	.LBB49_2
# %bb.1:                                # %if.then
	movabsq	$.L.str.9, %rdi
	callq	no_mem_exit
.LBB49_2:                               # %if.end
	movl	$0, -12(%rbp)
.LBB49_3:                               # %for.cond
                                        # =>This Inner Loop Header: Depth=1
	movl	-12(%rbp), %eax
	cmpl	-16(%rbp), %eax
	jge	.LBB49_6
# %bb.4:                                # %for.body
                                        #   in Loop: Header=BB49_3 Depth=1
	movq	-40(%rbp), %rax
	movq	(%rax), %rdi
	movslq	-12(%rbp), %rax
	shlq	$3, %rax
	addq	%rax, %rdi
	movl	-20(%rbp), %esi
	movl	-24(%rbp), %edx
	callq	get_mem2D
# %bb.5:                                # %for.inc
                                        #   in Loop: Header=BB49_3 Depth=1
	movl	-12(%rbp), %eax
	addl	$1, %eax
	movl	%eax, -12(%rbp)
	jmp	.LBB49_3
.LBB49_6:                               # %for.end
	movl	-16(%rbp), %ebx
	imull	-20(%rbp), %ebx
	imull	-24(%rbp), %ebx
	cmpl	$665711073, -28(%rbp)   # imm = 0x27ADF1E1
	jne	.LBB49_8
.LBB49_7:
	movl	%ebx, %eax
	addq	$40, %rsp
	popq	%rbx
	popq	%rbp
	.cfi_def_cfa %rsp, 8
	retq
.LBB49_8:                               # %func_exit
	.cfi_def_cfa %rbp, 16
	callq	detect_breach
	jmp	.LBB49_7
.Lfunc_end49:
	.size	get_mem3D.23, .Lfunc_end49-get_mem3D.23
	.cfi_endproc
                                        # -- End function
	.globl	get_mem3D.24            # -- Begin function get_mem3D.24
	.p2align	4, 0x90
	.type	get_mem3D.24,@function
get_mem3D.24:                           # @get_mem3D.24
	.cfi_startproc
# %bb.0:                                # %entry
	pushq	%rbp
	.cfi_def_cfa_offset 16
	.cfi_offset %rbp, -16
	movq	%rsp, %rbp
	.cfi_def_cfa_register %rbp
	pushq	%rbx
	subq	$40, %rsp
	.cfi_offset %rbx, -24
	movl	$2101521566, -28(%rbp)  # imm = 0x7D42AC9E
	movq	%rdi, -40(%rbp)
	movl	%esi, -16(%rbp)
	movl	%edx, -20(%rbp)
	movl	%ecx, -24(%rbp)
	movslq	-16(%rbp), %rdi
	movl	$8, %esi
	callq	calloc
	movq	-40(%rbp), %rcx
	movq	%rax, (%rcx)
	cmpq	$0, %rax
	jne	.LBB50_2
# %bb.1:                                # %if.then
	movabsq	$.L.str.9, %rdi
	callq	no_mem_exit
.LBB50_2:                               # %if.end
	movl	$0, -12(%rbp)
.LBB50_3:                               # %for.cond
                                        # =>This Inner Loop Header: Depth=1
	movl	-12(%rbp), %eax
	cmpl	-16(%rbp), %eax
	jge	.LBB50_6
# %bb.4:                                # %for.body
                                        #   in Loop: Header=BB50_3 Depth=1
	movq	-40(%rbp), %rax
	movq	(%rax), %rdi
	movslq	-12(%rbp), %rax
	shlq	$3, %rax
	addq	%rax, %rdi
	movl	-20(%rbp), %esi
	movl	-24(%rbp), %edx
	callq	get_mem2D
# %bb.5:                                # %for.inc
                                        #   in Loop: Header=BB50_3 Depth=1
	movl	-12(%rbp), %eax
	addl	$1, %eax
	movl	%eax, -12(%rbp)
	jmp	.LBB50_3
.LBB50_6:                               # %for.end
	movl	-16(%rbp), %ebx
	imull	-20(%rbp), %ebx
	imull	-24(%rbp), %ebx
	cmpl	$2101521566, -28(%rbp)  # imm = 0x7D42AC9E
	jne	.LBB50_8
.LBB50_7:
	movl	%ebx, %eax
	addq	$40, %rsp
	popq	%rbx
	popq	%rbp
	.cfi_def_cfa %rsp, 8
	retq
.LBB50_8:                               # %func_exit
	.cfi_def_cfa %rbp, 16
	callq	detect_breach
	jmp	.LBB50_7
.Lfunc_end50:
	.size	get_mem3D.24, .Lfunc_end50-get_mem3D.24
	.cfi_endproc
                                        # -- End function
	.globl	free_mem4Dint.25        # -- Begin function free_mem4Dint.25
	.p2align	4, 0x90
	.type	free_mem4Dint.25,@function
free_mem4Dint.25:                       # @free_mem4Dint.25
	.cfi_startproc
# %bb.0:                                # %entry
	pushq	%rbp
	.cfi_def_cfa_offset 16
	.cfi_offset %rbp, -16
	movq	%rsp, %rbp
	.cfi_def_cfa_register %rbp
	subq	$32, %rsp
	movl	$35916728, -24(%rbp)    # imm = 0x2240BB8
	movq	%rdi, -16(%rbp)
	movl	%esi, -28(%rbp)
	movl	%edx, -20(%rbp)
	cmpq	$0, -16(%rbp)
	je	.LBB51_6
# %bb.1:                                # %if.then
	movl	$0, -4(%rbp)
.LBB51_2:                               # %for.cond
                                        # =>This Inner Loop Header: Depth=1
	movl	-4(%rbp), %eax
	cmpl	-28(%rbp), %eax
	jge	.LBB51_5
# %bb.3:                                # %for.body
                                        #   in Loop: Header=BB51_2 Depth=1
	movq	-16(%rbp), %rax
	movslq	-4(%rbp), %rcx
	movq	(%rax,%rcx,8), %rdi
	movl	-20(%rbp), %esi
	callq	free_mem3Dint
# %bb.4:                                # %for.inc
                                        #   in Loop: Header=BB51_2 Depth=1
	movl	-4(%rbp), %eax
	addl	$1, %eax
	movl	%eax, -4(%rbp)
	jmp	.LBB51_2
.LBB51_5:                               # %for.end
	movq	-16(%rbp), %rdi
	callq	free
	jmp	.LBB51_7
.LBB51_6:                               # %if.else
	movabsq	$.L.str.19, %rdi
	movl	$100, %esi
	callq	error
.LBB51_7:                               # %if.end
	cmpl	$35916728, -24(%rbp)    # imm = 0x2240BB8
	jne	.LBB51_9
.LBB51_8:
	addq	$32, %rsp
	popq	%rbp
	.cfi_def_cfa %rsp, 8
	retq
.LBB51_9:                               # %func_exit
	.cfi_def_cfa %rbp, 16
	callq	detect_breach
	jmp	.LBB51_8
.Lfunc_end51:
	.size	free_mem4Dint.25, .Lfunc_end51-free_mem4Dint.25
	.cfi_endproc
                                        # -- End function
	.globl	get_mem3Dint.26         # -- Begin function get_mem3Dint.26
	.p2align	4, 0x90
	.type	get_mem3Dint.26,@function
get_mem3Dint.26:                        # @get_mem3Dint.26
	.cfi_startproc
# %bb.0:                                # %entry
	pushq	%rbp
	.cfi_def_cfa_offset 16
	.cfi_offset %rbp, -16
	movq	%rsp, %rbp
	.cfi_def_cfa_register %rbp
	pushq	%rbx
	subq	$40, %rsp
	.cfi_offset %rbx, -24
	movl	$1359092173, -28(%rbp)  # imm = 0x510219CD
	movq	%rdi, -40(%rbp)
	movl	%esi, -16(%rbp)
	movl	%edx, -20(%rbp)
	movl	%ecx, -24(%rbp)
	movslq	-16(%rbp), %rdi
	movl	$8, %esi
	callq	calloc
	movq	-40(%rbp), %rcx
	movq	%rax, (%rcx)
	cmpq	$0, %rax
	jne	.LBB52_2
# %bb.1:                                # %if.then
	movabsq	$.L.str.10, %rdi
	callq	no_mem_exit
.LBB52_2:                               # %if.end
	movl	$0, -12(%rbp)
.LBB52_3:                               # %for.cond
                                        # =>This Inner Loop Header: Depth=1
	movl	-12(%rbp), %eax
	cmpl	-16(%rbp), %eax
	jge	.LBB52_6
# %bb.4:                                # %for.body
                                        #   in Loop: Header=BB52_3 Depth=1
	movq	-40(%rbp), %rax
	movq	(%rax), %rdi
	movslq	-12(%rbp), %rax
	shlq	$3, %rax
	addq	%rax, %rdi
	movl	-20(%rbp), %esi
	movl	-24(%rbp), %edx
	callq	get_mem2Dint
# %bb.5:                                # %for.inc
                                        #   in Loop: Header=BB52_3 Depth=1
	movl	-12(%rbp), %eax
	addl	$1, %eax
	movl	%eax, -12(%rbp)
	jmp	.LBB52_3
.LBB52_6:                               # %for.end
	movl	-16(%rbp), %eax
	imull	-20(%rbp), %eax
	imull	-24(%rbp), %eax
	movslq	%eax, %rbx
	shlq	$2, %rbx
	cmpl	$1359092173, -28(%rbp)  # imm = 0x510219CD
	jne	.LBB52_8
.LBB52_7:
	movl	%ebx, %eax
	addq	$40, %rsp
	popq	%rbx
	popq	%rbp
	.cfi_def_cfa %rsp, 8
	retq
.LBB52_8:                               # %func_exit
	.cfi_def_cfa %rbp, 16
	callq	detect_breach
	jmp	.LBB52_7
.Lfunc_end52:
	.size	get_mem3Dint.26, .Lfunc_end52-get_mem3Dint.26
	.cfi_endproc
                                        # -- End function
	.globl	free_mem4Dshort.27      # -- Begin function free_mem4Dshort.27
	.p2align	4, 0x90
	.type	free_mem4Dshort.27,@function
free_mem4Dshort.27:                     # @free_mem4Dshort.27
	.cfi_startproc
# %bb.0:                                # %entry
	pushq	%rbp
	.cfi_def_cfa_offset 16
	.cfi_offset %rbp, -16
	movq	%rsp, %rbp
	.cfi_def_cfa_register %rbp
	subq	$32, %rsp
	movl	$981546984, -24(%rbp)   # imm = 0x3A8137E8
	movq	%rdi, -16(%rbp)
	movl	%esi, -28(%rbp)
	movl	%edx, -20(%rbp)
	cmpq	$0, -16(%rbp)
	je	.LBB53_6
# %bb.1:                                # %if.then
	movl	$0, -4(%rbp)
.LBB53_2:                               # %for.cond
                                        # =>This Inner Loop Header: Depth=1
	movl	-4(%rbp), %eax
	cmpl	-28(%rbp), %eax
	jge	.LBB53_5
# %bb.3:                                # %for.body
                                        #   in Loop: Header=BB53_2 Depth=1
	movq	-16(%rbp), %rax
	movslq	-4(%rbp), %rcx
	movq	(%rax,%rcx,8), %rdi
	movl	-20(%rbp), %esi
	callq	free_mem3Dshort
# %bb.4:                                # %for.inc
                                        #   in Loop: Header=BB53_2 Depth=1
	movl	-4(%rbp), %eax
	addl	$1, %eax
	movl	%eax, -4(%rbp)
	jmp	.LBB53_2
.LBB53_5:                               # %for.end
	movq	-16(%rbp), %rdi
	callq	free
	jmp	.LBB53_7
.LBB53_6:                               # %if.else
	movabsq	$.L.str.26, %rdi
	movl	$100, %esi
	callq	error
.LBB53_7:                               # %if.end
	cmpl	$981546984, -24(%rbp)   # imm = 0x3A8137E8
	jne	.LBB53_9
.LBB53_8:
	addq	$32, %rsp
	popq	%rbp
	.cfi_def_cfa %rsp, 8
	retq
.LBB53_9:                               # %func_exit
	.cfi_def_cfa %rbp, 16
	callq	detect_breach
	jmp	.LBB53_8
.Lfunc_end53:
	.size	free_mem4Dshort.27, .Lfunc_end53-free_mem4Dshort.27
	.cfi_endproc
                                        # -- End function
	.globl	get_mem3D.28            # -- Begin function get_mem3D.28
	.p2align	4, 0x90
	.type	get_mem3D.28,@function
get_mem3D.28:                           # @get_mem3D.28
	.cfi_startproc
# %bb.0:                                # %entry
	pushq	%rbp
	.cfi_def_cfa_offset 16
	.cfi_offset %rbp, -16
	movq	%rsp, %rbp
	.cfi_def_cfa_register %rbp
	pushq	%rbx
	subq	$40, %rsp
	.cfi_offset %rbx, -24
	movl	$1766909527, -28(%rbp)  # imm = 0x6950E657
	movq	%rdi, -40(%rbp)
	movl	%esi, -16(%rbp)
	movl	%edx, -24(%rbp)
	movl	%ecx, -20(%rbp)
	movslq	-16(%rbp), %rdi
	movl	$8, %esi
	callq	calloc
	movq	-40(%rbp), %rcx
	movq	%rax, (%rcx)
	cmpq	$0, %rax
	jne	.LBB54_2
# %bb.1:                                # %if.then
	movabsq	$.L.str.9, %rdi
	callq	no_mem_exit
.LBB54_2:                               # %if.end
	movl	$0, -12(%rbp)
.LBB54_3:                               # %for.cond
                                        # =>This Inner Loop Header: Depth=1
	movl	-12(%rbp), %eax
	cmpl	-16(%rbp), %eax
	jge	.LBB54_6
# %bb.4:                                # %for.body
                                        #   in Loop: Header=BB54_3 Depth=1
	movq	-40(%rbp), %rax
	movq	(%rax), %rdi
	movslq	-12(%rbp), %rax
	shlq	$3, %rax
	addq	%rax, %rdi
	movl	-24(%rbp), %esi
	movl	-20(%rbp), %edx
	callq	get_mem2D
# %bb.5:                                # %for.inc
                                        #   in Loop: Header=BB54_3 Depth=1
	movl	-12(%rbp), %eax
	addl	$1, %eax
	movl	%eax, -12(%rbp)
	jmp	.LBB54_3
.LBB54_6:                               # %for.end
	movl	-16(%rbp), %ebx
	imull	-24(%rbp), %ebx
	imull	-20(%rbp), %ebx
	cmpl	$1766909527, -28(%rbp)  # imm = 0x6950E657
	jne	.LBB54_8
.LBB54_7:
	movl	%ebx, %eax
	addq	$40, %rsp
	popq	%rbx
	popq	%rbp
	.cfi_def_cfa %rsp, 8
	retq
.LBB54_8:                               # %func_exit
	.cfi_def_cfa %rbp, 16
	callq	detect_breach
	jmp	.LBB54_7
.Lfunc_end54:
	.size	get_mem3D.28, .Lfunc_end54-get_mem3D.28
	.cfi_endproc
                                        # -- End function
	.globl	free_mem3Dpel.29        # -- Begin function free_mem3Dpel.29
	.p2align	4, 0x90
	.type	free_mem3Dpel.29,@function
free_mem3Dpel.29:                       # @free_mem3Dpel.29
	.cfi_startproc
# %bb.0:                                # %entry
	pushq	%rbp
	.cfi_def_cfa_offset 16
	.cfi_offset %rbp, -16
	movq	%rsp, %rbp
	.cfi_def_cfa_register %rbp
	subq	$32, %rsp
	movl	$391278705, -24(%rbp)   # imm = 0x17527071
	movq	%rdi, -16(%rbp)
	movl	%esi, -20(%rbp)
	cmpq	$0, -16(%rbp)
	je	.LBB55_6
# %bb.1:                                # %if.then
	movl	$0, -4(%rbp)
.LBB55_2:                               # %for.cond
                                        # =>This Inner Loop Header: Depth=1
	movl	-4(%rbp), %eax
	cmpl	-20(%rbp), %eax
	jge	.LBB55_5
# %bb.3:                                # %for.body
                                        #   in Loop: Header=BB55_2 Depth=1
	movq	-16(%rbp), %rax
	movslq	-4(%rbp), %rcx
	movq	(%rax,%rcx,8), %rdi
	callq	free_mem2Dpel
# %bb.4:                                # %for.inc
                                        #   in Loop: Header=BB55_2 Depth=1
	movl	-4(%rbp), %eax
	addl	$1, %eax
	movl	%eax, -4(%rbp)
	jmp	.LBB55_2
.LBB55_5:                               # %for.end
	movq	-16(%rbp), %rdi
	callq	free
	jmp	.LBB55_7
.LBB55_6:                               # %if.else
	movabsq	$.L.str.5, %rdi
	movl	$100, %esi
	callq	error
.LBB55_7:                               # %if.end
	cmpl	$391278705, -24(%rbp)   # imm = 0x17527071
	jne	.LBB55_9
.LBB55_8:
	addq	$32, %rsp
	popq	%rbp
	.cfi_def_cfa %rsp, 8
	retq
.LBB55_9:                               # %func_exit
	.cfi_def_cfa %rbp, 16
	callq	detect_breach
	jmp	.LBB55_8
.Lfunc_end55:
	.size	free_mem3Dpel.29, .Lfunc_end55-free_mem3Dpel.29
	.cfi_endproc
                                        # -- End function
	.globl	free_mem3Dint.30        # -- Begin function free_mem3Dint.30
	.p2align	4, 0x90
	.type	free_mem3Dint.30,@function
free_mem3Dint.30:                       # @free_mem3Dint.30
	.cfi_startproc
# %bb.0:                                # %entry
	pushq	%rbp
	.cfi_def_cfa_offset 16
	.cfi_offset %rbp, -16
	movq	%rsp, %rbp
	.cfi_def_cfa_register %rbp
	subq	$32, %rsp
	movl	$1058474481, -24(%rbp)  # imm = 0x3F1709F1
	movq	%rdi, -16(%rbp)
	movl	%esi, -20(%rbp)
	cmpq	$0, -16(%rbp)
	je	.LBB56_6
# %bb.1:                                # %if.then
	movl	$0, -4(%rbp)
.LBB56_2:                               # %for.cond
                                        # =>This Inner Loop Header: Depth=1
	movl	-4(%rbp), %eax
	cmpl	-20(%rbp), %eax
	jge	.LBB56_5
# %bb.3:                                # %for.body
                                        #   in Loop: Header=BB56_2 Depth=1
	movq	-16(%rbp), %rax
	movslq	-4(%rbp), %rcx
	movq	(%rax,%rcx,8), %rdi
	callq	free_mem2Dint
# %bb.4:                                # %for.inc
                                        #   in Loop: Header=BB56_2 Depth=1
	movl	-4(%rbp), %eax
	addl	$1, %eax
	movl	%eax, -4(%rbp)
	jmp	.LBB56_2
.LBB56_5:                               # %for.end
	movq	-16(%rbp), %rdi
	callq	free
	jmp	.LBB56_7
.LBB56_6:                               # %if.else
	movabsq	$.L.str.17, %rdi
	movl	$100, %esi
	callq	error
.LBB56_7:                               # %if.end
	cmpl	$1058474481, -24(%rbp)  # imm = 0x3F1709F1
	jne	.LBB56_9
.LBB56_8:
	addq	$32, %rsp
	popq	%rbp
	.cfi_def_cfa %rsp, 8
	retq
.LBB56_9:                               # %func_exit
	.cfi_def_cfa %rbp, 16
	callq	detect_breach
	jmp	.LBB56_8
.Lfunc_end56:
	.size	free_mem3Dint.30, .Lfunc_end56-free_mem3Dint.30
	.cfi_endproc
                                        # -- End function
	.globl	free_mem3Dpel.31        # -- Begin function free_mem3Dpel.31
	.p2align	4, 0x90
	.type	free_mem3Dpel.31,@function
free_mem3Dpel.31:                       # @free_mem3Dpel.31
	.cfi_startproc
# %bb.0:                                # %entry
	pushq	%rbp
	.cfi_def_cfa_offset 16
	.cfi_offset %rbp, -16
	movq	%rsp, %rbp
	.cfi_def_cfa_register %rbp
	subq	$32, %rsp
	movl	$1332500825, -20(%rbp)  # imm = 0x4F6C5959
	movq	%rdi, -16(%rbp)
	movl	%esi, -24(%rbp)
	cmpq	$0, -16(%rbp)
	je	.LBB57_6
# %bb.1:                                # %if.then
	movl	$0, -4(%rbp)
.LBB57_2:                               # %for.cond
                                        # =>This Inner Loop Header: Depth=1
	movl	-4(%rbp), %eax
	cmpl	-24(%rbp), %eax
	jge	.LBB57_5
# %bb.3:                                # %for.body
                                        #   in Loop: Header=BB57_2 Depth=1
	movq	-16(%rbp), %rax
	movslq	-4(%rbp), %rcx
	movq	(%rax,%rcx,8), %rdi
	callq	free_mem2Dpel
# %bb.4:                                # %for.inc
                                        #   in Loop: Header=BB57_2 Depth=1
	movl	-4(%rbp), %eax
	addl	$1, %eax
	movl	%eax, -4(%rbp)
	jmp	.LBB57_2
.LBB57_5:                               # %for.end
	movq	-16(%rbp), %rdi
	callq	free
	jmp	.LBB57_7
.LBB57_6:                               # %if.else
	movabsq	$.L.str.5, %rdi
	movl	$100, %esi
	callq	error
.LBB57_7:                               # %if.end
	cmpl	$1332500825, -20(%rbp)  # imm = 0x4F6C5959
	jne	.LBB57_9
.LBB57_8:
	addq	$32, %rsp
	popq	%rbp
	.cfi_def_cfa %rsp, 8
	retq
.LBB57_9:                               # %func_exit
	.cfi_def_cfa %rbp, 16
	callq	detect_breach
	jmp	.LBB57_8
.Lfunc_end57:
	.size	free_mem3Dpel.31, .Lfunc_end57-free_mem3Dpel.31
	.cfi_endproc
                                        # -- End function
	.globl	free_mem3Dint.32        # -- Begin function free_mem3Dint.32
	.p2align	4, 0x90
	.type	free_mem3Dint.32,@function
free_mem3Dint.32:                       # @free_mem3Dint.32
	.cfi_startproc
# %bb.0:                                # %entry
	pushq	%rbp
	.cfi_def_cfa_offset 16
	.cfi_offset %rbp, -16
	movq	%rsp, %rbp
	.cfi_def_cfa_register %rbp
	subq	$32, %rsp
	movl	$630960532, -20(%rbp)   # imm = 0x259BB194
	movq	%rdi, -16(%rbp)
	movl	%esi, -24(%rbp)
	cmpq	$0, -16(%rbp)
	je	.LBB58_6
# %bb.1:                                # %if.then
	movl	$0, -4(%rbp)
.LBB58_2:                               # %for.cond
                                        # =>This Inner Loop Header: Depth=1
	movl	-4(%rbp), %eax
	cmpl	-24(%rbp), %eax
	jge	.LBB58_5
# %bb.3:                                # %for.body
                                        #   in Loop: Header=BB58_2 Depth=1
	movq	-16(%rbp), %rax
	movslq	-4(%rbp), %rcx
	movq	(%rax,%rcx,8), %rdi
	callq	free_mem2Dint
# %bb.4:                                # %for.inc
                                        #   in Loop: Header=BB58_2 Depth=1
	movl	-4(%rbp), %eax
	addl	$1, %eax
	movl	%eax, -4(%rbp)
	jmp	.LBB58_2
.LBB58_5:                               # %for.end
	movq	-16(%rbp), %rdi
	callq	free
	jmp	.LBB58_7
.LBB58_6:                               # %if.else
	movabsq	$.L.str.17, %rdi
	movl	$100, %esi
	callq	error
.LBB58_7:                               # %if.end
	cmpl	$630960532, -20(%rbp)   # imm = 0x259BB194
	jne	.LBB58_9
.LBB58_8:
	addq	$32, %rsp
	popq	%rbp
	.cfi_def_cfa %rsp, 8
	retq
.LBB58_9:                               # %func_exit
	.cfi_def_cfa %rbp, 16
	callq	detect_breach
	jmp	.LBB58_8
.Lfunc_end58:
	.size	free_mem3Dint.32, .Lfunc_end58-free_mem3Dint.32
	.cfi_endproc
                                        # -- End function
	.globl	free_mem3Dint.33        # -- Begin function free_mem3Dint.33
	.p2align	4, 0x90
	.type	free_mem3Dint.33,@function
free_mem3Dint.33:                       # @free_mem3Dint.33
	.cfi_startproc
# %bb.0:                                # %entry
	pushq	%rbp
	.cfi_def_cfa_offset 16
	.cfi_offset %rbp, -16
	movq	%rsp, %rbp
	.cfi_def_cfa_register %rbp
	subq	$32, %rsp
	movl	$1558977986, -24(%rbp)  # imm = 0x5CEC1DC2
	movq	%rdi, -16(%rbp)
	movl	%esi, -20(%rbp)
	cmpq	$0, -16(%rbp)
	je	.LBB59_6
# %bb.1:                                # %if.then
	movl	$0, -4(%rbp)
.LBB59_2:                               # %for.cond
                                        # =>This Inner Loop Header: Depth=1
	movl	-4(%rbp), %eax
	cmpl	-20(%rbp), %eax
	jge	.LBB59_5
# %bb.3:                                # %for.body
                                        #   in Loop: Header=BB59_2 Depth=1
	movq	-16(%rbp), %rax
	movslq	-4(%rbp), %rcx
	movq	(%rax,%rcx,8), %rdi
	callq	free_mem2Dint
# %bb.4:                                # %for.inc
                                        #   in Loop: Header=BB59_2 Depth=1
	movl	-4(%rbp), %eax
	addl	$1, %eax
	movl	%eax, -4(%rbp)
	jmp	.LBB59_2
.LBB59_5:                               # %for.end
	movq	-16(%rbp), %rdi
	callq	free
	jmp	.LBB59_7
.LBB59_6:                               # %if.else
	movabsq	$.L.str.17, %rdi
	movl	$100, %esi
	callq	error
.LBB59_7:                               # %if.end
	cmpl	$1558977986, -24(%rbp)  # imm = 0x5CEC1DC2
	jne	.LBB59_9
.LBB59_8:
	addq	$32, %rsp
	popq	%rbp
	.cfi_def_cfa %rsp, 8
	retq
.LBB59_9:                               # %func_exit
	.cfi_def_cfa %rbp, 16
	callq	detect_breach
	jmp	.LBB59_8
.Lfunc_end59:
	.size	free_mem3Dint.33, .Lfunc_end59-free_mem3Dint.33
	.cfi_endproc
                                        # -- End function
	.globl	free_mem3D.34           # -- Begin function free_mem3D.34
	.p2align	4, 0x90
	.type	free_mem3D.34,@function
free_mem3D.34:                          # @free_mem3D.34
	.cfi_startproc
# %bb.0:                                # %entry
	pushq	%rbp
	.cfi_def_cfa_offset 16
	.cfi_offset %rbp, -16
	movq	%rsp, %rbp
	.cfi_def_cfa_register %rbp
	subq	$32, %rsp
	movl	$1625527177, -20(%rbp)  # imm = 0x60E39389
	movq	%rdi, -16(%rbp)
	movl	%esi, -24(%rbp)
	cmpq	$0, -16(%rbp)
	je	.LBB60_6
# %bb.1:                                # %if.then
	movl	$0, -4(%rbp)
.LBB60_2:                               # %for.cond
                                        # =>This Inner Loop Header: Depth=1
	movl	-4(%rbp), %eax
	cmpl	-24(%rbp), %eax
	jge	.LBB60_5
# %bb.3:                                # %for.body
                                        #   in Loop: Header=BB60_2 Depth=1
	movq	-16(%rbp), %rax
	movslq	-4(%rbp), %rcx
	movq	(%rax,%rcx,8), %rdi
	callq	free_mem2D
# %bb.4:                                # %for.inc
                                        #   in Loop: Header=BB60_2 Depth=1
	movl	-4(%rbp), %eax
	addl	$1, %eax
	movl	%eax, -4(%rbp)
	jmp	.LBB60_2
.LBB60_5:                               # %for.end
	movq	-16(%rbp), %rdi
	callq	free
	jmp	.LBB60_7
.LBB60_6:                               # %if.else
	movabsq	$.L.str.16, %rdi
	movl	$100, %esi
	callq	error
.LBB60_7:                               # %if.end
	cmpl	$1625527177, -20(%rbp)  # imm = 0x60E39389
	jne	.LBB60_9
.LBB60_8:
	addq	$32, %rsp
	popq	%rbp
	.cfi_def_cfa %rsp, 8
	retq
.LBB60_9:                               # %func_exit
	.cfi_def_cfa %rbp, 16
	callq	detect_breach
	jmp	.LBB60_8
.Lfunc_end60:
	.size	free_mem3D.34, .Lfunc_end60-free_mem3D.34
	.cfi_endproc
                                        # -- End function
	.globl	get_mem2Dpel.35         # -- Begin function get_mem2Dpel.35
	.p2align	4, 0x90
	.type	get_mem2Dpel.35,@function
get_mem2Dpel.35:                        # @get_mem2Dpel.35
	.cfi_startproc
# %bb.0:                                # %entry
	pushq	%rbp
	.cfi_def_cfa_offset 16
	.cfi_offset %rbp, -16
	movq	%rsp, %rbp
	.cfi_def_cfa_register %rbp
	pushq	%rbx
	subq	$40, %rsp
	.cfi_offset %rbx, -24
	movl	$788130206, -36(%rbp)   # imm = 0x2EF9E99E
	movq	%rdi, -32(%rbp)
	movl	%esi, -16(%rbp)
	movl	%edx, -20(%rbp)
	movslq	-16(%rbp), %rdi
	movl	$8, %esi
	callq	calloc
	movq	-32(%rbp), %rcx
	movq	%rax, (%rcx)
	cmpq	$0, %rax
	jne	.LBB61_2
# %bb.1:                                # %if.then
	movabsq	$.L.str.2, %rdi
	callq	no_mem_exit
.LBB61_2:                               # %if.end
	movl	-16(%rbp), %eax
	imull	-20(%rbp), %eax
	movslq	%eax, %rdi
	movl	$2, %esi
	callq	calloc
	movq	-32(%rbp), %rcx
	movq	(%rcx), %rcx
	movq	%rax, (%rcx)
	cmpq	$0, %rax
	jne	.LBB61_4
# %bb.3:                                # %if.then6
	movabsq	$.L.str.2, %rdi
	callq	no_mem_exit
.LBB61_4:                               # %if.end7
	movl	$1, -12(%rbp)
.LBB61_5:                               # %for.cond
                                        # =>This Inner Loop Header: Depth=1
	movl	-12(%rbp), %eax
	cmpl	-16(%rbp), %eax
	jge	.LBB61_8
# %bb.6:                                # %for.body
                                        #   in Loop: Header=BB61_5 Depth=1
	movq	-32(%rbp), %rax
	movq	(%rax), %rax
	movl	-12(%rbp), %ecx
	subl	$1, %ecx
	movslq	%ecx, %rcx
	movq	(%rax,%rcx,8), %rax
	movslq	-20(%rbp), %rcx
	shlq	$1, %rcx
	addq	%rcx, %rax
	movq	-32(%rbp), %rcx
	movq	(%rcx), %rcx
	movslq	-12(%rbp), %rdx
	movq	%rax, (%rcx,%rdx,8)
# %bb.7:                                # %for.inc
                                        #   in Loop: Header=BB61_5 Depth=1
	movl	-12(%rbp), %eax
	addl	$1, %eax
	movl	%eax, -12(%rbp)
	jmp	.LBB61_5
.LBB61_8:                               # %for.end
	movl	-16(%rbp), %eax
	imull	-20(%rbp), %eax
	movslq	%eax, %rbx
	shlq	$1, %rbx
	cmpl	$788130206, -36(%rbp)   # imm = 0x2EF9E99E
	jne	.LBB61_10
.LBB61_9:
	movl	%ebx, %eax
	addq	$40, %rsp
	popq	%rbx
	popq	%rbp
	.cfi_def_cfa %rsp, 8
	retq
.LBB61_10:                              # %func_exit
	.cfi_def_cfa %rbp, 16
	callq	detect_breach
	jmp	.LBB61_9
.Lfunc_end61:
	.size	get_mem2Dpel.35, .Lfunc_end61-get_mem2Dpel.35
	.cfi_endproc
                                        # -- End function
	.globl	get_mem3Dint64.36       # -- Begin function get_mem3Dint64.36
	.p2align	4, 0x90
	.type	get_mem3Dint64.36,@function
get_mem3Dint64.36:                      # @get_mem3Dint64.36
	.cfi_startproc
# %bb.0:                                # %entry
	pushq	%rbp
	.cfi_def_cfa_offset 16
	.cfi_offset %rbp, -16
	movq	%rsp, %rbp
	.cfi_def_cfa_register %rbp
	pushq	%rbx
	subq	$40, %rsp
	.cfi_offset %rbx, -24
	movl	$125967148, -28(%rbp)   # imm = 0x7821B2C
	movq	%rdi, -40(%rbp)
	movl	%esi, -16(%rbp)
	movl	%edx, -24(%rbp)
	movl	%ecx, -20(%rbp)
	movslq	-16(%rbp), %rdi
	movl	$8, %esi
	callq	calloc
	movq	-40(%rbp), %rcx
	movq	%rax, (%rcx)
	cmpq	$0, %rax
	jne	.LBB62_2
# %bb.1:                                # %if.then
	movabsq	$.L.str.11, %rdi
	callq	no_mem_exit
.LBB62_2:                               # %if.end
	movl	$0, -12(%rbp)
.LBB62_3:                               # %for.cond
                                        # =>This Inner Loop Header: Depth=1
	movl	-12(%rbp), %eax
	cmpl	-16(%rbp), %eax
	jge	.LBB62_6
# %bb.4:                                # %for.body
                                        #   in Loop: Header=BB62_3 Depth=1
	movq	-40(%rbp), %rax
	movq	(%rax), %rdi
	movslq	-12(%rbp), %rax
	shlq	$3, %rax
	addq	%rax, %rdi
	movl	-24(%rbp), %esi
	movl	-20(%rbp), %edx
	callq	get_mem2Dint64
# %bb.5:                                # %for.inc
                                        #   in Loop: Header=BB62_3 Depth=1
	movl	-12(%rbp), %eax
	addl	$1, %eax
	movl	%eax, -12(%rbp)
	jmp	.LBB62_3
.LBB62_6:                               # %for.end
	movl	-16(%rbp), %eax
	imull	-24(%rbp), %eax
	imull	-20(%rbp), %eax
	movslq	%eax, %rbx
	shlq	$3, %rbx
	cmpl	$125967148, -28(%rbp)   # imm = 0x7821B2C
	jne	.LBB62_8
.LBB62_7:
	movl	%ebx, %eax
	addq	$40, %rsp
	popq	%rbx
	popq	%rbp
	.cfi_def_cfa %rsp, 8
	retq
.LBB62_8:                               # %func_exit
	.cfi_def_cfa %rbp, 16
	callq	detect_breach
	jmp	.LBB62_7
.Lfunc_end62:
	.size	get_mem3Dint64.36, .Lfunc_end62-get_mem3Dint64.36
	.cfi_endproc
                                        # -- End function
	.globl	get_mem3D.37            # -- Begin function get_mem3D.37
	.p2align	4, 0x90
	.type	get_mem3D.37,@function
get_mem3D.37:                           # @get_mem3D.37
	.cfi_startproc
# %bb.0:                                # %entry
	pushq	%rbp
	.cfi_def_cfa_offset 16
	.cfi_offset %rbp, -16
	movq	%rsp, %rbp
	.cfi_def_cfa_register %rbp
	pushq	%rbx
	subq	$40, %rsp
	.cfi_offset %rbx, -24
	movl	$1324130111, -28(%rbp)  # imm = 0x4EEC9F3F
	movq	%rdi, -40(%rbp)
	movl	%esi, -16(%rbp)
	movl	%edx, -20(%rbp)
	movl	%ecx, -24(%rbp)
	movslq	-16(%rbp), %rdi
	movl	$8, %esi
	callq	calloc
	movq	-40(%rbp), %rcx
	movq	%rax, (%rcx)
	cmpq	$0, %rax
	jne	.LBB63_2
# %bb.1:                                # %if.then
	movabsq	$.L.str.9, %rdi
	callq	no_mem_exit
.LBB63_2:                               # %if.end
	movl	$0, -12(%rbp)
.LBB63_3:                               # %for.cond
                                        # =>This Inner Loop Header: Depth=1
	movl	-12(%rbp), %eax
	cmpl	-16(%rbp), %eax
	jge	.LBB63_6
# %bb.4:                                # %for.body
                                        #   in Loop: Header=BB63_3 Depth=1
	movq	-40(%rbp), %rax
	movq	(%rax), %rdi
	movslq	-12(%rbp), %rax
	shlq	$3, %rax
	addq	%rax, %rdi
	movl	-20(%rbp), %esi
	movl	-24(%rbp), %edx
	callq	get_mem2D
# %bb.5:                                # %for.inc
                                        #   in Loop: Header=BB63_3 Depth=1
	movl	-12(%rbp), %eax
	addl	$1, %eax
	movl	%eax, -12(%rbp)
	jmp	.LBB63_3
.LBB63_6:                               # %for.end
	movl	-16(%rbp), %ebx
	imull	-20(%rbp), %ebx
	imull	-24(%rbp), %ebx
	cmpl	$1324130111, -28(%rbp)  # imm = 0x4EEC9F3F
	jne	.LBB63_8
.LBB63_7:
	movl	%ebx, %eax
	addq	$40, %rsp
	popq	%rbx
	popq	%rbp
	.cfi_def_cfa %rsp, 8
	retq
.LBB63_8:                               # %func_exit
	.cfi_def_cfa %rbp, 16
	callq	detect_breach
	jmp	.LBB63_7
.Lfunc_end63:
	.size	get_mem3D.37, .Lfunc_end63-get_mem3D.37
	.cfi_endproc
                                        # -- End function
	.globl	get_mem2Dint64.38       # -- Begin function get_mem2Dint64.38
	.p2align	4, 0x90
	.type	get_mem2Dint64.38,@function
get_mem2Dint64.38:                      # @get_mem2Dint64.38
	.cfi_startproc
# %bb.0:                                # %entry
	pushq	%rbp
	.cfi_def_cfa_offset 16
	.cfi_offset %rbp, -16
	movq	%rsp, %rbp
	.cfi_def_cfa_register %rbp
	pushq	%rbx
	subq	$40, %rsp
	.cfi_offset %rbx, -24
	movl	$1090862538, -36(%rbp)  # imm = 0x41053DCA
	movq	%rdi, -32(%rbp)
	movl	%esi, -16(%rbp)
	movl	%edx, -20(%rbp)
	movslq	-16(%rbp), %rdi
	movl	$8, %esi
	callq	calloc
	movq	-32(%rbp), %rcx
	movq	%rax, (%rcx)
	cmpq	$0, %rax
	jne	.LBB64_2
# %bb.1:                                # %if.then
	movabsq	$.L.str.8, %rdi
	callq	no_mem_exit
.LBB64_2:                               # %if.end
	movl	-16(%rbp), %eax
	imull	-20(%rbp), %eax
	movslq	%eax, %rdi
	movl	$8, %esi
	callq	calloc
	movq	-32(%rbp), %rcx
	movq	(%rcx), %rcx
	movq	%rax, (%rcx)
	cmpq	$0, %rax
	jne	.LBB64_4
# %bb.3:                                # %if.then6
	movabsq	$.L.str.8, %rdi
	callq	no_mem_exit
.LBB64_4:                               # %if.end7
	movl	$1, -12(%rbp)
.LBB64_5:                               # %for.cond
                                        # =>This Inner Loop Header: Depth=1
	movl	-12(%rbp), %eax
	cmpl	-16(%rbp), %eax
	jge	.LBB64_8
# %bb.6:                                # %for.body
                                        #   in Loop: Header=BB64_5 Depth=1
	movq	-32(%rbp), %rax
	movq	(%rax), %rax
	movl	-12(%rbp), %ecx
	subl	$1, %ecx
	movslq	%ecx, %rcx
	movq	(%rax,%rcx,8), %rax
	movslq	-20(%rbp), %rcx
	shlq	$3, %rcx
	addq	%rcx, %rax
	movq	-32(%rbp), %rcx
	movq	(%rcx), %rcx
	movslq	-12(%rbp), %rdx
	movq	%rax, (%rcx,%rdx,8)
# %bb.7:                                # %for.inc
                                        #   in Loop: Header=BB64_5 Depth=1
	movl	-12(%rbp), %eax
	addl	$1, %eax
	movl	%eax, -12(%rbp)
	jmp	.LBB64_5
.LBB64_8:                               # %for.end
	movl	-16(%rbp), %eax
	imull	-20(%rbp), %eax
	movslq	%eax, %rbx
	shlq	$3, %rbx
	cmpl	$1090862538, -36(%rbp)  # imm = 0x41053DCA
	jne	.LBB64_10
.LBB64_9:
	movl	%ebx, %eax
	addq	$40, %rsp
	popq	%rbx
	popq	%rbp
	.cfi_def_cfa %rsp, 8
	retq
.LBB64_10:                              # %func_exit
	.cfi_def_cfa %rbp, 16
	callq	detect_breach
	jmp	.LBB64_9
.Lfunc_end64:
	.size	get_mem2Dint64.38, .Lfunc_end64-get_mem2Dint64.38
	.cfi_endproc
                                        # -- End function
	.globl	free_top_bot_planes.39  # -- Begin function free_top_bot_planes.39
	.p2align	4, 0x90
	.type	free_top_bot_planes.39,@function
free_top_bot_planes.39:                 # @free_top_bot_planes.39
	.cfi_startproc
# %bb.0:                                # %entry
	pushq	%rbp
	.cfi_def_cfa_offset 16
	.cfi_offset %rbp, -16
	movq	%rsp, %rbp
	.cfi_def_cfa_register %rbp
	subq	$32, %rsp
	movl	$897769300, -4(%rbp)    # imm = 0x3582DF54
	movq	%rdi, -16(%rbp)
	movq	%rsi, -24(%rbp)
	movq	-16(%rbp), %rdi
	callq	free
	movq	-24(%rbp), %rdi
	callq	free
	cmpl	$897769300, -4(%rbp)    # imm = 0x3582DF54
	jne	.LBB65_2
.LBB65_1:
	addq	$32, %rsp
	popq	%rbp
	.cfi_def_cfa %rsp, 8
	retq
.LBB65_2:                               # %func_exit
	.cfi_def_cfa %rbp, 16
	callq	detect_breach
	jmp	.LBB65_1
.Lfunc_end65:
	.size	free_top_bot_planes.39, .Lfunc_end65-free_top_bot_planes.39
	.cfi_endproc
                                        # -- End function
	.globl	free_mem3Dint.40        # -- Begin function free_mem3Dint.40
	.p2align	4, 0x90
	.type	free_mem3Dint.40,@function
free_mem3Dint.40:                       # @free_mem3Dint.40
	.cfi_startproc
# %bb.0:                                # %entry
	pushq	%rbp
	.cfi_def_cfa_offset 16
	.cfi_offset %rbp, -16
	movq	%rsp, %rbp
	.cfi_def_cfa_register %rbp
	subq	$32, %rsp
	movl	$247471636, -24(%rbp)   # imm = 0xEC01E14
	movq	%rdi, -16(%rbp)
	movl	%esi, -20(%rbp)
	cmpq	$0, -16(%rbp)
	je	.LBB66_6
# %bb.1:                                # %if.then
	movl	$0, -4(%rbp)
.LBB66_2:                               # %for.cond
                                        # =>This Inner Loop Header: Depth=1
	movl	-4(%rbp), %eax
	cmpl	-20(%rbp), %eax
	jge	.LBB66_5
# %bb.3:                                # %for.body
                                        #   in Loop: Header=BB66_2 Depth=1
	movq	-16(%rbp), %rax
	movslq	-4(%rbp), %rcx
	movq	(%rax,%rcx,8), %rdi
	callq	free_mem2Dint
# %bb.4:                                # %for.inc
                                        #   in Loop: Header=BB66_2 Depth=1
	movl	-4(%rbp), %eax
	addl	$1, %eax
	movl	%eax, -4(%rbp)
	jmp	.LBB66_2
.LBB66_5:                               # %for.end
	movq	-16(%rbp), %rdi
	callq	free
	jmp	.LBB66_7
.LBB66_6:                               # %if.else
	movabsq	$.L.str.17, %rdi
	movl	$100, %esi
	callq	error
.LBB66_7:                               # %if.end
	cmpl	$247471636, -24(%rbp)   # imm = 0xEC01E14
	jne	.LBB66_9
.LBB66_8:
	addq	$32, %rsp
	popq	%rbp
	.cfi_def_cfa %rsp, 8
	retq
.LBB66_9:                               # %func_exit
	.cfi_def_cfa %rbp, 16
	callq	detect_breach
	jmp	.LBB66_8
.Lfunc_end66:
	.size	free_mem3Dint.40, .Lfunc_end66-free_mem3Dint.40
	.cfi_endproc
                                        # -- End function
	.globl	get_mem3Dint64.41       # -- Begin function get_mem3Dint64.41
	.p2align	4, 0x90
	.type	get_mem3Dint64.41,@function
get_mem3Dint64.41:                      # @get_mem3Dint64.41
	.cfi_startproc
# %bb.0:                                # %entry
	pushq	%rbp
	.cfi_def_cfa_offset 16
	.cfi_offset %rbp, -16
	movq	%rsp, %rbp
	.cfi_def_cfa_register %rbp
	pushq	%rbx
	subq	$40, %rsp
	.cfi_offset %rbx, -24
	movl	$1476246639, -28(%rbp)  # imm = 0x57FDBC6F
	movq	%rdi, -40(%rbp)
	movl	%esi, -16(%rbp)
	movl	%edx, -20(%rbp)
	movl	%ecx, -24(%rbp)
	movslq	-16(%rbp), %rdi
	movl	$8, %esi
	callq	calloc
	movq	-40(%rbp), %rcx
	movq	%rax, (%rcx)
	cmpq	$0, %rax
	jne	.LBB67_2
# %bb.1:                                # %if.then
	movabsq	$.L.str.11, %rdi
	callq	no_mem_exit
.LBB67_2:                               # %if.end
	movl	$0, -12(%rbp)
.LBB67_3:                               # %for.cond
                                        # =>This Inner Loop Header: Depth=1
	movl	-12(%rbp), %eax
	cmpl	-16(%rbp), %eax
	jge	.LBB67_6
# %bb.4:                                # %for.body
                                        #   in Loop: Header=BB67_3 Depth=1
	movq	-40(%rbp), %rax
	movq	(%rax), %rdi
	movslq	-12(%rbp), %rax
	shlq	$3, %rax
	addq	%rax, %rdi
	movl	-20(%rbp), %esi
	movl	-24(%rbp), %edx
	callq	get_mem2Dint64
# %bb.5:                                # %for.inc
                                        #   in Loop: Header=BB67_3 Depth=1
	movl	-12(%rbp), %eax
	addl	$1, %eax
	movl	%eax, -12(%rbp)
	jmp	.LBB67_3
.LBB67_6:                               # %for.end
	movl	-16(%rbp), %eax
	imull	-20(%rbp), %eax
	imull	-24(%rbp), %eax
	movslq	%eax, %rbx
	shlq	$3, %rbx
	cmpl	$1476246639, -28(%rbp)  # imm = 0x57FDBC6F
	jne	.LBB67_8
.LBB67_7:
	movl	%ebx, %eax
	addq	$40, %rsp
	popq	%rbx
	popq	%rbp
	.cfi_def_cfa %rsp, 8
	retq
.LBB67_8:                               # %func_exit
	.cfi_def_cfa %rbp, 16
	callq	detect_breach
	jmp	.LBB67_7
.Lfunc_end67:
	.size	get_mem3Dint64.41, .Lfunc_end67-get_mem3Dint64.41
	.cfi_endproc
                                        # -- End function
	.globl	free_mem4Dshort.42      # -- Begin function free_mem4Dshort.42
	.p2align	4, 0x90
	.type	free_mem4Dshort.42,@function
free_mem4Dshort.42:                     # @free_mem4Dshort.42
	.cfi_startproc
# %bb.0:                                # %entry
	pushq	%rbp
	.cfi_def_cfa_offset 16
	.cfi_offset %rbp, -16
	movq	%rsp, %rbp
	.cfi_def_cfa_register %rbp
	subq	$32, %rsp
	movl	$205698530, -24(%rbp)   # imm = 0xC42B5E2
	movq	%rdi, -16(%rbp)
	movl	%esi, -28(%rbp)
	movl	%edx, -20(%rbp)
	cmpq	$0, -16(%rbp)
	je	.LBB68_6
# %bb.1:                                # %if.then
	movl	$0, -4(%rbp)
.LBB68_2:                               # %for.cond
                                        # =>This Inner Loop Header: Depth=1
	movl	-4(%rbp), %eax
	cmpl	-28(%rbp), %eax
	jge	.LBB68_5
# %bb.3:                                # %for.body
                                        #   in Loop: Header=BB68_2 Depth=1
	movq	-16(%rbp), %rax
	movslq	-4(%rbp), %rcx
	movq	(%rax,%rcx,8), %rdi
	movl	-20(%rbp), %esi
	callq	free_mem3Dshort
# %bb.4:                                # %for.inc
                                        #   in Loop: Header=BB68_2 Depth=1
	movl	-4(%rbp), %eax
	addl	$1, %eax
	movl	%eax, -4(%rbp)
	jmp	.LBB68_2
.LBB68_5:                               # %for.end
	movq	-16(%rbp), %rdi
	callq	free
	jmp	.LBB68_7
.LBB68_6:                               # %if.else
	movabsq	$.L.str.26, %rdi
	movl	$100, %esi
	callq	error
.LBB68_7:                               # %if.end
	cmpl	$205698530, -24(%rbp)   # imm = 0xC42B5E2
	jne	.LBB68_9
.LBB68_8:
	addq	$32, %rsp
	popq	%rbp
	.cfi_def_cfa %rsp, 8
	retq
.LBB68_9:                               # %func_exit
	.cfi_def_cfa %rbp, 16
	callq	detect_breach
	jmp	.LBB68_8
.Lfunc_end68:
	.size	free_mem4Dshort.42, .Lfunc_end68-free_mem4Dshort.42
	.cfi_endproc
                                        # -- End function
	.globl	get_mem2Dint64.43       # -- Begin function get_mem2Dint64.43
	.p2align	4, 0x90
	.type	get_mem2Dint64.43,@function
get_mem2Dint64.43:                      # @get_mem2Dint64.43
	.cfi_startproc
# %bb.0:                                # %entry
	pushq	%rbp
	.cfi_def_cfa_offset 16
	.cfi_offset %rbp, -16
	movq	%rsp, %rbp
	.cfi_def_cfa_register %rbp
	pushq	%rbx
	subq	$40, %rsp
	.cfi_offset %rbx, -24
	movl	$1129966453, -36(%rbp)  # imm = 0x4359EB75
	movq	%rdi, -32(%rbp)
	movl	%esi, -16(%rbp)
	movl	%edx, -20(%rbp)
	movslq	-16(%rbp), %rdi
	movl	$8, %esi
	callq	calloc
	movq	-32(%rbp), %rcx
	movq	%rax, (%rcx)
	cmpq	$0, %rax
	jne	.LBB69_2
# %bb.1:                                # %if.then
	movabsq	$.L.str.8, %rdi
	callq	no_mem_exit
.LBB69_2:                               # %if.end
	movl	-16(%rbp), %eax
	imull	-20(%rbp), %eax
	movslq	%eax, %rdi
	movl	$8, %esi
	callq	calloc
	movq	-32(%rbp), %rcx
	movq	(%rcx), %rcx
	movq	%rax, (%rcx)
	cmpq	$0, %rax
	jne	.LBB69_4
# %bb.3:                                # %if.then6
	movabsq	$.L.str.8, %rdi
	callq	no_mem_exit
.LBB69_4:                               # %if.end7
	movl	$1, -12(%rbp)
.LBB69_5:                               # %for.cond
                                        # =>This Inner Loop Header: Depth=1
	movl	-12(%rbp), %eax
	cmpl	-16(%rbp), %eax
	jge	.LBB69_8
# %bb.6:                                # %for.body
                                        #   in Loop: Header=BB69_5 Depth=1
	movq	-32(%rbp), %rax
	movq	(%rax), %rax
	movl	-12(%rbp), %ecx
	subl	$1, %ecx
	movslq	%ecx, %rcx
	movq	(%rax,%rcx,8), %rax
	movslq	-20(%rbp), %rcx
	shlq	$3, %rcx
	addq	%rcx, %rax
	movq	-32(%rbp), %rcx
	movq	(%rcx), %rcx
	movslq	-12(%rbp), %rdx
	movq	%rax, (%rcx,%rdx,8)
# %bb.7:                                # %for.inc
                                        #   in Loop: Header=BB69_5 Depth=1
	movl	-12(%rbp), %eax
	addl	$1, %eax
	movl	%eax, -12(%rbp)
	jmp	.LBB69_5
.LBB69_8:                               # %for.end
	movl	-16(%rbp), %eax
	imull	-20(%rbp), %eax
	movslq	%eax, %rbx
	shlq	$3, %rbx
	cmpl	$1129966453, -36(%rbp)  # imm = 0x4359EB75
	jne	.LBB69_10
.LBB69_9:
	movl	%ebx, %eax
	addq	$40, %rsp
	popq	%rbx
	popq	%rbp
	.cfi_def_cfa %rsp, 8
	retq
.LBB69_10:                              # %func_exit
	.cfi_def_cfa %rbp, 16
	callq	detect_breach
	jmp	.LBB69_9
.Lfunc_end69:
	.size	get_mem2Dint64.43, .Lfunc_end69-get_mem2Dint64.43
	.cfi_endproc
                                        # -- End function
	.globl	free_mem4Dshort.44      # -- Begin function free_mem4Dshort.44
	.p2align	4, 0x90
	.type	free_mem4Dshort.44,@function
free_mem4Dshort.44:                     # @free_mem4Dshort.44
	.cfi_startproc
# %bb.0:                                # %entry
	pushq	%rbp
	.cfi_def_cfa_offset 16
	.cfi_offset %rbp, -16
	movq	%rsp, %rbp
	.cfi_def_cfa_register %rbp
	subq	$32, %rsp
	movl	$1741301642, -24(%rbp)  # imm = 0x67CA278A
	movq	%rdi, -16(%rbp)
	movl	%esi, -28(%rbp)
	movl	%edx, -20(%rbp)
	cmpq	$0, -16(%rbp)
	je	.LBB70_6
# %bb.1:                                # %if.then
	movl	$0, -4(%rbp)
.LBB70_2:                               # %for.cond
                                        # =>This Inner Loop Header: Depth=1
	movl	-4(%rbp), %eax
	cmpl	-28(%rbp), %eax
	jge	.LBB70_5
# %bb.3:                                # %for.body
                                        #   in Loop: Header=BB70_2 Depth=1
	movq	-16(%rbp), %rax
	movslq	-4(%rbp), %rcx
	movq	(%rax,%rcx,8), %rdi
	movl	-20(%rbp), %esi
	callq	free_mem3Dshort
# %bb.4:                                # %for.inc
                                        #   in Loop: Header=BB70_2 Depth=1
	movl	-4(%rbp), %eax
	addl	$1, %eax
	movl	%eax, -4(%rbp)
	jmp	.LBB70_2
.LBB70_5:                               # %for.end
	movq	-16(%rbp), %rdi
	callq	free
	jmp	.LBB70_7
.LBB70_6:                               # %if.else
	movabsq	$.L.str.26, %rdi
	movl	$100, %esi
	callq	error
.LBB70_7:                               # %if.end
	cmpl	$1741301642, -24(%rbp)  # imm = 0x67CA278A
	jne	.LBB70_9
.LBB70_8:
	addq	$32, %rsp
	popq	%rbp
	.cfi_def_cfa %rsp, 8
	retq
.LBB70_9:                               # %func_exit
	.cfi_def_cfa %rbp, 16
	callq	detect_breach
	jmp	.LBB70_8
.Lfunc_end70:
	.size	free_mem4Dshort.44, .Lfunc_end70-free_mem4Dshort.44
	.cfi_endproc
                                        # -- End function
	.globl	get_mem3Dpel.45         # -- Begin function get_mem3Dpel.45
	.p2align	4, 0x90
	.type	get_mem3Dpel.45,@function
get_mem3Dpel.45:                        # @get_mem3Dpel.45
	.cfi_startproc
# %bb.0:                                # %entry
	pushq	%rbp
	.cfi_def_cfa_offset 16
	.cfi_offset %rbp, -16
	movq	%rsp, %rbp
	.cfi_def_cfa_register %rbp
	pushq	%rbx
	subq	$40, %rsp
	.cfi_offset %rbx, -24
	movl	$426308404, -28(%rbp)   # imm = 0x1968F334
	movq	%rdi, -40(%rbp)
	movl	%esi, -16(%rbp)
	movl	%edx, -20(%rbp)
	movl	%ecx, -24(%rbp)
	movslq	-16(%rbp), %rdi
	movl	$8, %esi
	callq	calloc
	movq	-40(%rbp), %rcx
	movq	%rax, (%rcx)
	cmpq	$0, %rax
	jne	.LBB71_2
# %bb.1:                                # %if.then
	movabsq	$.L.str.3, %rdi
	callq	no_mem_exit
.LBB71_2:                               # %if.end
	movl	$0, -12(%rbp)
.LBB71_3:                               # %for.cond
                                        # =>This Inner Loop Header: Depth=1
	movl	-12(%rbp), %eax
	cmpl	-16(%rbp), %eax
	jge	.LBB71_6
# %bb.4:                                # %for.body
                                        #   in Loop: Header=BB71_3 Depth=1
	movq	-40(%rbp), %rax
	movq	(%rax), %rdi
	movslq	-12(%rbp), %rax
	shlq	$3, %rax
	addq	%rax, %rdi
	movl	-20(%rbp), %esi
	movl	-24(%rbp), %edx
	callq	get_mem2Dpel
# %bb.5:                                # %for.inc
                                        #   in Loop: Header=BB71_3 Depth=1
	movl	-12(%rbp), %eax
	addl	$1, %eax
	movl	%eax, -12(%rbp)
	jmp	.LBB71_3
.LBB71_6:                               # %for.end
	movl	-16(%rbp), %eax
	imull	-20(%rbp), %eax
	imull	-24(%rbp), %eax
	movslq	%eax, %rbx
	shlq	$1, %rbx
	cmpl	$426308404, -28(%rbp)   # imm = 0x1968F334
	jne	.LBB71_8
.LBB71_7:
	movl	%ebx, %eax
	addq	$40, %rsp
	popq	%rbx
	popq	%rbp
	.cfi_def_cfa %rsp, 8
	retq
.LBB71_8:                               # %func_exit
	.cfi_def_cfa %rbp, 16
	callq	detect_breach
	jmp	.LBB71_7
.Lfunc_end71:
	.size	get_mem3Dpel.45, .Lfunc_end71-get_mem3Dpel.45
	.cfi_endproc
                                        # -- End function
	.globl	get_mem4Dint.46         # -- Begin function get_mem4Dint.46
	.p2align	4, 0x90
	.type	get_mem4Dint.46,@function
get_mem4Dint.46:                        # @get_mem4Dint.46
	.cfi_startproc
# %bb.0:                                # %entry
	pushq	%rbp
	.cfi_def_cfa_offset 16
	.cfi_offset %rbp, -16
	movq	%rsp, %rbp
	.cfi_def_cfa_register %rbp
	pushq	%rbx
	subq	$40, %rsp
	.cfi_offset %rbx, -24
	movl	$1246665684, -32(%rbp)  # imm = 0x4A4E9BD4
	movq	%rdi, -40(%rbp)
	movl	%esi, -16(%rbp)
	movl	%edx, -20(%rbp)
	movl	%ecx, -28(%rbp)
	movl	%r8d, -24(%rbp)
	movslq	-16(%rbp), %rdi
	movl	$8, %esi
	callq	calloc
	movq	-40(%rbp), %rcx
	movq	%rax, (%rcx)
	cmpq	$0, %rax
	jne	.LBB72_2
# %bb.1:                                # %if.then
	movabsq	$.L.str.12, %rdi
	callq	no_mem_exit
.LBB72_2:                               # %if.end
	movl	$0, -12(%rbp)
.LBB72_3:                               # %for.cond
                                        # =>This Inner Loop Header: Depth=1
	movl	-12(%rbp), %eax
	cmpl	-16(%rbp), %eax
	jge	.LBB72_6
# %bb.4:                                # %for.body
                                        #   in Loop: Header=BB72_3 Depth=1
	movq	-40(%rbp), %rax
	movq	(%rax), %rdi
	movslq	-12(%rbp), %rax
	shlq	$3, %rax
	addq	%rax, %rdi
	movl	-20(%rbp), %esi
	movl	-28(%rbp), %edx
	movl	-24(%rbp), %ecx
	callq	get_mem3Dint
# %bb.5:                                # %for.inc
                                        #   in Loop: Header=BB72_3 Depth=1
	movl	-12(%rbp), %eax
	addl	$1, %eax
	movl	%eax, -12(%rbp)
	jmp	.LBB72_3
.LBB72_6:                               # %for.end
	movl	-16(%rbp), %eax
	imull	-20(%rbp), %eax
	imull	-28(%rbp), %eax
	imull	-24(%rbp), %eax
	movslq	%eax, %rbx
	shlq	$2, %rbx
	cmpl	$1246665684, -32(%rbp)  # imm = 0x4A4E9BD4
	jne	.LBB72_8
.LBB72_7:
	movl	%ebx, %eax
	addq	$40, %rsp
	popq	%rbx
	popq	%rbp
	.cfi_def_cfa %rsp, 8
	retq
.LBB72_8:                               # %func_exit
	.cfi_def_cfa %rbp, 16
	callq	detect_breach
	jmp	.LBB72_7
.Lfunc_end72:
	.size	get_mem4Dint.46, .Lfunc_end72-get_mem4Dint.46
	.cfi_endproc
                                        # -- End function
	.globl	free_mem3D.47           # -- Begin function free_mem3D.47
	.p2align	4, 0x90
	.type	free_mem3D.47,@function
free_mem3D.47:                          # @free_mem3D.47
	.cfi_startproc
# %bb.0:                                # %entry
	pushq	%rbp
	.cfi_def_cfa_offset 16
	.cfi_offset %rbp, -16
	movq	%rsp, %rbp
	.cfi_def_cfa_register %rbp
	subq	$32, %rsp
	movl	$1750490517, -24(%rbp)  # imm = 0x68565D95
	movq	%rdi, -16(%rbp)
	movl	%esi, -20(%rbp)
	cmpq	$0, -16(%rbp)
	je	.LBB73_6
# %bb.1:                                # %if.then
	movl	$0, -4(%rbp)
.LBB73_2:                               # %for.cond
                                        # =>This Inner Loop Header: Depth=1
	movl	-4(%rbp), %eax
	cmpl	-20(%rbp), %eax
	jge	.LBB73_5
# %bb.3:                                # %for.body
                                        #   in Loop: Header=BB73_2 Depth=1
	movq	-16(%rbp), %rax
	movslq	-4(%rbp), %rcx
	movq	(%rax,%rcx,8), %rdi
	callq	free_mem2D
# %bb.4:                                # %for.inc
                                        #   in Loop: Header=BB73_2 Depth=1
	movl	-4(%rbp), %eax
	addl	$1, %eax
	movl	%eax, -4(%rbp)
	jmp	.LBB73_2
.LBB73_5:                               # %for.end
	movq	-16(%rbp), %rdi
	callq	free
	jmp	.LBB73_7
.LBB73_6:                               # %if.else
	movabsq	$.L.str.16, %rdi
	movl	$100, %esi
	callq	error
.LBB73_7:                               # %if.end
	cmpl	$1750490517, -24(%rbp)  # imm = 0x68565D95
	jne	.LBB73_9
.LBB73_8:
	addq	$32, %rsp
	popq	%rbp
	.cfi_def_cfa %rsp, 8
	retq
.LBB73_9:                               # %func_exit
	.cfi_def_cfa %rbp, 16
	callq	detect_breach
	jmp	.LBB73_8
.Lfunc_end73:
	.size	free_mem3D.47, .Lfunc_end73-free_mem3D.47
	.cfi_endproc
                                        # -- End function
	.globl	get_mem4Dshort.48       # -- Begin function get_mem4Dshort.48
	.p2align	4, 0x90
	.type	get_mem4Dshort.48,@function
get_mem4Dshort.48:                      # @get_mem4Dshort.48
	.cfi_startproc
# %bb.0:                                # %entry
	pushq	%rbp
	.cfi_def_cfa_offset 16
	.cfi_offset %rbp, -16
	movq	%rsp, %rbp
	.cfi_def_cfa_register %rbp
	pushq	%rbx
	subq	$40, %rsp
	.cfi_offset %rbx, -24
	movl	$991358603, -32(%rbp)   # imm = 0x3B16EE8B
	movq	%rdi, -40(%rbp)
	movl	%esi, -16(%rbp)
	movl	%edx, -20(%rbp)
	movl	%ecx, -28(%rbp)
	movl	%r8d, -24(%rbp)
	movslq	-16(%rbp), %rdi
	movl	$8, %esi
	callq	calloc
	movq	-40(%rbp), %rcx
	movq	%rax, (%rcx)
	cmpq	$0, %rax
	jne	.LBB74_2
# %bb.1:                                # %if.then
	movabsq	$.L.str.23, %rdi
	callq	no_mem_exit
.LBB74_2:                               # %if.end
	movl	$0, -12(%rbp)
.LBB74_3:                               # %for.cond
                                        # =>This Inner Loop Header: Depth=1
	movl	-12(%rbp), %eax
	cmpl	-16(%rbp), %eax
	jge	.LBB74_6
# %bb.4:                                # %for.body
                                        #   in Loop: Header=BB74_3 Depth=1
	movq	-40(%rbp), %rax
	movq	(%rax), %rdi
	movslq	-12(%rbp), %rax
	shlq	$3, %rax
	addq	%rax, %rdi
	movl	-20(%rbp), %esi
	movl	-28(%rbp), %edx
	movl	-24(%rbp), %ecx
	callq	get_mem3Dshort
# %bb.5:                                # %for.inc
                                        #   in Loop: Header=BB74_3 Depth=1
	movl	-12(%rbp), %eax
	addl	$1, %eax
	movl	%eax, -12(%rbp)
	jmp	.LBB74_3
.LBB74_6:                               # %for.end
	movl	-16(%rbp), %eax
	imull	-20(%rbp), %eax
	imull	-28(%rbp), %eax
	imull	-24(%rbp), %eax
	movslq	%eax, %rbx
	shlq	$1, %rbx
	cmpl	$991358603, -32(%rbp)   # imm = 0x3B16EE8B
	jne	.LBB74_8
.LBB74_7:
	movl	%ebx, %eax
	addq	$40, %rsp
	popq	%rbx
	popq	%rbp
	.cfi_def_cfa %rsp, 8
	retq
.LBB74_8:                               # %func_exit
	.cfi_def_cfa %rbp, 16
	callq	detect_breach
	jmp	.LBB74_7
.Lfunc_end74:
	.size	get_mem4Dshort.48, .Lfunc_end74-get_mem4Dshort.48
	.cfi_endproc
                                        # -- End function
	.globl	get_mem2Dint64.49       # -- Begin function get_mem2Dint64.49
	.p2align	4, 0x90
	.type	get_mem2Dint64.49,@function
get_mem2Dint64.49:                      # @get_mem2Dint64.49
	.cfi_startproc
# %bb.0:                                # %entry
	pushq	%rbp
	.cfi_def_cfa_offset 16
	.cfi_offset %rbp, -16
	movq	%rsp, %rbp
	.cfi_def_cfa_register %rbp
	pushq	%rbx
	subq	$40, %rsp
	.cfi_offset %rbx, -24
	movl	$1952151284, -36(%rbp)  # imm = 0x745B76F4
	movq	%rdi, -32(%rbp)
	movl	%esi, -16(%rbp)
	movl	%edx, -20(%rbp)
	movslq	-16(%rbp), %rdi
	movl	$8, %esi
	callq	calloc
	movq	-32(%rbp), %rcx
	movq	%rax, (%rcx)
	cmpq	$0, %rax
	jne	.LBB75_2
# %bb.1:                                # %if.then
	movabsq	$.L.str.8, %rdi
	callq	no_mem_exit
.LBB75_2:                               # %if.end
	movl	-16(%rbp), %eax
	imull	-20(%rbp), %eax
	movslq	%eax, %rdi
	movl	$8, %esi
	callq	calloc
	movq	-32(%rbp), %rcx
	movq	(%rcx), %rcx
	movq	%rax, (%rcx)
	cmpq	$0, %rax
	jne	.LBB75_4
# %bb.3:                                # %if.then6
	movabsq	$.L.str.8, %rdi
	callq	no_mem_exit
.LBB75_4:                               # %if.end7
	movl	$1, -12(%rbp)
.LBB75_5:                               # %for.cond
                                        # =>This Inner Loop Header: Depth=1
	movl	-12(%rbp), %eax
	cmpl	-16(%rbp), %eax
	jge	.LBB75_8
# %bb.6:                                # %for.body
                                        #   in Loop: Header=BB75_5 Depth=1
	movq	-32(%rbp), %rax
	movq	(%rax), %rax
	movl	-12(%rbp), %ecx
	subl	$1, %ecx
	movslq	%ecx, %rcx
	movq	(%rax,%rcx,8), %rax
	movslq	-20(%rbp), %rcx
	shlq	$3, %rcx
	addq	%rcx, %rax
	movq	-32(%rbp), %rcx
	movq	(%rcx), %rcx
	movslq	-12(%rbp), %rdx
	movq	%rax, (%rcx,%rdx,8)
# %bb.7:                                # %for.inc
                                        #   in Loop: Header=BB75_5 Depth=1
	movl	-12(%rbp), %eax
	addl	$1, %eax
	movl	%eax, -12(%rbp)
	jmp	.LBB75_5
.LBB75_8:                               # %for.end
	movl	-16(%rbp), %eax
	imull	-20(%rbp), %eax
	movslq	%eax, %rbx
	shlq	$3, %rbx
	cmpl	$1952151284, -36(%rbp)  # imm = 0x745B76F4
	jne	.LBB75_10
.LBB75_9:
	movl	%ebx, %eax
	addq	$40, %rsp
	popq	%rbx
	popq	%rbp
	.cfi_def_cfa %rsp, 8
	retq
.LBB75_10:                              # %func_exit
	.cfi_def_cfa %rbp, 16
	callq	detect_breach
	jmp	.LBB75_9
.Lfunc_end75:
	.size	get_mem2Dint64.49, .Lfunc_end75-get_mem2Dint64.49
	.cfi_endproc
                                        # -- End function
	.globl	get_mem3Dint.50         # -- Begin function get_mem3Dint.50
	.p2align	4, 0x90
	.type	get_mem3Dint.50,@function
get_mem3Dint.50:                        # @get_mem3Dint.50
	.cfi_startproc
# %bb.0:                                # %entry
	pushq	%rbp
	.cfi_def_cfa_offset 16
	.cfi_offset %rbp, -16
	movq	%rsp, %rbp
	.cfi_def_cfa_register %rbp
	pushq	%rbx
	subq	$40, %rsp
	.cfi_offset %rbx, -24
	movl	$1715597816, -28(%rbp)  # imm = 0x6641F1F8
	movq	%rdi, -40(%rbp)
	movl	%esi, -16(%rbp)
	movl	%edx, -20(%rbp)
	movl	%ecx, -24(%rbp)
	movslq	-16(%rbp), %rdi
	movl	$8, %esi
	callq	calloc
	movq	-40(%rbp), %rcx
	movq	%rax, (%rcx)
	cmpq	$0, %rax
	jne	.LBB76_2
# %bb.1:                                # %if.then
	movabsq	$.L.str.10, %rdi
	callq	no_mem_exit
.LBB76_2:                               # %if.end
	movl	$0, -12(%rbp)
.LBB76_3:                               # %for.cond
                                        # =>This Inner Loop Header: Depth=1
	movl	-12(%rbp), %eax
	cmpl	-16(%rbp), %eax
	jge	.LBB76_6
# %bb.4:                                # %for.body
                                        #   in Loop: Header=BB76_3 Depth=1
	movq	-40(%rbp), %rax
	movq	(%rax), %rdi
	movslq	-12(%rbp), %rax
	shlq	$3, %rax
	addq	%rax, %rdi
	movl	-20(%rbp), %esi
	movl	-24(%rbp), %edx
	callq	get_mem2Dint
# %bb.5:                                # %for.inc
                                        #   in Loop: Header=BB76_3 Depth=1
	movl	-12(%rbp), %eax
	addl	$1, %eax
	movl	%eax, -12(%rbp)
	jmp	.LBB76_3
.LBB76_6:                               # %for.end
	movl	-16(%rbp), %eax
	imull	-20(%rbp), %eax
	imull	-24(%rbp), %eax
	movslq	%eax, %rbx
	shlq	$2, %rbx
	cmpl	$1715597816, -28(%rbp)  # imm = 0x6641F1F8
	jne	.LBB76_8
.LBB76_7:
	movl	%ebx, %eax
	addq	$40, %rsp
	popq	%rbx
	popq	%rbp
	.cfi_def_cfa %rsp, 8
	retq
.LBB76_8:                               # %func_exit
	.cfi_def_cfa %rbp, 16
	callq	detect_breach
	jmp	.LBB76_7
.Lfunc_end76:
	.size	get_mem3Dint.50, .Lfunc_end76-get_mem3Dint.50
	.cfi_endproc
                                        # -- End function
	.globl	free_mem3Dint64.51      # -- Begin function free_mem3Dint64.51
	.p2align	4, 0x90
	.type	free_mem3Dint64.51,@function
free_mem3Dint64.51:                     # @free_mem3Dint64.51
	.cfi_startproc
# %bb.0:                                # %entry
	pushq	%rbp
	.cfi_def_cfa_offset 16
	.cfi_offset %rbp, -16
	movq	%rsp, %rbp
	.cfi_def_cfa_register %rbp
	subq	$32, %rsp
	movl	$629455747, -24(%rbp)   # imm = 0x2584BB83
	movq	%rdi, -16(%rbp)
	movl	%esi, -20(%rbp)
	cmpq	$0, -16(%rbp)
	je	.LBB77_6
# %bb.1:                                # %if.then
	movl	$0, -4(%rbp)
.LBB77_2:                               # %for.cond
                                        # =>This Inner Loop Header: Depth=1
	movl	-4(%rbp), %eax
	cmpl	-20(%rbp), %eax
	jge	.LBB77_5
# %bb.3:                                # %for.body
                                        #   in Loop: Header=BB77_2 Depth=1
	movq	-16(%rbp), %rax
	movslq	-4(%rbp), %rcx
	movq	(%rax,%rcx,8), %rdi
	callq	free_mem2Dint64
# %bb.4:                                # %for.inc
                                        #   in Loop: Header=BB77_2 Depth=1
	movl	-4(%rbp), %eax
	addl	$1, %eax
	movl	%eax, -4(%rbp)
	jmp	.LBB77_2
.LBB77_5:                               # %for.end
	movq	-16(%rbp), %rdi
	callq	free
	jmp	.LBB77_7
.LBB77_6:                               # %if.else
	movabsq	$.L.str.18, %rdi
	movl	$100, %esi
	callq	error
.LBB77_7:                               # %if.end
	cmpl	$629455747, -24(%rbp)   # imm = 0x2584BB83
	jne	.LBB77_9
.LBB77_8:
	addq	$32, %rsp
	popq	%rbp
	.cfi_def_cfa %rsp, 8
	retq
.LBB77_9:                               # %func_exit
	.cfi_def_cfa %rbp, 16
	callq	detect_breach
	jmp	.LBB77_8
.Lfunc_end77:
	.size	free_mem3Dint64.51, .Lfunc_end77-free_mem3Dint64.51
	.cfi_endproc
                                        # -- End function
	.globl	free_mem3Dint64.52      # -- Begin function free_mem3Dint64.52
	.p2align	4, 0x90
	.type	free_mem3Dint64.52,@function
free_mem3Dint64.52:                     # @free_mem3Dint64.52
	.cfi_startproc
# %bb.0:                                # %entry
	pushq	%rbp
	.cfi_def_cfa_offset 16
	.cfi_offset %rbp, -16
	movq	%rsp, %rbp
	.cfi_def_cfa_register %rbp
	subq	$32, %rsp
	movl	$2083489218, -20(%rbp)  # imm = 0x7C2F85C2
	movq	%rdi, -16(%rbp)
	movl	%esi, -24(%rbp)
	cmpq	$0, -16(%rbp)
	je	.LBB78_6
# %bb.1:                                # %if.then
	movl	$0, -4(%rbp)
.LBB78_2:                               # %for.cond
                                        # =>This Inner Loop Header: Depth=1
	movl	-4(%rbp), %eax
	cmpl	-24(%rbp), %eax
	jge	.LBB78_5
# %bb.3:                                # %for.body
                                        #   in Loop: Header=BB78_2 Depth=1
	movq	-16(%rbp), %rax
	movslq	-4(%rbp), %rcx
	movq	(%rax,%rcx,8), %rdi
	callq	free_mem2Dint64
# %bb.4:                                # %for.inc
                                        #   in Loop: Header=BB78_2 Depth=1
	movl	-4(%rbp), %eax
	addl	$1, %eax
	movl	%eax, -4(%rbp)
	jmp	.LBB78_2
.LBB78_5:                               # %for.end
	movq	-16(%rbp), %rdi
	callq	free
	jmp	.LBB78_7
.LBB78_6:                               # %if.else
	movabsq	$.L.str.18, %rdi
	movl	$100, %esi
	callq	error
.LBB78_7:                               # %if.end
	cmpl	$2083489218, -20(%rbp)  # imm = 0x7C2F85C2
	jne	.LBB78_9
.LBB78_8:
	addq	$32, %rsp
	popq	%rbp
	.cfi_def_cfa %rsp, 8
	retq
.LBB78_9:                               # %func_exit
	.cfi_def_cfa %rbp, 16
	callq	detect_breach
	jmp	.LBB78_8
.Lfunc_end78:
	.size	free_mem3Dint64.52, .Lfunc_end78-free_mem3Dint64.52
	.cfi_endproc
                                        # -- End function
	.globl	get_mem3Dshort.53       # -- Begin function get_mem3Dshort.53
	.p2align	4, 0x90
	.type	get_mem3Dshort.53,@function
get_mem3Dshort.53:                      # @get_mem3Dshort.53
	.cfi_startproc
# %bb.0:                                # %entry
	pushq	%rbp
	.cfi_def_cfa_offset 16
	.cfi_offset %rbp, -16
	movq	%rsp, %rbp
	.cfi_def_cfa_register %rbp
	pushq	%rbx
	subq	$40, %rsp
	.cfi_offset %rbx, -24
	movl	$1656272076, -28(%rbp)  # imm = 0x62B8B4CC
	movq	%rdi, -40(%rbp)
	movl	%esi, -16(%rbp)
	movl	%edx, -20(%rbp)
	movl	%ecx, -24(%rbp)
	movslq	-16(%rbp), %rdi
	movl	$8, %esi
	callq	calloc
	movq	-40(%rbp), %rcx
	movq	%rax, (%rcx)
	cmpq	$0, %rax
	jne	.LBB79_2
# %bb.1:                                # %if.then
	movabsq	$.L.str.22, %rdi
	callq	no_mem_exit
.LBB79_2:                               # %if.end
	movl	$0, -12(%rbp)
.LBB79_3:                               # %for.cond
                                        # =>This Inner Loop Header: Depth=1
	movl	-12(%rbp), %eax
	cmpl	-16(%rbp), %eax
	jge	.LBB79_6
# %bb.4:                                # %for.body
                                        #   in Loop: Header=BB79_3 Depth=1
	movq	-40(%rbp), %rax
	movq	(%rax), %rdi
	movslq	-12(%rbp), %rax
	shlq	$3, %rax
	addq	%rax, %rdi
	movl	-20(%rbp), %esi
	movl	-24(%rbp), %edx
	callq	get_mem2Dshort
# %bb.5:                                # %for.inc
                                        #   in Loop: Header=BB79_3 Depth=1
	movl	-12(%rbp), %eax
	addl	$1, %eax
	movl	%eax, -12(%rbp)
	jmp	.LBB79_3
.LBB79_6:                               # %for.end
	movl	-16(%rbp), %eax
	imull	-20(%rbp), %eax
	imull	-24(%rbp), %eax
	movslq	%eax, %rbx
	shlq	$1, %rbx
	cmpl	$1656272076, -28(%rbp)  # imm = 0x62B8B4CC
	jne	.LBB79_8
.LBB79_7:
	movl	%ebx, %eax
	addq	$40, %rsp
	popq	%rbx
	popq	%rbp
	.cfi_def_cfa %rsp, 8
	retq
.LBB79_8:                               # %func_exit
	.cfi_def_cfa %rbp, 16
	callq	detect_breach
	jmp	.LBB79_7
.Lfunc_end79:
	.size	get_mem3Dshort.53, .Lfunc_end79-get_mem3Dshort.53
	.cfi_endproc
                                        # -- End function
	.globl	free_top_bot_planes.54  # -- Begin function free_top_bot_planes.54
	.p2align	4, 0x90
	.type	free_top_bot_planes.54,@function
free_top_bot_planes.54:                 # @free_top_bot_planes.54
	.cfi_startproc
# %bb.0:                                # %entry
	pushq	%rbp
	.cfi_def_cfa_offset 16
	.cfi_offset %rbp, -16
	movq	%rsp, %rbp
	.cfi_def_cfa_register %rbp
	subq	$32, %rsp
	movl	$1329494222, -4(%rbp)   # imm = 0x4F3E78CE
	movq	%rdi, -24(%rbp)
	movq	%rsi, -16(%rbp)
	movq	-24(%rbp), %rdi
	callq	free
	movq	-16(%rbp), %rdi
	callq	free
	cmpl	$1329494222, -4(%rbp)   # imm = 0x4F3E78CE
	jne	.LBB80_2
.LBB80_1:
	addq	$32, %rsp
	popq	%rbp
	.cfi_def_cfa %rsp, 8
	retq
.LBB80_2:                               # %func_exit
	.cfi_def_cfa %rbp, 16
	callq	detect_breach
	jmp	.LBB80_1
.Lfunc_end80:
	.size	free_top_bot_planes.54, .Lfunc_end80-free_top_bot_planes.54
	.cfi_endproc
                                        # -- End function
	.globl	get_mem3Dint.55         # -- Begin function get_mem3Dint.55
	.p2align	4, 0x90
	.type	get_mem3Dint.55,@function
get_mem3Dint.55:                        # @get_mem3Dint.55
	.cfi_startproc
# %bb.0:                                # %entry
	pushq	%rbp
	.cfi_def_cfa_offset 16
	.cfi_offset %rbp, -16
	movq	%rsp, %rbp
	.cfi_def_cfa_register %rbp
	pushq	%rbx
	subq	$40, %rsp
	.cfi_offset %rbx, -24
	movl	$392976044, -28(%rbp)   # imm = 0x176C56AC
	movq	%rdi, -40(%rbp)
	movl	%esi, -16(%rbp)
	movl	%edx, -24(%rbp)
	movl	%ecx, -20(%rbp)
	movslq	-16(%rbp), %rdi
	movl	$8, %esi
	callq	calloc
	movq	-40(%rbp), %rcx
	movq	%rax, (%rcx)
	cmpq	$0, %rax
	jne	.LBB81_2
# %bb.1:                                # %if.then
	movabsq	$.L.str.10, %rdi
	callq	no_mem_exit
.LBB81_2:                               # %if.end
	movl	$0, -12(%rbp)
.LBB81_3:                               # %for.cond
                                        # =>This Inner Loop Header: Depth=1
	movl	-12(%rbp), %eax
	cmpl	-16(%rbp), %eax
	jge	.LBB81_6
# %bb.4:                                # %for.body
                                        #   in Loop: Header=BB81_3 Depth=1
	movq	-40(%rbp), %rax
	movq	(%rax), %rdi
	movslq	-12(%rbp), %rax
	shlq	$3, %rax
	addq	%rax, %rdi
	movl	-24(%rbp), %esi
	movl	-20(%rbp), %edx
	callq	get_mem2Dint
# %bb.5:                                # %for.inc
                                        #   in Loop: Header=BB81_3 Depth=1
	movl	-12(%rbp), %eax
	addl	$1, %eax
	movl	%eax, -12(%rbp)
	jmp	.LBB81_3
.LBB81_6:                               # %for.end
	movl	-16(%rbp), %eax
	imull	-24(%rbp), %eax
	imull	-20(%rbp), %eax
	movslq	%eax, %rbx
	shlq	$2, %rbx
	cmpl	$392976044, -28(%rbp)   # imm = 0x176C56AC
	jne	.LBB81_8
.LBB81_7:
	movl	%ebx, %eax
	addq	$40, %rsp
	popq	%rbx
	popq	%rbp
	.cfi_def_cfa %rsp, 8
	retq
.LBB81_8:                               # %func_exit
	.cfi_def_cfa %rbp, 16
	callq	detect_breach
	jmp	.LBB81_7
.Lfunc_end81:
	.size	get_mem3Dint.55, .Lfunc_end81-get_mem3Dint.55
	.cfi_endproc
                                        # -- End function
	.globl	get_mem4Dint.56         # -- Begin function get_mem4Dint.56
	.p2align	4, 0x90
	.type	get_mem4Dint.56,@function
get_mem4Dint.56:                        # @get_mem4Dint.56
	.cfi_startproc
# %bb.0:                                # %entry
	pushq	%rbp
	.cfi_def_cfa_offset 16
	.cfi_offset %rbp, -16
	movq	%rsp, %rbp
	.cfi_def_cfa_register %rbp
	pushq	%rbx
	subq	$40, %rsp
	.cfi_offset %rbx, -24
	movl	$681713289, -32(%rbp)   # imm = 0x28A21E89
	movq	%rdi, -40(%rbp)
	movl	%esi, -16(%rbp)
	movl	%edx, -24(%rbp)
	movl	%ecx, -20(%rbp)
	movl	%r8d, -28(%rbp)
	movslq	-16(%rbp), %rdi
	movl	$8, %esi
	callq	calloc
	movq	-40(%rbp), %rcx
	movq	%rax, (%rcx)
	cmpq	$0, %rax
	jne	.LBB82_2
# %bb.1:                                # %if.then
	movabsq	$.L.str.12, %rdi
	callq	no_mem_exit
.LBB82_2:                               # %if.end
	movl	$0, -12(%rbp)
.LBB82_3:                               # %for.cond
                                        # =>This Inner Loop Header: Depth=1
	movl	-12(%rbp), %eax
	cmpl	-16(%rbp), %eax
	jge	.LBB82_6
# %bb.4:                                # %for.body
                                        #   in Loop: Header=BB82_3 Depth=1
	movq	-40(%rbp), %rax
	movq	(%rax), %rdi
	movslq	-12(%rbp), %rax
	shlq	$3, %rax
	addq	%rax, %rdi
	movl	-24(%rbp), %esi
	movl	-20(%rbp), %edx
	movl	-28(%rbp), %ecx
	callq	get_mem3Dint
# %bb.5:                                # %for.inc
                                        #   in Loop: Header=BB82_3 Depth=1
	movl	-12(%rbp), %eax
	addl	$1, %eax
	movl	%eax, -12(%rbp)
	jmp	.LBB82_3
.LBB82_6:                               # %for.end
	movl	-16(%rbp), %eax
	imull	-24(%rbp), %eax
	imull	-20(%rbp), %eax
	imull	-28(%rbp), %eax
	movslq	%eax, %rbx
	shlq	$2, %rbx
	cmpl	$681713289, -32(%rbp)   # imm = 0x28A21E89
	jne	.LBB82_8
.LBB82_7:
	movl	%ebx, %eax
	addq	$40, %rsp
	popq	%rbx
	popq	%rbp
	.cfi_def_cfa %rsp, 8
	retq
.LBB82_8:                               # %func_exit
	.cfi_def_cfa %rbp, 16
	callq	detect_breach
	jmp	.LBB82_7
.Lfunc_end82:
	.size	get_mem4Dint.56, .Lfunc_end82-get_mem4Dint.56
	.cfi_endproc
                                        # -- End function
	.globl	init_top_bot_planes.57  # -- Begin function init_top_bot_planes.57
	.p2align	4, 0x90
	.type	init_top_bot_planes.57,@function
init_top_bot_planes.57:                 # @init_top_bot_planes.57
	.cfi_startproc
# %bb.0:                                # %entry
	pushq	%rbp
	.cfi_def_cfa_offset 16
	.cfi_offset %rbp, -16
	movq	%rsp, %rbp
	.cfi_def_cfa_register %rbp
	pushq	%rbx
	subq	$56, %rsp
	.cfi_offset %rbx, -24
	movl	$2052588829, -20(%rbp)  # imm = 0x7A58051D
	movq	%rdi, -40(%rbp)
	movl	%esi, -16(%rbp)
	movl	%edx, -52(%rbp)
	movq	%rcx, -32(%rbp)
	movq	%r8, -48(%rbp)
	movl	-16(%rbp), %eax
	cltd
	movl	$2, %ecx
	idivl	%ecx
	movslq	%eax, %rdi
	movl	$8, %esi
	callq	calloc
	movq	-32(%rbp), %rcx
	movq	%rax, (%rcx)
	cmpq	$0, %rax
	jne	.LBB83_2
# %bb.1:                                # %if.then
	movabsq	$.L.str, %rdi
	callq	no_mem_exit
.LBB83_2:                               # %if.end
	movl	-16(%rbp), %eax
	cltd
	movl	$2, %ecx
	idivl	%ecx
	movslq	%eax, %rdi
	movl	$8, %esi
	callq	calloc
	movq	-48(%rbp), %rcx
	movq	%rax, (%rcx)
	cmpq	$0, %rax
	jne	.LBB83_4
# %bb.3:                                # %if.then7
	movabsq	$.L.str.1, %rdi
	callq	no_mem_exit
.LBB83_4:                               # %if.end8
	movl	$0, -12(%rbp)
.LBB83_5:                               # %for.cond
                                        # =>This Inner Loop Header: Depth=1
	movl	-12(%rbp), %ecx
	movl	-16(%rbp), %eax
	cltd
	movl	$2, %esi
	idivl	%esi
	cmpl	%eax, %ecx
	jge	.LBB83_8
# %bb.6:                                # %for.body
                                        #   in Loop: Header=BB83_5 Depth=1
	movq	-40(%rbp), %rax
	movl	-12(%rbp), %ecx
	shll	$1, %ecx
	movslq	%ecx, %rcx
	movq	(%rax,%rcx,8), %rax
	movq	-32(%rbp), %rcx
	movq	(%rcx), %rcx
	movslq	-12(%rbp), %rdx
	movq	%rax, (%rcx,%rdx,8)
	movq	-40(%rbp), %rax
	movl	-12(%rbp), %ecx
	shll	$1, %ecx
	addl	$1, %ecx
	movslq	%ecx, %rcx
	movq	(%rax,%rcx,8), %rax
	movq	-48(%rbp), %rcx
	movq	(%rcx), %rcx
	movslq	-12(%rbp), %rdx
	movq	%rax, (%rcx,%rdx,8)
# %bb.7:                                # %for.inc
                                        #   in Loop: Header=BB83_5 Depth=1
	movl	-12(%rbp), %eax
	addl	$1, %eax
	movl	%eax, -12(%rbp)
	jmp	.LBB83_5
.LBB83_8:                               # %for.end
	movslq	-16(%rbp), %rbx
	shlq	$3, %rbx
	cmpl	$2052588829, -20(%rbp)  # imm = 0x7A58051D
	jne	.LBB83_10
.LBB83_9:
	movl	%ebx, %eax
	addq	$56, %rsp
	popq	%rbx
	popq	%rbp
	.cfi_def_cfa %rsp, 8
	retq
.LBB83_10:                              # %func_exit
	.cfi_def_cfa %rbp, 16
	callq	detect_breach
	jmp	.LBB83_9
.Lfunc_end83:
	.size	init_top_bot_planes.57, .Lfunc_end83-init_top_bot_planes.57
	.cfi_endproc
                                        # -- End function
	.globl	get_mem2Dshort.58       # -- Begin function get_mem2Dshort.58
	.p2align	4, 0x90
	.type	get_mem2Dshort.58,@function
get_mem2Dshort.58:                      # @get_mem2Dshort.58
	.cfi_startproc
# %bb.0:                                # %entry
	pushq	%rbp
	.cfi_def_cfa_offset 16
	.cfi_offset %rbp, -16
	movq	%rsp, %rbp
	.cfi_def_cfa_register %rbp
	pushq	%rbx
	subq	$40, %rsp
	.cfi_offset %rbx, -24
	movl	$813933533, -36(%rbp)   # imm = 0x3083A3DD
	movq	%rdi, -32(%rbp)
	movl	%esi, -16(%rbp)
	movl	%edx, -20(%rbp)
	movslq	-16(%rbp), %rdi
	movl	$8, %esi
	callq	calloc
	movq	-32(%rbp), %rcx
	movq	%rax, (%rcx)
	cmpq	$0, %rax
	jne	.LBB84_2
# %bb.1:                                # %if.then
	movabsq	$.L.str.21, %rdi
	callq	no_mem_exit
.LBB84_2:                               # %if.end
	movl	-16(%rbp), %eax
	imull	-20(%rbp), %eax
	movslq	%eax, %rdi
	movl	$2, %esi
	callq	calloc
	movq	-32(%rbp), %rcx
	movq	(%rcx), %rcx
	movq	%rax, (%rcx)
	cmpq	$0, %rax
	jne	.LBB84_4
# %bb.3:                                # %if.then6
	movabsq	$.L.str.21, %rdi
	callq	no_mem_exit
.LBB84_4:                               # %if.end7
	movl	$1, -12(%rbp)
.LBB84_5:                               # %for.cond
                                        # =>This Inner Loop Header: Depth=1
	movl	-12(%rbp), %eax
	cmpl	-16(%rbp), %eax
	jge	.LBB84_8
# %bb.6:                                # %for.body
                                        #   in Loop: Header=BB84_5 Depth=1
	movq	-32(%rbp), %rax
	movq	(%rax), %rax
	movl	-12(%rbp), %ecx
	subl	$1, %ecx
	movslq	%ecx, %rcx
	movq	(%rax,%rcx,8), %rax
	movslq	-20(%rbp), %rcx
	shlq	$1, %rcx
	addq	%rcx, %rax
	movq	-32(%rbp), %rcx
	movq	(%rcx), %rcx
	movslq	-12(%rbp), %rdx
	movq	%rax, (%rcx,%rdx,8)
# %bb.7:                                # %for.inc
                                        #   in Loop: Header=BB84_5 Depth=1
	movl	-12(%rbp), %eax
	addl	$1, %eax
	movl	%eax, -12(%rbp)
	jmp	.LBB84_5
.LBB84_8:                               # %for.end
	movl	-16(%rbp), %eax
	imull	-20(%rbp), %eax
	movslq	%eax, %rbx
	shlq	$1, %rbx
	cmpl	$813933533, -36(%rbp)   # imm = 0x3083A3DD
	jne	.LBB84_10
.LBB84_9:
	movl	%ebx, %eax
	addq	$40, %rsp
	popq	%rbx
	popq	%rbp
	.cfi_def_cfa %rsp, 8
	retq
.LBB84_10:                              # %func_exit
	.cfi_def_cfa %rbp, 16
	callq	detect_breach
	jmp	.LBB84_9
.Lfunc_end84:
	.size	get_mem2Dshort.58, .Lfunc_end84-get_mem2Dshort.58
	.cfi_endproc
                                        # -- End function
	.globl	free_mem4Dint.59        # -- Begin function free_mem4Dint.59
	.p2align	4, 0x90
	.type	free_mem4Dint.59,@function
free_mem4Dint.59:                       # @free_mem4Dint.59
	.cfi_startproc
# %bb.0:                                # %entry
	pushq	%rbp
	.cfi_def_cfa_offset 16
	.cfi_offset %rbp, -16
	movq	%rsp, %rbp
	.cfi_def_cfa_register %rbp
	subq	$32, %rsp
	movl	$1111808354, -28(%rbp)  # imm = 0x4244D962
	movq	%rdi, -16(%rbp)
	movl	%esi, -20(%rbp)
	movl	%edx, -24(%rbp)
	cmpq	$0, -16(%rbp)
	je	.LBB85_6
# %bb.1:                                # %if.then
	movl	$0, -4(%rbp)
.LBB85_2:                               # %for.cond
                                        # =>This Inner Loop Header: Depth=1
	movl	-4(%rbp), %eax
	cmpl	-20(%rbp), %eax
	jge	.LBB85_5
# %bb.3:                                # %for.body
                                        #   in Loop: Header=BB85_2 Depth=1
	movq	-16(%rbp), %rax
	movslq	-4(%rbp), %rcx
	movq	(%rax,%rcx,8), %rdi
	movl	-24(%rbp), %esi
	callq	free_mem3Dint
# %bb.4:                                # %for.inc
                                        #   in Loop: Header=BB85_2 Depth=1
	movl	-4(%rbp), %eax
	addl	$1, %eax
	movl	%eax, -4(%rbp)
	jmp	.LBB85_2
.LBB85_5:                               # %for.end
	movq	-16(%rbp), %rdi
	callq	free
	jmp	.LBB85_7
.LBB85_6:                               # %if.else
	movabsq	$.L.str.19, %rdi
	movl	$100, %esi
	callq	error
.LBB85_7:                               # %if.end
	cmpl	$1111808354, -28(%rbp)  # imm = 0x4244D962
	jne	.LBB85_9
.LBB85_8:
	addq	$32, %rsp
	popq	%rbp
	.cfi_def_cfa %rsp, 8
	retq
.LBB85_9:                               # %func_exit
	.cfi_def_cfa %rbp, 16
	callq	detect_breach
	jmp	.LBB85_8
.Lfunc_end85:
	.size	free_mem4Dint.59, .Lfunc_end85-free_mem4Dint.59
	.cfi_endproc
                                        # -- End function
	.globl	get_mem4Dint.60         # -- Begin function get_mem4Dint.60
	.p2align	4, 0x90
	.type	get_mem4Dint.60,@function
get_mem4Dint.60:                        # @get_mem4Dint.60
	.cfi_startproc
# %bb.0:                                # %entry
	pushq	%rbp
	.cfi_def_cfa_offset 16
	.cfi_offset %rbp, -16
	movq	%rsp, %rbp
	.cfi_def_cfa_register %rbp
	pushq	%rbx
	subq	$40, %rsp
	.cfi_offset %rbx, -24
	movl	$1191746041, -32(%rbp)  # imm = 0x470899F9
	movq	%rdi, -40(%rbp)
	movl	%esi, -16(%rbp)
	movl	%edx, -20(%rbp)
	movl	%ecx, -24(%rbp)
	movl	%r8d, -28(%rbp)
	movslq	-16(%rbp), %rdi
	movl	$8, %esi
	callq	calloc
	movq	-40(%rbp), %rcx
	movq	%rax, (%rcx)
	cmpq	$0, %rax
	jne	.LBB86_2
# %bb.1:                                # %if.then
	movabsq	$.L.str.12, %rdi
	callq	no_mem_exit
.LBB86_2:                               # %if.end
	movl	$0, -12(%rbp)
.LBB86_3:                               # %for.cond
                                        # =>This Inner Loop Header: Depth=1
	movl	-12(%rbp), %eax
	cmpl	-16(%rbp), %eax
	jge	.LBB86_6
# %bb.4:                                # %for.body
                                        #   in Loop: Header=BB86_3 Depth=1
	movq	-40(%rbp), %rax
	movq	(%rax), %rdi
	movslq	-12(%rbp), %rax
	shlq	$3, %rax
	addq	%rax, %rdi
	movl	-20(%rbp), %esi
	movl	-24(%rbp), %edx
	movl	-28(%rbp), %ecx
	callq	get_mem3Dint
# %bb.5:                                # %for.inc
                                        #   in Loop: Header=BB86_3 Depth=1
	movl	-12(%rbp), %eax
	addl	$1, %eax
	movl	%eax, -12(%rbp)
	jmp	.LBB86_3
.LBB86_6:                               # %for.end
	movl	-16(%rbp), %eax
	imull	-20(%rbp), %eax
	imull	-24(%rbp), %eax
	imull	-28(%rbp), %eax
	movslq	%eax, %rbx
	shlq	$2, %rbx
	cmpl	$1191746041, -32(%rbp)  # imm = 0x470899F9
	jne	.LBB86_8
.LBB86_7:
	movl	%ebx, %eax
	addq	$40, %rsp
	popq	%rbx
	popq	%rbp
	.cfi_def_cfa %rsp, 8
	retq
.LBB86_8:                               # %func_exit
	.cfi_def_cfa %rbp, 16
	callq	detect_breach
	jmp	.LBB86_7
.Lfunc_end86:
	.size	get_mem4Dint.60, .Lfunc_end86-get_mem4Dint.60
	.cfi_endproc
                                        # -- End function
	.globl	free_mem4Dshort.61      # -- Begin function free_mem4Dshort.61
	.p2align	4, 0x90
	.type	free_mem4Dshort.61,@function
free_mem4Dshort.61:                     # @free_mem4Dshort.61
	.cfi_startproc
# %bb.0:                                # %entry
	pushq	%rbp
	.cfi_def_cfa_offset 16
	.cfi_offset %rbp, -16
	movq	%rsp, %rbp
	.cfi_def_cfa_register %rbp
	subq	$32, %rsp
	movl	$820797405, -28(%rbp)   # imm = 0x30EC5FDD
	movq	%rdi, -16(%rbp)
	movl	%esi, -24(%rbp)
	movl	%edx, -20(%rbp)
	cmpq	$0, -16(%rbp)
	je	.LBB87_6
# %bb.1:                                # %if.then
	movl	$0, -4(%rbp)
.LBB87_2:                               # %for.cond
                                        # =>This Inner Loop Header: Depth=1
	movl	-4(%rbp), %eax
	cmpl	-24(%rbp), %eax
	jge	.LBB87_5
# %bb.3:                                # %for.body
                                        #   in Loop: Header=BB87_2 Depth=1
	movq	-16(%rbp), %rax
	movslq	-4(%rbp), %rcx
	movq	(%rax,%rcx,8), %rdi
	movl	-20(%rbp), %esi
	callq	free_mem3Dshort
# %bb.4:                                # %for.inc
                                        #   in Loop: Header=BB87_2 Depth=1
	movl	-4(%rbp), %eax
	addl	$1, %eax
	movl	%eax, -4(%rbp)
	jmp	.LBB87_2
.LBB87_5:                               # %for.end
	movq	-16(%rbp), %rdi
	callq	free
	jmp	.LBB87_7
.LBB87_6:                               # %if.else
	movabsq	$.L.str.26, %rdi
	movl	$100, %esi
	callq	error
.LBB87_7:                               # %if.end
	cmpl	$820797405, -28(%rbp)   # imm = 0x30EC5FDD
	jne	.LBB87_9
.LBB87_8:
	addq	$32, %rsp
	popq	%rbp
	.cfi_def_cfa %rsp, 8
	retq
.LBB87_9:                               # %func_exit
	.cfi_def_cfa %rbp, 16
	callq	detect_breach
	jmp	.LBB87_8
.Lfunc_end87:
	.size	free_mem4Dshort.61, .Lfunc_end87-free_mem4Dshort.61
	.cfi_endproc
                                        # -- End function
	.globl	get_mem2D.62            # -- Begin function get_mem2D.62
	.p2align	4, 0x90
	.type	get_mem2D.62,@function
get_mem2D.62:                           # @get_mem2D.62
	.cfi_startproc
# %bb.0:                                # %entry
	pushq	%rbp
	.cfi_def_cfa_offset 16
	.cfi_offset %rbp, -16
	movq	%rsp, %rbp
	.cfi_def_cfa_register %rbp
	pushq	%rbx
	subq	$40, %rsp
	.cfi_offset %rbx, -24
	movl	$9067319, -36(%rbp)     # imm = 0x8A5B37
	movq	%rdi, -32(%rbp)
	movl	%esi, -16(%rbp)
	movl	%edx, -20(%rbp)
	movslq	-16(%rbp), %rdi
	movl	$8, %esi
	callq	calloc
	movq	-32(%rbp), %rcx
	movq	%rax, (%rcx)
	cmpq	$0, %rax
	jne	.LBB88_2
# %bb.1:                                # %if.then
	movabsq	$.L.str.6, %rdi
	callq	no_mem_exit
.LBB88_2:                               # %if.end
	movl	-20(%rbp), %eax
	imull	-16(%rbp), %eax
	movslq	%eax, %rdi
	movl	$1, %esi
	callq	calloc
	movq	-32(%rbp), %rcx
	movq	(%rcx), %rcx
	movq	%rax, (%rcx)
	cmpq	$0, %rax
	jne	.LBB88_4
# %bb.3:                                # %if.then6
	movabsq	$.L.str.6, %rdi
	callq	no_mem_exit
.LBB88_4:                               # %if.end7
	movl	$1, -12(%rbp)
.LBB88_5:                               # %for.cond
                                        # =>This Inner Loop Header: Depth=1
	movl	-12(%rbp), %eax
	cmpl	-16(%rbp), %eax
	jge	.LBB88_8
# %bb.6:                                # %for.body
                                        #   in Loop: Header=BB88_5 Depth=1
	movq	-32(%rbp), %rax
	movq	(%rax), %rax
	movl	-12(%rbp), %ecx
	subl	$1, %ecx
	movslq	%ecx, %rcx
	movq	(%rax,%rcx,8), %rax
	movslq	-20(%rbp), %rcx
	addq	%rcx, %rax
	movq	-32(%rbp), %rcx
	movq	(%rcx), %rcx
	movslq	-12(%rbp), %rdx
	movq	%rax, (%rcx,%rdx,8)
# %bb.7:                                # %for.inc
                                        #   in Loop: Header=BB88_5 Depth=1
	movl	-12(%rbp), %eax
	addl	$1, %eax
	movl	%eax, -12(%rbp)
	jmp	.LBB88_5
.LBB88_8:                               # %for.end
	movl	-16(%rbp), %ebx
	imull	-20(%rbp), %ebx
	cmpl	$9067319, -36(%rbp)     # imm = 0x8A5B37
	jne	.LBB88_10
.LBB88_9:
	movl	%ebx, %eax
	addq	$40, %rsp
	popq	%rbx
	popq	%rbp
	.cfi_def_cfa %rsp, 8
	retq
.LBB88_10:                              # %func_exit
	.cfi_def_cfa %rbp, 16
	callq	detect_breach
	jmp	.LBB88_9
.Lfunc_end88:
	.size	get_mem2D.62, .Lfunc_end88-get_mem2D.62
	.cfi_endproc
                                        # -- End function
	.globl	get_mem2Dpel.63         # -- Begin function get_mem2Dpel.63
	.p2align	4, 0x90
	.type	get_mem2Dpel.63,@function
get_mem2Dpel.63:                        # @get_mem2Dpel.63
	.cfi_startproc
# %bb.0:                                # %entry
	pushq	%rbp
	.cfi_def_cfa_offset 16
	.cfi_offset %rbp, -16
	movq	%rsp, %rbp
	.cfi_def_cfa_register %rbp
	pushq	%rbx
	subq	$40, %rsp
	.cfi_offset %rbx, -24
	movl	$1984749570, -36(%rbp)  # imm = 0x764CE002
	movq	%rdi, -32(%rbp)
	movl	%esi, -16(%rbp)
	movl	%edx, -20(%rbp)
	movslq	-16(%rbp), %rdi
	movl	$8, %esi
	callq	calloc
	movq	-32(%rbp), %rcx
	movq	%rax, (%rcx)
	cmpq	$0, %rax
	jne	.LBB89_2
# %bb.1:                                # %if.then
	movabsq	$.L.str.2, %rdi
	callq	no_mem_exit
.LBB89_2:                               # %if.end
	movl	-16(%rbp), %eax
	imull	-20(%rbp), %eax
	movslq	%eax, %rdi
	movl	$2, %esi
	callq	calloc
	movq	-32(%rbp), %rcx
	movq	(%rcx), %rcx
	movq	%rax, (%rcx)
	cmpq	$0, %rax
	jne	.LBB89_4
# %bb.3:                                # %if.then6
	movabsq	$.L.str.2, %rdi
	callq	no_mem_exit
.LBB89_4:                               # %if.end7
	movl	$1, -12(%rbp)
.LBB89_5:                               # %for.cond
                                        # =>This Inner Loop Header: Depth=1
	movl	-12(%rbp), %eax
	cmpl	-16(%rbp), %eax
	jge	.LBB89_8
# %bb.6:                                # %for.body
                                        #   in Loop: Header=BB89_5 Depth=1
	movq	-32(%rbp), %rax
	movq	(%rax), %rax
	movl	-12(%rbp), %ecx
	subl	$1, %ecx
	movslq	%ecx, %rcx
	movq	(%rax,%rcx,8), %rax
	movslq	-20(%rbp), %rcx
	shlq	$1, %rcx
	addq	%rcx, %rax
	movq	-32(%rbp), %rcx
	movq	(%rcx), %rcx
	movslq	-12(%rbp), %rdx
	movq	%rax, (%rcx,%rdx,8)
# %bb.7:                                # %for.inc
                                        #   in Loop: Header=BB89_5 Depth=1
	movl	-12(%rbp), %eax
	addl	$1, %eax
	movl	%eax, -12(%rbp)
	jmp	.LBB89_5
.LBB89_8:                               # %for.end
	movl	-16(%rbp), %eax
	imull	-20(%rbp), %eax
	movslq	%eax, %rbx
	shlq	$1, %rbx
	cmpl	$1984749570, -36(%rbp)  # imm = 0x764CE002
	jne	.LBB89_10
.LBB89_9:
	movl	%ebx, %eax
	addq	$40, %rsp
	popq	%rbx
	popq	%rbp
	.cfi_def_cfa %rsp, 8
	retq
.LBB89_10:                              # %func_exit
	.cfi_def_cfa %rbp, 16
	callq	detect_breach
	jmp	.LBB89_9
.Lfunc_end89:
	.size	get_mem2Dpel.63, .Lfunc_end89-get_mem2Dpel.63
	.cfi_endproc
                                        # -- End function
	.globl	free_mem3D.64           # -- Begin function free_mem3D.64
	.p2align	4, 0x90
	.type	free_mem3D.64,@function
free_mem3D.64:                          # @free_mem3D.64
	.cfi_startproc
# %bb.0:                                # %entry
	pushq	%rbp
	.cfi_def_cfa_offset 16
	.cfi_offset %rbp, -16
	movq	%rsp, %rbp
	.cfi_def_cfa_register %rbp
	subq	$32, %rsp
	movl	$468430420, -20(%rbp)   # imm = 0x1BEBAE54
	movq	%rdi, -16(%rbp)
	movl	%esi, -24(%rbp)
	cmpq	$0, -16(%rbp)
	je	.LBB90_6
# %bb.1:                                # %if.then
	movl	$0, -4(%rbp)
.LBB90_2:                               # %for.cond
                                        # =>This Inner Loop Header: Depth=1
	movl	-4(%rbp), %eax
	cmpl	-24(%rbp), %eax
	jge	.LBB90_5
# %bb.3:                                # %for.body
                                        #   in Loop: Header=BB90_2 Depth=1
	movq	-16(%rbp), %rax
	movslq	-4(%rbp), %rcx
	movq	(%rax,%rcx,8), %rdi
	callq	free_mem2D
# %bb.4:                                # %for.inc
                                        #   in Loop: Header=BB90_2 Depth=1
	movl	-4(%rbp), %eax
	addl	$1, %eax
	movl	%eax, -4(%rbp)
	jmp	.LBB90_2
.LBB90_5:                               # %for.end
	movq	-16(%rbp), %rdi
	callq	free
	jmp	.LBB90_7
.LBB90_6:                               # %if.else
	movabsq	$.L.str.16, %rdi
	movl	$100, %esi
	callq	error
.LBB90_7:                               # %if.end
	cmpl	$468430420, -20(%rbp)   # imm = 0x1BEBAE54
	jne	.LBB90_9
.LBB90_8:
	addq	$32, %rsp
	popq	%rbp
	.cfi_def_cfa %rsp, 8
	retq
.LBB90_9:                               # %func_exit
	.cfi_def_cfa %rbp, 16
	callq	detect_breach
	jmp	.LBB90_8
.Lfunc_end90:
	.size	free_mem3D.64, .Lfunc_end90-free_mem3D.64
	.cfi_endproc
                                        # -- End function
	.globl	get_mem3D.65            # -- Begin function get_mem3D.65
	.p2align	4, 0x90
	.type	get_mem3D.65,@function
get_mem3D.65:                           # @get_mem3D.65
	.cfi_startproc
# %bb.0:                                # %entry
	pushq	%rbp
	.cfi_def_cfa_offset 16
	.cfi_offset %rbp, -16
	movq	%rsp, %rbp
	.cfi_def_cfa_register %rbp
	pushq	%rbx
	subq	$40, %rsp
	.cfi_offset %rbx, -24
	movl	$425760227, -28(%rbp)   # imm = 0x196095E3
	movq	%rdi, -40(%rbp)
	movl	%esi, -16(%rbp)
	movl	%edx, -24(%rbp)
	movl	%ecx, -20(%rbp)
	movslq	-16(%rbp), %rdi
	movl	$8, %esi
	callq	calloc
	movq	-40(%rbp), %rcx
	movq	%rax, (%rcx)
	cmpq	$0, %rax
	jne	.LBB91_2
# %bb.1:                                # %if.then
	movabsq	$.L.str.9, %rdi
	callq	no_mem_exit
.LBB91_2:                               # %if.end
	movl	$0, -12(%rbp)
.LBB91_3:                               # %for.cond
                                        # =>This Inner Loop Header: Depth=1
	movl	-12(%rbp), %eax
	cmpl	-16(%rbp), %eax
	jge	.LBB91_6
# %bb.4:                                # %for.body
                                        #   in Loop: Header=BB91_3 Depth=1
	movq	-40(%rbp), %rax
	movq	(%rax), %rdi
	movslq	-12(%rbp), %rax
	shlq	$3, %rax
	addq	%rax, %rdi
	movl	-24(%rbp), %esi
	movl	-20(%rbp), %edx
	callq	get_mem2D
# %bb.5:                                # %for.inc
                                        #   in Loop: Header=BB91_3 Depth=1
	movl	-12(%rbp), %eax
	addl	$1, %eax
	movl	%eax, -12(%rbp)
	jmp	.LBB91_3
.LBB91_6:                               # %for.end
	movl	-16(%rbp), %ebx
	imull	-24(%rbp), %ebx
	imull	-20(%rbp), %ebx
	cmpl	$425760227, -28(%rbp)   # imm = 0x196095E3
	jne	.LBB91_8
.LBB91_7:
	movl	%ebx, %eax
	addq	$40, %rsp
	popq	%rbx
	popq	%rbp
	.cfi_def_cfa %rsp, 8
	retq
.LBB91_8:                               # %func_exit
	.cfi_def_cfa %rbp, 16
	callq	detect_breach
	jmp	.LBB91_7
.Lfunc_end91:
	.size	get_mem3D.65, .Lfunc_end91-get_mem3D.65
	.cfi_endproc
                                        # -- End function
	.globl	free_mem3D.66           # -- Begin function free_mem3D.66
	.p2align	4, 0x90
	.type	free_mem3D.66,@function
free_mem3D.66:                          # @free_mem3D.66
	.cfi_startproc
# %bb.0:                                # %entry
	pushq	%rbp
	.cfi_def_cfa_offset 16
	.cfi_offset %rbp, -16
	movq	%rsp, %rbp
	.cfi_def_cfa_register %rbp
	subq	$32, %rsp
	movl	$1331925600, -20(%rbp)  # imm = 0x4F639260
	movq	%rdi, -16(%rbp)
	movl	%esi, -24(%rbp)
	cmpq	$0, -16(%rbp)
	je	.LBB92_6
# %bb.1:                                # %if.then
	movl	$0, -4(%rbp)
.LBB92_2:                               # %for.cond
                                        # =>This Inner Loop Header: Depth=1
	movl	-4(%rbp), %eax
	cmpl	-24(%rbp), %eax
	jge	.LBB92_5
# %bb.3:                                # %for.body
                                        #   in Loop: Header=BB92_2 Depth=1
	movq	-16(%rbp), %rax
	movslq	-4(%rbp), %rcx
	movq	(%rax,%rcx,8), %rdi
	callq	free_mem2D
# %bb.4:                                # %for.inc
                                        #   in Loop: Header=BB92_2 Depth=1
	movl	-4(%rbp), %eax
	addl	$1, %eax
	movl	%eax, -4(%rbp)
	jmp	.LBB92_2
.LBB92_5:                               # %for.end
	movq	-16(%rbp), %rdi
	callq	free
	jmp	.LBB92_7
.LBB92_6:                               # %if.else
	movabsq	$.L.str.16, %rdi
	movl	$100, %esi
	callq	error
.LBB92_7:                               # %if.end
	cmpl	$1331925600, -20(%rbp)  # imm = 0x4F639260
	jne	.LBB92_9
.LBB92_8:
	addq	$32, %rsp
	popq	%rbp
	.cfi_def_cfa %rsp, 8
	retq
.LBB92_9:                               # %func_exit
	.cfi_def_cfa %rbp, 16
	callq	detect_breach
	jmp	.LBB92_8
.Lfunc_end92:
	.size	free_mem3D.66, .Lfunc_end92-free_mem3D.66
	.cfi_endproc
                                        # -- End function
	.globl	get_mem4Dshort.67       # -- Begin function get_mem4Dshort.67
	.p2align	4, 0x90
	.type	get_mem4Dshort.67,@function
get_mem4Dshort.67:                      # @get_mem4Dshort.67
	.cfi_startproc
# %bb.0:                                # %entry
	pushq	%rbp
	.cfi_def_cfa_offset 16
	.cfi_offset %rbp, -16
	movq	%rsp, %rbp
	.cfi_def_cfa_register %rbp
	pushq	%rbx
	subq	$40, %rsp
	.cfi_offset %rbx, -24
	movl	$431059269, -32(%rbp)   # imm = 0x19B17145
	movq	%rdi, -40(%rbp)
	movl	%esi, -16(%rbp)
	movl	%edx, -20(%rbp)
	movl	%ecx, -24(%rbp)
	movl	%r8d, -28(%rbp)
	movslq	-16(%rbp), %rdi
	movl	$8, %esi
	callq	calloc
	movq	-40(%rbp), %rcx
	movq	%rax, (%rcx)
	cmpq	$0, %rax
	jne	.LBB93_2
# %bb.1:                                # %if.then
	movabsq	$.L.str.23, %rdi
	callq	no_mem_exit
.LBB93_2:                               # %if.end
	movl	$0, -12(%rbp)
.LBB93_3:                               # %for.cond
                                        # =>This Inner Loop Header: Depth=1
	movl	-12(%rbp), %eax
	cmpl	-16(%rbp), %eax
	jge	.LBB93_6
# %bb.4:                                # %for.body
                                        #   in Loop: Header=BB93_3 Depth=1
	movq	-40(%rbp), %rax
	movq	(%rax), %rdi
	movslq	-12(%rbp), %rax
	shlq	$3, %rax
	addq	%rax, %rdi
	movl	-20(%rbp), %esi
	movl	-24(%rbp), %edx
	movl	-28(%rbp), %ecx
	callq	get_mem3Dshort
# %bb.5:                                # %for.inc
                                        #   in Loop: Header=BB93_3 Depth=1
	movl	-12(%rbp), %eax
	addl	$1, %eax
	movl	%eax, -12(%rbp)
	jmp	.LBB93_3
.LBB93_6:                               # %for.end
	movl	-16(%rbp), %eax
	imull	-20(%rbp), %eax
	imull	-24(%rbp), %eax
	imull	-28(%rbp), %eax
	movslq	%eax, %rbx
	shlq	$1, %rbx
	cmpl	$431059269, -32(%rbp)   # imm = 0x19B17145
	jne	.LBB93_8
.LBB93_7:
	movl	%ebx, %eax
	addq	$40, %rsp
	popq	%rbx
	popq	%rbp
	.cfi_def_cfa %rsp, 8
	retq
.LBB93_8:                               # %func_exit
	.cfi_def_cfa %rbp, 16
	callq	detect_breach
	jmp	.LBB93_7
.Lfunc_end93:
	.size	get_mem4Dshort.67, .Lfunc_end93-get_mem4Dshort.67
	.cfi_endproc
                                        # -- End function
	.globl	free_mem3Dint.68        # -- Begin function free_mem3Dint.68
	.p2align	4, 0x90
	.type	free_mem3Dint.68,@function
free_mem3Dint.68:                       # @free_mem3Dint.68
	.cfi_startproc
# %bb.0:                                # %entry
	pushq	%rbp
	.cfi_def_cfa_offset 16
	.cfi_offset %rbp, -16
	movq	%rsp, %rbp
	.cfi_def_cfa_register %rbp
	subq	$32, %rsp
	movl	$933713398, -20(%rbp)   # imm = 0x37A755F6
	movq	%rdi, -16(%rbp)
	movl	%esi, -24(%rbp)
	cmpq	$0, -16(%rbp)
	je	.LBB94_6
# %bb.1:                                # %if.then
	movl	$0, -4(%rbp)
.LBB94_2:                               # %for.cond
                                        # =>This Inner Loop Header: Depth=1
	movl	-4(%rbp), %eax
	cmpl	-24(%rbp), %eax
	jge	.LBB94_5
# %bb.3:                                # %for.body
                                        #   in Loop: Header=BB94_2 Depth=1
	movq	-16(%rbp), %rax
	movslq	-4(%rbp), %rcx
	movq	(%rax,%rcx,8), %rdi
	callq	free_mem2Dint
# %bb.4:                                # %for.inc
                                        #   in Loop: Header=BB94_2 Depth=1
	movl	-4(%rbp), %eax
	addl	$1, %eax
	movl	%eax, -4(%rbp)
	jmp	.LBB94_2
.LBB94_5:                               # %for.end
	movq	-16(%rbp), %rdi
	callq	free
	jmp	.LBB94_7
.LBB94_6:                               # %if.else
	movabsq	$.L.str.17, %rdi
	movl	$100, %esi
	callq	error
.LBB94_7:                               # %if.end
	cmpl	$933713398, -20(%rbp)   # imm = 0x37A755F6
	jne	.LBB94_9
.LBB94_8:
	addq	$32, %rsp
	popq	%rbp
	.cfi_def_cfa %rsp, 8
	retq
.LBB94_9:                               # %func_exit
	.cfi_def_cfa %rbp, 16
	callq	detect_breach
	jmp	.LBB94_8
.Lfunc_end94:
	.size	free_mem3Dint.68, .Lfunc_end94-free_mem3Dint.68
	.cfi_endproc
                                        # -- End function
	.globl	get_mem4Dint.69         # -- Begin function get_mem4Dint.69
	.p2align	4, 0x90
	.type	get_mem4Dint.69,@function
get_mem4Dint.69:                        # @get_mem4Dint.69
	.cfi_startproc
# %bb.0:                                # %entry
	pushq	%rbp
	.cfi_def_cfa_offset 16
	.cfi_offset %rbp, -16
	movq	%rsp, %rbp
	.cfi_def_cfa_register %rbp
	pushq	%rbx
	subq	$40, %rsp
	.cfi_offset %rbx, -24
	movl	$730908191, -32(%rbp)   # imm = 0x2B90C61F
	movq	%rdi, -40(%rbp)
	movl	%esi, -16(%rbp)
	movl	%edx, -28(%rbp)
	movl	%ecx, -24(%rbp)
	movl	%r8d, -20(%rbp)
	movslq	-16(%rbp), %rdi
	movl	$8, %esi
	callq	calloc
	movq	-40(%rbp), %rcx
	movq	%rax, (%rcx)
	cmpq	$0, %rax
	jne	.LBB95_2
# %bb.1:                                # %if.then
	movabsq	$.L.str.12, %rdi
	callq	no_mem_exit
.LBB95_2:                               # %if.end
	movl	$0, -12(%rbp)
.LBB95_3:                               # %for.cond
                                        # =>This Inner Loop Header: Depth=1
	movl	-12(%rbp), %eax
	cmpl	-16(%rbp), %eax
	jge	.LBB95_6
