	.text
	.file	"memalloc.c"
	.globl	init_top_bot_planes     # -- Begin function init_top_bot_planes
	.p2align	4, 0x90
	.type	init_top_bot_planes,@function
init_top_bot_planes:                    # @init_top_bot_planes
	.cfi_startproc
# %bb.0:                                # %entry
	pushq	%rbp
	.cfi_def_cfa_offset 16
	.cfi_offset %rbp, -16
	movq	%rsp, %rbp
	.cfi_def_cfa_register %rbp
	subq	$48, %rsp
	movq	%rdi, -32(%rbp)
	movl	%esi, -8(%rbp)
	movl	%edx, -36(%rbp)
	movq	%rcx, -24(%rbp)
	movq	%r8, -16(%rbp)
	movl	-8(%rbp), %eax
	cltd
	movl	$2, %ecx
	idivl	%ecx
	movslq	%eax, %rdi
	movl	$8, %esi
	callq	calloc
	movq	-24(%rbp), %rcx
	movq	%rax, (%rcx)
	cmpq	$0, %rax
	jne	.LBB0_2
# %bb.1:                                # %if.then
	movabsq	$.L.str, %rdi
	callq	no_mem_exit
.LBB0_2:                                # %if.end
	movl	-8(%rbp), %eax
	cltd
	movl	$2, %ecx
	idivl	%ecx
	movslq	%eax, %rdi
	movl	$8, %esi
	callq	calloc
	movq	-16(%rbp), %rcx
	movq	%rax, (%rcx)
	cmpq	$0, %rax
	jne	.LBB0_4
# %bb.3:                                # %if.then7
	movabsq	$.L.str.1, %rdi
	callq	no_mem_exit
.LBB0_4:                                # %if.end8
	movl	$0, -4(%rbp)
.LBB0_5:                                # %for.cond
                                        # =>This Inner Loop Header: Depth=1
	movl	-4(%rbp), %ecx
	movl	-8(%rbp), %eax
	cltd
	movl	$2, %esi
	idivl	%esi
	cmpl	%eax, %ecx
	jge	.LBB0_8
# %bb.6:                                # %for.body
                                        #   in Loop: Header=BB0_5 Depth=1
	movq	-32(%rbp), %rax
	movl	-4(%rbp), %ecx
	shll	$1, %ecx
	movslq	%ecx, %rcx
	movq	(%rax,%rcx,8), %rax
	movq	-24(%rbp), %rcx
	movq	(%rcx), %rcx
	movslq	-4(%rbp), %rdx
	movq	%rax, (%rcx,%rdx,8)
	movq	-32(%rbp), %rax
	movl	-4(%rbp), %ecx
	shll	$1, %ecx
	addl	$1, %ecx
	movslq	%ecx, %rcx
	movq	(%rax,%rcx,8), %rax
	movq	-16(%rbp), %rcx
	movq	(%rcx), %rcx
	movslq	-4(%rbp), %rdx
	movq	%rax, (%rcx,%rdx,8)
# %bb.7:                                # %for.inc
                                        #   in Loop: Header=BB0_5 Depth=1
	movl	-4(%rbp), %eax
	addl	$1, %eax
	movl	%eax, -4(%rbp)
	jmp	.LBB0_5
.LBB0_8:                                # %for.end
	movslq	-8(%rbp), %rax
	shlq	$3, %rax
                                        # kill: def $eax killed $eax killed $rax
	addq	$48, %rsp
	popq	%rbp
	.cfi_def_cfa %rsp, 8
	retq
.Lfunc_end0:
	.size	init_top_bot_planes, .Lfunc_end0-init_top_bot_planes
	.cfi_endproc
                                        # -- End function
	.globl	no_mem_exit             # -- Begin function no_mem_exit
	.p2align	4, 0x90
	.type	no_mem_exit,@function
no_mem_exit:                            # @no_mem_exit
	.cfi_startproc
# %bb.0:                                # %entry
	pushq	%rbp
	.cfi_def_cfa_offset 16
	.cfi_offset %rbp, -16
	movq	%rsp, %rbp
	.cfi_def_cfa_register %rbp
	subq	$16, %rsp
	movq	%rdi, -8(%rbp)
	movq	-8(%rbp), %rcx
	movabsq	$errortext, %rdi
	movl	$300, %esi              # imm = 0x12C
	movabsq	$.L.str.20, %rdx
	movb	$0, %al
	callq	snprintf
	movabsq	$errortext, %rdi
	movl	$100, %esi
	callq	error
	addq	$16, %rsp
	popq	%rbp
	.cfi_def_cfa %rsp, 8
	retq
.Lfunc_end1:
	.size	no_mem_exit, .Lfunc_end1-no_mem_exit
	.cfi_endproc
                                        # -- End function
	.globl	free_top_bot_planes     # -- Begin function free_top_bot_planes
	.p2align	4, 0x90
	.type	free_top_bot_planes,@function
free_top_bot_planes:                    # @free_top_bot_planes
	.cfi_startproc
# %bb.0:                                # %entry
	pushq	%rbp
	.cfi_def_cfa_offset 16
	.cfi_offset %rbp, -16
	movq	%rsp, %rbp
	.cfi_def_cfa_register %rbp
	subq	$16, %rsp
	movq	%rdi, -16(%rbp)
	movq	%rsi, -8(%rbp)
	movq	-16(%rbp), %rdi
	callq	free
	movq	-8(%rbp), %rdi
	callq	free
	addq	$16, %rsp
	popq	%rbp
	.cfi_def_cfa %rsp, 8
	retq
.Lfunc_end2:
	.size	free_top_bot_planes, .Lfunc_end2-free_top_bot_planes
	.cfi_endproc
                                        # -- End function
	.globl	get_mem2Dpel            # -- Begin function get_mem2Dpel
	.p2align	4, 0x90
	.type	get_mem2Dpel,@function
get_mem2Dpel:                           # @get_mem2Dpel
	.cfi_startproc
# %bb.0:                                # %entry
	pushq	%rbp
	.cfi_def_cfa_offset 16
	.cfi_offset %rbp, -16
	movq	%rsp, %rbp
	.cfi_def_cfa_register %rbp
	subq	$32, %rsp
	movq	%rdi, -24(%rbp)
	movl	%esi, -8(%rbp)
	movl	%edx, -12(%rbp)
	movslq	-8(%rbp), %rdi
	movl	$8, %esi
	callq	calloc
	movq	-24(%rbp), %rcx
	movq	%rax, (%rcx)
	cmpq	$0, %rax
	jne	.LBB3_2
# %bb.1:                                # %if.then
	movabsq	$.L.str.2, %rdi
	callq	no_mem_exit
.LBB3_2:                                # %if.end
	movl	-8(%rbp), %eax
	imull	-12(%rbp), %eax
	movslq	%eax, %rdi
	movl	$2, %esi
	callq	calloc
	movq	-24(%rbp), %rcx
	movq	(%rcx), %rcx
	movq	%rax, (%rcx)
	cmpq	$0, %rax
	jne	.LBB3_4
# %bb.3:                                # %if.then6
	movabsq	$.L.str.2, %rdi
	callq	no_mem_exit
.LBB3_4:                                # %if.end7
	movl	$1, -4(%rbp)
.LBB3_5:                                # %for.cond
                                        # =>This Inner Loop Header: Depth=1
	movl	-4(%rbp), %eax
	cmpl	-8(%rbp), %eax
	jge	.LBB3_8
# %bb.6:                                # %for.body
                                        #   in Loop: Header=BB3_5 Depth=1
	movq	-24(%rbp), %rax
	movq	(%rax), %rax
	movl	-4(%rbp), %ecx
	subl	$1, %ecx
	movslq	%ecx, %rcx
	movq	(%rax,%rcx,8), %rax
	movslq	-12(%rbp), %rcx
	shlq	$1, %rcx
	addq	%rcx, %rax
	movq	-24(%rbp), %rcx
	movq	(%rcx), %rcx
	movslq	-4(%rbp), %rdx
	movq	%rax, (%rcx,%rdx,8)
# %bb.7:                                # %for.inc
                                        #   in Loop: Header=BB3_5 Depth=1
	movl	-4(%rbp), %eax
	addl	$1, %eax
	movl	%eax, -4(%rbp)
	jmp	.LBB3_5
.LBB3_8:                                # %for.end
	movl	-8(%rbp), %eax
	imull	-12(%rbp), %eax
	cltq
	shlq	$1, %rax
                                        # kill: def $eax killed $eax killed $rax
	addq	$32, %rsp
	popq	%rbp
	.cfi_def_cfa %rsp, 8
	retq
.Lfunc_end3:
	.size	get_mem2Dpel, .Lfunc_end3-get_mem2Dpel
	.cfi_endproc
                                        # -- End function
	.globl	get_mem3Dpel            # -- Begin function get_mem3Dpel
	.p2align	4, 0x90
	.type	get_mem3Dpel,@function
get_mem3Dpel:                           # @get_mem3Dpel
	.cfi_startproc
# %bb.0:                                # %entry
	pushq	%rbp
	.cfi_def_cfa_offset 16
	.cfi_offset %rbp, -16
	movq	%rsp, %rbp
	.cfi_def_cfa_register %rbp
	subq	$32, %rsp
	movq	%rdi, -24(%rbp)
	movl	%esi, -8(%rbp)
	movl	%edx, -16(%rbp)
	movl	%ecx, -12(%rbp)
	movslq	-8(%rbp), %rdi
	movl	$8, %esi
	callq	calloc
	movq	-24(%rbp), %rcx
	movq	%rax, (%rcx)
	cmpq	$0, %rax
	jne	.LBB4_2
# %bb.1:                                # %if.then
	movabsq	$.L.str.3, %rdi
	callq	no_mem_exit
.LBB4_2:                                # %if.end
	movl	$0, -4(%rbp)
.LBB4_3:                                # %for.cond
                                        # =>This Inner Loop Header: Depth=1
	movl	-4(%rbp), %eax
	cmpl	-8(%rbp), %eax
	jge	.LBB4_6
# %bb.4:                                # %for.body
                                        #   in Loop: Header=BB4_3 Depth=1
	movq	-24(%rbp), %rax
	movq	(%rax), %rdi
	movslq	-4(%rbp), %rax
	shlq	$3, %rax
	addq	%rax, %rdi
	movl	-16(%rbp), %esi
	movl	-12(%rbp), %edx
	callq	get_mem2Dpel
# %bb.5:                                # %for.inc
                                        #   in Loop: Header=BB4_3 Depth=1
	movl	-4(%rbp), %eax
	addl	$1, %eax
	movl	%eax, -4(%rbp)
	jmp	.LBB4_3
.LBB4_6:                                # %for.end
	movl	-8(%rbp), %eax
	imull	-16(%rbp), %eax
	imull	-12(%rbp), %eax
	cltq
	shlq	$1, %rax
                                        # kill: def $eax killed $eax killed $rax
	addq	$32, %rsp
	popq	%rbp
	.cfi_def_cfa %rsp, 8
	retq
.Lfunc_end4:
	.size	get_mem3Dpel, .Lfunc_end4-get_mem3Dpel
	.cfi_endproc
                                        # -- End function
	.globl	free_mem2Dpel           # -- Begin function free_mem2Dpel
	.p2align	4, 0x90
	.type	free_mem2Dpel,@function
free_mem2Dpel:                          # @free_mem2Dpel
	.cfi_startproc
# %bb.0:                                # %entry
	pushq	%rbp
	.cfi_def_cfa_offset 16
	.cfi_offset %rbp, -16
	movq	%rsp, %rbp
	.cfi_def_cfa_register %rbp
	subq	$16, %rsp
	movq	%rdi, -8(%rbp)
	cmpq	$0, -8(%rbp)
	je	.LBB5_5
# %bb.1:                                # %if.then
	movq	-8(%rbp), %rax
	cmpq	$0, (%rax)
	je	.LBB5_3
# %bb.2:                                # %if.then2
	movq	-8(%rbp), %rax
	movq	(%rax), %rdi
	callq	free
	jmp	.LBB5_4
.LBB5_3:                                # %if.else
	movabsq	$.L.str.4, %rdi
	movl	$100, %esi
	callq	error
.LBB5_4:                                # %if.end
	movq	-8(%rbp), %rdi
	callq	free
	jmp	.LBB5_6
.LBB5_5:                                # %if.else4
	movabsq	$.L.str.4, %rdi
	movl	$100, %esi
	callq	error
.LBB5_6:                                # %if.end5
	addq	$16, %rsp
	popq	%rbp
	.cfi_def_cfa %rsp, 8
	retq
.Lfunc_end5:
	.size	free_mem2Dpel, .Lfunc_end5-free_mem2Dpel
	.cfi_endproc
                                        # -- End function
	.globl	free_mem3Dpel           # -- Begin function free_mem3Dpel
	.p2align	4, 0x90
	.type	free_mem3Dpel,@function
free_mem3Dpel:                          # @free_mem3Dpel
	.cfi_startproc
# %bb.0:                                # %entry
	pushq	%rbp
	.cfi_def_cfa_offset 16
	.cfi_offset %rbp, -16
	movq	%rsp, %rbp
	.cfi_def_cfa_register %rbp
	subq	$32, %rsp
	movq	%rdi, -16(%rbp)
	movl	%esi, -20(%rbp)
	cmpq	$0, -16(%rbp)
	je	.LBB6_6
# %bb.1:                                # %if.then
	movl	$0, -4(%rbp)
.LBB6_2:                                # %for.cond
                                        # =>This Inner Loop Header: Depth=1
	movl	-4(%rbp), %eax
	cmpl	-20(%rbp), %eax
	jge	.LBB6_5
# %bb.3:                                # %for.body
                                        #   in Loop: Header=BB6_2 Depth=1
	movq	-16(%rbp), %rax
	movslq	-4(%rbp), %rcx
	movq	(%rax,%rcx,8), %rdi
	callq	free_mem2Dpel
# %bb.4:                                # %for.inc
                                        #   in Loop: Header=BB6_2 Depth=1
	movl	-4(%rbp), %eax
	addl	$1, %eax
	movl	%eax, -4(%rbp)
	jmp	.LBB6_2
.LBB6_5:                                # %for.end
	movq	-16(%rbp), %rdi
	callq	free
	jmp	.LBB6_7
.LBB6_6:                                # %if.else
	movabsq	$.L.str.5, %rdi
	movl	$100, %esi
	callq	error
.LBB6_7:                                # %if.end
	addq	$32, %rsp
	popq	%rbp
	.cfi_def_cfa %rsp, 8
	retq
.Lfunc_end6:
	.size	free_mem3Dpel, .Lfunc_end6-free_mem3Dpel
	.cfi_endproc
                                        # -- End function
	.globl	get_mem2D               # -- Begin function get_mem2D
	.p2align	4, 0x90
	.type	get_mem2D,@function
get_mem2D:                              # @get_mem2D
	.cfi_startproc
# %bb.0:                                # %entry
	pushq	%rbp
	.cfi_def_cfa_offset 16
	.cfi_offset %rbp, -16
	movq	%rsp, %rbp
	.cfi_def_cfa_register %rbp
	subq	$32, %rsp
	movq	%rdi, -24(%rbp)
	movl	%esi, -8(%rbp)
	movl	%edx, -12(%rbp)
	movslq	-8(%rbp), %rdi
	movl	$8, %esi
	callq	calloc
	movq	-24(%rbp), %rcx
	movq	%rax, (%rcx)
	cmpq	$0, %rax
	jne	.LBB7_2
# %bb.1:                                # %if.then
	movabsq	$.L.str.6, %rdi
	callq	no_mem_exit
.LBB7_2:                                # %if.end
	movl	-12(%rbp), %eax
	imull	-8(%rbp), %eax
	movslq	%eax, %rdi
	movl	$1, %esi
	callq	calloc
	movq	-24(%rbp), %rcx
	movq	(%rcx), %rcx
	movq	%rax, (%rcx)
	cmpq	$0, %rax
	jne	.LBB7_4
# %bb.3:                                # %if.then6
	movabsq	$.L.str.6, %rdi
	callq	no_mem_exit
.LBB7_4:                                # %if.end7
	movl	$1, -4(%rbp)
.LBB7_5:                                # %for.cond
                                        # =>This Inner Loop Header: Depth=1
	movl	-4(%rbp), %eax
	cmpl	-8(%rbp), %eax
	jge	.LBB7_8
# %bb.6:                                # %for.body
                                        #   in Loop: Header=BB7_5 Depth=1
	movq	-24(%rbp), %rax
	movq	(%rax), %rax
	movl	-4(%rbp), %ecx
	subl	$1, %ecx
	movslq	%ecx, %rcx
	movq	(%rax,%rcx,8), %rax
	movslq	-12(%rbp), %rcx
	addq	%rcx, %rax
	movq	-24(%rbp), %rcx
	movq	(%rcx), %rcx
	movslq	-4(%rbp), %rdx
	movq	%rax, (%rcx,%rdx,8)
# %bb.7:                                # %for.inc
                                        #   in Loop: Header=BB7_5 Depth=1
	movl	-4(%rbp), %eax
	addl	$1, %eax
	movl	%eax, -4(%rbp)
	jmp	.LBB7_5
.LBB7_8:                                # %for.end
	movl	-8(%rbp), %eax
	imull	-12(%rbp), %eax
	addq	$32, %rsp
	popq	%rbp
	.cfi_def_cfa %rsp, 8
	retq
.Lfunc_end7:
	.size	get_mem2D, .Lfunc_end7-get_mem2D
	.cfi_endproc
                                        # -- End function
	.globl	get_mem2Dint            # -- Begin function get_mem2Dint
	.p2align	4, 0x90
	.type	get_mem2Dint,@function
get_mem2Dint:                           # @get_mem2Dint
	.cfi_startproc
# %bb.0:                                # %entry
	pushq	%rbp
	.cfi_def_cfa_offset 16
	.cfi_offset %rbp, -16
	movq	%rsp, %rbp
	.cfi_def_cfa_register %rbp
	subq	$32, %rsp
	movq	%rdi, -24(%rbp)
	movl	%esi, -8(%rbp)
	movl	%edx, -12(%rbp)
	movslq	-8(%rbp), %rdi
	movl	$8, %esi
	callq	calloc
	movq	-24(%rbp), %rcx
	movq	%rax, (%rcx)
	cmpq	$0, %rax
	jne	.LBB8_2
# %bb.1:                                # %if.then
	movabsq	$.L.str.7, %rdi
	callq	no_mem_exit
.LBB8_2:                                # %if.end
	movl	-8(%rbp), %eax
	imull	-12(%rbp), %eax
	movslq	%eax, %rdi
	movl	$4, %esi
	callq	calloc
	movq	-24(%rbp), %rcx
	movq	(%rcx), %rcx
	movq	%rax, (%rcx)
	cmpq	$0, %rax
	jne	.LBB8_4
# %bb.3:                                # %if.then6
	movabsq	$.L.str.7, %rdi
	callq	no_mem_exit
.LBB8_4:                                # %if.end7
	movl	$1, -4(%rbp)
.LBB8_5:                                # %for.cond
                                        # =>This Inner Loop Header: Depth=1
	movl	-4(%rbp), %eax
	cmpl	-8(%rbp), %eax
	jge	.LBB8_8
# %bb.6:                                # %for.body
                                        #   in Loop: Header=BB8_5 Depth=1
	movq	-24(%rbp), %rax
	movq	(%rax), %rax
	movl	-4(%rbp), %ecx
	subl	$1, %ecx
	movslq	%ecx, %rcx
	movq	(%rax,%rcx,8), %rax
	movslq	-12(%rbp), %rcx
	shlq	$2, %rcx
	addq	%rcx, %rax
	movq	-24(%rbp), %rcx
	movq	(%rcx), %rcx
	movslq	-4(%rbp), %rdx
	movq	%rax, (%rcx,%rdx,8)
# %bb.7:                                # %for.inc
                                        #   in Loop: Header=BB8_5 Depth=1
	movl	-4(%rbp), %eax
	addl	$1, %eax
	movl	%eax, -4(%rbp)
	jmp	.LBB8_5
.LBB8_8:                                # %for.end
	movl	-8(%rbp), %eax
	imull	-12(%rbp), %eax
	cltq
	shlq	$2, %rax
                                        # kill: def $eax killed $eax killed $rax
	addq	$32, %rsp
	popq	%rbp
	.cfi_def_cfa %rsp, 8
	retq
.Lfunc_end8:
	.size	get_mem2Dint, .Lfunc_end8-get_mem2Dint
	.cfi_endproc
                                        # -- End function
	.globl	get_mem2Dint64          # -- Begin function get_mem2Dint64
	.p2align	4, 0x90
	.type	get_mem2Dint64,@function
get_mem2Dint64:                         # @get_mem2Dint64
	.cfi_startproc
# %bb.0:                                # %entry
	pushq	%rbp
	.cfi_def_cfa_offset 16
	.cfi_offset %rbp, -16
	movq	%rsp, %rbp
	.cfi_def_cfa_register %rbp
	subq	$32, %rsp
	movq	%rdi, -24(%rbp)
	movl	%esi, -8(%rbp)
	movl	%edx, -12(%rbp)
	movslq	-8(%rbp), %rdi
	movl	$8, %esi
	callq	calloc
	movq	-24(%rbp), %rcx
	movq	%rax, (%rcx)
	cmpq	$0, %rax
	jne	.LBB9_2
# %bb.1:                                # %if.then
	movabsq	$.L.str.8, %rdi
	callq	no_mem_exit
.LBB9_2:                                # %if.end
	movl	-8(%rbp), %eax
	imull	-12(%rbp), %eax
	movslq	%eax, %rdi
	movl	$8, %esi
	callq	calloc
	movq	-24(%rbp), %rcx
	movq	(%rcx), %rcx
	movq	%rax, (%rcx)
	cmpq	$0, %rax
	jne	.LBB9_4
# %bb.3:                                # %if.then6
	movabsq	$.L.str.8, %rdi
	callq	no_mem_exit
.LBB9_4:                                # %if.end7
	movl	$1, -4(%rbp)
.LBB9_5:                                # %for.cond
                                        # =>This Inner Loop Header: Depth=1
	movl	-4(%rbp), %eax
	cmpl	-8(%rbp), %eax
	jge	.LBB9_8
# %bb.6:                                # %for.body
                                        #   in Loop: Header=BB9_5 Depth=1
	movq	-24(%rbp), %rax
	movq	(%rax), %rax
	movl	-4(%rbp), %ecx
	subl	$1, %ecx
	movslq	%ecx, %rcx
	movq	(%rax,%rcx,8), %rax
	movslq	-12(%rbp), %rcx
	shlq	$3, %rcx
	addq	%rcx, %rax
	movq	-24(%rbp), %rcx
	movq	(%rcx), %rcx
	movslq	-4(%rbp), %rdx
	movq	%rax, (%rcx,%rdx,8)
# %bb.7:                                # %for.inc
                                        #   in Loop: Header=BB9_5 Depth=1
	movl	-4(%rbp), %eax
	addl	$1, %eax
	movl	%eax, -4(%rbp)
	jmp	.LBB9_5
.LBB9_8:                                # %for.end
	movl	-8(%rbp), %eax
	imull	-12(%rbp), %eax
	cltq
	shlq	$3, %rax
                                        # kill: def $eax killed $eax killed $rax
	addq	$32, %rsp
	popq	%rbp
	.cfi_def_cfa %rsp, 8
	retq
.Lfunc_end9:
	.size	get_mem2Dint64, .Lfunc_end9-get_mem2Dint64
	.cfi_endproc
                                        # -- End function
	.globl	get_mem3D               # -- Begin function get_mem3D
	.p2align	4, 0x90
	.type	get_mem3D,@function
get_mem3D:                              # @get_mem3D
	.cfi_startproc
# %bb.0:                                # %entry
	pushq	%rbp
	.cfi_def_cfa_offset 16
	.cfi_offset %rbp, -16
	movq	%rsp, %rbp
	.cfi_def_cfa_register %rbp
	subq	$32, %rsp
	movq	%rdi, -24(%rbp)
	movl	%esi, -8(%rbp)
	movl	%edx, -16(%rbp)
	movl	%ecx, -12(%rbp)
	movslq	-8(%rbp), %rdi
	movl	$8, %esi
	callq	calloc
	movq	-24(%rbp), %rcx
	movq	%rax, (%rcx)
	cmpq	$0, %rax
	jne	.LBB10_2
# %bb.1:                                # %if.then
	movabsq	$.L.str.9, %rdi
	callq	no_mem_exit
.LBB10_2:                               # %if.end
	movl	$0, -4(%rbp)
.LBB10_3:                               # %for.cond
                                        # =>This Inner Loop Header: Depth=1
	movl	-4(%rbp), %eax
	cmpl	-8(%rbp), %eax
	jge	.LBB10_6
# %bb.4:                                # %for.body
                                        #   in Loop: Header=BB10_3 Depth=1
	movq	-24(%rbp), %rax
	movq	(%rax), %rdi
	movslq	-4(%rbp), %rax
	shlq	$3, %rax
	addq	%rax, %rdi
	movl	-16(%rbp), %esi
	movl	-12(%rbp), %edx
	callq	get_mem2D
# %bb.5:                                # %for.inc
                                        #   in Loop: Header=BB10_3 Depth=1
	movl	-4(%rbp), %eax
	addl	$1, %eax
	movl	%eax, -4(%rbp)
	jmp	.LBB10_3
.LBB10_6:                               # %for.end
	movl	-8(%rbp), %eax
	imull	-16(%rbp), %eax
	imull	-12(%rbp), %eax
	addq	$32, %rsp
	popq	%rbp
	.cfi_def_cfa %rsp, 8
	retq
.Lfunc_end10:
	.size	get_mem3D, .Lfunc_end10-get_mem3D
	.cfi_endproc
                                        # -- End function
	.globl	get_mem3Dint            # -- Begin function get_mem3Dint
	.p2align	4, 0x90
	.type	get_mem3Dint,@function
get_mem3Dint:                           # @get_mem3Dint
	.cfi_startproc
# %bb.0:                                # %entry
	pushq	%rbp
	.cfi_def_cfa_offset 16
	.cfi_offset %rbp, -16
	movq	%rsp, %rbp
	.cfi_def_cfa_register %rbp
	subq	$32, %rsp
	movq	%rdi, -24(%rbp)
	movl	%esi, -8(%rbp)
	movl	%edx, -16(%rbp)
	movl	%ecx, -12(%rbp)
	movslq	-8(%rbp), %rdi
	movl	$8, %esi
	callq	calloc
	movq	-24(%rbp), %rcx
	movq	%rax, (%rcx)
	cmpq	$0, %rax
	jne	.LBB11_2
# %bb.1:                                # %if.then
	movabsq	$.L.str.10, %rdi
	callq	no_mem_exit
.LBB11_2:                               # %if.end
	movl	$0, -4(%rbp)
.LBB11_3:                               # %for.cond
                                        # =>This Inner Loop Header: Depth=1
	movl	-4(%rbp), %eax
	cmpl	-8(%rbp), %eax
	jge	.LBB11_6
# %bb.4:                                # %for.body
                                        #   in Loop: Header=BB11_3 Depth=1
	movq	-24(%rbp), %rax
	movq	(%rax), %rdi
	movslq	-4(%rbp), %rax
	shlq	$3, %rax
	addq	%rax, %rdi
	movl	-16(%rbp), %esi
	movl	-12(%rbp), %edx
	callq	get_mem2Dint
# %bb.5:                                # %for.inc
                                        #   in Loop: Header=BB11_3 Depth=1
	movl	-4(%rbp), %eax
	addl	$1, %eax
	movl	%eax, -4(%rbp)
	jmp	.LBB11_3
.LBB11_6:                               # %for.end
	movl	-8(%rbp), %eax
	imull	-16(%rbp), %eax
	imull	-12(%rbp), %eax
	cltq
	shlq	$2, %rax
                                        # kill: def $eax killed $eax killed $rax
	addq	$32, %rsp
	popq	%rbp
	.cfi_def_cfa %rsp, 8
	retq
.Lfunc_end11:
	.size	get_mem3Dint, .Lfunc_end11-get_mem3Dint
	.cfi_endproc
                                        # -- End function
	.globl	get_mem3Dint64          # -- Begin function get_mem3Dint64
	.p2align	4, 0x90
	.type	get_mem3Dint64,@function
get_mem3Dint64:                         # @get_mem3Dint64
	.cfi_startproc
# %bb.0:                                # %entry
	pushq	%rbp
	.cfi_def_cfa_offset 16
	.cfi_offset %rbp, -16
	movq	%rsp, %rbp
	.cfi_def_cfa_register %rbp
	subq	$32, %rsp
	movq	%rdi, -24(%rbp)
	movl	%esi, -8(%rbp)
	movl	%edx, -16(%rbp)
	movl	%ecx, -12(%rbp)
	movslq	-8(%rbp), %rdi
	movl	$8, %esi
	callq	calloc
	movq	-24(%rbp), %rcx
	movq	%rax, (%rcx)
	cmpq	$0, %rax
	jne	.LBB12_2
# %bb.1:                                # %if.then
	movabsq	$.L.str.11, %rdi
	callq	no_mem_exit
.LBB12_2:                               # %if.end
	movl	$0, -4(%rbp)
.LBB12_3:                               # %for.cond
                                        # =>This Inner Loop Header: Depth=1
	movl	-4(%rbp), %eax
	cmpl	-8(%rbp), %eax
	jge	.LBB12_6
# %bb.4:                                # %for.body
                                        #   in Loop: Header=BB12_3 Depth=1
	movq	-24(%rbp), %rax
	movq	(%rax), %rdi
	movslq	-4(%rbp), %rax
	shlq	$3, %rax
	addq	%rax, %rdi
	movl	-16(%rbp), %esi
	movl	-12(%rbp), %edx
	callq	get_mem2Dint64
# %bb.5:                                # %for.inc
                                        #   in Loop: Header=BB12_3 Depth=1
	movl	-4(%rbp), %eax
	addl	$1, %eax
	movl	%eax, -4(%rbp)
	jmp	.LBB12_3
.LBB12_6:                               # %for.end
	movl	-8(%rbp), %eax
	imull	-16(%rbp), %eax
	imull	-12(%rbp), %eax
	cltq
	shlq	$3, %rax
                                        # kill: def $eax killed $eax killed $rax
	addq	$32, %rsp
	popq	%rbp
	.cfi_def_cfa %rsp, 8
	retq
.Lfunc_end12:
	.size	get_mem3Dint64, .Lfunc_end12-get_mem3Dint64
	.cfi_endproc
                                        # -- End function
	.globl	get_mem4Dint            # -- Begin function get_mem4Dint
	.p2align	4, 0x90
	.type	get_mem4Dint,@function
get_mem4Dint:                           # @get_mem4Dint
	.cfi_startproc
# %bb.0:                                # %entry
	pushq	%rbp
	.cfi_def_cfa_offset 16
	.cfi_offset %rbp, -16
	movq	%rsp, %rbp
	.cfi_def_cfa_register %rbp
	subq	$32, %rsp
	movq	%rdi, -32(%rbp)
	movl	%esi, -8(%rbp)
	movl	%edx, -20(%rbp)
	movl	%ecx, -16(%rbp)
	movl	%r8d, -12(%rbp)
	movslq	-8(%rbp), %rdi
	movl	$8, %esi
	callq	calloc
	movq	-32(%rbp), %rcx
	movq	%rax, (%rcx)
	cmpq	$0, %rax
	jne	.LBB13_2
# %bb.1:                                # %if.then
	movabsq	$.L.str.12, %rdi
	callq	no_mem_exit
.LBB13_2:                               # %if.end
	movl	$0, -4(%rbp)
.LBB13_3:                               # %for.cond
                                        # =>This Inner Loop Header: Depth=1
	movl	-4(%rbp), %eax
	cmpl	-8(%rbp), %eax
	jge	.LBB13_6
# %bb.4:                                # %for.body
                                        #   in Loop: Header=BB13_3 Depth=1
	movq	-32(%rbp), %rax
	movq	(%rax), %rdi
	movslq	-4(%rbp), %rax
	shlq	$3, %rax
	addq	%rax, %rdi
	movl	-20(%rbp), %esi
	movl	-16(%rbp), %edx
	movl	-12(%rbp), %ecx
	callq	get_mem3Dint
# %bb.5:                                # %for.inc
                                        #   in Loop: Header=BB13_3 Depth=1
	movl	-4(%rbp), %eax
	addl	$1, %eax
	movl	%eax, -4(%rbp)
	jmp	.LBB13_3
.LBB13_6:                               # %for.end
	movl	-8(%rbp), %eax
	imull	-20(%rbp), %eax
	imull	-16(%rbp), %eax
	imull	-12(%rbp), %eax
	cltq
	shlq	$2, %rax
                                        # kill: def $eax killed $eax killed $rax
	addq	$32, %rsp
	popq	%rbp
	.cfi_def_cfa %rsp, 8
	retq
.Lfunc_end13:
	.size	get_mem4Dint, .Lfunc_end13-get_mem4Dint
	.cfi_endproc
                                        # -- End function
	.globl	free_mem2D              # -- Begin function free_mem2D
	.p2align	4, 0x90
	.type	free_mem2D,@function
free_mem2D:                             # @free_mem2D
	.cfi_startproc
# %bb.0:                                # %entry
	pushq	%rbp
	.cfi_def_cfa_offset 16
	.cfi_offset %rbp, -16
	movq	%rsp, %rbp
	.cfi_def_cfa_register %rbp
	subq	$16, %rsp
	movq	%rdi, -8(%rbp)
	cmpq	$0, -8(%rbp)
	je	.LBB14_5
# %bb.1:                                # %if.then
	movq	-8(%rbp), %rax
	cmpq	$0, (%rax)
	je	.LBB14_3
# %bb.2:                                # %if.then2
	movq	-8(%rbp), %rax
	movq	(%rax), %rdi
	callq	free
	jmp	.LBB14_4
.LBB14_3:                               # %if.else
	movabsq	$.L.str.13, %rdi
	movl	$100, %esi
	callq	error
.LBB14_4:                               # %if.end
	movq	-8(%rbp), %rdi
	callq	free
	jmp	.LBB14_6
.LBB14_5:                               # %if.else4
	movabsq	$.L.str.13, %rdi
	movl	$100, %esi
	callq	error
.LBB14_6:                               # %if.end5
	addq	$16, %rsp
	popq	%rbp
	.cfi_def_cfa %rsp, 8
	retq
.Lfunc_end14:
	.size	free_mem2D, .Lfunc_end14-free_mem2D
	.cfi_endproc
                                        # -- End function
	.globl	free_mem2Dint           # -- Begin function free_mem2Dint
	.p2align	4, 0x90
	.type	free_mem2Dint,@function
free_mem2Dint:                          # @free_mem2Dint
	.cfi_startproc
# %bb.0:                                # %entry
	pushq	%rbp
	.cfi_def_cfa_offset 16
	.cfi_offset %rbp, -16
	movq	%rsp, %rbp
	.cfi_def_cfa_register %rbp
	subq	$16, %rsp
	movq	%rdi, -8(%rbp)
	cmpq	$0, -8(%rbp)
	je	.LBB15_5
# %bb.1:                                # %if.then
	movq	-8(%rbp), %rax
	cmpq	$0, (%rax)
	je	.LBB15_3
# %bb.2:                                # %if.then2
	movq	-8(%rbp), %rax
	movq	(%rax), %rdi
	callq	free
	jmp	.LBB15_4
.LBB15_3:                               # %if.else
	movabsq	$.L.str.14, %rdi
	movl	$100, %esi
	callq	error
.LBB15_4:                               # %if.end
	movq	-8(%rbp), %rdi
	callq	free
	jmp	.LBB15_6
.LBB15_5:                               # %if.else4
	movabsq	$.L.str.14, %rdi
	movl	$100, %esi
	callq	error
.LBB15_6:                               # %if.end5
	addq	$16, %rsp
	popq	%rbp
	.cfi_def_cfa %rsp, 8
	retq
.Lfunc_end15:
	.size	free_mem2Dint, .Lfunc_end15-free_mem2Dint
	.cfi_endproc
                                        # -- End function
	.globl	free_mem2Dint64         # -- Begin function free_mem2Dint64
	.p2align	4, 0x90
	.type	free_mem2Dint64,@function
free_mem2Dint64:                        # @free_mem2Dint64
	.cfi_startproc
# %bb.0:                                # %entry
	pushq	%rbp
	.cfi_def_cfa_offset 16
	.cfi_offset %rbp, -16
	movq	%rsp, %rbp
	.cfi_def_cfa_register %rbp
	subq	$16, %rsp
	movq	%rdi, -8(%rbp)
	cmpq	$0, -8(%rbp)
	je	.LBB16_5
# %bb.1:                                # %if.then
	movq	-8(%rbp), %rax
	cmpq	$0, (%rax)
	je	.LBB16_3
# %bb.2:                                # %if.then2
	movq	-8(%rbp), %rax
	movq	(%rax), %rdi
	callq	free
	jmp	.LBB16_4
.LBB16_3:                               # %if.else
	movabsq	$.L.str.15, %rdi
	movl	$100, %esi
	callq	error
.LBB16_4:                               # %if.end
	movq	-8(%rbp), %rdi
	callq	free
	jmp	.LBB16_6
.LBB16_5:                               # %if.else4
	movabsq	$.L.str.15, %rdi
	movl	$100, %esi
	callq	error
.LBB16_6:                               # %if.end5
	addq	$16, %rsp
	popq	%rbp
	.cfi_def_cfa %rsp, 8
	retq
.Lfunc_end16:
	.size	free_mem2Dint64, .Lfunc_end16-free_mem2Dint64
	.cfi_endproc
                                        # -- End function
	.globl	free_mem3D              # -- Begin function free_mem3D
	.p2align	4, 0x90
	.type	free_mem3D,@function
free_mem3D:                             # @free_mem3D
	.cfi_startproc
# %bb.0:                                # %entry
	pushq	%rbp
	.cfi_def_cfa_offset 16
	.cfi_offset %rbp, -16
	movq	%rsp, %rbp
	.cfi_def_cfa_register %rbp
	subq	$32, %rsp
	movq	%rdi, -16(%rbp)
	movl	%esi, -20(%rbp)
	cmpq	$0, -16(%rbp)
	je	.LBB17_6
# %bb.1:                                # %if.then
	movl	$0, -4(%rbp)
.LBB17_2:                               # %for.cond
                                        # =>This Inner Loop Header: Depth=1
	movl	-4(%rbp), %eax
	cmpl	-20(%rbp), %eax
	jge	.LBB17_5
# %bb.3:                                # %for.body
                                        #   in Loop: Header=BB17_2 Depth=1
	movq	-16(%rbp), %rax
	movslq	-4(%rbp), %rcx
	movq	(%rax,%rcx,8), %rdi
	callq	free_mem2D
# %bb.4:                                # %for.inc
                                        #   in Loop: Header=BB17_2 Depth=1
	movl	-4(%rbp), %eax
	addl	$1, %eax
	movl	%eax, -4(%rbp)
	jmp	.LBB17_2
.LBB17_5:                               # %for.end
	movq	-16(%rbp), %rdi
	callq	free
	jmp	.LBB17_7
.LBB17_6:                               # %if.else
	movabsq	$.L.str.16, %rdi
	movl	$100, %esi
	callq	error
.LBB17_7:                               # %if.end
	addq	$32, %rsp
	popq	%rbp
	.cfi_def_cfa %rsp, 8
	retq
.Lfunc_end17:
	.size	free_mem3D, .Lfunc_end17-free_mem3D
	.cfi_endproc
                                        # -- End function
	.globl	free_mem3Dint           # -- Begin function free_mem3Dint
	.p2align	4, 0x90
	.type	free_mem3Dint,@function
free_mem3Dint:                          # @free_mem3Dint
	.cfi_startproc
# %bb.0:                                # %entry
	pushq	%rbp
	.cfi_def_cfa_offset 16
	.cfi_offset %rbp, -16
	movq	%rsp, %rbp
	.cfi_def_cfa_register %rbp
	subq	$32, %rsp
	movq	%rdi, -16(%rbp)
	movl	%esi, -20(%rbp)
	cmpq	$0, -16(%rbp)
	je	.LBB18_6
# %bb.1:                                # %if.then
	movl	$0, -4(%rbp)
.LBB18_2:                               # %for.cond
                                        # =>This Inner Loop Header: Depth=1
	movl	-4(%rbp), %eax
	cmpl	-20(%rbp), %eax
	jge	.LBB18_5
# %bb.3:                                # %for.body
                                        #   in Loop: Header=BB18_2 Depth=1
	movq	-16(%rbp), %rax
	movslq	-4(%rbp), %rcx
	movq	(%rax,%rcx,8), %rdi
	callq	free_mem2Dint
# %bb.4:                                # %for.inc
                                        #   in Loop: Header=BB18_2 Depth=1
	movl	-4(%rbp), %eax
	addl	$1, %eax
	movl	%eax, -4(%rbp)
	jmp	.LBB18_2
.LBB18_5:                               # %for.end
	movq	-16(%rbp), %rdi
	callq	free
	jmp	.LBB18_7
.LBB18_6:                               # %if.else
	movabsq	$.L.str.17, %rdi
	movl	$100, %esi
	callq	error
.LBB18_7:                               # %if.end
	addq	$32, %rsp
	popq	%rbp
	.cfi_def_cfa %rsp, 8
	retq
.Lfunc_end18:
	.size	free_mem3Dint, .Lfunc_end18-free_mem3Dint
	.cfi_endproc
                                        # -- End function
	.globl	free_mem3Dint64         # -- Begin function free_mem3Dint64
	.p2align	4, 0x90
	.type	free_mem3Dint64,@function
free_mem3Dint64:                        # @free_mem3Dint64
	.cfi_startproc
# %bb.0:                                # %entry
	pushq	%rbp
	.cfi_def_cfa_offset 16
	.cfi_offset %rbp, -16
	movq	%rsp, %rbp
	.cfi_def_cfa_register %rbp
	subq	$32, %rsp
	movq	%rdi, -16(%rbp)
	movl	%esi, -20(%rbp)
	cmpq	$0, -16(%rbp)
	je	.LBB19_6
# %bb.1:                                # %if.then
	movl	$0, -4(%rbp)
.LBB19_2:                               # %for.cond
                                        # =>This Inner Loop Header: Depth=1
	movl	-4(%rbp), %eax
	cmpl	-20(%rbp), %eax
	jge	.LBB19_5
# %bb.3:                                # %for.body
                                        #   in Loop: Header=BB19_2 Depth=1
	movq	-16(%rbp), %rax
	movslq	-4(%rbp), %rcx
	movq	(%rax,%rcx,8), %rdi
	callq	free_mem2Dint64
# %bb.4:                                # %for.inc
                                        #   in Loop: Header=BB19_2 Depth=1
	movl	-4(%rbp), %eax
	addl	$1, %eax
	movl	%eax, -4(%rbp)
	jmp	.LBB19_2
.LBB19_5:                               # %for.end
	movq	-16(%rbp), %rdi
	callq	free
	jmp	.LBB19_7
.LBB19_6:                               # %if.else
	movabsq	$.L.str.18, %rdi
	movl	$100, %esi
	callq	error
.LBB19_7:                               # %if.end
	addq	$32, %rsp
	popq	%rbp
	.cfi_def_cfa %rsp, 8
	retq
.Lfunc_end19:
	.size	free_mem3Dint64, .Lfunc_end19-free_mem3Dint64
	.cfi_endproc
                                        # -- End function
	.globl	free_mem4Dint           # -- Begin function free_mem4Dint
	.p2align	4, 0x90
	.type	free_mem4Dint,@function
free_mem4Dint:                          # @free_mem4Dint
	.cfi_startproc
# %bb.0:                                # %entry
	pushq	%rbp
	.cfi_def_cfa_offset 16
	.cfi_offset %rbp, -16
	movq	%rsp, %rbp
	.cfi_def_cfa_register %rbp
	subq	$32, %rsp
	movq	%rdi, -16(%rbp)
	movl	%esi, -24(%rbp)
	movl	%edx, -20(%rbp)
	cmpq	$0, -16(%rbp)
	je	.LBB20_6
# %bb.1:                                # %if.then
	movl	$0, -4(%rbp)
.LBB20_2:                               # %for.cond
                                        # =>This Inner Loop Header: Depth=1
	movl	-4(%rbp), %eax
	cmpl	-24(%rbp), %eax
	jge	.LBB20_5
# %bb.3:                                # %for.body
                                        #   in Loop: Header=BB20_2 Depth=1
	movq	-16(%rbp), %rax
	movslq	-4(%rbp), %rcx
	movq	(%rax,%rcx,8), %rdi
	movl	-20(%rbp), %esi
	callq	free_mem3Dint
# %bb.4:                                # %for.inc
                                        #   in Loop: Header=BB20_2 Depth=1
	movl	-4(%rbp), %eax
	addl	$1, %eax
	movl	%eax, -4(%rbp)
	jmp	.LBB20_2
.LBB20_5:                               # %for.end
	movq	-16(%rbp), %rdi
	callq	free
	jmp	.LBB20_7
.LBB20_6:                               # %if.else
	movabsq	$.L.str.19, %rdi
	movl	$100, %esi
	callq	error
.LBB20_7:                               # %if.end
	addq	$32, %rsp
	popq	%rbp
	.cfi_def_cfa %rsp, 8
	retq
.Lfunc_end20:
	.size	free_mem4Dint, .Lfunc_end20-free_mem4Dint
	.cfi_endproc
                                        # -- End function
	.globl	get_mem2Dshort          # -- Begin function get_mem2Dshort
	.p2align	4, 0x90
	.type	get_mem2Dshort,@function
get_mem2Dshort:                         # @get_mem2Dshort
	.cfi_startproc
# %bb.0:                                # %entry
	pushq	%rbp
	.cfi_def_cfa_offset 16
	.cfi_offset %rbp, -16
	movq	%rsp, %rbp
	.cfi_def_cfa_register %rbp
	subq	$32, %rsp
	movq	%rdi, -24(%rbp)
	movl	%esi, -8(%rbp)
	movl	%edx, -12(%rbp)
	movslq	-8(%rbp), %rdi
	movl	$8, %esi
	callq	calloc
	movq	-24(%rbp), %rcx
	movq	%rax, (%rcx)
	cmpq	$0, %rax
	jne	.LBB21_2
# %bb.1:                                # %if.then
	movabsq	$.L.str.21, %rdi
	callq	no_mem_exit
.LBB21_2:                               # %if.end
	movl	-8(%rbp), %eax
	imull	-12(%rbp), %eax
	movslq	%eax, %rdi
	movl	$2, %esi
	callq	calloc
	movq	-24(%rbp), %rcx
	movq	(%rcx), %rcx
	movq	%rax, (%rcx)
	cmpq	$0, %rax
	jne	.LBB21_4
# %bb.3:                                # %if.then6
	movabsq	$.L.str.21, %rdi
	callq	no_mem_exit
.LBB21_4:                               # %if.end7
	movl	$1, -4(%rbp)
.LBB21_5:                               # %for.cond
                                        # =>This Inner Loop Header: Depth=1
	movl	-4(%rbp), %eax
	cmpl	-8(%rbp), %eax
	jge	.LBB21_8
# %bb.6:                                # %for.body
                                        #   in Loop: Header=BB21_5 Depth=1
	movq	-24(%rbp), %rax
	movq	(%rax), %rax
	movl	-4(%rbp), %ecx
	subl	$1, %ecx
	movslq	%ecx, %rcx
	movq	(%rax,%rcx,8), %rax
	movslq	-12(%rbp), %rcx
	shlq	$1, %rcx
	addq	%rcx, %rax
	movq	-24(%rbp), %rcx
	movq	(%rcx), %rcx
	movslq	-4(%rbp), %rdx
	movq	%rax, (%rcx,%rdx,8)
# %bb.7:                                # %for.inc
                                        #   in Loop: Header=BB21_5 Depth=1
	movl	-4(%rbp), %eax
	addl	$1, %eax
	movl	%eax, -4(%rbp)
	jmp	.LBB21_5
.LBB21_8:                               # %for.end
	movl	-8(%rbp), %eax
	imull	-12(%rbp), %eax
	cltq
	shlq	$1, %rax
                                        # kill: def $eax killed $eax killed $rax
	addq	$32, %rsp
	popq	%rbp
	.cfi_def_cfa %rsp, 8
	retq
.Lfunc_end21:
	.size	get_mem2Dshort, .Lfunc_end21-get_mem2Dshort
	.cfi_endproc
                                        # -- End function
	.globl	get_mem3Dshort          # -- Begin function get_mem3Dshort
	.p2align	4, 0x90
	.type	get_mem3Dshort,@function
get_mem3Dshort:                         # @get_mem3Dshort
	.cfi_startproc
# %bb.0:                                # %entry
	pushq	%rbp
	.cfi_def_cfa_offset 16
	.cfi_offset %rbp, -16
	movq	%rsp, %rbp
	.cfi_def_cfa_register %rbp
	subq	$32, %rsp
	movq	%rdi, -24(%rbp)
	movl	%esi, -8(%rbp)
	movl	%edx, -16(%rbp)
	movl	%ecx, -12(%rbp)
	movslq	-8(%rbp), %rdi
	movl	$8, %esi
	callq	calloc
	movq	-24(%rbp), %rcx
	movq	%rax, (%rcx)
	cmpq	$0, %rax
	jne	.LBB22_2
# %bb.1:                                # %if.then
	movabsq	$.L.str.22, %rdi
	callq	no_mem_exit
.LBB22_2:                               # %if.end
	movl	$0, -4(%rbp)
.LBB22_3:                               # %for.cond
                                        # =>This Inner Loop Header: Depth=1
	movl	-4(%rbp), %eax
	cmpl	-8(%rbp), %eax
	jge	.LBB22_6
# %bb.4:                                # %for.body
                                        #   in Loop: Header=BB22_3 Depth=1
	movq	-24(%rbp), %rax
	movq	(%rax), %rdi
	movslq	-4(%rbp), %rax
	shlq	$3, %rax
	addq	%rax, %rdi
	movl	-16(%rbp), %esi
	movl	-12(%rbp), %edx
	callq	get_mem2Dshort
# %bb.5:                                # %for.inc
                                        #   in Loop: Header=BB22_3 Depth=1
	movl	-4(%rbp), %eax
	addl	$1, %eax
	movl	%eax, -4(%rbp)
	jmp	.LBB22_3
.LBB22_6:                               # %for.end
	movl	-8(%rbp), %eax
	imull	-16(%rbp), %eax
	imull	-12(%rbp), %eax
	cltq
	shlq	$1, %rax
                                        # kill: def $eax killed $eax killed $rax
	addq	$32, %rsp
	popq	%rbp
	.cfi_def_cfa %rsp, 8
	retq
.Lfunc_end22:
	.size	get_mem3Dshort, .Lfunc_end22-get_mem3Dshort
	.cfi_endproc
                                        # -- End function
	.globl	get_mem4Dshort          # -- Begin function get_mem4Dshort
	.p2align	4, 0x90
	.type	get_mem4Dshort,@function
get_mem4Dshort:                         # @get_mem4Dshort
	.cfi_startproc
# %bb.0:                                # %entry
	pushq	%rbp
	.cfi_def_cfa_offset 16
	.cfi_offset %rbp, -16
	movq	%rsp, %rbp
	.cfi_def_cfa_register %rbp
	subq	$32, %rsp
	movq	%rdi, -32(%rbp)
	movl	%esi, -8(%rbp)
	movl	%edx, -20(%rbp)
	movl	%ecx, -16(%rbp)
	movl	%r8d, -12(%rbp)
	movslq	-8(%rbp), %rdi
	movl	$8, %esi
	callq	calloc
	movq	-32(%rbp), %rcx
	movq	%rax, (%rcx)
	cmpq	$0, %rax
	jne	.LBB23_2
# %bb.1:                                # %if.then
	movabsq	$.L.str.23, %rdi
	callq	no_mem_exit
.LBB23_2:                               # %if.end
	movl	$0, -4(%rbp)
.LBB23_3:                               # %for.cond
                                        # =>This Inner Loop Header: Depth=1
	movl	-4(%rbp), %eax
	cmpl	-8(%rbp), %eax
	jge	.LBB23_6
# %bb.4:                                # %for.body
                                        #   in Loop: Header=BB23_3 Depth=1
	movq	-32(%rbp), %rax
	movq	(%rax), %rdi
	movslq	-4(%rbp), %rax
	shlq	$3, %rax
	addq	%rax, %rdi
	movl	-20(%rbp), %esi
	movl	-16(%rbp), %edx
	movl	-12(%rbp), %ecx
	callq	get_mem3Dshort
# %bb.5:                                # %for.inc
                                        #   in Loop: Header=BB23_3 Depth=1
	movl	-4(%rbp), %eax
	addl	$1, %eax
	movl	%eax, -4(%rbp)
	jmp	.LBB23_3
.LBB23_6:                               # %for.end
	movl	-8(%rbp), %eax
	imull	-20(%rbp), %eax
	imull	-16(%rbp), %eax
	imull	-12(%rbp), %eax
	cltq
	shlq	$1, %rax
                                        # kill: def $eax killed $eax killed $rax
	addq	$32, %rsp
	popq	%rbp
	.cfi_def_cfa %rsp, 8
	retq
.Lfunc_end23:
	.size	get_mem4Dshort, .Lfunc_end23-get_mem4Dshort
	.cfi_endproc
                                        # -- End function
	.globl	free_mem2Dshort         # -- Begin function free_mem2Dshort
	.p2align	4, 0x90
	.type	free_mem2Dshort,@function
free_mem2Dshort:                        # @free_mem2Dshort
	.cfi_startproc
# %bb.0:                                # %entry
	pushq	%rbp
	.cfi_def_cfa_offset 16
	.cfi_offset %rbp, -16
	movq	%rsp, %rbp
	.cfi_def_cfa_register %rbp
	subq	$16, %rsp
	movq	%rdi, -8(%rbp)
	cmpq	$0, -8(%rbp)
	je	.LBB24_5
# %bb.1:                                # %if.then
	movq	-8(%rbp), %rax
	cmpq	$0, (%rax)
	je	.LBB24_3
# %bb.2:                                # %if.then2
	movq	-8(%rbp), %rax
	movq	(%rax), %rdi
	callq	free
	jmp	.LBB24_4
.LBB24_3:                               # %if.else
	movabsq	$.L.str.24, %rdi
	movl	$100, %esi
	callq	error
.LBB24_4:                               # %if.end
	movq	-8(%rbp), %rdi
	callq	free
	jmp	.LBB24_6
.LBB24_5:                               # %if.else4
	movabsq	$.L.str.24, %rdi
	movl	$100, %esi
	callq	error
.LBB24_6:                               # %if.end5
	addq	$16, %rsp
	popq	%rbp
	.cfi_def_cfa %rsp, 8
	retq
.Lfunc_end24:
	.size	free_mem2Dshort, .Lfunc_end24-free_mem2Dshort
	.cfi_endproc
                                        # -- End function
	.globl	free_mem3Dshort         # -- Begin function free_mem3Dshort
	.p2align	4, 0x90
	.type	free_mem3Dshort,@function
free_mem3Dshort:                        # @free_mem3Dshort
	.cfi_startproc
# %bb.0:                                # %entry
	pushq	%rbp
	.cfi_def_cfa_offset 16
	.cfi_offset %rbp, -16
	movq	%rsp, %rbp
	.cfi_def_cfa_register %rbp
	subq	$32, %rsp
	movq	%rdi, -16(%rbp)
	movl	%esi, -20(%rbp)
	cmpq	$0, -16(%rbp)
	je	.LBB25_6
# %bb.1:                                # %if.then
	movl	$0, -4(%rbp)
.LBB25_2:                               # %for.cond
                                        # =>This Inner Loop Header: Depth=1
	movl	-4(%rbp), %eax
	cmpl	-20(%rbp), %eax
	jge	.LBB25_5
# %bb.3:                                # %for.body
                                        #   in Loop: Header=BB25_2 Depth=1
	movq	-16(%rbp), %rax
	movslq	-4(%rbp), %rcx
	movq	(%rax,%rcx,8), %rdi
	callq	free_mem2Dshort
# %bb.4:                                # %for.inc
                                        #   in Loop: Header=BB25_2 Depth=1
	movl	-4(%rbp), %eax
	addl	$1, %eax
	movl	%eax, -4(%rbp)
	jmp	.LBB25_2
.LBB25_5:                               # %for.end
	movq	-16(%rbp), %rdi
	callq	free
	jmp	.LBB25_7
.LBB25_6:                               # %if.else
	movabsq	$.L.str.25, %rdi
	movl	$100, %esi
	callq	error
.LBB25_7:                               # %if.end
	addq	$32, %rsp
	popq	%rbp
	.cfi_def_cfa %rsp, 8
	retq
.Lfunc_end25:
	.size	free_mem3Dshort, .Lfunc_end25-free_mem3Dshort
	.cfi_endproc
                                        # -- End function
	.globl	free_mem4Dshort         # -- Begin function free_mem4Dshort
	.p2align	4, 0x90
	.type	free_mem4Dshort,@function
free_mem4Dshort:                        # @free_mem4Dshort
	.cfi_startproc
# %bb.0:                                # %entry
	pushq	%rbp
	.cfi_def_cfa_offset 16
	.cfi_offset %rbp, -16
	movq	%rsp, %rbp
	.cfi_def_cfa_register %rbp
	subq	$32, %rsp
	movq	%rdi, -16(%rbp)
	movl	%esi, -24(%rbp)
	movl	%edx, -20(%rbp)
	cmpq	$0, -16(%rbp)
	je	.LBB26_6
# %bb.1:                                # %if.then
	movl	$0, -4(%rbp)
.LBB26_2:                               # %for.cond
                                        # =>This Inner Loop Header: Depth=1
	movl	-4(%rbp), %eax
	cmpl	-24(%rbp), %eax
	jge	.LBB26_5
# %bb.3:                                # %for.body
                                        #   in Loop: Header=BB26_2 Depth=1
	movq	-16(%rbp), %rax
	movslq	-4(%rbp), %rcx
	movq	(%rax,%rcx,8), %rdi
	movl	-20(%rbp), %esi
	callq	free_mem3Dshort
# %bb.4:                                # %for.inc
                                        #   in Loop: Header=BB26_2 Depth=1
	movl	-4(%rbp), %eax
	addl	$1, %eax
	movl	%eax, -4(%rbp)
	jmp	.LBB26_2
.LBB26_5:                               # %for.end
	movq	-16(%rbp), %rdi
	callq	free
	jmp	.LBB26_7
.LBB26_6:                               # %if.else
	movabsq	$.L.str.26, %rdi
	movl	$100, %esi
	callq	error
.LBB26_7:                               # %if.end
	addq	$32, %rsp
	popq	%rbp
	.cfi_def_cfa %rsp, 8
	retq
.Lfunc_end26:
	.size	free_mem4Dshort, .Lfunc_end26-free_mem4Dshort
	.cfi_endproc
                                        # -- End function
	.type	.L.str,@object          # @.str
	.section	.rodata.str1.1,"aMS",@progbits,1
.L.str:
	.asciz	"init_top_bot_planes: imgTopField"
	.size	.L.str, 33

	.type	.L.str.1,@object        # @.str.1
.L.str.1:
	.asciz	"init_top_bot_planes: imgBotField"
	.size	.L.str.1, 33

	.type	.L.str.2,@object        # @.str.2
.L.str.2:
	.asciz	"get_mem2Dpel: array2D"
	.size	.L.str.2, 22

	.type	.L.str.3,@object        # @.str.3
.L.str.3:
	.asciz	"get_mem3Dpel: array3D"
	.size	.L.str.3, 22

	.type	.L.str.4,@object        # @.str.4
.L.str.4:
	.asciz	"free_mem2Dpel: trying to free unused memory"
	.size	.L.str.4, 44

	.type	.L.str.5,@object        # @.str.5
.L.str.5:
	.asciz	"free_mem3Dpel: trying to free unused memory"
	.size	.L.str.5, 44

	.type	.L.str.6,@object        # @.str.6
.L.str.6:
	.asciz	"get_mem2D: array2D"
	.size	.L.str.6, 19

	.type	.L.str.7,@object        # @.str.7
.L.str.7:
	.asciz	"get_mem2Dint: array2D"
	.size	.L.str.7, 22

	.type	.L.str.8,@object        # @.str.8
.L.str.8:
	.asciz	"get_mem2Dint64: array2D"
	.size	.L.str.8, 24

	.type	.L.str.9,@object        # @.str.9
.L.str.9:
	.asciz	"get_mem3D: array3D"
	.size	.L.str.9, 19

	.type	.L.str.10,@object       # @.str.10
.L.str.10:
	.asciz	"get_mem3Dint: array3D"
	.size	.L.str.10, 22

	.type	.L.str.11,@object       # @.str.11
.L.str.11:
	.asciz	"get_mem3Dint64: array3D"
	.size	.L.str.11, 24

	.type	.L.str.12,@object       # @.str.12
.L.str.12:
	.asciz	"get_mem4Dint: array4D"
	.size	.L.str.12, 22

	.type	.L.str.13,@object       # @.str.13
.L.str.13:
	.asciz	"free_mem2D: trying to free unused memory"
	.size	.L.str.13, 41

	.type	.L.str.14,@object       # @.str.14
.L.str.14:
	.asciz	"free_mem2Dint: trying to free unused memory"
	.size	.L.str.14, 44

	.type	.L.str.15,@object       # @.str.15
.L.str.15:
	.asciz	"free_mem2Dint64: trying to free unused memory"
	.size	.L.str.15, 46

	.type	.L.str.16,@object       # @.str.16
.L.str.16:
	.asciz	"free_mem3D: trying to free unused memory"
	.size	.L.str.16, 41

	.type	.L.str.17,@object       # @.str.17
.L.str.17:
	.asciz	"free_mem3Dint: trying to free unused memory"
	.size	.L.str.17, 44

	.type	.L.str.18,@object       # @.str.18
.L.str.18:
	.asciz	"free_mem3Dint64: trying to free unused memory"
	.size	.L.str.18, 46

	.type	.L.str.19,@object       # @.str.19
.L.str.19:
	.asciz	"free_mem4Dint: trying to free unused memory"
	.size	.L.str.19, 44

	.type	errortext,@object       # @errortext
	.comm	errortext,300,16
	.type	.L.str.20,@object       # @.str.20
.L.str.20:
	.asciz	"Could not allocate memory: %s"
	.size	.L.str.20, 30

	.type	.L.str.21,@object       # @.str.21
.L.str.21:
	.asciz	"get_mem2Dshort: array2D"
	.size	.L.str.21, 24

	.type	.L.str.22,@object       # @.str.22
.L.str.22:
	.asciz	"get_mem3Dshort: array3D"
	.size	.L.str.22, 24

	.type	.L.str.23,@object       # @.str.23
.L.str.23:
	.asciz	"get_mem4Dshort: array4D"
	.size	.L.str.23, 24

	.type	.L.str.24,@object       # @.str.24
.L.str.24:
	.asciz	"free_mem2Dshort: trying to free unused memory"
	.size	.L.str.24, 46

	.type	.L.str.25,@object       # @.str.25
.L.str.25:
	.asciz	"free_mem3Dshort: trying to free unused memory"
	.size	.L.str.25, 46

	.type	.L.str.26,@object       # @.str.26
.L.str.26:
	.asciz	"free_mem4Dshort: trying to free unused memory"
	.size	.L.str.26, 46

	.type	top_pic,@object         # @top_pic
	.comm	top_pic,8,8
	.type	bottom_pic,@object      # @bottom_pic
	.comm	bottom_pic,8,8
	.type	frame_pic,@object       # @frame_pic
	.comm	frame_pic,8,8
	.type	frame_pic2,@object      # @frame_pic2
	.comm	frame_pic2,8,8
	.type	frame_pic3,@object      # @frame_pic3
	.comm	frame_pic3,8,8
	.type	imgY_org,@object        # @imgY_org
	.comm	imgY_org,8,8
	.type	imgUV_org,@object       # @imgUV_org
	.comm	imgUV_org,8,8
	.type	img4Y_tmp,@object       # @img4Y_tmp
	.comm	img4Y_tmp,8,8
	.type	log2_max_frame_num_minus4,@object # @log2_max_frame_num_minus4
	.comm	log2_max_frame_num_minus4,4,4
	.type	log2_max_pic_order_cnt_lsb_minus4,@object # @log2_max_pic_order_cnt_lsb_minus4
	.comm	log2_max_pic_order_cnt_lsb_minus4,4,4
	.type	me_tot_time,@object     # @me_tot_time
	.comm	me_tot_time,4,4
	.type	me_time,@object         # @me_time
	.comm	me_time,4,4
	.type	active_pps,@object      # @active_pps
	.comm	active_pps,8,8
	.type	active_sps,@object      # @active_sps
	.comm	active_sps,8,8
	.type	mb_adaptive,@object     # @mb_adaptive
	.comm	mb_adaptive,4,4
	.type	MBPairIsField,@object   # @MBPairIsField
	.comm	MBPairIsField,4,4
	.type	wp_weight,@object       # @wp_weight
	.comm	wp_weight,8,8
	.type	wp_offset,@object       # @wp_offset
	.comm	wp_offset,8,8
	.type	wbp_weight,@object      # @wbp_weight
	.comm	wbp_weight,8,8
	.type	luma_log_weight_denom,@object # @luma_log_weight_denom
	.comm	luma_log_weight_denom,4,4
	.type	chroma_log_weight_denom,@object # @chroma_log_weight_denom
	.comm	chroma_log_weight_denom,4,4
	.type	wp_luma_round,@object   # @wp_luma_round
	.comm	wp_luma_round,4,4
	.type	wp_chroma_round,@object # @wp_chroma_round
	.comm	wp_chroma_round,4,4
	.type	imgY_org_top,@object    # @imgY_org_top
	.comm	imgY_org_top,8,8
	.type	imgY_org_bot,@object    # @imgY_org_bot
	.comm	imgY_org_bot,8,8
	.type	imgUV_org_top,@object   # @imgUV_org_top
	.comm	imgUV_org_top,8,8
	.type	imgUV_org_bot,@object   # @imgUV_org_bot
	.comm	imgUV_org_bot,8,8
	.type	imgY_org_frm,@object    # @imgY_org_frm
	.comm	imgY_org_frm,8,8
	.type	imgUV_org_frm,@object   # @imgUV_org_frm
	.comm	imgUV_org_frm,8,8
	.type	imgY_com,@object        # @imgY_com
	.comm	imgY_com,8,8
	.type	imgUV_com,@object       # @imgUV_com
	.comm	imgUV_com,8,8
	.type	direct_ref_idx,@object  # @direct_ref_idx
	.comm	direct_ref_idx,8,8
	.type	direct_pdir,@object     # @direct_pdir
	.comm	direct_pdir,8,8
	.type	pixel_map,@object       # @pixel_map
	.comm	pixel_map,8,8
	.type	refresh_map,@object     # @refresh_map
	.comm	refresh_map,8,8
	.type	intras,@object          # @intras
	.comm	intras,4,4
	.type	Iframe_ctr,@object      # @Iframe_ctr
	.comm	Iframe_ctr,4,4
	.type	Pframe_ctr,@object      # @Pframe_ctr
	.comm	Pframe_ctr,4,4
	.type	Bframe_ctr,@object      # @Bframe_ctr
	.comm	Bframe_ctr,4,4
	.type	frame_no,@object        # @frame_no
	.comm	frame_no,4,4
	.type	nextP_tr_fld,@object    # @nextP_tr_fld
	.comm	nextP_tr_fld,4,4
	.type	nextP_tr_frm,@object    # @nextP_tr_frm
	.comm	nextP_tr_frm,4,4
	.type	tot_time,@object        # @tot_time
	.comm	tot_time,4,4
	.type	resTrans_R,@object      # @resTrans_R
	.comm	resTrans_R,1024,16
	.type	resTrans_G,@object      # @resTrans_G
	.comm	resTrans_G,1024,16
	.type	resTrans_B,@object      # @resTrans_B
	.comm	resTrans_B,1024,16
	.type	rec_resR,@object        # @rec_resR
	.comm	rec_resR,1024,16
	.type	rec_resG,@object        # @rec_resG
	.comm	rec_resG,1024,16
	.type	rec_resB,@object        # @rec_resB
	.comm	rec_resB,1024,16
	.type	mprRGB,@object          # @mprRGB
	.comm	mprRGB,3072,16
	.type	dc_level,@object        # @dc_level
	.comm	dc_level,128,16
	.type	dc_level_temp,@object   # @dc_level_temp
	.comm	dc_level_temp,128,16
	.type	cbp_chroma_block,@object # @cbp_chroma_block
	.comm	cbp_chroma_block,128,16
	.type	cbp_chroma_block_temp,@object # @cbp_chroma_block_temp
	.comm	cbp_chroma_block_temp,128,16
	.type	b8_ipredmode8x8,@object # @b8_ipredmode8x8
	.comm	b8_ipredmode8x8,64,16
	.type	b8_intra_pred_modes8x8,@object # @b8_intra_pred_modes8x8
	.comm	b8_intra_pred_modes8x8,64,16
	.type	gop_structure,@object   # @gop_structure
	.comm	gop_structure,8,8
	.type	rdopt,@object           # @rdopt
	.comm	rdopt,8,8
	.type	rddata_top_frame_mb,@object # @rddata_top_frame_mb
	.comm	rddata_top_frame_mb,3360,8
	.type	rddata_bot_frame_mb,@object # @rddata_bot_frame_mb
	.comm	rddata_bot_frame_mb,3360,8
	.type	rddata_top_field_mb,@object # @rddata_top_field_mb
	.comm	rddata_top_field_mb,3360,8
	.type	rddata_bot_field_mb,@object # @rddata_bot_field_mb
	.comm	rddata_bot_field_mb,3360,8
	.type	p_stat,@object          # @p_stat
	.comm	p_stat,8,8
	.type	p_log,@object           # @p_log
	.comm	p_log,8,8
	.type	p_trace,@object         # @p_trace
	.comm	p_trace,8,8
	.type	p_in,@object            # @p_in
	.comm	p_in,4,4
	.type	p_dec,@object           # @p_dec
	.comm	p_dec,4,4
	.type	glob_remapping_of_pic_nums_idc_l0,@object # @glob_remapping_of_pic_nums_idc_l0
	.comm	glob_remapping_of_pic_nums_idc_l0,80,16
	.type	glob_abs_diff_pic_num_minus1_l0,@object # @glob_abs_diff_pic_num_minus1_l0
	.comm	glob_abs_diff_pic_num_minus1_l0,80,16
	.type	glob_long_term_pic_idx_l0,@object # @glob_long_term_pic_idx_l0
	.comm	glob_long_term_pic_idx_l0,80,16
	.type	glob_remapping_of_pic_nums_idc_l1,@object # @glob_remapping_of_pic_nums_idc_l1
	.comm	glob_remapping_of_pic_nums_idc_l1,80,16
	.type	glob_abs_diff_pic_num_minus1_l1,@object # @glob_abs_diff_pic_num_minus1_l1
	.comm	glob_abs_diff_pic_num_minus1_l1,80,16
	.type	glob_long_term_pic_idx_l1,@object # @glob_long_term_pic_idx_l1
	.comm	glob_long_term_pic_idx_l1,80,16
	.type	Bytes_After_Header,@object # @Bytes_After_Header
	.comm	Bytes_After_Header,4,4
	.type	rpc_bytes_to_go,@object # @rpc_bytes_to_go
	.comm	rpc_bytes_to_go,4,4
	.type	rpc_bits_to_go,@object  # @rpc_bits_to_go
	.comm	rpc_bits_to_go,4,4

	.ident	"clang version 9.0.1 (git@github.com:llvm/llvm-project.git 9b2d207cf4b43cfc1a2b6940b3c06e50a1bd127f)"
	.section	".note.GNU-stack","",@progbits
