	.text
	.file	"mv-search.c"
	.globl	InitializeFastFullIntegerSearch # -- Begin function InitializeFastFullIntegerSearch
	.p2align	4, 0x90
	.type	InitializeFastFullIntegerSearch,@function
InitializeFastFullIntegerSearch:        # @InitializeFastFullIntegerSearch
	.cfi_startproc
# %bb.0:                                # %rand_bb
	pushq	%rbp
	.cfi_def_cfa_offset 16
	.cfi_offset %rbp, -16
	movq	%rsp, %rbp
	.cfi_def_cfa_register %rbp
	callq	get_urand
	cmpl	$0, %eax
	jne	.LBB0_5
# %bb.1:                                # %func_InitializeFastFullIntegerSearch.16
	callq	InitializeFastFullIntegerSearch.16
	popq	%rbp
	.cfi_def_cfa %rsp, 8
	retq
.LBB0_2:                                # %func_InitializeFastFullIntegerSearch.21
	.cfi_def_cfa %rbp, 16
	callq	InitializeFastFullIntegerSearch.21
	popq	%rbp
	.cfi_def_cfa %rsp, 8
	retq
.LBB0_3:                                # %func_InitializeFastFullIntegerSearch.24
	.cfi_def_cfa %rbp, 16
	callq	InitializeFastFullIntegerSearch.24
	popq	%rbp
	.cfi_def_cfa %rsp, 8
	retq
.LBB0_4:                                # %func_InitializeFastFullIntegerSearch.46
	.cfi_def_cfa %rbp, 16
	callq	InitializeFastFullIntegerSearch.46
	popq	%rbp
	.cfi_def_cfa %rsp, 8
	retq
.LBB0_5:                                # %ctrl0
	.cfi_def_cfa %rbp, 16
	cmpl	$1, %eax
	je	.LBB0_2
# %bb.6:                                # %ctrl1
	cmpl	$2, %eax
	je	.LBB0_3
	jmp	.LBB0_4
.Lfunc_end0:
	.size	InitializeFastFullIntegerSearch, .Lfunc_end0-InitializeFastFullIntegerSearch
	.cfi_endproc
                                        # -- End function
	.globl	ClearFastFullIntegerSearch # -- Begin function ClearFastFullIntegerSearch
	.p2align	4, 0x90
	.type	ClearFastFullIntegerSearch,@function
ClearFastFullIntegerSearch:             # @ClearFastFullIntegerSearch
	.cfi_startproc
# %bb.0:                                # %rand_bb
	pushq	%rbp
	.cfi_def_cfa_offset 16
	.cfi_offset %rbp, -16
	movq	%rsp, %rbp
	.cfi_def_cfa_register %rbp
	callq	get_urand
	cmpl	$0, %eax
	jne	.LBB1_5
# %bb.1:                                # %func_ClearFastFullIntegerSearch.34
	callq	ClearFastFullIntegerSearch.34
	popq	%rbp
	.cfi_def_cfa %rsp, 8
	retq
.LBB1_2:                                # %func_ClearFastFullIntegerSearch.64
	.cfi_def_cfa %rbp, 16
	callq	ClearFastFullIntegerSearch.64
	popq	%rbp
	.cfi_def_cfa %rsp, 8
	retq
.LBB1_3:                                # %func_ClearFastFullIntegerSearch.95
	.cfi_def_cfa %rbp, 16
	callq	ClearFastFullIntegerSearch.95
	popq	%rbp
	.cfi_def_cfa %rsp, 8
	retq
.LBB1_4:                                # %func_ClearFastFullIntegerSearch.96
	.cfi_def_cfa %rbp, 16
	callq	ClearFastFullIntegerSearch.96
	popq	%rbp
	.cfi_def_cfa %rsp, 8
	retq
.LBB1_5:                                # %ctrl0
	.cfi_def_cfa %rbp, 16
	cmpl	$1, %eax
	je	.LBB1_2
# %bb.6:                                # %ctrl1
	cmpl	$2, %eax
	je	.LBB1_3
	jmp	.LBB1_4
.Lfunc_end1:
	.size	ClearFastFullIntegerSearch, .Lfunc_end1-ClearFastFullIntegerSearch
	.cfi_endproc
                                        # -- End function
	.globl	ResetFastFullIntegerSearch # -- Begin function ResetFastFullIntegerSearch
	.p2align	4, 0x90
	.type	ResetFastFullIntegerSearch,@function
ResetFastFullIntegerSearch:             # @ResetFastFullIntegerSearch
	.cfi_startproc
# %bb.0:                                # %rand_bb
	pushq	%rbp
	.cfi_def_cfa_offset 16
	.cfi_offset %rbp, -16
	movq	%rsp, %rbp
	.cfi_def_cfa_register %rbp
	callq	get_urand
	cmpl	$0, %eax
	jne	.LBB2_2
# %bb.1:                                # %func_ResetFastFullIntegerSearch.22
	callq	ResetFastFullIntegerSearch.22
	popq	%rbp
	.cfi_def_cfa %rsp, 8
	retq
.LBB2_2:                                # %func_ResetFastFullIntegerSearch.23
	.cfi_def_cfa %rbp, 16
	callq	ResetFastFullIntegerSearch.23
	popq	%rbp
	.cfi_def_cfa %rsp, 8
	retq
.Lfunc_end2:
	.size	ResetFastFullIntegerSearch, .Lfunc_end2-ResetFastFullIntegerSearch
	.cfi_endproc
                                        # -- End function
	.globl	SetupLargerBlocks       # -- Begin function SetupLargerBlocks
	.p2align	4, 0x90
	.type	SetupLargerBlocks,@function
SetupLargerBlocks:                      # @SetupLargerBlocks
	.cfi_startproc
# %bb.0:                                # %rand_bb
	pushq	%rbp
	.cfi_def_cfa_offset 16
	.cfi_offset %rbp, -16
	movq	%rsp, %rbp
	.cfi_def_cfa_register %rbp
	pushq	%r15
	pushq	%r14
	pushq	%rbx
	pushq	%rax
	.cfi_offset %rbx, -40
	.cfi_offset %r14, -32
	.cfi_offset %r15, -24
	movl	%edx, %r14d
	movl	%esi, %r15d
	movl	%edi, %ebx
	callq	get_urand
	cmpl	$0, %eax
	jne	.LBB3_5
# %bb.1:                                # %func_SetupLargerBlocks.7
	movl	%ebx, %edi
	movl	%r15d, %esi
	movl	%r14d, %edx
	callq	SetupLargerBlocks.7
	addq	$8, %rsp
	popq	%rbx
	popq	%r14
	popq	%r15
	popq	%rbp
	.cfi_def_cfa %rsp, 8
	retq
.LBB3_2:                                # %func_SetupLargerBlocks.32
	.cfi_def_cfa %rbp, 16
	movl	%ebx, %edi
	movl	%r15d, %esi
	movl	%r14d, %edx
	callq	SetupLargerBlocks.32
	addq	$8, %rsp
	popq	%rbx
	popq	%r14
	popq	%r15
	popq	%rbp
	.cfi_def_cfa %rsp, 8
	retq
.LBB3_3:                                # %func_SetupLargerBlocks.36
	.cfi_def_cfa %rbp, 16
	movl	%ebx, %edi
	movl	%r15d, %esi
	movl	%r14d, %edx
	callq	SetupLargerBlocks.36
	addq	$8, %rsp
	popq	%rbx
	popq	%r14
	popq	%r15
	popq	%rbp
	.cfi_def_cfa %rsp, 8
	retq
.LBB3_4:                                # %func_SetupLargerBlocks.53
	.cfi_def_cfa %rbp, 16
	movl	%ebx, %edi
	movl	%r15d, %esi
	movl	%r14d, %edx
	callq	SetupLargerBlocks.53
	addq	$8, %rsp
	popq	%rbx
	popq	%r14
	popq	%r15
	popq	%rbp
	.cfi_def_cfa %rsp, 8
	retq
.LBB3_5:                                # %ctrl0
	.cfi_def_cfa %rbp, 16
	cmpl	$1, %eax
	je	.LBB3_2
# %bb.6:                                # %ctrl1
	cmpl	$2, %eax
	je	.LBB3_3
	jmp	.LBB3_4
.Lfunc_end3:
	.size	SetupLargerBlocks, .Lfunc_end3-SetupLargerBlocks
	.cfi_endproc
                                        # -- End function
	.globl	SetupFastFullPelSearch  # -- Begin function SetupFastFullPelSearch
	.p2align	4, 0x90
	.type	SetupFastFullPelSearch,@function
SetupFastFullPelSearch:                 # @SetupFastFullPelSearch
	.cfi_startproc
# %bb.0:                                # %rand_bb
	pushq	%rbp
	.cfi_def_cfa_offset 16
	.cfi_offset %rbp, -16
	movq	%rsp, %rbp
	.cfi_def_cfa_register %rbp
	pushq	%r14
	pushq	%rbx
	.cfi_offset %rbx, -32
	.cfi_offset %r14, -24
	movl	%esi, %r14d
	movl	%edi, %ebx
	callq	get_urand
	cmpl	$0, %eax
	jne	.LBB4_5
# %bb.1:                                # %func_SetupFastFullPelSearch.30
	movswl	%bx, %edi
	movl	%r14d, %esi
	callq	SetupFastFullPelSearch.30
	popq	%rbx
	popq	%r14
	popq	%rbp
	.cfi_def_cfa %rsp, 8
	retq
.LBB4_2:                                # %func_SetupFastFullPelSearch.58
	.cfi_def_cfa %rbp, 16
	movswl	%bx, %edi
	movl	%r14d, %esi
	callq	SetupFastFullPelSearch.58
	popq	%rbx
	popq	%r14
	popq	%rbp
	.cfi_def_cfa %rsp, 8
	retq
.LBB4_3:                                # %func_SetupFastFullPelSearch.70
	.cfi_def_cfa %rbp, 16
	movswl	%bx, %edi
	movl	%r14d, %esi
	callq	SetupFastFullPelSearch.70
	popq	%rbx
	popq	%r14
	popq	%rbp
	.cfi_def_cfa %rsp, 8
	retq
.LBB4_4:                                # %func_SetupFastFullPelSearch.83
	.cfi_def_cfa %rbp, 16
	movswl	%bx, %edi
	movl	%r14d, %esi
	callq	SetupFastFullPelSearch.83
	popq	%rbx
	popq	%r14
	popq	%rbp
	.cfi_def_cfa %rsp, 8
	retq
.LBB4_5:                                # %ctrl0
	.cfi_def_cfa %rbp, 16
	cmpl	$1, %eax
	je	.LBB4_2
# %bb.6:                                # %ctrl1
	cmpl	$2, %eax
	je	.LBB4_3
	jmp	.LBB4_4
.Lfunc_end4:
	.size	SetupFastFullPelSearch, .Lfunc_end4-SetupFastFullPelSearch
	.cfi_endproc
                                        # -- End function
	.globl	SetMotionVectorPredictor # -- Begin function SetMotionVectorPredictor
	.p2align	4, 0x90
	.type	SetMotionVectorPredictor,@function
SetMotionVectorPredictor:               # @SetMotionVectorPredictor
	.cfi_startproc
# %bb.0:                                # %rand_bb
	pushq	%rbp
	.cfi_def_cfa_offset 16
	.cfi_offset %rbp, -16
	movq	%rsp, %rbp
	.cfi_def_cfa_register %rbp
	pushq	%r15
	pushq	%r14
	pushq	%r13
	pushq	%r12
	pushq	%rbx
	subq	$40, %rsp
	.cfi_offset %rbx, -56
	.cfi_offset %r12, -48
	.cfi_offset %r13, -40
	.cfi_offset %r14, -32
	.cfi_offset %r15, -24
	movl	%r9d, -44(%rbp)         # 4-byte Spill
	movl	%r8d, %r12d
	movl	%ecx, %r13d
	movq	%rdx, %rbx
	movq	%rsi, %r14
	movq	%rdi, %r15
	callq	get_urand
	cmpl	$0, %eax
	jne	.LBB5_5
# %bb.1:                                # %func_SetMotionVectorPredictor.19
	movq	%r15, %rdi
	movq	%r14, %rsi
	movq	%rbx, %rdx
	movswl	%r13w, %ecx
	movl	%r12d, %r8d
	movl	-44(%rbp), %r9d         # 4-byte Reload
	movl	16(%rbp), %eax
	movl	%eax, (%rsp)
	movl	24(%rbp), %eax
	movl	%eax, 8(%rsp)
	movl	32(%rbp), %eax
	movl	%eax, 16(%rsp)
	callq	SetMotionVectorPredictor.19
	addq	$40, %rsp
	popq	%rbx
	popq	%r12
	popq	%r13
	popq	%r14
	popq	%r15
	popq	%rbp
	.cfi_def_cfa %rsp, 8
	retq
.LBB5_2:                                # %func_SetMotionVectorPredictor.60
	.cfi_def_cfa %rbp, 16
	movq	%r15, %rdi
	movq	%r14, %rsi
	movq	%rbx, %rdx
	movswl	%r13w, %ecx
	movl	%r12d, %r8d
	movl	16(%rbp), %eax
	movl	%eax, (%rsp)
	movl	%r11d, 8(%rsp)
	movl	%r10d, 16(%rsp)
	callq	SetMotionVectorPredictor.60
	addq	$40, %rsp
	popq	%rbx
	popq	%r12
	popq	%r13
	popq	%r14
	popq	%r15
	popq	%rbp
	.cfi_def_cfa %rsp, 8
	retq
.LBB5_3:                                # %func_SetMotionVectorPredictor.87
	.cfi_def_cfa %rbp, 16
	movswl	%r13w, %ecx
	movl	%eax, (%rsp)
	movl	%r11d, 8(%rsp)
	movl	%r10d, 16(%rsp)
	callq	SetMotionVectorPredictor.87
	addq	$40, %rsp
	popq	%rbx
	popq	%r12
	popq	%r13
	popq	%r14
	popq	%r15
	popq	%rbp
	.cfi_def_cfa %rsp, 8
	retq
.LBB5_4:                                # %func_SetMotionVectorPredictor.91
	.cfi_def_cfa %rbp, 16
	movswl	%r13w, %ecx
	movl	%eax, (%rsp)
	movl	%r11d, 8(%rsp)
	movl	%r10d, 16(%rsp)
	callq	SetMotionVectorPredictor.91
	addq	$40, %rsp
	popq	%rbx
	popq	%r12
	popq	%r13
	popq	%r14
	popq	%r15
	popq	%rbp
	.cfi_def_cfa %rsp, 8
	retq
.LBB5_5:                                # %ctrl0
	.cfi_def_cfa %rbp, 16
	movl	24(%rbp), %r11d
	movl	-44(%rbp), %r9d         # 4-byte Reload
	movl	32(%rbp), %r10d
	cmpl	$1, %eax
	je	.LBB5_2
# %bb.6:                                # %ctrl1
	cmpl	$2, %eax
	movl	%r12d, %r8d
	movl	16(%rbp), %eax
	movq	%rbx, %rdx
	movq	%r14, %rsi
	movq	%r15, %rdi
	je	.LBB5_3
	jmp	.LBB5_4
.Lfunc_end5:
	.size	SetMotionVectorPredictor, .Lfunc_end5-SetMotionVectorPredictor
	.cfi_endproc
                                        # -- End function
	.globl	Init_Motion_Search_Module # -- Begin function Init_Motion_Search_Module
	.p2align	4, 0x90
	.type	Init_Motion_Search_Module,@function
Init_Motion_Search_Module:              # @Init_Motion_Search_Module
	.cfi_startproc
# %bb.0:                                # %rand_bb
	pushq	%rbp
	.cfi_def_cfa_offset 16
	.cfi_offset %rbp, -16
	movq	%rsp, %rbp
	.cfi_def_cfa_register %rbp
	callq	get_urand
	cmpl	$0, %eax
	jne	.LBB6_5
# %bb.1:                                # %func_Init_Motion_Search_Module.1
	callq	Init_Motion_Search_Module.1
	popq	%rbp
	.cfi_def_cfa %rsp, 8
	retq
.LBB6_2:                                # %func_Init_Motion_Search_Module.3
	.cfi_def_cfa %rbp, 16
	callq	Init_Motion_Search_Module.3
	popq	%rbp
	.cfi_def_cfa %rsp, 8
	retq
.LBB6_3:                                # %func_Init_Motion_Search_Module.5
	.cfi_def_cfa %rbp, 16
	callq	Init_Motion_Search_Module.5
	popq	%rbp
	.cfi_def_cfa %rsp, 8
	retq
.LBB6_4:                                # %func_Init_Motion_Search_Module.63
	.cfi_def_cfa %rbp, 16
	callq	Init_Motion_Search_Module.63
	popq	%rbp
	.cfi_def_cfa %rsp, 8
	retq
.LBB6_5:                                # %ctrl0
	.cfi_def_cfa %rbp, 16
	cmpl	$1, %eax
	je	.LBB6_2
# %bb.6:                                # %ctrl1
	cmpl	$2, %eax
	je	.LBB6_3
	jmp	.LBB6_4
.Lfunc_end6:
	.size	Init_Motion_Search_Module, .Lfunc_end6-Init_Motion_Search_Module
	.cfi_endproc
                                        # -- End function
	.globl	Clear_Motion_Search_Module # -- Begin function Clear_Motion_Search_Module
	.p2align	4, 0x90
	.type	Clear_Motion_Search_Module,@function
Clear_Motion_Search_Module:             # @Clear_Motion_Search_Module
	.cfi_startproc
# %bb.0:                                # %entry
	pushq	%rbp
	.cfi_def_cfa_offset 16
	.cfi_offset %rbp, -16
	movq	%rsp, %rbp
	.cfi_def_cfa_register %rbp
	xorl	%eax, %eax
	movl	max_mvd, %ecx
	movq	mvbits, %rdx
	movslq	%ecx, %rcx
	subq	%rcx, %rax
	shlq	$2, %rax
	addq	%rax, %rdx
	movq	%rdx, mvbits
	movq	img, %rax
	movl	72684(%rax), %eax
	movq	img, %rcx
	cmpl	72688(%rcx), %eax
	jle	.LBB7_2
# %bb.1:                                # %cond.true
	movq	img, %rax
	movl	72684(%rax), %eax
	addl	$1, %eax
	jmp	.LBB7_3
.LBB7_2:                                # %cond.false
	movq	img, %rax
	movl	72688(%rax), %eax
	addl	$1, %eax
.LBB7_3:                                # %cond.end
	xorl	%ecx, %ecx
	movq	byte_abs, %rdx
	cltq
	subq	%rax, %rcx
	shlq	$2, %rcx
	addq	%rcx, %rdx
	movq	%rdx, byte_abs
	movq	spiral_search_x, %rdi
	callq	free
	movq	spiral_search_y, %rdi
	callq	free
	movq	mvbits, %rdi
	callq	free
	movq	refbits, %rdi
	callq	free
	movq	byte_abs, %rdi
	callq	free
	movq	motion_cost, %rdi
	movl	$8, %esi
	movl	$2, %edx
	callq	free_mem4Dint
	movq	input, %rax
	cmpl	$0, 3292(%rax)
	jne	.LBB7_5
# %bb.4:                                # %if.then
	callq	ClearFastFullIntegerSearch
.LBB7_5:                                # %if.end
	popq	%rbp
	.cfi_def_cfa %rsp, 8
	retq
.Lfunc_end7:
	.size	Clear_Motion_Search_Module, .Lfunc_end7-Clear_Motion_Search_Module
	.cfi_endproc
                                        # -- End function
	.globl	FullPelBlockMotionSearch # -- Begin function FullPelBlockMotionSearch
	.p2align	4, 0x90
	.type	FullPelBlockMotionSearch,@function
FullPelBlockMotionSearch:               # @FullPelBlockMotionSearch
	.cfi_startproc
# %bb.0:                                # %rand_bb
	pushq	%rbp
	.cfi_def_cfa_offset 16
	.cfi_offset %rbp, -16
	movq	%rsp, %rbp
	.cfi_def_cfa_register %rbp
	pushq	%r15
	pushq	%r14
	pushq	%r13
	pushq	%r12
	pushq	%rbx
	subq	$72, %rsp
	.cfi_offset %rbx, -56
	.cfi_offset %r12, -48
	.cfi_offset %r13, -40
	.cfi_offset %r14, -32
	.cfi_offset %r15, -24
	vmovsd	%xmm0, -56(%rbp)        # 8-byte Spill
	movl	%r9d, -44(%rbp)         # 4-byte Spill
	movl	%r8d, %r12d
	movl	%ecx, %r13d
	movl	%edx, %ebx
	movl	%esi, %r14d
	movq	%rdi, %r15
	callq	get_urand
	cmpl	$0, %eax
	jne	.LBB8_5
# %bb.1:                                # %func_FullPelBlockMotionSearch.47
	movq	%r15, %rdi
	movswl	%r14w, %esi
	movl	%ebx, %edx
	movl	%r13d, %ecx
	movl	%r12d, %r8d
	movl	-44(%rbp), %r9d         # 4-byte Reload
	movswl	16(%rbp), %eax
	movl	%eax, (%rsp)
	movswl	24(%rbp), %eax
	movl	%eax, 8(%rsp)
	movq	32(%rbp), %rax
	movq	%rax, 16(%rsp)
	movq	40(%rbp), %rax
	movq	%rax, 24(%rsp)
	movl	48(%rbp), %eax
	movl	%eax, 32(%rsp)
	movl	56(%rbp), %eax
	movl	%eax, 40(%rsp)
	vmovsd	-56(%rbp), %xmm0        # 8-byte Reload
                                        # xmm0 = mem[0],zero
	callq	FullPelBlockMotionSearch.47
	addq	$72, %rsp
	popq	%rbx
	popq	%r12
	popq	%r13
	popq	%r14
	popq	%r15
	popq	%rbp
	.cfi_def_cfa %rsp, 8
	retq
.LBB8_2:                                # %func_FullPelBlockMotionSearch.49
	.cfi_def_cfa %rbp, 16
	movswl	%r14w, %esi
	movl	%ebx, %edx
	movl	%r13d, %ecx
	movl	%r12d, %r8d
	movswl	%r10w, %eax
	movl	%eax, (%rsp)
	movswl	24(%rbp), %eax
	movl	%eax, 8(%rsp)
	movq	32(%rbp), %rax
	movq	%rax, 16(%rsp)
	movq	40(%rbp), %rax
	movq	%rax, 24(%rsp)
	movl	%r11d, 32(%rsp)
	movl	%r15d, 40(%rsp)
	callq	FullPelBlockMotionSearch.49
	addq	$72, %rsp
	popq	%rbx
	popq	%r12
	popq	%r13
	popq	%r14
	popq	%r15
	popq	%rbp
	.cfi_def_cfa %rsp, 8
	retq
.LBB8_3:                                # %func_FullPelBlockMotionSearch.56
	.cfi_def_cfa %rbp, 16
	movswl	%r14w, %esi
	movswl	%r10w, %eax
	movl	%eax, (%rsp)
	movswl	24(%rbp), %eax
	movl	%eax, 8(%rsp)
	movq	32(%rbp), %rax
	movq	%rax, 16(%rsp)
	movq	40(%rbp), %rax
	movq	%rax, 24(%rsp)
	movl	%r11d, 32(%rsp)
	movl	%r15d, 40(%rsp)
	callq	FullPelBlockMotionSearch.56
	addq	$72, %rsp
	popq	%rbx
	popq	%r12
	popq	%r13
	popq	%r14
	popq	%r15
	popq	%rbp
	.cfi_def_cfa %rsp, 8
	retq
.LBB8_4:                                # %func_FullPelBlockMotionSearch.78
	.cfi_def_cfa %rbp, 16
	movswl	%r14w, %esi
	movswl	%r10w, %eax
	movl	%eax, (%rsp)
	movswl	24(%rbp), %eax
	movl	%eax, 8(%rsp)
	movq	32(%rbp), %rax
	movq	%rax, 16(%rsp)
	movq	40(%rbp), %rax
	movq	%rax, 24(%rsp)
	movl	%r11d, 32(%rsp)
	movl	%r15d, 40(%rsp)
	callq	FullPelBlockMotionSearch.78
	addq	$72, %rsp
	popq	%rbx
	popq	%r12
	popq	%r13
	popq	%r14
	popq	%r15
	popq	%rbp
	.cfi_def_cfa %rsp, 8
	retq
.LBB8_5:                                # %ctrl0
	.cfi_def_cfa %rbp, 16
	movq	%r15, %rdi
	movw	16(%rbp), %r10w
	movl	-44(%rbp), %r9d         # 4-byte Reload
	movl	48(%rbp), %r11d
	movl	56(%rbp), %r15d
	vmovsd	-56(%rbp), %xmm0        # 8-byte Reload
                                        # xmm0 = mem[0],zero
	cmpl	$1, %eax
	je	.LBB8_2
# %bb.6:                                # %ctrl1
	cmpl	$2, %eax
	movl	%r12d, %r8d
	movl	%r13d, %ecx
	movl	%ebx, %edx
	je	.LBB8_3
	jmp	.LBB8_4
.Lfunc_end8:
	.size	FullPelBlockMotionSearch, .Lfunc_end8-FullPelBlockMotionSearch
	.cfi_endproc
                                        # -- End function
	.globl	FastFullPelBlockMotionSearch # -- Begin function FastFullPelBlockMotionSearch
	.p2align	4, 0x90
	.type	FastFullPelBlockMotionSearch,@function
FastFullPelBlockMotionSearch:           # @FastFullPelBlockMotionSearch
	.cfi_startproc
# %bb.0:                                # %rand_bb
	pushq	%rbp
	.cfi_def_cfa_offset 16
	.cfi_offset %rbp, -16
	movq	%rsp, %rbp
	.cfi_def_cfa_register %rbp
	pushq	%r15
	pushq	%r14
	pushq	%r13
	pushq	%r12
	pushq	%rbx
	subq	$72, %rsp
	.cfi_offset %rbx, -56
	.cfi_offset %r12, -48
	.cfi_offset %r13, -40
	.cfi_offset %r14, -32
	.cfi_offset %r15, -24
	vmovsd	%xmm0, -56(%rbp)        # 8-byte Spill
	movl	%r9d, -44(%rbp)         # 4-byte Spill
	movl	%r8d, %r12d
	movl	%ecx, %r13d
	movl	%edx, %ebx
	movl	%esi, %r14d
	movq	%rdi, %r15
	callq	get_urand
	cmpl	$0, %eax
	jne	.LBB9_5
# %bb.1:                                # %func_FastFullPelBlockMotionSearch.44
	movq	%r15, %rdi
	movswl	%r14w, %esi
	movl	%ebx, %edx
	movl	%r13d, %ecx
	movl	%r12d, %r8d
	movl	-44(%rbp), %r9d         # 4-byte Reload
	movswl	16(%rbp), %eax
	movl	%eax, (%rsp)
	movswl	24(%rbp), %eax
	movl	%eax, 8(%rsp)
	movq	32(%rbp), %rax
	movq	%rax, 16(%rsp)
	movq	40(%rbp), %rax
	movq	%rax, 24(%rsp)
	movl	48(%rbp), %eax
	movl	%eax, 32(%rsp)
	movl	56(%rbp), %eax
	movl	%eax, 40(%rsp)
	vmovsd	-56(%rbp), %xmm0        # 8-byte Reload
                                        # xmm0 = mem[0],zero
	callq	FastFullPelBlockMotionSearch.44
	addq	$72, %rsp
	popq	%rbx
	popq	%r12
	popq	%r13
	popq	%r14
	popq	%r15
	popq	%rbp
	.cfi_def_cfa %rsp, 8
	retq
.LBB9_2:                                # %func_FastFullPelBlockMotionSearch.61
	.cfi_def_cfa %rbp, 16
	movswl	%r14w, %esi
	movl	%ebx, %edx
	movl	%r13d, %ecx
	movl	%r12d, %r8d
	movswl	%r10w, %eax
	movl	%eax, (%rsp)
	movswl	24(%rbp), %eax
	movl	%eax, 8(%rsp)
	movq	32(%rbp), %rax
	movq	%rax, 16(%rsp)
	movq	40(%rbp), %rax
	movq	%rax, 24(%rsp)
	movl	%r11d, 32(%rsp)
	movl	%r15d, 40(%rsp)
	callq	FastFullPelBlockMotionSearch.61
	addq	$72, %rsp
	popq	%rbx
	popq	%r12
	popq	%r13
	popq	%r14
	popq	%r15
	popq	%rbp
	.cfi_def_cfa %rsp, 8
	retq
.LBB9_3:                                # %func_FastFullPelBlockMotionSearch.82
	.cfi_def_cfa %rbp, 16
	movswl	%r14w, %esi
	movswl	%r10w, %eax
	movl	%eax, (%rsp)
	movswl	24(%rbp), %eax
	movl	%eax, 8(%rsp)
	movq	32(%rbp), %rax
	movq	%rax, 16(%rsp)
	movq	40(%rbp), %rax
	movq	%rax, 24(%rsp)
	movl	%r11d, 32(%rsp)
	movl	%r15d, 40(%rsp)
	callq	FastFullPelBlockMotionSearch.82
	addq	$72, %rsp
	popq	%rbx
	popq	%r12
	popq	%r13
	popq	%r14
	popq	%r15
	popq	%rbp
	.cfi_def_cfa %rsp, 8
	retq
.LBB9_4:                                # %func_FastFullPelBlockMotionSearch.85
	.cfi_def_cfa %rbp, 16
	movswl	%r14w, %esi
	movswl	%r10w, %eax
	movl	%eax, (%rsp)
	movswl	24(%rbp), %eax
	movl	%eax, 8(%rsp)
	movq	32(%rbp), %rax
	movq	%rax, 16(%rsp)
	movq	40(%rbp), %rax
	movq	%rax, 24(%rsp)
	movl	%r11d, 32(%rsp)
	movl	%r15d, 40(%rsp)
	callq	FastFullPelBlockMotionSearch.85
	addq	$72, %rsp
	popq	%rbx
	popq	%r12
	popq	%r13
	popq	%r14
	popq	%r15
	popq	%rbp
	.cfi_def_cfa %rsp, 8
	retq
.LBB9_5:                                # %ctrl0
	.cfi_def_cfa %rbp, 16
	movq	%r15, %rdi
	movw	16(%rbp), %r10w
	movl	-44(%rbp), %r9d         # 4-byte Reload
	movl	48(%rbp), %r11d
	movl	56(%rbp), %r15d
	vmovsd	-56(%rbp), %xmm0        # 8-byte Reload
                                        # xmm0 = mem[0],zero
	cmpl	$1, %eax
	je	.LBB9_2
# %bb.6:                                # %ctrl1
	cmpl	$2, %eax
	movl	%r12d, %r8d
	movl	%r13d, %ecx
	movl	%ebx, %edx
	je	.LBB9_3
	jmp	.LBB9_4
.Lfunc_end9:
	.size	FastFullPelBlockMotionSearch, .Lfunc_end9-FastFullPelBlockMotionSearch
	.cfi_endproc
                                        # -- End function
	.globl	SATD                    # -- Begin function SATD
	.p2align	4, 0x90
	.type	SATD,@function
SATD:                                   # @SATD
	.cfi_startproc
# %bb.0:                                # %rand_bb
	pushq	%rbp
	.cfi_def_cfa_offset 16
	.cfi_offset %rbp, -16
	movq	%rsp, %rbp
	.cfi_def_cfa_register %rbp
	pushq	%r14
	pushq	%rbx
	.cfi_offset %rbx, -32
	.cfi_offset %r14, -24
	movl	%esi, %r14d
	movq	%rdi, %rbx
	callq	get_urand
	cmpl	$0, %eax
	jne	.LBB10_5
# %bb.1:                                # %func_SATD.42
	movq	%rbx, %rdi
	movl	%r14d, %esi
	callq	SATD.42
	popq	%rbx
	popq	%r14
	popq	%rbp
	.cfi_def_cfa %rsp, 8
	retq
.LBB10_2:                               # %func_SATD.45
	.cfi_def_cfa %rbp, 16
	movq	%rbx, %rdi
	movl	%r14d, %esi
	callq	SATD.45
	popq	%rbx
	popq	%r14
	popq	%rbp
	.cfi_def_cfa %rsp, 8
	retq
.LBB10_3:                               # %func_SATD.52
	.cfi_def_cfa %rbp, 16
	movq	%rbx, %rdi
	movl	%r14d, %esi
	callq	SATD.52
	popq	%rbx
	popq	%r14
	popq	%rbp
	.cfi_def_cfa %rsp, 8
	retq
.LBB10_4:                               # %func_SATD.74
	.cfi_def_cfa %rbp, 16
	movq	%rbx, %rdi
	movl	%r14d, %esi
	callq	SATD.74
	popq	%rbx
	popq	%r14
	popq	%rbp
	.cfi_def_cfa %rsp, 8
	retq
.LBB10_5:                               # %ctrl0
	.cfi_def_cfa %rbp, 16
	cmpl	$1, %eax
	je	.LBB10_2
# %bb.6:                                # %ctrl1
	cmpl	$2, %eax
	je	.LBB10_3
	jmp	.LBB10_4
.Lfunc_end10:
	.size	SATD, .Lfunc_end10-SATD
	.cfi_endproc
                                        # -- End function
	.globl	SATD8X8                 # -- Begin function SATD8X8
	.p2align	4, 0x90
	.type	SATD8X8,@function
SATD8X8:                                # @SATD8X8
	.cfi_startproc
# %bb.0:                                # %rand_bb
	pushq	%rbp
	.cfi_def_cfa_offset 16
	.cfi_offset %rbp, -16
	movq	%rsp, %rbp
	.cfi_def_cfa_register %rbp
	pushq	%r14
	pushq	%rbx
	.cfi_offset %rbx, -32
	.cfi_offset %r14, -24
	movl	%esi, %r14d
	movq	%rdi, %rbx
	callq	get_urand
	cmpl	$0, %eax
	jne	.LBB11_5
# %bb.1:                                # %func_SATD8X8.10
	movq	%rbx, %rdi
	movl	%r14d, %esi
	callq	SATD8X8.10
	popq	%rbx
	popq	%r14
	popq	%rbp
	.cfi_def_cfa %rsp, 8
	retq
.LBB11_2:                               # %func_SATD8X8.54
	.cfi_def_cfa %rbp, 16
	movq	%rbx, %rdi
	movl	%r14d, %esi
	callq	SATD8X8.54
	popq	%rbx
	popq	%r14
	popq	%rbp
	.cfi_def_cfa %rsp, 8
	retq
.LBB11_3:                               # %func_SATD8X8.76
	.cfi_def_cfa %rbp, 16
	movq	%rbx, %rdi
	movl	%r14d, %esi
	callq	SATD8X8.76
	popq	%rbx
	popq	%r14
	popq	%rbp
	.cfi_def_cfa %rsp, 8
	retq
.LBB11_4:                               # %func_SATD8X8.79
	.cfi_def_cfa %rbp, 16
	movq	%rbx, %rdi
	movl	%r14d, %esi
	callq	SATD8X8.79
	popq	%rbx
	popq	%r14
	popq	%rbp
	.cfi_def_cfa %rsp, 8
	retq
.LBB11_5:                               # %ctrl0
	.cfi_def_cfa %rbp, 16
	cmpl	$1, %eax
	je	.LBB11_2
# %bb.6:                                # %ctrl1
	cmpl	$2, %eax
	je	.LBB11_3
	jmp	.LBB11_4
.Lfunc_end11:
	.size	SATD8X8, .Lfunc_end11-SATD8X8
	.cfi_endproc
                                        # -- End function
	.globl	find_SATD               # -- Begin function find_SATD
	.p2align	4, 0x90
	.type	find_SATD,@function
find_SATD:                              # @find_SATD
	.cfi_startproc
# %bb.0:                                # %rand_bb
	pushq	%rbp
	.cfi_def_cfa_offset 16
	.cfi_offset %rbp, -16
	movq	%rsp, %rbp
	.cfi_def_cfa_register %rbp
	pushq	%r15
	pushq	%r14
	pushq	%rbx
	pushq	%rax
	.cfi_offset %rbx, -40
	.cfi_offset %r14, -32
	.cfi_offset %r15, -24
	movl	%edx, %r14d
	movl	%esi, %r15d
	movq	%rdi, %rbx
	callq	get_urand
	cmpl	$0, %eax
	jne	.LBB12_5
# %bb.1:                                # %func_find_SATD.41
	movq	%rbx, %rdi
	movl	%r15d, %esi
	movl	%r14d, %edx
	callq	find_SATD.41
	addq	$8, %rsp
	popq	%rbx
	popq	%r14
	popq	%r15
	popq	%rbp
	.cfi_def_cfa %rsp, 8
	retq
.LBB12_2:                               # %func_find_SATD.75
	.cfi_def_cfa %rbp, 16
	movq	%rbx, %rdi
	movl	%r15d, %esi
	movl	%r14d, %edx
	callq	find_SATD.75
	addq	$8, %rsp
	popq	%rbx
	popq	%r14
	popq	%r15
	popq	%rbp
	.cfi_def_cfa %rsp, 8
	retq
.LBB12_3:                               # %func_find_SATD.77
	.cfi_def_cfa %rbp, 16
	movq	%rbx, %rdi
	movl	%r15d, %esi
	movl	%r14d, %edx
	callq	find_SATD.77
	addq	$8, %rsp
	popq	%rbx
	popq	%r14
	popq	%r15
	popq	%rbp
	.cfi_def_cfa %rsp, 8
	retq
.LBB12_4:                               # %func_find_SATD.86
	.cfi_def_cfa %rbp, 16
	movq	%rbx, %rdi
	movl	%r15d, %esi
	movl	%r14d, %edx
	callq	find_SATD.86
	addq	$8, %rsp
	popq	%rbx
	popq	%r14
	popq	%r15
	popq	%rbp
	.cfi_def_cfa %rsp, 8
	retq
.LBB12_5:                               # %ctrl0
	.cfi_def_cfa %rbp, 16
	cmpl	$1, %eax
	je	.LBB12_2
# %bb.6:                                # %ctrl1
	cmpl	$2, %eax
	je	.LBB12_3
	jmp	.LBB12_4
.Lfunc_end12:
	.size	find_SATD, .Lfunc_end12-find_SATD
	.cfi_endproc
                                        # -- End function
	.globl	SubPelBlockMotionSearch # -- Begin function SubPelBlockMotionSearch
	.p2align	4, 0x90
	.type	SubPelBlockMotionSearch,@function
SubPelBlockMotionSearch:                # @SubPelBlockMotionSearch
	.cfi_startproc
# %bb.0:                                # %rand_bb
	pushq	%rbp
	.cfi_def_cfa_offset 16
	.cfi_offset %rbp, -16
	movq	%rsp, %rbp
	.cfi_def_cfa_register %rbp
	pushq	%r15
	pushq	%r14
	pushq	%r13
	pushq	%r12
	pushq	%rbx
	subq	$72, %rsp
	.cfi_offset %rbx, -56
	.cfi_offset %r12, -48
	.cfi_offset %r13, -40
	.cfi_offset %r14, -32
	.cfi_offset %r15, -24
	vmovsd	%xmm0, -56(%rbp)        # 8-byte Spill
	movl	%r9d, -44(%rbp)         # 4-byte Spill
	movl	%r8d, %r12d
	movl	%ecx, %r13d
	movl	%edx, %ebx
	movl	%esi, %r14d
	movq	%rdi, %r15
	callq	get_urand
	cmpl	$0, %eax
	jne	.LBB13_5
# %bb.1:                                # %func_SubPelBlockMotionSearch.14
	movq	%r15, %rdi
	movswl	%r14w, %esi
	movl	%ebx, %edx
	movl	%r13d, %ecx
	movl	%r12d, %r8d
	movl	-44(%rbp), %r9d         # 4-byte Reload
	movswl	16(%rbp), %eax
	movl	%eax, (%rsp)
	movswl	24(%rbp), %eax
	movl	%eax, 8(%rsp)
	movq	32(%rbp), %rax
	movq	%rax, 16(%rsp)
	movq	40(%rbp), %rax
	movq	%rax, 24(%rsp)
	movl	48(%rbp), %eax
	movl	%eax, 32(%rsp)
	movl	56(%rbp), %eax
	movl	%eax, 40(%rsp)
	movl	64(%rbp), %eax
	movl	%eax, 48(%rsp)
	vmovsd	-56(%rbp), %xmm0        # 8-byte Reload
                                        # xmm0 = mem[0],zero
	callq	SubPelBlockMotionSearch.14
	addq	$72, %rsp
	popq	%rbx
	popq	%r12
	popq	%r13
	popq	%r14
	popq	%r15
	popq	%rbp
	.cfi_def_cfa %rsp, 8
	retq
.LBB13_2:                               # %func_SubPelBlockMotionSearch.35
	.cfi_def_cfa %rbp, 16
	movswl	%r14w, %esi
	movl	%r13d, %ecx
	movswl	%r11w, %eax
	movl	%eax, (%rsp)
	movswl	%r10w, %eax
	movl	%eax, 8(%rsp)
	movq	32(%rbp), %rax
	movq	%rax, 16(%rsp)
	movq	40(%rbp), %rax
	movq	%rax, 24(%rsp)
	movl	48(%rbp), %eax
	movl	%eax, 32(%rsp)
	movl	%r12d, 40(%rsp)
	movl	%r15d, 48(%rsp)
	callq	SubPelBlockMotionSearch.35
	addq	$72, %rsp
	popq	%rbx
	popq	%r12
	popq	%r13
	popq	%r14
	popq	%r15
	popq	%rbp
	.cfi_def_cfa %rsp, 8
	retq
.LBB13_3:                               # %func_SubPelBlockMotionSearch.38
	.cfi_def_cfa %rbp, 16
	movswl	%r14w, %esi
	movswl	%r11w, %eax
	movl	%eax, (%rsp)
	movswl	%r10w, %eax
	movl	%eax, 8(%rsp)
	movq	32(%rbp), %rax
	movq	%rax, 16(%rsp)
	movq	40(%rbp), %rax
	movq	%rax, 24(%rsp)
	movl	48(%rbp), %eax
	movl	%eax, 32(%rsp)
	movl	%r12d, 40(%rsp)
	movl	%ebx, 48(%rsp)
	callq	SubPelBlockMotionSearch.38
	addq	$72, %rsp
	popq	%rbx
	popq	%r12
	popq	%r13
	popq	%r14
	popq	%r15
	popq	%rbp
	.cfi_def_cfa %rsp, 8
	retq
.LBB13_4:                               # %func_SubPelBlockMotionSearch.40
	.cfi_def_cfa %rbp, 16
	movswl	%r14w, %esi
	movswl	%r11w, %eax
	movl	%eax, (%rsp)
	movswl	%r10w, %eax
	movl	%eax, 8(%rsp)
	movq	32(%rbp), %rax
	movq	%rax, 16(%rsp)
	movq	40(%rbp), %rax
	movq	%rax, 24(%rsp)
	movl	48(%rbp), %eax
	movl	%eax, 32(%rsp)
	movl	%r12d, 40(%rsp)
	movl	%ebx, 48(%rsp)
	callq	SubPelBlockMotionSearch.40
	addq	$72, %rsp
	popq	%rbx
	popq	%r12
	popq	%r13
	popq	%r14
	popq	%r15
	popq	%rbp
	.cfi_def_cfa %rsp, 8
	retq
.LBB13_5:                               # %ctrl0
	.cfi_def_cfa %rbp, 16
	movq	%r15, %rdi
	movl	%ebx, %edx
	movw	16(%rbp), %r11w
	movl	%r12d, %r8d
	movw	24(%rbp), %r10w
	movl	-44(%rbp), %r9d         # 4-byte Reload
	movl	56(%rbp), %r12d
	movl	64(%rbp), %r15d
	vmovsd	-56(%rbp), %xmm0        # 8-byte Reload
                                        # xmm0 = mem[0],zero
	cmpl	$1, %eax
	je	.LBB13_2
# %bb.6:                                # %ctrl1
	cmpl	$2, %eax
	movl	%r15d, %ebx
	movl	%r13d, %ecx
	je	.LBB13_3
	jmp	.LBB13_4
.Lfunc_end13:
	.size	SubPelBlockMotionSearch, .Lfunc_end13-SubPelBlockMotionSearch
	.cfi_endproc
                                        # -- End function
	.globl	FullPelBlockMotionBiPred # -- Begin function FullPelBlockMotionBiPred
	.p2align	4, 0x90
	.type	FullPelBlockMotionBiPred,@function
FullPelBlockMotionBiPred:               # @FullPelBlockMotionBiPred
	.cfi_startproc
# %bb.0:                                # %rand_bb
	pushq	%rbp
	.cfi_def_cfa_offset 16
	.cfi_offset %rbp, -16
	movq	%rsp, %rbp
	.cfi_def_cfa_register %rbp
	pushq	%r15
	pushq	%r14
	pushq	%r13
	pushq	%r12
	pushq	%rbx
	subq	$104, %rsp
	.cfi_offset %rbx, -56
	.cfi_offset %r12, -48
	.cfi_offset %r13, -40
	.cfi_offset %r14, -32
	.cfi_offset %r15, -24
	vmovsd	%xmm0, -56(%rbp)        # 8-byte Spill
	movl	%r9d, -44(%rbp)         # 4-byte Spill
	movl	%r8d, %r12d
	movl	%ecx, %r13d
	movl	%edx, %ebx
	movl	%esi, %r14d
	movq	%rdi, %r15
	callq	get_urand
	cmpl	$0, %eax
	jne	.LBB14_5
# %bb.1:                                # %func_FullPelBlockMotionBiPred.2
	movq	%r15, %rdi
	movswl	%r14w, %esi
	movl	%ebx, %edx
	movl	%r13d, %ecx
	movl	%r12d, %r8d
	movl	-44(%rbp), %r9d         # 4-byte Reload
	movl	16(%rbp), %eax
	movl	%eax, (%rsp)
	movswl	24(%rbp), %eax
	movl	%eax, 8(%rsp)
	movswl	32(%rbp), %eax
	movl	%eax, 16(%rsp)
	movswl	40(%rbp), %eax
	movl	%eax, 24(%rsp)
	movswl	48(%rbp), %eax
	movl	%eax, 32(%rsp)
	movq	56(%rbp), %rax
	movq	%rax, 40(%rsp)
	movq	64(%rbp), %rax
	movq	%rax, 48(%rsp)
	movq	72(%rbp), %rax
	movq	%rax, 56(%rsp)
	movq	80(%rbp), %rax
	movq	%rax, 64(%rsp)
	movl	88(%rbp), %eax
	movl	%eax, 72(%rsp)
	movl	96(%rbp), %eax
	movl	%eax, 80(%rsp)
	vmovsd	-56(%rbp), %xmm0        # 8-byte Reload
                                        # xmm0 = mem[0],zero
	callq	FullPelBlockMotionBiPred.2
	addq	$104, %rsp
	popq	%rbx
	popq	%r12
	popq	%r13
	popq	%r14
	popq	%r15
	popq	%rbp
	.cfi_def_cfa %rsp, 8
	retq
.LBB14_2:                               # %func_FullPelBlockMotionBiPred.31
	.cfi_def_cfa %rbp, 16
	movswl	%r14w, %esi
	movl	%r13d, %ecx
	movl	%r12d, %r8d
	movl	%r11d, (%rsp)
	movswl	%r10w, %eax
	movl	%eax, 8(%rsp)
	movswl	32(%rbp), %eax
	movl	%eax, 16(%rsp)
	movswl	40(%rbp), %eax
	movl	%eax, 24(%rsp)
	movswl	48(%rbp), %eax
	movl	%eax, 32(%rsp)
	movq	56(%rbp), %rax
	movq	%rax, 40(%rsp)
	movq	64(%rbp), %rax
	movq	%rax, 48(%rsp)
	movq	72(%rbp), %rax
	movq	%rax, 56(%rsp)
	movq	80(%rbp), %rax
	movq	%rax, 64(%rsp)
	movl	%ebx, 72(%rsp)
	movl	%r15d, 80(%rsp)
	callq	FullPelBlockMotionBiPred.31
	addq	$104, %rsp
	popq	%rbx
	popq	%r12
	popq	%r13
	popq	%r14
	popq	%r15
	popq	%rbp
	.cfi_def_cfa %rsp, 8
	retq
.LBB14_3:                               # %func_FullPelBlockMotionBiPred.39
	.cfi_def_cfa %rbp, 16
	movswl	%r14w, %esi
	movl	%r11d, (%rsp)
	movswl	%r10w, %eax
	movl	%eax, 8(%rsp)
	movswl	32(%rbp), %eax
	movl	%eax, 16(%rsp)
	movswl	40(%rbp), %eax
	movl	%eax, 24(%rsp)
	movswl	48(%rbp), %eax
	movl	%eax, 32(%rsp)
	movq	56(%rbp), %rax
	movq	%rax, 40(%rsp)
	movq	64(%rbp), %rax
	movq	%rax, 48(%rsp)
	movq	72(%rbp), %rax
	movq	%rax, 56(%rsp)
	movq	80(%rbp), %rax
	movq	%rax, 64(%rsp)
	movl	%ebx, 72(%rsp)
	movl	%r15d, 80(%rsp)
	callq	FullPelBlockMotionBiPred.39
	addq	$104, %rsp
	popq	%rbx
	popq	%r12
	popq	%r13
	popq	%r14
	popq	%r15
	popq	%rbp
	.cfi_def_cfa %rsp, 8
	retq
.LBB14_4:                               # %func_FullPelBlockMotionBiPred.69
	.cfi_def_cfa %rbp, 16
	movswl	%r14w, %esi
	movl	%r11d, (%rsp)
	movswl	%r10w, %eax
	movl	%eax, 8(%rsp)
	movswl	32(%rbp), %eax
	movl	%eax, 16(%rsp)
	movswl	40(%rbp), %eax
	movl	%eax, 24(%rsp)
	movswl	48(%rbp), %eax
	movl	%eax, 32(%rsp)
	movq	56(%rbp), %rax
	movq	%rax, 40(%rsp)
	movq	64(%rbp), %rax
	movq	%rax, 48(%rsp)
	movq	72(%rbp), %rax
	movq	%rax, 56(%rsp)
	movq	80(%rbp), %rax
	movq	%rax, 64(%rsp)
	movl	%ebx, 72(%rsp)
	movl	%r15d, 80(%rsp)
	callq	FullPelBlockMotionBiPred.69
	addq	$104, %rsp
	popq	%rbx
	popq	%r12
	popq	%r13
	popq	%r14
	popq	%r15
	popq	%rbp
	.cfi_def_cfa %rsp, 8
	retq
.LBB14_5:                               # %ctrl0
	.cfi_def_cfa %rbp, 16
	movq	%r15, %rdi
	movl	16(%rbp), %r11d
	movl	%ebx, %edx
	movw	24(%rbp), %r10w
	movl	-44(%rbp), %r9d         # 4-byte Reload
	movl	88(%rbp), %ebx
	movl	96(%rbp), %r15d
	vmovsd	-56(%rbp), %xmm0        # 8-byte Reload
                                        # xmm0 = mem[0],zero
	cmpl	$1, %eax
	je	.LBB14_2
# %bb.6:                                # %ctrl1
	cmpl	$2, %eax
	movl	%r12d, %r8d
	movl	%r13d, %ecx
	je	.LBB14_3
	jmp	.LBB14_4
.Lfunc_end14:
	.size	FullPelBlockMotionBiPred, .Lfunc_end14-FullPelBlockMotionBiPred
	.cfi_endproc
                                        # -- End function
	.globl	SubPelBlockSearchBiPred # -- Begin function SubPelBlockSearchBiPred
	.p2align	4, 0x90
	.type	SubPelBlockSearchBiPred,@function
SubPelBlockSearchBiPred:                # @SubPelBlockSearchBiPred
	.cfi_startproc
# %bb.0:                                # %rand_bb
	pushq	%rbp
	.cfi_def_cfa_offset 16
	.cfi_offset %rbp, -16
	movq	%rsp, %rbp
	.cfi_def_cfa_register %rbp
	pushq	%r15
	pushq	%r14
	pushq	%r13
	pushq	%r12
	pushq	%rbx
	subq	$88, %rsp
	.cfi_offset %rbx, -56
	.cfi_offset %r12, -48
	.cfi_offset %r13, -40
	.cfi_offset %r14, -32
	.cfi_offset %r15, -24
	vmovsd	%xmm0, -56(%rbp)        # 8-byte Spill
	movl	%r9d, -44(%rbp)         # 4-byte Spill
	movl	%r8d, %r12d
	movl	%ecx, %r13d
	movl	%edx, %ebx
	movl	%esi, %r14d
	movq	%rdi, %r15
	callq	get_urand
	cmpl	$0, %eax
	jne	.LBB15_5
# %bb.1:                                # %func_SubPelBlockSearchBiPred.28
	movq	%r15, %rdi
	movswl	%r14w, %esi
	movl	%ebx, %edx
	movl	%r13d, %ecx
	movl	%r12d, %r8d
	movl	-44(%rbp), %r9d         # 4-byte Reload
	movswl	16(%rbp), %eax
	movl	%eax, (%rsp)
	movswl	24(%rbp), %eax
	movl	%eax, 8(%rsp)
	movq	32(%rbp), %rax
	movq	%rax, 16(%rsp)
	movq	40(%rbp), %rax
	movq	%rax, 24(%rsp)
	movq	48(%rbp), %rax
	movq	%rax, 32(%rsp)
	movq	56(%rbp), %rax
	movq	%rax, 40(%rsp)
	movl	64(%rbp), %eax
	movl	%eax, 48(%rsp)
	movl	72(%rbp), %eax
	movl	%eax, 56(%rsp)
	movl	80(%rbp), %eax
	movl	%eax, 64(%rsp)
	vmovsd	-56(%rbp), %xmm0        # 8-byte Reload
                                        # xmm0 = mem[0],zero
	callq	SubPelBlockSearchBiPred.28
	addq	$88, %rsp
	popq	%rbx
	popq	%r12
	popq	%r13
	popq	%r14
	popq	%r15
	popq	%rbp
	.cfi_def_cfa %rsp, 8
	retq
.LBB15_2:                               # %func_SubPelBlockSearchBiPred.65
	.cfi_def_cfa %rbp, 16
	movswl	%r14w, %esi
	movl	%r13d, %ecx
	movswl	%r11w, %eax
	movl	%eax, (%rsp)
	movswl	%r10w, %eax
	movl	%eax, 8(%rsp)
	movq	32(%rbp), %rax
	movq	%rax, 16(%rsp)
	movq	40(%rbp), %rax
	movq	%rax, 24(%rsp)
	movq	48(%rbp), %rax
	movq	%rax, 32(%rsp)
	movq	56(%rbp), %rax
	movq	%rax, 40(%rsp)
	movl	64(%rbp), %eax
	movl	%eax, 48(%rsp)
	movl	%ebx, 56(%rsp)
	movl	%r15d, 64(%rsp)
	callq	SubPelBlockSearchBiPred.65
	addq	$88, %rsp
	popq	%rbx
	popq	%r12
	popq	%r13
	popq	%r14
	popq	%r15
	popq	%rbp
	.cfi_def_cfa %rsp, 8
	retq
.LBB15_3:                               # %func_SubPelBlockSearchBiPred.80
	.cfi_def_cfa %rbp, 16
	movswl	%r14w, %esi
	movswl	%r11w, %eax
	movl	%eax, (%rsp)
	movswl	%r10w, %eax
	movl	%eax, 8(%rsp)
	movq	32(%rbp), %rax
	movq	%rax, 16(%rsp)
	movq	40(%rbp), %rax
	movq	%rax, 24(%rsp)
	movq	48(%rbp), %rax
	movq	%rax, 32(%rsp)
	movq	56(%rbp), %rax
	movq	%rax, 40(%rsp)
	movl	64(%rbp), %eax
	movl	%eax, 48(%rsp)
	movl	%ebx, 56(%rsp)
	movl	%r12d, 64(%rsp)
	callq	SubPelBlockSearchBiPred.80
	addq	$88, %rsp
	popq	%rbx
	popq	%r12
	popq	%r13
	popq	%r14
	popq	%r15
	popq	%rbp
	.cfi_def_cfa %rsp, 8
	retq
.LBB15_4:                               # %func_SubPelBlockSearchBiPred.81
	.cfi_def_cfa %rbp, 16
	movswl	%r14w, %esi
	movswl	%r11w, %eax
	movl	%eax, (%rsp)
	movswl	%r10w, %eax
	movl	%eax, 8(%rsp)
	movq	32(%rbp), %rax
	movq	%rax, 16(%rsp)
	movq	40(%rbp), %rax
	movq	%rax, 24(%rsp)
	movq	48(%rbp), %rax
	movq	%rax, 32(%rsp)
	movq	56(%rbp), %rax
	movq	%rax, 40(%rsp)
	movl	64(%rbp), %eax
	movl	%eax, 48(%rsp)
	movl	%ebx, 56(%rsp)
	movl	%r12d, 64(%rsp)
	callq	SubPelBlockSearchBiPred.81
	addq	$88, %rsp
	popq	%rbx
	popq	%r12
	popq	%r13
	popq	%r14
	popq	%r15
	popq	%rbp
	.cfi_def_cfa %rsp, 8
	retq
.LBB15_5:                               # %ctrl0
	.cfi_def_cfa %rbp, 16
	movq	%r15, %rdi
	movw	16(%rbp), %r11w
	movl	%ebx, %edx
	movl	%r12d, %r8d
	movw	24(%rbp), %r10w
	movl	-44(%rbp), %r9d         # 4-byte Reload
	movl	72(%rbp), %ebx
	movl	80(%rbp), %r15d
	vmovsd	-56(%rbp), %xmm0        # 8-byte Reload
                                        # xmm0 = mem[0],zero
	cmpl	$1, %eax
	je	.LBB15_2
# %bb.6:                                # %ctrl1
	cmpl	$2, %eax
	movl	%r15d, %r12d
	movl	%r13d, %ecx
	je	.LBB15_3
	jmp	.LBB15_4
.Lfunc_end15:
	.size	SubPelBlockSearchBiPred, .Lfunc_end15-SubPelBlockSearchBiPred
	.cfi_endproc
                                        # -- End function
	.globl	BPredPartitionCost      # -- Begin function BPredPartitionCost
	.p2align	4, 0x90
	.type	BPredPartitionCost,@function
BPredPartitionCost:                     # @BPredPartitionCost
	.cfi_startproc
# %bb.0:                                # %rand_bb
	pushq	%rbp
	.cfi_def_cfa_offset 16
	.cfi_offset %rbp, -16
	movq	%rsp, %rbp
	.cfi_def_cfa_register %rbp
	pushq	%r15
	pushq	%r14
	pushq	%r13
	pushq	%r12
	pushq	%rbx
	pushq	%rax
	.cfi_offset %rbx, -56
	.cfi_offset %r12, -48
	.cfi_offset %r13, -40
	.cfi_offset %r14, -32
	.cfi_offset %r15, -24
	movl	%r9d, -44(%rbp)         # 4-byte Spill
	movl	%r8d, %r12d
	movl	%ecx, %r13d
	movl	%edx, %ebx
	movl	%esi, %r14d
	movl	%edi, %r15d
	callq	get_urand
	cmpl	$0, %eax
	jne	.LBB16_5
# %bb.1:                                # %func_BPredPartitionCost.71
	movl	%r15d, %edi
	movl	%r14d, %esi
	movswl	%bx, %edx
	movswl	%r13w, %ecx
	movl	%r12d, %r8d
	movl	-44(%rbp), %r9d         # 4-byte Reload
	callq	BPredPartitionCost.71
	addq	$8, %rsp
	popq	%rbx
	popq	%r12
	popq	%r13
	popq	%r14
	popq	%r15
	popq	%rbp
	.cfi_def_cfa %rsp, 8
	retq
.LBB16_2:                               # %func_BPredPartitionCost.72
	.cfi_def_cfa %rbp, 16
	movl	%r15d, %edi
	movl	%r14d, %esi
	movswl	%bx, %edx
	movswl	%r13w, %ecx
	movl	%r12d, %r8d
	callq	BPredPartitionCost.72
	addq	$8, %rsp
	popq	%rbx
	popq	%r12
	popq	%r13
	popq	%r14
	popq	%r15
	popq	%rbp
	.cfi_def_cfa %rsp, 8
	retq
.LBB16_3:                               # %func_BPredPartitionCost.88
	.cfi_def_cfa %rbp, 16
	movswl	%bx, %edx
	movswl	%r13w, %ecx
	callq	BPredPartitionCost.88
	addq	$8, %rsp
	popq	%rbx
	popq	%r12
	popq	%r13
	popq	%r14
	popq	%r15
	popq	%rbp
	.cfi_def_cfa %rsp, 8
	retq
.LBB16_4:                               # %func_BPredPartitionCost.92
	.cfi_def_cfa %rbp, 16
	movswl	%bx, %edx
	movswl	%r13w, %ecx
	callq	BPredPartitionCost.92
	addq	$8, %rsp
	popq	%rbx
	popq	%r12
	popq	%r13
	popq	%r14
	popq	%r15
	popq	%rbp
	.cfi_def_cfa %rsp, 8
	retq
.LBB16_5:                               # %ctrl0
	.cfi_def_cfa %rbp, 16
	movl	-44(%rbp), %r9d         # 4-byte Reload
	cmpl	$1, %eax
	je	.LBB16_2
# %bb.6:                                # %ctrl1
	cmpl	$2, %eax
	movl	%r12d, %r8d
	movl	%r14d, %esi
	movl	%r15d, %edi
	je	.LBB16_3
	jmp	.LBB16_4
.Lfunc_end16:
	.size	BPredPartitionCost, .Lfunc_end16-BPredPartitionCost
	.cfi_endproc
                                        # -- End function
	.globl	BlockMotionSearch       # -- Begin function BlockMotionSearch
	.p2align	4, 0x90
	.type	BlockMotionSearch,@function
BlockMotionSearch:                      # @BlockMotionSearch
	.cfi_startproc
# %bb.0:                                # %rand_bb
	pushq	%rbp
	.cfi_def_cfa_offset 16
	.cfi_offset %rbp, -16
	movq	%rsp, %rbp
	.cfi_def_cfa_register %rbp
	pushq	%r15
	pushq	%r14
	pushq	%r13
	pushq	%r12
	pushq	%rbx
	subq	$24, %rsp
	.cfi_offset %rbx, -56
	.cfi_offset %r12, -48
	.cfi_offset %r13, -40
	.cfi_offset %r14, -32
	.cfi_offset %r15, -24
	vmovsd	%xmm0, -56(%rbp)        # 8-byte Spill
	movl	%r9d, -44(%rbp)         # 4-byte Spill
	movl	%r8d, %r12d
	movl	%ecx, %r13d
	movl	%edx, %ebx
	movl	%esi, %r14d
	movl	%edi, %r15d
	callq	get_urand
	cmpl	$0, %eax
	jne	.LBB17_5
# %bb.1:                                # %func_BlockMotionSearch.66
	movswl	%r15w, %edi
	movl	%r14d, %esi
	movl	%ebx, %edx
	movl	%r13d, %ecx
	movl	%r12d, %r8d
	movl	-44(%rbp), %r9d         # 4-byte Reload
	vmovsd	-56(%rbp), %xmm0        # 8-byte Reload
                                        # xmm0 = mem[0],zero
	callq	BlockMotionSearch.66
	addq	$24, %rsp
	popq	%rbx
	popq	%r12
	popq	%r13
	popq	%r14
	popq	%r15
	popq	%rbp
	.cfi_def_cfa %rsp, 8
	retq
.LBB17_2:                               # %func_BlockMotionSearch.67
	.cfi_def_cfa %rbp, 16
	movswl	%r15w, %edi
	movl	%r14d, %esi
	movl	%ebx, %edx
	movl	%r13d, %ecx
	movl	%r12d, %r8d
	callq	BlockMotionSearch.67
	addq	$24, %rsp
	popq	%rbx
	popq	%r12
	popq	%r13
	popq	%r14
	popq	%r15
	popq	%rbp
	.cfi_def_cfa %rsp, 8
	retq
.LBB17_3:                               # %func_BlockMotionSearch.89
	.cfi_def_cfa %rbp, 16
	movswl	%r15w, %edi
	callq	BlockMotionSearch.89
	addq	$24, %rsp
	popq	%rbx
	popq	%r12
	popq	%r13
	popq	%r14
	popq	%r15
	popq	%rbp
	.cfi_def_cfa %rsp, 8
	retq
.LBB17_4:                               # %func_BlockMotionSearch.93
	.cfi_def_cfa %rbp, 16
	movswl	%r15w, %edi
	callq	BlockMotionSearch.93
	addq	$24, %rsp
	popq	%rbx
	popq	%r12
	popq	%r13
	popq	%r14
	popq	%r15
	popq	%rbp
	.cfi_def_cfa %rsp, 8
	retq
.LBB17_5:                               # %ctrl0
	.cfi_def_cfa %rbp, 16
	movl	-44(%rbp), %r9d         # 4-byte Reload
	vmovsd	-56(%rbp), %xmm0        # 8-byte Reload
                                        # xmm0 = mem[0],zero
	cmpl	$1, %eax
	je	.LBB17_2
# %bb.6:                                # %ctrl1
	cmpl	$2, %eax
	movl	%r12d, %r8d
	movl	%r13d, %ecx
	movl	%ebx, %edx
	movl	%r14d, %esi
	je	.LBB17_3
	jmp	.LBB17_4
.Lfunc_end17:
	.size	BlockMotionSearch, .Lfunc_end17-BlockMotionSearch
	.cfi_endproc
                                        # -- End function
	.globl	GetSkipCostMB           # -- Begin function GetSkipCostMB
	.p2align	4, 0x90
	.type	GetSkipCostMB,@function
GetSkipCostMB:                          # @GetSkipCostMB
	.cfi_startproc
# %bb.0:                                # %rand_bb
	pushq	%rbp
	.cfi_def_cfa_offset 16
	.cfi_offset %rbp, -16
	movq	%rsp, %rbp
	.cfi_def_cfa_register %rbp
	subq	$16, %rsp
	vmovsd	%xmm0, -8(%rbp)         # 8-byte Spill
	callq	get_urand
	cmpl	$0, %eax
	jne	.LBB18_5
# %bb.1:                                # %func_GetSkipCostMB.8
	vmovsd	-8(%rbp), %xmm0         # 8-byte Reload
                                        # xmm0 = mem[0],zero
	callq	GetSkipCostMB.8
	addq	$16, %rsp
	popq	%rbp
	.cfi_def_cfa %rsp, 8
	retq
.LBB18_2:                               # %func_GetSkipCostMB.11
	.cfi_def_cfa %rbp, 16
	callq	GetSkipCostMB.11
	addq	$16, %rsp
	popq	%rbp
	.cfi_def_cfa %rsp, 8
	retq
.LBB18_3:                               # %func_GetSkipCostMB.27
	.cfi_def_cfa %rbp, 16
	callq	GetSkipCostMB.27
	addq	$16, %rsp
	popq	%rbp
	.cfi_def_cfa %rsp, 8
	retq
.LBB18_4:                               # %func_GetSkipCostMB.48
	.cfi_def_cfa %rbp, 16
	callq	GetSkipCostMB.48
	addq	$16, %rsp
	popq	%rbp
	.cfi_def_cfa %rsp, 8
	retq
.LBB18_5:                               # %ctrl0
	.cfi_def_cfa %rbp, 16
	vmovsd	-8(%rbp), %xmm0         # 8-byte Reload
                                        # xmm0 = mem[0],zero
	cmpl	$1, %eax
	je	.LBB18_2
# %bb.6:                                # %ctrl1
	cmpl	$2, %eax
	je	.LBB18_3
	jmp	.LBB18_4
.Lfunc_end18:
	.size	GetSkipCostMB, .Lfunc_end18-GetSkipCostMB
	.cfi_endproc
                                        # -- End function
	.globl	BIDPartitionCost        # -- Begin function BIDPartitionCost
	.p2align	4, 0x90
	.type	BIDPartitionCost,@function
BIDPartitionCost:                       # @BIDPartitionCost
	.cfi_startproc
# %bb.0:                                # %rand_bb
	pushq	%rbp
	.cfi_def_cfa_offset 16
	.cfi_offset %rbp, -16
	movq	%rsp, %rbp
	.cfi_def_cfa_register %rbp
	pushq	%r15
	pushq	%r14
	pushq	%r13
	pushq	%r12
	pushq	%rbx
	pushq	%rax
	.cfi_offset %rbx, -56
	.cfi_offset %r12, -48
	.cfi_offset %r13, -40
	.cfi_offset %r14, -32
	.cfi_offset %r15, -24
	movl	%r8d, %r14d
	movl	%ecx, %r15d
	movl	%edx, %r12d
	movl	%esi, %r13d
	movl	%edi, %ebx
	callq	get_urand
	cmpl	$0, %eax
	jne	.LBB19_5
# %bb.1:                                # %func_BIDPartitionCost.6
	movl	%ebx, %edi
	movl	%r13d, %esi
	movswl	%r12w, %edx
	movswl	%r15w, %ecx
	movl	%r14d, %r8d
	callq	BIDPartitionCost.6
	addq	$8, %rsp
	popq	%rbx
	popq	%r12
	popq	%r13
	popq	%r14
	popq	%r15
	popq	%rbp
	.cfi_def_cfa %rsp, 8
	retq
.LBB19_2:                               # %func_BIDPartitionCost.37
	.cfi_def_cfa %rbp, 16
	movl	%ebx, %edi
	movl	%r13d, %esi
	movswl	%r12w, %edx
	movswl	%r15w, %ecx
	movl	%r14d, %r8d
	callq	BIDPartitionCost.37
	addq	$8, %rsp
	popq	%rbx
	popq	%r12
	popq	%r13
	popq	%r14
	popq	%r15
	popq	%rbp
	.cfi_def_cfa %rsp, 8
	retq
.LBB19_3:                               # %func_BIDPartitionCost.59
	.cfi_def_cfa %rbp, 16
	movl	%ebx, %edi
	movl	%r13d, %esi
	movswl	%r12w, %edx
	movswl	%r15w, %ecx
	movl	%r14d, %r8d
	callq	BIDPartitionCost.59
	addq	$8, %rsp
	popq	%rbx
	popq	%r12
	popq	%r13
	popq	%r14
	popq	%r15
	popq	%rbp
	.cfi_def_cfa %rsp, 8
	retq
.LBB19_4:                               # %func_BIDPartitionCost.90
	.cfi_def_cfa %rbp, 16
	movl	%ebx, %edi
	movl	%r13d, %esi
	movswl	%r12w, %edx
	movswl	%r15w, %ecx
	movl	%r14d, %r8d
	callq	BIDPartitionCost.90
	addq	$8, %rsp
	popq	%rbx
	popq	%r12
	popq	%r13
	popq	%r14
	popq	%r15
	popq	%rbp
	.cfi_def_cfa %rsp, 8
	retq
.LBB19_5:                               # %ctrl0
	.cfi_def_cfa %rbp, 16
	cmpl	$1, %eax
	je	.LBB19_2
# %bb.6:                                # %ctrl1
	cmpl	$2, %eax
	je	.LBB19_3
	jmp	.LBB19_4
.Lfunc_end19:
	.size	BIDPartitionCost, .Lfunc_end19-BIDPartitionCost
	.cfi_endproc
                                        # -- End function
	.globl	FindSkipModeMotionVector # -- Begin function FindSkipModeMotionVector
	.p2align	4, 0x90
	.type	FindSkipModeMotionVector,@function
FindSkipModeMotionVector:               # @FindSkipModeMotionVector
	.cfi_startproc
# %bb.0:                                # %rand_bb
	pushq	%rbp
	.cfi_def_cfa_offset 16
	.cfi_offset %rbp, -16
	movq	%rsp, %rbp
	.cfi_def_cfa_register %rbp
	callq	get_urand
	cmpl	$0, %eax
	jne	.LBB20_5
# %bb.1:                                # %func_FindSkipModeMotionVector.4
	callq	FindSkipModeMotionVector.4
	popq	%rbp
	.cfi_def_cfa %rsp, 8
	retq
.LBB20_2:                               # %func_FindSkipModeMotionVector.13
	.cfi_def_cfa %rbp, 16
	callq	FindSkipModeMotionVector.13
	popq	%rbp
	.cfi_def_cfa %rsp, 8
	retq
.LBB20_3:                               # %func_FindSkipModeMotionVector.15
	.cfi_def_cfa %rbp, 16
	callq	FindSkipModeMotionVector.15
	popq	%rbp
	.cfi_def_cfa %rsp, 8
	retq
.LBB20_4:                               # %func_FindSkipModeMotionVector.29
	.cfi_def_cfa %rbp, 16
	callq	FindSkipModeMotionVector.29
	popq	%rbp
	.cfi_def_cfa %rsp, 8
	retq
.LBB20_5:                               # %ctrl0
	.cfi_def_cfa %rbp, 16
	cmpl	$1, %eax
	je	.LBB20_2
# %bb.6:                                # %ctrl1
	cmpl	$2, %eax
	je	.LBB20_3
	jmp	.LBB20_4
.Lfunc_end20:
	.size	FindSkipModeMotionVector, .Lfunc_end20-FindSkipModeMotionVector
	.cfi_endproc
                                        # -- End function
	.globl	Get_Direct_Cost8x8      # -- Begin function Get_Direct_Cost8x8
	.p2align	4, 0x90
	.type	Get_Direct_Cost8x8,@function
Get_Direct_Cost8x8:                     # @Get_Direct_Cost8x8
	.cfi_startproc
# %bb.0:                                # %rand_bb
	pushq	%rbp
	.cfi_def_cfa_offset 16
	.cfi_offset %rbp, -16
	movq	%rsp, %rbp
	.cfi_def_cfa_register %rbp
	pushq	%r14
	pushq	%rbx
	.cfi_offset %rbx, -32
	.cfi_offset %r14, -24
	movq	%rsi, %r14
	movl	%edi, %ebx
	callq	get_urand
	cmpl	$0, %eax
	jne	.LBB21_5
# %bb.1:                                # %func_Get_Direct_Cost8x8.62
	movl	%ebx, %edi
	movq	%r14, %rsi
	callq	Get_Direct_Cost8x8.62
	popq	%rbx
	popq	%r14
	popq	%rbp
	.cfi_def_cfa %rsp, 8
	retq
.LBB21_2:                               # %func_Get_Direct_Cost8x8.84
	.cfi_def_cfa %rbp, 16
	movl	%ebx, %edi
	movq	%r14, %rsi
	callq	Get_Direct_Cost8x8.84
	popq	%rbx
	popq	%r14
	popq	%rbp
	.cfi_def_cfa %rsp, 8
	retq
.LBB21_3:                               # %func_Get_Direct_Cost8x8.97
	.cfi_def_cfa %rbp, 16
	movl	%ebx, %edi
	movq	%r14, %rsi
	callq	Get_Direct_Cost8x8.97
	popq	%rbx
	popq	%r14
	popq	%rbp
	.cfi_def_cfa %rsp, 8
	retq
.LBB21_4:                               # %func_Get_Direct_Cost8x8.98
	.cfi_def_cfa %rbp, 16
	movl	%ebx, %edi
	movq	%r14, %rsi
	callq	Get_Direct_Cost8x8.98
	popq	%rbx
	popq	%r14
	popq	%rbp
	.cfi_def_cfa %rsp, 8
	retq
.LBB21_5:                               # %ctrl0
	.cfi_def_cfa %rbp, 16
	cmpl	$1, %eax
	je	.LBB21_2
# %bb.6:                                # %ctrl1
	cmpl	$2, %eax
	je	.LBB21_3
	jmp	.LBB21_4
.Lfunc_end21:
	.size	Get_Direct_Cost8x8, .Lfunc_end21-Get_Direct_Cost8x8
	.cfi_endproc
                                        # -- End function
	.globl	Get_Direct_CostMB       # -- Begin function Get_Direct_CostMB
	.p2align	4, 0x90
	.type	Get_Direct_CostMB,@function
Get_Direct_CostMB:                      # @Get_Direct_CostMB
	.cfi_startproc
# %bb.0:                                # %rand_bb
	pushq	%rbp
	.cfi_def_cfa_offset 16
	.cfi_offset %rbp, -16
	movq	%rsp, %rbp
	.cfi_def_cfa_register %rbp
	subq	$16, %rsp
	vmovsd	%xmm0, -8(%rbp)         # 8-byte Spill
	callq	get_urand
	cmpl	$0, %eax
	jne	.LBB22_5
# %bb.1:                                # %func_Get_Direct_CostMB.50
	vmovsd	-8(%rbp), %xmm0         # 8-byte Reload
                                        # xmm0 = mem[0],zero
	callq	Get_Direct_CostMB.50
	addq	$16, %rsp
	popq	%rbp
	.cfi_def_cfa %rsp, 8
	retq
.LBB22_2:                               # %func_Get_Direct_CostMB.55
	.cfi_def_cfa %rbp, 16
	callq	Get_Direct_CostMB.55
	addq	$16, %rsp
	popq	%rbp
	.cfi_def_cfa %rsp, 8
	retq
.LBB22_3:                               # %func_Get_Direct_CostMB.73
	.cfi_def_cfa %rbp, 16
	callq	Get_Direct_CostMB.73
	addq	$16, %rsp
	popq	%rbp
	.cfi_def_cfa %rsp, 8
	retq
.LBB22_4:                               # %func_Get_Direct_CostMB.94
	.cfi_def_cfa %rbp, 16
	callq	Get_Direct_CostMB.94
	addq	$16, %rsp
	popq	%rbp
	.cfi_def_cfa %rsp, 8
	retq
.LBB22_5:                               # %ctrl0
	.cfi_def_cfa %rbp, 16
	vmovsd	-8(%rbp), %xmm0         # 8-byte Reload
                                        # xmm0 = mem[0],zero
	cmpl	$1, %eax
	je	.LBB22_2
# %bb.6:                                # %ctrl1
	cmpl	$2, %eax
	je	.LBB22_3
	jmp	.LBB22_4
.Lfunc_end22:
	.size	Get_Direct_CostMB, .Lfunc_end22-Get_Direct_CostMB
	.cfi_endproc
                                        # -- End function
	.globl	PartitionMotionSearch   # -- Begin function PartitionMotionSearch
	.p2align	4, 0x90
	.type	PartitionMotionSearch,@function
PartitionMotionSearch:                  # @PartitionMotionSearch
	.cfi_startproc
# %bb.0:                                # %rand_bb
	pushq	%rbp
	.cfi_def_cfa_offset 16
	.cfi_offset %rbp, -16
	movq	%rsp, %rbp
	.cfi_def_cfa_register %rbp
	pushq	%r14
	pushq	%rbx
	subq	$16, %rsp
	.cfi_offset %rbx, -32
	.cfi_offset %r14, -24
	vmovsd	%xmm0, -24(%rbp)        # 8-byte Spill
	movl	%esi, %r14d
	movl	%edi, %ebx
	callq	get_urand
	cmpl	$0, %eax
	jne	.LBB23_5
# %bb.1:                                # %func_PartitionMotionSearch.9
	movl	%ebx, %edi
	movl	%r14d, %esi
	vmovsd	-24(%rbp), %xmm0        # 8-byte Reload
                                        # xmm0 = mem[0],zero
	callq	PartitionMotionSearch.9
	addq	$16, %rsp
	popq	%rbx
	popq	%r14
	popq	%rbp
	.cfi_def_cfa %rsp, 8
	retq
.LBB23_2:                               # %func_PartitionMotionSearch.12
	.cfi_def_cfa %rbp, 16
	movl	%ebx, %edi
	movl	%r14d, %esi
	callq	PartitionMotionSearch.12
	addq	$16, %rsp
	popq	%rbx
	popq	%r14
	popq	%rbp
	.cfi_def_cfa %rsp, 8
	retq
.LBB23_3:                               # %func_PartitionMotionSearch.20
	.cfi_def_cfa %rbp, 16
	movl	%ebx, %edi
	movl	%r14d, %esi
	callq	PartitionMotionSearch.20
	addq	$16, %rsp
	popq	%rbx
	popq	%r14
	popq	%rbp
	.cfi_def_cfa %rsp, 8
	retq
.LBB23_4:                               # %func_PartitionMotionSearch.33
	.cfi_def_cfa %rbp, 16
	movl	%ebx, %edi
	movl	%r14d, %esi
	callq	PartitionMotionSearch.33
	addq	$16, %rsp
	popq	%rbx
	popq	%r14
	popq	%rbp
	.cfi_def_cfa %rsp, 8
	retq
.LBB23_5:                               # %ctrl0
	.cfi_def_cfa %rbp, 16
	vmovsd	-24(%rbp), %xmm0        # 8-byte Reload
                                        # xmm0 = mem[0],zero
	cmpl	$1, %eax
	je	.LBB23_2
# %bb.6:                                # %ctrl1
	cmpl	$2, %eax
	je	.LBB23_3
	jmp	.LBB23_4
.Lfunc_end23:
	.size	PartitionMotionSearch, .Lfunc_end23-PartitionMotionSearch
	.cfi_endproc
                                        # -- End function
	.globl	Get_Direct_Motion_Vectors # -- Begin function Get_Direct_Motion_Vectors
	.p2align	4, 0x90
	.type	Get_Direct_Motion_Vectors,@function
Get_Direct_Motion_Vectors:              # @Get_Direct_Motion_Vectors
	.cfi_startproc
# %bb.0:                                # %rand_bb
	pushq	%rbp
	.cfi_def_cfa_offset 16
	.cfi_offset %rbp, -16
	movq	%rsp, %rbp
	.cfi_def_cfa_register %rbp
	callq	get_urand
	cmpl	$0, %eax
	jne	.LBB24_5
# %bb.1:                                # %func_Get_Direct_Motion_Vectors.17
	callq	Get_Direct_Motion_Vectors.17
	popq	%rbp
	.cfi_def_cfa %rsp, 8
	retq
.LBB24_2:                               # %func_Get_Direct_Motion_Vectors.25
	.cfi_def_cfa %rbp, 16
	callq	Get_Direct_Motion_Vectors.25
	popq	%rbp
	.cfi_def_cfa %rsp, 8
	retq
.LBB24_3:                               # %func_Get_Direct_Motion_Vectors.26
	.cfi_def_cfa %rbp, 16
	callq	Get_Direct_Motion_Vectors.26
	popq	%rbp
	.cfi_def_cfa %rsp, 8
	retq
.LBB24_4:                               # %func_Get_Direct_Motion_Vectors.68
	.cfi_def_cfa %rbp, 16
	callq	Get_Direct_Motion_Vectors.68
	popq	%rbp
	.cfi_def_cfa %rsp, 8
	retq
.LBB24_5:                               # %ctrl0
	.cfi_def_cfa %rbp, 16
	cmpl	$1, %eax
	je	.LBB24_2
# %bb.6:                                # %ctrl1
	cmpl	$2, %eax
	je	.LBB24_3
	jmp	.LBB24_4
.Lfunc_end24:
	.size	Get_Direct_Motion_Vectors, .Lfunc_end24-Get_Direct_Motion_Vectors
	.cfi_endproc
                                        # -- End function
	.globl	sign                    # -- Begin function sign
	.p2align	4, 0x90
	.type	sign,@function
sign:                                   # @sign
	.cfi_startproc
# %bb.0:                                # %rand_bb
	pushq	%rbp
	.cfi_def_cfa_offset 16
	.cfi_offset %rbp, -16
	movq	%rsp, %rbp
	.cfi_def_cfa_register %rbp
	pushq	%r14
	pushq	%rbx
	.cfi_offset %rbx, -32
	.cfi_offset %r14, -24
	movl	%esi, %r14d
	movl	%edi, %ebx
	callq	get_urand
	cmpl	$0, %eax
	jne	.LBB25_5
# %bb.1:                                # %func_sign.18
	movl	%ebx, %edi
	movl	%r14d, %esi
	callq	sign.18
	popq	%rbx
	popq	%r14
	popq	%rbp
	.cfi_def_cfa %rsp, 8
	retq
.LBB25_2:                               # %func_sign.43
	.cfi_def_cfa %rbp, 16
	movl	%ebx, %edi
	movl	%r14d, %esi
	callq	sign.43
	popq	%rbx
	popq	%r14
	popq	%rbp
	.cfi_def_cfa %rsp, 8
	retq
.LBB25_3:                               # %func_sign.51
	.cfi_def_cfa %rbp, 16
	movl	%ebx, %edi
	movl	%r14d, %esi
	callq	sign.51
	popq	%rbx
	popq	%r14
	popq	%rbp
	.cfi_def_cfa %rsp, 8
	retq
.LBB25_4:                               # %func_sign.57
	.cfi_def_cfa %rbp, 16
	movl	%ebx, %edi
	movl	%r14d, %esi
	callq	sign.57
	popq	%rbx
	popq	%r14
	popq	%rbp
	.cfi_def_cfa %rsp, 8
	retq
.LBB25_5:                               # %ctrl0
	.cfi_def_cfa %rbp, 16
	cmpl	$1, %eax
	je	.LBB25_2
# %bb.6:                                # %ctrl1
	cmpl	$2, %eax
	je	.LBB25_3
	jmp	.LBB25_4
.Lfunc_end25:
	.size	sign, .Lfunc_end25-sign
	.cfi_endproc
                                        # -- End function
	.section	.rodata.cst8,"aM",@progbits,8
	.p2align	3               # -- Begin function Init_Motion_Search_Module.1
.LCPI26_0:
	.quad	4457293557087583675     # double 1.0E-10
.LCPI26_1:
	.quad	4611686018427387904     # double 2
	.text
	.globl	Init_Motion_Search_Module.1
	.p2align	4, 0x90
	.type	Init_Motion_Search_Module.1,@function
Init_Motion_Search_Module.1:            # @Init_Motion_Search_Module.1
	.cfi_startproc
# %bb.0:                                # %entry
	pushq	%rbp
	.cfi_def_cfa_offset 16
	.cfi_offset %rbp, -16
	movq	%rsp, %rbp
	.cfi_def_cfa_register %rbp
	subq	$80, %rsp
	movl	$121363437, -60(%rbp)   # imm = 0x73BDBED
	movq	img, %rax
	movl	72684(%rax), %eax
	movq	img, %rcx
	cmpl	72688(%rcx), %eax
	jle	.LBB26_2
# %bb.1:                                # %cond.true
	movq	img, %rax
	movl	72684(%rax), %eax
	addl	$1, %eax
	shll	$1, %eax
	jmp	.LBB26_3
.LBB26_2:                               # %cond.false
	movq	img, %rax
	movl	72688(%rax), %eax
	addl	$1, %eax
	shll	$1, %eax
.LBB26_3:                               # %cond.end
	movl	%eax, -32(%rbp)
	movq	input, %rax
	movl	32(%rax), %eax
	movl	%eax, -20(%rbp)
	movq	img, %rax
	movl	36(%rax), %eax
	movl	%eax, -40(%rbp)
	movl	-20(%rbp), %eax
	shll	$1, %eax
	addl	$1, %eax
	movl	-20(%rbp), %ecx
	shll	$1, %ecx
	addl	$1, %ecx
	imull	%ecx, %eax
	movl	$9, %ecx
	cmpl	%eax, %ecx
	jle	.LBB26_5
# %bb.4:                                # %cond.true12
	movl	$9, %eax
	jmp	.LBB26_6
.LBB26_5:                               # %cond.false13
	movl	-20(%rbp), %eax
	shll	$1, %eax
	addl	$1, %eax
	movl	-20(%rbp), %ecx
	shll	$1, %ecx
	addl	$1, %ecx
	imull	%ecx, %eax
.LBB26_6:                               # %cond.end19
	movl	%eax, -48(%rbp)
	movl	-40(%rbp), %eax
	addl	$1, %eax
	movl	$16, %ecx
	cmpl	%eax, %ecx
	jle	.LBB26_8
# %bb.7:                                # %cond.true23
	movl	$16, %eax
	jmp	.LBB26_9
.LBB26_8:                               # %cond.false24
	movl	-40(%rbp), %eax
	addl	$1, %eax
.LBB26_9:                               # %cond.end26
	vcvtsi2sd	%eax, %xmm0, %xmm0
	callq	log
	vmovsd	%xmm0, -72(%rbp)        # 8-byte Spill
	vmovsd	.LCPI26_1(%rip), %xmm0  # xmm0 = mem[0],zero
	callq	log
	vmovsd	.LCPI26_0(%rip), %xmm1  # xmm1 = mem[0],zero
	vmovsd	-72(%rbp), %xmm2        # 8-byte Reload
                                        # xmm2 = mem[0],zero
	vdivsd	%xmm0, %xmm2, %xmm0
	vaddsd	%xmm1, %xmm0, %xmm0
	vroundsd	$9, %xmm0, %xmm0, %xmm0
	vcvttsd2si	%xmm0, %eax
	shll	$1, %eax
	addl	$1, %eax
	movl	%eax, -36(%rbp)
	movl	-36(%rbp), %ecx
	sarl	$1, %ecx
	addl	$1, %ecx
                                        # kill: def $cl killed $ecx
	movl	$1, %eax
	shll	%cl, %eax
	subl	$1, %eax
	movl	%eax, -52(%rbp)
	movl	-20(%rbp), %eax
	shll	$1, %eax
	addl	$3, %eax
	shll	$2, %eax
	movl	%eax, -56(%rbp)
	movl	-56(%rbp), %eax
	addl	$1, %eax
	vcvtsi2sd	%eax, %xmm0, %xmm0
	callq	log
	vmovsd	%xmm0, -80(%rbp)        # 8-byte Spill
	vmovsd	.LCPI26_1(%rip), %xmm0  # xmm0 = mem[0],zero
	callq	log
	vmovsd	.LCPI26_0(%rip), %xmm1  # xmm1 = mem[0],zero
	vmovsd	-80(%rbp), %xmm2        # 8-byte Reload
                                        # xmm2 = mem[0],zero
	vdivsd	%xmm0, %xmm2, %xmm0
	vaddsd	%xmm1, %xmm0, %xmm0
	vroundsd	$10, %xmm0, %xmm0, %xmm0
	vcvttsd2si	%xmm0, %eax
	shll	$1, %eax
	addl	$3, %eax
	movl	%eax, -44(%rbp)
	movl	-44(%rbp), %ecx
	sarl	$1, %ecx
                                        # kill: def $cl killed $ecx
	movl	$1, %eax
	shll	%cl, %eax
	subl	$1, %eax
	movl	%eax, max_mvd
	movslq	-48(%rbp), %rdi
	movl	$4, %esi
	callq	calloc
	movq	%rax, spiral_search_x
	cmpq	$0, %rax
	jne	.LBB26_11
# %bb.10:                               # %if.then
	movabsq	$.L.str.6, %rdi
	callq	no_mem_exit
.LBB26_11:                              # %if.end
	movslq	-48(%rbp), %rdi
	movl	$4, %esi
	callq	calloc
	movq	%rax, spiral_search_y
	cmpq	$0, %rax
	jne	.LBB26_13
# %bb.12:                               # %if.then57
	movabsq	$.L.str.7, %rdi
	callq	no_mem_exit
.LBB26_13:                              # %if.end58
	movl	max_mvd, %eax
	shll	$1, %eax
	addl	$1, %eax
	movslq	%eax, %rdi
	movl	$4, %esi
	callq	calloc
	movq	%rax, mvbits
	cmpq	$0, %rax
	jne	.LBB26_15
# %bb.14:                               # %if.then65
	movabsq	$.L.str.8, %rdi
	callq	no_mem_exit
.LBB26_15:                              # %if.end66
	movslq	-52(%rbp), %rdi
	movl	$4, %esi
	callq	calloc
	movq	%rax, refbits
	cmpq	$0, %rax
	jne	.LBB26_17
# %bb.16:                               # %if.then71
	movabsq	$.L.str.9, %rdi
	callq	no_mem_exit
.LBB26_17:                              # %if.end72
	movslq	-32(%rbp), %rdi
	movl	$4, %esi
	callq	calloc
	movq	%rax, byte_abs
	cmpq	$0, %rax
	jne	.LBB26_19
# %bb.18:                               # %if.then77
	movabsq	$.L.str.10, %rdi
	callq	no_mem_exit
.LBB26_19:                              # %if.end78
	movq	img, %rax
	movl	36(%rax), %ecx
	addl	$1, %ecx
	movabsq	$motion_cost, %rdi
	movl	$8, %esi
	movl	$2, %edx
	movl	$4, %r8d
	callq	get_mem4Dint
	movl	max_mvd, %eax
	movq	mvbits, %rcx
	cltq
	shlq	$2, %rax
	addq	%rax, %rcx
	movq	%rcx, mvbits
	movl	-32(%rbp), %eax
	cltd
	movl	$2, %ecx
	idivl	%ecx
	movq	byte_abs, %rcx
	cltq
	shlq	$2, %rax
	addq	%rax, %rcx
	movq	%rcx, byte_abs
	movq	mvbits, %rax
	movl	$1, (%rax)
	movl	$3, -16(%rbp)
.LBB26_20:                              # %for.cond
                                        # =>This Loop Header: Depth=1
                                        #     Child Loop BB26_22 Depth 2
	movl	-16(%rbp), %eax
	cmpl	-44(%rbp), %eax
	jg	.LBB26_27
# %bb.21:                               # %for.body
                                        #   in Loop: Header=BB26_20 Depth=1
	movl	-16(%rbp), %ecx
	sarl	$1, %ecx
                                        # kill: def $cl killed $ecx
	movl	$1, %eax
	shll	%cl, %eax
	movl	%eax, -24(%rbp)
	movl	-24(%rbp), %eax
	sarl	$1, %eax
	movl	%eax, -28(%rbp)
	movl	-28(%rbp), %eax
	movl	%eax, -4(%rbp)
.LBB26_22:                              # %for.cond90
                                        #   Parent Loop BB26_20 Depth=1
                                        # =>  This Inner Loop Header: Depth=2
	movl	-4(%rbp), %eax
	cmpl	-24(%rbp), %eax
	jge	.LBB26_25
# %bb.23:                               # %for.body93
                                        #   in Loop: Header=BB26_22 Depth=2
	xorl	%eax, %eax
	movl	-16(%rbp), %ecx
	movq	mvbits, %rdx
	movslq	-4(%rbp), %rsi
	movl	%ecx, (%rdx,%rsi,4)
	movq	mvbits, %rdx
	subl	-4(%rbp), %eax
	cltq
	movl	%ecx, (%rdx,%rax,4)
# %bb.24:                               # %for.inc
                                        #   in Loop: Header=BB26_22 Depth=2
	movl	-4(%rbp), %eax
	addl	$1, %eax
	movl	%eax, -4(%rbp)
	jmp	.LBB26_22
.LBB26_25:                              # %for.end
                                        #   in Loop: Header=BB26_20 Depth=1
	jmp	.LBB26_26
.LBB26_26:                              # %for.inc98
                                        #   in Loop: Header=BB26_20 Depth=1
	movl	-16(%rbp), %eax
	addl	$2, %eax
	movl	%eax, -16(%rbp)
	jmp	.LBB26_20
.LBB26_27:                              # %for.end100
	movq	refbits, %rax
	movl	$1, (%rax)
	movl	$3, -16(%rbp)
.LBB26_28:                              # %for.cond102
                                        # =>This Loop Header: Depth=1
                                        #     Child Loop BB26_30 Depth 2
	movl	-16(%rbp), %eax
	cmpl	-36(%rbp), %eax
	jg	.LBB26_35
# %bb.29:                               # %for.body105
                                        #   in Loop: Header=BB26_28 Depth=1
	movl	-16(%rbp), %ecx
	sarl	$1, %ecx
	addl	$1, %ecx
                                        # kill: def $cl killed $ecx
	movl	$1, %eax
	shll	%cl, %eax
	subl	$1, %eax
	movl	%eax, -24(%rbp)
	movl	-24(%rbp), %eax
	sarl	$1, %eax
	movl	%eax, -28(%rbp)
	movl	-28(%rbp), %eax
	movl	%eax, -4(%rbp)
.LBB26_30:                              # %for.cond111
                                        #   Parent Loop BB26_28 Depth=1
                                        # =>  This Inner Loop Header: Depth=2
	movl	-4(%rbp), %eax
	cmpl	-24(%rbp), %eax
	jge	.LBB26_33
# %bb.31:                               # %for.body114
                                        #   in Loop: Header=BB26_30 Depth=2
	movl	-16(%rbp), %eax
	movq	refbits, %rcx
	movslq	-4(%rbp), %rdx
	movl	%eax, (%rcx,%rdx,4)
# %bb.32:                               # %for.inc117
                                        #   in Loop: Header=BB26_30 Depth=2
	movl	-4(%rbp), %eax
	addl	$1, %eax
	movl	%eax, -4(%rbp)
	jmp	.LBB26_30
.LBB26_33:                              # %for.end119
                                        #   in Loop: Header=BB26_28 Depth=1
	jmp	.LBB26_34
.LBB26_34:                              # %for.inc120
                                        #   in Loop: Header=BB26_28 Depth=1
	movl	-16(%rbp), %eax
	addl	$2, %eax
	movl	%eax, -16(%rbp)
	jmp	.LBB26_28
.LBB26_35:                              # %for.end122
	movq	byte_abs, %rax
	movl	$0, (%rax)
	movl	$1, -4(%rbp)
.LBB26_36:                              # %for.cond124
                                        # =>This Inner Loop Header: Depth=1
	movl	-4(%rbp), %ecx
	movl	-32(%rbp), %eax
	cltd
	movl	$2, %esi
	idivl	%esi
	cmpl	%eax, %ecx
	jge	.LBB26_39
# %bb.37:                               # %for.body128
                                        #   in Loop: Header=BB26_36 Depth=1
	xorl	%eax, %eax
	movl	-4(%rbp), %ecx
	movq	byte_abs, %rdx
	subl	-4(%rbp), %eax
	cltq
	movl	%ecx, (%rdx,%rax,4)
	movq	byte_abs, %rax
	movslq	-4(%rbp), %rdx
	movl	%ecx, (%rax,%rdx,4)
# %bb.38:                               # %for.inc134
                                        #   in Loop: Header=BB26_36 Depth=1
	movl	-4(%rbp), %eax
	addl	$1, %eax
	movl	%eax, -4(%rbp)
	jmp	.LBB26_36
.LBB26_39:                              # %for.end136
	movq	spiral_search_y, %rax
	movl	$0, (%rax)
	movq	spiral_search_x, %rax
	movl	$0, (%rax)
	movl	$1, -8(%rbp)
	movl	$1, -12(%rbp)
.LBB26_40:                              # %for.cond139
                                        # =>This Loop Header: Depth=1
                                        #     Child Loop BB26_45 Depth 2
                                        #     Child Loop BB26_49 Depth 2
	movl	-12(%rbp), %eax
	movl	$1, %ecx
	cmpl	-20(%rbp), %ecx
	jle	.LBB26_42
# %bb.41:                               # %cond.true142
                                        #   in Loop: Header=BB26_40 Depth=1
	movl	$1, %ecx
	jmp	.LBB26_43
.LBB26_42:                              # %cond.false143
                                        #   in Loop: Header=BB26_40 Depth=1
	movl	-20(%rbp), %ecx
.LBB26_43:                              # %cond.end144
                                        #   in Loop: Header=BB26_40 Depth=1
	cmpl	%ecx, %eax
	jg	.LBB26_54
# %bb.44:                               # %for.body148
                                        #   in Loop: Header=BB26_40 Depth=1
	xorl	%eax, %eax
	subl	-12(%rbp), %eax
	addl	$1, %eax
	movl	%eax, -4(%rbp)
.LBB26_45:                              # %for.cond151
                                        #   Parent Loop BB26_40 Depth=1
                                        # =>  This Inner Loop Header: Depth=2
	movl	-4(%rbp), %eax
	cmpl	-12(%rbp), %eax
	jge	.LBB26_48
# %bb.46:                               # %for.body154
                                        #   in Loop: Header=BB26_45 Depth=2
	xorl	%eax, %eax
	movl	-4(%rbp), %ecx
	movq	spiral_search_x, %rdx
	movslq	-8(%rbp), %rsi
	movl	%ecx, (%rdx,%rsi,4)
	subl	-12(%rbp), %eax
	movq	spiral_search_y, %rcx
	movl	-8(%rbp), %edx
	movl	%edx, %esi
	addl	$1, %esi
	movl	%esi, -8(%rbp)
	movslq	%edx, %rdx
	movl	%eax, (%rcx,%rdx,4)
	movl	-4(%rbp), %eax
	movq	spiral_search_x, %rcx
	movslq	-8(%rbp), %rdx
	movl	%eax, (%rcx,%rdx,4)
	movl	-12(%rbp), %eax
	movq	spiral_search_y, %rcx
	movl	-8(%rbp), %edx
	movl	%edx, %esi
	addl	$1, %esi
	movl	%esi, -8(%rbp)
	movslq	%edx, %rdx
	movl	%eax, (%rcx,%rdx,4)
# %bb.47:                               # %for.inc166
                                        #   in Loop: Header=BB26_45 Depth=2
	movl	-4(%rbp), %eax
	addl	$1, %eax
	movl	%eax, -4(%rbp)
	jmp	.LBB26_45
.LBB26_48:                              # %for.end168
                                        #   in Loop: Header=BB26_40 Depth=1
	xorl	%eax, %eax
	subl	-12(%rbp), %eax
	movl	%eax, -4(%rbp)
.LBB26_49:                              # %for.cond170
                                        #   Parent Loop BB26_40 Depth=1
                                        # =>  This Inner Loop Header: Depth=2
	movl	-4(%rbp), %eax
	cmpl	-12(%rbp), %eax
	jg	.LBB26_52
# %bb.50:                               # %for.body173
                                        #   in Loop: Header=BB26_49 Depth=2
	xorl	%eax, %eax
	subl	-12(%rbp), %eax
	movq	spiral_search_x, %rcx
	movslq	-8(%rbp), %rdx
	movl	%eax, (%rcx,%rdx,4)
	movl	-4(%rbp), %eax
	movq	spiral_search_y, %rcx
	movl	-8(%rbp), %edx
	movl	%edx, %esi
	addl	$1, %esi
	movl	%esi, -8(%rbp)
	movslq	%edx, %rdx
	movl	%eax, (%rcx,%rdx,4)
	movl	-12(%rbp), %eax
	movq	spiral_search_x, %rcx
	movslq	-8(%rbp), %rdx
	movl	%eax, (%rcx,%rdx,4)
	movl	-4(%rbp), %eax
	movq	spiral_search_y, %rcx
	movl	-8(%rbp), %edx
	movl	%edx, %esi
	addl	$1, %esi
	movl	%esi, -8(%rbp)
	movslq	%edx, %rdx
	movl	%eax, (%rcx,%rdx,4)
# %bb.51:                               # %for.inc185
                                        #   in Loop: Header=BB26_49 Depth=2
	movl	-4(%rbp), %eax
	addl	$1, %eax
	movl	%eax, -4(%rbp)
	jmp	.LBB26_49
.LBB26_52:                              # %for.end187
                                        #   in Loop: Header=BB26_40 Depth=1
	jmp	.LBB26_53
.LBB26_53:                              # %for.inc188
                                        #   in Loop: Header=BB26_40 Depth=1
	movl	-12(%rbp), %eax
	addl	$1, %eax
	movl	%eax, -12(%rbp)
	jmp	.LBB26_40
.LBB26_54:                              # %for.end190
	movq	input, %rax
	cmpl	$0, 3292(%rax)
	jne	.LBB26_56
# %bb.55:                               # %if.then191
	callq	InitializeFastFullIntegerSearch
.LBB26_56:                              # %if.end192
	cmpl	$121363437, -60(%rbp)   # imm = 0x73BDBED
	jne	.LBB26_58
.LBB26_57:
	addq	$80, %rsp
	popq	%rbp
	.cfi_def_cfa %rsp, 8
	retq
.LBB26_58:                              # %func_exit
	.cfi_def_cfa %rbp, 16
	callq	detect_breach
	jmp	.LBB26_57
.Lfunc_end26:
	.size	Init_Motion_Search_Module.1, .Lfunc_end26-Init_Motion_Search_Module.1
	.cfi_endproc
                                        # -- End function
	.section	.rodata.cst8,"aM",@progbits,8
	.p2align	3               # -- Begin function FullPelBlockMotionBiPred.2
.LCPI27_0:
	.quad	4602678819172646912     # double 0.5
.LCPI27_1:
	.quad	4679240012837945344     # double 65536
	.text
	.globl	FullPelBlockMotionBiPred.2
	.p2align	4, 0x90
	.type	FullPelBlockMotionBiPred.2,@function
FullPelBlockMotionBiPred.2:             # @FullPelBlockMotionBiPred.2
	.cfi_startproc
# %bb.0:                                # %entry
	pushq	%rbp
	.cfi_def_cfa_offset 16
	.cfi_offset %rbp, -16
	movq	%rsp, %rbp
	.cfi_def_cfa_register %rbp
	pushq	%rbx
	subq	$216, %rsp
	.cfi_offset %rbx, -24
	movl	96(%rbp), %eax
	movl	88(%rbp), %eax
	movq	80(%rbp), %rax
	movq	72(%rbp), %rax
	movq	64(%rbp), %rax
	movq	56(%rbp), %rax
	movw	48(%rbp), %ax
	movw	40(%rbp), %ax
	movw	32(%rbp), %ax
	movw	24(%rbp), %ax
	movl	16(%rbp), %eax
	movl	$1612537657, -184(%rbp) # imm = 0x601D5F39
	movq	%rdi, -200(%rbp)
	movw	%si, -22(%rbp)
	movl	%edx, -84(%rbp)
	movl	%ecx, -104(%rbp)
	movl	%r8d, -124(%rbp)
	movl	%r9d, -140(%rbp)
	vmovsd	%xmm0, -224(%rbp)
	movq	img, %rax
	cmpl	$0, 72400(%rax)
	je	.LBB27_3
# %bb.1:                                # %land.lhs.true
	movq	img, %rax
	movq	14168(%rax), %rax
	movq	img, %rcx
	movslq	12(%rcx), %rcx
	imulq	$632, %rcx, %rcx        # imm = 0x278
	addq	%rcx, %rax
	cmpl	$0, 532(%rax)
	je	.LBB27_3
# %bb.2:                                # %cond.true
	movq	img, %rax
	movl	12(%rax), %eax
	cltd
	movl	$2, %ecx
	idivl	%ecx
	cmpl	$0, %edx
	movl	$4, %eax
	cmovnel	%eax, %ecx
	jmp	.LBB27_4
.LBB27_3:                               # %cond.false
	xorl	%ecx, %ecx
	jmp	.LBB27_4
.LBB27_4:                               # %cond.end
	movl	%ecx, -36(%rbp)
	movl	-84(%rbp), %eax
	addl	-36(%rbp), %eax
	cltq
	movq	listX(,%rax,8), %rax
	movswq	-22(%rbp), %rcx
	movq	(%rax,%rcx,8), %rax
	movq	6432(%rax), %rax
	movq	%rax, -216(%rbp)
	cmpl	$0, -84(%rbp)
	jne	.LBB27_6
# %bb.5:                                # %cond.true9
	movl	-36(%rbp), %eax
	addl	$1, %eax
	jmp	.LBB27_7
.LBB27_6:                               # %cond.false11
	movl	-36(%rbp), %eax
.LBB27_7:                               # %cond.end12
	vmovsd	.LCPI27_0(%rip), %xmm0  # xmm0 = mem[0],zero
	vmovsd	.LCPI27_1(%rip), %xmm1  # xmm1 = mem[0],zero
	cltq
	movq	listX(,%rax,8), %rax
	movq	(%rax), %rax
	movq	6432(%rax), %rax
	movq	%rax, -208(%rbp)
	movl	-84(%rbp), %eax
	addl	-36(%rbp), %eax
	cltq
	movq	listX(,%rax,8), %rax
	movswq	-22(%rbp), %rcx
	movq	(%rax,%rcx,8), %rax
	movl	6392(%rax), %eax
	movl	%eax, -112(%rbp)
	movl	-84(%rbp), %eax
	addl	-36(%rbp), %eax
	cltq
	movq	listX(,%rax,8), %rax
	movswq	-22(%rbp), %rcx
	movq	(%rax,%rcx,8), %rax
	movl	6396(%rax), %eax
	movl	%eax, -116(%rbp)
	movl	$0, -120(%rbp)
	movl	88(%rbp), %eax
	shll	$1, %eax
	addl	$1, %eax
	movl	88(%rbp), %ecx
	shll	$1, %ecx
	addl	$1, %ecx
	imull	%ecx, %eax
	movl	%eax, -180(%rbp)
	vmulsd	-224(%rbp), %xmm1, %xmm1
	vaddsd	%xmm0, %xmm1, %xmm0
	vcvttsd2si	%xmm0, %eax
	movl	%eax, -148(%rbp)
	movq	input, %rax
	movslq	-140(%rbp), %rcx
	movl	84(%rax,%rcx,8), %eax
	movl	%eax, -108(%rbp)
	movq	input, %rax
	movslq	-140(%rbp), %rcx
	movl	80(%rax,%rcx,8), %eax
	movl	%eax, -88(%rbp)
	movl	-88(%rbp), %eax
	sarl	$2, %eax
	movl	%eax, -144(%rbp)
	movl	-104(%rbp), %eax
	shll	$2, %eax
	movswl	24(%rbp), %ecx
	addl	%ecx, %eax
	movl	%eax, -192(%rbp)
	movl	-124(%rbp), %eax
	shll	$2, %eax
	movswl	32(%rbp), %ecx
	addl	%ecx, %eax
	movl	%eax, -172(%rbp)
	movl	-104(%rbp), %eax
	shll	$2, %eax
	movswl	40(%rbp), %ecx
	addl	%ecx, %eax
	movl	%eax, -176(%rbp)
	movl	-124(%rbp), %eax
	shll	$2, %eax
	movswl	48(%rbp), %ecx
	addl	%ecx, %eax
	movl	%eax, -188(%rbp)
	movl	-104(%rbp), %eax
	movq	56(%rbp), %rcx
	movswl	(%rcx), %ecx
	addl	%ecx, %eax
	movw	%ax, -96(%rbp)
	movl	-124(%rbp), %eax
	movq	64(%rbp), %rcx
	movswl	(%rcx), %ecx
	addl	%ecx, %eax
	movw	%ax, -94(%rbp)
	movl	-104(%rbp), %eax
	movq	72(%rbp), %rcx
	movswl	(%rcx), %ecx
	addl	%ecx, %eax
	movw	%ax, -42(%rbp)
	movl	-124(%rbp), %eax
	movq	80(%rbp), %rcx
	movswl	(%rcx), %ecx
	addl	%ecx, %eax
	movw	%ax, -46(%rbp)
	movq	active_pps, %rax
	cmpl	$0, 196(%rax)
	seta	%al
	andb	$1, %al
	movzbl	%al, %eax
	movw	%ax, -44(%rbp)
	movswl	-44(%rbp), %eax
	cmpl	$0, %eax
	je	.LBB27_12
# %bb.8:                                # %cond.true69
	cmpl	$0, -84(%rbp)
	jne	.LBB27_10
# %bb.9:                                # %cond.true72
	movq	wbp_weight, %rax
	movslq	-36(%rbp), %rcx
	movq	(%rax,%rcx,8), %rax
	movswq	-22(%rbp), %rcx
	movq	(%rax,%rcx,8), %rax
	movq	(%rax), %rax
	movl	(%rax), %eax
	jmp	.LBB27_11
.LBB27_10:                              # %cond.false79
	movq	wbp_weight, %rax
	movl	-36(%rbp), %ecx
	addl	$1, %ecx
	movslq	%ecx, %rcx
	movq	(%rax,%rcx,8), %rax
	movq	(%rax), %rax
	movswq	-22(%rbp), %rcx
	movq	(%rax,%rcx,8), %rax
	movl	(%rax), %eax
.LBB27_11:                              # %cond.end87
	jmp	.LBB27_13
.LBB27_12:                              # %cond.false89
	movl	luma_log_weight_denom, %ecx
                                        # kill: def $cl killed $ecx
	movl	$1, %eax
	shll	%cl, %eax
.LBB27_13:                              # %cond.end91
	movw	%ax, -50(%rbp)
	movswl	-44(%rbp), %eax
	cmpl	$0, %eax
	je	.LBB27_18
# %bb.14:                               # %cond.true96
	cmpl	$0, -84(%rbp)
	jne	.LBB27_16
# %bb.15:                               # %cond.true99
	movq	wbp_weight, %rax
	movl	-36(%rbp), %ecx
	addl	$1, %ecx
	movslq	%ecx, %rcx
	movq	(%rax,%rcx,8), %rax
	movswq	-22(%rbp), %rcx
	movq	(%rax,%rcx,8), %rax
	movq	(%rax), %rax
	movl	(%rax), %eax
	jmp	.LBB27_17
.LBB27_16:                              # %cond.false107
	movq	wbp_weight, %rax
	movslq	-36(%rbp), %rcx
	movq	(%rax,%rcx,8), %rax
	movq	(%rax), %rax
	movswq	-22(%rbp), %rcx
	movq	(%rax,%rcx,8), %rax
	movl	(%rax), %eax
.LBB27_17:                              # %cond.end114
	jmp	.LBB27_19
.LBB27_18:                              # %cond.false116
	movl	luma_log_weight_denom, %ecx
                                        # kill: def $cl killed $ecx
	movl	$1, %eax
	shll	%cl, %eax
.LBB27_19:                              # %cond.end118
	movw	%ax, -48(%rbp)
	movswl	-44(%rbp), %eax
	cmpl	$0, %eax
	je	.LBB27_24
# %bb.20:                               # %cond.true123
	cmpl	$0, -84(%rbp)
	jne	.LBB27_22
# %bb.21:                               # %cond.true126
	movq	wp_offset, %rax
	movslq	-36(%rbp), %rcx
	movq	(%rax,%rcx,8), %rax
	movswq	-22(%rbp), %rcx
	movq	(%rax,%rcx,8), %rax
	movl	(%rax), %eax
	jmp	.LBB27_23
.LBB27_22:                              # %cond.false132
	movq	wp_offset, %rax
	movl	-36(%rbp), %ecx
	addl	$1, %ecx
	movslq	%ecx, %rcx
	movq	(%rax,%rcx,8), %rax
	movq	(%rax), %rax
	movl	(%rax), %eax
.LBB27_23:                              # %cond.end138
	jmp	.LBB27_25
.LBB27_24:                              # %cond.false140
	xorl	%eax, %eax
	jmp	.LBB27_25
.LBB27_25:                              # %cond.end141
	movw	%ax, -134(%rbp)
	movswl	-44(%rbp), %eax
	cmpl	$0, %eax
	je	.LBB27_30
# %bb.26:                               # %cond.true146
	cmpl	$0, -84(%rbp)
	jne	.LBB27_28
# %bb.27:                               # %cond.true149
	movq	wp_offset, %rax
	movl	-36(%rbp), %ecx
	addl	$1, %ecx
	movslq	%ecx, %rcx
	movq	(%rax,%rcx,8), %rax
	movswq	-22(%rbp), %rcx
	movq	(%rax,%rcx,8), %rax
	movl	(%rax), %eax
	jmp	.LBB27_29
.LBB27_28:                              # %cond.false156
	movq	wp_offset, %rax
	movslq	-36(%rbp), %rcx
	movq	(%rax,%rcx,8), %rax
	movq	(%rax), %rax
	movl	(%rax), %eax
.LBB27_29:                              # %cond.end161
	jmp	.LBB27_31
.LBB27_30:                              # %cond.false163
	xorl	%eax, %eax
	jmp	.LBB27_31
.LBB27_31:                              # %cond.end164
	movw	%ax, -136(%rbp)
	movswl	-136(%rbp), %eax
	movswl	-134(%rbp), %ecx
	addl	%ecx, %eax
	addl	$1, %eax
	sarl	$1, %eax
	movw	%ax, -14(%rbp)
	movswl	-96(%rbp), %eax
	cmpl	88(%rbp), %eax
	jle	.LBB27_36
# %bb.32:                               # %land.lhs.true176
	movswl	-96(%rbp), %eax
	movq	img, %rcx
	movl	52(%rcx), %ecx
	subl	$1, %ecx
	subl	88(%rbp), %ecx
	subl	-88(%rbp), %ecx
	cmpl	%ecx, %eax
	jge	.LBB27_36
# %bb.33:                               # %land.lhs.true182
	movswl	-94(%rbp), %eax
	cmpl	88(%rbp), %eax
	jle	.LBB27_36
# %bb.34:                               # %land.lhs.true186
	movswl	-94(%rbp), %eax
	movq	img, %rcx
	movl	60(%rcx), %ecx
	subl	$1, %ecx
	subl	88(%rbp), %ecx
	subl	-108(%rbp), %ecx
	cmpl	%ecx, %eax
	jge	.LBB27_36
# %bb.35:                               # %if.then
	movabsq	$FastLineX, %rax
	movq	%rax, -168(%rbp)
	jmp	.LBB27_37
.LBB27_36:                              # %if.else
	movabsq	$UMVLineX, %rax
	movq	%rax, -168(%rbp)
.LBB27_37:                              # %if.end
	movswl	-42(%rbp), %eax
	cmpl	88(%rbp), %eax
	jle	.LBB27_42
# %bb.38:                               # %land.lhs.true196
	movswl	-42(%rbp), %eax
	movq	img, %rcx
	movl	52(%rcx), %ecx
	subl	$1, %ecx
	subl	88(%rbp), %ecx
	subl	-88(%rbp), %ecx
	cmpl	%ecx, %eax
	jge	.LBB27_42
# %bb.39:                               # %land.lhs.true204
	movswl	-46(%rbp), %eax
	cmpl	88(%rbp), %eax
	jle	.LBB27_42
# %bb.40:                               # %land.lhs.true208
	movswl	-46(%rbp), %eax
	movq	img, %rcx
	movl	60(%rcx), %ecx
	subl	$1, %ecx
	subl	88(%rbp), %ecx
	subl	-108(%rbp), %ecx
	cmpl	%ecx, %eax
	jge	.LBB27_42
# %bb.41:                               # %if.then216
	movabsq	$FastLineX, %rax
	movq	%rax, -160(%rbp)
	jmp	.LBB27_43
.LBB27_42:                              # %if.else217
	movabsq	$UMVLineX, %rax
	movq	%rax, -160(%rbp)
.LBB27_43:                              # %if.end218
	movl	$0, -100(%rbp)
.LBB27_44:                              # %for.cond
                                        # =>This Loop Header: Depth=1
                                        #     Child Loop BB27_49 Depth 2
                                        #       Child Loop BB27_51 Depth 3
                                        #     Child Loop BB27_85 Depth 2
                                        #       Child Loop BB27_87 Depth 3
	movl	-100(%rbp), %eax
	cmpl	-180(%rbp), %eax
	jge	.LBB27_100
# %bb.45:                               # %for.body
                                        #   in Loop: Header=BB27_44 Depth=1
	movswl	-96(%rbp), %eax
	movq	spiral_search_x, %rcx
	movslq	-100(%rbp), %rdx
	addl	(%rcx,%rdx,4), %eax
	movl	%eax, -128(%rbp)
	movswl	-94(%rbp), %eax
	movq	spiral_search_y, %rcx
	movslq	-100(%rbp), %rdx
	addl	(%rcx,%rdx,4), %eax
	movl	%eax, -132(%rbp)
	movl	-148(%rbp), %eax
	movq	mvbits, %rcx
	movswl	-42(%rbp), %edx
	shll	$2, %edx
	subl	-192(%rbp), %edx
	movslq	%edx, %rdx
	movl	(%rcx,%rdx,4), %ecx
	movq	mvbits, %rdx
	movswl	-46(%rbp), %esi
	shll	$2, %esi
	subl	-172(%rbp), %esi
	movslq	%esi, %rsi
	addl	(%rdx,%rsi,4), %ecx
	imull	%ecx, %eax
	sarl	$16, %eax
	movl	%eax, -20(%rbp)
	movl	-148(%rbp), %eax
	movq	mvbits, %rcx
	movl	-128(%rbp), %edx
	shll	$2, %edx
	subl	-176(%rbp), %edx
	movslq	%edx, %rdx
	movl	(%rcx,%rdx,4), %ecx
	movq	mvbits, %rdx
	movl	-132(%rbp), %esi
	shll	$2, %esi
	subl	-188(%rbp), %esi
	movslq	%esi, %rsi
	addl	(%rdx,%rsi,4), %ecx
	imull	%ecx, %eax
	sarl	$16, %eax
	addl	-20(%rbp), %eax
	movl	%eax, -20(%rbp)
	movl	-20(%rbp), %eax
	cmpl	96(%rbp), %eax
	jl	.LBB27_47
# %bb.46:                               # %if.then256
                                        #   in Loop: Header=BB27_44 Depth=1
	jmp	.LBB27_99
.LBB27_47:                              # %if.end257
                                        #   in Loop: Header=BB27_44 Depth=1
	cmpw	$0, -44(%rbp)
	je	.LBB27_84
# %bb.48:                               # %if.then259
                                        #   in Loop: Header=BB27_44 Depth=1
	movl	$0, -40(%rbp)
.LBB27_49:                              # %for.cond260
                                        #   Parent Loop BB27_44 Depth=1
                                        # =>  This Loop Header: Depth=2
                                        #       Child Loop BB27_51 Depth 3
	movl	-40(%rbp), %eax
	cmpl	-108(%rbp), %eax
	jge	.LBB27_82
# %bb.50:                               # %for.body263
                                        #   in Loop: Header=BB27_49 Depth=2
	movq	-168(%rbp), %rax
	movl	-88(%rbp), %edi
	movq	-208(%rbp), %rsi
	movl	-132(%rbp), %edx
	addl	-40(%rbp), %edx
	movl	-128(%rbp), %ecx
	movl	-116(%rbp), %r8d
	movl	-112(%rbp), %r9d
	callq	*%rax
	movq	%rax, -64(%rbp)
	movq	-160(%rbp), %rax
	movl	-88(%rbp), %edi
	movq	-216(%rbp), %rsi
	movswl	-46(%rbp), %edx
	addl	-40(%rbp), %edx
	movswl	-42(%rbp), %ecx
	movl	-116(%rbp), %r8d
	movl	-112(%rbp), %r9d
	callq	*%rax
	movq	%rax, -72(%rbp)
	movq	-200(%rbp), %rax
	movslq	-40(%rbp), %rcx
	movq	(%rax,%rcx,8), %rax
	movq	%rax, -80(%rbp)
	movl	$0, -92(%rbp)
.LBB27_51:                              # %for.cond271
                                        #   Parent Loop BB27_44 Depth=1
                                        #     Parent Loop BB27_49 Depth=2
                                        # =>    This Inner Loop Header: Depth=3
	movl	-92(%rbp), %eax
	cmpl	-144(%rbp), %eax
	jge	.LBB27_78
# %bb.52:                               # %for.body274
                                        #   in Loop: Header=BB27_51 Depth=3
	movswl	-50(%rbp), %eax
	movq	-72(%rbp), %rcx
	movq	%rcx, %rdx
	addq	$2, %rdx
	movq	%rdx, -72(%rbp)
	movzwl	(%rcx), %ecx
	imull	%ecx, %eax
	movw	%ax, -10(%rbp)
	movswl	-48(%rbp), %eax
	movq	-64(%rbp), %rcx
	movq	%rcx, %rdx
	addq	$2, %rdx
	movq	%rdx, -64(%rbp)
	movzwl	(%rcx), %ecx
	imull	%ecx, %eax
	movw	%ax, -12(%rbp)
	movswl	-10(%rbp), %eax
	movswl	-12(%rbp), %ecx
	addl	%ecx, %eax
	movl	wp_luma_round, %ecx
	shll	$1, %ecx
	addl	%ecx, %eax
	movl	luma_log_weight_denom, %ecx
	addl	$1, %ecx
                                        # kill: def $cl killed $ecx
	sarl	%cl, %eax
	movswl	-14(%rbp), %ecx
	addl	%ecx, %eax
	cmpl	$0, %eax
	jge	.LBB27_54
# %bb.53:                               # %cond.true295
                                        #   in Loop: Header=BB27_51 Depth=3
	xorl	%eax, %eax
	jmp	.LBB27_58
.LBB27_54:                              # %cond.false296
                                        #   in Loop: Header=BB27_51 Depth=3
	movswl	-10(%rbp), %eax
	movswl	-12(%rbp), %ecx
	addl	%ecx, %eax
	movl	wp_luma_round, %ecx
	shll	$1, %ecx
	addl	%ecx, %eax
	movl	luma_log_weight_denom, %ecx
	addl	$1, %ecx
                                        # kill: def $cl killed $ecx
	sarl	%cl, %eax
	movswl	-14(%rbp), %ecx
	addl	%ecx, %eax
	movq	img, %rcx
	cmpl	72684(%rcx), %eax
	jle	.LBB27_56
# %bb.55:                               # %cond.true308
                                        #   in Loop: Header=BB27_51 Depth=3
	movq	img, %rax
	movl	72684(%rax), %eax
	jmp	.LBB27_57
.LBB27_56:                              # %cond.false310
                                        #   in Loop: Header=BB27_51 Depth=3
	movswl	-10(%rbp), %eax
	movswl	-12(%rbp), %ecx
	addl	%ecx, %eax
	movl	wp_luma_round, %ecx
	shll	$1, %ecx
	addl	%ecx, %eax
	movl	luma_log_weight_denom, %ecx
	addl	$1, %ecx
                                        # kill: def $cl killed $ecx
	sarl	%cl, %eax
	movswl	-14(%rbp), %ecx
	addl	%ecx, %eax
.LBB27_57:                              # %cond.end320
                                        #   in Loop: Header=BB27_51 Depth=3
.LBB27_58:                              # %cond.end322
                                        #   in Loop: Header=BB27_51 Depth=3
	movw	%ax, -30(%rbp)
	movq	-80(%rbp), %rax
	movq	%rax, %rcx
	addq	$2, %rcx
	movq	%rcx, -80(%rbp)
	movzwl	(%rax), %eax
	movswl	-30(%rbp), %ecx
	subl	%ecx, %eax
	movl	%eax, -28(%rbp)
	movq	byte_abs, %rax
	movslq	-28(%rbp), %rcx
	movl	(%rax,%rcx,4), %eax
	addl	-20(%rbp), %eax
	movl	%eax, -20(%rbp)
	movswl	-50(%rbp), %eax
	movq	-72(%rbp), %rcx
	movq	%rcx, %rdx
	addq	$2, %rdx
	movq	%rdx, -72(%rbp)
	movzwl	(%rcx), %ecx
	imull	%ecx, %eax
	movw	%ax, -10(%rbp)
	movswl	-48(%rbp), %eax
	movq	-64(%rbp), %rcx
	movq	%rcx, %rdx
	addq	$2, %rdx
	movq	%rdx, -64(%rbp)
	movzwl	(%rcx), %ecx
	imull	%ecx, %eax
	movw	%ax, -12(%rbp)
	movswl	-10(%rbp), %eax
	movswl	-12(%rbp), %ecx
	addl	%ecx, %eax
	movl	wp_luma_round, %ecx
	shll	$1, %ecx
	addl	%ecx, %eax
	movl	luma_log_weight_denom, %ecx
	addl	$1, %ecx
                                        # kill: def $cl killed $ecx
	sarl	%cl, %eax
	movswl	-14(%rbp), %ecx
	addl	%ecx, %eax
	cmpl	$0, %eax
	jge	.LBB27_60
# %bb.59:                               # %cond.true353
                                        #   in Loop: Header=BB27_51 Depth=3
	xorl	%eax, %eax
	jmp	.LBB27_64
.LBB27_60:                              # %cond.false354
                                        #   in Loop: Header=BB27_51 Depth=3
	movswl	-10(%rbp), %eax
	movswl	-12(%rbp), %ecx
	addl	%ecx, %eax
	movl	wp_luma_round, %ecx
	shll	$1, %ecx
	addl	%ecx, %eax
	movl	luma_log_weight_denom, %ecx
	addl	$1, %ecx
                                        # kill: def $cl killed $ecx
	sarl	%cl, %eax
	movswl	-14(%rbp), %ecx
	addl	%ecx, %eax
	movq	img, %rcx
	cmpl	72684(%rcx), %eax
	jle	.LBB27_62
# %bb.61:                               # %cond.true367
                                        #   in Loop: Header=BB27_51 Depth=3
	movq	img, %rax
	movl	72684(%rax), %eax
	jmp	.LBB27_63
.LBB27_62:                              # %cond.false369
                                        #   in Loop: Header=BB27_51 Depth=3
	movswl	-10(%rbp), %eax
	movswl	-12(%rbp), %ecx
	addl	%ecx, %eax
	movl	wp_luma_round, %ecx
	shll	$1, %ecx
	addl	%ecx, %eax
	movl	luma_log_weight_denom, %ecx
	addl	$1, %ecx
                                        # kill: def $cl killed $ecx
	sarl	%cl, %eax
	movswl	-14(%rbp), %ecx
	addl	%ecx, %eax
.LBB27_63:                              # %cond.end379
                                        #   in Loop: Header=BB27_51 Depth=3
.LBB27_64:                              # %cond.end381
                                        #   in Loop: Header=BB27_51 Depth=3
	movw	%ax, -30(%rbp)
	movq	-80(%rbp), %rax
	movq	%rax, %rcx
	addq	$2, %rcx
	movq	%rcx, -80(%rbp)
	movzwl	(%rax), %eax
	movswl	-30(%rbp), %ecx
	subl	%ecx, %eax
	movl	%eax, -28(%rbp)
	movq	byte_abs, %rax
	movslq	-28(%rbp), %rcx
	movl	(%rax,%rcx,4), %eax
	addl	-20(%rbp), %eax
	movl	%eax, -20(%rbp)
	movswl	-50(%rbp), %eax
	movq	-72(%rbp), %rcx
	movq	%rcx, %rdx
	addq	$2, %rdx
	movq	%rdx, -72(%rbp)
	movzwl	(%rcx), %ecx
	imull	%ecx, %eax
	movw	%ax, -10(%rbp)
	movswl	-48(%rbp), %eax
	movq	-64(%rbp), %rcx
	movq	%rcx, %rdx
	addq	$2, %rdx
	movq	%rdx, -64(%rbp)
	movzwl	(%rcx), %ecx
	imull	%ecx, %eax
	movw	%ax, -12(%rbp)
	movswl	-10(%rbp), %eax
	movswl	-12(%rbp), %ecx
	addl	%ecx, %eax
	movl	wp_luma_round, %ecx
	shll	$1, %ecx
	addl	%ecx, %eax
	movl	luma_log_weight_denom, %ecx
	addl	$1, %ecx
                                        # kill: def $cl killed $ecx
	sarl	%cl, %eax
	movswl	-14(%rbp), %ecx
	addl	%ecx, %eax
	cmpl	$0, %eax
	jge	.LBB27_66
# %bb.65:                               # %cond.true412
                                        #   in Loop: Header=BB27_51 Depth=3
	xorl	%eax, %eax
	jmp	.LBB27_70
.LBB27_66:                              # %cond.false413
                                        #   in Loop: Header=BB27_51 Depth=3
	movswl	-10(%rbp), %eax
	movswl	-12(%rbp), %ecx
	addl	%ecx, %eax
	movl	wp_luma_round, %ecx
	shll	$1, %ecx
	addl	%ecx, %eax
	movl	luma_log_weight_denom, %ecx
	addl	$1, %ecx
                                        # kill: def $cl killed $ecx
	sarl	%cl, %eax
	movswl	-14(%rbp), %ecx
	addl	%ecx, %eax
	movq	img, %rcx
	cmpl	72684(%rcx), %eax
	jle	.LBB27_68
# %bb.67:                               # %cond.true426
                                        #   in Loop: Header=BB27_51 Depth=3
	movq	img, %rax
	movl	72684(%rax), %eax
	jmp	.LBB27_69
.LBB27_68:                              # %cond.false428
                                        #   in Loop: Header=BB27_51 Depth=3
	movswl	-10(%rbp), %eax
	movswl	-12(%rbp), %ecx
	addl	%ecx, %eax
	movl	wp_luma_round, %ecx
	shll	$1, %ecx
	addl	%ecx, %eax
	movl	luma_log_weight_denom, %ecx
	addl	$1, %ecx
                                        # kill: def $cl killed $ecx
	sarl	%cl, %eax
	movswl	-14(%rbp), %ecx
	addl	%ecx, %eax
.LBB27_69:                              # %cond.end438
                                        #   in Loop: Header=BB27_51 Depth=3
.LBB27_70:                              # %cond.end440
                                        #   in Loop: Header=BB27_51 Depth=3
	movw	%ax, -30(%rbp)
	movq	-80(%rbp), %rax
	movq	%rax, %rcx
	addq	$2, %rcx
	movq	%rcx, -80(%rbp)
	movzwl	(%rax), %eax
	movswl	-30(%rbp), %ecx
	subl	%ecx, %eax
	movl	%eax, -28(%rbp)
	movq	byte_abs, %rax
	movslq	-28(%rbp), %rcx
	movl	(%rax,%rcx,4), %eax
	addl	-20(%rbp), %eax
	movl	%eax, -20(%rbp)
	movswl	-50(%rbp), %eax
	movq	-72(%rbp), %rcx
	movq	%rcx, %rdx
	addq	$2, %rdx
	movq	%rdx, -72(%rbp)
	movzwl	(%rcx), %ecx
	imull	%ecx, %eax
	movw	%ax, -10(%rbp)
	movswl	-48(%rbp), %eax
	movq	-64(%rbp), %rcx
	movq	%rcx, %rdx
	addq	$2, %rdx
	movq	%rdx, -64(%rbp)
	movzwl	(%rcx), %ecx
	imull	%ecx, %eax
	movw	%ax, -12(%rbp)
	movswl	-10(%rbp), %eax
	movswl	-12(%rbp), %ecx
	addl	%ecx, %eax
	movl	wp_luma_round, %ecx
	shll	$1, %ecx
	addl	%ecx, %eax
	movl	luma_log_weight_denom, %ecx
	addl	$1, %ecx
                                        # kill: def $cl killed $ecx
	sarl	%cl, %eax
	movswl	-14(%rbp), %ecx
	addl	%ecx, %eax
	cmpl	$0, %eax
	jge	.LBB27_72
# %bb.71:                               # %cond.true471
                                        #   in Loop: Header=BB27_51 Depth=3
	xorl	%eax, %eax
	jmp	.LBB27_76
.LBB27_72:                              # %cond.false472
                                        #   in Loop: Header=BB27_51 Depth=3
	movswl	-10(%rbp), %eax
	movswl	-12(%rbp), %ecx
	addl	%ecx, %eax
	movl	wp_luma_round, %ecx
	shll	$1, %ecx
	addl	%ecx, %eax
	movl	luma_log_weight_denom, %ecx
	addl	$1, %ecx
                                        # kill: def $cl killed $ecx
	sarl	%cl, %eax
	movswl	-14(%rbp), %ecx
	addl	%ecx, %eax
	movq	img, %rcx
	cmpl	72684(%rcx), %eax
	jle	.LBB27_74
# %bb.73:                               # %cond.true485
                                        #   in Loop: Header=BB27_51 Depth=3
	movq	img, %rax
	movl	72684(%rax), %eax
	jmp	.LBB27_75
.LBB27_74:                              # %cond.false487
                                        #   in Loop: Header=BB27_51 Depth=3
	movswl	-10(%rbp), %eax
	movswl	-12(%rbp), %ecx
	addl	%ecx, %eax
	movl	wp_luma_round, %ecx
	shll	$1, %ecx
	addl	%ecx, %eax
	movl	luma_log_weight_denom, %ecx
	addl	$1, %ecx
                                        # kill: def $cl killed $ecx
	sarl	%cl, %eax
	movswl	-14(%rbp), %ecx
	addl	%ecx, %eax
.LBB27_75:                              # %cond.end497
                                        #   in Loop: Header=BB27_51 Depth=3
.LBB27_76:                              # %cond.end499
                                        #   in Loop: Header=BB27_51 Depth=3
	movw	%ax, -30(%rbp)
	movq	-80(%rbp), %rax
	movq	%rax, %rcx
	addq	$2, %rcx
	movq	%rcx, -80(%rbp)
	movzwl	(%rax), %eax
	movswl	-30(%rbp), %ecx
	subl	%ecx, %eax
	movl	%eax, -28(%rbp)
	movq	byte_abs, %rax
	movslq	-28(%rbp), %rcx
	movl	(%rax,%rcx,4), %eax
	addl	-20(%rbp), %eax
	movl	%eax, -20(%rbp)
# %bb.77:                               # %for.inc
                                        #   in Loop: Header=BB27_51 Depth=3
	movl	-92(%rbp), %eax
	addl	$1, %eax
	movl	%eax, -92(%rbp)
	jmp	.LBB27_51
.LBB27_78:                              # %for.end
                                        #   in Loop: Header=BB27_49 Depth=2
	movl	-20(%rbp), %eax
	cmpl	96(%rbp), %eax
	jl	.LBB27_80
# %bb.79:                               # %if.then511
                                        #   in Loop: Header=BB27_44 Depth=1
	jmp	.LBB27_83
.LBB27_80:                              # %if.end512
                                        #   in Loop: Header=BB27_49 Depth=2
	jmp	.LBB27_81
.LBB27_81:                              # %for.inc513
                                        #   in Loop: Header=BB27_49 Depth=2
	movl	-40(%rbp), %eax
	addl	$1, %eax
	movl	%eax, -40(%rbp)
	jmp	.LBB27_49
.LBB27_82:                              # %for.end515.loopexit
                                        #   in Loop: Header=BB27_44 Depth=1
	jmp	.LBB27_83
.LBB27_83:                              # %for.end515
                                        #   in Loop: Header=BB27_44 Depth=1
	jmp	.LBB27_96
.LBB27_84:                              # %if.else516
                                        #   in Loop: Header=BB27_44 Depth=1
	movl	$0, -40(%rbp)
.LBB27_85:                              # %for.cond517
                                        #   Parent Loop BB27_44 Depth=1
                                        # =>  This Loop Header: Depth=2
                                        #       Child Loop BB27_87 Depth 3
	movl	-40(%rbp), %eax
	cmpl	-108(%rbp), %eax
	jge	.LBB27_94
# %bb.86:                               # %for.body520
                                        #   in Loop: Header=BB27_85 Depth=2
	movq	-168(%rbp), %rax
	movl	-88(%rbp), %edi
	movq	-208(%rbp), %rsi
	movl	-132(%rbp), %edx
	addl	-40(%rbp), %edx
	movl	-128(%rbp), %ecx
	movl	-116(%rbp), %r8d
	movl	-112(%rbp), %r9d
	callq	*%rax
	movq	%rax, -64(%rbp)
	movq	-160(%rbp), %rax
	movl	-88(%rbp), %edi
	movq	-216(%rbp), %rsi
	movswl	-46(%rbp), %edx
	addl	-40(%rbp), %edx
	movswl	-42(%rbp), %ecx
	movl	-116(%rbp), %r8d
	movl	-112(%rbp), %r9d
	callq	*%rax
	movq	%rax, -72(%rbp)
	movq	-200(%rbp), %rax
	movslq	-40(%rbp), %rcx
	movq	(%rax,%rcx,8), %rax
	movq	%rax, -80(%rbp)
	movl	$0, -92(%rbp)
.LBB27_87:                              # %for.cond529
                                        #   Parent Loop BB27_44 Depth=1
                                        #     Parent Loop BB27_85 Depth=2
                                        # =>    This Inner Loop Header: Depth=3
	movl	-92(%rbp), %eax
	cmpl	-144(%rbp), %eax
	jge	.LBB27_90
# %bb.88:                               # %for.body532
                                        #   in Loop: Header=BB27_87 Depth=3
	movq	-80(%rbp), %rax
	movq	%rax, %rcx
	addq	$2, %rcx
	movq	%rcx, -80(%rbp)
	movzwl	(%rax), %eax
	movq	-72(%rbp), %rcx
	movq	%rcx, %rdx
	addq	$2, %rdx
	movq	%rdx, -72(%rbp)
	movzwl	(%rcx), %ecx
	movq	-64(%rbp), %rdx
	movq	%rdx, %rsi
	addq	$2, %rsi
	movq	%rsi, -64(%rbp)
	movzwl	(%rdx), %edx
	addl	%edx, %ecx
	sarl	$1, %ecx
	subl	%ecx, %eax
	movl	%eax, -28(%rbp)
	movq	byte_abs, %rax
	movslq	-28(%rbp), %rcx
	movl	(%rax,%rcx,4), %eax
	addl	-20(%rbp), %eax
	movl	%eax, -20(%rbp)
	movq	-80(%rbp), %rax
	movq	%rax, %rcx
	addq	$2, %rcx
	movq	%rcx, -80(%rbp)
	movzwl	(%rax), %eax
	movq	-72(%rbp), %rcx
	movq	%rcx, %rdx
	addq	$2, %rdx
	movq	%rdx, -72(%rbp)
	movzwl	(%rcx), %ecx
	movq	-64(%rbp), %rdx
	movq	%rdx, %rsi
	addq	$2, %rsi
	movq	%rsi, -64(%rbp)
	movzwl	(%rdx), %edx
	addl	%edx, %ecx
	sarl	$1, %ecx
	subl	%ecx, %eax
	movl	%eax, -28(%rbp)
	movq	byte_abs, %rax
	movslq	-28(%rbp), %rcx
	movl	(%rax,%rcx,4), %eax
	addl	-20(%rbp), %eax
	movl	%eax, -20(%rbp)
	movq	-80(%rbp), %rax
	movq	%rax, %rcx
	addq	$2, %rcx
	movq	%rcx, -80(%rbp)
	movzwl	(%rax), %eax
	movq	-72(%rbp), %rcx
	movq	%rcx, %rdx
	addq	$2, %rdx
	movq	%rdx, -72(%rbp)
	movzwl	(%rcx), %ecx
	movq	-64(%rbp), %rdx
	movq	%rdx, %rsi
	addq	$2, %rsi
	movq	%rsi, -64(%rbp)
	movzwl	(%rdx), %edx
	addl	%edx, %ecx
	sarl	$1, %ecx
	subl	%ecx, %eax
	movl	%eax, -28(%rbp)
	movq	byte_abs, %rax
	movslq	-28(%rbp), %rcx
	movl	(%rax,%rcx,4), %eax
	addl	-20(%rbp), %eax
	movl	%eax, -20(%rbp)
	movq	-80(%rbp), %rax
	movq	%rax, %rcx
	addq	$2, %rcx
	movq	%rcx, -80(%rbp)
	movzwl	(%rax), %eax
	movq	-72(%rbp), %rcx
	movq	%rcx, %rdx
	addq	$2, %rdx
	movq	%rdx, -72(%rbp)
	movzwl	(%rcx), %ecx
	movq	-64(%rbp), %rdx
	movq	%rdx, %rsi
	addq	$2, %rsi
	movq	%rsi, -64(%rbp)
	movzwl	(%rdx), %edx
	addl	%edx, %ecx
	sarl	$1, %ecx
	subl	%ecx, %eax
	movl	%eax, -28(%rbp)
	movq	byte_abs, %rax
	movslq	-28(%rbp), %rcx
	movl	(%rax,%rcx,4), %eax
	addl	-20(%rbp), %eax
	movl	%eax, -20(%rbp)
# %bb.89:                               # %for.inc581
                                        #   in Loop: Header=BB27_87 Depth=3
	movl	-92(%rbp), %eax
	addl	$1, %eax
	movl	%eax, -92(%rbp)
	jmp	.LBB27_87
.LBB27_90:                              # %for.end583
                                        #   in Loop: Header=BB27_85 Depth=2
	movl	-20(%rbp), %eax
	cmpl	96(%rbp), %eax
	jl	.LBB27_92
# %bb.91:                               # %if.then586
                                        #   in Loop: Header=BB27_44 Depth=1
	jmp	.LBB27_95
.LBB27_92:                              # %if.end587
                                        #   in Loop: Header=BB27_85 Depth=2
	jmp	.LBB27_93
.LBB27_93:                              # %for.inc588
                                        #   in Loop: Header=BB27_85 Depth=2
	movl	-40(%rbp), %eax
	addl	$1, %eax
	movl	%eax, -40(%rbp)
	jmp	.LBB27_85
.LBB27_94:                              # %for.end590.loopexit
                                        #   in Loop: Header=BB27_44 Depth=1
	jmp	.LBB27_95
.LBB27_95:                              # %for.end590
                                        #   in Loop: Header=BB27_44 Depth=1
	jmp	.LBB27_96
.LBB27_96:                              # %if.end591
                                        #   in Loop: Header=BB27_44 Depth=1
	movl	-20(%rbp), %eax
	cmpl	96(%rbp), %eax
	jge	.LBB27_98
# %bb.97:                               # %if.then594
                                        #   in Loop: Header=BB27_44 Depth=1
	movl	-100(%rbp), %eax
	movl	%eax, -120(%rbp)
	movl	-20(%rbp), %eax
	movl	%eax, 96(%rbp)
.LBB27_98:                              # %if.end595
                                        #   in Loop: Header=BB27_44 Depth=1
	jmp	.LBB27_99
.LBB27_99:                              # %for.inc596
                                        #   in Loop: Header=BB27_44 Depth=1
	movl	-100(%rbp), %eax
	addl	$1, %eax
	movl	%eax, -100(%rbp)
	jmp	.LBB27_44
.LBB27_100:                             # %for.end598
	cmpl	$0, -120(%rbp)
	je	.LBB27_102
# %bb.101:                              # %if.then600
	movq	spiral_search_x, %rax
	movslq	-120(%rbp), %rcx
	movl	(%rax,%rcx,4), %eax
	movq	56(%rbp), %rcx
	movswl	(%rcx), %edx
	addl	%eax, %edx
	movw	%dx, (%rcx)
	movq	spiral_search_y, %rax
	movslq	-120(%rbp), %rcx
	movl	(%rax,%rcx,4), %eax
	movq	64(%rbp), %rcx
	movswl	(%rcx), %edx
	addl	%eax, %edx
	movw	%dx, (%rcx)
.LBB27_102:                             # %if.end611
	movl	96(%rbp), %ebx
	cmpl	$1612537657, -184(%rbp) # imm = 0x601D5F39
	jne	.LBB27_104
.LBB27_103:
	movl	%ebx, %eax
	addq	$216, %rsp
	popq	%rbx
	popq	%rbp
	.cfi_def_cfa %rsp, 8
	retq
.LBB27_104:                             # %func_exit
	.cfi_def_cfa %rbp, 16
	callq	detect_breach
	jmp	.LBB27_103
.Lfunc_end27:
	.size	FullPelBlockMotionBiPred.2, .Lfunc_end27-FullPelBlockMotionBiPred.2
	.cfi_endproc
                                        # -- End function
	.section	.rodata.cst8,"aM",@progbits,8
	.p2align	3               # -- Begin function Init_Motion_Search_Module.3
.LCPI28_0:
	.quad	4457293557087583675     # double 1.0E-10
.LCPI28_1:
	.quad	4611686018427387904     # double 2
	.text
	.globl	Init_Motion_Search_Module.3
	.p2align	4, 0x90
	.type	Init_Motion_Search_Module.3,@function
Init_Motion_Search_Module.3:            # @Init_Motion_Search_Module.3
	.cfi_startproc
# %bb.0:                                # %entry
	pushq	%rbp
	.cfi_def_cfa_offset 16
	.cfi_offset %rbp, -16
	movq	%rsp, %rbp
	.cfi_def_cfa_register %rbp
	subq	$80, %rsp
	movl	$1440491139, -60(%rbp)  # imm = 0x55DC2683
	movq	img, %rax
	movl	72684(%rax), %eax
	movq	img, %rcx
	cmpl	72688(%rcx), %eax
	jle	.LBB28_2
# %bb.1:                                # %cond.true
	movq	img, %rax
	movl	72684(%rax), %eax
	addl	$1, %eax
	shll	$1, %eax
	jmp	.LBB28_3
.LBB28_2:                               # %cond.false
	movq	img, %rax
	movl	72688(%rax), %eax
	addl	$1, %eax
	shll	$1, %eax
.LBB28_3:                               # %cond.end
	movl	%eax, -28(%rbp)
	movq	input, %rax
	movl	32(%rax), %eax
	movl	%eax, -20(%rbp)
	movq	img, %rax
	movl	36(%rax), %eax
	movl	%eax, -44(%rbp)
	movl	-20(%rbp), %eax
	shll	$1, %eax
	addl	$1, %eax
	movl	-20(%rbp), %ecx
	shll	$1, %ecx
	addl	$1, %ecx
	imull	%ecx, %eax
	movl	$9, %ecx
	cmpl	%eax, %ecx
	jle	.LBB28_5
# %bb.4:                                # %cond.true12
	movl	$9, %eax
	jmp	.LBB28_6
.LBB28_5:                               # %cond.false13
	movl	-20(%rbp), %eax
	shll	$1, %eax
	addl	$1, %eax
	movl	-20(%rbp), %ecx
	shll	$1, %ecx
	addl	$1, %ecx
	imull	%ecx, %eax
.LBB28_6:                               # %cond.end19
	movl	%eax, -40(%rbp)
	movl	-44(%rbp), %eax
	addl	$1, %eax
	movl	$16, %ecx
	cmpl	%eax, %ecx
	jle	.LBB28_8
# %bb.7:                                # %cond.true23
	movl	$16, %eax
	jmp	.LBB28_9
.LBB28_8:                               # %cond.false24
	movl	-44(%rbp), %eax
	addl	$1, %eax
.LBB28_9:                               # %cond.end26
	vcvtsi2sd	%eax, %xmm0, %xmm0
	callq	log
	vmovsd	%xmm0, -72(%rbp)        # 8-byte Spill
	vmovsd	.LCPI28_1(%rip), %xmm0  # xmm0 = mem[0],zero
	callq	log
	vmovsd	.LCPI28_0(%rip), %xmm1  # xmm1 = mem[0],zero
	vmovsd	-72(%rbp), %xmm2        # 8-byte Reload
                                        # xmm2 = mem[0],zero
	vdivsd	%xmm0, %xmm2, %xmm0
	vaddsd	%xmm1, %xmm0, %xmm0
	vroundsd	$9, %xmm0, %xmm0, %xmm0
	vcvttsd2si	%xmm0, %eax
	shll	$1, %eax
	addl	$1, %eax
	movl	%eax, -48(%rbp)
	movl	-48(%rbp), %ecx
	sarl	$1, %ecx
	addl	$1, %ecx
                                        # kill: def $cl killed $ecx
	movl	$1, %eax
	shll	%cl, %eax
	subl	$1, %eax
	movl	%eax, -52(%rbp)
	movl	-20(%rbp), %eax
	shll	$1, %eax
	addl	$3, %eax
	shll	$2, %eax
	movl	%eax, -56(%rbp)
	movl	-56(%rbp), %eax
	addl	$1, %eax
	vcvtsi2sd	%eax, %xmm0, %xmm0
	callq	log
	vmovsd	%xmm0, -80(%rbp)        # 8-byte Spill
	vmovsd	.LCPI28_1(%rip), %xmm0  # xmm0 = mem[0],zero
	callq	log
	vmovsd	.LCPI28_0(%rip), %xmm1  # xmm1 = mem[0],zero
	vmovsd	-80(%rbp), %xmm2        # 8-byte Reload
                                        # xmm2 = mem[0],zero
	vdivsd	%xmm0, %xmm2, %xmm0
	vaddsd	%xmm1, %xmm0, %xmm0
	vroundsd	$10, %xmm0, %xmm0, %xmm0
	vcvttsd2si	%xmm0, %eax
	shll	$1, %eax
	addl	$3, %eax
	movl	%eax, -36(%rbp)
	movl	-36(%rbp), %ecx
	sarl	$1, %ecx
                                        # kill: def $cl killed $ecx
	movl	$1, %eax
	shll	%cl, %eax
	subl	$1, %eax
	movl	%eax, max_mvd
	movslq	-40(%rbp), %rdi
	movl	$4, %esi
	callq	calloc
	movq	%rax, spiral_search_x
	cmpq	$0, %rax
	jne	.LBB28_11
# %bb.10:                               # %if.then
	movabsq	$.L.str.6, %rdi
	callq	no_mem_exit
.LBB28_11:                              # %if.end
	movslq	-40(%rbp), %rdi
	movl	$4, %esi
	callq	calloc
	movq	%rax, spiral_search_y
	cmpq	$0, %rax
	jne	.LBB28_13
# %bb.12:                               # %if.then57
	movabsq	$.L.str.7, %rdi
	callq	no_mem_exit
.LBB28_13:                              # %if.end58
	movl	max_mvd, %eax
	shll	$1, %eax
	addl	$1, %eax
	movslq	%eax, %rdi
	movl	$4, %esi
	callq	calloc
	movq	%rax, mvbits
	cmpq	$0, %rax
	jne	.LBB28_15
# %bb.14:                               # %if.then65
	movabsq	$.L.str.8, %rdi
	callq	no_mem_exit
.LBB28_15:                              # %if.end66
	movslq	-52(%rbp), %rdi
	movl	$4, %esi
	callq	calloc
	movq	%rax, refbits
	cmpq	$0, %rax
	jne	.LBB28_17
# %bb.16:                               # %if.then71
	movabsq	$.L.str.9, %rdi
	callq	no_mem_exit
.LBB28_17:                              # %if.end72
	movslq	-28(%rbp), %rdi
	movl	$4, %esi
	callq	calloc
	movq	%rax, byte_abs
	cmpq	$0, %rax
	jne	.LBB28_19
# %bb.18:                               # %if.then77
	movabsq	$.L.str.10, %rdi
	callq	no_mem_exit
.LBB28_19:                              # %if.end78
	movq	img, %rax
	movl	36(%rax), %ecx
	addl	$1, %ecx
	movabsq	$motion_cost, %rdi
	movl	$8, %esi
	movl	$2, %edx
	movl	$4, %r8d
	callq	get_mem4Dint
	movl	max_mvd, %eax
	movq	mvbits, %rcx
	cltq
	shlq	$2, %rax
	addq	%rax, %rcx
	movq	%rcx, mvbits
	movl	-28(%rbp), %eax
	cltd
	movl	$2, %ecx
	idivl	%ecx
	movq	byte_abs, %rcx
	cltq
	shlq	$2, %rax
	addq	%rax, %rcx
	movq	%rcx, byte_abs
	movq	mvbits, %rax
	movl	$1, (%rax)
	movl	$3, -12(%rbp)
.LBB28_20:                              # %for.cond
                                        # =>This Loop Header: Depth=1
                                        #     Child Loop BB28_22 Depth 2
	movl	-12(%rbp), %eax
	cmpl	-36(%rbp), %eax
	jg	.LBB28_27
# %bb.21:                               # %for.body
                                        #   in Loop: Header=BB28_20 Depth=1
	movl	-12(%rbp), %ecx
	sarl	$1, %ecx
                                        # kill: def $cl killed $ecx
	movl	$1, %eax
	shll	%cl, %eax
	movl	%eax, -24(%rbp)
	movl	-24(%rbp), %eax
	sarl	$1, %eax
	movl	%eax, -32(%rbp)
	movl	-32(%rbp), %eax
	movl	%eax, -4(%rbp)
.LBB28_22:                              # %for.cond90
                                        #   Parent Loop BB28_20 Depth=1
                                        # =>  This Inner Loop Header: Depth=2
	movl	-4(%rbp), %eax
	cmpl	-24(%rbp), %eax
	jge	.LBB28_25
# %bb.23:                               # %for.body93
                                        #   in Loop: Header=BB28_22 Depth=2
	xorl	%eax, %eax
	movl	-12(%rbp), %ecx
	movq	mvbits, %rdx
	movslq	-4(%rbp), %rsi
	movl	%ecx, (%rdx,%rsi,4)
	movq	mvbits, %rdx
	subl	-4(%rbp), %eax
	cltq
	movl	%ecx, (%rdx,%rax,4)
# %bb.24:                               # %for.inc
                                        #   in Loop: Header=BB28_22 Depth=2
	movl	-4(%rbp), %eax
	addl	$1, %eax
	movl	%eax, -4(%rbp)
	jmp	.LBB28_22
.LBB28_25:                              # %for.end
                                        #   in Loop: Header=BB28_20 Depth=1
	jmp	.LBB28_26
.LBB28_26:                              # %for.inc98
                                        #   in Loop: Header=BB28_20 Depth=1
	movl	-12(%rbp), %eax
	addl	$2, %eax
	movl	%eax, -12(%rbp)
	jmp	.LBB28_20
.LBB28_27:                              # %for.end100
	movq	refbits, %rax
	movl	$1, (%rax)
	movl	$3, -12(%rbp)
.LBB28_28:                              # %for.cond102
                                        # =>This Loop Header: Depth=1
                                        #     Child Loop BB28_30 Depth 2
	movl	-12(%rbp), %eax
	cmpl	-48(%rbp), %eax
	jg	.LBB28_35
# %bb.29:                               # %for.body105
                                        #   in Loop: Header=BB28_28 Depth=1
	movl	-12(%rbp), %ecx
	sarl	$1, %ecx
	addl	$1, %ecx
                                        # kill: def $cl killed $ecx
	movl	$1, %eax
	shll	%cl, %eax
	subl	$1, %eax
	movl	%eax, -24(%rbp)
	movl	-24(%rbp), %eax
	sarl	$1, %eax
	movl	%eax, -32(%rbp)
	movl	-32(%rbp), %eax
	movl	%eax, -4(%rbp)
.LBB28_30:                              # %for.cond111
                                        #   Parent Loop BB28_28 Depth=1
                                        # =>  This Inner Loop Header: Depth=2
	movl	-4(%rbp), %eax
	cmpl	-24(%rbp), %eax
	jge	.LBB28_33
# %bb.31:                               # %for.body114
                                        #   in Loop: Header=BB28_30 Depth=2
	movl	-12(%rbp), %eax
	movq	refbits, %rcx
	movslq	-4(%rbp), %rdx
	movl	%eax, (%rcx,%rdx,4)
# %bb.32:                               # %for.inc117
                                        #   in Loop: Header=BB28_30 Depth=2
	movl	-4(%rbp), %eax
	addl	$1, %eax
	movl	%eax, -4(%rbp)
	jmp	.LBB28_30
.LBB28_33:                              # %for.end119
                                        #   in Loop: Header=BB28_28 Depth=1
	jmp	.LBB28_34
.LBB28_34:                              # %for.inc120
                                        #   in Loop: Header=BB28_28 Depth=1
	movl	-12(%rbp), %eax
	addl	$2, %eax
	movl	%eax, -12(%rbp)
	jmp	.LBB28_28
.LBB28_35:                              # %for.end122
	movq	byte_abs, %rax
	movl	$0, (%rax)
	movl	$1, -4(%rbp)
.LBB28_36:                              # %for.cond124
                                        # =>This Inner Loop Header: Depth=1
	movl	-4(%rbp), %ecx
	movl	-28(%rbp), %eax
	cltd
	movl	$2, %esi
	idivl	%esi
	cmpl	%eax, %ecx
	jge	.LBB28_39
# %bb.37:                               # %for.body128
                                        #   in Loop: Header=BB28_36 Depth=1
	xorl	%eax, %eax
	movl	-4(%rbp), %ecx
	movq	byte_abs, %rdx
	subl	-4(%rbp), %eax
	cltq
	movl	%ecx, (%rdx,%rax,4)
	movq	byte_abs, %rax
	movslq	-4(%rbp), %rdx
	movl	%ecx, (%rax,%rdx,4)
# %bb.38:                               # %for.inc134
                                        #   in Loop: Header=BB28_36 Depth=1
	movl	-4(%rbp), %eax
	addl	$1, %eax
	movl	%eax, -4(%rbp)
	jmp	.LBB28_36
.LBB28_39:                              # %for.end136
	movq	spiral_search_y, %rax
	movl	$0, (%rax)
	movq	spiral_search_x, %rax
	movl	$0, (%rax)
	movl	$1, -8(%rbp)
	movl	$1, -16(%rbp)
.LBB28_40:                              # %for.cond139
                                        # =>This Loop Header: Depth=1
                                        #     Child Loop BB28_45 Depth 2
                                        #     Child Loop BB28_49 Depth 2
	movl	-16(%rbp), %eax
	movl	$1, %ecx
	cmpl	-20(%rbp), %ecx
	jle	.LBB28_42
# %bb.41:                               # %cond.true142
                                        #   in Loop: Header=BB28_40 Depth=1
	movl	$1, %ecx
	jmp	.LBB28_43
.LBB28_42:                              # %cond.false143
                                        #   in Loop: Header=BB28_40 Depth=1
	movl	-20(%rbp), %ecx
.LBB28_43:                              # %cond.end144
                                        #   in Loop: Header=BB28_40 Depth=1
	cmpl	%ecx, %eax
	jg	.LBB28_54
# %bb.44:                               # %for.body148
                                        #   in Loop: Header=BB28_40 Depth=1
	xorl	%eax, %eax
	subl	-16(%rbp), %eax
	addl	$1, %eax
	movl	%eax, -4(%rbp)
.LBB28_45:                              # %for.cond151
                                        #   Parent Loop BB28_40 Depth=1
                                        # =>  This Inner Loop Header: Depth=2
	movl	-4(%rbp), %eax
	cmpl	-16(%rbp), %eax
	jge	.LBB28_48
# %bb.46:                               # %for.body154
                                        #   in Loop: Header=BB28_45 Depth=2
	xorl	%eax, %eax
	movl	-4(%rbp), %ecx
	movq	spiral_search_x, %rdx
	movslq	-8(%rbp), %rsi
	movl	%ecx, (%rdx,%rsi,4)
	subl	-16(%rbp), %eax
	movq	spiral_search_y, %rcx
	movl	-8(%rbp), %edx
	movl	%edx, %esi
	addl	$1, %esi
	movl	%esi, -8(%rbp)
	movslq	%edx, %rdx
	movl	%eax, (%rcx,%rdx,4)
	movl	-4(%rbp), %eax
	movq	spiral_search_x, %rcx
	movslq	-8(%rbp), %rdx
	movl	%eax, (%rcx,%rdx,4)
	movl	-16(%rbp), %eax
	movq	spiral_search_y, %rcx
	movl	-8(%rbp), %edx
	movl	%edx, %esi
	addl	$1, %esi
	movl	%esi, -8(%rbp)
	movslq	%edx, %rdx
	movl	%eax, (%rcx,%rdx,4)
# %bb.47:                               # %for.inc166
                                        #   in Loop: Header=BB28_45 Depth=2
	movl	-4(%rbp), %eax
	addl	$1, %eax
	movl	%eax, -4(%rbp)
	jmp	.LBB28_45
.LBB28_48:                              # %for.end168
                                        #   in Loop: Header=BB28_40 Depth=1
	xorl	%eax, %eax
	subl	-16(%rbp), %eax
	movl	%eax, -4(%rbp)
.LBB28_49:                              # %for.cond170
                                        #   Parent Loop BB28_40 Depth=1
                                        # =>  This Inner Loop Header: Depth=2
	movl	-4(%rbp), %eax
	cmpl	-16(%rbp), %eax
	jg	.LBB28_52
# %bb.50:                               # %for.body173
                                        #   in Loop: Header=BB28_49 Depth=2
	xorl	%eax, %eax
	subl	-16(%rbp), %eax
	movq	spiral_search_x, %rcx
	movslq	-8(%rbp), %rdx
	movl	%eax, (%rcx,%rdx,4)
	movl	-4(%rbp), %eax
	movq	spiral_search_y, %rcx
	movl	-8(%rbp), %edx
	movl	%edx, %esi
	addl	$1, %esi
	movl	%esi, -8(%rbp)
	movslq	%edx, %rdx
	movl	%eax, (%rcx,%rdx,4)
	movl	-16(%rbp), %eax
	movq	spiral_search_x, %rcx
	movslq	-8(%rbp), %rdx
	movl	%eax, (%rcx,%rdx,4)
	movl	-4(%rbp), %eax
	movq	spiral_search_y, %rcx
	movl	-8(%rbp), %edx
	movl	%edx, %esi
	addl	$1, %esi
	movl	%esi, -8(%rbp)
	movslq	%edx, %rdx
	movl	%eax, (%rcx,%rdx,4)
# %bb.51:                               # %for.inc185
                                        #   in Loop: Header=BB28_49 Depth=2
	movl	-4(%rbp), %eax
	addl	$1, %eax
	movl	%eax, -4(%rbp)
	jmp	.LBB28_49
.LBB28_52:                              # %for.end187
                                        #   in Loop: Header=BB28_40 Depth=1
	jmp	.LBB28_53
.LBB28_53:                              # %for.inc188
                                        #   in Loop: Header=BB28_40 Depth=1
	movl	-16(%rbp), %eax
	addl	$1, %eax
	movl	%eax, -16(%rbp)
	jmp	.LBB28_40
.LBB28_54:                              # %for.end190
	movq	input, %rax
	cmpl	$0, 3292(%rax)
	jne	.LBB28_56
# %bb.55:                               # %if.then191
	callq	InitializeFastFullIntegerSearch
.LBB28_56:                              # %if.end192
	cmpl	$1440491139, -60(%rbp)  # imm = 0x55DC2683
	jne	.LBB28_58
.LBB28_57:
	addq	$80, %rsp
	popq	%rbp
	.cfi_def_cfa %rsp, 8
	retq
.LBB28_58:                              # %func_exit
	.cfi_def_cfa %rbp, 16
	callq	detect_breach
	jmp	.LBB28_57
.Lfunc_end28:
	.size	Init_Motion_Search_Module.3, .Lfunc_end28-Init_Motion_Search_Module.3
	.cfi_endproc
                                        # -- End function
	.globl	FindSkipModeMotionVector.4 # -- Begin function FindSkipModeMotionVector.4
	.p2align	4, 0x90
	.type	FindSkipModeMotionVector.4,@function
FindSkipModeMotionVector.4:             # @FindSkipModeMotionVector.4
	.cfi_startproc
# %bb.0:                                # %entry
	pushq	%rbp
	.cfi_def_cfa_offset 16
	.cfi_offset %rbp, -16
	movq	%rsp, %rbp
	.cfi_def_cfa_register %rbp
	subq	$144, %rsp
	movl	$1990630935, -56(%rbp)  # imm = 0x76A69E17
	movq	img, %rax
	movq	71928(%rax), %rax
	movq	%rax, -48(%rbp)
	movl	$0, -16(%rbp)
	movl	$0, -24(%rbp)
	movl	$0, -20(%rbp)
	movl	$0, -12(%rbp)
	movq	img, %rax
	movq	14168(%rax), %rax
	movq	img, %rcx
	movslq	12(%rcx), %rcx
	imulq	$632, %rcx, %rcx        # imm = 0x278
	addq	%rcx, %rax
	movq	%rax, -40(%rbp)
	movq	img, %rax
	movl	12(%rax), %edi
	xorl	%esi, %esi
	xorl	%edx, %edx
	movl	$4294967295, %ecx       # imm = 0xFFFFFFFF
	xorl	%r8d, %r8d
	leaq	-88(%rbp), %r9
	callq	getLuma4x4Neighbour
	movq	img, %rax
	movl	12(%rax), %edi
	xorl	%esi, %esi
	xorl	%edx, %edx
	xorl	%ecx, %ecx
	movl	$4294967295, %r8d       # imm = 0xFFFFFFFF
	leaq	-112(%rbp), %r9
	callq	getLuma4x4Neighbour
	cmpl	$0, -88(%rbp)
	je	.LBB29_8
# %bb.1:                                # %if.then
	movq	enc_picture, %rax
	movq	6504(%rax), %rax
	movq	(%rax), %rax
	movslq	-72(%rbp), %rcx
	movq	(%rax,%rcx,8), %rax
	movslq	-68(%rbp), %rcx
	movq	(%rax,%rcx,8), %rax
	movswl	2(%rax), %eax
	movl	%eax, -16(%rbp)
	movq	enc_picture, %rax
	movq	6480(%rax), %rax
	movq	(%rax), %rax
	movslq	-72(%rbp), %rcx
	movq	(%rax,%rcx,8), %rax
	movslq	-68(%rbp), %rcx
	movswl	(%rax,%rcx,2), %eax
	movl	%eax, -24(%rbp)
	movq	-40(%rbp), %rax
	cmpl	$0, 532(%rax)
	je	.LBB29_4
# %bb.2:                                # %land.lhs.true
	movq	img, %rax
	movq	14168(%rax), %rax
	movslq	-84(%rbp), %rcx
	imulq	$632, %rcx, %rcx        # imm = 0x278
	addq	%rcx, %rax
	cmpl	$0, 532(%rax)
	jne	.LBB29_4
# %bb.3:                                # %if.then24
	movl	-16(%rbp), %eax
	cltd
	movl	$2, %ecx
	idivl	%ecx
	movl	%eax, -16(%rbp)
	movl	-24(%rbp), %eax
	shll	$1, %eax
	movl	%eax, -24(%rbp)
.LBB29_4:                               # %if.end
	movq	-40(%rbp), %rax
	cmpl	$0, 532(%rax)
	jne	.LBB29_7
# %bb.5:                                # %land.lhs.true27
	movq	img, %rax
	movq	14168(%rax), %rax
	movslq	-84(%rbp), %rcx
	imulq	$632, %rcx, %rcx        # imm = 0x278
	addq	%rcx, %rax
	cmpl	$0, 532(%rax)
	je	.LBB29_7
# %bb.6:                                # %if.then34
	movl	-16(%rbp), %eax
	shll	$1, %eax
	movl	%eax, -16(%rbp)
	movl	-24(%rbp), %eax
	sarl	$1, %eax
	movl	%eax, -24(%rbp)
.LBB29_7:                               # %if.end36
	jmp	.LBB29_8
.LBB29_8:                               # %if.end37
	cmpl	$0, -112(%rbp)
	je	.LBB29_16
# %bb.9:                                # %if.then40
	movq	enc_picture, %rax
	movq	6504(%rax), %rax
	movq	(%rax), %rax
	movslq	-96(%rbp), %rcx
	movq	(%rax,%rcx,8), %rax
	movslq	-92(%rbp), %rcx
	movq	(%rax,%rcx,8), %rax
	movswl	2(%rax), %eax
	movl	%eax, -20(%rbp)
	movq	enc_picture, %rax
	movq	6480(%rax), %rax
	movq	(%rax), %rax
	movslq	-96(%rbp), %rcx
	movq	(%rax,%rcx,8), %rax
	movslq	-92(%rbp), %rcx
	movswl	(%rax,%rcx,2), %eax
	movl	%eax, -12(%rbp)
	movq	-40(%rbp), %rax
	cmpl	$0, 532(%rax)
	je	.LBB29_12
# %bb.10:                               # %land.lhs.true62
	movq	img, %rax
	movq	14168(%rax), %rax
	movslq	-108(%rbp), %rcx
	imulq	$632, %rcx, %rcx        # imm = 0x278
	addq	%rcx, %rax
	cmpl	$0, 532(%rax)
	jne	.LBB29_12
# %bb.11:                               # %if.then69
	movl	-20(%rbp), %eax
	cltd
	movl	$2, %ecx
	idivl	%ecx
	movl	%eax, -20(%rbp)
	movl	-12(%rbp), %eax
	shll	$1, %eax
	movl	%eax, -12(%rbp)
.LBB29_12:                              # %if.end72
	movq	-40(%rbp), %rax
	cmpl	$0, 532(%rax)
	jne	.LBB29_15
# %bb.13:                               # %land.lhs.true75
	movq	img, %rax
	movq	14168(%rax), %rax
	movslq	-108(%rbp), %rcx
	imulq	$632, %rcx, %rcx        # imm = 0x278
	addq	%rcx, %rax
	cmpl	$0, 532(%rax)
	je	.LBB29_15
# %bb.14:                               # %if.then82
	movl	-20(%rbp), %eax
	shll	$1, %eax
	movl	%eax, -20(%rbp)
	movl	-12(%rbp), %eax
	sarl	$1, %eax
	movl	%eax, -12(%rbp)
.LBB29_15:                              # %if.end85
	jmp	.LBB29_16
.LBB29_16:                              # %if.end86
	cmpl	$0, -88(%rbp)
	jne	.LBB29_18
# %bb.17:                               # %cond.true
	movl	$1, %ecx
	jmp	.LBB29_22
.LBB29_18:                              # %cond.false
	xorl	%eax, %eax
	cmpl	$0, -24(%rbp)
	jne	.LBB29_21
# %bb.19:                               # %land.lhs.true90
	xorl	%eax, %eax
	movq	enc_picture, %rcx
	movq	6504(%rcx), %rcx
	movq	(%rcx), %rcx
	movslq	-72(%rbp), %rdx
	movq	(%rcx,%rdx,8), %rcx
	movslq	-68(%rbp), %rdx
	movq	(%rcx,%rdx,8), %rcx
	movswl	(%rcx), %ecx
	cmpl	$0, %ecx
	jne	.LBB29_21
# %bb.20:                               # %land.rhs
	cmpl	$0, -16(%rbp)
	sete	%al
.LBB29_21:                              # %land.end
	xorl	%ecx, %ecx
	testb	$1, %al
	movl	$1, %eax
	cmovnel	%eax, %ecx
.LBB29_22:                              # %cond.end
	movl	%ecx, -52(%rbp)
	cmpl	$0, -112(%rbp)
	jne	.LBB29_24
# %bb.23:                               # %cond.true108
	movl	$1, %ecx
	jmp	.LBB29_28
.LBB29_24:                              # %cond.false109
	xorl	%eax, %eax
	cmpl	$0, -12(%rbp)
	jne	.LBB29_27
# %bb.25:                               # %land.lhs.true112
	xorl	%eax, %eax
	movq	enc_picture, %rcx
	movq	6504(%rcx), %rcx
	movq	(%rcx), %rcx
	movslq	-96(%rbp), %rdx
	movq	(%rcx,%rdx,8), %rcx
	movslq	-92(%rbp), %rdx
	movq	(%rcx,%rdx,8), %rcx
	movswl	(%rcx), %ecx
	cmpl	$0, %ecx
	jne	.LBB29_27
# %bb.26:                               # %land.rhs125
	cmpl	$0, -20(%rbp)
	sete	%al
.LBB29_27:                              # %land.end128
	xorl	%ecx, %ecx
	testb	$1, %al
	movl	$1, %eax
	cmovnel	%eax, %ecx
.LBB29_28:                              # %cond.end130
	movl	%ecx, -60(%rbp)
	cmpl	$0, -60(%rbp)
	jne	.LBB29_30
# %bb.29:                               # %lor.lhs.false
	cmpl	$0, -52(%rbp)
	je	.LBB29_39
.LBB29_30:                              # %if.then134
	movl	$0, -4(%rbp)
.LBB29_31:                              # %for.cond
                                        # =>This Loop Header: Depth=1
                                        #     Child Loop BB29_33 Depth 2
	cmpl	$4, -4(%rbp)
	jge	.LBB29_38
# %bb.32:                               # %for.body
                                        #   in Loop: Header=BB29_31 Depth=1
	movl	$0, -8(%rbp)
.LBB29_33:                              # %for.cond137
                                        #   Parent Loop BB29_31 Depth=1
                                        # =>  This Inner Loop Header: Depth=2
	cmpl	$4, -8(%rbp)
	jge	.LBB29_36
# %bb.34:                               # %for.body140
                                        #   in Loop: Header=BB29_33 Depth=2
	movq	-48(%rbp), %rax
	movslq	-8(%rbp), %rcx
	movq	(%rax,%rcx,8), %rax
	movslq	-4(%rbp), %rcx
	movq	(%rax,%rcx,8), %rax
	movq	(%rax), %rax
	movq	(%rax), %rax
	movq	(%rax), %rax
	movw	$0, (%rax)
	movq	-48(%rbp), %rax
	movslq	-8(%rbp), %rcx
	movq	(%rax,%rcx,8), %rax
	movslq	-4(%rbp), %rcx
	movq	(%rax,%rcx,8), %rax
	movq	(%rax), %rax
	movq	(%rax), %rax
	movq	(%rax), %rax
	movw	$0, 2(%rax)
# %bb.35:                               # %for.inc
                                        #   in Loop: Header=BB29_33 Depth=2
	movl	-8(%rbp), %eax
	addl	$1, %eax
	movl	%eax, -8(%rbp)
	jmp	.LBB29_33
.LBB29_36:                              # %for.end
                                        #   in Loop: Header=BB29_31 Depth=1
	jmp	.LBB29_37
.LBB29_37:                              # %for.inc157
                                        #   in Loop: Header=BB29_31 Depth=1
	movl	-4(%rbp), %eax
	addl	$1, %eax
	movl	%eax, -4(%rbp)
	jmp	.LBB29_31
.LBB29_38:                              # %for.end159
	jmp	.LBB29_48
.LBB29_39:                              # %if.else
	leaq	-28(%rbp), %rdi
	movq	enc_picture, %rax
	movq	6480(%rax), %rsi
	movq	enc_picture, %rax
	movq	6504(%rax), %rdx
	movl	$0, %ecx
	movl	$0, %r8d
	xorl	%r9d, %r9d
	movl	$0, (%rsp)
	movl	$16, 8(%rsp)
	movl	$16, 16(%rsp)
	callq	SetMotionVectorPredictor
	movl	$0, -4(%rbp)
.LBB29_40:                              # %for.cond162
                                        # =>This Loop Header: Depth=1
                                        #     Child Loop BB29_42 Depth 2
	cmpl	$4, -4(%rbp)
	jge	.LBB29_47
# %bb.41:                               # %for.body165
                                        #   in Loop: Header=BB29_40 Depth=1
	movl	$0, -8(%rbp)
.LBB29_42:                              # %for.cond166
                                        #   Parent Loop BB29_40 Depth=1
                                        # =>  This Inner Loop Header: Depth=2
	cmpl	$4, -8(%rbp)
	jge	.LBB29_45
# %bb.43:                               # %for.body169
                                        #   in Loop: Header=BB29_42 Depth=2
	movw	-28(%rbp), %ax
	movq	-48(%rbp), %rcx
	movslq	-8(%rbp), %rdx
	movq	(%rcx,%rdx,8), %rcx
	movslq	-4(%rbp), %rdx
	movq	(%rcx,%rdx,8), %rcx
	movq	(%rcx), %rcx
	movq	(%rcx), %rcx
	movq	(%rcx), %rcx
	movw	%ax, (%rcx)
	movw	-26(%rbp), %ax
	movq	-48(%rbp), %rcx
	movslq	-8(%rbp), %rdx
	movq	(%rcx,%rdx,8), %rcx
	movslq	-4(%rbp), %rdx
	movq	(%rcx,%rdx,8), %rcx
	movq	(%rcx), %rcx
	movq	(%rcx), %rcx
	movq	(%rcx), %rcx
	movw	%ax, 2(%rcx)
# %bb.44:                               # %for.inc188
                                        #   in Loop: Header=BB29_42 Depth=2
	movl	-8(%rbp), %eax
	addl	$1, %eax
	movl	%eax, -8(%rbp)
	jmp	.LBB29_42
.LBB29_45:                              # %for.end190
                                        #   in Loop: Header=BB29_40 Depth=1
	jmp	.LBB29_46
.LBB29_46:                              # %for.inc191
                                        #   in Loop: Header=BB29_40 Depth=1
	movl	-4(%rbp), %eax
	addl	$1, %eax
	movl	%eax, -4(%rbp)
	jmp	.LBB29_40
.LBB29_47:                              # %for.end193
	jmp	.LBB29_48
.LBB29_48:                              # %if.end194
	cmpl	$1990630935, -56(%rbp)  # imm = 0x76A69E17
	jne	.LBB29_50
.LBB29_49:
	addq	$144, %rsp
	popq	%rbp
	.cfi_def_cfa %rsp, 8
	retq
.LBB29_50:                              # %func_exit
	.cfi_def_cfa %rbp, 16
	callq	detect_breach
	jmp	.LBB29_49
.Lfunc_end29:
	.size	FindSkipModeMotionVector.4, .Lfunc_end29-FindSkipModeMotionVector.4
	.cfi_endproc
                                        # -- End function
	.section	.rodata.cst8,"aM",@progbits,8
	.p2align	3               # -- Begin function Init_Motion_Search_Module.5
.LCPI30_0:
	.quad	4457293557087583675     # double 1.0E-10
.LCPI30_1:
	.quad	4611686018427387904     # double 2
	.text
	.globl	Init_Motion_Search_Module.5
	.p2align	4, 0x90
	.type	Init_Motion_Search_Module.5,@function
Init_Motion_Search_Module.5:            # @Init_Motion_Search_Module.5
	.cfi_startproc
# %bb.0:                                # %entry
	pushq	%rbp
	.cfi_def_cfa_offset 16
	.cfi_offset %rbp, -16
	movq	%rsp, %rbp
	.cfi_def_cfa_register %rbp
	subq	$80, %rsp
	movl	$1685875417, -60(%rbp)  # imm = 0x647C6AD9
	movq	img, %rax
	movl	72684(%rax), %eax
	movq	img, %rcx
	cmpl	72688(%rcx), %eax
	jle	.LBB30_2
# %bb.1:                                # %cond.true
	movq	img, %rax
	movl	72684(%rax), %eax
	addl	$1, %eax
	shll	$1, %eax
	jmp	.LBB30_3
.LBB30_2:                               # %cond.false
	movq	img, %rax
	movl	72688(%rax), %eax
	addl	$1, %eax
	shll	$1, %eax
.LBB30_3:                               # %cond.end
	movl	%eax, -28(%rbp)
	movq	input, %rax
	movl	32(%rax), %eax
	movl	%eax, -20(%rbp)
	movq	img, %rax
	movl	36(%rax), %eax
	movl	%eax, -36(%rbp)
	movl	-20(%rbp), %eax
	shll	$1, %eax
	addl	$1, %eax
	movl	-20(%rbp), %ecx
	shll	$1, %ecx
	addl	$1, %ecx
	imull	%ecx, %eax
	movl	$9, %ecx
	cmpl	%eax, %ecx
	jle	.LBB30_5
# %bb.4:                                # %cond.true12
	movl	$9, %eax
	jmp	.LBB30_6
.LBB30_5:                               # %cond.false13
	movl	-20(%rbp), %eax
	shll	$1, %eax
	addl	$1, %eax
	movl	-20(%rbp), %ecx
	shll	$1, %ecx
	addl	$1, %ecx
	imull	%ecx, %eax
.LBB30_6:                               # %cond.end19
	movl	%eax, -44(%rbp)
	movl	-36(%rbp), %eax
	addl	$1, %eax
	movl	$16, %ecx
	cmpl	%eax, %ecx
	jle	.LBB30_8
# %bb.7:                                # %cond.true23
	movl	$16, %eax
	jmp	.LBB30_9
.LBB30_8:                               # %cond.false24
	movl	-36(%rbp), %eax
	addl	$1, %eax
.LBB30_9:                               # %cond.end26
	vcvtsi2sd	%eax, %xmm0, %xmm0
	callq	log
	vmovsd	%xmm0, -72(%rbp)        # 8-byte Spill
	vmovsd	.LCPI30_1(%rip), %xmm0  # xmm0 = mem[0],zero
	callq	log
	vmovsd	.LCPI30_0(%rip), %xmm1  # xmm1 = mem[0],zero
	vmovsd	-72(%rbp), %xmm2        # 8-byte Reload
                                        # xmm2 = mem[0],zero
	vdivsd	%xmm0, %xmm2, %xmm0
	vaddsd	%xmm1, %xmm0, %xmm0
	vroundsd	$9, %xmm0, %xmm0, %xmm0
	vcvttsd2si	%xmm0, %eax
	shll	$1, %eax
	addl	$1, %eax
	movl	%eax, -48(%rbp)
	movl	-48(%rbp), %ecx
	sarl	$1, %ecx
	addl	$1, %ecx
                                        # kill: def $cl killed $ecx
	movl	$1, %eax
	shll	%cl, %eax
	subl	$1, %eax
	movl	%eax, -52(%rbp)
	movl	-20(%rbp), %eax
	shll	$1, %eax
	addl	$3, %eax
	shll	$2, %eax
	movl	%eax, -56(%rbp)
	movl	-56(%rbp), %eax
	addl	$1, %eax
	vcvtsi2sd	%eax, %xmm0, %xmm0
	callq	log
	vmovsd	%xmm0, -80(%rbp)        # 8-byte Spill
	vmovsd	.LCPI30_1(%rip), %xmm0  # xmm0 = mem[0],zero
	callq	log
	vmovsd	.LCPI30_0(%rip), %xmm1  # xmm1 = mem[0],zero
	vmovsd	-80(%rbp), %xmm2        # 8-byte Reload
                                        # xmm2 = mem[0],zero
	vdivsd	%xmm0, %xmm2, %xmm0
	vaddsd	%xmm1, %xmm0, %xmm0
	vroundsd	$10, %xmm0, %xmm0, %xmm0
	vcvttsd2si	%xmm0, %eax
	shll	$1, %eax
	addl	$3, %eax
	movl	%eax, -40(%rbp)
	movl	-40(%rbp), %ecx
	sarl	$1, %ecx
                                        # kill: def $cl killed $ecx
	movl	$1, %eax
	shll	%cl, %eax
	subl	$1, %eax
	movl	%eax, max_mvd
	movslq	-44(%rbp), %rdi
	movl	$4, %esi
	callq	calloc
	movq	%rax, spiral_search_x
	cmpq	$0, %rax
	jne	.LBB30_11
# %bb.10:                               # %if.then
	movabsq	$.L.str.6, %rdi
	callq	no_mem_exit
.LBB30_11:                              # %if.end
	movslq	-44(%rbp), %rdi
	movl	$4, %esi
	callq	calloc
	movq	%rax, spiral_search_y
	cmpq	$0, %rax
	jne	.LBB30_13
# %bb.12:                               # %if.then57
	movabsq	$.L.str.7, %rdi
	callq	no_mem_exit
.LBB30_13:                              # %if.end58
	movl	max_mvd, %eax
	shll	$1, %eax
	addl	$1, %eax
	movslq	%eax, %rdi
	movl	$4, %esi
	callq	calloc
	movq	%rax, mvbits
	cmpq	$0, %rax
	jne	.LBB30_15
# %bb.14:                               # %if.then65
	movabsq	$.L.str.8, %rdi
	callq	no_mem_exit
.LBB30_15:                              # %if.end66
	movslq	-52(%rbp), %rdi
	movl	$4, %esi
	callq	calloc
	movq	%rax, refbits
	cmpq	$0, %rax
	jne	.LBB30_17
# %bb.16:                               # %if.then71
	movabsq	$.L.str.9, %rdi
	callq	no_mem_exit
.LBB30_17:                              # %if.end72
	movslq	-28(%rbp), %rdi
	movl	$4, %esi
	callq	calloc
	movq	%rax, byte_abs
	cmpq	$0, %rax
	jne	.LBB30_19
# %bb.18:                               # %if.then77
	movabsq	$.L.str.10, %rdi
	callq	no_mem_exit
.LBB30_19:                              # %if.end78
	movq	img, %rax
	movl	36(%rax), %ecx
	addl	$1, %ecx
	movabsq	$motion_cost, %rdi
	movl	$8, %esi
	movl	$2, %edx
	movl	$4, %r8d
	callq	get_mem4Dint
	movl	max_mvd, %eax
	movq	mvbits, %rcx
	cltq
	shlq	$2, %rax
	addq	%rax, %rcx
	movq	%rcx, mvbits
	movl	-28(%rbp), %eax
	cltd
	movl	$2, %ecx
	idivl	%ecx
	movq	byte_abs, %rcx
	cltq
	shlq	$2, %rax
	addq	%rax, %rcx
	movq	%rcx, byte_abs
	movq	mvbits, %rax
	movl	$1, (%rax)
	movl	$3, -16(%rbp)
.LBB30_20:                              # %for.cond
                                        # =>This Loop Header: Depth=1
                                        #     Child Loop BB30_22 Depth 2
	movl	-16(%rbp), %eax
	cmpl	-40(%rbp), %eax
	jg	.LBB30_27
# %bb.21:                               # %for.body
                                        #   in Loop: Header=BB30_20 Depth=1
	movl	-16(%rbp), %ecx
	sarl	$1, %ecx
                                        # kill: def $cl killed $ecx
	movl	$1, %eax
	shll	%cl, %eax
	movl	%eax, -24(%rbp)
	movl	-24(%rbp), %eax
	sarl	$1, %eax
	movl	%eax, -32(%rbp)
	movl	-32(%rbp), %eax
	movl	%eax, -4(%rbp)
.LBB30_22:                              # %for.cond90
                                        #   Parent Loop BB30_20 Depth=1
                                        # =>  This Inner Loop Header: Depth=2
	movl	-4(%rbp), %eax
	cmpl	-24(%rbp), %eax
	jge	.LBB30_25
# %bb.23:                               # %for.body93
                                        #   in Loop: Header=BB30_22 Depth=2
	xorl	%eax, %eax
	movl	-16(%rbp), %ecx
	movq	mvbits, %rdx
	movslq	-4(%rbp), %rsi
	movl	%ecx, (%rdx,%rsi,4)
	movq	mvbits, %rdx
	subl	-4(%rbp), %eax
	cltq
	movl	%ecx, (%rdx,%rax,4)
# %bb.24:                               # %for.inc
                                        #   in Loop: Header=BB30_22 Depth=2
	movl	-4(%rbp), %eax
	addl	$1, %eax
	movl	%eax, -4(%rbp)
	jmp	.LBB30_22
.LBB30_25:                              # %for.end
                                        #   in Loop: Header=BB30_20 Depth=1
	jmp	.LBB30_26
.LBB30_26:                              # %for.inc98
                                        #   in Loop: Header=BB30_20 Depth=1
	movl	-16(%rbp), %eax
	addl	$2, %eax
	movl	%eax, -16(%rbp)
	jmp	.LBB30_20
.LBB30_27:                              # %for.end100
	movq	refbits, %rax
	movl	$1, (%rax)
	movl	$3, -16(%rbp)
.LBB30_28:                              # %for.cond102
                                        # =>This Loop Header: Depth=1
                                        #     Child Loop BB30_30 Depth 2
	movl	-16(%rbp), %eax
	cmpl	-48(%rbp), %eax
	jg	.LBB30_35
# %bb.29:                               # %for.body105
                                        #   in Loop: Header=BB30_28 Depth=1
	movl	-16(%rbp), %ecx
	sarl	$1, %ecx
	addl	$1, %ecx
                                        # kill: def $cl killed $ecx
	movl	$1, %eax
	shll	%cl, %eax
	subl	$1, %eax
	movl	%eax, -24(%rbp)
	movl	-24(%rbp), %eax
	sarl	$1, %eax
	movl	%eax, -32(%rbp)
	movl	-32(%rbp), %eax
	movl	%eax, -4(%rbp)
.LBB30_30:                              # %for.cond111
                                        #   Parent Loop BB30_28 Depth=1
                                        # =>  This Inner Loop Header: Depth=2
	movl	-4(%rbp), %eax
	cmpl	-24(%rbp), %eax
	jge	.LBB30_33
# %bb.31:                               # %for.body114
                                        #   in Loop: Header=BB30_30 Depth=2
	movl	-16(%rbp), %eax
	movq	refbits, %rcx
	movslq	-4(%rbp), %rdx
	movl	%eax, (%rcx,%rdx,4)
# %bb.32:                               # %for.inc117
                                        #   in Loop: Header=BB30_30 Depth=2
	movl	-4(%rbp), %eax
	addl	$1, %eax
	movl	%eax, -4(%rbp)
	jmp	.LBB30_30
.LBB30_33:                              # %for.end119
                                        #   in Loop: Header=BB30_28 Depth=1
	jmp	.LBB30_34
.LBB30_34:                              # %for.inc120
                                        #   in Loop: Header=BB30_28 Depth=1
	movl	-16(%rbp), %eax
	addl	$2, %eax
	movl	%eax, -16(%rbp)
	jmp	.LBB30_28
.LBB30_35:                              # %for.end122
	movq	byte_abs, %rax
	movl	$0, (%rax)
	movl	$1, -4(%rbp)
.LBB30_36:                              # %for.cond124
                                        # =>This Inner Loop Header: Depth=1
	movl	-4(%rbp), %ecx
	movl	-28(%rbp), %eax
	cltd
	movl	$2, %esi
	idivl	%esi
	cmpl	%eax, %ecx
	jge	.LBB30_39
# %bb.37:                               # %for.body128
                                        #   in Loop: Header=BB30_36 Depth=1
	xorl	%eax, %eax
	movl	-4(%rbp), %ecx
	movq	byte_abs, %rdx
	subl	-4(%rbp), %eax
	cltq
	movl	%ecx, (%rdx,%rax,4)
	movq	byte_abs, %rax
	movslq	-4(%rbp), %rdx
	movl	%ecx, (%rax,%rdx,4)
# %bb.38:                               # %for.inc134
                                        #   in Loop: Header=BB30_36 Depth=1
	movl	-4(%rbp), %eax
	addl	$1, %eax
	movl	%eax, -4(%rbp)
	jmp	.LBB30_36
.LBB30_39:                              # %for.end136
	movq	spiral_search_y, %rax
	movl	$0, (%rax)
	movq	spiral_search_x, %rax
	movl	$0, (%rax)
	movl	$1, -8(%rbp)
	movl	$1, -12(%rbp)
.LBB30_40:                              # %for.cond139
                                        # =>This Loop Header: Depth=1
                                        #     Child Loop BB30_45 Depth 2
                                        #     Child Loop BB30_49 Depth 2
	movl	-12(%rbp), %eax
	movl	$1, %ecx
	cmpl	-20(%rbp), %ecx
	jle	.LBB30_42
# %bb.41:                               # %cond.true142
                                        #   in Loop: Header=BB30_40 Depth=1
	movl	$1, %ecx
	jmp	.LBB30_43
.LBB30_42:                              # %cond.false143
                                        #   in Loop: Header=BB30_40 Depth=1
	movl	-20(%rbp), %ecx
.LBB30_43:                              # %cond.end144
                                        #   in Loop: Header=BB30_40 Depth=1
	cmpl	%ecx, %eax
	jg	.LBB30_54
# %bb.44:                               # %for.body148
                                        #   in Loop: Header=BB30_40 Depth=1
	xorl	%eax, %eax
	subl	-12(%rbp), %eax
	addl	$1, %eax
	movl	%eax, -4(%rbp)
.LBB30_45:                              # %for.cond151
                                        #   Parent Loop BB30_40 Depth=1
                                        # =>  This Inner Loop Header: Depth=2
	movl	-4(%rbp), %eax
	cmpl	-12(%rbp), %eax
	jge	.LBB30_48
# %bb.46:                               # %for.body154
                                        #   in Loop: Header=BB30_45 Depth=2
	xorl	%eax, %eax
	movl	-4(%rbp), %ecx
	movq	spiral_search_x, %rdx
	movslq	-8(%rbp), %rsi
	movl	%ecx, (%rdx,%rsi,4)
	subl	-12(%rbp), %eax
	movq	spiral_search_y, %rcx
	movl	-8(%rbp), %edx
	movl	%edx, %esi
	addl	$1, %esi
	movl	%esi, -8(%rbp)
	movslq	%edx, %rdx
	movl	%eax, (%rcx,%rdx,4)
	movl	-4(%rbp), %eax
	movq	spiral_search_x, %rcx
	movslq	-8(%rbp), %rdx
	movl	%eax, (%rcx,%rdx,4)
	movl	-12(%rbp), %eax
	movq	spiral_search_y, %rcx
	movl	-8(%rbp), %edx
	movl	%edx, %esi
	addl	$1, %esi
	movl	%esi, -8(%rbp)
	movslq	%edx, %rdx
	movl	%eax, (%rcx,%rdx,4)
# %bb.47:                               # %for.inc166
                                        #   in Loop: Header=BB30_45 Depth=2
	movl	-4(%rbp), %eax
	addl	$1, %eax
	movl	%eax, -4(%rbp)
	jmp	.LBB30_45
.LBB30_48:                              # %for.end168
                                        #   in Loop: Header=BB30_40 Depth=1
	xorl	%eax, %eax
	subl	-12(%rbp), %eax
	movl	%eax, -4(%rbp)
.LBB30_49:                              # %for.cond170
                                        #   Parent Loop BB30_40 Depth=1
                                        # =>  This Inner Loop Header: Depth=2
	movl	-4(%rbp), %eax
	cmpl	-12(%rbp), %eax
	jg	.LBB30_52
# %bb.50:                               # %for.body173
                                        #   in Loop: Header=BB30_49 Depth=2
	xorl	%eax, %eax
	subl	-12(%rbp), %eax
	movq	spiral_search_x, %rcx
	movslq	-8(%rbp), %rdx
	movl	%eax, (%rcx,%rdx,4)
	movl	-4(%rbp), %eax
	movq	spiral_search_y, %rcx
	movl	-8(%rbp), %edx
	movl	%edx, %esi
	addl	$1, %esi
	movl	%esi, -8(%rbp)
	movslq	%edx, %rdx
	movl	%eax, (%rcx,%rdx,4)
	movl	-12(%rbp), %eax
	movq	spiral_search_x, %rcx
	movslq	-8(%rbp), %rdx
	movl	%eax, (%rcx,%rdx,4)
	movl	-4(%rbp), %eax
	movq	spiral_search_y, %rcx
	movl	-8(%rbp), %edx
	movl	%edx, %esi
	addl	$1, %esi
	movl	%esi, -8(%rbp)
	movslq	%edx, %rdx
	movl	%eax, (%rcx,%rdx,4)
# %bb.51:                               # %for.inc185
                                        #   in Loop: Header=BB30_49 Depth=2
	movl	-4(%rbp), %eax
	addl	$1, %eax
	movl	%eax, -4(%rbp)
	jmp	.LBB30_49
.LBB30_52:                              # %for.end187
                                        #   in Loop: Header=BB30_40 Depth=1
	jmp	.LBB30_53
.LBB30_53:                              # %for.inc188
                                        #   in Loop: Header=BB30_40 Depth=1
	movl	-12(%rbp), %eax
	addl	$1, %eax
	movl	%eax, -12(%rbp)
	jmp	.LBB30_40
.LBB30_54:                              # %for.end190
	movq	input, %rax
	cmpl	$0, 3292(%rax)
	jne	.LBB30_56
# %bb.55:                               # %if.then191
	callq	InitializeFastFullIntegerSearch
.LBB30_56:                              # %if.end192
	cmpl	$1685875417, -60(%rbp)  # imm = 0x647C6AD9
	jne	.LBB30_58
.LBB30_57:
	addq	$80, %rsp
	popq	%rbp
	.cfi_def_cfa %rsp, 8
	retq
.LBB30_58:                              # %func_exit
	.cfi_def_cfa %rbp, 16
	callq	detect_breach
	jmp	.LBB30_57
.Lfunc_end30:
	.size	Init_Motion_Search_Module.5, .Lfunc_end30-Init_Motion_Search_Module.5
	.cfi_endproc
                                        # -- End function
	.globl	BIDPartitionCost.6      # -- Begin function BIDPartitionCost.6
	.p2align	4, 0x90
	.type	BIDPartitionCost.6,@function
BIDPartitionCost.6:                     # @BIDPartitionCost.6
	.cfi_startproc
# %bb.0:                                # %entry
	pushq	%rbp
	.cfi_def_cfa_offset 16
	.cfi_offset %rbp, -16
	movq	%rsp, %rbp
	.cfi_def_cfa_register %rbp
	pushq	%rbx
	subq	$1416, %rsp             # imm = 0x588
	.cfi_offset %rbx, -24
	movl	$1033161448, -128(%rbp) # imm = 0x3D94CAE8
	movl	%edi, -12(%rbp)
	movl	%esi, -44(%rbp)
	movw	%dx, -36(%rbp)
	movw	%cx, -34(%rbp)
	movl	%r8d, -104(%rbp)
	movq	input, %rax
	movslq	-12(%rbp), %rcx
	cmpl	$8, 80(%rax,%rcx,8)
	jge	.LBB31_2
# %bb.1:                                # %cond.true
	movq	input, %rax
	movslq	-12(%rbp), %rcx
	movl	80(%rax,%rcx,8), %eax
	jmp	.LBB31_3
.LBB31_2:                               # %cond.false
	movl	$8, %eax
	jmp	.LBB31_3
.LBB31_3:                               # %cond.end
	movl	%eax, -108(%rbp)
	movq	input, %rax
	movslq	-12(%rbp), %rcx
	cmpl	$8, 84(%rax,%rcx,8)
	jge	.LBB31_5
# %bb.4:                                # %cond.true11
	movq	input, %rax
	movslq	-12(%rbp), %rcx
	movl	84(%rax,%rcx,8), %eax
	jmp	.LBB31_6
.LBB31_5:                               # %cond.false16
	movl	$8, %eax
	jmp	.LBB31_6
.LBB31_6:                               # %cond.end17
	movl	%eax, -116(%rbp)
	movl	$0, -40(%rbp)
	cmpl	$4, -12(%rbp)
	jge	.LBB31_8
# %bb.7:                                # %cond.true20
	movl	-12(%rbp), %eax
	jmp	.LBB31_9
.LBB31_8:                               # %cond.false21
	movl	$4, %eax
	jmp	.LBB31_9
.LBB31_9:                               # %cond.end22
	movl	%eax, -24(%rbp)
	movq	input, %rax
	movslq	-24(%rbp), %rcx
	movl	144(%rax,%rcx,8), %eax
	movl	%eax, -68(%rbp)
	movq	input, %rax
	movslq	-24(%rbp), %rcx
	movl	148(%rax,%rcx,8), %eax
	movl	%eax, -64(%rbp)
	movq	input, %rax
	movslq	-12(%rbp), %rcx
	movl	144(%rax,%rcx,8), %eax
	movl	%eax, -120(%rbp)
	movq	input, %rax
	movslq	-12(%rbp), %rcx
	movl	148(%rax,%rcx,8), %eax
	movl	%eax, -112(%rbp)
	movq	img, %rax
	movq	71928(%rax), %rax
	movq	%rax, -88(%rbp)
	movq	img, %rax
	movq	71920(%rax), %rax
	movq	%rax, -96(%rbp)
	movslq	-24(%rbp), %rax
	shlq	$4, %rax
	movabsq	$BIDPartitionCost.by0, %rcx
	addq	%rax, %rcx
	movslq	-44(%rbp), %rax
	movl	(%rcx,%rax,4), %eax
	movl	%eax, -16(%rbp)
.LBB31_10:                              # %for.cond
                                        # =>This Loop Header: Depth=1
                                        #     Child Loop BB31_12 Depth 2
	movl	-16(%rbp), %eax
	movslq	-24(%rbp), %rcx
	shlq	$4, %rcx
	movabsq	$BIDPartitionCost.by0, %rdx
	addq	%rcx, %rdx
	movslq	-44(%rbp), %rcx
	movl	(%rdx,%rcx,4), %ecx
	addl	-64(%rbp), %ecx
	cmpl	%ecx, %eax
	jge	.LBB31_17
# %bb.11:                               # %for.body
                                        #   in Loop: Header=BB31_10 Depth=1
	movslq	-24(%rbp), %rax
	shlq	$4, %rax
	movabsq	$BIDPartitionCost.bx0, %rcx
	addq	%rax, %rcx
	movslq	-44(%rbp), %rax
	movl	(%rcx,%rax,4), %eax
	movl	%eax, -20(%rbp)
.LBB31_12:                              # %for.cond53
                                        #   Parent Loop BB31_10 Depth=1
                                        # =>  This Inner Loop Header: Depth=2
	movl	-20(%rbp), %eax
	movslq	-24(%rbp), %rcx
	shlq	$4, %rcx
	movabsq	$BIDPartitionCost.bx0, %rdx
	addq	%rcx, %rdx
	movslq	-44(%rbp), %rcx
	movl	(%rdx,%rcx,4), %ecx
	addl	-68(%rbp), %ecx
	cmpl	%ecx, %eax
	jge	.LBB31_15
# %bb.13:                               # %for.body60
                                        #   in Loop: Header=BB31_12 Depth=2
	movq	mvbits, %rax
	movq	-88(%rbp), %rcx
	movslq	-20(%rbp), %rdx
	movq	(%rcx,%rdx,8), %rcx
	movslq	-16(%rbp), %rdx
	movq	(%rcx,%rdx,8), %rcx
	movq	(%rcx), %rcx
	movswq	-36(%rbp), %rdx
	movq	(%rcx,%rdx,8), %rcx
	movslq	-12(%rbp), %rdx
	movq	(%rcx,%rdx,8), %rcx
	movswl	(%rcx), %ecx
	movq	-96(%rbp), %rdx
	movslq	-20(%rbp), %rsi
	movq	(%rdx,%rsi,8), %rdx
	movslq	-16(%rbp), %rsi
	movq	(%rdx,%rsi,8), %rdx
	movq	(%rdx), %rdx
	movswq	-36(%rbp), %rsi
	movq	(%rdx,%rsi,8), %rdx
	movslq	-12(%rbp), %rsi
	movq	(%rdx,%rsi,8), %rdx
	movswl	(%rdx), %edx
	subl	%edx, %ecx
	movslq	%ecx, %rcx
	movl	(%rax,%rcx,4), %eax
	addl	-40(%rbp), %eax
	movl	%eax, -40(%rbp)
	movq	mvbits, %rax
	movq	-88(%rbp), %rcx
	movslq	-20(%rbp), %rdx
	movq	(%rcx,%rdx,8), %rcx
	movslq	-16(%rbp), %rdx
	movq	(%rcx,%rdx,8), %rcx
	movq	(%rcx), %rcx
	movswq	-36(%rbp), %rdx
	movq	(%rcx,%rdx,8), %rcx
	movslq	-12(%rbp), %rdx
	movq	(%rcx,%rdx,8), %rcx
	movswl	2(%rcx), %ecx
	movq	-96(%rbp), %rdx
	movslq	-20(%rbp), %rsi
	movq	(%rdx,%rsi,8), %rdx
	movslq	-16(%rbp), %rsi
	movq	(%rdx,%rsi,8), %rdx
	movq	(%rdx), %rdx
	movswq	-36(%rbp), %rsi
	movq	(%rdx,%rsi,8), %rdx
	movslq	-12(%rbp), %rsi
	movq	(%rdx,%rsi,8), %rdx
	movswl	2(%rdx), %edx
	subl	%edx, %ecx
	movslq	%ecx, %rcx
	movl	(%rax,%rcx,4), %eax
	addl	-40(%rbp), %eax
	movl	%eax, -40(%rbp)
	movq	mvbits, %rax
	movq	-88(%rbp), %rcx
	movslq	-20(%rbp), %rdx
	movq	(%rcx,%rdx,8), %rcx
	movslq	-16(%rbp), %rdx
	movq	(%rcx,%rdx,8), %rcx
	movq	8(%rcx), %rcx
	movswq	-34(%rbp), %rdx
	movq	(%rcx,%rdx,8), %rcx
	movslq	-12(%rbp), %rdx
	movq	(%rcx,%rdx,8), %rcx
	movswl	(%rcx), %ecx
	movq	-96(%rbp), %rdx
	movslq	-20(%rbp), %rsi
	movq	(%rdx,%rsi,8), %rdx
	movslq	-16(%rbp), %rsi
	movq	(%rdx,%rsi,8), %rdx
	movq	8(%rdx), %rdx
	movswq	-34(%rbp), %rsi
	movq	(%rdx,%rsi,8), %rdx
	movslq	-12(%rbp), %rsi
	movq	(%rdx,%rsi,8), %rdx
	movswl	(%rdx), %edx
	subl	%edx, %ecx
	movslq	%ecx, %rcx
	movl	(%rax,%rcx,4), %eax
	addl	-40(%rbp), %eax
	movl	%eax, -40(%rbp)
	movq	mvbits, %rax
	movq	-88(%rbp), %rcx
	movslq	-20(%rbp), %rdx
	movq	(%rcx,%rdx,8), %rcx
	movslq	-16(%rbp), %rdx
	movq	(%rcx,%rdx,8), %rcx
	movq	8(%rcx), %rcx
	movswq	-34(%rbp), %rdx
	movq	(%rcx,%rdx,8), %rcx
	movslq	-12(%rbp), %rdx
	movq	(%rcx,%rdx,8), %rcx
	movswl	2(%rcx), %ecx
	movq	-96(%rbp), %rdx
	movslq	-20(%rbp), %rsi
	movq	(%rdx,%rsi,8), %rdx
	movslq	-16(%rbp), %rsi
	movq	(%rdx,%rsi,8), %rdx
	movq	8(%rdx), %rdx
	movswq	-34(%rbp), %rsi
	movq	(%rdx,%rsi,8), %rdx
	movslq	-12(%rbp), %rsi
	movq	(%rdx,%rsi,8), %rdx
	movswl	2(%rdx), %edx
	subl	%edx, %ecx
	movslq	%ecx, %rcx
	movl	(%rax,%rcx,4), %eax
	addl	-40(%rbp), %eax
	movl	%eax, -40(%rbp)
# %bb.14:                               # %for.inc
                                        #   in Loop: Header=BB31_12 Depth=2
	movl	-120(%rbp), %eax
	addl	-20(%rbp), %eax
	movl	%eax, -20(%rbp)
	jmp	.LBB31_12
.LBB31_15:                              # %for.end
                                        #   in Loop: Header=BB31_10 Depth=1
	jmp	.LBB31_16
.LBB31_16:                              # %for.inc164
                                        #   in Loop: Header=BB31_10 Depth=1
	movl	-112(%rbp), %eax
	addl	-16(%rbp), %eax
	movl	%eax, -16(%rbp)
	jmp	.LBB31_10
.LBB31_17:                              # %for.end166
	movl	-104(%rbp), %eax
	imull	-40(%rbp), %eax
	sarl	$16, %eax
	movl	%eax, -60(%rbp)
	movl	$0, -52(%rbp)
	movslq	-24(%rbp), %rax
	shlq	$4, %rax
	movabsq	$BIDPartitionCost.by0, %rcx
	addq	%rax, %rcx
	movslq	-44(%rbp), %rax
	movl	(%rcx,%rax,4), %eax
	movl	%eax, -16(%rbp)
.LBB31_18:                              # %for.cond171
                                        # =>This Loop Header: Depth=1
                                        #     Child Loop BB31_20 Depth 2
                                        #       Child Loop BB31_22 Depth 3
                                        #         Child Loop BB31_24 Depth 4
	movl	-16(%rbp), %eax
	movslq	-24(%rbp), %rcx
	shlq	$4, %rcx
	movabsq	$BIDPartitionCost.by0, %rdx
	addq	%rcx, %rdx
	movslq	-44(%rbp), %rcx
	movl	(%rdx,%rcx,4), %ecx
	addl	-64(%rbp), %ecx
	cmpl	%ecx, %eax
	jge	.LBB31_36
# %bb.19:                               # %for.body179
                                        #   in Loop: Header=BB31_18 Depth=1
	movq	img, %rax
	movl	172(%rax), %eax
	movl	-16(%rbp), %ecx
	shll	$2, %ecx
	movl	%ecx, -76(%rbp)
	addl	%ecx, %eax
	movl	%eax, -100(%rbp)
	movl	$0, -48(%rbp)
	movslq	-24(%rbp), %rax
	shlq	$4, %rax
	movabsq	$BIDPartitionCost.bx0, %rcx
	addq	%rax, %rcx
	movslq	-44(%rbp), %rax
	movl	(%rcx,%rax,4), %eax
	movl	%eax, -20(%rbp)
.LBB31_20:                              # %for.cond185
                                        #   Parent Loop BB31_18 Depth=1
                                        # =>  This Loop Header: Depth=2
                                        #       Child Loop BB31_22 Depth 3
                                        #         Child Loop BB31_24 Depth 4
	movl	-20(%rbp), %eax
	movslq	-24(%rbp), %rcx
	shlq	$4, %rcx
	movabsq	$BIDPartitionCost.bx0, %rdx
	addq	%rcx, %rdx
	movslq	-44(%rbp), %rcx
	movl	(%rdx,%rcx,4), %ecx
	addl	-68(%rbp), %ecx
	cmpl	%ecx, %eax
	jge	.LBB31_34
# %bb.21:                               # %for.body193
                                        #   in Loop: Header=BB31_20 Depth=2
	movq	img, %rax
	movl	168(%rax), %eax
	movl	-20(%rbp), %ecx
	shll	$2, %ecx
	movl	%ecx, -72(%rbp)
	addl	%ecx, %eax
	movl	%eax, -124(%rbp)
	movl	-72(%rbp), %edi
	movl	-76(%rbp), %esi
	movl	-12(%rbp), %ecx
	movl	-12(%rbp), %r8d
	movw	-36(%rbp), %ax
	movl	$2, %edx
	movswl	%ax, %r9d
	movswl	-34(%rbp), %eax
	movl	%eax, (%rsp)
	callq	LumaPrediction4x4
	movl	$0, -28(%rbp)
	movl	$0, -56(%rbp)
.LBB31_22:                              # %for.cond196
                                        #   Parent Loop BB31_18 Depth=1
                                        #     Parent Loop BB31_20 Depth=2
                                        # =>    This Loop Header: Depth=3
                                        #         Child Loop BB31_24 Depth 4
	cmpl	$4, -28(%rbp)
	jge	.LBB31_29
# %bb.23:                               # %for.body199
                                        #   in Loop: Header=BB31_22 Depth=3
	movl	$0, -32(%rbp)
.LBB31_24:                              # %for.cond200
                                        #   Parent Loop BB31_18 Depth=1
                                        #     Parent Loop BB31_20 Depth=2
                                        #       Parent Loop BB31_22 Depth=3
                                        # =>      This Inner Loop Header: Depth=4
	cmpl	$4, -32(%rbp)
	jge	.LBB31_27
# %bb.25:                               # %for.body203
                                        #   in Loop: Header=BB31_24 Depth=4
	movq	imgY_org, %rax
	movl	-100(%rbp), %ecx
	addl	-28(%rbp), %ecx
	movslq	%ecx, %rcx
	movq	(%rax,%rcx,8), %rax
	movl	-124(%rbp), %ecx
	addl	-32(%rbp), %ecx
	movslq	%ecx, %rcx
	movzwl	(%rax,%rcx,2), %eax
	movq	img, %rcx
	addq	$12600, %rcx            # imm = 0x3138
	movl	-32(%rbp), %edx
	addl	-72(%rbp), %edx
	movslq	%edx, %rdx
	shlq	$5, %rdx
	addq	%rdx, %rcx
	movl	-28(%rbp), %edx
	addl	-76(%rbp), %edx
	movslq	%edx, %rdx
	movzwl	(%rcx,%rdx,2), %ecx
	subl	%ecx, %eax
	movl	-52(%rbp), %ecx
	addl	-28(%rbp), %ecx
	movslq	%ecx, %rcx
	shlq	$6, %rcx
	leaq	-1408(%rbp), %rdx
	addq	%rcx, %rdx
	movl	-48(%rbp), %ecx
	addl	-32(%rbp), %ecx
	movslq	%ecx, %rcx
	movl	%eax, (%rdx,%rcx,4)
	movslq	-56(%rbp), %rcx
	movl	%eax, -384(%rbp,%rcx,4)
# %bb.26:                               # %for.inc227
                                        #   in Loop: Header=BB31_24 Depth=4
	movl	-32(%rbp), %eax
	addl	$1, %eax
	movl	%eax, -32(%rbp)
	movl	-56(%rbp), %eax
	addl	$1, %eax
	movl	%eax, -56(%rbp)
	jmp	.LBB31_24
.LBB31_27:                              # %for.end229
                                        #   in Loop: Header=BB31_22 Depth=3
	jmp	.LBB31_28
.LBB31_28:                              # %for.inc230
                                        #   in Loop: Header=BB31_22 Depth=3
	movl	-28(%rbp), %eax
	addl	$1, %eax
	movl	%eax, -28(%rbp)
	jmp	.LBB31_22
.LBB31_29:                              # %for.end232
                                        #   in Loop: Header=BB31_20 Depth=2
	movq	input, %rax
	cmpl	$0, 3220(%rax)
	je	.LBB31_31
# %bb.30:                               # %lor.lhs.false
                                        #   in Loop: Header=BB31_20 Depth=2
	cmpl	$4, -12(%rbp)
	jle	.LBB31_32
.LBB31_31:                              # %if.then
                                        #   in Loop: Header=BB31_20 Depth=2
	leaq	-384(%rbp), %rdi
	movq	input, %rax
	movl	24(%rax), %esi
	callq	SATD
	addl	-60(%rbp), %eax
	movl	%eax, -60(%rbp)
.LBB31_32:                              # %if.end
                                        #   in Loop: Header=BB31_20 Depth=2
	jmp	.LBB31_33
.LBB31_33:                              # %for.inc236
                                        #   in Loop: Header=BB31_20 Depth=2
	movl	-48(%rbp), %eax
	addl	$4, %eax
	movl	%eax, -48(%rbp)
	movl	-20(%rbp), %eax
	addl	$1, %eax
	movl	%eax, -20(%rbp)
	jmp	.LBB31_20
.LBB31_34:                              # %for.end239
                                        #   in Loop: Header=BB31_18 Depth=1
	jmp	.LBB31_35
.LBB31_35:                              # %for.inc240
                                        #   in Loop: Header=BB31_18 Depth=1
	movl	-52(%rbp), %eax
	addl	$4, %eax
	movl	%eax, -52(%rbp)
	movl	-16(%rbp), %eax
	addl	$1, %eax
	movl	%eax, -16(%rbp)
	jmp	.LBB31_18
.LBB31_36:                              # %for.end243
	movq	input, %rax
	cmpl	$0, 3220(%rax)
	je	.LBB31_55
# %bb.37:                               # %land.lhs.true
	cmpl	$4, -12(%rbp)
	jg	.LBB31_55
# %bb.38:                               # %if.then248
	movl	$0, -52(%rbp)
.LBB31_39:                              # %for.cond249
                                        # =>This Loop Header: Depth=1
                                        #     Child Loop BB31_41 Depth 2
                                        #       Child Loop BB31_43 Depth 3
                                        #         Child Loop BB31_45 Depth 4
	movl	-52(%rbp), %eax
	movq	input, %rcx
	movslq	-24(%rbp), %rdx
	cmpl	84(%rcx,%rdx,8), %eax
	jge	.LBB31_54
# %bb.40:                               # %for.body256
                                        #   in Loop: Header=BB31_39 Depth=1
	movl	$0, -48(%rbp)
.LBB31_41:                              # %for.cond257
                                        #   Parent Loop BB31_39 Depth=1
                                        # =>  This Loop Header: Depth=2
                                        #       Child Loop BB31_43 Depth 3
                                        #         Child Loop BB31_45 Depth 4
	movl	-48(%rbp), %eax
	movq	input, %rcx
	movslq	-24(%rbp), %rdx
	cmpl	80(%rcx,%rdx,8), %eax
	jge	.LBB31_52
# %bb.42:                               # %for.body264
                                        #   in Loop: Header=BB31_41 Depth=2
	movl	$0, -56(%rbp)
	movl	$0, -32(%rbp)
.LBB31_43:                              # %for.cond265
                                        #   Parent Loop BB31_39 Depth=1
                                        #     Parent Loop BB31_41 Depth=2
                                        # =>    This Loop Header: Depth=3
                                        #         Child Loop BB31_45 Depth 4
	cmpl	$8, -32(%rbp)
	jge	.LBB31_50
# %bb.44:                               # %for.body268
                                        #   in Loop: Header=BB31_43 Depth=3
	movl	$0, -28(%rbp)
.LBB31_45:                              # %for.cond269
                                        #   Parent Loop BB31_39 Depth=1
                                        #     Parent Loop BB31_41 Depth=2
                                        #       Parent Loop BB31_43 Depth=3
                                        # =>      This Inner Loop Header: Depth=4
	cmpl	$8, -28(%rbp)
	jge	.LBB31_48
# %bb.46:                               # %for.body272
                                        #   in Loop: Header=BB31_45 Depth=4
	movl	-32(%rbp), %eax
	addl	-52(%rbp), %eax
	cltq
	shlq	$6, %rax
	leaq	-1408(%rbp), %rcx
	addq	%rax, %rcx
	movl	-28(%rbp), %eax
	addl	-48(%rbp), %eax
	cltq
	movl	(%rcx,%rax,4), %eax
	movl	-56(%rbp), %ecx
	movl	%ecx, %edx
	addl	$1, %edx
	movl	%edx, -56(%rbp)
	movslq	%ecx, %rcx
	movl	%eax, -384(%rbp,%rcx,4)
# %bb.47:                               # %for.inc282
                                        #   in Loop: Header=BB31_45 Depth=4
	movl	-28(%rbp), %eax
	addl	$1, %eax
	movl	%eax, -28(%rbp)
	jmp	.LBB31_45
.LBB31_48:                              # %for.end284
                                        #   in Loop: Header=BB31_43 Depth=3
	jmp	.LBB31_49
.LBB31_49:                              # %for.inc285
                                        #   in Loop: Header=BB31_43 Depth=3
	movl	-32(%rbp), %eax
	addl	$1, %eax
	movl	%eax, -32(%rbp)
	jmp	.LBB31_43
.LBB31_50:                              # %for.end287
                                        #   in Loop: Header=BB31_41 Depth=2
	leaq	-384(%rbp), %rdi
	movq	input, %rax
	movl	24(%rax), %esi
	callq	SATD8X8
	addl	-60(%rbp), %eax
	movl	%eax, -60(%rbp)
# %bb.51:                               # %for.inc292
                                        #   in Loop: Header=BB31_41 Depth=2
	movl	-108(%rbp), %eax
	addl	-48(%rbp), %eax
	movl	%eax, -48(%rbp)
	jmp	.LBB31_41
.LBB31_52:                              # %for.end294
                                        #   in Loop: Header=BB31_39 Depth=1
	jmp	.LBB31_53
.LBB31_53:                              # %for.inc295
                                        #   in Loop: Header=BB31_39 Depth=1
	movl	-116(%rbp), %eax
	addl	-52(%rbp), %eax
	movl	%eax, -52(%rbp)
	jmp	.LBB31_39
.LBB31_54:                              # %for.end297
	jmp	.LBB31_55
.LBB31_55:                              # %if.end298
	movl	-60(%rbp), %ebx
	cmpl	$1033161448, -128(%rbp) # imm = 0x3D94CAE8
	jne	.LBB31_57
.LBB31_56:
	movl	%ebx, %eax
	addq	$1416, %rsp             # imm = 0x588
	popq	%rbx
	popq	%rbp
	.cfi_def_cfa %rsp, 8
	retq
.LBB31_57:                              # %func_exit
	.cfi_def_cfa %rbp, 16
	callq	detect_breach
	jmp	.LBB31_56
.Lfunc_end31:
	.size	BIDPartitionCost.6, .Lfunc_end31-BIDPartitionCost.6
	.cfi_endproc
                                        # -- End function
	.globl	SetupLargerBlocks.7     # -- Begin function SetupLargerBlocks.7
	.p2align	4, 0x90
	.type	SetupLargerBlocks.7,@function
SetupLargerBlocks.7:                    # @SetupLargerBlocks.7
	.cfi_startproc
# %bb.0:                                # %entry
	pushq	%rbp
	.cfi_def_cfa_offset 16
	.cfi_offset %rbp, -16
	movq	%rsp, %rbp
	.cfi_def_cfa_register %rbp
	subq	$80, %rsp
	movl	$899214941, -76(%rbp)   # imm = 0x3598EE5D
	movl	%edi, -72(%rbp)
	movl	%esi, -68(%rbp)
	movl	%edx, -36(%rbp)
	movq	BlockSAD, %rax
	movslq	-72(%rbp), %rcx
	movq	(%rax,%rcx,8), %rax
	movslq	-68(%rbp), %rcx
	movq	(%rax,%rcx,8), %rax
	movq	48(%rax), %rax
	movq	%rax, -32(%rbp)
	movq	BlockSAD, %rax
	movslq	-72(%rbp), %rcx
	movq	(%rax,%rcx,8), %rax
	movslq	-68(%rbp), %rcx
	movq	(%rax,%rcx,8), %rax
	movq	56(%rax), %rax
	movq	%rax, -16(%rbp)
	movq	-16(%rbp), %rax
	addq	$32, %rax
	movq	%rax, -24(%rbp)
	movq	-32(%rbp), %rax
	movq	(%rax), %rax
	movq	%rax, -48(%rbp)
	movq	-16(%rbp), %rax
	movq	(%rax), %rax
	movq	%rax, -56(%rbp)
	movq	-24(%rbp), %rax
	movq	(%rax), %rax
	movq	%rax, -64(%rbp)
	movl	$0, -4(%rbp)
.LBB32_1:                               # %for.cond
                                        # =>This Inner Loop Header: Depth=1
	movl	-4(%rbp), %eax
	cmpl	-36(%rbp), %eax
	jge	.LBB32_4
# %bb.2:                                # %for.body
                                        #   in Loop: Header=BB32_1 Depth=1
	movq	-56(%rbp), %rax
	movslq	-4(%rbp), %rcx
	movl	(%rax,%rcx,4), %eax
	movq	-64(%rbp), %rcx
	movslq	-4(%rbp), %rdx
	addl	(%rcx,%rdx,4), %eax
	movq	-48(%rbp), %rcx
	movslq	-4(%rbp), %rdx
	movl	%eax, (%rcx,%rdx,4)
# %bb.3:                                # %for.inc
                                        #   in Loop: Header=BB32_1 Depth=1
	movl	-4(%rbp), %eax
	addl	$1, %eax
	movl	%eax, -4(%rbp)
	jmp	.LBB32_1
.LBB32_4:                               # %for.end
	movq	-32(%rbp), %rax
	addq	$8, %rax
	movq	%rax, -32(%rbp)
	movq	-16(%rbp), %rax
	addq	$8, %rax
	movq	%rax, -16(%rbp)
	movq	-24(%rbp), %rax
	addq	$8, %rax
	movq	%rax, -24(%rbp)
	movq	-32(%rbp), %rax
	movq	(%rax), %rax
	movq	%rax, -48(%rbp)
	movq	-16(%rbp), %rax
	movq	(%rax), %rax
	movq	%rax, -56(%rbp)
	movq	-24(%rbp), %rax
	movq	(%rax), %rax
	movq	%rax, -64(%rbp)
	movl	$0, -4(%rbp)
.LBB32_5:                               # %for.cond18
                                        # =>This Inner Loop Header: Depth=1
	movl	-4(%rbp), %eax
	cmpl	-36(%rbp), %eax
	jge	.LBB32_8
# %bb.6:                                # %for.body20
                                        #   in Loop: Header=BB32_5 Depth=1
	movq	-56(%rbp), %rax
	movslq	-4(%rbp), %rcx
	movl	(%rax,%rcx,4), %eax
	movq	-64(%rbp), %rcx
	movslq	-4(%rbp), %rdx
	addl	(%rcx,%rdx,4), %eax
	movq	-48(%rbp), %rcx
	movslq	-4(%rbp), %rdx
	movl	%eax, (%rcx,%rdx,4)
# %bb.7:                                # %for.inc28
                                        #   in Loop: Header=BB32_5 Depth=1
	movl	-4(%rbp), %eax
	addl	$1, %eax
	movl	%eax, -4(%rbp)
	jmp	.LBB32_5
.LBB32_8:                               # %for.end30
	movq	-32(%rbp), %rax
	addq	$8, %rax
	movq	%rax, -32(%rbp)
	movq	-16(%rbp), %rax
	addq	$8, %rax
	movq	%rax, -16(%rbp)
	movq	-24(%rbp), %rax
	addq	$8, %rax
	movq	%rax, -24(%rbp)
	movq	-32(%rbp), %rax
	movq	(%rax), %rax
	movq	%rax, -48(%rbp)
	movq	-16(%rbp), %rax
	movq	(%rax), %rax
	movq	%rax, -56(%rbp)
	movq	-24(%rbp), %rax
	movq	(%rax), %rax
	movq	%rax, -64(%rbp)
	movl	$0, -4(%rbp)
.LBB32_9:                               # %for.cond34
                                        # =>This Inner Loop Header: Depth=1
	movl	-4(%rbp), %eax
	cmpl	-36(%rbp), %eax
	jge	.LBB32_12
# %bb.10:                               # %for.body36
                                        #   in Loop: Header=BB32_9 Depth=1
	movq	-56(%rbp), %rax
	movslq	-4(%rbp), %rcx
	movl	(%rax,%rcx,4), %eax
	movq	-64(%rbp), %rcx
	movslq	-4(%rbp), %rdx
	addl	(%rcx,%rdx,4), %eax
	movq	-48(%rbp), %rcx
	movslq	-4(%rbp), %rdx
	movl	%eax, (%rcx,%rdx,4)
# %bb.11:                               # %for.inc44
                                        #   in Loop: Header=BB32_9 Depth=1
	movl	-4(%rbp), %eax
	addl	$1, %eax
	movl	%eax, -4(%rbp)
	jmp	.LBB32_9
.LBB32_12:                              # %for.end46
	movq	-32(%rbp), %rax
	addq	$8, %rax
	movq	%rax, -32(%rbp)
	movq	-16(%rbp), %rax
	addq	$8, %rax
	movq	%rax, -16(%rbp)
	movq	-24(%rbp), %rax
	addq	$8, %rax
	movq	%rax, -24(%rbp)
	movq	-32(%rbp), %rax
	movq	(%rax), %rax
	movq	%rax, -48(%rbp)
	movq	-16(%rbp), %rax
	movq	(%rax), %rax
	movq	%rax, -56(%rbp)
	movq	-24(%rbp), %rax
	movq	(%rax), %rax
	movq	%rax, -64(%rbp)
	movl	$0, -4(%rbp)
.LBB32_13:                              # %for.cond50
                                        # =>This Inner Loop Header: Depth=1
	movl	-4(%rbp), %eax
	cmpl	-36(%rbp), %eax
	jge	.LBB32_16
# %bb.14:                               # %for.body52
                                        #   in Loop: Header=BB32_13 Depth=1
	movq	-56(%rbp), %rax
	movslq	-4(%rbp), %rcx
	movl	(%rax,%rcx,4), %eax
	movq	-64(%rbp), %rcx
	movslq	-4(%rbp), %rdx
	addl	(%rcx,%rdx,4), %eax
	movq	-48(%rbp), %rcx
	movslq	-4(%rbp), %rdx
	movl	%eax, (%rcx,%rdx,4)
# %bb.15:                               # %for.inc60
                                        #   in Loop: Header=BB32_13 Depth=1
	movl	-4(%rbp), %eax
	addl	$1, %eax
	movl	%eax, -4(%rbp)
	jmp	.LBB32_13
.LBB32_16:                              # %for.end62
	movq	-32(%rbp), %rax
	addq	$40, %rax
	movq	%rax, -32(%rbp)
	movq	-16(%rbp), %rax
	addq	$40, %rax
	movq	%rax, -16(%rbp)
	movq	-24(%rbp), %rax
	addq	$40, %rax
	movq	%rax, -24(%rbp)
	movq	-32(%rbp), %rax
	movq	(%rax), %rax
	movq	%rax, -48(%rbp)
	movq	-16(%rbp), %rax
	movq	(%rax), %rax
	movq	%rax, -56(%rbp)
	movq	-24(%rbp), %rax
	movq	(%rax), %rax
	movq	%rax, -64(%rbp)
	movl	$0, -4(%rbp)
.LBB32_17:                              # %for.cond66
                                        # =>This Inner Loop Header: Depth=1
	movl	-4(%rbp), %eax
	cmpl	-36(%rbp), %eax
	jge	.LBB32_20
# %bb.18:                               # %for.body68
                                        #   in Loop: Header=BB32_17 Depth=1
	movq	-56(%rbp), %rax
	movslq	-4(%rbp), %rcx
	movl	(%rax,%rcx,4), %eax
	movq	-64(%rbp), %rcx
	movslq	-4(%rbp), %rdx
	addl	(%rcx,%rdx,4), %eax
	movq	-48(%rbp), %rcx
	movslq	-4(%rbp), %rdx
	movl	%eax, (%rcx,%rdx,4)
# %bb.19:                               # %for.inc76
                                        #   in Loop: Header=BB32_17 Depth=1
	movl	-4(%rbp), %eax
	addl	$1, %eax
	movl	%eax, -4(%rbp)
	jmp	.LBB32_17
.LBB32_20:                              # %for.end78
	movq	-32(%rbp), %rax
	addq	$8, %rax
	movq	%rax, -32(%rbp)
	movq	-16(%rbp), %rax
	addq	$8, %rax
	movq	%rax, -16(%rbp)
	movq	-24(%rbp), %rax
	addq	$8, %rax
	movq	%rax, -24(%rbp)
	movq	-32(%rbp), %rax
	movq	(%rax), %rax
	movq	%rax, -48(%rbp)
	movq	-16(%rbp), %rax
	movq	(%rax), %rax
	movq	%rax, -56(%rbp)
	movq	-24(%rbp), %rax
	movq	(%rax), %rax
	movq	%rax, -64(%rbp)
	movl	$0, -4(%rbp)
.LBB32_21:                              # %for.cond82
                                        # =>This Inner Loop Header: Depth=1
	movl	-4(%rbp), %eax
	cmpl	-36(%rbp), %eax
	jge	.LBB32_24
# %bb.22:                               # %for.body84
                                        #   in Loop: Header=BB32_21 Depth=1
	movq	-56(%rbp), %rax
	movslq	-4(%rbp), %rcx
	movl	(%rax,%rcx,4), %eax
	movq	-64(%rbp), %rcx
	movslq	-4(%rbp), %rdx
	addl	(%rcx,%rdx,4), %eax
	movq	-48(%rbp), %rcx
	movslq	-4(%rbp), %rdx
	movl	%eax, (%rcx,%rdx,4)
# %bb.23:                               # %for.inc92
                                        #   in Loop: Header=BB32_21 Depth=1
	movl	-4(%rbp), %eax
	addl	$1, %eax
	movl	%eax, -4(%rbp)
	jmp	.LBB32_21
.LBB32_24:                              # %for.end94
	movq	-32(%rbp), %rax
	addq	$8, %rax
	movq	%rax, -32(%rbp)
	movq	-16(%rbp), %rax
	addq	$8, %rax
	movq	%rax, -16(%rbp)
	movq	-24(%rbp), %rax
	addq	$8, %rax
	movq	%rax, -24(%rbp)
	movq	-32(%rbp), %rax
	movq	(%rax), %rax
	movq	%rax, -48(%rbp)
	movq	-16(%rbp), %rax
	movq	(%rax), %rax
	movq	%rax, -56(%rbp)
	movq	-24(%rbp), %rax
	movq	(%rax), %rax
	movq	%rax, -64(%rbp)
	movl	$0, -4(%rbp)
.LBB32_25:                              # %for.cond98
                                        # =>This Inner Loop Header: Depth=1
	movl	-4(%rbp), %eax
	cmpl	-36(%rbp), %eax
	jge	.LBB32_28
# %bb.26:                               # %for.body100
                                        #   in Loop: Header=BB32_25 Depth=1
	movq	-56(%rbp), %rax
	movslq	-4(%rbp), %rcx
	movl	(%rax,%rcx,4), %eax
	movq	-64(%rbp), %rcx
	movslq	-4(%rbp), %rdx
	addl	(%rcx,%rdx,4), %eax
	movq	-48(%rbp), %rcx
	movslq	-4(%rbp), %rdx
	movl	%eax, (%rcx,%rdx,4)
# %bb.27:                               # %for.inc108
                                        #   in Loop: Header=BB32_25 Depth=1
	movl	-4(%rbp), %eax
	addl	$1, %eax
	movl	%eax, -4(%rbp)
	jmp	.LBB32_25
.LBB32_28:                              # %for.end110
	movq	-32(%rbp), %rax
	addq	$8, %rax
	movq	%rax, -32(%rbp)
	movq	-16(%rbp), %rax
	addq	$8, %rax
	movq	%rax, -16(%rbp)
	movq	-24(%rbp), %rax
	addq	$8, %rax
	movq	%rax, -24(%rbp)
	movq	-32(%rbp), %rax
	movq	(%rax), %rax
	movq	%rax, -48(%rbp)
	movq	-16(%rbp), %rax
	movq	(%rax), %rax
	movq	%rax, -56(%rbp)
	movq	-24(%rbp), %rax
	movq	(%rax), %rax
	movq	%rax, -64(%rbp)
	movl	$0, -4(%rbp)
.LBB32_29:                              # %for.cond114
                                        # =>This Inner Loop Header: Depth=1
	movl	-4(%rbp), %eax
	cmpl	-36(%rbp), %eax
	jge	.LBB32_32
# %bb.30:                               # %for.body116
                                        #   in Loop: Header=BB32_29 Depth=1
	movq	-56(%rbp), %rax
	movslq	-4(%rbp), %rcx
	movl	(%rax,%rcx,4), %eax
	movq	-64(%rbp), %rcx
	movslq	-4(%rbp), %rdx
	addl	(%rcx,%rdx,4), %eax
	movq	-48(%rbp), %rcx
	movslq	-4(%rbp), %rdx
	movl	%eax, (%rcx,%rdx,4)
# %bb.31:                               # %for.inc124
                                        #   in Loop: Header=BB32_29 Depth=1
	movl	-4(%rbp), %eax
	addl	$1, %eax
	movl	%eax, -4(%rbp)
	jmp	.LBB32_29
.LBB32_32:                              # %for.end126
	movq	BlockSAD, %rax
	movslq	-72(%rbp), %rcx
	movq	(%rax,%rcx,8), %rax
	movslq	-68(%rbp), %rcx
	movq	(%rax,%rcx,8), %rax
	movq	40(%rax), %rax
	movq	%rax, -32(%rbp)
	movq	BlockSAD, %rax
	movslq	-72(%rbp), %rcx
	movq	(%rax,%rcx,8), %rax
	movslq	-68(%rbp), %rcx
	movq	(%rax,%rcx,8), %rax
	movq	56(%rax), %rax
	movq	%rax, -16(%rbp)
	movq	-16(%rbp), %rax
	addq	$8, %rax
	movq	%rax, -24(%rbp)
	movq	-32(%rbp), %rax
	movq	(%rax), %rax
	movq	%rax, -48(%rbp)
	movq	-16(%rbp), %rax
	movq	(%rax), %rax
	movq	%rax, -56(%rbp)
	movq	-24(%rbp), %rax
	movq	(%rax), %rax
	movq	%rax, -64(%rbp)
	movl	$0, -4(%rbp)
.LBB32_33:                              # %for.cond138
                                        # =>This Inner Loop Header: Depth=1
	movl	-4(%rbp), %eax
	cmpl	-36(%rbp), %eax
	jge	.LBB32_36
# %bb.34:                               # %for.body140
                                        #   in Loop: Header=BB32_33 Depth=1
	movq	-56(%rbp), %rax
	movslq	-4(%rbp), %rcx
	movl	(%rax,%rcx,4), %eax
	movq	-64(%rbp), %rcx
	movslq	-4(%rbp), %rdx
	addl	(%rcx,%rdx,4), %eax
	movq	-48(%rbp), %rcx
	movslq	-4(%rbp), %rdx
	movl	%eax, (%rcx,%rdx,4)
# %bb.35:                               # %for.inc148
                                        #   in Loop: Header=BB32_33 Depth=1
	movl	-4(%rbp), %eax
	addl	$1, %eax
	movl	%eax, -4(%rbp)
	jmp	.LBB32_33
.LBB32_36:                              # %for.end150
	movq	-32(%rbp), %rax
	addq	$16, %rax
	movq	%rax, -32(%rbp)
	movq	-16(%rbp), %rax
	addq	$16, %rax
	movq	%rax, -16(%rbp)
	movq	-24(%rbp), %rax
	addq	$16, %rax
	movq	%rax, -24(%rbp)
	movq	-32(%rbp), %rax
	movq	(%rax), %rax
	movq	%rax, -48(%rbp)
	movq	-16(%rbp), %rax
	movq	(%rax), %rax
	movq	%rax, -56(%rbp)
	movq	-24(%rbp), %rax
	movq	(%rax), %rax
	movq	%rax, -64(%rbp)
	movl	$0, -4(%rbp)
.LBB32_37:                              # %for.cond154
                                        # =>This Inner Loop Header: Depth=1
	movl	-4(%rbp), %eax
	cmpl	-36(%rbp), %eax
	jge	.LBB32_40
# %bb.38:                               # %for.body156
                                        #   in Loop: Header=BB32_37 Depth=1
	movq	-56(%rbp), %rax
	movslq	-4(%rbp), %rcx
	movl	(%rax,%rcx,4), %eax
	movq	-64(%rbp), %rcx
	movslq	-4(%rbp), %rdx
	addl	(%rcx,%rdx,4), %eax
	movq	-48(%rbp), %rcx
	movslq	-4(%rbp), %rdx
	movl	%eax, (%rcx,%rdx,4)
# %bb.39:                               # %for.inc164
                                        #   in Loop: Header=BB32_37 Depth=1
	movl	-4(%rbp), %eax
	addl	$1, %eax
	movl	%eax, -4(%rbp)
	jmp	.LBB32_37
.LBB32_40:                              # %for.end166
	movq	-32(%rbp), %rax
	addq	$16, %rax
	movq	%rax, -32(%rbp)
	movq	-16(%rbp), %rax
	addq	$16, %rax
	movq	%rax, -16(%rbp)
	movq	-24(%rbp), %rax
	addq	$16, %rax
	movq	%rax, -24(%rbp)
	movq	-32(%rbp), %rax
	movq	(%rax), %rax
	movq	%rax, -48(%rbp)
	movq	-16(%rbp), %rax
	movq	(%rax), %rax
	movq	%rax, -56(%rbp)
	movq	-24(%rbp), %rax
	movq	(%rax), %rax
	movq	%rax, -64(%rbp)
	movl	$0, -4(%rbp)
.LBB32_41:                              # %for.cond170
                                        # =>This Inner Loop Header: Depth=1
	movl	-4(%rbp), %eax
	cmpl	-36(%rbp), %eax
	jge	.LBB32_44
# %bb.42:                               # %for.body172
                                        #   in Loop: Header=BB32_41 Depth=1
	movq	-56(%rbp), %rax
	movslq	-4(%rbp), %rcx
	movl	(%rax,%rcx,4), %eax
	movq	-64(%rbp), %rcx
	movslq	-4(%rbp), %rdx
	addl	(%rcx,%rdx,4), %eax
	movq	-48(%rbp), %rcx
	movslq	-4(%rbp), %rdx
	movl	%eax, (%rcx,%rdx,4)
# %bb.43:                               # %for.inc180
                                        #   in Loop: Header=BB32_41 Depth=1
	movl	-4(%rbp), %eax
	addl	$1, %eax
	movl	%eax, -4(%rbp)
	jmp	.LBB32_41
.LBB32_44:                              # %for.end182
	movq	-32(%rbp), %rax
	addq	$16, %rax
	movq	%rax, -32(%rbp)
	movq	-16(%rbp), %rax
	addq	$16, %rax
	movq	%rax, -16(%rbp)
	movq	-24(%rbp), %rax
	addq	$16, %rax
	movq	%rax, -24(%rbp)
	movq	-32(%rbp), %rax
	movq	(%rax), %rax
	movq	%rax, -48(%rbp)
	movq	-16(%rbp), %rax
	movq	(%rax), %rax
	movq	%rax, -56(%rbp)
	movq	-24(%rbp), %rax
	movq	(%rax), %rax
	movq	%rax, -64(%rbp)
	movl	$0, -4(%rbp)
.LBB32_45:                              # %for.cond186
                                        # =>This Inner Loop Header: Depth=1
	movl	-4(%rbp), %eax
	cmpl	-36(%rbp), %eax
	jge	.LBB32_48
# %bb.46:                               # %for.body188
                                        #   in Loop: Header=BB32_45 Depth=1
	movq	-56(%rbp), %rax
	movslq	-4(%rbp), %rcx
	movl	(%rax,%rcx,4), %eax
	movq	-64(%rbp), %rcx
	movslq	-4(%rbp), %rdx
	addl	(%rcx,%rdx,4), %eax
	movq	-48(%rbp), %rcx
	movslq	-4(%rbp), %rdx
	movl	%eax, (%rcx,%rdx,4)
# %bb.47:                               # %for.inc196
                                        #   in Loop: Header=BB32_45 Depth=1
	movl	-4(%rbp), %eax
	addl	$1, %eax
	movl	%eax, -4(%rbp)
	jmp	.LBB32_45
.LBB32_48:                              # %for.end198
	movq	-32(%rbp), %rax
	addq	$16, %rax
	movq	%rax, -32(%rbp)
	movq	-16(%rbp), %rax
	addq	$16, %rax
	movq	%rax, -16(%rbp)
	movq	-24(%rbp), %rax
	addq	$16, %rax
	movq	%rax, -24(%rbp)
	movq	-32(%rbp), %rax
	movq	(%rax), %rax
	movq	%rax, -48(%rbp)
	movq	-16(%rbp), %rax
	movq	(%rax), %rax
	movq	%rax, -56(%rbp)
	movq	-24(%rbp), %rax
	movq	(%rax), %rax
	movq	%rax, -64(%rbp)
	movl	$0, -4(%rbp)
.LBB32_49:                              # %for.cond202
                                        # =>This Inner Loop Header: Depth=1
	movl	-4(%rbp), %eax
	cmpl	-36(%rbp), %eax
	jge	.LBB32_52
# %bb.50:                               # %for.body204
                                        #   in Loop: Header=BB32_49 Depth=1
	movq	-56(%rbp), %rax
	movslq	-4(%rbp), %rcx
	movl	(%rax,%rcx,4), %eax
	movq	-64(%rbp), %rcx
	movslq	-4(%rbp), %rdx
	addl	(%rcx,%rdx,4), %eax
	movq	-48(%rbp), %rcx
	movslq	-4(%rbp), %rdx
	movl	%eax, (%rcx,%rdx,4)
# %bb.51:                               # %for.inc212
                                        #   in Loop: Header=BB32_49 Depth=1
	movl	-4(%rbp), %eax
	addl	$1, %eax
	movl	%eax, -4(%rbp)
	jmp	.LBB32_49
.LBB32_52:                              # %for.end214
	movq	-32(%rbp), %rax
	addq	$16, %rax
	movq	%rax, -32(%rbp)
	movq	-16(%rbp), %rax
	addq	$16, %rax
	movq	%rax, -16(%rbp)
	movq	-24(%rbp), %rax
	addq	$16, %rax
	movq	%rax, -24(%rbp)
	movq	-32(%rbp), %rax
	movq	(%rax), %rax
	movq	%rax, -48(%rbp)
	movq	-16(%rbp), %rax
	movq	(%rax), %rax
	movq	%rax, -56(%rbp)
	movq	-24(%rbp), %rax
	movq	(%rax), %rax
	movq	%rax, -64(%rbp)
	movl	$0, -4(%rbp)
.LBB32_53:                              # %for.cond218
                                        # =>This Inner Loop Header: Depth=1
	movl	-4(%rbp), %eax
	cmpl	-36(%rbp), %eax
	jge	.LBB32_56
# %bb.54:                               # %for.body220
                                        #   in Loop: Header=BB32_53 Depth=1
	movq	-56(%rbp), %rax
	movslq	-4(%rbp), %rcx
	movl	(%rax,%rcx,4), %eax
	movq	-64(%rbp), %rcx
	movslq	-4(%rbp), %rdx
	addl	(%rcx,%rdx,4), %eax
	movq	-48(%rbp), %rcx
	movslq	-4(%rbp), %rdx
	movl	%eax, (%rcx,%rdx,4)
# %bb.55:                               # %for.inc228
                                        #   in Loop: Header=BB32_53 Depth=1
	movl	-4(%rbp), %eax
	addl	$1, %eax
	movl	%eax, -4(%rbp)
	jmp	.LBB32_53
.LBB32_56:                              # %for.end230
	movq	-32(%rbp), %rax
	addq	$16, %rax
	movq	%rax, -32(%rbp)
	movq	-16(%rbp), %rax
	addq	$16, %rax
	movq	%rax, -16(%rbp)
	movq	-24(%rbp), %rax
	addq	$16, %rax
	movq	%rax, -24(%rbp)
	movq	-32(%rbp), %rax
	movq	(%rax), %rax
	movq	%rax, -48(%rbp)
	movq	-16(%rbp), %rax
	movq	(%rax), %rax
	movq	%rax, -56(%rbp)
	movq	-24(%rbp), %rax
	movq	(%rax), %rax
	movq	%rax, -64(%rbp)
	movl	$0, -4(%rbp)
.LBB32_57:                              # %for.cond234
                                        # =>This Inner Loop Header: Depth=1
	movl	-4(%rbp), %eax
	cmpl	-36(%rbp), %eax
	jge	.LBB32_60
# %bb.58:                               # %for.body236
                                        #   in Loop: Header=BB32_57 Depth=1
	movq	-56(%rbp), %rax
	movslq	-4(%rbp), %rcx
	movl	(%rax,%rcx,4), %eax
	movq	-64(%rbp), %rcx
	movslq	-4(%rbp), %rdx
	addl	(%rcx,%rdx,4), %eax
	movq	-48(%rbp), %rcx
	movslq	-4(%rbp), %rdx
	movl	%eax, (%rcx,%rdx,4)
# %bb.59:                               # %for.inc244
                                        #   in Loop: Header=BB32_57 Depth=1
	movl	-4(%rbp), %eax
	addl	$1, %eax
	movl	%eax, -4(%rbp)
	jmp	.LBB32_57
.LBB32_60:                              # %for.end246
	movq	-32(%rbp), %rax
	addq	$16, %rax
	movq	%rax, -32(%rbp)
	movq	-16(%rbp), %rax
	addq	$16, %rax
	movq	%rax, -16(%rbp)
	movq	-24(%rbp), %rax
	addq	$16, %rax
	movq	%rax, -24(%rbp)
	movq	-32(%rbp), %rax
	movq	(%rax), %rax
	movq	%rax, -48(%rbp)
	movq	-16(%rbp), %rax
	movq	(%rax), %rax
	movq	%rax, -56(%rbp)
	movq	-24(%rbp), %rax
	movq	(%rax), %rax
	movq	%rax, -64(%rbp)
	movl	$0, -4(%rbp)
.LBB32_61:                              # %for.cond250
                                        # =>This Inner Loop Header: Depth=1
	movl	-4(%rbp), %eax
	cmpl	-36(%rbp), %eax
	jge	.LBB32_64
# %bb.62:                               # %for.body252
                                        #   in Loop: Header=BB32_61 Depth=1
	movq	-56(%rbp), %rax
	movslq	-4(%rbp), %rcx
	movl	(%rax,%rcx,4), %eax
	movq	-64(%rbp), %rcx
	movslq	-4(%rbp), %rdx
	addl	(%rcx,%rdx,4), %eax
	movq	-48(%rbp), %rcx
	movslq	-4(%rbp), %rdx
	movl	%eax, (%rcx,%rdx,4)
# %bb.63:                               # %for.inc260
                                        #   in Loop: Header=BB32_61 Depth=1
	movl	-4(%rbp), %eax
	addl	$1, %eax
	movl	%eax, -4(%rbp)
	jmp	.LBB32_61
.LBB32_64:                              # %for.end262
	movq	BlockSAD, %rax
	movslq	-72(%rbp), %rcx
	movq	(%rax,%rcx,8), %rax
	movslq	-68(%rbp), %rcx
	movq	(%rax,%rcx,8), %rax
	movq	32(%rax), %rax
	movq	%rax, -32(%rbp)
	movq	BlockSAD, %rax
	movslq	-72(%rbp), %rcx
	movq	(%rax,%rcx,8), %rax
	movslq	-68(%rbp), %rcx
	movq	(%rax,%rcx,8), %rax
	movq	48(%rax), %rax
	movq	%rax, -16(%rbp)
	movq	-16(%rbp), %rax
	addq	$8, %rax
	movq	%rax, -24(%rbp)
	movq	-32(%rbp), %rax
	movq	(%rax), %rax
	movq	%rax, -48(%rbp)
	movq	-16(%rbp), %rax
	movq	(%rax), %rax
	movq	%rax, -56(%rbp)
	movq	-24(%rbp), %rax
	movq	(%rax), %rax
	movq	%rax, -64(%rbp)
	movl	$0, -4(%rbp)
.LBB32_65:                              # %for.cond274
                                        # =>This Inner Loop Header: Depth=1
	movl	-4(%rbp), %eax
	cmpl	-36(%rbp), %eax
	jge	.LBB32_68
# %bb.66:                               # %for.body276
                                        #   in Loop: Header=BB32_65 Depth=1
	movq	-56(%rbp), %rax
	movslq	-4(%rbp), %rcx
	movl	(%rax,%rcx,4), %eax
	movq	-64(%rbp), %rcx
	movslq	-4(%rbp), %rdx
	addl	(%rcx,%rdx,4), %eax
	movq	-48(%rbp), %rcx
	movslq	-4(%rbp), %rdx
	movl	%eax, (%rcx,%rdx,4)
# %bb.67:                               # %for.inc284
                                        #   in Loop: Header=BB32_65 Depth=1
	movl	-4(%rbp), %eax
	addl	$1, %eax
	movl	%eax, -4(%rbp)
	jmp	.LBB32_65
.LBB32_68:                              # %for.end286
	movq	-32(%rbp), %rax
	addq	$16, %rax
	movq	%rax, -32(%rbp)
	movq	-16(%rbp), %rax
	addq	$16, %rax
	movq	%rax, -16(%rbp)
	movq	-24(%rbp), %rax
	addq	$16, %rax
	movq	%rax, -24(%rbp)
	movq	-32(%rbp), %rax
	movq	(%rax), %rax
	movq	%rax, -48(%rbp)
	movq	-16(%rbp), %rax
	movq	(%rax), %rax
	movq	%rax, -56(%rbp)
	movq	-24(%rbp), %rax
	movq	(%rax), %rax
	movq	%rax, -64(%rbp)
	movl	$0, -4(%rbp)
.LBB32_69:                              # %for.cond290
                                        # =>This Inner Loop Header: Depth=1
	movl	-4(%rbp), %eax
	cmpl	-36(%rbp), %eax
	jge	.LBB32_72
# %bb.70:                               # %for.body292
                                        #   in Loop: Header=BB32_69 Depth=1
	movq	-56(%rbp), %rax
	movslq	-4(%rbp), %rcx
	movl	(%rax,%rcx,4), %eax
	movq	-64(%rbp), %rcx
	movslq	-4(%rbp), %rdx
	addl	(%rcx,%rdx,4), %eax
	movq	-48(%rbp), %rcx
	movslq	-4(%rbp), %rdx
	movl	%eax, (%rcx,%rdx,4)
# %bb.71:                               # %for.inc300
                                        #   in Loop: Header=BB32_69 Depth=1
	movl	-4(%rbp), %eax
	addl	$1, %eax
	movl	%eax, -4(%rbp)
	jmp	.LBB32_69
.LBB32_72:                              # %for.end302
	movq	-32(%rbp), %rax
	addq	$48, %rax
	movq	%rax, -32(%rbp)
	movq	-16(%rbp), %rax
	addq	$48, %rax
	movq	%rax, -16(%rbp)
	movq	-24(%rbp), %rax
	addq	$48, %rax
	movq	%rax, -24(%rbp)
	movq	-32(%rbp), %rax
	movq	(%rax), %rax
	movq	%rax, -48(%rbp)
	movq	-16(%rbp), %rax
	movq	(%rax), %rax
	movq	%rax, -56(%rbp)
	movq	-24(%rbp), %rax
	movq	(%rax), %rax
	movq	%rax, -64(%rbp)
	movl	$0, -4(%rbp)
.LBB32_73:                              # %for.cond306
                                        # =>This Inner Loop Header: Depth=1
	movl	-4(%rbp), %eax
	cmpl	-36(%rbp), %eax
	jge	.LBB32_76
# %bb.74:                               # %for.body308
                                        #   in Loop: Header=BB32_73 Depth=1
	movq	-56(%rbp), %rax
	movslq	-4(%rbp), %rcx
	movl	(%rax,%rcx,4), %eax
	movq	-64(%rbp), %rcx
	movslq	-4(%rbp), %rdx
	addl	(%rcx,%rdx,4), %eax
	movq	-48(%rbp), %rcx
	movslq	-4(%rbp), %rdx
	movl	%eax, (%rcx,%rdx,4)
# %bb.75:                               # %for.inc316
                                        #   in Loop: Header=BB32_73 Depth=1
	movl	-4(%rbp), %eax
	addl	$1, %eax
	movl	%eax, -4(%rbp)
	jmp	.LBB32_73
.LBB32_76:                              # %for.end318
	movq	-32(%rbp), %rax
	addq	$16, %rax
	movq	%rax, -32(%rbp)
	movq	-16(%rbp), %rax
	addq	$16, %rax
	movq	%rax, -16(%rbp)
	movq	-24(%rbp), %rax
	addq	$16, %rax
	movq	%rax, -24(%rbp)
	movq	-32(%rbp), %rax
	movq	(%rax), %rax
	movq	%rax, -48(%rbp)
	movq	-16(%rbp), %rax
	movq	(%rax), %rax
	movq	%rax, -56(%rbp)
	movq	-24(%rbp), %rax
	movq	(%rax), %rax
	movq	%rax, -64(%rbp)
	movl	$0, -4(%rbp)
.LBB32_77:                              # %for.cond322
                                        # =>This Inner Loop Header: Depth=1
	movl	-4(%rbp), %eax
	cmpl	-36(%rbp), %eax
	jge	.LBB32_80
# %bb.78:                               # %for.body324
                                        #   in Loop: Header=BB32_77 Depth=1
	movq	-56(%rbp), %rax
	movslq	-4(%rbp), %rcx
	movl	(%rax,%rcx,4), %eax
	movq	-64(%rbp), %rcx
	movslq	-4(%rbp), %rdx
	addl	(%rcx,%rdx,4), %eax
	movq	-48(%rbp), %rcx
	movslq	-4(%rbp), %rdx
	movl	%eax, (%rcx,%rdx,4)
# %bb.79:                               # %for.inc332
                                        #   in Loop: Header=BB32_77 Depth=1
	movl	-4(%rbp), %eax
	addl	$1, %eax
	movl	%eax, -4(%rbp)
	jmp	.LBB32_77
.LBB32_80:                              # %for.end334
	movq	BlockSAD, %rax
	movslq	-72(%rbp), %rcx
	movq	(%rax,%rcx,8), %rax
	movslq	-68(%rbp), %rcx
	movq	(%rax,%rcx,8), %rax
	movq	24(%rax), %rax
	movq	%rax, -32(%rbp)
	movq	BlockSAD, %rax
	movslq	-72(%rbp), %rcx
	movq	(%rax,%rcx,8), %rax
	movslq	-68(%rbp), %rcx
	movq	(%rax,%rcx,8), %rax
	movq	32(%rax), %rax
	movq	%rax, -16(%rbp)
	movq	-16(%rbp), %rax
	addq	$64, %rax
	movq	%rax, -24(%rbp)
	movq	-32(%rbp), %rax
	movq	(%rax), %rax
	movq	%rax, -48(%rbp)
	movq	-16(%rbp), %rax
	movq	(%rax), %rax
	movq	%rax, -56(%rbp)
	movq	-24(%rbp), %rax
	movq	(%rax), %rax
	movq	%rax, -64(%rbp)
	movl	$0, -4(%rbp)
.LBB32_81:                              # %for.cond346
                                        # =>This Inner Loop Header: Depth=1
	movl	-4(%rbp), %eax
	cmpl	-36(%rbp), %eax
	jge	.LBB32_84
# %bb.82:                               # %for.body348
                                        #   in Loop: Header=BB32_81 Depth=1
	movq	-56(%rbp), %rax
	movslq	-4(%rbp), %rcx
	movl	(%rax,%rcx,4), %eax
	movq	-64(%rbp), %rcx
	movslq	-4(%rbp), %rdx
	addl	(%rcx,%rdx,4), %eax
	movq	-48(%rbp), %rcx
	movslq	-4(%rbp), %rdx
	movl	%eax, (%rcx,%rdx,4)
# %bb.83:                               # %for.inc356
                                        #   in Loop: Header=BB32_81 Depth=1
	movl	-4(%rbp), %eax
	addl	$1, %eax
	movl	%eax, -4(%rbp)
	jmp	.LBB32_81
.LBB32_84:                              # %for.end358
	movq	-32(%rbp), %rax
	addq	$16, %rax
	movq	%rax, -32(%rbp)
	movq	-16(%rbp), %rax
	addq	$16, %rax
	movq	%rax, -16(%rbp)
	movq	-24(%rbp), %rax
	addq	$16, %rax
	movq	%rax, -24(%rbp)
	movq	-32(%rbp), %rax
	movq	(%rax), %rax
	movq	%rax, -48(%rbp)
	movq	-16(%rbp), %rax
	movq	(%rax), %rax
	movq	%rax, -56(%rbp)
	movq	-24(%rbp), %rax
	movq	(%rax), %rax
	movq	%rax, -64(%rbp)
	movl	$0, -4(%rbp)
.LBB32_85:                              # %for.cond362
                                        # =>This Inner Loop Header: Depth=1
	movl	-4(%rbp), %eax
	cmpl	-36(%rbp), %eax
	jge	.LBB32_88
# %bb.86:                               # %for.body364
                                        #   in Loop: Header=BB32_85 Depth=1
	movq	-56(%rbp), %rax
	movslq	-4(%rbp), %rcx
	movl	(%rax,%rcx,4), %eax
	movq	-64(%rbp), %rcx
	movslq	-4(%rbp), %rdx
	addl	(%rcx,%rdx,4), %eax
	movq	-48(%rbp), %rcx
	movslq	-4(%rbp), %rdx
	movl	%eax, (%rcx,%rdx,4)
# %bb.87:                               # %for.inc372
                                        #   in Loop: Header=BB32_85 Depth=1
	movl	-4(%rbp), %eax
	addl	$1, %eax
	movl	%eax, -4(%rbp)
	jmp	.LBB32_85
.LBB32_88:                              # %for.end374
	movq	BlockSAD, %rax
	movslq	-72(%rbp), %rcx
	movq	(%rax,%rcx,8), %rax
	movslq	-68(%rbp), %rcx
	movq	(%rax,%rcx,8), %rax
	movq	16(%rax), %rax
	movq	%rax, -32(%rbp)
	movq	BlockSAD, %rax
	movslq	-72(%rbp), %rcx
	movq	(%rax,%rcx,8), %rax
	movslq	-68(%rbp), %rcx
	movq	(%rax,%rcx,8), %rax
	movq	32(%rax), %rax
	movq	%rax, -16(%rbp)
	movq	-16(%rbp), %rax
	addq	$16, %rax
	movq	%rax, -24(%rbp)
	movq	-32(%rbp), %rax
	movq	(%rax), %rax
	movq	%rax, -48(%rbp)
	movq	-16(%rbp), %rax
	movq	(%rax), %rax
	movq	%rax, -56(%rbp)
	movq	-24(%rbp), %rax
	movq	(%rax), %rax
	movq	%rax, -64(%rbp)
	movl	$0, -4(%rbp)
.LBB32_89:                              # %for.cond386
                                        # =>This Inner Loop Header: Depth=1
	movl	-4(%rbp), %eax
	cmpl	-36(%rbp), %eax
	jge	.LBB32_92
# %bb.90:                               # %for.body388
                                        #   in Loop: Header=BB32_89 Depth=1
	movq	-56(%rbp), %rax
	movslq	-4(%rbp), %rcx
	movl	(%rax,%rcx,4), %eax
	movq	-64(%rbp), %rcx
	movslq	-4(%rbp), %rdx
	addl	(%rcx,%rdx,4), %eax
	movq	-48(%rbp), %rcx
	movslq	-4(%rbp), %rdx
	movl	%eax, (%rcx,%rdx,4)
# %bb.91:                               # %for.inc396
                                        #   in Loop: Header=BB32_89 Depth=1
	movl	-4(%rbp), %eax
	addl	$1, %eax
	movl	%eax, -4(%rbp)
	jmp	.LBB32_89
.LBB32_92:                              # %for.end398
	movq	-32(%rbp), %rax
	addq	$64, %rax
	movq	%rax, -32(%rbp)
	movq	-16(%rbp), %rax
	addq	$64, %rax
	movq	%rax, -16(%rbp)
	movq	-24(%rbp), %rax
	addq	$64, %rax
	movq	%rax, -24(%rbp)
	movq	-32(%rbp), %rax
	movq	(%rax), %rax
	movq	%rax, -48(%rbp)
	movq	-16(%rbp), %rax
	movq	(%rax), %rax
	movq	%rax, -56(%rbp)
	movq	-24(%rbp), %rax
	movq	(%rax), %rax
	movq	%rax, -64(%rbp)
	movl	$0, -4(%rbp)
.LBB32_93:                              # %for.cond402
                                        # =>This Inner Loop Header: Depth=1
	movl	-4(%rbp), %eax
	cmpl	-36(%rbp), %eax
	jge	.LBB32_96
# %bb.94:                               # %for.body404
                                        #   in Loop: Header=BB32_93 Depth=1
	movq	-56(%rbp), %rax
	movslq	-4(%rbp), %rcx
	movl	(%rax,%rcx,4), %eax
	movq	-64(%rbp), %rcx
	movslq	-4(%rbp), %rdx
	addl	(%rcx,%rdx,4), %eax
	movq	-48(%rbp), %rcx
	movslq	-4(%rbp), %rdx
	movl	%eax, (%rcx,%rdx,4)
# %bb.95:                               # %for.inc412
                                        #   in Loop: Header=BB32_93 Depth=1
	movl	-4(%rbp), %eax
	addl	$1, %eax
	movl	%eax, -4(%rbp)
	jmp	.LBB32_93
.LBB32_96:                              # %for.end414
	movq	BlockSAD, %rax
	movslq	-72(%rbp), %rcx
	movq	(%rax,%rcx,8), %rax
	movslq	-68(%rbp), %rcx
	movq	(%rax,%rcx,8), %rax
	movq	8(%rax), %rax
	movq	%rax, -32(%rbp)
	movq	BlockSAD, %rax
	movslq	-72(%rbp), %rcx
	movq	(%rax,%rcx,8), %rax
	movslq	-68(%rbp), %rcx
	movq	(%rax,%rcx,8), %rax
	movq	24(%rax), %rax
	movq	%rax, -16(%rbp)
	movq	-16(%rbp), %rax
	addq	$16, %rax
	movq	%rax, -24(%rbp)
	movq	-32(%rbp), %rax
	movq	(%rax), %rax
	movq	%rax, -48(%rbp)
	movq	-16(%rbp), %rax
	movq	(%rax), %rax
	movq	%rax, -56(%rbp)
	movq	-24(%rbp), %rax
	movq	(%rax), %rax
	movq	%rax, -64(%rbp)
	movl	$0, -4(%rbp)
.LBB32_97:                              # %for.cond426
                                        # =>This Inner Loop Header: Depth=1
	movl	-4(%rbp), %eax
	cmpl	-36(%rbp), %eax
	jge	.LBB32_100
# %bb.98:                               # %for.body428
                                        #   in Loop: Header=BB32_97 Depth=1
	movq	-56(%rbp), %rax
	movslq	-4(%rbp), %rcx
	movl	(%rax,%rcx,4), %eax
	movq	-64(%rbp), %rcx
	movslq	-4(%rbp), %rdx
	addl	(%rcx,%rdx,4), %eax
	movq	-48(%rbp), %rcx
	movslq	-4(%rbp), %rdx
	movl	%eax, (%rcx,%rdx,4)
# %bb.99:                               # %for.inc436
                                        #   in Loop: Header=BB32_97 Depth=1
	movl	-4(%rbp), %eax
	addl	$1, %eax
	movl	%eax, -4(%rbp)
	jmp	.LBB32_97
.LBB32_100:                             # %for.end438
	cmpl	$899214941, -76(%rbp)   # imm = 0x3598EE5D
	jne	.LBB32_102
.LBB32_101:
	addq	$80, %rsp
	popq	%rbp
	.cfi_def_cfa %rsp, 8
	retq
.LBB32_102:                             # %func_exit
	.cfi_def_cfa %rbp, 16
	callq	detect_breach
	jmp	.LBB32_101
.Lfunc_end32:
	.size	SetupLargerBlocks.7, .Lfunc_end32-SetupLargerBlocks.7
	.cfi_endproc
                                        # -- End function
	.globl	GetSkipCostMB.8         # -- Begin function GetSkipCostMB.8
	.p2align	4, 0x90
	.type	GetSkipCostMB.8,@function
GetSkipCostMB.8:                        # @GetSkipCostMB.8
	.cfi_startproc
# %bb.0:                                # %entry
	pushq	%rbp
	.cfi_def_cfa_offset 16
	.cfi_offset %rbp, -16
	movq	%rsp, %rbp
	.cfi_def_cfa_register %rbp
	pushq	%rbx
	subq	$648, %rsp              # imm = 0x288
	.cfi_offset %rbx, -24
	movl	$800195749, -48(%rbp)   # imm = 0x2FB204A5
	vmovsd	%xmm0, -64(%rbp)
	movl	$0, -36(%rbp)
	movl	$0, -32(%rbp)
.LBB33_1:                               # %for.cond
                                        # =>This Loop Header: Depth=1
                                        #     Child Loop BB33_3 Depth 2
                                        #       Child Loop BB33_5 Depth 3
                                        #         Child Loop BB33_7 Depth 4
                                        #           Child Loop BB33_9 Depth 5
                                        #     Child Loop BB33_24 Depth 2
                                        #       Child Loop BB33_26 Depth 3
	cmpl	$4, -32(%rbp)
	jge	.LBB33_34
# %bb.2:                                # %for.body
                                        #   in Loop: Header=BB33_1 Depth=1
	movl	-32(%rbp), %eax
	cltd
	movl	$2, %ecx
	idivl	%ecx
	shll	$3, %eax
	movl	%eax, -40(%rbp)
	movl	-32(%rbp), %eax
	cltd
	idivl	%ecx
	shll	$3, %edx
	movl	%edx, -44(%rbp)
	movl	-40(%rbp), %eax
	movl	%eax, -20(%rbp)
.LBB33_3:                               # %for.cond2
                                        #   Parent Loop BB33_1 Depth=1
                                        # =>  This Loop Header: Depth=2
                                        #       Child Loop BB33_5 Depth 3
                                        #         Child Loop BB33_7 Depth 4
                                        #           Child Loop BB33_9 Depth 5
	movl	-20(%rbp), %eax
	movl	-40(%rbp), %ecx
	addl	$8, %ecx
	cmpl	%ecx, %eax
	jge	.LBB33_21
# %bb.4:                                # %for.body4
                                        #   in Loop: Header=BB33_3 Depth=2
	movq	img, %rax
	movl	172(%rax), %eax
	addl	-20(%rbp), %eax
	movl	%eax, -56(%rbp)
	movl	-44(%rbp), %eax
	movl	%eax, -28(%rbp)
.LBB33_5:                               # %for.cond6
                                        #   Parent Loop BB33_1 Depth=1
                                        #     Parent Loop BB33_3 Depth=2
                                        # =>    This Loop Header: Depth=3
                                        #         Child Loop BB33_7 Depth 4
                                        #           Child Loop BB33_9 Depth 5
	movl	-28(%rbp), %eax
	movl	-44(%rbp), %ecx
	addl	$8, %ecx
	cmpl	%ecx, %eax
	jge	.LBB33_19
# %bb.6:                                # %for.body9
                                        #   in Loop: Header=BB33_5 Depth=3
	movq	img, %rax
	movl	168(%rax), %eax
	addl	-28(%rbp), %eax
	movl	%eax, -52(%rbp)
	movl	-28(%rbp), %edi
	movl	-20(%rbp), %esi
	xorl	%edx, %edx
	xorl	%ecx, %ecx
	xorl	%r8d, %r8d
	xorl	%r9d, %r9d
	movl	$0, (%rsp)
	callq	LumaPrediction4x4
	movl	$0, -16(%rbp)
	movl	$0, -24(%rbp)
.LBB33_7:                               # %for.cond11
                                        #   Parent Loop BB33_1 Depth=1
                                        #     Parent Loop BB33_3 Depth=2
                                        #       Parent Loop BB33_5 Depth=3
                                        # =>      This Loop Header: Depth=4
                                        #           Child Loop BB33_9 Depth 5
	cmpl	$4, -16(%rbp)
	jge	.LBB33_14
# %bb.8:                                # %for.body13
                                        #   in Loop: Header=BB33_7 Depth=4
	movl	$0, -12(%rbp)
.LBB33_9:                               # %for.cond14
                                        #   Parent Loop BB33_1 Depth=1
                                        #     Parent Loop BB33_3 Depth=2
                                        #       Parent Loop BB33_5 Depth=3
                                        #         Parent Loop BB33_7 Depth=4
                                        # =>        This Inner Loop Header: Depth=5
	cmpl	$4, -12(%rbp)
	jge	.LBB33_12
# %bb.10:                               # %for.body16
                                        #   in Loop: Header=BB33_9 Depth=5
	movq	imgY_org, %rax
	movl	-56(%rbp), %ecx
	addl	-16(%rbp), %ecx
	movslq	%ecx, %rcx
	movq	(%rax,%rcx,8), %rax
	movl	-52(%rbp), %ecx
	addl	-12(%rbp), %ecx
	movslq	%ecx, %rcx
	movzwl	(%rax,%rcx,2), %eax
	movq	img, %rcx
	addq	$12600, %rcx            # imm = 0x3138
	movl	-12(%rbp), %edx
	addl	-28(%rbp), %edx
	movslq	%edx, %rdx
	shlq	$5, %rdx
	addq	%rdx, %rcx
	movl	-16(%rbp), %edx
	addl	-20(%rbp), %edx
	movslq	%edx, %rdx
	movzwl	(%rcx,%rdx,2), %ecx
	subl	%ecx, %eax
	movl	-20(%rbp), %ecx
	subl	-40(%rbp), %ecx
	addl	-16(%rbp), %ecx
	movslq	%ecx, %rcx
	shlq	$5, %rcx
	leaq	-384(%rbp), %rdx
	addq	%rcx, %rdx
	movl	-28(%rbp), %ecx
	subl	-44(%rbp), %ecx
	addl	-12(%rbp), %ecx
	movslq	%ecx, %rcx
	movl	%eax, (%rdx,%rcx,4)
	movslq	-24(%rbp), %rcx
	movl	%eax, -128(%rbp,%rcx,4)
# %bb.11:                               # %for.inc
                                        #   in Loop: Header=BB33_9 Depth=5
	movl	-12(%rbp), %eax
	addl	$1, %eax
	movl	%eax, -12(%rbp)
	movl	-24(%rbp), %eax
	addl	$1, %eax
	movl	%eax, -24(%rbp)
	jmp	.LBB33_9
.LBB33_12:                              # %for.end
                                        #   in Loop: Header=BB33_7 Depth=4
	jmp	.LBB33_13
.LBB33_13:                              # %for.inc39
                                        #   in Loop: Header=BB33_7 Depth=4
	movl	-16(%rbp), %eax
	addl	$1, %eax
	movl	%eax, -16(%rbp)
	jmp	.LBB33_7
.LBB33_14:                              # %for.end41
                                        #   in Loop: Header=BB33_5 Depth=3
	movq	input, %rax
	cmpl	$0, 2464(%rax)
	jne	.LBB33_16
# %bb.15:                               # %land.lhs.true
                                        #   in Loop: Header=BB33_5 Depth=3
	movq	input, %rax
	cmpl	$0, 3220(%rax)
	jne	.LBB33_17
.LBB33_16:                              # %if.then
                                        #   in Loop: Header=BB33_5 Depth=3
	leaq	-128(%rbp), %rdi
	movq	input, %rax
	movl	24(%rax), %esi
	callq	SATD
	addl	-36(%rbp), %eax
	movl	%eax, -36(%rbp)
.LBB33_17:                              # %if.end
                                        #   in Loop: Header=BB33_5 Depth=3
	jmp	.LBB33_18
.LBB33_18:                              # %for.inc45
                                        #   in Loop: Header=BB33_5 Depth=3
	movl	-28(%rbp), %eax
	addl	$4, %eax
	movl	%eax, -28(%rbp)
	jmp	.LBB33_5
.LBB33_19:                              # %for.end47
                                        #   in Loop: Header=BB33_3 Depth=2
	jmp	.LBB33_20
.LBB33_20:                              # %for.inc48
                                        #   in Loop: Header=BB33_3 Depth=2
	movl	-20(%rbp), %eax
	addl	$4, %eax
	movl	%eax, -20(%rbp)
	jmp	.LBB33_3
.LBB33_21:                              # %for.end50
                                        #   in Loop: Header=BB33_1 Depth=1
	movq	input, %rax
	cmpl	$0, 2464(%rax)
	jne	.LBB33_32
# %bb.22:                               # %land.lhs.true54
                                        #   in Loop: Header=BB33_1 Depth=1
	movq	input, %rax
	cmpl	$0, 3220(%rax)
	je	.LBB33_32
# %bb.23:                               # %if.then57
                                        #   in Loop: Header=BB33_1 Depth=1
	movl	$0, -24(%rbp)
	movl	$0, -16(%rbp)
.LBB33_24:                              # %for.cond58
                                        #   Parent Loop BB33_1 Depth=1
                                        # =>  This Loop Header: Depth=2
                                        #       Child Loop BB33_26 Depth 3
	cmpl	$8, -16(%rbp)
	jge	.LBB33_31
# %bb.25:                               # %for.body61
                                        #   in Loop: Header=BB33_24 Depth=2
	movl	$0, -12(%rbp)
.LBB33_26:                              # %for.cond62
                                        #   Parent Loop BB33_1 Depth=1
                                        #     Parent Loop BB33_24 Depth=2
                                        # =>    This Inner Loop Header: Depth=3
	cmpl	$8, -12(%rbp)
	jge	.LBB33_29
# %bb.27:                               # %for.body65
                                        #   in Loop: Header=BB33_26 Depth=3
	movslq	-16(%rbp), %rax
	shlq	$5, %rax
	leaq	-384(%rbp), %rcx
	addq	%rax, %rcx
	movslq	-12(%rbp), %rax
	movl	(%rcx,%rax,4), %eax
	movslq	-24(%rbp), %rcx
	movl	%eax, -640(%rbp,%rcx,4)
# %bb.28:                               # %for.inc72
                                        #   in Loop: Header=BB33_26 Depth=3
	movl	-12(%rbp), %eax
	addl	$1, %eax
	movl	%eax, -12(%rbp)
	movl	-24(%rbp), %eax
	addl	$1, %eax
	movl	%eax, -24(%rbp)
	jmp	.LBB33_26
.LBB33_29:                              # %for.end75
                                        #   in Loop: Header=BB33_24 Depth=2
	jmp	.LBB33_30
.LBB33_30:                              # %for.inc76
                                        #   in Loop: Header=BB33_24 Depth=2
	movl	-16(%rbp), %eax
	addl	$1, %eax
	movl	%eax, -16(%rbp)
	jmp	.LBB33_24
.LBB33_31:                              # %for.end78
                                        #   in Loop: Header=BB33_1 Depth=1
	leaq	-640(%rbp), %rdi
	movq	input, %rax
	movl	24(%rax), %esi
	callq	SATD8X8
	addl	-36(%rbp), %eax
	movl	%eax, -36(%rbp)
.LBB33_32:                              # %if.end83
                                        #   in Loop: Header=BB33_1 Depth=1
	jmp	.LBB33_33
.LBB33_33:                              # %for.inc84
                                        #   in Loop: Header=BB33_1 Depth=1
	movl	-32(%rbp), %eax
	addl	$1, %eax
	movl	%eax, -32(%rbp)
	jmp	.LBB33_1
.LBB33_34:                              # %for.end86
	movl	-36(%rbp), %ebx
	cmpl	$800195749, -48(%rbp)   # imm = 0x2FB204A5
	jne	.LBB33_36
.LBB33_35:
	movl	%ebx, %eax
	addq	$648, %rsp              # imm = 0x288
	popq	%rbx
	popq	%rbp
	.cfi_def_cfa %rsp, 8
	retq
.LBB33_36:                              # %func_exit
	.cfi_def_cfa %rbp, 16
	callq	detect_breach
	jmp	.LBB33_35
.Lfunc_end33:
	.size	GetSkipCostMB.8, .Lfunc_end33-GetSkipCostMB.8
	.cfi_endproc
                                        # -- End function
	.globl	PartitionMotionSearch.9 # -- Begin function PartitionMotionSearch.9
	.p2align	4, 0x90
	.type	PartitionMotionSearch.9,@function
PartitionMotionSearch.9:                # @PartitionMotionSearch.9
	.cfi_startproc
# %bb.0:                                # %entry
	pushq	%rbp
	.cfi_def_cfa_offset 16
	.cfi_offset %rbp, -16
	movq	%rsp, %rbp
	.cfi_def_cfa_register %rbp
	subq	$112, %rsp
	movl	$1461949179, -76(%rbp)  # imm = 0x572392FB
	movl	%edi, -8(%rbp)
	movl	%esi, -32(%rbp)
	vmovsd	%xmm0, -104(%rbp)
	movq	img, %rax
	cmpl	$1, 24(%rax)
	sete	%al
	andb	$1, %al
	movzbl	%al, %eax
	movl	%eax, -64(%rbp)
	cmpl	$4, -8(%rbp)
	jge	.LBB34_2
# %bb.1:                                # %cond.true
	movl	-8(%rbp), %eax
	jmp	.LBB34_3
.LBB34_2:                               # %cond.false
	movl	$4, %eax
	jmp	.LBB34_3
.LBB34_3:                               # %cond.end
	movl	%eax, -28(%rbp)
	movq	input, %rax
	movslq	-28(%rbp), %rcx
	movl	144(%rax,%rcx,8), %eax
	movl	%eax, -68(%rbp)
	movq	input, %rax
	movslq	-28(%rbp), %rcx
	movl	148(%rax,%rcx,8), %eax
	movl	%eax, -80(%rbp)
	movq	input, %rax
	movslq	-8(%rbp), %rcx
	movl	144(%rax,%rcx,8), %eax
	movl	%eax, -60(%rbp)
	movq	input, %rax
	movslq	-8(%rbp), %rcx
	movl	148(%rax,%rcx,8), %eax
	movl	%eax, -56(%rbp)
	movq	img, %rax
	movq	14168(%rax), %rax
	movq	img, %rcx
	movslq	12(%rcx), %rcx
	imulq	$632, %rcx, %rcx        # imm = 0x278
	addq	%rcx, %rax
	cmpl	$0, 532(%rax)
	je	.LBB34_8
# %bb.4:                                # %if.then
	movq	img, %rax
	movl	12(%rax), %eax
	cltd
	movl	$2, %ecx
	idivl	%ecx
	cmpl	$0, %edx
	je	.LBB34_6
# %bb.5:                                # %if.then20
	movl	$4, -52(%rbp)
	jmp	.LBB34_7
.LBB34_6:                               # %if.else
	movl	$2, -52(%rbp)
.LBB34_7:                               # %if.end
	jmp	.LBB34_9
.LBB34_8:                               # %if.else21
	movl	$0, -52(%rbp)
.LBB34_9:                               # %if.end22
	movl	-64(%rbp), %eax
	cmpl	$0, %eax
	movl	$2, %eax
	movl	$1, %ecx
	cmovnel	%eax, %ecx
	movl	%ecx, -72(%rbp)
	movl	$0, -12(%rbp)
.LBB34_10:                              # %for.cond
                                        # =>This Loop Header: Depth=1
                                        #     Child Loop BB34_12 Depth 2
                                        #       Child Loop BB34_29 Depth 3
                                        #         Child Loop BB34_31 Depth 4
                                        #           Child Loop BB34_33 Depth 5
                                        #             Child Loop BB34_35 Depth 6
	movl	-12(%rbp), %eax
	cmpl	-72(%rbp), %eax
	jge	.LBB34_48
# %bb.11:                               # %for.body
                                        #   in Loop: Header=BB34_10 Depth=1
	movw	$0, -2(%rbp)
.LBB34_12:                              # %for.cond27
                                        #   Parent Loop BB34_10 Depth=1
                                        # =>  This Loop Header: Depth=2
                                        #       Child Loop BB34_29 Depth 3
                                        #         Child Loop BB34_31 Depth 4
                                        #           Child Loop BB34_33 Depth 5
                                        #             Child Loop BB34_35 Depth 6
	movswl	-2(%rbp), %eax
	movl	-12(%rbp), %ecx
	addl	-52(%rbp), %ecx
	movslq	%ecx, %rcx
	cmpl	listXsize(,%rcx,4), %eax
	jge	.LBB34_46
# %bb.13:                               # %for.body33
                                        #   in Loop: Header=BB34_12 Depth=2
	movq	input, %rax
	cmpl	$2, 2436(%rax)
	jne	.LBB34_15
# %bb.14:                               # %if.then36
                                        #   in Loop: Header=BB34_12 Depth=2
	movq	input, %rax
	movl	32(%rax), %eax
	movl	%eax, -48(%rbp)
	jmp	.LBB34_28
.LBB34_15:                              # %if.else38
                                        #   in Loop: Header=BB34_12 Depth=2
	movq	input, %rax
	cmpl	$1, 2436(%rax)
	jne	.LBB34_20
# %bb.16:                               # %if.then42
                                        #   in Loop: Header=BB34_12 Depth=2
	movq	input, %rax
	movl	32(%rax), %eax
	movswl	-2(%rbp), %ecx
	cmpl	$1, %ecx
	jge	.LBB34_18
# %bb.17:                               # %cond.true47
                                        #   in Loop: Header=BB34_12 Depth=2
	movswl	-2(%rbp), %ecx
	jmp	.LBB34_19
.LBB34_18:                              # %cond.false49
                                        #   in Loop: Header=BB34_12 Depth=2
	movl	$1, %ecx
	jmp	.LBB34_19
.LBB34_19:                              # %cond.end50
                                        #   in Loop: Header=BB34_12 Depth=2
	addl	$1, %ecx
	cltd
	idivl	%ecx
	movl	%eax, -48(%rbp)
	jmp	.LBB34_27
.LBB34_20:                              # %if.else53
                                        #   in Loop: Header=BB34_12 Depth=2
	movq	input, %rax
	movl	32(%rax), %eax
	movswl	-2(%rbp), %ecx
	cmpl	$1, %ecx
	jge	.LBB34_22
# %bb.21:                               # %cond.true58
                                        #   in Loop: Header=BB34_12 Depth=2
	movswl	-2(%rbp), %ecx
	jmp	.LBB34_23
.LBB34_22:                              # %cond.false60
                                        #   in Loop: Header=BB34_12 Depth=2
	movl	$1, %ecx
	jmp	.LBB34_23
.LBB34_23:                              # %cond.end61
                                        #   in Loop: Header=BB34_12 Depth=2
	addl	$1, %ecx
	movl	$2, %edx
	cmpl	-8(%rbp), %edx
	jge	.LBB34_25
# %bb.24:                               # %cond.true66
                                        #   in Loop: Header=BB34_12 Depth=2
	movl	$2, %edx
	jmp	.LBB34_26
.LBB34_25:                              # %cond.false67
                                        #   in Loop: Header=BB34_12 Depth=2
	movl	-8(%rbp), %edx
.LBB34_26:                              # %cond.end68
                                        #   in Loop: Header=BB34_12 Depth=2
	imull	%edx, %ecx
	cltd
	idivl	%ecx
	movl	%eax, -48(%rbp)
.LBB34_27:                              # %if.end71
                                        #   in Loop: Header=BB34_12 Depth=2
	jmp	.LBB34_28
.LBB34_28:                              # %if.end72
                                        #   in Loop: Header=BB34_12 Depth=2
	movq	enc_picture, %rax
	movq	6480(%rax), %rax
	movslq	-12(%rbp), %rcx
	movq	(%rax,%rcx,8), %rax
	movq	%rax, -112(%rbp)
	movq	enc_picture, %rax
	movq	6504(%rax), %rax
	movslq	-12(%rbp), %rcx
	movq	(%rax,%rcx,8), %rax
	movq	%rax, -96(%rbp)
	movq	motion_cost, %rax
	movslq	-8(%rbp), %rcx
	movq	(%rax,%rcx,8), %rax
	movslq	-12(%rbp), %rcx
	movq	(%rax,%rcx,8), %rax
	movswq	-2(%rbp), %rcx
	movq	(%rax,%rcx,8), %rax
	movslq	-32(%rbp), %rcx
	movl	$0, (%rax,%rcx,4)
	movslq	-28(%rbp), %rax
	shlq	$4, %rax
	movabsq	$PartitionMotionSearch.by0, %rcx
	addq	%rax, %rcx
	movslq	-32(%rbp), %rax
	movl	(%rcx,%rax,4), %eax
	movl	%eax, -16(%rbp)
.LBB34_29:                              # %for.cond89
                                        #   Parent Loop BB34_10 Depth=1
                                        #     Parent Loop BB34_12 Depth=2
                                        # =>    This Loop Header: Depth=3
                                        #         Child Loop BB34_31 Depth 4
                                        #           Child Loop BB34_33 Depth 5
                                        #             Child Loop BB34_35 Depth 6
	movl	-16(%rbp), %eax
	movslq	-28(%rbp), %rcx
	shlq	$4, %rcx
	movabsq	$PartitionMotionSearch.by0, %rdx
	addq	%rcx, %rdx
	movslq	-32(%rbp), %rcx
	movl	(%rdx,%rcx,4), %ecx
	addl	-80(%rbp), %ecx
	cmpl	%ecx, %eax
	jge	.LBB34_44
# %bb.30:                               # %for.body97
                                        #   in Loop: Header=BB34_29 Depth=3
	movq	img, %rax
	movl	148(%rax), %eax
	addl	-16(%rbp), %eax
	movl	%eax, -44(%rbp)
	movslq	-28(%rbp), %rax
	shlq	$4, %rax
	movabsq	$PartitionMotionSearch.bx0, %rcx
	addq	%rax, %rcx
	movslq	-32(%rbp), %rax
	movl	(%rcx,%rax,4), %eax
	movl	%eax, -20(%rbp)
.LBB34_31:                              # %for.cond103
                                        #   Parent Loop BB34_10 Depth=1
                                        #     Parent Loop BB34_12 Depth=2
                                        #       Parent Loop BB34_29 Depth=3
                                        # =>      This Loop Header: Depth=4
                                        #           Child Loop BB34_33 Depth 5
                                        #             Child Loop BB34_35 Depth 6
	movl	-20(%rbp), %eax
	movslq	-28(%rbp), %rcx
	shlq	$4, %rcx
	movabsq	$PartitionMotionSearch.bx0, %rdx
	addq	%rcx, %rdx
	movslq	-32(%rbp), %rcx
	movl	(%rdx,%rcx,4), %ecx
	addl	-68(%rbp), %ecx
	cmpl	%ecx, %eax
	jge	.LBB34_42
# %bb.32:                               # %for.body111
                                        #   in Loop: Header=BB34_31 Depth=4
	movq	img, %rax
	movl	144(%rax), %eax
	addl	-20(%rbp), %eax
	movl	%eax, -40(%rbp)
	movw	-2(%rbp), %ax
	movl	-12(%rbp), %esi
	movl	-20(%rbp), %edx
	shll	$2, %edx
	movl	-16(%rbp), %ecx
	shll	$2, %ecx
	movl	-8(%rbp), %r8d
	movl	-48(%rbp), %r9d
	vmovsd	-104(%rbp), %xmm0       # xmm0 = mem[0],zero
	movswl	%ax, %edi
	callq	BlockMotionSearch
	movl	%eax, -84(%rbp)
	movl	-84(%rbp), %eax
	movq	motion_cost, %rcx
	movslq	-8(%rbp), %rdx
	movq	(%rcx,%rdx,8), %rcx
	movslq	-12(%rbp), %rdx
	movq	(%rcx,%rdx,8), %rcx
	movswq	-2(%rbp), %rdx
	movq	(%rcx,%rdx,8), %rcx
	movslq	-32(%rbp), %rdx
	addl	(%rcx,%rdx,4), %eax
	movl	%eax, (%rcx,%rdx,4)
	movl	$0, -36(%rbp)
.LBB34_33:                              # %for.cond123
                                        #   Parent Loop BB34_10 Depth=1
                                        #     Parent Loop BB34_12 Depth=2
                                        #       Parent Loop BB34_29 Depth=3
                                        #         Parent Loop BB34_31 Depth=4
                                        # =>        This Loop Header: Depth=5
                                        #             Child Loop BB34_35 Depth 6
	movl	-36(%rbp), %eax
	cmpl	-56(%rbp), %eax
	jge	.LBB34_40
# %bb.34:                               # %for.body126
                                        #   in Loop: Header=BB34_33 Depth=5
	movl	$0, -24(%rbp)
.LBB34_35:                              # %for.cond127
                                        #   Parent Loop BB34_10 Depth=1
                                        #     Parent Loop BB34_12 Depth=2
                                        #       Parent Loop BB34_29 Depth=3
                                        #         Parent Loop BB34_31 Depth=4
                                        #           Parent Loop BB34_33 Depth=5
                                        # =>          This Inner Loop Header: Depth=6
	movl	-24(%rbp), %eax
	cmpl	-60(%rbp), %eax
	jge	.LBB34_38
# %bb.36:                               # %for.body130
                                        #   in Loop: Header=BB34_35 Depth=6
	movq	img, %rax
	movq	71928(%rax), %rax
	movslq	-20(%rbp), %rcx
	movq	(%rax,%rcx,8), %rax
	movslq	-16(%rbp), %rcx
	movq	(%rax,%rcx,8), %rax
	movslq	-12(%rbp), %rcx
	movq	(%rax,%rcx,8), %rax
	movswq	-2(%rbp), %rcx
	movq	(%rax,%rcx,8), %rax
	movslq	-8(%rbp), %rcx
	movq	(%rax,%rcx,8), %rax
	movw	(%rax), %ax
	movq	-96(%rbp), %rcx
	movl	-40(%rbp), %edx
	addl	-24(%rbp), %edx
	movslq	%edx, %rdx
	movq	(%rcx,%rdx,8), %rcx
	movl	-44(%rbp), %edx
	addl	-36(%rbp), %edx
	movslq	%edx, %rdx
	movq	(%rcx,%rdx,8), %rcx
	movw	%ax, (%rcx)
	movq	img, %rax
	movq	71928(%rax), %rax
	movslq	-20(%rbp), %rcx
	movq	(%rax,%rcx,8), %rax
	movslq	-16(%rbp), %rcx
	movq	(%rax,%rcx,8), %rax
	movslq	-12(%rbp), %rcx
	movq	(%rax,%rcx,8), %rax
	movswq	-2(%rbp), %rcx
	movq	(%rax,%rcx,8), %rax
	movslq	-8(%rbp), %rcx
	movq	(%rax,%rcx,8), %rax
	movw	2(%rax), %ax
	movq	-96(%rbp), %rcx
	movl	-40(%rbp), %edx
	addl	-24(%rbp), %edx
	movslq	%edx, %rdx
	movq	(%rcx,%rdx,8), %rcx
	movl	-44(%rbp), %edx
	addl	-36(%rbp), %edx
	movslq	%edx, %rdx
	movq	(%rcx,%rdx,8), %rcx
	movw	%ax, 2(%rcx)
	movw	-2(%rbp), %ax
	movq	-112(%rbp), %rcx
	movl	-40(%rbp), %edx
	addl	-24(%rbp), %edx
	movslq	%edx, %rdx
	movq	(%rcx,%rdx,8), %rcx
	movl	-44(%rbp), %edx
	addl	-36(%rbp), %edx
	movslq	%edx, %rdx
	movw	%ax, (%rcx,%rdx,2)
# %bb.37:                               # %for.inc
                                        #   in Loop: Header=BB34_35 Depth=6
	movl	-24(%rbp), %eax
	addl	$1, %eax
	movl	%eax, -24(%rbp)
	jmp	.LBB34_35
.LBB34_38:                              # %for.end
                                        #   in Loop: Header=BB34_33 Depth=5
	jmp	.LBB34_39
.LBB34_39:                              # %for.inc174
                                        #   in Loop: Header=BB34_33 Depth=5
	movl	-36(%rbp), %eax
	addl	$1, %eax
	movl	%eax, -36(%rbp)
	jmp	.LBB34_33
.LBB34_40:                              # %for.end176
                                        #   in Loop: Header=BB34_31 Depth=4
	jmp	.LBB34_41
.LBB34_41:                              # %for.inc177
                                        #   in Loop: Header=BB34_31 Depth=4
	movl	-60(%rbp), %eax
	addl	-20(%rbp), %eax
	movl	%eax, -20(%rbp)
	jmp	.LBB34_31
.LBB34_42:                              # %for.end179
                                        #   in Loop: Header=BB34_29 Depth=3
	jmp	.LBB34_43
.LBB34_43:                              # %for.inc180
                                        #   in Loop: Header=BB34_29 Depth=3
	movl	-56(%rbp), %eax
	addl	-16(%rbp), %eax
	movl	%eax, -16(%rbp)
	jmp	.LBB34_29
.LBB34_44:                              # %for.end182
                                        #   in Loop: Header=BB34_12 Depth=2
	jmp	.LBB34_45
.LBB34_45:                              # %for.inc183
                                        #   in Loop: Header=BB34_12 Depth=2
	movw	-2(%rbp), %ax
	addw	$1, %ax
	movw	%ax, -2(%rbp)
	jmp	.LBB34_12
.LBB34_46:                              # %for.end185
                                        #   in Loop: Header=BB34_10 Depth=1
	jmp	.LBB34_47
.LBB34_47:                              # %for.inc186
                                        #   in Loop: Header=BB34_10 Depth=1
	movl	-12(%rbp), %eax
	addl	$1, %eax
	movl	%eax, -12(%rbp)
	jmp	.LBB34_10
.LBB34_48:                              # %for.end188
	cmpl	$1461949179, -76(%rbp)  # imm = 0x572392FB
	jne	.LBB34_50
.LBB34_49:
	addq	$112, %rsp
	popq	%rbp
	.cfi_def_cfa %rsp, 8
	retq
.LBB34_50:                              # %func_exit
	.cfi_def_cfa %rbp, 16
	callq	detect_breach
	jmp	.LBB34_49
.Lfunc_end34:
	.size	PartitionMotionSearch.9, .Lfunc_end34-PartitionMotionSearch.9
	.cfi_endproc
                                        # -- End function
	.globl	SATD8X8.10              # -- Begin function SATD8X8.10
	.p2align	4, 0x90
	.type	SATD8X8.10,@function
SATD8X8.10:                             # @SATD8X8.10
	.cfi_startproc
# %bb.0:                                # %entry
	pushq	%rbp
	.cfi_def_cfa_offset 16
	.cfi_offset %rbp, -16
	movq	%rsp, %rbp
	.cfi_def_cfa_register %rbp
	pushq	%rbx
	subq	$808, %rsp              # imm = 0x328
	.cfi_offset %rbx, -24
	movl	$1225968495, -32(%rbp)  # imm = 0x4912CB6F
	movq	%rdi, -24(%rbp)
	movl	%esi, -36(%rbp)
	movl	$0, -28(%rbp)
	cmpl	$0, -36(%rbp)
	je	.LBB35_21
# %bb.1:                                # %if.then
	movl	$0, -16(%rbp)
.LBB35_2:                               # %for.cond
                                        # =>This Inner Loop Header: Depth=1
	cmpl	$8, -16(%rbp)
	jge	.LBB35_5
# %bb.3:                                # %for.body
                                        #   in Loop: Header=BB35_2 Depth=1
	movq	-24(%rbp), %rax
	movl	-16(%rbp), %ecx
	shll	$3, %ecx
	movslq	%ecx, %rcx
	movl	(%rax,%rcx,4), %ecx
	movq	-24(%rbp), %rax
	movl	-16(%rbp), %edx
	shll	$3, %edx
	addl	$4, %edx
	movslq	%edx, %rdx
	addl	(%rax,%rdx,4), %ecx
	movslq	-16(%rbp), %rdx
	shlq	$5, %rdx
	leaq	-304(%rbp), %rax
	movq	%rax, %rsi
	addq	%rdx, %rsi
	movl	%ecx, (%rsi)
	movq	-24(%rbp), %rcx
	movl	-16(%rbp), %edx
	shll	$3, %edx
	addl	$1, %edx
	movslq	%edx, %rdx
	movl	(%rcx,%rdx,4), %ecx
	movq	-24(%rbp), %rdx
	movl	-16(%rbp), %esi
	shll	$3, %esi
	addl	$5, %esi
	movslq	%esi, %rsi
	addl	(%rdx,%rsi,4), %ecx
	movslq	-16(%rbp), %rdx
	shlq	$5, %rdx
	movq	%rax, %rsi
	addq	%rdx, %rsi
	movl	%ecx, 4(%rsi)
	movq	-24(%rbp), %rcx
	movl	-16(%rbp), %edx
	shll	$3, %edx
	addl	$2, %edx
	movslq	%edx, %rdx
	movl	(%rcx,%rdx,4), %ecx
	movq	-24(%rbp), %rdx
	movl	-16(%rbp), %esi
	shll	$3, %esi
	addl	$6, %esi
	movslq	%esi, %rsi
	addl	(%rdx,%rsi,4), %ecx
	movslq	-16(%rbp), %rdx
	shlq	$5, %rdx
	movq	%rax, %rsi
	addq	%rdx, %rsi
	movl	%ecx, 8(%rsi)
	movq	-24(%rbp), %rcx
	movl	-16(%rbp), %edx
	shll	$3, %edx
	addl	$3, %edx
	movslq	%edx, %rdx
	movl	(%rcx,%rdx,4), %ecx
	movq	-24(%rbp), %rdx
	movl	-16(%rbp), %esi
	shll	$3, %esi
	addl	$7, %esi
	movslq	%esi, %rsi
	addl	(%rdx,%rsi,4), %ecx
	movslq	-16(%rbp), %rdx
	shlq	$5, %rdx
	movq	%rax, %rsi
	addq	%rdx, %rsi
	movl	%ecx, 12(%rsi)
	movq	-24(%rbp), %rcx
	movl	-16(%rbp), %edx
	shll	$3, %edx
	movslq	%edx, %rdx
	movl	(%rcx,%rdx,4), %ecx
	movq	-24(%rbp), %rdx
	movl	-16(%rbp), %esi
	shll	$3, %esi
	addl	$4, %esi
	movslq	%esi, %rsi
	subl	(%rdx,%rsi,4), %ecx
	movslq	-16(%rbp), %rdx
	shlq	$5, %rdx
	movq	%rax, %rsi
	addq	%rdx, %rsi
	movl	%ecx, 16(%rsi)
	movq	-24(%rbp), %rcx
	movl	-16(%rbp), %edx
	shll	$3, %edx
	addl	$1, %edx
	movslq	%edx, %rdx
	movl	(%rcx,%rdx,4), %ecx
	movq	-24(%rbp), %rdx
	movl	-16(%rbp), %esi
	shll	$3, %esi
	addl	$5, %esi
	movslq	%esi, %rsi
	subl	(%rdx,%rsi,4), %ecx
	movslq	-16(%rbp), %rdx
	shlq	$5, %rdx
	movq	%rax, %rsi
	addq	%rdx, %rsi
	movl	%ecx, 20(%rsi)
	movq	-24(%rbp), %rcx
	movl	-16(%rbp), %edx
	shll	$3, %edx
	addl	$2, %edx
	movslq	%edx, %rdx
	movl	(%rcx,%rdx,4), %ecx
	movq	-24(%rbp), %rdx
	movl	-16(%rbp), %esi
	shll	$3, %esi
	addl	$6, %esi
	movslq	%esi, %rsi
	subl	(%rdx,%rsi,4), %ecx
	movslq	-16(%rbp), %rdx
	shlq	$5, %rdx
	movq	%rax, %rsi
	addq	%rdx, %rsi
	movl	%ecx, 24(%rsi)
	movq	-24(%rbp), %rcx
	movl	-16(%rbp), %edx
	shll	$3, %edx
	addl	$3, %edx
	movslq	%edx, %rdx
	movl	(%rcx,%rdx,4), %ecx
	movq	-24(%rbp), %rdx
	movl	-16(%rbp), %esi
	shll	$3, %esi
	addl	$7, %esi
	movslq	%esi, %rsi
	subl	(%rdx,%rsi,4), %ecx
	movslq	-16(%rbp), %rdx
	shlq	$5, %rdx
	movq	%rax, %rsi
	addq	%rdx, %rsi
	movl	%ecx, 28(%rsi)
	movslq	-16(%rbp), %rcx
	shlq	$5, %rcx
	movq	%rax, %rdx
	addq	%rcx, %rdx
	movl	(%rdx), %edx
	movslq	-16(%rbp), %rcx
	shlq	$5, %rcx
	movq	%rax, %rsi
	addq	%rcx, %rsi
	addl	8(%rsi), %edx
	movslq	-16(%rbp), %rsi
	shlq	$5, %rsi
	leaq	-560(%rbp), %rcx
	movq	%rcx, %rdi
	addq	%rsi, %rdi
	movl	%edx, (%rdi)
	movslq	-16(%rbp), %rdx
	shlq	$5, %rdx
	movq	%rax, %rsi
	addq	%rdx, %rsi
	movl	4(%rsi), %edx
	movslq	-16(%rbp), %rsi
	shlq	$5, %rsi
	movq	%rax, %rdi
	addq	%rsi, %rdi
	addl	12(%rdi), %edx
	movslq	-16(%rbp), %rsi
	shlq	$5, %rsi
	movq	%rcx, %rdi
	addq	%rsi, %rdi
	movl	%edx, 4(%rdi)
	movslq	-16(%rbp), %rdx
	shlq	$5, %rdx
	movq	%rax, %rsi
	addq	%rdx, %rsi
	movl	(%rsi), %edx
	movslq	-16(%rbp), %rsi
	shlq	$5, %rsi
	movq	%rax, %rdi
	addq	%rsi, %rdi
	subl	8(%rdi), %edx
	movslq	-16(%rbp), %rsi
	shlq	$5, %rsi
	movq	%rcx, %rdi
	addq	%rsi, %rdi
	movl	%edx, 8(%rdi)
	movslq	-16(%rbp), %rdx
	shlq	$5, %rdx
	movq	%rax, %rsi
	addq	%rdx, %rsi
	movl	4(%rsi), %edx
	movslq	-16(%rbp), %rsi
	shlq	$5, %rsi
	movq	%rax, %rdi
	addq	%rsi, %rdi
	subl	12(%rdi), %edx
	movslq	-16(%rbp), %rsi
	shlq	$5, %rsi
	movq	%rcx, %rdi
	addq	%rsi, %rdi
	movl	%edx, 12(%rdi)
	movslq	-16(%rbp), %rdx
	shlq	$5, %rdx
	movq	%rax, %rsi
	addq	%rdx, %rsi
	movl	16(%rsi), %edx
	movslq	-16(%rbp), %rsi
	shlq	$5, %rsi
	movq	%rax, %rdi
	addq	%rsi, %rdi
	addl	24(%rdi), %edx
	movslq	-16(%rbp), %rsi
	shlq	$5, %rsi
	movq	%rcx, %rdi
	addq	%rsi, %rdi
	movl	%edx, 16(%rdi)
	movslq	-16(%rbp), %rdx
	shlq	$5, %rdx
	movq	%rax, %rsi
	addq	%rdx, %rsi
	movl	20(%rsi), %edx
	movslq	-16(%rbp), %rsi
	shlq	$5, %rsi
	movq	%rax, %rdi
	addq	%rsi, %rdi
	addl	28(%rdi), %edx
	movslq	-16(%rbp), %rsi
	shlq	$5, %rsi
	movq	%rcx, %rdi
	addq	%rsi, %rdi
	movl	%edx, 20(%rdi)
	movslq	-16(%rbp), %rdx
	shlq	$5, %rdx
	movq	%rax, %rsi
	addq	%rdx, %rsi
	movl	16(%rsi), %edx
	movslq	-16(%rbp), %rsi
	shlq	$5, %rsi
	movq	%rax, %rdi
	addq	%rsi, %rdi
	subl	24(%rdi), %edx
	movslq	-16(%rbp), %rsi
	shlq	$5, %rsi
	movq	%rcx, %rdi
	addq	%rsi, %rdi
	movl	%edx, 24(%rdi)
	movslq	-16(%rbp), %rdx
	shlq	$5, %rdx
	movq	%rax, %rsi
	addq	%rdx, %rsi
	movl	20(%rsi), %edx
	movslq	-16(%rbp), %rsi
	shlq	$5, %rsi
	movq	%rax, %rdi
	addq	%rsi, %rdi
	subl	28(%rdi), %edx
	movslq	-16(%rbp), %rsi
	shlq	$5, %rsi
	movq	%rcx, %rdi
	addq	%rsi, %rdi
	movl	%edx, 28(%rdi)
	movslq	-16(%rbp), %rdx
	shlq	$5, %rdx
	movq	%rcx, %rsi
	addq	%rdx, %rsi
	movl	(%rsi), %edx
	movslq	-16(%rbp), %rsi
	shlq	$5, %rsi
	movq	%rcx, %rdi
	addq	%rsi, %rdi
	addl	4(%rdi), %edx
	movslq	-16(%rbp), %rsi
	shlq	$5, %rsi
	movq	%rax, %rdi
	addq	%rsi, %rdi
	movl	%edx, (%rdi)
	movslq	-16(%rbp), %rdx
	shlq	$5, %rdx
	movq	%rcx, %rsi
	addq	%rdx, %rsi
	movl	(%rsi), %edx
	movslq	-16(%rbp), %rsi
	shlq	$5, %rsi
	movq	%rcx, %rdi
	addq	%rsi, %rdi
	subl	4(%rdi), %edx
	movslq	-16(%rbp), %rsi
	shlq	$5, %rsi
	movq	%rax, %rdi
	addq	%rsi, %rdi
	movl	%edx, 4(%rdi)
	movslq	-16(%rbp), %rdx
	shlq	$5, %rdx
	movq	%rcx, %rsi
	addq	%rdx, %rsi
	movl	8(%rsi), %edx
	movslq	-16(%rbp), %rsi
	shlq	$5, %rsi
	movq	%rcx, %rdi
	addq	%rsi, %rdi
	addl	12(%rdi), %edx
	movslq	-16(%rbp), %rsi
	shlq	$5, %rsi
	movq	%rax, %rdi
	addq	%rsi, %rdi
	movl	%edx, 8(%rdi)
	movslq	-16(%rbp), %rdx
	shlq	$5, %rdx
	movq	%rcx, %rsi
	addq	%rdx, %rsi
	movl	8(%rsi), %edx
	movslq	-16(%rbp), %rsi
	shlq	$5, %rsi
	movq	%rcx, %rdi
	addq	%rsi, %rdi
	subl	12(%rdi), %edx
	movslq	-16(%rbp), %rsi
	shlq	$5, %rsi
	movq	%rax, %rdi
	addq	%rsi, %rdi
	movl	%edx, 12(%rdi)
	movslq	-16(%rbp), %rdx
	shlq	$5, %rdx
	movq	%rcx, %rsi
	addq	%rdx, %rsi
	movl	16(%rsi), %edx
	movslq	-16(%rbp), %rsi
	shlq	$5, %rsi
	movq	%rcx, %rdi
	addq	%rsi, %rdi
	addl	20(%rdi), %edx
	movslq	-16(%rbp), %rsi
	shlq	$5, %rsi
	movq	%rax, %rdi
	addq	%rsi, %rdi
	movl	%edx, 16(%rdi)
	movslq	-16(%rbp), %rdx
	shlq	$5, %rdx
	movq	%rcx, %rsi
	addq	%rdx, %rsi
	movl	16(%rsi), %edx
	movslq	-16(%rbp), %rsi
	shlq	$5, %rsi
	movq	%rcx, %rdi
	addq	%rsi, %rdi
	subl	20(%rdi), %edx
	movslq	-16(%rbp), %rsi
	shlq	$5, %rsi
	movq	%rax, %rdi
	addq	%rsi, %rdi
	movl	%edx, 20(%rdi)
	movslq	-16(%rbp), %rdx
	shlq	$5, %rdx
	movq	%rcx, %rsi
	addq	%rdx, %rsi
	movl	24(%rsi), %edx
	movslq	-16(%rbp), %rsi
	shlq	$5, %rsi
	movq	%rcx, %rdi
	addq	%rsi, %rdi
	addl	28(%rdi), %edx
	movslq	-16(%rbp), %rsi
	shlq	$5, %rsi
	movq	%rax, %rdi
	addq	%rsi, %rdi
	movl	%edx, 24(%rdi)
	movslq	-16(%rbp), %rdx
	shlq	$5, %rdx
	movq	%rcx, %rsi
	addq	%rdx, %rsi
	movl	24(%rsi), %edx
	movslq	-16(%rbp), %rsi
	shlq	$5, %rsi
	addq	%rsi, %rcx
	subl	28(%rcx), %edx
	movslq	-16(%rbp), %rcx
	shlq	$5, %rcx
	addq	%rcx, %rax
	movl	%edx, 28(%rax)
# %bb.4:                                # %for.inc
                                        #   in Loop: Header=BB35_2 Depth=1
	movl	-16(%rbp), %eax
	addl	$1, %eax
	movl	%eax, -16(%rbp)
	jmp	.LBB35_2
.LBB35_5:                               # %for.end
	movl	$0, -12(%rbp)
.LBB35_6:                               # %for.cond250
                                        # =>This Inner Loop Header: Depth=1
	cmpl	$8, -12(%rbp)
	jge	.LBB35_9
# %bb.7:                                # %for.body252
                                        #   in Loop: Header=BB35_6 Depth=1
	movslq	-12(%rbp), %rax
	movl	-304(%rbp,%rax,4), %eax
	movslq	-12(%rbp), %rcx
	addl	-176(%rbp,%rcx,4), %eax
	movslq	-12(%rbp), %rcx
	movl	%eax, -816(%rbp,%rcx,4)
	movslq	-12(%rbp), %rax
	movl	-272(%rbp,%rax,4), %eax
	movslq	-12(%rbp), %rcx
	addl	-144(%rbp,%rcx,4), %eax
	movslq	-12(%rbp), %rcx
	movl	%eax, -784(%rbp,%rcx,4)
	movslq	-12(%rbp), %rax
	movl	-240(%rbp,%rax,4), %eax
	movslq	-12(%rbp), %rcx
	addl	-112(%rbp,%rcx,4), %eax
	movslq	-12(%rbp), %rcx
	movl	%eax, -752(%rbp,%rcx,4)
	movslq	-12(%rbp), %rax
	movl	-208(%rbp,%rax,4), %eax
	movslq	-12(%rbp), %rcx
	addl	-80(%rbp,%rcx,4), %eax
	movslq	-12(%rbp), %rcx
	movl	%eax, -720(%rbp,%rcx,4)
	movslq	-12(%rbp), %rax
	movl	-304(%rbp,%rax,4), %eax
	movslq	-12(%rbp), %rcx
	subl	-176(%rbp,%rcx,4), %eax
	movslq	-12(%rbp), %rcx
	movl	%eax, -688(%rbp,%rcx,4)
	movslq	-12(%rbp), %rax
	movl	-272(%rbp,%rax,4), %eax
	movslq	-12(%rbp), %rcx
	subl	-144(%rbp,%rcx,4), %eax
	movslq	-12(%rbp), %rcx
	movl	%eax, -656(%rbp,%rcx,4)
	movslq	-12(%rbp), %rax
	movl	-240(%rbp,%rax,4), %eax
	movslq	-12(%rbp), %rcx
	subl	-112(%rbp,%rcx,4), %eax
	movslq	-12(%rbp), %rcx
	movl	%eax, -624(%rbp,%rcx,4)
	movslq	-12(%rbp), %rax
	movl	-208(%rbp,%rax,4), %eax
	movslq	-12(%rbp), %rcx
	subl	-80(%rbp,%rcx,4), %eax
	movslq	-12(%rbp), %rcx
	movl	%eax, -592(%rbp,%rcx,4)
	movslq	-12(%rbp), %rax
	movl	-816(%rbp,%rax,4), %eax
	movslq	-12(%rbp), %rcx
	addl	-752(%rbp,%rcx,4), %eax
	movslq	-12(%rbp), %rcx
	movl	%eax, -560(%rbp,%rcx,4)
	movslq	-12(%rbp), %rax
	movl	-784(%rbp,%rax,4), %eax
	movslq	-12(%rbp), %rcx
	addl	-720(%rbp,%rcx,4), %eax
	movslq	-12(%rbp), %rcx
	movl	%eax, -528(%rbp,%rcx,4)
	movslq	-12(%rbp), %rax
	movl	-816(%rbp,%rax,4), %eax
	movslq	-12(%rbp), %rcx
	subl	-752(%rbp,%rcx,4), %eax
	movslq	-12(%rbp), %rcx
	movl	%eax, -496(%rbp,%rcx,4)
	movslq	-12(%rbp), %rax
	movl	-784(%rbp,%rax,4), %eax
	movslq	-12(%rbp), %rcx
	subl	-720(%rbp,%rcx,4), %eax
	movslq	-12(%rbp), %rcx
	movl	%eax, -464(%rbp,%rcx,4)
	movslq	-12(%rbp), %rax
	movl	-688(%rbp,%rax,4), %eax
	movslq	-12(%rbp), %rcx
	addl	-624(%rbp,%rcx,4), %eax
	movslq	-12(%rbp), %rcx
	movl	%eax, -432(%rbp,%rcx,4)
	movslq	-12(%rbp), %rax
	movl	-656(%rbp,%rax,4), %eax
	movslq	-12(%rbp), %rcx
	addl	-592(%rbp,%rcx,4), %eax
	movslq	-12(%rbp), %rcx
	movl	%eax, -400(%rbp,%rcx,4)
	movslq	-12(%rbp), %rax
	movl	-688(%rbp,%rax,4), %eax
	movslq	-12(%rbp), %rcx
	subl	-624(%rbp,%rcx,4), %eax
	movslq	-12(%rbp), %rcx
	movl	%eax, -368(%rbp,%rcx,4)
	movslq	-12(%rbp), %rax
	movl	-656(%rbp,%rax,4), %eax
	movslq	-12(%rbp), %rcx
	subl	-592(%rbp,%rcx,4), %eax
	movslq	-12(%rbp), %rcx
	movl	%eax, -336(%rbp,%rcx,4)
	movslq	-12(%rbp), %rax
	movl	-560(%rbp,%rax,4), %eax
	movslq	-12(%rbp), %rcx
	addl	-528(%rbp,%rcx,4), %eax
	movslq	-12(%rbp), %rcx
	movl	%eax, -304(%rbp,%rcx,4)
	movslq	-12(%rbp), %rax
	movl	-560(%rbp,%rax,4), %eax
	movslq	-12(%rbp), %rcx
	subl	-528(%rbp,%rcx,4), %eax
	movslq	-12(%rbp), %rcx
	movl	%eax, -272(%rbp,%rcx,4)
	movslq	-12(%rbp), %rax
	movl	-496(%rbp,%rax,4), %eax
	movslq	-12(%rbp), %rcx
	addl	-464(%rbp,%rcx,4), %eax
	movslq	-12(%rbp), %rcx
	movl	%eax, -240(%rbp,%rcx,4)
	movslq	-12(%rbp), %rax
	movl	-496(%rbp,%rax,4), %eax
	movslq	-12(%rbp), %rcx
	subl	-464(%rbp,%rcx,4), %eax
	movslq	-12(%rbp), %rcx
	movl	%eax, -208(%rbp,%rcx,4)
	movslq	-12(%rbp), %rax
	movl	-432(%rbp,%rax,4), %eax
	movslq	-12(%rbp), %rcx
	addl	-400(%rbp,%rcx,4), %eax
	movslq	-12(%rbp), %rcx
	movl	%eax, -176(%rbp,%rcx,4)
	movslq	-12(%rbp), %rax
	movl	-432(%rbp,%rax,4), %eax
	movslq	-12(%rbp), %rcx
	subl	-400(%rbp,%rcx,4), %eax
	movslq	-12(%rbp), %rcx
	movl	%eax, -144(%rbp,%rcx,4)
	movslq	-12(%rbp), %rax
	movl	-368(%rbp,%rax,4), %eax
	movslq	-12(%rbp), %rcx
	addl	-336(%rbp,%rcx,4), %eax
	movslq	-12(%rbp), %rcx
	movl	%eax, -112(%rbp,%rcx,4)
	movslq	-12(%rbp), %rax
	movl	-368(%rbp,%rax,4), %eax
	movslq	-12(%rbp), %rcx
	subl	-336(%rbp,%rcx,4), %eax
	movslq	-12(%rbp), %rcx
	movl	%eax, -80(%rbp,%rcx,4)
# %bb.8:                                # %for.inc493
                                        #   in Loop: Header=BB35_6 Depth=1
	movl	-12(%rbp), %eax
	addl	$1, %eax
	movl	%eax, -12(%rbp)
	jmp	.LBB35_6
.LBB35_9:                               # %for.end495
	movl	$0, -16(%rbp)
.LBB35_10:                              # %for.cond496
                                        # =>This Loop Header: Depth=1
                                        #     Child Loop BB35_12 Depth 2
	cmpl	$8, -16(%rbp)
	jge	.LBB35_20
# %bb.11:                               # %for.body498
                                        #   in Loop: Header=BB35_10 Depth=1
	movl	$0, -12(%rbp)
.LBB35_12:                              # %for.cond499
                                        #   Parent Loop BB35_10 Depth=1
                                        # =>  This Inner Loop Header: Depth=2
	cmpl	$8, -12(%rbp)
	jge	.LBB35_18
# %bb.13:                               # %for.body501
                                        #   in Loop: Header=BB35_12 Depth=2
	movslq	-16(%rbp), %rax
	shlq	$5, %rax
	leaq	-304(%rbp), %rcx
	addq	%rax, %rcx
	movslq	-12(%rbp), %rax
	cmpl	$0, (%rcx,%rax,4)
	jge	.LBB35_15
# %bb.14:                               # %cond.true
                                        #   in Loop: Header=BB35_12 Depth=2
	xorl	%eax, %eax
	movslq	-16(%rbp), %rcx
	shlq	$5, %rcx
	leaq	-304(%rbp), %rdx
	addq	%rcx, %rdx
	movslq	-12(%rbp), %rcx
	subl	(%rdx,%rcx,4), %eax
	jmp	.LBB35_16
.LBB35_15:                              # %cond.false
                                        #   in Loop: Header=BB35_12 Depth=2
	movslq	-16(%rbp), %rax
	shlq	$5, %rax
	leaq	-304(%rbp), %rcx
	addq	%rax, %rcx
	movslq	-12(%rbp), %rax
	movl	(%rcx,%rax,4), %eax
.LBB35_16:                              # %cond.end
                                        #   in Loop: Header=BB35_12 Depth=2
	addl	-28(%rbp), %eax
	movl	%eax, -28(%rbp)
# %bb.17:                               # %for.inc517
                                        #   in Loop: Header=BB35_12 Depth=2
	movl	-12(%rbp), %eax
	addl	$1, %eax
	movl	%eax, -12(%rbp)
	jmp	.LBB35_12
.LBB35_18:                              # %for.end519
                                        #   in Loop: Header=BB35_10 Depth=1
	jmp	.LBB35_19
.LBB35_19:                              # %for.inc520
                                        #   in Loop: Header=BB35_10 Depth=1
	movl	-16(%rbp), %eax
	addl	$1, %eax
	movl	%eax, -16(%rbp)
	jmp	.LBB35_10
.LBB35_20:                              # %for.end522
	movl	-28(%rbp), %eax
	addl	$2, %eax
	sarl	$2, %eax
	movl	%eax, -28(%rbp)
	jmp	.LBB35_26
.LBB35_21:                              # %if.else
	movl	$0, -12(%rbp)
.LBB35_22:                              # %for.cond524
                                        # =>This Inner Loop Header: Depth=1
	cmpl	$64, -12(%rbp)
	jge	.LBB35_25
# %bb.23:                               # %for.body526
                                        #   in Loop: Header=BB35_22 Depth=1
	movq	byte_abs, %rax
	movq	-24(%rbp), %rcx
	movslq	-12(%rbp), %rdx
	movslq	(%rcx,%rdx,4), %rcx
	movl	(%rax,%rcx,4), %eax
	addl	-28(%rbp), %eax
	movl	%eax, -28(%rbp)
# %bb.24:                               # %for.inc532
                                        #   in Loop: Header=BB35_22 Depth=1
	movl	-12(%rbp), %eax
	addl	$1, %eax
	movl	%eax, -12(%rbp)
	jmp	.LBB35_22
.LBB35_25:                              # %for.end534
	jmp	.LBB35_26
.LBB35_26:                              # %if.end
	movl	-28(%rbp), %ebx
	cmpl	$1225968495, -32(%rbp)  # imm = 0x4912CB6F
	jne	.LBB35_28
.LBB35_27:
	movl	%ebx, %eax
	addq	$808, %rsp              # imm = 0x328
	popq	%rbx
	popq	%rbp
	.cfi_def_cfa %rsp, 8
	retq
.LBB35_28:                              # %func_exit
	.cfi_def_cfa %rbp, 16
	callq	detect_breach
	jmp	.LBB35_27
.Lfunc_end35:
	.size	SATD8X8.10, .Lfunc_end35-SATD8X8.10
	.cfi_endproc
                                        # -- End function
	.globl	GetSkipCostMB.11        # -- Begin function GetSkipCostMB.11
	.p2align	4, 0x90
	.type	GetSkipCostMB.11,@function
GetSkipCostMB.11:                       # @GetSkipCostMB.11
	.cfi_startproc
# %bb.0:                                # %entry
	pushq	%rbp
	.cfi_def_cfa_offset 16
	.cfi_offset %rbp, -16
	movq	%rsp, %rbp
	.cfi_def_cfa_register %rbp
	pushq	%rbx
	subq	$648, %rsp              # imm = 0x288
	.cfi_offset %rbx, -24
	movl	$1426666270, -52(%rbp)  # imm = 0x5509331E
	vmovsd	%xmm0, -64(%rbp)
	movl	$0, -32(%rbp)
	movl	$0, -36(%rbp)
.LBB36_1:                               # %for.cond
                                        # =>This Loop Header: Depth=1
                                        #     Child Loop BB36_3 Depth 2
                                        #       Child Loop BB36_5 Depth 3
                                        #         Child Loop BB36_7 Depth 4
                                        #           Child Loop BB36_9 Depth 5
                                        #     Child Loop BB36_24 Depth 2
                                        #       Child Loop BB36_26 Depth 3
	cmpl	$4, -36(%rbp)
	jge	.LBB36_34
# %bb.2:                                # %for.body
                                        #   in Loop: Header=BB36_1 Depth=1
	movl	-36(%rbp), %eax
	cltd
	movl	$2, %ecx
	idivl	%ecx
	shll	$3, %eax
	movl	%eax, -44(%rbp)
	movl	-36(%rbp), %eax
	cltd
	idivl	%ecx
	shll	$3, %edx
	movl	%edx, -40(%rbp)
	movl	-44(%rbp), %eax
	movl	%eax, -28(%rbp)
.LBB36_3:                               # %for.cond2
                                        #   Parent Loop BB36_1 Depth=1
                                        # =>  This Loop Header: Depth=2
                                        #       Child Loop BB36_5 Depth 3
                                        #         Child Loop BB36_7 Depth 4
                                        #           Child Loop BB36_9 Depth 5
	movl	-28(%rbp), %eax
	movl	-44(%rbp), %ecx
	addl	$8, %ecx
	cmpl	%ecx, %eax
	jge	.LBB36_21
# %bb.4:                                # %for.body4
                                        #   in Loop: Header=BB36_3 Depth=2
	movq	img, %rax
	movl	172(%rax), %eax
	addl	-28(%rbp), %eax
	movl	%eax, -48(%rbp)
	movl	-40(%rbp), %eax
	movl	%eax, -24(%rbp)
.LBB36_5:                               # %for.cond6
                                        #   Parent Loop BB36_1 Depth=1
                                        #     Parent Loop BB36_3 Depth=2
                                        # =>    This Loop Header: Depth=3
                                        #         Child Loop BB36_7 Depth 4
                                        #           Child Loop BB36_9 Depth 5
	movl	-24(%rbp), %eax
	movl	-40(%rbp), %ecx
	addl	$8, %ecx
	cmpl	%ecx, %eax
	jge	.LBB36_19
# %bb.6:                                # %for.body9
                                        #   in Loop: Header=BB36_5 Depth=3
	movq	img, %rax
	movl	168(%rax), %eax
	addl	-24(%rbp), %eax
	movl	%eax, -56(%rbp)
	movl	-24(%rbp), %edi
	movl	-28(%rbp), %esi
	xorl	%edx, %edx
	xorl	%ecx, %ecx
	xorl	%r8d, %r8d
	xorl	%r9d, %r9d
	movl	$0, (%rsp)
	callq	LumaPrediction4x4
	movl	$0, -16(%rbp)
	movl	$0, -20(%rbp)
.LBB36_7:                               # %for.cond11
                                        #   Parent Loop BB36_1 Depth=1
                                        #     Parent Loop BB36_3 Depth=2
                                        #       Parent Loop BB36_5 Depth=3
                                        # =>      This Loop Header: Depth=4
                                        #           Child Loop BB36_9 Depth 5
	cmpl	$4, -16(%rbp)
	jge	.LBB36_14
# %bb.8:                                # %for.body13
                                        #   in Loop: Header=BB36_7 Depth=4
	movl	$0, -12(%rbp)
.LBB36_9:                               # %for.cond14
                                        #   Parent Loop BB36_1 Depth=1
                                        #     Parent Loop BB36_3 Depth=2
                                        #       Parent Loop BB36_5 Depth=3
                                        #         Parent Loop BB36_7 Depth=4
                                        # =>        This Inner Loop Header: Depth=5
	cmpl	$4, -12(%rbp)
	jge	.LBB36_12
# %bb.10:                               # %for.body16
                                        #   in Loop: Header=BB36_9 Depth=5
	movq	imgY_org, %rax
	movl	-48(%rbp), %ecx
	addl	-16(%rbp), %ecx
	movslq	%ecx, %rcx
	movq	(%rax,%rcx,8), %rax
	movl	-56(%rbp), %ecx
	addl	-12(%rbp), %ecx
	movslq	%ecx, %rcx
	movzwl	(%rax,%rcx,2), %eax
	movq	img, %rcx
	addq	$12600, %rcx            # imm = 0x3138
	movl	-12(%rbp), %edx
	addl	-24(%rbp), %edx
	movslq	%edx, %rdx
	shlq	$5, %rdx
	addq	%rdx, %rcx
	movl	-16(%rbp), %edx
	addl	-28(%rbp), %edx
	movslq	%edx, %rdx
	movzwl	(%rcx,%rdx,2), %ecx
	subl	%ecx, %eax
	movl	-28(%rbp), %ecx
	subl	-44(%rbp), %ecx
	addl	-16(%rbp), %ecx
	movslq	%ecx, %rcx
	shlq	$5, %rcx
	leaq	-384(%rbp), %rdx
	addq	%rcx, %rdx
	movl	-24(%rbp), %ecx
	subl	-40(%rbp), %ecx
	addl	-12(%rbp), %ecx
	movslq	%ecx, %rcx
	movl	%eax, (%rdx,%rcx,4)
	movslq	-20(%rbp), %rcx
	movl	%eax, -128(%rbp,%rcx,4)
# %bb.11:                               # %for.inc
                                        #   in Loop: Header=BB36_9 Depth=5
	movl	-12(%rbp), %eax
	addl	$1, %eax
	movl	%eax, -12(%rbp)
	movl	-20(%rbp), %eax
	addl	$1, %eax
	movl	%eax, -20(%rbp)
	jmp	.LBB36_9
.LBB36_12:                              # %for.end
                                        #   in Loop: Header=BB36_7 Depth=4
	jmp	.LBB36_13
.LBB36_13:                              # %for.inc39
                                        #   in Loop: Header=BB36_7 Depth=4
	movl	-16(%rbp), %eax
	addl	$1, %eax
	movl	%eax, -16(%rbp)
	jmp	.LBB36_7
.LBB36_14:                              # %for.end41
                                        #   in Loop: Header=BB36_5 Depth=3
	movq	input, %rax
	cmpl	$0, 2464(%rax)
	jne	.LBB36_16
# %bb.15:                               # %land.lhs.true
                                        #   in Loop: Header=BB36_5 Depth=3
	movq	input, %rax
	cmpl	$0, 3220(%rax)
	jne	.LBB36_17
.LBB36_16:                              # %if.then
                                        #   in Loop: Header=BB36_5 Depth=3
	leaq	-128(%rbp), %rdi
	movq	input, %rax
	movl	24(%rax), %esi
	callq	SATD
	addl	-32(%rbp), %eax
	movl	%eax, -32(%rbp)
.LBB36_17:                              # %if.end
                                        #   in Loop: Header=BB36_5 Depth=3
	jmp	.LBB36_18
.LBB36_18:                              # %for.inc45
                                        #   in Loop: Header=BB36_5 Depth=3
	movl	-24(%rbp), %eax
	addl	$4, %eax
	movl	%eax, -24(%rbp)
	jmp	.LBB36_5
.LBB36_19:                              # %for.end47
                                        #   in Loop: Header=BB36_3 Depth=2
	jmp	.LBB36_20
.LBB36_20:                              # %for.inc48
                                        #   in Loop: Header=BB36_3 Depth=2
	movl	-28(%rbp), %eax
	addl	$4, %eax
	movl	%eax, -28(%rbp)
	jmp	.LBB36_3
.LBB36_21:                              # %for.end50
                                        #   in Loop: Header=BB36_1 Depth=1
	movq	input, %rax
	cmpl	$0, 2464(%rax)
	jne	.LBB36_32
# %bb.22:                               # %land.lhs.true54
                                        #   in Loop: Header=BB36_1 Depth=1
	movq	input, %rax
	cmpl	$0, 3220(%rax)
	je	.LBB36_32
# %bb.23:                               # %if.then57
                                        #   in Loop: Header=BB36_1 Depth=1
	movl	$0, -20(%rbp)
	movl	$0, -16(%rbp)
.LBB36_24:                              # %for.cond58
                                        #   Parent Loop BB36_1 Depth=1
                                        # =>  This Loop Header: Depth=2
                                        #       Child Loop BB36_26 Depth 3
	cmpl	$8, -16(%rbp)
	jge	.LBB36_31
# %bb.25:                               # %for.body61
                                        #   in Loop: Header=BB36_24 Depth=2
	movl	$0, -12(%rbp)
.LBB36_26:                              # %for.cond62
                                        #   Parent Loop BB36_1 Depth=1
                                        #     Parent Loop BB36_24 Depth=2
                                        # =>    This Inner Loop Header: Depth=3
	cmpl	$8, -12(%rbp)
	jge	.LBB36_29
# %bb.27:                               # %for.body65
                                        #   in Loop: Header=BB36_26 Depth=3
	movslq	-16(%rbp), %rax
	shlq	$5, %rax
	leaq	-384(%rbp), %rcx
	addq	%rax, %rcx
	movslq	-12(%rbp), %rax
	movl	(%rcx,%rax,4), %eax
	movslq	-20(%rbp), %rcx
	movl	%eax, -640(%rbp,%rcx,4)
# %bb.28:                               # %for.inc72
                                        #   in Loop: Header=BB36_26 Depth=3
	movl	-12(%rbp), %eax
	addl	$1, %eax
	movl	%eax, -12(%rbp)
	movl	-20(%rbp), %eax
	addl	$1, %eax
	movl	%eax, -20(%rbp)
	jmp	.LBB36_26
.LBB36_29:                              # %for.end75
                                        #   in Loop: Header=BB36_24 Depth=2
	jmp	.LBB36_30
.LBB36_30:                              # %for.inc76
                                        #   in Loop: Header=BB36_24 Depth=2
	movl	-16(%rbp), %eax
	addl	$1, %eax
	movl	%eax, -16(%rbp)
	jmp	.LBB36_24
.LBB36_31:                              # %for.end78
                                        #   in Loop: Header=BB36_1 Depth=1
	leaq	-640(%rbp), %rdi
	movq	input, %rax
	movl	24(%rax), %esi
	callq	SATD8X8
	addl	-32(%rbp), %eax
	movl	%eax, -32(%rbp)
.LBB36_32:                              # %if.end83
                                        #   in Loop: Header=BB36_1 Depth=1
	jmp	.LBB36_33
.LBB36_33:                              # %for.inc84
                                        #   in Loop: Header=BB36_1 Depth=1
	movl	-36(%rbp), %eax
	addl	$1, %eax
	movl	%eax, -36(%rbp)
	jmp	.LBB36_1
.LBB36_34:                              # %for.end86
	movl	-32(%rbp), %ebx
	cmpl	$1426666270, -52(%rbp)  # imm = 0x5509331E
	jne	.LBB36_36
.LBB36_35:
	movl	%ebx, %eax
	addq	$648, %rsp              # imm = 0x288
	popq	%rbx
	popq	%rbp
	.cfi_def_cfa %rsp, 8
	retq
.LBB36_36:                              # %func_exit
	.cfi_def_cfa %rbp, 16
	callq	detect_breach
	jmp	.LBB36_35
.Lfunc_end36:
	.size	GetSkipCostMB.11, .Lfunc_end36-GetSkipCostMB.11
	.cfi_endproc
                                        # -- End function
	.globl	PartitionMotionSearch.12 # -- Begin function PartitionMotionSearch.12
	.p2align	4, 0x90
	.type	PartitionMotionSearch.12,@function
PartitionMotionSearch.12:               # @PartitionMotionSearch.12
	.cfi_startproc
# %bb.0:                                # %entry
	pushq	%rbp
	.cfi_def_cfa_offset 16
	.cfi_offset %rbp, -16
	movq	%rsp, %rbp
	.cfi_def_cfa_register %rbp
	subq	$112, %rsp
	movl	$545924309, -72(%rbp)   # imm = 0x208A24D5
	movl	%edi, -8(%rbp)
	movl	%esi, -28(%rbp)
	vmovsd	%xmm0, -112(%rbp)
	movq	img, %rax
	cmpl	$1, 24(%rax)
	sete	%al
	andb	$1, %al
	movzbl	%al, %eax
	movl	%eax, -68(%rbp)
	cmpl	$4, -8(%rbp)
	jge	.LBB37_2
# %bb.1:                                # %cond.true
	movl	-8(%rbp), %eax
	jmp	.LBB37_3
.LBB37_2:                               # %cond.false
	movl	$4, %eax
	jmp	.LBB37_3
.LBB37_3:                               # %cond.end
	movl	%eax, -24(%rbp)
	movq	input, %rax
	movslq	-24(%rbp), %rcx
	movl	144(%rax,%rcx,8), %eax
	movl	%eax, -64(%rbp)
	movq	input, %rax
	movslq	-24(%rbp), %rcx
	movl	148(%rax,%rcx,8), %eax
	movl	%eax, -84(%rbp)
	movq	input, %rax
	movslq	-8(%rbp), %rcx
	movl	144(%rax,%rcx,8), %eax
	movl	%eax, -60(%rbp)
	movq	input, %rax
	movslq	-8(%rbp), %rcx
	movl	148(%rax,%rcx,8), %eax
	movl	%eax, -56(%rbp)
	movq	img, %rax
	movq	14168(%rax), %rax
	movq	img, %rcx
	movslq	12(%rcx), %rcx
	imulq	$632, %rcx, %rcx        # imm = 0x278
	addq	%rcx, %rax
	cmpl	$0, 532(%rax)
	je	.LBB37_8
# %bb.4:                                # %if.then
	movq	img, %rax
	movl	12(%rax), %eax
	cltd
	movl	$2, %ecx
	idivl	%ecx
	cmpl	$0, %edx
	je	.LBB37_6
# %bb.5:                                # %if.then20
	movl	$4, -52(%rbp)
	jmp	.LBB37_7
.LBB37_6:                               # %if.else
	movl	$2, -52(%rbp)
.LBB37_7:                               # %if.end
	jmp	.LBB37_9
.LBB37_8:                               # %if.else21
	movl	$0, -52(%rbp)
.LBB37_9:                               # %if.end22
	movl	-68(%rbp), %eax
	cmpl	$0, %eax
	movl	$2, %eax
	movl	$1, %ecx
	cmovnel	%eax, %ecx
	movl	%ecx, -76(%rbp)
	movl	$0, -12(%rbp)
.LBB37_10:                              # %for.cond
                                        # =>This Loop Header: Depth=1
                                        #     Child Loop BB37_12 Depth 2
                                        #       Child Loop BB37_29 Depth 3
                                        #         Child Loop BB37_31 Depth 4
                                        #           Child Loop BB37_33 Depth 5
                                        #             Child Loop BB37_35 Depth 6
	movl	-12(%rbp), %eax
	cmpl	-76(%rbp), %eax
	jge	.LBB37_48
# %bb.11:                               # %for.body
                                        #   in Loop: Header=BB37_10 Depth=1
	movw	$0, -2(%rbp)
.LBB37_12:                              # %for.cond27
                                        #   Parent Loop BB37_10 Depth=1
                                        # =>  This Loop Header: Depth=2
                                        #       Child Loop BB37_29 Depth 3
                                        #         Child Loop BB37_31 Depth 4
                                        #           Child Loop BB37_33 Depth 5
                                        #             Child Loop BB37_35 Depth 6
	movswl	-2(%rbp), %eax
	movl	-12(%rbp), %ecx
	addl	-52(%rbp), %ecx
	movslq	%ecx, %rcx
	cmpl	listXsize(,%rcx,4), %eax
	jge	.LBB37_46
# %bb.13:                               # %for.body33
                                        #   in Loop: Header=BB37_12 Depth=2
	movq	input, %rax
	cmpl	$2, 2436(%rax)
	jne	.LBB37_15
# %bb.14:                               # %if.then36
                                        #   in Loop: Header=BB37_12 Depth=2
	movq	input, %rax
	movl	32(%rax), %eax
	movl	%eax, -48(%rbp)
	jmp	.LBB37_28
.LBB37_15:                              # %if.else38
                                        #   in Loop: Header=BB37_12 Depth=2
	movq	input, %rax
	cmpl	$1, 2436(%rax)
	jne	.LBB37_20
# %bb.16:                               # %if.then42
                                        #   in Loop: Header=BB37_12 Depth=2
	movq	input, %rax
	movl	32(%rax), %eax
	movswl	-2(%rbp), %ecx
	cmpl	$1, %ecx
	jge	.LBB37_18
# %bb.17:                               # %cond.true47
                                        #   in Loop: Header=BB37_12 Depth=2
	movswl	-2(%rbp), %ecx
	jmp	.LBB37_19
.LBB37_18:                              # %cond.false49
                                        #   in Loop: Header=BB37_12 Depth=2
	movl	$1, %ecx
	jmp	.LBB37_19
.LBB37_19:                              # %cond.end50
                                        #   in Loop: Header=BB37_12 Depth=2
	addl	$1, %ecx
	cltd
	idivl	%ecx
	movl	%eax, -48(%rbp)
	jmp	.LBB37_27
.LBB37_20:                              # %if.else53
                                        #   in Loop: Header=BB37_12 Depth=2
	movq	input, %rax
	movl	32(%rax), %eax
	movswl	-2(%rbp), %ecx
	cmpl	$1, %ecx
	jge	.LBB37_22
# %bb.21:                               # %cond.true58
                                        #   in Loop: Header=BB37_12 Depth=2
	movswl	-2(%rbp), %ecx
	jmp	.LBB37_23
.LBB37_22:                              # %cond.false60
                                        #   in Loop: Header=BB37_12 Depth=2
	movl	$1, %ecx
	jmp	.LBB37_23
.LBB37_23:                              # %cond.end61
                                        #   in Loop: Header=BB37_12 Depth=2
	addl	$1, %ecx
	movl	$2, %edx
	cmpl	-8(%rbp), %edx
	jge	.LBB37_25
# %bb.24:                               # %cond.true66
                                        #   in Loop: Header=BB37_12 Depth=2
	movl	$2, %edx
	jmp	.LBB37_26
.LBB37_25:                              # %cond.false67
                                        #   in Loop: Header=BB37_12 Depth=2
	movl	-8(%rbp), %edx
.LBB37_26:                              # %cond.end68
                                        #   in Loop: Header=BB37_12 Depth=2
	imull	%edx, %ecx
	cltd
	idivl	%ecx
	movl	%eax, -48(%rbp)
.LBB37_27:                              # %if.end71
                                        #   in Loop: Header=BB37_12 Depth=2
	jmp	.LBB37_28
.LBB37_28:                              # %if.end72
                                        #   in Loop: Header=BB37_12 Depth=2
	movq	enc_picture, %rax
	movq	6480(%rax), %rax
	movslq	-12(%rbp), %rcx
	movq	(%rax,%rcx,8), %rax
	movq	%rax, -104(%rbp)
	movq	enc_picture, %rax
	movq	6504(%rax), %rax
	movslq	-12(%rbp), %rcx
	movq	(%rax,%rcx,8), %rax
	movq	%rax, -96(%rbp)
	movq	motion_cost, %rax
	movslq	-8(%rbp), %rcx
	movq	(%rax,%rcx,8), %rax
	movslq	-12(%rbp), %rcx
	movq	(%rax,%rcx,8), %rax
	movswq	-2(%rbp), %rcx
	movq	(%rax,%rcx,8), %rax
	movslq	-28(%rbp), %rcx
	movl	$0, (%rax,%rcx,4)
	movslq	-24(%rbp), %rax
	shlq	$4, %rax
	movabsq	$PartitionMotionSearch.by0, %rcx
	addq	%rax, %rcx
	movslq	-28(%rbp), %rax
	movl	(%rcx,%rax,4), %eax
	movl	%eax, -16(%rbp)
.LBB37_29:                              # %for.cond89
                                        #   Parent Loop BB37_10 Depth=1
                                        #     Parent Loop BB37_12 Depth=2
                                        # =>    This Loop Header: Depth=3
                                        #         Child Loop BB37_31 Depth 4
                                        #           Child Loop BB37_33 Depth 5
                                        #             Child Loop BB37_35 Depth 6
	movl	-16(%rbp), %eax
	movslq	-24(%rbp), %rcx
	shlq	$4, %rcx
	movabsq	$PartitionMotionSearch.by0, %rdx
	addq	%rcx, %rdx
	movslq	-28(%rbp), %rcx
	movl	(%rdx,%rcx,4), %ecx
	addl	-84(%rbp), %ecx
	cmpl	%ecx, %eax
	jge	.LBB37_44
# %bb.30:                               # %for.body97
                                        #   in Loop: Header=BB37_29 Depth=3
	movq	img, %rax
	movl	148(%rax), %eax
	addl	-16(%rbp), %eax
	movl	%eax, -44(%rbp)
	movslq	-24(%rbp), %rax
	shlq	$4, %rax
	movabsq	$PartitionMotionSearch.bx0, %rcx
	addq	%rax, %rcx
	movslq	-28(%rbp), %rax
	movl	(%rcx,%rax,4), %eax
	movl	%eax, -20(%rbp)
.LBB37_31:                              # %for.cond103
                                        #   Parent Loop BB37_10 Depth=1
