	.text
	.file	"output.c"
	.globl	testEndian              # -- Begin function testEndian
	.p2align	4, 0x90
	.type	testEndian,@function
testEndian:                             # @testEndian
	.cfi_startproc
# %bb.0:                                # %rand_bb
	pushq	%rbp
	.cfi_def_cfa_offset 16
	.cfi_offset %rbp, -16
	movq	%rsp, %rbp
	.cfi_def_cfa_register %rbp
	callq	get_rand
	cmpl	$0, %eax
	jne	.LBB0_2
# %bb.1:                                # %func_testEndian.2
	callq	testEndian.2
	popq	%rbp
	.cfi_def_cfa %rsp, 8
	retq
.LBB0_2:                                # %func_testEndian.5
	.cfi_def_cfa %rbp, 16
	callq	testEndian.5
	popq	%rbp
	.cfi_def_cfa %rsp, 8
	retq
.Lfunc_end0:
	.size	testEndian, .Lfunc_end0-testEndian
	.cfi_endproc
                                        # -- End function
	.globl	img2buf                 # -- Begin function img2buf
	.p2align	4, 0x90
	.type	img2buf,@function
img2buf:                                # @img2buf
	.cfi_startproc
# %bb.0:                                # %rand_bb
	pushq	%rbp
	.cfi_def_cfa_offset 16
	.cfi_offset %rbp, -16
	movq	%rsp, %rbp
	.cfi_def_cfa_register %rbp
	pushq	%r15
	pushq	%r14
	pushq	%r13
	pushq	%r12
	pushq	%rbx
	subq	$40, %rsp
	.cfi_offset %rbx, -56
	.cfi_offset %r12, -48
	.cfi_offset %r13, -40
	.cfi_offset %r14, -32
	.cfi_offset %r15, -24
	movl	%r9d, -44(%rbp)         # 4-byte Spill
	movl	%r8d, %r14d
	movl	%ecx, %r12d
	movl	%edx, %r15d
	movq	%rsi, %r13
	movq	%rdi, %rbx
	callq	get_rand
	cmpl	$0, %eax
	jne	.LBB1_17
# %bb.1:                                # %func_img2buf.1
	movq	%rbx, %rdi
	movq	%r13, %rsi
	movl	%r15d, %edx
	movl	%r12d, %ecx
	movl	%r14d, %r8d
	movl	-44(%rbp), %r9d         # 4-byte Reload
	movl	16(%rbp), %eax
	movl	%eax, (%rsp)
	movl	24(%rbp), %eax
	movl	%eax, 8(%rsp)
	movl	32(%rbp), %eax
	movl	%eax, 16(%rsp)
	callq	img2buf.1
	addq	$40, %rsp
	popq	%rbx
	popq	%r12
	popq	%r13
	popq	%r14
	popq	%r15
	popq	%rbp
	.cfi_def_cfa %rsp, 8
	retq
.LBB1_2:                                # %func_img2buf.13
	.cfi_def_cfa %rbp, 16
	movl	%r12d, %r9d
	movl	%r11d, (%rsp)
	movl	24(%rbp), %eax
	movl	%eax, 8(%rsp)
	movl	32(%rbp), %eax
	movl	%eax, 16(%rsp)
	callq	img2buf.13
	addq	$40, %rsp
	popq	%rbx
	popq	%r12
	popq	%r13
	popq	%r14
	popq	%r15
	popq	%rbp
	.cfi_def_cfa %rsp, 8
	retq
.LBB1_3:                                # %func_img2buf.16
	.cfi_def_cfa %rbp, 16
	movq	%r13, %rdi
	movq	%r10, %rsi
	movl	%ebx, %r10d
	movl	%r15d, %r8d
	movl	16(%rbp), %ebx
	movl	%ebx, (%rsp)
	movl	%r14d, 8(%rsp)
	movl	%r10d, 16(%rsp)
	callq	img2buf.16
	addq	$40, %rsp
	popq	%rbx
	popq	%r12
	popq	%r13
	popq	%r14
	popq	%r15
	popq	%rbp
	.cfi_def_cfa %rsp, 8
	retq
.LBB1_4:                                # %func_img2buf.20
	.cfi_def_cfa %rbp, 16
	movq	%r13, %rdi
	movq	%r10, %rsi
	movl	%ebx, %r10d
	movl	%r15d, %r8d
	movl	%r14d, %r9d
	movl	16(%rbp), %ebx
	movl	%ebx, (%rsp)
	movl	24(%rbp), %eax
	movl	%eax, 8(%rsp)
	movl	%r10d, 16(%rsp)
	callq	img2buf.20
	addq	$40, %rsp
	popq	%rbx
	popq	%r12
	popq	%r13
	popq	%r14
	popq	%r15
	popq	%rbp
	.cfi_def_cfa %rsp, 8
	retq
.LBB1_5:                                # %func_img2buf.24
	.cfi_def_cfa %rbp, 16
	movq	%r13, %rdi
	movq	%r10, %rsi
	movl	%ebx, %r10d
	movl	%r15d, %r8d
	movl	%r14d, %r9d
	movl	16(%rbp), %ebx
	movl	%ebx, (%rsp)
	movl	24(%rbp), %eax
	movl	%eax, 8(%rsp)
	movl	%r10d, 16(%rsp)
	callq	img2buf.24
	addq	$40, %rsp
	popq	%rbx
	popq	%r12
	popq	%r13
	popq	%r14
	popq	%r15
	popq	%rbp
	.cfi_def_cfa %rsp, 8
	retq
.LBB1_6:                                # %func_img2buf.30
	.cfi_def_cfa %rbp, 16
	movq	%r13, %rdi
	movq	%r10, %rsi
	movl	%ebx, %r10d
	movl	%r15d, %r8d
	movl	%r14d, %r9d
	movl	16(%rbp), %ebx
	movl	%ebx, (%rsp)
	movl	24(%rbp), %eax
	movl	%eax, 8(%rsp)
	movl	%r10d, 16(%rsp)
	callq	img2buf.30
	addq	$40, %rsp
	popq	%rbx
	popq	%r12
	popq	%r13
	popq	%r14
	popq	%r15
	popq	%rbp
	.cfi_def_cfa %rsp, 8
	retq
.LBB1_7:                                # %func_img2buf.35
	.cfi_def_cfa %rbp, 16
	movq	%r13, %rdi
	movq	%r10, %rsi
	movl	%ebx, %r10d
	movl	%r15d, %r8d
	movl	%r14d, %r9d
	movl	16(%rbp), %ebx
	movl	%ebx, (%rsp)
	movl	24(%rbp), %eax
	movl	%eax, 8(%rsp)
	movl	%r10d, 16(%rsp)
	callq	img2buf.35
	addq	$40, %rsp
	popq	%rbx
	popq	%r12
	popq	%r13
	popq	%r14
	popq	%r15
	popq	%rbp
	.cfi_def_cfa %rsp, 8
	retq
.LBB1_8:                                # %func_img2buf.39
	.cfi_def_cfa %rbp, 16
	movq	%r13, %rdi
	movq	%r10, %rsi
	movl	%ebx, %r10d
	movl	%r15d, %r8d
	movl	%r14d, %r9d
	movl	16(%rbp), %ebx
	movl	%ebx, (%rsp)
	movl	24(%rbp), %eax
	movl	%eax, 8(%rsp)
	movl	%r10d, 16(%rsp)
	callq	img2buf.39
	addq	$40, %rsp
	popq	%rbx
	popq	%r12
	popq	%r13
	popq	%r14
	popq	%r15
	popq	%rbp
	.cfi_def_cfa %rsp, 8
	retq
.LBB1_9:                                # %func_img2buf.43
	.cfi_def_cfa %rbp, 16
	movq	%r13, %rdi
	movq	%r10, %rsi
	movl	%ebx, %r10d
	movl	%r15d, %r8d
	movl	%r14d, %r9d
	movl	16(%rbp), %ebx
	movl	%ebx, (%rsp)
	movl	24(%rbp), %eax
	movl	%eax, 8(%rsp)
	movl	%r10d, 16(%rsp)
	callq	img2buf.43
	addq	$40, %rsp
	popq	%rbx
	popq	%r12
	popq	%r13
	popq	%r14
	popq	%r15
	popq	%rbp
	.cfi_def_cfa %rsp, 8
	retq
.LBB1_10:                               # %func_img2buf.44
	.cfi_def_cfa %rbp, 16
	movq	%r13, %rdi
	movq	%r10, %rsi
	movl	%ebx, %r10d
	movl	%r15d, %r8d
	movl	%r14d, %r9d
	movl	16(%rbp), %ebx
	movl	%ebx, (%rsp)
	movl	24(%rbp), %eax
	movl	%eax, 8(%rsp)
	movl	%r10d, 16(%rsp)
	callq	img2buf.44
	addq	$40, %rsp
	popq	%rbx
	popq	%r12
	popq	%r13
	popq	%r14
	popq	%r15
	popq	%rbp
	.cfi_def_cfa %rsp, 8
	retq
.LBB1_11:                               # %func_img2buf.45
	.cfi_def_cfa %rbp, 16
	movq	%r13, %rdi
	movq	%r10, %rsi
	movl	%ebx, %r10d
	movl	%r15d, %r8d
	movl	%r14d, %r9d
	movl	16(%rbp), %ebx
	movl	%ebx, (%rsp)
	movl	24(%rbp), %eax
	movl	%eax, 8(%rsp)
	movl	%r10d, 16(%rsp)
	callq	img2buf.45
	addq	$40, %rsp
	popq	%rbx
	popq	%r12
	popq	%r13
	popq	%r14
	popq	%r15
	popq	%rbp
	.cfi_def_cfa %rsp, 8
	retq
.LBB1_12:                               # %func_img2buf.47
	.cfi_def_cfa %rbp, 16
	movq	%r13, %rdi
	movq	%r10, %rsi
	movl	%ebx, %r10d
	movl	%r15d, %r8d
	movl	%r14d, %r9d
	movl	16(%rbp), %ebx
	movl	%ebx, (%rsp)
	movl	24(%rbp), %eax
	movl	%eax, 8(%rsp)
	movl	%r10d, 16(%rsp)
	callq	img2buf.47
	addq	$40, %rsp
	popq	%rbx
	popq	%r12
	popq	%r13
	popq	%r14
	popq	%r15
	popq	%rbp
	.cfi_def_cfa %rsp, 8
	retq
.LBB1_13:                               # %func_img2buf.49
	.cfi_def_cfa %rbp, 16
	movq	%r13, %rdi
	movq	%r10, %rsi
	movl	%ebx, %r10d
	movl	%r15d, %r8d
	movl	%r14d, %r9d
	movl	16(%rbp), %ebx
	movl	%ebx, (%rsp)
	movl	24(%rbp), %eax
	movl	%eax, 8(%rsp)
	movl	%r10d, 16(%rsp)
	callq	img2buf.49
	addq	$40, %rsp
	popq	%rbx
	popq	%r12
	popq	%r13
	popq	%r14
	popq	%r15
	popq	%rbp
	.cfi_def_cfa %rsp, 8
	retq
.LBB1_14:                               # %func_img2buf.50
	.cfi_def_cfa %rbp, 16
	movq	%r13, %rdi
	movq	%r10, %rsi
	movl	%r15d, %r8d
	movl	%r14d, %r9d
	movl	16(%rbp), %eax
	movl	%eax, (%rsp)
	movl	24(%rbp), %eax
	movl	%eax, 8(%rsp)
	movl	32(%rbp), %eax
	movl	%eax, 16(%rsp)
	callq	img2buf.50
	addq	$40, %rsp
	popq	%rbx
	popq	%r12
	popq	%r13
	popq	%r14
	popq	%r15
	popq	%rbp
	.cfi_def_cfa %rsp, 8
	retq
.LBB1_15:                               # %func_img2buf.51
	.cfi_def_cfa %rbp, 16
	movl	%r12d, %r9d
	movl	%r11d, (%rsp)
	movl	24(%rbp), %eax
	movl	%eax, 8(%rsp)
	movl	32(%rbp), %eax
	movl	%eax, 16(%rsp)
	callq	img2buf.51
	addq	$40, %rsp
	popq	%rbx
	popq	%r12
	popq	%r13
	popq	%r14
	popq	%r15
	popq	%rbp
	.cfi_def_cfa %rsp, 8
	retq
.LBB1_16:                               # %func_img2buf.52
	.cfi_def_cfa %rbp, 16
	movl	%r12d, %r9d
	movl	%r11d, (%rsp)
	movl	24(%rbp), %eax
	movl	%eax, 8(%rsp)
	movl	32(%rbp), %eax
	movl	%eax, 16(%rsp)
	callq	img2buf.52
	addq	$40, %rsp
	popq	%rbx
	popq	%r12
	popq	%r13
	popq	%r14
	popq	%r15
	popq	%rbp
	.cfi_def_cfa %rsp, 8
	retq
.LBB1_17:                               # %ctrl0
	.cfi_def_cfa %rbp, 16
	movq	%rbx, %rdi
	movq	%r13, %rsi
	movl	%r15d, %edx
	movl	%r12d, %ecx
	movl	%r14d, %r8d
	movl	-44(%rbp), %r12d        # 4-byte Reload
	movl	16(%rbp), %r11d
	cmpl	$1, %eax
	je	.LBB1_2
# %bb.18:                               # %ctrl1
	cmpl	$2, %eax
	movl	32(%rbp), %ebx
	movl	24(%rbp), %r14d
	movl	%r12d, %r9d
	movl	%r8d, %r15d
	movq	%rsi, %r10
	movq	%rdi, %r13
	je	.LBB1_3
# %bb.19:                               # %ctrl2
	movl	%r9d, %r14d
	cmpl	$3, %eax
	je	.LBB1_4
# %bb.20:                               # %ctrl3
	cmpl	$4, %eax
	je	.LBB1_5
# %bb.21:                               # %ctrl4
	cmpl	$5, %eax
	je	.LBB1_6
# %bb.22:                               # %ctrl5
	cmpl	$6, %eax
	je	.LBB1_7
# %bb.23:                               # %ctrl6
	cmpl	$7, %eax
	je	.LBB1_8
# %bb.24:                               # %ctrl7
	cmpl	$8, %eax
	je	.LBB1_9
# %bb.25:                               # %ctrl8
	cmpl	$9, %eax
	je	.LBB1_10
# %bb.26:                               # %ctrl9
	cmpl	$10, %eax
	je	.LBB1_11
# %bb.27:                               # %ctrl10
	cmpl	$11, %eax
	je	.LBB1_12
# %bb.28:                               # %ctrl11
	cmpl	$12, %eax
	je	.LBB1_13
# %bb.29:                               # %ctrl12
	cmpl	$13, %eax
	je	.LBB1_14
# %bb.30:                               # %ctrl13
	cmpl	$14, %eax
	je	.LBB1_15
	jmp	.LBB1_16
.Lfunc_end1:
	.size	img2buf, .Lfunc_end1-img2buf
	.cfi_endproc
                                        # -- End function
	.globl	write_picture           # -- Begin function write_picture
	.p2align	4, 0x90
	.type	write_picture,@function
write_picture:                          # @write_picture
	.cfi_startproc
# %bb.0:                                # %rand_bb
	pushq	%rbp
	.cfi_def_cfa_offset 16
	.cfi_offset %rbp, -16
	movq	%rsp, %rbp
	.cfi_def_cfa_register %rbp
	pushq	%r15
	pushq	%r14
	pushq	%rbx
	pushq	%rax
	.cfi_offset %rbx, -40
	.cfi_offset %r14, -32
	.cfi_offset %r15, -24
	movl	%edx, %r14d
	movl	%esi, %r15d
	movq	%rdi, %rbx
	callq	get_rand
	cmpl	$0, %eax
	jne	.LBB2_7
# %bb.1:                                # %func_write_picture.10
	movq	%rbx, %rdi
	movl	%r15d, %esi
	movl	%r14d, %edx
	callq	write_picture.10
	addq	$8, %rsp
	popq	%rbx
	popq	%r14
	popq	%r15
	popq	%rbp
	.cfi_def_cfa %rsp, 8
	retq
.LBB2_2:                                # %func_write_picture.15
	.cfi_def_cfa %rbp, 16
	movq	%rbx, %rdi
	movl	%r15d, %esi
	movl	%r14d, %edx
	callq	write_picture.15
	addq	$8, %rsp
	popq	%rbx
	popq	%r14
	popq	%r15
	popq	%rbp
	.cfi_def_cfa %rsp, 8
	retq
.LBB2_3:                                # %func_write_picture.18
	.cfi_def_cfa %rbp, 16
	movq	%rbx, %rdi
	movl	%r15d, %esi
	movl	%r14d, %edx
	callq	write_picture.18
	addq	$8, %rsp
	popq	%rbx
	popq	%r14
	popq	%r15
	popq	%rbp
	.cfi_def_cfa %rsp, 8
	retq
.LBB2_4:                                # %func_write_picture.22
	.cfi_def_cfa %rbp, 16
	movq	%rbx, %rdi
	movl	%r15d, %esi
	movl	%r14d, %edx
	callq	write_picture.22
	addq	$8, %rsp
	popq	%rbx
	popq	%r14
	popq	%r15
	popq	%rbp
	.cfi_def_cfa %rsp, 8
	retq
.LBB2_5:                                # %func_write_picture.38
	.cfi_def_cfa %rbp, 16
	movq	%rbx, %rdi
	movl	%r15d, %esi
	movl	%r14d, %edx
	callq	write_picture.38
	addq	$8, %rsp
	popq	%rbx
	popq	%r14
	popq	%r15
	popq	%rbp
	.cfi_def_cfa %rsp, 8
	retq
.LBB2_6:                                # %func_write_picture.42
	.cfi_def_cfa %rbp, 16
	movq	%rbx, %rdi
	movl	%r15d, %esi
	movl	%r14d, %edx
	callq	write_picture.42
	addq	$8, %rsp
	popq	%rbx
	popq	%r14
	popq	%r15
	popq	%rbp
	.cfi_def_cfa %rsp, 8
	retq
.LBB2_7:                                # %ctrl0
	.cfi_def_cfa %rbp, 16
	cmpl	$1, %eax
	je	.LBB2_2
# %bb.8:                                # %ctrl1
	cmpl	$2, %eax
	je	.LBB2_3
# %bb.9:                                # %ctrl2
	cmpl	$3, %eax
	je	.LBB2_4
# %bb.10:                               # %ctrl3
	cmpl	$4, %eax
	je	.LBB2_5
	jmp	.LBB2_6
.Lfunc_end2:
	.size	write_picture, .Lfunc_end2-write_picture
	.cfi_endproc
                                        # -- End function
	.globl	write_out_picture       # -- Begin function write_out_picture
	.p2align	4, 0x90
	.type	write_out_picture,@function
write_out_picture:                      # @write_out_picture
	.cfi_startproc
# %bb.0:                                # %rand_bb
	pushq	%rbp
	.cfi_def_cfa_offset 16
	.cfi_offset %rbp, -16
	movq	%rsp, %rbp
	.cfi_def_cfa_register %rbp
	pushq	%r14
	pushq	%rbx
	.cfi_offset %rbx, -32
	.cfi_offset %r14, -24
	movl	%esi, %r14d
	movq	%rdi, %rbx
	callq	get_rand
	cmpl	$0, %eax
	jne	.LBB3_17
# %bb.1:                                # %func_write_out_picture.4
	movq	%rbx, %rdi
	movl	%r14d, %esi
	callq	write_out_picture.4
	popq	%rbx
	popq	%r14
	popq	%rbp
	.cfi_def_cfa %rsp, 8
	retq
.LBB3_2:                                # %func_write_out_picture.7
	.cfi_def_cfa %rbp, 16
	movq	%rbx, %rdi
	movl	%r14d, %esi
	callq	write_out_picture.7
	popq	%rbx
	popq	%r14
	popq	%rbp
	.cfi_def_cfa %rsp, 8
	retq
.LBB3_3:                                # %func_write_out_picture.11
	.cfi_def_cfa %rbp, 16
	movq	%rbx, %rdi
	movl	%r14d, %esi
	callq	write_out_picture.11
	popq	%rbx
	popq	%r14
	popq	%rbp
	.cfi_def_cfa %rsp, 8
	retq
.LBB3_4:                                # %func_write_out_picture.17
	.cfi_def_cfa %rbp, 16
	movq	%rbx, %rdi
	movl	%r14d, %esi
	callq	write_out_picture.17
	popq	%rbx
	popq	%r14
	popq	%rbp
	.cfi_def_cfa %rsp, 8
	retq
.LBB3_5:                                # %func_write_out_picture.21
	.cfi_def_cfa %rbp, 16
	movq	%rbx, %rdi
	movl	%r14d, %esi
	callq	write_out_picture.21
	popq	%rbx
	popq	%r14
	popq	%rbp
	.cfi_def_cfa %rsp, 8
	retq
.LBB3_6:                                # %func_write_out_picture.23
	.cfi_def_cfa %rbp, 16
	movq	%rbx, %rdi
	movl	%r14d, %esi
	callq	write_out_picture.23
	popq	%rbx
	popq	%r14
	popq	%rbp
	.cfi_def_cfa %rsp, 8
	retq
.LBB3_7:                                # %func_write_out_picture.26
	.cfi_def_cfa %rbp, 16
	movq	%rbx, %rdi
	movl	%r14d, %esi
	callq	write_out_picture.26
	popq	%rbx
	popq	%r14
	popq	%rbp
	.cfi_def_cfa %rsp, 8
	retq
.LBB3_8:                                # %func_write_out_picture.27
	.cfi_def_cfa %rbp, 16
	movq	%rbx, %rdi
	movl	%r14d, %esi
	callq	write_out_picture.27
	popq	%rbx
	popq	%r14
	popq	%rbp
	.cfi_def_cfa %rsp, 8
	retq
.LBB3_9:                                # %func_write_out_picture.28
	.cfi_def_cfa %rbp, 16
	movq	%rbx, %rdi
	movl	%r14d, %esi
	callq	write_out_picture.28
	popq	%rbx
	popq	%r14
	popq	%rbp
	.cfi_def_cfa %rsp, 8
	retq
.LBB3_10:                               # %func_write_out_picture.29
	.cfi_def_cfa %rbp, 16
	movq	%rbx, %rdi
	movl	%r14d, %esi
	callq	write_out_picture.29
	popq	%rbx
	popq	%r14
	popq	%rbp
	.cfi_def_cfa %rsp, 8
	retq
.LBB3_11:                               # %func_write_out_picture.31
	.cfi_def_cfa %rbp, 16
	movq	%rbx, %rdi
	movl	%r14d, %esi
	callq	write_out_picture.31
	popq	%rbx
	popq	%r14
	popq	%rbp
	.cfi_def_cfa %rsp, 8
	retq
.LBB3_12:                               # %func_write_out_picture.36
	.cfi_def_cfa %rbp, 16
	movq	%rbx, %rdi
	movl	%r14d, %esi
	callq	write_out_picture.36
	popq	%rbx
	popq	%r14
	popq	%rbp
	.cfi_def_cfa %rsp, 8
	retq
.LBB3_13:                               # %func_write_out_picture.37
	.cfi_def_cfa %rbp, 16
	movq	%rbx, %rdi
	movl	%r14d, %esi
	callq	write_out_picture.37
	popq	%rbx
	popq	%r14
	popq	%rbp
	.cfi_def_cfa %rsp, 8
	retq
.LBB3_14:                               # %func_write_out_picture.40
	.cfi_def_cfa %rbp, 16
	movq	%rbx, %rdi
	movl	%r14d, %esi
	callq	write_out_picture.40
	popq	%rbx
	popq	%r14
	popq	%rbp
	.cfi_def_cfa %rsp, 8
	retq
.LBB3_15:                               # %func_write_out_picture.46
	.cfi_def_cfa %rbp, 16
	movq	%rbx, %rdi
	movl	%r14d, %esi
	callq	write_out_picture.46
	popq	%rbx
	popq	%r14
	popq	%rbp
	.cfi_def_cfa %rsp, 8
	retq
.LBB3_16:                               # %func_write_out_picture.48
	.cfi_def_cfa %rbp, 16
	movq	%rbx, %rdi
	movl	%r14d, %esi
	callq	write_out_picture.48
	popq	%rbx
	popq	%r14
	popq	%rbp
	.cfi_def_cfa %rsp, 8
	retq
.LBB3_17:                               # %ctrl0
	.cfi_def_cfa %rbp, 16
	cmpl	$1, %eax
	je	.LBB3_2
# %bb.18:                               # %ctrl1
	cmpl	$2, %eax
	je	.LBB3_3
# %bb.19:                               # %ctrl2
	cmpl	$3, %eax
	je	.LBB3_4
# %bb.20:                               # %ctrl3
	cmpl	$4, %eax
	je	.LBB3_5
# %bb.21:                               # %ctrl4
	cmpl	$5, %eax
	je	.LBB3_6
# %bb.22:                               # %ctrl5
	cmpl	$6, %eax
	je	.LBB3_7
# %bb.23:                               # %ctrl6
	cmpl	$7, %eax
	je	.LBB3_8
# %bb.24:                               # %ctrl7
	cmpl	$8, %eax
	je	.LBB3_9
# %bb.25:                               # %ctrl8
	cmpl	$9, %eax
	je	.LBB3_10
# %bb.26:                               # %ctrl9
	cmpl	$10, %eax
	je	.LBB3_11
# %bb.27:                               # %ctrl10
	cmpl	$11, %eax
	je	.LBB3_12
# %bb.28:                               # %ctrl11
	cmpl	$12, %eax
	je	.LBB3_13
# %bb.29:                               # %ctrl12
	cmpl	$13, %eax
	je	.LBB3_14
# %bb.30:                               # %ctrl13
	cmpl	$14, %eax
	je	.LBB3_15
	jmp	.LBB3_16
.Lfunc_end3:
	.size	write_out_picture, .Lfunc_end3-write_out_picture
	.cfi_endproc
                                        # -- End function
	.globl	init_out_buffer         # -- Begin function init_out_buffer
	.p2align	4, 0x90
	.type	init_out_buffer,@function
init_out_buffer:                        # @init_out_buffer
	.cfi_startproc
# %bb.0:                                # %entry
	pushq	%rbp
	.cfi_def_cfa_offset 16
	.cfi_offset %rbp, -16
	movq	%rsp, %rbp
	.cfi_def_cfa_register %rbp
	movb	$0, %al
	callq	alloc_frame_store
	movq	%rax, out_buffer
	popq	%rbp
	.cfi_def_cfa %rsp, 8
	retq
.Lfunc_end4:
	.size	init_out_buffer, .Lfunc_end4-init_out_buffer
	.cfi_endproc
                                        # -- End function
	.globl	uninit_out_buffer       # -- Begin function uninit_out_buffer
	.p2align	4, 0x90
	.type	uninit_out_buffer,@function
uninit_out_buffer:                      # @uninit_out_buffer
	.cfi_startproc
# %bb.0:                                # %entry
	pushq	%rbp
	.cfi_def_cfa_offset 16
	.cfi_offset %rbp, -16
	movq	%rsp, %rbp
	.cfi_def_cfa_register %rbp
	movq	out_buffer, %rdi
	callq	free_frame_store
	movq	$0, out_buffer
	popq	%rbp
	.cfi_def_cfa %rsp, 8
	retq
.Lfunc_end5:
	.size	uninit_out_buffer, .Lfunc_end5-uninit_out_buffer
	.cfi_endproc
                                        # -- End function
	.globl	clear_picture           # -- Begin function clear_picture
	.p2align	4, 0x90
	.type	clear_picture,@function
clear_picture:                          # @clear_picture
	.cfi_startproc
# %bb.0:                                # %rand_bb
	pushq	%rbp
	.cfi_def_cfa_offset 16
	.cfi_offset %rbp, -16
	movq	%rsp, %rbp
	.cfi_def_cfa_register %rbp
	pushq	%rbx
	pushq	%rax
	.cfi_offset %rbx, -24
	movq	%rdi, %rbx
	callq	get_rand
	cmpl	$0, %eax
	jne	.LBB6_2
# %bb.1:                                # %func_clear_picture.6
	movq	%rbx, %rdi
	callq	clear_picture.6
	addq	$8, %rsp
	popq	%rbx
	popq	%rbp
	.cfi_def_cfa %rsp, 8
	retq
.LBB6_2:                                # %func_clear_picture.8
	.cfi_def_cfa %rbp, 16
	movq	%rbx, %rdi
	callq	clear_picture.8
	addq	$8, %rsp
	popq	%rbx
	popq	%rbp
	.cfi_def_cfa %rsp, 8
	retq
.Lfunc_end6:
	.size	clear_picture, .Lfunc_end6-clear_picture
	.cfi_endproc
                                        # -- End function
	.globl	write_unpaired_field    # -- Begin function write_unpaired_field
	.p2align	4, 0x90
	.type	write_unpaired_field,@function
write_unpaired_field:                   # @write_unpaired_field
	.cfi_startproc
# %bb.0:                                # %rand_bb
	pushq	%rbp
	.cfi_def_cfa_offset 16
	.cfi_offset %rbp, -16
	movq	%rsp, %rbp
	.cfi_def_cfa_register %rbp
	pushq	%r14
	pushq	%rbx
	.cfi_offset %rbx, -32
	.cfi_offset %r14, -24
	movl	%esi, %r14d
	movq	%rdi, %rbx
	callq	get_rand
	cmpl	$0, %eax
	jne	.LBB7_7
# %bb.1:                                # %func_write_unpaired_field.12
	movq	%rbx, %rdi
	movl	%r14d, %esi
	callq	write_unpaired_field.12
	popq	%rbx
	popq	%r14
	popq	%rbp
	.cfi_def_cfa %rsp, 8
	retq
.LBB7_2:                                # %func_write_unpaired_field.14
	.cfi_def_cfa %rbp, 16
	movq	%rbx, %rdi
	movl	%r14d, %esi
	callq	write_unpaired_field.14
	popq	%rbx
	popq	%r14
	popq	%rbp
	.cfi_def_cfa %rsp, 8
	retq
.LBB7_3:                                # %func_write_unpaired_field.32
	.cfi_def_cfa %rbp, 16
	movq	%rbx, %rdi
	movl	%r14d, %esi
	callq	write_unpaired_field.32
	popq	%rbx
	popq	%r14
	popq	%rbp
	.cfi_def_cfa %rsp, 8
	retq
.LBB7_4:                                # %func_write_unpaired_field.33
	.cfi_def_cfa %rbp, 16
	movq	%rbx, %rdi
	movl	%r14d, %esi
	callq	write_unpaired_field.33
	popq	%rbx
	popq	%r14
	popq	%rbp
	.cfi_def_cfa %rsp, 8
	retq
.LBB7_5:                                # %func_write_unpaired_field.34
	.cfi_def_cfa %rbp, 16
	movq	%rbx, %rdi
	movl	%r14d, %esi
	callq	write_unpaired_field.34
	popq	%rbx
	popq	%r14
	popq	%rbp
	.cfi_def_cfa %rsp, 8
	retq
.LBB7_6:                                # %func_write_unpaired_field.41
	.cfi_def_cfa %rbp, 16
	movq	%rbx, %rdi
	movl	%r14d, %esi
	callq	write_unpaired_field.41
	popq	%rbx
	popq	%r14
	popq	%rbp
	.cfi_def_cfa %rsp, 8
	retq
.LBB7_7:                                # %ctrl0
	.cfi_def_cfa %rbp, 16
	cmpl	$1, %eax
	je	.LBB7_2
# %bb.8:                                # %ctrl1
	cmpl	$2, %eax
	je	.LBB7_3
# %bb.9:                                # %ctrl2
	cmpl	$3, %eax
	je	.LBB7_4
# %bb.10:                               # %ctrl3
	cmpl	$4, %eax
	je	.LBB7_5
	jmp	.LBB7_6
.Lfunc_end7:
	.size	write_unpaired_field, .Lfunc_end7-write_unpaired_field
	.cfi_endproc
                                        # -- End function
	.globl	flush_direct_output     # -- Begin function flush_direct_output
	.p2align	4, 0x90
	.type	flush_direct_output,@function
flush_direct_output:                    # @flush_direct_output
	.cfi_startproc
# %bb.0:                                # %entry
	pushq	%rbp
	.cfi_def_cfa_offset 16
	.cfi_offset %rbp, -16
	movq	%rsp, %rbp
	.cfi_def_cfa_register %rbp
	subq	$16, %rsp
	movl	%edi, -4(%rbp)
	movq	out_buffer, %rdi
	movl	-4(%rbp), %esi
	callq	write_unpaired_field
	movq	out_buffer, %rax
	movq	40(%rax), %rdi
	callq	free_storable_picture
	movq	out_buffer, %rax
	movq	$0, 40(%rax)
	movq	out_buffer, %rax
	movq	48(%rax), %rdi
	callq	free_storable_picture
	movq	out_buffer, %rax
	movq	$0, 48(%rax)
	movq	out_buffer, %rax
	movq	56(%rax), %rdi
	callq	free_storable_picture
	movq	out_buffer, %rax
	movq	$0, 56(%rax)
	movq	out_buffer, %rax
	movl	$0, (%rax)
	addq	$16, %rsp
	popq	%rbp
	.cfi_def_cfa %rsp, 8
	retq
.Lfunc_end8:
	.size	flush_direct_output, .Lfunc_end8-flush_direct_output
	.cfi_endproc
                                        # -- End function
	.globl	write_stored_frame      # -- Begin function write_stored_frame
	.p2align	4, 0x90
	.type	write_stored_frame,@function
write_stored_frame:                     # @write_stored_frame
	.cfi_startproc
# %bb.0:                                # %rand_bb
	pushq	%rbp
	.cfi_def_cfa_offset 16
	.cfi_offset %rbp, -16
	movq	%rsp, %rbp
	.cfi_def_cfa_register %rbp
	pushq	%r14
	pushq	%rbx
	.cfi_offset %rbx, -32
	.cfi_offset %r14, -24
	movl	%esi, %r14d
	movq	%rdi, %rbx
	callq	get_rand
	cmpl	$0, %eax
	jne	.LBB9_2
# %bb.1:                                # %func_write_stored_frame.3
	movq	%rbx, %rdi
	movl	%r14d, %esi
	callq	write_stored_frame.3
	popq	%rbx
	popq	%r14
	popq	%rbp
	.cfi_def_cfa %rsp, 8
	retq
.LBB9_2:                                # %func_write_stored_frame.9
	.cfi_def_cfa %rbp, 16
	movq	%rbx, %rdi
	movl	%r14d, %esi
	callq	write_stored_frame.9
	popq	%rbx
	popq	%r14
	popq	%rbp
	.cfi_def_cfa %rsp, 8
	retq
.Lfunc_end9:
	.size	write_stored_frame, .Lfunc_end9-write_stored_frame
	.cfi_endproc
                                        # -- End function
	.globl	direct_output           # -- Begin function direct_output
	.p2align	4, 0x90
	.type	direct_output,@function
direct_output:                          # @direct_output
	.cfi_startproc
# %bb.0:                                # %rand_bb
	pushq	%rbp
	.cfi_def_cfa_offset 16
	.cfi_offset %rbp, -16
	movq	%rsp, %rbp
	.cfi_def_cfa_register %rbp
	pushq	%r14
	pushq	%rbx
	.cfi_offset %rbx, -32
	.cfi_offset %r14, -24
	movl	%esi, %r14d
	movq	%rdi, %rbx
	callq	get_rand
	cmpl	$0, %eax
	jne	.LBB10_2
# %bb.1:                                # %func_direct_output.19
	movq	%rbx, %rdi
	movl	%r14d, %esi
	callq	direct_output.19
	popq	%rbx
	popq	%r14
	popq	%rbp
	.cfi_def_cfa %rsp, 8
	retq
.LBB10_2:                               # %func_direct_output.25
	.cfi_def_cfa %rbp, 16
	movq	%rbx, %rdi
	movl	%r14d, %esi
	callq	direct_output.25
	popq	%rbx
	popq	%r14
	popq	%rbp
	.cfi_def_cfa %rsp, 8
	retq
.Lfunc_end10:
	.size	direct_output, .Lfunc_end10-direct_output
	.cfi_endproc
                                        # -- End function
	.globl	img2buf.1               # -- Begin function img2buf.1
	.p2align	4, 0x90
	.type	img2buf.1,@function
img2buf.1:                              # @img2buf.1
	.cfi_startproc
# %bb.0:                                # %entry
	pushq	%rbp
	.cfi_def_cfa_offset 16
	.cfi_offset %rbp, -16
	movq	%rsp, %rbp
	.cfi_def_cfa_register %rbp
	subq	$96, %rsp
	movl	32(%rbp), %eax
	movl	24(%rbp), %eax
	movl	16(%rbp), %eax
	movl	$1971256343, -76(%rbp)  # imm = 0x757EFC17
	movq	%rdi, -64(%rbp)
	movq	%rsi, -56(%rbp)
	movl	%edx, -20(%rbp)
	movl	%ecx, -32(%rbp)
	movl	%r8d, -28(%rbp)
	movl	%r9d, -12(%rbp)
	movl	-20(%rbp), %eax
	subl	-12(%rbp), %eax
	subl	16(%rbp), %eax
	movl	%eax, -24(%rbp)
	movl	-32(%rbp), %eax
	subl	24(%rbp), %eax
	subl	32(%rbp), %eax
	movl	%eax, -80(%rbp)
	movl	$0, -40(%rbp)
	callq	testEndian
	cmpl	$0, %eax
	je	.LBB11_33
# %bb.1:                                # %if.then
	movl	-28(%rbp), %eax
	movl	%eax, %ecx
	subl	$1, %ecx
	je	.LBB11_4
	jmp	.LBB11_2
.LBB11_2:                               # %if.then
	movl	%eax, %ecx
	subl	$2, %ecx
	je	.LBB11_13
	jmp	.LBB11_3
.LBB11_3:                               # %if.then
	subl	$4, %eax
	je	.LBB11_22
	jmp	.LBB11_31
.LBB11_4:                               # %sw.bb
	movl	24(%rbp), %eax
	movl	%eax, -8(%rbp)
.LBB11_5:                               # %for.cond
                                        # =>This Loop Header: Depth=1
                                        #     Child Loop BB11_7 Depth 2
	movl	-8(%rbp), %eax
	movl	-32(%rbp), %ecx
	subl	32(%rbp), %ecx
	cmpl	%ecx, %eax
	jge	.LBB11_12
# %bb.6:                                # %for.body
                                        #   in Loop: Header=BB11_5 Depth=1
	movl	-12(%rbp), %eax
	movl	%eax, -4(%rbp)
.LBB11_7:                               # %for.cond5
                                        #   Parent Loop BB11_5 Depth=1
                                        # =>  This Inner Loop Header: Depth=2
	movl	-4(%rbp), %eax
	movl	-20(%rbp), %ecx
	subl	16(%rbp), %ecx
	cmpl	%ecx, %eax
	jge	.LBB11_10
# %bb.8:                                # %for.body8
                                        #   in Loop: Header=BB11_7 Depth=2
	movq	-64(%rbp), %rax
	movslq	-8(%rbp), %rcx
	movq	(%rax,%rcx,8), %rax
	movslq	-4(%rbp), %rcx
	movw	(%rax,%rcx,2), %ax
	movb	%al, -13(%rbp)
	movb	-13(%rbp), %al
	movq	-56(%rbp), %rcx
	movl	-4(%rbp), %edx
	subl	-12(%rbp), %edx
	movl	-8(%rbp), %esi
	subl	24(%rbp), %esi
	imull	-24(%rbp), %esi
	addl	%esi, %edx
	movslq	%edx, %rdx
	movb	%al, (%rcx,%rdx)
# %bb.9:                                # %for.inc
                                        #   in Loop: Header=BB11_7 Depth=2
	movl	-4(%rbp), %eax
	addl	$1, %eax
	movl	%eax, -4(%rbp)
	jmp	.LBB11_7
.LBB11_10:                              # %for.end
                                        #   in Loop: Header=BB11_5 Depth=1
	jmp	.LBB11_11
.LBB11_11:                              # %for.inc15
                                        #   in Loop: Header=BB11_5 Depth=1
	movl	-8(%rbp), %eax
	addl	$1, %eax
	movl	%eax, -8(%rbp)
	jmp	.LBB11_5
.LBB11_12:                              # %for.end17
	jmp	.LBB11_32
.LBB11_13:                              # %sw.bb18
	movl	24(%rbp), %eax
	movl	%eax, -8(%rbp)
.LBB11_14:                              # %for.cond19
                                        # =>This Loop Header: Depth=1
                                        #     Child Loop BB11_16 Depth 2
	movl	-8(%rbp), %eax
	movl	-32(%rbp), %ecx
	subl	32(%rbp), %ecx
	cmpl	%ecx, %eax
	jge	.LBB11_21
# %bb.15:                               # %for.body23
                                        #   in Loop: Header=BB11_14 Depth=1
	movl	-12(%rbp), %eax
	movl	%eax, -4(%rbp)
.LBB11_16:                              # %for.cond24
                                        #   Parent Loop BB11_14 Depth=1
                                        # =>  This Inner Loop Header: Depth=2
	movl	-4(%rbp), %eax
	movl	-20(%rbp), %ecx
	subl	16(%rbp), %ecx
	cmpl	%ecx, %eax
	jge	.LBB11_19
# %bb.17:                               # %for.body28
                                        #   in Loop: Header=BB11_16 Depth=2
	movq	-64(%rbp), %rax
	movslq	-8(%rbp), %rcx
	movq	(%rax,%rcx,8), %rax
	movslq	-4(%rbp), %rcx
	movw	(%rax,%rcx,2), %ax
	movw	%ax, -34(%rbp)
	movzwl	-34(%rbp), %eax
	sarl	$8, %eax
	movzwl	-34(%rbp), %ecx
	andl	$255, %ecx
	shll	$8, %ecx
	orl	%ecx, %eax
	movw	%ax, -42(%rbp)
	movq	-56(%rbp), %rax
	movl	-4(%rbp), %ecx
	subl	-12(%rbp), %ecx
	movl	-8(%rbp), %edx
	subl	24(%rbp), %edx
	imull	-24(%rbp), %edx
	addl	%edx, %ecx
	shll	$1, %ecx
	movslq	%ecx, %rcx
	movw	-42(%rbp), %dx
	movw	%dx, (%rax,%rcx)
# %bb.18:                               # %for.inc41
                                        #   in Loop: Header=BB11_16 Depth=2
	movl	-4(%rbp), %eax
	addl	$1, %eax
	movl	%eax, -4(%rbp)
	jmp	.LBB11_16
.LBB11_19:                              # %for.end43
                                        #   in Loop: Header=BB11_14 Depth=1
	jmp	.LBB11_20
.LBB11_20:                              # %for.inc44
                                        #   in Loop: Header=BB11_14 Depth=1
	movl	-8(%rbp), %eax
	addl	$1, %eax
	movl	%eax, -8(%rbp)
	jmp	.LBB11_14
.LBB11_21:                              # %for.end46
	jmp	.LBB11_32
.LBB11_22:                              # %sw.bb47
	movl	24(%rbp), %eax
	movl	%eax, -8(%rbp)
.LBB11_23:                              # %for.cond48
                                        # =>This Loop Header: Depth=1
                                        #     Child Loop BB11_25 Depth 2
	movl	-8(%rbp), %eax
	movl	-32(%rbp), %ecx
	subl	32(%rbp), %ecx
	cmpl	%ecx, %eax
	jge	.LBB11_30
# %bb.24:                               # %for.body52
                                        #   in Loop: Header=BB11_23 Depth=1
	movl	-12(%rbp), %eax
	movl	%eax, -4(%rbp)
.LBB11_25:                              # %for.cond53
                                        #   Parent Loop BB11_23 Depth=1
                                        # =>  This Inner Loop Header: Depth=2
	movl	-4(%rbp), %eax
	movl	-20(%rbp), %ecx
	subl	16(%rbp), %ecx
	cmpl	%ecx, %eax
	jge	.LBB11_28
# %bb.26:                               # %for.body57
                                        #   in Loop: Header=BB11_25 Depth=2
	movq	-64(%rbp), %rax
	movslq	-8(%rbp), %rcx
	movq	(%rax,%rcx,8), %rax
	movslq	-4(%rbp), %rcx
	movzwl	(%rax,%rcx,2), %eax
	movq	%rax, -72(%rbp)
	movq	-72(%rbp), %rax
	andq	$65280, %rax            # imm = 0xFF00
	shlq	$8, %rax
	movq	-72(%rbp), %rcx
	andq	$255, %rcx
	shlq	$24, %rcx
	orq	%rcx, %rax
	movq	-72(%rbp), %rcx
	andq	$16711680, %rcx         # imm = 0xFF0000
	shrq	$8, %rcx
	orq	%rcx, %rax
	movl	$4278190080, %ecx       # imm = 0xFF000000
	andq	-72(%rbp), %rcx
	shrq	$24, %rcx
	orq	%rcx, %rax
	movq	%rax, -88(%rbp)
	movq	-56(%rbp), %rax
	movl	-4(%rbp), %ecx
	subl	-12(%rbp), %ecx
	movl	-8(%rbp), %edx
	subl	24(%rbp), %edx
	imull	-24(%rbp), %edx
	addl	%edx, %ecx
	shll	$2, %ecx
	movslq	%ecx, %rcx
	movl	-88(%rbp), %edx
	movl	%edx, (%rax,%rcx)
# %bb.27:                               # %for.inc81
                                        #   in Loop: Header=BB11_25 Depth=2
	movl	-4(%rbp), %eax
	addl	$1, %eax
	movl	%eax, -4(%rbp)
	jmp	.LBB11_25
.LBB11_28:                              # %for.end83
                                        #   in Loop: Header=BB11_23 Depth=1
	jmp	.LBB11_29
.LBB11_29:                              # %for.inc84
                                        #   in Loop: Header=BB11_23 Depth=1
	movl	-8(%rbp), %eax
	addl	$1, %eax
	movl	%eax, -8(%rbp)
	jmp	.LBB11_23
.LBB11_30:                              # %for.end86
	jmp	.LBB11_32
.LBB11_31:                              # %sw.default
	movabsq	$.L.str, %rdi
	movl	$500, %esi              # imm = 0x1F4
	callq	error
.LBB11_32:                              # %sw.epilog
	jmp	.LBB11_45
.LBB11_33:                              # %if.else
	movslq	-28(%rbp), %rax
	movl	$2, %ecx
	cmpq	%rax, %rcx
	jae	.LBB11_35
# %bb.34:                               # %if.then90
	movl	$2, -40(%rbp)
	movq	-56(%rbp), %rdi
	movl	-24(%rbp), %eax
	imull	-80(%rbp), %eax
	imull	-28(%rbp), %eax
	movslq	%eax, %rdx
	xorl	%esi, %esi
	callq	memset
	jmp	.LBB11_36
.LBB11_35:                              # %if.else94
	movl	-28(%rbp), %eax
	movl	%eax, -40(%rbp)
.LBB11_36:                              # %if.end
	movl	24(%rbp), %eax
	movl	%eax, -8(%rbp)
.LBB11_37:                              # %for.cond95
                                        # =>This Loop Header: Depth=1
                                        #     Child Loop BB11_39 Depth 2
	movl	-8(%rbp), %eax
	movl	-32(%rbp), %ecx
	subl	32(%rbp), %ecx
	cmpl	%ecx, %eax
	jge	.LBB11_44
# %bb.38:                               # %for.body99
                                        #   in Loop: Header=BB11_37 Depth=1
	movl	-12(%rbp), %eax
	movl	%eax, -4(%rbp)
.LBB11_39:                              # %for.cond100
                                        #   Parent Loop BB11_37 Depth=1
                                        # =>  This Inner Loop Header: Depth=2
	movl	-4(%rbp), %eax
	movl	-20(%rbp), %ecx
	subl	16(%rbp), %ecx
	cmpl	%ecx, %eax
	jge	.LBB11_42
# %bb.40:                               # %for.body104
                                        #   in Loop: Header=BB11_39 Depth=2
	movq	-56(%rbp), %rdi
	movl	-4(%rbp), %eax
	subl	-12(%rbp), %eax
	movl	-8(%rbp), %ecx
	subl	24(%rbp), %ecx
	imull	-24(%rbp), %ecx
	addl	%ecx, %eax
	imull	-28(%rbp), %eax
	cltq
	addq	%rax, %rdi
	movq	-64(%rbp), %rax
	movslq	-8(%rbp), %rcx
	movq	(%rax,%rcx,8), %rsi
	movslq	-4(%rbp), %rax
	shlq	$1, %rax
	addq	%rax, %rsi
	movslq	-40(%rbp), %rdx
	callq	memcpy
# %bb.41:                               # %for.inc117
                                        #   in Loop: Header=BB11_39 Depth=2
	movl	-4(%rbp), %eax
	addl	$1, %eax
	movl	%eax, -4(%rbp)
	jmp	.LBB11_39
.LBB11_42:                              # %for.end119
                                        #   in Loop: Header=BB11_37 Depth=1
	jmp	.LBB11_43
.LBB11_43:                              # %for.inc120
                                        #   in Loop: Header=BB11_37 Depth=1
	movl	-8(%rbp), %eax
	addl	$1, %eax
	movl	%eax, -8(%rbp)
	jmp	.LBB11_37
.LBB11_44:                              # %for.end122
	jmp	.LBB11_45
.LBB11_45:                              # %if.end123
	cmpl	$1971256343, -76(%rbp)  # imm = 0x757EFC17
	jne	.LBB11_47
.LBB11_46:
	addq	$96, %rsp
	popq	%rbp
	.cfi_def_cfa %rsp, 8
	retq
.LBB11_47:                              # %func_exit
	.cfi_def_cfa %rbp, 16
	callq	detect_breach
	jmp	.LBB11_46
.Lfunc_end11:
	.size	img2buf.1, .Lfunc_end11-img2buf.1
	.cfi_endproc
                                        # -- End function
	.globl	testEndian.2            # -- Begin function testEndian.2
	.p2align	4, 0x90
	.type	testEndian.2,@function
testEndian.2:                           # @testEndian.2
	.cfi_startproc
# %bb.0:                                # %entry
	pushq	%rbp
	.cfi_def_cfa_offset 16
	.cfi_offset %rbp, -16
	movq	%rsp, %rbp
	.cfi_def_cfa_register %rbp
	pushq	%rbx
	subq	$24, %rsp
	.cfi_offset %rbx, -24
	movl	$1119273083, -16(%rbp)  # imm = 0x42B6C07B
	leaq	-10(%rbp), %rax
	movq	%rax, -24(%rbp)
	movw	$1, -10(%rbp)
	movq	-24(%rbp), %rax
	movzbl	(%rax), %eax
	cmpl	$0, %eax
	sete	%al
	andb	$1, %al
	movzbl	%al, %ebx
	cmpl	$1119273083, -16(%rbp)  # imm = 0x42B6C07B
	jne	.LBB12_2
.LBB12_1:
	movl	%ebx, %eax
	addq	$24, %rsp
	popq	%rbx
	popq	%rbp
	.cfi_def_cfa %rsp, 8
	retq
.LBB12_2:                               # %func_exit
	.cfi_def_cfa %rbp, 16
	callq	detect_breach
	jmp	.LBB12_1
.Lfunc_end12:
	.size	testEndian.2, .Lfunc_end12-testEndian.2
	.cfi_endproc
                                        # -- End function
	.globl	write_stored_frame.3    # -- Begin function write_stored_frame.3
	.p2align	4, 0x90
	.type	write_stored_frame.3,@function
write_stored_frame.3:                   # @write_stored_frame.3
	.cfi_startproc
# %bb.0:                                # %entry
	pushq	%rbp
	.cfi_def_cfa_offset 16
	.cfi_offset %rbp, -16
	movq	%rsp, %rbp
	.cfi_def_cfa_register %rbp
	subq	$32, %rsp
	movl	$243214909, -20(%rbp)   # imm = 0xE7F2A3D
	movq	%rdi, -16(%rbp)
	movl	%esi, -4(%rbp)
	movl	-4(%rbp), %edi
	callq	flush_direct_output
	movq	-16(%rbp), %rax
	cmpl	$3, (%rax)
	jge	.LBB13_2
# %bb.1:                                # %if.then
	movq	-16(%rbp), %rdi
	movl	-4(%rbp), %esi
	callq	write_unpaired_field
	jmp	.LBB13_3
.LBB13_2:                               # %if.else
	movq	-16(%rbp), %rax
	movq	40(%rax), %rdi
	movl	-4(%rbp), %esi
	xorl	%edx, %edx
	callq	write_picture
.LBB13_3:                               # %if.end
	movq	-16(%rbp), %rax
	movl	$1, 32(%rax)
	cmpl	$243214909, -20(%rbp)   # imm = 0xE7F2A3D
	jne	.LBB13_5
.LBB13_4:
	addq	$32, %rsp
	popq	%rbp
	.cfi_def_cfa %rsp, 8
	retq
.LBB13_5:                               # %func_exit
	.cfi_def_cfa %rbp, 16
	callq	detect_breach
	jmp	.LBB13_4
.Lfunc_end13:
	.size	write_stored_frame.3, .Lfunc_end13-write_stored_frame.3
	.cfi_endproc
                                        # -- End function
	.globl	write_out_picture.4     # -- Begin function write_out_picture.4
	.p2align	4, 0x90
	.type	write_out_picture.4,@function
write_out_picture.4:                    # @write_out_picture.4
	.cfi_startproc
# %bb.0:                                # %entry
	pushq	%rbp
	.cfi_def_cfa_offset 16
	.cfi_offset %rbp, -16
	movq	%rsp, %rbp
	.cfi_def_cfa_register %rbp
	subq	$128, %rsp
	xorl	%ecx, %ecx
	movl	$708181615, -52(%rbp)   # imm = 0x2A35FE6F
	movq	%rdi, -8(%rbp)
	movl	%esi, -44(%rbp)
	movq	.L__const.write_out_picture.SubWidthC, %rax
	movq	%rax, -80(%rbp)
	movq	.L__const.write_out_picture.SubWidthC+8, %rax
	movq	%rax, -72(%rbp)
	movq	.L__const.write_out_picture.SubHeightC, %rax
	movq	%rax, -96(%rbp)
	movq	.L__const.write_out_picture.SubHeightC+8, %rax
	movq	%rax, -88(%rbp)
	movq	img, %rax
	movl	72656(%rax), %eax
	cltd
	movl	$8, %esi
	idivl	%esi
	movl	%eax, -28(%rbp)
	movq	input, %rax
	cmpl	$0, 3312(%rax)
	je	.LBB14_2
# %bb.1:                                # %land.rhs
	movq	input, %rax
	cmpl	$3, 72(%rax)
	sete	%cl
.LBB14_2:                               # %land.end
	andb	$1, %cl
	movzbl	%cl, %eax
	movl	%eax, -48(%rbp)
	movq	-8(%rbp), %rax
	cmpl	$0, 6388(%rax)
	je	.LBB14_4
# %bb.3:                                # %if.then
	jmp	.LBB14_19
.LBB14_4:                               # %if.end
	movq	-8(%rbp), %rax
	cmpl	$0, 6560(%rax)
	je	.LBB14_6
# %bb.5:                                # %if.then3
	movq	-8(%rbp), %rax
	movslq	6552(%rax), %rax
	movl	-80(%rbp,%rax,4), %eax
	movq	-8(%rbp), %rcx
	imull	6564(%rcx), %eax
	movl	%eax, -20(%rbp)
	movq	-8(%rbp), %rax
	movslq	6552(%rax), %rax
	movl	-80(%rbp,%rax,4), %eax
	movq	-8(%rbp), %rcx
	imull	6568(%rcx), %eax
	movl	%eax, -16(%rbp)
	movq	-8(%rbp), %rax
	movslq	6552(%rax), %rax
	movl	-96(%rbp,%rax,4), %eax
	movq	-8(%rbp), %rcx
	movl	$2, %edx
	movl	$2, %esi
	subl	6556(%rcx), %esi
	imull	%esi, %eax
	movq	-8(%rbp), %rcx
	imull	6572(%rcx), %eax
	movl	%eax, -24(%rbp)
	movq	-8(%rbp), %rax
	movslq	6552(%rax), %rax
	movl	-96(%rbp,%rax,4), %eax
	movq	-8(%rbp), %rcx
	subl	6556(%rcx), %edx
	imull	%edx, %eax
	movq	-8(%rbp), %rcx
	imull	6576(%rcx), %eax
	movl	%eax, -12(%rbp)
	jmp	.LBB14_7
.LBB14_6:                               # %if.else
	movl	$0, -12(%rbp)
	movl	$0, -24(%rbp)
	movl	$0, -16(%rbp)
	movl	$0, -20(%rbp)
.LBB14_7:                               # %if.end20
	movq	-8(%rbp), %rax
	movl	6392(%rax), %eax
	movq	-8(%rbp), %rcx
	imull	6396(%rcx), %eax
	imull	-28(%rbp), %eax
	movslq	%eax, %rdi
	callq	malloc
	xorl	%ecx, %ecx
	movq	%rax, -40(%rbp)
	cmpq	%rax, %rcx
	jne	.LBB14_9
# %bb.8:                                # %if.then25
	movabsq	$.L.str.1, %rdi
	callq	no_mem_exit
.LBB14_9:                               # %if.end26
	cmpl	$0, -48(%rbp)
	je	.LBB14_14
# %bb.10:                               # %if.then28
	movq	-8(%rbp), %rax
	movl	6564(%rax), %eax
	movl	%eax, -20(%rbp)
	movq	-8(%rbp), %rax
	movl	6568(%rax), %eax
	movl	%eax, -16(%rbp)
	movq	-8(%rbp), %rax
	movl	$2, %ecx
	movl	$2, %edx
	subl	6556(%rax), %edx
	movq	-8(%rbp), %rax
	imull	6572(%rax), %edx
	movl	%edx, -24(%rbp)
	movq	-8(%rbp), %rax
	subl	6556(%rax), %ecx
	movq	-8(%rbp), %rax
	imull	6576(%rax), %ecx
	movl	%ecx, -12(%rbp)
	movq	-8(%rbp), %rax
	movq	6464(%rax), %rax
	movq	8(%rax), %rdi
	movq	-40(%rbp), %rsi
	movq	-8(%rbp), %rax
	movl	6400(%rax), %edx
	movq	-8(%rbp), %rax
	movl	6404(%rax), %ecx
	movl	-28(%rbp), %r8d
	movl	-20(%rbp), %r9d
	movl	-16(%rbp), %eax
	movl	-24(%rbp), %r10d
	movl	-12(%rbp), %r11d
	movl	%eax, (%rsp)
	movl	%r10d, 8(%rsp)
	movl	%r11d, 16(%rsp)
	callq	img2buf
	movl	-44(%rbp), %edi
	movq	-40(%rbp), %rsi
	movq	-8(%rbp), %rax
	movl	6404(%rax), %eax
	subl	-12(%rbp), %eax
	subl	-24(%rbp), %eax
	movq	-8(%rbp), %rcx
	movl	6400(%rcx), %ecx
	subl	-16(%rbp), %ecx
	subl	-20(%rbp), %ecx
	imull	%ecx, %eax
	imull	-28(%rbp), %eax
	movslq	%eax, %rdx
	callq	write
	movq	active_sps, %rax
	cmpl	$0, 1160(%rax)
	je	.LBB14_12
# %bb.11:                               # %if.then52
	movq	-8(%rbp), %rax
	movslq	6552(%rax), %rax
	movl	-80(%rbp,%rax,4), %eax
	movq	-8(%rbp), %rcx
	imull	6564(%rcx), %eax
	movl	%eax, -20(%rbp)
	movq	-8(%rbp), %rax
	movslq	6552(%rax), %rax
	movl	-80(%rbp,%rax,4), %eax
	movq	-8(%rbp), %rcx
	imull	6568(%rcx), %eax
	movl	%eax, -16(%rbp)
	movq	-8(%rbp), %rax
	movslq	6552(%rax), %rax
	movl	-96(%rbp,%rax,4), %eax
	movq	-8(%rbp), %rcx
	movl	$2, %edx
	movl	$2, %esi
	subl	6556(%rcx), %esi
	imull	%esi, %eax
	movq	-8(%rbp), %rcx
	imull	6572(%rcx), %eax
	movl	%eax, -24(%rbp)
	movq	-8(%rbp), %rax
	movslq	6552(%rax), %rax
	movl	-96(%rbp,%rax,4), %eax
	movq	-8(%rbp), %rcx
	subl	6556(%rcx), %edx
	imull	%edx, %eax
	movq	-8(%rbp), %rcx
	imull	6576(%rcx), %eax
	movl	%eax, -12(%rbp)
	jmp	.LBB14_13
.LBB14_12:                              # %if.else79
	movl	$0, -12(%rbp)
	movl	$0, -24(%rbp)
	movl	$0, -16(%rbp)
	movl	$0, -20(%rbp)
.LBB14_13:                              # %if.end80
	jmp	.LBB14_14
.LBB14_14:                              # %if.end81
	movq	-8(%rbp), %rax
	movq	6424(%rax), %rdi
	movq	-40(%rbp), %rsi
	movq	-8(%rbp), %rax
	movl	6392(%rax), %edx
	movq	-8(%rbp), %rax
	movl	6396(%rax), %ecx
	movl	-28(%rbp), %r8d
	movl	-20(%rbp), %r9d
	movl	-16(%rbp), %eax
	movl	-24(%rbp), %r10d
	movl	-12(%rbp), %r11d
	movl	%eax, (%rsp)
	movl	%r10d, 8(%rsp)
	movl	%r11d, 16(%rsp)
	callq	img2buf
	movl	-44(%rbp), %edi
	movq	-40(%rbp), %rsi
	movq	-8(%rbp), %rax
	movl	6396(%rax), %eax
	subl	-12(%rbp), %eax
	subl	-24(%rbp), %eax
	movq	-8(%rbp), %rcx
	movl	6392(%rcx), %ecx
	subl	-16(%rbp), %ecx
	subl	-20(%rbp), %ecx
	imull	%ecx, %eax
	imull	-28(%rbp), %eax
	movslq	%eax, %rdx
	callq	write
	movq	-8(%rbp), %rax
	cmpl	$0, 6552(%rax)
	je	.LBB14_18
# %bb.15:                               # %if.then97
	movq	-8(%rbp), %rax
	movl	6564(%rax), %eax
	movl	%eax, -20(%rbp)
	movq	-8(%rbp), %rax
	movl	6568(%rax), %eax
	movl	%eax, -16(%rbp)
	movq	-8(%rbp), %rax
	movl	$2, %ecx
	movl	$2, %edx
	subl	6556(%rax), %edx
	movq	-8(%rbp), %rax
	imull	6572(%rax), %edx
	movl	%edx, -24(%rbp)
	movq	-8(%rbp), %rax
	subl	6556(%rax), %ecx
	movq	-8(%rbp), %rax
	imull	6576(%rax), %ecx
	movl	%ecx, -12(%rbp)
	movq	-8(%rbp), %rax
	movq	6464(%rax), %rax
	movq	(%rax), %rdi
	movq	-40(%rbp), %rsi
	movq	-8(%rbp), %rax
	movl	6400(%rax), %edx
	movq	-8(%rbp), %rax
	movl	6404(%rax), %ecx
	movl	-28(%rbp), %r8d
	movl	-20(%rbp), %r9d
	movl	-16(%rbp), %eax
	movl	-24(%rbp), %r10d
	movl	-12(%rbp), %r11d
	movl	%eax, (%rsp)
	movl	%r10d, 8(%rsp)
	movl	%r11d, 16(%rsp)
	callq	img2buf
	movl	-44(%rbp), %edi
	movq	-40(%rbp), %rsi
	movq	-8(%rbp), %rax
	movl	6404(%rax), %eax
	subl	-12(%rbp), %eax
	subl	-24(%rbp), %eax
	movq	-8(%rbp), %rcx
	movl	6400(%rcx), %ecx
	subl	-16(%rbp), %ecx
	subl	-20(%rbp), %ecx
	imull	%ecx, %eax
	imull	-28(%rbp), %eax
	movslq	%eax, %rdx
	callq	write
	cmpl	$0, -48(%rbp)
	jne	.LBB14_17
# %bb.16:                               # %if.then123
	movq	-8(%rbp), %rax
	movq	6464(%rax), %rax
	movq	8(%rax), %rdi
	movq	-40(%rbp), %rsi
	movq	-8(%rbp), %rax
	movl	6400(%rax), %edx
	movq	-8(%rbp), %rax
	movl	6404(%rax), %ecx
	movl	-28(%rbp), %r8d
	movl	-20(%rbp), %r9d
	movl	-16(%rbp), %eax
	movl	-24(%rbp), %r10d
	movl	-12(%rbp), %r11d
	movl	%eax, (%rsp)
	movl	%r10d, 8(%rsp)
	movl	%r11d, 16(%rsp)
	callq	img2buf
	movl	-44(%rbp), %edi
	movq	-40(%rbp), %rsi
	movq	-8(%rbp), %rax
	movl	6404(%rax), %eax
	subl	-12(%rbp), %eax
	subl	-24(%rbp), %eax
	movq	-8(%rbp), %rcx
	movl	6400(%rcx), %ecx
	subl	-16(%rbp), %ecx
	subl	-20(%rbp), %ecx
	imull	%ecx, %eax
	imull	-28(%rbp), %eax
	movslq	%eax, %rdx
	callq	write
.LBB14_17:                              # %if.end138
	jmp	.LBB14_18
.LBB14_18:                              # %if.end139
	movq	-40(%rbp), %rdi
	callq	free
.LBB14_19:                              # %return
	cmpl	$708181615, -52(%rbp)   # imm = 0x2A35FE6F
	jne	.LBB14_21
.LBB14_20:
	addq	$128, %rsp
	popq	%rbp
	.cfi_def_cfa %rsp, 8
	retq
.LBB14_21:                              # %func_exit
	.cfi_def_cfa %rbp, 16
	callq	detect_breach
	jmp	.LBB14_20
.Lfunc_end14:
	.size	write_out_picture.4, .Lfunc_end14-write_out_picture.4
	.cfi_endproc
                                        # -- End function
	.globl	testEndian.5            # -- Begin function testEndian.5
	.p2align	4, 0x90
	.type	testEndian.5,@function
testEndian.5:                           # @testEndian.5
	.cfi_startproc
# %bb.0:                                # %entry
	pushq	%rbp
	.cfi_def_cfa_offset 16
	.cfi_offset %rbp, -16
	movq	%rsp, %rbp
	.cfi_def_cfa_register %rbp
	pushq	%rbx
	subq	$24, %rsp
	.cfi_offset %rbx, -24
	movl	$1922422980, -16(%rbp)  # imm = 0x7295D8C4
	leaq	-10(%rbp), %rax
	movq	%rax, -24(%rbp)
	movw	$1, -10(%rbp)
	movq	-24(%rbp), %rax
	movzbl	(%rax), %eax
	cmpl	$0, %eax
	sete	%al
	andb	$1, %al
	movzbl	%al, %ebx
	cmpl	$1922422980, -16(%rbp)  # imm = 0x7295D8C4
	jne	.LBB15_2
.LBB15_1:
	movl	%ebx, %eax
	addq	$24, %rsp
	popq	%rbx
	popq	%rbp
	.cfi_def_cfa %rsp, 8
	retq
.LBB15_2:                               # %func_exit
	.cfi_def_cfa %rbp, 16
	callq	detect_breach
	jmp	.LBB15_1
.Lfunc_end15:
	.size	testEndian.5, .Lfunc_end15-testEndian.5
	.cfi_endproc
                                        # -- End function
	.globl	clear_picture.6         # -- Begin function clear_picture.6
	.p2align	4, 0x90
	.type	clear_picture.6,@function
clear_picture.6:                        # @clear_picture.6
	.cfi_startproc
# %bb.0:                                # %entry
	pushq	%rbp
	.cfi_def_cfa_offset 16
	.cfi_offset %rbp, -16
	movq	%rsp, %rbp
	.cfi_def_cfa_register %rbp
	subq	$32, %rsp
	movl	$1327828077, -20(%rbp)  # imm = 0x4F250C6D
	movq	%rdi, -16(%rbp)
	movl	$0, -4(%rbp)
.LBB16_1:                               # %for.cond
                                        # =>This Inner Loop Header: Depth=1
	movl	-4(%rbp), %eax
	movq	-16(%rbp), %rcx
	cmpl	6396(%rcx), %eax
	jge	.LBB16_4
# %bb.2:                                # %for.body
                                        #   in Loop: Header=BB16_1 Depth=1
	movq	-16(%rbp), %rax
	movq	6424(%rax), %rax
	movslq	-4(%rbp), %rcx
	movq	(%rax,%rcx,8), %rdi
	movq	img, %rax
	movl	72680(%rax), %eax
	movq	-16(%rbp), %rcx
	movslq	6392(%rcx), %rdx
	shlq	$1, %rdx
	movzbl	%al, %esi
	callq	memset
# %bb.3:                                # %for.inc
                                        #   in Loop: Header=BB16_1 Depth=1
	movl	-4(%rbp), %eax
	addl	$1, %eax
	movl	%eax, -4(%rbp)
	jmp	.LBB16_1
.LBB16_4:                               # %for.end
	movl	$0, -4(%rbp)
.LBB16_5:                               # %for.cond1
                                        # =>This Inner Loop Header: Depth=1
	movl	-4(%rbp), %eax
	movq	-16(%rbp), %rcx
	cmpl	6404(%rcx), %eax
	jge	.LBB16_8
# %bb.6:                                # %for.body4
                                        #   in Loop: Header=BB16_5 Depth=1
	movq	-16(%rbp), %rax
	movq	6464(%rax), %rax
	movq	(%rax), %rax
	movslq	-4(%rbp), %rcx
	movq	(%rax,%rcx,8), %rdi
	movq	img, %rax
	movl	72680(%rax), %eax
	movq	-16(%rbp), %rcx
	movslq	6400(%rcx), %rdx
	shlq	$1, %rdx
	movzbl	%al, %esi
	callq	memset
# %bb.7:                                # %for.inc11
                                        #   in Loop: Header=BB16_5 Depth=1
	movl	-4(%rbp), %eax
	addl	$1, %eax
	movl	%eax, -4(%rbp)
	jmp	.LBB16_5
.LBB16_8:                               # %for.end13
	movl	$0, -4(%rbp)
.LBB16_9:                               # %for.cond14
                                        # =>This Inner Loop Header: Depth=1
	movl	-4(%rbp), %eax
	movq	-16(%rbp), %rcx
	cmpl	6404(%rcx), %eax
	jge	.LBB16_12
# %bb.10:                               # %for.body18
                                        #   in Loop: Header=BB16_9 Depth=1
	movq	-16(%rbp), %rax
	movq	6464(%rax), %rax
	movq	8(%rax), %rax
	movslq	-4(%rbp), %rcx
	movq	(%rax,%rcx,8), %rdi
	movq	img, %rax
	movl	72680(%rax), %eax
	movq	-16(%rbp), %rcx
	movslq	6400(%rcx), %rdx
	shlq	$1, %rdx
	movzbl	%al, %esi
	callq	memset
# %bb.11:                               # %for.inc27
                                        #   in Loop: Header=BB16_9 Depth=1
	movl	-4(%rbp), %eax
	addl	$1, %eax
	movl	%eax, -4(%rbp)
	jmp	.LBB16_9
.LBB16_12:                              # %for.end29
	cmpl	$1327828077, -20(%rbp)  # imm = 0x4F250C6D
	jne	.LBB16_14
.LBB16_13:
	addq	$32, %rsp
	popq	%rbp
	.cfi_def_cfa %rsp, 8
	retq
.LBB16_14:                              # %func_exit
	.cfi_def_cfa %rbp, 16
	callq	detect_breach
	jmp	.LBB16_13
.Lfunc_end16:
	.size	clear_picture.6, .Lfunc_end16-clear_picture.6
	.cfi_endproc
                                        # -- End function
	.globl	write_out_picture.7     # -- Begin function write_out_picture.7
	.p2align	4, 0x90
	.type	write_out_picture.7,@function
write_out_picture.7:                    # @write_out_picture.7
	.cfi_startproc
# %bb.0:                                # %entry
	pushq	%rbp
	.cfi_def_cfa_offset 16
	.cfi_offset %rbp, -16
	movq	%rsp, %rbp
	.cfi_def_cfa_register %rbp
	subq	$128, %rsp
	xorl	%ecx, %ecx
	movl	$265766095, -52(%rbp)   # imm = 0xFD744CF
	movq	%rdi, -8(%rbp)
	movl	%esi, -44(%rbp)
	movq	.L__const.write_out_picture.SubWidthC, %rax
	movq	%rax, -96(%rbp)
	movq	.L__const.write_out_picture.SubWidthC+8, %rax
	movq	%rax, -88(%rbp)
	movq	.L__const.write_out_picture.SubHeightC, %rax
	movq	%rax, -80(%rbp)
	movq	.L__const.write_out_picture.SubHeightC+8, %rax
	movq	%rax, -72(%rbp)
	movq	img, %rax
	movl	72656(%rax), %eax
	cltd
	movl	$8, %esi
	idivl	%esi
	movl	%eax, -28(%rbp)
	movq	input, %rax
	cmpl	$0, 3312(%rax)
	je	.LBB17_2
# %bb.1:                                # %land.rhs
	movq	input, %rax
	cmpl	$3, 72(%rax)
	sete	%cl
.LBB17_2:                               # %land.end
	andb	$1, %cl
	movzbl	%cl, %eax
	movl	%eax, -48(%rbp)
	movq	-8(%rbp), %rax
	cmpl	$0, 6388(%rax)
	je	.LBB17_4
# %bb.3:                                # %if.then
	jmp	.LBB17_19
.LBB17_4:                               # %if.end
	movq	-8(%rbp), %rax
	cmpl	$0, 6560(%rax)
	je	.LBB17_6
# %bb.5:                                # %if.then3
	movq	-8(%rbp), %rax
	movslq	6552(%rax), %rax
	movl	-96(%rbp,%rax,4), %eax
	movq	-8(%rbp), %rcx
	imull	6564(%rcx), %eax
	movl	%eax, -20(%rbp)
	movq	-8(%rbp), %rax
	movslq	6552(%rax), %rax
	movl	-96(%rbp,%rax,4), %eax
	movq	-8(%rbp), %rcx
	imull	6568(%rcx), %eax
	movl	%eax, -12(%rbp)
	movq	-8(%rbp), %rax
	movslq	6552(%rax), %rax
	movl	-80(%rbp,%rax,4), %eax
	movq	-8(%rbp), %rcx
	movl	$2, %edx
	movl	$2, %esi
	subl	6556(%rcx), %esi
	imull	%esi, %eax
	movq	-8(%rbp), %rcx
	imull	6572(%rcx), %eax
	movl	%eax, -24(%rbp)
	movq	-8(%rbp), %rax
	movslq	6552(%rax), %rax
	movl	-80(%rbp,%rax,4), %eax
	movq	-8(%rbp), %rcx
	subl	6556(%rcx), %edx
	imull	%edx, %eax
	movq	-8(%rbp), %rcx
	imull	6576(%rcx), %eax
	movl	%eax, -16(%rbp)
	jmp	.LBB17_7
.LBB17_6:                               # %if.else
	movl	$0, -16(%rbp)
	movl	$0, -24(%rbp)
	movl	$0, -12(%rbp)
	movl	$0, -20(%rbp)
.LBB17_7:                               # %if.end20
	movq	-8(%rbp), %rax
	movl	6392(%rax), %eax
	movq	-8(%rbp), %rcx
	imull	6396(%rcx), %eax
	imull	-28(%rbp), %eax
	movslq	%eax, %rdi
	callq	malloc
	xorl	%ecx, %ecx
	movq	%rax, -40(%rbp)
	cmpq	%rax, %rcx
	jne	.LBB17_9
# %bb.8:                                # %if.then25
	movabsq	$.L.str.1, %rdi
	callq	no_mem_exit
.LBB17_9:                               # %if.end26
	cmpl	$0, -48(%rbp)
	je	.LBB17_14
# %bb.10:                               # %if.then28
	movq	-8(%rbp), %rax
	movl	6564(%rax), %eax
	movl	%eax, -20(%rbp)
	movq	-8(%rbp), %rax
	movl	6568(%rax), %eax
	movl	%eax, -12(%rbp)
	movq	-8(%rbp), %rax
	movl	$2, %ecx
	movl	$2, %edx
	subl	6556(%rax), %edx
	movq	-8(%rbp), %rax
	imull	6572(%rax), %edx
	movl	%edx, -24(%rbp)
	movq	-8(%rbp), %rax
	subl	6556(%rax), %ecx
	movq	-8(%rbp), %rax
	imull	6576(%rax), %ecx
	movl	%ecx, -16(%rbp)
	movq	-8(%rbp), %rax
	movq	6464(%rax), %rax
	movq	8(%rax), %rdi
	movq	-40(%rbp), %rsi
	movq	-8(%rbp), %rax
	movl	6400(%rax), %edx
	movq	-8(%rbp), %rax
	movl	6404(%rax), %ecx
	movl	-28(%rbp), %r8d
	movl	-20(%rbp), %r9d
	movl	-12(%rbp), %eax
	movl	-24(%rbp), %r10d
	movl	-16(%rbp), %r11d
	movl	%eax, (%rsp)
	movl	%r10d, 8(%rsp)
	movl	%r11d, 16(%rsp)
	callq	img2buf
	movl	-44(%rbp), %edi
	movq	-40(%rbp), %rsi
	movq	-8(%rbp), %rax
	movl	6404(%rax), %eax
	subl	-16(%rbp), %eax
	subl	-24(%rbp), %eax
	movq	-8(%rbp), %rcx
	movl	6400(%rcx), %ecx
	subl	-12(%rbp), %ecx
	subl	-20(%rbp), %ecx
	imull	%ecx, %eax
	imull	-28(%rbp), %eax
	movslq	%eax, %rdx
	callq	write
	movq	active_sps, %rax
	cmpl	$0, 1160(%rax)
	je	.LBB17_12
# %bb.11:                               # %if.then52
	movq	-8(%rbp), %rax
	movslq	6552(%rax), %rax
	movl	-96(%rbp,%rax,4), %eax
	movq	-8(%rbp), %rcx
	imull	6564(%rcx), %eax
	movl	%eax, -20(%rbp)
	movq	-8(%rbp), %rax
	movslq	6552(%rax), %rax
	movl	-96(%rbp,%rax,4), %eax
	movq	-8(%rbp), %rcx
	imull	6568(%rcx), %eax
	movl	%eax, -12(%rbp)
	movq	-8(%rbp), %rax
	movslq	6552(%rax), %rax
	movl	-80(%rbp,%rax,4), %eax
	movq	-8(%rbp), %rcx
	movl	$2, %edx
	movl	$2, %esi
	subl	6556(%rcx), %esi
	imull	%esi, %eax
	movq	-8(%rbp), %rcx
	imull	6572(%rcx), %eax
	movl	%eax, -24(%rbp)
	movq	-8(%rbp), %rax
	movslq	6552(%rax), %rax
	movl	-80(%rbp,%rax,4), %eax
	movq	-8(%rbp), %rcx
	subl	6556(%rcx), %edx
	imull	%edx, %eax
	movq	-8(%rbp), %rcx
	imull	6576(%rcx), %eax
	movl	%eax, -16(%rbp)
	jmp	.LBB17_13
.LBB17_12:                              # %if.else79
	movl	$0, -16(%rbp)
	movl	$0, -24(%rbp)
	movl	$0, -12(%rbp)
	movl	$0, -20(%rbp)
.LBB17_13:                              # %if.end80
	jmp	.LBB17_14
.LBB17_14:                              # %if.end81
	movq	-8(%rbp), %rax
	movq	6424(%rax), %rdi
	movq	-40(%rbp), %rsi
	movq	-8(%rbp), %rax
	movl	6392(%rax), %edx
	movq	-8(%rbp), %rax
	movl	6396(%rax), %ecx
	movl	-28(%rbp), %r8d
	movl	-20(%rbp), %r9d
	movl	-12(%rbp), %eax
	movl	-24(%rbp), %r10d
	movl	-16(%rbp), %r11d
	movl	%eax, (%rsp)
	movl	%r10d, 8(%rsp)
	movl	%r11d, 16(%rsp)
	callq	img2buf
	movl	-44(%rbp), %edi
	movq	-40(%rbp), %rsi
	movq	-8(%rbp), %rax
	movl	6396(%rax), %eax
	subl	-16(%rbp), %eax
	subl	-24(%rbp), %eax
	movq	-8(%rbp), %rcx
	movl	6392(%rcx), %ecx
	subl	-12(%rbp), %ecx
	subl	-20(%rbp), %ecx
	imull	%ecx, %eax
	imull	-28(%rbp), %eax
	movslq	%eax, %rdx
	callq	write
	movq	-8(%rbp), %rax
	cmpl	$0, 6552(%rax)
	je	.LBB17_18
# %bb.15:                               # %if.then97
	movq	-8(%rbp), %rax
	movl	6564(%rax), %eax
	movl	%eax, -20(%rbp)
	movq	-8(%rbp), %rax
	movl	6568(%rax), %eax
	movl	%eax, -12(%rbp)
	movq	-8(%rbp), %rax
	movl	$2, %ecx
	movl	$2, %edx
	subl	6556(%rax), %edx
	movq	-8(%rbp), %rax
	imull	6572(%rax), %edx
	movl	%edx, -24(%rbp)
	movq	-8(%rbp), %rax
	subl	6556(%rax), %ecx
	movq	-8(%rbp), %rax
	imull	6576(%rax), %ecx
	movl	%ecx, -16(%rbp)
	movq	-8(%rbp), %rax
	movq	6464(%rax), %rax
	movq	(%rax), %rdi
	movq	-40(%rbp), %rsi
	movq	-8(%rbp), %rax
	movl	6400(%rax), %edx
	movq	-8(%rbp), %rax
	movl	6404(%rax), %ecx
	movl	-28(%rbp), %r8d
	movl	-20(%rbp), %r9d
	movl	-12(%rbp), %eax
	movl	-24(%rbp), %r10d
	movl	-16(%rbp), %r11d
	movl	%eax, (%rsp)
	movl	%r10d, 8(%rsp)
	movl	%r11d, 16(%rsp)
	callq	img2buf
	movl	-44(%rbp), %edi
	movq	-40(%rbp), %rsi
	movq	-8(%rbp), %rax
	movl	6404(%rax), %eax
	subl	-16(%rbp), %eax
	subl	-24(%rbp), %eax
	movq	-8(%rbp), %rcx
	movl	6400(%rcx), %ecx
	subl	-12(%rbp), %ecx
	subl	-20(%rbp), %ecx
	imull	%ecx, %eax
	imull	-28(%rbp), %eax
	movslq	%eax, %rdx
	callq	write
	cmpl	$0, -48(%rbp)
	jne	.LBB17_17
# %bb.16:                               # %if.then123
	movq	-8(%rbp), %rax
	movq	6464(%rax), %rax
	movq	8(%rax), %rdi
	movq	-40(%rbp), %rsi
	movq	-8(%rbp), %rax
	movl	6400(%rax), %edx
	movq	-8(%rbp), %rax
	movl	6404(%rax), %ecx
	movl	-28(%rbp), %r8d
	movl	-20(%rbp), %r9d
	movl	-12(%rbp), %eax
	movl	-24(%rbp), %r10d
	movl	-16(%rbp), %r11d
	movl	%eax, (%rsp)
	movl	%r10d, 8(%rsp)
	movl	%r11d, 16(%rsp)
	callq	img2buf
	movl	-44(%rbp), %edi
	movq	-40(%rbp), %rsi
	movq	-8(%rbp), %rax
	movl	6404(%rax), %eax
	subl	-16(%rbp), %eax
	subl	-24(%rbp), %eax
	movq	-8(%rbp), %rcx
	movl	6400(%rcx), %ecx
	subl	-12(%rbp), %ecx
	subl	-20(%rbp), %ecx
	imull	%ecx, %eax
	imull	-28(%rbp), %eax
	movslq	%eax, %rdx
	callq	write
.LBB17_17:                              # %if.end138
	jmp	.LBB17_18
.LBB17_18:                              # %if.end139
	movq	-40(%rbp), %rdi
	callq	free
.LBB17_19:                              # %return
	cmpl	$265766095, -52(%rbp)   # imm = 0xFD744CF
	jne	.LBB17_21
.LBB17_20:
	addq	$128, %rsp
	popq	%rbp
	.cfi_def_cfa %rsp, 8
	retq
.LBB17_21:                              # %func_exit
	.cfi_def_cfa %rbp, 16
	callq	detect_breach
	jmp	.LBB17_20
.Lfunc_end17:
	.size	write_out_picture.7, .Lfunc_end17-write_out_picture.7
	.cfi_endproc
                                        # -- End function
	.globl	clear_picture.8         # -- Begin function clear_picture.8
	.p2align	4, 0x90
	.type	clear_picture.8,@function
clear_picture.8:                        # @clear_picture.8
	.cfi_startproc
# %bb.0:                                # %entry
	pushq	%rbp
	.cfi_def_cfa_offset 16
	.cfi_offset %rbp, -16
	movq	%rsp, %rbp
	.cfi_def_cfa_register %rbp
	subq	$32, %rsp
	movl	$1878199830, -20(%rbp)  # imm = 0x6FF30E16
	movq	%rdi, -16(%rbp)
	movl	$0, -4(%rbp)
.LBB18_1:                               # %for.cond
                                        # =>This Inner Loop Header: Depth=1
	movl	-4(%rbp), %eax
	movq	-16(%rbp), %rcx
	cmpl	6396(%rcx), %eax
	jge	.LBB18_4
# %bb.2:                                # %for.body
                                        #   in Loop: Header=BB18_1 Depth=1
	movq	-16(%rbp), %rax
	movq	6424(%rax), %rax
	movslq	-4(%rbp), %rcx
	movq	(%rax,%rcx,8), %rdi
	movq	img, %rax
	movl	72680(%rax), %eax
	movq	-16(%rbp), %rcx
	movslq	6392(%rcx), %rdx
	shlq	$1, %rdx
	movzbl	%al, %esi
	callq	memset
# %bb.3:                                # %for.inc
                                        #   in Loop: Header=BB18_1 Depth=1
	movl	-4(%rbp), %eax
	addl	$1, %eax
	movl	%eax, -4(%rbp)
	jmp	.LBB18_1
.LBB18_4:                               # %for.end
	movl	$0, -4(%rbp)
.LBB18_5:                               # %for.cond1
                                        # =>This Inner Loop Header: Depth=1
	movl	-4(%rbp), %eax
	movq	-16(%rbp), %rcx
	cmpl	6404(%rcx), %eax
	jge	.LBB18_8
# %bb.6:                                # %for.body4
                                        #   in Loop: Header=BB18_5 Depth=1
	movq	-16(%rbp), %rax
	movq	6464(%rax), %rax
	movq	(%rax), %rax
	movslq	-4(%rbp), %rcx
	movq	(%rax,%rcx,8), %rdi
	movq	img, %rax
	movl	72680(%rax), %eax
	movq	-16(%rbp), %rcx
	movslq	6400(%rcx), %rdx
	shlq	$1, %rdx
	movzbl	%al, %esi
	callq	memset
# %bb.7:                                # %for.inc11
                                        #   in Loop: Header=BB18_5 Depth=1
	movl	-4(%rbp), %eax
	addl	$1, %eax
	movl	%eax, -4(%rbp)
	jmp	.LBB18_5
.LBB18_8:                               # %for.end13
	movl	$0, -4(%rbp)
.LBB18_9:                               # %for.cond14
                                        # =>This Inner Loop Header: Depth=1
	movl	-4(%rbp), %eax
	movq	-16(%rbp), %rcx
	cmpl	6404(%rcx), %eax
	jge	.LBB18_12
# %bb.10:                               # %for.body18
                                        #   in Loop: Header=BB18_9 Depth=1
	movq	-16(%rbp), %rax
	movq	6464(%rax), %rax
	movq	8(%rax), %rax
	movslq	-4(%rbp), %rcx
	movq	(%rax,%rcx,8), %rdi
	movq	img, %rax
	movl	72680(%rax), %eax
	movq	-16(%rbp), %rcx
	movslq	6400(%rcx), %rdx
	shlq	$1, %rdx
	movzbl	%al, %esi
	callq	memset
# %bb.11:                               # %for.inc27
                                        #   in Loop: Header=BB18_9 Depth=1
	movl	-4(%rbp), %eax
	addl	$1, %eax
	movl	%eax, -4(%rbp)
	jmp	.LBB18_9
.LBB18_12:                              # %for.end29
	cmpl	$1878199830, -20(%rbp)  # imm = 0x6FF30E16
	jne	.LBB18_14
.LBB18_13:
	addq	$32, %rsp
	popq	%rbp
	.cfi_def_cfa %rsp, 8
	retq
.LBB18_14:                              # %func_exit
	.cfi_def_cfa %rbp, 16
	callq	detect_breach
	jmp	.LBB18_13
.Lfunc_end18:
	.size	clear_picture.8, .Lfunc_end18-clear_picture.8
	.cfi_endproc
                                        # -- End function
	.globl	write_stored_frame.9    # -- Begin function write_stored_frame.9
	.p2align	4, 0x90
	.type	write_stored_frame.9,@function
write_stored_frame.9:                   # @write_stored_frame.9
	.cfi_startproc
# %bb.0:                                # %entry
	pushq	%rbp
	.cfi_def_cfa_offset 16
	.cfi_offset %rbp, -16
	movq	%rsp, %rbp
	.cfi_def_cfa_register %rbp
	subq	$32, %rsp
	movl	$1197976345, -20(%rbp)  # imm = 0x4767AB19
	movq	%rdi, -16(%rbp)
	movl	%esi, -4(%rbp)
	movl	-4(%rbp), %edi
	callq	flush_direct_output
	movq	-16(%rbp), %rax
	cmpl	$3, (%rax)
	jge	.LBB19_2
# %bb.1:                                # %if.then
	movq	-16(%rbp), %rdi
	movl	-4(%rbp), %esi
	callq	write_unpaired_field
	jmp	.LBB19_3
.LBB19_2:                               # %if.else
	movq	-16(%rbp), %rax
	movq	40(%rax), %rdi
	movl	-4(%rbp), %esi
	xorl	%edx, %edx
	callq	write_picture
.LBB19_3:                               # %if.end
	movq	-16(%rbp), %rax
	movl	$1, 32(%rax)
	cmpl	$1197976345, -20(%rbp)  # imm = 0x4767AB19
	jne	.LBB19_5
.LBB19_4:
	addq	$32, %rsp
	popq	%rbp
	.cfi_def_cfa %rsp, 8
	retq
.LBB19_5:                               # %func_exit
	.cfi_def_cfa %rbp, 16
	callq	detect_breach
	jmp	.LBB19_4
.Lfunc_end19:
	.size	write_stored_frame.9, .Lfunc_end19-write_stored_frame.9
	.cfi_endproc
                                        # -- End function
	.globl	write_picture.10        # -- Begin function write_picture.10
	.p2align	4, 0x90
	.type	write_picture.10,@function
write_picture.10:                       # @write_picture.10
	.cfi_startproc
# %bb.0:                                # %entry
	pushq	%rbp
	.cfi_def_cfa_offset 16
	.cfi_offset %rbp, -16
	movq	%rsp, %rbp
	.cfi_def_cfa_register %rbp
	subq	$32, %rsp
	movl	$1837411720, -8(%rbp)   # imm = 0x6D84AD88
	movq	%rdi, -16(%rbp)
	movl	%esi, -4(%rbp)
	movl	%edx, -20(%rbp)
	movq	-16(%rbp), %rdi
	movl	-4(%rbp), %esi
	callq	write_out_picture
	cmpl	$1837411720, -8(%rbp)   # imm = 0x6D84AD88
	jne	.LBB20_2
.LBB20_1:
	addq	$32, %rsp
	popq	%rbp
	.cfi_def_cfa %rsp, 8
	retq
.LBB20_2:                               # %func_exit
	.cfi_def_cfa %rbp, 16
	callq	detect_breach
	jmp	.LBB20_1
.Lfunc_end20:
	.size	write_picture.10, .Lfunc_end20-write_picture.10
	.cfi_endproc
                                        # -- End function
	.globl	write_out_picture.11    # -- Begin function write_out_picture.11
	.p2align	4, 0x90
	.type	write_out_picture.11,@function
write_out_picture.11:                   # @write_out_picture.11
	.cfi_startproc
# %bb.0:                                # %entry
	pushq	%rbp
	.cfi_def_cfa_offset 16
	.cfi_offset %rbp, -16
	movq	%rsp, %rbp
	.cfi_def_cfa_register %rbp
	subq	$128, %rsp
	xorl	%ecx, %ecx
	movl	$1200902966, -52(%rbp)  # imm = 0x47945336
	movq	%rdi, -8(%rbp)
	movl	%esi, -44(%rbp)
	movq	.L__const.write_out_picture.SubWidthC, %rax
	movq	%rax, -96(%rbp)
	movq	.L__const.write_out_picture.SubWidthC+8, %rax
	movq	%rax, -88(%rbp)
	movq	.L__const.write_out_picture.SubHeightC, %rax
	movq	%rax, -80(%rbp)
	movq	.L__const.write_out_picture.SubHeightC+8, %rax
	movq	%rax, -72(%rbp)
	movq	img, %rax
	movl	72656(%rax), %eax
	cltd
	movl	$8, %esi
	idivl	%esi
	movl	%eax, -28(%rbp)
	movq	input, %rax
	cmpl	$0, 3312(%rax)
	je	.LBB21_2
# %bb.1:                                # %land.rhs
	movq	input, %rax
	cmpl	$3, 72(%rax)
	sete	%cl
.LBB21_2:                               # %land.end
	andb	$1, %cl
	movzbl	%cl, %eax
	movl	%eax, -48(%rbp)
	movq	-8(%rbp), %rax
	cmpl	$0, 6388(%rax)
	je	.LBB21_4
# %bb.3:                                # %if.then
	jmp	.LBB21_19
.LBB21_4:                               # %if.end
	movq	-8(%rbp), %rax
	cmpl	$0, 6560(%rax)
	je	.LBB21_6
# %bb.5:                                # %if.then3
	movq	-8(%rbp), %rax
	movslq	6552(%rax), %rax
	movl	-96(%rbp,%rax,4), %eax
	movq	-8(%rbp), %rcx
	imull	6564(%rcx), %eax
	movl	%eax, -16(%rbp)
	movq	-8(%rbp), %rax
	movslq	6552(%rax), %rax
	movl	-96(%rbp,%rax,4), %eax
	movq	-8(%rbp), %rcx
	imull	6568(%rcx), %eax
	movl	%eax, -20(%rbp)
	movq	-8(%rbp), %rax
	movslq	6552(%rax), %rax
	movl	-80(%rbp,%rax,4), %eax
	movq	-8(%rbp), %rcx
	movl	$2, %edx
	movl	$2, %esi
	subl	6556(%rcx), %esi
	imull	%esi, %eax
	movq	-8(%rbp), %rcx
	imull	6572(%rcx), %eax
	movl	%eax, -12(%rbp)
	movq	-8(%rbp), %rax
	movslq	6552(%rax), %rax
	movl	-80(%rbp,%rax,4), %eax
	movq	-8(%rbp), %rcx
	subl	6556(%rcx), %edx
	imull	%edx, %eax
	movq	-8(%rbp), %rcx
	imull	6576(%rcx), %eax
	movl	%eax, -24(%rbp)
	jmp	.LBB21_7
.LBB21_6:                               # %if.else
	movl	$0, -24(%rbp)
	movl	$0, -12(%rbp)
	movl	$0, -20(%rbp)
	movl	$0, -16(%rbp)
.LBB21_7:                               # %if.end20
	movq	-8(%rbp), %rax
	movl	6392(%rax), %eax
	movq	-8(%rbp), %rcx
	imull	6396(%rcx), %eax
	imull	-28(%rbp), %eax
	movslq	%eax, %rdi
	callq	malloc
	xorl	%ecx, %ecx
	movq	%rax, -40(%rbp)
	cmpq	%rax, %rcx
	jne	.LBB21_9
# %bb.8:                                # %if.then25
	movabsq	$.L.str.1, %rdi
	callq	no_mem_exit
.LBB21_9:                               # %if.end26
	cmpl	$0, -48(%rbp)
	je	.LBB21_14
# %bb.10:                               # %if.then28
	movq	-8(%rbp), %rax
	movl	6564(%rax), %eax
	movl	%eax, -16(%rbp)
	movq	-8(%rbp), %rax
	movl	6568(%rax), %eax
	movl	%eax, -20(%rbp)
	movq	-8(%rbp), %rax
	movl	$2, %ecx
	movl	$2, %edx
	subl	6556(%rax), %edx
	movq	-8(%rbp), %rax
	imull	6572(%rax), %edx
	movl	%edx, -12(%rbp)
	movq	-8(%rbp), %rax
	subl	6556(%rax), %ecx
	movq	-8(%rbp), %rax
	imull	6576(%rax), %ecx
	movl	%ecx, -24(%rbp)
	movq	-8(%rbp), %rax
	movq	6464(%rax), %rax
	movq	8(%rax), %rdi
	movq	-40(%rbp), %rsi
	movq	-8(%rbp), %rax
	movl	6400(%rax), %edx
	movq	-8(%rbp), %rax
	movl	6404(%rax), %ecx
	movl	-28(%rbp), %r8d
	movl	-16(%rbp), %r9d
	movl	-20(%rbp), %eax
	movl	-12(%rbp), %r10d
	movl	-24(%rbp), %r11d
	movl	%eax, (%rsp)
	movl	%r10d, 8(%rsp)
	movl	%r11d, 16(%rsp)
	callq	img2buf
	movl	-44(%rbp), %edi
	movq	-40(%rbp), %rsi
	movq	-8(%rbp), %rax
	movl	6404(%rax), %eax
	subl	-24(%rbp), %eax
	subl	-12(%rbp), %eax
	movq	-8(%rbp), %rcx
	movl	6400(%rcx), %ecx
	subl	-20(%rbp), %ecx
	subl	-16(%rbp), %ecx
	imull	%ecx, %eax
	imull	-28(%rbp), %eax
	movslq	%eax, %rdx
	callq	write
	movq	active_sps, %rax
	cmpl	$0, 1160(%rax)
	je	.LBB21_12
# %bb.11:                               # %if.then52
	movq	-8(%rbp), %rax
	movslq	6552(%rax), %rax
	movl	-96(%rbp,%rax,4), %eax
	movq	-8(%rbp), %rcx
	imull	6564(%rcx), %eax
	movl	%eax, -16(%rbp)
	movq	-8(%rbp), %rax
	movslq	6552(%rax), %rax
	movl	-96(%rbp,%rax,4), %eax
	movq	-8(%rbp), %rcx
	imull	6568(%rcx), %eax
	movl	%eax, -20(%rbp)
	movq	-8(%rbp), %rax
	movslq	6552(%rax), %rax
	movl	-80(%rbp,%rax,4), %eax
	movq	-8(%rbp), %rcx
	movl	$2, %edx
	movl	$2, %esi
	subl	6556(%rcx), %esi
	imull	%esi, %eax
	movq	-8(%rbp), %rcx
	imull	6572(%rcx), %eax
	movl	%eax, -12(%rbp)
	movq	-8(%rbp), %rax
	movslq	6552(%rax), %rax
	movl	-80(%rbp,%rax,4), %eax
	movq	-8(%rbp), %rcx
	subl	6556(%rcx), %edx
	imull	%edx, %eax
	movq	-8(%rbp), %rcx
	imull	6576(%rcx), %eax
	movl	%eax, -24(%rbp)
	jmp	.LBB21_13
.LBB21_12:                              # %if.else79
	movl	$0, -24(%rbp)
	movl	$0, -12(%rbp)
	movl	$0, -20(%rbp)
	movl	$0, -16(%rbp)
.LBB21_13:                              # %if.end80
	jmp	.LBB21_14
.LBB21_14:                              # %if.end81
	movq	-8(%rbp), %rax
	movq	6424(%rax), %rdi
	movq	-40(%rbp), %rsi
	movq	-8(%rbp), %rax
	movl	6392(%rax), %edx
	movq	-8(%rbp), %rax
	movl	6396(%rax), %ecx
	movl	-28(%rbp), %r8d
	movl	-16(%rbp), %r9d
	movl	-20(%rbp), %eax
	movl	-12(%rbp), %r10d
	movl	-24(%rbp), %r11d
	movl	%eax, (%rsp)
	movl	%r10d, 8(%rsp)
	movl	%r11d, 16(%rsp)
	callq	img2buf
	movl	-44(%rbp), %edi
	movq	-40(%rbp), %rsi
	movq	-8(%rbp), %rax
	movl	6396(%rax), %eax
	subl	-24(%rbp), %eax
	subl	-12(%rbp), %eax
	movq	-8(%rbp), %rcx
	movl	6392(%rcx), %ecx
	subl	-20(%rbp), %ecx
	subl	-16(%rbp), %ecx
	imull	%ecx, %eax
	imull	-28(%rbp), %eax
	movslq	%eax, %rdx
	callq	write
	movq	-8(%rbp), %rax
	cmpl	$0, 6552(%rax)
	je	.LBB21_18
# %bb.15:                               # %if.then97
	movq	-8(%rbp), %rax
	movl	6564(%rax), %eax
	movl	%eax, -16(%rbp)
	movq	-8(%rbp), %rax
	movl	6568(%rax), %eax
	movl	%eax, -20(%rbp)
	movq	-8(%rbp), %rax
	movl	$2, %ecx
	movl	$2, %edx
	subl	6556(%rax), %edx
	movq	-8(%rbp), %rax
	imull	6572(%rax), %edx
	movl	%edx, -12(%rbp)
	movq	-8(%rbp), %rax
	subl	6556(%rax), %ecx
	movq	-8(%rbp), %rax
	imull	6576(%rax), %ecx
	movl	%ecx, -24(%rbp)
	movq	-8(%rbp), %rax
	movq	6464(%rax), %rax
	movq	(%rax), %rdi
	movq	-40(%rbp), %rsi
	movq	-8(%rbp), %rax
	movl	6400(%rax), %edx
	movq	-8(%rbp), %rax
	movl	6404(%rax), %ecx
	movl	-28(%rbp), %r8d
	movl	-16(%rbp), %r9d
	movl	-20(%rbp), %eax
	movl	-12(%rbp), %r10d
	movl	-24(%rbp), %r11d
	movl	%eax, (%rsp)
	movl	%r10d, 8(%rsp)
	movl	%r11d, 16(%rsp)
	callq	img2buf
	movl	-44(%rbp), %edi
	movq	-40(%rbp), %rsi
	movq	-8(%rbp), %rax
	movl	6404(%rax), %eax
	subl	-24(%rbp), %eax
	subl	-12(%rbp), %eax
	movq	-8(%rbp), %rcx
	movl	6400(%rcx), %ecx
	subl	-20(%rbp), %ecx
	subl	-16(%rbp), %ecx
	imull	%ecx, %eax
	imull	-28(%rbp), %eax
	movslq	%eax, %rdx
	callq	write
	cmpl	$0, -48(%rbp)
	jne	.LBB21_17
# %bb.16:                               # %if.then123
	movq	-8(%rbp), %rax
	movq	6464(%rax), %rax
	movq	8(%rax), %rdi
	movq	-40(%rbp), %rsi
	movq	-8(%rbp), %rax
	movl	6400(%rax), %edx
	movq	-8(%rbp), %rax
	movl	6404(%rax), %ecx
	movl	-28(%rbp), %r8d
	movl	-16(%rbp), %r9d
	movl	-20(%rbp), %eax
	movl	-12(%rbp), %r10d
	movl	-24(%rbp), %r11d
	movl	%eax, (%rsp)
	movl	%r10d, 8(%rsp)
	movl	%r11d, 16(%rsp)
	callq	img2buf
	movl	-44(%rbp), %edi
	movq	-40(%rbp), %rsi
	movq	-8(%rbp), %rax
	movl	6404(%rax), %eax
	subl	-24(%rbp), %eax
	subl	-12(%rbp), %eax
	movq	-8(%rbp), %rcx
	movl	6400(%rcx), %ecx
	subl	-20(%rbp), %ecx
	subl	-16(%rbp), %ecx
	imull	%ecx, %eax
	imull	-28(%rbp), %eax
	movslq	%eax, %rdx
	callq	write
.LBB21_17:                              # %if.end138
	jmp	.LBB21_18
.LBB21_18:                              # %if.end139
	movq	-40(%rbp), %rdi
	callq	free
.LBB21_19:                              # %return
	cmpl	$1200902966, -52(%rbp)  # imm = 0x47945336
	jne	.LBB21_21
.LBB21_20:
	addq	$128, %rsp
	popq	%rbp
	.cfi_def_cfa %rsp, 8
	retq
.LBB21_21:                              # %func_exit
	.cfi_def_cfa %rbp, 16
	callq	detect_breach
	jmp	.LBB21_20
.Lfunc_end21:
	.size	write_out_picture.11, .Lfunc_end21-write_out_picture.11
	.cfi_endproc
                                        # -- End function
	.globl	write_unpaired_field.12 # -- Begin function write_unpaired_field.12
	.p2align	4, 0x90
	.type	write_unpaired_field.12,@function
write_unpaired_field.12:                # @write_unpaired_field.12
	.cfi_startproc
# %bb.0:                                # %entry
	pushq	%rbp
	.cfi_def_cfa_offset 16
	.cfi_offset %rbp, -16
	movq	%rsp, %rbp
	.cfi_def_cfa_register %rbp
	subq	$32, %rsp
	movl	$102981727, -24(%rbp)   # imm = 0x623605F
	movq	%rdi, -8(%rbp)
	movl	%esi, -20(%rbp)
	movq	-8(%rbp), %rax
	movl	(%rax), %eax
	andl	$1, %eax
	cmpl	$0, %eax
	je	.LBB22_2
# %bb.1:                                # %if.then
	movq	-8(%rbp), %rax
	movq	48(%rax), %rax
	movq	%rax, -16(%rbp)
	movq	-16(%rbp), %rax
	movl	6392(%rax), %esi
	movq	-16(%rbp), %rax
	movl	6396(%rax), %edx
	movq	-16(%rbp), %rax
	movl	6400(%rax), %ecx
	movq	-16(%rbp), %rax
	movl	6404(%rax), %r8d
	movl	$2, %edi
	callq	alloc_storable_picture
	movq	-8(%rbp), %rcx
	movq	%rax, 56(%rcx)
	movq	-8(%rbp), %rax
	movq	56(%rax), %rdi
	callq	clear_picture
	movq	-8(%rbp), %rdi
	callq	dpb_combine_field
	movq	-8(%rbp), %rax
	movq	40(%rax), %rdi
	movl	-20(%rbp), %esi
	movl	$1, %edx
	callq	write_picture
.LBB22_2:                               # %if.end
	movq	-8(%rbp), %rax
	movl	(%rax), %eax
	andl	$2, %eax
	cmpl	$0, %eax
	je	.LBB22_4
# %bb.3:                                # %if.then5
	movq	-8(%rbp), %rax
	movq	56(%rax), %rax
	movq	%rax, -16(%rbp)
	movq	-16(%rbp), %rax
	movl	6392(%rax), %esi
	movq	-16(%rbp), %rax
	movl	6396(%rax), %edx
	movq	-16(%rbp), %rax
	movl	6400(%rax), %ecx
	movq	-16(%rbp), %rax
	movl	6404(%rax), %r8d
	movl	$1, %edi
	callq	alloc_storable_picture
	movq	-8(%rbp), %rcx
	movq	%rax, 48(%rcx)
	movq	-8(%rbp), %rax
	movq	48(%rax), %rdi
	callq	clear_picture
	movq	-8(%rbp), %rdi
	callq	dpb_combine_field
	movq	-8(%rbp), %rax
	movq	40(%rax), %rdi
	movl	-20(%rbp), %esi
	movl	$2, %edx
	callq	write_picture
.LBB22_4:                               # %if.end15
	movq	-8(%rbp), %rax
	movl	$3, (%rax)
	cmpl	$102981727, -24(%rbp)   # imm = 0x623605F
	jne	.LBB22_6
.LBB22_5:
	addq	$32, %rsp
	popq	%rbp
	.cfi_def_cfa %rsp, 8
	retq
.LBB22_6:                               # %func_exit
	.cfi_def_cfa %rbp, 16
	callq	detect_breach
	jmp	.LBB22_5
.Lfunc_end22:
	.size	write_unpaired_field.12, .Lfunc_end22-write_unpaired_field.12
	.cfi_endproc
                                        # -- End function
	.globl	img2buf.13              # -- Begin function img2buf.13
	.p2align	4, 0x90
	.type	img2buf.13,@function
img2buf.13:                             # @img2buf.13
	.cfi_startproc
# %bb.0:                                # %entry
	pushq	%rbp
	.cfi_def_cfa_offset 16
	.cfi_offset %rbp, -16
	movq	%rsp, %rbp
	.cfi_def_cfa_register %rbp
	subq	$96, %rsp
	movl	32(%rbp), %eax
	movl	24(%rbp), %eax
	movl	16(%rbp), %eax
	movl	$714285356, -76(%rbp)   # imm = 0x2A93212C
	movq	%rdi, -72(%rbp)
	movq	%rsi, -56(%rbp)
	movl	%edx, -28(%rbp)
	movl	%ecx, -20(%rbp)
	movl	%r8d, -32(%rbp)
	movl	%r9d, -12(%rbp)
	movl	-28(%rbp), %eax
	subl	-12(%rbp), %eax
	subl	16(%rbp), %eax
	movl	%eax, -24(%rbp)
	movl	-20(%rbp), %eax
	subl	24(%rbp), %eax
	subl	32(%rbp), %eax
	movl	%eax, -80(%rbp)
	movl	$0, -40(%rbp)
	callq	testEndian
	cmpl	$0, %eax
	je	.LBB23_33
# %bb.1:                                # %if.then
	movl	-32(%rbp), %eax
	movl	%eax, %ecx
	subl	$1, %ecx
	je	.LBB23_4
	jmp	.LBB23_2
.LBB23_2:                               # %if.then
	movl	%eax, %ecx
	subl	$2, %ecx
	je	.LBB23_13
	jmp	.LBB23_3
.LBB23_3:                               # %if.then
	subl	$4, %eax
	je	.LBB23_22
	jmp	.LBB23_31
.LBB23_4:                               # %sw.bb
	movl	24(%rbp), %eax
	movl	%eax, -4(%rbp)
.LBB23_5:                               # %for.cond
                                        # =>This Loop Header: Depth=1
                                        #     Child Loop BB23_7 Depth 2
	movl	-4(%rbp), %eax
	movl	-20(%rbp), %ecx
	subl	32(%rbp), %ecx
	cmpl	%ecx, %eax
	jge	.LBB23_12
# %bb.6:                                # %for.body
                                        #   in Loop: Header=BB23_5 Depth=1
	movl	-12(%rbp), %eax
	movl	%eax, -8(%rbp)
.LBB23_7:                               # %for.cond5
                                        #   Parent Loop BB23_5 Depth=1
                                        # =>  This Inner Loop Header: Depth=2
	movl	-8(%rbp), %eax
	movl	-28(%rbp), %ecx
	subl	16(%rbp), %ecx
	cmpl	%ecx, %eax
	jge	.LBB23_10
# %bb.8:                                # %for.body8
                                        #   in Loop: Header=BB23_7 Depth=2
	movq	-72(%rbp), %rax
	movslq	-4(%rbp), %rcx
	movq	(%rax,%rcx,8), %rax
	movslq	-8(%rbp), %rcx
	movw	(%rax,%rcx,2), %ax
	movb	%al, -13(%rbp)
	movb	-13(%rbp), %al
	movq	-56(%rbp), %rcx
	movl	-8(%rbp), %edx
	subl	-12(%rbp), %edx
	movl	-4(%rbp), %esi
	subl	24(%rbp), %esi
	imull	-24(%rbp), %esi
	addl	%esi, %edx
	movslq	%edx, %rdx
	movb	%al, (%rcx,%rdx)
# %bb.9:                                # %for.inc
                                        #   in Loop: Header=BB23_7 Depth=2
	movl	-8(%rbp), %eax
	addl	$1, %eax
	movl	%eax, -8(%rbp)
	jmp	.LBB23_7
.LBB23_10:                              # %for.end
                                        #   in Loop: Header=BB23_5 Depth=1
	jmp	.LBB23_11
.LBB23_11:                              # %for.inc15
                                        #   in Loop: Header=BB23_5 Depth=1
	movl	-4(%rbp), %eax
	addl	$1, %eax
	movl	%eax, -4(%rbp)
	jmp	.LBB23_5
.LBB23_12:                              # %for.end17
	jmp	.LBB23_32
.LBB23_13:                              # %sw.bb18
	movl	24(%rbp), %eax
	movl	%eax, -4(%rbp)
.LBB23_14:                              # %for.cond19
                                        # =>This Loop Header: Depth=1
                                        #     Child Loop BB23_16 Depth 2
	movl	-4(%rbp), %eax
	movl	-20(%rbp), %ecx
	subl	32(%rbp), %ecx
	cmpl	%ecx, %eax
	jge	.LBB23_21
# %bb.15:                               # %for.body23
                                        #   in Loop: Header=BB23_14 Depth=1
	movl	-12(%rbp), %eax
	movl	%eax, -8(%rbp)
.LBB23_16:                              # %for.cond24
                                        #   Parent Loop BB23_14 Depth=1
                                        # =>  This Inner Loop Header: Depth=2
	movl	-8(%rbp), %eax
	movl	-28(%rbp), %ecx
	subl	16(%rbp), %ecx
	cmpl	%ecx, %eax
	jge	.LBB23_19
# %bb.17:                               # %for.body28
                                        #   in Loop: Header=BB23_16 Depth=2
	movq	-72(%rbp), %rax
	movslq	-4(%rbp), %rcx
	movq	(%rax,%rcx,8), %rax
	movslq	-8(%rbp), %rcx
	movw	(%rax,%rcx,2), %ax
	movw	%ax, -34(%rbp)
	movzwl	-34(%rbp), %eax
	sarl	$8, %eax
	movzwl	-34(%rbp), %ecx
	andl	$255, %ecx
	shll	$8, %ecx
	orl	%ecx, %eax
	movw	%ax, -42(%rbp)
	movq	-56(%rbp), %rax
	movl	-8(%rbp), %ecx
	subl	-12(%rbp), %ecx
	movl	-4(%rbp), %edx
	subl	24(%rbp), %edx
	imull	-24(%rbp), %edx
	addl	%edx, %ecx
	shll	$1, %ecx
	movslq	%ecx, %rcx
	movw	-42(%rbp), %dx
	movw	%dx, (%rax,%rcx)
# %bb.18:                               # %for.inc41
                                        #   in Loop: Header=BB23_16 Depth=2
	movl	-8(%rbp), %eax
	addl	$1, %eax
	movl	%eax, -8(%rbp)
	jmp	.LBB23_16
.LBB23_19:                              # %for.end43
                                        #   in Loop: Header=BB23_14 Depth=1
	jmp	.LBB23_20
.LBB23_20:                              # %for.inc44
                                        #   in Loop: Header=BB23_14 Depth=1
	movl	-4(%rbp), %eax
	addl	$1, %eax
	movl	%eax, -4(%rbp)
	jmp	.LBB23_14
.LBB23_21:                              # %for.end46
	jmp	.LBB23_32
.LBB23_22:                              # %sw.bb47
	movl	24(%rbp), %eax
	movl	%eax, -4(%rbp)
.LBB23_23:                              # %for.cond48
                                        # =>This Loop Header: Depth=1
                                        #     Child Loop BB23_25 Depth 2
	movl	-4(%rbp), %eax
	movl	-20(%rbp), %ecx
	subl	32(%rbp), %ecx
	cmpl	%ecx, %eax
	jge	.LBB23_30
# %bb.24:                               # %for.body52
                                        #   in Loop: Header=BB23_23 Depth=1
	movl	-12(%rbp), %eax
	movl	%eax, -8(%rbp)
.LBB23_25:                              # %for.cond53
                                        #   Parent Loop BB23_23 Depth=1
                                        # =>  This Inner Loop Header: Depth=2
	movl	-8(%rbp), %eax
	movl	-28(%rbp), %ecx
	subl	16(%rbp), %ecx
	cmpl	%ecx, %eax
	jge	.LBB23_28
# %bb.26:                               # %for.body57
                                        #   in Loop: Header=BB23_25 Depth=2
	movq	-72(%rbp), %rax
	movslq	-4(%rbp), %rcx
	movq	(%rax,%rcx,8), %rax
	movslq	-8(%rbp), %rcx
	movzwl	(%rax,%rcx,2), %eax
	movq	%rax, -64(%rbp)
	movq	-64(%rbp), %rax
	andq	$65280, %rax            # imm = 0xFF00
	shlq	$8, %rax
	movq	-64(%rbp), %rcx
	andq	$255, %rcx
	shlq	$24, %rcx
	orq	%rcx, %rax
	movq	-64(%rbp), %rcx
	andq	$16711680, %rcx         # imm = 0xFF0000
	shrq	$8, %rcx
	orq	%rcx, %rax
	movl	$4278190080, %ecx       # imm = 0xFF000000
	andq	-64(%rbp), %rcx
	shrq	$24, %rcx
	orq	%rcx, %rax
	movq	%rax, -88(%rbp)
	movq	-56(%rbp), %rax
	movl	-8(%rbp), %ecx
	subl	-12(%rbp), %ecx
	movl	-4(%rbp), %edx
	subl	24(%rbp), %edx
	imull	-24(%rbp), %edx
	addl	%edx, %ecx
	shll	$2, %ecx
	movslq	%ecx, %rcx
	movl	-88(%rbp), %edx
	movl	%edx, (%rax,%rcx)
# %bb.27:                               # %for.inc81
                                        #   in Loop: Header=BB23_25 Depth=2
	movl	-8(%rbp), %eax
	addl	$1, %eax
	movl	%eax, -8(%rbp)
	jmp	.LBB23_25
.LBB23_28:                              # %for.end83
                                        #   in Loop: Header=BB23_23 Depth=1
	jmp	.LBB23_29
.LBB23_29:                              # %for.inc84
                                        #   in Loop: Header=BB23_23 Depth=1
	movl	-4(%rbp), %eax
	addl	$1, %eax
	movl	%eax, -4(%rbp)
	jmp	.LBB23_23
.LBB23_30:                              # %for.end86
	jmp	.LBB23_32
.LBB23_31:                              # %sw.default
	movabsq	$.L.str, %rdi
	movl	$500, %esi              # imm = 0x1F4
	callq	error
.LBB23_32:                              # %sw.epilog
	jmp	.LBB23_45
.LBB23_33:                              # %if.else
	movslq	-32(%rbp), %rax
	movl	$2, %ecx
	cmpq	%rax, %rcx
	jae	.LBB23_35
# %bb.34:                               # %if.then90
	movl	$2, -40(%rbp)
	movq	-56(%rbp), %rdi
	movl	-24(%rbp), %eax
	imull	-80(%rbp), %eax
	imull	-32(%rbp), %eax
	movslq	%eax, %rdx
	xorl	%esi, %esi
	callq	memset
	jmp	.LBB23_36
.LBB23_35:                              # %if.else94
	movl	-32(%rbp), %eax
	movl	%eax, -40(%rbp)
.LBB23_36:                              # %if.end
	movl	24(%rbp), %eax
	movl	%eax, -4(%rbp)
.LBB23_37:                              # %for.cond95
                                        # =>This Loop Header: Depth=1
                                        #     Child Loop BB23_39 Depth 2
	movl	-4(%rbp), %eax
	movl	-20(%rbp), %ecx
	subl	32(%rbp), %ecx
	cmpl	%ecx, %eax
	jge	.LBB23_44
# %bb.38:                               # %for.body99
                                        #   in Loop: Header=BB23_37 Depth=1
	movl	-12(%rbp), %eax
	movl	%eax, -8(%rbp)
.LBB23_39:                              # %for.cond100
                                        #   Parent Loop BB23_37 Depth=1
                                        # =>  This Inner Loop Header: Depth=2
	movl	-8(%rbp), %eax
	movl	-28(%rbp), %ecx
	subl	16(%rbp), %ecx
	cmpl	%ecx, %eax
	jge	.LBB23_42
# %bb.40:                               # %for.body104
                                        #   in Loop: Header=BB23_39 Depth=2
	movq	-56(%rbp), %rdi
	movl	-8(%rbp), %eax
	subl	-12(%rbp), %eax
	movl	-4(%rbp), %ecx
	subl	24(%rbp), %ecx
	imull	-24(%rbp), %ecx
	addl	%ecx, %eax
	imull	-32(%rbp), %eax
	cltq
	addq	%rax, %rdi
	movq	-72(%rbp), %rax
	movslq	-4(%rbp), %rcx
	movq	(%rax,%rcx,8), %rsi
	movslq	-8(%rbp), %rax
	shlq	$1, %rax
	addq	%rax, %rsi
	movslq	-40(%rbp), %rdx
	callq	memcpy
# %bb.41:                               # %for.inc117
                                        #   in Loop: Header=BB23_39 Depth=2
	movl	-8(%rbp), %eax
	addl	$1, %eax
	movl	%eax, -8(%rbp)
	jmp	.LBB23_39
.LBB23_42:                              # %for.end119
                                        #   in Loop: Header=BB23_37 Depth=1
	jmp	.LBB23_43
.LBB23_43:                              # %for.inc120
                                        #   in Loop: Header=BB23_37 Depth=1
	movl	-4(%rbp), %eax
	addl	$1, %eax
	movl	%eax, -4(%rbp)
	jmp	.LBB23_37
.LBB23_44:                              # %for.end122
	jmp	.LBB23_45
.LBB23_45:                              # %if.end123
	cmpl	$714285356, -76(%rbp)   # imm = 0x2A93212C
	jne	.LBB23_47
.LBB23_46:
	addq	$96, %rsp
	popq	%rbp
	.cfi_def_cfa %rsp, 8
	retq
.LBB23_47:                              # %func_exit
	.cfi_def_cfa %rbp, 16
	callq	detect_breach
	jmp	.LBB23_46
.Lfunc_end23:
	.size	img2buf.13, .Lfunc_end23-img2buf.13
	.cfi_endproc
                                        # -- End function
	.globl	write_unpaired_field.14 # -- Begin function write_unpaired_field.14
	.p2align	4, 0x90
	.type	write_unpaired_field.14,@function
write_unpaired_field.14:                # @write_unpaired_field.14
	.cfi_startproc
# %bb.0:                                # %entry
	pushq	%rbp
	.cfi_def_cfa_offset 16
	.cfi_offset %rbp, -16
	movq	%rsp, %rbp
	.cfi_def_cfa_register %rbp
	subq	$32, %rsp
	movl	$329798877, -24(%rbp)   # imm = 0x13A854DD
	movq	%rdi, -8(%rbp)
	movl	%esi, -20(%rbp)
	movq	-8(%rbp), %rax
	movl	(%rax), %eax
	andl	$1, %eax
	cmpl	$0, %eax
	je	.LBB24_2
# %bb.1:                                # %if.then
	movq	-8(%rbp), %rax
	movq	48(%rax), %rax
	movq	%rax, -16(%rbp)
	movq	-16(%rbp), %rax
	movl	6392(%rax), %esi
	movq	-16(%rbp), %rax
	movl	6396(%rax), %edx
	movq	-16(%rbp), %rax
	movl	6400(%rax), %ecx
	movq	-16(%rbp), %rax
	movl	6404(%rax), %r8d
	movl	$2, %edi
	callq	alloc_storable_picture
	movq	-8(%rbp), %rcx
	movq	%rax, 56(%rcx)
	movq	-8(%rbp), %rax
	movq	56(%rax), %rdi
	callq	clear_picture
	movq	-8(%rbp), %rdi
	callq	dpb_combine_field
	movq	-8(%rbp), %rax
	movq	40(%rax), %rdi
	movl	-20(%rbp), %esi
	movl	$1, %edx
	callq	write_picture
.LBB24_2:                               # %if.end
	movq	-8(%rbp), %rax
	movl	(%rax), %eax
	andl	$2, %eax
	cmpl	$0, %eax
	je	.LBB24_4
# %bb.3:                                # %if.then5
	movq	-8(%rbp), %rax
	movq	56(%rax), %rax
	movq	%rax, -16(%rbp)
	movq	-16(%rbp), %rax
	movl	6392(%rax), %esi
	movq	-16(%rbp), %rax
	movl	6396(%rax), %edx
	movq	-16(%rbp), %rax
	movl	6400(%rax), %ecx
	movq	-16(%rbp), %rax
	movl	6404(%rax), %r8d
	movl	$1, %edi
	callq	alloc_storable_picture
	movq	-8(%rbp), %rcx
	movq	%rax, 48(%rcx)
	movq	-8(%rbp), %rax
	movq	48(%rax), %rdi
	callq	clear_picture
	movq	-8(%rbp), %rdi
	callq	dpb_combine_field
	movq	-8(%rbp), %rax
	movq	40(%rax), %rdi
	movl	-20(%rbp), %esi
	movl	$2, %edx
	callq	write_picture
.LBB24_4:                               # %if.end15
	movq	-8(%rbp), %rax
	movl	$3, (%rax)
	cmpl	$329798877, -24(%rbp)   # imm = 0x13A854DD
	jne	.LBB24_6
.LBB24_5:
	addq	$32, %rsp
	popq	%rbp
	.cfi_def_cfa %rsp, 8
	retq
.LBB24_6:                               # %func_exit
	.cfi_def_cfa %rbp, 16
	callq	detect_breach
	jmp	.LBB24_5
.Lfunc_end24:
	.size	write_unpaired_field.14, .Lfunc_end24-write_unpaired_field.14
	.cfi_endproc
                                        # -- End function
	.globl	write_picture.15        # -- Begin function write_picture.15
	.p2align	4, 0x90
	.type	write_picture.15,@function
write_picture.15:                       # @write_picture.15
	.cfi_startproc
# %bb.0:                                # %entry
	pushq	%rbp
	.cfi_def_cfa_offset 16
	.cfi_offset %rbp, -16
	movq	%rsp, %rbp
	.cfi_def_cfa_register %rbp
	subq	$32, %rsp
	movl	$2100834077, -4(%rbp)   # imm = 0x7D382F1D
	movq	%rdi, -16(%rbp)
	movl	%esi, -8(%rbp)
	movl	%edx, -20(%rbp)
	movq	-16(%rbp), %rdi
	movl	-8(%rbp), %esi
	callq	write_out_picture
	cmpl	$2100834077, -4(%rbp)   # imm = 0x7D382F1D
	jne	.LBB25_2
.LBB25_1:
	addq	$32, %rsp
	popq	%rbp
	.cfi_def_cfa %rsp, 8
	retq
.LBB25_2:                               # %func_exit
	.cfi_def_cfa %rbp, 16
	callq	detect_breach
	jmp	.LBB25_1
.Lfunc_end25:
	.size	write_picture.15, .Lfunc_end25-write_picture.15
	.cfi_endproc
                                        # -- End function
	.globl	img2buf.16              # -- Begin function img2buf.16
	.p2align	4, 0x90
	.type	img2buf.16,@function
img2buf.16:                             # @img2buf.16
	.cfi_startproc
# %bb.0:                                # %entry
	pushq	%rbp
	.cfi_def_cfa_offset 16
	.cfi_offset %rbp, -16
	movq	%rsp, %rbp
	.cfi_def_cfa_register %rbp
	subq	$96, %rsp
	movl	32(%rbp), %eax
	movl	24(%rbp), %eax
	movl	16(%rbp), %eax
	movl	$1627517133, -80(%rbp)  # imm = 0x6101F0CD
	movq	%rdi, -72(%rbp)
	movq	%rsi, -56(%rbp)
	movl	%edx, -28(%rbp)
	movl	%ecx, -32(%rbp)
	movl	%r8d, -24(%rbp)
	movl	%r9d, -12(%rbp)
	movl	-28(%rbp), %eax
	subl	-12(%rbp), %eax
	subl	16(%rbp), %eax
	movl	%eax, -20(%rbp)
	movl	-32(%rbp), %eax
	subl	24(%rbp), %eax
	subl	32(%rbp), %eax
	movl	%eax, -76(%rbp)
	movl	$0, -40(%rbp)
	callq	testEndian
	cmpl	$0, %eax
	je	.LBB26_33
# %bb.1:                                # %if.then
	movl	-24(%rbp), %eax
	movl	%eax, %ecx
	subl	$1, %ecx
	je	.LBB26_4
	jmp	.LBB26_2
.LBB26_2:                               # %if.then
	movl	%eax, %ecx
	subl	$2, %ecx
	je	.LBB26_13
	jmp	.LBB26_3
.LBB26_3:                               # %if.then
	subl	$4, %eax
	je	.LBB26_22
	jmp	.LBB26_31
.LBB26_4:                               # %sw.bb
	movl	24(%rbp), %eax
	movl	%eax, -4(%rbp)
.LBB26_5:                               # %for.cond
                                        # =>This Loop Header: Depth=1
                                        #     Child Loop BB26_7 Depth 2
	movl	-4(%rbp), %eax
	movl	-32(%rbp), %ecx
	subl	32(%rbp), %ecx
	cmpl	%ecx, %eax
	jge	.LBB26_12
# %bb.6:                                # %for.body
                                        #   in Loop: Header=BB26_5 Depth=1
	movl	-12(%rbp), %eax
	movl	%eax, -8(%rbp)
.LBB26_7:                               # %for.cond5
                                        #   Parent Loop BB26_5 Depth=1
                                        # =>  This Inner Loop Header: Depth=2
	movl	-8(%rbp), %eax
	movl	-28(%rbp), %ecx
	subl	16(%rbp), %ecx
	cmpl	%ecx, %eax
	jge	.LBB26_10
# %bb.8:                                # %for.body8
                                        #   in Loop: Header=BB26_7 Depth=2
	movq	-72(%rbp), %rax
	movslq	-4(%rbp), %rcx
	movq	(%rax,%rcx,8), %rax
	movslq	-8(%rbp), %rcx
	movw	(%rax,%rcx,2), %ax
	movb	%al, -13(%rbp)
	movb	-13(%rbp), %al
	movq	-56(%rbp), %rcx
	movl	-8(%rbp), %edx
	subl	-12(%rbp), %edx
	movl	-4(%rbp), %esi
	subl	24(%rbp), %esi
	imull	-20(%rbp), %esi
	addl	%esi, %edx
	movslq	%edx, %rdx
	movb	%al, (%rcx,%rdx)
# %bb.9:                                # %for.inc
                                        #   in Loop: Header=BB26_7 Depth=2
	movl	-8(%rbp), %eax
	addl	$1, %eax
	movl	%eax, -8(%rbp)
	jmp	.LBB26_7
.LBB26_10:                              # %for.end
                                        #   in Loop: Header=BB26_5 Depth=1
	jmp	.LBB26_11
.LBB26_11:                              # %for.inc15
                                        #   in Loop: Header=BB26_5 Depth=1
	movl	-4(%rbp), %eax
	addl	$1, %eax
	movl	%eax, -4(%rbp)
	jmp	.LBB26_5
.LBB26_12:                              # %for.end17
	jmp	.LBB26_32
.LBB26_13:                              # %sw.bb18
	movl	24(%rbp), %eax
	movl	%eax, -4(%rbp)
.LBB26_14:                              # %for.cond19
                                        # =>This Loop Header: Depth=1
                                        #     Child Loop BB26_16 Depth 2
	movl	-4(%rbp), %eax
	movl	-32(%rbp), %ecx
	subl	32(%rbp), %ecx
	cmpl	%ecx, %eax
	jge	.LBB26_21
# %bb.15:                               # %for.body23
                                        #   in Loop: Header=BB26_14 Depth=1
	movl	-12(%rbp), %eax
	movl	%eax, -8(%rbp)
.LBB26_16:                              # %for.cond24
                                        #   Parent Loop BB26_14 Depth=1
                                        # =>  This Inner Loop Header: Depth=2
	movl	-8(%rbp), %eax
	movl	-28(%rbp), %ecx
	subl	16(%rbp), %ecx
	cmpl	%ecx, %eax
	jge	.LBB26_19
# %bb.17:                               # %for.body28
                                        #   in Loop: Header=BB26_16 Depth=2
	movq	-72(%rbp), %rax
	movslq	-4(%rbp), %rcx
	movq	(%rax,%rcx,8), %rax
	movslq	-8(%rbp), %rcx
	movw	(%rax,%rcx,2), %ax
	movw	%ax, -34(%rbp)
	movzwl	-34(%rbp), %eax
	sarl	$8, %eax
	movzwl	-34(%rbp), %ecx
	andl	$255, %ecx
	shll	$8, %ecx
	orl	%ecx, %eax
	movw	%ax, -42(%rbp)
	movq	-56(%rbp), %rax
	movl	-8(%rbp), %ecx
	subl	-12(%rbp), %ecx
	movl	-4(%rbp), %edx
	subl	24(%rbp), %edx
	imull	-20(%rbp), %edx
	addl	%edx, %ecx
	shll	$1, %ecx
	movslq	%ecx, %rcx
	movw	-42(%rbp), %dx
	movw	%dx, (%rax,%rcx)
# %bb.18:                               # %for.inc41
                                        #   in Loop: Header=BB26_16 Depth=2
	movl	-8(%rbp), %eax
	addl	$1, %eax
	movl	%eax, -8(%rbp)
	jmp	.LBB26_16
.LBB26_19:                              # %for.end43
                                        #   in Loop: Header=BB26_14 Depth=1
	jmp	.LBB26_20
.LBB26_20:                              # %for.inc44
                                        #   in Loop: Header=BB26_14 Depth=1
	movl	-4(%rbp), %eax
	addl	$1, %eax
	movl	%eax, -4(%rbp)
	jmp	.LBB26_14
.LBB26_21:                              # %for.end46
	jmp	.LBB26_32
.LBB26_22:                              # %sw.bb47
	movl	24(%rbp), %eax
	movl	%eax, -4(%rbp)
.LBB26_23:                              # %for.cond48
                                        # =>This Loop Header: Depth=1
                                        #     Child Loop BB26_25 Depth 2
	movl	-4(%rbp), %eax
	movl	-32(%rbp), %ecx
	subl	32(%rbp), %ecx
	cmpl	%ecx, %eax
	jge	.LBB26_30
# %bb.24:                               # %for.body52
                                        #   in Loop: Header=BB26_23 Depth=1
	movl	-12(%rbp), %eax
	movl	%eax, -8(%rbp)
.LBB26_25:                              # %for.cond53
                                        #   Parent Loop BB26_23 Depth=1
                                        # =>  This Inner Loop Header: Depth=2
	movl	-8(%rbp), %eax
	movl	-28(%rbp), %ecx
	subl	16(%rbp), %ecx
	cmpl	%ecx, %eax
	jge	.LBB26_28
# %bb.26:                               # %for.body57
                                        #   in Loop: Header=BB26_25 Depth=2
	movq	-72(%rbp), %rax
	movslq	-4(%rbp), %rcx
	movq	(%rax,%rcx,8), %rax
	movslq	-8(%rbp), %rcx
	movzwl	(%rax,%rcx,2), %eax
	movq	%rax, -64(%rbp)
	movq	-64(%rbp), %rax
	andq	$65280, %rax            # imm = 0xFF00
	shlq	$8, %rax
	movq	-64(%rbp), %rcx
	andq	$255, %rcx
	shlq	$24, %rcx
	orq	%rcx, %rax
	movq	-64(%rbp), %rcx
	andq	$16711680, %rcx         # imm = 0xFF0000
	shrq	$8, %rcx
	orq	%rcx, %rax
	movl	$4278190080, %ecx       # imm = 0xFF000000
	andq	-64(%rbp), %rcx
	shrq	$24, %rcx
	orq	%rcx, %rax
	movq	%rax, -88(%rbp)
	movq	-56(%rbp), %rax
	movl	-8(%rbp), %ecx
	subl	-12(%rbp), %ecx
	movl	-4(%rbp), %edx
	subl	24(%rbp), %edx
	imull	-20(%rbp), %edx
	addl	%edx, %ecx
	shll	$2, %ecx
	movslq	%ecx, %rcx
	movl	-88(%rbp), %edx
	movl	%edx, (%rax,%rcx)
# %bb.27:                               # %for.inc81
                                        #   in Loop: Header=BB26_25 Depth=2
	movl	-8(%rbp), %eax
	addl	$1, %eax
	movl	%eax, -8(%rbp)
	jmp	.LBB26_25
.LBB26_28:                              # %for.end83
                                        #   in Loop: Header=BB26_23 Depth=1
	jmp	.LBB26_29
.LBB26_29:                              # %for.inc84
                                        #   in Loop: Header=BB26_23 Depth=1
	movl	-4(%rbp), %eax
	addl	$1, %eax
	movl	%eax, -4(%rbp)
	jmp	.LBB26_23
.LBB26_30:                              # %for.end86
	jmp	.LBB26_32
.LBB26_31:                              # %sw.default
	movabsq	$.L.str, %rdi
	movl	$500, %esi              # imm = 0x1F4
	callq	error
.LBB26_32:                              # %sw.epilog
	jmp	.LBB26_45
.LBB26_33:                              # %if.else
	movslq	-24(%rbp), %rax
	movl	$2, %ecx
	cmpq	%rax, %rcx
	jae	.LBB26_35
# %bb.34:                               # %if.then90
	movl	$2, -40(%rbp)
	movq	-56(%rbp), %rdi
	movl	-20(%rbp), %eax
	imull	-76(%rbp), %eax
	imull	-24(%rbp), %eax
	movslq	%eax, %rdx
	xorl	%esi, %esi
	callq	memset
	jmp	.LBB26_36
.LBB26_35:                              # %if.else94
	movl	-24(%rbp), %eax
	movl	%eax, -40(%rbp)
.LBB26_36:                              # %if.end
	movl	24(%rbp), %eax
	movl	%eax, -4(%rbp)
.LBB26_37:                              # %for.cond95
                                        # =>This Loop Header: Depth=1
                                        #     Child Loop BB26_39 Depth 2
	movl	-4(%rbp), %eax
	movl	-32(%rbp), %ecx
	subl	32(%rbp), %ecx
	cmpl	%ecx, %eax
	jge	.LBB26_44
# %bb.38:                               # %for.body99
                                        #   in Loop: Header=BB26_37 Depth=1
	movl	-12(%rbp), %eax
	movl	%eax, -8(%rbp)
.LBB26_39:                              # %for.cond100
                                        #   Parent Loop BB26_37 Depth=1
                                        # =>  This Inner Loop Header: Depth=2
	movl	-8(%rbp), %eax
	movl	-28(%rbp), %ecx
	subl	16(%rbp), %ecx
	cmpl	%ecx, %eax
	jge	.LBB26_42
# %bb.40:                               # %for.body104
                                        #   in Loop: Header=BB26_39 Depth=2
	movq	-56(%rbp), %rdi
	movl	-8(%rbp), %eax
	subl	-12(%rbp), %eax
	movl	-4(%rbp), %ecx
	subl	24(%rbp), %ecx
	imull	-20(%rbp), %ecx
	addl	%ecx, %eax
	imull	-24(%rbp), %eax
	cltq
	addq	%rax, %rdi
	movq	-72(%rbp), %rax
	movslq	-4(%rbp), %rcx
	movq	(%rax,%rcx,8), %rsi
	movslq	-8(%rbp), %rax
	shlq	$1, %rax
	addq	%rax, %rsi
	movslq	-40(%rbp), %rdx
	callq	memcpy
# %bb.41:                               # %for.inc117
                                        #   in Loop: Header=BB26_39 Depth=2
	movl	-8(%rbp), %eax
	addl	$1, %eax
	movl	%eax, -8(%rbp)
	jmp	.LBB26_39
.LBB26_42:                              # %for.end119
                                        #   in Loop: Header=BB26_37 Depth=1
	jmp	.LBB26_43
.LBB26_43:                              # %for.inc120
                                        #   in Loop: Header=BB26_37 Depth=1
	movl	-4(%rbp), %eax
	addl	$1, %eax
	movl	%eax, -4(%rbp)
	jmp	.LBB26_37
.LBB26_44:                              # %for.end122
	jmp	.LBB26_45
.LBB26_45:                              # %if.end123
	cmpl	$1627517133, -80(%rbp)  # imm = 0x6101F0CD
	jne	.LBB26_47
.LBB26_46:
	addq	$96, %rsp
	popq	%rbp
	.cfi_def_cfa %rsp, 8
	retq
.LBB26_47:                              # %func_exit
	.cfi_def_cfa %rbp, 16
	callq	detect_breach
	jmp	.LBB26_46
.Lfunc_end26:
	.size	img2buf.16, .Lfunc_end26-img2buf.16
	.cfi_endproc
                                        # -- End function
	.globl	write_out_picture.17    # -- Begin function write_out_picture.17
	.p2align	4, 0x90
	.type	write_out_picture.17,@function
write_out_picture.17:                   # @write_out_picture.17
	.cfi_startproc
# %bb.0:                                # %entry
	pushq	%rbp
	.cfi_def_cfa_offset 16
	.cfi_offset %rbp, -16
	movq	%rsp, %rbp
	.cfi_def_cfa_register %rbp
	subq	$128, %rsp
	xorl	%ecx, %ecx
	movl	$50920566, -52(%rbp)    # imm = 0x308FC76
	movq	%rdi, -8(%rbp)
	movl	%esi, -44(%rbp)
	movq	.L__const.write_out_picture.SubWidthC, %rax
	movq	%rax, -96(%rbp)
	movq	.L__const.write_out_picture.SubWidthC+8, %rax
	movq	%rax, -88(%rbp)
	movq	.L__const.write_out_picture.SubHeightC, %rax
	movq	%rax, -80(%rbp)
	movq	.L__const.write_out_picture.SubHeightC+8, %rax
	movq	%rax, -72(%rbp)
	movq	img, %rax
	movl	72656(%rax), %eax
	cltd
	movl	$8, %esi
	idivl	%esi
	movl	%eax, -28(%rbp)
	movq	input, %rax
	cmpl	$0, 3312(%rax)
	je	.LBB27_2
# %bb.1:                                # %land.rhs
	movq	input, %rax
	cmpl	$3, 72(%rax)
	sete	%cl
.LBB27_2:                               # %land.end
	andb	$1, %cl
	movzbl	%cl, %eax
	movl	%eax, -48(%rbp)
	movq	-8(%rbp), %rax
	cmpl	$0, 6388(%rax)
	je	.LBB27_4
# %bb.3:                                # %if.then
	jmp	.LBB27_19
.LBB27_4:                               # %if.end
	movq	-8(%rbp), %rax
	cmpl	$0, 6560(%rax)
	je	.LBB27_6
# %bb.5:                                # %if.then3
	movq	-8(%rbp), %rax
	movslq	6552(%rax), %rax
	movl	-96(%rbp,%rax,4), %eax
	movq	-8(%rbp), %rcx
	imull	6564(%rcx), %eax
	movl	%eax, -24(%rbp)
	movq	-8(%rbp), %rax
	movslq	6552(%rax), %rax
	movl	-96(%rbp,%rax,4), %eax
	movq	-8(%rbp), %rcx
	imull	6568(%rcx), %eax
	movl	%eax, -20(%rbp)
	movq	-8(%rbp), %rax
	movslq	6552(%rax), %rax
	movl	-80(%rbp,%rax,4), %eax
	movq	-8(%rbp), %rcx
	movl	$2, %edx
	movl	$2, %esi
	subl	6556(%rcx), %esi
	imull	%esi, %eax
	movq	-8(%rbp), %rcx
	imull	6572(%rcx), %eax
	movl	%eax, -12(%rbp)
	movq	-8(%rbp), %rax
	movslq	6552(%rax), %rax
	movl	-80(%rbp,%rax,4), %eax
	movq	-8(%rbp), %rcx
	subl	6556(%rcx), %edx
	imull	%edx, %eax
	movq	-8(%rbp), %rcx
	imull	6576(%rcx), %eax
	movl	%eax, -16(%rbp)
	jmp	.LBB27_7
.LBB27_6:                               # %if.else
	movl	$0, -16(%rbp)
	movl	$0, -12(%rbp)
	movl	$0, -20(%rbp)
	movl	$0, -24(%rbp)
.LBB27_7:                               # %if.end20
	movq	-8(%rbp), %rax
	movl	6392(%rax), %eax
	movq	-8(%rbp), %rcx
	imull	6396(%rcx), %eax
	imull	-28(%rbp), %eax
	movslq	%eax, %rdi
	callq	malloc
	xorl	%ecx, %ecx
	movq	%rax, -40(%rbp)
	cmpq	%rax, %rcx
	jne	.LBB27_9
# %bb.8:                                # %if.then25
	movabsq	$.L.str.1, %rdi
	callq	no_mem_exit
.LBB27_9:                               # %if.end26
	cmpl	$0, -48(%rbp)
	je	.LBB27_14
# %bb.10:                               # %if.then28
	movq	-8(%rbp), %rax
	movl	6564(%rax), %eax
	movl	%eax, -24(%rbp)
	movq	-8(%rbp), %rax
	movl	6568(%rax), %eax
	movl	%eax, -20(%rbp)
	movq	-8(%rbp), %rax
	movl	$2, %ecx
	movl	$2, %edx
	subl	6556(%rax), %edx
	movq	-8(%rbp), %rax
	imull	6572(%rax), %edx
	movl	%edx, -12(%rbp)
	movq	-8(%rbp), %rax
	subl	6556(%rax), %ecx
	movq	-8(%rbp), %rax
	imull	6576(%rax), %ecx
	movl	%ecx, -16(%rbp)
	movq	-8(%rbp), %rax
	movq	6464(%rax), %rax
	movq	8(%rax), %rdi
	movq	-40(%rbp), %rsi
	movq	-8(%rbp), %rax
	movl	6400(%rax), %edx
	movq	-8(%rbp), %rax
	movl	6404(%rax), %ecx
	movl	-28(%rbp), %r8d
	movl	-24(%rbp), %r9d
	movl	-20(%rbp), %eax
	movl	-12(%rbp), %r10d
	movl	-16(%rbp), %r11d
	movl	%eax, (%rsp)
	movl	%r10d, 8(%rsp)
	movl	%r11d, 16(%rsp)
	callq	img2buf
	movl	-44(%rbp), %edi
	movq	-40(%rbp), %rsi
	movq	-8(%rbp), %rax
	movl	6404(%rax), %eax
	subl	-16(%rbp), %eax
	subl	-12(%rbp), %eax
	movq	-8(%rbp), %rcx
	movl	6400(%rcx), %ecx
	subl	-20(%rbp), %ecx
	subl	-24(%rbp), %ecx
	imull	%ecx, %eax
	imull	-28(%rbp), %eax
	movslq	%eax, %rdx
	callq	write
	movq	active_sps, %rax
	cmpl	$0, 1160(%rax)
	je	.LBB27_12
# %bb.11:                               # %if.then52
	movq	-8(%rbp), %rax
	movslq	6552(%rax), %rax
	movl	-96(%rbp,%rax,4), %eax
	movq	-8(%rbp), %rcx
	imull	6564(%rcx), %eax
	movl	%eax, -24(%rbp)
	movq	-8(%rbp), %rax
	movslq	6552(%rax), %rax
	movl	-96(%rbp,%rax,4), %eax
	movq	-8(%rbp), %rcx
	imull	6568(%rcx), %eax
	movl	%eax, -20(%rbp)
	movq	-8(%rbp), %rax
	movslq	6552(%rax), %rax
	movl	-80(%rbp,%rax,4), %eax
	movq	-8(%rbp), %rcx
	movl	$2, %edx
	movl	$2, %esi
	subl	6556(%rcx), %esi
	imull	%esi, %eax
	movq	-8(%rbp), %rcx
	imull	6572(%rcx), %eax
	movl	%eax, -12(%rbp)
	movq	-8(%rbp), %rax
	movslq	6552(%rax), %rax
	movl	-80(%rbp,%rax,4), %eax
	movq	-8(%rbp), %rcx
	subl	6556(%rcx), %edx
	imull	%edx, %eax
	movq	-8(%rbp), %rcx
	imull	6576(%rcx), %eax
	movl	%eax, -16(%rbp)
	jmp	.LBB27_13
.LBB27_12:                              # %if.else79
	movl	$0, -16(%rbp)
	movl	$0, -12(%rbp)
	movl	$0, -20(%rbp)
	movl	$0, -24(%rbp)
.LBB27_13:                              # %if.end80
	jmp	.LBB27_14
.LBB27_14:                              # %if.end81
	movq	-8(%rbp), %rax
	movq	6424(%rax), %rdi
	movq	-40(%rbp), %rsi
	movq	-8(%rbp), %rax
	movl	6392(%rax), %edx
	movq	-8(%rbp), %rax
	movl	6396(%rax), %ecx
	movl	-28(%rbp), %r8d
	movl	-24(%rbp), %r9d
	movl	-20(%rbp), %eax
	movl	-12(%rbp), %r10d
	movl	-16(%rbp), %r11d
	movl	%eax, (%rsp)
	movl	%r10d, 8(%rsp)
	movl	%r11d, 16(%rsp)
	callq	img2buf
	movl	-44(%rbp), %edi
	movq	-40(%rbp), %rsi
	movq	-8(%rbp), %rax
	movl	6396(%rax), %eax
	subl	-16(%rbp), %eax
	subl	-12(%rbp), %eax
	movq	-8(%rbp), %rcx
	movl	6392(%rcx), %ecx
	subl	-20(%rbp), %ecx
	subl	-24(%rbp), %ecx
	imull	%ecx, %eax
	imull	-28(%rbp), %eax
	movslq	%eax, %rdx
	callq	write
	movq	-8(%rbp), %rax
	cmpl	$0, 6552(%rax)
	je	.LBB27_18
# %bb.15:                               # %if.then97
	movq	-8(%rbp), %rax
	movl	6564(%rax), %eax
	movl	%eax, -24(%rbp)
	movq	-8(%rbp), %rax
	movl	6568(%rax), %eax
	movl	%eax, -20(%rbp)
	movq	-8(%rbp), %rax
	movl	$2, %ecx
	movl	$2, %edx
	subl	6556(%rax), %edx
	movq	-8(%rbp), %rax
	imull	6572(%rax), %edx
	movl	%edx, -12(%rbp)
	movq	-8(%rbp), %rax
	subl	6556(%rax), %ecx
	movq	-8(%rbp), %rax
	imull	6576(%rax), %ecx
	movl	%ecx, -16(%rbp)
	movq	-8(%rbp), %rax
	movq	6464(%rax), %rax
	movq	(%rax), %rdi
	movq	-40(%rbp), %rsi
	movq	-8(%rbp), %rax
	movl	6400(%rax), %edx
	movq	-8(%rbp), %rax
	movl	6404(%rax), %ecx
	movl	-28(%rbp), %r8d
	movl	-24(%rbp), %r9d
	movl	-20(%rbp), %eax
	movl	-12(%rbp), %r10d
	movl	-16(%rbp), %r11d
	movl	%eax, (%rsp)
	movl	%r10d, 8(%rsp)
	movl	%r11d, 16(%rsp)
	callq	img2buf
	movl	-44(%rbp), %edi
	movq	-40(%rbp), %rsi
	movq	-8(%rbp), %rax
	movl	6404(%rax), %eax
	subl	-16(%rbp), %eax
	subl	-12(%rbp), %eax
	movq	-8(%rbp), %rcx
	movl	6400(%rcx), %ecx
	subl	-20(%rbp), %ecx
	subl	-24(%rbp), %ecx
	imull	%ecx, %eax
	imull	-28(%rbp), %eax
	movslq	%eax, %rdx
	callq	write
	cmpl	$0, -48(%rbp)
	jne	.LBB27_17
# %bb.16:                               # %if.then123
	movq	-8(%rbp), %rax
	movq	6464(%rax), %rax
	movq	8(%rax), %rdi
	movq	-40(%rbp), %rsi
	movq	-8(%rbp), %rax
	movl	6400(%rax), %edx
	movq	-8(%rbp), %rax
	movl	6404(%rax), %ecx
	movl	-28(%rbp), %r8d
	movl	-24(%rbp), %r9d
	movl	-20(%rbp), %eax
	movl	-12(%rbp), %r10d
	movl	-16(%rbp), %r11d
	movl	%eax, (%rsp)
	movl	%r10d, 8(%rsp)
	movl	%r11d, 16(%rsp)
	callq	img2buf
	movl	-44(%rbp), %edi
	movq	-40(%rbp), %rsi
	movq	-8(%rbp), %rax
	movl	6404(%rax), %eax
	subl	-16(%rbp), %eax
	subl	-12(%rbp), %eax
	movq	-8(%rbp), %rcx
	movl	6400(%rcx), %ecx
	subl	-20(%rbp), %ecx
	subl	-24(%rbp), %ecx
	imull	%ecx, %eax
	imull	-28(%rbp), %eax
	movslq	%eax, %rdx
	callq	write
.LBB27_17:                              # %if.end138
	jmp	.LBB27_18
.LBB27_18:                              # %if.end139
	movq	-40(%rbp), %rdi
	callq	free
.LBB27_19:                              # %return
	cmpl	$50920566, -52(%rbp)    # imm = 0x308FC76
	jne	.LBB27_21
.LBB27_20:
	addq	$128, %rsp
	popq	%rbp
	.cfi_def_cfa %rsp, 8
	retq
.LBB27_21:                              # %func_exit
	.cfi_def_cfa %rbp, 16
	callq	detect_breach
	jmp	.LBB27_20
.Lfunc_end27:
	.size	write_out_picture.17, .Lfunc_end27-write_out_picture.17
	.cfi_endproc
                                        # -- End function
	.globl	write_picture.18        # -- Begin function write_picture.18
	.p2align	4, 0x90
	.type	write_picture.18,@function
write_picture.18:                       # @write_picture.18
	.cfi_startproc
# %bb.0:                                # %entry
	pushq	%rbp
	.cfi_def_cfa_offset 16
	.cfi_offset %rbp, -16
	movq	%rsp, %rbp
	.cfi_def_cfa_register %rbp
	subq	$32, %rsp
	movl	$580984546, -8(%rbp)    # imm = 0x22A11EE2
	movq	%rdi, -16(%rbp)
	movl	%esi, -4(%rbp)
	movl	%edx, -20(%rbp)
	movq	-16(%rbp), %rdi
	movl	-4(%rbp), %esi
	callq	write_out_picture
	cmpl	$580984546, -8(%rbp)    # imm = 0x22A11EE2
	jne	.LBB28_2
.LBB28_1:
	addq	$32, %rsp
	popq	%rbp
	.cfi_def_cfa %rsp, 8
	retq
.LBB28_2:                               # %func_exit
	.cfi_def_cfa %rbp, 16
	callq	detect_breach
	jmp	.LBB28_1
.Lfunc_end28:
	.size	write_picture.18, .Lfunc_end28-write_picture.18
	.cfi_endproc
                                        # -- End function
	.globl	direct_output.19        # -- Begin function direct_output.19
	.p2align	4, 0x90
	.type	direct_output.19,@function
direct_output.19:                       # @direct_output.19
	.cfi_startproc
# %bb.0:                                # %entry
	pushq	%rbp
	.cfi_def_cfa_offset 16
	.cfi_offset %rbp, -16
	movq	%rsp, %rbp
	.cfi_def_cfa_register %rbp
	subq	$32, %rsp
	movl	$538352227, -20(%rbp)   # imm = 0x20169A63
	movq	%rdi, -16(%rbp)
	movl	%esi, -4(%rbp)
	movq	-16(%rbp), %rax
	cmpl	$0, (%rax)
	jne	.LBB29_2
# %bb.1:                                # %if.then
	movl	-4(%rbp), %edi
	callq	flush_direct_output
	movq	-16(%rbp), %rdi
	movl	-4(%rbp), %esi
	xorl	%edx, %edx
	callq	write_picture
	movq	-16(%rbp), %rdi
	callq	free_storable_picture
	jmp	.LBB29_12
.LBB29_2:                               # %if.end
	movq	-16(%rbp), %rax
	cmpl	$1, (%rax)
	jne	.LBB29_6
# %bb.3:                                # %if.then3
	movq	out_buffer, %rax
	movl	(%rax), %eax
	andl	$1, %eax
	cmpl	$0, %eax
	je	.LBB29_5
# %bb.4:                                # %if.then4
	movl	-4(%rbp), %edi
	callq	flush_direct_output
.LBB29_5:                               # %if.end5
	movq	-16(%rbp), %rax
	movq	out_buffer, %rcx
	movq	%rax, 48(%rcx)
	movq	out_buffer, %rax
	movl	(%rax), %ecx
	orl	$1, %ecx
	movl	%ecx, (%rax)
.LBB29_6:                               # %if.end7
	movq	-16(%rbp), %rax
	cmpl	$2, (%rax)
	jne	.LBB29_10
# %bb.7:                                # %if.then10
	movq	out_buffer, %rax
	movl	(%rax), %eax
	andl	$2, %eax
	cmpl	$0, %eax
	je	.LBB29_9
# %bb.8:                                # %if.then14
	movl	-4(%rbp), %edi
	callq	flush_direct_output
.LBB29_9:                               # %if.end15
	movq	-16(%rbp), %rax
	movq	out_buffer, %rcx
	movq	%rax, 56(%rcx)
	movq	out_buffer, %rax
	movl	(%rax), %ecx
	orl	$2, %ecx
	movl	%ecx, (%rax)
.LBB29_10:                              # %if.end18
	movq	out_buffer, %rax
	cmpl	$3, (%rax)
	jne	.LBB29_12
# %bb.11:                               # %if.then21
	movq	out_buffer, %rdi
	callq	dpb_combine_field
	movq	out_buffer, %rax
	movq	40(%rax), %rdi
	movl	-4(%rbp), %esi
	xorl	%edx, %edx
	callq	write_picture
	movq	out_buffer, %rax
	movq	40(%rax), %rdi
	callq	free_storable_picture
	movq	out_buffer, %rax
	movq	$0, 40(%rax)
	movq	out_buffer, %rax
	movq	48(%rax), %rdi
	callq	free_storable_picture
	movq	out_buffer, %rax
	movq	$0, 48(%rax)
	movq	out_buffer, %rax
	movq	56(%rax), %rdi
	callq	free_storable_picture
	movq	out_buffer, %rax
	movq	$0, 56(%rax)
	movq	out_buffer, %rax
	movl	$0, (%rax)
.LBB29_12:                              # %if.end29
	cmpl	$538352227, -20(%rbp)   # imm = 0x20169A63
	jne	.LBB29_14
.LBB29_13:
	addq	$32, %rsp
	popq	%rbp
	.cfi_def_cfa %rsp, 8
	retq
.LBB29_14:                              # %func_exit
	.cfi_def_cfa %rbp, 16
	callq	detect_breach
	jmp	.LBB29_13
.Lfunc_end29:
	.size	direct_output.19, .Lfunc_end29-direct_output.19
	.cfi_endproc
                                        # -- End function
	.globl	img2buf.20              # -- Begin function img2buf.20
	.p2align	4, 0x90
	.type	img2buf.20,@function
img2buf.20:                             # @img2buf.20
	.cfi_startproc
# %bb.0:                                # %entry
	pushq	%rbp
	.cfi_def_cfa_offset 16
	.cfi_offset %rbp, -16
	movq	%rsp, %rbp
	.cfi_def_cfa_register %rbp
	subq	$96, %rsp
	movl	32(%rbp), %eax
	movl	24(%rbp), %eax
	movl	16(%rbp), %eax
	movl	$184032566, -76(%rbp)   # imm = 0xAF81D36
	movq	%rdi, -64(%rbp)
	movq	%rsi, -56(%rbp)
	movl	%edx, -20(%rbp)
	movl	%ecx, -28(%rbp)
	movl	%r8d, -24(%rbp)
	movl	%r9d, -12(%rbp)
	movl	-20(%rbp), %eax
	subl	-12(%rbp), %eax
	subl	16(%rbp), %eax
	movl	%eax, -32(%rbp)
	movl	-28(%rbp), %eax
	subl	24(%rbp), %eax
	subl	32(%rbp), %eax
	movl	%eax, -80(%rbp)
	movl	$0, -40(%rbp)
	callq	testEndian
	cmpl	$0, %eax
	je	.LBB30_33
# %bb.1:                                # %if.then
	movl	-24(%rbp), %eax
	movl	%eax, %ecx
	subl	$1, %ecx
	je	.LBB30_4
	jmp	.LBB30_2
.LBB30_2:                               # %if.then
	movl	%eax, %ecx
	subl	$2, %ecx
	je	.LBB30_13
	jmp	.LBB30_3
.LBB30_3:                               # %if.then
	subl	$4, %eax
	je	.LBB30_22
	jmp	.LBB30_31
.LBB30_4:                               # %sw.bb
	movl	24(%rbp), %eax
	movl	%eax, -8(%rbp)
.LBB30_5:                               # %for.cond
                                        # =>This Loop Header: Depth=1
                                        #     Child Loop BB30_7 Depth 2
	movl	-8(%rbp), %eax
	movl	-28(%rbp), %ecx
	subl	32(%rbp), %ecx
	cmpl	%ecx, %eax
	jge	.LBB30_12
# %bb.6:                                # %for.body
                                        #   in Loop: Header=BB30_5 Depth=1
	movl	-12(%rbp), %eax
	movl	%eax, -4(%rbp)
.LBB30_7:                               # %for.cond5
                                        #   Parent Loop BB30_5 Depth=1
                                        # =>  This Inner Loop Header: Depth=2
	movl	-4(%rbp), %eax
	movl	-20(%rbp), %ecx
	subl	16(%rbp), %ecx
	cmpl	%ecx, %eax
	jge	.LBB30_10
# %bb.8:                                # %for.body8
                                        #   in Loop: Header=BB30_7 Depth=2
	movq	-64(%rbp), %rax
	movslq	-8(%rbp), %rcx
	movq	(%rax,%rcx,8), %rax
	movslq	-4(%rbp), %rcx
	movw	(%rax,%rcx,2), %ax
	movb	%al, -13(%rbp)
	movb	-13(%rbp), %al
	movq	-56(%rbp), %rcx
	movl	-4(%rbp), %edx
	subl	-12(%rbp), %edx
	movl	-8(%rbp), %esi
	subl	24(%rbp), %esi
	imull	-32(%rbp), %esi
	addl	%esi, %edx
	movslq	%edx, %rdx
	movb	%al, (%rcx,%rdx)
# %bb.9:                                # %for.inc
                                        #   in Loop: Header=BB30_7 Depth=2
	movl	-4(%rbp), %eax
	addl	$1, %eax
	movl	%eax, -4(%rbp)
	jmp	.LBB30_7
.LBB30_10:                              # %for.end
                                        #   in Loop: Header=BB30_5 Depth=1
	jmp	.LBB30_11
.LBB30_11:                              # %for.inc15
                                        #   in Loop: Header=BB30_5 Depth=1
	movl	-8(%rbp), %eax
	addl	$1, %eax
	movl	%eax, -8(%rbp)
	jmp	.LBB30_5
.LBB30_12:                              # %for.end17
	jmp	.LBB30_32
.LBB30_13:                              # %sw.bb18
	movl	24(%rbp), %eax
	movl	%eax, -8(%rbp)
.LBB30_14:                              # %for.cond19
                                        # =>This Loop Header: Depth=1
                                        #     Child Loop BB30_16 Depth 2
	movl	-8(%rbp), %eax
	movl	-28(%rbp), %ecx
	subl	32(%rbp), %ecx
	cmpl	%ecx, %eax
	jge	.LBB30_21
# %bb.15:                               # %for.body23
                                        #   in Loop: Header=BB30_14 Depth=1
	movl	-12(%rbp), %eax
	movl	%eax, -4(%rbp)
.LBB30_16:                              # %for.cond24
                                        #   Parent Loop BB30_14 Depth=1
                                        # =>  This Inner Loop Header: Depth=2
	movl	-4(%rbp), %eax
	movl	-20(%rbp), %ecx
	subl	16(%rbp), %ecx
	cmpl	%ecx, %eax
	jge	.LBB30_19
# %bb.17:                               # %for.body28
                                        #   in Loop: Header=BB30_16 Depth=2
	movq	-64(%rbp), %rax
	movslq	-8(%rbp), %rcx
	movq	(%rax,%rcx,8), %rax
	movslq	-4(%rbp), %rcx
	movw	(%rax,%rcx,2), %ax
	movw	%ax, -34(%rbp)
	movzwl	-34(%rbp), %eax
	sarl	$8, %eax
	movzwl	-34(%rbp), %ecx
	andl	$255, %ecx
	shll	$8, %ecx
	orl	%ecx, %eax
	movw	%ax, -42(%rbp)
	movq	-56(%rbp), %rax
	movl	-4(%rbp), %ecx
	subl	-12(%rbp), %ecx
	movl	-8(%rbp), %edx
	subl	24(%rbp), %edx
	imull	-32(%rbp), %edx
	addl	%edx, %ecx
	shll	$1, %ecx
	movslq	%ecx, %rcx
	movw	-42(%rbp), %dx
	movw	%dx, (%rax,%rcx)
# %bb.18:                               # %for.inc41
                                        #   in Loop: Header=BB30_16 Depth=2
	movl	-4(%rbp), %eax
	addl	$1, %eax
	movl	%eax, -4(%rbp)
	jmp	.LBB30_16
.LBB30_19:                              # %for.end43
                                        #   in Loop: Header=BB30_14 Depth=1
	jmp	.LBB30_20
.LBB30_20:                              # %for.inc44
                                        #   in Loop: Header=BB30_14 Depth=1
	movl	-8(%rbp), %eax
	addl	$1, %eax
	movl	%eax, -8(%rbp)
	jmp	.LBB30_14
.LBB30_21:                              # %for.end46
	jmp	.LBB30_32
.LBB30_22:                              # %sw.bb47
	movl	24(%rbp), %eax
	movl	%eax, -8(%rbp)
.LBB30_23:                              # %for.cond48
                                        # =>This Loop Header: Depth=1
                                        #     Child Loop BB30_25 Depth 2
	movl	-8(%rbp), %eax
	movl	-28(%rbp), %ecx
	subl	32(%rbp), %ecx
	cmpl	%ecx, %eax
	jge	.LBB30_30
# %bb.24:                               # %for.body52
                                        #   in Loop: Header=BB30_23 Depth=1
	movl	-12(%rbp), %eax
	movl	%eax, -4(%rbp)
.LBB30_25:                              # %for.cond53
                                        #   Parent Loop BB30_23 Depth=1
                                        # =>  This Inner Loop Header: Depth=2
	movl	-4(%rbp), %eax
	movl	-20(%rbp), %ecx
	subl	16(%rbp), %ecx
	cmpl	%ecx, %eax
	jge	.LBB30_28
# %bb.26:                               # %for.body57
                                        #   in Loop: Header=BB30_25 Depth=2
	movq	-64(%rbp), %rax
	movslq	-8(%rbp), %rcx
	movq	(%rax,%rcx,8), %rax
	movslq	-4(%rbp), %rcx
	movzwl	(%rax,%rcx,2), %eax
	movq	%rax, -72(%rbp)
	movq	-72(%rbp), %rax
	andq	$65280, %rax            # imm = 0xFF00
	shlq	$8, %rax
	movq	-72(%rbp), %rcx
	andq	$255, %rcx
	shlq	$24, %rcx
	orq	%rcx, %rax
	movq	-72(%rbp), %rcx
	andq	$16711680, %rcx         # imm = 0xFF0000
	shrq	$8, %rcx
	orq	%rcx, %rax
	movl	$4278190080, %ecx       # imm = 0xFF000000
	andq	-72(%rbp), %rcx
	shrq	$24, %rcx
	orq	%rcx, %rax
	movq	%rax, -88(%rbp)
	movq	-56(%rbp), %rax
	movl	-4(%rbp), %ecx
	subl	-12(%rbp), %ecx
	movl	-8(%rbp), %edx
	subl	24(%rbp), %edx
	imull	-32(%rbp), %edx
	addl	%edx, %ecx
	shll	$2, %ecx
	movslq	%ecx, %rcx
	movl	-88(%rbp), %edx
	movl	%edx, (%rax,%rcx)
# %bb.27:                               # %for.inc81
                                        #   in Loop: Header=BB30_25 Depth=2
	movl	-4(%rbp), %eax
	addl	$1, %eax
	movl	%eax, -4(%rbp)
	jmp	.LBB30_25
.LBB30_28:                              # %for.end83
                                        #   in Loop: Header=BB30_23 Depth=1
	jmp	.LBB30_29
.LBB30_29:                              # %for.inc84
                                        #   in Loop: Header=BB30_23 Depth=1
	movl	-8(%rbp), %eax
	addl	$1, %eax
	movl	%eax, -8(%rbp)
	jmp	.LBB30_23
.LBB30_30:                              # %for.end86
	jmp	.LBB30_32
.LBB30_31:                              # %sw.default
	movabsq	$.L.str, %rdi
	movl	$500, %esi              # imm = 0x1F4
	callq	error
.LBB30_32:                              # %sw.epilog
	jmp	.LBB30_45
.LBB30_33:                              # %if.else
	movslq	-24(%rbp), %rax
	movl	$2, %ecx
	cmpq	%rax, %rcx
	jae	.LBB30_35
# %bb.34:                               # %if.then90
	movl	$2, -40(%rbp)
	movq	-56(%rbp), %rdi
	movl	-32(%rbp), %eax
	imull	-80(%rbp), %eax
	imull	-24(%rbp), %eax
	movslq	%eax, %rdx
	xorl	%esi, %esi
	callq	memset
	jmp	.LBB30_36
.LBB30_35:                              # %if.else94
	movl	-24(%rbp), %eax
	movl	%eax, -40(%rbp)
.LBB30_36:                              # %if.end
	movl	24(%rbp), %eax
	movl	%eax, -8(%rbp)
.LBB30_37:                              # %for.cond95
                                        # =>This Loop Header: Depth=1
                                        #     Child Loop BB30_39 Depth 2
	movl	-8(%rbp), %eax
	movl	-28(%rbp), %ecx
	subl	32(%rbp), %ecx
	cmpl	%ecx, %eax
	jge	.LBB30_44
# %bb.38:                               # %for.body99
                                        #   in Loop: Header=BB30_37 Depth=1
	movl	-12(%rbp), %eax
	movl	%eax, -4(%rbp)
.LBB30_39:                              # %for.cond100
                                        #   Parent Loop BB30_37 Depth=1
                                        # =>  This Inner Loop Header: Depth=2
	movl	-4(%rbp), %eax
	movl	-20(%rbp), %ecx
	subl	16(%rbp), %ecx
	cmpl	%ecx, %eax
	jge	.LBB30_42
# %bb.40:                               # %for.body104
                                        #   in Loop: Header=BB30_39 Depth=2
	movq	-56(%rbp), %rdi
	movl	-4(%rbp), %eax
	subl	-12(%rbp), %eax
	movl	-8(%rbp), %ecx
	subl	24(%rbp), %ecx
	imull	-32(%rbp), %ecx
	addl	%ecx, %eax
	imull	-24(%rbp), %eax
	cltq
	addq	%rax, %rdi
	movq	-64(%rbp), %rax
	movslq	-8(%rbp), %rcx
	movq	(%rax,%rcx,8), %rsi
	movslq	-4(%rbp), %rax
	shlq	$1, %rax
	addq	%rax, %rsi
	movslq	-40(%rbp), %rdx
	callq	memcpy
# %bb.41:                               # %for.inc117
                                        #   in Loop: Header=BB30_39 Depth=2
	movl	-4(%rbp), %eax
	addl	$1, %eax
	movl	%eax, -4(%rbp)
	jmp	.LBB30_39
.LBB30_42:                              # %for.end119
                                        #   in Loop: Header=BB30_37 Depth=1
	jmp	.LBB30_43
.LBB30_43:                              # %for.inc120
                                        #   in Loop: Header=BB30_37 Depth=1
	movl	-8(%rbp), %eax
	addl	$1, %eax
	movl	%eax, -8(%rbp)
	jmp	.LBB30_37
.LBB30_44:                              # %for.end122
	jmp	.LBB30_45
.LBB30_45:                              # %if.end123
	cmpl	$184032566, -76(%rbp)   # imm = 0xAF81D36
	jne	.LBB30_47
.LBB30_46:
	addq	$96, %rsp
	popq	%rbp
	.cfi_def_cfa %rsp, 8
	retq
.LBB30_47:                              # %func_exit
	.cfi_def_cfa %rbp, 16
	callq	detect_breach
	jmp	.LBB30_46
.Lfunc_end30:
	.size	img2buf.20, .Lfunc_end30-img2buf.20
	.cfi_endproc
                                        # -- End function
	.globl	write_out_picture.21    # -- Begin function write_out_picture.21
	.p2align	4, 0x90
	.type	write_out_picture.21,@function
write_out_picture.21:                   # @write_out_picture.21
	.cfi_startproc
# %bb.0:                                # %entry
	pushq	%rbp
	.cfi_def_cfa_offset 16
	.cfi_offset %rbp, -16
	movq	%rsp, %rbp
	.cfi_def_cfa_register %rbp
	subq	$128, %rsp
	xorl	%ecx, %ecx
	movl	$300785359, -52(%rbp)   # imm = 0x11ED9ECF
	movq	%rdi, -8(%rbp)
	movl	%esi, -44(%rbp)
	movq	.L__const.write_out_picture.SubWidthC, %rax
	movq	%rax, -96(%rbp)
	movq	.L__const.write_out_picture.SubWidthC+8, %rax
	movq	%rax, -88(%rbp)
	movq	.L__const.write_out_picture.SubHeightC, %rax
	movq	%rax, -80(%rbp)
	movq	.L__const.write_out_picture.SubHeightC+8, %rax
	movq	%rax, -72(%rbp)
	movq	img, %rax
	movl	72656(%rax), %eax
	cltd
	movl	$8, %esi
	idivl	%esi
	movl	%eax, -28(%rbp)
	movq	input, %rax
	cmpl	$0, 3312(%rax)
	je	.LBB31_2
# %bb.1:                                # %land.rhs
	movq	input, %rax
	cmpl	$3, 72(%rax)
	sete	%cl
.LBB31_2:                               # %land.end
	andb	$1, %cl
	movzbl	%cl, %eax
	movl	%eax, -48(%rbp)
	movq	-8(%rbp), %rax
	cmpl	$0, 6388(%rax)
	je	.LBB31_4
# %bb.3:                                # %if.then
	jmp	.LBB31_19
.LBB31_4:                               # %if.end
	movq	-8(%rbp), %rax
	cmpl	$0, 6560(%rax)
	je	.LBB31_6
# %bb.5:                                # %if.then3
	movq	-8(%rbp), %rax
	movslq	6552(%rax), %rax
	movl	-96(%rbp,%rax,4), %eax
	movq	-8(%rbp), %rcx
	imull	6564(%rcx), %eax
	movl	%eax, -16(%rbp)
	movq	-8(%rbp), %rax
	movslq	6552(%rax), %rax
	movl	-96(%rbp,%rax,4), %eax
	movq	-8(%rbp), %rcx
	imull	6568(%rcx), %eax
	movl	%eax, -12(%rbp)
	movq	-8(%rbp), %rax
	movslq	6552(%rax), %rax
	movl	-80(%rbp,%rax,4), %eax
	movq	-8(%rbp), %rcx
	movl	$2, %edx
	movl	$2, %esi
	subl	6556(%rcx), %esi
	imull	%esi, %eax
	movq	-8(%rbp), %rcx
	imull	6572(%rcx), %eax
	movl	%eax, -20(%rbp)
	movq	-8(%rbp), %rax
	movslq	6552(%rax), %rax
	movl	-80(%rbp,%rax,4), %eax
	movq	-8(%rbp), %rcx
	subl	6556(%rcx), %edx
	imull	%edx, %eax
	movq	-8(%rbp), %rcx
	imull	6576(%rcx), %eax
	movl	%eax, -24(%rbp)
	jmp	.LBB31_7
.LBB31_6:                               # %if.else
	movl	$0, -24(%rbp)
	movl	$0, -20(%rbp)
	movl	$0, -12(%rbp)
	movl	$0, -16(%rbp)
.LBB31_7:                               # %if.end20
	movq	-8(%rbp), %rax
	movl	6392(%rax), %eax
	movq	-8(%rbp), %rcx
	imull	6396(%rcx), %eax
	imull	-28(%rbp), %eax
	movslq	%eax, %rdi
	callq	malloc
	xorl	%ecx, %ecx
	movq	%rax, -40(%rbp)
	cmpq	%rax, %rcx
	jne	.LBB31_9
# %bb.8:                                # %if.then25
	movabsq	$.L.str.1, %rdi
	callq	no_mem_exit
.LBB31_9:                               # %if.end26
	cmpl	$0, -48(%rbp)
	je	.LBB31_14
# %bb.10:                               # %if.then28
	movq	-8(%rbp), %rax
	movl	6564(%rax), %eax
	movl	%eax, -16(%rbp)
	movq	-8(%rbp), %rax
	movl	6568(%rax), %eax
	movl	%eax, -12(%rbp)
	movq	-8(%rbp), %rax
	movl	$2, %ecx
	movl	$2, %edx
	subl	6556(%rax), %edx
	movq	-8(%rbp), %rax
	imull	6572(%rax), %edx
	movl	%edx, -20(%rbp)
	movq	-8(%rbp), %rax
	subl	6556(%rax), %ecx
	movq	-8(%rbp), %rax
	imull	6576(%rax), %ecx
	movl	%ecx, -24(%rbp)
	movq	-8(%rbp), %rax
	movq	6464(%rax), %rax
	movq	8(%rax), %rdi
	movq	-40(%rbp), %rsi
	movq	-8(%rbp), %rax
	movl	6400(%rax), %edx
	movq	-8(%rbp), %rax
	movl	6404(%rax), %ecx
	movl	-28(%rbp), %r8d
	movl	-16(%rbp), %r9d
	movl	-12(%rbp), %eax
	movl	-20(%rbp), %r10d
	movl	-24(%rbp), %r11d
	movl	%eax, (%rsp)
	movl	%r10d, 8(%rsp)
	movl	%r11d, 16(%rsp)
	callq	img2buf
	movl	-44(%rbp), %edi
	movq	-40(%rbp), %rsi
	movq	-8(%rbp), %rax
	movl	6404(%rax), %eax
	subl	-24(%rbp), %eax
	subl	-20(%rbp), %eax
	movq	-8(%rbp), %rcx
	movl	6400(%rcx), %ecx
	subl	-12(%rbp), %ecx
	subl	-16(%rbp), %ecx
	imull	%ecx, %eax
	imull	-28(%rbp), %eax
	movslq	%eax, %rdx
	callq	write
	movq	active_sps, %rax
	cmpl	$0, 1160(%rax)
	je	.LBB31_12
# %bb.11:                               # %if.then52
	movq	-8(%rbp), %rax
	movslq	6552(%rax), %rax
	movl	-96(%rbp,%rax,4), %eax
	movq	-8(%rbp), %rcx
	imull	6564(%rcx), %eax
	movl	%eax, -16(%rbp)
	movq	-8(%rbp), %rax
	movslq	6552(%rax), %rax
	movl	-96(%rbp,%rax,4), %eax
	movq	-8(%rbp), %rcx
	imull	6568(%rcx), %eax
	movl	%eax, -12(%rbp)
	movq	-8(%rbp), %rax
	movslq	6552(%rax), %rax
	movl	-80(%rbp,%rax,4), %eax
	movq	-8(%rbp), %rcx
	movl	$2, %edx
	movl	$2, %esi
	subl	6556(%rcx), %esi
	imull	%esi, %eax
	movq	-8(%rbp), %rcx
	imull	6572(%rcx), %eax
	movl	%eax, -20(%rbp)
	movq	-8(%rbp), %rax
	movslq	6552(%rax), %rax
	movl	-80(%rbp,%rax,4), %eax
	movq	-8(%rbp), %rcx
	subl	6556(%rcx), %edx
	imull	%edx, %eax
	movq	-8(%rbp), %rcx
	imull	6576(%rcx), %eax
	movl	%eax, -24(%rbp)
	jmp	.LBB31_13
.LBB31_12:                              # %if.else79
	movl	$0, -24(%rbp)
	movl	$0, -20(%rbp)
	movl	$0, -12(%rbp)
	movl	$0, -16(%rbp)
.LBB31_13:                              # %if.end80
	jmp	.LBB31_14
.LBB31_14:                              # %if.end81
	movq	-8(%rbp), %rax
	movq	6424(%rax), %rdi
	movq	-40(%rbp), %rsi
	movq	-8(%rbp), %rax
	movl	6392(%rax), %edx
	movq	-8(%rbp), %rax
	movl	6396(%rax), %ecx
	movl	-28(%rbp), %r8d
	movl	-16(%rbp), %r9d
	movl	-12(%rbp), %eax
	movl	-20(%rbp), %r10d
	movl	-24(%rbp), %r11d
	movl	%eax, (%rsp)
	movl	%r10d, 8(%rsp)
	movl	%r11d, 16(%rsp)
	callq	img2buf
	movl	-44(%rbp), %edi
	movq	-40(%rbp), %rsi
	movq	-8(%rbp), %rax
	movl	6396(%rax), %eax
	subl	-24(%rbp), %eax
	subl	-20(%rbp), %eax
	movq	-8(%rbp), %rcx
	movl	6392(%rcx), %ecx
	subl	-12(%rbp), %ecx
	subl	-16(%rbp), %ecx
	imull	%ecx, %eax
	imull	-28(%rbp), %eax
	movslq	%eax, %rdx
	callq	write
	movq	-8(%rbp), %rax
	cmpl	$0, 6552(%rax)
	je	.LBB31_18
# %bb.15:                               # %if.then97
	movq	-8(%rbp), %rax
	movl	6564(%rax), %eax
	movl	%eax, -16(%rbp)
	movq	-8(%rbp), %rax
	movl	6568(%rax), %eax
	movl	%eax, -12(%rbp)
	movq	-8(%rbp), %rax
	movl	$2, %ecx
	movl	$2, %edx
	subl	6556(%rax), %edx
	movq	-8(%rbp), %rax
	imull	6572(%rax), %edx
	movl	%edx, -20(%rbp)
	movq	-8(%rbp), %rax
	subl	6556(%rax), %ecx
	movq	-8(%rbp), %rax
	imull	6576(%rax), %ecx
	movl	%ecx, -24(%rbp)
	movq	-8(%rbp), %rax
	movq	6464(%rax), %rax
	movq	(%rax), %rdi
	movq	-40(%rbp), %rsi
	movq	-8(%rbp), %rax
	movl	6400(%rax), %edx
	movq	-8(%rbp), %rax
	movl	6404(%rax), %ecx
	movl	-28(%rbp), %r8d
	movl	-16(%rbp), %r9d
	movl	-12(%rbp), %eax
	movl	-20(%rbp), %r10d
	movl	-24(%rbp), %r11d
	movl	%eax, (%rsp)
	movl	%r10d, 8(%rsp)
	movl	%r11d, 16(%rsp)
	callq	img2buf
	movl	-44(%rbp), %edi
	movq	-40(%rbp), %rsi
	movq	-8(%rbp), %rax
	movl	6404(%rax), %eax
	subl	-24(%rbp), %eax
	subl	-20(%rbp), %eax
	movq	-8(%rbp), %rcx
	movl	6400(%rcx), %ecx
	subl	-12(%rbp), %ecx
	subl	-16(%rbp), %ecx
	imull	%ecx, %eax
	imull	-28(%rbp), %eax
	movslq	%eax, %rdx
	callq	write
	cmpl	$0, -48(%rbp)
	jne	.LBB31_17
# %bb.16:                               # %if.then123
	movq	-8(%rbp), %rax
	movq	6464(%rax), %rax
	movq	8(%rax), %rdi
	movq	-40(%rbp), %rsi
	movq	-8(%rbp), %rax
	movl	6400(%rax), %edx
	movq	-8(%rbp), %rax
	movl	6404(%rax), %ecx
	movl	-28(%rbp), %r8d
	movl	-16(%rbp), %r9d
	movl	-12(%rbp), %eax
	movl	-20(%rbp), %r10d
	movl	-24(%rbp), %r11d
	movl	%eax, (%rsp)
	movl	%r10d, 8(%rsp)
	movl	%r11d, 16(%rsp)
	callq	img2buf
	movl	-44(%rbp), %edi
	movq	-40(%rbp), %rsi
	movq	-8(%rbp), %rax
	movl	6404(%rax), %eax
	subl	-24(%rbp), %eax
	subl	-20(%rbp), %eax
	movq	-8(%rbp), %rcx
	movl	6400(%rcx), %ecx
	subl	-12(%rbp), %ecx
	subl	-16(%rbp), %ecx
	imull	%ecx, %eax
	imull	-28(%rbp), %eax
	movslq	%eax, %rdx
	callq	write
.LBB31_17:                              # %if.end138
	jmp	.LBB31_18
.LBB31_18:                              # %if.end139
	movq	-40(%rbp), %rdi
	callq	free
.LBB31_19:                              # %return
	cmpl	$300785359, -52(%rbp)   # imm = 0x11ED9ECF
	jne	.LBB31_21
.LBB31_20:
	addq	$128, %rsp
	popq	%rbp
	.cfi_def_cfa %rsp, 8
	retq
.LBB31_21:                              # %func_exit
	.cfi_def_cfa %rbp, 16
	callq	detect_breach
	jmp	.LBB31_20
.Lfunc_end31:
	.size	write_out_picture.21, .Lfunc_end31-write_out_picture.21
	.cfi_endproc
                                        # -- End function
	.globl	write_picture.22        # -- Begin function write_picture.22
	.p2align	4, 0x90
	.type	write_picture.22,@function
write_picture.22:                       # @write_picture.22
	.cfi_startproc
# %bb.0:                                # %entry
	pushq	%rbp
	.cfi_def_cfa_offset 16
	.cfi_offset %rbp, -16
	movq	%rsp, %rbp
	.cfi_def_cfa_register %rbp
	subq	$32, %rsp
	movl	$929337001, -8(%rbp)    # imm = 0x37648EA9
	movq	%rdi, -16(%rbp)
	movl	%esi, -4(%rbp)
	movl	%edx, -20(%rbp)
	movq	-16(%rbp), %rdi
	movl	-4(%rbp), %esi
	callq	write_out_picture
	cmpl	$929337001, -8(%rbp)    # imm = 0x37648EA9
	jne	.LBB32_2
.LBB32_1:
	addq	$32, %rsp
	popq	%rbp
	.cfi_def_cfa %rsp, 8
	retq
.LBB32_2:                               # %func_exit
	.cfi_def_cfa %rbp, 16
	callq	detect_breach
	jmp	.LBB32_1
.Lfunc_end32:
	.size	write_picture.22, .Lfunc_end32-write_picture.22
	.cfi_endproc
                                        # -- End function
	.globl	write_out_picture.23    # -- Begin function write_out_picture.23
	.p2align	4, 0x90
	.type	write_out_picture.23,@function
write_out_picture.23:                   # @write_out_picture.23
	.cfi_startproc
# %bb.0:                                # %entry
	pushq	%rbp
	.cfi_def_cfa_offset 16
	.cfi_offset %rbp, -16
	movq	%rsp, %rbp
	.cfi_def_cfa_register %rbp
	subq	$128, %rsp
	xorl	%ecx, %ecx
	movl	$1494176622, -52(%rbp)  # imm = 0x590F536E
	movq	%rdi, -8(%rbp)
	movl	%esi, -44(%rbp)
	movq	.L__const.write_out_picture.SubWidthC, %rax
	movq	%rax, -96(%rbp)
	movq	.L__const.write_out_picture.SubWidthC+8, %rax
	movq	%rax, -88(%rbp)
	movq	.L__const.write_out_picture.SubHeightC, %rax
	movq	%rax, -80(%rbp)
	movq	.L__const.write_out_picture.SubHeightC+8, %rax
	movq	%rax, -72(%rbp)
	movq	img, %rax
	movl	72656(%rax), %eax
	cltd
	movl	$8, %esi
	idivl	%esi
	movl	%eax, -28(%rbp)
	movq	input, %rax
	cmpl	$0, 3312(%rax)
	je	.LBB33_2
# %bb.1:                                # %land.rhs
	movq	input, %rax
	cmpl	$3, 72(%rax)
	sete	%cl
.LBB33_2:                               # %land.end
	andb	$1, %cl
	movzbl	%cl, %eax
	movl	%eax, -48(%rbp)
	movq	-8(%rbp), %rax
	cmpl	$0, 6388(%rax)
	je	.LBB33_4
# %bb.3:                                # %if.then
	jmp	.LBB33_19
.LBB33_4:                               # %if.end
	movq	-8(%rbp), %rax
	cmpl	$0, 6560(%rax)
	je	.LBB33_6
# %bb.5:                                # %if.then3
	movq	-8(%rbp), %rax
	movslq	6552(%rax), %rax
	movl	-96(%rbp,%rax,4), %eax
	movq	-8(%rbp), %rcx
	imull	6564(%rcx), %eax
	movl	%eax, -24(%rbp)
	movq	-8(%rbp), %rax
	movslq	6552(%rax), %rax
	movl	-96(%rbp,%rax,4), %eax
	movq	-8(%rbp), %rcx
	imull	6568(%rcx), %eax
	movl	%eax, -16(%rbp)
	movq	-8(%rbp), %rax
	movslq	6552(%rax), %rax
	movl	-80(%rbp,%rax,4), %eax
	movq	-8(%rbp), %rcx
	movl	$2, %edx
	movl	$2, %esi
	subl	6556(%rcx), %esi
	imull	%esi, %eax
	movq	-8(%rbp), %rcx
	imull	6572(%rcx), %eax
	movl	%eax, -12(%rbp)
	movq	-8(%rbp), %rax
	movslq	6552(%rax), %rax
	movl	-80(%rbp,%rax,4), %eax
	movq	-8(%rbp), %rcx
	subl	6556(%rcx), %edx
	imull	%edx, %eax
	movq	-8(%rbp), %rcx
	imull	6576(%rcx), %eax
	movl	%eax, -20(%rbp)
	jmp	.LBB33_7
.LBB33_6:                               # %if.else
	movl	$0, -20(%rbp)
	movl	$0, -12(%rbp)
	movl	$0, -16(%rbp)
	movl	$0, -24(%rbp)
.LBB33_7:                               # %if.end20
	movq	-8(%rbp), %rax
	movl	6392(%rax), %eax
	movq	-8(%rbp), %rcx
	imull	6396(%rcx), %eax
	imull	-28(%rbp), %eax
	movslq	%eax, %rdi
	callq	malloc
	xorl	%ecx, %ecx
	movq	%rax, -40(%rbp)
	cmpq	%rax, %rcx
	jne	.LBB33_9
# %bb.8:                                # %if.then25
	movabsq	$.L.str.1, %rdi
	callq	no_mem_exit
.LBB33_9:                               # %if.end26
	cmpl	$0, -48(%rbp)
	je	.LBB33_14
# %bb.10:                               # %if.then28
	movq	-8(%rbp), %rax
	movl	6564(%rax), %eax
	movl	%eax, -24(%rbp)
	movq	-8(%rbp), %rax
	movl	6568(%rax), %eax
	movl	%eax, -16(%rbp)
	movq	-8(%rbp), %rax
	movl	$2, %ecx
	movl	$2, %edx
	subl	6556(%rax), %edx
	movq	-8(%rbp), %rax
	imull	6572(%rax), %edx
	movl	%edx, -12(%rbp)
	movq	-8(%rbp), %rax
	subl	6556(%rax), %ecx
	movq	-8(%rbp), %rax
	imull	6576(%rax), %ecx
	movl	%ecx, -20(%rbp)
	movq	-8(%rbp), %rax
	movq	6464(%rax), %rax
	movq	8(%rax), %rdi
	movq	-40(%rbp), %rsi
	movq	-8(%rbp), %rax
	movl	6400(%rax), %edx
	movq	-8(%rbp), %rax
	movl	6404(%rax), %ecx
	movl	-28(%rbp), %r8d
	movl	-24(%rbp), %r9d
	movl	-16(%rbp), %eax
	movl	-12(%rbp), %r10d
	movl	-20(%rbp), %r11d
	movl	%eax, (%rsp)
	movl	%r10d, 8(%rsp)
	movl	%r11d, 16(%rsp)
	callq	img2buf
	movl	-44(%rbp), %edi
	movq	-40(%rbp), %rsi
	movq	-8(%rbp), %rax
	movl	6404(%rax), %eax
	subl	-20(%rbp), %eax
	subl	-12(%rbp), %eax
	movq	-8(%rbp), %rcx
	movl	6400(%rcx), %ecx
	subl	-16(%rbp), %ecx
	subl	-24(%rbp), %ecx
	imull	%ecx, %eax
	imull	-28(%rbp), %eax
	movslq	%eax, %rdx
	callq	write
	movq	active_sps, %rax
	cmpl	$0, 1160(%rax)
	je	.LBB33_12
# %bb.11:                               # %if.then52
	movq	-8(%rbp), %rax
	movslq	6552(%rax), %rax
	movl	-96(%rbp,%rax,4), %eax
	movq	-8(%rbp), %rcx
	imull	6564(%rcx), %eax
	movl	%eax, -24(%rbp)
	movq	-8(%rbp), %rax
	movslq	6552(%rax), %rax
	movl	-96(%rbp,%rax,4), %eax
	movq	-8(%rbp), %rcx
	imull	6568(%rcx), %eax
	movl	%eax, -16(%rbp)
	movq	-8(%rbp), %rax
	movslq	6552(%rax), %rax
	movl	-80(%rbp,%rax,4), %eax
	movq	-8(%rbp), %rcx
	movl	$2, %edx
	movl	$2, %esi
	subl	6556(%rcx), %esi
	imull	%esi, %eax
	movq	-8(%rbp), %rcx
	imull	6572(%rcx), %eax
	movl	%eax, -12(%rbp)
	movq	-8(%rbp), %rax
	movslq	6552(%rax), %rax
	movl	-80(%rbp,%rax,4), %eax
	movq	-8(%rbp), %rcx
	subl	6556(%rcx), %edx
	imull	%edx, %eax
	movq	-8(%rbp), %rcx
	imull	6576(%rcx), %eax
	movl	%eax, -20(%rbp)
	jmp	.LBB33_13
.LBB33_12:                              # %if.else79
	movl	$0, -20(%rbp)
	movl	$0, -12(%rbp)
	movl	$0, -16(%rbp)
	movl	$0, -24(%rbp)
.LBB33_13:                              # %if.end80
	jmp	.LBB33_14
.LBB33_14:                              # %if.end81
	movq	-8(%rbp), %rax
	movq	6424(%rax), %rdi
	movq	-40(%rbp), %rsi
	movq	-8(%rbp), %rax
	movl	6392(%rax), %edx
	movq	-8(%rbp), %rax
	movl	6396(%rax), %ecx
	movl	-28(%rbp), %r8d
	movl	-24(%rbp), %r9d
	movl	-16(%rbp), %eax
	movl	-12(%rbp), %r10d
	movl	-20(%rbp), %r11d
	movl	%eax, (%rsp)
	movl	%r10d, 8(%rsp)
	movl	%r11d, 16(%rsp)
	callq	img2buf
	movl	-44(%rbp), %edi
	movq	-40(%rbp), %rsi
	movq	-8(%rbp), %rax
	movl	6396(%rax), %eax
	subl	-20(%rbp), %eax
	subl	-12(%rbp), %eax
	movq	-8(%rbp), %rcx
	movl	6392(%rcx), %ecx
	subl	-16(%rbp), %ecx
	subl	-24(%rbp), %ecx
	imull	%ecx, %eax
	imull	-28(%rbp), %eax
	movslq	%eax, %rdx
	callq	write
	movq	-8(%rbp), %rax
	cmpl	$0, 6552(%rax)
	je	.LBB33_18
# %bb.15:                               # %if.then97
	movq	-8(%rbp), %rax
	movl	6564(%rax), %eax
	movl	%eax, -24(%rbp)
	movq	-8(%rbp), %rax
	movl	6568(%rax), %eax
	movl	%eax, -16(%rbp)
	movq	-8(%rbp), %rax
	movl	$2, %ecx
	movl	$2, %edx
	subl	6556(%rax), %edx
	movq	-8(%rbp), %rax
	imull	6572(%rax), %edx
	movl	%edx, -12(%rbp)
	movq	-8(%rbp), %rax
	subl	6556(%rax), %ecx
	movq	-8(%rbp), %rax
	imull	6576(%rax), %ecx
	movl	%ecx, -20(%rbp)
	movq	-8(%rbp), %rax
	movq	6464(%rax), %rax
	movq	(%rax), %rdi
	movq	-40(%rbp), %rsi
	movq	-8(%rbp), %rax
	movl	6400(%rax), %edx
	movq	-8(%rbp), %rax
	movl	6404(%rax), %ecx
	movl	-28(%rbp), %r8d
	movl	-24(%rbp), %r9d
	movl	-16(%rbp), %eax
	movl	-12(%rbp), %r10d
	movl	-20(%rbp), %r11d
	movl	%eax, (%rsp)
	movl	%r10d, 8(%rsp)
	movl	%r11d, 16(%rsp)
	callq	img2buf
	movl	-44(%rbp), %edi
	movq	-40(%rbp), %rsi
	movq	-8(%rbp), %rax
	movl	6404(%rax), %eax
	subl	-20(%rbp), %eax
	subl	-12(%rbp), %eax
	movq	-8(%rbp), %rcx
	movl	6400(%rcx), %ecx
	subl	-16(%rbp), %ecx
	subl	-24(%rbp), %ecx
	imull	%ecx, %eax
	imull	-28(%rbp), %eax
	movslq	%eax, %rdx
	callq	write
	cmpl	$0, -48(%rbp)
	jne	.LBB33_17
# %bb.16:                               # %if.then123
	movq	-8(%rbp), %rax
	movq	6464(%rax), %rax
	movq	8(%rax), %rdi
	movq	-40(%rbp), %rsi
	movq	-8(%rbp), %rax
	movl	6400(%rax), %edx
	movq	-8(%rbp), %rax
	movl	6404(%rax), %ecx
	movl	-28(%rbp), %r8d
	movl	-24(%rbp), %r9d
	movl	-16(%rbp), %eax
	movl	-12(%rbp), %r10d
	movl	-20(%rbp), %r11d
	movl	%eax, (%rsp)
	movl	%r10d, 8(%rsp)
	movl	%r11d, 16(%rsp)
	callq	img2buf
	movl	-44(%rbp), %edi
	movq	-40(%rbp), %rsi
	movq	-8(%rbp), %rax
	movl	6404(%rax), %eax
	subl	-20(%rbp), %eax
	subl	-12(%rbp), %eax
	movq	-8(%rbp), %rcx
	movl	6400(%rcx), %ecx
	subl	-16(%rbp), %ecx
	subl	-24(%rbp), %ecx
	imull	%ecx, %eax
	imull	-28(%rbp), %eax
	movslq	%eax, %rdx
	callq	write
.LBB33_17:                              # %if.end138
	jmp	.LBB33_18
.LBB33_18:                              # %if.end139
	movq	-40(%rbp), %rdi
	callq	free
.LBB33_19:                              # %return
	cmpl	$1494176622, -52(%rbp)  # imm = 0x590F536E
	jne	.LBB33_21
.LBB33_20:
	addq	$128, %rsp
	popq	%rbp
	.cfi_def_cfa %rsp, 8
	retq
.LBB33_21:                              # %func_exit
	.cfi_def_cfa %rbp, 16
	callq	detect_breach
	jmp	.LBB33_20
.Lfunc_end33:
	.size	write_out_picture.23, .Lfunc_end33-write_out_picture.23
	.cfi_endproc
                                        # -- End function
	.globl	img2buf.24              # -- Begin function img2buf.24
	.p2align	4, 0x90
	.type	img2buf.24,@function
img2buf.24:                             # @img2buf.24
	.cfi_startproc
# %bb.0:                                # %entry
	pushq	%rbp
	.cfi_def_cfa_offset 16
	.cfi_offset %rbp, -16
	movq	%rsp, %rbp
	.cfi_def_cfa_register %rbp
	subq	$96, %rsp
	movl	32(%rbp), %eax
	movl	24(%rbp), %eax
	movl	16(%rbp), %eax
	movl	$889281087, -76(%rbp)   # imm = 0x35015A3F
	movq	%rdi, -64(%rbp)
	movq	%rsi, -56(%rbp)
	movl	%edx, -28(%rbp)
	movl	%ecx, -32(%rbp)
	movl	%r8d, -24(%rbp)
	movl	%r9d, -12(%rbp)
	movl	-28(%rbp), %eax
	subl	-12(%rbp), %eax
	subl	16(%rbp), %eax
	movl	%eax, -20(%rbp)
	movl	-32(%rbp), %eax
	subl	24(%rbp), %eax
	subl	32(%rbp), %eax
	movl	%eax, -80(%rbp)
	movl	$0, -40(%rbp)
	callq	testEndian
	cmpl	$0, %eax
	je	.LBB34_33
# %bb.1:                                # %if.then
	movl	-24(%rbp), %eax
	movl	%eax, %ecx
	subl	$1, %ecx
	je	.LBB34_4
	jmp	.LBB34_2
.LBB34_2:                               # %if.then
	movl	%eax, %ecx
	subl	$2, %ecx
	je	.LBB34_13
	jmp	.LBB34_3
.LBB34_3:                               # %if.then
	subl	$4, %eax
	je	.LBB34_22
	jmp	.LBB34_31
.LBB34_4:                               # %sw.bb
	movl	24(%rbp), %eax
	movl	%eax, -8(%rbp)
.LBB34_5:                               # %for.cond
                                        # =>This Loop Header: Depth=1
                                        #     Child Loop BB34_7 Depth 2
	movl	-8(%rbp), %eax
	movl	-32(%rbp), %ecx
	subl	32(%rbp), %ecx
	cmpl	%ecx, %eax
	jge	.LBB34_12
# %bb.6:                                # %for.body
                                        #   in Loop: Header=BB34_5 Depth=1
	movl	-12(%rbp), %eax
	movl	%eax, -4(%rbp)
.LBB34_7:                               # %for.cond5
                                        #   Parent Loop BB34_5 Depth=1
                                        # =>  This Inner Loop Header: Depth=2
	movl	-4(%rbp), %eax
	movl	-28(%rbp), %ecx
	subl	16(%rbp), %ecx
	cmpl	%ecx, %eax
	jge	.LBB34_10
# %bb.8:                                # %for.body8
                                        #   in Loop: Header=BB34_7 Depth=2
	movq	-64(%rbp), %rax
	movslq	-8(%rbp), %rcx
	movq	(%rax,%rcx,8), %rax
	movslq	-4(%rbp), %rcx
	movw	(%rax,%rcx,2), %ax
	movb	%al, -13(%rbp)
	movb	-13(%rbp), %al
	movq	-56(%rbp), %rcx
	movl	-4(%rbp), %edx
	subl	-12(%rbp), %edx
	movl	-8(%rbp), %esi
	subl	24(%rbp), %esi
	imull	-20(%rbp), %esi
	addl	%esi, %edx
	movslq	%edx, %rdx
	movb	%al, (%rcx,%rdx)
# %bb.9:                                # %for.inc
                                        #   in Loop: Header=BB34_7 Depth=2
	movl	-4(%rbp), %eax
	addl	$1, %eax
	movl	%eax, -4(%rbp)
	jmp	.LBB34_7
.LBB34_10:                              # %for.end
                                        #   in Loop: Header=BB34_5 Depth=1
	jmp	.LBB34_11
.LBB34_11:                              # %for.inc15
                                        #   in Loop: Header=BB34_5 Depth=1
	movl	-8(%rbp), %eax
	addl	$1, %eax
	movl	%eax, -8(%rbp)
	jmp	.LBB34_5
.LBB34_12:                              # %for.end17
	jmp	.LBB34_32
.LBB34_13:                              # %sw.bb18
	movl	24(%rbp), %eax
	movl	%eax, -8(%rbp)
.LBB34_14:                              # %for.cond19
                                        # =>This Loop Header: Depth=1
                                        #     Child Loop BB34_16 Depth 2
	movl	-8(%rbp), %eax
	movl	-32(%rbp), %ecx
	subl	32(%rbp), %ecx
	cmpl	%ecx, %eax
	jge	.LBB34_21
# %bb.15:                               # %for.body23
                                        #   in Loop: Header=BB34_14 Depth=1
	movl	-12(%rbp), %eax
	movl	%eax, -4(%rbp)
.LBB34_16:                              # %for.cond24
                                        #   Parent Loop BB34_14 Depth=1
                                        # =>  This Inner Loop Header: Depth=2
	movl	-4(%rbp), %eax
	movl	-28(%rbp), %ecx
	subl	16(%rbp), %ecx
	cmpl	%ecx, %eax
	jge	.LBB34_19
# %bb.17:                               # %for.body28
                                        #   in Loop: Header=BB34_16 Depth=2
	movq	-64(%rbp), %rax
	movslq	-8(%rbp), %rcx
	movq	(%rax,%rcx,8), %rax
	movslq	-4(%rbp), %rcx
	movw	(%rax,%rcx,2), %ax
	movw	%ax, -34(%rbp)
	movzwl	-34(%rbp), %eax
	sarl	$8, %eax
	movzwl	-34(%rbp), %ecx
	andl	$255, %ecx
	shll	$8, %ecx
	orl	%ecx, %eax
	movw	%ax, -42(%rbp)
	movq	-56(%rbp), %rax
	movl	-4(%rbp), %ecx
	subl	-12(%rbp), %ecx
	movl	-8(%rbp), %edx
	subl	24(%rbp), %edx
	imull	-20(%rbp), %edx
	addl	%edx, %ecx
	shll	$1, %ecx
	movslq	%ecx, %rcx
	movw	-42(%rbp), %dx
	movw	%dx, (%rax,%rcx)
# %bb.18:                               # %for.inc41
                                        #   in Loop: Header=BB34_16 Depth=2
	movl	-4(%rbp), %eax
	addl	$1, %eax
	movl	%eax, -4(%rbp)
	jmp	.LBB34_16
.LBB34_19:                              # %for.end43
                                        #   in Loop: Header=BB34_14 Depth=1
	jmp	.LBB34_20
.LBB34_20:                              # %for.inc44
                                        #   in Loop: Header=BB34_14 Depth=1
	movl	-8(%rbp), %eax
	addl	$1, %eax
	movl	%eax, -8(%rbp)
	jmp	.LBB34_14
.LBB34_21:                              # %for.end46
	jmp	.LBB34_32
.LBB34_22:                              # %sw.bb47
	movl	24(%rbp), %eax
	movl	%eax, -8(%rbp)
.LBB34_23:                              # %for.cond48
                                        # =>This Loop Header: Depth=1
                                        #     Child Loop BB34_25 Depth 2
	movl	-8(%rbp), %eax
	movl	-32(%rbp), %ecx
	subl	32(%rbp), %ecx
	cmpl	%ecx, %eax
	jge	.LBB34_30
# %bb.24:                               # %for.body52
                                        #   in Loop: Header=BB34_23 Depth=1
	movl	-12(%rbp), %eax
	movl	%eax, -4(%rbp)
.LBB34_25:                              # %for.cond53
                                        #   Parent Loop BB34_23 Depth=1
                                        # =>  This Inner Loop Header: Depth=2
	movl	-4(%rbp), %eax
	movl	-28(%rbp), %ecx
	subl	16(%rbp), %ecx
	cmpl	%ecx, %eax
	jge	.LBB34_28
# %bb.26:                               # %for.body57
                                        #   in Loop: Header=BB34_25 Depth=2
	movq	-64(%rbp), %rax
	movslq	-8(%rbp), %rcx
	movq	(%rax,%rcx,8), %rax
	movslq	-4(%rbp), %rcx
	movzwl	(%rax,%rcx,2), %eax
	movq	%rax, -72(%rbp)
	movq	-72(%rbp), %rax
	andq	$65280, %rax            # imm = 0xFF00
	shlq	$8, %rax
	movq	-72(%rbp), %rcx
	andq	$255, %rcx
	shlq	$24, %rcx
	orq	%rcx, %rax
	movq	-72(%rbp), %rcx
	andq	$16711680, %rcx         # imm = 0xFF0000
	shrq	$8, %rcx
	orq	%rcx, %rax
	movl	$4278190080, %ecx       # imm = 0xFF000000
	andq	-72(%rbp), %rcx
	shrq	$24, %rcx
	orq	%rcx, %rax
	movq	%rax, -88(%rbp)
	movq	-56(%rbp), %rax
	movl	-4(%rbp), %ecx
	subl	-12(%rbp), %ecx
	movl	-8(%rbp), %edx
	subl	24(%rbp), %edx
	imull	-20(%rbp), %edx
	addl	%edx, %ecx
	shll	$2, %ecx
	movslq	%ecx, %rcx
	movl	-88(%rbp), %edx
	movl	%edx, (%rax,%rcx)
# %bb.27:                               # %for.inc81
                                        #   in Loop: Header=BB34_25 Depth=2
	movl	-4(%rbp), %eax
	addl	$1, %eax
	movl	%eax, -4(%rbp)
	jmp	.LBB34_25
.LBB34_28:                              # %for.end83
                                        #   in Loop: Header=BB34_23 Depth=1
	jmp	.LBB34_29
.LBB34_29:                              # %for.inc84
                                        #   in Loop: Header=BB34_23 Depth=1
	movl	-8(%rbp), %eax
	addl	$1, %eax
	movl	%eax, -8(%rbp)
	jmp	.LBB34_23
.LBB34_30:                              # %for.end86
	jmp	.LBB34_32
.LBB34_31:                              # %sw.default
	movabsq	$.L.str, %rdi
	movl	$500, %esi              # imm = 0x1F4
	callq	error
.LBB34_32:                              # %sw.epilog
	jmp	.LBB34_45
.LBB34_33:                              # %if.else
	movslq	-24(%rbp), %rax
	movl	$2, %ecx
	cmpq	%rax, %rcx
	jae	.LBB34_35
# %bb.34:                               # %if.then90
	movl	$2, -40(%rbp)
	movq	-56(%rbp), %rdi
	movl	-20(%rbp), %eax
	imull	-80(%rbp), %eax
	imull	-24(%rbp), %eax
	movslq	%eax, %rdx
	xorl	%esi, %esi
	callq	memset
	jmp	.LBB34_36
.LBB34_35:                              # %if.else94
	movl	-24(%rbp), %eax
	movl	%eax, -40(%rbp)
.LBB34_36:                              # %if.end
	movl	24(%rbp), %eax
	movl	%eax, -8(%rbp)
.LBB34_37:                              # %for.cond95
                                        # =>This Loop Header: Depth=1
                                        #     Child Loop BB34_39 Depth 2
	movl	-8(%rbp), %eax
	movl	-32(%rbp), %ecx
	subl	32(%rbp), %ecx
	cmpl	%ecx, %eax
	jge	.LBB34_44
# %bb.38:                               # %for.body99
                                        #   in Loop: Header=BB34_37 Depth=1
	movl	-12(%rbp), %eax
	movl	%eax, -4(%rbp)
.LBB34_39:                              # %for.cond100
                                        #   Parent Loop BB34_37 Depth=1
                                        # =>  This Inner Loop Header: Depth=2
	movl	-4(%rbp), %eax
	movl	-28(%rbp), %ecx
	subl	16(%rbp), %ecx
	cmpl	%ecx, %eax
	jge	.LBB34_42
# %bb.40:                               # %for.body104
                                        #   in Loop: Header=BB34_39 Depth=2
	movq	-56(%rbp), %rdi
	movl	-4(%rbp), %eax
	subl	-12(%rbp), %eax
	movl	-8(%rbp), %ecx
	subl	24(%rbp), %ecx
	imull	-20(%rbp), %ecx
	addl	%ecx, %eax
	imull	-24(%rbp), %eax
	cltq
	addq	%rax, %rdi
	movq	-64(%rbp), %rax
	movslq	-8(%rbp), %rcx
	movq	(%rax,%rcx,8), %rsi
	movslq	-4(%rbp), %rax
	shlq	$1, %rax
	addq	%rax, %rsi
	movslq	-40(%rbp), %rdx
	callq	memcpy
# %bb.41:                               # %for.inc117
                                        #   in Loop: Header=BB34_39 Depth=2
	movl	-4(%rbp), %eax
	addl	$1, %eax
	movl	%eax, -4(%rbp)
	jmp	.LBB34_39
.LBB34_42:                              # %for.end119
                                        #   in Loop: Header=BB34_37 Depth=1
	jmp	.LBB34_43
.LBB34_43:                              # %for.inc120
                                        #   in Loop: Header=BB34_37 Depth=1
	movl	-8(%rbp), %eax
	addl	$1, %eax
	movl	%eax, -8(%rbp)
	jmp	.LBB34_37
.LBB34_44:                              # %for.end122
	jmp	.LBB34_45
.LBB34_45:                              # %if.end123
	cmpl	$889281087, -76(%rbp)   # imm = 0x35015A3F
	jne	.LBB34_47
.LBB34_46:
	addq	$96, %rsp
	popq	%rbp
	.cfi_def_cfa %rsp, 8
	retq
.LBB34_47:                              # %func_exit
	.cfi_def_cfa %rbp, 16
	callq	detect_breach
	jmp	.LBB34_46
.Lfunc_end34:
	.size	img2buf.24, .Lfunc_end34-img2buf.24
	.cfi_endproc
                                        # -- End function
	.globl	direct_output.25        # -- Begin function direct_output.25
	.p2align	4, 0x90
	.type	direct_output.25,@function
direct_output.25:                       # @direct_output.25
	.cfi_startproc
# %bb.0:                                # %entry
	pushq	%rbp
	.cfi_def_cfa_offset 16
	.cfi_offset %rbp, -16
	movq	%rsp, %rbp
	.cfi_def_cfa_register %rbp
	subq	$32, %rsp
	movl	$887860449, -20(%rbp)   # imm = 0x34EBACE1
	movq	%rdi, -16(%rbp)
	movl	%esi, -4(%rbp)
	movq	-16(%rbp), %rax
	cmpl	$0, (%rax)
	jne	.LBB35_2
# %bb.1:                                # %if.then
	movl	-4(%rbp), %edi
	callq	flush_direct_output
	movq	-16(%rbp), %rdi
	movl	-4(%rbp), %esi
	xorl	%edx, %edx
	callq	write_picture
	movq	-16(%rbp), %rdi
	callq	free_storable_picture
	jmp	.LBB35_12
.LBB35_2:                               # %if.end
	movq	-16(%rbp), %rax
	cmpl	$1, (%rax)
	jne	.LBB35_6
# %bb.3:                                # %if.then3
	movq	out_buffer, %rax
	movl	(%rax), %eax
	andl	$1, %eax
	cmpl	$0, %eax
	je	.LBB35_5
# %bb.4:                                # %if.then4
	movl	-4(%rbp), %edi
	callq	flush_direct_output
.LBB35_5:                               # %if.end5
	movq	-16(%rbp), %rax
	movq	out_buffer, %rcx
	movq	%rax, 48(%rcx)
	movq	out_buffer, %rax
	movl	(%rax), %ecx
	orl	$1, %ecx
	movl	%ecx, (%rax)
.LBB35_6:                               # %if.end7
	movq	-16(%rbp), %rax
	cmpl	$2, (%rax)
	jne	.LBB35_10
# %bb.7:                                # %if.then10
	movq	out_buffer, %rax
	movl	(%rax), %eax
	andl	$2, %eax
	cmpl	$0, %eax
	je	.LBB35_9
# %bb.8:                                # %if.then14
	movl	-4(%rbp), %edi
	callq	flush_direct_output
.LBB35_9:                               # %if.end15
	movq	-16(%rbp), %rax
	movq	out_buffer, %rcx
	movq	%rax, 56(%rcx)
	movq	out_buffer, %rax
	movl	(%rax), %ecx
	orl	$2, %ecx
	movl	%ecx, (%rax)
.LBB35_10:                              # %if.end18
	movq	out_buffer, %rax
	cmpl	$3, (%rax)
	jne	.LBB35_12
# %bb.11:                               # %if.then21
	movq	out_buffer, %rdi
	callq	dpb_combine_field
	movq	out_buffer, %rax
	movq	40(%rax), %rdi
	movl	-4(%rbp), %esi
	xorl	%edx, %edx
	callq	write_picture
	movq	out_buffer, %rax
	movq	40(%rax), %rdi
	callq	free_storable_picture
	movq	out_buffer, %rax
	movq	$0, 40(%rax)
	movq	out_buffer, %rax
	movq	48(%rax), %rdi
	callq	free_storable_picture
	movq	out_buffer, %rax
	movq	$0, 48(%rax)
	movq	out_buffer, %rax
	movq	56(%rax), %rdi
	callq	free_storable_picture
	movq	out_buffer, %rax
	movq	$0, 56(%rax)
	movq	out_buffer, %rax
	movl	$0, (%rax)
.LBB35_12:                              # %if.end29
	cmpl	$887860449, -20(%rbp)   # imm = 0x34EBACE1
	jne	.LBB35_14
.LBB35_13:
	addq	$32, %rsp
	popq	%rbp
	.cfi_def_cfa %rsp, 8
	retq
.LBB35_14:                              # %func_exit
	.cfi_def_cfa %rbp, 16
	callq	detect_breach
	jmp	.LBB35_13
.Lfunc_end35:
	.size	direct_output.25, .Lfunc_end35-direct_output.25
	.cfi_endproc
                                        # -- End function
	.globl	write_out_picture.26    # -- Begin function write_out_picture.26
	.p2align	4, 0x90
	.type	write_out_picture.26,@function
write_out_picture.26:                   # @write_out_picture.26
	.cfi_startproc
# %bb.0:                                # %entry
	pushq	%rbp
	.cfi_def_cfa_offset 16
	.cfi_offset %rbp, -16
	movq	%rsp, %rbp
	.cfi_def_cfa_register %rbp
	subq	$128, %rsp
	xorl	%ecx, %ecx
	movl	$1414140487, -52(%rbp)  # imm = 0x544A1247
	movq	%rdi, -8(%rbp)
	movl	%esi, -44(%rbp)
	movq	.L__const.write_out_picture.SubWidthC, %rax
	movq	%rax, -96(%rbp)
	movq	.L__const.write_out_picture.SubWidthC+8, %rax
	movq	%rax, -88(%rbp)
	movq	.L__const.write_out_picture.SubHeightC, %rax
	movq	%rax, -80(%rbp)
	movq	.L__const.write_out_picture.SubHeightC+8, %rax
	movq	%rax, -72(%rbp)
	movq	img, %rax
	movl	72656(%rax), %eax
	cltd
	movl	$8, %esi
	idivl	%esi
	movl	%eax, -28(%rbp)
	movq	input, %rax
	cmpl	$0, 3312(%rax)
	je	.LBB36_2
# %bb.1:                                # %land.rhs
	movq	input, %rax
	cmpl	$3, 72(%rax)
	sete	%cl
.LBB36_2:                               # %land.end
	andb	$1, %cl
	movzbl	%cl, %eax
	movl	%eax, -48(%rbp)
	movq	-8(%rbp), %rax
	cmpl	$0, 6388(%rax)
	je	.LBB36_4
# %bb.3:                                # %if.then
	jmp	.LBB36_19
.LBB36_4:                               # %if.end
	movq	-8(%rbp), %rax
	cmpl	$0, 6560(%rax)
	je	.LBB36_6
# %bb.5:                                # %if.then3
	movq	-8(%rbp), %rax
	movslq	6552(%rax), %rax
	movl	-96(%rbp,%rax,4), %eax
	movq	-8(%rbp), %rcx
	imull	6564(%rcx), %eax
	movl	%eax, -20(%rbp)
	movq	-8(%rbp), %rax
	movslq	6552(%rax), %rax
	movl	-96(%rbp,%rax,4), %eax
	movq	-8(%rbp), %rcx
	imull	6568(%rcx), %eax
	movl	%eax, -24(%rbp)
	movq	-8(%rbp), %rax
	movslq	6552(%rax), %rax
	movl	-80(%rbp,%rax,4), %eax
	movq	-8(%rbp), %rcx
	movl	$2, %edx
	movl	$2, %esi
	subl	6556(%rcx), %esi
	imull	%esi, %eax
	movq	-8(%rbp), %rcx
	imull	6572(%rcx), %eax
	movl	%eax, -12(%rbp)
	movq	-8(%rbp), %rax
	movslq	6552(%rax), %rax
	movl	-80(%rbp,%rax,4), %eax
	movq	-8(%rbp), %rcx
	subl	6556(%rcx), %edx
	imull	%edx, %eax
	movq	-8(%rbp), %rcx
	imull	6576(%rcx), %eax
	movl	%eax, -16(%rbp)
	jmp	.LBB36_7
.LBB36_6:                               # %if.else
	movl	$0, -16(%rbp)
	movl	$0, -12(%rbp)
	movl	$0, -24(%rbp)
	movl	$0, -20(%rbp)
.LBB36_7:                               # %if.end20
	movq	-8(%rbp), %rax
	movl	6392(%rax), %eax
	movq	-8(%rbp), %rcx
	imull	6396(%rcx), %eax
	imull	-28(%rbp), %eax
	movslq	%eax, %rdi
	callq	malloc
	xorl	%ecx, %ecx
	movq	%rax, -40(%rbp)
	cmpq	%rax, %rcx
	jne	.LBB36_9
# %bb.8:                                # %if.then25
	movabsq	$.L.str.1, %rdi
	callq	no_mem_exit
.LBB36_9:                               # %if.end26
	cmpl	$0, -48(%rbp)
	je	.LBB36_14
# %bb.10:                               # %if.then28
	movq	-8(%rbp), %rax
	movl	6564(%rax), %eax
	movl	%eax, -20(%rbp)
	movq	-8(%rbp), %rax
	movl	6568(%rax), %eax
	movl	%eax, -24(%rbp)
	movq	-8(%rbp), %rax
	movl	$2, %ecx
	movl	$2, %edx
	subl	6556(%rax), %edx
	movq	-8(%rbp), %rax
	imull	6572(%rax), %edx
	movl	%edx, -12(%rbp)
	movq	-8(%rbp), %rax
	subl	6556(%rax), %ecx
	movq	-8(%rbp), %rax
	imull	6576(%rax), %ecx
	movl	%ecx, -16(%rbp)
	movq	-8(%rbp), %rax
	movq	6464(%rax), %rax
	movq	8(%rax), %rdi
	movq	-40(%rbp), %rsi
	movq	-8(%rbp), %rax
	movl	6400(%rax), %edx
	movq	-8(%rbp), %rax
	movl	6404(%rax), %ecx
	movl	-28(%rbp), %r8d
	movl	-20(%rbp), %r9d
	movl	-24(%rbp), %eax
	movl	-12(%rbp), %r10d
	movl	-16(%rbp), %r11d
	movl	%eax, (%rsp)
	movl	%r10d, 8(%rsp)
	movl	%r11d, 16(%rsp)
	callq	img2buf
	movl	-44(%rbp), %edi
	movq	-40(%rbp), %rsi
	movq	-8(%rbp), %rax
	movl	6404(%rax), %eax
	subl	-16(%rbp), %eax
	subl	-12(%rbp), %eax
	movq	-8(%rbp), %rcx
	movl	6400(%rcx), %ecx
	subl	-24(%rbp), %ecx
	subl	-20(%rbp), %ecx
	imull	%ecx, %eax
	imull	-28(%rbp), %eax
	movslq	%eax, %rdx
	callq	write
	movq	active_sps, %rax
	cmpl	$0, 1160(%rax)
	je	.LBB36_12
# %bb.11:                               # %if.then52
	movq	-8(%rbp), %rax
	movslq	6552(%rax), %rax
	movl	-96(%rbp,%rax,4), %eax
	movq	-8(%rbp), %rcx
	imull	6564(%rcx), %eax
	movl	%eax, -20(%rbp)
	movq	-8(%rbp), %rax
	movslq	6552(%rax), %rax
	movl	-96(%rbp,%rax,4), %eax
	movq	-8(%rbp), %rcx
	imull	6568(%rcx), %eax
	movl	%eax, -24(%rbp)
	movq	-8(%rbp), %rax
	movslq	6552(%rax), %rax
	movl	-80(%rbp,%rax,4), %eax
	movq	-8(%rbp), %rcx
	movl	$2, %edx
	movl	$2, %esi
	subl	6556(%rcx), %esi
	imull	%esi, %eax
	movq	-8(%rbp), %rcx
	imull	6572(%rcx), %eax
	movl	%eax, -12(%rbp)
	movq	-8(%rbp), %rax
	movslq	6552(%rax), %rax
	movl	-80(%rbp,%rax,4), %eax
	movq	-8(%rbp), %rcx
	subl	6556(%rcx), %edx
	imull	%edx, %eax
	movq	-8(%rbp), %rcx
	imull	6576(%rcx), %eax
	movl	%eax, -16(%rbp)
	jmp	.LBB36_13
.LBB36_12:                              # %if.else79
	movl	$0, -16(%rbp)
	movl	$0, -12(%rbp)
	movl	$0, -24(%rbp)
	movl	$0, -20(%rbp)
.LBB36_13:                              # %if.end80
	jmp	.LBB36_14
.LBB36_14:                              # %if.end81
	movq	-8(%rbp), %rax
	movq	6424(%rax), %rdi
	movq	-40(%rbp), %rsi
	movq	-8(%rbp), %rax
	movl	6392(%rax), %edx
	movq	-8(%rbp), %rax
	movl	6396(%rax), %ecx
	movl	-28(%rbp), %r8d
	movl	-20(%rbp), %r9d
	movl	-24(%rbp), %eax
	movl	-12(%rbp), %r10d
	movl	-16(%rbp), %r11d
	movl	%eax, (%rsp)
	movl	%r10d, 8(%rsp)
	movl	%r11d, 16(%rsp)
	callq	img2buf
	movl	-44(%rbp), %edi
	movq	-40(%rbp), %rsi
	movq	-8(%rbp), %rax
	movl	6396(%rax), %eax
	subl	-16(%rbp), %eax
	subl	-12(%rbp), %eax
	movq	-8(%rbp), %rcx
	movl	6392(%rcx), %ecx
	subl	-24(%rbp), %ecx
	subl	-20(%rbp), %ecx
	imull	%ecx, %eax
	imull	-28(%rbp), %eax
	movslq	%eax, %rdx
	callq	write
	movq	-8(%rbp), %rax
	cmpl	$0, 6552(%rax)
	je	.LBB36_18
# %bb.15:                               # %if.then97
	movq	-8(%rbp), %rax
	movl	6564(%rax), %eax
	movl	%eax, -20(%rbp)
	movq	-8(%rbp), %rax
	movl	6568(%rax), %eax
	movl	%eax, -24(%rbp)
	movq	-8(%rbp), %rax
	movl	$2, %ecx
	movl	$2, %edx
	subl	6556(%rax), %edx
	movq	-8(%rbp), %rax
	imull	6572(%rax), %edx
	movl	%edx, -12(%rbp)
	movq	-8(%rbp), %rax
	subl	6556(%rax), %ecx
	movq	-8(%rbp), %rax
	imull	6576(%rax), %ecx
	movl	%ecx, -16(%rbp)
	movq	-8(%rbp), %rax
	movq	6464(%rax), %rax
	movq	(%rax), %rdi
	movq	-40(%rbp), %rsi
	movq	-8(%rbp), %rax
	movl	6400(%rax), %edx
	movq	-8(%rbp), %rax
	movl	6404(%rax), %ecx
	movl	-28(%rbp), %r8d
	movl	-20(%rbp), %r9d
	movl	-24(%rbp), %eax
	movl	-12(%rbp), %r10d
	movl	-16(%rbp), %r11d
	movl	%eax, (%rsp)
	movl	%r10d, 8(%rsp)
	movl	%r11d, 16(%rsp)
	callq	img2buf
	movl	-44(%rbp), %edi
	movq	-40(%rbp), %rsi
	movq	-8(%rbp), %rax
	movl	6404(%rax), %eax
	subl	-16(%rbp), %eax
	subl	-12(%rbp), %eax
	movq	-8(%rbp), %rcx
	movl	6400(%rcx), %ecx
	subl	-24(%rbp), %ecx
	subl	-20(%rbp), %ecx
	imull	%ecx, %eax
	imull	-28(%rbp), %eax
	movslq	%eax, %rdx
	callq	write
	cmpl	$0, -48(%rbp)
	jne	.LBB36_17
# %bb.16:                               # %if.then123
	movq	-8(%rbp), %rax
	movq	6464(%rax), %rax
	movq	8(%rax), %rdi
	movq	-40(%rbp), %rsi
	movq	-8(%rbp), %rax
	movl	6400(%rax), %edx
	movq	-8(%rbp), %rax
	movl	6404(%rax), %ecx
	movl	-28(%rbp), %r8d
	movl	-20(%rbp), %r9d
	movl	-24(%rbp), %eax
	movl	-12(%rbp), %r10d
	movl	-16(%rbp), %r11d
	movl	%eax, (%rsp)
	movl	%r10d, 8(%rsp)
	movl	%r11d, 16(%rsp)
	callq	img2buf
	movl	-44(%rbp), %edi
	movq	-40(%rbp), %rsi
	movq	-8(%rbp), %rax
	movl	6404(%rax), %eax
	subl	-16(%rbp), %eax
	subl	-12(%rbp), %eax
	movq	-8(%rbp), %rcx
	movl	6400(%rcx), %ecx
	subl	-24(%rbp), %ecx
	subl	-20(%rbp), %ecx
	imull	%ecx, %eax
	imull	-28(%rbp), %eax
	movslq	%eax, %rdx
	callq	write
.LBB36_17:                              # %if.end138
	jmp	.LBB36_18
.LBB36_18:                              # %if.end139
	movq	-40(%rbp), %rdi
	callq	free
.LBB36_19:                              # %return
	cmpl	$1414140487, -52(%rbp)  # imm = 0x544A1247
	jne	.LBB36_21
.LBB36_20:
	addq	$128, %rsp
	popq	%rbp
	.cfi_def_cfa %rsp, 8
	retq
.LBB36_21:                              # %func_exit
	.cfi_def_cfa %rbp, 16
	callq	detect_breach
	jmp	.LBB36_20
.Lfunc_end36:
	.size	write_out_picture.26, .Lfunc_end36-write_out_picture.26
	.cfi_endproc
                                        # -- End function
	.globl	write_out_picture.27    # -- Begin function write_out_picture.27
	.p2align	4, 0x90
	.type	write_out_picture.27,@function
write_out_picture.27:                   # @write_out_picture.27
	.cfi_startproc
# %bb.0:                                # %entry
	pushq	%rbp
	.cfi_def_cfa_offset 16
	.cfi_offset %rbp, -16
	movq	%rsp, %rbp
	.cfi_def_cfa_register %rbp
	subq	$128, %rsp
	xorl	%ecx, %ecx
	movl	$39235330, -52(%rbp)    # imm = 0x256AF02
	movq	%rdi, -8(%rbp)
	movl	%esi, -44(%rbp)
	movq	.L__const.write_out_picture.SubWidthC, %rax
	movq	%rax, -96(%rbp)
	movq	.L__const.write_out_picture.SubWidthC+8, %rax
	movq	%rax, -88(%rbp)
	movq	.L__const.write_out_picture.SubHeightC, %rax
	movq	%rax, -80(%rbp)
	movq	.L__const.write_out_picture.SubHeightC+8, %rax
	movq	%rax, -72(%rbp)
	movq	img, %rax
	movl	72656(%rax), %eax
	cltd
	movl	$8, %esi
	idivl	%esi
	movl	%eax, -28(%rbp)
	movq	input, %rax
	cmpl	$0, 3312(%rax)
	je	.LBB37_2
# %bb.1:                                # %land.rhs
	movq	input, %rax
	cmpl	$3, 72(%rax)
	sete	%cl
.LBB37_2:                               # %land.end
	andb	$1, %cl
	movzbl	%cl, %eax
	movl	%eax, -48(%rbp)
	movq	-8(%rbp), %rax
	cmpl	$0, 6388(%rax)
	je	.LBB37_4
# %bb.3:                                # %if.then
	jmp	.LBB37_19
.LBB37_4:                               # %if.end
	movq	-8(%rbp), %rax
	cmpl	$0, 6560(%rax)
	je	.LBB37_6
# %bb.5:                                # %if.then3
	movq	-8(%rbp), %rax
	movslq	6552(%rax), %rax
	movl	-96(%rbp,%rax,4), %eax
	movq	-8(%rbp), %rcx
	imull	6564(%rcx), %eax
	movl	%eax, -12(%rbp)
	movq	-8(%rbp), %rax
	movslq	6552(%rax), %rax
	movl	-96(%rbp,%rax,4), %eax
	movq	-8(%rbp), %rcx
	imull	6568(%rcx), %eax
	movl	%eax, -24(%rbp)
	movq	-8(%rbp), %rax
	movslq	6552(%rax), %rax
	movl	-80(%rbp,%rax,4), %eax
	movq	-8(%rbp), %rcx
	movl	$2, %edx
	movl	$2, %esi
	subl	6556(%rcx), %esi
	imull	%esi, %eax
	movq	-8(%rbp), %rcx
	imull	6572(%rcx), %eax
	movl	%eax, -20(%rbp)
	movq	-8(%rbp), %rax
	movslq	6552(%rax), %rax
	movl	-80(%rbp,%rax,4), %eax
	movq	-8(%rbp), %rcx
	subl	6556(%rcx), %edx
	imull	%edx, %eax
	movq	-8(%rbp), %rcx
	imull	6576(%rcx), %eax
	movl	%eax, -16(%rbp)
	jmp	.LBB37_7
.LBB37_6:                               # %if.else
	movl	$0, -16(%rbp)
	movl	$0, -20(%rbp)
	movl	$0, -24(%rbp)
	movl	$0, -12(%rbp)
.LBB37_7:                               # %if.end20
	movq	-8(%rbp), %rax
	movl	6392(%rax), %eax
	movq	-8(%rbp), %rcx
	imull	6396(%rcx), %eax
	imull	-28(%rbp), %eax
	movslq	%eax, %rdi
	callq	malloc
	xorl	%ecx, %ecx
	movq	%rax, -40(%rbp)
	cmpq	%rax, %rcx
	jne	.LBB37_9
# %bb.8:                                # %if.then25
	movabsq	$.L.str.1, %rdi
	callq	no_mem_exit
.LBB37_9:                               # %if.end26
	cmpl	$0, -48(%rbp)
	je	.LBB37_14
# %bb.10:                               # %if.then28
	movq	-8(%rbp), %rax
	movl	6564(%rax), %eax
	movl	%eax, -12(%rbp)
	movq	-8(%rbp), %rax
	movl	6568(%rax), %eax
	movl	%eax, -24(%rbp)
	movq	-8(%rbp), %rax
	movl	$2, %ecx
	movl	$2, %edx
	subl	6556(%rax), %edx
	movq	-8(%rbp), %rax
	imull	6572(%rax), %edx
	movl	%edx, -20(%rbp)
	movq	-8(%rbp), %rax
	subl	6556(%rax), %ecx
	movq	-8(%rbp), %rax
	imull	6576(%rax), %ecx
	movl	%ecx, -16(%rbp)
	movq	-8(%rbp), %rax
	movq	6464(%rax), %rax
	movq	8(%rax), %rdi
	movq	-40(%rbp), %rsi
	movq	-8(%rbp), %rax
	movl	6400(%rax), %edx
	movq	-8(%rbp), %rax
	movl	6404(%rax), %ecx
	movl	-28(%rbp), %r8d
	movl	-12(%rbp), %r9d
	movl	-24(%rbp), %eax
	movl	-20(%rbp), %r10d
	movl	-16(%rbp), %r11d
	movl	%eax, (%rsp)
	movl	%r10d, 8(%rsp)
	movl	%r11d, 16(%rsp)
	callq	img2buf
	movl	-44(%rbp), %edi
	movq	-40(%rbp), %rsi
	movq	-8(%rbp), %rax
	movl	6404(%rax), %eax
	subl	-16(%rbp), %eax
	subl	-20(%rbp), %eax
	movq	-8(%rbp), %rcx
	movl	6400(%rcx), %ecx
	subl	-24(%rbp), %ecx
	subl	-12(%rbp), %ecx
	imull	%ecx, %eax
	imull	-28(%rbp), %eax
	movslq	%eax, %rdx
	callq	write
	movq	active_sps, %rax
	cmpl	$0, 1160(%rax)
	je	.LBB37_12
# %bb.11:                               # %if.then52
	movq	-8(%rbp), %rax
	movslq	6552(%rax), %rax
	movl	-96(%rbp,%rax,4), %eax
	movq	-8(%rbp), %rcx
	imull	6564(%rcx), %eax
	movl	%eax, -12(%rbp)
	movq	-8(%rbp), %rax
	movslq	6552(%rax), %rax
	movl	-96(%rbp,%rax,4), %eax
	movq	-8(%rbp), %rcx
	imull	6568(%rcx), %eax
	movl	%eax, -24(%rbp)
	movq	-8(%rbp), %rax
	movslq	6552(%rax), %rax
	movl	-80(%rbp,%rax,4), %eax
	movq	-8(%rbp), %rcx
	movl	$2, %edx
	movl	$2, %esi
	subl	6556(%rcx), %esi
	imull	%esi, %eax
	movq	-8(%rbp), %rcx
	imull	6572(%rcx), %eax
	movl	%eax, -20(%rbp)
	movq	-8(%rbp), %rax
	movslq	6552(%rax), %rax
	movl	-80(%rbp,%rax,4), %eax
	movq	-8(%rbp), %rcx
	subl	6556(%rcx), %edx
	imull	%edx, %eax
	movq	-8(%rbp), %rcx
	imull	6576(%rcx), %eax
	movl	%eax, -16(%rbp)
	jmp	.LBB37_13
.LBB37_12:                              # %if.else79
	movl	$0, -16(%rbp)
	movl	$0, -20(%rbp)
	movl	$0, -24(%rbp)
	movl	$0, -12(%rbp)
.LBB37_13:                              # %if.end80
	jmp	.LBB37_14
.LBB37_14:                              # %if.end81
	movq	-8(%rbp), %rax
	movq	6424(%rax), %rdi
	movq	-40(%rbp), %rsi
	movq	-8(%rbp), %rax
	movl	6392(%rax), %edx
	movq	-8(%rbp), %rax
	movl	6396(%rax), %ecx
	movl	-28(%rbp), %r8d
	movl	-12(%rbp), %r9d
	movl	-24(%rbp), %eax
	movl	-20(%rbp), %r10d
	movl	-16(%rbp), %r11d
	movl	%eax, (%rsp)
	movl	%r10d, 8(%rsp)
	movl	%r11d, 16(%rsp)
	callq	img2buf
	movl	-44(%rbp), %edi
	movq	-40(%rbp), %rsi
	movq	-8(%rbp), %rax
	movl	6396(%rax), %eax
	subl	-16(%rbp), %eax
	subl	-20(%rbp), %eax
	movq	-8(%rbp), %rcx
	movl	6392(%rcx), %ecx
	subl	-24(%rbp), %ecx
	subl	-12(%rbp), %ecx
	imull	%ecx, %eax
	imull	-28(%rbp), %eax
	movslq	%eax, %rdx
	callq	write
	movq	-8(%rbp), %rax
	cmpl	$0, 6552(%rax)
	je	.LBB37_18
# %bb.15:                               # %if.then97
	movq	-8(%rbp), %rax
	movl	6564(%rax), %eax
	movl	%eax, -12(%rbp)
	movq	-8(%rbp), %rax
	movl	6568(%rax), %eax
	movl	%eax, -24(%rbp)
	movq	-8(%rbp), %rax
	movl	$2, %ecx
	movl	$2, %edx
	subl	6556(%rax), %edx
	movq	-8(%rbp), %rax
	imull	6572(%rax), %edx
	movl	%edx, -20(%rbp)
	movq	-8(%rbp), %rax
	subl	6556(%rax), %ecx
	movq	-8(%rbp), %rax
	imull	6576(%rax), %ecx
	movl	%ecx, -16(%rbp)
	movq	-8(%rbp), %rax
	movq	6464(%rax), %rax
	movq	(%rax), %rdi
	movq	-40(%rbp), %rsi
	movq	-8(%rbp), %rax
	movl	6400(%rax), %edx
	movq	-8(%rbp), %rax
	movl	6404(%rax), %ecx
	movl	-28(%rbp), %r8d
	movl	-12(%rbp), %r9d
	movl	-24(%rbp), %eax
	movl	-20(%rbp), %r10d
	movl	-16(%rbp), %r11d
	movl	%eax, (%rsp)
	movl	%r10d, 8(%rsp)
	movl	%r11d, 16(%rsp)
	callq	img2buf
	movl	-44(%rbp), %edi
	movq	-40(%rbp), %rsi
	movq	-8(%rbp), %rax
	movl	6404(%rax), %eax
	subl	-16(%rbp), %eax
	subl	-20(%rbp), %eax
	movq	-8(%rbp), %rcx
	movl	6400(%rcx), %ecx
	subl	-24(%rbp), %ecx
	subl	-12(%rbp), %ecx
	imull	%ecx, %eax
	imull	-28(%rbp), %eax
	movslq	%eax, %rdx
	callq	write
	cmpl	$0, -48(%rbp)
	jne	.LBB37_17
# %bb.16:                               # %if.then123
	movq	-8(%rbp), %rax
	movq	6464(%rax), %rax
	movq	8(%rax), %rdi
	movq	-40(%rbp), %rsi
	movq	-8(%rbp), %rax
	movl	6400(%rax), %edx
	movq	-8(%rbp), %rax
	movl	6404(%rax), %ecx
	movl	-28(%rbp), %r8d
	movl	-12(%rbp), %r9d
	movl	-24(%rbp), %eax
	movl	-20(%rbp), %r10d
	movl	-16(%rbp), %r11d
	movl	%eax, (%rsp)
	movl	%r10d, 8(%rsp)
	movl	%r11d, 16(%rsp)
	callq	img2buf
	movl	-44(%rbp), %edi
	movq	-40(%rbp), %rsi
	movq	-8(%rbp), %rax
	movl	6404(%rax), %eax
	subl	-16(%rbp), %eax
	subl	-20(%rbp), %eax
	movq	-8(%rbp), %rcx
	movl	6400(%rcx), %ecx
	subl	-24(%rbp), %ecx
	subl	-12(%rbp), %ecx
	imull	%ecx, %eax
	imull	-28(%rbp), %eax
	movslq	%eax, %rdx
	callq	write
.LBB37_17:                              # %if.end138
	jmp	.LBB37_18
.LBB37_18:                              # %if.end139
	movq	-40(%rbp), %rdi
	callq	free
.LBB37_19:                              # %return
	cmpl	$39235330, -52(%rbp)    # imm = 0x256AF02
	jne	.LBB37_21
.LBB37_20:
	addq	$128, %rsp
	popq	%rbp
	.cfi_def_cfa %rsp, 8
	retq
.LBB37_21:                              # %func_exit
	.cfi_def_cfa %rbp, 16
	callq	detect_breach
	jmp	.LBB37_20
.Lfunc_end37:
	.size	write_out_picture.27, .Lfunc_end37-write_out_picture.27
	.cfi_endproc
                                        # -- End function
	.globl	write_out_picture.28    # -- Begin function write_out_picture.28
	.p2align	4, 0x90
	.type	write_out_picture.28,@function
write_out_picture.28:                   # @write_out_picture.28
	.cfi_startproc
# %bb.0:                                # %entry
	pushq	%rbp
	.cfi_def_cfa_offset 16
	.cfi_offset %rbp, -16
	movq	%rsp, %rbp
	.cfi_def_cfa_register %rbp
	subq	$128, %rsp
	xorl	%ecx, %ecx
	movl	$1793531676, -52(%rbp)  # imm = 0x6AE71F1C
	movq	%rdi, -8(%rbp)
	movl	%esi, -44(%rbp)
	movq	.L__const.write_out_picture.SubWidthC, %rax
	movq	%rax, -96(%rbp)
	movq	.L__const.write_out_picture.SubWidthC+8, %rax
	movq	%rax, -88(%rbp)
	movq	.L__const.write_out_picture.SubHeightC, %rax
	movq	%rax, -80(%rbp)
	movq	.L__const.write_out_picture.SubHeightC+8, %rax
	movq	%rax, -72(%rbp)
	movq	img, %rax
	movl	72656(%rax), %eax
	cltd
	movl	$8, %esi
	idivl	%esi
	movl	%eax, -28(%rbp)
	movq	input, %rax
	cmpl	$0, 3312(%rax)
	je	.LBB38_2
# %bb.1:                                # %land.rhs
	movq	input, %rax
	cmpl	$3, 72(%rax)
	sete	%cl
.LBB38_2:                               # %land.end
	andb	$1, %cl
	movzbl	%cl, %eax
	movl	%eax, -48(%rbp)
	movq	-8(%rbp), %rax
	cmpl	$0, 6388(%rax)
	je	.LBB38_4
# %bb.3:                                # %if.then
	jmp	.LBB38_19
.LBB38_4:                               # %if.end
	movq	-8(%rbp), %rax
	cmpl	$0, 6560(%rax)
	je	.LBB38_6
# %bb.5:                                # %if.then3
	movq	-8(%rbp), %rax
	movslq	6552(%rax), %rax
	movl	-96(%rbp,%rax,4), %eax
	movq	-8(%rbp), %rcx
	imull	6564(%rcx), %eax
	movl	%eax, -16(%rbp)
	movq	-8(%rbp), %rax
	movslq	6552(%rax), %rax
	movl	-96(%rbp,%rax,4), %eax
	movq	-8(%rbp), %rcx
	imull	6568(%rcx), %eax
	movl	%eax, -12(%rbp)
	movq	-8(%rbp), %rax
	movslq	6552(%rax), %rax
	movl	-80(%rbp,%rax,4), %eax
	movq	-8(%rbp), %rcx
	movl	$2, %edx
	movl	$2, %esi
	subl	6556(%rcx), %esi
	imull	%esi, %eax
	movq	-8(%rbp), %rcx
	imull	6572(%rcx), %eax
	movl	%eax, -20(%rbp)
	movq	-8(%rbp), %rax
	movslq	6552(%rax), %rax
	movl	-80(%rbp,%rax,4), %eax
	movq	-8(%rbp), %rcx
	subl	6556(%rcx), %edx
	imull	%edx, %eax
	movq	-8(%rbp), %rcx
	imull	6576(%rcx), %eax
	movl	%eax, -24(%rbp)
	jmp	.LBB38_7
.LBB38_6:                               # %if.else
	movl	$0, -24(%rbp)
	movl	$0, -20(%rbp)
	movl	$0, -12(%rbp)
	movl	$0, -16(%rbp)
.LBB38_7:                               # %if.end20
	movq	-8(%rbp), %rax
	movl	6392(%rax), %eax
	movq	-8(%rbp), %rcx
	imull	6396(%rcx), %eax
	imull	-28(%rbp), %eax
	movslq	%eax, %rdi
	callq	malloc
	xorl	%ecx, %ecx
	movq	%rax, -40(%rbp)
	cmpq	%rax, %rcx
	jne	.LBB38_9
# %bb.8:                                # %if.then25
	movabsq	$.L.str.1, %rdi
	callq	no_mem_exit
.LBB38_9:                               # %if.end26
	cmpl	$0, -48(%rbp)
	je	.LBB38_14
# %bb.10:                               # %if.then28
	movq	-8(%rbp), %rax
	movl	6564(%rax), %eax
	movl	%eax, -16(%rbp)
	movq	-8(%rbp), %rax
	movl	6568(%rax), %eax
	movl	%eax, -12(%rbp)
	movq	-8(%rbp), %rax
	movl	$2, %ecx
	movl	$2, %edx
	subl	6556(%rax), %edx
	movq	-8(%rbp), %rax
	imull	6572(%rax), %edx
	movl	%edx, -20(%rbp)
	movq	-8(%rbp), %rax
	subl	6556(%rax), %ecx
	movq	-8(%rbp), %rax
	imull	6576(%rax), %ecx
	movl	%ecx, -24(%rbp)
	movq	-8(%rbp), %rax
	movq	6464(%rax), %rax
	movq	8(%rax), %rdi
	movq	-40(%rbp), %rsi
	movq	-8(%rbp), %rax
	movl	6400(%rax), %edx
	movq	-8(%rbp), %rax
	movl	6404(%rax), %ecx
	movl	-28(%rbp), %r8d
	movl	-16(%rbp), %r9d
	movl	-12(%rbp), %eax
	movl	-20(%rbp), %r10d
	movl	-24(%rbp), %r11d
	movl	%eax, (%rsp)
	movl	%r10d, 8(%rsp)
	movl	%r11d, 16(%rsp)
	callq	img2buf
	movl	-44(%rbp), %edi
	movq	-40(%rbp), %rsi
	movq	-8(%rbp), %rax
	movl	6404(%rax), %eax
	subl	-24(%rbp), %eax
	subl	-20(%rbp), %eax
	movq	-8(%rbp), %rcx
	movl	6400(%rcx), %ecx
	subl	-12(%rbp), %ecx
	subl	-16(%rbp), %ecx
	imull	%ecx, %eax
	imull	-28(%rbp), %eax
	movslq	%eax, %rdx
	callq	write
	movq	active_sps, %rax
	cmpl	$0, 1160(%rax)
	je	.LBB38_12
# %bb.11:                               # %if.then52
	movq	-8(%rbp), %rax
	movslq	6552(%rax), %rax
	movl	-96(%rbp,%rax,4), %eax
	movq	-8(%rbp), %rcx
	imull	6564(%rcx), %eax
	movl	%eax, -16(%rbp)
	movq	-8(%rbp), %rax
	movslq	6552(%rax), %rax
	movl	-96(%rbp,%rax,4), %eax
	movq	-8(%rbp), %rcx
	imull	6568(%rcx), %eax
	movl	%eax, -12(%rbp)
	movq	-8(%rbp), %rax
	movslq	6552(%rax), %rax
	movl	-80(%rbp,%rax,4), %eax
	movq	-8(%rbp), %rcx
	movl	$2, %edx
	movl	$2, %esi
	subl	6556(%rcx), %esi
	imull	%esi, %eax
	movq	-8(%rbp), %rcx
	imull	6572(%rcx), %eax
	movl	%eax, -20(%rbp)
	movq	-8(%rbp), %rax
	movslq	6552(%rax), %rax
	movl	-80(%rbp,%rax,4), %eax
	movq	-8(%rbp), %rcx
	subl	6556(%rcx), %edx
	imull	%edx, %eax
	movq	-8(%rbp), %rcx
	imull	6576(%rcx), %eax
	movl	%eax, -24(%rbp)
	jmp	.LBB38_13
.LBB38_12:                              # %if.else79
	movl	$0, -24(%rbp)
	movl	$0, -20(%rbp)
	movl	$0, -12(%rbp)
	movl	$0, -16(%rbp)
.LBB38_13:                              # %if.end80
	jmp	.LBB38_14
.LBB38_14:                              # %if.end81
	movq	-8(%rbp), %rax
	movq	6424(%rax), %rdi
	movq	-40(%rbp), %rsi
	movq	-8(%rbp), %rax
	movl	6392(%rax), %edx
	movq	-8(%rbp), %rax
	movl	6396(%rax), %ecx
	movl	-28(%rbp), %r8d
	movl	-16(%rbp), %r9d
	movl	-12(%rbp), %eax
	movl	-20(%rbp), %r10d
	movl	-24(%rbp), %r11d
	movl	%eax, (%rsp)
	movl	%r10d, 8(%rsp)
	movl	%r11d, 16(%rsp)
	callq	img2buf
	movl	-44(%rbp), %edi
	movq	-40(%rbp), %rsi
	movq	-8(%rbp), %rax
	movl	6396(%rax), %eax
	subl	-24(%rbp), %eax
	subl	-20(%rbp), %eax
	movq	-8(%rbp), %rcx
	movl	6392(%rcx), %ecx
	subl	-12(%rbp), %ecx
	subl	-16(%rbp), %ecx
	imull	%ecx, %eax
	imull	-28(%rbp), %eax
	movslq	%eax, %rdx
	callq	write
	movq	-8(%rbp), %rax
	cmpl	$0, 6552(%rax)
	je	.LBB38_18
# %bb.15:                               # %if.then97
	movq	-8(%rbp), %rax
	movl	6564(%rax), %eax
	movl	%eax, -16(%rbp)
	movq	-8(%rbp), %rax
	movl	6568(%rax), %eax
	movl	%eax, -12(%rbp)
	movq	-8(%rbp), %rax
	movl	$2, %ecx
	movl	$2, %edx
	subl	6556(%rax), %edx
	movq	-8(%rbp), %rax
	imull	6572(%rax), %edx
	movl	%edx, -20(%rbp)
	movq	-8(%rbp), %rax
	subl	6556(%rax), %ecx
	movq	-8(%rbp), %rax
	imull	6576(%rax), %ecx
	movl	%ecx, -24(%rbp)
	movq	-8(%rbp), %rax
	movq	6464(%rax), %rax
	movq	(%rax), %rdi
	movq	-40(%rbp), %rsi
	movq	-8(%rbp), %rax
	movl	6400(%rax), %edx
	movq	-8(%rbp), %rax
	movl	6404(%rax), %ecx
	movl	-28(%rbp), %r8d
	movl	-16(%rbp), %r9d
	movl	-12(%rbp), %eax
	movl	-20(%rbp), %r10d
	movl	-24(%rbp), %r11d
	movl	%eax, (%rsp)
	movl	%r10d, 8(%rsp)
	movl	%r11d, 16(%rsp)
	callq	img2buf
	movl	-44(%rbp), %edi
	movq	-40(%rbp), %rsi
	movq	-8(%rbp), %rax
	movl	6404(%rax), %eax
	subl	-24(%rbp), %eax
	subl	-20(%rbp), %eax
	movq	-8(%rbp), %rcx
	movl	6400(%rcx), %ecx
	subl	-12(%rbp), %ecx
	subl	-16(%rbp), %ecx
	imull	%ecx, %eax
	imull	-28(%rbp), %eax
	movslq	%eax, %rdx
	callq	write
	cmpl	$0, -48(%rbp)
	jne	.LBB38_17
# %bb.16:                               # %if.then123
	movq	-8(%rbp), %rax
	movq	6464(%rax), %rax
	movq	8(%rax), %rdi
	movq	-40(%rbp), %rsi
	movq	-8(%rbp), %rax
	movl	6400(%rax), %edx
	movq	-8(%rbp), %rax
	movl	6404(%rax), %ecx
	movl	-28(%rbp), %r8d
	movl	-16(%rbp), %r9d
	movl	-12(%rbp), %eax
	movl	-20(%rbp), %r10d
	movl	-24(%rbp), %r11d
	movl	%eax, (%rsp)
	movl	%r10d, 8(%rsp)
	movl	%r11d, 16(%rsp)
	callq	img2buf
	movl	-44(%rbp), %edi
	movq	-40(%rbp), %rsi
	movq	-8(%rbp), %rax
	movl	6404(%rax), %eax
	subl	-24(%rbp), %eax
	subl	-20(%rbp), %eax
	movq	-8(%rbp), %rcx
	movl	6400(%rcx), %ecx
	subl	-12(%rbp), %ecx
	subl	-16(%rbp), %ecx
	imull	%ecx, %eax
	imull	-28(%rbp), %eax
	movslq	%eax, %rdx
	callq	write
.LBB38_17:                              # %if.end138
	jmp	.LBB38_18
.LBB38_18:                              # %if.end139
	movq	-40(%rbp), %rdi
	callq	free
.LBB38_19:                              # %return
	cmpl	$1793531676, -52(%rbp)  # imm = 0x6AE71F1C
	jne	.LBB38_21
.LBB38_20:
	addq	$128, %rsp
	popq	%rbp
	.cfi_def_cfa %rsp, 8
	retq
.LBB38_21:                              # %func_exit
	.cfi_def_cfa %rbp, 16
	callq	detect_breach
	jmp	.LBB38_20
.Lfunc_end38:
	.size	write_out_picture.28, .Lfunc_end38-write_out_picture.28
	.cfi_endproc
                                        # -- End function
	.globl	write_out_picture.29    # -- Begin function write_out_picture.29
	.p2align	4, 0x90
	.type	write_out_picture.29,@function
write_out_picture.29:                   # @write_out_picture.29
	.cfi_startproc
# %bb.0:                                # %entry
	pushq	%rbp
	.cfi_def_cfa_offset 16
	.cfi_offset %rbp, -16
	movq	%rsp, %rbp
	.cfi_def_cfa_register %rbp
	subq	$128, %rsp
	xorl	%ecx, %ecx
	movl	$1758948979, -52(%rbp)  # imm = 0x68D76E73
	movq	%rdi, -8(%rbp)
	movl	%esi, -44(%rbp)
	movq	.L__const.write_out_picture.SubWidthC, %rax
	movq	%rax, -80(%rbp)
	movq	.L__const.write_out_picture.SubWidthC+8, %rax
	movq	%rax, -72(%rbp)
	movq	.L__const.write_out_picture.SubHeightC, %rax
	movq	%rax, -96(%rbp)
	movq	.L__const.write_out_picture.SubHeightC+8, %rax
	movq	%rax, -88(%rbp)
	movq	img, %rax
	movl	72656(%rax), %eax
	cltd
	movl	$8, %esi
	idivl	%esi
	movl	%eax, -28(%rbp)
	movq	input, %rax
	cmpl	$0, 3312(%rax)
	je	.LBB39_2
# %bb.1:                                # %land.rhs
	movq	input, %rax
	cmpl	$3, 72(%rax)
	sete	%cl
.LBB39_2:                               # %land.end
	andb	$1, %cl
	movzbl	%cl, %eax
	movl	%eax, -48(%rbp)
	movq	-8(%rbp), %rax
	cmpl	$0, 6388(%rax)
	je	.LBB39_4
# %bb.3:                                # %if.then
	jmp	.LBB39_19
.LBB39_4:                               # %if.end
	movq	-8(%rbp), %rax
	cmpl	$0, 6560(%rax)
	je	.LBB39_6
# %bb.5:                                # %if.then3
	movq	-8(%rbp), %rax
	movslq	6552(%rax), %rax
	movl	-80(%rbp,%rax,4), %eax
	movq	-8(%rbp), %rcx
	imull	6564(%rcx), %eax
	movl	%eax, -24(%rbp)
	movq	-8(%rbp), %rax
	movslq	6552(%rax), %rax
	movl	-80(%rbp,%rax,4), %eax
	movq	-8(%rbp), %rcx
	imull	6568(%rcx), %eax
	movl	%eax, -16(%rbp)
	movq	-8(%rbp), %rax
	movslq	6552(%rax), %rax
	movl	-96(%rbp,%rax,4), %eax
	movq	-8(%rbp), %rcx
	movl	$2, %edx
	movl	$2, %esi
	subl	6556(%rcx), %esi
	imull	%esi, %eax
	movq	-8(%rbp), %rcx
	imull	6572(%rcx), %eax
	movl	%eax, -20(%rbp)
	movq	-8(%rbp), %rax
	movslq	6552(%rax), %rax
	movl	-96(%rbp,%rax,4), %eax
	movq	-8(%rbp), %rcx
	subl	6556(%rcx), %edx
	imull	%edx, %eax
	movq	-8(%rbp), %rcx
	imull	6576(%rcx), %eax
	movl	%eax, -12(%rbp)
	jmp	.LBB39_7
.LBB39_6:                               # %if.else
	movl	$0, -12(%rbp)
	movl	$0, -20(%rbp)
	movl	$0, -16(%rbp)
	movl	$0, -24(%rbp)
.LBB39_7:                               # %if.end20
	movq	-8(%rbp), %rax
	movl	6392(%rax), %eax
	movq	-8(%rbp), %rcx
	imull	6396(%rcx), %eax
	imull	-28(%rbp), %eax
	movslq	%eax, %rdi
	callq	malloc
	xorl	%ecx, %ecx
	movq	%rax, -40(%rbp)
	cmpq	%rax, %rcx
	jne	.LBB39_9
# %bb.8:                                # %if.then25
	movabsq	$.L.str.1, %rdi
	callq	no_mem_exit
.LBB39_9:                               # %if.end26
	cmpl	$0, -48(%rbp)
	je	.LBB39_14
# %bb.10:                               # %if.then28
	movq	-8(%rbp), %rax
	movl	6564(%rax), %eax
	movl	%eax, -24(%rbp)
	movq	-8(%rbp), %rax
	movl	6568(%rax), %eax
	movl	%eax, -16(%rbp)
	movq	-8(%rbp), %rax
	movl	$2, %ecx
	movl	$2, %edx
	subl	6556(%rax), %edx
	movq	-8(%rbp), %rax
	imull	6572(%rax), %edx
	movl	%edx, -20(%rbp)
	movq	-8(%rbp), %rax
	subl	6556(%rax), %ecx
	movq	-8(%rbp), %rax
	imull	6576(%rax), %ecx
	movl	%ecx, -12(%rbp)
	movq	-8(%rbp), %rax
	movq	6464(%rax), %rax
	movq	8(%rax), %rdi
	movq	-40(%rbp), %rsi
	movq	-8(%rbp), %rax
	movl	6400(%rax), %edx
	movq	-8(%rbp), %rax
	movl	6404(%rax), %ecx
	movl	-28(%rbp), %r8d
	movl	-24(%rbp), %r9d
	movl	-16(%rbp), %eax
	movl	-20(%rbp), %r10d
	movl	-12(%rbp), %r11d
	movl	%eax, (%rsp)
	movl	%r10d, 8(%rsp)
	movl	%r11d, 16(%rsp)
	callq	img2buf
	movl	-44(%rbp), %edi
	movq	-40(%rbp), %rsi
	movq	-8(%rbp), %rax
	movl	6404(%rax), %eax
	subl	-12(%rbp), %eax
	subl	-20(%rbp), %eax
	movq	-8(%rbp), %rcx
	movl	6400(%rcx), %ecx
	subl	-16(%rbp), %ecx
	subl	-24(%rbp), %ecx
	imull	%ecx, %eax
	imull	-28(%rbp), %eax
	movslq	%eax, %rdx
	callq	write
	movq	active_sps, %rax
	cmpl	$0, 1160(%rax)
	je	.LBB39_12
# %bb.11:                               # %if.then52
	movq	-8(%rbp), %rax
	movslq	6552(%rax), %rax
	movl	-80(%rbp,%rax,4), %eax
	movq	-8(%rbp), %rcx
	imull	6564(%rcx), %eax
	movl	%eax, -24(%rbp)
	movq	-8(%rbp), %rax
	movslq	6552(%rax), %rax
	movl	-80(%rbp,%rax,4), %eax
	movq	-8(%rbp), %rcx
	imull	6568(%rcx), %eax
	movl	%eax, -16(%rbp)
	movq	-8(%rbp), %rax
	movslq	6552(%rax), %rax
	movl	-96(%rbp,%rax,4), %eax
	movq	-8(%rbp), %rcx
	movl	$2, %edx
	movl	$2, %esi
	subl	6556(%rcx), %esi
	imull	%esi, %eax
	movq	-8(%rbp), %rcx
	imull	6572(%rcx), %eax
	movl	%eax, -20(%rbp)
	movq	-8(%rbp), %rax
	movslq	6552(%rax), %rax
	movl	-96(%rbp,%rax,4), %eax
	movq	-8(%rbp), %rcx
	subl	6556(%rcx), %edx
	imull	%edx, %eax
	movq	-8(%rbp), %rcx
	imull	6576(%rcx), %eax
	movl	%eax, -12(%rbp)
	jmp	.LBB39_13
.LBB39_12:                              # %if.else79
	movl	$0, -12(%rbp)
	movl	$0, -20(%rbp)
	movl	$0, -16(%rbp)
	movl	$0, -24(%rbp)
.LBB39_13:                              # %if.end80
	jmp	.LBB39_14
.LBB39_14:                              # %if.end81
	movq	-8(%rbp), %rax
	movq	6424(%rax), %rdi
	movq	-40(%rbp), %rsi
	movq	-8(%rbp), %rax
	movl	6392(%rax), %edx
	movq	-8(%rbp), %rax
	movl	6396(%rax), %ecx
	movl	-28(%rbp), %r8d
	movl	-24(%rbp), %r9d
	movl	-16(%rbp), %eax
	movl	-20(%rbp), %r10d
	movl	-12(%rbp), %r11d
	movl	%eax, (%rsp)
	movl	%r10d, 8(%rsp)
	movl	%r11d, 16(%rsp)
	callq	img2buf
	movl	-44(%rbp), %edi
	movq	-40(%rbp), %rsi
	movq	-8(%rbp), %rax
	movl	6396(%rax), %eax
	subl	-12(%rbp), %eax
	subl	-20(%rbp), %eax
	movq	-8(%rbp), %rcx
	movl	6392(%rcx), %ecx
	subl	-16(%rbp), %ecx
	subl	-24(%rbp), %ecx
	imull	%ecx, %eax
	imull	-28(%rbp), %eax
	movslq	%eax, %rdx
	callq	write
	movq	-8(%rbp), %rax
	cmpl	$0, 6552(%rax)
	je	.LBB39_18
# %bb.15:                               # %if.then97
	movq	-8(%rbp), %rax
	movl	6564(%rax), %eax
	movl	%eax, -24(%rbp)
	movq	-8(%rbp), %rax
	movl	6568(%rax), %eax
	movl	%eax, -16(%rbp)
	movq	-8(%rbp), %rax
	movl	$2, %ecx
	movl	$2, %edx
	subl	6556(%rax), %edx
	movq	-8(%rbp), %rax
	imull	6572(%rax), %edx
	movl	%edx, -20(%rbp)
	movq	-8(%rbp), %rax
	subl	6556(%rax), %ecx
	movq	-8(%rbp), %rax
	imull	6576(%rax), %ecx
	movl	%ecx, -12(%rbp)
	movq	-8(%rbp), %rax
	movq	6464(%rax), %rax
	movq	(%rax), %rdi
	movq	-40(%rbp), %rsi
	movq	-8(%rbp), %rax
	movl	6400(%rax), %edx
	movq	-8(%rbp), %rax
	movl	6404(%rax), %ecx
	movl	-28(%rbp), %r8d
	movl	-24(%rbp), %r9d
	movl	-16(%rbp), %eax
	movl	-20(%rbp), %r10d
	movl	-12(%rbp), %r11d
	movl	%eax, (%rsp)
	movl	%r10d, 8(%rsp)
	movl	%r11d, 16(%rsp)
	callq	img2buf
	movl	-44(%rbp), %edi
	movq	-40(%rbp), %rsi
	movq	-8(%rbp), %rax
	movl	6404(%rax), %eax
	subl	-12(%rbp), %eax
	subl	-20(%rbp), %eax
	movq	-8(%rbp), %rcx
	movl	6400(%rcx), %ecx
	subl	-16(%rbp), %ecx
	subl	-24(%rbp), %ecx
	imull	%ecx, %eax
	imull	-28(%rbp), %eax
	movslq	%eax, %rdx
	callq	write
	cmpl	$0, -48(%rbp)
	jne	.LBB39_17
# %bb.16:                               # %if.then123
	movq	-8(%rbp), %rax
	movq	6464(%rax), %rax
	movq	8(%rax), %rdi
	movq	-40(%rbp), %rsi
	movq	-8(%rbp), %rax
	movl	6400(%rax), %edx
	movq	-8(%rbp), %rax
	movl	6404(%rax), %ecx
	movl	-28(%rbp), %r8d
	movl	-24(%rbp), %r9d
	movl	-16(%rbp), %eax
	movl	-20(%rbp), %r10d
	movl	-12(%rbp), %r11d
	movl	%eax, (%rsp)
	movl	%r10d, 8(%rsp)
	movl	%r11d, 16(%rsp)
	callq	img2buf
	movl	-44(%rbp), %edi
	movq	-40(%rbp), %rsi
	movq	-8(%rbp), %rax
	movl	6404(%rax), %eax
	subl	-12(%rbp), %eax
	subl	-20(%rbp), %eax
	movq	-8(%rbp), %rcx
	movl	6400(%rcx), %ecx
	subl	-16(%rbp), %ecx
	subl	-24(%rbp), %ecx
	imull	%ecx, %eax
	imull	-28(%rbp), %eax
	movslq	%eax, %rdx
	callq	write
.LBB39_17:                              # %if.end138
	jmp	.LBB39_18
.LBB39_18:                              # %if.end139
	movq	-40(%rbp), %rdi
	callq	free
.LBB39_19:                              # %return
	cmpl	$1758948979, -52(%rbp)  # imm = 0x68D76E73
	jne	.LBB39_21
.LBB39_20:
	addq	$128, %rsp
	popq	%rbp
	.cfi_def_cfa %rsp, 8
	retq
.LBB39_21:                              # %func_exit
	.cfi_def_cfa %rbp, 16
	callq	detect_breach
	jmp	.LBB39_20
.Lfunc_end39:
	.size	write_out_picture.29, .Lfunc_end39-write_out_picture.29
	.cfi_endproc
                                        # -- End function
	.globl	img2buf.30              # -- Begin function img2buf.30
	.p2align	4, 0x90
	.type	img2buf.30,@function
img2buf.30:                             # @img2buf.30
	.cfi_startproc
# %bb.0:                                # %entry
	pushq	%rbp
	.cfi_def_cfa_offset 16
	.cfi_offset %rbp, -16
	movq	%rsp, %rbp
	.cfi_def_cfa_register %rbp
	subq	$96, %rsp
	movl	32(%rbp), %eax
	movl	24(%rbp), %eax
	movl	16(%rbp), %eax
	movl	$855907299, -80(%rbp)   # imm = 0x33041BE3
	movq	%rdi, -64(%rbp)
	movq	%rsi, -56(%rbp)
	movl	%edx, -32(%rbp)
	movl	%ecx, -24(%rbp)
	movl	%r8d, -28(%rbp)
	movl	%r9d, -12(%rbp)
	movl	-32(%rbp), %eax
	subl	-12(%rbp), %eax
	subl	16(%rbp), %eax
	movl	%eax, -20(%rbp)
	movl	-24(%rbp), %eax
	subl	24(%rbp), %eax
	subl	32(%rbp), %eax
	movl	%eax, -76(%rbp)
	movl	$0, -40(%rbp)
	callq	testEndian
	cmpl	$0, %eax
	je	.LBB40_33
# %bb.1:                                # %if.then
	movl	-28(%rbp), %eax
	movl	%eax, %ecx
	subl	$1, %ecx
	je	.LBB40_4
	jmp	.LBB40_2
.LBB40_2:                               # %if.then
	movl	%eax, %ecx
	subl	$2, %ecx
	je	.LBB40_13
	jmp	.LBB40_3
.LBB40_3:                               # %if.then
	subl	$4, %eax
	je	.LBB40_22
	jmp	.LBB40_31
.LBB40_4:                               # %sw.bb
	movl	24(%rbp), %eax
	movl	%eax, -4(%rbp)
.LBB40_5:                               # %for.cond
                                        # =>This Loop Header: Depth=1
                                        #     Child Loop BB40_7 Depth 2
	movl	-4(%rbp), %eax
	movl	-24(%rbp), %ecx
	subl	32(%rbp), %ecx
	cmpl	%ecx, %eax
	jge	.LBB40_12
# %bb.6:                                # %for.body
                                        #   in Loop: Header=BB40_5 Depth=1
	movl	-12(%rbp), %eax
	movl	%eax, -8(%rbp)
.LBB40_7:                               # %for.cond5
                                        #   Parent Loop BB40_5 Depth=1
                                        # =>  This Inner Loop Header: Depth=2
	movl	-8(%rbp), %eax
	movl	-32(%rbp), %ecx
	subl	16(%rbp), %ecx
	cmpl	%ecx, %eax
	jge	.LBB40_10
# %bb.8:                                # %for.body8
                                        #   in Loop: Header=BB40_7 Depth=2
	movq	-64(%rbp), %rax
	movslq	-4(%rbp), %rcx
	movq	(%rax,%rcx,8), %rax
	movslq	-8(%rbp), %rcx
	movw	(%rax,%rcx,2), %ax
	movb	%al, -13(%rbp)
	movb	-13(%rbp), %al
	movq	-56(%rbp), %rcx
	movl	-8(%rbp), %edx
	subl	-12(%rbp), %edx
	movl	-4(%rbp), %esi
	subl	24(%rbp), %esi
	imull	-20(%rbp), %esi
	addl	%esi, %edx
	movslq	%edx, %rdx
	movb	%al, (%rcx,%rdx)
# %bb.9:                                # %for.inc
                                        #   in Loop: Header=BB40_7 Depth=2
	movl	-8(%rbp), %eax
	addl	$1, %eax
	movl	%eax, -8(%rbp)
	jmp	.LBB40_7
.LBB40_10:                              # %for.end
                                        #   in Loop: Header=BB40_5 Depth=1
	jmp	.LBB40_11
.LBB40_11:                              # %for.inc15
                                        #   in Loop: Header=BB40_5 Depth=1
	movl	-4(%rbp), %eax
	addl	$1, %eax
	movl	%eax, -4(%rbp)
	jmp	.LBB40_5
.LBB40_12:                              # %for.end17
	jmp	.LBB40_32
.LBB40_13:                              # %sw.bb18
	movl	24(%rbp), %eax
	movl	%eax, -4(%rbp)
.LBB40_14:                              # %for.cond19
                                        # =>This Loop Header: Depth=1
                                        #     Child Loop BB40_16 Depth 2
	movl	-4(%rbp), %eax
	movl	-24(%rbp), %ecx
	subl	32(%rbp), %ecx
	cmpl	%ecx, %eax
	jge	.LBB40_21
# %bb.15:                               # %for.body23
                                        #   in Loop: Header=BB40_14 Depth=1
	movl	-12(%rbp), %eax
	movl	%eax, -8(%rbp)
.LBB40_16:                              # %for.cond24
                                        #   Parent Loop BB40_14 Depth=1
                                        # =>  This Inner Loop Header: Depth=2
	movl	-8(%rbp), %eax
	movl	-32(%rbp), %ecx
	subl	16(%rbp), %ecx
	cmpl	%ecx, %eax
	jge	.LBB40_19
# %bb.17:                               # %for.body28
                                        #   in Loop: Header=BB40_16 Depth=2
	movq	-64(%rbp), %rax
	movslq	-4(%rbp), %rcx
	movq	(%rax,%rcx,8), %rax
	movslq	-8(%rbp), %rcx
	movw	(%rax,%rcx,2), %ax
	movw	%ax, -34(%rbp)
	movzwl	-34(%rbp), %eax
	sarl	$8, %eax
	movzwl	-34(%rbp), %ecx
	andl	$255, %ecx
	shll	$8, %ecx
	orl	%ecx, %eax
	movw	%ax, -42(%rbp)
	movq	-56(%rbp), %rax
	movl	-8(%rbp), %ecx
	subl	-12(%rbp), %ecx
	movl	-4(%rbp), %edx
	subl	24(%rbp), %edx
	imull	-20(%rbp), %edx
	addl	%edx, %ecx
	shll	$1, %ecx
	movslq	%ecx, %rcx
	movw	-42(%rbp), %dx
	movw	%dx, (%rax,%rcx)
# %bb.18:                               # %for.inc41
                                        #   in Loop: Header=BB40_16 Depth=2
	movl	-8(%rbp), %eax
	addl	$1, %eax
	movl	%eax, -8(%rbp)
	jmp	.LBB40_16
.LBB40_19:                              # %for.end43
                                        #   in Loop: Header=BB40_14 Depth=1
	jmp	.LBB40_20
.LBB40_20:                              # %for.inc44
                                        #   in Loop: Header=BB40_14 Depth=1
	movl	-4(%rbp), %eax
	addl	$1, %eax
	movl	%eax, -4(%rbp)
	jmp	.LBB40_14
.LBB40_21:                              # %for.end46
	jmp	.LBB40_32
.LBB40_22:                              # %sw.bb47
	movl	24(%rbp), %eax
	movl	%eax, -4(%rbp)
.LBB40_23:                              # %for.cond48
                                        # =>This Loop Header: Depth=1
                                        #     Child Loop BB40_25 Depth 2
	movl	-4(%rbp), %eax
	movl	-24(%rbp), %ecx
	subl	32(%rbp), %ecx
	cmpl	%ecx, %eax
	jge	.LBB40_30
# %bb.24:                               # %for.body52
                                        #   in Loop: Header=BB40_23 Depth=1
	movl	-12(%rbp), %eax
	movl	%eax, -8(%rbp)
.LBB40_25:                              # %for.cond53
                                        #   Parent Loop BB40_23 Depth=1
                                        # =>  This Inner Loop Header: Depth=2
	movl	-8(%rbp), %eax
	movl	-32(%rbp), %ecx
	subl	16(%rbp), %ecx
	cmpl	%ecx, %eax
	jge	.LBB40_28
# %bb.26:                               # %for.body57
                                        #   in Loop: Header=BB40_25 Depth=2
	movq	-64(%rbp), %rax
	movslq	-4(%rbp), %rcx
	movq	(%rax,%rcx,8), %rax
	movslq	-8(%rbp), %rcx
	movzwl	(%rax,%rcx,2), %eax
	movq	%rax, -72(%rbp)
	movq	-72(%rbp), %rax
	andq	$65280, %rax            # imm = 0xFF00
	shlq	$8, %rax
	movq	-72(%rbp), %rcx
	andq	$255, %rcx
	shlq	$24, %rcx
	orq	%rcx, %rax
	movq	-72(%rbp), %rcx
	andq	$16711680, %rcx         # imm = 0xFF0000
	shrq	$8, %rcx
	orq	%rcx, %rax
	movl	$4278190080, %ecx       # imm = 0xFF000000
	andq	-72(%rbp), %rcx
	shrq	$24, %rcx
	orq	%rcx, %rax
	movq	%rax, -88(%rbp)
	movq	-56(%rbp), %rax
	movl	-8(%rbp), %ecx
	subl	-12(%rbp), %ecx
	movl	-4(%rbp), %edx
	subl	24(%rbp), %edx
	imull	-20(%rbp), %edx
	addl	%edx, %ecx
	shll	$2, %ecx
	movslq	%ecx, %rcx
	movl	-88(%rbp), %edx
	movl	%edx, (%rax,%rcx)
# %bb.27:                               # %for.inc81
                                        #   in Loop: Header=BB40_25 Depth=2
	movl	-8(%rbp), %eax
	addl	$1, %eax
	movl	%eax, -8(%rbp)
	jmp	.LBB40_25
.LBB40_28:                              # %for.end83
                                        #   in Loop: Header=BB40_23 Depth=1
	jmp	.LBB40_29
.LBB40_29:                              # %for.inc84
                                        #   in Loop: Header=BB40_23 Depth=1
	movl	-4(%rbp), %eax
	addl	$1, %eax
	movl	%eax, -4(%rbp)
	jmp	.LBB40_23
.LBB40_30:                              # %for.end86
	jmp	.LBB40_32
.LBB40_31:                              # %sw.default
	movabsq	$.L.str, %rdi
	movl	$500, %esi              # imm = 0x1F4
	callq	error
.LBB40_32:                              # %sw.epilog
	jmp	.LBB40_45
.LBB40_33:                              # %if.else
	movslq	-28(%rbp), %rax
	movl	$2, %ecx
	cmpq	%rax, %rcx
	jae	.LBB40_35
# %bb.34:                               # %if.then90
	movl	$2, -40(%rbp)
	movq	-56(%rbp), %rdi
	movl	-20(%rbp), %eax
	imull	-76(%rbp), %eax
	imull	-28(%rbp), %eax
	movslq	%eax, %rdx
	xorl	%esi, %esi
	callq	memset
	jmp	.LBB40_36
.LBB40_35:                              # %if.else94
	movl	-28(%rbp), %eax
	movl	%eax, -40(%rbp)
.LBB40_36:                              # %if.end
	movl	24(%rbp), %eax
	movl	%eax, -4(%rbp)
.LBB40_37:                              # %for.cond95
                                        # =>This Loop Header: Depth=1
                                        #     Child Loop BB40_39 Depth 2
	movl	-4(%rbp), %eax
	movl	-24(%rbp), %ecx
	subl	32(%rbp), %ecx
	cmpl	%ecx, %eax
	jge	.LBB40_44
# %bb.38:                               # %for.body99
                                        #   in Loop: Header=BB40_37 Depth=1
	movl	-12(%rbp), %eax
	movl	%eax, -8(%rbp)
.LBB40_39:                              # %for.cond100
                                        #   Parent Loop BB40_37 Depth=1
                                        # =>  This Inner Loop Header: Depth=2
	movl	-8(%rbp), %eax
	movl	-32(%rbp), %ecx
	subl	16(%rbp), %ecx
	cmpl	%ecx, %eax
	jge	.LBB40_42
# %bb.40:                               # %for.body104
                                        #   in Loop: Header=BB40_39 Depth=2
	movq	-56(%rbp), %rdi
	movl	-8(%rbp), %eax
	subl	-12(%rbp), %eax
	movl	-4(%rbp), %ecx
	subl	24(%rbp), %ecx
	imull	-20(%rbp), %ecx
	addl	%ecx, %eax
	imull	-28(%rbp), %eax
	cltq
	addq	%rax, %rdi
	movq	-64(%rbp), %rax
	movslq	-4(%rbp), %rcx
	movq	(%rax,%rcx,8), %rsi
	movslq	-8(%rbp), %rax
	shlq	$1, %rax
	addq	%rax, %rsi
	movslq	-40(%rbp), %rdx
	callq	memcpy
# %bb.41:                               # %for.inc117
                                        #   in Loop: Header=BB40_39 Depth=2
	movl	-8(%rbp), %eax
	addl	$1, %eax
	movl	%eax, -8(%rbp)
	jmp	.LBB40_39
.LBB40_42:                              # %for.end119
                                        #   in Loop: Header=BB40_37 Depth=1
	jmp	.LBB40_43
.LBB40_43:                              # %for.inc120
                                        #   in Loop: Header=BB40_37 Depth=1
	movl	-4(%rbp), %eax
	addl	$1, %eax
	movl	%eax, -4(%rbp)
	jmp	.LBB40_37
.LBB40_44:                              # %for.end122
	jmp	.LBB40_45
.LBB40_45:                              # %if.end123
	cmpl	$855907299, -80(%rbp)   # imm = 0x33041BE3
	jne	.LBB40_47
.LBB40_46:
	addq	$96, %rsp
	popq	%rbp
	.cfi_def_cfa %rsp, 8
	retq
.LBB40_47:                              # %func_exit
	.cfi_def_cfa %rbp, 16
	callq	detect_breach
	jmp	.LBB40_46
.Lfunc_end40:
	.size	img2buf.30, .Lfunc_end40-img2buf.30
	.cfi_endproc
                                        # -- End function
	.globl	write_out_picture.31    # -- Begin function write_out_picture.31
	.p2align	4, 0x90
	.type	write_out_picture.31,@function
write_out_picture.31:                   # @write_out_picture.31
	.cfi_startproc
# %bb.0:                                # %entry
	pushq	%rbp
	.cfi_def_cfa_offset 16
	.cfi_offset %rbp, -16
	movq	%rsp, %rbp
	.cfi_def_cfa_register %rbp
	subq	$128, %rsp
	xorl	%ecx, %ecx
	movl	$1359439617, -52(%rbp)  # imm = 0x51076701
	movq	%rdi, -8(%rbp)
	movl	%esi, -44(%rbp)
	movq	.L__const.write_out_picture.SubWidthC, %rax
	movq	%rax, -80(%rbp)
	movq	.L__const.write_out_picture.SubWidthC+8, %rax
	movq	%rax, -72(%rbp)
	movq	.L__const.write_out_picture.SubHeightC, %rax
	movq	%rax, -96(%rbp)
	movq	.L__const.write_out_picture.SubHeightC+8, %rax
	movq	%rax, -88(%rbp)
	movq	img, %rax
	movl	72656(%rax), %eax
	cltd
	movl	$8, %esi
	idivl	%esi
	movl	%eax, -28(%rbp)
	movq	input, %rax
	cmpl	$0, 3312(%rax)
	je	.LBB41_2
# %bb.1:                                # %land.rhs
	movq	input, %rax
	cmpl	$3, 72(%rax)
	sete	%cl
.LBB41_2:                               # %land.end
	andb	$1, %cl
	movzbl	%cl, %eax
	movl	%eax, -48(%rbp)
	movq	-8(%rbp), %rax
	cmpl	$0, 6388(%rax)
	je	.LBB41_4
# %bb.3:                                # %if.then
	jmp	.LBB41_19
.LBB41_4:                               # %if.end
	movq	-8(%rbp), %rax
	cmpl	$0, 6560(%rax)
	je	.LBB41_6
# %bb.5:                                # %if.then3
	movq	-8(%rbp), %rax
	movslq	6552(%rax), %rax
	movl	-80(%rbp,%rax,4), %eax
	movq	-8(%rbp), %rcx
	imull	6564(%rcx), %eax
	movl	%eax, -20(%rbp)
	movq	-8(%rbp), %rax
	movslq	6552(%rax), %rax
	movl	-80(%rbp,%rax,4), %eax
	movq	-8(%rbp), %rcx
	imull	6568(%rcx), %eax
	movl	%eax, -16(%rbp)
	movq	-8(%rbp), %rax
	movslq	6552(%rax), %rax
	movl	-96(%rbp,%rax,4), %eax
	movq	-8(%rbp), %rcx
	movl	$2, %edx
	movl	$2, %esi
	subl	6556(%rcx), %esi
	imull	%esi, %eax
	movq	-8(%rbp), %rcx
	imull	6572(%rcx), %eax
	movl	%eax, -24(%rbp)
	movq	-8(%rbp), %rax
	movslq	6552(%rax), %rax
	movl	-96(%rbp,%rax,4), %eax
	movq	-8(%rbp), %rcx
	subl	6556(%rcx), %edx
	imull	%edx, %eax
	movq	-8(%rbp), %rcx
	imull	6576(%rcx), %eax
	movl	%eax, -12(%rbp)
	jmp	.LBB41_7
.LBB41_6:                               # %if.else
	movl	$0, -12(%rbp)
	movl	$0, -24(%rbp)
	movl	$0, -16(%rbp)
	movl	$0, -20(%rbp)
.LBB41_7:                               # %if.end20
	movq	-8(%rbp), %rax
	movl	6392(%rax), %eax
	movq	-8(%rbp), %rcx
	imull	6396(%rcx), %eax
	imull	-28(%rbp), %eax
	movslq	%eax, %rdi
	callq	malloc
	xorl	%ecx, %ecx
	movq	%rax, -40(%rbp)
	cmpq	%rax, %rcx
	jne	.LBB41_9
# %bb.8:                                # %if.then25
	movabsq	$.L.str.1, %rdi
	callq	no_mem_exit
.LBB41_9:                               # %if.end26
	cmpl	$0, -48(%rbp)
	je	.LBB41_14
# %bb.10:                               # %if.then28
	movq	-8(%rbp), %rax
	movl	6564(%rax), %eax
	movl	%eax, -20(%rbp)
	movq	-8(%rbp), %rax
	movl	6568(%rax), %eax
	movl	%eax, -16(%rbp)
	movq	-8(%rbp), %rax
	movl	$2, %ecx
	movl	$2, %edx
	subl	6556(%rax), %edx
	movq	-8(%rbp), %rax
	imull	6572(%rax), %edx
	movl	%edx, -24(%rbp)
	movq	-8(%rbp), %rax
	subl	6556(%rax), %ecx
	movq	-8(%rbp), %rax
	imull	6576(%rax), %ecx
	movl	%ecx, -12(%rbp)
	movq	-8(%rbp), %rax
	movq	6464(%rax), %rax
	movq	8(%rax), %rdi
	movq	-40(%rbp), %rsi
	movq	-8(%rbp), %rax
	movl	6400(%rax), %edx
	movq	-8(%rbp), %rax
	movl	6404(%rax), %ecx
	movl	-28(%rbp), %r8d
	movl	-20(%rbp), %r9d
	movl	-16(%rbp), %eax
	movl	-24(%rbp), %r10d
	movl	-12(%rbp), %r11d
	movl	%eax, (%rsp)
	movl	%r10d, 8(%rsp)
	movl	%r11d, 16(%rsp)
	callq	img2buf
	movl	-44(%rbp), %edi
	movq	-40(%rbp), %rsi
	movq	-8(%rbp), %rax
	movl	6404(%rax), %eax
	subl	-12(%rbp), %eax
	subl	-24(%rbp), %eax
	movq	-8(%rbp), %rcx
	movl	6400(%rcx), %ecx
	subl	-16(%rbp), %ecx
	subl	-20(%rbp), %ecx
	imull	%ecx, %eax
	imull	-28(%rbp), %eax
	movslq	%eax, %rdx
	callq	write
	movq	active_sps, %rax
	cmpl	$0, 1160(%rax)
	je	.LBB41_12
# %bb.11:                               # %if.then52
	movq	-8(%rbp), %rax
	movslq	6552(%rax), %rax
	movl	-80(%rbp,%rax,4), %eax
	movq	-8(%rbp), %rcx
	imull	6564(%rcx), %eax
	movl	%eax, -20(%rbp)
	movq	-8(%rbp), %rax
	movslq	6552(%rax), %rax
	movl	-80(%rbp,%rax,4), %eax
	movq	-8(%rbp), %rcx
	imull	6568(%rcx), %eax
	movl	%eax, -16(%rbp)
	movq	-8(%rbp), %rax
	movslq	6552(%rax), %rax
	movl	-96(%rbp,%rax,4), %eax
	movq	-8(%rbp), %rcx
	movl	$2, %edx
	movl	$2, %esi
	subl	6556(%rcx), %esi
	imull	%esi, %eax
	movq	-8(%rbp), %rcx
	imull	6572(%rcx), %eax
	movl	%eax, -24(%rbp)
	movq	-8(%rbp), %rax
	movslq	6552(%rax), %rax
	movl	-96(%rbp,%rax,4), %eax
	movq	-8(%rbp), %rcx
	subl	6556(%rcx), %edx
	imull	%edx, %eax
	movq	-8(%rbp), %rcx
	imull	6576(%rcx), %eax
	movl	%eax, -12(%rbp)
	jmp	.LBB41_13
.LBB41_12:                              # %if.else79
	movl	$0, -12(%rbp)
	movl	$0, -24(%rbp)
	movl	$0, -16(%rbp)
	movl	$0, -20(%rbp)
.LBB41_13:                              # %if.end80
	jmp	.LBB41_14
.LBB41_14:                              # %if.end81
	movq	-8(%rbp), %rax
	movq	6424(%rax), %rdi
	movq	-40(%rbp), %rsi
	movq	-8(%rbp), %rax
	movl	6392(%rax), %edx
	movq	-8(%rbp), %rax
	movl	6396(%rax), %ecx
	movl	-28(%rbp), %r8d
	movl	-20(%rbp), %r9d
	movl	-16(%rbp), %eax
	movl	-24(%rbp), %r10d
	movl	-12(%rbp), %r11d
	movl	%eax, (%rsp)
	movl	%r10d, 8(%rsp)
	movl	%r11d, 16(%rsp)
	callq	img2buf
	movl	-44(%rbp), %edi
	movq	-40(%rbp), %rsi
	movq	-8(%rbp), %rax
	movl	6396(%rax), %eax
	subl	-12(%rbp), %eax
	subl	-24(%rbp), %eax
	movq	-8(%rbp), %rcx
	movl	6392(%rcx), %ecx
	subl	-16(%rbp), %ecx
	subl	-20(%rbp), %ecx
	imull	%ecx, %eax
	imull	-28(%rbp), %eax
	movslq	%eax, %rdx
	callq	write
	movq	-8(%rbp), %rax
	cmpl	$0, 6552(%rax)
	je	.LBB41_18
# %bb.15:                               # %if.then97
	movq	-8(%rbp), %rax
	movl	6564(%rax), %eax
	movl	%eax, -20(%rbp)
	movq	-8(%rbp), %rax
	movl	6568(%rax), %eax
	movl	%eax, -16(%rbp)
	movq	-8(%rbp), %rax
	movl	$2, %ecx
	movl	$2, %edx
	subl	6556(%rax), %edx
	movq	-8(%rbp), %rax
	imull	6572(%rax), %edx
	movl	%edx, -24(%rbp)
	movq	-8(%rbp), %rax
	subl	6556(%rax), %ecx
	movq	-8(%rbp), %rax
	imull	6576(%rax), %ecx
	movl	%ecx, -12(%rbp)
	movq	-8(%rbp), %rax
	movq	6464(%rax), %rax
	movq	(%rax), %rdi
	movq	-40(%rbp), %rsi
	movq	-8(%rbp), %rax
	movl	6400(%rax), %edx
	movq	-8(%rbp), %rax
	movl	6404(%rax), %ecx
	movl	-28(%rbp), %r8d
	movl	-20(%rbp), %r9d
	movl	-16(%rbp), %eax
	movl	-24(%rbp), %r10d
	movl	-12(%rbp), %r11d
	movl	%eax, (%rsp)
	movl	%r10d, 8(%rsp)
	movl	%r11d, 16(%rsp)
	callq	img2buf
	movl	-44(%rbp), %edi
	movq	-40(%rbp), %rsi
	movq	-8(%rbp), %rax
	movl	6404(%rax), %eax
	subl	-12(%rbp), %eax
	subl	-24(%rbp), %eax
	movq	-8(%rbp), %rcx
	movl	6400(%rcx), %ecx
	subl	-16(%rbp), %ecx
	subl	-20(%rbp), %ecx
	imull	%ecx, %eax
	imull	-28(%rbp), %eax
	movslq	%eax, %rdx
	callq	write
	cmpl	$0, -48(%rbp)
	jne	.LBB41_17
# %bb.16:                               # %if.then123
	movq	-8(%rbp), %rax
	movq	6464(%rax), %rax
	movq	8(%rax), %rdi
	movq	-40(%rbp), %rsi
	movq	-8(%rbp), %rax
	movl	6400(%rax), %edx
	movq	-8(%rbp), %rax
	movl	6404(%rax), %ecx
	movl	-28(%rbp), %r8d
	movl	-20(%rbp), %r9d
	movl	-16(%rbp), %eax
	movl	-24(%rbp), %r10d
	movl	-12(%rbp), %r11d
	movl	%eax, (%rsp)
	movl	%r10d, 8(%rsp)
	movl	%r11d, 16(%rsp)
	callq	img2buf
	movl	-44(%rbp), %edi
	movq	-40(%rbp), %rsi
	movq	-8(%rbp), %rax
	movl	6404(%rax), %eax
	subl	-12(%rbp), %eax
	subl	-24(%rbp), %eax
	movq	-8(%rbp), %rcx
	movl	6400(%rcx), %ecx
	subl	-16(%rbp), %ecx
	subl	-20(%rbp), %ecx
	imull	%ecx, %eax
	imull	-28(%rbp), %eax
	movslq	%eax, %rdx
	callq	write
.LBB41_17:                              # %if.end138
	jmp	.LBB41_18
.LBB41_18:                              # %if.end139
	movq	-40(%rbp), %rdi
	callq	free
.LBB41_19:                              # %return
	cmpl	$1359439617, -52(%rbp)  # imm = 0x51076701
	jne	.LBB41_21
.LBB41_20:
	addq	$128, %rsp
	popq	%rbp
	.cfi_def_cfa %rsp, 8
	retq
.LBB41_21:                              # %func_exit
	.cfi_def_cfa %rbp, 16
	callq	detect_breach
	jmp	.LBB41_20
.Lfunc_end41:
	.size	write_out_picture.31, .Lfunc_end41-write_out_picture.31
	.cfi_endproc
                                        # -- End function
	.globl	write_unpaired_field.32 # -- Begin function write_unpaired_field.32
	.p2align	4, 0x90
	.type	write_unpaired_field.32,@function
write_unpaired_field.32:                # @write_unpaired_field.32
	.cfi_startproc
# %bb.0:                                # %entry
	pushq	%rbp
	.cfi_def_cfa_offset 16
	.cfi_offset %rbp, -16
	movq	%rsp, %rbp
	.cfi_def_cfa_register %rbp
	subq	$32, %rsp
	movl	$716435747, -24(%rbp)   # imm = 0x2AB3F123
	movq	%rdi, -8(%rbp)
	movl	%esi, -20(%rbp)
	movq	-8(%rbp), %rax
	movl	(%rax), %eax
	andl	$1, %eax
	cmpl	$0, %eax
	je	.LBB42_2
# %bb.1:                                # %if.then
	movq	-8(%rbp), %rax
	movq	48(%rax), %rax
	movq	%rax, -16(%rbp)
	movq	-16(%rbp), %rax
	movl	6392(%rax), %esi
	movq	-16(%rbp), %rax
	movl	6396(%rax), %edx
	movq	-16(%rbp), %rax
	movl	6400(%rax), %ecx
	movq	-16(%rbp), %rax
	movl	6404(%rax), %r8d
	movl	$2, %edi
	callq	alloc_storable_picture
	movq	-8(%rbp), %rcx
	movq	%rax, 56(%rcx)
	movq	-8(%rbp), %rax
	movq	56(%rax), %rdi
	callq	clear_picture
	movq	-8(%rbp), %rdi
	callq	dpb_combine_field
	movq	-8(%rbp), %rax
	movq	40(%rax), %rdi
	movl	-20(%rbp), %esi
	movl	$1, %edx
	callq	write_picture
.LBB42_2:                               # %if.end
	movq	-8(%rbp), %rax
	movl	(%rax), %eax
	andl	$2, %eax
	cmpl	$0, %eax
	je	.LBB42_4
# %bb.3:                                # %if.then5
	movq	-8(%rbp), %rax
	movq	56(%rax), %rax
	movq	%rax, -16(%rbp)
	movq	-16(%rbp), %rax
	movl	6392(%rax), %esi
	movq	-16(%rbp), %rax
	movl	6396(%rax), %edx
	movq	-16(%rbp), %rax
	movl	6400(%rax), %ecx
	movq	-16(%rbp), %rax
	movl	6404(%rax), %r8d
	movl	$1, %edi
	callq	alloc_storable_picture
	movq	-8(%rbp), %rcx
	movq	%rax, 48(%rcx)
	movq	-8(%rbp), %rax
	movq	48(%rax), %rdi
	callq	clear_picture
	movq	-8(%rbp), %rdi
	callq	dpb_combine_field
	movq	-8(%rbp), %rax
	movq	40(%rax), %rdi
	movl	-20(%rbp), %esi
	movl	$2, %edx
	callq	write_picture
.LBB42_4:                               # %if.end15
	movq	-8(%rbp), %rax
	movl	$3, (%rax)
	cmpl	$716435747, -24(%rbp)   # imm = 0x2AB3F123
	jne	.LBB42_6
.LBB42_5:
	addq	$32, %rsp
	popq	%rbp
	.cfi_def_cfa %rsp, 8
	retq
.LBB42_6:                               # %func_exit
	.cfi_def_cfa %rbp, 16
	callq	detect_breach
	jmp	.LBB42_5
.Lfunc_end42:
	.size	write_unpaired_field.32, .Lfunc_end42-write_unpaired_field.32
	.cfi_endproc
                                        # -- End function
	.globl	write_unpaired_field.33 # -- Begin function write_unpaired_field.33
	.p2align	4, 0x90
	.type	write_unpaired_field.33,@function
write_unpaired_field.33:                # @write_unpaired_field.33
	.cfi_startproc
# %bb.0:                                # %entry
	pushq	%rbp
	.cfi_def_cfa_offset 16
	.cfi_offset %rbp, -16
	movq	%rsp, %rbp
	.cfi_def_cfa_register %rbp
	subq	$32, %rsp
	movl	$1180854733, -24(%rbp)  # imm = 0x466269CD
	movq	%rdi, -8(%rbp)
	movl	%esi, -20(%rbp)
	movq	-8(%rbp), %rax
	movl	(%rax), %eax
	andl	$1, %eax
	cmpl	$0, %eax
	je	.LBB43_2
# %bb.1:                                # %if.then
	movq	-8(%rbp), %rax
	movq	48(%rax), %rax
	movq	%rax, -16(%rbp)
	movq	-16(%rbp), %rax
	movl	6392(%rax), %esi
	movq	-16(%rbp), %rax
	movl	6396(%rax), %edx
	movq	-16(%rbp), %rax
	movl	6400(%rax), %ecx
	movq	-16(%rbp), %rax
	movl	6404(%rax), %r8d
	movl	$2, %edi
	callq	alloc_storable_picture
	movq	-8(%rbp), %rcx
	movq	%rax, 56(%rcx)
	movq	-8(%rbp), %rax
	movq	56(%rax), %rdi
	callq	clear_picture
	movq	-8(%rbp), %rdi
	callq	dpb_combine_field
	movq	-8(%rbp), %rax
	movq	40(%rax), %rdi
	movl	-20(%rbp), %esi
	movl	$1, %edx
	callq	write_picture
.LBB43_2:                               # %if.end
	movq	-8(%rbp), %rax
	movl	(%rax), %eax
	andl	$2, %eax
	cmpl	$0, %eax
	je	.LBB43_4
# %bb.3:                                # %if.then5
	movq	-8(%rbp), %rax
	movq	56(%rax), %rax
	movq	%rax, -16(%rbp)
	movq	-16(%rbp), %rax
	movl	6392(%rax), %esi
	movq	-16(%rbp), %rax
	movl	6396(%rax), %edx
	movq	-16(%rbp), %rax
	movl	6400(%rax), %ecx
	movq	-16(%rbp), %rax
	movl	6404(%rax), %r8d
	movl	$1, %edi
	callq	alloc_storable_picture
	movq	-8(%rbp), %rcx
	movq	%rax, 48(%rcx)
	movq	-8(%rbp), %rax
	movq	48(%rax), %rdi
	callq	clear_picture
	movq	-8(%rbp), %rdi
	callq	dpb_combine_field
	movq	-8(%rbp), %rax
	movq	40(%rax), %rdi
	movl	-20(%rbp), %esi
	movl	$2, %edx
	callq	write_picture
.LBB43_4:                               # %if.end15
	movq	-8(%rbp), %rax
	movl	$3, (%rax)
	cmpl	$1180854733, -24(%rbp)  # imm = 0x466269CD
	jne	.LBB43_6
.LBB43_5:
	addq	$32, %rsp
	popq	%rbp
	.cfi_def_cfa %rsp, 8
	retq
.LBB43_6:                               # %func_exit
	.cfi_def_cfa %rbp, 16
	callq	detect_breach
	jmp	.LBB43_5
.Lfunc_end43:
	.size	write_unpaired_field.33, .Lfunc_end43-write_unpaired_field.33
	.cfi_endproc
                                        # -- End function
	.globl	write_unpaired_field.34 # -- Begin function write_unpaired_field.34
	.p2align	4, 0x90
	.type	write_unpaired_field.34,@function
write_unpaired_field.34:                # @write_unpaired_field.34
	.cfi_startproc
# %bb.0:                                # %entry
	pushq	%rbp
	.cfi_def_cfa_offset 16
	.cfi_offset %rbp, -16
	movq	%rsp, %rbp
	.cfi_def_cfa_register %rbp
	subq	$32, %rsp
	movl	$1749037017, -24(%rbp)  # imm = 0x68402FD9
	movq	%rdi, -8(%rbp)
	movl	%esi, -20(%rbp)
	movq	-8(%rbp), %rax
	movl	(%rax), %eax
	andl	$1, %eax
	cmpl	$0, %eax
	je	.LBB44_2
# %bb.1:                                # %if.then
	movq	-8(%rbp), %rax
	movq	48(%rax), %rax
	movq	%rax, -16(%rbp)
	movq	-16(%rbp), %rax
	movl	6392(%rax), %esi
	movq	-16(%rbp), %rax
	movl	6396(%rax), %edx
	movq	-16(%rbp), %rax
	movl	6400(%rax), %ecx
	movq	-16(%rbp), %rax
	movl	6404(%rax), %r8d
	movl	$2, %edi
	callq	alloc_storable_picture
	movq	-8(%rbp), %rcx
	movq	%rax, 56(%rcx)
	movq	-8(%rbp), %rax
	movq	56(%rax), %rdi
	callq	clear_picture
	movq	-8(%rbp), %rdi
	callq	dpb_combine_field
	movq	-8(%rbp), %rax
	movq	40(%rax), %rdi
	movl	-20(%rbp), %esi
	movl	$1, %edx
	callq	write_picture
.LBB44_2:                               # %if.end
	movq	-8(%rbp), %rax
	movl	(%rax), %eax
	andl	$2, %eax
	cmpl	$0, %eax
	je	.LBB44_4
# %bb.3:                                # %if.then5
	movq	-8(%rbp), %rax
	movq	56(%rax), %rax
	movq	%rax, -16(%rbp)
	movq	-16(%rbp), %rax
	movl	6392(%rax), %esi
	movq	-16(%rbp), %rax
	movl	6396(%rax), %edx
	movq	-16(%rbp), %rax
	movl	6400(%rax), %ecx
	movq	-16(%rbp), %rax
	movl	6404(%rax), %r8d
	movl	$1, %edi
	callq	alloc_storable_picture
	movq	-8(%rbp), %rcx
	movq	%rax, 48(%rcx)
	movq	-8(%rbp), %rax
	movq	48(%rax), %rdi
	callq	clear_picture
	movq	-8(%rbp), %rdi
	callq	dpb_combine_field
	movq	-8(%rbp), %rax
	movq	40(%rax), %rdi
	movl	-20(%rbp), %esi
	movl	$2, %edx
	callq	write_picture
.LBB44_4:                               # %if.end15
	movq	-8(%rbp), %rax
	movl	$3, (%rax)
	cmpl	$1749037017, -24(%rbp)  # imm = 0x68402FD9
	jne	.LBB44_6
.LBB44_5:
	addq	$32, %rsp
	popq	%rbp
	.cfi_def_cfa %rsp, 8
	retq
.LBB44_6:                               # %func_exit
	.cfi_def_cfa %rbp, 16
	callq	detect_breach
	jmp	.LBB44_5
.Lfunc_end44:
	.size	write_unpaired_field.34, .Lfunc_end44-write_unpaired_field.34
	.cfi_endproc
                                        # -- End function
	.globl	img2buf.35              # -- Begin function img2buf.35
	.p2align	4, 0x90
	.type	img2buf.35,@function
img2buf.35:                             # @img2buf.35
	.cfi_startproc
# %bb.0:                                # %entry
	pushq	%rbp
	.cfi_def_cfa_offset 16
	.cfi_offset %rbp, -16
	movq	%rsp, %rbp
	.cfi_def_cfa_register %rbp
	subq	$96, %rsp
	movl	32(%rbp), %eax
	movl	24(%rbp), %eax
	movl	16(%rbp), %eax
	movl	$1974396627, -76(%rbp)  # imm = 0x75AEE6D3
	movq	%rdi, -64(%rbp)
	movq	%rsi, -56(%rbp)
	movl	%edx, -32(%rbp)
	movl	%ecx, -20(%rbp)
	movl	%r8d, -24(%rbp)
	movl	%r9d, -12(%rbp)
	movl	-32(%rbp), %eax
	subl	-12(%rbp), %eax
	subl	16(%rbp), %eax
	movl	%eax, -28(%rbp)
	movl	-20(%rbp), %eax
	subl	24(%rbp), %eax
	subl	32(%rbp), %eax
	movl	%eax, -80(%rbp)
	movl	$0, -40(%rbp)
	callq	testEndian
	cmpl	$0, %eax
	je	.LBB45_33
# %bb.1:                                # %if.then
	movl	-24(%rbp), %eax
	movl	%eax, %ecx
	subl	$1, %ecx
	je	.LBB45_4
	jmp	.LBB45_2
.LBB45_2:                               # %if.then
	movl	%eax, %ecx
	subl	$2, %ecx
	je	.LBB45_13
	jmp	.LBB45_3
.LBB45_3:                               # %if.then
	subl	$4, %eax
	je	.LBB45_22
	jmp	.LBB45_31
.LBB45_4:                               # %sw.bb
	movl	24(%rbp), %eax
	movl	%eax, -8(%rbp)
.LBB45_5:                               # %for.cond
                                        # =>This Loop Header: Depth=1
                                        #     Child Loop BB45_7 Depth 2
	movl	-8(%rbp), %eax
	movl	-20(%rbp), %ecx
	subl	32(%rbp), %ecx
	cmpl	%ecx, %eax
	jge	.LBB45_12
# %bb.6:                                # %for.body
                                        #   in Loop: Header=BB45_5 Depth=1
	movl	-12(%rbp), %eax
	movl	%eax, -4(%rbp)
.LBB45_7:                               # %for.cond5
                                        #   Parent Loop BB45_5 Depth=1
                                        # =>  This Inner Loop Header: Depth=2
	movl	-4(%rbp), %eax
	movl	-32(%rbp), %ecx
	subl	16(%rbp), %ecx
	cmpl	%ecx, %eax
	jge	.LBB45_10
# %bb.8:                                # %for.body8
                                        #   in Loop: Header=BB45_7 Depth=2
	movq	-64(%rbp), %rax
	movslq	-8(%rbp), %rcx
	movq	(%rax,%rcx,8), %rax
	movslq	-4(%rbp), %rcx
	movw	(%rax,%rcx,2), %ax
	movb	%al, -13(%rbp)
	movb	-13(%rbp), %al
	movq	-56(%rbp), %rcx
	movl	-4(%rbp), %edx
	subl	-12(%rbp), %edx
	movl	-8(%rbp), %esi
	subl	24(%rbp), %esi
	imull	-28(%rbp), %esi
	addl	%esi, %edx
	movslq	%edx, %rdx
	movb	%al, (%rcx,%rdx)
# %bb.9:                                # %for.inc
                                        #   in Loop: Header=BB45_7 Depth=2
	movl	-4(%rbp), %eax
	addl	$1, %eax
	movl	%eax, -4(%rbp)
	jmp	.LBB45_7
.LBB45_10:                              # %for.end
                                        #   in Loop: Header=BB45_5 Depth=1
	jmp	.LBB45_11
.LBB45_11:                              # %for.inc15
                                        #   in Loop: Header=BB45_5 Depth=1
	movl	-8(%rbp), %eax
	addl	$1, %eax
	movl	%eax, -8(%rbp)
	jmp	.LBB45_5
.LBB45_12:                              # %for.end17
	jmp	.LBB45_32
.LBB45_13:                              # %sw.bb18
	movl	24(%rbp), %eax
	movl	%eax, -8(%rbp)
.LBB45_14:                              # %for.cond19
                                        # =>This Loop Header: Depth=1
                                        #     Child Loop BB45_16 Depth 2
	movl	-8(%rbp), %eax
	movl	-20(%rbp), %ecx
	subl	32(%rbp), %ecx
	cmpl	%ecx, %eax
	jge	.LBB45_21
# %bb.15:                               # %for.body23
                                        #   in Loop: Header=BB45_14 Depth=1
	movl	-12(%rbp), %eax
	movl	%eax, -4(%rbp)
.LBB45_16:                              # %for.cond24
                                        #   Parent Loop BB45_14 Depth=1
                                        # =>  This Inner Loop Header: Depth=2
	movl	-4(%rbp), %eax
	movl	-32(%rbp), %ecx
	subl	16(%rbp), %ecx
	cmpl	%ecx, %eax
	jge	.LBB45_19
# %bb.17:                               # %for.body28
                                        #   in Loop: Header=BB45_16 Depth=2
	movq	-64(%rbp), %rax
	movslq	-8(%rbp), %rcx
	movq	(%rax,%rcx,8), %rax
	movslq	-4(%rbp), %rcx
	movw	(%rax,%rcx,2), %ax
	movw	%ax, -34(%rbp)
	movzwl	-34(%rbp), %eax
	sarl	$8, %eax
	movzwl	-34(%rbp), %ecx
	andl	$255, %ecx
	shll	$8, %ecx
	orl	%ecx, %eax
	movw	%ax, -42(%rbp)
	movq	-56(%rbp), %rax
	movl	-4(%rbp), %ecx
	subl	-12(%rbp), %ecx
	movl	-8(%rbp), %edx
	subl	24(%rbp), %edx
	imull	-28(%rbp), %edx
	addl	%edx, %ecx
	shll	$1, %ecx
	movslq	%ecx, %rcx
	movw	-42(%rbp), %dx
	movw	%dx, (%rax,%rcx)
# %bb.18:                               # %for.inc41
                                        #   in Loop: Header=BB45_16 Depth=2
	movl	-4(%rbp), %eax
	addl	$1, %eax
	movl	%eax, -4(%rbp)
	jmp	.LBB45_16
.LBB45_19:                              # %for.end43
                                        #   in Loop: Header=BB45_14 Depth=1
	jmp	.LBB45_20
.LBB45_20:                              # %for.inc44
                                        #   in Loop: Header=BB45_14 Depth=1
	movl	-8(%rbp), %eax
	addl	$1, %eax
	movl	%eax, -8(%rbp)
	jmp	.LBB45_14
.LBB45_21:                              # %for.end46
	jmp	.LBB45_32
.LBB45_22:                              # %sw.bb47
	movl	24(%rbp), %eax
	movl	%eax, -8(%rbp)
.LBB45_23:                              # %for.cond48
                                        # =>This Loop Header: Depth=1
                                        #     Child Loop BB45_25 Depth 2
	movl	-8(%rbp), %eax
	movl	-20(%rbp), %ecx
	subl	32(%rbp), %ecx
	cmpl	%ecx, %eax
	jge	.LBB45_30
# %bb.24:                               # %for.body52
                                        #   in Loop: Header=BB45_23 Depth=1
	movl	-12(%rbp), %eax
	movl	%eax, -4(%rbp)
.LBB45_25:                              # %for.cond53
                                        #   Parent Loop BB45_23 Depth=1
                                        # =>  This Inner Loop Header: Depth=2
	movl	-4(%rbp), %eax
	movl	-32(%rbp), %ecx
	subl	16(%rbp), %ecx
	cmpl	%ecx, %eax
	jge	.LBB45_28
# %bb.26:                               # %for.body57
                                        #   in Loop: Header=BB45_25 Depth=2
	movq	-64(%rbp), %rax
	movslq	-8(%rbp), %rcx
	movq	(%rax,%rcx,8), %rax
	movslq	-4(%rbp), %rcx
	movzwl	(%rax,%rcx,2), %eax
	movq	%rax, -72(%rbp)
	movq	-72(%rbp), %rax
	andq	$65280, %rax            # imm = 0xFF00
	shlq	$8, %rax
	movq	-72(%rbp), %rcx
	andq	$255, %rcx
	shlq	$24, %rcx
	orq	%rcx, %rax
	movq	-72(%rbp), %rcx
	andq	$16711680, %rcx         # imm = 0xFF0000
	shrq	$8, %rcx
	orq	%rcx, %rax
	movl	$4278190080, %ecx       # imm = 0xFF000000
	andq	-72(%rbp), %rcx
	shrq	$24, %rcx
	orq	%rcx, %rax
	movq	%rax, -88(%rbp)
	movq	-56(%rbp), %rax
	movl	-4(%rbp), %ecx
	subl	-12(%rbp), %ecx
	movl	-8(%rbp), %edx
	subl	24(%rbp), %edx
	imull	-28(%rbp), %edx
	addl	%edx, %ecx
	shll	$2, %ecx
	movslq	%ecx, %rcx
	movl	-88(%rbp), %edx
	movl	%edx, (%rax,%rcx)
# %bb.27:                               # %for.inc81
                                        #   in Loop: Header=BB45_25 Depth=2
	movl	-4(%rbp), %eax
	addl	$1, %eax
	movl	%eax, -4(%rbp)
	jmp	.LBB45_25
.LBB45_28:                              # %for.end83
                                        #   in Loop: Header=BB45_23 Depth=1
	jmp	.LBB45_29
.LBB45_29:                              # %for.inc84
                                        #   in Loop: Header=BB45_23 Depth=1
	movl	-8(%rbp), %eax
	addl	$1, %eax
	movl	%eax, -8(%rbp)
	jmp	.LBB45_23
.LBB45_30:                              # %for.end86
	jmp	.LBB45_32
.LBB45_31:                              # %sw.default
	movabsq	$.L.str, %rdi
	movl	$500, %esi              # imm = 0x1F4
	callq	error
.LBB45_32:                              # %sw.epilog
	jmp	.LBB45_45
.LBB45_33:                              # %if.else
	movslq	-24(%rbp), %rax
	movl	$2, %ecx
	cmpq	%rax, %rcx
	jae	.LBB45_35
# %bb.34:                               # %if.then90
	movl	$2, -40(%rbp)
	movq	-56(%rbp), %rdi
	movl	-28(%rbp), %eax
	imull	-80(%rbp), %eax
	imull	-24(%rbp), %eax
	movslq	%eax, %rdx
	xorl	%esi, %esi
	callq	memset
	jmp	.LBB45_36
.LBB45_35:                              # %if.else94
	movl	-24(%rbp), %eax
	movl	%eax, -40(%rbp)
.LBB45_36:                              # %if.end
	movl	24(%rbp), %eax
	movl	%eax, -8(%rbp)
.LBB45_37:                              # %for.cond95
                                        # =>This Loop Header: Depth=1
                                        #     Child Loop BB45_39 Depth 2
	movl	-8(%rbp), %eax
	movl	-20(%rbp), %ecx
	subl	32(%rbp), %ecx
	cmpl	%ecx, %eax
	jge	.LBB45_44
# %bb.38:                               # %for.body99
                                        #   in Loop: Header=BB45_37 Depth=1
	movl	-12(%rbp), %eax
	movl	%eax, -4(%rbp)
.LBB45_39:                              # %for.cond100
                                        #   Parent Loop BB45_37 Depth=1
                                        # =>  This Inner Loop Header: Depth=2
	movl	-4(%rbp), %eax
	movl	-32(%rbp), %ecx
	subl	16(%rbp), %ecx
	cmpl	%ecx, %eax
	jge	.LBB45_42
# %bb.40:                               # %for.body104
                                        #   in Loop: Header=BB45_39 Depth=2
	movq	-56(%rbp), %rdi
	movl	-4(%rbp), %eax
	subl	-12(%rbp), %eax
	movl	-8(%rbp), %ecx
	subl	24(%rbp), %ecx
	imull	-28(%rbp), %ecx
	addl	%ecx, %eax
	imull	-24(%rbp), %eax
	cltq
	addq	%rax, %rdi
	movq	-64(%rbp), %rax
	movslq	-8(%rbp), %rcx
	movq	(%rax,%rcx,8), %rsi
	movslq	-4(%rbp), %rax
	shlq	$1, %rax
	addq	%rax, %rsi
	movslq	-40(%rbp), %rdx
	callq	memcpy
# %bb.41:                               # %for.inc117
                                        #   in Loop: Header=BB45_39 Depth=2
	movl	-4(%rbp), %eax
	addl	$1, %eax
	movl	%eax, -4(%rbp)
	jmp	.LBB45_39
.LBB45_42:                              # %for.end119
                                        #   in Loop: Header=BB45_37 Depth=1
	jmp	.LBB45_43
.LBB45_43:                              # %for.inc120
                                        #   in Loop: Header=BB45_37 Depth=1
	movl	-8(%rbp), %eax
	addl	$1, %eax
	movl	%eax, -8(%rbp)
	jmp	.LBB45_37
.LBB45_44:                              # %for.end122
	jmp	.LBB45_45
.LBB45_45:                              # %if.end123
	cmpl	$1974396627, -76(%rbp)  # imm = 0x75AEE6D3
	jne	.LBB45_47
.LBB45_46:
	addq	$96, %rsp
	popq	%rbp
	.cfi_def_cfa %rsp, 8
	retq
.LBB45_47:                              # %func_exit
	.cfi_def_cfa %rbp, 16
	callq	detect_breach
	jmp	.LBB45_46
.Lfunc_end45:
	.size	img2buf.35, .Lfunc_end45-img2buf.35
	.cfi_endproc
                                        # -- End function
	.globl	write_out_picture.36    # -- Begin function write_out_picture.36
	.p2align	4, 0x90
	.type	write_out_picture.36,@function
write_out_picture.36:                   # @write_out_picture.36
	.cfi_startproc
# %bb.0:                                # %entry
	pushq	%rbp
	.cfi_def_cfa_offset 16
	.cfi_offset %rbp, -16
	movq	%rsp, %rbp
	.cfi_def_cfa_register %rbp
	subq	$128, %rsp
	xorl	%ecx, %ecx
	movl	$828408658, -52(%rbp)   # imm = 0x31608352
	movq	%rdi, -8(%rbp)
	movl	%esi, -44(%rbp)
	movq	.L__const.write_out_picture.SubWidthC, %rax
	movq	%rax, -80(%rbp)
	movq	.L__const.write_out_picture.SubWidthC+8, %rax
	movq	%rax, -72(%rbp)
	movq	.L__const.write_out_picture.SubHeightC, %rax
	movq	%rax, -96(%rbp)
	movq	.L__const.write_out_picture.SubHeightC+8, %rax
	movq	%rax, -88(%rbp)
	movq	img, %rax
	movl	72656(%rax), %eax
	cltd
	movl	$8, %esi
	idivl	%esi
	movl	%eax, -28(%rbp)
	movq	input, %rax
	cmpl	$0, 3312(%rax)
	je	.LBB46_2
# %bb.1:                                # %land.rhs
	movq	input, %rax
	cmpl	$3, 72(%rax)
	sete	%cl
.LBB46_2:                               # %land.end
	andb	$1, %cl
	movzbl	%cl, %eax
	movl	%eax, -48(%rbp)
	movq	-8(%rbp), %rax
	cmpl	$0, 6388(%rax)
	je	.LBB46_4
# %bb.3:                                # %if.then
	jmp	.LBB46_19
.LBB46_4:                               # %if.end
	movq	-8(%rbp), %rax
	cmpl	$0, 6560(%rax)
	je	.LBB46_6
# %bb.5:                                # %if.then3
	movq	-8(%rbp), %rax
	movslq	6552(%rax), %rax
	movl	-80(%rbp,%rax,4), %eax
	movq	-8(%rbp), %rcx
	imull	6564(%rcx), %eax
	movl	%eax, -20(%rbp)
	movq	-8(%rbp), %rax
	movslq	6552(%rax), %rax
	movl	-80(%rbp,%rax,4), %eax
	movq	-8(%rbp), %rcx
	imull	6568(%rcx), %eax
	movl	%eax, -16(%rbp)
	movq	-8(%rbp), %rax
	movslq	6552(%rax), %rax
	movl	-96(%rbp,%rax,4), %eax
	movq	-8(%rbp), %rcx
	movl	$2, %edx
	movl	$2, %esi
	subl	6556(%rcx), %esi
	imull	%esi, %eax
	movq	-8(%rbp), %rcx
	imull	6572(%rcx), %eax
	movl	%eax, -12(%rbp)
	movq	-8(%rbp), %rax
	movslq	6552(%rax), %rax
	movl	-96(%rbp,%rax,4), %eax
	movq	-8(%rbp), %rcx
	subl	6556(%rcx), %edx
	imull	%edx, %eax
	movq	-8(%rbp), %rcx
	imull	6576(%rcx), %eax
	movl	%eax, -24(%rbp)
	jmp	.LBB46_7
.LBB46_6:                               # %if.else
	movl	$0, -24(%rbp)
	movl	$0, -12(%rbp)
	movl	$0, -16(%rbp)
	movl	$0, -20(%rbp)
.LBB46_7:                               # %if.end20
	movq	-8(%rbp), %rax
	movl	6392(%rax), %eax
	movq	-8(%rbp), %rcx
	imull	6396(%rcx), %eax
	imull	-28(%rbp), %eax
	movslq	%eax, %rdi
	callq	malloc
	xorl	%ecx, %ecx
	movq	%rax, -40(%rbp)
	cmpq	%rax, %rcx
	jne	.LBB46_9
# %bb.8:                                # %if.then25
	movabsq	$.L.str.1, %rdi
	callq	no_mem_exit
.LBB46_9:                               # %if.end26
	cmpl	$0, -48(%rbp)
	je	.LBB46_14
# %bb.10:                               # %if.then28
	movq	-8(%rbp), %rax
	movl	6564(%rax), %eax
	movl	%eax, -20(%rbp)
	movq	-8(%rbp), %rax
	movl	6568(%rax), %eax
	movl	%eax, -16(%rbp)
	movq	-8(%rbp), %rax
	movl	$2, %ecx
	movl	$2, %edx
	subl	6556(%rax), %edx
	movq	-8(%rbp), %rax
	imull	6572(%rax), %edx
	movl	%edx, -12(%rbp)
	movq	-8(%rbp), %rax
	subl	6556(%rax), %ecx
	movq	-8(%rbp), %rax
	imull	6576(%rax), %ecx
	movl	%ecx, -24(%rbp)
	movq	-8(%rbp), %rax
	movq	6464(%rax), %rax
	movq	8(%rax), %rdi
	movq	-40(%rbp), %rsi
	movq	-8(%rbp), %rax
	movl	6400(%rax), %edx
	movq	-8(%rbp), %rax
	movl	6404(%rax), %ecx
	movl	-28(%rbp), %r8d
	movl	-20(%rbp), %r9d
	movl	-16(%rbp), %eax
	movl	-12(%rbp), %r10d
	movl	-24(%rbp), %r11d
	movl	%eax, (%rsp)
	movl	%r10d, 8(%rsp)
	movl	%r11d, 16(%rsp)
	callq	img2buf
	movl	-44(%rbp), %edi
	movq	-40(%rbp), %rsi
	movq	-8(%rbp), %rax
	movl	6404(%rax), %eax
	subl	-24(%rbp), %eax
	subl	-12(%rbp), %eax
	movq	-8(%rbp), %rcx
	movl	6400(%rcx), %ecx
	subl	-16(%rbp), %ecx
	subl	-20(%rbp), %ecx
	imull	%ecx, %eax
	imull	-28(%rbp), %eax
	movslq	%eax, %rdx
	callq	write
	movq	active_sps, %rax
	cmpl	$0, 1160(%rax)
	je	.LBB46_12
# %bb.11:                               # %if.then52
	movq	-8(%rbp), %rax
	movslq	6552(%rax), %rax
	movl	-80(%rbp,%rax,4), %eax
	movq	-8(%rbp), %rcx
	imull	6564(%rcx), %eax
	movl	%eax, -20(%rbp)
	movq	-8(%rbp), %rax
	movslq	6552(%rax), %rax
	movl	-80(%rbp,%rax,4), %eax
	movq	-8(%rbp), %rcx
	imull	6568(%rcx), %eax
	movl	%eax, -16(%rbp)
	movq	-8(%rbp), %rax
	movslq	6552(%rax), %rax
	movl	-96(%rbp,%rax,4), %eax
	movq	-8(%rbp), %rcx
	movl	$2, %edx
	movl	$2, %esi
	subl	6556(%rcx), %esi
	imull	%esi, %eax
	movq	-8(%rbp), %rcx
	imull	6572(%rcx), %eax
	movl	%eax, -12(%rbp)
	movq	-8(%rbp), %rax
	movslq	6552(%rax), %rax
	movl	-96(%rbp,%rax,4), %eax
	movq	-8(%rbp), %rcx
	subl	6556(%rcx), %edx
	imull	%edx, %eax
	movq	-8(%rbp), %rcx
	imull	6576(%rcx), %eax
	movl	%eax, -24(%rbp)
	jmp	.LBB46_13
.LBB46_12:                              # %if.else79
	movl	$0, -24(%rbp)
	movl	$0, -12(%rbp)
	movl	$0, -16(%rbp)
	movl	$0, -20(%rbp)
.LBB46_13:                              # %if.end80
	jmp	.LBB46_14
.LBB46_14:                              # %if.end81
	movq	-8(%rbp), %rax
	movq	6424(%rax), %rdi
	movq	-40(%rbp), %rsi
	movq	-8(%rbp), %rax
	movl	6392(%rax), %edx
	movq	-8(%rbp), %rax
	movl	6396(%rax), %ecx
	movl	-28(%rbp), %r8d
	movl	-20(%rbp), %r9d
	movl	-16(%rbp), %eax
	movl	-12(%rbp), %r10d
	movl	-24(%rbp), %r11d
	movl	%eax, (%rsp)
	movl	%r10d, 8(%rsp)
	movl	%r11d, 16(%rsp)
	callq	img2buf
	movl	-44(%rbp), %edi
	movq	-40(%rbp), %rsi
	movq	-8(%rbp), %rax
	movl	6396(%rax), %eax
	subl	-24(%rbp), %eax
	subl	-12(%rbp), %eax
	movq	-8(%rbp), %rcx
	movl	6392(%rcx), %ecx
	subl	-16(%rbp), %ecx
	subl	-20(%rbp), %ecx
	imull	%ecx, %eax
	imull	-28(%rbp), %eax
	movslq	%eax, %rdx
	callq	write
	movq	-8(%rbp), %rax
	cmpl	$0, 6552(%rax)
	je	.LBB46_18
# %bb.15:                               # %if.then97
	movq	-8(%rbp), %rax
	movl	6564(%rax), %eax
	movl	%eax, -20(%rbp)
	movq	-8(%rbp), %rax
	movl	6568(%rax), %eax
	movl	%eax, -16(%rbp)
	movq	-8(%rbp), %rax
	movl	$2, %ecx
	movl	$2, %edx
	subl	6556(%rax), %edx
	movq	-8(%rbp), %rax
	imull	6572(%rax), %edx
	movl	%edx, -12(%rbp)
	movq	-8(%rbp), %rax
	subl	6556(%rax), %ecx
	movq	-8(%rbp), %rax
	imull	6576(%rax), %ecx
	movl	%ecx, -24(%rbp)
	movq	-8(%rbp), %rax
	movq	6464(%rax), %rax
	movq	(%rax), %rdi
	movq	-40(%rbp), %rsi
	movq	-8(%rbp), %rax
	movl	6400(%rax), %edx
	movq	-8(%rbp), %rax
	movl	6404(%rax), %ecx
	movl	-28(%rbp), %r8d
	movl	-20(%rbp), %r9d
	movl	-16(%rbp), %eax
	movl	-12(%rbp), %r10d
	movl	-24(%rbp), %r11d
	movl	%eax, (%rsp)
	movl	%r10d, 8(%rsp)
	movl	%r11d, 16(%rsp)
	callq	img2buf
	movl	-44(%rbp), %edi
	movq	-40(%rbp), %rsi
	movq	-8(%rbp), %rax
	movl	6404(%rax), %eax
	subl	-24(%rbp), %eax
	subl	-12(%rbp), %eax
	movq	-8(%rbp), %rcx
	movl	6400(%rcx), %ecx
	subl	-16(%rbp), %ecx
	subl	-20(%rbp), %ecx
	imull	%ecx, %eax
	imull	-28(%rbp), %eax
	movslq	%eax, %rdx
	callq	write
	cmpl	$0, -48(%rbp)
	jne	.LBB46_17
# %bb.16:                               # %if.then123
	movq	-8(%rbp), %rax
	movq	6464(%rax), %rax
	movq	8(%rax), %rdi
	movq	-40(%rbp), %rsi
	movq	-8(%rbp), %rax
	movl	6400(%rax), %edx
	movq	-8(%rbp), %rax
	movl	6404(%rax), %ecx
	movl	-28(%rbp), %r8d
	movl	-20(%rbp), %r9d
	movl	-16(%rbp), %eax
	movl	-12(%rbp), %r10d
	movl	-24(%rbp), %r11d
	movl	%eax, (%rsp)
	movl	%r10d, 8(%rsp)
	movl	%r11d, 16(%rsp)
	callq	img2buf
	movl	-44(%rbp), %edi
	movq	-40(%rbp), %rsi
	movq	-8(%rbp), %rax
	movl	6404(%rax), %eax
	subl	-24(%rbp), %eax
	subl	-12(%rbp), %eax
	movq	-8(%rbp), %rcx
	movl	6400(%rcx), %ecx
	subl	-16(%rbp), %ecx
	subl	-20(%rbp), %ecx
	imull	%ecx, %eax
	imull	-28(%rbp), %eax
	movslq	%eax, %rdx
	callq	write
.LBB46_17:                              # %if.end138
	jmp	.LBB46_18
.LBB46_18:                              # %if.end139
	movq	-40(%rbp), %rdi
	callq	free
.LBB46_19:                              # %return
	cmpl	$828408658, -52(%rbp)   # imm = 0x31608352
	jne	.LBB46_21
.LBB46_20:
	addq	$128, %rsp
	popq	%rbp
	.cfi_def_cfa %rsp, 8
	retq
.LBB46_21:                              # %func_exit
	.cfi_def_cfa %rbp, 16
	callq	detect_breach
	jmp	.LBB46_20
.Lfunc_end46:
	.size	write_out_picture.36, .Lfunc_end46-write_out_picture.36
	.cfi_endproc
                                        # -- End function
	.globl	write_out_picture.37    # -- Begin function write_out_picture.37
	.p2align	4, 0x90
	.type	write_out_picture.37,@function
write_out_picture.37:                   # @write_out_picture.37
	.cfi_startproc
# %bb.0:                                # %entry
	pushq	%rbp
	.cfi_def_cfa_offset 16
	.cfi_offset %rbp, -16
	movq	%rsp, %rbp
	.cfi_def_cfa_register %rbp
	subq	$128, %rsp
	xorl	%ecx, %ecx
	movl	$39116465, -52(%rbp)    # imm = 0x254DEB1
	movq	%rdi, -8(%rbp)
	movl	%esi, -44(%rbp)
	movq	.L__const.write_out_picture.SubWidthC, %rax
	movq	%rax, -80(%rbp)
	movq	.L__const.write_out_picture.SubWidthC+8, %rax
	movq	%rax, -72(%rbp)
	movq	.L__const.write_out_picture.SubHeightC, %rax
	movq	%rax, -96(%rbp)
	movq	.L__const.write_out_picture.SubHeightC+8, %rax
	movq	%rax, -88(%rbp)
	movq	img, %rax
	movl	72656(%rax), %eax
	cltd
	movl	$8, %esi
	idivl	%esi
	movl	%eax, -28(%rbp)
	movq	input, %rax
	cmpl	$0, 3312(%rax)
	je	.LBB47_2
# %bb.1:                                # %land.rhs
	movq	input, %rax
	cmpl	$3, 72(%rax)
	sete	%cl
.LBB47_2:                               # %land.end
	andb	$1, %cl
	movzbl	%cl, %eax
	movl	%eax, -48(%rbp)
	movq	-8(%rbp), %rax
	cmpl	$0, 6388(%rax)
	je	.LBB47_4
# %bb.3:                                # %if.then
	jmp	.LBB47_19
.LBB47_4:                               # %if.end
	movq	-8(%rbp), %rax
	cmpl	$0, 6560(%rax)
	je	.LBB47_6
# %bb.5:                                # %if.then3
	movq	-8(%rbp), %rax
	movslq	6552(%rax), %rax
	movl	-80(%rbp,%rax,4), %eax
	movq	-8(%rbp), %rcx
	imull	6564(%rcx), %eax
	movl	%eax, -24(%rbp)
	movq	-8(%rbp), %rax
	movslq	6552(%rax), %rax
	movl	-80(%rbp,%rax,4), %eax
	movq	-8(%rbp), %rcx
	imull	6568(%rcx), %eax
	movl	%eax, -16(%rbp)
	movq	-8(%rbp), %rax
	movslq	6552(%rax), %rax
	movl	-96(%rbp,%rax,4), %eax
	movq	-8(%rbp), %rcx
	movl	$2, %edx
	movl	$2, %esi
	subl	6556(%rcx), %esi
	imull	%esi, %eax
	movq	-8(%rbp), %rcx
	imull	6572(%rcx), %eax
	movl	%eax, -12(%rbp)
	movq	-8(%rbp), %rax
	movslq	6552(%rax), %rax
	movl	-96(%rbp,%rax,4), %eax
	movq	-8(%rbp), %rcx
	subl	6556(%rcx), %edx
	imull	%edx, %eax
	movq	-8(%rbp), %rcx
	imull	6576(%rcx), %eax
	movl	%eax, -20(%rbp)
	jmp	.LBB47_7
.LBB47_6:                               # %if.else
	movl	$0, -20(%rbp)
	movl	$0, -12(%rbp)
	movl	$0, -16(%rbp)
	movl	$0, -24(%rbp)
.LBB47_7:                               # %if.end20
	movq	-8(%rbp), %rax
	movl	6392(%rax), %eax
	movq	-8(%rbp), %rcx
	imull	6396(%rcx), %eax
	imull	-28(%rbp), %eax
	movslq	%eax, %rdi
	callq	malloc
	xorl	%ecx, %ecx
	movq	%rax, -40(%rbp)
	cmpq	%rax, %rcx
	jne	.LBB47_9
# %bb.8:                                # %if.then25
	movabsq	$.L.str.1, %rdi
	callq	no_mem_exit
.LBB47_9:                               # %if.end26
	cmpl	$0, -48(%rbp)
	je	.LBB47_14
# %bb.10:                               # %if.then28
	movq	-8(%rbp), %rax
	movl	6564(%rax), %eax
	movl	%eax, -24(%rbp)
	movq	-8(%rbp), %rax
	movl	6568(%rax), %eax
	movl	%eax, -16(%rbp)
	movq	-8(%rbp), %rax
	movl	$2, %ecx
	movl	$2, %edx
	subl	6556(%rax), %edx
	movq	-8(%rbp), %rax
	imull	6572(%rax), %edx
	movl	%edx, -12(%rbp)
	movq	-8(%rbp), %rax
	subl	6556(%rax), %ecx
	movq	-8(%rbp), %rax
	imull	6576(%rax), %ecx
	movl	%ecx, -20(%rbp)
	movq	-8(%rbp), %rax
	movq	6464(%rax), %rax
	movq	8(%rax), %rdi
	movq	-40(%rbp), %rsi
	movq	-8(%rbp), %rax
	movl	6400(%rax), %edx
	movq	-8(%rbp), %rax
	movl	6404(%rax), %ecx
	movl	-28(%rbp), %r8d
	movl	-24(%rbp), %r9d
	movl	-16(%rbp), %eax
	movl	-12(%rbp), %r10d
	movl	-20(%rbp), %r11d
	movl	%eax, (%rsp)
	movl	%r10d, 8(%rsp)
	movl	%r11d, 16(%rsp)
	callq	img2buf
	movl	-44(%rbp), %edi
	movq	-40(%rbp), %rsi
	movq	-8(%rbp), %rax
	movl	6404(%rax), %eax
	subl	-20(%rbp), %eax
	subl	-12(%rbp), %eax
	movq	-8(%rbp), %rcx
	movl	6400(%rcx), %ecx
	subl	-16(%rbp), %ecx
	subl	-24(%rbp), %ecx
	imull	%ecx, %eax
	imull	-28(%rbp), %eax
	movslq	%eax, %rdx
	callq	write
	movq	active_sps, %rax
	cmpl	$0, 1160(%rax)
	je	.LBB47_12
# %bb.11:                               # %if.then52
	movq	-8(%rbp), %rax
	movslq	6552(%rax), %rax
	movl	-80(%rbp,%rax,4), %eax
	movq	-8(%rbp), %rcx
	imull	6564(%rcx), %eax
	movl	%eax, -24(%rbp)
	movq	-8(%rbp), %rax
	movslq	6552(%rax), %rax
	movl	-80(%rbp,%rax,4), %eax
	movq	-8(%rbp), %rcx
	imull	6568(%rcx), %eax
	movl	%eax, -16(%rbp)
	movq	-8(%rbp), %rax
	movslq	6552(%rax), %rax
	movl	-96(%rbp,%rax,4), %eax
	movq	-8(%rbp), %rcx
	movl	$2, %edx
	movl	$2, %esi
	subl	6556(%rcx), %esi
	imull	%esi, %eax
	movq	-8(%rbp), %rcx
	imull	6572(%rcx), %eax
	movl	%eax, -12(%rbp)
	movq	-8(%rbp), %rax
	movslq	6552(%rax), %rax
	movl	-96(%rbp,%rax,4), %eax
	movq	-8(%rbp), %rcx
	subl	6556(%rcx), %edx
	imull	%edx, %eax
	movq	-8(%rbp), %rcx
	imull	6576(%rcx), %eax
	movl	%eax, -20(%rbp)
	jmp	.LBB47_13
.LBB47_12:                              # %if.else79
	movl	$0, -20(%rbp)
	movl	$0, -12(%rbp)
	movl	$0, -16(%rbp)
	movl	$0, -24(%rbp)
.LBB47_13:                              # %if.end80
	jmp	.LBB47_14
.LBB47_14:                              # %if.end81
	movq	-8(%rbp), %rax
	movq	6424(%rax), %rdi
	movq	-40(%rbp), %rsi
	movq	-8(%rbp), %rax
	movl	6392(%rax), %edx
	movq	-8(%rbp), %rax
	movl	6396(%rax), %ecx
	movl	-28(%rbp), %r8d
	movl	-24(%rbp), %r9d
	movl	-16(%rbp), %eax
	movl	-12(%rbp), %r10d
	movl	-20(%rbp), %r11d
	movl	%eax, (%rsp)
	movl	%r10d, 8(%rsp)
	movl	%r11d, 16(%rsp)
	callq	img2buf
	movl	-44(%rbp), %edi
	movq	-40(%rbp), %rsi
	movq	-8(%rbp), %rax
	movl	6396(%rax), %eax
	subl	-20(%rbp), %eax
	subl	-12(%rbp), %eax
	movq	-8(%rbp), %rcx
	movl	6392(%rcx), %ecx
	subl	-16(%rbp), %ecx
	subl	-24(%rbp), %ecx
	imull	%ecx, %eax
	imull	-28(%rbp), %eax
	movslq	%eax, %rdx
	callq	write
	movq	-8(%rbp), %rax
	cmpl	$0, 6552(%rax)
	je	.LBB47_18
# %bb.15:                               # %if.then97
	movq	-8(%rbp), %rax
	movl	6564(%rax), %eax
	movl	%eax, -24(%rbp)
	movq	-8(%rbp), %rax
	movl	6568(%rax), %eax
	movl	%eax, -16(%rbp)
	movq	-8(%rbp), %rax
	movl	$2, %ecx
	movl	$2, %edx
	subl	6556(%rax), %edx
	movq	-8(%rbp), %rax
	imull	6572(%rax), %edx
	movl	%edx, -12(%rbp)
	movq	-8(%rbp), %rax
	subl	6556(%rax), %ecx
	movq	-8(%rbp), %rax
	imull	6576(%rax), %ecx
	movl	%ecx, -20(%rbp)
	movq	-8(%rbp), %rax
	movq	6464(%rax), %rax
	movq	(%rax), %rdi
	movq	-40(%rbp), %rsi
	movq	-8(%rbp), %rax
	movl	6400(%rax), %edx
	movq	-8(%rbp), %rax
	movl	6404(%rax), %ecx
	movl	-28(%rbp), %r8d
	movl	-24(%rbp), %r9d
	movl	-16(%rbp), %eax
	movl	-12(%rbp), %r10d
	movl	-20(%rbp), %r11d
	movl	%eax, (%rsp)
	movl	%r10d, 8(%rsp)
	movl	%r11d, 16(%rsp)
	callq	img2buf
	movl	-44(%rbp), %edi
	movq	-40(%rbp), %rsi
	movq	-8(%rbp), %rax
	movl	6404(%rax), %eax
	subl	-20(%rbp), %eax
	subl	-12(%rbp), %eax
	movq	-8(%rbp), %rcx
	movl	6400(%rcx), %ecx
	subl	-16(%rbp), %ecx
	subl	-24(%rbp), %ecx
	imull	%ecx, %eax
	imull	-28(%rbp), %eax
	movslq	%eax, %rdx
	callq	write
	cmpl	$0, -48(%rbp)
	jne	.LBB47_17
# %bb.16:                               # %if.then123
	movq	-8(%rbp), %rax
	movq	6464(%rax), %rax
	movq	8(%rax), %rdi
	movq	-40(%rbp), %rsi
	movq	-8(%rbp), %rax
	movl	6400(%rax), %edx
	movq	-8(%rbp), %rax
	movl	6404(%rax), %ecx
	movl	-28(%rbp), %r8d
	movl	-24(%rbp), %r9d
	movl	-16(%rbp), %eax
	movl	-12(%rbp), %r10d
	movl	-20(%rbp), %r11d
	movl	%eax, (%rsp)
	movl	%r10d, 8(%rsp)
	movl	%r11d, 16(%rsp)
	callq	img2buf
	movl	-44(%rbp), %edi
	movq	-40(%rbp), %rsi
	movq	-8(%rbp), %rax
	movl	6404(%rax), %eax
	subl	-20(%rbp), %eax
	subl	-12(%rbp), %eax
	movq	-8(%rbp), %rcx
	movl	6400(%rcx), %ecx
	subl	-16(%rbp), %ecx
	subl	-24(%rbp), %ecx
	imull	%ecx, %eax
	imull	-28(%rbp), %eax
	movslq	%eax, %rdx
	callq	write
.LBB47_17:                              # %if.end138
	jmp	.LBB47_18
.LBB47_18:                              # %if.end139
	movq	-40(%rbp), %rdi
	callq	free
.LBB47_19:                              # %return
	cmpl	$39116465, -52(%rbp)    # imm = 0x254DEB1
	jne	.LBB47_21
.LBB47_20:
	addq	$128, %rsp
	popq	%rbp
	.cfi_def_cfa %rsp, 8
	retq
.LBB47_21:                              # %func_exit
	.cfi_def_cfa %rbp, 16
	callq	detect_breach
	jmp	.LBB47_20
.Lfunc_end47:
	.size	write_out_picture.37, .Lfunc_end47-write_out_picture.37
	.cfi_endproc
                                        # -- End function
	.globl	write_picture.38        # -- Begin function write_picture.38
	.p2align	4, 0x90
	.type	write_picture.38,@function
write_picture.38:                       # @write_picture.38
	.cfi_startproc
# %bb.0:                                # %entry
	pushq	%rbp
	.cfi_def_cfa_offset 16
	.cfi_offset %rbp, -16
	movq	%rsp, %rbp
	.cfi_def_cfa_register %rbp
	subq	$32, %rsp
	movl	$537386122, -8(%rbp)    # imm = 0x2007DC8A
	movq	%rdi, -16(%rbp)
	movl	%esi, -4(%rbp)
	movl	%edx, -20(%rbp)
	movq	-16(%rbp), %rdi
	movl	-4(%rbp), %esi
	callq	write_out_picture
	cmpl	$537386122, -8(%rbp)    # imm = 0x2007DC8A
	jne	.LBB48_2
.LBB48_1:
	addq	$32, %rsp
	popq	%rbp
	.cfi_def_cfa %rsp, 8
	retq
.LBB48_2:                               # %func_exit
	.cfi_def_cfa %rbp, 16
	callq	detect_breach
	jmp	.LBB48_1
.Lfunc_end48:
	.size	write_picture.38, .Lfunc_end48-write_picture.38
	.cfi_endproc
                                        # -- End function
	.globl	img2buf.39              # -- Begin function img2buf.39
	.p2align	4, 0x90
	.type	img2buf.39,@function
img2buf.39:                             # @img2buf.39
	.cfi_startproc
# %bb.0:                                # %entry
	pushq	%rbp
	.cfi_def_cfa_offset 16
	.cfi_offset %rbp, -16
	movq	%rsp, %rbp
	.cfi_def_cfa_register %rbp
	subq	$96, %rsp
	movl	32(%rbp), %eax
	movl	24(%rbp), %eax
	movl	16(%rbp), %eax
	movl	$631521297, -76(%rbp)   # imm = 0x25A44011
	movq	%rdi, -64(%rbp)
	movq	%rsi, -56(%rbp)
	movl	%edx, -32(%rbp)
	movl	%ecx, -28(%rbp)
	movl	%r8d, -24(%rbp)
	movl	%r9d, -12(%rbp)
	movl	-32(%rbp), %eax
	subl	-12(%rbp), %eax
	subl	16(%rbp), %eax
	movl	%eax, -20(%rbp)
	movl	-28(%rbp), %eax
	subl	24(%rbp), %eax
	subl	32(%rbp), %eax
	movl	%eax, -80(%rbp)
	movl	$0, -40(%rbp)
	callq	testEndian
	cmpl	$0, %eax
	je	.LBB49_33
# %bb.1:                                # %if.then
	movl	-24(%rbp), %eax
	movl	%eax, %ecx
	subl	$1, %ecx
	je	.LBB49_4
	jmp	.LBB49_2
.LBB49_2:                               # %if.then
	movl	%eax, %ecx
	subl	$2, %ecx
	je	.LBB49_13
	jmp	.LBB49_3
.LBB49_3:                               # %if.then
	subl	$4, %eax
	je	.LBB49_22
	jmp	.LBB49_31
.LBB49_4:                               # %sw.bb
	movl	24(%rbp), %eax
	movl	%eax, -8(%rbp)
.LBB49_5:                               # %for.cond
                                        # =>This Loop Header: Depth=1
                                        #     Child Loop BB49_7 Depth 2
	movl	-8(%rbp), %eax
	movl	-28(%rbp), %ecx
	subl	32(%rbp), %ecx
	cmpl	%ecx, %eax
	jge	.LBB49_12
# %bb.6:                                # %for.body
                                        #   in Loop: Header=BB49_5 Depth=1
	movl	-12(%rbp), %eax
	movl	%eax, -4(%rbp)
.LBB49_7:                               # %for.cond5
                                        #   Parent Loop BB49_5 Depth=1
                                        # =>  This Inner Loop Header: Depth=2
	movl	-4(%rbp), %eax
	movl	-32(%rbp), %ecx
	subl	16(%rbp), %ecx
	cmpl	%ecx, %eax
	jge	.LBB49_10
# %bb.8:                                # %for.body8
                                        #   in Loop: Header=BB49_7 Depth=2
	movq	-64(%rbp), %rax
	movslq	-8(%rbp), %rcx
	movq	(%rax,%rcx,8), %rax
	movslq	-4(%rbp), %rcx
	movw	(%rax,%rcx,2), %ax
	movb	%al, -13(%rbp)
	movb	-13(%rbp), %al
	movq	-56(%rbp), %rcx
	movl	-4(%rbp), %edx
	subl	-12(%rbp), %edx
	movl	-8(%rbp), %esi
	subl	24(%rbp), %esi
	imull	-20(%rbp), %esi
	addl	%esi, %edx
	movslq	%edx, %rdx
	movb	%al, (%rcx,%rdx)
# %bb.9:                                # %for.inc
                                        #   in Loop: Header=BB49_7 Depth=2
	movl	-4(%rbp), %eax
	addl	$1, %eax
	movl	%eax, -4(%rbp)
	jmp	.LBB49_7
.LBB49_10:                              # %for.end
                                        #   in Loop: Header=BB49_5 Depth=1
	jmp	.LBB49_11
.LBB49_11:                              # %for.inc15
                                        #   in Loop: Header=BB49_5 Depth=1
	movl	-8(%rbp), %eax
	addl	$1, %eax
	movl	%eax, -8(%rbp)
	jmp	.LBB49_5
.LBB49_12:                              # %for.end17
	jmp	.LBB49_32
.LBB49_13:                              # %sw.bb18
	movl	24(%rbp), %eax
	movl	%eax, -8(%rbp)
.LBB49_14:                              # %for.cond19
                                        # =>This Loop Header: Depth=1
                                        #     Child Loop BB49_16 Depth 2
	movl	-8(%rbp), %eax
	movl	-28(%rbp), %ecx
	subl	32(%rbp), %ecx
	cmpl	%ecx, %eax
	jge	.LBB49_21
# %bb.15:                               # %for.body23
                                        #   in Loop: Header=BB49_14 Depth=1
	movl	-12(%rbp), %eax
	movl	%eax, -4(%rbp)
.LBB49_16:                              # %for.cond24
                                        #   Parent Loop BB49_14 Depth=1
                                        # =>  This Inner Loop Header: Depth=2
	movl	-4(%rbp), %eax
	movl	-32(%rbp), %ecx
	subl	16(%rbp), %ecx
	cmpl	%ecx, %eax
	jge	.LBB49_19
# %bb.17:                               # %for.body28
                                        #   in Loop: Header=BB49_16 Depth=2
	movq	-64(%rbp), %rax
	movslq	-8(%rbp), %rcx
	movq	(%rax,%rcx,8), %rax
	movslq	-4(%rbp), %rcx
	movw	(%rax,%rcx,2), %ax
	movw	%ax, -34(%rbp)
	movzwl	-34(%rbp), %eax
	sarl	$8, %eax
	movzwl	-34(%rbp), %ecx
	andl	$255, %ecx
	shll	$8, %ecx
	orl	%ecx, %eax
	movw	%ax, -42(%rbp)
	movq	-56(%rbp), %rax
	movl	-4(%rbp), %ecx
	subl	-12(%rbp), %ecx
	movl	-8(%rbp), %edx
	subl	24(%rbp), %edx
	imull	-20(%rbp), %edx
	addl	%edx, %ecx
	shll	$1, %ecx
	movslq	%ecx, %rcx
	movw	-42(%rbp), %dx
	movw	%dx, (%rax,%rcx)
# %bb.18:                               # %for.inc41
                                        #   in Loop: Header=BB49_16 Depth=2
	movl	-4(%rbp), %eax
	addl	$1, %eax
	movl	%eax, -4(%rbp)
	jmp	.LBB49_16
.LBB49_19:                              # %for.end43
                                        #   in Loop: Header=BB49_14 Depth=1
	jmp	.LBB49_20
.LBB49_20:                              # %for.inc44
                                        #   in Loop: Header=BB49_14 Depth=1
	movl	-8(%rbp), %eax
	addl	$1, %eax
	movl	%eax, -8(%rbp)
	jmp	.LBB49_14
.LBB49_21:                              # %for.end46
	jmp	.LBB49_32
.LBB49_22:                              # %sw.bb47
	movl	24(%rbp), %eax
	movl	%eax, -8(%rbp)
.LBB49_23:                              # %for.cond48
                                        # =>This Loop Header: Depth=1
                                        #     Child Loop BB49_25 Depth 2
	movl	-8(%rbp), %eax
	movl	-28(%rbp), %ecx
	subl	32(%rbp), %ecx
	cmpl	%ecx, %eax
	jge	.LBB49_30
# %bb.24:                               # %for.body52
                                        #   in Loop: Header=BB49_23 Depth=1
	movl	-12(%rbp), %eax
	movl	%eax, -4(%rbp)
.LBB49_25:                              # %for.cond53
                                        #   Parent Loop BB49_23 Depth=1
                                        # =>  This Inner Loop Header: Depth=2
	movl	-4(%rbp), %eax
	movl	-32(%rbp), %ecx
	subl	16(%rbp), %ecx
	cmpl	%ecx, %eax
	jge	.LBB49_28
# %bb.26:                               # %for.body57
                                        #   in Loop: Header=BB49_25 Depth=2
	movq	-64(%rbp), %rax
	movslq	-8(%rbp), %rcx
	movq	(%rax,%rcx,8), %rax
	movslq	-4(%rbp), %rcx
	movzwl	(%rax,%rcx,2), %eax
	movq	%rax, -72(%rbp)
	movq	-72(%rbp), %rax
	andq	$65280, %rax            # imm = 0xFF00
	shlq	$8, %rax
	movq	-72(%rbp), %rcx
	andq	$255, %rcx
	shlq	$24, %rcx
	orq	%rcx, %rax
	movq	-72(%rbp), %rcx
	andq	$16711680, %rcx         # imm = 0xFF0000
	shrq	$8, %rcx
	orq	%rcx, %rax
	movl	$4278190080, %ecx       # imm = 0xFF000000
	andq	-72(%rbp), %rcx
	shrq	$24, %rcx
	orq	%rcx, %rax
	movq	%rax, -88(%rbp)
	movq	-56(%rbp), %rax
	movl	-4(%rbp), %ecx
	subl	-12(%rbp), %ecx
	movl	-8(%rbp), %edx
	subl	24(%rbp), %edx
	imull	-20(%rbp), %edx
	addl	%edx, %ecx
	shll	$2, %ecx
	movslq	%ecx, %rcx
	movl	-88(%rbp), %edx
	movl	%edx, (%rax,%rcx)
# %bb.27:                               # %for.inc81
                                        #   in Loop: Header=BB49_25 Depth=2
	movl	-4(%rbp), %eax
	addl	$1, %eax
	movl	%eax, -4(%rbp)
	jmp	.LBB49_25
.LBB49_28:                              # %for.end83
                                        #   in Loop: Header=BB49_23 Depth=1
	jmp	.LBB49_29
.LBB49_29:                              # %for.inc84
                                        #   in Loop: Header=BB49_23 Depth=1
	movl	-8(%rbp), %eax
	addl	$1, %eax
	movl	%eax, -8(%rbp)
	jmp	.LBB49_23
.LBB49_30:                              # %for.end86
	jmp	.LBB49_32
.LBB49_31:                              # %sw.default
	movabsq	$.L.str, %rdi
	movl	$500, %esi              # imm = 0x1F4
	callq	error
.LBB49_32:                              # %sw.epilog
	jmp	.LBB49_45
.LBB49_33:                              # %if.else
	movslq	-24(%rbp), %rax
	movl	$2, %ecx
	cmpq	%rax, %rcx
	jae	.LBB49_35
# %bb.34:                               # %if.then90
	movl	$2, -40(%rbp)
	movq	-56(%rbp), %rdi
	movl	-20(%rbp), %eax
	imull	-80(%rbp), %eax
	imull	-24(%rbp), %eax
	movslq	%eax, %rdx
	xorl	%esi, %esi
	callq	memset
	jmp	.LBB49_36
.LBB49_35:                              # %if.else94
	movl	-24(%rbp), %eax
	movl	%eax, -40(%rbp)
.LBB49_36:                              # %if.end
	movl	24(%rbp), %eax
	movl	%eax, -8(%rbp)
.LBB49_37:                              # %for.cond95
                                        # =>This Loop Header: Depth=1
                                        #     Child Loop BB49_39 Depth 2
	movl	-8(%rbp), %eax
	movl	-28(%rbp), %ecx
	subl	32(%rbp), %ecx
	cmpl	%ecx, %eax
	jge	.LBB49_44
# %bb.38:                               # %for.body99
                                        #   in Loop: Header=BB49_37 Depth=1
	movl	-12(%rbp), %eax
	movl	%eax, -4(%rbp)
.LBB49_39:                              # %for.cond100
                                        #   Parent Loop BB49_37 Depth=1
                                        # =>  This Inner Loop Header: Depth=2
	movl	-4(%rbp), %eax
	movl	-32(%rbp), %ecx
	subl	16(%rbp), %ecx
	cmpl	%ecx, %eax
	jge	.LBB49_42
# %bb.40:                               # %for.body104
                                        #   in Loop: Header=BB49_39 Depth=2
	movq	-56(%rbp), %rdi
	movl	-4(%rbp), %eax
	subl	-12(%rbp), %eax
	movl	-8(%rbp), %ecx
	subl	24(%rbp), %ecx
	imull	-20(%rbp), %ecx
	addl	%ecx, %eax
	imull	-24(%rbp), %eax
	cltq
	addq	%rax, %rdi
	movq	-64(%rbp), %rax
	movslq	-8(%rbp), %rcx
	movq	(%rax,%rcx,8), %rsi
	movslq	-4(%rbp), %rax
	shlq	$1, %rax
	addq	%rax, %rsi
	movslq	-40(%rbp), %rdx
	callq	memcpy
# %bb.41:                               # %for.inc117
                                        #   in Loop: Header=BB49_39 Depth=2
	movl	-4(%rbp), %eax
	addl	$1, %eax
	movl	%eax, -4(%rbp)
	jmp	.LBB49_39
.LBB49_42:                              # %for.end119
                                        #   in Loop: Header=BB49_37 Depth=1
	jmp	.LBB49_43
.LBB49_43:                              # %for.inc120
                                        #   in Loop: Header=BB49_37 Depth=1
	movl	-8(%rbp), %eax
	addl	$1, %eax
	movl	%eax, -8(%rbp)
	jmp	.LBB49_37
.LBB49_44:                              # %for.end122
	jmp	.LBB49_45
.LBB49_45:                              # %if.end123
	cmpl	$631521297, -76(%rbp)   # imm = 0x25A44011
	jne	.LBB49_47
.LBB49_46:
	addq	$96, %rsp
	popq	%rbp
	.cfi_def_cfa %rsp, 8
	retq
.LBB49_47:                              # %func_exit
	.cfi_def_cfa %rbp, 16
	callq	detect_breach
	jmp	.LBB49_46
.Lfunc_end49:
	.size	img2buf.39, .Lfunc_end49-img2buf.39
	.cfi_endproc
                                        # -- End function
	.globl	write_out_picture.40    # -- Begin function write_out_picture.40
	.p2align	4, 0x90
	.type	write_out_picture.40,@function
write_out_picture.40:                   # @write_out_picture.40
	.cfi_startproc
# %bb.0:                                # %entry
	pushq	%rbp
	.cfi_def_cfa_offset 16
	.cfi_offset %rbp, -16
	movq	%rsp, %rbp
	.cfi_def_cfa_register %rbp
	subq	$128, %rsp
	xorl	%ecx, %ecx
	movl	$881512767, -52(%rbp)   # imm = 0x348AD13F
	movq	%rdi, -8(%rbp)
	movl	%esi, -44(%rbp)
	movq	.L__const.write_out_picture.SubWidthC, %rax
	movq	%rax, -96(%rbp)
	movq	.L__const.write_out_picture.SubWidthC+8, %rax
	movq	%rax, -88(%rbp)
	movq	.L__const.write_out_picture.SubHeightC, %rax
	movq	%rax, -80(%rbp)
	movq	.L__const.write_out_picture.SubHeightC+8, %rax
	movq	%rax, -72(%rbp)
	movq	img, %rax
	movl	72656(%rax), %eax
	cltd
	movl	$8, %esi
	idivl	%esi
	movl	%eax, -28(%rbp)
	movq	input, %rax
	cmpl	$0, 3312(%rax)
	je	.LBB50_2
# %bb.1:                                # %land.rhs
	movq	input, %rax
	cmpl	$3, 72(%rax)
	sete	%cl
.LBB50_2:                               # %land.end
	andb	$1, %cl
	movzbl	%cl, %eax
	movl	%eax, -48(%rbp)
	movq	-8(%rbp), %rax
	cmpl	$0, 6388(%rax)
	je	.LBB50_4
# %bb.3:                                # %if.then
	jmp	.LBB50_19
.LBB50_4:                               # %if.end
	movq	-8(%rbp), %rax
	cmpl	$0, 6560(%rax)
	je	.LBB50_6
# %bb.5:                                # %if.then3
	movq	-8(%rbp), %rax
	movslq	6552(%rax), %rax
	movl	-96(%rbp,%rax,4), %eax
	movq	-8(%rbp), %rcx
	imull	6564(%rcx), %eax
	movl	%eax, -12(%rbp)
	movq	-8(%rbp), %rax
	movslq	6552(%rax), %rax
	movl	-96(%rbp,%rax,4), %eax
	movq	-8(%rbp), %rcx
	imull	6568(%rcx), %eax
	movl	%eax, -24(%rbp)
	movq	-8(%rbp), %rax
	movslq	6552(%rax), %rax
	movl	-80(%rbp,%rax,4), %eax
	movq	-8(%rbp), %rcx
	movl	$2, %edx
	movl	$2, %esi
	subl	6556(%rcx), %esi
	imull	%esi, %eax
	movq	-8(%rbp), %rcx
	imull	6572(%rcx), %eax
	movl	%eax, -20(%rbp)
	movq	-8(%rbp), %rax
	movslq	6552(%rax), %rax
	movl	-80(%rbp,%rax,4), %eax
	movq	-8(%rbp), %rcx
	subl	6556(%rcx), %edx
	imull	%edx, %eax
	movq	-8(%rbp), %rcx
	imull	6576(%rcx), %eax
	movl	%eax, -16(%rbp)
	jmp	.LBB50_7
.LBB50_6:                               # %if.else
	movl	$0, -16(%rbp)
	movl	$0, -20(%rbp)
	movl	$0, -24(%rbp)
	movl	$0, -12(%rbp)
.LBB50_7:                               # %if.end20
	movq	-8(%rbp), %rax
	movl	6392(%rax), %eax
	movq	-8(%rbp), %rcx
