	.text
	.file	"output.c"
	.globl	testEndian              # -- Begin function testEndian
	.p2align	4, 0x90
	.type	testEndian,@function
testEndian:                             # @testEndian
	.cfi_startproc
# %bb.0:                                # %rand_bb
	pushq	%rbp
	.cfi_def_cfa_offset 16
	.cfi_offset %rbp, -16
	movq	%rsp, %rbp
	.cfi_def_cfa_register %rbp
	callq	get_urand
	cmpl	$0, %eax
	jne	.LBB0_2
# %bb.1:                                # %func_testEndian.17
	callq	testEndian.17
	popq	%rbp
	.cfi_def_cfa %rsp, 8
	retq
.LBB0_2:                                # %func_testEndian.20
	.cfi_def_cfa %rbp, 16
	callq	testEndian.20
	popq	%rbp
	.cfi_def_cfa %rsp, 8
	retq
.Lfunc_end0:
	.size	testEndian, .Lfunc_end0-testEndian
	.cfi_endproc
                                        # -- End function
	.globl	img2buf                 # -- Begin function img2buf
	.p2align	4, 0x90
	.type	img2buf,@function
img2buf:                                # @img2buf
	.cfi_startproc
# %bb.0:                                # %rand_bb
	pushq	%rbp
	.cfi_def_cfa_offset 16
	.cfi_offset %rbp, -16
	movq	%rsp, %rbp
	.cfi_def_cfa_register %rbp
	pushq	%r15
	pushq	%r14
	pushq	%r13
	pushq	%r12
	pushq	%rbx
	subq	$40, %rsp
	.cfi_offset %rbx, -56
	.cfi_offset %r12, -48
	.cfi_offset %r13, -40
	.cfi_offset %r14, -32
	.cfi_offset %r15, -24
	movl	%r9d, -44(%rbp)         # 4-byte Spill
	movl	%r8d, %r14d
	movl	%ecx, %r12d
	movl	%edx, %r15d
	movq	%rsi, %r13
	movq	%rdi, %rbx
	callq	get_urand
	cmpl	$0, %eax
	jne	.LBB1_17
# %bb.1:                                # %func_img2buf.11
	movq	%rbx, %rdi
	movq	%r13, %rsi
	movl	%r15d, %edx
	movl	%r12d, %ecx
	movl	%r14d, %r8d
	movl	-44(%rbp), %r9d         # 4-byte Reload
	movl	16(%rbp), %eax
	movl	%eax, (%rsp)
	movl	24(%rbp), %eax
	movl	%eax, 8(%rsp)
	movl	32(%rbp), %eax
	movl	%eax, 16(%rsp)
	callq	img2buf.11
	addq	$40, %rsp
	popq	%rbx
	popq	%r12
	popq	%r13
	popq	%r14
	popq	%r15
	popq	%rbp
	.cfi_def_cfa %rsp, 8
	retq
.LBB1_2:                                # %func_img2buf.28
	.cfi_def_cfa %rbp, 16
	movl	%r12d, %r9d
	movl	%r11d, (%rsp)
	movl	24(%rbp), %eax
	movl	%eax, 8(%rsp)
	movl	32(%rbp), %eax
	movl	%eax, 16(%rsp)
	callq	img2buf.28
	addq	$40, %rsp
	popq	%rbx
	popq	%r12
	popq	%r13
	popq	%r14
	popq	%r15
	popq	%rbp
	.cfi_def_cfa %rsp, 8
	retq
.LBB1_3:                                # %func_img2buf.29
	.cfi_def_cfa %rbp, 16
	movq	%r13, %rdi
	movq	%r10, %rsi
	movl	%ebx, %r10d
	movl	%r15d, %r8d
	movl	16(%rbp), %ebx
	movl	%ebx, (%rsp)
	movl	%r14d, 8(%rsp)
	movl	%r10d, 16(%rsp)
	callq	img2buf.29
	addq	$40, %rsp
	popq	%rbx
	popq	%r12
	popq	%r13
	popq	%r14
	popq	%r15
	popq	%rbp
	.cfi_def_cfa %rsp, 8
	retq
.LBB1_4:                                # %func_img2buf.30
	.cfi_def_cfa %rbp, 16
	movq	%r13, %rdi
	movq	%r10, %rsi
	movl	%ebx, %r10d
	movl	%r15d, %r8d
	movl	%r14d, %r9d
	movl	16(%rbp), %ebx
	movl	%ebx, (%rsp)
	movl	24(%rbp), %eax
	movl	%eax, 8(%rsp)
	movl	%r10d, 16(%rsp)
	callq	img2buf.30
	addq	$40, %rsp
	popq	%rbx
	popq	%r12
	popq	%r13
	popq	%r14
	popq	%r15
	popq	%rbp
	.cfi_def_cfa %rsp, 8
	retq
.LBB1_5:                                # %func_img2buf.33
	.cfi_def_cfa %rbp, 16
	movq	%r13, %rdi
	movq	%r10, %rsi
	movl	%ebx, %r10d
	movl	%r15d, %r8d
	movl	%r14d, %r9d
	movl	16(%rbp), %ebx
	movl	%ebx, (%rsp)
	movl	24(%rbp), %eax
	movl	%eax, 8(%rsp)
	movl	%r10d, 16(%rsp)
	callq	img2buf.33
	addq	$40, %rsp
	popq	%rbx
	popq	%r12
	popq	%r13
	popq	%r14
	popq	%r15
	popq	%rbp
	.cfi_def_cfa %rsp, 8
	retq
.LBB1_6:                                # %func_img2buf.34
	.cfi_def_cfa %rbp, 16
	movq	%r13, %rdi
	movq	%r10, %rsi
	movl	%ebx, %r10d
	movl	%r15d, %r8d
	movl	%r14d, %r9d
	movl	16(%rbp), %ebx
	movl	%ebx, (%rsp)
	movl	24(%rbp), %eax
	movl	%eax, 8(%rsp)
	movl	%r10d, 16(%rsp)
	callq	img2buf.34
	addq	$40, %rsp
	popq	%rbx
	popq	%r12
	popq	%r13
	popq	%r14
	popq	%r15
	popq	%rbp
	.cfi_def_cfa %rsp, 8
	retq
.LBB1_7:                                # %func_img2buf.38
	.cfi_def_cfa %rbp, 16
	movq	%r13, %rdi
	movq	%r10, %rsi
	movl	%ebx, %r10d
	movl	%r15d, %r8d
	movl	%r14d, %r9d
	movl	16(%rbp), %ebx
	movl	%ebx, (%rsp)
	movl	24(%rbp), %eax
	movl	%eax, 8(%rsp)
	movl	%r10d, 16(%rsp)
	callq	img2buf.38
	addq	$40, %rsp
	popq	%rbx
	popq	%r12
	popq	%r13
	popq	%r14
	popq	%r15
	popq	%rbp
	.cfi_def_cfa %rsp, 8
	retq
.LBB1_8:                                # %func_img2buf.41
	.cfi_def_cfa %rbp, 16
	movq	%r13, %rdi
	movq	%r10, %rsi
	movl	%ebx, %r10d
	movl	%r15d, %r8d
	movl	%r14d, %r9d
	movl	16(%rbp), %ebx
	movl	%ebx, (%rsp)
	movl	24(%rbp), %eax
	movl	%eax, 8(%rsp)
	movl	%r10d, 16(%rsp)
	callq	img2buf.41
	addq	$40, %rsp
	popq	%rbx
	popq	%r12
	popq	%r13
	popq	%r14
	popq	%r15
	popq	%rbp
	.cfi_def_cfa %rsp, 8
	retq
.LBB1_9:                                # %func_img2buf.44
	.cfi_def_cfa %rbp, 16
	movq	%r13, %rdi
	movq	%r10, %rsi
	movl	%ebx, %r10d
	movl	%r15d, %r8d
	movl	%r14d, %r9d
	movl	16(%rbp), %ebx
	movl	%ebx, (%rsp)
	movl	24(%rbp), %eax
	movl	%eax, 8(%rsp)
	movl	%r10d, 16(%rsp)
	callq	img2buf.44
	addq	$40, %rsp
	popq	%rbx
	popq	%r12
	popq	%r13
	popq	%r14
	popq	%r15
	popq	%rbp
	.cfi_def_cfa %rsp, 8
	retq
.LBB1_10:                               # %func_img2buf.46
	.cfi_def_cfa %rbp, 16
	movq	%r13, %rdi
	movq	%r10, %rsi
	movl	%ebx, %r10d
	movl	%r15d, %r8d
	movl	%r14d, %r9d
	movl	16(%rbp), %ebx
	movl	%ebx, (%rsp)
	movl	24(%rbp), %eax
	movl	%eax, 8(%rsp)
	movl	%r10d, 16(%rsp)
	callq	img2buf.46
	addq	$40, %rsp
	popq	%rbx
	popq	%r12
	popq	%r13
	popq	%r14
	popq	%r15
	popq	%rbp
	.cfi_def_cfa %rsp, 8
	retq
.LBB1_11:                               # %func_img2buf.47
	.cfi_def_cfa %rbp, 16
	movq	%r13, %rdi
	movq	%r10, %rsi
	movl	%ebx, %r10d
	movl	%r15d, %r8d
	movl	%r14d, %r9d
	movl	16(%rbp), %ebx
	movl	%ebx, (%rsp)
	movl	24(%rbp), %eax
	movl	%eax, 8(%rsp)
	movl	%r10d, 16(%rsp)
	callq	img2buf.47
	addq	$40, %rsp
	popq	%rbx
	popq	%r12
	popq	%r13
	popq	%r14
	popq	%r15
	popq	%rbp
	.cfi_def_cfa %rsp, 8
	retq
.LBB1_12:                               # %func_img2buf.48
	.cfi_def_cfa %rbp, 16
	movq	%r13, %rdi
	movq	%r10, %rsi
	movl	%ebx, %r10d
	movl	%r15d, %r8d
	movl	%r14d, %r9d
	movl	16(%rbp), %ebx
	movl	%ebx, (%rsp)
	movl	24(%rbp), %eax
	movl	%eax, 8(%rsp)
	movl	%r10d, 16(%rsp)
	callq	img2buf.48
	addq	$40, %rsp
	popq	%rbx
	popq	%r12
	popq	%r13
	popq	%r14
	popq	%r15
	popq	%rbp
	.cfi_def_cfa %rsp, 8
	retq
.LBB1_13:                               # %func_img2buf.49
	.cfi_def_cfa %rbp, 16
	movq	%r13, %rdi
	movq	%r10, %rsi
	movl	%ebx, %r10d
	movl	%r15d, %r8d
	movl	%r14d, %r9d
	movl	16(%rbp), %ebx
	movl	%ebx, (%rsp)
	movl	24(%rbp), %eax
	movl	%eax, 8(%rsp)
	movl	%r10d, 16(%rsp)
	callq	img2buf.49
	addq	$40, %rsp
	popq	%rbx
	popq	%r12
	popq	%r13
	popq	%r14
	popq	%r15
	popq	%rbp
	.cfi_def_cfa %rsp, 8
	retq
.LBB1_14:                               # %func_img2buf.50
	.cfi_def_cfa %rbp, 16
	movq	%r13, %rdi
	movq	%r10, %rsi
	movl	%r15d, %r8d
	movl	%r14d, %r9d
	movl	16(%rbp), %eax
	movl	%eax, (%rsp)
	movl	24(%rbp), %eax
	movl	%eax, 8(%rsp)
	movl	32(%rbp), %eax
	movl	%eax, 16(%rsp)
	callq	img2buf.50
	addq	$40, %rsp
	popq	%rbx
	popq	%r12
	popq	%r13
	popq	%r14
	popq	%r15
	popq	%rbp
	.cfi_def_cfa %rsp, 8
	retq
.LBB1_15:                               # %func_img2buf.51
	.cfi_def_cfa %rbp, 16
	movl	%r12d, %r9d
	movl	%r11d, (%rsp)
	movl	24(%rbp), %eax
	movl	%eax, 8(%rsp)
	movl	32(%rbp), %eax
	movl	%eax, 16(%rsp)
	callq	img2buf.51
	addq	$40, %rsp
	popq	%rbx
	popq	%r12
	popq	%r13
	popq	%r14
	popq	%r15
	popq	%rbp
	.cfi_def_cfa %rsp, 8
	retq
.LBB1_16:                               # %func_img2buf.52
	.cfi_def_cfa %rbp, 16
	movl	%r12d, %r9d
	movl	%r11d, (%rsp)
	movl	24(%rbp), %eax
	movl	%eax, 8(%rsp)
	movl	32(%rbp), %eax
	movl	%eax, 16(%rsp)
	callq	img2buf.52
	addq	$40, %rsp
	popq	%rbx
	popq	%r12
	popq	%r13
	popq	%r14
	popq	%r15
	popq	%rbp
	.cfi_def_cfa %rsp, 8
	retq
.LBB1_17:                               # %ctrl0
	.cfi_def_cfa %rbp, 16
	movq	%rbx, %rdi
	movq	%r13, %rsi
	movl	%r15d, %edx
	movl	%r12d, %ecx
	movl	%r14d, %r8d
	movl	-44(%rbp), %r12d        # 4-byte Reload
	movl	16(%rbp), %r11d
	cmpl	$1, %eax
	je	.LBB1_2
# %bb.18:                               # %ctrl1
	cmpl	$2, %eax
	movl	32(%rbp), %ebx
	movl	24(%rbp), %r14d
	movl	%r12d, %r9d
	movl	%r8d, %r15d
	movq	%rsi, %r10
	movq	%rdi, %r13
	je	.LBB1_3
# %bb.19:                               # %ctrl2
	movl	%r9d, %r14d
	cmpl	$3, %eax
	je	.LBB1_4
# %bb.20:                               # %ctrl3
	cmpl	$4, %eax
	je	.LBB1_5
# %bb.21:                               # %ctrl4
	cmpl	$5, %eax
	je	.LBB1_6
# %bb.22:                               # %ctrl5
	cmpl	$6, %eax
	je	.LBB1_7
# %bb.23:                               # %ctrl6
	cmpl	$7, %eax
	je	.LBB1_8
# %bb.24:                               # %ctrl7
	cmpl	$8, %eax
	je	.LBB1_9
# %bb.25:                               # %ctrl8
	cmpl	$9, %eax
	je	.LBB1_10
# %bb.26:                               # %ctrl9
	cmpl	$10, %eax
	je	.LBB1_11
# %bb.27:                               # %ctrl10
	cmpl	$11, %eax
	je	.LBB1_12
# %bb.28:                               # %ctrl11
	cmpl	$12, %eax
	je	.LBB1_13
# %bb.29:                               # %ctrl12
	cmpl	$13, %eax
	je	.LBB1_14
# %bb.30:                               # %ctrl13
	cmpl	$14, %eax
	je	.LBB1_15
	jmp	.LBB1_16
.Lfunc_end1:
	.size	img2buf, .Lfunc_end1-img2buf
	.cfi_endproc
                                        # -- End function
	.globl	write_picture           # -- Begin function write_picture
	.p2align	4, 0x90
	.type	write_picture,@function
write_picture:                          # @write_picture
	.cfi_startproc
# %bb.0:                                # %rand_bb
	pushq	%rbp
	.cfi_def_cfa_offset 16
	.cfi_offset %rbp, -16
	movq	%rsp, %rbp
	.cfi_def_cfa_register %rbp
	pushq	%r15
	pushq	%r14
	pushq	%rbx
	pushq	%rax
	.cfi_offset %rbx, -40
	.cfi_offset %r14, -32
	.cfi_offset %r15, -24
	movl	%edx, %r14d
	movl	%esi, %r15d
	movq	%rdi, %rbx
	callq	get_urand
	cmpl	$0, %eax
	jne	.LBB2_7
# %bb.1:                                # %func_write_picture.15
	movq	%rbx, %rdi
	movl	%r15d, %esi
	movl	%r14d, %edx
	callq	write_picture.15
	addq	$8, %rsp
	popq	%rbx
	popq	%r14
	popq	%r15
	popq	%rbp
	.cfi_def_cfa %rsp, 8
	retq
.LBB2_2:                                # %func_write_picture.22
	.cfi_def_cfa %rbp, 16
	movq	%rbx, %rdi
	movl	%r15d, %esi
	movl	%r14d, %edx
	callq	write_picture.22
	addq	$8, %rsp
	popq	%rbx
	popq	%r14
	popq	%r15
	popq	%rbp
	.cfi_def_cfa %rsp, 8
	retq
.LBB2_3:                                # %func_write_picture.23
	.cfi_def_cfa %rbp, 16
	movq	%rbx, %rdi
	movl	%r15d, %esi
	movl	%r14d, %edx
	callq	write_picture.23
	addq	$8, %rsp
	popq	%rbx
	popq	%r14
	popq	%r15
	popq	%rbp
	.cfi_def_cfa %rsp, 8
	retq
.LBB2_4:                                # %func_write_picture.24
	.cfi_def_cfa %rbp, 16
	movq	%rbx, %rdi
	movl	%r15d, %esi
	movl	%r14d, %edx
	callq	write_picture.24
	addq	$8, %rsp
	popq	%rbx
	popq	%r14
	popq	%r15
	popq	%rbp
	.cfi_def_cfa %rsp, 8
	retq
.LBB2_5:                                # %func_write_picture.25
	.cfi_def_cfa %rbp, 16
	movq	%rbx, %rdi
	movl	%r15d, %esi
	movl	%r14d, %edx
	callq	write_picture.25
	addq	$8, %rsp
	popq	%rbx
	popq	%r14
	popq	%r15
	popq	%rbp
	.cfi_def_cfa %rsp, 8
	retq
.LBB2_6:                                # %func_write_picture.26
	.cfi_def_cfa %rbp, 16
	movq	%rbx, %rdi
	movl	%r15d, %esi
	movl	%r14d, %edx
	callq	write_picture.26
	addq	$8, %rsp
	popq	%rbx
	popq	%r14
	popq	%r15
	popq	%rbp
	.cfi_def_cfa %rsp, 8
	retq
.LBB2_7:                                # %ctrl0
	.cfi_def_cfa %rbp, 16
	cmpl	$1, %eax
	je	.LBB2_2
# %bb.8:                                # %ctrl1
	cmpl	$2, %eax
	je	.LBB2_3
# %bb.9:                                # %ctrl2
	cmpl	$3, %eax
	je	.LBB2_4
# %bb.10:                               # %ctrl3
	cmpl	$4, %eax
	je	.LBB2_5
	jmp	.LBB2_6
.Lfunc_end2:
	.size	write_picture, .Lfunc_end2-write_picture
	.cfi_endproc
                                        # -- End function
	.globl	write_out_picture       # -- Begin function write_out_picture
	.p2align	4, 0x90
	.type	write_out_picture,@function
write_out_picture:                      # @write_out_picture
	.cfi_startproc
# %bb.0:                                # %rand_bb
	pushq	%rbp
	.cfi_def_cfa_offset 16
	.cfi_offset %rbp, -16
	movq	%rsp, %rbp
	.cfi_def_cfa_register %rbp
	pushq	%r14
	pushq	%rbx
	.cfi_offset %rbx, -32
	.cfi_offset %r14, -24
	movl	%esi, %r14d
	movq	%rdi, %rbx
	callq	get_urand
	cmpl	$0, %eax
	jne	.LBB3_17
# %bb.1:                                # %func_write_out_picture.5
	movq	%rbx, %rdi
	movl	%r14d, %esi
	callq	write_out_picture.5
	popq	%rbx
	popq	%r14
	popq	%rbp
	.cfi_def_cfa %rsp, 8
	retq
.LBB3_2:                                # %func_write_out_picture.6
	.cfi_def_cfa %rbp, 16
	movq	%rbx, %rdi
	movl	%r14d, %esi
	callq	write_out_picture.6
	popq	%rbx
	popq	%r14
	popq	%rbp
	.cfi_def_cfa %rsp, 8
	retq
.LBB3_3:                                # %func_write_out_picture.8
	.cfi_def_cfa %rbp, 16
	movq	%rbx, %rdi
	movl	%r14d, %esi
	callq	write_out_picture.8
	popq	%rbx
	popq	%r14
	popq	%rbp
	.cfi_def_cfa %rsp, 8
	retq
.LBB3_4:                                # %func_write_out_picture.12
	.cfi_def_cfa %rbp, 16
	movq	%rbx, %rdi
	movl	%r14d, %esi
	callq	write_out_picture.12
	popq	%rbx
	popq	%r14
	popq	%rbp
	.cfi_def_cfa %rsp, 8
	retq
.LBB3_5:                                # %func_write_out_picture.21
	.cfi_def_cfa %rbp, 16
	movq	%rbx, %rdi
	movl	%r14d, %esi
	callq	write_out_picture.21
	popq	%rbx
	popq	%r14
	popq	%rbp
	.cfi_def_cfa %rsp, 8
	retq
.LBB3_6:                                # %func_write_out_picture.27
	.cfi_def_cfa %rbp, 16
	movq	%rbx, %rdi
	movl	%r14d, %esi
	callq	write_out_picture.27
	popq	%rbx
	popq	%r14
	popq	%rbp
	.cfi_def_cfa %rsp, 8
	retq
.LBB3_7:                                # %func_write_out_picture.31
	.cfi_def_cfa %rbp, 16
	movq	%rbx, %rdi
	movl	%r14d, %esi
	callq	write_out_picture.31
	popq	%rbx
	popq	%r14
	popq	%rbp
	.cfi_def_cfa %rsp, 8
	retq
.LBB3_8:                                # %func_write_out_picture.32
	.cfi_def_cfa %rbp, 16
	movq	%rbx, %rdi
	movl	%r14d, %esi
	callq	write_out_picture.32
	popq	%rbx
	popq	%r14
	popq	%rbp
	.cfi_def_cfa %rsp, 8
	retq
.LBB3_9:                                # %func_write_out_picture.35
	.cfi_def_cfa %rbp, 16
	movq	%rbx, %rdi
	movl	%r14d, %esi
	callq	write_out_picture.35
	popq	%rbx
	popq	%r14
	popq	%rbp
	.cfi_def_cfa %rsp, 8
	retq
.LBB3_10:                               # %func_write_out_picture.36
	.cfi_def_cfa %rbp, 16
	movq	%rbx, %rdi
	movl	%r14d, %esi
	callq	write_out_picture.36
	popq	%rbx
	popq	%r14
	popq	%rbp
	.cfi_def_cfa %rsp, 8
	retq
.LBB3_11:                               # %func_write_out_picture.37
	.cfi_def_cfa %rbp, 16
	movq	%rbx, %rdi
	movl	%r14d, %esi
	callq	write_out_picture.37
	popq	%rbx
	popq	%r14
	popq	%rbp
	.cfi_def_cfa %rsp, 8
	retq
.LBB3_12:                               # %func_write_out_picture.39
	.cfi_def_cfa %rbp, 16
	movq	%rbx, %rdi
	movl	%r14d, %esi
	callq	write_out_picture.39
	popq	%rbx
	popq	%r14
	popq	%rbp
	.cfi_def_cfa %rsp, 8
	retq
.LBB3_13:                               # %func_write_out_picture.40
	.cfi_def_cfa %rbp, 16
	movq	%rbx, %rdi
	movl	%r14d, %esi
	callq	write_out_picture.40
	popq	%rbx
	popq	%r14
	popq	%rbp
	.cfi_def_cfa %rsp, 8
	retq
.LBB3_14:                               # %func_write_out_picture.42
	.cfi_def_cfa %rbp, 16
	movq	%rbx, %rdi
	movl	%r14d, %esi
	callq	write_out_picture.42
	popq	%rbx
	popq	%r14
	popq	%rbp
	.cfi_def_cfa %rsp, 8
	retq
.LBB3_15:                               # %func_write_out_picture.43
	.cfi_def_cfa %rbp, 16
	movq	%rbx, %rdi
	movl	%r14d, %esi
	callq	write_out_picture.43
	popq	%rbx
	popq	%r14
	popq	%rbp
	.cfi_def_cfa %rsp, 8
	retq
.LBB3_16:                               # %func_write_out_picture.45
	.cfi_def_cfa %rbp, 16
	movq	%rbx, %rdi
	movl	%r14d, %esi
	callq	write_out_picture.45
	popq	%rbx
	popq	%r14
	popq	%rbp
	.cfi_def_cfa %rsp, 8
	retq
.LBB3_17:                               # %ctrl0
	.cfi_def_cfa %rbp, 16
	cmpl	$1, %eax
	je	.LBB3_2
# %bb.18:                               # %ctrl1
	cmpl	$2, %eax
	je	.LBB3_3
# %bb.19:                               # %ctrl2
	cmpl	$3, %eax
	je	.LBB3_4
# %bb.20:                               # %ctrl3
	cmpl	$4, %eax
	je	.LBB3_5
# %bb.21:                               # %ctrl4
	cmpl	$5, %eax
	je	.LBB3_6
# %bb.22:                               # %ctrl5
	cmpl	$6, %eax
	je	.LBB3_7
# %bb.23:                               # %ctrl6
	cmpl	$7, %eax
	je	.LBB3_8
# %bb.24:                               # %ctrl7
	cmpl	$8, %eax
	je	.LBB3_9
# %bb.25:                               # %ctrl8
	cmpl	$9, %eax
	je	.LBB3_10
# %bb.26:                               # %ctrl9
	cmpl	$10, %eax
	je	.LBB3_11
# %bb.27:                               # %ctrl10
	cmpl	$11, %eax
	je	.LBB3_12
# %bb.28:                               # %ctrl11
	cmpl	$12, %eax
	je	.LBB3_13
# %bb.29:                               # %ctrl12
	cmpl	$13, %eax
	je	.LBB3_14
# %bb.30:                               # %ctrl13
	cmpl	$14, %eax
	je	.LBB3_15
	jmp	.LBB3_16
.Lfunc_end3:
	.size	write_out_picture, .Lfunc_end3-write_out_picture
	.cfi_endproc
                                        # -- End function
	.globl	init_out_buffer         # -- Begin function init_out_buffer
	.p2align	4, 0x90
	.type	init_out_buffer,@function
init_out_buffer:                        # @init_out_buffer
	.cfi_startproc
# %bb.0:                                # %entry
	pushq	%rbp
	.cfi_def_cfa_offset 16
	.cfi_offset %rbp, -16
	movq	%rsp, %rbp
	.cfi_def_cfa_register %rbp
	movb	$0, %al
	callq	alloc_frame_store
	movq	%rax, out_buffer
	popq	%rbp
	.cfi_def_cfa %rsp, 8
	retq
.Lfunc_end4:
	.size	init_out_buffer, .Lfunc_end4-init_out_buffer
	.cfi_endproc
                                        # -- End function
	.globl	uninit_out_buffer       # -- Begin function uninit_out_buffer
	.p2align	4, 0x90
	.type	uninit_out_buffer,@function
uninit_out_buffer:                      # @uninit_out_buffer
	.cfi_startproc
# %bb.0:                                # %entry
	pushq	%rbp
	.cfi_def_cfa_offset 16
	.cfi_offset %rbp, -16
	movq	%rsp, %rbp
	.cfi_def_cfa_register %rbp
	movq	out_buffer, %rdi
	callq	free_frame_store
	movq	$0, out_buffer
	popq	%rbp
	.cfi_def_cfa %rsp, 8
	retq
.Lfunc_end5:
	.size	uninit_out_buffer, .Lfunc_end5-uninit_out_buffer
	.cfi_endproc
                                        # -- End function
	.globl	clear_picture           # -- Begin function clear_picture
	.p2align	4, 0x90
	.type	clear_picture,@function
clear_picture:                          # @clear_picture
	.cfi_startproc
# %bb.0:                                # %rand_bb
	pushq	%rbp
	.cfi_def_cfa_offset 16
	.cfi_offset %rbp, -16
	movq	%rsp, %rbp
	.cfi_def_cfa_register %rbp
	pushq	%rbx
	pushq	%rax
	.cfi_offset %rbx, -24
	movq	%rdi, %rbx
	callq	get_urand
	cmpl	$0, %eax
	jne	.LBB6_2
# %bb.1:                                # %func_clear_picture.10
	movq	%rbx, %rdi
	callq	clear_picture.10
	addq	$8, %rsp
	popq	%rbx
	popq	%rbp
	.cfi_def_cfa %rsp, 8
	retq
.LBB6_2:                                # %func_clear_picture.18
	.cfi_def_cfa %rbp, 16
	movq	%rbx, %rdi
	callq	clear_picture.18
	addq	$8, %rsp
	popq	%rbx
	popq	%rbp
	.cfi_def_cfa %rsp, 8
	retq
.Lfunc_end6:
	.size	clear_picture, .Lfunc_end6-clear_picture
	.cfi_endproc
                                        # -- End function
	.globl	write_unpaired_field    # -- Begin function write_unpaired_field
	.p2align	4, 0x90
	.type	write_unpaired_field,@function
write_unpaired_field:                   # @write_unpaired_field
	.cfi_startproc
# %bb.0:                                # %rand_bb
	pushq	%rbp
	.cfi_def_cfa_offset 16
	.cfi_offset %rbp, -16
	movq	%rsp, %rbp
	.cfi_def_cfa_register %rbp
	pushq	%r14
	pushq	%rbx
	.cfi_offset %rbx, -32
	.cfi_offset %r14, -24
	movl	%esi, %r14d
	movq	%rdi, %rbx
	callq	get_urand
	cmpl	$0, %eax
	jne	.LBB7_7
# %bb.1:                                # %func_write_unpaired_field.2
	movq	%rbx, %rdi
	movl	%r14d, %esi
	callq	write_unpaired_field.2
	popq	%rbx
	popq	%r14
	popq	%rbp
	.cfi_def_cfa %rsp, 8
	retq
.LBB7_2:                                # %func_write_unpaired_field.3
	.cfi_def_cfa %rbp, 16
	movq	%rbx, %rdi
	movl	%r14d, %esi
	callq	write_unpaired_field.3
	popq	%rbx
	popq	%r14
	popq	%rbp
	.cfi_def_cfa %rsp, 8
	retq
.LBB7_3:                                # %func_write_unpaired_field.7
	.cfi_def_cfa %rbp, 16
	movq	%rbx, %rdi
	movl	%r14d, %esi
	callq	write_unpaired_field.7
	popq	%rbx
	popq	%r14
	popq	%rbp
	.cfi_def_cfa %rsp, 8
	retq
.LBB7_4:                                # %func_write_unpaired_field.9
	.cfi_def_cfa %rbp, 16
	movq	%rbx, %rdi
	movl	%r14d, %esi
	callq	write_unpaired_field.9
	popq	%rbx
	popq	%r14
	popq	%rbp
	.cfi_def_cfa %rsp, 8
	retq
.LBB7_5:                                # %func_write_unpaired_field.13
	.cfi_def_cfa %rbp, 16
	movq	%rbx, %rdi
	movl	%r14d, %esi
	callq	write_unpaired_field.13
	popq	%rbx
	popq	%r14
	popq	%rbp
	.cfi_def_cfa %rsp, 8
	retq
.LBB7_6:                                # %func_write_unpaired_field.19
	.cfi_def_cfa %rbp, 16
	movq	%rbx, %rdi
	movl	%r14d, %esi
	callq	write_unpaired_field.19
	popq	%rbx
	popq	%r14
	popq	%rbp
	.cfi_def_cfa %rsp, 8
	retq
.LBB7_7:                                # %ctrl0
	.cfi_def_cfa %rbp, 16
	cmpl	$1, %eax
	je	.LBB7_2
# %bb.8:                                # %ctrl1
	cmpl	$2, %eax
	je	.LBB7_3
# %bb.9:                                # %ctrl2
	cmpl	$3, %eax
	je	.LBB7_4
# %bb.10:                               # %ctrl3
	cmpl	$4, %eax
	je	.LBB7_5
	jmp	.LBB7_6
.Lfunc_end7:
	.size	write_unpaired_field, .Lfunc_end7-write_unpaired_field
	.cfi_endproc
                                        # -- End function
	.globl	flush_direct_output     # -- Begin function flush_direct_output
	.p2align	4, 0x90
	.type	flush_direct_output,@function
flush_direct_output:                    # @flush_direct_output
	.cfi_startproc
# %bb.0:                                # %entry
	pushq	%rbp
	.cfi_def_cfa_offset 16
	.cfi_offset %rbp, -16
	movq	%rsp, %rbp
	.cfi_def_cfa_register %rbp
	subq	$16, %rsp
	movl	%edi, -4(%rbp)
	movq	out_buffer, %rdi
	movl	-4(%rbp), %esi
	callq	write_unpaired_field
	movq	out_buffer, %rax
	movq	40(%rax), %rdi
	callq	free_storable_picture
	movq	out_buffer, %rax
	movq	$0, 40(%rax)
	movq	out_buffer, %rax
	movq	48(%rax), %rdi
	callq	free_storable_picture
	movq	out_buffer, %rax
	movq	$0, 48(%rax)
	movq	out_buffer, %rax
	movq	56(%rax), %rdi
	callq	free_storable_picture
	movq	out_buffer, %rax
	movq	$0, 56(%rax)
	movq	out_buffer, %rax
	movl	$0, (%rax)
	addq	$16, %rsp
	popq	%rbp
	.cfi_def_cfa %rsp, 8
	retq
.Lfunc_end8:
	.size	flush_direct_output, .Lfunc_end8-flush_direct_output
	.cfi_endproc
                                        # -- End function
	.globl	write_stored_frame      # -- Begin function write_stored_frame
	.p2align	4, 0x90
	.type	write_stored_frame,@function
write_stored_frame:                     # @write_stored_frame
	.cfi_startproc
# %bb.0:                                # %rand_bb
	pushq	%rbp
	.cfi_def_cfa_offset 16
	.cfi_offset %rbp, -16
	movq	%rsp, %rbp
	.cfi_def_cfa_register %rbp
	pushq	%r14
	pushq	%rbx
	.cfi_offset %rbx, -32
	.cfi_offset %r14, -24
	movl	%esi, %r14d
	movq	%rdi, %rbx
	callq	get_urand
	cmpl	$0, %eax
	jne	.LBB9_2
# %bb.1:                                # %func_write_stored_frame.14
	movq	%rbx, %rdi
	movl	%r14d, %esi
	callq	write_stored_frame.14
	popq	%rbx
	popq	%r14
	popq	%rbp
	.cfi_def_cfa %rsp, 8
	retq
.LBB9_2:                                # %func_write_stored_frame.16
	.cfi_def_cfa %rbp, 16
	movq	%rbx, %rdi
	movl	%r14d, %esi
	callq	write_stored_frame.16
	popq	%rbx
	popq	%r14
	popq	%rbp
	.cfi_def_cfa %rsp, 8
	retq
.Lfunc_end9:
	.size	write_stored_frame, .Lfunc_end9-write_stored_frame
	.cfi_endproc
                                        # -- End function
	.globl	direct_output           # -- Begin function direct_output
	.p2align	4, 0x90
	.type	direct_output,@function
direct_output:                          # @direct_output
	.cfi_startproc
# %bb.0:                                # %rand_bb
	pushq	%rbp
	.cfi_def_cfa_offset 16
	.cfi_offset %rbp, -16
	movq	%rsp, %rbp
	.cfi_def_cfa_register %rbp
	pushq	%r14
	pushq	%rbx
	.cfi_offset %rbx, -32
	.cfi_offset %r14, -24
	movl	%esi, %r14d
	movq	%rdi, %rbx
	callq	get_urand
	cmpl	$0, %eax
	jne	.LBB10_2
# %bb.1:                                # %func_direct_output.1
	movq	%rbx, %rdi
	movl	%r14d, %esi
	callq	direct_output.1
	popq	%rbx
	popq	%r14
	popq	%rbp
	.cfi_def_cfa %rsp, 8
	retq
.LBB10_2:                               # %func_direct_output.4
	.cfi_def_cfa %rbp, 16
	movq	%rbx, %rdi
	movl	%r14d, %esi
	callq	direct_output.4
	popq	%rbx
	popq	%r14
	popq	%rbp
	.cfi_def_cfa %rsp, 8
	retq
.Lfunc_end10:
	.size	direct_output, .Lfunc_end10-direct_output
	.cfi_endproc
                                        # -- End function
	.globl	direct_output.1         # -- Begin function direct_output.1
	.p2align	4, 0x90
	.type	direct_output.1,@function
direct_output.1:                        # @direct_output.1
	.cfi_startproc
# %bb.0:                                # %entry
	pushq	%rbp
	.cfi_def_cfa_offset 16
	.cfi_offset %rbp, -16
	movq	%rsp, %rbp
	.cfi_def_cfa_register %rbp
	subq	$32, %rsp
	movl	$2087806577, -20(%rbp)  # imm = 0x7C716671
	movq	%rdi, -16(%rbp)
	movl	%esi, -4(%rbp)
	movq	-16(%rbp), %rax
	cmpl	$0, (%rax)
	jne	.LBB11_2
# %bb.1:                                # %if.then
	movl	-4(%rbp), %edi
	callq	flush_direct_output
	movq	-16(%rbp), %rdi
	movl	-4(%rbp), %esi
	xorl	%edx, %edx
	callq	write_picture
	movq	-16(%rbp), %rdi
	callq	free_storable_picture
	jmp	.LBB11_12
.LBB11_2:                               # %if.end
	movq	-16(%rbp), %rax
	cmpl	$1, (%rax)
	jne	.LBB11_6
# %bb.3:                                # %if.then3
	movq	out_buffer, %rax
	movl	(%rax), %eax
	andl	$1, %eax
	cmpl	$0, %eax
	je	.LBB11_5
# %bb.4:                                # %if.then4
	movl	-4(%rbp), %edi
	callq	flush_direct_output
.LBB11_5:                               # %if.end5
	movq	-16(%rbp), %rax
	movq	out_buffer, %rcx
	movq	%rax, 48(%rcx)
	movq	out_buffer, %rax
	movl	(%rax), %ecx
	orl	$1, %ecx
	movl	%ecx, (%rax)
.LBB11_6:                               # %if.end7
	movq	-16(%rbp), %rax
	cmpl	$2, (%rax)
	jne	.LBB11_10
# %bb.7:                                # %if.then10
	movq	out_buffer, %rax
	movl	(%rax), %eax
	andl	$2, %eax
	cmpl	$0, %eax
	je	.LBB11_9
# %bb.8:                                # %if.then14
	movl	-4(%rbp), %edi
	callq	flush_direct_output
.LBB11_9:                               # %if.end15
	movq	-16(%rbp), %rax
	movq	out_buffer, %rcx
	movq	%rax, 56(%rcx)
	movq	out_buffer, %rax
	movl	(%rax), %ecx
	orl	$2, %ecx
	movl	%ecx, (%rax)
.LBB11_10:                              # %if.end18
	movq	out_buffer, %rax
	cmpl	$3, (%rax)
	jne	.LBB11_12
# %bb.11:                               # %if.then21
	movq	out_buffer, %rdi
	callq	dpb_combine_field
	movq	out_buffer, %rax
	movq	40(%rax), %rdi
	movl	-4(%rbp), %esi
	xorl	%edx, %edx
	callq	write_picture
	movq	out_buffer, %rax
	movq	40(%rax), %rdi
	callq	free_storable_picture
	movq	out_buffer, %rax
	movq	$0, 40(%rax)
	movq	out_buffer, %rax
	movq	48(%rax), %rdi
	callq	free_storable_picture
	movq	out_buffer, %rax
	movq	$0, 48(%rax)
	movq	out_buffer, %rax
	movq	56(%rax), %rdi
	callq	free_storable_picture
	movq	out_buffer, %rax
	movq	$0, 56(%rax)
	movq	out_buffer, %rax
	movl	$0, (%rax)
.LBB11_12:                              # %if.end29
	cmpl	$2087806577, -20(%rbp)  # imm = 0x7C716671
	jne	.LBB11_14
.LBB11_13:
	addq	$32, %rsp
	popq	%rbp
	.cfi_def_cfa %rsp, 8
	retq
.LBB11_14:                              # %func_exit
	.cfi_def_cfa %rbp, 16
	callq	detect_breach
	jmp	.LBB11_13
.Lfunc_end11:
	.size	direct_output.1, .Lfunc_end11-direct_output.1
	.cfi_endproc
                                        # -- End function
	.globl	write_unpaired_field.2  # -- Begin function write_unpaired_field.2
	.p2align	4, 0x90
	.type	write_unpaired_field.2,@function
write_unpaired_field.2:                 # @write_unpaired_field.2
	.cfi_startproc
# %bb.0:                                # %entry
	pushq	%rbp
	.cfi_def_cfa_offset 16
	.cfi_offset %rbp, -16
	movq	%rsp, %rbp
	.cfi_def_cfa_register %rbp
	subq	$32, %rsp
	movl	$188917995, -24(%rbp)   # imm = 0xB42A8EB
	movq	%rdi, -8(%rbp)
	movl	%esi, -20(%rbp)
	movq	-8(%rbp), %rax
	movl	(%rax), %eax
	andl	$1, %eax
	cmpl	$0, %eax
	je	.LBB12_2
# %bb.1:                                # %if.then
	movq	-8(%rbp), %rax
	movq	48(%rax), %rax
	movq	%rax, -16(%rbp)
	movq	-16(%rbp), %rax
	movl	6392(%rax), %esi
	movq	-16(%rbp), %rax
	movl	6396(%rax), %edx
	movq	-16(%rbp), %rax
	movl	6400(%rax), %ecx
	movq	-16(%rbp), %rax
	movl	6404(%rax), %r8d
	movl	$2, %edi
	callq	alloc_storable_picture
	movq	-8(%rbp), %rcx
	movq	%rax, 56(%rcx)
	movq	-8(%rbp), %rax
	movq	56(%rax), %rdi
	callq	clear_picture
	movq	-8(%rbp), %rdi
	callq	dpb_combine_field
	movq	-8(%rbp), %rax
	movq	40(%rax), %rdi
	movl	-20(%rbp), %esi
	movl	$1, %edx
	callq	write_picture
.LBB12_2:                               # %if.end
	movq	-8(%rbp), %rax
	movl	(%rax), %eax
	andl	$2, %eax
	cmpl	$0, %eax
	je	.LBB12_4
# %bb.3:                                # %if.then5
	movq	-8(%rbp), %rax
	movq	56(%rax), %rax
	movq	%rax, -16(%rbp)
	movq	-16(%rbp), %rax
	movl	6392(%rax), %esi
	movq	-16(%rbp), %rax
	movl	6396(%rax), %edx
	movq	-16(%rbp), %rax
	movl	6400(%rax), %ecx
	movq	-16(%rbp), %rax
	movl	6404(%rax), %r8d
	movl	$1, %edi
	callq	alloc_storable_picture
	movq	-8(%rbp), %rcx
	movq	%rax, 48(%rcx)
	movq	-8(%rbp), %rax
	movq	48(%rax), %rdi
	callq	clear_picture
	movq	-8(%rbp), %rdi
	callq	dpb_combine_field
	movq	-8(%rbp), %rax
	movq	40(%rax), %rdi
	movl	-20(%rbp), %esi
	movl	$2, %edx
	callq	write_picture
.LBB12_4:                               # %if.end15
	movq	-8(%rbp), %rax
	movl	$3, (%rax)
	cmpl	$188917995, -24(%rbp)   # imm = 0xB42A8EB
	jne	.LBB12_6
.LBB12_5:
	addq	$32, %rsp
	popq	%rbp
	.cfi_def_cfa %rsp, 8
	retq
.LBB12_6:                               # %func_exit
	.cfi_def_cfa %rbp, 16
	callq	detect_breach
	jmp	.LBB12_5
.Lfunc_end12:
	.size	write_unpaired_field.2, .Lfunc_end12-write_unpaired_field.2
	.cfi_endproc
                                        # -- End function
	.globl	write_unpaired_field.3  # -- Begin function write_unpaired_field.3
	.p2align	4, 0x90
	.type	write_unpaired_field.3,@function
write_unpaired_field.3:                 # @write_unpaired_field.3
	.cfi_startproc
# %bb.0:                                # %entry
	pushq	%rbp
	.cfi_def_cfa_offset 16
	.cfi_offset %rbp, -16
	movq	%rsp, %rbp
	.cfi_def_cfa_register %rbp
	subq	$32, %rsp
	movl	$1100904855, -24(%rbp)  # imm = 0x419E7997
	movq	%rdi, -8(%rbp)
	movl	%esi, -20(%rbp)
	movq	-8(%rbp), %rax
	movl	(%rax), %eax
	andl	$1, %eax
	cmpl	$0, %eax
	je	.LBB13_2
# %bb.1:                                # %if.then
	movq	-8(%rbp), %rax
	movq	48(%rax), %rax
	movq	%rax, -16(%rbp)
	movq	-16(%rbp), %rax
	movl	6392(%rax), %esi
	movq	-16(%rbp), %rax
	movl	6396(%rax), %edx
	movq	-16(%rbp), %rax
	movl	6400(%rax), %ecx
	movq	-16(%rbp), %rax
	movl	6404(%rax), %r8d
	movl	$2, %edi
	callq	alloc_storable_picture
	movq	-8(%rbp), %rcx
	movq	%rax, 56(%rcx)
	movq	-8(%rbp), %rax
	movq	56(%rax), %rdi
	callq	clear_picture
	movq	-8(%rbp), %rdi
	callq	dpb_combine_field
	movq	-8(%rbp), %rax
	movq	40(%rax), %rdi
	movl	-20(%rbp), %esi
	movl	$1, %edx
	callq	write_picture
.LBB13_2:                               # %if.end
	movq	-8(%rbp), %rax
	movl	(%rax), %eax
	andl	$2, %eax
	cmpl	$0, %eax
	je	.LBB13_4
# %bb.3:                                # %if.then5
	movq	-8(%rbp), %rax
	movq	56(%rax), %rax
	movq	%rax, -16(%rbp)
	movq	-16(%rbp), %rax
	movl	6392(%rax), %esi
	movq	-16(%rbp), %rax
	movl	6396(%rax), %edx
	movq	-16(%rbp), %rax
	movl	6400(%rax), %ecx
	movq	-16(%rbp), %rax
	movl	6404(%rax), %r8d
	movl	$1, %edi
	callq	alloc_storable_picture
	movq	-8(%rbp), %rcx
	movq	%rax, 48(%rcx)
	movq	-8(%rbp), %rax
	movq	48(%rax), %rdi
	callq	clear_picture
	movq	-8(%rbp), %rdi
	callq	dpb_combine_field
	movq	-8(%rbp), %rax
	movq	40(%rax), %rdi
	movl	-20(%rbp), %esi
	movl	$2, %edx
	callq	write_picture
.LBB13_4:                               # %if.end15
	movq	-8(%rbp), %rax
	movl	$3, (%rax)
	cmpl	$1100904855, -24(%rbp)  # imm = 0x419E7997
	jne	.LBB13_6
.LBB13_5:
	addq	$32, %rsp
	popq	%rbp
	.cfi_def_cfa %rsp, 8
	retq
.LBB13_6:                               # %func_exit
	.cfi_def_cfa %rbp, 16
	callq	detect_breach
	jmp	.LBB13_5
.Lfunc_end13:
	.size	write_unpaired_field.3, .Lfunc_end13-write_unpaired_field.3
	.cfi_endproc
                                        # -- End function
	.globl	direct_output.4         # -- Begin function direct_output.4
	.p2align	4, 0x90
	.type	direct_output.4,@function
direct_output.4:                        # @direct_output.4
	.cfi_startproc
# %bb.0:                                # %entry
	pushq	%rbp
	.cfi_def_cfa_offset 16
	.cfi_offset %rbp, -16
	movq	%rsp, %rbp
	.cfi_def_cfa_register %rbp
	subq	$32, %rsp
	movl	$1644440734, -20(%rbp)  # imm = 0x62042C9E
	movq	%rdi, -16(%rbp)
	movl	%esi, -4(%rbp)
	movq	-16(%rbp), %rax
	cmpl	$0, (%rax)
	jne	.LBB14_2
# %bb.1:                                # %if.then
	movl	-4(%rbp), %edi
	callq	flush_direct_output
	movq	-16(%rbp), %rdi
	movl	-4(%rbp), %esi
	xorl	%edx, %edx
	callq	write_picture
	movq	-16(%rbp), %rdi
	callq	free_storable_picture
	jmp	.LBB14_12
.LBB14_2:                               # %if.end
	movq	-16(%rbp), %rax
	cmpl	$1, (%rax)
	jne	.LBB14_6
# %bb.3:                                # %if.then3
	movq	out_buffer, %rax
	movl	(%rax), %eax
	andl	$1, %eax
	cmpl	$0, %eax
	je	.LBB14_5
# %bb.4:                                # %if.then4
	movl	-4(%rbp), %edi
	callq	flush_direct_output
.LBB14_5:                               # %if.end5
	movq	-16(%rbp), %rax
	movq	out_buffer, %rcx
	movq	%rax, 48(%rcx)
	movq	out_buffer, %rax
	movl	(%rax), %ecx
	orl	$1, %ecx
	movl	%ecx, (%rax)
.LBB14_6:                               # %if.end7
	movq	-16(%rbp), %rax
	cmpl	$2, (%rax)
	jne	.LBB14_10
# %bb.7:                                # %if.then10
	movq	out_buffer, %rax
	movl	(%rax), %eax
	andl	$2, %eax
	cmpl	$0, %eax
	je	.LBB14_9
# %bb.8:                                # %if.then14
	movl	-4(%rbp), %edi
	callq	flush_direct_output
.LBB14_9:                               # %if.end15
	movq	-16(%rbp), %rax
	movq	out_buffer, %rcx
	movq	%rax, 56(%rcx)
	movq	out_buffer, %rax
	movl	(%rax), %ecx
	orl	$2, %ecx
	movl	%ecx, (%rax)
.LBB14_10:                              # %if.end18
	movq	out_buffer, %rax
	cmpl	$3, (%rax)
	jne	.LBB14_12
# %bb.11:                               # %if.then21
	movq	out_buffer, %rdi
	callq	dpb_combine_field
	movq	out_buffer, %rax
	movq	40(%rax), %rdi
	movl	-4(%rbp), %esi
	xorl	%edx, %edx
	callq	write_picture
	movq	out_buffer, %rax
	movq	40(%rax), %rdi
	callq	free_storable_picture
	movq	out_buffer, %rax
	movq	$0, 40(%rax)
	movq	out_buffer, %rax
	movq	48(%rax), %rdi
	callq	free_storable_picture
	movq	out_buffer, %rax
	movq	$0, 48(%rax)
	movq	out_buffer, %rax
	movq	56(%rax), %rdi
	callq	free_storable_picture
	movq	out_buffer, %rax
	movq	$0, 56(%rax)
	movq	out_buffer, %rax
	movl	$0, (%rax)
.LBB14_12:                              # %if.end29
	cmpl	$1644440734, -20(%rbp)  # imm = 0x62042C9E
	jne	.LBB14_14
.LBB14_13:
	addq	$32, %rsp
	popq	%rbp
	.cfi_def_cfa %rsp, 8
	retq
.LBB14_14:                              # %func_exit
	.cfi_def_cfa %rbp, 16
	callq	detect_breach
	jmp	.LBB14_13
.Lfunc_end14:
	.size	direct_output.4, .Lfunc_end14-direct_output.4
	.cfi_endproc
                                        # -- End function
	.globl	write_out_picture.5     # -- Begin function write_out_picture.5
	.p2align	4, 0x90
	.type	write_out_picture.5,@function
write_out_picture.5:                    # @write_out_picture.5
	.cfi_startproc
# %bb.0:                                # %entry
	pushq	%rbp
	.cfi_def_cfa_offset 16
	.cfi_offset %rbp, -16
	movq	%rsp, %rbp
	.cfi_def_cfa_register %rbp
	subq	$128, %rsp
	xorl	%ecx, %ecx
	movl	$488849643, -52(%rbp)   # imm = 0x1D2340EB
	movq	%rdi, -8(%rbp)
	movl	%esi, -44(%rbp)
	movq	.L__const.write_out_picture.SubWidthC, %rax
	movq	%rax, -96(%rbp)
	movq	.L__const.write_out_picture.SubWidthC+8, %rax
	movq	%rax, -88(%rbp)
	movq	.L__const.write_out_picture.SubHeightC, %rax
	movq	%rax, -80(%rbp)
	movq	.L__const.write_out_picture.SubHeightC+8, %rax
	movq	%rax, -72(%rbp)
	movq	img, %rax
	movl	72656(%rax), %eax
	cltd
	movl	$8, %esi
	idivl	%esi
	movl	%eax, -28(%rbp)
	movq	input, %rax
	cmpl	$0, 3312(%rax)
	je	.LBB15_2
# %bb.1:                                # %land.rhs
	movq	input, %rax
	cmpl	$3, 72(%rax)
	sete	%cl
.LBB15_2:                               # %land.end
	andb	$1, %cl
	movzbl	%cl, %eax
	movl	%eax, -48(%rbp)
	movq	-8(%rbp), %rax
	cmpl	$0, 6388(%rax)
	je	.LBB15_4
# %bb.3:                                # %if.then
	jmp	.LBB15_19
.LBB15_4:                               # %if.end
	movq	-8(%rbp), %rax
	cmpl	$0, 6560(%rax)
	je	.LBB15_6
# %bb.5:                                # %if.then3
	movq	-8(%rbp), %rax
	movslq	6552(%rax), %rax
	movl	-96(%rbp,%rax,4), %eax
	movq	-8(%rbp), %rcx
	imull	6564(%rcx), %eax
	movl	%eax, -24(%rbp)
	movq	-8(%rbp), %rax
	movslq	6552(%rax), %rax
	movl	-96(%rbp,%rax,4), %eax
	movq	-8(%rbp), %rcx
	imull	6568(%rcx), %eax
	movl	%eax, -16(%rbp)
	movq	-8(%rbp), %rax
	movslq	6552(%rax), %rax
	movl	-80(%rbp,%rax,4), %eax
	movq	-8(%rbp), %rcx
	movl	$2, %edx
	movl	$2, %esi
	subl	6556(%rcx), %esi
	imull	%esi, %eax
	movq	-8(%rbp), %rcx
	imull	6572(%rcx), %eax
	movl	%eax, -20(%rbp)
	movq	-8(%rbp), %rax
	movslq	6552(%rax), %rax
	movl	-80(%rbp,%rax,4), %eax
	movq	-8(%rbp), %rcx
	subl	6556(%rcx), %edx
	imull	%edx, %eax
	movq	-8(%rbp), %rcx
	imull	6576(%rcx), %eax
	movl	%eax, -12(%rbp)
	jmp	.LBB15_7
.LBB15_6:                               # %if.else
	movl	$0, -12(%rbp)
	movl	$0, -20(%rbp)
	movl	$0, -16(%rbp)
	movl	$0, -24(%rbp)
.LBB15_7:                               # %if.end20
	movq	-8(%rbp), %rax
	movl	6392(%rax), %eax
	movq	-8(%rbp), %rcx
	imull	6396(%rcx), %eax
	imull	-28(%rbp), %eax
	movslq	%eax, %rdi
	callq	malloc
	xorl	%ecx, %ecx
	movq	%rax, -40(%rbp)
	cmpq	%rax, %rcx
	jne	.LBB15_9
# %bb.8:                                # %if.then25
	movabsq	$.L.str.1, %rdi
	callq	no_mem_exit
.LBB15_9:                               # %if.end26
	cmpl	$0, -48(%rbp)
	je	.LBB15_14
# %bb.10:                               # %if.then28
	movq	-8(%rbp), %rax
	movl	6564(%rax), %eax
	movl	%eax, -24(%rbp)
	movq	-8(%rbp), %rax
	movl	6568(%rax), %eax
	movl	%eax, -16(%rbp)
	movq	-8(%rbp), %rax
	movl	$2, %ecx
	movl	$2, %edx
	subl	6556(%rax), %edx
	movq	-8(%rbp), %rax
	imull	6572(%rax), %edx
	movl	%edx, -20(%rbp)
	movq	-8(%rbp), %rax
	subl	6556(%rax), %ecx
	movq	-8(%rbp), %rax
	imull	6576(%rax), %ecx
	movl	%ecx, -12(%rbp)
	movq	-8(%rbp), %rax
	movq	6464(%rax), %rax
	movq	8(%rax), %rdi
	movq	-40(%rbp), %rsi
	movq	-8(%rbp), %rax
	movl	6400(%rax), %edx
	movq	-8(%rbp), %rax
	movl	6404(%rax), %ecx
	movl	-28(%rbp), %r8d
	movl	-24(%rbp), %r9d
	movl	-16(%rbp), %eax
	movl	-20(%rbp), %r10d
	movl	-12(%rbp), %r11d
	movl	%eax, (%rsp)
	movl	%r10d, 8(%rsp)
	movl	%r11d, 16(%rsp)
	callq	img2buf
	movl	-44(%rbp), %edi
	movq	-40(%rbp), %rsi
	movq	-8(%rbp), %rax
	movl	6404(%rax), %eax
	subl	-12(%rbp), %eax
	subl	-20(%rbp), %eax
	movq	-8(%rbp), %rcx
	movl	6400(%rcx), %ecx
	subl	-16(%rbp), %ecx
	subl	-24(%rbp), %ecx
	imull	%ecx, %eax
	imull	-28(%rbp), %eax
	movslq	%eax, %rdx
	callq	write
	movq	active_sps, %rax
	cmpl	$0, 1160(%rax)
	je	.LBB15_12
# %bb.11:                               # %if.then52
	movq	-8(%rbp), %rax
	movslq	6552(%rax), %rax
	movl	-96(%rbp,%rax,4), %eax
	movq	-8(%rbp), %rcx
	imull	6564(%rcx), %eax
	movl	%eax, -24(%rbp)
	movq	-8(%rbp), %rax
	movslq	6552(%rax), %rax
	movl	-96(%rbp,%rax,4), %eax
	movq	-8(%rbp), %rcx
	imull	6568(%rcx), %eax
	movl	%eax, -16(%rbp)
	movq	-8(%rbp), %rax
	movslq	6552(%rax), %rax
	movl	-80(%rbp,%rax,4), %eax
	movq	-8(%rbp), %rcx
	movl	$2, %edx
	movl	$2, %esi
	subl	6556(%rcx), %esi
	imull	%esi, %eax
	movq	-8(%rbp), %rcx
	imull	6572(%rcx), %eax
	movl	%eax, -20(%rbp)
	movq	-8(%rbp), %rax
	movslq	6552(%rax), %rax
	movl	-80(%rbp,%rax,4), %eax
	movq	-8(%rbp), %rcx
	subl	6556(%rcx), %edx
	imull	%edx, %eax
	movq	-8(%rbp), %rcx
	imull	6576(%rcx), %eax
	movl	%eax, -12(%rbp)
	jmp	.LBB15_13
.LBB15_12:                              # %if.else79
	movl	$0, -12(%rbp)
	movl	$0, -20(%rbp)
	movl	$0, -16(%rbp)
	movl	$0, -24(%rbp)
.LBB15_13:                              # %if.end80
	jmp	.LBB15_14
.LBB15_14:                              # %if.end81
	movq	-8(%rbp), %rax
	movq	6424(%rax), %rdi
	movq	-40(%rbp), %rsi
	movq	-8(%rbp), %rax
	movl	6392(%rax), %edx
	movq	-8(%rbp), %rax
	movl	6396(%rax), %ecx
	movl	-28(%rbp), %r8d
	movl	-24(%rbp), %r9d
	movl	-16(%rbp), %eax
	movl	-20(%rbp), %r10d
	movl	-12(%rbp), %r11d
	movl	%eax, (%rsp)
	movl	%r10d, 8(%rsp)
	movl	%r11d, 16(%rsp)
	callq	img2buf
	movl	-44(%rbp), %edi
	movq	-40(%rbp), %rsi
	movq	-8(%rbp), %rax
	movl	6396(%rax), %eax
	subl	-12(%rbp), %eax
	subl	-20(%rbp), %eax
	movq	-8(%rbp), %rcx
	movl	6392(%rcx), %ecx
	subl	-16(%rbp), %ecx
	subl	-24(%rbp), %ecx
	imull	%ecx, %eax
	imull	-28(%rbp), %eax
	movslq	%eax, %rdx
	callq	write
	movq	-8(%rbp), %rax
	cmpl	$0, 6552(%rax)
	je	.LBB15_18
# %bb.15:                               # %if.then97
	movq	-8(%rbp), %rax
	movl	6564(%rax), %eax
	movl	%eax, -24(%rbp)
	movq	-8(%rbp), %rax
	movl	6568(%rax), %eax
	movl	%eax, -16(%rbp)
	movq	-8(%rbp), %rax
	movl	$2, %ecx
	movl	$2, %edx
	subl	6556(%rax), %edx
	movq	-8(%rbp), %rax
	imull	6572(%rax), %edx
	movl	%edx, -20(%rbp)
	movq	-8(%rbp), %rax
	subl	6556(%rax), %ecx
	movq	-8(%rbp), %rax
	imull	6576(%rax), %ecx
	movl	%ecx, -12(%rbp)
	movq	-8(%rbp), %rax
	movq	6464(%rax), %rax
	movq	(%rax), %rdi
	movq	-40(%rbp), %rsi
	movq	-8(%rbp), %rax
	movl	6400(%rax), %edx
	movq	-8(%rbp), %rax
	movl	6404(%rax), %ecx
	movl	-28(%rbp), %r8d
	movl	-24(%rbp), %r9d
	movl	-16(%rbp), %eax
	movl	-20(%rbp), %r10d
	movl	-12(%rbp), %r11d
	movl	%eax, (%rsp)
	movl	%r10d, 8(%rsp)
	movl	%r11d, 16(%rsp)
	callq	img2buf
	movl	-44(%rbp), %edi
	movq	-40(%rbp), %rsi
	movq	-8(%rbp), %rax
	movl	6404(%rax), %eax
	subl	-12(%rbp), %eax
	subl	-20(%rbp), %eax
	movq	-8(%rbp), %rcx
	movl	6400(%rcx), %ecx
	subl	-16(%rbp), %ecx
	subl	-24(%rbp), %ecx
	imull	%ecx, %eax
	imull	-28(%rbp), %eax
	movslq	%eax, %rdx
	callq	write
	cmpl	$0, -48(%rbp)
	jne	.LBB15_17
# %bb.16:                               # %if.then123
	movq	-8(%rbp), %rax
	movq	6464(%rax), %rax
	movq	8(%rax), %rdi
	movq	-40(%rbp), %rsi
	movq	-8(%rbp), %rax
	movl	6400(%rax), %edx
	movq	-8(%rbp), %rax
	movl	6404(%rax), %ecx
	movl	-28(%rbp), %r8d
	movl	-24(%rbp), %r9d
	movl	-16(%rbp), %eax
	movl	-20(%rbp), %r10d
	movl	-12(%rbp), %r11d
	movl	%eax, (%rsp)
	movl	%r10d, 8(%rsp)
	movl	%r11d, 16(%rsp)
	callq	img2buf
	movl	-44(%rbp), %edi
	movq	-40(%rbp), %rsi
	movq	-8(%rbp), %rax
	movl	6404(%rax), %eax
	subl	-12(%rbp), %eax
	subl	-20(%rbp), %eax
	movq	-8(%rbp), %rcx
	movl	6400(%rcx), %ecx
	subl	-16(%rbp), %ecx
	subl	-24(%rbp), %ecx
	imull	%ecx, %eax
	imull	-28(%rbp), %eax
	movslq	%eax, %rdx
	callq	write
.LBB15_17:                              # %if.end138
	jmp	.LBB15_18
.LBB15_18:                              # %if.end139
	movq	-40(%rbp), %rdi
	callq	free
.LBB15_19:                              # %return
	cmpl	$488849643, -52(%rbp)   # imm = 0x1D2340EB
	jne	.LBB15_21
.LBB15_20:
	addq	$128, %rsp
	popq	%rbp
	.cfi_def_cfa %rsp, 8
	retq
.LBB15_21:                              # %func_exit
	.cfi_def_cfa %rbp, 16
	callq	detect_breach
	jmp	.LBB15_20
.Lfunc_end15:
	.size	write_out_picture.5, .Lfunc_end15-write_out_picture.5
	.cfi_endproc
                                        # -- End function
	.globl	write_out_picture.6     # -- Begin function write_out_picture.6
	.p2align	4, 0x90
	.type	write_out_picture.6,@function
write_out_picture.6:                    # @write_out_picture.6
	.cfi_startproc
# %bb.0:                                # %entry
	pushq	%rbp
	.cfi_def_cfa_offset 16
	.cfi_offset %rbp, -16
	movq	%rsp, %rbp
	.cfi_def_cfa_register %rbp
	subq	$128, %rsp
	xorl	%ecx, %ecx
	movl	$761754433, -52(%rbp)   # imm = 0x2D677341
	movq	%rdi, -8(%rbp)
	movl	%esi, -44(%rbp)
	movq	.L__const.write_out_picture.SubWidthC, %rax
	movq	%rax, -80(%rbp)
	movq	.L__const.write_out_picture.SubWidthC+8, %rax
	movq	%rax, -72(%rbp)
	movq	.L__const.write_out_picture.SubHeightC, %rax
	movq	%rax, -96(%rbp)
	movq	.L__const.write_out_picture.SubHeightC+8, %rax
	movq	%rax, -88(%rbp)
	movq	img, %rax
	movl	72656(%rax), %eax
	cltd
	movl	$8, %esi
	idivl	%esi
	movl	%eax, -28(%rbp)
	movq	input, %rax
	cmpl	$0, 3312(%rax)
	je	.LBB16_2
# %bb.1:                                # %land.rhs
	movq	input, %rax
	cmpl	$3, 72(%rax)
	sete	%cl
.LBB16_2:                               # %land.end
	andb	$1, %cl
	movzbl	%cl, %eax
	movl	%eax, -48(%rbp)
	movq	-8(%rbp), %rax
	cmpl	$0, 6388(%rax)
	je	.LBB16_4
# %bb.3:                                # %if.then
	jmp	.LBB16_19
.LBB16_4:                               # %if.end
	movq	-8(%rbp), %rax
	cmpl	$0, 6560(%rax)
	je	.LBB16_6
# %bb.5:                                # %if.then3
	movq	-8(%rbp), %rax
	movslq	6552(%rax), %rax
	movl	-80(%rbp,%rax,4), %eax
	movq	-8(%rbp), %rcx
	imull	6564(%rcx), %eax
	movl	%eax, -12(%rbp)
	movq	-8(%rbp), %rax
	movslq	6552(%rax), %rax
	movl	-80(%rbp,%rax,4), %eax
	movq	-8(%rbp), %rcx
	imull	6568(%rcx), %eax
	movl	%eax, -24(%rbp)
	movq	-8(%rbp), %rax
	movslq	6552(%rax), %rax
	movl	-96(%rbp,%rax,4), %eax
	movq	-8(%rbp), %rcx
	movl	$2, %edx
	movl	$2, %esi
	subl	6556(%rcx), %esi
	imull	%esi, %eax
	movq	-8(%rbp), %rcx
	imull	6572(%rcx), %eax
	movl	%eax, -16(%rbp)
	movq	-8(%rbp), %rax
	movslq	6552(%rax), %rax
	movl	-96(%rbp,%rax,4), %eax
	movq	-8(%rbp), %rcx
	subl	6556(%rcx), %edx
	imull	%edx, %eax
	movq	-8(%rbp), %rcx
	imull	6576(%rcx), %eax
	movl	%eax, -20(%rbp)
	jmp	.LBB16_7
.LBB16_6:                               # %if.else
	movl	$0, -20(%rbp)
	movl	$0, -16(%rbp)
	movl	$0, -24(%rbp)
	movl	$0, -12(%rbp)
.LBB16_7:                               # %if.end20
	movq	-8(%rbp), %rax
	movl	6392(%rax), %eax
	movq	-8(%rbp), %rcx
	imull	6396(%rcx), %eax
	imull	-28(%rbp), %eax
	movslq	%eax, %rdi
	callq	malloc
	xorl	%ecx, %ecx
	movq	%rax, -40(%rbp)
	cmpq	%rax, %rcx
	jne	.LBB16_9
# %bb.8:                                # %if.then25
	movabsq	$.L.str.1, %rdi
	callq	no_mem_exit
.LBB16_9:                               # %if.end26
	cmpl	$0, -48(%rbp)
	je	.LBB16_14
# %bb.10:                               # %if.then28
	movq	-8(%rbp), %rax
	movl	6564(%rax), %eax
	movl	%eax, -12(%rbp)
	movq	-8(%rbp), %rax
	movl	6568(%rax), %eax
	movl	%eax, -24(%rbp)
	movq	-8(%rbp), %rax
	movl	$2, %ecx
	movl	$2, %edx
	subl	6556(%rax), %edx
	movq	-8(%rbp), %rax
	imull	6572(%rax), %edx
	movl	%edx, -16(%rbp)
	movq	-8(%rbp), %rax
	subl	6556(%rax), %ecx
	movq	-8(%rbp), %rax
	imull	6576(%rax), %ecx
	movl	%ecx, -20(%rbp)
	movq	-8(%rbp), %rax
	movq	6464(%rax), %rax
	movq	8(%rax), %rdi
	movq	-40(%rbp), %rsi
	movq	-8(%rbp), %rax
	movl	6400(%rax), %edx
	movq	-8(%rbp), %rax
	movl	6404(%rax), %ecx
	movl	-28(%rbp), %r8d
	movl	-12(%rbp), %r9d
	movl	-24(%rbp), %eax
	movl	-16(%rbp), %r10d
	movl	-20(%rbp), %r11d
	movl	%eax, (%rsp)
	movl	%r10d, 8(%rsp)
	movl	%r11d, 16(%rsp)
	callq	img2buf
	movl	-44(%rbp), %edi
	movq	-40(%rbp), %rsi
	movq	-8(%rbp), %rax
	movl	6404(%rax), %eax
	subl	-20(%rbp), %eax
	subl	-16(%rbp), %eax
	movq	-8(%rbp), %rcx
	movl	6400(%rcx), %ecx
	subl	-24(%rbp), %ecx
	subl	-12(%rbp), %ecx
	imull	%ecx, %eax
	imull	-28(%rbp), %eax
	movslq	%eax, %rdx
	callq	write
	movq	active_sps, %rax
	cmpl	$0, 1160(%rax)
	je	.LBB16_12
# %bb.11:                               # %if.then52
	movq	-8(%rbp), %rax
	movslq	6552(%rax), %rax
	movl	-80(%rbp,%rax,4), %eax
	movq	-8(%rbp), %rcx
	imull	6564(%rcx), %eax
	movl	%eax, -12(%rbp)
	movq	-8(%rbp), %rax
	movslq	6552(%rax), %rax
	movl	-80(%rbp,%rax,4), %eax
	movq	-8(%rbp), %rcx
	imull	6568(%rcx), %eax
	movl	%eax, -24(%rbp)
	movq	-8(%rbp), %rax
	movslq	6552(%rax), %rax
	movl	-96(%rbp,%rax,4), %eax
	movq	-8(%rbp), %rcx
	movl	$2, %edx
	movl	$2, %esi
	subl	6556(%rcx), %esi
	imull	%esi, %eax
	movq	-8(%rbp), %rcx
	imull	6572(%rcx), %eax
	movl	%eax, -16(%rbp)
	movq	-8(%rbp), %rax
	movslq	6552(%rax), %rax
	movl	-96(%rbp,%rax,4), %eax
	movq	-8(%rbp), %rcx
	subl	6556(%rcx), %edx
	imull	%edx, %eax
	movq	-8(%rbp), %rcx
	imull	6576(%rcx), %eax
	movl	%eax, -20(%rbp)
	jmp	.LBB16_13
.LBB16_12:                              # %if.else79
	movl	$0, -20(%rbp)
	movl	$0, -16(%rbp)
	movl	$0, -24(%rbp)
	movl	$0, -12(%rbp)
.LBB16_13:                              # %if.end80
	jmp	.LBB16_14
.LBB16_14:                              # %if.end81
	movq	-8(%rbp), %rax
	movq	6424(%rax), %rdi
	movq	-40(%rbp), %rsi
	movq	-8(%rbp), %rax
	movl	6392(%rax), %edx
	movq	-8(%rbp), %rax
	movl	6396(%rax), %ecx
	movl	-28(%rbp), %r8d
	movl	-12(%rbp), %r9d
	movl	-24(%rbp), %eax
	movl	-16(%rbp), %r10d
	movl	-20(%rbp), %r11d
	movl	%eax, (%rsp)
	movl	%r10d, 8(%rsp)
	movl	%r11d, 16(%rsp)
	callq	img2buf
	movl	-44(%rbp), %edi
	movq	-40(%rbp), %rsi
	movq	-8(%rbp), %rax
	movl	6396(%rax), %eax
	subl	-20(%rbp), %eax
	subl	-16(%rbp), %eax
	movq	-8(%rbp), %rcx
	movl	6392(%rcx), %ecx
	subl	-24(%rbp), %ecx
	subl	-12(%rbp), %ecx
	imull	%ecx, %eax
	imull	-28(%rbp), %eax
	movslq	%eax, %rdx
	callq	write
	movq	-8(%rbp), %rax
	cmpl	$0, 6552(%rax)
	je	.LBB16_18
# %bb.15:                               # %if.then97
	movq	-8(%rbp), %rax
	movl	6564(%rax), %eax
	movl	%eax, -12(%rbp)
	movq	-8(%rbp), %rax
	movl	6568(%rax), %eax
	movl	%eax, -24(%rbp)
	movq	-8(%rbp), %rax
	movl	$2, %ecx
	movl	$2, %edx
	subl	6556(%rax), %edx
	movq	-8(%rbp), %rax
	imull	6572(%rax), %edx
	movl	%edx, -16(%rbp)
	movq	-8(%rbp), %rax
	subl	6556(%rax), %ecx
	movq	-8(%rbp), %rax
	imull	6576(%rax), %ecx
	movl	%ecx, -20(%rbp)
	movq	-8(%rbp), %rax
	movq	6464(%rax), %rax
	movq	(%rax), %rdi
	movq	-40(%rbp), %rsi
	movq	-8(%rbp), %rax
	movl	6400(%rax), %edx
	movq	-8(%rbp), %rax
	movl	6404(%rax), %ecx
	movl	-28(%rbp), %r8d
	movl	-12(%rbp), %r9d
	movl	-24(%rbp), %eax
	movl	-16(%rbp), %r10d
	movl	-20(%rbp), %r11d
	movl	%eax, (%rsp)
	movl	%r10d, 8(%rsp)
	movl	%r11d, 16(%rsp)
	callq	img2buf
	movl	-44(%rbp), %edi
	movq	-40(%rbp), %rsi
	movq	-8(%rbp), %rax
	movl	6404(%rax), %eax
	subl	-20(%rbp), %eax
	subl	-16(%rbp), %eax
	movq	-8(%rbp), %rcx
	movl	6400(%rcx), %ecx
	subl	-24(%rbp), %ecx
	subl	-12(%rbp), %ecx
	imull	%ecx, %eax
	imull	-28(%rbp), %eax
	movslq	%eax, %rdx
	callq	write
	cmpl	$0, -48(%rbp)
	jne	.LBB16_17
# %bb.16:                               # %if.then123
	movq	-8(%rbp), %rax
	movq	6464(%rax), %rax
	movq	8(%rax), %rdi
	movq	-40(%rbp), %rsi
	movq	-8(%rbp), %rax
	movl	6400(%rax), %edx
	movq	-8(%rbp), %rax
	movl	6404(%rax), %ecx
	movl	-28(%rbp), %r8d
	movl	-12(%rbp), %r9d
	movl	-24(%rbp), %eax
	movl	-16(%rbp), %r10d
	movl	-20(%rbp), %r11d
	movl	%eax, (%rsp)
	movl	%r10d, 8(%rsp)
	movl	%r11d, 16(%rsp)
	callq	img2buf
	movl	-44(%rbp), %edi
	movq	-40(%rbp), %rsi
	movq	-8(%rbp), %rax
	movl	6404(%rax), %eax
	subl	-20(%rbp), %eax
	subl	-16(%rbp), %eax
	movq	-8(%rbp), %rcx
	movl	6400(%rcx), %ecx
	subl	-24(%rbp), %ecx
	subl	-12(%rbp), %ecx
	imull	%ecx, %eax
	imull	-28(%rbp), %eax
	movslq	%eax, %rdx
	callq	write
.LBB16_17:                              # %if.end138
	jmp	.LBB16_18
.LBB16_18:                              # %if.end139
	movq	-40(%rbp), %rdi
	callq	free
.LBB16_19:                              # %return
	cmpl	$761754433, -52(%rbp)   # imm = 0x2D677341
	jne	.LBB16_21
.LBB16_20:
	addq	$128, %rsp
	popq	%rbp
	.cfi_def_cfa %rsp, 8
	retq
.LBB16_21:                              # %func_exit
	.cfi_def_cfa %rbp, 16
	callq	detect_breach
	jmp	.LBB16_20
.Lfunc_end16:
	.size	write_out_picture.6, .Lfunc_end16-write_out_picture.6
	.cfi_endproc
                                        # -- End function
	.globl	write_unpaired_field.7  # -- Begin function write_unpaired_field.7
	.p2align	4, 0x90
	.type	write_unpaired_field.7,@function
write_unpaired_field.7:                 # @write_unpaired_field.7
	.cfi_startproc
# %bb.0:                                # %entry
	pushq	%rbp
	.cfi_def_cfa_offset 16
	.cfi_offset %rbp, -16
	movq	%rsp, %rbp
	.cfi_def_cfa_register %rbp
	subq	$32, %rsp
	movl	$826833423, -24(%rbp)   # imm = 0x31487A0F
	movq	%rdi, -8(%rbp)
	movl	%esi, -20(%rbp)
	movq	-8(%rbp), %rax
	movl	(%rax), %eax
	andl	$1, %eax
	cmpl	$0, %eax
	je	.LBB17_2
# %bb.1:                                # %if.then
	movq	-8(%rbp), %rax
	movq	48(%rax), %rax
	movq	%rax, -16(%rbp)
	movq	-16(%rbp), %rax
	movl	6392(%rax), %esi
	movq	-16(%rbp), %rax
	movl	6396(%rax), %edx
	movq	-16(%rbp), %rax
	movl	6400(%rax), %ecx
	movq	-16(%rbp), %rax
	movl	6404(%rax), %r8d
	movl	$2, %edi
	callq	alloc_storable_picture
	movq	-8(%rbp), %rcx
	movq	%rax, 56(%rcx)
	movq	-8(%rbp), %rax
	movq	56(%rax), %rdi
	callq	clear_picture
	movq	-8(%rbp), %rdi
	callq	dpb_combine_field
	movq	-8(%rbp), %rax
	movq	40(%rax), %rdi
	movl	-20(%rbp), %esi
	movl	$1, %edx
	callq	write_picture
.LBB17_2:                               # %if.end
	movq	-8(%rbp), %rax
	movl	(%rax), %eax
	andl	$2, %eax
	cmpl	$0, %eax
	je	.LBB17_4
# %bb.3:                                # %if.then5
	movq	-8(%rbp), %rax
	movq	56(%rax), %rax
	movq	%rax, -16(%rbp)
	movq	-16(%rbp), %rax
	movl	6392(%rax), %esi
	movq	-16(%rbp), %rax
	movl	6396(%rax), %edx
	movq	-16(%rbp), %rax
	movl	6400(%rax), %ecx
	movq	-16(%rbp), %rax
	movl	6404(%rax), %r8d
	movl	$1, %edi
	callq	alloc_storable_picture
	movq	-8(%rbp), %rcx
	movq	%rax, 48(%rcx)
	movq	-8(%rbp), %rax
	movq	48(%rax), %rdi
	callq	clear_picture
	movq	-8(%rbp), %rdi
	callq	dpb_combine_field
	movq	-8(%rbp), %rax
	movq	40(%rax), %rdi
	movl	-20(%rbp), %esi
	movl	$2, %edx
	callq	write_picture
.LBB17_4:                               # %if.end15
	movq	-8(%rbp), %rax
	movl	$3, (%rax)
	cmpl	$826833423, -24(%rbp)   # imm = 0x31487A0F
	jne	.LBB17_6
.LBB17_5:
	addq	$32, %rsp
	popq	%rbp
	.cfi_def_cfa %rsp, 8
	retq
.LBB17_6:                               # %func_exit
	.cfi_def_cfa %rbp, 16
	callq	detect_breach
	jmp	.LBB17_5
.Lfunc_end17:
	.size	write_unpaired_field.7, .Lfunc_end17-write_unpaired_field.7
	.cfi_endproc
                                        # -- End function
	.globl	write_out_picture.8     # -- Begin function write_out_picture.8
	.p2align	4, 0x90
	.type	write_out_picture.8,@function
write_out_picture.8:                    # @write_out_picture.8
	.cfi_startproc
# %bb.0:                                # %entry
	pushq	%rbp
	.cfi_def_cfa_offset 16
	.cfi_offset %rbp, -16
	movq	%rsp, %rbp
	.cfi_def_cfa_register %rbp
	subq	$128, %rsp
	xorl	%ecx, %ecx
	movl	$825507270, -52(%rbp)   # imm = 0x31343DC6
	movq	%rdi, -8(%rbp)
	movl	%esi, -44(%rbp)
	movq	.L__const.write_out_picture.SubWidthC, %rax
	movq	%rax, -96(%rbp)
	movq	.L__const.write_out_picture.SubWidthC+8, %rax
	movq	%rax, -88(%rbp)
	movq	.L__const.write_out_picture.SubHeightC, %rax
	movq	%rax, -80(%rbp)
	movq	.L__const.write_out_picture.SubHeightC+8, %rax
	movq	%rax, -72(%rbp)
	movq	img, %rax
	movl	72656(%rax), %eax
	cltd
	movl	$8, %esi
	idivl	%esi
	movl	%eax, -28(%rbp)
	movq	input, %rax
	cmpl	$0, 3312(%rax)
	je	.LBB18_2
# %bb.1:                                # %land.rhs
	movq	input, %rax
	cmpl	$3, 72(%rax)
	sete	%cl
.LBB18_2:                               # %land.end
	andb	$1, %cl
	movzbl	%cl, %eax
	movl	%eax, -48(%rbp)
	movq	-8(%rbp), %rax
	cmpl	$0, 6388(%rax)
	je	.LBB18_4
# %bb.3:                                # %if.then
	jmp	.LBB18_19
.LBB18_4:                               # %if.end
	movq	-8(%rbp), %rax
	cmpl	$0, 6560(%rax)
	je	.LBB18_6
# %bb.5:                                # %if.then3
	movq	-8(%rbp), %rax
	movslq	6552(%rax), %rax
	movl	-96(%rbp,%rax,4), %eax
	movq	-8(%rbp), %rcx
	imull	6564(%rcx), %eax
	movl	%eax, -12(%rbp)
	movq	-8(%rbp), %rax
	movslq	6552(%rax), %rax
	movl	-96(%rbp,%rax,4), %eax
	movq	-8(%rbp), %rcx
	imull	6568(%rcx), %eax
	movl	%eax, -20(%rbp)
	movq	-8(%rbp), %rax
	movslq	6552(%rax), %rax
	movl	-80(%rbp,%rax,4), %eax
	movq	-8(%rbp), %rcx
	movl	$2, %edx
	movl	$2, %esi
	subl	6556(%rcx), %esi
	imull	%esi, %eax
	movq	-8(%rbp), %rcx
	imull	6572(%rcx), %eax
	movl	%eax, -16(%rbp)
	movq	-8(%rbp), %rax
	movslq	6552(%rax), %rax
	movl	-80(%rbp,%rax,4), %eax
	movq	-8(%rbp), %rcx
	subl	6556(%rcx), %edx
	imull	%edx, %eax
	movq	-8(%rbp), %rcx
	imull	6576(%rcx), %eax
	movl	%eax, -24(%rbp)
	jmp	.LBB18_7
.LBB18_6:                               # %if.else
	movl	$0, -24(%rbp)
	movl	$0, -16(%rbp)
	movl	$0, -20(%rbp)
	movl	$0, -12(%rbp)
.LBB18_7:                               # %if.end20
	movq	-8(%rbp), %rax
	movl	6392(%rax), %eax
	movq	-8(%rbp), %rcx
	imull	6396(%rcx), %eax
	imull	-28(%rbp), %eax
	movslq	%eax, %rdi
	callq	malloc
	xorl	%ecx, %ecx
	movq	%rax, -40(%rbp)
	cmpq	%rax, %rcx
	jne	.LBB18_9
# %bb.8:                                # %if.then25
	movabsq	$.L.str.1, %rdi
	callq	no_mem_exit
.LBB18_9:                               # %if.end26
	cmpl	$0, -48(%rbp)
	je	.LBB18_14
# %bb.10:                               # %if.then28
	movq	-8(%rbp), %rax
	movl	6564(%rax), %eax
	movl	%eax, -12(%rbp)
	movq	-8(%rbp), %rax
	movl	6568(%rax), %eax
	movl	%eax, -20(%rbp)
	movq	-8(%rbp), %rax
	movl	$2, %ecx
	movl	$2, %edx
	subl	6556(%rax), %edx
	movq	-8(%rbp), %rax
	imull	6572(%rax), %edx
	movl	%edx, -16(%rbp)
	movq	-8(%rbp), %rax
	subl	6556(%rax), %ecx
	movq	-8(%rbp), %rax
	imull	6576(%rax), %ecx
	movl	%ecx, -24(%rbp)
	movq	-8(%rbp), %rax
	movq	6464(%rax), %rax
	movq	8(%rax), %rdi
	movq	-40(%rbp), %rsi
	movq	-8(%rbp), %rax
	movl	6400(%rax), %edx
	movq	-8(%rbp), %rax
	movl	6404(%rax), %ecx
	movl	-28(%rbp), %r8d
	movl	-12(%rbp), %r9d
	movl	-20(%rbp), %eax
	movl	-16(%rbp), %r10d
	movl	-24(%rbp), %r11d
	movl	%eax, (%rsp)
	movl	%r10d, 8(%rsp)
	movl	%r11d, 16(%rsp)
	callq	img2buf
	movl	-44(%rbp), %edi
	movq	-40(%rbp), %rsi
	movq	-8(%rbp), %rax
	movl	6404(%rax), %eax
	subl	-24(%rbp), %eax
	subl	-16(%rbp), %eax
	movq	-8(%rbp), %rcx
	movl	6400(%rcx), %ecx
	subl	-20(%rbp), %ecx
	subl	-12(%rbp), %ecx
	imull	%ecx, %eax
	imull	-28(%rbp), %eax
	movslq	%eax, %rdx
	callq	write
	movq	active_sps, %rax
	cmpl	$0, 1160(%rax)
	je	.LBB18_12
# %bb.11:                               # %if.then52
	movq	-8(%rbp), %rax
	movslq	6552(%rax), %rax
	movl	-96(%rbp,%rax,4), %eax
	movq	-8(%rbp), %rcx
	imull	6564(%rcx), %eax
	movl	%eax, -12(%rbp)
	movq	-8(%rbp), %rax
	movslq	6552(%rax), %rax
	movl	-96(%rbp,%rax,4), %eax
	movq	-8(%rbp), %rcx
	imull	6568(%rcx), %eax
	movl	%eax, -20(%rbp)
	movq	-8(%rbp), %rax
	movslq	6552(%rax), %rax
	movl	-80(%rbp,%rax,4), %eax
	movq	-8(%rbp), %rcx
	movl	$2, %edx
	movl	$2, %esi
	subl	6556(%rcx), %esi
	imull	%esi, %eax
	movq	-8(%rbp), %rcx
	imull	6572(%rcx), %eax
	movl	%eax, -16(%rbp)
	movq	-8(%rbp), %rax
	movslq	6552(%rax), %rax
	movl	-80(%rbp,%rax,4), %eax
	movq	-8(%rbp), %rcx
	subl	6556(%rcx), %edx
	imull	%edx, %eax
	movq	-8(%rbp), %rcx
	imull	6576(%rcx), %eax
	movl	%eax, -24(%rbp)
	jmp	.LBB18_13
.LBB18_12:                              # %if.else79
	movl	$0, -24(%rbp)
	movl	$0, -16(%rbp)
	movl	$0, -20(%rbp)
	movl	$0, -12(%rbp)
.LBB18_13:                              # %if.end80
	jmp	.LBB18_14
.LBB18_14:                              # %if.end81
	movq	-8(%rbp), %rax
	movq	6424(%rax), %rdi
	movq	-40(%rbp), %rsi
	movq	-8(%rbp), %rax
	movl	6392(%rax), %edx
	movq	-8(%rbp), %rax
	movl	6396(%rax), %ecx
	movl	-28(%rbp), %r8d
	movl	-12(%rbp), %r9d
	movl	-20(%rbp), %eax
	movl	-16(%rbp), %r10d
	movl	-24(%rbp), %r11d
	movl	%eax, (%rsp)
	movl	%r10d, 8(%rsp)
	movl	%r11d, 16(%rsp)
	callq	img2buf
	movl	-44(%rbp), %edi
	movq	-40(%rbp), %rsi
	movq	-8(%rbp), %rax
	movl	6396(%rax), %eax
	subl	-24(%rbp), %eax
	subl	-16(%rbp), %eax
	movq	-8(%rbp), %rcx
	movl	6392(%rcx), %ecx
	subl	-20(%rbp), %ecx
	subl	-12(%rbp), %ecx
	imull	%ecx, %eax
	imull	-28(%rbp), %eax
	movslq	%eax, %rdx
	callq	write
	movq	-8(%rbp), %rax
	cmpl	$0, 6552(%rax)
	je	.LBB18_18
# %bb.15:                               # %if.then97
	movq	-8(%rbp), %rax
	movl	6564(%rax), %eax
	movl	%eax, -12(%rbp)
	movq	-8(%rbp), %rax
	movl	6568(%rax), %eax
	movl	%eax, -20(%rbp)
	movq	-8(%rbp), %rax
	movl	$2, %ecx
	movl	$2, %edx
	subl	6556(%rax), %edx
	movq	-8(%rbp), %rax
	imull	6572(%rax), %edx
	movl	%edx, -16(%rbp)
	movq	-8(%rbp), %rax
	subl	6556(%rax), %ecx
	movq	-8(%rbp), %rax
	imull	6576(%rax), %ecx
	movl	%ecx, -24(%rbp)
	movq	-8(%rbp), %rax
	movq	6464(%rax), %rax
	movq	(%rax), %rdi
	movq	-40(%rbp), %rsi
	movq	-8(%rbp), %rax
	movl	6400(%rax), %edx
	movq	-8(%rbp), %rax
	movl	6404(%rax), %ecx
	movl	-28(%rbp), %r8d
	movl	-12(%rbp), %r9d
	movl	-20(%rbp), %eax
	movl	-16(%rbp), %r10d
	movl	-24(%rbp), %r11d
	movl	%eax, (%rsp)
	movl	%r10d, 8(%rsp)
	movl	%r11d, 16(%rsp)
	callq	img2buf
	movl	-44(%rbp), %edi
	movq	-40(%rbp), %rsi
	movq	-8(%rbp), %rax
	movl	6404(%rax), %eax
	subl	-24(%rbp), %eax
	subl	-16(%rbp), %eax
	movq	-8(%rbp), %rcx
	movl	6400(%rcx), %ecx
	subl	-20(%rbp), %ecx
	subl	-12(%rbp), %ecx
	imull	%ecx, %eax
	imull	-28(%rbp), %eax
	movslq	%eax, %rdx
	callq	write
	cmpl	$0, -48(%rbp)
	jne	.LBB18_17
# %bb.16:                               # %if.then123
	movq	-8(%rbp), %rax
	movq	6464(%rax), %rax
	movq	8(%rax), %rdi
	movq	-40(%rbp), %rsi
	movq	-8(%rbp), %rax
	movl	6400(%rax), %edx
	movq	-8(%rbp), %rax
	movl	6404(%rax), %ecx
	movl	-28(%rbp), %r8d
	movl	-12(%rbp), %r9d
	movl	-20(%rbp), %eax
	movl	-16(%rbp), %r10d
	movl	-24(%rbp), %r11d
	movl	%eax, (%rsp)
	movl	%r10d, 8(%rsp)
	movl	%r11d, 16(%rsp)
	callq	img2buf
	movl	-44(%rbp), %edi
	movq	-40(%rbp), %rsi
	movq	-8(%rbp), %rax
	movl	6404(%rax), %eax
	subl	-24(%rbp), %eax
	subl	-16(%rbp), %eax
	movq	-8(%rbp), %rcx
	movl	6400(%rcx), %ecx
	subl	-20(%rbp), %ecx
	subl	-12(%rbp), %ecx
	imull	%ecx, %eax
	imull	-28(%rbp), %eax
	movslq	%eax, %rdx
	callq	write
.LBB18_17:                              # %if.end138
	jmp	.LBB18_18
.LBB18_18:                              # %if.end139
	movq	-40(%rbp), %rdi
	callq	free
.LBB18_19:                              # %return
	cmpl	$825507270, -52(%rbp)   # imm = 0x31343DC6
	jne	.LBB18_21
.LBB18_20:
	addq	$128, %rsp
	popq	%rbp
	.cfi_def_cfa %rsp, 8
	retq
.LBB18_21:                              # %func_exit
	.cfi_def_cfa %rbp, 16
	callq	detect_breach
	jmp	.LBB18_20
.Lfunc_end18:
	.size	write_out_picture.8, .Lfunc_end18-write_out_picture.8
	.cfi_endproc
                                        # -- End function
	.globl	write_unpaired_field.9  # -- Begin function write_unpaired_field.9
	.p2align	4, 0x90
	.type	write_unpaired_field.9,@function
write_unpaired_field.9:                 # @write_unpaired_field.9
	.cfi_startproc
# %bb.0:                                # %entry
	pushq	%rbp
	.cfi_def_cfa_offset 16
	.cfi_offset %rbp, -16
	movq	%rsp, %rbp
	.cfi_def_cfa_register %rbp
	subq	$32, %rsp
	movl	$1640637621, -24(%rbp)  # imm = 0x61CA24B5
	movq	%rdi, -8(%rbp)
	movl	%esi, -20(%rbp)
	movq	-8(%rbp), %rax
	movl	(%rax), %eax
	andl	$1, %eax
	cmpl	$0, %eax
	je	.LBB19_2
# %bb.1:                                # %if.then
	movq	-8(%rbp), %rax
	movq	48(%rax), %rax
	movq	%rax, -16(%rbp)
	movq	-16(%rbp), %rax
	movl	6392(%rax), %esi
	movq	-16(%rbp), %rax
	movl	6396(%rax), %edx
	movq	-16(%rbp), %rax
	movl	6400(%rax), %ecx
	movq	-16(%rbp), %rax
	movl	6404(%rax), %r8d
	movl	$2, %edi
	callq	alloc_storable_picture
	movq	-8(%rbp), %rcx
	movq	%rax, 56(%rcx)
	movq	-8(%rbp), %rax
	movq	56(%rax), %rdi
	callq	clear_picture
	movq	-8(%rbp), %rdi
	callq	dpb_combine_field
	movq	-8(%rbp), %rax
	movq	40(%rax), %rdi
	movl	-20(%rbp), %esi
	movl	$1, %edx
	callq	write_picture
.LBB19_2:                               # %if.end
	movq	-8(%rbp), %rax
	movl	(%rax), %eax
	andl	$2, %eax
	cmpl	$0, %eax
	je	.LBB19_4
# %bb.3:                                # %if.then5
	movq	-8(%rbp), %rax
	movq	56(%rax), %rax
	movq	%rax, -16(%rbp)
	movq	-16(%rbp), %rax
	movl	6392(%rax), %esi
	movq	-16(%rbp), %rax
	movl	6396(%rax), %edx
	movq	-16(%rbp), %rax
	movl	6400(%rax), %ecx
	movq	-16(%rbp), %rax
	movl	6404(%rax), %r8d
	movl	$1, %edi
	callq	alloc_storable_picture
	movq	-8(%rbp), %rcx
	movq	%rax, 48(%rcx)
	movq	-8(%rbp), %rax
	movq	48(%rax), %rdi
	callq	clear_picture
	movq	-8(%rbp), %rdi
	callq	dpb_combine_field
	movq	-8(%rbp), %rax
	movq	40(%rax), %rdi
	movl	-20(%rbp), %esi
	movl	$2, %edx
	callq	write_picture
.LBB19_4:                               # %if.end15
	movq	-8(%rbp), %rax
	movl	$3, (%rax)
	cmpl	$1640637621, -24(%rbp)  # imm = 0x61CA24B5
	jne	.LBB19_6
.LBB19_5:
	addq	$32, %rsp
	popq	%rbp
	.cfi_def_cfa %rsp, 8
	retq
.LBB19_6:                               # %func_exit
	.cfi_def_cfa %rbp, 16
	callq	detect_breach
	jmp	.LBB19_5
.Lfunc_end19:
	.size	write_unpaired_field.9, .Lfunc_end19-write_unpaired_field.9
	.cfi_endproc
                                        # -- End function
	.globl	clear_picture.10        # -- Begin function clear_picture.10
	.p2align	4, 0x90
	.type	clear_picture.10,@function
clear_picture.10:                       # @clear_picture.10
	.cfi_startproc
# %bb.0:                                # %entry
	pushq	%rbp
	.cfi_def_cfa_offset 16
	.cfi_offset %rbp, -16
	movq	%rsp, %rbp
	.cfi_def_cfa_register %rbp
	subq	$32, %rsp
	movl	$741406413, -20(%rbp)   # imm = 0x2C30F6CD
	movq	%rdi, -16(%rbp)
	movl	$0, -4(%rbp)
.LBB20_1:                               # %for.cond
                                        # =>This Inner Loop Header: Depth=1
	movl	-4(%rbp), %eax
	movq	-16(%rbp), %rcx
	cmpl	6396(%rcx), %eax
	jge	.LBB20_4
# %bb.2:                                # %for.body
                                        #   in Loop: Header=BB20_1 Depth=1
	movq	-16(%rbp), %rax
	movq	6424(%rax), %rax
	movslq	-4(%rbp), %rcx
	movq	(%rax,%rcx,8), %rdi
	movq	img, %rax
	movl	72680(%rax), %eax
	movq	-16(%rbp), %rcx
	movslq	6392(%rcx), %rdx
	shlq	$1, %rdx
	movzbl	%al, %esi
	callq	memset
# %bb.3:                                # %for.inc
                                        #   in Loop: Header=BB20_1 Depth=1
	movl	-4(%rbp), %eax
	addl	$1, %eax
	movl	%eax, -4(%rbp)
	jmp	.LBB20_1
.LBB20_4:                               # %for.end
	movl	$0, -4(%rbp)
.LBB20_5:                               # %for.cond1
                                        # =>This Inner Loop Header: Depth=1
	movl	-4(%rbp), %eax
	movq	-16(%rbp), %rcx
	cmpl	6404(%rcx), %eax
	jge	.LBB20_8
# %bb.6:                                # %for.body4
                                        #   in Loop: Header=BB20_5 Depth=1
	movq	-16(%rbp), %rax
	movq	6464(%rax), %rax
	movq	(%rax), %rax
	movslq	-4(%rbp), %rcx
	movq	(%rax,%rcx,8), %rdi
	movq	img, %rax
	movl	72680(%rax), %eax
	movq	-16(%rbp), %rcx
	movslq	6400(%rcx), %rdx
	shlq	$1, %rdx
	movzbl	%al, %esi
	callq	memset
# %bb.7:                                # %for.inc11
                                        #   in Loop: Header=BB20_5 Depth=1
	movl	-4(%rbp), %eax
	addl	$1, %eax
	movl	%eax, -4(%rbp)
	jmp	.LBB20_5
.LBB20_8:                               # %for.end13
	movl	$0, -4(%rbp)
.LBB20_9:                               # %for.cond14
                                        # =>This Inner Loop Header: Depth=1
	movl	-4(%rbp), %eax
	movq	-16(%rbp), %rcx
	cmpl	6404(%rcx), %eax
	jge	.LBB20_12
# %bb.10:                               # %for.body18
                                        #   in Loop: Header=BB20_9 Depth=1
	movq	-16(%rbp), %rax
	movq	6464(%rax), %rax
	movq	8(%rax), %rax
	movslq	-4(%rbp), %rcx
	movq	(%rax,%rcx,8), %rdi
	movq	img, %rax
	movl	72680(%rax), %eax
	movq	-16(%rbp), %rcx
	movslq	6400(%rcx), %rdx
	shlq	$1, %rdx
	movzbl	%al, %esi
	callq	memset
# %bb.11:                               # %for.inc27
                                        #   in Loop: Header=BB20_9 Depth=1
	movl	-4(%rbp), %eax
	addl	$1, %eax
	movl	%eax, -4(%rbp)
	jmp	.LBB20_9
.LBB20_12:                              # %for.end29
	cmpl	$741406413, -20(%rbp)   # imm = 0x2C30F6CD
	jne	.LBB20_14
.LBB20_13:
	addq	$32, %rsp
	popq	%rbp
	.cfi_def_cfa %rsp, 8
	retq
.LBB20_14:                              # %func_exit
	.cfi_def_cfa %rbp, 16
	callq	detect_breach
	jmp	.LBB20_13
.Lfunc_end20:
	.size	clear_picture.10, .Lfunc_end20-clear_picture.10
	.cfi_endproc
                                        # -- End function
	.globl	img2buf.11              # -- Begin function img2buf.11
	.p2align	4, 0x90
	.type	img2buf.11,@function
img2buf.11:                             # @img2buf.11
	.cfi_startproc
# %bb.0:                                # %entry
	pushq	%rbp
	.cfi_def_cfa_offset 16
	.cfi_offset %rbp, -16
	movq	%rsp, %rbp
	.cfi_def_cfa_register %rbp
	subq	$96, %rsp
	movl	32(%rbp), %eax
	movl	24(%rbp), %eax
	movl	16(%rbp), %eax
	movl	$1727987369, -76(%rbp)  # imm = 0x66FEFEA9
	movq	%rdi, -64(%rbp)
	movq	%rsi, -56(%rbp)
	movl	%edx, -24(%rbp)
	movl	%ecx, -28(%rbp)
	movl	%r8d, -32(%rbp)
	movl	%r9d, -12(%rbp)
	movl	-24(%rbp), %eax
	subl	-12(%rbp), %eax
	subl	16(%rbp), %eax
	movl	%eax, -20(%rbp)
	movl	-28(%rbp), %eax
	subl	24(%rbp), %eax
	subl	32(%rbp), %eax
	movl	%eax, -80(%rbp)
	movl	$0, -40(%rbp)
	callq	testEndian
	cmpl	$0, %eax
	je	.LBB21_33
# %bb.1:                                # %if.then
	movl	-32(%rbp), %eax
	movl	%eax, %ecx
	subl	$1, %ecx
	je	.LBB21_4
	jmp	.LBB21_2
.LBB21_2:                               # %if.then
	movl	%eax, %ecx
	subl	$2, %ecx
	je	.LBB21_13
	jmp	.LBB21_3
.LBB21_3:                               # %if.then
	subl	$4, %eax
	je	.LBB21_22
	jmp	.LBB21_31
.LBB21_4:                               # %sw.bb
	movl	24(%rbp), %eax
	movl	%eax, -8(%rbp)
.LBB21_5:                               # %for.cond
                                        # =>This Loop Header: Depth=1
                                        #     Child Loop BB21_7 Depth 2
	movl	-8(%rbp), %eax
	movl	-28(%rbp), %ecx
	subl	32(%rbp), %ecx
	cmpl	%ecx, %eax
	jge	.LBB21_12
# %bb.6:                                # %for.body
                                        #   in Loop: Header=BB21_5 Depth=1
	movl	-12(%rbp), %eax
	movl	%eax, -4(%rbp)
.LBB21_7:                               # %for.cond5
                                        #   Parent Loop BB21_5 Depth=1
                                        # =>  This Inner Loop Header: Depth=2
	movl	-4(%rbp), %eax
	movl	-24(%rbp), %ecx
	subl	16(%rbp), %ecx
	cmpl	%ecx, %eax
	jge	.LBB21_10
# %bb.8:                                # %for.body8
                                        #   in Loop: Header=BB21_7 Depth=2
	movq	-64(%rbp), %rax
	movslq	-8(%rbp), %rcx
	movq	(%rax,%rcx,8), %rax
	movslq	-4(%rbp), %rcx
	movw	(%rax,%rcx,2), %ax
	movb	%al, -13(%rbp)
	movb	-13(%rbp), %al
	movq	-56(%rbp), %rcx
	movl	-4(%rbp), %edx
	subl	-12(%rbp), %edx
	movl	-8(%rbp), %esi
	subl	24(%rbp), %esi
	imull	-20(%rbp), %esi
	addl	%esi, %edx
	movslq	%edx, %rdx
	movb	%al, (%rcx,%rdx)
# %bb.9:                                # %for.inc
                                        #   in Loop: Header=BB21_7 Depth=2
	movl	-4(%rbp), %eax
	addl	$1, %eax
	movl	%eax, -4(%rbp)
	jmp	.LBB21_7
.LBB21_10:                              # %for.end
                                        #   in Loop: Header=BB21_5 Depth=1
	jmp	.LBB21_11
.LBB21_11:                              # %for.inc15
                                        #   in Loop: Header=BB21_5 Depth=1
	movl	-8(%rbp), %eax
	addl	$1, %eax
	movl	%eax, -8(%rbp)
	jmp	.LBB21_5
.LBB21_12:                              # %for.end17
	jmp	.LBB21_32
.LBB21_13:                              # %sw.bb18
	movl	24(%rbp), %eax
	movl	%eax, -8(%rbp)
.LBB21_14:                              # %for.cond19
                                        # =>This Loop Header: Depth=1
                                        #     Child Loop BB21_16 Depth 2
	movl	-8(%rbp), %eax
	movl	-28(%rbp), %ecx
	subl	32(%rbp), %ecx
	cmpl	%ecx, %eax
	jge	.LBB21_21
# %bb.15:                               # %for.body23
                                        #   in Loop: Header=BB21_14 Depth=1
	movl	-12(%rbp), %eax
	movl	%eax, -4(%rbp)
.LBB21_16:                              # %for.cond24
                                        #   Parent Loop BB21_14 Depth=1
                                        # =>  This Inner Loop Header: Depth=2
	movl	-4(%rbp), %eax
	movl	-24(%rbp), %ecx
	subl	16(%rbp), %ecx
	cmpl	%ecx, %eax
	jge	.LBB21_19
# %bb.17:                               # %for.body28
                                        #   in Loop: Header=BB21_16 Depth=2
	movq	-64(%rbp), %rax
	movslq	-8(%rbp), %rcx
	movq	(%rax,%rcx,8), %rax
	movslq	-4(%rbp), %rcx
	movw	(%rax,%rcx,2), %ax
	movw	%ax, -34(%rbp)
	movzwl	-34(%rbp), %eax
	sarl	$8, %eax
	movzwl	-34(%rbp), %ecx
	andl	$255, %ecx
	shll	$8, %ecx
	orl	%ecx, %eax
	movw	%ax, -42(%rbp)
	movq	-56(%rbp), %rax
	movl	-4(%rbp), %ecx
	subl	-12(%rbp), %ecx
	movl	-8(%rbp), %edx
	subl	24(%rbp), %edx
	imull	-20(%rbp), %edx
	addl	%edx, %ecx
	shll	$1, %ecx
	movslq	%ecx, %rcx
	movw	-42(%rbp), %dx
	movw	%dx, (%rax,%rcx)
# %bb.18:                               # %for.inc41
                                        #   in Loop: Header=BB21_16 Depth=2
	movl	-4(%rbp), %eax
	addl	$1, %eax
	movl	%eax, -4(%rbp)
	jmp	.LBB21_16
.LBB21_19:                              # %for.end43
                                        #   in Loop: Header=BB21_14 Depth=1
	jmp	.LBB21_20
.LBB21_20:                              # %for.inc44
                                        #   in Loop: Header=BB21_14 Depth=1
	movl	-8(%rbp), %eax
	addl	$1, %eax
	movl	%eax, -8(%rbp)
	jmp	.LBB21_14
.LBB21_21:                              # %for.end46
	jmp	.LBB21_32
.LBB21_22:                              # %sw.bb47
	movl	24(%rbp), %eax
	movl	%eax, -8(%rbp)
.LBB21_23:                              # %for.cond48
                                        # =>This Loop Header: Depth=1
                                        #     Child Loop BB21_25 Depth 2
	movl	-8(%rbp), %eax
	movl	-28(%rbp), %ecx
	subl	32(%rbp), %ecx
	cmpl	%ecx, %eax
	jge	.LBB21_30
# %bb.24:                               # %for.body52
                                        #   in Loop: Header=BB21_23 Depth=1
	movl	-12(%rbp), %eax
	movl	%eax, -4(%rbp)
.LBB21_25:                              # %for.cond53
                                        #   Parent Loop BB21_23 Depth=1
                                        # =>  This Inner Loop Header: Depth=2
	movl	-4(%rbp), %eax
	movl	-24(%rbp), %ecx
	subl	16(%rbp), %ecx
	cmpl	%ecx, %eax
	jge	.LBB21_28
# %bb.26:                               # %for.body57
                                        #   in Loop: Header=BB21_25 Depth=2
	movq	-64(%rbp), %rax
	movslq	-8(%rbp), %rcx
	movq	(%rax,%rcx,8), %rax
	movslq	-4(%rbp), %rcx
	movzwl	(%rax,%rcx,2), %eax
	movq	%rax, -72(%rbp)
	movq	-72(%rbp), %rax
	andq	$65280, %rax            # imm = 0xFF00
	shlq	$8, %rax
	movq	-72(%rbp), %rcx
	andq	$255, %rcx
	shlq	$24, %rcx
	orq	%rcx, %rax
	movq	-72(%rbp), %rcx
	andq	$16711680, %rcx         # imm = 0xFF0000
	shrq	$8, %rcx
	orq	%rcx, %rax
	movl	$4278190080, %ecx       # imm = 0xFF000000
	andq	-72(%rbp), %rcx
	shrq	$24, %rcx
	orq	%rcx, %rax
	movq	%rax, -88(%rbp)
	movq	-56(%rbp), %rax
	movl	-4(%rbp), %ecx
	subl	-12(%rbp), %ecx
	movl	-8(%rbp), %edx
	subl	24(%rbp), %edx
	imull	-20(%rbp), %edx
	addl	%edx, %ecx
	shll	$2, %ecx
	movslq	%ecx, %rcx
	movl	-88(%rbp), %edx
	movl	%edx, (%rax,%rcx)
# %bb.27:                               # %for.inc81
                                        #   in Loop: Header=BB21_25 Depth=2
	movl	-4(%rbp), %eax
	addl	$1, %eax
	movl	%eax, -4(%rbp)
	jmp	.LBB21_25
.LBB21_28:                              # %for.end83
                                        #   in Loop: Header=BB21_23 Depth=1
	jmp	.LBB21_29
.LBB21_29:                              # %for.inc84
                                        #   in Loop: Header=BB21_23 Depth=1
	movl	-8(%rbp), %eax
	addl	$1, %eax
	movl	%eax, -8(%rbp)
	jmp	.LBB21_23
.LBB21_30:                              # %for.end86
	jmp	.LBB21_32
.LBB21_31:                              # %sw.default
	movabsq	$.L.str, %rdi
	movl	$500, %esi              # imm = 0x1F4
	callq	error
.LBB21_32:                              # %sw.epilog
	jmp	.LBB21_45
.LBB21_33:                              # %if.else
	movslq	-32(%rbp), %rax
	movl	$2, %ecx
	cmpq	%rax, %rcx
	jae	.LBB21_35
# %bb.34:                               # %if.then90
	movl	$2, -40(%rbp)
	movq	-56(%rbp), %rdi
	movl	-20(%rbp), %eax
	imull	-80(%rbp), %eax
	imull	-32(%rbp), %eax
	movslq	%eax, %rdx
	xorl	%esi, %esi
	callq	memset
	jmp	.LBB21_36
.LBB21_35:                              # %if.else94
	movl	-32(%rbp), %eax
	movl	%eax, -40(%rbp)
.LBB21_36:                              # %if.end
	movl	24(%rbp), %eax
	movl	%eax, -8(%rbp)
.LBB21_37:                              # %for.cond95
                                        # =>This Loop Header: Depth=1
                                        #     Child Loop BB21_39 Depth 2
	movl	-8(%rbp), %eax
	movl	-28(%rbp), %ecx
	subl	32(%rbp), %ecx
	cmpl	%ecx, %eax
	jge	.LBB21_44
# %bb.38:                               # %for.body99
                                        #   in Loop: Header=BB21_37 Depth=1
	movl	-12(%rbp), %eax
	movl	%eax, -4(%rbp)
.LBB21_39:                              # %for.cond100
                                        #   Parent Loop BB21_37 Depth=1
                                        # =>  This Inner Loop Header: Depth=2
	movl	-4(%rbp), %eax
	movl	-24(%rbp), %ecx
	subl	16(%rbp), %ecx
	cmpl	%ecx, %eax
	jge	.LBB21_42
# %bb.40:                               # %for.body104
                                        #   in Loop: Header=BB21_39 Depth=2
	movq	-56(%rbp), %rdi
	movl	-4(%rbp), %eax
	subl	-12(%rbp), %eax
	movl	-8(%rbp), %ecx
	subl	24(%rbp), %ecx
	imull	-20(%rbp), %ecx
	addl	%ecx, %eax
	imull	-32(%rbp), %eax
	cltq
	addq	%rax, %rdi
	movq	-64(%rbp), %rax
	movslq	-8(%rbp), %rcx
	movq	(%rax,%rcx,8), %rsi
	movslq	-4(%rbp), %rax
	shlq	$1, %rax
	addq	%rax, %rsi
	movslq	-40(%rbp), %rdx
	callq	memcpy
# %bb.41:                               # %for.inc117
                                        #   in Loop: Header=BB21_39 Depth=2
	movl	-4(%rbp), %eax
	addl	$1, %eax
	movl	%eax, -4(%rbp)
	jmp	.LBB21_39
.LBB21_42:                              # %for.end119
                                        #   in Loop: Header=BB21_37 Depth=1
	jmp	.LBB21_43
.LBB21_43:                              # %for.inc120
                                        #   in Loop: Header=BB21_37 Depth=1
	movl	-8(%rbp), %eax
	addl	$1, %eax
	movl	%eax, -8(%rbp)
	jmp	.LBB21_37
.LBB21_44:                              # %for.end122
	jmp	.LBB21_45
.LBB21_45:                              # %if.end123
	cmpl	$1727987369, -76(%rbp)  # imm = 0x66FEFEA9
	jne	.LBB21_47
.LBB21_46:
	addq	$96, %rsp
	popq	%rbp
	.cfi_def_cfa %rsp, 8
	retq
.LBB21_47:                              # %func_exit
	.cfi_def_cfa %rbp, 16
	callq	detect_breach
	jmp	.LBB21_46
.Lfunc_end21:
	.size	img2buf.11, .Lfunc_end21-img2buf.11
	.cfi_endproc
                                        # -- End function
	.globl	write_out_picture.12    # -- Begin function write_out_picture.12
	.p2align	4, 0x90
	.type	write_out_picture.12,@function
write_out_picture.12:                   # @write_out_picture.12
	.cfi_startproc
# %bb.0:                                # %entry
	pushq	%rbp
	.cfi_def_cfa_offset 16
	.cfi_offset %rbp, -16
	movq	%rsp, %rbp
	.cfi_def_cfa_register %rbp
	subq	$128, %rsp
	xorl	%ecx, %ecx
	movl	$1923075711, -52(%rbp)  # imm = 0x729FCE7F
	movq	%rdi, -8(%rbp)
	movl	%esi, -44(%rbp)
	movq	.L__const.write_out_picture.SubWidthC, %rax
	movq	%rax, -80(%rbp)
	movq	.L__const.write_out_picture.SubWidthC+8, %rax
	movq	%rax, -72(%rbp)
	movq	.L__const.write_out_picture.SubHeightC, %rax
	movq	%rax, -96(%rbp)
	movq	.L__const.write_out_picture.SubHeightC+8, %rax
	movq	%rax, -88(%rbp)
	movq	img, %rax
	movl	72656(%rax), %eax
	cltd
	movl	$8, %esi
	idivl	%esi
	movl	%eax, -28(%rbp)
	movq	input, %rax
	cmpl	$0, 3312(%rax)
	je	.LBB22_2
# %bb.1:                                # %land.rhs
	movq	input, %rax
	cmpl	$3, 72(%rax)
	sete	%cl
.LBB22_2:                               # %land.end
	andb	$1, %cl
	movzbl	%cl, %eax
	movl	%eax, -48(%rbp)
	movq	-8(%rbp), %rax
	cmpl	$0, 6388(%rax)
	je	.LBB22_4
# %bb.3:                                # %if.then
	jmp	.LBB22_19
.LBB22_4:                               # %if.end
	movq	-8(%rbp), %rax
	cmpl	$0, 6560(%rax)
	je	.LBB22_6
# %bb.5:                                # %if.then3
	movq	-8(%rbp), %rax
	movslq	6552(%rax), %rax
	movl	-80(%rbp,%rax,4), %eax
	movq	-8(%rbp), %rcx
	imull	6564(%rcx), %eax
	movl	%eax, -12(%rbp)
	movq	-8(%rbp), %rax
	movslq	6552(%rax), %rax
	movl	-80(%rbp,%rax,4), %eax
	movq	-8(%rbp), %rcx
	imull	6568(%rcx), %eax
	movl	%eax, -20(%rbp)
	movq	-8(%rbp), %rax
	movslq	6552(%rax), %rax
	movl	-96(%rbp,%rax,4), %eax
	movq	-8(%rbp), %rcx
	movl	$2, %edx
	movl	$2, %esi
	subl	6556(%rcx), %esi
	imull	%esi, %eax
	movq	-8(%rbp), %rcx
	imull	6572(%rcx), %eax
	movl	%eax, -16(%rbp)
	movq	-8(%rbp), %rax
	movslq	6552(%rax), %rax
	movl	-96(%rbp,%rax,4), %eax
	movq	-8(%rbp), %rcx
	subl	6556(%rcx), %edx
	imull	%edx, %eax
	movq	-8(%rbp), %rcx
	imull	6576(%rcx), %eax
	movl	%eax, -24(%rbp)
	jmp	.LBB22_7
.LBB22_6:                               # %if.else
	movl	$0, -24(%rbp)
	movl	$0, -16(%rbp)
	movl	$0, -20(%rbp)
	movl	$0, -12(%rbp)
.LBB22_7:                               # %if.end20
	movq	-8(%rbp), %rax
	movl	6392(%rax), %eax
	movq	-8(%rbp), %rcx
	imull	6396(%rcx), %eax
	imull	-28(%rbp), %eax
	movslq	%eax, %rdi
	callq	malloc
	xorl	%ecx, %ecx
	movq	%rax, -40(%rbp)
	cmpq	%rax, %rcx
	jne	.LBB22_9
# %bb.8:                                # %if.then25
	movabsq	$.L.str.1, %rdi
	callq	no_mem_exit
.LBB22_9:                               # %if.end26
	cmpl	$0, -48(%rbp)
	je	.LBB22_14
# %bb.10:                               # %if.then28
	movq	-8(%rbp), %rax
	movl	6564(%rax), %eax
	movl	%eax, -12(%rbp)
	movq	-8(%rbp), %rax
	movl	6568(%rax), %eax
	movl	%eax, -20(%rbp)
	movq	-8(%rbp), %rax
	movl	$2, %ecx
	movl	$2, %edx
	subl	6556(%rax), %edx
	movq	-8(%rbp), %rax
	imull	6572(%rax), %edx
	movl	%edx, -16(%rbp)
	movq	-8(%rbp), %rax
	subl	6556(%rax), %ecx
	movq	-8(%rbp), %rax
	imull	6576(%rax), %ecx
	movl	%ecx, -24(%rbp)
	movq	-8(%rbp), %rax
	movq	6464(%rax), %rax
	movq	8(%rax), %rdi
	movq	-40(%rbp), %rsi
	movq	-8(%rbp), %rax
	movl	6400(%rax), %edx
	movq	-8(%rbp), %rax
	movl	6404(%rax), %ecx
	movl	-28(%rbp), %r8d
	movl	-12(%rbp), %r9d
	movl	-20(%rbp), %eax
	movl	-16(%rbp), %r10d
	movl	-24(%rbp), %r11d
	movl	%eax, (%rsp)
	movl	%r10d, 8(%rsp)
	movl	%r11d, 16(%rsp)
	callq	img2buf
	movl	-44(%rbp), %edi
	movq	-40(%rbp), %rsi
	movq	-8(%rbp), %rax
	movl	6404(%rax), %eax
	subl	-24(%rbp), %eax
	subl	-16(%rbp), %eax
	movq	-8(%rbp), %rcx
	movl	6400(%rcx), %ecx
	subl	-20(%rbp), %ecx
	subl	-12(%rbp), %ecx
	imull	%ecx, %eax
	imull	-28(%rbp), %eax
	movslq	%eax, %rdx
	callq	write
	movq	active_sps, %rax
	cmpl	$0, 1160(%rax)
	je	.LBB22_12
# %bb.11:                               # %if.then52
	movq	-8(%rbp), %rax
	movslq	6552(%rax), %rax
	movl	-80(%rbp,%rax,4), %eax
	movq	-8(%rbp), %rcx
	imull	6564(%rcx), %eax
	movl	%eax, -12(%rbp)
	movq	-8(%rbp), %rax
	movslq	6552(%rax), %rax
	movl	-80(%rbp,%rax,4), %eax
	movq	-8(%rbp), %rcx
	imull	6568(%rcx), %eax
	movl	%eax, -20(%rbp)
	movq	-8(%rbp), %rax
	movslq	6552(%rax), %rax
	movl	-96(%rbp,%rax,4), %eax
	movq	-8(%rbp), %rcx
	movl	$2, %edx
	movl	$2, %esi
	subl	6556(%rcx), %esi
	imull	%esi, %eax
	movq	-8(%rbp), %rcx
	imull	6572(%rcx), %eax
	movl	%eax, -16(%rbp)
	movq	-8(%rbp), %rax
	movslq	6552(%rax), %rax
	movl	-96(%rbp,%rax,4), %eax
	movq	-8(%rbp), %rcx
	subl	6556(%rcx), %edx
	imull	%edx, %eax
	movq	-8(%rbp), %rcx
	imull	6576(%rcx), %eax
	movl	%eax, -24(%rbp)
	jmp	.LBB22_13
.LBB22_12:                              # %if.else79
	movl	$0, -24(%rbp)
	movl	$0, -16(%rbp)
	movl	$0, -20(%rbp)
	movl	$0, -12(%rbp)
.LBB22_13:                              # %if.end80
	jmp	.LBB22_14
.LBB22_14:                              # %if.end81
	movq	-8(%rbp), %rax
	movq	6424(%rax), %rdi
	movq	-40(%rbp), %rsi
	movq	-8(%rbp), %rax
	movl	6392(%rax), %edx
	movq	-8(%rbp), %rax
	movl	6396(%rax), %ecx
	movl	-28(%rbp), %r8d
	movl	-12(%rbp), %r9d
	movl	-20(%rbp), %eax
	movl	-16(%rbp), %r10d
	movl	-24(%rbp), %r11d
	movl	%eax, (%rsp)
	movl	%r10d, 8(%rsp)
	movl	%r11d, 16(%rsp)
	callq	img2buf
	movl	-44(%rbp), %edi
	movq	-40(%rbp), %rsi
	movq	-8(%rbp), %rax
	movl	6396(%rax), %eax
	subl	-24(%rbp), %eax
	subl	-16(%rbp), %eax
	movq	-8(%rbp), %rcx
	movl	6392(%rcx), %ecx
	subl	-20(%rbp), %ecx
	subl	-12(%rbp), %ecx
	imull	%ecx, %eax
	imull	-28(%rbp), %eax
	movslq	%eax, %rdx
	callq	write
	movq	-8(%rbp), %rax
	cmpl	$0, 6552(%rax)
	je	.LBB22_18
# %bb.15:                               # %if.then97
	movq	-8(%rbp), %rax
	movl	6564(%rax), %eax
	movl	%eax, -12(%rbp)
	movq	-8(%rbp), %rax
	movl	6568(%rax), %eax
	movl	%eax, -20(%rbp)
	movq	-8(%rbp), %rax
	movl	$2, %ecx
	movl	$2, %edx
	subl	6556(%rax), %edx
	movq	-8(%rbp), %rax
	imull	6572(%rax), %edx
	movl	%edx, -16(%rbp)
	movq	-8(%rbp), %rax
	subl	6556(%rax), %ecx
	movq	-8(%rbp), %rax
	imull	6576(%rax), %ecx
	movl	%ecx, -24(%rbp)
	movq	-8(%rbp), %rax
	movq	6464(%rax), %rax
	movq	(%rax), %rdi
	movq	-40(%rbp), %rsi
	movq	-8(%rbp), %rax
	movl	6400(%rax), %edx
	movq	-8(%rbp), %rax
	movl	6404(%rax), %ecx
	movl	-28(%rbp), %r8d
	movl	-12(%rbp), %r9d
	movl	-20(%rbp), %eax
	movl	-16(%rbp), %r10d
	movl	-24(%rbp), %r11d
	movl	%eax, (%rsp)
	movl	%r10d, 8(%rsp)
	movl	%r11d, 16(%rsp)
	callq	img2buf
	movl	-44(%rbp), %edi
	movq	-40(%rbp), %rsi
	movq	-8(%rbp), %rax
	movl	6404(%rax), %eax
	subl	-24(%rbp), %eax
	subl	-16(%rbp), %eax
	movq	-8(%rbp), %rcx
	movl	6400(%rcx), %ecx
	subl	-20(%rbp), %ecx
	subl	-12(%rbp), %ecx
	imull	%ecx, %eax
	imull	-28(%rbp), %eax
	movslq	%eax, %rdx
	callq	write
	cmpl	$0, -48(%rbp)
	jne	.LBB22_17
# %bb.16:                               # %if.then123
	movq	-8(%rbp), %rax
	movq	6464(%rax), %rax
	movq	8(%rax), %rdi
	movq	-40(%rbp), %rsi
	movq	-8(%rbp), %rax
	movl	6400(%rax), %edx
	movq	-8(%rbp), %rax
	movl	6404(%rax), %ecx
	movl	-28(%rbp), %r8d
	movl	-12(%rbp), %r9d
	movl	-20(%rbp), %eax
	movl	-16(%rbp), %r10d
	movl	-24(%rbp), %r11d
	movl	%eax, (%rsp)
	movl	%r10d, 8(%rsp)
	movl	%r11d, 16(%rsp)
	callq	img2buf
	movl	-44(%rbp), %edi
	movq	-40(%rbp), %rsi
	movq	-8(%rbp), %rax
	movl	6404(%rax), %eax
	subl	-24(%rbp), %eax
	subl	-16(%rbp), %eax
	movq	-8(%rbp), %rcx
	movl	6400(%rcx), %ecx
	subl	-20(%rbp), %ecx
	subl	-12(%rbp), %ecx
	imull	%ecx, %eax
	imull	-28(%rbp), %eax
	movslq	%eax, %rdx
	callq	write
.LBB22_17:                              # %if.end138
	jmp	.LBB22_18
.LBB22_18:                              # %if.end139
	movq	-40(%rbp), %rdi
	callq	free
.LBB22_19:                              # %return
	cmpl	$1923075711, -52(%rbp)  # imm = 0x729FCE7F
	jne	.LBB22_21
.LBB22_20:
	addq	$128, %rsp
	popq	%rbp
	.cfi_def_cfa %rsp, 8
	retq
.LBB22_21:                              # %func_exit
	.cfi_def_cfa %rbp, 16
	callq	detect_breach
	jmp	.LBB22_20
.Lfunc_end22:
	.size	write_out_picture.12, .Lfunc_end22-write_out_picture.12
	.cfi_endproc
                                        # -- End function
	.globl	write_unpaired_field.13 # -- Begin function write_unpaired_field.13
	.p2align	4, 0x90
	.type	write_unpaired_field.13,@function
write_unpaired_field.13:                # @write_unpaired_field.13
	.cfi_startproc
# %bb.0:                                # %entry
	pushq	%rbp
	.cfi_def_cfa_offset 16
	.cfi_offset %rbp, -16
	movq	%rsp, %rbp
	.cfi_def_cfa_register %rbp
	subq	$32, %rsp
	movl	$423967558, -24(%rbp)   # imm = 0x19453B46
	movq	%rdi, -8(%rbp)
	movl	%esi, -20(%rbp)
	movq	-8(%rbp), %rax
	movl	(%rax), %eax
	andl	$1, %eax
	cmpl	$0, %eax
	je	.LBB23_2
# %bb.1:                                # %if.then
	movq	-8(%rbp), %rax
	movq	48(%rax), %rax
	movq	%rax, -16(%rbp)
	movq	-16(%rbp), %rax
	movl	6392(%rax), %esi
	movq	-16(%rbp), %rax
	movl	6396(%rax), %edx
	movq	-16(%rbp), %rax
	movl	6400(%rax), %ecx
	movq	-16(%rbp), %rax
	movl	6404(%rax), %r8d
	movl	$2, %edi
	callq	alloc_storable_picture
	movq	-8(%rbp), %rcx
	movq	%rax, 56(%rcx)
	movq	-8(%rbp), %rax
	movq	56(%rax), %rdi
	callq	clear_picture
	movq	-8(%rbp), %rdi
	callq	dpb_combine_field
	movq	-8(%rbp), %rax
	movq	40(%rax), %rdi
	movl	-20(%rbp), %esi
	movl	$1, %edx
	callq	write_picture
.LBB23_2:                               # %if.end
	movq	-8(%rbp), %rax
	movl	(%rax), %eax
	andl	$2, %eax
	cmpl	$0, %eax
	je	.LBB23_4
# %bb.3:                                # %if.then5
	movq	-8(%rbp), %rax
	movq	56(%rax), %rax
	movq	%rax, -16(%rbp)
	movq	-16(%rbp), %rax
	movl	6392(%rax), %esi
	movq	-16(%rbp), %rax
	movl	6396(%rax), %edx
	movq	-16(%rbp), %rax
	movl	6400(%rax), %ecx
	movq	-16(%rbp), %rax
	movl	6404(%rax), %r8d
	movl	$1, %edi
	callq	alloc_storable_picture
	movq	-8(%rbp), %rcx
	movq	%rax, 48(%rcx)
	movq	-8(%rbp), %rax
	movq	48(%rax), %rdi
	callq	clear_picture
	movq	-8(%rbp), %rdi
	callq	dpb_combine_field
	movq	-8(%rbp), %rax
	movq	40(%rax), %rdi
	movl	-20(%rbp), %esi
	movl	$2, %edx
	callq	write_picture
.LBB23_4:                               # %if.end15
	movq	-8(%rbp), %rax
	movl	$3, (%rax)
	cmpl	$423967558, -24(%rbp)   # imm = 0x19453B46
	jne	.LBB23_6
.LBB23_5:
	addq	$32, %rsp
	popq	%rbp
	.cfi_def_cfa %rsp, 8
	retq
.LBB23_6:                               # %func_exit
	.cfi_def_cfa %rbp, 16
	callq	detect_breach
	jmp	.LBB23_5
.Lfunc_end23:
	.size	write_unpaired_field.13, .Lfunc_end23-write_unpaired_field.13
	.cfi_endproc
                                        # -- End function
	.globl	write_stored_frame.14   # -- Begin function write_stored_frame.14
	.p2align	4, 0x90
	.type	write_stored_frame.14,@function
write_stored_frame.14:                  # @write_stored_frame.14
	.cfi_startproc
# %bb.0:                                # %entry
	pushq	%rbp
	.cfi_def_cfa_offset 16
	.cfi_offset %rbp, -16
	movq	%rsp, %rbp
	.cfi_def_cfa_register %rbp
	subq	$32, %rsp
	movl	$1902467562, -20(%rbp)  # imm = 0x716559EA
	movq	%rdi, -16(%rbp)
	movl	%esi, -4(%rbp)
	movl	-4(%rbp), %edi
	callq	flush_direct_output
	movq	-16(%rbp), %rax
	cmpl	$3, (%rax)
	jge	.LBB24_2
# %bb.1:                                # %if.then
	movq	-16(%rbp), %rdi
	movl	-4(%rbp), %esi
	callq	write_unpaired_field
	jmp	.LBB24_3
.LBB24_2:                               # %if.else
	movq	-16(%rbp), %rax
	movq	40(%rax), %rdi
	movl	-4(%rbp), %esi
	xorl	%edx, %edx
	callq	write_picture
.LBB24_3:                               # %if.end
	movq	-16(%rbp), %rax
	movl	$1, 32(%rax)
	cmpl	$1902467562, -20(%rbp)  # imm = 0x716559EA
	jne	.LBB24_5
.LBB24_4:
	addq	$32, %rsp
	popq	%rbp
	.cfi_def_cfa %rsp, 8
	retq
.LBB24_5:                               # %func_exit
	.cfi_def_cfa %rbp, 16
	callq	detect_breach
	jmp	.LBB24_4
.Lfunc_end24:
	.size	write_stored_frame.14, .Lfunc_end24-write_stored_frame.14
	.cfi_endproc
                                        # -- End function
	.globl	write_picture.15        # -- Begin function write_picture.15
	.p2align	4, 0x90
	.type	write_picture.15,@function
write_picture.15:                       # @write_picture.15
	.cfi_startproc
# %bb.0:                                # %entry
	pushq	%rbp
	.cfi_def_cfa_offset 16
	.cfi_offset %rbp, -16
	movq	%rsp, %rbp
	.cfi_def_cfa_register %rbp
	subq	$32, %rsp
	movl	$1050388032, -8(%rbp)   # imm = 0x3E9BA640
	movq	%rdi, -16(%rbp)
	movl	%esi, -4(%rbp)
	movl	%edx, -20(%rbp)
	movq	-16(%rbp), %rdi
	movl	-4(%rbp), %esi
	callq	write_out_picture
	cmpl	$1050388032, -8(%rbp)   # imm = 0x3E9BA640
	jne	.LBB25_2
.LBB25_1:
	addq	$32, %rsp
	popq	%rbp
	.cfi_def_cfa %rsp, 8
	retq
.LBB25_2:                               # %func_exit
	.cfi_def_cfa %rbp, 16
	callq	detect_breach
	jmp	.LBB25_1
.Lfunc_end25:
	.size	write_picture.15, .Lfunc_end25-write_picture.15
	.cfi_endproc
                                        # -- End function
	.globl	write_stored_frame.16   # -- Begin function write_stored_frame.16
	.p2align	4, 0x90
	.type	write_stored_frame.16,@function
write_stored_frame.16:                  # @write_stored_frame.16
	.cfi_startproc
# %bb.0:                                # %entry
	pushq	%rbp
	.cfi_def_cfa_offset 16
	.cfi_offset %rbp, -16
	movq	%rsp, %rbp
	.cfi_def_cfa_register %rbp
	subq	$32, %rsp
	movl	$665881127, -20(%rbp)   # imm = 0x27B08A27
	movq	%rdi, -16(%rbp)
	movl	%esi, -4(%rbp)
	movl	-4(%rbp), %edi
	callq	flush_direct_output
	movq	-16(%rbp), %rax
	cmpl	$3, (%rax)
	jge	.LBB26_2
# %bb.1:                                # %if.then
	movq	-16(%rbp), %rdi
	movl	-4(%rbp), %esi
	callq	write_unpaired_field
	jmp	.LBB26_3
.LBB26_2:                               # %if.else
	movq	-16(%rbp), %rax
	movq	40(%rax), %rdi
	movl	-4(%rbp), %esi
	xorl	%edx, %edx
	callq	write_picture
.LBB26_3:                               # %if.end
	movq	-16(%rbp), %rax
	movl	$1, 32(%rax)
	cmpl	$665881127, -20(%rbp)   # imm = 0x27B08A27
	jne	.LBB26_5
.LBB26_4:
	addq	$32, %rsp
	popq	%rbp
	.cfi_def_cfa %rsp, 8
	retq
.LBB26_5:                               # %func_exit
	.cfi_def_cfa %rbp, 16
	callq	detect_breach
	jmp	.LBB26_4
.Lfunc_end26:
	.size	write_stored_frame.16, .Lfunc_end26-write_stored_frame.16
	.cfi_endproc
                                        # -- End function
	.globl	testEndian.17           # -- Begin function testEndian.17
	.p2align	4, 0x90
	.type	testEndian.17,@function
testEndian.17:                          # @testEndian.17
	.cfi_startproc
# %bb.0:                                # %entry
	pushq	%rbp
	.cfi_def_cfa_offset 16
	.cfi_offset %rbp, -16
	movq	%rsp, %rbp
	.cfi_def_cfa_register %rbp
	pushq	%rbx
	subq	$24, %rsp
	.cfi_offset %rbx, -24
	movl	$672884127, -16(%rbp)   # imm = 0x281B659F
	leaq	-10(%rbp), %rax
	movq	%rax, -24(%rbp)
	movw	$1, -10(%rbp)
	movq	-24(%rbp), %rax
	movzbl	(%rax), %eax
	cmpl	$0, %eax
	sete	%al
	andb	$1, %al
	movzbl	%al, %ebx
	cmpl	$672884127, -16(%rbp)   # imm = 0x281B659F
	jne	.LBB27_2
.LBB27_1:
	movl	%ebx, %eax
	addq	$24, %rsp
	popq	%rbx
	popq	%rbp
	.cfi_def_cfa %rsp, 8
	retq
.LBB27_2:                               # %func_exit
	.cfi_def_cfa %rbp, 16
	callq	detect_breach
	jmp	.LBB27_1
.Lfunc_end27:
	.size	testEndian.17, .Lfunc_end27-testEndian.17
	.cfi_endproc
                                        # -- End function
	.globl	clear_picture.18        # -- Begin function clear_picture.18
	.p2align	4, 0x90
	.type	clear_picture.18,@function
clear_picture.18:                       # @clear_picture.18
	.cfi_startproc
# %bb.0:                                # %entry
	pushq	%rbp
	.cfi_def_cfa_offset 16
	.cfi_offset %rbp, -16
	movq	%rsp, %rbp
	.cfi_def_cfa_register %rbp
	subq	$32, %rsp
	movl	$609883067, -20(%rbp)   # imm = 0x245A13BB
	movq	%rdi, -16(%rbp)
	movl	$0, -4(%rbp)
.LBB28_1:                               # %for.cond
                                        # =>This Inner Loop Header: Depth=1
	movl	-4(%rbp), %eax
	movq	-16(%rbp), %rcx
	cmpl	6396(%rcx), %eax
	jge	.LBB28_4
# %bb.2:                                # %for.body
                                        #   in Loop: Header=BB28_1 Depth=1
	movq	-16(%rbp), %rax
	movq	6424(%rax), %rax
	movslq	-4(%rbp), %rcx
	movq	(%rax,%rcx,8), %rdi
	movq	img, %rax
	movl	72680(%rax), %eax
	movq	-16(%rbp), %rcx
	movslq	6392(%rcx), %rdx
	shlq	$1, %rdx
	movzbl	%al, %esi
	callq	memset
# %bb.3:                                # %for.inc
                                        #   in Loop: Header=BB28_1 Depth=1
	movl	-4(%rbp), %eax
	addl	$1, %eax
	movl	%eax, -4(%rbp)
	jmp	.LBB28_1
.LBB28_4:                               # %for.end
	movl	$0, -4(%rbp)
.LBB28_5:                               # %for.cond1
                                        # =>This Inner Loop Header: Depth=1
	movl	-4(%rbp), %eax
	movq	-16(%rbp), %rcx
	cmpl	6404(%rcx), %eax
	jge	.LBB28_8
# %bb.6:                                # %for.body4
                                        #   in Loop: Header=BB28_5 Depth=1
	movq	-16(%rbp), %rax
	movq	6464(%rax), %rax
	movq	(%rax), %rax
	movslq	-4(%rbp), %rcx
	movq	(%rax,%rcx,8), %rdi
	movq	img, %rax
	movl	72680(%rax), %eax
	movq	-16(%rbp), %rcx
	movslq	6400(%rcx), %rdx
	shlq	$1, %rdx
	movzbl	%al, %esi
	callq	memset
# %bb.7:                                # %for.inc11
                                        #   in Loop: Header=BB28_5 Depth=1
	movl	-4(%rbp), %eax
	addl	$1, %eax
	movl	%eax, -4(%rbp)
	jmp	.LBB28_5
.LBB28_8:                               # %for.end13
	movl	$0, -4(%rbp)
.LBB28_9:                               # %for.cond14
                                        # =>This Inner Loop Header: Depth=1
	movl	-4(%rbp), %eax
	movq	-16(%rbp), %rcx
	cmpl	6404(%rcx), %eax
	jge	.LBB28_12
# %bb.10:                               # %for.body18
                                        #   in Loop: Header=BB28_9 Depth=1
	movq	-16(%rbp), %rax
	movq	6464(%rax), %rax
	movq	8(%rax), %rax
	movslq	-4(%rbp), %rcx
	movq	(%rax,%rcx,8), %rdi
	movq	img, %rax
	movl	72680(%rax), %eax
	movq	-16(%rbp), %rcx
	movslq	6400(%rcx), %rdx
	shlq	$1, %rdx
	movzbl	%al, %esi
	callq	memset
# %bb.11:                               # %for.inc27
                                        #   in Loop: Header=BB28_9 Depth=1
	movl	-4(%rbp), %eax
	addl	$1, %eax
	movl	%eax, -4(%rbp)
	jmp	.LBB28_9
.LBB28_12:                              # %for.end29
	cmpl	$609883067, -20(%rbp)   # imm = 0x245A13BB
	jne	.LBB28_14
.LBB28_13:
	addq	$32, %rsp
	popq	%rbp
	.cfi_def_cfa %rsp, 8
	retq
.LBB28_14:                              # %func_exit
	.cfi_def_cfa %rbp, 16
	callq	detect_breach
	jmp	.LBB28_13
.Lfunc_end28:
	.size	clear_picture.18, .Lfunc_end28-clear_picture.18
	.cfi_endproc
                                        # -- End function
	.globl	write_unpaired_field.19 # -- Begin function write_unpaired_field.19
	.p2align	4, 0x90
	.type	write_unpaired_field.19,@function
write_unpaired_field.19:                # @write_unpaired_field.19
	.cfi_startproc
# %bb.0:                                # %entry
	pushq	%rbp
	.cfi_def_cfa_offset 16
	.cfi_offset %rbp, -16
	movq	%rsp, %rbp
	.cfi_def_cfa_register %rbp
	subq	$32, %rsp
	movl	$427583712, -24(%rbp)   # imm = 0x197C68E0
	movq	%rdi, -8(%rbp)
	movl	%esi, -20(%rbp)
	movq	-8(%rbp), %rax
	movl	(%rax), %eax
	andl	$1, %eax
	cmpl	$0, %eax
	je	.LBB29_2
# %bb.1:                                # %if.then
	movq	-8(%rbp), %rax
	movq	48(%rax), %rax
	movq	%rax, -16(%rbp)
	movq	-16(%rbp), %rax
	movl	6392(%rax), %esi
	movq	-16(%rbp), %rax
	movl	6396(%rax), %edx
	movq	-16(%rbp), %rax
	movl	6400(%rax), %ecx
	movq	-16(%rbp), %rax
	movl	6404(%rax), %r8d
	movl	$2, %edi
	callq	alloc_storable_picture
	movq	-8(%rbp), %rcx
	movq	%rax, 56(%rcx)
	movq	-8(%rbp), %rax
	movq	56(%rax), %rdi
	callq	clear_picture
	movq	-8(%rbp), %rdi
	callq	dpb_combine_field
	movq	-8(%rbp), %rax
	movq	40(%rax), %rdi
	movl	-20(%rbp), %esi
	movl	$1, %edx
	callq	write_picture
.LBB29_2:                               # %if.end
	movq	-8(%rbp), %rax
	movl	(%rax), %eax
	andl	$2, %eax
	cmpl	$0, %eax
	je	.LBB29_4
# %bb.3:                                # %if.then5
	movq	-8(%rbp), %rax
	movq	56(%rax), %rax
	movq	%rax, -16(%rbp)
	movq	-16(%rbp), %rax
	movl	6392(%rax), %esi
	movq	-16(%rbp), %rax
	movl	6396(%rax), %edx
	movq	-16(%rbp), %rax
	movl	6400(%rax), %ecx
	movq	-16(%rbp), %rax
	movl	6404(%rax), %r8d
	movl	$1, %edi
	callq	alloc_storable_picture
	movq	-8(%rbp), %rcx
	movq	%rax, 48(%rcx)
	movq	-8(%rbp), %rax
	movq	48(%rax), %rdi
	callq	clear_picture
	movq	-8(%rbp), %rdi
	callq	dpb_combine_field
	movq	-8(%rbp), %rax
	movq	40(%rax), %rdi
	movl	-20(%rbp), %esi
	movl	$2, %edx
	callq	write_picture
.LBB29_4:                               # %if.end15
	movq	-8(%rbp), %rax
	movl	$3, (%rax)
	cmpl	$427583712, -24(%rbp)   # imm = 0x197C68E0
	jne	.LBB29_6
.LBB29_5:
	addq	$32, %rsp
	popq	%rbp
	.cfi_def_cfa %rsp, 8
	retq
.LBB29_6:                               # %func_exit
	.cfi_def_cfa %rbp, 16
	callq	detect_breach
	jmp	.LBB29_5
.Lfunc_end29:
	.size	write_unpaired_field.19, .Lfunc_end29-write_unpaired_field.19
	.cfi_endproc
                                        # -- End function
	.globl	testEndian.20           # -- Begin function testEndian.20
	.p2align	4, 0x90
	.type	testEndian.20,@function
testEndian.20:                          # @testEndian.20
	.cfi_startproc
# %bb.0:                                # %entry
	pushq	%rbp
	.cfi_def_cfa_offset 16
	.cfi_offset %rbp, -16
	movq	%rsp, %rbp
	.cfi_def_cfa_register %rbp
	pushq	%rbx
	subq	$24, %rsp
	.cfi_offset %rbx, -24
	movl	$2085567446, -16(%rbp)  # imm = 0x7C4F3BD6
	leaq	-10(%rbp), %rax
	movq	%rax, -24(%rbp)
	movw	$1, -10(%rbp)
	movq	-24(%rbp), %rax
	movzbl	(%rax), %eax
	cmpl	$0, %eax
	sete	%al
	andb	$1, %al
	movzbl	%al, %ebx
	cmpl	$2085567446, -16(%rbp)  # imm = 0x7C4F3BD6
	jne	.LBB30_2
.LBB30_1:
	movl	%ebx, %eax
	addq	$24, %rsp
	popq	%rbx
	popq	%rbp
	.cfi_def_cfa %rsp, 8
	retq
.LBB30_2:                               # %func_exit
	.cfi_def_cfa %rbp, 16
	callq	detect_breach
	jmp	.LBB30_1
.Lfunc_end30:
	.size	testEndian.20, .Lfunc_end30-testEndian.20
	.cfi_endproc
                                        # -- End function
	.globl	write_out_picture.21    # -- Begin function write_out_picture.21
	.p2align	4, 0x90
	.type	write_out_picture.21,@function
write_out_picture.21:                   # @write_out_picture.21
	.cfi_startproc
# %bb.0:                                # %entry
	pushq	%rbp
	.cfi_def_cfa_offset 16
	.cfi_offset %rbp, -16
	movq	%rsp, %rbp
	.cfi_def_cfa_register %rbp
	subq	$128, %rsp
	xorl	%ecx, %ecx
	movl	$1439023681, -52(%rbp)  # imm = 0x55C5C241
	movq	%rdi, -8(%rbp)
	movl	%esi, -44(%rbp)
	movq	.L__const.write_out_picture.SubWidthC, %rax
	movq	%rax, -80(%rbp)
	movq	.L__const.write_out_picture.SubWidthC+8, %rax
	movq	%rax, -72(%rbp)
	movq	.L__const.write_out_picture.SubHeightC, %rax
	movq	%rax, -96(%rbp)
	movq	.L__const.write_out_picture.SubHeightC+8, %rax
	movq	%rax, -88(%rbp)
	movq	img, %rax
	movl	72656(%rax), %eax
	cltd
	movl	$8, %esi
	idivl	%esi
	movl	%eax, -28(%rbp)
	movq	input, %rax
	cmpl	$0, 3312(%rax)
	je	.LBB31_2
# %bb.1:                                # %land.rhs
	movq	input, %rax
	cmpl	$3, 72(%rax)
	sete	%cl
.LBB31_2:                               # %land.end
	andb	$1, %cl
	movzbl	%cl, %eax
	movl	%eax, -48(%rbp)
	movq	-8(%rbp), %rax
	cmpl	$0, 6388(%rax)
	je	.LBB31_4
# %bb.3:                                # %if.then
	jmp	.LBB31_19
.LBB31_4:                               # %if.end
	movq	-8(%rbp), %rax
	cmpl	$0, 6560(%rax)
	je	.LBB31_6
# %bb.5:                                # %if.then3
	movq	-8(%rbp), %rax
	movslq	6552(%rax), %rax
	movl	-80(%rbp,%rax,4), %eax
	movq	-8(%rbp), %rcx
	imull	6564(%rcx), %eax
	movl	%eax, -16(%rbp)
	movq	-8(%rbp), %rax
	movslq	6552(%rax), %rax
	movl	-80(%rbp,%rax,4), %eax
	movq	-8(%rbp), %rcx
	imull	6568(%rcx), %eax
	movl	%eax, -24(%rbp)
	movq	-8(%rbp), %rax
	movslq	6552(%rax), %rax
	movl	-96(%rbp,%rax,4), %eax
	movq	-8(%rbp), %rcx
	movl	$2, %edx
	movl	$2, %esi
	subl	6556(%rcx), %esi
	imull	%esi, %eax
	movq	-8(%rbp), %rcx
	imull	6572(%rcx), %eax
	movl	%eax, -12(%rbp)
	movq	-8(%rbp), %rax
	movslq	6552(%rax), %rax
	movl	-96(%rbp,%rax,4), %eax
	movq	-8(%rbp), %rcx
	subl	6556(%rcx), %edx
	imull	%edx, %eax
	movq	-8(%rbp), %rcx
	imull	6576(%rcx), %eax
	movl	%eax, -20(%rbp)
	jmp	.LBB31_7
.LBB31_6:                               # %if.else
	movl	$0, -20(%rbp)
	movl	$0, -12(%rbp)
	movl	$0, -24(%rbp)
	movl	$0, -16(%rbp)
.LBB31_7:                               # %if.end20
	movq	-8(%rbp), %rax
	movl	6392(%rax), %eax
	movq	-8(%rbp), %rcx
	imull	6396(%rcx), %eax
	imull	-28(%rbp), %eax
	movslq	%eax, %rdi
	callq	malloc
	xorl	%ecx, %ecx
	movq	%rax, -40(%rbp)
	cmpq	%rax, %rcx
	jne	.LBB31_9
# %bb.8:                                # %if.then25
	movabsq	$.L.str.1, %rdi
	callq	no_mem_exit
.LBB31_9:                               # %if.end26
	cmpl	$0, -48(%rbp)
	je	.LBB31_14
# %bb.10:                               # %if.then28
	movq	-8(%rbp), %rax
	movl	6564(%rax), %eax
	movl	%eax, -16(%rbp)
	movq	-8(%rbp), %rax
	movl	6568(%rax), %eax
	movl	%eax, -24(%rbp)
	movq	-8(%rbp), %rax
	movl	$2, %ecx
	movl	$2, %edx
	subl	6556(%rax), %edx
	movq	-8(%rbp), %rax
	imull	6572(%rax), %edx
	movl	%edx, -12(%rbp)
	movq	-8(%rbp), %rax
	subl	6556(%rax), %ecx
	movq	-8(%rbp), %rax
	imull	6576(%rax), %ecx
	movl	%ecx, -20(%rbp)
	movq	-8(%rbp), %rax
	movq	6464(%rax), %rax
	movq	8(%rax), %rdi
	movq	-40(%rbp), %rsi
	movq	-8(%rbp), %rax
	movl	6400(%rax), %edx
	movq	-8(%rbp), %rax
	movl	6404(%rax), %ecx
	movl	-28(%rbp), %r8d
	movl	-16(%rbp), %r9d
	movl	-24(%rbp), %eax
	movl	-12(%rbp), %r10d
	movl	-20(%rbp), %r11d
	movl	%eax, (%rsp)
	movl	%r10d, 8(%rsp)
	movl	%r11d, 16(%rsp)
	callq	img2buf
	movl	-44(%rbp), %edi
	movq	-40(%rbp), %rsi
	movq	-8(%rbp), %rax
	movl	6404(%rax), %eax
	subl	-20(%rbp), %eax
	subl	-12(%rbp), %eax
	movq	-8(%rbp), %rcx
	movl	6400(%rcx), %ecx
	subl	-24(%rbp), %ecx
	subl	-16(%rbp), %ecx
	imull	%ecx, %eax
	imull	-28(%rbp), %eax
	movslq	%eax, %rdx
	callq	write
	movq	active_sps, %rax
	cmpl	$0, 1160(%rax)
	je	.LBB31_12
# %bb.11:                               # %if.then52
	movq	-8(%rbp), %rax
	movslq	6552(%rax), %rax
	movl	-80(%rbp,%rax,4), %eax
	movq	-8(%rbp), %rcx
	imull	6564(%rcx), %eax
	movl	%eax, -16(%rbp)
	movq	-8(%rbp), %rax
	movslq	6552(%rax), %rax
	movl	-80(%rbp,%rax,4), %eax
	movq	-8(%rbp), %rcx
	imull	6568(%rcx), %eax
	movl	%eax, -24(%rbp)
	movq	-8(%rbp), %rax
	movslq	6552(%rax), %rax
	movl	-96(%rbp,%rax,4), %eax
	movq	-8(%rbp), %rcx
	movl	$2, %edx
	movl	$2, %esi
	subl	6556(%rcx), %esi
	imull	%esi, %eax
	movq	-8(%rbp), %rcx
	imull	6572(%rcx), %eax
	movl	%eax, -12(%rbp)
	movq	-8(%rbp), %rax
	movslq	6552(%rax), %rax
	movl	-96(%rbp,%rax,4), %eax
	movq	-8(%rbp), %rcx
	subl	6556(%rcx), %edx
	imull	%edx, %eax
	movq	-8(%rbp), %rcx
	imull	6576(%rcx), %eax
	movl	%eax, -20(%rbp)
	jmp	.LBB31_13
.LBB31_12:                              # %if.else79
	movl	$0, -20(%rbp)
	movl	$0, -12(%rbp)
	movl	$0, -24(%rbp)
	movl	$0, -16(%rbp)
.LBB31_13:                              # %if.end80
	jmp	.LBB31_14
.LBB31_14:                              # %if.end81
	movq	-8(%rbp), %rax
	movq	6424(%rax), %rdi
	movq	-40(%rbp), %rsi
	movq	-8(%rbp), %rax
	movl	6392(%rax), %edx
	movq	-8(%rbp), %rax
	movl	6396(%rax), %ecx
	movl	-28(%rbp), %r8d
	movl	-16(%rbp), %r9d
	movl	-24(%rbp), %eax
	movl	-12(%rbp), %r10d
	movl	-20(%rbp), %r11d
	movl	%eax, (%rsp)
	movl	%r10d, 8(%rsp)
	movl	%r11d, 16(%rsp)
	callq	img2buf
	movl	-44(%rbp), %edi
	movq	-40(%rbp), %rsi
	movq	-8(%rbp), %rax
	movl	6396(%rax), %eax
	subl	-20(%rbp), %eax
	subl	-12(%rbp), %eax
	movq	-8(%rbp), %rcx
	movl	6392(%rcx), %ecx
	subl	-24(%rbp), %ecx
	subl	-16(%rbp), %ecx
	imull	%ecx, %eax
	imull	-28(%rbp), %eax
	movslq	%eax, %rdx
	callq	write
	movq	-8(%rbp), %rax
	cmpl	$0, 6552(%rax)
	je	.LBB31_18
# %bb.15:                               # %if.then97
	movq	-8(%rbp), %rax
	movl	6564(%rax), %eax
	movl	%eax, -16(%rbp)
	movq	-8(%rbp), %rax
	movl	6568(%rax), %eax
	movl	%eax, -24(%rbp)
	movq	-8(%rbp), %rax
	movl	$2, %ecx
	movl	$2, %edx
	subl	6556(%rax), %edx
	movq	-8(%rbp), %rax
	imull	6572(%rax), %edx
	movl	%edx, -12(%rbp)
	movq	-8(%rbp), %rax
	subl	6556(%rax), %ecx
	movq	-8(%rbp), %rax
	imull	6576(%rax), %ecx
	movl	%ecx, -20(%rbp)
	movq	-8(%rbp), %rax
	movq	6464(%rax), %rax
	movq	(%rax), %rdi
	movq	-40(%rbp), %rsi
	movq	-8(%rbp), %rax
	movl	6400(%rax), %edx
	movq	-8(%rbp), %rax
	movl	6404(%rax), %ecx
	movl	-28(%rbp), %r8d
	movl	-16(%rbp), %r9d
	movl	-24(%rbp), %eax
	movl	-12(%rbp), %r10d
	movl	-20(%rbp), %r11d
	movl	%eax, (%rsp)
	movl	%r10d, 8(%rsp)
	movl	%r11d, 16(%rsp)
	callq	img2buf
	movl	-44(%rbp), %edi
	movq	-40(%rbp), %rsi
	movq	-8(%rbp), %rax
	movl	6404(%rax), %eax
	subl	-20(%rbp), %eax
	subl	-12(%rbp), %eax
	movq	-8(%rbp), %rcx
	movl	6400(%rcx), %ecx
	subl	-24(%rbp), %ecx
	subl	-16(%rbp), %ecx
	imull	%ecx, %eax
	imull	-28(%rbp), %eax
	movslq	%eax, %rdx
	callq	write
	cmpl	$0, -48(%rbp)
	jne	.LBB31_17
# %bb.16:                               # %if.then123
	movq	-8(%rbp), %rax
	movq	6464(%rax), %rax
	movq	8(%rax), %rdi
	movq	-40(%rbp), %rsi
	movq	-8(%rbp), %rax
	movl	6400(%rax), %edx
	movq	-8(%rbp), %rax
	movl	6404(%rax), %ecx
	movl	-28(%rbp), %r8d
	movl	-16(%rbp), %r9d
	movl	-24(%rbp), %eax
	movl	-12(%rbp), %r10d
	movl	-20(%rbp), %r11d
	movl	%eax, (%rsp)
	movl	%r10d, 8(%rsp)
	movl	%r11d, 16(%rsp)
	callq	img2buf
	movl	-44(%rbp), %edi
	movq	-40(%rbp), %rsi
	movq	-8(%rbp), %rax
	movl	6404(%rax), %eax
	subl	-20(%rbp), %eax
	subl	-12(%rbp), %eax
	movq	-8(%rbp), %rcx
	movl	6400(%rcx), %ecx
	subl	-24(%rbp), %ecx
	subl	-16(%rbp), %ecx
	imull	%ecx, %eax
	imull	-28(%rbp), %eax
	movslq	%eax, %rdx
	callq	write
.LBB31_17:                              # %if.end138
	jmp	.LBB31_18
.LBB31_18:                              # %if.end139
	movq	-40(%rbp), %rdi
	callq	free
.LBB31_19:                              # %return
	cmpl	$1439023681, -52(%rbp)  # imm = 0x55C5C241
	jne	.LBB31_21
.LBB31_20:
	addq	$128, %rsp
	popq	%rbp
	.cfi_def_cfa %rsp, 8
	retq
.LBB31_21:                              # %func_exit
	.cfi_def_cfa %rbp, 16
	callq	detect_breach
	jmp	.LBB31_20
.Lfunc_end31:
	.size	write_out_picture.21, .Lfunc_end31-write_out_picture.21
	.cfi_endproc
                                        # -- End function
	.globl	write_picture.22        # -- Begin function write_picture.22
	.p2align	4, 0x90
	.type	write_picture.22,@function
write_picture.22:                       # @write_picture.22
	.cfi_startproc
# %bb.0:                                # %entry
	pushq	%rbp
	.cfi_def_cfa_offset 16
	.cfi_offset %rbp, -16
	movq	%rsp, %rbp
	.cfi_def_cfa_register %rbp
	subq	$32, %rsp
	movl	$1830139230, -4(%rbp)   # imm = 0x6D15B55E
	movq	%rdi, -16(%rbp)
	movl	%esi, -8(%rbp)
	movl	%edx, -20(%rbp)
	movq	-16(%rbp), %rdi
	movl	-8(%rbp), %esi
	callq	write_out_picture
	cmpl	$1830139230, -4(%rbp)   # imm = 0x6D15B55E
	jne	.LBB32_2
.LBB32_1:
	addq	$32, %rsp
	popq	%rbp
	.cfi_def_cfa %rsp, 8
	retq
.LBB32_2:                               # %func_exit
	.cfi_def_cfa %rbp, 16
	callq	detect_breach
	jmp	.LBB32_1
.Lfunc_end32:
	.size	write_picture.22, .Lfunc_end32-write_picture.22
	.cfi_endproc
                                        # -- End function
	.globl	write_picture.23        # -- Begin function write_picture.23
	.p2align	4, 0x90
	.type	write_picture.23,@function
write_picture.23:                       # @write_picture.23
	.cfi_startproc
# %bb.0:                                # %entry
	pushq	%rbp
	.cfi_def_cfa_offset 16
	.cfi_offset %rbp, -16
	movq	%rsp, %rbp
	.cfi_def_cfa_register %rbp
	subq	$32, %rsp
	movl	$450494306, -8(%rbp)    # imm = 0x1AD9FF62
	movq	%rdi, -16(%rbp)
	movl	%esi, -4(%rbp)
	movl	%edx, -20(%rbp)
	movq	-16(%rbp), %rdi
	movl	-4(%rbp), %esi
	callq	write_out_picture
	cmpl	$450494306, -8(%rbp)    # imm = 0x1AD9FF62
	jne	.LBB33_2
.LBB33_1:
	addq	$32, %rsp
	popq	%rbp
	.cfi_def_cfa %rsp, 8
	retq
.LBB33_2:                               # %func_exit
	.cfi_def_cfa %rbp, 16
	callq	detect_breach
	jmp	.LBB33_1
.Lfunc_end33:
	.size	write_picture.23, .Lfunc_end33-write_picture.23
	.cfi_endproc
                                        # -- End function
	.globl	write_picture.24        # -- Begin function write_picture.24
	.p2align	4, 0x90
	.type	write_picture.24,@function
write_picture.24:                       # @write_picture.24
	.cfi_startproc
# %bb.0:                                # %entry
	pushq	%rbp
	.cfi_def_cfa_offset 16
	.cfi_offset %rbp, -16
	movq	%rsp, %rbp
	.cfi_def_cfa_register %rbp
	subq	$32, %rsp
	movl	$974725740, -4(%rbp)    # imm = 0x3A19226C
	movq	%rdi, -16(%rbp)
	movl	%esi, -8(%rbp)
	movl	%edx, -20(%rbp)
	movq	-16(%rbp), %rdi
	movl	-8(%rbp), %esi
	callq	write_out_picture
	cmpl	$974725740, -4(%rbp)    # imm = 0x3A19226C
	jne	.LBB34_2
.LBB34_1:
	addq	$32, %rsp
	popq	%rbp
	.cfi_def_cfa %rsp, 8
	retq
.LBB34_2:                               # %func_exit
	.cfi_def_cfa %rbp, 16
	callq	detect_breach
	jmp	.LBB34_1
.Lfunc_end34:
	.size	write_picture.24, .Lfunc_end34-write_picture.24
	.cfi_endproc
                                        # -- End function
	.globl	write_picture.25        # -- Begin function write_picture.25
	.p2align	4, 0x90
	.type	write_picture.25,@function
write_picture.25:                       # @write_picture.25
	.cfi_startproc
# %bb.0:                                # %entry
	pushq	%rbp
	.cfi_def_cfa_offset 16
	.cfi_offset %rbp, -16
	movq	%rsp, %rbp
	.cfi_def_cfa_register %rbp
	subq	$32, %rsp
	movl	$2142796348, -8(%rbp)   # imm = 0x7FB87A3C
	movq	%rdi, -16(%rbp)
	movl	%esi, -4(%rbp)
	movl	%edx, -20(%rbp)
	movq	-16(%rbp), %rdi
	movl	-4(%rbp), %esi
	callq	write_out_picture
	cmpl	$2142796348, -8(%rbp)   # imm = 0x7FB87A3C
	jne	.LBB35_2
.LBB35_1:
	addq	$32, %rsp
	popq	%rbp
	.cfi_def_cfa %rsp, 8
	retq
.LBB35_2:                               # %func_exit
	.cfi_def_cfa %rbp, 16
	callq	detect_breach
	jmp	.LBB35_1
.Lfunc_end35:
	.size	write_picture.25, .Lfunc_end35-write_picture.25
	.cfi_endproc
                                        # -- End function
	.globl	write_picture.26        # -- Begin function write_picture.26
	.p2align	4, 0x90
	.type	write_picture.26,@function
write_picture.26:                       # @write_picture.26
	.cfi_startproc
# %bb.0:                                # %entry
	pushq	%rbp
	.cfi_def_cfa_offset 16
	.cfi_offset %rbp, -16
	movq	%rsp, %rbp
	.cfi_def_cfa_register %rbp
	subq	$32, %rsp
	movl	$871522531, -8(%rbp)    # imm = 0x33F260E3
	movq	%rdi, -16(%rbp)
	movl	%esi, -4(%rbp)
	movl	%edx, -20(%rbp)
	movq	-16(%rbp), %rdi
	movl	-4(%rbp), %esi
	callq	write_out_picture
	cmpl	$871522531, -8(%rbp)    # imm = 0x33F260E3
	jne	.LBB36_2
.LBB36_1:
	addq	$32, %rsp
	popq	%rbp
	.cfi_def_cfa %rsp, 8
	retq
.LBB36_2:                               # %func_exit
	.cfi_def_cfa %rbp, 16
	callq	detect_breach
	jmp	.LBB36_1
.Lfunc_end36:
	.size	write_picture.26, .Lfunc_end36-write_picture.26
	.cfi_endproc
                                        # -- End function
	.globl	write_out_picture.27    # -- Begin function write_out_picture.27
	.p2align	4, 0x90
	.type	write_out_picture.27,@function
write_out_picture.27:                   # @write_out_picture.27
	.cfi_startproc
# %bb.0:                                # %entry
	pushq	%rbp
	.cfi_def_cfa_offset 16
	.cfi_offset %rbp, -16
	movq	%rsp, %rbp
	.cfi_def_cfa_register %rbp
	subq	$128, %rsp
	xorl	%ecx, %ecx
	movl	$816923794, -52(%rbp)   # imm = 0x30B14492
	movq	%rdi, -8(%rbp)
	movl	%esi, -44(%rbp)
	movq	.L__const.write_out_picture.SubWidthC, %rax
	movq	%rax, -80(%rbp)
	movq	.L__const.write_out_picture.SubWidthC+8, %rax
	movq	%rax, -72(%rbp)
	movq	.L__const.write_out_picture.SubHeightC, %rax
	movq	%rax, -96(%rbp)
	movq	.L__const.write_out_picture.SubHeightC+8, %rax
	movq	%rax, -88(%rbp)
	movq	img, %rax
	movl	72656(%rax), %eax
	cltd
	movl	$8, %esi
	idivl	%esi
	movl	%eax, -28(%rbp)
	movq	input, %rax
	cmpl	$0, 3312(%rax)
	je	.LBB37_2
# %bb.1:                                # %land.rhs
	movq	input, %rax
	cmpl	$3, 72(%rax)
	sete	%cl
.LBB37_2:                               # %land.end
	andb	$1, %cl
	movzbl	%cl, %eax
	movl	%eax, -48(%rbp)
	movq	-8(%rbp), %rax
	cmpl	$0, 6388(%rax)
	je	.LBB37_4
# %bb.3:                                # %if.then
	jmp	.LBB37_19
.LBB37_4:                               # %if.end
	movq	-8(%rbp), %rax
	cmpl	$0, 6560(%rax)
	je	.LBB37_6
# %bb.5:                                # %if.then3
	movq	-8(%rbp), %rax
	movslq	6552(%rax), %rax
	movl	-80(%rbp,%rax,4), %eax
	movq	-8(%rbp), %rcx
	imull	6564(%rcx), %eax
	movl	%eax, -20(%rbp)
	movq	-8(%rbp), %rax
	movslq	6552(%rax), %rax
	movl	-80(%rbp,%rax,4), %eax
	movq	-8(%rbp), %rcx
	imull	6568(%rcx), %eax
	movl	%eax, -24(%rbp)
	movq	-8(%rbp), %rax
	movslq	6552(%rax), %rax
	movl	-96(%rbp,%rax,4), %eax
	movq	-8(%rbp), %rcx
	movl	$2, %edx
	movl	$2, %esi
	subl	6556(%rcx), %esi
	imull	%esi, %eax
	movq	-8(%rbp), %rcx
	imull	6572(%rcx), %eax
	movl	%eax, -12(%rbp)
	movq	-8(%rbp), %rax
	movslq	6552(%rax), %rax
	movl	-96(%rbp,%rax,4), %eax
	movq	-8(%rbp), %rcx
	subl	6556(%rcx), %edx
	imull	%edx, %eax
	movq	-8(%rbp), %rcx
	imull	6576(%rcx), %eax
	movl	%eax, -16(%rbp)
	jmp	.LBB37_7
.LBB37_6:                               # %if.else
	movl	$0, -16(%rbp)
	movl	$0, -12(%rbp)
	movl	$0, -24(%rbp)
	movl	$0, -20(%rbp)
.LBB37_7:                               # %if.end20
	movq	-8(%rbp), %rax
	movl	6392(%rax), %eax
	movq	-8(%rbp), %rcx
	imull	6396(%rcx), %eax
	imull	-28(%rbp), %eax
	movslq	%eax, %rdi
	callq	malloc
	xorl	%ecx, %ecx
	movq	%rax, -40(%rbp)
	cmpq	%rax, %rcx
	jne	.LBB37_9
# %bb.8:                                # %if.then25
	movabsq	$.L.str.1, %rdi
	callq	no_mem_exit
.LBB37_9:                               # %if.end26
	cmpl	$0, -48(%rbp)
	je	.LBB37_14
# %bb.10:                               # %if.then28
	movq	-8(%rbp), %rax
	movl	6564(%rax), %eax
	movl	%eax, -20(%rbp)
	movq	-8(%rbp), %rax
	movl	6568(%rax), %eax
	movl	%eax, -24(%rbp)
	movq	-8(%rbp), %rax
	movl	$2, %ecx
	movl	$2, %edx
	subl	6556(%rax), %edx
	movq	-8(%rbp), %rax
	imull	6572(%rax), %edx
	movl	%edx, -12(%rbp)
	movq	-8(%rbp), %rax
	subl	6556(%rax), %ecx
	movq	-8(%rbp), %rax
	imull	6576(%rax), %ecx
	movl	%ecx, -16(%rbp)
	movq	-8(%rbp), %rax
	movq	6464(%rax), %rax
	movq	8(%rax), %rdi
	movq	-40(%rbp), %rsi
	movq	-8(%rbp), %rax
	movl	6400(%rax), %edx
	movq	-8(%rbp), %rax
	movl	6404(%rax), %ecx
	movl	-28(%rbp), %r8d
	movl	-20(%rbp), %r9d
	movl	-24(%rbp), %eax
	movl	-12(%rbp), %r10d
	movl	-16(%rbp), %r11d
	movl	%eax, (%rsp)
	movl	%r10d, 8(%rsp)
	movl	%r11d, 16(%rsp)
	callq	img2buf
	movl	-44(%rbp), %edi
	movq	-40(%rbp), %rsi
	movq	-8(%rbp), %rax
	movl	6404(%rax), %eax
	subl	-16(%rbp), %eax
	subl	-12(%rbp), %eax
	movq	-8(%rbp), %rcx
	movl	6400(%rcx), %ecx
	subl	-24(%rbp), %ecx
	subl	-20(%rbp), %ecx
	imull	%ecx, %eax
	imull	-28(%rbp), %eax
	movslq	%eax, %rdx
	callq	write
	movq	active_sps, %rax
	cmpl	$0, 1160(%rax)
	je	.LBB37_12
# %bb.11:                               # %if.then52
	movq	-8(%rbp), %rax
	movslq	6552(%rax), %rax
	movl	-80(%rbp,%rax,4), %eax
	movq	-8(%rbp), %rcx
	imull	6564(%rcx), %eax
	movl	%eax, -20(%rbp)
	movq	-8(%rbp), %rax
	movslq	6552(%rax), %rax
	movl	-80(%rbp,%rax,4), %eax
	movq	-8(%rbp), %rcx
	imull	6568(%rcx), %eax
	movl	%eax, -24(%rbp)
	movq	-8(%rbp), %rax
	movslq	6552(%rax), %rax
	movl	-96(%rbp,%rax,4), %eax
	movq	-8(%rbp), %rcx
	movl	$2, %edx
	movl	$2, %esi
	subl	6556(%rcx), %esi
	imull	%esi, %eax
	movq	-8(%rbp), %rcx
	imull	6572(%rcx), %eax
	movl	%eax, -12(%rbp)
	movq	-8(%rbp), %rax
	movslq	6552(%rax), %rax
	movl	-96(%rbp,%rax,4), %eax
	movq	-8(%rbp), %rcx
	subl	6556(%rcx), %edx
	imull	%edx, %eax
	movq	-8(%rbp), %rcx
	imull	6576(%rcx), %eax
	movl	%eax, -16(%rbp)
	jmp	.LBB37_13
.LBB37_12:                              # %if.else79
	movl	$0, -16(%rbp)
	movl	$0, -12(%rbp)
	movl	$0, -24(%rbp)
	movl	$0, -20(%rbp)
.LBB37_13:                              # %if.end80
	jmp	.LBB37_14
.LBB37_14:                              # %if.end81
	movq	-8(%rbp), %rax
	movq	6424(%rax), %rdi
	movq	-40(%rbp), %rsi
	movq	-8(%rbp), %rax
	movl	6392(%rax), %edx
	movq	-8(%rbp), %rax
	movl	6396(%rax), %ecx
	movl	-28(%rbp), %r8d
	movl	-20(%rbp), %r9d
	movl	-24(%rbp), %eax
	movl	-12(%rbp), %r10d
	movl	-16(%rbp), %r11d
	movl	%eax, (%rsp)
	movl	%r10d, 8(%rsp)
	movl	%r11d, 16(%rsp)
	callq	img2buf
	movl	-44(%rbp), %edi
	movq	-40(%rbp), %rsi
	movq	-8(%rbp), %rax
	movl	6396(%rax), %eax
	subl	-16(%rbp), %eax
	subl	-12(%rbp), %eax
	movq	-8(%rbp), %rcx
	movl	6392(%rcx), %ecx
	subl	-24(%rbp), %ecx
	subl	-20(%rbp), %ecx
	imull	%ecx, %eax
	imull	-28(%rbp), %eax
	movslq	%eax, %rdx
	callq	write
	movq	-8(%rbp), %rax
	cmpl	$0, 6552(%rax)
	je	.LBB37_18
# %bb.15:                               # %if.then97
	movq	-8(%rbp), %rax
	movl	6564(%rax), %eax
	movl	%eax, -20(%rbp)
	movq	-8(%rbp), %rax
	movl	6568(%rax), %eax
	movl	%eax, -24(%rbp)
	movq	-8(%rbp), %rax
	movl	$2, %ecx
	movl	$2, %edx
	subl	6556(%rax), %edx
	movq	-8(%rbp), %rax
	imull	6572(%rax), %edx
	movl	%edx, -12(%rbp)
	movq	-8(%rbp), %rax
	subl	6556(%rax), %ecx
	movq	-8(%rbp), %rax
	imull	6576(%rax), %ecx
	movl	%ecx, -16(%rbp)
	movq	-8(%rbp), %rax
	movq	6464(%rax), %rax
	movq	(%rax), %rdi
	movq	-40(%rbp), %rsi
	movq	-8(%rbp), %rax
	movl	6400(%rax), %edx
	movq	-8(%rbp), %rax
	movl	6404(%rax), %ecx
	movl	-28(%rbp), %r8d
	movl	-20(%rbp), %r9d
	movl	-24(%rbp), %eax
	movl	-12(%rbp), %r10d
	movl	-16(%rbp), %r11d
	movl	%eax, (%rsp)
	movl	%r10d, 8(%rsp)
	movl	%r11d, 16(%rsp)
	callq	img2buf
	movl	-44(%rbp), %edi
	movq	-40(%rbp), %rsi
	movq	-8(%rbp), %rax
	movl	6404(%rax), %eax
	subl	-16(%rbp), %eax
	subl	-12(%rbp), %eax
	movq	-8(%rbp), %rcx
	movl	6400(%rcx), %ecx
	subl	-24(%rbp), %ecx
	subl	-20(%rbp), %ecx
	imull	%ecx, %eax
	imull	-28(%rbp), %eax
	movslq	%eax, %rdx
	callq	write
	cmpl	$0, -48(%rbp)
	jne	.LBB37_17
# %bb.16:                               # %if.then123
	movq	-8(%rbp), %rax
	movq	6464(%rax), %rax
	movq	8(%rax), %rdi
	movq	-40(%rbp), %rsi
	movq	-8(%rbp), %rax
	movl	6400(%rax), %edx
	movq	-8(%rbp), %rax
	movl	6404(%rax), %ecx
	movl	-28(%rbp), %r8d
	movl	-20(%rbp), %r9d
	movl	-24(%rbp), %eax
	movl	-12(%rbp), %r10d
	movl	-16(%rbp), %r11d
	movl	%eax, (%rsp)
	movl	%r10d, 8(%rsp)
	movl	%r11d, 16(%rsp)
	callq	img2buf
	movl	-44(%rbp), %edi
	movq	-40(%rbp), %rsi
	movq	-8(%rbp), %rax
	movl	6404(%rax), %eax
	subl	-16(%rbp), %eax
	subl	-12(%rbp), %eax
	movq	-8(%rbp), %rcx
	movl	6400(%rcx), %ecx
	subl	-24(%rbp), %ecx
	subl	-20(%rbp), %ecx
	imull	%ecx, %eax
	imull	-28(%rbp), %eax
	movslq	%eax, %rdx
	callq	write
.LBB37_17:                              # %if.end138
	jmp	.LBB37_18
.LBB37_18:                              # %if.end139
	movq	-40(%rbp), %rdi
	callq	free
.LBB37_19:                              # %return
	cmpl	$816923794, -52(%rbp)   # imm = 0x30B14492
	jne	.LBB37_21
.LBB37_20:
	addq	$128, %rsp
	popq	%rbp
	.cfi_def_cfa %rsp, 8
	retq
.LBB37_21:                              # %func_exit
	.cfi_def_cfa %rbp, 16
	callq	detect_breach
	jmp	.LBB37_20
.Lfunc_end37:
	.size	write_out_picture.27, .Lfunc_end37-write_out_picture.27
	.cfi_endproc
                                        # -- End function
	.globl	img2buf.28              # -- Begin function img2buf.28
	.p2align	4, 0x90
	.type	img2buf.28,@function
img2buf.28:                             # @img2buf.28
	.cfi_startproc
# %bb.0:                                # %entry
	pushq	%rbp
	.cfi_def_cfa_offset 16
	.cfi_offset %rbp, -16
	movq	%rsp, %rbp
	.cfi_def_cfa_register %rbp
	subq	$96, %rsp
	movl	32(%rbp), %eax
	movl	24(%rbp), %eax
	movl	16(%rbp), %eax
	movl	$1807234084, -76(%rbp)  # imm = 0x6BB83424
	movq	%rdi, -64(%rbp)
	movq	%rsi, -56(%rbp)
	movl	%edx, -28(%rbp)
	movl	%ecx, -20(%rbp)
	movl	%r8d, -24(%rbp)
	movl	%r9d, -12(%rbp)
	movl	-28(%rbp), %eax
	subl	-12(%rbp), %eax
	subl	16(%rbp), %eax
	movl	%eax, -32(%rbp)
	movl	-20(%rbp), %eax
	subl	24(%rbp), %eax
	subl	32(%rbp), %eax
	movl	%eax, -80(%rbp)
	movl	$0, -40(%rbp)
	callq	testEndian
	cmpl	$0, %eax
	je	.LBB38_33
# %bb.1:                                # %if.then
	movl	-24(%rbp), %eax
	movl	%eax, %ecx
	subl	$1, %ecx
	je	.LBB38_4
	jmp	.LBB38_2
.LBB38_2:                               # %if.then
	movl	%eax, %ecx
	subl	$2, %ecx
	je	.LBB38_13
	jmp	.LBB38_3
.LBB38_3:                               # %if.then
	subl	$4, %eax
	je	.LBB38_22
	jmp	.LBB38_31
.LBB38_4:                               # %sw.bb
	movl	24(%rbp), %eax
	movl	%eax, -8(%rbp)
.LBB38_5:                               # %for.cond
                                        # =>This Loop Header: Depth=1
                                        #     Child Loop BB38_7 Depth 2
	movl	-8(%rbp), %eax
	movl	-20(%rbp), %ecx
	subl	32(%rbp), %ecx
	cmpl	%ecx, %eax
	jge	.LBB38_12
# %bb.6:                                # %for.body
                                        #   in Loop: Header=BB38_5 Depth=1
	movl	-12(%rbp), %eax
	movl	%eax, -4(%rbp)
.LBB38_7:                               # %for.cond5
                                        #   Parent Loop BB38_5 Depth=1
                                        # =>  This Inner Loop Header: Depth=2
	movl	-4(%rbp), %eax
	movl	-28(%rbp), %ecx
	subl	16(%rbp), %ecx
	cmpl	%ecx, %eax
	jge	.LBB38_10
# %bb.8:                                # %for.body8
                                        #   in Loop: Header=BB38_7 Depth=2
	movq	-64(%rbp), %rax
	movslq	-8(%rbp), %rcx
	movq	(%rax,%rcx,8), %rax
	movslq	-4(%rbp), %rcx
	movw	(%rax,%rcx,2), %ax
	movb	%al, -13(%rbp)
	movb	-13(%rbp), %al
	movq	-56(%rbp), %rcx
	movl	-4(%rbp), %edx
	subl	-12(%rbp), %edx
	movl	-8(%rbp), %esi
	subl	24(%rbp), %esi
	imull	-32(%rbp), %esi
	addl	%esi, %edx
	movslq	%edx, %rdx
	movb	%al, (%rcx,%rdx)
# %bb.9:                                # %for.inc
                                        #   in Loop: Header=BB38_7 Depth=2
	movl	-4(%rbp), %eax
	addl	$1, %eax
	movl	%eax, -4(%rbp)
	jmp	.LBB38_7
.LBB38_10:                              # %for.end
                                        #   in Loop: Header=BB38_5 Depth=1
	jmp	.LBB38_11
.LBB38_11:                              # %for.inc15
                                        #   in Loop: Header=BB38_5 Depth=1
	movl	-8(%rbp), %eax
	addl	$1, %eax
	movl	%eax, -8(%rbp)
	jmp	.LBB38_5
.LBB38_12:                              # %for.end17
	jmp	.LBB38_32
.LBB38_13:                              # %sw.bb18
	movl	24(%rbp), %eax
	movl	%eax, -8(%rbp)
.LBB38_14:                              # %for.cond19
                                        # =>This Loop Header: Depth=1
                                        #     Child Loop BB38_16 Depth 2
	movl	-8(%rbp), %eax
	movl	-20(%rbp), %ecx
	subl	32(%rbp), %ecx
	cmpl	%ecx, %eax
	jge	.LBB38_21
# %bb.15:                               # %for.body23
                                        #   in Loop: Header=BB38_14 Depth=1
	movl	-12(%rbp), %eax
	movl	%eax, -4(%rbp)
.LBB38_16:                              # %for.cond24
                                        #   Parent Loop BB38_14 Depth=1
                                        # =>  This Inner Loop Header: Depth=2
	movl	-4(%rbp), %eax
	movl	-28(%rbp), %ecx
	subl	16(%rbp), %ecx
	cmpl	%ecx, %eax
	jge	.LBB38_19
# %bb.17:                               # %for.body28
                                        #   in Loop: Header=BB38_16 Depth=2
	movq	-64(%rbp), %rax
	movslq	-8(%rbp), %rcx
	movq	(%rax,%rcx,8), %rax
	movslq	-4(%rbp), %rcx
	movw	(%rax,%rcx,2), %ax
	movw	%ax, -34(%rbp)
	movzwl	-34(%rbp), %eax
	sarl	$8, %eax
	movzwl	-34(%rbp), %ecx
	andl	$255, %ecx
	shll	$8, %ecx
	orl	%ecx, %eax
	movw	%ax, -42(%rbp)
	movq	-56(%rbp), %rax
	movl	-4(%rbp), %ecx
	subl	-12(%rbp), %ecx
	movl	-8(%rbp), %edx
	subl	24(%rbp), %edx
	imull	-32(%rbp), %edx
	addl	%edx, %ecx
	shll	$1, %ecx
	movslq	%ecx, %rcx
	movw	-42(%rbp), %dx
	movw	%dx, (%rax,%rcx)
# %bb.18:                               # %for.inc41
                                        #   in Loop: Header=BB38_16 Depth=2
	movl	-4(%rbp), %eax
	addl	$1, %eax
	movl	%eax, -4(%rbp)
	jmp	.LBB38_16
.LBB38_19:                              # %for.end43
                                        #   in Loop: Header=BB38_14 Depth=1
	jmp	.LBB38_20
.LBB38_20:                              # %for.inc44
                                        #   in Loop: Header=BB38_14 Depth=1
	movl	-8(%rbp), %eax
	addl	$1, %eax
	movl	%eax, -8(%rbp)
	jmp	.LBB38_14
.LBB38_21:                              # %for.end46
	jmp	.LBB38_32
.LBB38_22:                              # %sw.bb47
	movl	24(%rbp), %eax
	movl	%eax, -8(%rbp)
.LBB38_23:                              # %for.cond48
                                        # =>This Loop Header: Depth=1
                                        #     Child Loop BB38_25 Depth 2
	movl	-8(%rbp), %eax
	movl	-20(%rbp), %ecx
	subl	32(%rbp), %ecx
	cmpl	%ecx, %eax
	jge	.LBB38_30
# %bb.24:                               # %for.body52
                                        #   in Loop: Header=BB38_23 Depth=1
	movl	-12(%rbp), %eax
	movl	%eax, -4(%rbp)
.LBB38_25:                              # %for.cond53
                                        #   Parent Loop BB38_23 Depth=1
                                        # =>  This Inner Loop Header: Depth=2
	movl	-4(%rbp), %eax
	movl	-28(%rbp), %ecx
	subl	16(%rbp), %ecx
	cmpl	%ecx, %eax
	jge	.LBB38_28
# %bb.26:                               # %for.body57
                                        #   in Loop: Header=BB38_25 Depth=2
	movq	-64(%rbp), %rax
	movslq	-8(%rbp), %rcx
	movq	(%rax,%rcx,8), %rax
	movslq	-4(%rbp), %rcx
	movzwl	(%rax,%rcx,2), %eax
	movq	%rax, -72(%rbp)
	movq	-72(%rbp), %rax
	andq	$65280, %rax            # imm = 0xFF00
	shlq	$8, %rax
	movq	-72(%rbp), %rcx
	andq	$255, %rcx
	shlq	$24, %rcx
	orq	%rcx, %rax
	movq	-72(%rbp), %rcx
	andq	$16711680, %rcx         # imm = 0xFF0000
	shrq	$8, %rcx
	orq	%rcx, %rax
	movl	$4278190080, %ecx       # imm = 0xFF000000
	andq	-72(%rbp), %rcx
	shrq	$24, %rcx
	orq	%rcx, %rax
	movq	%rax, -88(%rbp)
	movq	-56(%rbp), %rax
	movl	-4(%rbp), %ecx
	subl	-12(%rbp), %ecx
	movl	-8(%rbp), %edx
	subl	24(%rbp), %edx
	imull	-32(%rbp), %edx
	addl	%edx, %ecx
	shll	$2, %ecx
	movslq	%ecx, %rcx
	movl	-88(%rbp), %edx
	movl	%edx, (%rax,%rcx)
# %bb.27:                               # %for.inc81
                                        #   in Loop: Header=BB38_25 Depth=2
	movl	-4(%rbp), %eax
	addl	$1, %eax
	movl	%eax, -4(%rbp)
	jmp	.LBB38_25
.LBB38_28:                              # %for.end83
                                        #   in Loop: Header=BB38_23 Depth=1
	jmp	.LBB38_29
.LBB38_29:                              # %for.inc84
                                        #   in Loop: Header=BB38_23 Depth=1
	movl	-8(%rbp), %eax
	addl	$1, %eax
	movl	%eax, -8(%rbp)
	jmp	.LBB38_23
.LBB38_30:                              # %for.end86
	jmp	.LBB38_32
.LBB38_31:                              # %sw.default
	movabsq	$.L.str, %rdi
	movl	$500, %esi              # imm = 0x1F4
	callq	error
.LBB38_32:                              # %sw.epilog
	jmp	.LBB38_45
.LBB38_33:                              # %if.else
	movslq	-24(%rbp), %rax
	movl	$2, %ecx
	cmpq	%rax, %rcx
	jae	.LBB38_35
# %bb.34:                               # %if.then90
	movl	$2, -40(%rbp)
	movq	-56(%rbp), %rdi
	movl	-32(%rbp), %eax
	imull	-80(%rbp), %eax
	imull	-24(%rbp), %eax
	movslq	%eax, %rdx
	xorl	%esi, %esi
	callq	memset
	jmp	.LBB38_36
.LBB38_35:                              # %if.else94
	movl	-24(%rbp), %eax
	movl	%eax, -40(%rbp)
.LBB38_36:                              # %if.end
	movl	24(%rbp), %eax
	movl	%eax, -8(%rbp)
.LBB38_37:                              # %for.cond95
                                        # =>This Loop Header: Depth=1
                                        #     Child Loop BB38_39 Depth 2
	movl	-8(%rbp), %eax
	movl	-20(%rbp), %ecx
	subl	32(%rbp), %ecx
	cmpl	%ecx, %eax
	jge	.LBB38_44
# %bb.38:                               # %for.body99
                                        #   in Loop: Header=BB38_37 Depth=1
	movl	-12(%rbp), %eax
	movl	%eax, -4(%rbp)
.LBB38_39:                              # %for.cond100
                                        #   Parent Loop BB38_37 Depth=1
                                        # =>  This Inner Loop Header: Depth=2
	movl	-4(%rbp), %eax
	movl	-28(%rbp), %ecx
	subl	16(%rbp), %ecx
	cmpl	%ecx, %eax
	jge	.LBB38_42
# %bb.40:                               # %for.body104
                                        #   in Loop: Header=BB38_39 Depth=2
	movq	-56(%rbp), %rdi
	movl	-4(%rbp), %eax
	subl	-12(%rbp), %eax
	movl	-8(%rbp), %ecx
	subl	24(%rbp), %ecx
	imull	-32(%rbp), %ecx
	addl	%ecx, %eax
	imull	-24(%rbp), %eax
	cltq
	addq	%rax, %rdi
	movq	-64(%rbp), %rax
	movslq	-8(%rbp), %rcx
	movq	(%rax,%rcx,8), %rsi
	movslq	-4(%rbp), %rax
	shlq	$1, %rax
	addq	%rax, %rsi
	movslq	-40(%rbp), %rdx
	callq	memcpy
# %bb.41:                               # %for.inc117
                                        #   in Loop: Header=BB38_39 Depth=2
	movl	-4(%rbp), %eax
	addl	$1, %eax
	movl	%eax, -4(%rbp)
	jmp	.LBB38_39
.LBB38_42:                              # %for.end119
                                        #   in Loop: Header=BB38_37 Depth=1
	jmp	.LBB38_43
.LBB38_43:                              # %for.inc120
                                        #   in Loop: Header=BB38_37 Depth=1
	movl	-8(%rbp), %eax
	addl	$1, %eax
	movl	%eax, -8(%rbp)
	jmp	.LBB38_37
.LBB38_44:                              # %for.end122
	jmp	.LBB38_45
.LBB38_45:                              # %if.end123
	cmpl	$1807234084, -76(%rbp)  # imm = 0x6BB83424
	jne	.LBB38_47
.LBB38_46:
	addq	$96, %rsp
	popq	%rbp
	.cfi_def_cfa %rsp, 8
	retq
.LBB38_47:                              # %func_exit
	.cfi_def_cfa %rbp, 16
	callq	detect_breach
	jmp	.LBB38_46
.Lfunc_end38:
	.size	img2buf.28, .Lfunc_end38-img2buf.28
	.cfi_endproc
                                        # -- End function
	.globl	img2buf.29              # -- Begin function img2buf.29
	.p2align	4, 0x90
	.type	img2buf.29,@function
img2buf.29:                             # @img2buf.29
	.cfi_startproc
# %bb.0:                                # %entry
	pushq	%rbp
	.cfi_def_cfa_offset 16
	.cfi_offset %rbp, -16
	movq	%rsp, %rbp
	.cfi_def_cfa_register %rbp
	subq	$96, %rsp
	movl	32(%rbp), %eax
	movl	24(%rbp), %eax
	movl	16(%rbp), %eax
	movl	$230958005, -76(%rbp)   # imm = 0xDC423B5
	movq	%rdi, -72(%rbp)
	movq	%rsi, -56(%rbp)
	movl	%edx, -28(%rbp)
	movl	%ecx, -20(%rbp)
	movl	%r8d, -24(%rbp)
	movl	%r9d, -12(%rbp)
	movl	-28(%rbp), %eax
	subl	-12(%rbp), %eax
	subl	16(%rbp), %eax
	movl	%eax, -32(%rbp)
	movl	-20(%rbp), %eax
	subl	24(%rbp), %eax
	subl	32(%rbp), %eax
	movl	%eax, -80(%rbp)
	movl	$0, -40(%rbp)
	callq	testEndian
	cmpl	$0, %eax
	je	.LBB39_33
# %bb.1:                                # %if.then
	movl	-24(%rbp), %eax
	movl	%eax, %ecx
	subl	$1, %ecx
	je	.LBB39_4
	jmp	.LBB39_2
.LBB39_2:                               # %if.then
	movl	%eax, %ecx
	subl	$2, %ecx
	je	.LBB39_13
	jmp	.LBB39_3
.LBB39_3:                               # %if.then
	subl	$4, %eax
	je	.LBB39_22
	jmp	.LBB39_31
.LBB39_4:                               # %sw.bb
	movl	24(%rbp), %eax
	movl	%eax, -8(%rbp)
.LBB39_5:                               # %for.cond
                                        # =>This Loop Header: Depth=1
                                        #     Child Loop BB39_7 Depth 2
	movl	-8(%rbp), %eax
	movl	-20(%rbp), %ecx
	subl	32(%rbp), %ecx
	cmpl	%ecx, %eax
	jge	.LBB39_12
# %bb.6:                                # %for.body
                                        #   in Loop: Header=BB39_5 Depth=1
	movl	-12(%rbp), %eax
	movl	%eax, -4(%rbp)
.LBB39_7:                               # %for.cond5
                                        #   Parent Loop BB39_5 Depth=1
                                        # =>  This Inner Loop Header: Depth=2
	movl	-4(%rbp), %eax
	movl	-28(%rbp), %ecx
	subl	16(%rbp), %ecx
	cmpl	%ecx, %eax
	jge	.LBB39_10
# %bb.8:                                # %for.body8
                                        #   in Loop: Header=BB39_7 Depth=2
	movq	-72(%rbp), %rax
	movslq	-8(%rbp), %rcx
	movq	(%rax,%rcx,8), %rax
	movslq	-4(%rbp), %rcx
	movw	(%rax,%rcx,2), %ax
	movb	%al, -13(%rbp)
	movb	-13(%rbp), %al
	movq	-56(%rbp), %rcx
	movl	-4(%rbp), %edx
	subl	-12(%rbp), %edx
	movl	-8(%rbp), %esi
	subl	24(%rbp), %esi
	imull	-32(%rbp), %esi
	addl	%esi, %edx
	movslq	%edx, %rdx
	movb	%al, (%rcx,%rdx)
# %bb.9:                                # %for.inc
                                        #   in Loop: Header=BB39_7 Depth=2
	movl	-4(%rbp), %eax
	addl	$1, %eax
	movl	%eax, -4(%rbp)
	jmp	.LBB39_7
.LBB39_10:                              # %for.end
                                        #   in Loop: Header=BB39_5 Depth=1
	jmp	.LBB39_11
.LBB39_11:                              # %for.inc15
                                        #   in Loop: Header=BB39_5 Depth=1
	movl	-8(%rbp), %eax
	addl	$1, %eax
	movl	%eax, -8(%rbp)
	jmp	.LBB39_5
.LBB39_12:                              # %for.end17
	jmp	.LBB39_32
.LBB39_13:                              # %sw.bb18
	movl	24(%rbp), %eax
	movl	%eax, -8(%rbp)
.LBB39_14:                              # %for.cond19
                                        # =>This Loop Header: Depth=1
                                        #     Child Loop BB39_16 Depth 2
	movl	-8(%rbp), %eax
	movl	-20(%rbp), %ecx
	subl	32(%rbp), %ecx
	cmpl	%ecx, %eax
	jge	.LBB39_21
# %bb.15:                               # %for.body23
                                        #   in Loop: Header=BB39_14 Depth=1
	movl	-12(%rbp), %eax
	movl	%eax, -4(%rbp)
.LBB39_16:                              # %for.cond24
                                        #   Parent Loop BB39_14 Depth=1
                                        # =>  This Inner Loop Header: Depth=2
	movl	-4(%rbp), %eax
	movl	-28(%rbp), %ecx
	subl	16(%rbp), %ecx
	cmpl	%ecx, %eax
	jge	.LBB39_19
# %bb.17:                               # %for.body28
                                        #   in Loop: Header=BB39_16 Depth=2
	movq	-72(%rbp), %rax
	movslq	-8(%rbp), %rcx
	movq	(%rax,%rcx,8), %rax
	movslq	-4(%rbp), %rcx
	movw	(%rax,%rcx,2), %ax
	movw	%ax, -34(%rbp)
	movzwl	-34(%rbp), %eax
	sarl	$8, %eax
	movzwl	-34(%rbp), %ecx
	andl	$255, %ecx
	shll	$8, %ecx
	orl	%ecx, %eax
	movw	%ax, -42(%rbp)
	movq	-56(%rbp), %rax
	movl	-4(%rbp), %ecx
	subl	-12(%rbp), %ecx
	movl	-8(%rbp), %edx
	subl	24(%rbp), %edx
	imull	-32(%rbp), %edx
	addl	%edx, %ecx
	shll	$1, %ecx
	movslq	%ecx, %rcx
	movw	-42(%rbp), %dx
	movw	%dx, (%rax,%rcx)
# %bb.18:                               # %for.inc41
                                        #   in Loop: Header=BB39_16 Depth=2
	movl	-4(%rbp), %eax
	addl	$1, %eax
	movl	%eax, -4(%rbp)
	jmp	.LBB39_16
.LBB39_19:                              # %for.end43
                                        #   in Loop: Header=BB39_14 Depth=1
	jmp	.LBB39_20
.LBB39_20:                              # %for.inc44
                                        #   in Loop: Header=BB39_14 Depth=1
	movl	-8(%rbp), %eax
	addl	$1, %eax
	movl	%eax, -8(%rbp)
	jmp	.LBB39_14
.LBB39_21:                              # %for.end46
	jmp	.LBB39_32
.LBB39_22:                              # %sw.bb47
	movl	24(%rbp), %eax
	movl	%eax, -8(%rbp)
.LBB39_23:                              # %for.cond48
                                        # =>This Loop Header: Depth=1
                                        #     Child Loop BB39_25 Depth 2
	movl	-8(%rbp), %eax
	movl	-20(%rbp), %ecx
	subl	32(%rbp), %ecx
	cmpl	%ecx, %eax
	jge	.LBB39_30
# %bb.24:                               # %for.body52
                                        #   in Loop: Header=BB39_23 Depth=1
	movl	-12(%rbp), %eax
	movl	%eax, -4(%rbp)
.LBB39_25:                              # %for.cond53
                                        #   Parent Loop BB39_23 Depth=1
                                        # =>  This Inner Loop Header: Depth=2
	movl	-4(%rbp), %eax
	movl	-28(%rbp), %ecx
	subl	16(%rbp), %ecx
	cmpl	%ecx, %eax
	jge	.LBB39_28
# %bb.26:                               # %for.body57
                                        #   in Loop: Header=BB39_25 Depth=2
	movq	-72(%rbp), %rax
	movslq	-8(%rbp), %rcx
	movq	(%rax,%rcx,8), %rax
	movslq	-4(%rbp), %rcx
	movzwl	(%rax,%rcx,2), %eax
	movq	%rax, -64(%rbp)
	movq	-64(%rbp), %rax
	andq	$65280, %rax            # imm = 0xFF00
	shlq	$8, %rax
	movq	-64(%rbp), %rcx
	andq	$255, %rcx
	shlq	$24, %rcx
	orq	%rcx, %rax
	movq	-64(%rbp), %rcx
	andq	$16711680, %rcx         # imm = 0xFF0000
	shrq	$8, %rcx
	orq	%rcx, %rax
	movl	$4278190080, %ecx       # imm = 0xFF000000
	andq	-64(%rbp), %rcx
	shrq	$24, %rcx
	orq	%rcx, %rax
	movq	%rax, -88(%rbp)
	movq	-56(%rbp), %rax
	movl	-4(%rbp), %ecx
	subl	-12(%rbp), %ecx
	movl	-8(%rbp), %edx
	subl	24(%rbp), %edx
	imull	-32(%rbp), %edx
	addl	%edx, %ecx
	shll	$2, %ecx
	movslq	%ecx, %rcx
	movl	-88(%rbp), %edx
	movl	%edx, (%rax,%rcx)
# %bb.27:                               # %for.inc81
                                        #   in Loop: Header=BB39_25 Depth=2
	movl	-4(%rbp), %eax
	addl	$1, %eax
	movl	%eax, -4(%rbp)
	jmp	.LBB39_25
.LBB39_28:                              # %for.end83
                                        #   in Loop: Header=BB39_23 Depth=1
	jmp	.LBB39_29
.LBB39_29:                              # %for.inc84
                                        #   in Loop: Header=BB39_23 Depth=1
	movl	-8(%rbp), %eax
	addl	$1, %eax
	movl	%eax, -8(%rbp)
	jmp	.LBB39_23
.LBB39_30:                              # %for.end86
	jmp	.LBB39_32
.LBB39_31:                              # %sw.default
	movabsq	$.L.str, %rdi
	movl	$500, %esi              # imm = 0x1F4
	callq	error
.LBB39_32:                              # %sw.epilog
	jmp	.LBB39_45
.LBB39_33:                              # %if.else
	movslq	-24(%rbp), %rax
	movl	$2, %ecx
	cmpq	%rax, %rcx
	jae	.LBB39_35
# %bb.34:                               # %if.then90
	movl	$2, -40(%rbp)
	movq	-56(%rbp), %rdi
	movl	-32(%rbp), %eax
	imull	-80(%rbp), %eax
	imull	-24(%rbp), %eax
	movslq	%eax, %rdx
	xorl	%esi, %esi
	callq	memset
	jmp	.LBB39_36
.LBB39_35:                              # %if.else94
	movl	-24(%rbp), %eax
	movl	%eax, -40(%rbp)
.LBB39_36:                              # %if.end
	movl	24(%rbp), %eax
	movl	%eax, -8(%rbp)
.LBB39_37:                              # %for.cond95
                                        # =>This Loop Header: Depth=1
                                        #     Child Loop BB39_39 Depth 2
	movl	-8(%rbp), %eax
	movl	-20(%rbp), %ecx
	subl	32(%rbp), %ecx
	cmpl	%ecx, %eax
	jge	.LBB39_44
# %bb.38:                               # %for.body99
                                        #   in Loop: Header=BB39_37 Depth=1
	movl	-12(%rbp), %eax
	movl	%eax, -4(%rbp)
.LBB39_39:                              # %for.cond100
                                        #   Parent Loop BB39_37 Depth=1
                                        # =>  This Inner Loop Header: Depth=2
	movl	-4(%rbp), %eax
	movl	-28(%rbp), %ecx
	subl	16(%rbp), %ecx
	cmpl	%ecx, %eax
	jge	.LBB39_42
# %bb.40:                               # %for.body104
                                        #   in Loop: Header=BB39_39 Depth=2
	movq	-56(%rbp), %rdi
	movl	-4(%rbp), %eax
	subl	-12(%rbp), %eax
	movl	-8(%rbp), %ecx
	subl	24(%rbp), %ecx
	imull	-32(%rbp), %ecx
	addl	%ecx, %eax
	imull	-24(%rbp), %eax
	cltq
	addq	%rax, %rdi
	movq	-72(%rbp), %rax
	movslq	-8(%rbp), %rcx
	movq	(%rax,%rcx,8), %rsi
	movslq	-4(%rbp), %rax
	shlq	$1, %rax
	addq	%rax, %rsi
	movslq	-40(%rbp), %rdx
	callq	memcpy
# %bb.41:                               # %for.inc117
                                        #   in Loop: Header=BB39_39 Depth=2
	movl	-4(%rbp), %eax
	addl	$1, %eax
	movl	%eax, -4(%rbp)
	jmp	.LBB39_39
.LBB39_42:                              # %for.end119
                                        #   in Loop: Header=BB39_37 Depth=1
	jmp	.LBB39_43
.LBB39_43:                              # %for.inc120
                                        #   in Loop: Header=BB39_37 Depth=1
	movl	-8(%rbp), %eax
	addl	$1, %eax
	movl	%eax, -8(%rbp)
	jmp	.LBB39_37
.LBB39_44:                              # %for.end122
	jmp	.LBB39_45
.LBB39_45:                              # %if.end123
	cmpl	$230958005, -76(%rbp)   # imm = 0xDC423B5
	jne	.LBB39_47
.LBB39_46:
	addq	$96, %rsp
	popq	%rbp
	.cfi_def_cfa %rsp, 8
	retq
.LBB39_47:                              # %func_exit
	.cfi_def_cfa %rbp, 16
	callq	detect_breach
	jmp	.LBB39_46
.Lfunc_end39:
	.size	img2buf.29, .Lfunc_end39-img2buf.29
	.cfi_endproc
                                        # -- End function
	.globl	img2buf.30              # -- Begin function img2buf.30
	.p2align	4, 0x90
	.type	img2buf.30,@function
img2buf.30:                             # @img2buf.30
	.cfi_startproc
# %bb.0:                                # %entry
	pushq	%rbp
	.cfi_def_cfa_offset 16
	.cfi_offset %rbp, -16
	movq	%rsp, %rbp
	.cfi_def_cfa_register %rbp
	subq	$96, %rsp
	movl	32(%rbp), %eax
	movl	24(%rbp), %eax
	movl	16(%rbp), %eax
	movl	$274913826, -80(%rbp)   # imm = 0x1062DA22
	movq	%rdi, -72(%rbp)
	movq	%rsi, -56(%rbp)
	movl	%edx, -32(%rbp)
	movl	%ecx, -24(%rbp)
	movl	%r8d, -20(%rbp)
	movl	%r9d, -12(%rbp)
	movl	-32(%rbp), %eax
	subl	-12(%rbp), %eax
	subl	16(%rbp), %eax
	movl	%eax, -28(%rbp)
	movl	-24(%rbp), %eax
	subl	24(%rbp), %eax
	subl	32(%rbp), %eax
	movl	%eax, -76(%rbp)
	movl	$0, -40(%rbp)
	callq	testEndian
	cmpl	$0, %eax
	je	.LBB40_33
# %bb.1:                                # %if.then
	movl	-20(%rbp), %eax
	movl	%eax, %ecx
	subl	$1, %ecx
	je	.LBB40_4
	jmp	.LBB40_2
.LBB40_2:                               # %if.then
	movl	%eax, %ecx
	subl	$2, %ecx
	je	.LBB40_13
	jmp	.LBB40_3
.LBB40_3:                               # %if.then
	subl	$4, %eax
	je	.LBB40_22
	jmp	.LBB40_31
.LBB40_4:                               # %sw.bb
	movl	24(%rbp), %eax
	movl	%eax, -4(%rbp)
.LBB40_5:                               # %for.cond
                                        # =>This Loop Header: Depth=1
                                        #     Child Loop BB40_7 Depth 2
	movl	-4(%rbp), %eax
	movl	-24(%rbp), %ecx
	subl	32(%rbp), %ecx
	cmpl	%ecx, %eax
	jge	.LBB40_12
# %bb.6:                                # %for.body
                                        #   in Loop: Header=BB40_5 Depth=1
	movl	-12(%rbp), %eax
	movl	%eax, -8(%rbp)
.LBB40_7:                               # %for.cond5
                                        #   Parent Loop BB40_5 Depth=1
                                        # =>  This Inner Loop Header: Depth=2
	movl	-8(%rbp), %eax
	movl	-32(%rbp), %ecx
	subl	16(%rbp), %ecx
	cmpl	%ecx, %eax
	jge	.LBB40_10
# %bb.8:                                # %for.body8
                                        #   in Loop: Header=BB40_7 Depth=2
	movq	-72(%rbp), %rax
	movslq	-4(%rbp), %rcx
	movq	(%rax,%rcx,8), %rax
	movslq	-8(%rbp), %rcx
	movw	(%rax,%rcx,2), %ax
	movb	%al, -13(%rbp)
	movb	-13(%rbp), %al
	movq	-56(%rbp), %rcx
	movl	-8(%rbp), %edx
	subl	-12(%rbp), %edx
	movl	-4(%rbp), %esi
	subl	24(%rbp), %esi
	imull	-28(%rbp), %esi
	addl	%esi, %edx
	movslq	%edx, %rdx
	movb	%al, (%rcx,%rdx)
# %bb.9:                                # %for.inc
                                        #   in Loop: Header=BB40_7 Depth=2
	movl	-8(%rbp), %eax
	addl	$1, %eax
	movl	%eax, -8(%rbp)
	jmp	.LBB40_7
.LBB40_10:                              # %for.end
                                        #   in Loop: Header=BB40_5 Depth=1
	jmp	.LBB40_11
.LBB40_11:                              # %for.inc15
                                        #   in Loop: Header=BB40_5 Depth=1
	movl	-4(%rbp), %eax
	addl	$1, %eax
	movl	%eax, -4(%rbp)
	jmp	.LBB40_5
.LBB40_12:                              # %for.end17
	jmp	.LBB40_32
.LBB40_13:                              # %sw.bb18
	movl	24(%rbp), %eax
	movl	%eax, -4(%rbp)
.LBB40_14:                              # %for.cond19
                                        # =>This Loop Header: Depth=1
                                        #     Child Loop BB40_16 Depth 2
	movl	-4(%rbp), %eax
	movl	-24(%rbp), %ecx
	subl	32(%rbp), %ecx
	cmpl	%ecx, %eax
	jge	.LBB40_21
# %bb.15:                               # %for.body23
                                        #   in Loop: Header=BB40_14 Depth=1
	movl	-12(%rbp), %eax
	movl	%eax, -8(%rbp)
.LBB40_16:                              # %for.cond24
                                        #   Parent Loop BB40_14 Depth=1
                                        # =>  This Inner Loop Header: Depth=2
	movl	-8(%rbp), %eax
	movl	-32(%rbp), %ecx
	subl	16(%rbp), %ecx
	cmpl	%ecx, %eax
	jge	.LBB40_19
# %bb.17:                               # %for.body28
                                        #   in Loop: Header=BB40_16 Depth=2
	movq	-72(%rbp), %rax
	movslq	-4(%rbp), %rcx
	movq	(%rax,%rcx,8), %rax
	movslq	-8(%rbp), %rcx
	movw	(%rax,%rcx,2), %ax
	movw	%ax, -34(%rbp)
	movzwl	-34(%rbp), %eax
	sarl	$8, %eax
	movzwl	-34(%rbp), %ecx
	andl	$255, %ecx
	shll	$8, %ecx
	orl	%ecx, %eax
	movw	%ax, -42(%rbp)
	movq	-56(%rbp), %rax
	movl	-8(%rbp), %ecx
	subl	-12(%rbp), %ecx
	movl	-4(%rbp), %edx
	subl	24(%rbp), %edx
	imull	-28(%rbp), %edx
	addl	%edx, %ecx
	shll	$1, %ecx
	movslq	%ecx, %rcx
	movw	-42(%rbp), %dx
	movw	%dx, (%rax,%rcx)
# %bb.18:                               # %for.inc41
                                        #   in Loop: Header=BB40_16 Depth=2
	movl	-8(%rbp), %eax
	addl	$1, %eax
	movl	%eax, -8(%rbp)
	jmp	.LBB40_16
.LBB40_19:                              # %for.end43
                                        #   in Loop: Header=BB40_14 Depth=1
	jmp	.LBB40_20
.LBB40_20:                              # %for.inc44
                                        #   in Loop: Header=BB40_14 Depth=1
	movl	-4(%rbp), %eax
	addl	$1, %eax
	movl	%eax, -4(%rbp)
	jmp	.LBB40_14
.LBB40_21:                              # %for.end46
	jmp	.LBB40_32
.LBB40_22:                              # %sw.bb47
	movl	24(%rbp), %eax
	movl	%eax, -4(%rbp)
.LBB40_23:                              # %for.cond48
                                        # =>This Loop Header: Depth=1
                                        #     Child Loop BB40_25 Depth 2
	movl	-4(%rbp), %eax
	movl	-24(%rbp), %ecx
	subl	32(%rbp), %ecx
	cmpl	%ecx, %eax
	jge	.LBB40_30
# %bb.24:                               # %for.body52
                                        #   in Loop: Header=BB40_23 Depth=1
	movl	-12(%rbp), %eax
	movl	%eax, -8(%rbp)
.LBB40_25:                              # %for.cond53
                                        #   Parent Loop BB40_23 Depth=1
                                        # =>  This Inner Loop Header: Depth=2
	movl	-8(%rbp), %eax
	movl	-32(%rbp), %ecx
	subl	16(%rbp), %ecx
	cmpl	%ecx, %eax
	jge	.LBB40_28
# %bb.26:                               # %for.body57
                                        #   in Loop: Header=BB40_25 Depth=2
	movq	-72(%rbp), %rax
	movslq	-4(%rbp), %rcx
	movq	(%rax,%rcx,8), %rax
	movslq	-8(%rbp), %rcx
	movzwl	(%rax,%rcx,2), %eax
	movq	%rax, -64(%rbp)
	movq	-64(%rbp), %rax
	andq	$65280, %rax            # imm = 0xFF00
	shlq	$8, %rax
	movq	-64(%rbp), %rcx
	andq	$255, %rcx
	shlq	$24, %rcx
	orq	%rcx, %rax
	movq	-64(%rbp), %rcx
	andq	$16711680, %rcx         # imm = 0xFF0000
	shrq	$8, %rcx
	orq	%rcx, %rax
	movl	$4278190080, %ecx       # imm = 0xFF000000
	andq	-64(%rbp), %rcx
	shrq	$24, %rcx
	orq	%rcx, %rax
	movq	%rax, -88(%rbp)
	movq	-56(%rbp), %rax
	movl	-8(%rbp), %ecx
	subl	-12(%rbp), %ecx
	movl	-4(%rbp), %edx
	subl	24(%rbp), %edx
	imull	-28(%rbp), %edx
	addl	%edx, %ecx
	shll	$2, %ecx
	movslq	%ecx, %rcx
	movl	-88(%rbp), %edx
	movl	%edx, (%rax,%rcx)
# %bb.27:                               # %for.inc81
                                        #   in Loop: Header=BB40_25 Depth=2
	movl	-8(%rbp), %eax
	addl	$1, %eax
	movl	%eax, -8(%rbp)
	jmp	.LBB40_25
.LBB40_28:                              # %for.end83
                                        #   in Loop: Header=BB40_23 Depth=1
	jmp	.LBB40_29
.LBB40_29:                              # %for.inc84
                                        #   in Loop: Header=BB40_23 Depth=1
	movl	-4(%rbp), %eax
	addl	$1, %eax
	movl	%eax, -4(%rbp)
	jmp	.LBB40_23
.LBB40_30:                              # %for.end86
	jmp	.LBB40_32
.LBB40_31:                              # %sw.default
	movabsq	$.L.str, %rdi
	movl	$500, %esi              # imm = 0x1F4
	callq	error
.LBB40_32:                              # %sw.epilog
	jmp	.LBB40_45
.LBB40_33:                              # %if.else
	movslq	-20(%rbp), %rax
	movl	$2, %ecx
	cmpq	%rax, %rcx
	jae	.LBB40_35
# %bb.34:                               # %if.then90
	movl	$2, -40(%rbp)
	movq	-56(%rbp), %rdi
	movl	-28(%rbp), %eax
	imull	-76(%rbp), %eax
	imull	-20(%rbp), %eax
	movslq	%eax, %rdx
	xorl	%esi, %esi
	callq	memset
	jmp	.LBB40_36
.LBB40_35:                              # %if.else94
	movl	-20(%rbp), %eax
	movl	%eax, -40(%rbp)
.LBB40_36:                              # %if.end
	movl	24(%rbp), %eax
	movl	%eax, -4(%rbp)
.LBB40_37:                              # %for.cond95
                                        # =>This Loop Header: Depth=1
                                        #     Child Loop BB40_39 Depth 2
	movl	-4(%rbp), %eax
	movl	-24(%rbp), %ecx
	subl	32(%rbp), %ecx
	cmpl	%ecx, %eax
	jge	.LBB40_44
# %bb.38:                               # %for.body99
                                        #   in Loop: Header=BB40_37 Depth=1
	movl	-12(%rbp), %eax
	movl	%eax, -8(%rbp)
.LBB40_39:                              # %for.cond100
                                        #   Parent Loop BB40_37 Depth=1
                                        # =>  This Inner Loop Header: Depth=2
	movl	-8(%rbp), %eax
	movl	-32(%rbp), %ecx
	subl	16(%rbp), %ecx
	cmpl	%ecx, %eax
	jge	.LBB40_42
# %bb.40:                               # %for.body104
                                        #   in Loop: Header=BB40_39 Depth=2
	movq	-56(%rbp), %rdi
	movl	-8(%rbp), %eax
	subl	-12(%rbp), %eax
	movl	-4(%rbp), %ecx
	subl	24(%rbp), %ecx
	imull	-28(%rbp), %ecx
	addl	%ecx, %eax
	imull	-20(%rbp), %eax
	cltq
	addq	%rax, %rdi
	movq	-72(%rbp), %rax
	movslq	-4(%rbp), %rcx
	movq	(%rax,%rcx,8), %rsi
	movslq	-8(%rbp), %rax
	shlq	$1, %rax
	addq	%rax, %rsi
	movslq	-40(%rbp), %rdx
	callq	memcpy
# %bb.41:                               # %for.inc117
                                        #   in Loop: Header=BB40_39 Depth=2
	movl	-8(%rbp), %eax
	addl	$1, %eax
	movl	%eax, -8(%rbp)
	jmp	.LBB40_39
.LBB40_42:                              # %for.end119
                                        #   in Loop: Header=BB40_37 Depth=1
	jmp	.LBB40_43
.LBB40_43:                              # %for.inc120
                                        #   in Loop: Header=BB40_37 Depth=1
	movl	-4(%rbp), %eax
	addl	$1, %eax
	movl	%eax, -4(%rbp)
	jmp	.LBB40_37
.LBB40_44:                              # %for.end122
	jmp	.LBB40_45
.LBB40_45:                              # %if.end123
	cmpl	$274913826, -80(%rbp)   # imm = 0x1062DA22
	jne	.LBB40_47
.LBB40_46:
	addq	$96, %rsp
	popq	%rbp
	.cfi_def_cfa %rsp, 8
	retq
.LBB40_47:                              # %func_exit
	.cfi_def_cfa %rbp, 16
	callq	detect_breach
	jmp	.LBB40_46
.Lfunc_end40:
	.size	img2buf.30, .Lfunc_end40-img2buf.30
	.cfi_endproc
                                        # -- End function
	.globl	write_out_picture.31    # -- Begin function write_out_picture.31
	.p2align	4, 0x90
	.type	write_out_picture.31,@function
write_out_picture.31:                   # @write_out_picture.31
	.cfi_startproc
# %bb.0:                                # %entry
	pushq	%rbp
	.cfi_def_cfa_offset 16
	.cfi_offset %rbp, -16
	movq	%rsp, %rbp
	.cfi_def_cfa_register %rbp
	subq	$128, %rsp
	xorl	%ecx, %ecx
	movl	$61101690, -52(%rbp)    # imm = 0x3A4567A
	movq	%rdi, -8(%rbp)
	movl	%esi, -44(%rbp)
	movq	.L__const.write_out_picture.SubWidthC, %rax
	movq	%rax, -80(%rbp)
	movq	.L__const.write_out_picture.SubWidthC+8, %rax
	movq	%rax, -72(%rbp)
	movq	.L__const.write_out_picture.SubHeightC, %rax
	movq	%rax, -96(%rbp)
	movq	.L__const.write_out_picture.SubHeightC+8, %rax
	movq	%rax, -88(%rbp)
	movq	img, %rax
	movl	72656(%rax), %eax
	cltd
	movl	$8, %esi
	idivl	%esi
	movl	%eax, -28(%rbp)
	movq	input, %rax
	cmpl	$0, 3312(%rax)
	je	.LBB41_2
# %bb.1:                                # %land.rhs
	movq	input, %rax
	cmpl	$3, 72(%rax)
	sete	%cl
.LBB41_2:                               # %land.end
	andb	$1, %cl
	movzbl	%cl, %eax
	movl	%eax, -48(%rbp)
	movq	-8(%rbp), %rax
	cmpl	$0, 6388(%rax)
	je	.LBB41_4
# %bb.3:                                # %if.then
	jmp	.LBB41_19
.LBB41_4:                               # %if.end
	movq	-8(%rbp), %rax
	cmpl	$0, 6560(%rax)
	je	.LBB41_6
# %bb.5:                                # %if.then3
	movq	-8(%rbp), %rax
	movslq	6552(%rax), %rax
	movl	-80(%rbp,%rax,4), %eax
	movq	-8(%rbp), %rcx
	imull	6564(%rcx), %eax
	movl	%eax, -12(%rbp)
	movq	-8(%rbp), %rax
	movslq	6552(%rax), %rax
	movl	-80(%rbp,%rax,4), %eax
	movq	-8(%rbp), %rcx
	imull	6568(%rcx), %eax
	movl	%eax, -24(%rbp)
	movq	-8(%rbp), %rax
	movslq	6552(%rax), %rax
	movl	-96(%rbp,%rax,4), %eax
	movq	-8(%rbp), %rcx
	movl	$2, %edx
	movl	$2, %esi
	subl	6556(%rcx), %esi
	imull	%esi, %eax
	movq	-8(%rbp), %rcx
	imull	6572(%rcx), %eax
	movl	%eax, -16(%rbp)
	movq	-8(%rbp), %rax
	movslq	6552(%rax), %rax
	movl	-96(%rbp,%rax,4), %eax
	movq	-8(%rbp), %rcx
	subl	6556(%rcx), %edx
	imull	%edx, %eax
	movq	-8(%rbp), %rcx
	imull	6576(%rcx), %eax
	movl	%eax, -20(%rbp)
	jmp	.LBB41_7
.LBB41_6:                               # %if.else
	movl	$0, -20(%rbp)
	movl	$0, -16(%rbp)
	movl	$0, -24(%rbp)
	movl	$0, -12(%rbp)
.LBB41_7:                               # %if.end20
	movq	-8(%rbp), %rax
	movl	6392(%rax), %eax
	movq	-8(%rbp), %rcx
	imull	6396(%rcx), %eax
	imull	-28(%rbp), %eax
	movslq	%eax, %rdi
	callq	malloc
	xorl	%ecx, %ecx
	movq	%rax, -40(%rbp)
	cmpq	%rax, %rcx
	jne	.LBB41_9
# %bb.8:                                # %if.then25
	movabsq	$.L.str.1, %rdi
	callq	no_mem_exit
.LBB41_9:                               # %if.end26
	cmpl	$0, -48(%rbp)
	je	.LBB41_14
# %bb.10:                               # %if.then28
	movq	-8(%rbp), %rax
	movl	6564(%rax), %eax
	movl	%eax, -12(%rbp)
	movq	-8(%rbp), %rax
	movl	6568(%rax), %eax
	movl	%eax, -24(%rbp)
	movq	-8(%rbp), %rax
	movl	$2, %ecx
	movl	$2, %edx
	subl	6556(%rax), %edx
	movq	-8(%rbp), %rax
	imull	6572(%rax), %edx
	movl	%edx, -16(%rbp)
	movq	-8(%rbp), %rax
	subl	6556(%rax), %ecx
	movq	-8(%rbp), %rax
	imull	6576(%rax), %ecx
	movl	%ecx, -20(%rbp)
	movq	-8(%rbp), %rax
	movq	6464(%rax), %rax
	movq	8(%rax), %rdi
	movq	-40(%rbp), %rsi
	movq	-8(%rbp), %rax
	movl	6400(%rax), %edx
	movq	-8(%rbp), %rax
	movl	6404(%rax), %ecx
	movl	-28(%rbp), %r8d
	movl	-12(%rbp), %r9d
	movl	-24(%rbp), %eax
	movl	-16(%rbp), %r10d
	movl	-20(%rbp), %r11d
	movl	%eax, (%rsp)
	movl	%r10d, 8(%rsp)
	movl	%r11d, 16(%rsp)
	callq	img2buf
	movl	-44(%rbp), %edi
	movq	-40(%rbp), %rsi
	movq	-8(%rbp), %rax
	movl	6404(%rax), %eax
	subl	-20(%rbp), %eax
	subl	-16(%rbp), %eax
	movq	-8(%rbp), %rcx
	movl	6400(%rcx), %ecx
	subl	-24(%rbp), %ecx
	subl	-12(%rbp), %ecx
	imull	%ecx, %eax
	imull	-28(%rbp), %eax
	movslq	%eax, %rdx
	callq	write
	movq	active_sps, %rax
	cmpl	$0, 1160(%rax)
	je	.LBB41_12
# %bb.11:                               # %if.then52
	movq	-8(%rbp), %rax
	movslq	6552(%rax), %rax
	movl	-80(%rbp,%rax,4), %eax
	movq	-8(%rbp), %rcx
	imull	6564(%rcx), %eax
	movl	%eax, -12(%rbp)
	movq	-8(%rbp), %rax
	movslq	6552(%rax), %rax
	movl	-80(%rbp,%rax,4), %eax
	movq	-8(%rbp), %rcx
	imull	6568(%rcx), %eax
	movl	%eax, -24(%rbp)
	movq	-8(%rbp), %rax
	movslq	6552(%rax), %rax
	movl	-96(%rbp,%rax,4), %eax
	movq	-8(%rbp), %rcx
	movl	$2, %edx
	movl	$2, %esi
	subl	6556(%rcx), %esi
	imull	%esi, %eax
	movq	-8(%rbp), %rcx
	imull	6572(%rcx), %eax
	movl	%eax, -16(%rbp)
	movq	-8(%rbp), %rax
	movslq	6552(%rax), %rax
	movl	-96(%rbp,%rax,4), %eax
	movq	-8(%rbp), %rcx
	subl	6556(%rcx), %edx
	imull	%edx, %eax
	movq	-8(%rbp), %rcx
	imull	6576(%rcx), %eax
	movl	%eax, -20(%rbp)
	jmp	.LBB41_13
.LBB41_12:                              # %if.else79
	movl	$0, -20(%rbp)
	movl	$0, -16(%rbp)
	movl	$0, -24(%rbp)
	movl	$0, -12(%rbp)
.LBB41_13:                              # %if.end80
	jmp	.LBB41_14
.LBB41_14:                              # %if.end81
	movq	-8(%rbp), %rax
	movq	6424(%rax), %rdi
	movq	-40(%rbp), %rsi
	movq	-8(%rbp), %rax
	movl	6392(%rax), %edx
	movq	-8(%rbp), %rax
	movl	6396(%rax), %ecx
	movl	-28(%rbp), %r8d
	movl	-12(%rbp), %r9d
	movl	-24(%rbp), %eax
	movl	-16(%rbp), %r10d
	movl	-20(%rbp), %r11d
	movl	%eax, (%rsp)
	movl	%r10d, 8(%rsp)
	movl	%r11d, 16(%rsp)
	callq	img2buf
	movl	-44(%rbp), %edi
	movq	-40(%rbp), %rsi
	movq	-8(%rbp), %rax
	movl	6396(%rax), %eax
	subl	-20(%rbp), %eax
	subl	-16(%rbp), %eax
	movq	-8(%rbp), %rcx
	movl	6392(%rcx), %ecx
	subl	-24(%rbp), %ecx
	subl	-12(%rbp), %ecx
	imull	%ecx, %eax
	imull	-28(%rbp), %eax
	movslq	%eax, %rdx
	callq	write
	movq	-8(%rbp), %rax
	cmpl	$0, 6552(%rax)
	je	.LBB41_18
# %bb.15:                               # %if.then97
	movq	-8(%rbp), %rax
	movl	6564(%rax), %eax
	movl	%eax, -12(%rbp)
	movq	-8(%rbp), %rax
	movl	6568(%rax), %eax
	movl	%eax, -24(%rbp)
	movq	-8(%rbp), %rax
	movl	$2, %ecx
	movl	$2, %edx
	subl	6556(%rax), %edx
	movq	-8(%rbp), %rax
	imull	6572(%rax), %edx
	movl	%edx, -16(%rbp)
	movq	-8(%rbp), %rax
	subl	6556(%rax), %ecx
	movq	-8(%rbp), %rax
	imull	6576(%rax), %ecx
	movl	%ecx, -20(%rbp)
	movq	-8(%rbp), %rax
	movq	6464(%rax), %rax
	movq	(%rax), %rdi
	movq	-40(%rbp), %rsi
	movq	-8(%rbp), %rax
	movl	6400(%rax), %edx
	movq	-8(%rbp), %rax
	movl	6404(%rax), %ecx
	movl	-28(%rbp), %r8d
	movl	-12(%rbp), %r9d
	movl	-24(%rbp), %eax
	movl	-16(%rbp), %r10d
	movl	-20(%rbp), %r11d
	movl	%eax, (%rsp)
	movl	%r10d, 8(%rsp)
	movl	%r11d, 16(%rsp)
	callq	img2buf
	movl	-44(%rbp), %edi
	movq	-40(%rbp), %rsi
	movq	-8(%rbp), %rax
	movl	6404(%rax), %eax
	subl	-20(%rbp), %eax
	subl	-16(%rbp), %eax
	movq	-8(%rbp), %rcx
	movl	6400(%rcx), %ecx
	subl	-24(%rbp), %ecx
	subl	-12(%rbp), %ecx
	imull	%ecx, %eax
	imull	-28(%rbp), %eax
	movslq	%eax, %rdx
	callq	write
	cmpl	$0, -48(%rbp)
	jne	.LBB41_17
# %bb.16:                               # %if.then123
	movq	-8(%rbp), %rax
	movq	6464(%rax), %rax
	movq	8(%rax), %rdi
	movq	-40(%rbp), %rsi
	movq	-8(%rbp), %rax
	movl	6400(%rax), %edx
	movq	-8(%rbp), %rax
	movl	6404(%rax), %ecx
	movl	-28(%rbp), %r8d
	movl	-12(%rbp), %r9d
	movl	-24(%rbp), %eax
	movl	-16(%rbp), %r10d
	movl	-20(%rbp), %r11d
	movl	%eax, (%rsp)
	movl	%r10d, 8(%rsp)
	movl	%r11d, 16(%rsp)
	callq	img2buf
	movl	-44(%rbp), %edi
	movq	-40(%rbp), %rsi
	movq	-8(%rbp), %rax
	movl	6404(%rax), %eax
	subl	-20(%rbp), %eax
	subl	-16(%rbp), %eax
	movq	-8(%rbp), %rcx
	movl	6400(%rcx), %ecx
	subl	-24(%rbp), %ecx
	subl	-12(%rbp), %ecx
	imull	%ecx, %eax
	imull	-28(%rbp), %eax
	movslq	%eax, %rdx
	callq	write
.LBB41_17:                              # %if.end138
	jmp	.LBB41_18
.LBB41_18:                              # %if.end139
	movq	-40(%rbp), %rdi
	callq	free
.LBB41_19:                              # %return
	cmpl	$61101690, -52(%rbp)    # imm = 0x3A4567A
	jne	.LBB41_21
.LBB41_20:
	addq	$128, %rsp
	popq	%rbp
	.cfi_def_cfa %rsp, 8
	retq
.LBB41_21:                              # %func_exit
	.cfi_def_cfa %rbp, 16
	callq	detect_breach
	jmp	.LBB41_20
.Lfunc_end41:
	.size	write_out_picture.31, .Lfunc_end41-write_out_picture.31
	.cfi_endproc
                                        # -- End function
	.globl	write_out_picture.32    # -- Begin function write_out_picture.32
	.p2align	4, 0x90
	.type	write_out_picture.32,@function
write_out_picture.32:                   # @write_out_picture.32
	.cfi_startproc
# %bb.0:                                # %entry
	pushq	%rbp
	.cfi_def_cfa_offset 16
	.cfi_offset %rbp, -16
	movq	%rsp, %rbp
	.cfi_def_cfa_register %rbp
	subq	$128, %rsp
	xorl	%ecx, %ecx
	movl	$907153842, -52(%rbp)   # imm = 0x361211B2
	movq	%rdi, -8(%rbp)
	movl	%esi, -44(%rbp)
	movq	.L__const.write_out_picture.SubWidthC, %rax
	movq	%rax, -96(%rbp)
	movq	.L__const.write_out_picture.SubWidthC+8, %rax
	movq	%rax, -88(%rbp)
	movq	.L__const.write_out_picture.SubHeightC, %rax
	movq	%rax, -80(%rbp)
	movq	.L__const.write_out_picture.SubHeightC+8, %rax
	movq	%rax, -72(%rbp)
	movq	img, %rax
	movl	72656(%rax), %eax
	cltd
	movl	$8, %esi
	idivl	%esi
	movl	%eax, -28(%rbp)
	movq	input, %rax
	cmpl	$0, 3312(%rax)
	je	.LBB42_2
# %bb.1:                                # %land.rhs
	movq	input, %rax
	cmpl	$3, 72(%rax)
	sete	%cl
.LBB42_2:                               # %land.end
	andb	$1, %cl
	movzbl	%cl, %eax
	movl	%eax, -48(%rbp)
	movq	-8(%rbp), %rax
	cmpl	$0, 6388(%rax)
	je	.LBB42_4
# %bb.3:                                # %if.then
	jmp	.LBB42_19
.LBB42_4:                               # %if.end
	movq	-8(%rbp), %rax
	cmpl	$0, 6560(%rax)
	je	.LBB42_6
# %bb.5:                                # %if.then3
	movq	-8(%rbp), %rax
	movslq	6552(%rax), %rax
	movl	-96(%rbp,%rax,4), %eax
	movq	-8(%rbp), %rcx
	imull	6564(%rcx), %eax
	movl	%eax, -12(%rbp)
	movq	-8(%rbp), %rax
	movslq	6552(%rax), %rax
	movl	-96(%rbp,%rax,4), %eax
	movq	-8(%rbp), %rcx
	imull	6568(%rcx), %eax
	movl	%eax, -24(%rbp)
	movq	-8(%rbp), %rax
	movslq	6552(%rax), %rax
	movl	-80(%rbp,%rax,4), %eax
	movq	-8(%rbp), %rcx
	movl	$2, %edx
	movl	$2, %esi
	subl	6556(%rcx), %esi
	imull	%esi, %eax
	movq	-8(%rbp), %rcx
	imull	6572(%rcx), %eax
	movl	%eax, -20(%rbp)
	movq	-8(%rbp), %rax
	movslq	6552(%rax), %rax
	movl	-80(%rbp,%rax,4), %eax
	movq	-8(%rbp), %rcx
	subl	6556(%rcx), %edx
	imull	%edx, %eax
	movq	-8(%rbp), %rcx
	imull	6576(%rcx), %eax
	movl	%eax, -16(%rbp)
	jmp	.LBB42_7
.LBB42_6:                               # %if.else
	movl	$0, -16(%rbp)
	movl	$0, -20(%rbp)
	movl	$0, -24(%rbp)
	movl	$0, -12(%rbp)
.LBB42_7:                               # %if.end20
	movq	-8(%rbp), %rax
	movl	6392(%rax), %eax
	movq	-8(%rbp), %rcx
	imull	6396(%rcx), %eax
	imull	-28(%rbp), %eax
	movslq	%eax, %rdi
	callq	malloc
	xorl	%ecx, %ecx
	movq	%rax, -40(%rbp)
	cmpq	%rax, %rcx
	jne	.LBB42_9
# %bb.8:                                # %if.then25
	movabsq	$.L.str.1, %rdi
	callq	no_mem_exit
.LBB42_9:                               # %if.end26
	cmpl	$0, -48(%rbp)
	je	.LBB42_14
# %bb.10:                               # %if.then28
	movq	-8(%rbp), %rax
	movl	6564(%rax), %eax
	movl	%eax, -12(%rbp)
	movq	-8(%rbp), %rax
	movl	6568(%rax), %eax
	movl	%eax, -24(%rbp)
	movq	-8(%rbp), %rax
	movl	$2, %ecx
	movl	$2, %edx
	subl	6556(%rax), %edx
	movq	-8(%rbp), %rax
	imull	6572(%rax), %edx
	movl	%edx, -20(%rbp)
	movq	-8(%rbp), %rax
	subl	6556(%rax), %ecx
	movq	-8(%rbp), %rax
	imull	6576(%rax), %ecx
	movl	%ecx, -16(%rbp)
	movq	-8(%rbp), %rax
	movq	6464(%rax), %rax
	movq	8(%rax), %rdi
	movq	-40(%rbp), %rsi
	movq	-8(%rbp), %rax
	movl	6400(%rax), %edx
	movq	-8(%rbp), %rax
	movl	6404(%rax), %ecx
	movl	-28(%rbp), %r8d
	movl	-12(%rbp), %r9d
	movl	-24(%rbp), %eax
	movl	-20(%rbp), %r10d
	movl	-16(%rbp), %r11d
	movl	%eax, (%rsp)
	movl	%r10d, 8(%rsp)
	movl	%r11d, 16(%rsp)
	callq	img2buf
	movl	-44(%rbp), %edi
	movq	-40(%rbp), %rsi
	movq	-8(%rbp), %rax
	movl	6404(%rax), %eax
	subl	-16(%rbp), %eax
	subl	-20(%rbp), %eax
	movq	-8(%rbp), %rcx
	movl	6400(%rcx), %ecx
	subl	-24(%rbp), %ecx
	subl	-12(%rbp), %ecx
	imull	%ecx, %eax
	imull	-28(%rbp), %eax
	movslq	%eax, %rdx
	callq	write
	movq	active_sps, %rax
	cmpl	$0, 1160(%rax)
	je	.LBB42_12
# %bb.11:                               # %if.then52
	movq	-8(%rbp), %rax
	movslq	6552(%rax), %rax
	movl	-96(%rbp,%rax,4), %eax
	movq	-8(%rbp), %rcx
	imull	6564(%rcx), %eax
	movl	%eax, -12(%rbp)
	movq	-8(%rbp), %rax
	movslq	6552(%rax), %rax
	movl	-96(%rbp,%rax,4), %eax
	movq	-8(%rbp), %rcx
	imull	6568(%rcx), %eax
	movl	%eax, -24(%rbp)
	movq	-8(%rbp), %rax
	movslq	6552(%rax), %rax
	movl	-80(%rbp,%rax,4), %eax
	movq	-8(%rbp), %rcx
	movl	$2, %edx
	movl	$2, %esi
	subl	6556(%rcx), %esi
	imull	%esi, %eax
	movq	-8(%rbp), %rcx
	imull	6572(%rcx), %eax
	movl	%eax, -20(%rbp)
	movq	-8(%rbp), %rax
	movslq	6552(%rax), %rax
	movl	-80(%rbp,%rax,4), %eax
	movq	-8(%rbp), %rcx
	subl	6556(%rcx), %edx
	imull	%edx, %eax
	movq	-8(%rbp), %rcx
	imull	6576(%rcx), %eax
	movl	%eax, -16(%rbp)
	jmp	.LBB42_13
.LBB42_12:                              # %if.else79
	movl	$0, -16(%rbp)
	movl	$0, -20(%rbp)
	movl	$0, -24(%rbp)
	movl	$0, -12(%rbp)
.LBB42_13:                              # %if.end80
	jmp	.LBB42_14
.LBB42_14:                              # %if.end81
	movq	-8(%rbp), %rax
	movq	6424(%rax), %rdi
	movq	-40(%rbp), %rsi
	movq	-8(%rbp), %rax
	movl	6392(%rax), %edx
	movq	-8(%rbp), %rax
	movl	6396(%rax), %ecx
	movl	-28(%rbp), %r8d
	movl	-12(%rbp), %r9d
	movl	-24(%rbp), %eax
	movl	-20(%rbp), %r10d
	movl	-16(%rbp), %r11d
	movl	%eax, (%rsp)
	movl	%r10d, 8(%rsp)
	movl	%r11d, 16(%rsp)
	callq	img2buf
	movl	-44(%rbp), %edi
	movq	-40(%rbp), %rsi
	movq	-8(%rbp), %rax
	movl	6396(%rax), %eax
	subl	-16(%rbp), %eax
	subl	-20(%rbp), %eax
	movq	-8(%rbp), %rcx
	movl	6392(%rcx), %ecx
	subl	-24(%rbp), %ecx
	subl	-12(%rbp), %ecx
	imull	%ecx, %eax
	imull	-28(%rbp), %eax
	movslq	%eax, %rdx
	callq	write
	movq	-8(%rbp), %rax
	cmpl	$0, 6552(%rax)
	je	.LBB42_18
# %bb.15:                               # %if.then97
	movq	-8(%rbp), %rax
	movl	6564(%rax), %eax
	movl	%eax, -12(%rbp)
	movq	-8(%rbp), %rax
	movl	6568(%rax), %eax
	movl	%eax, -24(%rbp)
	movq	-8(%rbp), %rax
	movl	$2, %ecx
	movl	$2, %edx
	subl	6556(%rax), %edx
	movq	-8(%rbp), %rax
	imull	6572(%rax), %edx
	movl	%edx, -20(%rbp)
	movq	-8(%rbp), %rax
	subl	6556(%rax), %ecx
	movq	-8(%rbp), %rax
	imull	6576(%rax), %ecx
	movl	%ecx, -16(%rbp)
	movq	-8(%rbp), %rax
	movq	6464(%rax), %rax
	movq	(%rax), %rdi
	movq	-40(%rbp), %rsi
	movq	-8(%rbp), %rax
	movl	6400(%rax), %edx
	movq	-8(%rbp), %rax
	movl	6404(%rax), %ecx
	movl	-28(%rbp), %r8d
	movl	-12(%rbp), %r9d
	movl	-24(%rbp), %eax
	movl	-20(%rbp), %r10d
	movl	-16(%rbp), %r11d
	movl	%eax, (%rsp)
	movl	%r10d, 8(%rsp)
	movl	%r11d, 16(%rsp)
	callq	img2buf
	movl	-44(%rbp), %edi
	movq	-40(%rbp), %rsi
	movq	-8(%rbp), %rax
	movl	6404(%rax), %eax
	subl	-16(%rbp), %eax
	subl	-20(%rbp), %eax
	movq	-8(%rbp), %rcx
	movl	6400(%rcx), %ecx
	subl	-24(%rbp), %ecx
	subl	-12(%rbp), %ecx
	imull	%ecx, %eax
	imull	-28(%rbp), %eax
	movslq	%eax, %rdx
	callq	write
	cmpl	$0, -48(%rbp)
	jne	.LBB42_17
# %bb.16:                               # %if.then123
	movq	-8(%rbp), %rax
	movq	6464(%rax), %rax
	movq	8(%rax), %rdi
	movq	-40(%rbp), %rsi
	movq	-8(%rbp), %rax
	movl	6400(%rax), %edx
	movq	-8(%rbp), %rax
	movl	6404(%rax), %ecx
	movl	-28(%rbp), %r8d
	movl	-12(%rbp), %r9d
	movl	-24(%rbp), %eax
	movl	-20(%rbp), %r10d
	movl	-16(%rbp), %r11d
	movl	%eax, (%rsp)
	movl	%r10d, 8(%rsp)
	movl	%r11d, 16(%rsp)
	callq	img2buf
	movl	-44(%rbp), %edi
	movq	-40(%rbp), %rsi
	movq	-8(%rbp), %rax
	movl	6404(%rax), %eax
	subl	-16(%rbp), %eax
	subl	-20(%rbp), %eax
	movq	-8(%rbp), %rcx
	movl	6400(%rcx), %ecx
	subl	-24(%rbp), %ecx
	subl	-12(%rbp), %ecx
	imull	%ecx, %eax
	imull	-28(%rbp), %eax
	movslq	%eax, %rdx
	callq	write
.LBB42_17:                              # %if.end138
	jmp	.LBB42_18
.LBB42_18:                              # %if.end139
	movq	-40(%rbp), %rdi
	callq	free
.LBB42_19:                              # %return
	cmpl	$907153842, -52(%rbp)   # imm = 0x361211B2
	jne	.LBB42_21
.LBB42_20:
	addq	$128, %rsp
	popq	%rbp
	.cfi_def_cfa %rsp, 8
	retq
.LBB42_21:                              # %func_exit
	.cfi_def_cfa %rbp, 16
	callq	detect_breach
	jmp	.LBB42_20
.Lfunc_end42:
	.size	write_out_picture.32, .Lfunc_end42-write_out_picture.32
	.cfi_endproc
                                        # -- End function
	.globl	img2buf.33              # -- Begin function img2buf.33
	.p2align	4, 0x90
	.type	img2buf.33,@function
img2buf.33:                             # @img2buf.33
	.cfi_startproc
# %bb.0:                                # %entry
	pushq	%rbp
	.cfi_def_cfa_offset 16
	.cfi_offset %rbp, -16
	movq	%rsp, %rbp
	.cfi_def_cfa_register %rbp
	subq	$96, %rsp
	movl	32(%rbp), %eax
	movl	24(%rbp), %eax
	movl	16(%rbp), %eax
	movl	$562355426, -80(%rbp)   # imm = 0x2184DCE2
	movq	%rdi, -64(%rbp)
	movq	%rsi, -56(%rbp)
	movl	%edx, -20(%rbp)
	movl	%ecx, -28(%rbp)
	movl	%r8d, -24(%rbp)
	movl	%r9d, -12(%rbp)
	movl	-20(%rbp), %eax
	subl	-12(%rbp), %eax
	subl	16(%rbp), %eax
	movl	%eax, -32(%rbp)
	movl	-28(%rbp), %eax
	subl	24(%rbp), %eax
	subl	32(%rbp), %eax
	movl	%eax, -76(%rbp)
	movl	$0, -40(%rbp)
	callq	testEndian
	cmpl	$0, %eax
	je	.LBB43_33
# %bb.1:                                # %if.then
	movl	-24(%rbp), %eax
	movl	%eax, %ecx
	subl	$1, %ecx
	je	.LBB43_4
	jmp	.LBB43_2
.LBB43_2:                               # %if.then
	movl	%eax, %ecx
	subl	$2, %ecx
	je	.LBB43_13
	jmp	.LBB43_3
.LBB43_3:                               # %if.then
	subl	$4, %eax
	je	.LBB43_22
	jmp	.LBB43_31
.LBB43_4:                               # %sw.bb
	movl	24(%rbp), %eax
	movl	%eax, -4(%rbp)
.LBB43_5:                               # %for.cond
                                        # =>This Loop Header: Depth=1
                                        #     Child Loop BB43_7 Depth 2
	movl	-4(%rbp), %eax
	movl	-28(%rbp), %ecx
	subl	32(%rbp), %ecx
	cmpl	%ecx, %eax
	jge	.LBB43_12
# %bb.6:                                # %for.body
                                        #   in Loop: Header=BB43_5 Depth=1
	movl	-12(%rbp), %eax
	movl	%eax, -8(%rbp)
.LBB43_7:                               # %for.cond5
                                        #   Parent Loop BB43_5 Depth=1
                                        # =>  This Inner Loop Header: Depth=2
	movl	-8(%rbp), %eax
	movl	-20(%rbp), %ecx
	subl	16(%rbp), %ecx
	cmpl	%ecx, %eax
	jge	.LBB43_10
# %bb.8:                                # %for.body8
                                        #   in Loop: Header=BB43_7 Depth=2
	movq	-64(%rbp), %rax
	movslq	-4(%rbp), %rcx
	movq	(%rax,%rcx,8), %rax
	movslq	-8(%rbp), %rcx
	movw	(%rax,%rcx,2), %ax
	movb	%al, -13(%rbp)
	movb	-13(%rbp), %al
	movq	-56(%rbp), %rcx
	movl	-8(%rbp), %edx
	subl	-12(%rbp), %edx
	movl	-4(%rbp), %esi
	subl	24(%rbp), %esi
	imull	-32(%rbp), %esi
	addl	%esi, %edx
	movslq	%edx, %rdx
	movb	%al, (%rcx,%rdx)
# %bb.9:                                # %for.inc
                                        #   in Loop: Header=BB43_7 Depth=2
	movl	-8(%rbp), %eax
	addl	$1, %eax
	movl	%eax, -8(%rbp)
	jmp	.LBB43_7
.LBB43_10:                              # %for.end
                                        #   in Loop: Header=BB43_5 Depth=1
	jmp	.LBB43_11
.LBB43_11:                              # %for.inc15
                                        #   in Loop: Header=BB43_5 Depth=1
	movl	-4(%rbp), %eax
	addl	$1, %eax
	movl	%eax, -4(%rbp)
	jmp	.LBB43_5
.LBB43_12:                              # %for.end17
	jmp	.LBB43_32
.LBB43_13:                              # %sw.bb18
	movl	24(%rbp), %eax
	movl	%eax, -4(%rbp)
.LBB43_14:                              # %for.cond19
                                        # =>This Loop Header: Depth=1
                                        #     Child Loop BB43_16 Depth 2
	movl	-4(%rbp), %eax
	movl	-28(%rbp), %ecx
	subl	32(%rbp), %ecx
	cmpl	%ecx, %eax
	jge	.LBB43_21
# %bb.15:                               # %for.body23
                                        #   in Loop: Header=BB43_14 Depth=1
	movl	-12(%rbp), %eax
	movl	%eax, -8(%rbp)
.LBB43_16:                              # %for.cond24
                                        #   Parent Loop BB43_14 Depth=1
                                        # =>  This Inner Loop Header: Depth=2
	movl	-8(%rbp), %eax
	movl	-20(%rbp), %ecx
	subl	16(%rbp), %ecx
	cmpl	%ecx, %eax
	jge	.LBB43_19
# %bb.17:                               # %for.body28
                                        #   in Loop: Header=BB43_16 Depth=2
	movq	-64(%rbp), %rax
	movslq	-4(%rbp), %rcx
	movq	(%rax,%rcx,8), %rax
	movslq	-8(%rbp), %rcx
	movw	(%rax,%rcx,2), %ax
	movw	%ax, -34(%rbp)
	movzwl	-34(%rbp), %eax
	sarl	$8, %eax
	movzwl	-34(%rbp), %ecx
	andl	$255, %ecx
	shll	$8, %ecx
	orl	%ecx, %eax
	movw	%ax, -42(%rbp)
	movq	-56(%rbp), %rax
	movl	-8(%rbp), %ecx
	subl	-12(%rbp), %ecx
	movl	-4(%rbp), %edx
	subl	24(%rbp), %edx
	imull	-32(%rbp), %edx
	addl	%edx, %ecx
	shll	$1, %ecx
	movslq	%ecx, %rcx
	movw	-42(%rbp), %dx
	movw	%dx, (%rax,%rcx)
# %bb.18:                               # %for.inc41
                                        #   in Loop: Header=BB43_16 Depth=2
	movl	-8(%rbp), %eax
	addl	$1, %eax
	movl	%eax, -8(%rbp)
	jmp	.LBB43_16
.LBB43_19:                              # %for.end43
                                        #   in Loop: Header=BB43_14 Depth=1
	jmp	.LBB43_20
.LBB43_20:                              # %for.inc44
                                        #   in Loop: Header=BB43_14 Depth=1
	movl	-4(%rbp), %eax
	addl	$1, %eax
	movl	%eax, -4(%rbp)
	jmp	.LBB43_14
.LBB43_21:                              # %for.end46
	jmp	.LBB43_32
.LBB43_22:                              # %sw.bb47
	movl	24(%rbp), %eax
	movl	%eax, -4(%rbp)
.LBB43_23:                              # %for.cond48
                                        # =>This Loop Header: Depth=1
                                        #     Child Loop BB43_25 Depth 2
	movl	-4(%rbp), %eax
	movl	-28(%rbp), %ecx
	subl	32(%rbp), %ecx
	cmpl	%ecx, %eax
	jge	.LBB43_30
# %bb.24:                               # %for.body52
                                        #   in Loop: Header=BB43_23 Depth=1
	movl	-12(%rbp), %eax
	movl	%eax, -8(%rbp)
.LBB43_25:                              # %for.cond53
                                        #   Parent Loop BB43_23 Depth=1
                                        # =>  This Inner Loop Header: Depth=2
	movl	-8(%rbp), %eax
	movl	-20(%rbp), %ecx
	subl	16(%rbp), %ecx
	cmpl	%ecx, %eax
	jge	.LBB43_28
# %bb.26:                               # %for.body57
                                        #   in Loop: Header=BB43_25 Depth=2
	movq	-64(%rbp), %rax
	movslq	-4(%rbp), %rcx
	movq	(%rax,%rcx,8), %rax
	movslq	-8(%rbp), %rcx
	movzwl	(%rax,%rcx,2), %eax
	movq	%rax, -72(%rbp)
	movq	-72(%rbp), %rax
	andq	$65280, %rax            # imm = 0xFF00
	shlq	$8, %rax
	movq	-72(%rbp), %rcx
	andq	$255, %rcx
	shlq	$24, %rcx
	orq	%rcx, %rax
	movq	-72(%rbp), %rcx
	andq	$16711680, %rcx         # imm = 0xFF0000
	shrq	$8, %rcx
	orq	%rcx, %rax
	movl	$4278190080, %ecx       # imm = 0xFF000000
	andq	-72(%rbp), %rcx
	shrq	$24, %rcx
	orq	%rcx, %rax
	movq	%rax, -88(%rbp)
	movq	-56(%rbp), %rax
	movl	-8(%rbp), %ecx
	subl	-12(%rbp), %ecx
	movl	-4(%rbp), %edx
	subl	24(%rbp), %edx
	imull	-32(%rbp), %edx
	addl	%edx, %ecx
	shll	$2, %ecx
	movslq	%ecx, %rcx
	movl	-88(%rbp), %edx
	movl	%edx, (%rax,%rcx)
# %bb.27:                               # %for.inc81
                                        #   in Loop: Header=BB43_25 Depth=2
	movl	-8(%rbp), %eax
	addl	$1, %eax
	movl	%eax, -8(%rbp)
	jmp	.LBB43_25
.LBB43_28:                              # %for.end83
                                        #   in Loop: Header=BB43_23 Depth=1
	jmp	.LBB43_29
.LBB43_29:                              # %for.inc84
                                        #   in Loop: Header=BB43_23 Depth=1
	movl	-4(%rbp), %eax
	addl	$1, %eax
	movl	%eax, -4(%rbp)
	jmp	.LBB43_23
.LBB43_30:                              # %for.end86
	jmp	.LBB43_32
.LBB43_31:                              # %sw.default
	movabsq	$.L.str, %rdi
	movl	$500, %esi              # imm = 0x1F4
	callq	error
.LBB43_32:                              # %sw.epilog
	jmp	.LBB43_45
.LBB43_33:                              # %if.else
	movslq	-24(%rbp), %rax
	movl	$2, %ecx
	cmpq	%rax, %rcx
	jae	.LBB43_35
# %bb.34:                               # %if.then90
	movl	$2, -40(%rbp)
	movq	-56(%rbp), %rdi
	movl	-32(%rbp), %eax
	imull	-76(%rbp), %eax
	imull	-24(%rbp), %eax
	movslq	%eax, %rdx
	xorl	%esi, %esi
	callq	memset
	jmp	.LBB43_36
.LBB43_35:                              # %if.else94
	movl	-24(%rbp), %eax
	movl	%eax, -40(%rbp)
.LBB43_36:                              # %if.end
	movl	24(%rbp), %eax
	movl	%eax, -4(%rbp)
.LBB43_37:                              # %for.cond95
                                        # =>This Loop Header: Depth=1
                                        #     Child Loop BB43_39 Depth 2
	movl	-4(%rbp), %eax
	movl	-28(%rbp), %ecx
	subl	32(%rbp), %ecx
	cmpl	%ecx, %eax
	jge	.LBB43_44
# %bb.38:                               # %for.body99
                                        #   in Loop: Header=BB43_37 Depth=1
	movl	-12(%rbp), %eax
	movl	%eax, -8(%rbp)
.LBB43_39:                              # %for.cond100
                                        #   Parent Loop BB43_37 Depth=1
                                        # =>  This Inner Loop Header: Depth=2
	movl	-8(%rbp), %eax
	movl	-20(%rbp), %ecx
	subl	16(%rbp), %ecx
	cmpl	%ecx, %eax
	jge	.LBB43_42
# %bb.40:                               # %for.body104
                                        #   in Loop: Header=BB43_39 Depth=2
	movq	-56(%rbp), %rdi
	movl	-8(%rbp), %eax
	subl	-12(%rbp), %eax
	movl	-4(%rbp), %ecx
	subl	24(%rbp), %ecx
	imull	-32(%rbp), %ecx
	addl	%ecx, %eax
	imull	-24(%rbp), %eax
	cltq
	addq	%rax, %rdi
	movq	-64(%rbp), %rax
	movslq	-4(%rbp), %rcx
	movq	(%rax,%rcx,8), %rsi
	movslq	-8(%rbp), %rax
	shlq	$1, %rax
	addq	%rax, %rsi
	movslq	-40(%rbp), %rdx
	callq	memcpy
# %bb.41:                               # %for.inc117
                                        #   in Loop: Header=BB43_39 Depth=2
	movl	-8(%rbp), %eax
	addl	$1, %eax
	movl	%eax, -8(%rbp)
	jmp	.LBB43_39
.LBB43_42:                              # %for.end119
                                        #   in Loop: Header=BB43_37 Depth=1
	jmp	.LBB43_43
.LBB43_43:                              # %for.inc120
                                        #   in Loop: Header=BB43_37 Depth=1
	movl	-4(%rbp), %eax
	addl	$1, %eax
	movl	%eax, -4(%rbp)
	jmp	.LBB43_37
.LBB43_44:                              # %for.end122
	jmp	.LBB43_45
.LBB43_45:                              # %if.end123
	cmpl	$562355426, -80(%rbp)   # imm = 0x2184DCE2
	jne	.LBB43_47
.LBB43_46:
	addq	$96, %rsp
	popq	%rbp
	.cfi_def_cfa %rsp, 8
	retq
.LBB43_47:                              # %func_exit
	.cfi_def_cfa %rbp, 16
	callq	detect_breach
	jmp	.LBB43_46
.Lfunc_end43:
	.size	img2buf.33, .Lfunc_end43-img2buf.33
	.cfi_endproc
                                        # -- End function
	.globl	img2buf.34              # -- Begin function img2buf.34
	.p2align	4, 0x90
	.type	img2buf.34,@function
img2buf.34:                             # @img2buf.34
	.cfi_startproc
# %bb.0:                                # %entry
	pushq	%rbp
	.cfi_def_cfa_offset 16
	.cfi_offset %rbp, -16
	movq	%rsp, %rbp
	.cfi_def_cfa_register %rbp
	subq	$96, %rsp
	movl	32(%rbp), %eax
	movl	24(%rbp), %eax
	movl	16(%rbp), %eax
	movl	$657138208, -80(%rbp)   # imm = 0x272B2220
	movq	%rdi, -64(%rbp)
	movq	%rsi, -56(%rbp)
	movl	%edx, -24(%rbp)
	movl	%ecx, -20(%rbp)
	movl	%r8d, -28(%rbp)
	movl	%r9d, -12(%rbp)
	movl	-24(%rbp), %eax
	subl	-12(%rbp), %eax
	subl	16(%rbp), %eax
	movl	%eax, -32(%rbp)
	movl	-20(%rbp), %eax
	subl	24(%rbp), %eax
	subl	32(%rbp), %eax
	movl	%eax, -76(%rbp)
	movl	$0, -40(%rbp)
	callq	testEndian
	cmpl	$0, %eax
	je	.LBB44_33
# %bb.1:                                # %if.then
	movl	-28(%rbp), %eax
	movl	%eax, %ecx
	subl	$1, %ecx
	je	.LBB44_4
	jmp	.LBB44_2
.LBB44_2:                               # %if.then
	movl	%eax, %ecx
	subl	$2, %ecx
	je	.LBB44_13
	jmp	.LBB44_3
.LBB44_3:                               # %if.then
	subl	$4, %eax
	je	.LBB44_22
	jmp	.LBB44_31
.LBB44_4:                               # %sw.bb
	movl	24(%rbp), %eax
	movl	%eax, -8(%rbp)
.LBB44_5:                               # %for.cond
                                        # =>This Loop Header: Depth=1
                                        #     Child Loop BB44_7 Depth 2
	movl	-8(%rbp), %eax
	movl	-20(%rbp), %ecx
	subl	32(%rbp), %ecx
	cmpl	%ecx, %eax
	jge	.LBB44_12
# %bb.6:                                # %for.body
                                        #   in Loop: Header=BB44_5 Depth=1
	movl	-12(%rbp), %eax
	movl	%eax, -4(%rbp)
.LBB44_7:                               # %for.cond5
                                        #   Parent Loop BB44_5 Depth=1
                                        # =>  This Inner Loop Header: Depth=2
	movl	-4(%rbp), %eax
	movl	-24(%rbp), %ecx
	subl	16(%rbp), %ecx
	cmpl	%ecx, %eax
	jge	.LBB44_10
# %bb.8:                                # %for.body8
                                        #   in Loop: Header=BB44_7 Depth=2
	movq	-64(%rbp), %rax
	movslq	-8(%rbp), %rcx
	movq	(%rax,%rcx,8), %rax
	movslq	-4(%rbp), %rcx
	movw	(%rax,%rcx,2), %ax
	movb	%al, -13(%rbp)
	movb	-13(%rbp), %al
	movq	-56(%rbp), %rcx
	movl	-4(%rbp), %edx
	subl	-12(%rbp), %edx
	movl	-8(%rbp), %esi
	subl	24(%rbp), %esi
	imull	-32(%rbp), %esi
	addl	%esi, %edx
	movslq	%edx, %rdx
	movb	%al, (%rcx,%rdx)
# %bb.9:                                # %for.inc
                                        #   in Loop: Header=BB44_7 Depth=2
	movl	-4(%rbp), %eax
	addl	$1, %eax
	movl	%eax, -4(%rbp)
	jmp	.LBB44_7
.LBB44_10:                              # %for.end
                                        #   in Loop: Header=BB44_5 Depth=1
	jmp	.LBB44_11
.LBB44_11:                              # %for.inc15
                                        #   in Loop: Header=BB44_5 Depth=1
	movl	-8(%rbp), %eax
	addl	$1, %eax
	movl	%eax, -8(%rbp)
	jmp	.LBB44_5
.LBB44_12:                              # %for.end17
	jmp	.LBB44_32
.LBB44_13:                              # %sw.bb18
	movl	24(%rbp), %eax
	movl	%eax, -8(%rbp)
.LBB44_14:                              # %for.cond19
                                        # =>This Loop Header: Depth=1
                                        #     Child Loop BB44_16 Depth 2
	movl	-8(%rbp), %eax
	movl	-20(%rbp), %ecx
	subl	32(%rbp), %ecx
	cmpl	%ecx, %eax
	jge	.LBB44_21
# %bb.15:                               # %for.body23
                                        #   in Loop: Header=BB44_14 Depth=1
	movl	-12(%rbp), %eax
	movl	%eax, -4(%rbp)
.LBB44_16:                              # %for.cond24
                                        #   Parent Loop BB44_14 Depth=1
                                        # =>  This Inner Loop Header: Depth=2
	movl	-4(%rbp), %eax
	movl	-24(%rbp), %ecx
	subl	16(%rbp), %ecx
	cmpl	%ecx, %eax
	jge	.LBB44_19
# %bb.17:                               # %for.body28
                                        #   in Loop: Header=BB44_16 Depth=2
	movq	-64(%rbp), %rax
	movslq	-8(%rbp), %rcx
	movq	(%rax,%rcx,8), %rax
	movslq	-4(%rbp), %rcx
	movw	(%rax,%rcx,2), %ax
	movw	%ax, -34(%rbp)
	movzwl	-34(%rbp), %eax
	sarl	$8, %eax
	movzwl	-34(%rbp), %ecx
	andl	$255, %ecx
	shll	$8, %ecx
	orl	%ecx, %eax
	movw	%ax, -42(%rbp)
	movq	-56(%rbp), %rax
	movl	-4(%rbp), %ecx
	subl	-12(%rbp), %ecx
	movl	-8(%rbp), %edx
	subl	24(%rbp), %edx
	imull	-32(%rbp), %edx
	addl	%edx, %ecx
	shll	$1, %ecx
	movslq	%ecx, %rcx
	movw	-42(%rbp), %dx
	movw	%dx, (%rax,%rcx)
# %bb.18:                               # %for.inc41
                                        #   in Loop: Header=BB44_16 Depth=2
	movl	-4(%rbp), %eax
	addl	$1, %eax
	movl	%eax, -4(%rbp)
	jmp	.LBB44_16
.LBB44_19:                              # %for.end43
                                        #   in Loop: Header=BB44_14 Depth=1
	jmp	.LBB44_20
.LBB44_20:                              # %for.inc44
                                        #   in Loop: Header=BB44_14 Depth=1
	movl	-8(%rbp), %eax
	addl	$1, %eax
	movl	%eax, -8(%rbp)
	jmp	.LBB44_14
.LBB44_21:                              # %for.end46
	jmp	.LBB44_32
.LBB44_22:                              # %sw.bb47
	movl	24(%rbp), %eax
	movl	%eax, -8(%rbp)
.LBB44_23:                              # %for.cond48
                                        # =>This Loop Header: Depth=1
                                        #     Child Loop BB44_25 Depth 2
	movl	-8(%rbp), %eax
	movl	-20(%rbp), %ecx
	subl	32(%rbp), %ecx
	cmpl	%ecx, %eax
	jge	.LBB44_30
# %bb.24:                               # %for.body52
                                        #   in Loop: Header=BB44_23 Depth=1
	movl	-12(%rbp), %eax
	movl	%eax, -4(%rbp)
.LBB44_25:                              # %for.cond53
                                        #   Parent Loop BB44_23 Depth=1
                                        # =>  This Inner Loop Header: Depth=2
	movl	-4(%rbp), %eax
	movl	-24(%rbp), %ecx
	subl	16(%rbp), %ecx
	cmpl	%ecx, %eax
	jge	.LBB44_28
# %bb.26:                               # %for.body57
                                        #   in Loop: Header=BB44_25 Depth=2
	movq	-64(%rbp), %rax
	movslq	-8(%rbp), %rcx
	movq	(%rax,%rcx,8), %rax
	movslq	-4(%rbp), %rcx
	movzwl	(%rax,%rcx,2), %eax
	movq	%rax, -72(%rbp)
	movq	-72(%rbp), %rax
	andq	$65280, %rax            # imm = 0xFF00
	shlq	$8, %rax
	movq	-72(%rbp), %rcx
	andq	$255, %rcx
	shlq	$24, %rcx
	orq	%rcx, %rax
	movq	-72(%rbp), %rcx
	andq	$16711680, %rcx         # imm = 0xFF0000
	shrq	$8, %rcx
	orq	%rcx, %rax
	movl	$4278190080, %ecx       # imm = 0xFF000000
	andq	-72(%rbp), %rcx
	shrq	$24, %rcx
	orq	%rcx, %rax
	movq	%rax, -88(%rbp)
	movq	-56(%rbp), %rax
	movl	-4(%rbp), %ecx
	subl	-12(%rbp), %ecx
	movl	-8(%rbp), %edx
	subl	24(%rbp), %edx
	imull	-32(%rbp), %edx
	addl	%edx, %ecx
	shll	$2, %ecx
	movslq	%ecx, %rcx
	movl	-88(%rbp), %edx
	movl	%edx, (%rax,%rcx)
# %bb.27:                               # %for.inc81
                                        #   in Loop: Header=BB44_25 Depth=2
	movl	-4(%rbp), %eax
	addl	$1, %eax
	movl	%eax, -4(%rbp)
	jmp	.LBB44_25
.LBB44_28:                              # %for.end83
                                        #   in Loop: Header=BB44_23 Depth=1
	jmp	.LBB44_29
.LBB44_29:                              # %for.inc84
                                        #   in Loop: Header=BB44_23 Depth=1
	movl	-8(%rbp), %eax
	addl	$1, %eax
	movl	%eax, -8(%rbp)
	jmp	.LBB44_23
.LBB44_30:                              # %for.end86
	jmp	.LBB44_32
.LBB44_31:                              # %sw.default
	movabsq	$.L.str, %rdi
	movl	$500, %esi              # imm = 0x1F4
	callq	error
.LBB44_32:                              # %sw.epilog
	jmp	.LBB44_45
.LBB44_33:                              # %if.else
	movslq	-28(%rbp), %rax
	movl	$2, %ecx
	cmpq	%rax, %rcx
	jae	.LBB44_35
# %bb.34:                               # %if.then90
	movl	$2, -40(%rbp)
	movq	-56(%rbp), %rdi
	movl	-32(%rbp), %eax
	imull	-76(%rbp), %eax
	imull	-28(%rbp), %eax
	movslq	%eax, %rdx
	xorl	%esi, %esi
	callq	memset
	jmp	.LBB44_36
.LBB44_35:                              # %if.else94
	movl	-28(%rbp), %eax
	movl	%eax, -40(%rbp)
.LBB44_36:                              # %if.end
	movl	24(%rbp), %eax
	movl	%eax, -8(%rbp)
.LBB44_37:                              # %for.cond95
                                        # =>This Loop Header: Depth=1
                                        #     Child Loop BB44_39 Depth 2
	movl	-8(%rbp), %eax
	movl	-20(%rbp), %ecx
	subl	32(%rbp), %ecx
	cmpl	%ecx, %eax
	jge	.LBB44_44
# %bb.38:                               # %for.body99
                                        #   in Loop: Header=BB44_37 Depth=1
	movl	-12(%rbp), %eax
	movl	%eax, -4(%rbp)
.LBB44_39:                              # %for.cond100
                                        #   Parent Loop BB44_37 Depth=1
                                        # =>  This Inner Loop Header: Depth=2
	movl	-4(%rbp), %eax
	movl	-24(%rbp), %ecx
	subl	16(%rbp), %ecx
	cmpl	%ecx, %eax
	jge	.LBB44_42
# %bb.40:                               # %for.body104
                                        #   in Loop: Header=BB44_39 Depth=2
	movq	-56(%rbp), %rdi
	movl	-4(%rbp), %eax
	subl	-12(%rbp), %eax
	movl	-8(%rbp), %ecx
	subl	24(%rbp), %ecx
	imull	-32(%rbp), %ecx
	addl	%ecx, %eax
	imull	-28(%rbp), %eax
	cltq
	addq	%rax, %rdi
	movq	-64(%rbp), %rax
	movslq	-8(%rbp), %rcx
	movq	(%rax,%rcx,8), %rsi
	movslq	-4(%rbp), %rax
	shlq	$1, %rax
	addq	%rax, %rsi
	movslq	-40(%rbp), %rdx
	callq	memcpy
# %bb.41:                               # %for.inc117
                                        #   in Loop: Header=BB44_39 Depth=2
	movl	-4(%rbp), %eax
	addl	$1, %eax
	movl	%eax, -4(%rbp)
	jmp	.LBB44_39
.LBB44_42:                              # %for.end119
                                        #   in Loop: Header=BB44_37 Depth=1
	jmp	.LBB44_43
.LBB44_43:                              # %for.inc120
                                        #   in Loop: Header=BB44_37 Depth=1
	movl	-8(%rbp), %eax
	addl	$1, %eax
	movl	%eax, -8(%rbp)
	jmp	.LBB44_37
.LBB44_44:                              # %for.end122
	jmp	.LBB44_45
.LBB44_45:                              # %if.end123
	cmpl	$657138208, -80(%rbp)   # imm = 0x272B2220
	jne	.LBB44_47
.LBB44_46:
	addq	$96, %rsp
	popq	%rbp
	.cfi_def_cfa %rsp, 8
	retq
.LBB44_47:                              # %func_exit
	.cfi_def_cfa %rbp, 16
	callq	detect_breach
	jmp	.LBB44_46
.Lfunc_end44:
	.size	img2buf.34, .Lfunc_end44-img2buf.34
	.cfi_endproc
                                        # -- End function
	.globl	write_out_picture.35    # -- Begin function write_out_picture.35
	.p2align	4, 0x90
	.type	write_out_picture.35,@function
write_out_picture.35:                   # @write_out_picture.35
	.cfi_startproc
# %bb.0:                                # %entry
	pushq	%rbp
	.cfi_def_cfa_offset 16
	.cfi_offset %rbp, -16
	movq	%rsp, %rbp
	.cfi_def_cfa_register %rbp
	subq	$128, %rsp
	xorl	%ecx, %ecx
	movl	$1422622344, -52(%rbp)  # imm = 0x54CB7E88
	movq	%rdi, -8(%rbp)
	movl	%esi, -44(%rbp)
	movq	.L__const.write_out_picture.SubWidthC, %rax
	movq	%rax, -96(%rbp)
	movq	.L__const.write_out_picture.SubWidthC+8, %rax
	movq	%rax, -88(%rbp)
	movq	.L__const.write_out_picture.SubHeightC, %rax
	movq	%rax, -80(%rbp)
	movq	.L__const.write_out_picture.SubHeightC+8, %rax
	movq	%rax, -72(%rbp)
	movq	img, %rax
	movl	72656(%rax), %eax
	cltd
	movl	$8, %esi
	idivl	%esi
	movl	%eax, -28(%rbp)
	movq	input, %rax
	cmpl	$0, 3312(%rax)
	je	.LBB45_2
# %bb.1:                                # %land.rhs
	movq	input, %rax
	cmpl	$3, 72(%rax)
	sete	%cl
.LBB45_2:                               # %land.end
	andb	$1, %cl
	movzbl	%cl, %eax
	movl	%eax, -48(%rbp)
	movq	-8(%rbp), %rax
	cmpl	$0, 6388(%rax)
	je	.LBB45_4
# %bb.3:                                # %if.then
	jmp	.LBB45_19
.LBB45_4:                               # %if.end
	movq	-8(%rbp), %rax
	cmpl	$0, 6560(%rax)
	je	.LBB45_6
# %bb.5:                                # %if.then3
	movq	-8(%rbp), %rax
	movslq	6552(%rax), %rax
	movl	-96(%rbp,%rax,4), %eax
	movq	-8(%rbp), %rcx
	imull	6564(%rcx), %eax
	movl	%eax, -24(%rbp)
	movq	-8(%rbp), %rax
	movslq	6552(%rax), %rax
	movl	-96(%rbp,%rax,4), %eax
	movq	-8(%rbp), %rcx
	imull	6568(%rcx), %eax
	movl	%eax, -16(%rbp)
	movq	-8(%rbp), %rax
	movslq	6552(%rax), %rax
	movl	-80(%rbp,%rax,4), %eax
	movq	-8(%rbp), %rcx
	movl	$2, %edx
	movl	$2, %esi
	subl	6556(%rcx), %esi
	imull	%esi, %eax
	movq	-8(%rbp), %rcx
	imull	6572(%rcx), %eax
	movl	%eax, -12(%rbp)
	movq	-8(%rbp), %rax
	movslq	6552(%rax), %rax
	movl	-80(%rbp,%rax,4), %eax
	movq	-8(%rbp), %rcx
	subl	6556(%rcx), %edx
	imull	%edx, %eax
	movq	-8(%rbp), %rcx
	imull	6576(%rcx), %eax
	movl	%eax, -20(%rbp)
	jmp	.LBB45_7
.LBB45_6:                               # %if.else
	movl	$0, -20(%rbp)
	movl	$0, -12(%rbp)
	movl	$0, -16(%rbp)
	movl	$0, -24(%rbp)
.LBB45_7:                               # %if.end20
	movq	-8(%rbp), %rax
	movl	6392(%rax), %eax
	movq	-8(%rbp), %rcx
	imull	6396(%rcx), %eax
	imull	-28(%rbp), %eax
	movslq	%eax, %rdi
	callq	malloc
	xorl	%ecx, %ecx
	movq	%rax, -40(%rbp)
	cmpq	%rax, %rcx
	jne	.LBB45_9
# %bb.8:                                # %if.then25
	movabsq	$.L.str.1, %rdi
	callq	no_mem_exit
.LBB45_9:                               # %if.end26
	cmpl	$0, -48(%rbp)
	je	.LBB45_14
# %bb.10:                               # %if.then28
	movq	-8(%rbp), %rax
	movl	6564(%rax), %eax
	movl	%eax, -24(%rbp)
	movq	-8(%rbp), %rax
	movl	6568(%rax), %eax
	movl	%eax, -16(%rbp)
	movq	-8(%rbp), %rax
	movl	$2, %ecx
	movl	$2, %edx
	subl	6556(%rax), %edx
	movq	-8(%rbp), %rax
	imull	6572(%rax), %edx
	movl	%edx, -12(%rbp)
	movq	-8(%rbp), %rax
	subl	6556(%rax), %ecx
	movq	-8(%rbp), %rax
	imull	6576(%rax), %ecx
	movl	%ecx, -20(%rbp)
	movq	-8(%rbp), %rax
	movq	6464(%rax), %rax
	movq	8(%rax), %rdi
	movq	-40(%rbp), %rsi
	movq	-8(%rbp), %rax
	movl	6400(%rax), %edx
	movq	-8(%rbp), %rax
	movl	6404(%rax), %ecx
	movl	-28(%rbp), %r8d
	movl	-24(%rbp), %r9d
	movl	-16(%rbp), %eax
	movl	-12(%rbp), %r10d
	movl	-20(%rbp), %r11d
	movl	%eax, (%rsp)
	movl	%r10d, 8(%rsp)
	movl	%r11d, 16(%rsp)
	callq	img2buf
	movl	-44(%rbp), %edi
	movq	-40(%rbp), %rsi
	movq	-8(%rbp), %rax
	movl	6404(%rax), %eax
	subl	-20(%rbp), %eax
	subl	-12(%rbp), %eax
	movq	-8(%rbp), %rcx
	movl	6400(%rcx), %ecx
	subl	-16(%rbp), %ecx
	subl	-24(%rbp), %ecx
	imull	%ecx, %eax
	imull	-28(%rbp), %eax
	movslq	%eax, %rdx
	callq	write
	movq	active_sps, %rax
	cmpl	$0, 1160(%rax)
	je	.LBB45_12
# %bb.11:                               # %if.then52
	movq	-8(%rbp), %rax
	movslq	6552(%rax), %rax
	movl	-96(%rbp,%rax,4), %eax
	movq	-8(%rbp), %rcx
	imull	6564(%rcx), %eax
	movl	%eax, -24(%rbp)
	movq	-8(%rbp), %rax
	movslq	6552(%rax), %rax
	movl	-96(%rbp,%rax,4), %eax
	movq	-8(%rbp), %rcx
	imull	6568(%rcx), %eax
	movl	%eax, -16(%rbp)
	movq	-8(%rbp), %rax
	movslq	6552(%rax), %rax
	movl	-80(%rbp,%rax,4), %eax
	movq	-8(%rbp), %rcx
	movl	$2, %edx
	movl	$2, %esi
	subl	6556(%rcx), %esi
	imull	%esi, %eax
	movq	-8(%rbp), %rcx
	imull	6572(%rcx), %eax
	movl	%eax, -12(%rbp)
	movq	-8(%rbp), %rax
	movslq	6552(%rax), %rax
	movl	-80(%rbp,%rax,4), %eax
	movq	-8(%rbp), %rcx
	subl	6556(%rcx), %edx
	imull	%edx, %eax
	movq	-8(%rbp), %rcx
	imull	6576(%rcx), %eax
	movl	%eax, -20(%rbp)
	jmp	.LBB45_13
.LBB45_12:                              # %if.else79
	movl	$0, -20(%rbp)
	movl	$0, -12(%rbp)
	movl	$0, -16(%rbp)
	movl	$0, -24(%rbp)
.LBB45_13:                              # %if.end80
	jmp	.LBB45_14
.LBB45_14:                              # %if.end81
	movq	-8(%rbp), %rax
	movq	6424(%rax), %rdi
	movq	-40(%rbp), %rsi
	movq	-8(%rbp), %rax
	movl	6392(%rax), %edx
	movq	-8(%rbp), %rax
	movl	6396(%rax), %ecx
	movl	-28(%rbp), %r8d
	movl	-24(%rbp), %r9d
	movl	-16(%rbp), %eax
	movl	-12(%rbp), %r10d
	movl	-20(%rbp), %r11d
	movl	%eax, (%rsp)
	movl	%r10d, 8(%rsp)
	movl	%r11d, 16(%rsp)
	callq	img2buf
	movl	-44(%rbp), %edi
	movq	-40(%rbp), %rsi
	movq	-8(%rbp), %rax
	movl	6396(%rax), %eax
	subl	-20(%rbp), %eax
	subl	-12(%rbp), %eax
	movq	-8(%rbp), %rcx
	movl	6392(%rcx), %ecx
	subl	-16(%rbp), %ecx
	subl	-24(%rbp), %ecx
	imull	%ecx, %eax
	imull	-28(%rbp), %eax
	movslq	%eax, %rdx
	callq	write
	movq	-8(%rbp), %rax
	cmpl	$0, 6552(%rax)
	je	.LBB45_18
# %bb.15:                               # %if.then97
	movq	-8(%rbp), %rax
	movl	6564(%rax), %eax
	movl	%eax, -24(%rbp)
	movq	-8(%rbp), %rax
	movl	6568(%rax), %eax
	movl	%eax, -16(%rbp)
	movq	-8(%rbp), %rax
	movl	$2, %ecx
	movl	$2, %edx
	subl	6556(%rax), %edx
	movq	-8(%rbp), %rax
	imull	6572(%rax), %edx
	movl	%edx, -12(%rbp)
	movq	-8(%rbp), %rax
	subl	6556(%rax), %ecx
	movq	-8(%rbp), %rax
	imull	6576(%rax), %ecx
	movl	%ecx, -20(%rbp)
	movq	-8(%rbp), %rax
	movq	6464(%rax), %rax
	movq	(%rax), %rdi
	movq	-40(%rbp), %rsi
	movq	-8(%rbp), %rax
	movl	6400(%rax), %edx
	movq	-8(%rbp), %rax
	movl	6404(%rax), %ecx
	movl	-28(%rbp), %r8d
	movl	-24(%rbp), %r9d
	movl	-16(%rbp), %eax
	movl	-12(%rbp), %r10d
	movl	-20(%rbp), %r11d
	movl	%eax, (%rsp)
	movl	%r10d, 8(%rsp)
	movl	%r11d, 16(%rsp)
	callq	img2buf
	movl	-44(%rbp), %edi
	movq	-40(%rbp), %rsi
	movq	-8(%rbp), %rax
	movl	6404(%rax), %eax
	subl	-20(%rbp), %eax
	subl	-12(%rbp), %eax
	movq	-8(%rbp), %rcx
	movl	6400(%rcx), %ecx
	subl	-16(%rbp), %ecx
	subl	-24(%rbp), %ecx
	imull	%ecx, %eax
	imull	-28(%rbp), %eax
	movslq	%eax, %rdx
	callq	write
	cmpl	$0, -48(%rbp)
	jne	.LBB45_17
# %bb.16:                               # %if.then123
	movq	-8(%rbp), %rax
	movq	6464(%rax), %rax
	movq	8(%rax), %rdi
	movq	-40(%rbp), %rsi
	movq	-8(%rbp), %rax
	movl	6400(%rax), %edx
	movq	-8(%rbp), %rax
	movl	6404(%rax), %ecx
	movl	-28(%rbp), %r8d
	movl	-24(%rbp), %r9d
	movl	-16(%rbp), %eax
	movl	-12(%rbp), %r10d
	movl	-20(%rbp), %r11d
	movl	%eax, (%rsp)
	movl	%r10d, 8(%rsp)
	movl	%r11d, 16(%rsp)
	callq	img2buf
	movl	-44(%rbp), %edi
	movq	-40(%rbp), %rsi
	movq	-8(%rbp), %rax
	movl	6404(%rax), %eax
	subl	-20(%rbp), %eax
	subl	-12(%rbp), %eax
	movq	-8(%rbp), %rcx
	movl	6400(%rcx), %ecx
	subl	-16(%rbp), %ecx
	subl	-24(%rbp), %ecx
	imull	%ecx, %eax
	imull	-28(%rbp), %eax
	movslq	%eax, %rdx
	callq	write
.LBB45_17:                              # %if.end138
	jmp	.LBB45_18
.LBB45_18:                              # %if.end139
	movq	-40(%rbp), %rdi
	callq	free
.LBB45_19:                              # %return
	cmpl	$1422622344, -52(%rbp)  # imm = 0x54CB7E88
	jne	.LBB45_21
.LBB45_20:
	addq	$128, %rsp
	popq	%rbp
	.cfi_def_cfa %rsp, 8
	retq
.LBB45_21:                              # %func_exit
	.cfi_def_cfa %rbp, 16
	callq	detect_breach
	jmp	.LBB45_20
.Lfunc_end45:
	.size	write_out_picture.35, .Lfunc_end45-write_out_picture.35
	.cfi_endproc
                                        # -- End function
	.globl	write_out_picture.36    # -- Begin function write_out_picture.36
	.p2align	4, 0x90
	.type	write_out_picture.36,@function
write_out_picture.36:                   # @write_out_picture.36
	.cfi_startproc
# %bb.0:                                # %entry
	pushq	%rbp
	.cfi_def_cfa_offset 16
	.cfi_offset %rbp, -16
	movq	%rsp, %rbp
	.cfi_def_cfa_register %rbp
	subq	$128, %rsp
	xorl	%ecx, %ecx
	movl	$793946106, -52(%rbp)   # imm = 0x2F52A7FA
	movq	%rdi, -8(%rbp)
	movl	%esi, -44(%rbp)
	movq	.L__const.write_out_picture.SubWidthC, %rax
	movq	%rax, -96(%rbp)
	movq	.L__const.write_out_picture.SubWidthC+8, %rax
	movq	%rax, -88(%rbp)
	movq	.L__const.write_out_picture.SubHeightC, %rax
	movq	%rax, -80(%rbp)
	movq	.L__const.write_out_picture.SubHeightC+8, %rax
	movq	%rax, -72(%rbp)
	movq	img, %rax
	movl	72656(%rax), %eax
	cltd
	movl	$8, %esi
	idivl	%esi
	movl	%eax, -28(%rbp)
	movq	input, %rax
	cmpl	$0, 3312(%rax)
	je	.LBB46_2
# %bb.1:                                # %land.rhs
	movq	input, %rax
	cmpl	$3, 72(%rax)
	sete	%cl
.LBB46_2:                               # %land.end
	andb	$1, %cl
	movzbl	%cl, %eax
	movl	%eax, -48(%rbp)
	movq	-8(%rbp), %rax
	cmpl	$0, 6388(%rax)
	je	.LBB46_4
# %bb.3:                                # %if.then
	jmp	.LBB46_19
.LBB46_4:                               # %if.end
	movq	-8(%rbp), %rax
	cmpl	$0, 6560(%rax)
	je	.LBB46_6
# %bb.5:                                # %if.then3
	movq	-8(%rbp), %rax
	movslq	6552(%rax), %rax
	movl	-96(%rbp,%rax,4), %eax
	movq	-8(%rbp), %rcx
	imull	6564(%rcx), %eax
	movl	%eax, -24(%rbp)
	movq	-8(%rbp), %rax
	movslq	6552(%rax), %rax
	movl	-96(%rbp,%rax,4), %eax
	movq	-8(%rbp), %rcx
	imull	6568(%rcx), %eax
	movl	%eax, -12(%rbp)
	movq	-8(%rbp), %rax
	movslq	6552(%rax), %rax
	movl	-80(%rbp,%rax,4), %eax
	movq	-8(%rbp), %rcx
	movl	$2, %edx
	movl	$2, %esi
	subl	6556(%rcx), %esi
	imull	%esi, %eax
	movq	-8(%rbp), %rcx
	imull	6572(%rcx), %eax
	movl	%eax, -20(%rbp)
	movq	-8(%rbp), %rax
	movslq	6552(%rax), %rax
	movl	-80(%rbp,%rax,4), %eax
	movq	-8(%rbp), %rcx
	subl	6556(%rcx), %edx
	imull	%edx, %eax
	movq	-8(%rbp), %rcx
	imull	6576(%rcx), %eax
	movl	%eax, -16(%rbp)
	jmp	.LBB46_7
.LBB46_6:                               # %if.else
	movl	$0, -16(%rbp)
	movl	$0, -20(%rbp)
	movl	$0, -12(%rbp)
	movl	$0, -24(%rbp)
.LBB46_7:                               # %if.end20
	movq	-8(%rbp), %rax
	movl	6392(%rax), %eax
	movq	-8(%rbp), %rcx
	imull	6396(%rcx), %eax
	imull	-28(%rbp), %eax
	movslq	%eax, %rdi
	callq	malloc
	xorl	%ecx, %ecx
	movq	%rax, -40(%rbp)
	cmpq	%rax, %rcx
	jne	.LBB46_9
# %bb.8:                                # %if.then25
	movabsq	$.L.str.1, %rdi
	callq	no_mem_exit
.LBB46_9:                               # %if.end26
	cmpl	$0, -48(%rbp)
	je	.LBB46_14
# %bb.10:                               # %if.then28
	movq	-8(%rbp), %rax
	movl	6564(%rax), %eax
	movl	%eax, -24(%rbp)
	movq	-8(%rbp), %rax
	movl	6568(%rax), %eax
	movl	%eax, -12(%rbp)
	movq	-8(%rbp), %rax
	movl	$2, %ecx
	movl	$2, %edx
	subl	6556(%rax), %edx
	movq	-8(%rbp), %rax
	imull	6572(%rax), %edx
	movl	%edx, -20(%rbp)
	movq	-8(%rbp), %rax
	subl	6556(%rax), %ecx
	movq	-8(%rbp), %rax
	imull	6576(%rax), %ecx
	movl	%ecx, -16(%rbp)
	movq	-8(%rbp), %rax
	movq	6464(%rax), %rax
	movq	8(%rax), %rdi
	movq	-40(%rbp), %rsi
	movq	-8(%rbp), %rax
	movl	6400(%rax), %edx
	movq	-8(%rbp), %rax
	movl	6404(%rax), %ecx
	movl	-28(%rbp), %r8d
	movl	-24(%rbp), %r9d
	movl	-12(%rbp), %eax
	movl	-20(%rbp), %r10d
	movl	-16(%rbp), %r11d
	movl	%eax, (%rsp)
	movl	%r10d, 8(%rsp)
	movl	%r11d, 16(%rsp)
	callq	img2buf
	movl	-44(%rbp), %edi
	movq	-40(%rbp), %rsi
	movq	-8(%rbp), %rax
	movl	6404(%rax), %eax
	subl	-16(%rbp), %eax
	subl	-20(%rbp), %eax
	movq	-8(%rbp), %rcx
	movl	6400(%rcx), %ecx
	subl	-12(%rbp), %ecx
	subl	-24(%rbp), %ecx
	imull	%ecx, %eax
	imull	-28(%rbp), %eax
	movslq	%eax, %rdx
	callq	write
	movq	active_sps, %rax
	cmpl	$0, 1160(%rax)
	je	.LBB46_12
# %bb.11:                               # %if.then52
	movq	-8(%rbp), %rax
	movslq	6552(%rax), %rax
	movl	-96(%rbp,%rax,4), %eax
	movq	-8(%rbp), %rcx
	imull	6564(%rcx), %eax
	movl	%eax, -24(%rbp)
	movq	-8(%rbp), %rax
	movslq	6552(%rax), %rax
	movl	-96(%rbp,%rax,4), %eax
	movq	-8(%rbp), %rcx
	imull	6568(%rcx), %eax
	movl	%eax, -12(%rbp)
	movq	-8(%rbp), %rax
	movslq	6552(%rax), %rax
	movl	-80(%rbp,%rax,4), %eax
	movq	-8(%rbp), %rcx
	movl	$2, %edx
	movl	$2, %esi
	subl	6556(%rcx), %esi
	imull	%esi, %eax
	movq	-8(%rbp), %rcx
	imull	6572(%rcx), %eax
	movl	%eax, -20(%rbp)
	movq	-8(%rbp), %rax
	movslq	6552(%rax), %rax
	movl	-80(%rbp,%rax,4), %eax
	movq	-8(%rbp), %rcx
	subl	6556(%rcx), %edx
	imull	%edx, %eax
	movq	-8(%rbp), %rcx
	imull	6576(%rcx), %eax
	movl	%eax, -16(%rbp)
	jmp	.LBB46_13
.LBB46_12:                              # %if.else79
	movl	$0, -16(%rbp)
	movl	$0, -20(%rbp)
	movl	$0, -12(%rbp)
	movl	$0, -24(%rbp)
.LBB46_13:                              # %if.end80
	jmp	.LBB46_14
.LBB46_14:                              # %if.end81
	movq	-8(%rbp), %rax
	movq	6424(%rax), %rdi
	movq	-40(%rbp), %rsi
	movq	-8(%rbp), %rax
	movl	6392(%rax), %edx
	movq	-8(%rbp), %rax
	movl	6396(%rax), %ecx
	movl	-28(%rbp), %r8d
	movl	-24(%rbp), %r9d
	movl	-12(%rbp), %eax
	movl	-20(%rbp), %r10d
	movl	-16(%rbp), %r11d
	movl	%eax, (%rsp)
	movl	%r10d, 8(%rsp)
	movl	%r11d, 16(%rsp)
	callq	img2buf
	movl	-44(%rbp), %edi
	movq	-40(%rbp), %rsi
	movq	-8(%rbp), %rax
	movl	6396(%rax), %eax
	subl	-16(%rbp), %eax
	subl	-20(%rbp), %eax
	movq	-8(%rbp), %rcx
	movl	6392(%rcx), %ecx
	subl	-12(%rbp), %ecx
	subl	-24(%rbp), %ecx
	imull	%ecx, %eax
	imull	-28(%rbp), %eax
	movslq	%eax, %rdx
	callq	write
	movq	-8(%rbp), %rax
	cmpl	$0, 6552(%rax)
	je	.LBB46_18
# %bb.15:                               # %if.then97
	movq	-8(%rbp), %rax
	movl	6564(%rax), %eax
	movl	%eax, -24(%rbp)
	movq	-8(%rbp), %rax
	movl	6568(%rax), %eax
	movl	%eax, -12(%rbp)
	movq	-8(%rbp), %rax
	movl	$2, %ecx
	movl	$2, %edx
	subl	6556(%rax), %edx
	movq	-8(%rbp), %rax
	imull	6572(%rax), %edx
	movl	%edx, -20(%rbp)
	movq	-8(%rbp), %rax
	subl	6556(%rax), %ecx
	movq	-8(%rbp), %rax
	imull	6576(%rax), %ecx
	movl	%ecx, -16(%rbp)
	movq	-8(%rbp), %rax
	movq	6464(%rax), %rax
	movq	(%rax), %rdi
	movq	-40(%rbp), %rsi
	movq	-8(%rbp), %rax
	movl	6400(%rax), %edx
	movq	-8(%rbp), %rax
	movl	6404(%rax), %ecx
	movl	-28(%rbp), %r8d
	movl	-24(%rbp), %r9d
	movl	-12(%rbp), %eax
	movl	-20(%rbp), %r10d
	movl	-16(%rbp), %r11d
	movl	%eax, (%rsp)
	movl	%r10d, 8(%rsp)
	movl	%r11d, 16(%rsp)
	callq	img2buf
	movl	-44(%rbp), %edi
	movq	-40(%rbp), %rsi
	movq	-8(%rbp), %rax
	movl	6404(%rax), %eax
	subl	-16(%rbp), %eax
	subl	-20(%rbp), %eax
	movq	-8(%rbp), %rcx
	movl	6400(%rcx), %ecx
	subl	-12(%rbp), %ecx
	subl	-24(%rbp), %ecx
	imull	%ecx, %eax
	imull	-28(%rbp), %eax
	movslq	%eax, %rdx
	callq	write
	cmpl	$0, -48(%rbp)
	jne	.LBB46_17
# %bb.16:                               # %if.then123
	movq	-8(%rbp), %rax
	movq	6464(%rax), %rax
	movq	8(%rax), %rdi
	movq	-40(%rbp), %rsi
	movq	-8(%rbp), %rax
	movl	6400(%rax), %edx
	movq	-8(%rbp), %rax
	movl	6404(%rax), %ecx
	movl	-28(%rbp), %r8d
	movl	-24(%rbp), %r9d
	movl	-12(%rbp), %eax
	movl	-20(%rbp), %r10d
	movl	-16(%rbp), %r11d
	movl	%eax, (%rsp)
	movl	%r10d, 8(%rsp)
	movl	%r11d, 16(%rsp)
	callq	img2buf
	movl	-44(%rbp), %edi
	movq	-40(%rbp), %rsi
	movq	-8(%rbp), %rax
	movl	6404(%rax), %eax
	subl	-16(%rbp), %eax
	subl	-20(%rbp), %eax
	movq	-8(%rbp), %rcx
	movl	6400(%rcx), %ecx
	subl	-12(%rbp), %ecx
	subl	-24(%rbp), %ecx
	imull	%ecx, %eax
	imull	-28(%rbp), %eax
	movslq	%eax, %rdx
	callq	write
.LBB46_17:                              # %if.end138
	jmp	.LBB46_18
.LBB46_18:                              # %if.end139
	movq	-40(%rbp), %rdi
	callq	free
.LBB46_19:                              # %return
	cmpl	$793946106, -52(%rbp)   # imm = 0x2F52A7FA
	jne	.LBB46_21
.LBB46_20:
	addq	$128, %rsp
	popq	%rbp
	.cfi_def_cfa %rsp, 8
	retq
.LBB46_21:                              # %func_exit
	.cfi_def_cfa %rbp, 16
	callq	detect_breach
	jmp	.LBB46_20
.Lfunc_end46:
	.size	write_out_picture.36, .Lfunc_end46-write_out_picture.36
	.cfi_endproc
                                        # -- End function
	.globl	write_out_picture.37    # -- Begin function write_out_picture.37
	.p2align	4, 0x90
	.type	write_out_picture.37,@function
write_out_picture.37:                   # @write_out_picture.37
	.cfi_startproc
# %bb.0:                                # %entry
	pushq	%rbp
	.cfi_def_cfa_offset 16
	.cfi_offset %rbp, -16
	movq	%rsp, %rbp
	.cfi_def_cfa_register %rbp
	subq	$128, %rsp
	xorl	%ecx, %ecx
	movl	$1707761445, -52(%rbp)  # imm = 0x65CA5F25
	movq	%rdi, -8(%rbp)
	movl	%esi, -44(%rbp)
	movq	.L__const.write_out_picture.SubWidthC, %rax
	movq	%rax, -96(%rbp)
	movq	.L__const.write_out_picture.SubWidthC+8, %rax
	movq	%rax, -88(%rbp)
	movq	.L__const.write_out_picture.SubHeightC, %rax
	movq	%rax, -80(%rbp)
	movq	.L__const.write_out_picture.SubHeightC+8, %rax
	movq	%rax, -72(%rbp)
	movq	img, %rax
	movl	72656(%rax), %eax
	cltd
	movl	$8, %esi
	idivl	%esi
	movl	%eax, -28(%rbp)
	movq	input, %rax
	cmpl	$0, 3312(%rax)
	je	.LBB47_2
# %bb.1:                                # %land.rhs
	movq	input, %rax
	cmpl	$3, 72(%rax)
	sete	%cl
.LBB47_2:                               # %land.end
	andb	$1, %cl
	movzbl	%cl, %eax
	movl	%eax, -48(%rbp)
	movq	-8(%rbp), %rax
	cmpl	$0, 6388(%rax)
	je	.LBB47_4
# %bb.3:                                # %if.then
	jmp	.LBB47_19
.LBB47_4:                               # %if.end
	movq	-8(%rbp), %rax
	cmpl	$0, 6560(%rax)
	je	.LBB47_6
# %bb.5:                                # %if.then3
	movq	-8(%rbp), %rax
	movslq	6552(%rax), %rax
	movl	-96(%rbp,%rax,4), %eax
	movq	-8(%rbp), %rcx
	imull	6564(%rcx), %eax
	movl	%eax, -16(%rbp)
	movq	-8(%rbp), %rax
	movslq	6552(%rax), %rax
	movl	-96(%rbp,%rax,4), %eax
	movq	-8(%rbp), %rcx
	imull	6568(%rcx), %eax
	movl	%eax, -24(%rbp)
	movq	-8(%rbp), %rax
	movslq	6552(%rax), %rax
	movl	-80(%rbp,%rax,4), %eax
	movq	-8(%rbp), %rcx
	movl	$2, %edx
	movl	$2, %esi
	subl	6556(%rcx), %esi
	imull	%esi, %eax
	movq	-8(%rbp), %rcx
	imull	6572(%rcx), %eax
	movl	%eax, -20(%rbp)
	movq	-8(%rbp), %rax
	movslq	6552(%rax), %rax
	movl	-80(%rbp,%rax,4), %eax
	movq	-8(%rbp), %rcx
	subl	6556(%rcx), %edx
	imull	%edx, %eax
	movq	-8(%rbp), %rcx
	imull	6576(%rcx), %eax
	movl	%eax, -12(%rbp)
	jmp	.LBB47_7
.LBB47_6:                               # %if.else
	movl	$0, -12(%rbp)
	movl	$0, -20(%rbp)
	movl	$0, -24(%rbp)
	movl	$0, -16(%rbp)
.LBB47_7:                               # %if.end20
	movq	-8(%rbp), %rax
	movl	6392(%rax), %eax
	movq	-8(%rbp), %rcx
	imull	6396(%rcx), %eax
	imull	-28(%rbp), %eax
	movslq	%eax, %rdi
	callq	malloc
	xorl	%ecx, %ecx
	movq	%rax, -40(%rbp)
	cmpq	%rax, %rcx
	jne	.LBB47_9
# %bb.8:                                # %if.then25
	movabsq	$.L.str.1, %rdi
	callq	no_mem_exit
.LBB47_9:                               # %if.end26
	cmpl	$0, -48(%rbp)
	je	.LBB47_14
# %bb.10:                               # %if.then28
	movq	-8(%rbp), %rax
	movl	6564(%rax), %eax
	movl	%eax, -16(%rbp)
	movq	-8(%rbp), %rax
	movl	6568(%rax), %eax
	movl	%eax, -24(%rbp)
	movq	-8(%rbp), %rax
	movl	$2, %ecx
	movl	$2, %edx
	subl	6556(%rax), %edx
	movq	-8(%rbp), %rax
	imull	6572(%rax), %edx
	movl	%edx, -20(%rbp)
	movq	-8(%rbp), %rax
	subl	6556(%rax), %ecx
	movq	-8(%rbp), %rax
	imull	6576(%rax), %ecx
	movl	%ecx, -12(%rbp)
	movq	-8(%rbp), %rax
	movq	6464(%rax), %rax
	movq	8(%rax), %rdi
	movq	-40(%rbp), %rsi
	movq	-8(%rbp), %rax
	movl	6400(%rax), %edx
	movq	-8(%rbp), %rax
	movl	6404(%rax), %ecx
	movl	-28(%rbp), %r8d
	movl	-16(%rbp), %r9d
	movl	-24(%rbp), %eax
	movl	-20(%rbp), %r10d
	movl	-12(%rbp), %r11d
	movl	%eax, (%rsp)
	movl	%r10d, 8(%rsp)
	movl	%r11d, 16(%rsp)
	callq	img2buf
	movl	-44(%rbp), %edi
	movq	-40(%rbp), %rsi
	movq	-8(%rbp), %rax
	movl	6404(%rax), %eax
	subl	-12(%rbp), %eax
	subl	-20(%rbp), %eax
	movq	-8(%rbp), %rcx
	movl	6400(%rcx), %ecx
	subl	-24(%rbp), %ecx
	subl	-16(%rbp), %ecx
	imull	%ecx, %eax
	imull	-28(%rbp), %eax
	movslq	%eax, %rdx
	callq	write
	movq	active_sps, %rax
	cmpl	$0, 1160(%rax)
	je	.LBB47_12
# %bb.11:                               # %if.then52
	movq	-8(%rbp), %rax
	movslq	6552(%rax), %rax
	movl	-96(%rbp,%rax,4), %eax
	movq	-8(%rbp), %rcx
	imull	6564(%rcx), %eax
	movl	%eax, -16(%rbp)
	movq	-8(%rbp), %rax
	movslq	6552(%rax), %rax
	movl	-96(%rbp,%rax,4), %eax
	movq	-8(%rbp), %rcx
	imull	6568(%rcx), %eax
	movl	%eax, -24(%rbp)
	movq	-8(%rbp), %rax
	movslq	6552(%rax), %rax
	movl	-80(%rbp,%rax,4), %eax
	movq	-8(%rbp), %rcx
	movl	$2, %edx
	movl	$2, %esi
	subl	6556(%rcx), %esi
	imull	%esi, %eax
	movq	-8(%rbp), %rcx
	imull	6572(%rcx), %eax
	movl	%eax, -20(%rbp)
	movq	-8(%rbp), %rax
	movslq	6552(%rax), %rax
	movl	-80(%rbp,%rax,4), %eax
	movq	-8(%rbp), %rcx
	subl	6556(%rcx), %edx
	imull	%edx, %eax
	movq	-8(%rbp), %rcx
	imull	6576(%rcx), %eax
	movl	%eax, -12(%rbp)
	jmp	.LBB47_13
.LBB47_12:                              # %if.else79
	movl	$0, -12(%rbp)
	movl	$0, -20(%rbp)
	movl	$0, -24(%rbp)
	movl	$0, -16(%rbp)
.LBB47_13:                              # %if.end80
	jmp	.LBB47_14
.LBB47_14:                              # %if.end81
	movq	-8(%rbp), %rax
	movq	6424(%rax), %rdi
	movq	-40(%rbp), %rsi
	movq	-8(%rbp), %rax
	movl	6392(%rax), %edx
	movq	-8(%rbp), %rax
	movl	6396(%rax), %ecx
	movl	-28(%rbp), %r8d
	movl	-16(%rbp), %r9d
	movl	-24(%rbp), %eax
	movl	-20(%rbp), %r10d
	movl	-12(%rbp), %r11d
	movl	%eax, (%rsp)
	movl	%r10d, 8(%rsp)
	movl	%r11d, 16(%rsp)
	callq	img2buf
	movl	-44(%rbp), %edi
	movq	-40(%rbp), %rsi
	movq	-8(%rbp), %rax
	movl	6396(%rax), %eax
	subl	-12(%rbp), %eax
	subl	-20(%rbp), %eax
	movq	-8(%rbp), %rcx
	movl	6392(%rcx), %ecx
	subl	-24(%rbp), %ecx
	subl	-16(%rbp), %ecx
	imull	%ecx, %eax
	imull	-28(%rbp), %eax
	movslq	%eax, %rdx
	callq	write
	movq	-8(%rbp), %rax
	cmpl	$0, 6552(%rax)
	je	.LBB47_18
# %bb.15:                               # %if.then97
	movq	-8(%rbp), %rax
	movl	6564(%rax), %eax
	movl	%eax, -16(%rbp)
	movq	-8(%rbp), %rax
	movl	6568(%rax), %eax
	movl	%eax, -24(%rbp)
	movq	-8(%rbp), %rax
	movl	$2, %ecx
	movl	$2, %edx
	subl	6556(%rax), %edx
	movq	-8(%rbp), %rax
	imull	6572(%rax), %edx
	movl	%edx, -20(%rbp)
	movq	-8(%rbp), %rax
	subl	6556(%rax), %ecx
	movq	-8(%rbp), %rax
	imull	6576(%rax), %ecx
	movl	%ecx, -12(%rbp)
	movq	-8(%rbp), %rax
	movq	6464(%rax), %rax
	movq	(%rax), %rdi
	movq	-40(%rbp), %rsi
	movq	-8(%rbp), %rax
	movl	6400(%rax), %edx
	movq	-8(%rbp), %rax
	movl	6404(%rax), %ecx
	movl	-28(%rbp), %r8d
	movl	-16(%rbp), %r9d
	movl	-24(%rbp), %eax
	movl	-20(%rbp), %r10d
	movl	-12(%rbp), %r11d
	movl	%eax, (%rsp)
	movl	%r10d, 8(%rsp)
	movl	%r11d, 16(%rsp)
	callq	img2buf
	movl	-44(%rbp), %edi
	movq	-40(%rbp), %rsi
	movq	-8(%rbp), %rax
	movl	6404(%rax), %eax
	subl	-12(%rbp), %eax
	subl	-20(%rbp), %eax
	movq	-8(%rbp), %rcx
	movl	6400(%rcx), %ecx
	subl	-24(%rbp), %ecx
	subl	-16(%rbp), %ecx
	imull	%ecx, %eax
	imull	-28(%rbp), %eax
	movslq	%eax, %rdx
	callq	write
	cmpl	$0, -48(%rbp)
	jne	.LBB47_17
# %bb.16:                               # %if.then123
	movq	-8(%rbp), %rax
	movq	6464(%rax), %rax
	movq	8(%rax), %rdi
	movq	-40(%rbp), %rsi
	movq	-8(%rbp), %rax
	movl	6400(%rax), %edx
	movq	-8(%rbp), %rax
	movl	6404(%rax), %ecx
	movl	-28(%rbp), %r8d
	movl	-16(%rbp), %r9d
	movl	-24(%rbp), %eax
	movl	-20(%rbp), %r10d
	movl	-12(%rbp), %r11d
	movl	%eax, (%rsp)
	movl	%r10d, 8(%rsp)
	movl	%r11d, 16(%rsp)
	callq	img2buf
	movl	-44(%rbp), %edi
	movq	-40(%rbp), %rsi
	movq	-8(%rbp), %rax
	movl	6404(%rax), %eax
	subl	-12(%rbp), %eax
	subl	-20(%rbp), %eax
	movq	-8(%rbp), %rcx
	movl	6400(%rcx), %ecx
	subl	-24(%rbp), %ecx
	subl	-16(%rbp), %ecx
	imull	%ecx, %eax
	imull	-28(%rbp), %eax
	movslq	%eax, %rdx
	callq	write
.LBB47_17:                              # %if.end138
	jmp	.LBB47_18
.LBB47_18:                              # %if.end139
	movq	-40(%rbp), %rdi
	callq	free
.LBB47_19:                              # %return
	cmpl	$1707761445, -52(%rbp)  # imm = 0x65CA5F25
	jne	.LBB47_21
.LBB47_20:
	addq	$128, %rsp
	popq	%rbp
	.cfi_def_cfa %rsp, 8
	retq
.LBB47_21:                              # %func_exit
	.cfi_def_cfa %rbp, 16
	callq	detect_breach
	jmp	.LBB47_20
.Lfunc_end47:
	.size	write_out_picture.37, .Lfunc_end47-write_out_picture.37
	.cfi_endproc
                                        # -- End function
	.globl	img2buf.38              # -- Begin function img2buf.38
	.p2align	4, 0x90
	.type	img2buf.38,@function
img2buf.38:                             # @img2buf.38
	.cfi_startproc
# %bb.0:                                # %entry
	pushq	%rbp
	.cfi_def_cfa_offset 16
	.cfi_offset %rbp, -16
	movq	%rsp, %rbp
	.cfi_def_cfa_register %rbp
	subq	$96, %rsp
	movl	32(%rbp), %eax
	movl	24(%rbp), %eax
	movl	16(%rbp), %eax
	movl	$1676202527, -76(%rbp)  # imm = 0x63E8D21F
	movq	%rdi, -64(%rbp)
	movq	%rsi, -56(%rbp)
	movl	%edx, -24(%rbp)
	movl	%ecx, -32(%rbp)
	movl	%r8d, -28(%rbp)
	movl	%r9d, -12(%rbp)
	movl	-24(%rbp), %eax
	subl	-12(%rbp), %eax
	subl	16(%rbp), %eax
	movl	%eax, -20(%rbp)
	movl	-32(%rbp), %eax
	subl	24(%rbp), %eax
	subl	32(%rbp), %eax
	movl	%eax, -80(%rbp)
	movl	$0, -40(%rbp)
	callq	testEndian
	cmpl	$0, %eax
	je	.LBB48_33
# %bb.1:                                # %if.then
	movl	-28(%rbp), %eax
	movl	%eax, %ecx
	subl	$1, %ecx
	je	.LBB48_4
	jmp	.LBB48_2
.LBB48_2:                               # %if.then
	movl	%eax, %ecx
	subl	$2, %ecx
	je	.LBB48_13
	jmp	.LBB48_3
.LBB48_3:                               # %if.then
	subl	$4, %eax
	je	.LBB48_22
	jmp	.LBB48_31
.LBB48_4:                               # %sw.bb
	movl	24(%rbp), %eax
	movl	%eax, -4(%rbp)
.LBB48_5:                               # %for.cond
                                        # =>This Loop Header: Depth=1
                                        #     Child Loop BB48_7 Depth 2
	movl	-4(%rbp), %eax
	movl	-32(%rbp), %ecx
	subl	32(%rbp), %ecx
	cmpl	%ecx, %eax
	jge	.LBB48_12
# %bb.6:                                # %for.body
                                        #   in Loop: Header=BB48_5 Depth=1
	movl	-12(%rbp), %eax
	movl	%eax, -8(%rbp)
.LBB48_7:                               # %for.cond5
                                        #   Parent Loop BB48_5 Depth=1
                                        # =>  This Inner Loop Header: Depth=2
	movl	-8(%rbp), %eax
	movl	-24(%rbp), %ecx
	subl	16(%rbp), %ecx
	cmpl	%ecx, %eax
	jge	.LBB48_10
# %bb.8:                                # %for.body8
                                        #   in Loop: Header=BB48_7 Depth=2
	movq	-64(%rbp), %rax
	movslq	-4(%rbp), %rcx
	movq	(%rax,%rcx,8), %rax
	movslq	-8(%rbp), %rcx
	movw	(%rax,%rcx,2), %ax
	movb	%al, -13(%rbp)
	movb	-13(%rbp), %al
	movq	-56(%rbp), %rcx
	movl	-8(%rbp), %edx
	subl	-12(%rbp), %edx
	movl	-4(%rbp), %esi
	subl	24(%rbp), %esi
	imull	-20(%rbp), %esi
	addl	%esi, %edx
	movslq	%edx, %rdx
	movb	%al, (%rcx,%rdx)
# %bb.9:                                # %for.inc
                                        #   in Loop: Header=BB48_7 Depth=2
	movl	-8(%rbp), %eax
	addl	$1, %eax
	movl	%eax, -8(%rbp)
	jmp	.LBB48_7
.LBB48_10:                              # %for.end
                                        #   in Loop: Header=BB48_5 Depth=1
	jmp	.LBB48_11
.LBB48_11:                              # %for.inc15
                                        #   in Loop: Header=BB48_5 Depth=1
	movl	-4(%rbp), %eax
	addl	$1, %eax
	movl	%eax, -4(%rbp)
	jmp	.LBB48_5
.LBB48_12:                              # %for.end17
	jmp	.LBB48_32
.LBB48_13:                              # %sw.bb18
	movl	24(%rbp), %eax
	movl	%eax, -4(%rbp)
.LBB48_14:                              # %for.cond19
                                        # =>This Loop Header: Depth=1
                                        #     Child Loop BB48_16 Depth 2
	movl	-4(%rbp), %eax
	movl	-32(%rbp), %ecx
	subl	32(%rbp), %ecx
	cmpl	%ecx, %eax
	jge	.LBB48_21
# %bb.15:                               # %for.body23
                                        #   in Loop: Header=BB48_14 Depth=1
	movl	-12(%rbp), %eax
	movl	%eax, -8(%rbp)
.LBB48_16:                              # %for.cond24
                                        #   Parent Loop BB48_14 Depth=1
                                        # =>  This Inner Loop Header: Depth=2
	movl	-8(%rbp), %eax
	movl	-24(%rbp), %ecx
	subl	16(%rbp), %ecx
	cmpl	%ecx, %eax
	jge	.LBB48_19
# %bb.17:                               # %for.body28
                                        #   in Loop: Header=BB48_16 Depth=2
	movq	-64(%rbp), %rax
	movslq	-4(%rbp), %rcx
	movq	(%rax,%rcx,8), %rax
	movslq	-8(%rbp), %rcx
	movw	(%rax,%rcx,2), %ax
	movw	%ax, -34(%rbp)
	movzwl	-34(%rbp), %eax
	sarl	$8, %eax
	movzwl	-34(%rbp), %ecx
	andl	$255, %ecx
	shll	$8, %ecx
	orl	%ecx, %eax
	movw	%ax, -42(%rbp)
	movq	-56(%rbp), %rax
	movl	-8(%rbp), %ecx
	subl	-12(%rbp), %ecx
	movl	-4(%rbp), %edx
	subl	24(%rbp), %edx
	imull	-20(%rbp), %edx
	addl	%edx, %ecx
	shll	$1, %ecx
	movslq	%ecx, %rcx
	movw	-42(%rbp), %dx
	movw	%dx, (%rax,%rcx)
# %bb.18:                               # %for.inc41
                                        #   in Loop: Header=BB48_16 Depth=2
	movl	-8(%rbp), %eax
	addl	$1, %eax
	movl	%eax, -8(%rbp)
	jmp	.LBB48_16
.LBB48_19:                              # %for.end43
                                        #   in Loop: Header=BB48_14 Depth=1
	jmp	.LBB48_20
.LBB48_20:                              # %for.inc44
                                        #   in Loop: Header=BB48_14 Depth=1
	movl	-4(%rbp), %eax
	addl	$1, %eax
	movl	%eax, -4(%rbp)
	jmp	.LBB48_14
.LBB48_21:                              # %for.end46
	jmp	.LBB48_32
.LBB48_22:                              # %sw.bb47
	movl	24(%rbp), %eax
	movl	%eax, -4(%rbp)
.LBB48_23:                              # %for.cond48
                                        # =>This Loop Header: Depth=1
                                        #     Child Loop BB48_25 Depth 2
	movl	-4(%rbp), %eax
	movl	-32(%rbp), %ecx
	subl	32(%rbp), %ecx
	cmpl	%ecx, %eax
	jge	.LBB48_30
# %bb.24:                               # %for.body52
                                        #   in Loop: Header=BB48_23 Depth=1
	movl	-12(%rbp), %eax
	movl	%eax, -8(%rbp)
.LBB48_25:                              # %for.cond53
                                        #   Parent Loop BB48_23 Depth=1
                                        # =>  This Inner Loop Header: Depth=2
	movl	-8(%rbp), %eax
	movl	-24(%rbp), %ecx
	subl	16(%rbp), %ecx
	cmpl	%ecx, %eax
	jge	.LBB48_28
# %bb.26:                               # %for.body57
                                        #   in Loop: Header=BB48_25 Depth=2
	movq	-64(%rbp), %rax
	movslq	-4(%rbp), %rcx
	movq	(%rax,%rcx,8), %rax
	movslq	-8(%rbp), %rcx
	movzwl	(%rax,%rcx,2), %eax
	movq	%rax, -72(%rbp)
	movq	-72(%rbp), %rax
	andq	$65280, %rax            # imm = 0xFF00
	shlq	$8, %rax
	movq	-72(%rbp), %rcx
	andq	$255, %rcx
	shlq	$24, %rcx
	orq	%rcx, %rax
	movq	-72(%rbp), %rcx
	andq	$16711680, %rcx         # imm = 0xFF0000
	shrq	$8, %rcx
	orq	%rcx, %rax
	movl	$4278190080, %ecx       # imm = 0xFF000000
	andq	-72(%rbp), %rcx
	shrq	$24, %rcx
	orq	%rcx, %rax
	movq	%rax, -88(%rbp)
	movq	-56(%rbp), %rax
	movl	-8(%rbp), %ecx
	subl	-12(%rbp), %ecx
	movl	-4(%rbp), %edx
	subl	24(%rbp), %edx
	imull	-20(%rbp), %edx
	addl	%edx, %ecx
	shll	$2, %ecx
	movslq	%ecx, %rcx
	movl	-88(%rbp), %edx
	movl	%edx, (%rax,%rcx)
# %bb.27:                               # %for.inc81
                                        #   in Loop: Header=BB48_25 Depth=2
	movl	-8(%rbp), %eax
	addl	$1, %eax
	movl	%eax, -8(%rbp)
	jmp	.LBB48_25
.LBB48_28:                              # %for.end83
                                        #   in Loop: Header=BB48_23 Depth=1
	jmp	.LBB48_29
.LBB48_29:                              # %for.inc84
                                        #   in Loop: Header=BB48_23 Depth=1
	movl	-4(%rbp), %eax
	addl	$1, %eax
	movl	%eax, -4(%rbp)
	jmp	.LBB48_23
.LBB48_30:                              # %for.end86
	jmp	.LBB48_32
.LBB48_31:                              # %sw.default
	movabsq	$.L.str, %rdi
	movl	$500, %esi              # imm = 0x1F4
	callq	error
.LBB48_32:                              # %sw.epilog
	jmp	.LBB48_45
.LBB48_33:                              # %if.else
	movslq	-28(%rbp), %rax
	movl	$2, %ecx
	cmpq	%rax, %rcx
	jae	.LBB48_35
# %bb.34:                               # %if.then90
	movl	$2, -40(%rbp)
	movq	-56(%rbp), %rdi
	movl	-20(%rbp), %eax
	imull	-80(%rbp), %eax
	imull	-28(%rbp), %eax
	movslq	%eax, %rdx
	xorl	%esi, %esi
	callq	memset
	jmp	.LBB48_36
.LBB48_35:                              # %if.else94
	movl	-28(%rbp), %eax
	movl	%eax, -40(%rbp)
.LBB48_36:                              # %if.end
	movl	24(%rbp), %eax
	movl	%eax, -4(%rbp)
.LBB48_37:                              # %for.cond95
                                        # =>This Loop Header: Depth=1
                                        #     Child Loop BB48_39 Depth 2
	movl	-4(%rbp), %eax
	movl	-32(%rbp), %ecx
	subl	32(%rbp), %ecx
	cmpl	%ecx, %eax
	jge	.LBB48_44
# %bb.38:                               # %for.body99
                                        #   in Loop: Header=BB48_37 Depth=1
	movl	-12(%rbp), %eax
	movl	%eax, -8(%rbp)
.LBB48_39:                              # %for.cond100
                                        #   Parent Loop BB48_37 Depth=1
                                        # =>  This Inner Loop Header: Depth=2
	movl	-8(%rbp), %eax
	movl	-24(%rbp), %ecx
	subl	16(%rbp), %ecx
	cmpl	%ecx, %eax
	jge	.LBB48_42
# %bb.40:                               # %for.body104
                                        #   in Loop: Header=BB48_39 Depth=2
	movq	-56(%rbp), %rdi
	movl	-8(%rbp), %eax
	subl	-12(%rbp), %eax
	movl	-4(%rbp), %ecx
	subl	24(%rbp), %ecx
	imull	-20(%rbp), %ecx
	addl	%ecx, %eax
	imull	-28(%rbp), %eax
	cltq
	addq	%rax, %rdi
	movq	-64(%rbp), %rax
	movslq	-4(%rbp), %rcx
	movq	(%rax,%rcx,8), %rsi
	movslq	-8(%rbp), %rax
	shlq	$1, %rax
	addq	%rax, %rsi
	movslq	-40(%rbp), %rdx
	callq	memcpy
# %bb.41:                               # %for.inc117
                                        #   in Loop: Header=BB48_39 Depth=2
	movl	-8(%rbp), %eax
	addl	$1, %eax
	movl	%eax, -8(%rbp)
	jmp	.LBB48_39
.LBB48_42:                              # %for.end119
                                        #   in Loop: Header=BB48_37 Depth=1
	jmp	.LBB48_43
.LBB48_43:                              # %for.inc120
                                        #   in Loop: Header=BB48_37 Depth=1
	movl	-4(%rbp), %eax
	addl	$1, %eax
	movl	%eax, -4(%rbp)
	jmp	.LBB48_37
.LBB48_44:                              # %for.end122
	jmp	.LBB48_45
.LBB48_45:                              # %if.end123
	cmpl	$1676202527, -76(%rbp)  # imm = 0x63E8D21F
	jne	.LBB48_47
.LBB48_46:
	addq	$96, %rsp
	popq	%rbp
	.cfi_def_cfa %rsp, 8
	retq
.LBB48_47:                              # %func_exit
	.cfi_def_cfa %rbp, 16
	callq	detect_breach
	jmp	.LBB48_46
.Lfunc_end48:
	.size	img2buf.38, .Lfunc_end48-img2buf.38
	.cfi_endproc
                                        # -- End function
	.globl	write_out_picture.39    # -- Begin function write_out_picture.39
	.p2align	4, 0x90
	.type	write_out_picture.39,@function
write_out_picture.39:                   # @write_out_picture.39
	.cfi_startproc
# %bb.0:                                # %entry
	pushq	%rbp
	.cfi_def_cfa_offset 16
	.cfi_offset %rbp, -16
	movq	%rsp, %rbp
	.cfi_def_cfa_register %rbp
	subq	$128, %rsp
	xorl	%ecx, %ecx
	movl	$1486039754, -52(%rbp)  # imm = 0x58932ACA
	movq	%rdi, -8(%rbp)
	movl	%esi, -44(%rbp)
	movq	.L__const.write_out_picture.SubWidthC, %rax
	movq	%rax, -96(%rbp)
	movq	.L__const.write_out_picture.SubWidthC+8, %rax
	movq	%rax, -88(%rbp)
	movq	.L__const.write_out_picture.SubHeightC, %rax
	movq	%rax, -80(%rbp)
	movq	.L__const.write_out_picture.SubHeightC+8, %rax
	movq	%rax, -72(%rbp)
	movq	img, %rax
	movl	72656(%rax), %eax
	cltd
	movl	$8, %esi
	idivl	%esi
	movl	%eax, -28(%rbp)
	movq	input, %rax
	cmpl	$0, 3312(%rax)
	je	.LBB49_2
# %bb.1:                                # %land.rhs
	movq	input, %rax
	cmpl	$3, 72(%rax)
	sete	%cl
.LBB49_2:                               # %land.end
	andb	$1, %cl
	movzbl	%cl, %eax
	movl	%eax, -48(%rbp)
	movq	-8(%rbp), %rax
	cmpl	$0, 6388(%rax)
	je	.LBB49_4
# %bb.3:                                # %if.then
	jmp	.LBB49_19
.LBB49_4:                               # %if.end
	movq	-8(%rbp), %rax
	cmpl	$0, 6560(%rax)
	je	.LBB49_6
# %bb.5:                                # %if.then3
	movq	-8(%rbp), %rax
	movslq	6552(%rax), %rax
	movl	-96(%rbp,%rax,4), %eax
	movq	-8(%rbp), %rcx
	imull	6564(%rcx), %eax
	movl	%eax, -24(%rbp)
	movq	-8(%rbp), %rax
	movslq	6552(%rax), %rax
	movl	-96(%rbp,%rax,4), %eax
	movq	-8(%rbp), %rcx
	imull	6568(%rcx), %eax
	movl	%eax, -16(%rbp)
	movq	-8(%rbp), %rax
	movslq	6552(%rax), %rax
	movl	-80(%rbp,%rax,4), %eax
	movq	-8(%rbp), %rcx
	movl	$2, %edx
	movl	$2, %esi
	subl	6556(%rcx), %esi
	imull	%esi, %eax
	movq	-8(%rbp), %rcx
	imull	6572(%rcx), %eax
	movl	%eax, -20(%rbp)
	movq	-8(%rbp), %rax
	movslq	6552(%rax), %rax
	movl	-80(%rbp,%rax,4), %eax
	movq	-8(%rbp), %rcx
	subl	6556(%rcx), %edx
	imull	%edx, %eax
	movq	-8(%rbp), %rcx
	imull	6576(%rcx), %eax
	movl	%eax, -12(%rbp)
	jmp	.LBB49_7
.LBB49_6:                               # %if.else
	movl	$0, -12(%rbp)
	movl	$0, -20(%rbp)
	movl	$0, -16(%rbp)
	movl	$0, -24(%rbp)
.LBB49_7:                               # %if.end20
	movq	-8(%rbp), %rax
	movl	6392(%rax), %eax
	movq	-8(%rbp), %rcx
	imull	6396(%rcx), %eax
	imull	-28(%rbp), %eax
	movslq	%eax, %rdi
	callq	malloc
	xorl	%ecx, %ecx
	movq	%rax, -40(%rbp)
	cmpq	%rax, %rcx
	jne	.LBB49_9
# %bb.8:                                # %if.then25
	movabsq	$.L.str.1, %rdi
	callq	no_mem_exit
.LBB49_9:                               # %if.end26
	cmpl	$0, -48(%rbp)
	je	.LBB49_14
# %bb.10:                               # %if.then28
	movq	-8(%rbp), %rax
	movl	6564(%rax), %eax
	movl	%eax, -24(%rbp)
	movq	-8(%rbp), %rax
	movl	6568(%rax), %eax
	movl	%eax, -16(%rbp)
	movq	-8(%rbp), %rax
	movl	$2, %ecx
	movl	$2, %edx
	subl	6556(%rax), %edx
	movq	-8(%rbp), %rax
	imull	6572(%rax), %edx
	movl	%edx, -20(%rbp)
	movq	-8(%rbp), %rax
	subl	6556(%rax), %ecx
	movq	-8(%rbp), %rax
	imull	6576(%rax), %ecx
	movl	%ecx, -12(%rbp)
	movq	-8(%rbp), %rax
	movq	6464(%rax), %rax
	movq	8(%rax), %rdi
	movq	-40(%rbp), %rsi
	movq	-8(%rbp), %rax
	movl	6400(%rax), %edx
	movq	-8(%rbp), %rax
	movl	6404(%rax), %ecx
	movl	-28(%rbp), %r8d
	movl	-24(%rbp), %r9d
	movl	-16(%rbp), %eax
	movl	-20(%rbp), %r10d
	movl	-12(%rbp), %r11d
	movl	%eax, (%rsp)
	movl	%r10d, 8(%rsp)
	movl	%r11d, 16(%rsp)
	callq	img2buf
	movl	-44(%rbp), %edi
	movq	-40(%rbp), %rsi
	movq	-8(%rbp), %rax
	movl	6404(%rax), %eax
	subl	-12(%rbp), %eax
	subl	-20(%rbp), %eax
	movq	-8(%rbp), %rcx
	movl	6400(%rcx), %ecx
	subl	-16(%rbp), %ecx
	subl	-24(%rbp), %ecx
	imull	%ecx, %eax
	imull	-28(%rbp), %eax
	movslq	%eax, %rdx
	callq	write
	movq	active_sps, %rax
	cmpl	$0, 1160(%rax)
	je	.LBB49_12
# %bb.11:                               # %if.then52
	movq	-8(%rbp), %rax
	movslq	6552(%rax), %rax
	movl	-96(%rbp,%rax,4), %eax
	movq	-8(%rbp), %rcx
	imull	6564(%rcx), %eax
	movl	%eax, -24(%rbp)
	movq	-8(%rbp), %rax
	movslq	6552(%rax), %rax
	movl	-96(%rbp,%rax,4), %eax
	movq	-8(%rbp), %rcx
	imull	6568(%rcx), %eax
	movl	%eax, -16(%rbp)
	movq	-8(%rbp), %rax
	movslq	6552(%rax), %rax
	movl	-80(%rbp,%rax,4), %eax
	movq	-8(%rbp), %rcx
	movl	$2, %edx
	movl	$2, %esi
	subl	6556(%rcx), %esi
	imull	%esi, %eax
	movq	-8(%rbp), %rcx
	imull	6572(%rcx), %eax
	movl	%eax, -20(%rbp)
	movq	-8(%rbp), %rax
	movslq	6552(%rax), %rax
	movl	-80(%rbp,%rax,4), %eax
	movq	-8(%rbp), %rcx
	subl	6556(%rcx), %edx
	imull	%edx, %eax
	movq	-8(%rbp), %rcx
	imull	6576(%rcx), %eax
	movl	%eax, -12(%rbp)
	jmp	.LBB49_13
.LBB49_12:                              # %if.else79
	movl	$0, -12(%rbp)
	movl	$0, -20(%rbp)
	movl	$0, -16(%rbp)
	movl	$0, -24(%rbp)
.LBB49_13:                              # %if.end80
	jmp	.LBB49_14
.LBB49_14:                              # %if.end81
	movq	-8(%rbp), %rax
	movq	6424(%rax), %rdi
	movq	-40(%rbp), %rsi
	movq	-8(%rbp), %rax
	movl	6392(%rax), %edx
	movq	-8(%rbp), %rax
	movl	6396(%rax), %ecx
	movl	-28(%rbp), %r8d
	movl	-24(%rbp), %r9d
	movl	-16(%rbp), %eax
	movl	-20(%rbp), %r10d
	movl	-12(%rbp), %r11d
	movl	%eax, (%rsp)
	movl	%r10d, 8(%rsp)
	movl	%r11d, 16(%rsp)
	callq	img2buf
	movl	-44(%rbp), %edi
	movq	-40(%rbp), %rsi
	movq	-8(%rbp), %rax
	movl	6396(%rax), %eax
	subl	-12(%rbp), %eax
	subl	-20(%rbp), %eax
	movq	-8(%rbp), %rcx
	movl	6392(%rcx), %ecx
	subl	-16(%rbp), %ecx
	subl	-24(%rbp), %ecx
	imull	%ecx, %eax
	imull	-28(%rbp), %eax
	movslq	%eax, %rdx
	callq	write
	movq	-8(%rbp), %rax
	cmpl	$0, 6552(%rax)
	je	.LBB49_18
# %bb.15:                               # %if.then97
	movq	-8(%rbp), %rax
	movl	6564(%rax), %eax
	movl	%eax, -24(%rbp)
	movq	-8(%rbp), %rax
	movl	6568(%rax), %eax
	movl	%eax, -16(%rbp)
	movq	-8(%rbp), %rax
	movl	$2, %ecx
	movl	$2, %edx
	subl	6556(%rax), %edx
	movq	-8(%rbp), %rax
	imull	6572(%rax), %edx
	movl	%edx, -20(%rbp)
	movq	-8(%rbp), %rax
	subl	6556(%rax), %ecx
	movq	-8(%rbp), %rax
	imull	6576(%rax), %ecx
	movl	%ecx, -12(%rbp)
	movq	-8(%rbp), %rax
	movq	6464(%rax), %rax
	movq	(%rax), %rdi
	movq	-40(%rbp), %rsi
	movq	-8(%rbp), %rax
	movl	6400(%rax), %edx
	movq	-8(%rbp), %rax
	movl	6404(%rax), %ecx
	movl	-28(%rbp), %r8d
	movl	-24(%rbp), %r9d
	movl	-16(%rbp), %eax
	movl	-20(%rbp), %r10d
	movl	-12(%rbp), %r11d
	movl	%eax, (%rsp)
	movl	%r10d, 8(%rsp)
	movl	%r11d, 16(%rsp)
	callq	img2buf
	movl	-44(%rbp), %edi
	movq	-40(%rbp), %rsi
	movq	-8(%rbp), %rax
	movl	6404(%rax), %eax
	subl	-12(%rbp), %eax
	subl	-20(%rbp), %eax
	movq	-8(%rbp), %rcx
	movl	6400(%rcx), %ecx
	subl	-16(%rbp), %ecx
	subl	-24(%rbp), %ecx
	imull	%ecx, %eax
	imull	-28(%rbp), %eax
	movslq	%eax, %rdx
	callq	write
	cmpl	$0, -48(%rbp)
	jne	.LBB49_17
# %bb.16:                               # %if.then123
	movq	-8(%rbp), %rax
	movq	6464(%rax), %rax
	movq	8(%rax), %rdi
	movq	-40(%rbp), %rsi
	movq	-8(%rbp), %rax
	movl	6400(%rax), %edx
	movq	-8(%rbp), %rax
	movl	6404(%rax), %ecx
	movl	-28(%rbp), %r8d
	movl	-24(%rbp), %r9d
	movl	-16(%rbp), %eax
	movl	-20(%rbp), %r10d
	movl	-12(%rbp), %r11d
	movl	%eax, (%rsp)
	movl	%r10d, 8(%rsp)
	movl	%r11d, 16(%rsp)
	callq	img2buf
	movl	-44(%rbp), %edi
	movq	-40(%rbp), %rsi
	movq	-8(%rbp), %rax
	movl	6404(%rax), %eax
	subl	-12(%rbp), %eax
	subl	-20(%rbp), %eax
	movq	-8(%rbp), %rcx
	movl	6400(%rcx), %ecx
	subl	-16(%rbp), %ecx
	subl	-24(%rbp), %ecx
	imull	%ecx, %eax
	imull	-28(%rbp), %eax
	movslq	%eax, %rdx
	callq	write
.LBB49_17:                              # %if.end138
	jmp	.LBB49_18
.LBB49_18:                              # %if.end139
	movq	-40(%rbp), %rdi
	callq	free
.LBB49_19:                              # %return
	cmpl	$1486039754, -52(%rbp)  # imm = 0x58932ACA
	jne	.LBB49_21
.LBB49_20:
	addq	$128, %rsp
	popq	%rbp
	.cfi_def_cfa %rsp, 8
	retq
.LBB49_21:                              # %func_exit
	.cfi_def_cfa %rbp, 16
	callq	detect_breach
	jmp	.LBB49_20
.Lfunc_end49:
	.size	write_out_picture.39, .Lfunc_end49-write_out_picture.39
	.cfi_endproc
                                        # -- End function
	.globl	write_out_picture.40    # -- Begin function write_out_picture.40
	.p2align	4, 0x90
	.type	write_out_picture.40,@function
write_out_picture.40:                   # @write_out_picture.40
	.cfi_startproc
# %bb.0:                                # %entry
	pushq	%rbp
	.cfi_def_cfa_offset 16
	.cfi_offset %rbp, -16
	movq	%rsp, %rbp
	.cfi_def_cfa_register %rbp
	subq	$128, %rsp
	xorl	%ecx, %ecx
	movl	$1210045843, -52(%rbp)  # imm = 0x481FD593
	movq	%rdi, -8(%rbp)
	movl	%esi, -44(%rbp)
	movq	.L__const.write_out_picture.SubWidthC, %rax
	movq	%rax, -96(%rbp)
	movq	.L__const.write_out_picture.SubWidthC+8, %rax
	movq	%rax, -88(%rbp)
	movq	.L__const.write_out_picture.SubHeightC, %rax
	movq	%rax, -80(%rbp)
	movq	.L__const.write_out_picture.SubHeightC+8, %rax
	movq	%rax, -72(%rbp)
	movq	img, %rax
	movl	72656(%rax), %eax
	cltd
	movl	$8, %esi
	idivl	%esi
	movl	%eax, -28(%rbp)
	movq	input, %rax
	cmpl	$0, 3312(%rax)
	je	.LBB50_2
# %bb.1:                                # %land.rhs
	movq	input, %rax
	cmpl	$3, 72(%rax)
	sete	%cl
.LBB50_2:                               # %land.end
	andb	$1, %cl
	movzbl	%cl, %eax
	movl	%eax, -48(%rbp)
	movq	-8(%rbp), %rax
	cmpl	$0, 6388(%rax)
	je	.LBB50_4
# %bb.3:                                # %if.then
	jmp	.LBB50_19
.LBB50_4:                               # %if.end
	movq	-8(%rbp), %rax
	cmpl	$0, 6560(%rax)
	je	.LBB50_6
# %bb.5:                                # %if.then3
	movq	-8(%rbp), %rax
	movslq	6552(%rax), %rax
	movl	-96(%rbp,%rax,4), %eax
	movq	-8(%rbp), %rcx
	imull	6564(%rcx), %eax
	movl	%eax, -24(%rbp)
	movq	-8(%rbp), %rax
	movslq	6552(%rax), %rax
	movl	-96(%rbp,%rax,4), %eax
	movq	-8(%rbp), %rcx
	imull	6568(%rcx), %eax
	movl	%eax, -12(%rbp)
	movq	-8(%rbp), %rax
	movslq	6552(%rax), %rax
	movl	-80(%rbp,%rax,4), %eax
	movq	-8(%rbp), %rcx
	movl	$2, %edx
	movl	$2, %esi
	subl	6556(%rcx), %esi
	imull	%esi, %eax
	movq	-8(%rbp), %rcx
	imull	6572(%rcx), %eax
	movl	%eax, -20(%rbp)
	movq	-8(%rbp), %rax
	movslq	6552(%rax), %rax
	movl	-80(%rbp,%rax,4), %eax
	movq	-8(%rbp), %rcx
	subl	6556(%rcx), %edx
	imull	%edx, %eax
	movq	-8(%rbp), %rcx
	imull	6576(%rcx), %eax
	movl	%eax, -16(%rbp)
	jmp	.LBB50_7
.LBB50_6:                               # %if.else
	movl	$0, -16(%rbp)
	movl	$0, -20(%rbp)
	movl	$0, -12(%rbp)
	movl	$0, -24(%rbp)
.LBB50_7:                               # %if.end20
	movq	-8(%rbp), %rax
	movl	6392(%rax), %eax
	movq	-8(%rbp), %rcx
	imull	6396(%rcx), %eax
	imull	-28(%rbp), %eax
	movslq	%eax, %rdi
	callq	malloc
	xorl	%ecx, %ecx
	movq	%rax, -40(%rbp)
	cmpq	%rax, %rcx
	jne	.LBB50_9
# %bb.8:                                # %if.then25
	movabsq	$.L.str.1, %rdi
	callq	no_mem_exit
.LBB50_9:                               # %if.end26
	cmpl	$0, -48(%rbp)
	je	.LBB50_14
# %bb.10:                               # %if.then28
	movq	-8(%rbp), %rax
	movl	6564(%rax), %eax
	movl	%eax, -24(%rbp)
	movq	-8(%rbp), %rax
	movl	6568(%rax), %eax
	movl	%eax, -12(%rbp)
	movq	-8(%rbp), %rax
	movl	$2, %ecx
	movl	$2, %edx
	subl	6556(%rax), %edx
	movq	-8(%rbp), %rax
	imull	6572(%rax), %edx
	movl	%edx, -20(%rbp)
	movq	-8(%rbp), %rax
	subl	6556(%rax), %ecx
	movq	-8(%rbp), %rax
	imull	6576(%rax), %ecx
	movl	%ecx, -16(%rbp)
	movq	-8(%rbp), %rax
	movq	6464(%rax), %rax
	movq	8(%rax), %rdi
	movq	-40(%rbp), %rsi
	movq	-8(%rbp), %rax
	movl	6400(%rax), %edx
	movq	-8(%rbp), %rax
	movl	6404(%rax), %ecx
	movl	-28(%rbp), %r8d
	movl	-24(%rbp), %r9d
	movl	-12(%rbp), %eax
	movl	-20(%rbp), %r10d
	movl	-16(%rbp), %r11d
	movl	%eax, (%rsp)
	movl	%r10d, 8(%rsp)
	movl	%r11d, 16(%rsp)
	callq	img2buf
	movl	-44(%rbp), %edi
	movq	-40(%rbp), %rsi
	movq	-8(%rbp), %rax
	movl	6404(%rax), %eax
	subl	-16(%rbp), %eax
	subl	-20(%rbp), %eax
	movq	-8(%rbp), %rcx
	movl	6400(%rcx), %ecx
	subl	-12(%rbp), %ecx
	subl	-24(%rbp), %ecx
	imull	%ecx, %eax
	imull	-28(%rbp), %eax
	movslq	%eax, %rdx
	callq	write
	movq	active_sps, %rax
	cmpl	$0, 1160(%rax)
	je	.LBB50_12
# %bb.11:                               # %if.then52
	movq	-8(%rbp), %rax
	movslq	6552(%rax), %rax
	movl	-96(%rbp,%rax,4), %eax
	movq	-8(%rbp), %rcx
	imull	6564(%rcx), %eax
	movl	%eax, -24(%rbp)
	movq	-8(%rbp), %rax
	movslq	6552(%rax), %rax
	movl	-96(%rbp,%rax,4), %eax
	movq	-8(%rbp), %rcx
	imull	6568(%rcx), %eax
	movl	%eax, -12(%rbp)
	movq	-8(%rbp), %rax
	movslq	6552(%rax), %rax
	movl	-80(%rbp,%rax,4), %eax
	movq	-8(%rbp), %rcx
	movl	$2, %edx
	movl	$2, %esi
	subl	6556(%rcx), %esi
	imull	%esi, %eax
	movq	-8(%rbp), %rcx
	imull	6572(%rcx), %eax
	movl	%eax, -20(%rbp)
	movq	-8(%rbp), %rax
	movslq	6552(%rax), %rax
	movl	-80(%rbp,%rax,4), %eax
	movq	-8(%rbp), %rcx
	subl	6556(%rcx), %edx
	imull	%edx, %eax
	movq	-8(%rbp), %rcx
	imull	6576(%rcx), %eax
	movl	%eax, -16(%rbp)
	jmp	.LBB50_13
.LBB50_12:                              # %if.else79
	movl	$0, -16(%rbp)
	movl	$0, -20(%rbp)
	movl	$0, -12(%rbp)
	movl	$0, -24(%rbp)
.LBB50_13:                              # %if.end80
	jmp	.LBB50_14
.LBB50_14:                              # %if.end81
	movq	-8(%rbp), %rax
	movq	6424(%rax), %rdi
	movq	-40(%rbp), %rsi
	movq	-8(%rbp), %rax
	movl	6392(%rax), %edx
	movq	-8(%rbp), %rax
	movl	6396(%rax), %ecx
	movl	-28(%rbp), %r8d
	movl	-24(%rbp), %r9d
	movl	-12(%rbp), %eax
	movl	-20(%rbp), %r10d
	movl	-16(%rbp), %r11d
	movl	%eax, (%rsp)
	movl	%r10d, 8(%rsp)
	movl	%r11d, 16(%rsp)
	callq	img2buf
	movl	-44(%rbp), %edi
	movq	-40(%rbp), %rsi
	movq	-8(%rbp), %rax
	movl	6396(%rax), %eax
	subl	-16(%rbp), %eax
	subl	-20(%rbp), %eax
	movq	-8(%rbp), %rcx
	movl	6392(%rcx), %ecx
	subl	-12(%rbp), %ecx
	subl	-24(%rbp), %ecx
	imull	%ecx, %eax
	imull	-28(%rbp), %eax
	movslq	%eax, %rdx
	callq	write
	movq	-8(%rbp), %rax
	cmpl	$0, 6552(%rax)
	je	.LBB50_18
# %bb.15:                               # %if.then97
	movq	-8(%rbp), %rax
	movl	6564(%rax), %eax
	movl	%eax, -24(%rbp)
	movq	-8(%rbp), %rax
	movl	6568(%rax), %eax
	movl	%eax, -12(%rbp)
	movq	-8(%rbp), %rax
	movl	$2, %ecx
	movl	$2, %edx
	subl	6556(%rax), %edx
	movq	-8(%rbp), %rax
	imull	6572(%rax), %edx
	movl	%edx, -20(%rbp)
	movq	-8(%rbp), %rax
	subl	6556(%rax), %ecx
	movq	-8(%rbp), %rax
	imull	6576(%rax), %ecx
	movl	%ecx, -16(%rbp)
	movq	-8(%rbp), %rax
	movq	6464(%rax), %rax
	movq	(%rax), %rdi
	movq	-40(%rbp), %rsi
	movq	-8(%rbp), %rax
	movl	6400(%rax), %edx
	movq	-8(%rbp), %rax
	movl	6404(%rax), %ecx
	movl	-28(%rbp), %r8d
	movl	-24(%rbp), %r9d
	movl	-12(%rbp), %eax
	movl	-20(%rbp), %r10d
	movl	-16(%rbp), %r11d
	movl	%eax, (%rsp)
	movl	%r10d, 8(%rsp)
	movl	%r11d, 16(%rsp)
	callq	img2buf
	movl	-44(%rbp), %edi
	movq	-40(%rbp), %rsi
	movq	-8(%rbp), %rax
	movl	6404(%rax), %eax
	subl	-16(%rbp), %eax
	subl	-20(%rbp), %eax
	movq	-8(%rbp), %rcx
	movl	6400(%rcx), %ecx
	subl	-12(%rbp), %ecx
	subl	-24(%rbp), %ecx
	imull	%ecx, %eax
	imull	-28(%rbp), %eax
	movslq	%eax, %rdx
	callq	write
	cmpl	$0, -48(%rbp)
	jne	.LBB50_17
# %bb.16:                               # %if.then123
	movq	-8(%rbp), %rax
	movq	6464(%rax), %rax
	movq	8(%rax), %rdi
	movq	-40(%rbp), %rsi
	movq	-8(%rbp), %rax
	movl	6400(%rax), %edx
	movq	-8(%rbp), %rax
	movl	6404(%rax), %ecx
	movl	-28(%rbp), %r8d
	movl	-24(%rbp), %r9d
	movl	-12(%rbp), %eax
	movl	-20(%rbp), %r10d
	movl	-16(%rbp), %r11d
	movl	%eax, (%rsp)
	movl	%r10d, 8(%rsp)
	movl	%r11d, 16(%rsp)
	callq	img2buf
	movl	-44(%rbp), %edi
	movq	-40(%rbp), %rsi
	movq	-8(%rbp), %rax
	movl	6404(%rax), %eax
	subl	-16(%rbp), %eax
	subl	-20(%rbp), %eax
	movq	-8(%rbp), %rcx
	movl	6400(%rcx), %ecx
	subl	-12(%rbp), %ecx
	subl	-24(%rbp), %ecx
	imull	%ecx, %eax
	imull	-28(%rbp), %eax
	movslq	%eax, %rdx
	callq	write
.LBB50_17:                              # %if.end138
	jmp	.LBB50_18
.LBB50_18:                              # %if.end139
	movq	-40(%rbp), %rdi
	callq	free
.LBB50_19:                              # %return
	cmpl	$1210045843, -52(%rbp)  # imm = 0x481FD593
	jne	.LBB50_21
.LBB50_20:
	addq	$128, %rsp
	popq	%rbp
	.cfi_def_cfa %rsp, 8
	retq
.LBB50_21:                              # %func_exit
	.cfi_def_cfa %rbp, 16
	callq	detect_breach
	jmp	.LBB50_20
.Lfunc_end50:
	.size	write_out_picture.40, .Lfunc_end50-write_out_picture.40
	.cfi_endproc
                                        # -- End function
	.globl	img2buf.41              # -- Begin function img2buf.41
	.p2align	4, 0x90
	.type	img2buf.41,@function
img2buf.41:                             # @img2buf.41
	.cfi_startproc
# %bb.0:                                # %entry
	pushq	%rbp
	.cfi_def_cfa_offset 16
	.cfi_offset %rbp, -16
	movq	%rsp, %rbp
	.cfi_def_cfa_register %rbp
	subq	$96, %rsp
	movl	32(%rbp), %eax
	movl	24(%rbp), %eax
	movl	16(%rbp), %eax
	movl	$312429828, -80(%rbp)   # imm = 0x129F4D04
	movq	%rdi, -72(%rbp)
	movq	%rsi, -56(%rbp)
	movl	%edx, -24(%rbp)
	movl	%ecx, -32(%rbp)
	movl	%r8d, -20(%rbp)
	movl	%r9d, -12(%rbp)
	movl	-24(%rbp), %eax
	subl	-12(%rbp), %eax
	subl	16(%rbp), %eax
	movl	%eax, -28(%rbp)
	movl	-32(%rbp), %eax
	subl	24(%rbp), %eax
	subl	32(%rbp), %eax
	movl	%eax, -76(%rbp)
	movl	$0, -40(%rbp)
	callq	testEndian
	cmpl	$0, %eax
	je	.LBB51_33
# %bb.1:                                # %if.then
	movl	-20(%rbp), %eax
	movl	%eax, %ecx
	subl	$1, %ecx
	je	.LBB51_4
	jmp	.LBB51_2
.LBB51_2:                               # %if.then
	movl	%eax, %ecx
	subl	$2, %ecx
	je	.LBB51_13
	jmp	.LBB51_3
.LBB51_3:                               # %if.then
	subl	$4, %eax
	je	.LBB51_22
	jmp	.LBB51_31
.LBB51_4:                               # %sw.bb
	movl	24(%rbp), %eax
	movl	%eax, -8(%rbp)
.LBB51_5:                               # %for.cond
                                        # =>This Loop Header: Depth=1
                                        #     Child Loop BB51_7 Depth 2
	movl	-8(%rbp), %eax
	movl	-32(%rbp), %ecx
	subl	32(%rbp), %ecx
	cmpl	%ecx, %eax
	jge	.LBB51_12
# %bb.6:                                # %for.body
                                        #   in Loop: Header=BB51_5 Depth=1
	movl	-12(%rbp), %eax
	movl	%eax, -4(%rbp)
.LBB51_7:                               # %for.cond5
                                        #   Parent Loop BB51_5 Depth=1
                                        # =>  This Inner Loop Header: Depth=2
	movl	-4(%rbp), %eax
	movl	-24(%rbp), %ecx
	subl	16(%rbp), %ecx
	cmpl	%ecx, %eax
	jge	.LBB51_10
# %bb.8:                                # %for.body8
                                        #   in Loop: Header=BB51_7 Depth=2
	movq	-72(%rbp), %rax
	movslq	-8(%rbp), %rcx
	movq	(%rax,%rcx,8), %rax
	movslq	-4(%rbp), %rcx
	movw	(%rax,%rcx,2), %ax
	movb	%al, -13(%rbp)
	movb	-13(%rbp), %al
	movq	-56(%rbp), %rcx
	movl	-4(%rbp), %edx
	subl	-12(%rbp), %edx
	movl	-8(%rbp), %esi
	subl	24(%rbp), %esi
	imull	-28(%rbp), %esi
	addl	%esi, %edx
	movslq	%edx, %rdx
	movb	%al, (%rcx,%rdx)
# %bb.9:                                # %for.inc
                                        #   in Loop: Header=BB51_7 Depth=2
	movl	-4(%rbp), %eax
	addl	$1, %eax
	movl	%eax, -4(%rbp)
	jmp	.LBB51_7
.LBB51_10:                              # %for.end
                                        #   in Loop: Header=BB51_5 Depth=1
	jmp	.LBB51_11
.LBB51_11:                              # %for.inc15
                                        #   in Loop: Header=BB51_5 Depth=1
	movl	-8(%rbp), %eax
	addl	$1, %eax
	movl	%eax, -8(%rbp)
	jmp	.LBB51_5
.LBB51_12:                              # %for.end17
	jmp	.LBB51_32
.LBB51_13:                              # %sw.bb18
	movl	24(%rbp), %eax
	movl	%eax, -8(%rbp)
.LBB51_14:                              # %for.cond19
                                        # =>This Loop Header: Depth=1
                                        #     Child Loop BB51_16 Depth 2
	movl	-8(%rbp), %eax
	movl	-32(%rbp), %ecx
	subl	32(%rbp), %ecx
	cmpl	%ecx, %eax
	jge	.LBB51_21
# %bb.15:                               # %for.body23
                                        #   in Loop: Header=BB51_14 Depth=1
	movl	-12(%rbp), %eax
	movl	%eax, -4(%rbp)
.LBB51_16:                              # %for.cond24
                                        #   Parent Loop BB51_14 Depth=1
                                        # =>  This Inner Loop Header: Depth=2
	movl	-4(%rbp), %eax
	movl	-24(%rbp), %ecx
	subl	16(%rbp), %ecx
	cmpl	%ecx, %eax
	jge	.LBB51_19
# %bb.17:                               # %for.body28
                                        #   in Loop: Header=BB51_16 Depth=2
	movq	-72(%rbp), %rax
	movslq	-8(%rbp), %rcx
	movq	(%rax,%rcx,8), %rax
	movslq	-4(%rbp), %rcx
	movw	(%rax,%rcx,2), %ax
	movw	%ax, -34(%rbp)
	movzwl	-34(%rbp), %eax
	sarl	$8, %eax
	movzwl	-34(%rbp), %ecx
	andl	$255, %ecx
	shll	$8, %ecx
	orl	%ecx, %eax
	movw	%ax, -42(%rbp)
	movq	-56(%rbp), %rax
	movl	-4(%rbp), %ecx
	subl	-12(%rbp), %ecx
	movl	-8(%rbp), %edx
	subl	24(%rbp), %edx
	imull	-28(%rbp), %edx
	addl	%edx, %ecx
	shll	$1, %ecx
	movslq	%ecx, %rcx
	movw	-42(%rbp), %dx
	movw	%dx, (%rax,%rcx)
# %bb.18:                               # %for.inc41
                                        #   in Loop: Header=BB51_16 Depth=2
	movl	-4(%rbp), %eax
	addl	$1, %eax
	movl	%eax, -4(%rbp)
	jmp	.LBB51_16
.LBB51_19:                              # %for.end43
                                        #   in Loop: Header=BB51_14 Depth=1
	jmp	.LBB51_20
.LBB51_20:                              # %for.inc44
                                        #   in Loop: Header=BB51_14 Depth=1
	movl	-8(%rbp), %eax
	addl	$1, %eax
	movl	%eax, -8(%rbp)
	jmp	.LBB51_14
.LBB51_21:                              # %for.end46
	jmp	.LBB51_32
.LBB51_22:                              # %sw.bb47
	movl	24(%rbp), %eax
	movl	%eax, -8(%rbp)
.LBB51_23:                              # %for.cond48
                                        # =>This Loop Header: Depth=1
                                        #     Child Loop BB51_25 Depth 2
	movl	-8(%rbp), %eax
	movl	-32(%rbp), %ecx
	subl	32(%rbp), %ecx
	cmpl	%ecx, %eax
	jge	.LBB51_30
# %bb.24:                               # %for.body52
                                        #   in Loop: Header=BB51_23 Depth=1
	movl	-12(%rbp), %eax
	movl	%eax, -4(%rbp)
.LBB51_25:                              # %for.cond53
                                        #   Parent Loop BB51_23 Depth=1
                                        # =>  This Inner Loop Header: Depth=2
	movl	-4(%rbp), %eax
	movl	-24(%rbp), %ecx
	subl	16(%rbp), %ecx
	cmpl	%ecx, %eax
	jge	.LBB51_28
# %bb.26:                               # %for.body57
                                        #   in Loop: Header=BB51_25 Depth=2
	movq	-72(%rbp), %rax
	movslq	-8(%rbp), %rcx
	movq	(%rax,%rcx,8), %rax
	movslq	-4(%rbp), %rcx
	movzwl	(%rax,%rcx,2), %eax
	movq	%rax, -64(%rbp)
	movq	-64(%rbp), %rax
	andq	$65280, %rax            # imm = 0xFF00
	shlq	$8, %rax
	movq	-64(%rbp), %rcx
	andq	$255, %rcx
	shlq	$24, %rcx
	orq	%rcx, %rax
	movq	-64(%rbp), %rcx
	andq	$16711680, %rcx         # imm = 0xFF0000
	shrq	$8, %rcx
	orq	%rcx, %rax
	movl	$4278190080, %ecx       # imm = 0xFF000000
	andq	-64(%rbp), %rcx
	shrq	$24, %rcx
	orq	%rcx, %rax
	movq	%rax, -88(%rbp)
	movq	-56(%rbp), %rax
	movl	-4(%rbp), %ecx
	subl	-12(%rbp), %ecx
	movl	-8(%rbp), %edx
	subl	24(%rbp), %edx
	imull	-28(%rbp), %edx
	addl	%edx, %ecx
	shll	$2, %ecx
	movslq	%ecx, %rcx
	movl	-88(%rbp), %edx
	movl	%edx, (%rax,%rcx)
# %bb.27:                               # %for.inc81
                                        #   in Loop: Header=BB51_25 Depth=2
	movl	-4(%rbp), %eax
	addl	$1, %eax
	movl	%eax, -4(%rbp)
	jmp	.LBB51_25
.LBB51_28:                              # %for.end83
                                        #   in Loop: Header=BB51_23 Depth=1
	jmp	.LBB51_29
.LBB51_29:                              # %for.inc84
                                        #   in Loop: Header=BB51_23 Depth=1
	movl	-8(%rbp), %eax
	addl	$1, %eax
	movl	%eax, -8(%rbp)
	jmp	.LBB51_23
.LBB51_30:                              # %for.end86
	jmp	.LBB51_32
.LBB51_31:                              # %sw.default
	movabsq	$.L.str, %rdi
	movl	$500, %esi              # imm = 0x1F4
	callq	error
.LBB51_32:                              # %sw.epilog
	jmp	.LBB51_45
.LBB51_33:                              # %if.else
	movslq	-20(%rbp), %rax
	movl	$2, %ecx
	cmpq	%rax, %rcx
	jae	.LBB51_35
# %bb.34:                               # %if.then90
	movl	$2, -40(%rbp)
	movq	-56(%rbp), %rdi
	movl	-28(%rbp), %eax
	imull	-76(%rbp), %eax
	imull	-20(%rbp), %eax
	movslq	%eax, %rdx
	xorl	%esi, %esi
	callq	memset
	jmp	.LBB51_36
.LBB51_35:                              # %if.else94
	movl	-20(%rbp), %eax
	movl	%eax, -40(%rbp)
.LBB51_36:                              # %if.end
	movl	24(%rbp), %eax
	movl	%eax, -8(%rbp)
.LBB51_37:                              # %for.cond95
                                        # =>This Loop Header: Depth=1
                                        #     Child Loop BB51_39 Depth 2
	movl	-8(%rbp), %eax
	movl	-32(%rbp), %ecx
	subl	32(%rbp), %ecx
	cmpl	%ecx, %eax
	jge	.LBB51_44
# %bb.38:                               # %for.body99
                                        #   in Loop: Header=BB51_37 Depth=1
	movl	-12(%rbp), %eax
	movl	%eax, -4(%rbp)
.LBB51_39:                              # %for.cond100
                                        #   Parent Loop BB51_37 Depth=1
                                        # =>  This Inner Loop Header: Depth=2
	movl	-4(%rbp), %eax
	movl	-24(%rbp), %ecx
	subl	16(%rbp), %ecx
	cmpl	%ecx, %eax
	jge	.LBB51_42
# %bb.40:                               # %for.body104
                                        #   in Loop: Header=BB51_39 Depth=2
	movq	-56(%rbp), %rdi
	movl	-4(%rbp), %eax
	subl	-12(%rbp), %eax
	movl	-8(%rbp), %ecx
	subl	24(%rbp), %ecx
	imull	-28(%rbp), %ecx
	addl	%ecx, %eax
	imull	-20(%rbp), %eax
	cltq
	addq	%rax, %rdi
	movq	-72(%rbp), %rax
	movslq	-8(%rbp), %rcx
	movq	(%rax,%rcx,8), %rsi
	movslq	-4(%rbp), %rax
	shlq	$1, %rax
	addq	%rax, %rsi
	movslq	-40(%rbp), %rdx
	callq	memcpy
# %bb.41:                               # %for.inc117
                                        #   in Loop: Header=BB51_39 Depth=2
