	.text
	.file	"parset.c"
	.globl	GenerateParameterSets   # -- Begin function GenerateParameterSets
	.p2align	4, 0x90
	.type	GenerateParameterSets,@function
GenerateParameterSets:                  # @GenerateParameterSets
	.cfi_startproc
# %bb.0:                                # %rand_bb
	pushq	%rbp
	.cfi_def_cfa_offset 16
	.cfi_offset %rbp, -16
	movq	%rsp, %rbp
	.cfi_def_cfa_register %rbp
	callq	get_urand
	cmpl	$0, %eax
	jne	.LBB0_2
# %bb.1:                                # %func_GenerateParameterSets.12
	callq	GenerateParameterSets.12
	popq	%rbp
	.cfi_def_cfa %rsp, 8
	retq
.LBB0_2:                                # %func_GenerateParameterSets.17
	.cfi_def_cfa %rbp, 16
	callq	GenerateParameterSets.17
	popq	%rbp
	.cfi_def_cfa %rsp, 8
	retq
.Lfunc_end0:
	.size	GenerateParameterSets, .Lfunc_end0-GenerateParameterSets
	.cfi_endproc
                                        # -- End function
	.globl	GenerateSequenceParameterSet # -- Begin function GenerateSequenceParameterSet
	.p2align	4, 0x90
	.type	GenerateSequenceParameterSet,@function
GenerateSequenceParameterSet:           # @GenerateSequenceParameterSet
	.cfi_startproc
# %bb.0:                                # %rand_bb
	pushq	%rbp
	.cfi_def_cfa_offset 16
	.cfi_offset %rbp, -16
	movq	%rsp, %rbp
	.cfi_def_cfa_register %rbp
	pushq	%r14
	pushq	%rbx
	.cfi_offset %rbx, -32
	.cfi_offset %r14, -24
	movl	%esi, %r14d
	movq	%rdi, %rbx
	callq	get_urand
	cmpl	$0, %eax
	jne	.LBB1_17
# %bb.1:                                # %func_GenerateSequenceParameterSet.1
	movq	%rbx, %rdi
	movl	%r14d, %esi
	callq	GenerateSequenceParameterSet.1
	popq	%rbx
	popq	%r14
	popq	%rbp
	.cfi_def_cfa %rsp, 8
	retq
.LBB1_2:                                # %func_GenerateSequenceParameterSet.4
	.cfi_def_cfa %rbp, 16
	movq	%rbx, %rdi
	movl	%r14d, %esi
	callq	GenerateSequenceParameterSet.4
	popq	%rbx
	popq	%r14
	popq	%rbp
	.cfi_def_cfa %rsp, 8
	retq
.LBB1_3:                                # %func_GenerateSequenceParameterSet.6
	.cfi_def_cfa %rbp, 16
	movq	%rbx, %rdi
	movl	%r14d, %esi
	callq	GenerateSequenceParameterSet.6
	popq	%rbx
	popq	%r14
	popq	%rbp
	.cfi_def_cfa %rsp, 8
	retq
.LBB1_4:                                # %func_GenerateSequenceParameterSet.14
	.cfi_def_cfa %rbp, 16
	movq	%rbx, %rdi
	movl	%r14d, %esi
	callq	GenerateSequenceParameterSet.14
	popq	%rbx
	popq	%r14
	popq	%rbp
	.cfi_def_cfa %rsp, 8
	retq
.LBB1_5:                                # %func_GenerateSequenceParameterSet.19
	.cfi_def_cfa %rbp, 16
	movq	%rbx, %rdi
	movl	%r14d, %esi
	callq	GenerateSequenceParameterSet.19
	popq	%rbx
	popq	%r14
	popq	%rbp
	.cfi_def_cfa %rsp, 8
	retq
.LBB1_6:                                # %func_GenerateSequenceParameterSet.22
	.cfi_def_cfa %rbp, 16
	movq	%rbx, %rdi
	movl	%r14d, %esi
	callq	GenerateSequenceParameterSet.22
	popq	%rbx
	popq	%r14
	popq	%rbp
	.cfi_def_cfa %rsp, 8
	retq
.LBB1_7:                                # %func_GenerateSequenceParameterSet.24
	.cfi_def_cfa %rbp, 16
	movq	%rbx, %rdi
	movl	%r14d, %esi
	callq	GenerateSequenceParameterSet.24
	popq	%rbx
	popq	%r14
	popq	%rbp
	.cfi_def_cfa %rsp, 8
	retq
.LBB1_8:                                # %func_GenerateSequenceParameterSet.28
	.cfi_def_cfa %rbp, 16
	movq	%rbx, %rdi
	movl	%r14d, %esi
	callq	GenerateSequenceParameterSet.28
	popq	%rbx
	popq	%r14
	popq	%rbp
	.cfi_def_cfa %rsp, 8
	retq
.LBB1_9:                                # %func_GenerateSequenceParameterSet.29
	.cfi_def_cfa %rbp, 16
	movq	%rbx, %rdi
	movl	%r14d, %esi
	callq	GenerateSequenceParameterSet.29
	popq	%rbx
	popq	%r14
	popq	%rbp
	.cfi_def_cfa %rsp, 8
	retq
.LBB1_10:                               # %func_GenerateSequenceParameterSet.30
	.cfi_def_cfa %rbp, 16
	movq	%rbx, %rdi
	movl	%r14d, %esi
	callq	GenerateSequenceParameterSet.30
	popq	%rbx
	popq	%r14
	popq	%rbp
	.cfi_def_cfa %rsp, 8
	retq
.LBB1_11:                               # %func_GenerateSequenceParameterSet.34
	.cfi_def_cfa %rbp, 16
	movq	%rbx, %rdi
	movl	%r14d, %esi
	callq	GenerateSequenceParameterSet.34
	popq	%rbx
	popq	%r14
	popq	%rbp
	.cfi_def_cfa %rsp, 8
	retq
.LBB1_12:                               # %func_GenerateSequenceParameterSet.37
	.cfi_def_cfa %rbp, 16
	movq	%rbx, %rdi
	movl	%r14d, %esi
	callq	GenerateSequenceParameterSet.37
	popq	%rbx
	popq	%r14
	popq	%rbp
	.cfi_def_cfa %rsp, 8
	retq
.LBB1_13:                               # %func_GenerateSequenceParameterSet.46
	.cfi_def_cfa %rbp, 16
	movq	%rbx, %rdi
	movl	%r14d, %esi
	callq	GenerateSequenceParameterSet.46
	popq	%rbx
	popq	%r14
	popq	%rbp
	.cfi_def_cfa %rsp, 8
	retq
.LBB1_14:                               # %func_GenerateSequenceParameterSet.56
	.cfi_def_cfa %rbp, 16
	movq	%rbx, %rdi
	movl	%r14d, %esi
	callq	GenerateSequenceParameterSet.56
	popq	%rbx
	popq	%r14
	popq	%rbp
	.cfi_def_cfa %rsp, 8
	retq
.LBB1_15:                               # %func_GenerateSequenceParameterSet.64
	.cfi_def_cfa %rbp, 16
	movq	%rbx, %rdi
	movl	%r14d, %esi
	callq	GenerateSequenceParameterSet.64
	popq	%rbx
	popq	%r14
	popq	%rbp
	.cfi_def_cfa %rsp, 8
	retq
.LBB1_16:                               # %func_GenerateSequenceParameterSet.71
	.cfi_def_cfa %rbp, 16
	movq	%rbx, %rdi
	movl	%r14d, %esi
	callq	GenerateSequenceParameterSet.71
	popq	%rbx
	popq	%r14
	popq	%rbp
	.cfi_def_cfa %rsp, 8
	retq
.LBB1_17:                               # %ctrl0
	.cfi_def_cfa %rbp, 16
	cmpl	$1, %eax
	je	.LBB1_2
# %bb.18:                               # %ctrl1
	cmpl	$2, %eax
	je	.LBB1_3
# %bb.19:                               # %ctrl2
	cmpl	$3, %eax
	je	.LBB1_4
# %bb.20:                               # %ctrl3
	cmpl	$4, %eax
	je	.LBB1_5
# %bb.21:                               # %ctrl4
	cmpl	$5, %eax
	je	.LBB1_6
# %bb.22:                               # %ctrl5
	cmpl	$6, %eax
	je	.LBB1_7
# %bb.23:                               # %ctrl6
	cmpl	$7, %eax
	je	.LBB1_8
# %bb.24:                               # %ctrl7
	cmpl	$8, %eax
	je	.LBB1_9
# %bb.25:                               # %ctrl8
	cmpl	$9, %eax
	je	.LBB1_10
# %bb.26:                               # %ctrl9
	cmpl	$10, %eax
	je	.LBB1_11
# %bb.27:                               # %ctrl10
	cmpl	$11, %eax
	je	.LBB1_12
# %bb.28:                               # %ctrl11
	cmpl	$12, %eax
	je	.LBB1_13
# %bb.29:                               # %ctrl12
	cmpl	$13, %eax
	je	.LBB1_14
# %bb.30:                               # %ctrl13
	cmpl	$14, %eax
	je	.LBB1_15
	jmp	.LBB1_16
.Lfunc_end1:
	.size	GenerateSequenceParameterSet, .Lfunc_end1-GenerateSequenceParameterSet
	.cfi_endproc
                                        # -- End function
	.globl	GeneratePictureParameterSet # -- Begin function GeneratePictureParameterSet
	.p2align	4, 0x90
	.type	GeneratePictureParameterSet,@function
GeneratePictureParameterSet:            # @GeneratePictureParameterSet
	.cfi_startproc
# %bb.0:                                # %rand_bb
	pushq	%rbp
	.cfi_def_cfa_offset 16
	.cfi_offset %rbp, -16
	movq	%rsp, %rbp
	.cfi_def_cfa_register %rbp
	pushq	%r15
	pushq	%r14
	pushq	%r13
	pushq	%r12
	pushq	%rbx
	subq	$24, %rsp
	.cfi_offset %rbx, -56
	.cfi_offset %r12, -48
	.cfi_offset %r13, -40
	.cfi_offset %r14, -32
	.cfi_offset %r15, -24
	movl	%r9d, -44(%rbp)         # 4-byte Spill
	movl	%r8d, %r13d
	movl	%ecx, %ebx
	movl	%edx, %r14d
	movq	%rsi, %r15
	movq	%rdi, %r12
	callq	get_urand
	cmpl	$0, %eax
	jne	.LBB2_17
# %bb.1:                                # %func_GeneratePictureParameterSet.8
	movq	%r12, %rdi
	movq	%r15, %rsi
	movl	%r14d, %edx
	movl	%ebx, %ecx
	movl	%r13d, %r8d
	movl	-44(%rbp), %r9d         # 4-byte Reload
	movl	16(%rbp), %eax
	movl	%eax, (%rsp)
	callq	GeneratePictureParameterSet.8
	addq	$24, %rsp
	popq	%rbx
	popq	%r12
	popq	%r13
	popq	%r14
	popq	%r15
	popq	%rbp
	.cfi_def_cfa %rsp, 8
	retq
.LBB2_2:                                # %func_GeneratePictureParameterSet.13
	.cfi_def_cfa %rbp, 16
	movq	%r15, %rsi
	movl	%r12d, %r9d
	movl	16(%rbp), %eax
	movl	%eax, (%rsp)
	callq	GeneratePictureParameterSet.13
	addq	$24, %rsp
	popq	%rbx
	popq	%r12
	popq	%r13
	popq	%r14
	popq	%r15
	popq	%rbp
	.cfi_def_cfa %rsp, 8
	retq
.LBB2_3:                                # %func_GeneratePictureParameterSet.20
	.cfi_def_cfa %rbp, 16
	movq	%r10, %rdi
	movl	%ebx, %edx
	movl	%r14d, %ecx
	movl	%r13d, %r8d
	movl	%r11d, (%rsp)
	callq	GeneratePictureParameterSet.20
	addq	$24, %rsp
	popq	%rbx
	popq	%r12
	popq	%r13
	popq	%r14
	popq	%r15
	popq	%rbp
	.cfi_def_cfa %rsp, 8
	retq
.LBB2_4:                                # %func_GeneratePictureParameterSet.27
	.cfi_def_cfa %rbp, 16
	movq	%r10, %rdi
	movq	-56(%rbp), %rsi         # 8-byte Reload
	movl	%ebx, %edx
	movl	%r14d, %ecx
	movl	%r13d, %r8d
	movl	-44(%rbp), %r9d         # 4-byte Reload
	movl	%r11d, (%rsp)
	callq	GeneratePictureParameterSet.27
	addq	$24, %rsp
	popq	%rbx
	popq	%r12
	popq	%r13
	popq	%r14
	popq	%r15
	popq	%rbp
	.cfi_def_cfa %rsp, 8
	retq
.LBB2_5:                                # %func_GeneratePictureParameterSet.33
	.cfi_def_cfa %rbp, 16
	movq	%r10, %rdi
	movq	-56(%rbp), %rsi         # 8-byte Reload
	movl	%ebx, %edx
	movl	%r14d, %ecx
	movl	%r9d, %r8d
	movl	-44(%rbp), %r9d         # 4-byte Reload
	movl	%r11d, (%rsp)
	callq	GeneratePictureParameterSet.33
	addq	$24, %rsp
	popq	%rbx
	popq	%r12
	popq	%r13
	popq	%r14
	popq	%r15
	popq	%rbp
	.cfi_def_cfa %rsp, 8
	retq
.LBB2_6:                                # %func_GeneratePictureParameterSet.63
	.cfi_def_cfa %rbp, 16
	movq	%r10, %rdi
	movq	-56(%rbp), %rsi         # 8-byte Reload
	movl	%ebx, %edx
	movl	%r13d, %ecx
	movl	%r9d, %r8d
	movl	-44(%rbp), %r9d         # 4-byte Reload
	movl	%r11d, (%rsp)
	callq	GeneratePictureParameterSet.63
	addq	$24, %rsp
	popq	%rbx
	popq	%r12
	popq	%r13
	popq	%r14
	popq	%r15
	popq	%rbp
	.cfi_def_cfa %rsp, 8
	retq
.LBB2_7:                                # %func_GeneratePictureParameterSet.69
	.cfi_def_cfa %rbp, 16
	movq	%r10, %rdi
	movq	-56(%rbp), %rsi         # 8-byte Reload
	movl	%r14d, %edx
	movl	%r13d, %ecx
	movl	%r9d, %r8d
	movl	-44(%rbp), %r9d         # 4-byte Reload
	movl	%r11d, (%rsp)
	callq	GeneratePictureParameterSet.69
	addq	$24, %rsp
	popq	%rbx
	popq	%r12
	popq	%r13
	popq	%r14
	popq	%r15
	popq	%rbp
	.cfi_def_cfa %rsp, 8
	retq
.LBB2_8:                                # %func_GeneratePictureParameterSet.82
	.cfi_def_cfa %rbp, 16
	movq	%r10, %rdi
	movq	%rbx, %rsi
	movl	%r14d, %edx
	movl	%r13d, %ecx
	movl	%r9d, %r8d
	movl	-44(%rbp), %r9d         # 4-byte Reload
	movl	%r11d, (%rsp)
	callq	GeneratePictureParameterSet.82
	addq	$24, %rsp
	popq	%rbx
	popq	%r12
	popq	%r13
	popq	%r14
	popq	%r15
	popq	%rbp
	.cfi_def_cfa %rsp, 8
	retq
.LBB2_9:                                # %func_GeneratePictureParameterSet.88
	.cfi_def_cfa %rbp, 16
	movq	%r10, %rdi
	movq	%rbx, %rsi
	movl	%r14d, %edx
	movl	%r13d, %ecx
	movl	%r9d, %r8d
	movl	-44(%rbp), %r9d         # 4-byte Reload
	movl	%r11d, (%rsp)
	callq	GeneratePictureParameterSet.88
	addq	$24, %rsp
	popq	%rbx
	popq	%r12
	popq	%r13
	popq	%r14
	popq	%r15
	popq	%rbp
	.cfi_def_cfa %rsp, 8
	retq
.LBB2_10:                               # %func_GeneratePictureParameterSet.92
	.cfi_def_cfa %rbp, 16
	movq	%r10, %rdi
	movq	%rbx, %rsi
	movl	%r14d, %edx
	movl	%r13d, %ecx
	movl	%r9d, %r8d
	movl	-44(%rbp), %r9d         # 4-byte Reload
	movl	%r11d, (%rsp)
	callq	GeneratePictureParameterSet.92
	addq	$24, %rsp
	popq	%rbx
	popq	%r12
	popq	%r13
	popq	%r14
	popq	%r15
	popq	%rbp
	.cfi_def_cfa %rsp, 8
	retq
.LBB2_11:                               # %func_GeneratePictureParameterSet.95
	.cfi_def_cfa %rbp, 16
	movq	%r10, %rdi
	movq	%rbx, %rsi
	movl	%r14d, %edx
	movl	%r13d, %ecx
	movl	%r9d, %r8d
	movl	-44(%rbp), %r9d         # 4-byte Reload
	movl	%r11d, (%rsp)
	callq	GeneratePictureParameterSet.95
	addq	$24, %rsp
	popq	%rbx
	popq	%r12
	popq	%r13
	popq	%r14
	popq	%r15
	popq	%rbp
	.cfi_def_cfa %rsp, 8
	retq
.LBB2_12:                               # %func_GeneratePictureParameterSet.97
	.cfi_def_cfa %rbp, 16
	movq	%r10, %rdi
	movq	%rbx, %rsi
	movl	%r14d, %edx
	movl	%r13d, %ecx
	movl	%r9d, %r8d
	movl	-44(%rbp), %r9d         # 4-byte Reload
	movl	%r11d, (%rsp)
	callq	GeneratePictureParameterSet.97
	addq	$24, %rsp
	popq	%rbx
	popq	%r12
	popq	%r13
	popq	%r14
	popq	%r15
	popq	%rbp
	.cfi_def_cfa %rsp, 8
	retq
.LBB2_13:                               # %func_GeneratePictureParameterSet.100
	.cfi_def_cfa %rbp, 16
	movq	%r10, %rdi
	movq	%rbx, %rsi
	movl	%r14d, %edx
	movl	%r13d, %ecx
	movl	%r9d, %r8d
	movl	-44(%rbp), %r9d         # 4-byte Reload
	movl	%r11d, (%rsp)
	callq	GeneratePictureParameterSet.100
	addq	$24, %rsp
	popq	%rbx
	popq	%r12
	popq	%r13
	popq	%r14
	popq	%r15
	popq	%rbp
	.cfi_def_cfa %rsp, 8
	retq
.LBB2_14:                               # %func_GeneratePictureParameterSet.101
	.cfi_def_cfa %rbp, 16
	movq	%r10, %rdi
	movq	%rbx, %rsi
	movl	%r14d, %edx
	movl	%r13d, %ecx
	movl	%r9d, %r8d
	movl	-44(%rbp), %r9d         # 4-byte Reload
	movl	%r11d, (%rsp)
	callq	GeneratePictureParameterSet.101
	addq	$24, %rsp
	popq	%rbx
	popq	%r12
	popq	%r13
	popq	%r14
	popq	%r15
	popq	%rbp
	.cfi_def_cfa %rsp, 8
	retq
.LBB2_15:                               # %func_GeneratePictureParameterSet.104
	.cfi_def_cfa %rbp, 16
	movq	%r15, %rsi
	movl	%r12d, %r9d
	movl	16(%rbp), %eax
	movl	%eax, (%rsp)
	callq	GeneratePictureParameterSet.104
	addq	$24, %rsp
	popq	%rbx
	popq	%r12
	popq	%r13
	popq	%r14
	popq	%r15
	popq	%rbp
	.cfi_def_cfa %rsp, 8
	retq
.LBB2_16:                               # %func_GeneratePictureParameterSet.106
	.cfi_def_cfa %rbp, 16
	movq	%r15, %rsi
	movl	%r12d, %r9d
	movl	16(%rbp), %eax
	movl	%eax, (%rsp)
	callq	GeneratePictureParameterSet.106
	addq	$24, %rsp
	popq	%rbx
	popq	%r12
	popq	%r13
	popq	%r14
	popq	%r15
	popq	%rbp
	.cfi_def_cfa %rsp, 8
	retq
.LBB2_17:                               # %ctrl0
	.cfi_def_cfa %rbp, 16
	movq	%r12, %rdi
	movl	%r14d, %edx
	movl	%ebx, %ecx
	movl	%r13d, %r8d
	movl	-44(%rbp), %r12d        # 4-byte Reload
	cmpl	$1, %eax
	je	.LBB2_2
# %bb.18:                               # %ctrl1
	cmpl	$2, %eax
	movl	16(%rbp), %r11d
	movl	%r12d, %r9d
	movl	%r8d, %r13d
	movl	%ecx, %r14d
	movl	%edx, %ebx
	movq	%r15, %rsi
	movq	%rdi, %r10
	je	.LBB2_3
# %bb.19:                               # %ctrl2
	movq	%rsi, -56(%rbp)         # 8-byte Spill
	cmpl	$3, %eax
	je	.LBB2_4
# %bb.20:                               # %ctrl3
	cmpl	$4, %eax
	movl	%r13d, %r9d
	je	.LBB2_5
# %bb.21:                               # %ctrl4
	cmpl	$5, %eax
	movl	%r14d, %r13d
	je	.LBB2_6
# %bb.22:                               # %ctrl5
	cmpl	$6, %eax
	movl	%ebx, %r14d
	je	.LBB2_7
# %bb.23:                               # %ctrl6
	cmpl	$7, %eax
	movq	-56(%rbp), %rbx         # 8-byte Reload
	je	.LBB2_8
# %bb.24:                               # %ctrl7
	cmpl	$8, %eax
	je	.LBB2_9
# %bb.25:                               # %ctrl8
	cmpl	$9, %eax
	je	.LBB2_10
# %bb.26:                               # %ctrl9
	cmpl	$10, %eax
	je	.LBB2_11
# %bb.27:                               # %ctrl10
	cmpl	$11, %eax
	je	.LBB2_12
# %bb.28:                               # %ctrl11
	cmpl	$12, %eax
	je	.LBB2_13
# %bb.29:                               # %ctrl12
	cmpl	$13, %eax
	je	.LBB2_14
# %bb.30:                               # %ctrl13
	cmpl	$14, %eax
	je	.LBB2_15
	jmp	.LBB2_16
.Lfunc_end2:
	.size	GeneratePictureParameterSet, .Lfunc_end2-GeneratePictureParameterSet
	.cfi_endproc
                                        # -- End function
	.globl	FreeParameterSets       # -- Begin function FreeParameterSets
	.p2align	4, 0x90
	.type	FreeParameterSets,@function
FreeParameterSets:                      # @FreeParameterSets
	.cfi_startproc
# %bb.0:                                # %entry
	pushq	%rbp
	.cfi_def_cfa_offset 16
	.cfi_offset %rbp, -16
	movq	%rsp, %rbp
	.cfi_def_cfa_register %rbp
	movq	active_sps, %rdi
	callq	FreeSPS
	popq	%rbp
	.cfi_def_cfa %rsp, 8
	retq
.Lfunc_end3:
	.size	FreeParameterSets, .Lfunc_end3-FreeParameterSets
	.cfi_endproc
                                        # -- End function
	.globl	GenerateSeq_parameter_set_NALU # -- Begin function GenerateSeq_parameter_set_NALU
	.p2align	4, 0x90
	.type	GenerateSeq_parameter_set_NALU,@function
GenerateSeq_parameter_set_NALU:         # @GenerateSeq_parameter_set_NALU
	.cfi_startproc
# %bb.0:                                # %rand_bb
	pushq	%rbp
	.cfi_def_cfa_offset 16
	.cfi_offset %rbp, -16
	movq	%rsp, %rbp
	.cfi_def_cfa_register %rbp
	callq	get_urand
	cmpl	$0, %eax
	jne	.LBB4_17
# %bb.1:                                # %func_GenerateSeq_parameter_set_NALU.25
	callq	GenerateSeq_parameter_set_NALU.25
	popq	%rbp
	.cfi_def_cfa %rsp, 8
	retq
.LBB4_2:                                # %func_GenerateSeq_parameter_set_NALU.40
	.cfi_def_cfa %rbp, 16
	callq	GenerateSeq_parameter_set_NALU.40
	popq	%rbp
	.cfi_def_cfa %rsp, 8
	retq
.LBB4_3:                                # %func_GenerateSeq_parameter_set_NALU.45
	.cfi_def_cfa %rbp, 16
	callq	GenerateSeq_parameter_set_NALU.45
	popq	%rbp
	.cfi_def_cfa %rsp, 8
	retq
.LBB4_4:                                # %func_GenerateSeq_parameter_set_NALU.48
	.cfi_def_cfa %rbp, 16
	callq	GenerateSeq_parameter_set_NALU.48
	popq	%rbp
	.cfi_def_cfa %rsp, 8
	retq
.LBB4_5:                                # %func_GenerateSeq_parameter_set_NALU.62
	.cfi_def_cfa %rbp, 16
	callq	GenerateSeq_parameter_set_NALU.62
	popq	%rbp
	.cfi_def_cfa %rsp, 8
	retq
.LBB4_6:                                # %func_GenerateSeq_parameter_set_NALU.81
	.cfi_def_cfa %rbp, 16
	callq	GenerateSeq_parameter_set_NALU.81
	popq	%rbp
	.cfi_def_cfa %rsp, 8
	retq
.LBB4_7:                                # %func_GenerateSeq_parameter_set_NALU.89
	.cfi_def_cfa %rbp, 16
	callq	GenerateSeq_parameter_set_NALU.89
	popq	%rbp
	.cfi_def_cfa %rsp, 8
	retq
.LBB4_8:                                # %func_GenerateSeq_parameter_set_NALU.90
	.cfi_def_cfa %rbp, 16
	callq	GenerateSeq_parameter_set_NALU.90
	popq	%rbp
	.cfi_def_cfa %rsp, 8
	retq
.LBB4_9:                                # %func_GenerateSeq_parameter_set_NALU.99
	.cfi_def_cfa %rbp, 16
	callq	GenerateSeq_parameter_set_NALU.99
	popq	%rbp
	.cfi_def_cfa %rsp, 8
	retq
.LBB4_10:                               # %func_GenerateSeq_parameter_set_NALU.103
	.cfi_def_cfa %rbp, 16
	callq	GenerateSeq_parameter_set_NALU.103
	popq	%rbp
	.cfi_def_cfa %rsp, 8
	retq
.LBB4_11:                               # %func_GenerateSeq_parameter_set_NALU.107
	.cfi_def_cfa %rbp, 16
	callq	GenerateSeq_parameter_set_NALU.107
	popq	%rbp
	.cfi_def_cfa %rsp, 8
	retq
.LBB4_12:                               # %func_GenerateSeq_parameter_set_NALU.109
	.cfi_def_cfa %rbp, 16
	callq	GenerateSeq_parameter_set_NALU.109
	popq	%rbp
	.cfi_def_cfa %rsp, 8
	retq
.LBB4_13:                               # %func_GenerateSeq_parameter_set_NALU.111
	.cfi_def_cfa %rbp, 16
	callq	GenerateSeq_parameter_set_NALU.111
	popq	%rbp
	.cfi_def_cfa %rsp, 8
	retq
.LBB4_14:                               # %func_GenerateSeq_parameter_set_NALU.113
	.cfi_def_cfa %rbp, 16
	callq	GenerateSeq_parameter_set_NALU.113
	popq	%rbp
	.cfi_def_cfa %rsp, 8
	retq
.LBB4_15:                               # %func_GenerateSeq_parameter_set_NALU.115
	.cfi_def_cfa %rbp, 16
	callq	GenerateSeq_parameter_set_NALU.115
	popq	%rbp
	.cfi_def_cfa %rsp, 8
	retq
.LBB4_16:                               # %func_GenerateSeq_parameter_set_NALU.116
	.cfi_def_cfa %rbp, 16
	callq	GenerateSeq_parameter_set_NALU.116
	popq	%rbp
	.cfi_def_cfa %rsp, 8
	retq
.LBB4_17:                               # %ctrl0
	.cfi_def_cfa %rbp, 16
	cmpl	$1, %eax
	je	.LBB4_2
# %bb.18:                               # %ctrl1
	cmpl	$2, %eax
	je	.LBB4_3
# %bb.19:                               # %ctrl2
	cmpl	$3, %eax
	je	.LBB4_4
# %bb.20:                               # %ctrl3
	cmpl	$4, %eax
	je	.LBB4_5
# %bb.21:                               # %ctrl4
	cmpl	$5, %eax
	je	.LBB4_6
# %bb.22:                               # %ctrl5
	cmpl	$6, %eax
	je	.LBB4_7
# %bb.23:                               # %ctrl6
	cmpl	$7, %eax
	je	.LBB4_8
# %bb.24:                               # %ctrl7
	cmpl	$8, %eax
	je	.LBB4_9
# %bb.25:                               # %ctrl8
	cmpl	$9, %eax
	je	.LBB4_10
# %bb.26:                               # %ctrl9
	cmpl	$10, %eax
	je	.LBB4_11
# %bb.27:                               # %ctrl10
	cmpl	$11, %eax
	je	.LBB4_12
# %bb.28:                               # %ctrl11
	cmpl	$12, %eax
	je	.LBB4_13
# %bb.29:                               # %ctrl12
	cmpl	$13, %eax
	je	.LBB4_14
# %bb.30:                               # %ctrl13
	cmpl	$14, %eax
	je	.LBB4_15
	jmp	.LBB4_16
.Lfunc_end4:
	.size	GenerateSeq_parameter_set_NALU, .Lfunc_end4-GenerateSeq_parameter_set_NALU
	.cfi_endproc
                                        # -- End function
	.globl	GenerateSeq_parameter_set_rbsp # -- Begin function GenerateSeq_parameter_set_rbsp
	.p2align	4, 0x90
	.type	GenerateSeq_parameter_set_rbsp,@function
GenerateSeq_parameter_set_rbsp:         # @GenerateSeq_parameter_set_rbsp
	.cfi_startproc
# %bb.0:                                # %rand_bb
	pushq	%rbp
	.cfi_def_cfa_offset 16
	.cfi_offset %rbp, -16
	movq	%rsp, %rbp
	.cfi_def_cfa_register %rbp
	pushq	%r14
	pushq	%rbx
	.cfi_offset %rbx, -32
	.cfi_offset %r14, -24
	movq	%rsi, %r14
	movq	%rdi, %rbx
	callq	get_urand
	cmpl	$0, %eax
	jne	.LBB5_17
# %bb.1:                                # %func_GenerateSeq_parameter_set_rbsp.10
	movq	%rbx, %rdi
	movq	%r14, %rsi
	callq	GenerateSeq_parameter_set_rbsp.10
	popq	%rbx
	popq	%r14
	popq	%rbp
	.cfi_def_cfa %rsp, 8
	retq
.LBB5_2:                                # %func_GenerateSeq_parameter_set_rbsp.18
	.cfi_def_cfa %rbp, 16
	movq	%rbx, %rdi
	movq	%r14, %rsi
	callq	GenerateSeq_parameter_set_rbsp.18
	popq	%rbx
	popq	%r14
	popq	%rbp
	.cfi_def_cfa %rsp, 8
	retq
.LBB5_3:                                # %func_GenerateSeq_parameter_set_rbsp.31
	.cfi_def_cfa %rbp, 16
	movq	%rbx, %rdi
	movq	%r14, %rsi
	callq	GenerateSeq_parameter_set_rbsp.31
	popq	%rbx
	popq	%r14
	popq	%rbp
	.cfi_def_cfa %rsp, 8
	retq
.LBB5_4:                                # %func_GenerateSeq_parameter_set_rbsp.38
	.cfi_def_cfa %rbp, 16
	movq	%rbx, %rdi
	movq	%r14, %rsi
	callq	GenerateSeq_parameter_set_rbsp.38
	popq	%rbx
	popq	%r14
	popq	%rbp
	.cfi_def_cfa %rsp, 8
	retq
.LBB5_5:                                # %func_GenerateSeq_parameter_set_rbsp.42
	.cfi_def_cfa %rbp, 16
	movq	%rbx, %rdi
	movq	%r14, %rsi
	callq	GenerateSeq_parameter_set_rbsp.42
	popq	%rbx
	popq	%r14
	popq	%rbp
	.cfi_def_cfa %rsp, 8
	retq
.LBB5_6:                                # %func_GenerateSeq_parameter_set_rbsp.55
	.cfi_def_cfa %rbp, 16
	movq	%rbx, %rdi
	movq	%r14, %rsi
	callq	GenerateSeq_parameter_set_rbsp.55
	popq	%rbx
	popq	%r14
	popq	%rbp
	.cfi_def_cfa %rsp, 8
	retq
.LBB5_7:                                # %func_GenerateSeq_parameter_set_rbsp.59
	.cfi_def_cfa %rbp, 16
	movq	%rbx, %rdi
	movq	%r14, %rsi
	callq	GenerateSeq_parameter_set_rbsp.59
	popq	%rbx
	popq	%r14
	popq	%rbp
	.cfi_def_cfa %rsp, 8
	retq
.LBB5_8:                                # %func_GenerateSeq_parameter_set_rbsp.60
	.cfi_def_cfa %rbp, 16
	movq	%rbx, %rdi
	movq	%r14, %rsi
	callq	GenerateSeq_parameter_set_rbsp.60
	popq	%rbx
	popq	%r14
	popq	%rbp
	.cfi_def_cfa %rsp, 8
	retq
.LBB5_9:                                # %func_GenerateSeq_parameter_set_rbsp.61
	.cfi_def_cfa %rbp, 16
	movq	%rbx, %rdi
	movq	%r14, %rsi
	callq	GenerateSeq_parameter_set_rbsp.61
	popq	%rbx
	popq	%r14
	popq	%rbp
	.cfi_def_cfa %rsp, 8
	retq
.LBB5_10:                               # %func_GenerateSeq_parameter_set_rbsp.67
	.cfi_def_cfa %rbp, 16
	movq	%rbx, %rdi
	movq	%r14, %rsi
	callq	GenerateSeq_parameter_set_rbsp.67
	popq	%rbx
	popq	%r14
	popq	%rbp
	.cfi_def_cfa %rsp, 8
	retq
.LBB5_11:                               # %func_GenerateSeq_parameter_set_rbsp.70
	.cfi_def_cfa %rbp, 16
	movq	%rbx, %rdi
	movq	%r14, %rsi
	callq	GenerateSeq_parameter_set_rbsp.70
	popq	%rbx
	popq	%r14
	popq	%rbp
	.cfi_def_cfa %rsp, 8
	retq
.LBB5_12:                               # %func_GenerateSeq_parameter_set_rbsp.72
	.cfi_def_cfa %rbp, 16
	movq	%rbx, %rdi
	movq	%r14, %rsi
	callq	GenerateSeq_parameter_set_rbsp.72
	popq	%rbx
	popq	%r14
	popq	%rbp
	.cfi_def_cfa %rsp, 8
	retq
.LBB5_13:                               # %func_GenerateSeq_parameter_set_rbsp.74
	.cfi_def_cfa %rbp, 16
	movq	%rbx, %rdi
	movq	%r14, %rsi
	callq	GenerateSeq_parameter_set_rbsp.74
	popq	%rbx
	popq	%r14
	popq	%rbp
	.cfi_def_cfa %rsp, 8
	retq
.LBB5_14:                               # %func_GenerateSeq_parameter_set_rbsp.79
	.cfi_def_cfa %rbp, 16
	movq	%rbx, %rdi
	movq	%r14, %rsi
	callq	GenerateSeq_parameter_set_rbsp.79
	popq	%rbx
	popq	%r14
	popq	%rbp
	.cfi_def_cfa %rsp, 8
	retq
.LBB5_15:                               # %func_GenerateSeq_parameter_set_rbsp.84
	.cfi_def_cfa %rbp, 16
	movq	%rbx, %rdi
	movq	%r14, %rsi
	callq	GenerateSeq_parameter_set_rbsp.84
	popq	%rbx
	popq	%r14
	popq	%rbp
	.cfi_def_cfa %rsp, 8
	retq
.LBB5_16:                               # %func_GenerateSeq_parameter_set_rbsp.86
	.cfi_def_cfa %rbp, 16
	movq	%rbx, %rdi
	movq	%r14, %rsi
	callq	GenerateSeq_parameter_set_rbsp.86
	popq	%rbx
	popq	%r14
	popq	%rbp
	.cfi_def_cfa %rsp, 8
	retq
.LBB5_17:                               # %ctrl0
	.cfi_def_cfa %rbp, 16
	cmpl	$1, %eax
	je	.LBB5_2
# %bb.18:                               # %ctrl1
	cmpl	$2, %eax
	je	.LBB5_3
# %bb.19:                               # %ctrl2
	cmpl	$3, %eax
	je	.LBB5_4
# %bb.20:                               # %ctrl3
	cmpl	$4, %eax
	je	.LBB5_5
# %bb.21:                               # %ctrl4
	cmpl	$5, %eax
	je	.LBB5_6
# %bb.22:                               # %ctrl5
	cmpl	$6, %eax
	je	.LBB5_7
# %bb.23:                               # %ctrl6
	cmpl	$7, %eax
	je	.LBB5_8
# %bb.24:                               # %ctrl7
	cmpl	$8, %eax
	je	.LBB5_9
# %bb.25:                               # %ctrl8
	cmpl	$9, %eax
	je	.LBB5_10
# %bb.26:                               # %ctrl9
	cmpl	$10, %eax
	je	.LBB5_11
# %bb.27:                               # %ctrl10
	cmpl	$11, %eax
	je	.LBB5_12
# %bb.28:                               # %ctrl11
	cmpl	$12, %eax
	je	.LBB5_13
# %bb.29:                               # %ctrl12
	cmpl	$13, %eax
	je	.LBB5_14
# %bb.30:                               # %ctrl13
	cmpl	$14, %eax
	je	.LBB5_15
	jmp	.LBB5_16
.Lfunc_end5:
	.size	GenerateSeq_parameter_set_rbsp, .Lfunc_end5-GenerateSeq_parameter_set_rbsp
	.cfi_endproc
                                        # -- End function
	.globl	GeneratePic_parameter_set_NALU # -- Begin function GeneratePic_parameter_set_NALU
	.p2align	4, 0x90
	.type	GeneratePic_parameter_set_NALU,@function
GeneratePic_parameter_set_NALU:         # @GeneratePic_parameter_set_NALU
	.cfi_startproc
# %bb.0:                                # %rand_bb
	pushq	%rbp
	.cfi_def_cfa_offset 16
	.cfi_offset %rbp, -16
	movq	%rsp, %rbp
	.cfi_def_cfa_register %rbp
	pushq	%rbx
	pushq	%rax
	.cfi_offset %rbx, -24
	movl	%edi, %ebx
	callq	get_urand
	cmpl	$0, %eax
	jne	.LBB6_17
# %bb.1:                                # %func_GeneratePic_parameter_set_NALU.7
	movl	%ebx, %edi
	callq	GeneratePic_parameter_set_NALU.7
	addq	$8, %rsp
	popq	%rbx
	popq	%rbp
	.cfi_def_cfa %rsp, 8
	retq
.LBB6_2:                                # %func_GeneratePic_parameter_set_NALU.32
	.cfi_def_cfa %rbp, 16
	movl	%ebx, %edi
	callq	GeneratePic_parameter_set_NALU.32
	addq	$8, %rsp
	popq	%rbx
	popq	%rbp
	.cfi_def_cfa %rsp, 8
	retq
.LBB6_3:                                # %func_GeneratePic_parameter_set_NALU.44
	.cfi_def_cfa %rbp, 16
	movl	%ebx, %edi
	callq	GeneratePic_parameter_set_NALU.44
	addq	$8, %rsp
	popq	%rbx
	popq	%rbp
	.cfi_def_cfa %rsp, 8
	retq
.LBB6_4:                                # %func_GeneratePic_parameter_set_NALU.52
	.cfi_def_cfa %rbp, 16
	movl	%ebx, %edi
	callq	GeneratePic_parameter_set_NALU.52
	addq	$8, %rsp
	popq	%rbx
	popq	%rbp
	.cfi_def_cfa %rsp, 8
	retq
.LBB6_5:                                # %func_GeneratePic_parameter_set_NALU.57
	.cfi_def_cfa %rbp, 16
	movl	%ebx, %edi
	callq	GeneratePic_parameter_set_NALU.57
	addq	$8, %rsp
	popq	%rbx
	popq	%rbp
	.cfi_def_cfa %rsp, 8
	retq
.LBB6_6:                                # %func_GeneratePic_parameter_set_NALU.76
	.cfi_def_cfa %rbp, 16
	movl	%ebx, %edi
	callq	GeneratePic_parameter_set_NALU.76
	addq	$8, %rsp
	popq	%rbx
	popq	%rbp
	.cfi_def_cfa %rsp, 8
	retq
.LBB6_7:                                # %func_GeneratePic_parameter_set_NALU.83
	.cfi_def_cfa %rbp, 16
	movl	%ebx, %edi
	callq	GeneratePic_parameter_set_NALU.83
	addq	$8, %rsp
	popq	%rbx
	popq	%rbp
	.cfi_def_cfa %rsp, 8
	retq
.LBB6_8:                                # %func_GeneratePic_parameter_set_NALU.87
	.cfi_def_cfa %rbp, 16
	movl	%ebx, %edi
	callq	GeneratePic_parameter_set_NALU.87
	addq	$8, %rsp
	popq	%rbx
	popq	%rbp
	.cfi_def_cfa %rsp, 8
	retq
.LBB6_9:                                # %func_GeneratePic_parameter_set_NALU.94
	.cfi_def_cfa %rbp, 16
	movl	%ebx, %edi
	callq	GeneratePic_parameter_set_NALU.94
	addq	$8, %rsp
	popq	%rbx
	popq	%rbp
	.cfi_def_cfa %rsp, 8
	retq
.LBB6_10:                               # %func_GeneratePic_parameter_set_NALU.98
	.cfi_def_cfa %rbp, 16
	movl	%ebx, %edi
	callq	GeneratePic_parameter_set_NALU.98
	addq	$8, %rsp
	popq	%rbx
	popq	%rbp
	.cfi_def_cfa %rsp, 8
	retq
.LBB6_11:                               # %func_GeneratePic_parameter_set_NALU.102
	.cfi_def_cfa %rbp, 16
	movl	%ebx, %edi
	callq	GeneratePic_parameter_set_NALU.102
	addq	$8, %rsp
	popq	%rbx
	popq	%rbp
	.cfi_def_cfa %rsp, 8
	retq
.LBB6_12:                               # %func_GeneratePic_parameter_set_NALU.105
	.cfi_def_cfa %rbp, 16
	movl	%ebx, %edi
	callq	GeneratePic_parameter_set_NALU.105
	addq	$8, %rsp
	popq	%rbx
	popq	%rbp
	.cfi_def_cfa %rsp, 8
	retq
.LBB6_13:                               # %func_GeneratePic_parameter_set_NALU.108
	.cfi_def_cfa %rbp, 16
	movl	%ebx, %edi
	callq	GeneratePic_parameter_set_NALU.108
	addq	$8, %rsp
	popq	%rbx
	popq	%rbp
	.cfi_def_cfa %rsp, 8
	retq
.LBB6_14:                               # %func_GeneratePic_parameter_set_NALU.110
	.cfi_def_cfa %rbp, 16
	movl	%ebx, %edi
	callq	GeneratePic_parameter_set_NALU.110
	addq	$8, %rsp
	popq	%rbx
	popq	%rbp
	.cfi_def_cfa %rsp, 8
	retq
.LBB6_15:                               # %func_GeneratePic_parameter_set_NALU.112
	.cfi_def_cfa %rbp, 16
	movl	%ebx, %edi
	callq	GeneratePic_parameter_set_NALU.112
	addq	$8, %rsp
	popq	%rbx
	popq	%rbp
	.cfi_def_cfa %rsp, 8
	retq
.LBB6_16:                               # %func_GeneratePic_parameter_set_NALU.114
	.cfi_def_cfa %rbp, 16
	movl	%ebx, %edi
	callq	GeneratePic_parameter_set_NALU.114
	addq	$8, %rsp
	popq	%rbx
	popq	%rbp
	.cfi_def_cfa %rsp, 8
	retq
.LBB6_17:                               # %ctrl0
	.cfi_def_cfa %rbp, 16
	cmpl	$1, %eax
	je	.LBB6_2
# %bb.18:                               # %ctrl1
	cmpl	$2, %eax
	je	.LBB6_3
# %bb.19:                               # %ctrl2
	cmpl	$3, %eax
	je	.LBB6_4
# %bb.20:                               # %ctrl3
	cmpl	$4, %eax
	je	.LBB6_5
# %bb.21:                               # %ctrl4
	cmpl	$5, %eax
	je	.LBB6_6
# %bb.22:                               # %ctrl5
	cmpl	$6, %eax
	je	.LBB6_7
# %bb.23:                               # %ctrl6
	cmpl	$7, %eax
	je	.LBB6_8
# %bb.24:                               # %ctrl7
	cmpl	$8, %eax
	je	.LBB6_9
# %bb.25:                               # %ctrl8
	cmpl	$9, %eax
	je	.LBB6_10
# %bb.26:                               # %ctrl9
	cmpl	$10, %eax
	je	.LBB6_11
# %bb.27:                               # %ctrl10
	cmpl	$11, %eax
	je	.LBB6_12
# %bb.28:                               # %ctrl11
	cmpl	$12, %eax
	je	.LBB6_13
# %bb.29:                               # %ctrl12
	cmpl	$13, %eax
	je	.LBB6_14
# %bb.30:                               # %ctrl13
	cmpl	$14, %eax
	je	.LBB6_15
	jmp	.LBB6_16
.Lfunc_end6:
	.size	GeneratePic_parameter_set_NALU, .Lfunc_end6-GeneratePic_parameter_set_NALU
	.cfi_endproc
                                        # -- End function
	.globl	GeneratePic_parameter_set_rbsp # -- Begin function GeneratePic_parameter_set_rbsp
	.p2align	4, 0x90
	.type	GeneratePic_parameter_set_rbsp,@function
GeneratePic_parameter_set_rbsp:         # @GeneratePic_parameter_set_rbsp
	.cfi_startproc
# %bb.0:                                # %rand_bb
	pushq	%rbp
	.cfi_def_cfa_offset 16
	.cfi_offset %rbp, -16
	movq	%rsp, %rbp
	.cfi_def_cfa_register %rbp
	pushq	%r14
	pushq	%rbx
	.cfi_offset %rbx, -32
	.cfi_offset %r14, -24
	movq	%rsi, %r14
	movq	%rdi, %rbx
	callq	get_urand
	cmpl	$0, %eax
	jne	.LBB7_17
# %bb.1:                                # %func_GeneratePic_parameter_set_rbsp.2
	movq	%rbx, %rdi
	movq	%r14, %rsi
	callq	GeneratePic_parameter_set_rbsp.2
	popq	%rbx
	popq	%r14
	popq	%rbp
	.cfi_def_cfa %rsp, 8
	retq
.LBB7_2:                                # %func_GeneratePic_parameter_set_rbsp.3
	.cfi_def_cfa %rbp, 16
	movq	%rbx, %rdi
	movq	%r14, %rsi
	callq	GeneratePic_parameter_set_rbsp.3
	popq	%rbx
	popq	%r14
	popq	%rbp
	.cfi_def_cfa %rsp, 8
	retq
.LBB7_3:                                # %func_GeneratePic_parameter_set_rbsp.15
	.cfi_def_cfa %rbp, 16
	movq	%rbx, %rdi
	movq	%r14, %rsi
	callq	GeneratePic_parameter_set_rbsp.15
	popq	%rbx
	popq	%r14
	popq	%rbp
	.cfi_def_cfa %rsp, 8
	retq
.LBB7_4:                                # %func_GeneratePic_parameter_set_rbsp.36
	.cfi_def_cfa %rbp, 16
	movq	%rbx, %rdi
	movq	%r14, %rsi
	callq	GeneratePic_parameter_set_rbsp.36
	popq	%rbx
	popq	%r14
	popq	%rbp
	.cfi_def_cfa %rsp, 8
	retq
.LBB7_5:                                # %func_GeneratePic_parameter_set_rbsp.39
	.cfi_def_cfa %rbp, 16
	movq	%rbx, %rdi
	movq	%r14, %rsi
	callq	GeneratePic_parameter_set_rbsp.39
	popq	%rbx
	popq	%r14
	popq	%rbp
	.cfi_def_cfa %rsp, 8
	retq
.LBB7_6:                                # %func_GeneratePic_parameter_set_rbsp.41
	.cfi_def_cfa %rbp, 16
	movq	%rbx, %rdi
	movq	%r14, %rsi
	callq	GeneratePic_parameter_set_rbsp.41
	popq	%rbx
	popq	%r14
	popq	%rbp
	.cfi_def_cfa %rsp, 8
	retq
.LBB7_7:                                # %func_GeneratePic_parameter_set_rbsp.43
	.cfi_def_cfa %rbp, 16
	movq	%rbx, %rdi
	movq	%r14, %rsi
	callq	GeneratePic_parameter_set_rbsp.43
	popq	%rbx
	popq	%r14
	popq	%rbp
	.cfi_def_cfa %rsp, 8
	retq
.LBB7_8:                                # %func_GeneratePic_parameter_set_rbsp.47
	.cfi_def_cfa %rbp, 16
	movq	%rbx, %rdi
	movq	%r14, %rsi
	callq	GeneratePic_parameter_set_rbsp.47
	popq	%rbx
	popq	%r14
	popq	%rbp
	.cfi_def_cfa %rsp, 8
	retq
.LBB7_9:                                # %func_GeneratePic_parameter_set_rbsp.49
	.cfi_def_cfa %rbp, 16
	movq	%rbx, %rdi
	movq	%r14, %rsi
	callq	GeneratePic_parameter_set_rbsp.49
	popq	%rbx
	popq	%r14
	popq	%rbp
	.cfi_def_cfa %rsp, 8
	retq
.LBB7_10:                               # %func_GeneratePic_parameter_set_rbsp.50
	.cfi_def_cfa %rbp, 16
	movq	%rbx, %rdi
	movq	%r14, %rsi
	callq	GeneratePic_parameter_set_rbsp.50
	popq	%rbx
	popq	%r14
	popq	%rbp
	.cfi_def_cfa %rsp, 8
	retq
.LBB7_11:                               # %func_GeneratePic_parameter_set_rbsp.73
	.cfi_def_cfa %rbp, 16
	movq	%rbx, %rdi
	movq	%r14, %rsi
	callq	GeneratePic_parameter_set_rbsp.73
	popq	%rbx
	popq	%r14
	popq	%rbp
	.cfi_def_cfa %rsp, 8
	retq
.LBB7_12:                               # %func_GeneratePic_parameter_set_rbsp.75
	.cfi_def_cfa %rbp, 16
	movq	%rbx, %rdi
	movq	%r14, %rsi
	callq	GeneratePic_parameter_set_rbsp.75
	popq	%rbx
	popq	%r14
	popq	%rbp
	.cfi_def_cfa %rsp, 8
	retq
.LBB7_13:                               # %func_GeneratePic_parameter_set_rbsp.77
	.cfi_def_cfa %rbp, 16
	movq	%rbx, %rdi
	movq	%r14, %rsi
	callq	GeneratePic_parameter_set_rbsp.77
	popq	%rbx
	popq	%r14
	popq	%rbp
	.cfi_def_cfa %rsp, 8
	retq
.LBB7_14:                               # %func_GeneratePic_parameter_set_rbsp.80
	.cfi_def_cfa %rbp, 16
	movq	%rbx, %rdi
	movq	%r14, %rsi
	callq	GeneratePic_parameter_set_rbsp.80
	popq	%rbx
	popq	%r14
	popq	%rbp
	.cfi_def_cfa %rsp, 8
	retq
.LBB7_15:                               # %func_GeneratePic_parameter_set_rbsp.91
	.cfi_def_cfa %rbp, 16
	movq	%rbx, %rdi
	movq	%r14, %rsi
	callq	GeneratePic_parameter_set_rbsp.91
	popq	%rbx
	popq	%r14
	popq	%rbp
	.cfi_def_cfa %rsp, 8
	retq
.LBB7_16:                               # %func_GeneratePic_parameter_set_rbsp.93
	.cfi_def_cfa %rbp, 16
	movq	%rbx, %rdi
	movq	%r14, %rsi
	callq	GeneratePic_parameter_set_rbsp.93
	popq	%rbx
	popq	%r14
	popq	%rbp
	.cfi_def_cfa %rsp, 8
	retq
.LBB7_17:                               # %ctrl0
	.cfi_def_cfa %rbp, 16
	cmpl	$1, %eax
	je	.LBB7_2
# %bb.18:                               # %ctrl1
	cmpl	$2, %eax
	je	.LBB7_3
# %bb.19:                               # %ctrl2
	cmpl	$3, %eax
	je	.LBB7_4
# %bb.20:                               # %ctrl3
	cmpl	$4, %eax
	je	.LBB7_5
# %bb.21:                               # %ctrl4
	cmpl	$5, %eax
	je	.LBB7_6
# %bb.22:                               # %ctrl5
	cmpl	$6, %eax
	je	.LBB7_7
# %bb.23:                               # %ctrl6
	cmpl	$7, %eax
	je	.LBB7_8
# %bb.24:                               # %ctrl7
	cmpl	$8, %eax
	je	.LBB7_9
# %bb.25:                               # %ctrl8
	cmpl	$9, %eax
	je	.LBB7_10
# %bb.26:                               # %ctrl9
	cmpl	$10, %eax
	je	.LBB7_11
# %bb.27:                               # %ctrl10
	cmpl	$11, %eax
	je	.LBB7_12
# %bb.28:                               # %ctrl11
	cmpl	$12, %eax
	je	.LBB7_13
# %bb.29:                               # %ctrl12
	cmpl	$13, %eax
	je	.LBB7_14
# %bb.30:                               # %ctrl13
	cmpl	$14, %eax
	je	.LBB7_15
	jmp	.LBB7_16
.Lfunc_end7:
	.size	GeneratePic_parameter_set_rbsp, .Lfunc_end7-GeneratePic_parameter_set_rbsp
	.cfi_endproc
                                        # -- End function
	.globl	Scaling_List            # -- Begin function Scaling_List
	.p2align	4, 0x90
	.type	Scaling_List,@function
Scaling_List:                           # @Scaling_List
	.cfi_startproc
# %bb.0:                                # %rand_bb
	pushq	%rbp
	.cfi_def_cfa_offset 16
	.cfi_offset %rbp, -16
	movq	%rsp, %rbp
	.cfi_def_cfa_register %rbp
	pushq	%r15
	pushq	%r14
	pushq	%r13
	pushq	%r12
	pushq	%rbx
	pushq	%rax
	.cfi_offset %rbx, -56
	.cfi_offset %r12, -48
	.cfi_offset %r13, -40
	.cfi_offset %r14, -32
	.cfi_offset %r15, -24
	movq	%r8, %r14
	movq	%rcx, %r15
	movl	%edx, %r12d
	movq	%rsi, %r13
	movq	%rdi, %rbx
	callq	get_urand
	cmpl	$0, %eax
	jne	.LBB8_17
# %bb.1:                                # %func_Scaling_List.11
	movq	%rbx, %rdi
	movq	%r13, %rsi
	movl	%r12d, %edx
	movq	%r15, %rcx
	movq	%r14, %r8
	callq	Scaling_List.11
	addq	$8, %rsp
	popq	%rbx
	popq	%r12
	popq	%r13
	popq	%r14
	popq	%r15
	popq	%rbp
	.cfi_def_cfa %rsp, 8
	retq
.LBB8_2:                                # %func_Scaling_List.16
	.cfi_def_cfa %rbp, 16
	movq	%rbx, %rdi
	movq	%r13, %rsi
	movl	%r12d, %edx
	movq	%r15, %rcx
	movq	%r14, %r8
	callq	Scaling_List.16
	addq	$8, %rsp
	popq	%rbx
	popq	%r12
	popq	%r13
	popq	%r14
	popq	%r15
	popq	%rbp
	.cfi_def_cfa %rsp, 8
	retq
.LBB8_3:                                # %func_Scaling_List.21
	.cfi_def_cfa %rbp, 16
	movq	%rbx, %rdi
	movq	%r13, %rsi
	movl	%r12d, %edx
	movq	%r15, %rcx
	movq	%r14, %r8
	callq	Scaling_List.21
	addq	$8, %rsp
	popq	%rbx
	popq	%r12
	popq	%r13
	popq	%r14
	popq	%r15
	popq	%rbp
	.cfi_def_cfa %rsp, 8
	retq
.LBB8_4:                                # %func_Scaling_List.23
	.cfi_def_cfa %rbp, 16
	movq	%rbx, %rdi
	movq	%r13, %rsi
	movl	%r12d, %edx
	movq	%r15, %rcx
	movq	%r14, %r8
	callq	Scaling_List.23
	addq	$8, %rsp
	popq	%rbx
	popq	%r12
	popq	%r13
	popq	%r14
	popq	%r15
	popq	%rbp
	.cfi_def_cfa %rsp, 8
	retq
.LBB8_5:                                # %func_Scaling_List.26
	.cfi_def_cfa %rbp, 16
	movq	%rbx, %rdi
	movq	%r13, %rsi
	movl	%r12d, %edx
	movq	%r15, %rcx
	movq	%r14, %r8
	callq	Scaling_List.26
	addq	$8, %rsp
	popq	%rbx
	popq	%r12
	popq	%r13
	popq	%r14
	popq	%r15
	popq	%rbp
	.cfi_def_cfa %rsp, 8
	retq
.LBB8_6:                                # %func_Scaling_List.35
	.cfi_def_cfa %rbp, 16
	movq	%rbx, %rdi
	movq	%r13, %rsi
	movl	%r12d, %edx
	movq	%r15, %rcx
	movq	%r14, %r8
	callq	Scaling_List.35
	addq	$8, %rsp
	popq	%rbx
	popq	%r12
	popq	%r13
	popq	%r14
	popq	%r15
	popq	%rbp
	.cfi_def_cfa %rsp, 8
	retq
.LBB8_7:                                # %func_Scaling_List.51
	.cfi_def_cfa %rbp, 16
	movq	%rbx, %rdi
	movq	%r13, %rsi
	movl	%r12d, %edx
	movq	%r15, %rcx
	movq	%r14, %r8
	callq	Scaling_List.51
	addq	$8, %rsp
	popq	%rbx
	popq	%r12
	popq	%r13
	popq	%r14
	popq	%r15
	popq	%rbp
	.cfi_def_cfa %rsp, 8
	retq
.LBB8_8:                                # %func_Scaling_List.53
	.cfi_def_cfa %rbp, 16
	movq	%rbx, %rdi
	movq	%r13, %rsi
	movl	%r12d, %edx
	movq	%r15, %rcx
	movq	%r14, %r8
	callq	Scaling_List.53
	addq	$8, %rsp
	popq	%rbx
	popq	%r12
	popq	%r13
	popq	%r14
	popq	%r15
	popq	%rbp
	.cfi_def_cfa %rsp, 8
	retq
.LBB8_9:                                # %func_Scaling_List.54
	.cfi_def_cfa %rbp, 16
	movq	%rbx, %rdi
	movq	%r13, %rsi
	movl	%r12d, %edx
	movq	%r15, %rcx
	movq	%r14, %r8
	callq	Scaling_List.54
	addq	$8, %rsp
	popq	%rbx
	popq	%r12
	popq	%r13
	popq	%r14
	popq	%r15
	popq	%rbp
	.cfi_def_cfa %rsp, 8
	retq
.LBB8_10:                               # %func_Scaling_List.58
	.cfi_def_cfa %rbp, 16
	movq	%rbx, %rdi
	movq	%r13, %rsi
	movl	%r12d, %edx
	movq	%r15, %rcx
	movq	%r14, %r8
	callq	Scaling_List.58
	addq	$8, %rsp
	popq	%rbx
	popq	%r12
	popq	%r13
	popq	%r14
	popq	%r15
	popq	%rbp
	.cfi_def_cfa %rsp, 8
	retq
.LBB8_11:                               # %func_Scaling_List.65
	.cfi_def_cfa %rbp, 16
	movq	%rbx, %rdi
	movq	%r13, %rsi
	movl	%r12d, %edx
	movq	%r15, %rcx
	movq	%r14, %r8
	callq	Scaling_List.65
	addq	$8, %rsp
	popq	%rbx
	popq	%r12
	popq	%r13
	popq	%r14
	popq	%r15
	popq	%rbp
	.cfi_def_cfa %rsp, 8
	retq
.LBB8_12:                               # %func_Scaling_List.66
	.cfi_def_cfa %rbp, 16
	movq	%rbx, %rdi
	movq	%r13, %rsi
	movl	%r12d, %edx
	movq	%r15, %rcx
	movq	%r14, %r8
	callq	Scaling_List.66
	addq	$8, %rsp
	popq	%rbx
	popq	%r12
	popq	%r13
	popq	%r14
	popq	%r15
	popq	%rbp
	.cfi_def_cfa %rsp, 8
	retq
.LBB8_13:                               # %func_Scaling_List.68
	.cfi_def_cfa %rbp, 16
	movq	%rbx, %rdi
	movq	%r13, %rsi
	movl	%r12d, %edx
	movq	%r15, %rcx
	movq	%r14, %r8
	callq	Scaling_List.68
	addq	$8, %rsp
	popq	%rbx
	popq	%r12
	popq	%r13
	popq	%r14
	popq	%r15
	popq	%rbp
	.cfi_def_cfa %rsp, 8
	retq
.LBB8_14:                               # %func_Scaling_List.78
	.cfi_def_cfa %rbp, 16
	movq	%rbx, %rdi
	movq	%r13, %rsi
	movl	%r12d, %edx
	movq	%r15, %rcx
	movq	%r14, %r8
	callq	Scaling_List.78
	addq	$8, %rsp
	popq	%rbx
	popq	%r12
	popq	%r13
	popq	%r14
	popq	%r15
	popq	%rbp
	.cfi_def_cfa %rsp, 8
	retq
.LBB8_15:                               # %func_Scaling_List.85
	.cfi_def_cfa %rbp, 16
	movq	%rbx, %rdi
	movq	%r13, %rsi
	movl	%r12d, %edx
	movq	%r15, %rcx
	movq	%r14, %r8
	callq	Scaling_List.85
	addq	$8, %rsp
	popq	%rbx
	popq	%r12
	popq	%r13
	popq	%r14
	popq	%r15
	popq	%rbp
	.cfi_def_cfa %rsp, 8
	retq
.LBB8_16:                               # %func_Scaling_List.96
	.cfi_def_cfa %rbp, 16
	movq	%rbx, %rdi
	movq	%r13, %rsi
	movl	%r12d, %edx
	movq	%r15, %rcx
	movq	%r14, %r8
	callq	Scaling_List.96
	addq	$8, %rsp
	popq	%rbx
	popq	%r12
	popq	%r13
	popq	%r14
	popq	%r15
	popq	%rbp
	.cfi_def_cfa %rsp, 8
	retq
.LBB8_17:                               # %ctrl0
	.cfi_def_cfa %rbp, 16
	cmpl	$1, %eax
	je	.LBB8_2
# %bb.18:                               # %ctrl1
	cmpl	$2, %eax
	je	.LBB8_3
# %bb.19:                               # %ctrl2
	cmpl	$3, %eax
	je	.LBB8_4
# %bb.20:                               # %ctrl3
	cmpl	$4, %eax
	je	.LBB8_5
# %bb.21:                               # %ctrl4
	cmpl	$5, %eax
	je	.LBB8_6
# %bb.22:                               # %ctrl5
	cmpl	$6, %eax
	je	.LBB8_7
# %bb.23:                               # %ctrl6
	cmpl	$7, %eax
	je	.LBB8_8
# %bb.24:                               # %ctrl7
	cmpl	$8, %eax
	je	.LBB8_9
# %bb.25:                               # %ctrl8
	cmpl	$9, %eax
	je	.LBB8_10
# %bb.26:                               # %ctrl9
	cmpl	$10, %eax
	je	.LBB8_11
# %bb.27:                               # %ctrl10
	cmpl	$11, %eax
	je	.LBB8_12
# %bb.28:                               # %ctrl11
	cmpl	$12, %eax
	je	.LBB8_13
# %bb.29:                               # %ctrl12
	cmpl	$13, %eax
	je	.LBB8_14
# %bb.30:                               # %ctrl13
	cmpl	$14, %eax
	je	.LBB8_15
	jmp	.LBB8_16
.Lfunc_end8:
	.size	Scaling_List, .Lfunc_end8-Scaling_List
	.cfi_endproc
                                        # -- End function
	.p2align	4, 0x90         # -- Begin function IdentifyProfile
	.type	IdentifyProfile,@function
IdentifyProfile:                        # @IdentifyProfile
	.cfi_startproc
# %bb.0:                                # %entry
	pushq	%rbp
	.cfi_def_cfa_offset 16
	.cfi_offset %rbp, -16
	movq	%rsp, %rbp
	.cfi_def_cfa_register %rbp
	movq	input, %rax
	movl	(%rax), %eax
	popq	%rbp
	.cfi_def_cfa %rsp, 8
	retq
.Lfunc_end9:
	.size	IdentifyProfile, .Lfunc_end9-IdentifyProfile
	.cfi_endproc
                                        # -- End function
	.p2align	4, 0x90         # -- Begin function IdentifyLevel
	.type	IdentifyLevel,@function
IdentifyLevel:                          # @IdentifyLevel
	.cfi_startproc
# %bb.0:                                # %entry
	pushq	%rbp
	.cfi_def_cfa_offset 16
	.cfi_offset %rbp, -16
	movq	%rsp, %rbp
	.cfi_def_cfa_register %rbp
	movq	input, %rax
	movl	4(%rax), %eax
	popq	%rbp
	.cfi_def_cfa %rsp, 8
	retq
.Lfunc_end10:
	.size	IdentifyLevel, .Lfunc_end10-IdentifyLevel
	.cfi_endproc
                                        # -- End function
	.p2align	4, 0x90         # -- Begin function GenerateVUISequenceParameters
	.type	GenerateVUISequenceParameters,@function
GenerateVUISequenceParameters:          # @GenerateVUISequenceParameters
	.cfi_startproc
# %bb.0:                                # %rand_bb
	pushq	%rbp
	.cfi_def_cfa_offset 16
	.cfi_offset %rbp, -16
	movq	%rsp, %rbp
	.cfi_def_cfa_register %rbp
	pushq	%rbx
	pushq	%rax
	.cfi_offset %rbx, -24
	movq	%rdi, %rbx
	callq	get_urand
	cmpl	$0, %eax
	jne	.LBB11_2
# %bb.1:                                # %func_GenerateVUISequenceParameters.5
	movq	%rbx, %rdi
	callq	GenerateVUISequenceParameters.5
	addq	$8, %rsp
	popq	%rbx
	popq	%rbp
	.cfi_def_cfa %rsp, 8
	retq
.LBB11_2:                               # %func_GenerateVUISequenceParameters.9
	.cfi_def_cfa %rbp, 16
	movq	%rbx, %rdi
	callq	GenerateVUISequenceParameters.9
	addq	$8, %rsp
	popq	%rbx
	popq	%rbp
	.cfi_def_cfa %rsp, 8
	retq
.Lfunc_end11:
	.size	GenerateVUISequenceParameters, .Lfunc_end11-GenerateVUISequenceParameters
	.cfi_endproc
                                        # -- End function
	.globl	GenerateSequenceParameterSet.1 # -- Begin function GenerateSequenceParameterSet.1
	.p2align	4, 0x90
	.type	GenerateSequenceParameterSet.1,@function
GenerateSequenceParameterSet.1:         # @GenerateSequenceParameterSet.1
	.cfi_startproc
# %bb.0:                                # %entry
	pushq	%rbp
	.cfi_def_cfa_offset 16
	.cfi_offset %rbp, -16
	movq	%rsp, %rbp
	.cfi_def_cfa_register %rbp
	subq	$96, %rsp
	movl	$683730810, -28(%rbp)   # imm = 0x28C0E77A
	movq	%rdi, -8(%rbp)
	movl	%esi, -84(%rbp)
	movq	.L__const.GenerateSequenceParameterSet.SubWidthC, %rax
	movq	%rax, -80(%rbp)
	movq	.L__const.GenerateSequenceParameterSet.SubWidthC+8, %rax
	movq	%rax, -72(%rbp)
	movq	.L__const.GenerateSequenceParameterSet.SubHeightC, %rax
	movq	%rax, -64(%rbp)
	movq	.L__const.GenerateSequenceParameterSet.SubHeightC+8, %rax
	movq	%rax, -56(%rbp)
	callq	IdentifyProfile
	cmpl	$100, %eax
	movb	$1, %al
	je	.LBB12_4
# %bb.1:                                # %lor.lhs.false
	callq	IdentifyProfile
	cmpl	$110, %eax
	movb	$1, %al
	je	.LBB12_4
# %bb.2:                                # %lor.lhs.false3
	callq	IdentifyProfile
	cmpl	$122, %eax
	movb	$1, %al
	je	.LBB12_4
# %bb.3:                                # %lor.rhs
	callq	IdentifyProfile
	cmpl	$144, %eax
	sete	%al
.LBB12_4:                               # %lor.end
	andb	$1, %al
	movzbl	%al, %eax
	movl	%eax, -24(%rbp)
	callq	IdentifyProfile
	movq	-8(%rbp), %rcx
	movl	%eax, 4(%rcx)
	callq	IdentifyLevel
	movq	-8(%rbp), %rcx
	movl	%eax, 24(%rcx)
	movq	-8(%rbp), %rax
	movl	$0, 8(%rax)
	movq	-8(%rbp), %rax
	movl	$0, 12(%rax)
	movq	-8(%rbp), %rax
	movl	$0, 16(%rax)
	movq	-8(%rbp), %rax
	movl	$0, 20(%rax)
	movq	-8(%rbp), %rax
	movl	$0, 28(%rax)
	movq	input, %rax
	movl	3296(%rax), %eax
	subl	$8, %eax
	movq	-8(%rbp), %rcx
	movl	%eax, 72(%rcx)
	movq	input, %rax
	movl	3300(%rax), %eax
	subl	$8, %eax
	movq	-8(%rbp), %rcx
	movl	%eax, 76(%rcx)
	movq	input, %rax
	movl	3324(%rax), %eax
	movq	-8(%rbp), %rcx
	cmpl	$144, 4(%rcx)
	sete	%cl
	andb	$1, %cl
	movzbl	%cl, %ecx
	andl	%ecx, %eax
	movq	img, %rcx
	movl	%eax, 72704(%rcx)
	movq	input, %rax
	movl	3328(%rax), %eax
	movq	img, %rcx
	movl	%eax, 72724(%rcx)
	movl	log2_max_frame_num_minus4, %eax
	movq	-8(%rbp), %rcx
	movl	%eax, 80(%rcx)
	movl	log2_max_pic_order_cnt_lsb_minus4, %eax
	movq	-8(%rbp), %rcx
	movl	%eax, 88(%rcx)
	movq	input, %rax
	movl	3208(%rax), %eax
	movq	-8(%rbp), %rcx
	movl	%eax, 84(%rcx)
	movq	img, %rax
	movl	72420(%rax), %eax
	movq	-8(%rbp), %rcx
	movl	%eax, 104(%rcx)
	movq	img, %rax
	movl	72408(%rax), %eax
	movq	-8(%rbp), %rcx
	movl	%eax, 92(%rcx)
	movq	img, %rax
	movl	72412(%rax), %eax
	movq	-8(%rbp), %rcx
	movl	%eax, 96(%rcx)
	movq	img, %rax
	movl	72416(%rax), %eax
	movq	-8(%rbp), %rcx
	movl	%eax, 100(%rcx)
	movl	$0, -12(%rbp)
.LBB12_5:                               # %for.cond
                                        # =>This Inner Loop Header: Depth=1
	movl	-12(%rbp), %eax
	movq	img, %rcx
	cmpl	72420(%rcx), %eax
	jae	.LBB12_8
# %bb.6:                                # %for.body
                                        #   in Loop: Header=BB12_5 Depth=1
	movq	img, %rax
	movl	-12(%rbp), %ecx
	movl	72424(%rax,%rcx,4), %eax
	movq	-8(%rbp), %rcx
	movl	-12(%rbp), %edx
	movl	%eax, 108(%rcx,%rdx,4)
# %bb.7:                                # %for.inc
                                        #   in Loop: Header=BB12_5 Depth=1
	movl	-12(%rbp), %eax
	addl	$1, %eax
	movl	%eax, -12(%rbp)
	jmp	.LBB12_5
.LBB12_8:                               # %for.end
	movq	input, %rax
	movl	36(%rax), %eax
	movq	-8(%rbp), %rcx
	movl	%eax, 1132(%rcx)
	movq	-8(%rbp), %rax
	movl	$0, 1136(%rax)
	movq	input, %rax
	cmpl	$0, 2880(%rax)
	movb	$1, %al
	jne	.LBB12_10
# %bb.9:                                # %lor.rhs26
	movq	input, %rax
	cmpl	$0, 2884(%rax)
	setne	%al
.LBB12_10:                              # %lor.end28
	xorl	%ecx, %ecx
	xorl	%esi, %esi
	xorb	$-1, %al
	andb	$1, %al
	movzbl	%al, %eax
	movq	-8(%rbp), %rdx
	movl	%eax, 1148(%rdx)
	movq	input, %rax
	movl	64(%rax), %eax
	movq	img, %rdx
	addl	72728(%rdx), %eax
	cltd
	movl	$16, %edi
	idivl	%edi
	subl	$1, %eax
	movq	-8(%rbp), %rdx
	movl	%eax, 1140(%rdx)
	movq	input, %rax
	movl	68(%rax), %eax
	movq	img, %rdx
	addl	72732(%rdx), %eax
	cltd
	idivl	%edi
	movq	-8(%rbp), %rdx
	movl	$2, %edi
	subl	1148(%rdx), %edi
	xorl	%edx, %edx
	divl	%edi
	subl	$1, %eax
	movq	-8(%rbp), %rdx
	movl	%eax, 1144(%rdx)
	movq	input, %rax
	cmpl	2884(%rax), %esi
	setne	%al
	andb	$1, %al
	movzbl	%al, %eax
	movq	-8(%rbp), %rdx
	movl	%eax, 1152(%rdx)
	movq	input, %rax
	movl	1252(%rax), %eax
	movq	-8(%rbp), %rdx
	movl	%eax, 1156(%rdx)
	movq	input, %rax
	cmpl	$0, 3312(%rax)
	je	.LBB12_12
# %bb.11:                               # %land.rhs
	movq	input, %rax
	cmpl	$3, 72(%rax)
	sete	%cl
.LBB12_12:                              # %land.end
	andb	$1, %cl
	movzbl	%cl, %eax
	movq	-8(%rbp), %rcx
	movl	%eax, 1180(%rcx)
	movq	input, %rax
	movl	72(%rax), %eax
	movq	-8(%rbp), %rcx
	movl	%eax, 32(%rcx)
	movq	-8(%rbp), %rax
	movl	1140(%rax), %eax
	addl	$1, %eax
	movl	%eax, -40(%rbp)
	movq	-8(%rbp), %rax
	movl	1144(%rax), %eax
	addl	$1, %eax
	movl	%eax, -16(%rbp)
	movq	-8(%rbp), %rax
	movl	$2, %ecx
	subl	1148(%rax), %ecx
	imull	-16(%rbp), %ecx
	movl	%ecx, -36(%rbp)
	movl	-40(%rbp), %eax
	shll	$4, %eax
	movl	%eax, -20(%rbp)
	movl	-36(%rbp), %eax
	shll	$4, %eax
	movl	%eax, -32(%rbp)
	movl	-20(%rbp), %edi
	movl	-32(%rbp), %esi
	movq	-8(%rbp), %rax
	movl	1152(%rax), %edx
	callq	alloc_colocated
	movq	%rax, Co_located
	cmpl	$0, -24(%rbp)
	je	.LBB12_24
# %bb.13:                               # %if.then
	movq	input, %rax
	movl	3256(%rax), %eax
	andl	$1, %eax
	movq	-8(%rbp), %rcx
	movl	%eax, 36(%rcx)
	movl	$0, -12(%rbp)
.LBB12_14:                              # %for.cond56
                                        # =>This Inner Loop Header: Depth=1
	cmpl	$8, -12(%rbp)
	jae	.LBB12_23
# %bb.15:                               # %for.body59
                                        #   in Loop: Header=BB12_14 Depth=1
	cmpl	$6, -12(%rbp)
	jae	.LBB12_17
# %bb.16:                               # %if.then62
                                        #   in Loop: Header=BB12_14 Depth=1
	movq	input, %rax
	movl	-12(%rbp), %ecx
	movl	3260(%rax,%rcx,4), %eax
	andl	$1, %eax
	movq	-8(%rbp), %rcx
	movl	-12(%rbp), %edx
	movl	%eax, 40(%rcx,%rdx,4)
	jmp	.LBB12_21
.LBB12_17:                              # %if.else
                                        #   in Loop: Header=BB12_14 Depth=1
	movq	input, %rax
	cmpl	$0, 3220(%rax)
	je	.LBB12_19
# %bb.18:                               # %if.then69
                                        #   in Loop: Header=BB12_14 Depth=1
	movq	input, %rax
	movl	-12(%rbp), %ecx
	movl	3260(%rax,%rcx,4), %eax
	andl	$1, %eax
	movq	-8(%rbp), %rcx
	movl	-12(%rbp), %edx
	movl	%eax, 40(%rcx,%rdx,4)
	jmp	.LBB12_20
.LBB12_19:                              # %if.else77
                                        #   in Loop: Header=BB12_14 Depth=1
	movq	-8(%rbp), %rax
	movl	-12(%rbp), %ecx
	movl	$0, 40(%rax,%rcx,4)
.LBB12_20:                              # %if.end
                                        #   in Loop: Header=BB12_14 Depth=1
	jmp	.LBB12_21
.LBB12_21:                              # %if.end81
                                        #   in Loop: Header=BB12_14 Depth=1
	jmp	.LBB12_22
.LBB12_22:                              # %for.inc82
                                        #   in Loop: Header=BB12_14 Depth=1
	movl	-12(%rbp), %eax
	addl	$1, %eax
	movl	%eax, -12(%rbp)
	jmp	.LBB12_14
.LBB12_23:                              # %for.end84
	jmp	.LBB12_29
.LBB12_24:                              # %if.else85
	movq	-8(%rbp), %rax
	movl	$0, 36(%rax)
	movl	$0, -12(%rbp)
.LBB12_25:                              # %for.cond87
                                        # =>This Inner Loop Header: Depth=1
	cmpl	$8, -12(%rbp)
	jae	.LBB12_28
# %bb.26:                               # %for.body90
                                        #   in Loop: Header=BB12_25 Depth=1
	movq	-8(%rbp), %rax
	movl	-12(%rbp), %ecx
	movl	$0, 40(%rax,%rcx,4)
# %bb.27:                               # %for.inc94
                                        #   in Loop: Header=BB12_25 Depth=1
	movl	-12(%rbp), %eax
	addl	$1, %eax
	movl	%eax, -12(%rbp)
	jmp	.LBB12_25
.LBB12_28:                              # %for.end96
	jmp	.LBB12_29
.LBB12_29:                              # %if.end97
	movq	img, %rax
	cmpl	$0, 72728(%rax)
	jne	.LBB12_31
# %bb.30:                               # %lor.lhs.false100
	movq	img, %rax
	cmpl	$0, 72732(%rax)
	je	.LBB12_36
.LBB12_31:                              # %if.then103
	movq	-8(%rbp), %rax
	movl	$1, 1160(%rax)
	movq	-8(%rbp), %rax
	movl	$0, 1164(%rax)
	movq	-8(%rbp), %rax
	movl	$0, 1172(%rax)
	movq	img, %rax
	movl	72728(%rax), %eax
	movq	-8(%rbp), %rcx
	movl	32(%rcx), %ecx
	cltd
	idivl	-80(%rbp,%rcx,4)
	movq	-8(%rbp), %rcx
	movl	%eax, 1168(%rcx)
	movq	img, %rax
	movl	72732(%rax), %eax
	movq	-8(%rbp), %rcx
	movl	32(%rcx), %ecx
	movl	-64(%rbp,%rcx,4), %ecx
	movq	-8(%rbp), %rdx
	movl	$2, %esi
	subl	1148(%rdx), %esi
	imull	%esi, %ecx
	xorl	%edx, %edx
	divl	%ecx
	movq	-8(%rbp), %rcx
	movl	%eax, 1176(%rcx)
	movq	img, %rax
	movl	72728(%rax), %eax
	movq	-8(%rbp), %rcx
	movl	32(%rcx), %ecx
	cltd
	idivl	-80(%rbp,%rcx,4)
	cmpl	$0, %edx
	je	.LBB12_33
# %bb.32:                               # %if.then122
	movabsq	$.L.str, %rdi
	movl	$500, %esi              # imm = 0x1F4
	callq	error
.LBB12_33:                              # %if.end123
	movq	img, %rax
	movl	72732(%rax), %eax
	movq	-8(%rbp), %rcx
	movl	32(%rcx), %ecx
	movl	-64(%rbp,%rcx,4), %ecx
	movq	-8(%rbp), %rdx
	movl	$2, %esi
	subl	1148(%rdx), %esi
	imull	%esi, %ecx
	xorl	%edx, %edx
	divl	%ecx
	cmpl	$0, %edx
	je	.LBB12_35
# %bb.34:                               # %if.then133
	movabsq	$.L.str.1, %rdi
	movl	$500, %esi              # imm = 0x1F4
	callq	error
.LBB12_35:                              # %if.end134
	jmp	.LBB12_37
.LBB12_36:                              # %if.else135
	movq	-8(%rbp), %rax
	movl	$0, 1160(%rax)
.LBB12_37:                              # %if.end137
	cmpl	$683730810, -28(%rbp)   # imm = 0x28C0E77A
	jne	.LBB12_39
.LBB12_38:
	addq	$96, %rsp
	popq	%rbp
	.cfi_def_cfa %rsp, 8
	retq
.LBB12_39:                              # %func_exit
	.cfi_def_cfa %rbp, 16
	callq	detect_breach
	jmp	.LBB12_38
.Lfunc_end12:
	.size	GenerateSequenceParameterSet.1, .Lfunc_end12-GenerateSequenceParameterSet.1
	.cfi_endproc
                                        # -- End function
	.globl	GeneratePic_parameter_set_rbsp.2 # -- Begin function GeneratePic_parameter_set_rbsp.2
	.p2align	4, 0x90
	.type	GeneratePic_parameter_set_rbsp.2,@function
GeneratePic_parameter_set_rbsp.2:       # @GeneratePic_parameter_set_rbsp.2
	.cfi_startproc
# %bb.0:                                # %entry
	pushq	%rbp
	.cfi_def_cfa_offset 16
	.cfi_offset %rbp, -16
	movq	%rsp, %rbp
	.cfi_def_cfa_register %rbp
	pushq	%rbx
	subq	$56, %rsp
	.cfi_offset %rbx, -24
	movl	$1038560567, -48(%rbp)  # imm = 0x3DE72D37
	movq	%rdi, -24(%rbp)
	movq	%rsi, -56(%rbp)
	movl	$0, -12(%rbp)
	movl	$1, %edi
	movl	$120, %esi
	callq	calloc
	movq	%rax, -32(%rbp)
	cmpq	$0, %rax
	jne	.LBB13_2
# %bb.1:                                # %if.then
	movabsq	$.L.str.42, %rdi
	callq	no_mem_exit
.LBB13_2:                               # %if.end
	movl	$1, %edi
	movl	$48, %esi
	callq	calloc
	movq	-32(%rbp), %rcx
	movq	%rax, (%rcx)
	cmpq	$0, %rax
	jne	.LBB13_4
# %bb.3:                                # %if.then3
	movabsq	$.L.str.43, %rdi
	callq	no_mem_exit
.LBB13_4:                               # %if.end4
	movq	-56(%rbp), %rax
	movq	-32(%rbp), %rcx
	movq	(%rcx), %rcx
	movq	%rax, 32(%rcx)
	movq	-32(%rbp), %rax
	movq	(%rax), %rax
	movl	$8, 4(%rax)
	movq	img, %rax
	movl	72492(%rax), %eax
	movq	-24(%rbp), %rcx
	movl	%eax, 56(%rcx)
	movq	-24(%rbp), %rax
	movl	4(%rax), %esi
	movq	-32(%rbp), %rdx
	movabsq	$.L.str.44, %rdi
	callq	ue_v
	addl	-12(%rbp), %eax
	movl	%eax, -12(%rbp)
	movq	-24(%rbp), %rax
	movl	8(%rax), %esi
	movq	-32(%rbp), %rdx
	movabsq	$.L.str.45, %rdi
	callq	ue_v
	addl	-12(%rbp), %eax
	movl	%eax, -12(%rbp)
	movq	-24(%rbp), %rax
	movl	12(%rax), %esi
	movq	-32(%rbp), %rdx
	movabsq	$.L.str.46, %rdi
	callq	u_1
	addl	-12(%rbp), %eax
	movl	%eax, -12(%rbp)
	movq	-24(%rbp), %rax
	movl	56(%rax), %esi
	movq	-32(%rbp), %rdx
	movabsq	$.L.str.47, %rdi
	callq	u_1
	addl	-12(%rbp), %eax
	movl	%eax, -12(%rbp)
	movq	-24(%rbp), %rax
	movl	60(%rax), %esi
	movq	-32(%rbp), %rdx
	movabsq	$.L.str.48, %rdi
	callq	ue_v
	addl	-12(%rbp), %eax
	movl	%eax, -12(%rbp)
	movq	-24(%rbp), %rax
	cmpl	$0, 60(%rax)
	jbe	.LBB13_40
# %bb.5:                                # %if.then20
	movq	-24(%rbp), %rax
	movl	64(%rax), %esi
	movq	-32(%rbp), %rdx
	movabsq	$.L.str.49, %rdi
	callq	ue_v
	addl	-12(%rbp), %eax
	movl	%eax, -12(%rbp)
	movq	-24(%rbp), %rax
	cmpl	$0, 64(%rax)
	jne	.LBB13_11
# %bb.6:                                # %if.then25
	movl	$0, -16(%rbp)
.LBB13_7:                               # %for.cond
                                        # =>This Inner Loop Header: Depth=1
	movl	-16(%rbp), %eax
	movq	-24(%rbp), %rcx
	cmpl	60(%rcx), %eax
	ja	.LBB13_10
# %bb.8:                                # %for.body
                                        #   in Loop: Header=BB13_7 Depth=1
	movq	-24(%rbp), %rax
	movl	-16(%rbp), %ecx
	movl	68(%rax,%rcx,4), %esi
	movq	-32(%rbp), %rdx
	movabsq	$.L.str.50, %rdi
	callq	ue_v
	addl	-12(%rbp), %eax
	movl	%eax, -12(%rbp)
# %bb.9:                                # %for.inc
                                        #   in Loop: Header=BB13_7 Depth=1
	movl	-16(%rbp), %eax
	addl	$1, %eax
	movl	%eax, -16(%rbp)
	jmp	.LBB13_7
.LBB13_10:                              # %for.end
	jmp	.LBB13_39
.LBB13_11:                              # %if.else
	movq	-24(%rbp), %rax
	cmpl	$2, 64(%rax)
	jne	.LBB13_17
# %bb.12:                               # %if.then32
	movl	$0, -16(%rbp)
.LBB13_13:                              # %for.cond33
                                        # =>This Inner Loop Header: Depth=1
	movl	-16(%rbp), %eax
	movq	-24(%rbp), %rcx
	cmpl	60(%rcx), %eax
	jae	.LBB13_16
# %bb.14:                               # %for.body36
                                        #   in Loop: Header=BB13_13 Depth=1
	movq	-24(%rbp), %rax
	movl	-16(%rbp), %ecx
	movl	100(%rax,%rcx,4), %esi
	movq	-32(%rbp), %rdx
	movabsq	$.L.str.51, %rdi
	callq	ue_v
	addl	-12(%rbp), %eax
	movl	%eax, -12(%rbp)
	movq	-24(%rbp), %rax
	movl	-16(%rbp), %ecx
	movl	132(%rax,%rcx,4), %esi
	movq	-32(%rbp), %rdx
	movabsq	$.L.str.52, %rdi
	callq	ue_v
	addl	-12(%rbp), %eax
	movl	%eax, -12(%rbp)
# %bb.15:                               # %for.inc45
                                        #   in Loop: Header=BB13_13 Depth=1
	movl	-16(%rbp), %eax
	addl	$1, %eax
	movl	%eax, -16(%rbp)
	jmp	.LBB13_13
.LBB13_16:                              # %for.end47
	jmp	.LBB13_38
.LBB13_17:                              # %if.else48
	movq	-24(%rbp), %rax
	cmpl	$3, 64(%rax)
	je	.LBB13_20
# %bb.18:                               # %lor.lhs.false
	movq	-24(%rbp), %rax
	cmpl	$4, 64(%rax)
	je	.LBB13_20
# %bb.19:                               # %lor.lhs.false53
	movq	-24(%rbp), %rax
	cmpl	$5, 64(%rax)
	jne	.LBB13_21
.LBB13_20:                              # %if.then56
	movq	-24(%rbp), %rax
	movl	164(%rax), %esi
	movq	-32(%rbp), %rdx
	movabsq	$.L.str.53, %rdi
	callq	u_1
	addl	-12(%rbp), %eax
	movl	%eax, -12(%rbp)
	movq	-24(%rbp), %rax
	movl	168(%rax), %esi
	movq	-32(%rbp), %rdx
	movabsq	$.L.str.54, %rdi
	callq	ue_v
	addl	-12(%rbp), %eax
	movl	%eax, -12(%rbp)
	jmp	.LBB13_37
.LBB13_21:                              # %if.else61
	movq	-24(%rbp), %rax
	cmpl	$6, 64(%rax)
	jne	.LBB13_36
# %bb.22:                               # %if.then64
	movq	-24(%rbp), %rax
	cmpl	$4, 60(%rax)
	jb	.LBB13_24
# %bb.23:                               # %if.then67
	movl	$3, -40(%rbp)
	jmp	.LBB13_31
.LBB13_24:                              # %if.else68
	movq	-24(%rbp), %rax
	cmpl	$2, 60(%rax)
	jb	.LBB13_26
# %bb.25:                               # %if.then71
	movl	$2, -40(%rbp)
	jmp	.LBB13_30
.LBB13_26:                              # %if.else72
	movq	-24(%rbp), %rax
	cmpl	$1, 60(%rax)
	jb	.LBB13_28
# %bb.27:                               # %if.then75
	movl	$1, -40(%rbp)
	jmp	.LBB13_29
.LBB13_28:                              # %if.else76
	movl	$0, -40(%rbp)
.LBB13_29:                              # %if.end77
	jmp	.LBB13_30
.LBB13_30:                              # %if.end78
	jmp	.LBB13_31
.LBB13_31:                              # %if.end79
	movq	-24(%rbp), %rax
	movl	172(%rax), %esi
	movq	-32(%rbp), %rdx
	movabsq	$.L.str.55, %rdi
	callq	ue_v
	addl	-12(%rbp), %eax
	movl	%eax, -12(%rbp)
	movl	$0, -16(%rbp)
.LBB13_32:                              # %for.cond82
                                        # =>This Inner Loop Header: Depth=1
	movl	-16(%rbp), %eax
	movq	-24(%rbp), %rcx
	cmpl	172(%rcx), %eax
	ja	.LBB13_35
# %bb.33:                               # %for.body85
                                        #   in Loop: Header=BB13_32 Depth=1
	movl	-40(%rbp), %edi
	movq	-24(%rbp), %rax
	movq	176(%rax), %rax
	movl	-16(%rbp), %ecx
	movzbl	(%rax,%rcx), %edx
	movq	-32(%rbp), %rcx
	movabsq	$.L.str.56, %rsi
	callq	u_v
	addl	-12(%rbp), %eax
	movl	%eax, -12(%rbp)
# %bb.34:                               # %for.inc90
                                        #   in Loop: Header=BB13_32 Depth=1
	movl	-16(%rbp), %eax
	addl	$1, %eax
	movl	%eax, -16(%rbp)
	jmp	.LBB13_32
.LBB13_35:                              # %for.end92
	jmp	.LBB13_36
.LBB13_36:                              # %if.end93
	jmp	.LBB13_37
.LBB13_37:                              # %if.end94
	jmp	.LBB13_38
.LBB13_38:                              # %if.end95
	jmp	.LBB13_39
.LBB13_39:                              # %if.end96
	jmp	.LBB13_40
.LBB13_40:                              # %if.end97
	movq	-24(%rbp), %rax
	movl	184(%rax), %esi
	movq	-32(%rbp), %rdx
	movabsq	$.L.str.57, %rdi
	callq	ue_v
	addl	-12(%rbp), %eax
	movl	%eax, -12(%rbp)
	movq	-24(%rbp), %rax
	movl	188(%rax), %esi
	movq	-32(%rbp), %rdx
	movabsq	$.L.str.58, %rdi
	callq	ue_v
	addl	-12(%rbp), %eax
	movl	%eax, -12(%rbp)
	movq	-24(%rbp), %rax
	movl	192(%rax), %esi
	movq	-32(%rbp), %rdx
	movabsq	$.L.str.59, %rdi
	callq	u_1
	addl	-12(%rbp), %eax
	movl	%eax, -12(%rbp)
	movq	-24(%rbp), %rax
	movl	196(%rax), %edx
	movq	-32(%rbp), %rcx
	movl	$2, %edi
	movabsq	$.L.str.60, %rsi
	callq	u_v
	addl	-12(%rbp), %eax
	movl	%eax, -12(%rbp)
	movq	-24(%rbp), %rax
	movl	200(%rax), %esi
	movq	-32(%rbp), %rdx
	movabsq	$.L.str.61, %rdi
	callq	se_v
	addl	-12(%rbp), %eax
	movl	%eax, -12(%rbp)
	movq	-24(%rbp), %rax
	movl	204(%rax), %esi
	movq	-32(%rbp), %rdx
	movabsq	$.L.str.62, %rdi
	callq	se_v
	addl	-12(%rbp), %eax
	movl	%eax, -12(%rbp)
	callq	IdentifyProfile
	movl	%eax, -36(%rbp)
	cmpl	$100, -36(%rbp)
	je	.LBB13_44
# %bb.41:                               # %lor.lhs.false113
	cmpl	$110, -36(%rbp)
	je	.LBB13_44
# %bb.42:                               # %lor.lhs.false116
	cmpl	$122, -36(%rbp)
	je	.LBB13_44
# %bb.43:                               # %lor.lhs.false119
	cmpl	$144, -36(%rbp)
	jne	.LBB13_45
.LBB13_44:                              # %if.then122
	movq	-24(%rbp), %rax
	movl	212(%rax), %esi
	movq	-32(%rbp), %rdx
	movabsq	$.L.str.63, %rdi
	callq	se_v
	addl	-12(%rbp), %eax
	movl	%eax, -12(%rbp)
	jmp	.LBB13_46
.LBB13_45:                              # %if.else125
	movq	-24(%rbp), %rax
	movl	208(%rax), %esi
	movq	-32(%rbp), %rdx
	movabsq	$.L.str.63, %rdi
	callq	se_v
	addl	-12(%rbp), %eax
	movl	%eax, -12(%rbp)
.LBB13_46:                              # %if.end128
	movq	-24(%rbp), %rax
	movl	220(%rax), %esi
	movq	-32(%rbp), %rdx
	movabsq	$.L.str.64, %rdi
	callq	u_1
	addl	-12(%rbp), %eax
	movl	%eax, -12(%rbp)
	movq	-24(%rbp), %rax
	movl	224(%rax), %esi
	movq	-32(%rbp), %rdx
	movabsq	$.L.str.65, %rdi
	callq	u_1
	addl	-12(%rbp), %eax
	movl	%eax, -12(%rbp)
	movq	-24(%rbp), %rax
	movl	228(%rax), %esi
	movq	-32(%rbp), %rdx
	movabsq	$.L.str.66, %rdi
	callq	u_1
	addl	-12(%rbp), %eax
	movl	%eax, -12(%rbp)
	cmpl	$100, -36(%rbp)
	je	.LBB13_50
# %bb.47:                               # %lor.lhs.false137
	cmpl	$110, -36(%rbp)
	je	.LBB13_50
# %bb.48:                               # %lor.lhs.false140
	cmpl	$122, -36(%rbp)
	je	.LBB13_50
# %bb.49:                               # %lor.lhs.false143
	cmpl	$144, -36(%rbp)
	jne	.LBB13_62
.LBB13_50:                              # %if.then146
	movq	-24(%rbp), %rax
	movl	16(%rax), %esi
	movq	-32(%rbp), %rdx
	movabsq	$.L.str.67, %rdi
	callq	u_1
	addl	-12(%rbp), %eax
	movl	%eax, -12(%rbp)
	movq	-24(%rbp), %rax
	movl	20(%rax), %esi
	movq	-32(%rbp), %rdx
	movabsq	$.L.str.68, %rdi
	callq	u_1
	addl	-12(%rbp), %eax
	movl	%eax, -12(%rbp)
	movq	-24(%rbp), %rax
	cmpl	$0, 20(%rax)
	je	.LBB13_61
# %bb.51:                               # %if.then152
	movl	$0, -16(%rbp)
.LBB13_52:                              # %for.cond153
                                        # =>This Inner Loop Header: Depth=1
	movl	-16(%rbp), %eax
	movq	-24(%rbp), %rcx
	movl	16(%rcx), %ecx
	shll	$1, %ecx
	addl	$6, %ecx
	cmpl	%ecx, %eax
	jae	.LBB13_60
# %bb.53:                               # %for.body158
                                        #   in Loop: Header=BB13_52 Depth=1
	movq	-24(%rbp), %rax
	movl	-16(%rbp), %ecx
	movl	24(%rax,%rcx,4), %esi
	movq	-32(%rbp), %rdx
	movabsq	$.L.str.69, %rdi
	callq	u_1
	addl	-12(%rbp), %eax
	movl	%eax, -12(%rbp)
	movq	-24(%rbp), %rax
	movl	-16(%rbp), %ecx
	cmpl	$0, 24(%rax,%rcx,4)
	je	.LBB13_58
# %bb.54:                               # %if.then167
                                        #   in Loop: Header=BB13_52 Depth=1
	cmpl	$6, -16(%rbp)
	jae	.LBB13_56
# %bb.55:                               # %if.then170
                                        #   in Loop: Header=BB13_52 Depth=1
	movl	-16(%rbp), %eax
	shlq	$5, %rax
	movabsq	$ScalingList4x4input, %rdi
	addq	%rax, %rdi
	movl	-16(%rbp), %eax
	shlq	$5, %rax
	movabsq	$ScalingList4x4, %rsi
	addq	%rax, %rsi
	movl	-16(%rbp), %eax
	shlq	$1, %rax
	movabsq	$UseDefaultScalingMatrix4x4Flag, %rcx
	addq	%rax, %rcx
	movq	-32(%rbp), %r8
	movl	$16, %edx
	callq	Scaling_List
	addl	-12(%rbp), %eax
	movl	%eax, -12(%rbp)
	jmp	.LBB13_57
.LBB13_56:                              # %if.else180
                                        #   in Loop: Header=BB13_52 Depth=1
	movl	-16(%rbp), %eax
	subl	$6, %eax
	movl	%eax, %eax
	shlq	$7, %rax
	movabsq	$ScalingList8x8input, %rdi
	addq	%rax, %rdi
	movl	-16(%rbp), %eax
	subl	$6, %eax
	movl	%eax, %eax
	shlq	$7, %rax
	movabsq	$ScalingList8x8, %rsi
	addq	%rax, %rsi
	movl	-16(%rbp), %eax
	subl	$6, %eax
	movl	%eax, %eax
	shlq	$1, %rax
	movabsq	$UseDefaultScalingMatrix8x8Flag, %rcx
	addq	%rax, %rcx
	movq	-32(%rbp), %r8
	movl	$64, %edx
	callq	Scaling_List
	addl	-12(%rbp), %eax
	movl	%eax, -12(%rbp)
.LBB13_57:                              # %if.end193
                                        #   in Loop: Header=BB13_52 Depth=1
	jmp	.LBB13_58
.LBB13_58:                              # %if.end194
                                        #   in Loop: Header=BB13_52 Depth=1
	jmp	.LBB13_59
.LBB13_59:                              # %for.inc195
                                        #   in Loop: Header=BB13_52 Depth=1
	movl	-16(%rbp), %eax
	addl	$1, %eax
	movl	%eax, -16(%rbp)
	jmp	.LBB13_52
.LBB13_60:                              # %for.end197
	jmp	.LBB13_61
.LBB13_61:                              # %if.end198
	movq	-24(%rbp), %rax
	movl	216(%rax), %esi
	movq	-32(%rbp), %rdx
	movabsq	$.L.str.70, %rdi
	callq	se_v
	addl	-12(%rbp), %eax
	movl	%eax, -12(%rbp)
.LBB13_62:                              # %if.end201
	movq	-32(%rbp), %rax
	movq	(%rax), %rdi
	callq	SODBtoRBSP
	movq	-32(%rbp), %rax
	movq	(%rax), %rax
	movl	(%rax), %eax
	movl	%eax, -44(%rbp)
	movq	-32(%rbp), %rax
	movq	(%rax), %rdi
	callq	free
	movq	-32(%rbp), %rdi
	callq	free
	movl	-44(%rbp), %ebx
	cmpl	$1038560567, -48(%rbp)  # imm = 0x3DE72D37
	jne	.LBB13_64
.LBB13_63:
	movl	%ebx, %eax
	addq	$56, %rsp
	popq	%rbx
	popq	%rbp
	.cfi_def_cfa %rsp, 8
	retq
.LBB13_64:                              # %func_exit
	.cfi_def_cfa %rbp, 16
	callq	detect_breach
	jmp	.LBB13_63
.Lfunc_end13:
	.size	GeneratePic_parameter_set_rbsp.2, .Lfunc_end13-GeneratePic_parameter_set_rbsp.2
	.cfi_endproc
                                        # -- End function
	.globl	GeneratePic_parameter_set_rbsp.3 # -- Begin function GeneratePic_parameter_set_rbsp.3
	.p2align	4, 0x90
	.type	GeneratePic_parameter_set_rbsp.3,@function
GeneratePic_parameter_set_rbsp.3:       # @GeneratePic_parameter_set_rbsp.3
	.cfi_startproc
# %bb.0:                                # %entry
	pushq	%rbp
	.cfi_def_cfa_offset 16
	.cfi_offset %rbp, -16
	movq	%rsp, %rbp
	.cfi_def_cfa_register %rbp
	pushq	%rbx
	subq	$56, %rsp
	.cfi_offset %rbx, -24
	movl	$26529522, -48(%rbp)    # imm = 0x194CEF2
	movq	%rdi, -24(%rbp)
	movq	%rsi, -56(%rbp)
	movl	$0, -12(%rbp)
	movl	$1, %edi
	movl	$120, %esi
	callq	calloc
	movq	%rax, -32(%rbp)
	cmpq	$0, %rax
	jne	.LBB14_2
# %bb.1:                                # %if.then
	movabsq	$.L.str.42, %rdi
	callq	no_mem_exit
.LBB14_2:                               # %if.end
	movl	$1, %edi
	movl	$48, %esi
	callq	calloc
	movq	-32(%rbp), %rcx
	movq	%rax, (%rcx)
	cmpq	$0, %rax
	jne	.LBB14_4
# %bb.3:                                # %if.then3
	movabsq	$.L.str.43, %rdi
	callq	no_mem_exit
.LBB14_4:                               # %if.end4
	movq	-56(%rbp), %rax
	movq	-32(%rbp), %rcx
	movq	(%rcx), %rcx
	movq	%rax, 32(%rcx)
	movq	-32(%rbp), %rax
	movq	(%rax), %rax
	movl	$8, 4(%rax)
	movq	img, %rax
	movl	72492(%rax), %eax
	movq	-24(%rbp), %rcx
	movl	%eax, 56(%rcx)
	movq	-24(%rbp), %rax
	movl	4(%rax), %esi
	movq	-32(%rbp), %rdx
	movabsq	$.L.str.44, %rdi
	callq	ue_v
	addl	-12(%rbp), %eax
	movl	%eax, -12(%rbp)
	movq	-24(%rbp), %rax
	movl	8(%rax), %esi
	movq	-32(%rbp), %rdx
	movabsq	$.L.str.45, %rdi
	callq	ue_v
	addl	-12(%rbp), %eax
	movl	%eax, -12(%rbp)
	movq	-24(%rbp), %rax
	movl	12(%rax), %esi
	movq	-32(%rbp), %rdx
	movabsq	$.L.str.46, %rdi
	callq	u_1
	addl	-12(%rbp), %eax
	movl	%eax, -12(%rbp)
	movq	-24(%rbp), %rax
	movl	56(%rax), %esi
	movq	-32(%rbp), %rdx
	movabsq	$.L.str.47, %rdi
	callq	u_1
	addl	-12(%rbp), %eax
	movl	%eax, -12(%rbp)
	movq	-24(%rbp), %rax
	movl	60(%rax), %esi
	movq	-32(%rbp), %rdx
	movabsq	$.L.str.48, %rdi
	callq	ue_v
	addl	-12(%rbp), %eax
	movl	%eax, -12(%rbp)
	movq	-24(%rbp), %rax
	cmpl	$0, 60(%rax)
	jbe	.LBB14_40
# %bb.5:                                # %if.then20
	movq	-24(%rbp), %rax
	movl	64(%rax), %esi
	movq	-32(%rbp), %rdx
	movabsq	$.L.str.49, %rdi
	callq	ue_v
	addl	-12(%rbp), %eax
	movl	%eax, -12(%rbp)
	movq	-24(%rbp), %rax
	cmpl	$0, 64(%rax)
	jne	.LBB14_11
# %bb.6:                                # %if.then25
	movl	$0, -16(%rbp)
.LBB14_7:                               # %for.cond
                                        # =>This Inner Loop Header: Depth=1
	movl	-16(%rbp), %eax
	movq	-24(%rbp), %rcx
	cmpl	60(%rcx), %eax
	ja	.LBB14_10
# %bb.8:                                # %for.body
                                        #   in Loop: Header=BB14_7 Depth=1
	movq	-24(%rbp), %rax
	movl	-16(%rbp), %ecx
	movl	68(%rax,%rcx,4), %esi
	movq	-32(%rbp), %rdx
	movabsq	$.L.str.50, %rdi
	callq	ue_v
	addl	-12(%rbp), %eax
	movl	%eax, -12(%rbp)
# %bb.9:                                # %for.inc
                                        #   in Loop: Header=BB14_7 Depth=1
	movl	-16(%rbp), %eax
	addl	$1, %eax
	movl	%eax, -16(%rbp)
	jmp	.LBB14_7
.LBB14_10:                              # %for.end
	jmp	.LBB14_39
.LBB14_11:                              # %if.else
	movq	-24(%rbp), %rax
	cmpl	$2, 64(%rax)
	jne	.LBB14_17
# %bb.12:                               # %if.then32
	movl	$0, -16(%rbp)
.LBB14_13:                              # %for.cond33
                                        # =>This Inner Loop Header: Depth=1
	movl	-16(%rbp), %eax
	movq	-24(%rbp), %rcx
	cmpl	60(%rcx), %eax
	jae	.LBB14_16
# %bb.14:                               # %for.body36
                                        #   in Loop: Header=BB14_13 Depth=1
	movq	-24(%rbp), %rax
	movl	-16(%rbp), %ecx
	movl	100(%rax,%rcx,4), %esi
	movq	-32(%rbp), %rdx
	movabsq	$.L.str.51, %rdi
	callq	ue_v
	addl	-12(%rbp), %eax
	movl	%eax, -12(%rbp)
	movq	-24(%rbp), %rax
	movl	-16(%rbp), %ecx
	movl	132(%rax,%rcx,4), %esi
	movq	-32(%rbp), %rdx
	movabsq	$.L.str.52, %rdi
	callq	ue_v
	addl	-12(%rbp), %eax
	movl	%eax, -12(%rbp)
# %bb.15:                               # %for.inc45
                                        #   in Loop: Header=BB14_13 Depth=1
	movl	-16(%rbp), %eax
	addl	$1, %eax
	movl	%eax, -16(%rbp)
	jmp	.LBB14_13
.LBB14_16:                              # %for.end47
	jmp	.LBB14_38
.LBB14_17:                              # %if.else48
	movq	-24(%rbp), %rax
	cmpl	$3, 64(%rax)
	je	.LBB14_20
# %bb.18:                               # %lor.lhs.false
	movq	-24(%rbp), %rax
	cmpl	$4, 64(%rax)
	je	.LBB14_20
# %bb.19:                               # %lor.lhs.false53
	movq	-24(%rbp), %rax
	cmpl	$5, 64(%rax)
	jne	.LBB14_21
.LBB14_20:                              # %if.then56
	movq	-24(%rbp), %rax
	movl	164(%rax), %esi
	movq	-32(%rbp), %rdx
	movabsq	$.L.str.53, %rdi
	callq	u_1
	addl	-12(%rbp), %eax
	movl	%eax, -12(%rbp)
	movq	-24(%rbp), %rax
	movl	168(%rax), %esi
	movq	-32(%rbp), %rdx
	movabsq	$.L.str.54, %rdi
	callq	ue_v
	addl	-12(%rbp), %eax
	movl	%eax, -12(%rbp)
	jmp	.LBB14_37
.LBB14_21:                              # %if.else61
	movq	-24(%rbp), %rax
	cmpl	$6, 64(%rax)
	jne	.LBB14_36
# %bb.22:                               # %if.then64
	movq	-24(%rbp), %rax
	cmpl	$4, 60(%rax)
	jb	.LBB14_24
# %bb.23:                               # %if.then67
	movl	$3, -40(%rbp)
	jmp	.LBB14_31
.LBB14_24:                              # %if.else68
	movq	-24(%rbp), %rax
	cmpl	$2, 60(%rax)
	jb	.LBB14_26
# %bb.25:                               # %if.then71
	movl	$2, -40(%rbp)
	jmp	.LBB14_30
.LBB14_26:                              # %if.else72
	movq	-24(%rbp), %rax
	cmpl	$1, 60(%rax)
	jb	.LBB14_28
# %bb.27:                               # %if.then75
	movl	$1, -40(%rbp)
	jmp	.LBB14_29
.LBB14_28:                              # %if.else76
	movl	$0, -40(%rbp)
.LBB14_29:                              # %if.end77
	jmp	.LBB14_30
.LBB14_30:                              # %if.end78
	jmp	.LBB14_31
.LBB14_31:                              # %if.end79
	movq	-24(%rbp), %rax
	movl	172(%rax), %esi
	movq	-32(%rbp), %rdx
	movabsq	$.L.str.55, %rdi
	callq	ue_v
	addl	-12(%rbp), %eax
	movl	%eax, -12(%rbp)
	movl	$0, -16(%rbp)
.LBB14_32:                              # %for.cond82
                                        # =>This Inner Loop Header: Depth=1
	movl	-16(%rbp), %eax
	movq	-24(%rbp), %rcx
	cmpl	172(%rcx), %eax
	ja	.LBB14_35
# %bb.33:                               # %for.body85
                                        #   in Loop: Header=BB14_32 Depth=1
	movl	-40(%rbp), %edi
	movq	-24(%rbp), %rax
	movq	176(%rax), %rax
	movl	-16(%rbp), %ecx
	movzbl	(%rax,%rcx), %edx
	movq	-32(%rbp), %rcx
	movabsq	$.L.str.56, %rsi
	callq	u_v
	addl	-12(%rbp), %eax
	movl	%eax, -12(%rbp)
# %bb.34:                               # %for.inc90
                                        #   in Loop: Header=BB14_32 Depth=1
	movl	-16(%rbp), %eax
	addl	$1, %eax
	movl	%eax, -16(%rbp)
	jmp	.LBB14_32
.LBB14_35:                              # %for.end92
	jmp	.LBB14_36
.LBB14_36:                              # %if.end93
	jmp	.LBB14_37
.LBB14_37:                              # %if.end94
	jmp	.LBB14_38
.LBB14_38:                              # %if.end95
	jmp	.LBB14_39
.LBB14_39:                              # %if.end96
	jmp	.LBB14_40
.LBB14_40:                              # %if.end97
	movq	-24(%rbp), %rax
	movl	184(%rax), %esi
	movq	-32(%rbp), %rdx
	movabsq	$.L.str.57, %rdi
	callq	ue_v
	addl	-12(%rbp), %eax
	movl	%eax, -12(%rbp)
	movq	-24(%rbp), %rax
	movl	188(%rax), %esi
	movq	-32(%rbp), %rdx
	movabsq	$.L.str.58, %rdi
	callq	ue_v
	addl	-12(%rbp), %eax
	movl	%eax, -12(%rbp)
	movq	-24(%rbp), %rax
	movl	192(%rax), %esi
	movq	-32(%rbp), %rdx
	movabsq	$.L.str.59, %rdi
	callq	u_1
	addl	-12(%rbp), %eax
	movl	%eax, -12(%rbp)
	movq	-24(%rbp), %rax
	movl	196(%rax), %edx
	movq	-32(%rbp), %rcx
	movl	$2, %edi
	movabsq	$.L.str.60, %rsi
	callq	u_v
	addl	-12(%rbp), %eax
	movl	%eax, -12(%rbp)
	movq	-24(%rbp), %rax
	movl	200(%rax), %esi
	movq	-32(%rbp), %rdx
	movabsq	$.L.str.61, %rdi
	callq	se_v
	addl	-12(%rbp), %eax
	movl	%eax, -12(%rbp)
	movq	-24(%rbp), %rax
	movl	204(%rax), %esi
	movq	-32(%rbp), %rdx
	movabsq	$.L.str.62, %rdi
	callq	se_v
	addl	-12(%rbp), %eax
	movl	%eax, -12(%rbp)
	callq	IdentifyProfile
	movl	%eax, -36(%rbp)
	cmpl	$100, -36(%rbp)
	je	.LBB14_44
# %bb.41:                               # %lor.lhs.false113
	cmpl	$110, -36(%rbp)
	je	.LBB14_44
# %bb.42:                               # %lor.lhs.false116
	cmpl	$122, -36(%rbp)
	je	.LBB14_44
# %bb.43:                               # %lor.lhs.false119
	cmpl	$144, -36(%rbp)
	jne	.LBB14_45
.LBB14_44:                              # %if.then122
	movq	-24(%rbp), %rax
	movl	212(%rax), %esi
	movq	-32(%rbp), %rdx
	movabsq	$.L.str.63, %rdi
	callq	se_v
	addl	-12(%rbp), %eax
	movl	%eax, -12(%rbp)
	jmp	.LBB14_46
.LBB14_45:                              # %if.else125
	movq	-24(%rbp), %rax
	movl	208(%rax), %esi
	movq	-32(%rbp), %rdx
	movabsq	$.L.str.63, %rdi
	callq	se_v
	addl	-12(%rbp), %eax
	movl	%eax, -12(%rbp)
.LBB14_46:                              # %if.end128
	movq	-24(%rbp), %rax
	movl	220(%rax), %esi
	movq	-32(%rbp), %rdx
	movabsq	$.L.str.64, %rdi
	callq	u_1
	addl	-12(%rbp), %eax
	movl	%eax, -12(%rbp)
	movq	-24(%rbp), %rax
	movl	224(%rax), %esi
	movq	-32(%rbp), %rdx
	movabsq	$.L.str.65, %rdi
	callq	u_1
	addl	-12(%rbp), %eax
	movl	%eax, -12(%rbp)
	movq	-24(%rbp), %rax
	movl	228(%rax), %esi
	movq	-32(%rbp), %rdx
	movabsq	$.L.str.66, %rdi
	callq	u_1
	addl	-12(%rbp), %eax
	movl	%eax, -12(%rbp)
	cmpl	$100, -36(%rbp)
	je	.LBB14_50
# %bb.47:                               # %lor.lhs.false137
	cmpl	$110, -36(%rbp)
	je	.LBB14_50
# %bb.48:                               # %lor.lhs.false140
	cmpl	$122, -36(%rbp)
	je	.LBB14_50
# %bb.49:                               # %lor.lhs.false143
	cmpl	$144, -36(%rbp)
	jne	.LBB14_62
.LBB14_50:                              # %if.then146
	movq	-24(%rbp), %rax
	movl	16(%rax), %esi
	movq	-32(%rbp), %rdx
	movabsq	$.L.str.67, %rdi
	callq	u_1
	addl	-12(%rbp), %eax
	movl	%eax, -12(%rbp)
	movq	-24(%rbp), %rax
	movl	20(%rax), %esi
	movq	-32(%rbp), %rdx
	movabsq	$.L.str.68, %rdi
	callq	u_1
	addl	-12(%rbp), %eax
	movl	%eax, -12(%rbp)
	movq	-24(%rbp), %rax
	cmpl	$0, 20(%rax)
	je	.LBB14_61
# %bb.51:                               # %if.then152
	movl	$0, -16(%rbp)
.LBB14_52:                              # %for.cond153
                                        # =>This Inner Loop Header: Depth=1
	movl	-16(%rbp), %eax
	movq	-24(%rbp), %rcx
	movl	16(%rcx), %ecx
	shll	$1, %ecx
	addl	$6, %ecx
	cmpl	%ecx, %eax
	jae	.LBB14_60
# %bb.53:                               # %for.body158
                                        #   in Loop: Header=BB14_52 Depth=1
	movq	-24(%rbp), %rax
	movl	-16(%rbp), %ecx
	movl	24(%rax,%rcx,4), %esi
	movq	-32(%rbp), %rdx
	movabsq	$.L.str.69, %rdi
	callq	u_1
	addl	-12(%rbp), %eax
	movl	%eax, -12(%rbp)
	movq	-24(%rbp), %rax
	movl	-16(%rbp), %ecx
	cmpl	$0, 24(%rax,%rcx,4)
	je	.LBB14_58
# %bb.54:                               # %if.then167
                                        #   in Loop: Header=BB14_52 Depth=1
	cmpl	$6, -16(%rbp)
	jae	.LBB14_56
# %bb.55:                               # %if.then170
                                        #   in Loop: Header=BB14_52 Depth=1
	movl	-16(%rbp), %eax
	shlq	$5, %rax
	movabsq	$ScalingList4x4input, %rdi
	addq	%rax, %rdi
	movl	-16(%rbp), %eax
	shlq	$5, %rax
	movabsq	$ScalingList4x4, %rsi
	addq	%rax, %rsi
	movl	-16(%rbp), %eax
	shlq	$1, %rax
	movabsq	$UseDefaultScalingMatrix4x4Flag, %rcx
	addq	%rax, %rcx
	movq	-32(%rbp), %r8
	movl	$16, %edx
	callq	Scaling_List
	addl	-12(%rbp), %eax
	movl	%eax, -12(%rbp)
	jmp	.LBB14_57
.LBB14_56:                              # %if.else180
                                        #   in Loop: Header=BB14_52 Depth=1
	movl	-16(%rbp), %eax
	subl	$6, %eax
	movl	%eax, %eax
	shlq	$7, %rax
	movabsq	$ScalingList8x8input, %rdi
	addq	%rax, %rdi
	movl	-16(%rbp), %eax
	subl	$6, %eax
	movl	%eax, %eax
	shlq	$7, %rax
	movabsq	$ScalingList8x8, %rsi
	addq	%rax, %rsi
	movl	-16(%rbp), %eax
	subl	$6, %eax
	movl	%eax, %eax
	shlq	$1, %rax
	movabsq	$UseDefaultScalingMatrix8x8Flag, %rcx
	addq	%rax, %rcx
	movq	-32(%rbp), %r8
	movl	$64, %edx
	callq	Scaling_List
	addl	-12(%rbp), %eax
	movl	%eax, -12(%rbp)
.LBB14_57:                              # %if.end193
                                        #   in Loop: Header=BB14_52 Depth=1
	jmp	.LBB14_58
.LBB14_58:                              # %if.end194
                                        #   in Loop: Header=BB14_52 Depth=1
	jmp	.LBB14_59
.LBB14_59:                              # %for.inc195
                                        #   in Loop: Header=BB14_52 Depth=1
	movl	-16(%rbp), %eax
	addl	$1, %eax
	movl	%eax, -16(%rbp)
	jmp	.LBB14_52
.LBB14_60:                              # %for.end197
	jmp	.LBB14_61
.LBB14_61:                              # %if.end198
	movq	-24(%rbp), %rax
	movl	216(%rax), %esi
	movq	-32(%rbp), %rdx
	movabsq	$.L.str.70, %rdi
	callq	se_v
	addl	-12(%rbp), %eax
	movl	%eax, -12(%rbp)
.LBB14_62:                              # %if.end201
	movq	-32(%rbp), %rax
	movq	(%rax), %rdi
	callq	SODBtoRBSP
	movq	-32(%rbp), %rax
	movq	(%rax), %rax
	movl	(%rax), %eax
	movl	%eax, -44(%rbp)
	movq	-32(%rbp), %rax
	movq	(%rax), %rdi
	callq	free
	movq	-32(%rbp), %rdi
	callq	free
	movl	-44(%rbp), %ebx
	cmpl	$26529522, -48(%rbp)    # imm = 0x194CEF2
	jne	.LBB14_64
.LBB14_63:
	movl	%ebx, %eax
	addq	$56, %rsp
	popq	%rbx
	popq	%rbp
	.cfi_def_cfa %rsp, 8
	retq
.LBB14_64:                              # %func_exit
	.cfi_def_cfa %rbp, 16
	callq	detect_breach
	jmp	.LBB14_63
.Lfunc_end14:
	.size	GeneratePic_parameter_set_rbsp.3, .Lfunc_end14-GeneratePic_parameter_set_rbsp.3
	.cfi_endproc
                                        # -- End function
	.globl	GenerateSequenceParameterSet.4 # -- Begin function GenerateSequenceParameterSet.4
	.p2align	4, 0x90
	.type	GenerateSequenceParameterSet.4,@function
GenerateSequenceParameterSet.4:         # @GenerateSequenceParameterSet.4
	.cfi_startproc
# %bb.0:                                # %entry
	pushq	%rbp
	.cfi_def_cfa_offset 16
	.cfi_offset %rbp, -16
	movq	%rsp, %rbp
	.cfi_def_cfa_register %rbp
	subq	$96, %rsp
	movl	$684526242, -20(%rbp)   # imm = 0x28CD0AA2
	movq	%rdi, -8(%rbp)
	movl	%esi, -84(%rbp)
	movq	.L__const.GenerateSequenceParameterSet.SubWidthC, %rax
	movq	%rax, -64(%rbp)
	movq	.L__const.GenerateSequenceParameterSet.SubWidthC+8, %rax
	movq	%rax, -56(%rbp)
	movq	.L__const.GenerateSequenceParameterSet.SubHeightC, %rax
	movq	%rax, -80(%rbp)
	movq	.L__const.GenerateSequenceParameterSet.SubHeightC+8, %rax
	movq	%rax, -72(%rbp)
	callq	IdentifyProfile
	cmpl	$100, %eax
	movb	$1, %al
	je	.LBB15_4
# %bb.1:                                # %lor.lhs.false
	callq	IdentifyProfile
	cmpl	$110, %eax
	movb	$1, %al
	je	.LBB15_4
# %bb.2:                                # %lor.lhs.false3
	callq	IdentifyProfile
	cmpl	$122, %eax
	movb	$1, %al
	je	.LBB15_4
# %bb.3:                                # %lor.rhs
	callq	IdentifyProfile
	cmpl	$144, %eax
	sete	%al
.LBB15_4:                               # %lor.end
	andb	$1, %al
	movzbl	%al, %eax
	movl	%eax, -16(%rbp)
	callq	IdentifyProfile
	movq	-8(%rbp), %rcx
	movl	%eax, 4(%rcx)
	callq	IdentifyLevel
	movq	-8(%rbp), %rcx
	movl	%eax, 24(%rcx)
	movq	-8(%rbp), %rax
	movl	$0, 8(%rax)
	movq	-8(%rbp), %rax
	movl	$0, 12(%rax)
	movq	-8(%rbp), %rax
	movl	$0, 16(%rax)
	movq	-8(%rbp), %rax
	movl	$0, 20(%rax)
	movq	-8(%rbp), %rax
	movl	$0, 28(%rax)
	movq	input, %rax
	movl	3296(%rax), %eax
	subl	$8, %eax
	movq	-8(%rbp), %rcx
	movl	%eax, 72(%rcx)
	movq	input, %rax
	movl	3300(%rax), %eax
	subl	$8, %eax
	movq	-8(%rbp), %rcx
	movl	%eax, 76(%rcx)
	movq	input, %rax
	movl	3324(%rax), %eax
	movq	-8(%rbp), %rcx
	cmpl	$144, 4(%rcx)
	sete	%cl
	andb	$1, %cl
	movzbl	%cl, %ecx
	andl	%ecx, %eax
	movq	img, %rcx
	movl	%eax, 72704(%rcx)
	movq	input, %rax
	movl	3328(%rax), %eax
	movq	img, %rcx
	movl	%eax, 72724(%rcx)
	movl	log2_max_frame_num_minus4, %eax
	movq	-8(%rbp), %rcx
	movl	%eax, 80(%rcx)
	movl	log2_max_pic_order_cnt_lsb_minus4, %eax
	movq	-8(%rbp), %rcx
	movl	%eax, 88(%rcx)
	movq	input, %rax
	movl	3208(%rax), %eax
	movq	-8(%rbp), %rcx
	movl	%eax, 84(%rcx)
	movq	img, %rax
	movl	72420(%rax), %eax
	movq	-8(%rbp), %rcx
	movl	%eax, 104(%rcx)
	movq	img, %rax
	movl	72408(%rax), %eax
	movq	-8(%rbp), %rcx
	movl	%eax, 92(%rcx)
	movq	img, %rax
	movl	72412(%rax), %eax
	movq	-8(%rbp), %rcx
	movl	%eax, 96(%rcx)
	movq	img, %rax
	movl	72416(%rax), %eax
	movq	-8(%rbp), %rcx
	movl	%eax, 100(%rcx)
	movl	$0, -12(%rbp)
.LBB15_5:                               # %for.cond
                                        # =>This Inner Loop Header: Depth=1
	movl	-12(%rbp), %eax
	movq	img, %rcx
	cmpl	72420(%rcx), %eax
	jae	.LBB15_8
# %bb.6:                                # %for.body
                                        #   in Loop: Header=BB15_5 Depth=1
	movq	img, %rax
	movl	-12(%rbp), %ecx
	movl	72424(%rax,%rcx,4), %eax
	movq	-8(%rbp), %rcx
	movl	-12(%rbp), %edx
	movl	%eax, 108(%rcx,%rdx,4)
# %bb.7:                                # %for.inc
                                        #   in Loop: Header=BB15_5 Depth=1
	movl	-12(%rbp), %eax
	addl	$1, %eax
	movl	%eax, -12(%rbp)
	jmp	.LBB15_5
.LBB15_8:                               # %for.end
	movq	input, %rax
	movl	36(%rax), %eax
	movq	-8(%rbp), %rcx
	movl	%eax, 1132(%rcx)
	movq	-8(%rbp), %rax
	movl	$0, 1136(%rax)
	movq	input, %rax
	cmpl	$0, 2880(%rax)
	movb	$1, %al
	jne	.LBB15_10
# %bb.9:                                # %lor.rhs26
	movq	input, %rax
	cmpl	$0, 2884(%rax)
	setne	%al
.LBB15_10:                              # %lor.end28
	xorl	%ecx, %ecx
	xorl	%esi, %esi
	xorb	$-1, %al
	andb	$1, %al
	movzbl	%al, %eax
	movq	-8(%rbp), %rdx
	movl	%eax, 1148(%rdx)
	movq	input, %rax
	movl	64(%rax), %eax
	movq	img, %rdx
	addl	72728(%rdx), %eax
	cltd
	movl	$16, %edi
	idivl	%edi
	subl	$1, %eax
	movq	-8(%rbp), %rdx
	movl	%eax, 1140(%rdx)
	movq	input, %rax
	movl	68(%rax), %eax
	movq	img, %rdx
	addl	72732(%rdx), %eax
	cltd
	idivl	%edi
	movq	-8(%rbp), %rdx
	movl	$2, %edi
	subl	1148(%rdx), %edi
	xorl	%edx, %edx
	divl	%edi
	subl	$1, %eax
	movq	-8(%rbp), %rdx
	movl	%eax, 1144(%rdx)
	movq	input, %rax
	cmpl	2884(%rax), %esi
	setne	%al
	andb	$1, %al
	movzbl	%al, %eax
	movq	-8(%rbp), %rdx
	movl	%eax, 1152(%rdx)
	movq	input, %rax
	movl	1252(%rax), %eax
	movq	-8(%rbp), %rdx
	movl	%eax, 1156(%rdx)
	movq	input, %rax
	cmpl	$0, 3312(%rax)
	je	.LBB15_12
# %bb.11:                               # %land.rhs
	movq	input, %rax
	cmpl	$3, 72(%rax)
	sete	%cl
.LBB15_12:                              # %land.end
	andb	$1, %cl
	movzbl	%cl, %eax
	movq	-8(%rbp), %rcx
	movl	%eax, 1180(%rcx)
	movq	input, %rax
	movl	72(%rax), %eax
	movq	-8(%rbp), %rcx
	movl	%eax, 32(%rcx)
	movq	-8(%rbp), %rax
	movl	1140(%rax), %eax
	addl	$1, %eax
	movl	%eax, -32(%rbp)
	movq	-8(%rbp), %rax
	movl	1144(%rax), %eax
	addl	$1, %eax
	movl	%eax, -28(%rbp)
	movq	-8(%rbp), %rax
	movl	$2, %ecx
	subl	1148(%rax), %ecx
	imull	-28(%rbp), %ecx
	movl	%ecx, -36(%rbp)
	movl	-32(%rbp), %eax
	shll	$4, %eax
	movl	%eax, -40(%rbp)
	movl	-36(%rbp), %eax
	shll	$4, %eax
	movl	%eax, -24(%rbp)
	movl	-40(%rbp), %edi
	movl	-24(%rbp), %esi
	movq	-8(%rbp), %rax
	movl	1152(%rax), %edx
	callq	alloc_colocated
	movq	%rax, Co_located
	cmpl	$0, -16(%rbp)
	je	.LBB15_24
# %bb.13:                               # %if.then
	movq	input, %rax
	movl	3256(%rax), %eax
	andl	$1, %eax
	movq	-8(%rbp), %rcx
	movl	%eax, 36(%rcx)
	movl	$0, -12(%rbp)
.LBB15_14:                              # %for.cond56
                                        # =>This Inner Loop Header: Depth=1
	cmpl	$8, -12(%rbp)
	jae	.LBB15_23
# %bb.15:                               # %for.body59
                                        #   in Loop: Header=BB15_14 Depth=1
	cmpl	$6, -12(%rbp)
	jae	.LBB15_17
# %bb.16:                               # %if.then62
                                        #   in Loop: Header=BB15_14 Depth=1
	movq	input, %rax
	movl	-12(%rbp), %ecx
	movl	3260(%rax,%rcx,4), %eax
	andl	$1, %eax
	movq	-8(%rbp), %rcx
	movl	-12(%rbp), %edx
	movl	%eax, 40(%rcx,%rdx,4)
	jmp	.LBB15_21
.LBB15_17:                              # %if.else
                                        #   in Loop: Header=BB15_14 Depth=1
	movq	input, %rax
	cmpl	$0, 3220(%rax)
	je	.LBB15_19
# %bb.18:                               # %if.then69
                                        #   in Loop: Header=BB15_14 Depth=1
	movq	input, %rax
	movl	-12(%rbp), %ecx
	movl	3260(%rax,%rcx,4), %eax
	andl	$1, %eax
	movq	-8(%rbp), %rcx
	movl	-12(%rbp), %edx
	movl	%eax, 40(%rcx,%rdx,4)
	jmp	.LBB15_20
.LBB15_19:                              # %if.else77
                                        #   in Loop: Header=BB15_14 Depth=1
	movq	-8(%rbp), %rax
	movl	-12(%rbp), %ecx
	movl	$0, 40(%rax,%rcx,4)
.LBB15_20:                              # %if.end
                                        #   in Loop: Header=BB15_14 Depth=1
	jmp	.LBB15_21
.LBB15_21:                              # %if.end81
                                        #   in Loop: Header=BB15_14 Depth=1
	jmp	.LBB15_22
.LBB15_22:                              # %for.inc82
                                        #   in Loop: Header=BB15_14 Depth=1
	movl	-12(%rbp), %eax
	addl	$1, %eax
	movl	%eax, -12(%rbp)
	jmp	.LBB15_14
.LBB15_23:                              # %for.end84
	jmp	.LBB15_29
.LBB15_24:                              # %if.else85
	movq	-8(%rbp), %rax
	movl	$0, 36(%rax)
	movl	$0, -12(%rbp)
.LBB15_25:                              # %for.cond87
                                        # =>This Inner Loop Header: Depth=1
	cmpl	$8, -12(%rbp)
	jae	.LBB15_28
# %bb.26:                               # %for.body90
                                        #   in Loop: Header=BB15_25 Depth=1
	movq	-8(%rbp), %rax
	movl	-12(%rbp), %ecx
	movl	$0, 40(%rax,%rcx,4)
# %bb.27:                               # %for.inc94
                                        #   in Loop: Header=BB15_25 Depth=1
	movl	-12(%rbp), %eax
	addl	$1, %eax
	movl	%eax, -12(%rbp)
	jmp	.LBB15_25
.LBB15_28:                              # %for.end96
	jmp	.LBB15_29
.LBB15_29:                              # %if.end97
	movq	img, %rax
	cmpl	$0, 72728(%rax)
	jne	.LBB15_31
# %bb.30:                               # %lor.lhs.false100
	movq	img, %rax
	cmpl	$0, 72732(%rax)
	je	.LBB15_36
.LBB15_31:                              # %if.then103
	movq	-8(%rbp), %rax
	movl	$1, 1160(%rax)
	movq	-8(%rbp), %rax
	movl	$0, 1164(%rax)
	movq	-8(%rbp), %rax
	movl	$0, 1172(%rax)
	movq	img, %rax
	movl	72728(%rax), %eax
	movq	-8(%rbp), %rcx
	movl	32(%rcx), %ecx
	cltd
	idivl	-64(%rbp,%rcx,4)
	movq	-8(%rbp), %rcx
	movl	%eax, 1168(%rcx)
	movq	img, %rax
	movl	72732(%rax), %eax
	movq	-8(%rbp), %rcx
	movl	32(%rcx), %ecx
	movl	-80(%rbp,%rcx,4), %ecx
	movq	-8(%rbp), %rdx
	movl	$2, %esi
	subl	1148(%rdx), %esi
	imull	%esi, %ecx
	xorl	%edx, %edx
	divl	%ecx
	movq	-8(%rbp), %rcx
	movl	%eax, 1176(%rcx)
	movq	img, %rax
	movl	72728(%rax), %eax
	movq	-8(%rbp), %rcx
	movl	32(%rcx), %ecx
	cltd
	idivl	-64(%rbp,%rcx,4)
	cmpl	$0, %edx
	je	.LBB15_33
# %bb.32:                               # %if.then122
	movabsq	$.L.str, %rdi
	movl	$500, %esi              # imm = 0x1F4
	callq	error
.LBB15_33:                              # %if.end123
	movq	img, %rax
	movl	72732(%rax), %eax
	movq	-8(%rbp), %rcx
	movl	32(%rcx), %ecx
	movl	-80(%rbp,%rcx,4), %ecx
	movq	-8(%rbp), %rdx
	movl	$2, %esi
	subl	1148(%rdx), %esi
	imull	%esi, %ecx
	xorl	%edx, %edx
	divl	%ecx
	cmpl	$0, %edx
	je	.LBB15_35
# %bb.34:                               # %if.then133
	movabsq	$.L.str.1, %rdi
	movl	$500, %esi              # imm = 0x1F4
	callq	error
.LBB15_35:                              # %if.end134
	jmp	.LBB15_37
.LBB15_36:                              # %if.else135
	movq	-8(%rbp), %rax
	movl	$0, 1160(%rax)
.LBB15_37:                              # %if.end137
	cmpl	$684526242, -20(%rbp)   # imm = 0x28CD0AA2
	jne	.LBB15_39
.LBB15_38:
	addq	$96, %rsp
	popq	%rbp
	.cfi_def_cfa %rsp, 8
	retq
.LBB15_39:                              # %func_exit
	.cfi_def_cfa %rbp, 16
	callq	detect_breach
	jmp	.LBB15_38
.Lfunc_end15:
	.size	GenerateSequenceParameterSet.4, .Lfunc_end15-GenerateSequenceParameterSet.4
	.cfi_endproc
                                        # -- End function
	.p2align	4, 0x90         # -- Begin function GenerateVUISequenceParameters.5
	.type	GenerateVUISequenceParameters.5,@function
GenerateVUISequenceParameters.5:        # @GenerateVUISequenceParameters.5
	.cfi_startproc
# %bb.0:                                # %entry
	pushq	%rbp
	.cfi_def_cfa_offset 16
	.cfi_offset %rbp, -16
	movq	%rsp, %rbp
	.cfi_def_cfa_register %rbp
	pushq	%rbx
	subq	$24, %rsp
	.cfi_offset %rbx, -24
	movl	$2073296842, -28(%rbp)  # imm = 0x7B93FFCA
	movq	%rdi, -24(%rbp)
	movl	$0, -12(%rbp)
	movq	input, %rax
	cmpl	$0, 3312(%rax)
	je	.LBB16_4
# %bb.1:                                # %land.lhs.true
	movq	input, %rax
	cmpl	$3, 72(%rax)
	jne	.LBB16_4
# %bb.2:                                # %if.then
	movabsq	$.L.str.71, %rdi
	movb	$0, %al
	callq	printf
	movq	-24(%rbp), %rdx
	movabsq	$.L.str.72, %rdi
	xorl	%esi, %esi
	callq	u_1
	addl	-12(%rbp), %eax
	movl	%eax, -12(%rbp)
	movq	-24(%rbp), %rdx
	movabsq	$.L.str.73, %rdi
	xorl	%esi, %esi
	callq	u_1
	addl	-12(%rbp), %eax
	movl	%eax, -12(%rbp)
	movq	-24(%rbp), %rdx
	movabsq	$.L.str.74, %rdi
	movl	$1, %esi
	callq	u_1
	addl	-12(%rbp), %eax
	movl	%eax, -12(%rbp)
	movq	-24(%rbp), %rcx
	movl	$3, %edi
	movabsq	$.L.str.75, %rsi
	movl	$2, %edx
	callq	u_v
	addl	-12(%rbp), %eax
	movl	%eax, -12(%rbp)
	movq	-24(%rbp), %rdx
	movabsq	$.L.str.76, %rdi
	movl	$1, %esi
	callq	u_1
	addl	-12(%rbp), %eax
	movl	%eax, -12(%rbp)
	movq	-24(%rbp), %rdx
	movabsq	$.L.str.77, %rdi
	movl	$1, %esi
	callq	u_1
	addl	-12(%rbp), %eax
	movl	%eax, -12(%rbp)
	movq	-24(%rbp), %rcx
	movl	$8, %edi
	movabsq	$.L.str.78, %rsi
	movl	$2, %edx
	callq	u_v
	addl	-12(%rbp), %eax
	movl	%eax, -12(%rbp)
	movq	-24(%rbp), %rcx
	movl	$8, %edi
	movabsq	$.L.str.79, %rsi
	movl	$2, %edx
	callq	u_v
	addl	-12(%rbp), %eax
	movl	%eax, -12(%rbp)
	movq	-24(%rbp), %rcx
	movl	$8, %edi
	movabsq	$.L.str.80, %rsi
	xorl	%edx, %edx
	callq	u_v
	addl	-12(%rbp), %eax
	movl	%eax, -12(%rbp)
	movq	-24(%rbp), %rdx
	movabsq	$.L.str.81, %rdi
	xorl	%esi, %esi
	callq	u_1
	addl	-12(%rbp), %eax
	movl	%eax, -12(%rbp)
	movq	-24(%rbp), %rdx
	movabsq	$.L.str.82, %rdi
	xorl	%esi, %esi
	callq	u_1
	addl	-12(%rbp), %eax
	movl	%eax, -12(%rbp)
	movq	-24(%rbp), %rdx
	movabsq	$.L.str.83, %rdi
	xorl	%esi, %esi
	callq	u_1
	addl	-12(%rbp), %eax
	movl	%eax, -12(%rbp)
	movq	-24(%rbp), %rdx
	movabsq	$.L.str.84, %rdi
	xorl	%esi, %esi
	callq	u_1
	addl	-12(%rbp), %eax
	movl	%eax, -12(%rbp)
	movq	-24(%rbp), %rdx
	movabsq	$.L.str.85, %rdi
	xorl	%esi, %esi
	callq	u_1
	addl	-12(%rbp), %eax
	movl	%eax, -12(%rbp)
	movq	-24(%rbp), %rdx
	movabsq	$.L.str.86, %rdi
	xorl	%esi, %esi
	callq	u_1
	addl	-12(%rbp), %eax
	movl	%eax, -12(%rbp)
	movl	-12(%rbp), %ebx
	cmpl	$2073296842, -28(%rbp)  # imm = 0x7B93FFCA
	jne	.LBB16_5
.LBB16_3:
	movl	%ebx, %eax
	addq	$24, %rsp
	popq	%rbx
	popq	%rbp
	.cfi_def_cfa %rsp, 8
	retq
.LBB16_4:                               # %if.else
	.cfi_def_cfa %rbp, 16
	movabsq	$.L.str.87, %rdi
	movb	$0, %al
	callq	printf
	movl	$4294967295, %edi       # imm = 0xFFFFFFFF
	callq	exit
.LBB16_5:                               # %func_exit
	callq	detect_breach
	jmp	.LBB16_3
.Lfunc_end16:
	.size	GenerateVUISequenceParameters.5, .Lfunc_end16-GenerateVUISequenceParameters.5
	.cfi_endproc
                                        # -- End function
	.globl	GenerateSequenceParameterSet.6 # -- Begin function GenerateSequenceParameterSet.6
	.p2align	4, 0x90
	.type	GenerateSequenceParameterSet.6,@function
GenerateSequenceParameterSet.6:         # @GenerateSequenceParameterSet.6
	.cfi_startproc
# %bb.0:                                # %entry
	pushq	%rbp
	.cfi_def_cfa_offset 16
	.cfi_offset %rbp, -16
	movq	%rsp, %rbp
	.cfi_def_cfa_register %rbp
	subq	$96, %rsp
	movl	$652616706, -28(%rbp)   # imm = 0x26E62402
	movq	%rdi, -8(%rbp)
	movl	%esi, -84(%rbp)
	movq	.L__const.GenerateSequenceParameterSet.SubWidthC, %rax
	movq	%rax, -80(%rbp)
	movq	.L__const.GenerateSequenceParameterSet.SubWidthC+8, %rax
	movq	%rax, -72(%rbp)
	movq	.L__const.GenerateSequenceParameterSet.SubHeightC, %rax
	movq	%rax, -64(%rbp)
	movq	.L__const.GenerateSequenceParameterSet.SubHeightC+8, %rax
	movq	%rax, -56(%rbp)
	callq	IdentifyProfile
	cmpl	$100, %eax
	movb	$1, %al
	je	.LBB17_4
# %bb.1:                                # %lor.lhs.false
	callq	IdentifyProfile
	cmpl	$110, %eax
	movb	$1, %al
	je	.LBB17_4
# %bb.2:                                # %lor.lhs.false3
	callq	IdentifyProfile
	cmpl	$122, %eax
	movb	$1, %al
	je	.LBB17_4
# %bb.3:                                # %lor.rhs
	callq	IdentifyProfile
	cmpl	$144, %eax
	sete	%al
.LBB17_4:                               # %lor.end
	andb	$1, %al
	movzbl	%al, %eax
	movl	%eax, -16(%rbp)
	callq	IdentifyProfile
	movq	-8(%rbp), %rcx
	movl	%eax, 4(%rcx)
	callq	IdentifyLevel
	movq	-8(%rbp), %rcx
	movl	%eax, 24(%rcx)
	movq	-8(%rbp), %rax
	movl	$0, 8(%rax)
	movq	-8(%rbp), %rax
	movl	$0, 12(%rax)
	movq	-8(%rbp), %rax
	movl	$0, 16(%rax)
	movq	-8(%rbp), %rax
	movl	$0, 20(%rax)
	movq	-8(%rbp), %rax
	movl	$0, 28(%rax)
	movq	input, %rax
	movl	3296(%rax), %eax
	subl	$8, %eax
	movq	-8(%rbp), %rcx
	movl	%eax, 72(%rcx)
	movq	input, %rax
	movl	3300(%rax), %eax
	subl	$8, %eax
	movq	-8(%rbp), %rcx
	movl	%eax, 76(%rcx)
	movq	input, %rax
	movl	3324(%rax), %eax
	movq	-8(%rbp), %rcx
	cmpl	$144, 4(%rcx)
	sete	%cl
	andb	$1, %cl
	movzbl	%cl, %ecx
	andl	%ecx, %eax
	movq	img, %rcx
	movl	%eax, 72704(%rcx)
	movq	input, %rax
	movl	3328(%rax), %eax
	movq	img, %rcx
	movl	%eax, 72724(%rcx)
	movl	log2_max_frame_num_minus4, %eax
	movq	-8(%rbp), %rcx
	movl	%eax, 80(%rcx)
	movl	log2_max_pic_order_cnt_lsb_minus4, %eax
	movq	-8(%rbp), %rcx
	movl	%eax, 88(%rcx)
	movq	input, %rax
	movl	3208(%rax), %eax
	movq	-8(%rbp), %rcx
	movl	%eax, 84(%rcx)
	movq	img, %rax
	movl	72420(%rax), %eax
	movq	-8(%rbp), %rcx
	movl	%eax, 104(%rcx)
	movq	img, %rax
	movl	72408(%rax), %eax
	movq	-8(%rbp), %rcx
	movl	%eax, 92(%rcx)
	movq	img, %rax
	movl	72412(%rax), %eax
	movq	-8(%rbp), %rcx
	movl	%eax, 96(%rcx)
	movq	img, %rax
	movl	72416(%rax), %eax
	movq	-8(%rbp), %rcx
	movl	%eax, 100(%rcx)
	movl	$0, -12(%rbp)
.LBB17_5:                               # %for.cond
                                        # =>This Inner Loop Header: Depth=1
	movl	-12(%rbp), %eax
	movq	img, %rcx
	cmpl	72420(%rcx), %eax
	jae	.LBB17_8
# %bb.6:                                # %for.body
                                        #   in Loop: Header=BB17_5 Depth=1
	movq	img, %rax
	movl	-12(%rbp), %ecx
	movl	72424(%rax,%rcx,4), %eax
	movq	-8(%rbp), %rcx
	movl	-12(%rbp), %edx
	movl	%eax, 108(%rcx,%rdx,4)
# %bb.7:                                # %for.inc
                                        #   in Loop: Header=BB17_5 Depth=1
	movl	-12(%rbp), %eax
	addl	$1, %eax
	movl	%eax, -12(%rbp)
	jmp	.LBB17_5
.LBB17_8:                               # %for.end
	movq	input, %rax
	movl	36(%rax), %eax
	movq	-8(%rbp), %rcx
	movl	%eax, 1132(%rcx)
	movq	-8(%rbp), %rax
	movl	$0, 1136(%rax)
	movq	input, %rax
	cmpl	$0, 2880(%rax)
	movb	$1, %al
	jne	.LBB17_10
# %bb.9:                                # %lor.rhs26
	movq	input, %rax
	cmpl	$0, 2884(%rax)
	setne	%al
.LBB17_10:                              # %lor.end28
	xorl	%ecx, %ecx
	xorl	%esi, %esi
	xorb	$-1, %al
	andb	$1, %al
	movzbl	%al, %eax
	movq	-8(%rbp), %rdx
	movl	%eax, 1148(%rdx)
	movq	input, %rax
	movl	64(%rax), %eax
	movq	img, %rdx
	addl	72728(%rdx), %eax
	cltd
	movl	$16, %edi
	idivl	%edi
	subl	$1, %eax
	movq	-8(%rbp), %rdx
	movl	%eax, 1140(%rdx)
	movq	input, %rax
	movl	68(%rax), %eax
	movq	img, %rdx
	addl	72732(%rdx), %eax
	cltd
	idivl	%edi
	movq	-8(%rbp), %rdx
	movl	$2, %edi
	subl	1148(%rdx), %edi
	xorl	%edx, %edx
	divl	%edi
	subl	$1, %eax
	movq	-8(%rbp), %rdx
	movl	%eax, 1144(%rdx)
	movq	input, %rax
	cmpl	2884(%rax), %esi
	setne	%al
	andb	$1, %al
	movzbl	%al, %eax
	movq	-8(%rbp), %rdx
	movl	%eax, 1152(%rdx)
	movq	input, %rax
	movl	1252(%rax), %eax
	movq	-8(%rbp), %rdx
	movl	%eax, 1156(%rdx)
	movq	input, %rax
	cmpl	$0, 3312(%rax)
	je	.LBB17_12
# %bb.11:                               # %land.rhs
	movq	input, %rax
	cmpl	$3, 72(%rax)
	sete	%cl
.LBB17_12:                              # %land.end
	andb	$1, %cl
	movzbl	%cl, %eax
	movq	-8(%rbp), %rcx
	movl	%eax, 1180(%rcx)
	movq	input, %rax
	movl	72(%rax), %eax
	movq	-8(%rbp), %rcx
	movl	%eax, 32(%rcx)
	movq	-8(%rbp), %rax
	movl	1140(%rax), %eax
	addl	$1, %eax
	movl	%eax, -20(%rbp)
	movq	-8(%rbp), %rax
	movl	1144(%rax), %eax
	addl	$1, %eax
	movl	%eax, -40(%rbp)
	movq	-8(%rbp), %rax
	movl	$2, %ecx
	subl	1148(%rax), %ecx
	imull	-40(%rbp), %ecx
	movl	%ecx, -24(%rbp)
	movl	-20(%rbp), %eax
	shll	$4, %eax
	movl	%eax, -36(%rbp)
	movl	-24(%rbp), %eax
	shll	$4, %eax
	movl	%eax, -32(%rbp)
	movl	-36(%rbp), %edi
	movl	-32(%rbp), %esi
	movq	-8(%rbp), %rax
	movl	1152(%rax), %edx
	callq	alloc_colocated
	movq	%rax, Co_located
	cmpl	$0, -16(%rbp)
	je	.LBB17_24
# %bb.13:                               # %if.then
	movq	input, %rax
	movl	3256(%rax), %eax
	andl	$1, %eax
	movq	-8(%rbp), %rcx
	movl	%eax, 36(%rcx)
	movl	$0, -12(%rbp)
.LBB17_14:                              # %for.cond56
                                        # =>This Inner Loop Header: Depth=1
	cmpl	$8, -12(%rbp)
	jae	.LBB17_23
# %bb.15:                               # %for.body59
                                        #   in Loop: Header=BB17_14 Depth=1
	cmpl	$6, -12(%rbp)
	jae	.LBB17_17
# %bb.16:                               # %if.then62
                                        #   in Loop: Header=BB17_14 Depth=1
	movq	input, %rax
	movl	-12(%rbp), %ecx
	movl	3260(%rax,%rcx,4), %eax
	andl	$1, %eax
	movq	-8(%rbp), %rcx
	movl	-12(%rbp), %edx
	movl	%eax, 40(%rcx,%rdx,4)
	jmp	.LBB17_21
.LBB17_17:                              # %if.else
                                        #   in Loop: Header=BB17_14 Depth=1
	movq	input, %rax
	cmpl	$0, 3220(%rax)
	je	.LBB17_19
# %bb.18:                               # %if.then69
                                        #   in Loop: Header=BB17_14 Depth=1
	movq	input, %rax
	movl	-12(%rbp), %ecx
	movl	3260(%rax,%rcx,4), %eax
	andl	$1, %eax
	movq	-8(%rbp), %rcx
	movl	-12(%rbp), %edx
	movl	%eax, 40(%rcx,%rdx,4)
	jmp	.LBB17_20
.LBB17_19:                              # %if.else77
                                        #   in Loop: Header=BB17_14 Depth=1
	movq	-8(%rbp), %rax
	movl	-12(%rbp), %ecx
	movl	$0, 40(%rax,%rcx,4)
.LBB17_20:                              # %if.end
                                        #   in Loop: Header=BB17_14 Depth=1
	jmp	.LBB17_21
.LBB17_21:                              # %if.end81
                                        #   in Loop: Header=BB17_14 Depth=1
	jmp	.LBB17_22
.LBB17_22:                              # %for.inc82
                                        #   in Loop: Header=BB17_14 Depth=1
	movl	-12(%rbp), %eax
	addl	$1, %eax
	movl	%eax, -12(%rbp)
	jmp	.LBB17_14
.LBB17_23:                              # %for.end84
	jmp	.LBB17_29
.LBB17_24:                              # %if.else85
	movq	-8(%rbp), %rax
	movl	$0, 36(%rax)
	movl	$0, -12(%rbp)
.LBB17_25:                              # %for.cond87
                                        # =>This Inner Loop Header: Depth=1
	cmpl	$8, -12(%rbp)
	jae	.LBB17_28
# %bb.26:                               # %for.body90
                                        #   in Loop: Header=BB17_25 Depth=1
	movq	-8(%rbp), %rax
	movl	-12(%rbp), %ecx
	movl	$0, 40(%rax,%rcx,4)
# %bb.27:                               # %for.inc94
                                        #   in Loop: Header=BB17_25 Depth=1
	movl	-12(%rbp), %eax
	addl	$1, %eax
	movl	%eax, -12(%rbp)
	jmp	.LBB17_25
.LBB17_28:                              # %for.end96
	jmp	.LBB17_29
.LBB17_29:                              # %if.end97
	movq	img, %rax
	cmpl	$0, 72728(%rax)
	jne	.LBB17_31
# %bb.30:                               # %lor.lhs.false100
	movq	img, %rax
	cmpl	$0, 72732(%rax)
	je	.LBB17_36
.LBB17_31:                              # %if.then103
	movq	-8(%rbp), %rax
	movl	$1, 1160(%rax)
	movq	-8(%rbp), %rax
	movl	$0, 1164(%rax)
	movq	-8(%rbp), %rax
	movl	$0, 1172(%rax)
	movq	img, %rax
	movl	72728(%rax), %eax
	movq	-8(%rbp), %rcx
	movl	32(%rcx), %ecx
	cltd
	idivl	-80(%rbp,%rcx,4)
	movq	-8(%rbp), %rcx
	movl	%eax, 1168(%rcx)
	movq	img, %rax
	movl	72732(%rax), %eax
	movq	-8(%rbp), %rcx
	movl	32(%rcx), %ecx
	movl	-64(%rbp,%rcx,4), %ecx
	movq	-8(%rbp), %rdx
	movl	$2, %esi
	subl	1148(%rdx), %esi
	imull	%esi, %ecx
	xorl	%edx, %edx
	divl	%ecx
	movq	-8(%rbp), %rcx
	movl	%eax, 1176(%rcx)
	movq	img, %rax
	movl	72728(%rax), %eax
	movq	-8(%rbp), %rcx
	movl	32(%rcx), %ecx
	cltd
	idivl	-80(%rbp,%rcx,4)
	cmpl	$0, %edx
	je	.LBB17_33
# %bb.32:                               # %if.then122
	movabsq	$.L.str, %rdi
	movl	$500, %esi              # imm = 0x1F4
	callq	error
.LBB17_33:                              # %if.end123
	movq	img, %rax
	movl	72732(%rax), %eax
	movq	-8(%rbp), %rcx
	movl	32(%rcx), %ecx
	movl	-64(%rbp,%rcx,4), %ecx
	movq	-8(%rbp), %rdx
	movl	$2, %esi
	subl	1148(%rdx), %esi
	imull	%esi, %ecx
	xorl	%edx, %edx
	divl	%ecx
	cmpl	$0, %edx
	je	.LBB17_35
# %bb.34:                               # %if.then133
	movabsq	$.L.str.1, %rdi
	movl	$500, %esi              # imm = 0x1F4
	callq	error
.LBB17_35:                              # %if.end134
	jmp	.LBB17_37
.LBB17_36:                              # %if.else135
	movq	-8(%rbp), %rax
	movl	$0, 1160(%rax)
.LBB17_37:                              # %if.end137
	cmpl	$652616706, -28(%rbp)   # imm = 0x26E62402
	jne	.LBB17_39
.LBB17_38:
	addq	$96, %rsp
	popq	%rbp
	.cfi_def_cfa %rsp, 8
	retq
.LBB17_39:                              # %func_exit
	.cfi_def_cfa %rbp, 16
	callq	detect_breach
	jmp	.LBB17_38
.Lfunc_end17:
	.size	GenerateSequenceParameterSet.6, .Lfunc_end17-GenerateSequenceParameterSet.6
	.cfi_endproc
                                        # -- End function
	.globl	GeneratePic_parameter_set_NALU.7 # -- Begin function GeneratePic_parameter_set_NALU.7
	.p2align	4, 0x90
	.type	GeneratePic_parameter_set_NALU.7,@function
GeneratePic_parameter_set_NALU.7:       # @GeneratePic_parameter_set_NALU.7
	.cfi_startproc
# %bb.0:                                # %entry
	pushq	%rbp
	.cfi_def_cfa_offset 16
	.cfi_offset %rbp, -16
	movq	%rsp, %rbp
	.cfi_def_cfa_register %rbp
	pushq	%rbx
	subq	$64056, %rsp            # imm = 0xFA38
	.cfi_offset %rbx, -24
	movl	$1196449953, -28(%rbp)  # imm = 0x475060A1
	movl	%edi, -32(%rbp)
	movl	$64000, %edi            # imm = 0xFA00
	movb	$0, %al
	callq	AllocNALU
	leaq	-64048(%rbp), %rsi
	movq	%rax, -24(%rbp)
	movl	$0, -12(%rbp)
	movslq	-32(%rbp), %rax
	imulq	$240, %rax, %rax
	movabsq	$PicParSet, %rdi
	addq	%rax, %rdi
	callq	GeneratePic_parameter_set_rbsp
	leaq	-64048(%rbp), %rdi
	movl	%eax, -12(%rbp)
	movq	-24(%rbp), %rsi
	movl	-12(%rbp), %edx
	movl	$8, %ecx
	movl	$3, %r8d
	xorl	%r9d, %r9d
	movl	$1, (%rsp)
	callq	RBSPtoNALU
	movl	%eax, -36(%rbp)
	movq	-24(%rbp), %rax
	movl	$4, (%rax)
	movq	-24(%rbp), %rbx
	cmpl	$1196449953, -28(%rbp)  # imm = 0x475060A1
	jne	.LBB18_2
.LBB18_1:
	movq	%rbx, %rax
	addq	$64056, %rsp            # imm = 0xFA38
	popq	%rbx
	popq	%rbp
	.cfi_def_cfa %rsp, 8
	retq
.LBB18_2:                               # %func_exit
	.cfi_def_cfa %rbp, 16
	callq	detect_breach
	jmp	.LBB18_1
.Lfunc_end18:
	.size	GeneratePic_parameter_set_NALU.7, .Lfunc_end18-GeneratePic_parameter_set_NALU.7
	.cfi_endproc
                                        # -- End function
	.globl	GeneratePictureParameterSet.8 # -- Begin function GeneratePictureParameterSet.8
	.p2align	4, 0x90
	.type	GeneratePictureParameterSet.8,@function
GeneratePictureParameterSet.8:          # @GeneratePictureParameterSet.8
	.cfi_startproc
# %bb.0:                                # %entry
	pushq	%rbp
	.cfi_def_cfa_offset 16
	.cfi_offset %rbp, -16
	movq	%rsp, %rbp
	.cfi_def_cfa_register %rbp
	subq	$48, %rsp
	movl	16(%rbp), %eax
	movl	$944754028, -36(%rbp)   # imm = 0x384FCD6C
	movq	%rdi, -16(%rbp)
	movq	%rsi, -24(%rbp)
	movl	%edx, -44(%rbp)
	movl	%ecx, -40(%rbp)
	movl	%r8d, -48(%rbp)
	movl	%r9d, -32(%rbp)
	callq	IdentifyProfile
	cmpl	$100, %eax
	movb	$1, %al
	je	.LBB19_4
# %bb.1:                                # %lor.lhs.false
	callq	IdentifyProfile
	cmpl	$110, %eax
	movb	$1, %al
	je	.LBB19_4
# %bb.2:                                # %lor.lhs.false3
	callq	IdentifyProfile
	cmpl	$122, %eax
	movb	$1, %al
	je	.LBB19_4
# %bb.3:                                # %lor.rhs
	callq	IdentifyProfile
	cmpl	$144, %eax
	sete	%al
.LBB19_4:                               # %lor.end
	xorl	%ecx, %ecx
	andb	$1, %al
	movzbl	%al, %eax
	movl	%eax, -28(%rbp)
	movq	-24(%rbp), %rax
	movl	28(%rax), %eax
	movq	-16(%rbp), %rdx
	movl	%eax, 8(%rdx)
	movl	-44(%rbp), %eax
	movq	-16(%rbp), %rdx
	movl	%eax, 4(%rdx)
	movq	input, %rax
	movl	2356(%rax), %eax
	cmpl	$0, %eax
	movl	$1, %eax
	cmovel	%ecx, %eax
	movq	-16(%rbp), %rcx
	movl	%eax, 12(%rcx)
	cmpl	$0, -28(%rbp)
	je	.LBB19_16
# %bb.5:                                # %if.then
	xorl	%eax, %eax
	movq	input, %rcx
	movl	3220(%rcx), %ecx
	cmpl	$0, %ecx
	movl	$1, %ecx
	cmovnel	%ecx, %eax
	movq	-16(%rbp), %rcx
	movl	%eax, 16(%rcx)
	movq	input, %rax
	movl	3256(%rax), %eax
	andl	$2, %eax
	sarl	$1, %eax
	movq	-16(%rbp), %rcx
	movl	%eax, 20(%rcx)
	movl	$0, -4(%rbp)
.LBB19_6:                               # %for.cond
                                        # =>This Inner Loop Header: Depth=1
	cmpl	$8, -4(%rbp)
	jae	.LBB19_15
# %bb.7:                                # %for.body
                                        #   in Loop: Header=BB19_6 Depth=1
	cmpl	$6, -4(%rbp)
	jae	.LBB19_9
# %bb.8:                                # %if.then14
                                        #   in Loop: Header=BB19_6 Depth=1
	movq	input, %rax
	movl	-4(%rbp), %ecx
	movl	3260(%rax,%rcx,4), %eax
	andl	$2, %eax
	sarl	$1, %eax
	movq	-16(%rbp), %rcx
	movl	-4(%rbp), %edx
	movl	%eax, 24(%rcx,%rdx,4)
	jmp	.LBB19_13
.LBB19_9:                               # %if.else
                                        #   in Loop: Header=BB19_6 Depth=1
	movq	-16(%rbp), %rax
	cmpl	$0, 16(%rax)
	je	.LBB19_11
# %bb.10:                               # %if.then21
                                        #   in Loop: Header=BB19_6 Depth=1
	movq	input, %rax
	movl	-4(%rbp), %ecx
	movl	3260(%rax,%rcx,4), %eax
	andl	$2, %eax
	sarl	$1, %eax
	movq	-16(%rbp), %rcx
	movl	-4(%rbp), %edx
	movl	%eax, 24(%rcx,%rdx,4)
	jmp	.LBB19_12
.LBB19_11:                              # %if.else30
                                        #   in Loop: Header=BB19_6 Depth=1
	movq	-16(%rbp), %rax
	movl	-4(%rbp), %ecx
	movl	$0, 24(%rax,%rcx,4)
.LBB19_12:                              # %if.end
                                        #   in Loop: Header=BB19_6 Depth=1
	jmp	.LBB19_13
.LBB19_13:                              # %if.end34
                                        #   in Loop: Header=BB19_6 Depth=1
	jmp	.LBB19_14
.LBB19_14:                              # %for.inc
                                        #   in Loop: Header=BB19_6 Depth=1
	movl	-4(%rbp), %eax
	addl	$1, %eax
	movl	%eax, -4(%rbp)
	jmp	.LBB19_6
.LBB19_15:                              # %for.end
	jmp	.LBB19_21
.LBB19_16:                              # %if.else35
	movq	-16(%rbp), %rax
	movl	$0, 20(%rax)
	movl	$0, -4(%rbp)
.LBB19_17:                              # %for.cond37
                                        # =>This Inner Loop Header: Depth=1
	cmpl	$8, -4(%rbp)
	jae	.LBB19_20
# %bb.18:                               # %for.body39
                                        #   in Loop: Header=BB19_17 Depth=1
	movq	-16(%rbp), %rax
	movl	-4(%rbp), %ecx
	movl	$0, 24(%rax,%rcx,4)
# %bb.19:                               # %for.inc43
                                        #   in Loop: Header=BB19_17 Depth=1
	movl	-4(%rbp), %eax
	addl	$1, %eax
	movl	%eax, -4(%rbp)
	jmp	.LBB19_17
.LBB19_20:                              # %for.end45
	movq	input, %rax
	movl	$0, 3220(%rax)
	movq	-16(%rbp), %rax
	movl	$0, 16(%rax)
.LBB19_21:                              # %if.end48
	movq	img, %rax
	movl	72492(%rax), %eax
	movq	-16(%rbp), %rcx
	movl	%eax, 56(%rcx)
	movq	input, %rax
	movl	3152(%rax), %eax
	movq	-16(%rbp), %rcx
	movl	%eax, 60(%rcx)
	movq	-16(%rbp), %rax
	cmpl	$0, 60(%rax)
	jbe	.LBB19_43
# %bb.22:                               # %if.then53
	movq	input(%rip), %rax
	movl	3156(%rax), %eax
	movq	%rax, %rcx
	subq	$6, %rcx
	ja	.LBB19_41
# %bb.23:                               # %if.then53
	movq	.LJTI19_0(,%rax,8), %rax
	jmpq	*%rax
.LBB19_24:                              # %sw.bb
	movq	-16(%rbp), %rax
	movl	$0, 64(%rax)
	movl	$0, -4(%rbp)
.LBB19_25:                              # %for.cond55
                                        # =>This Inner Loop Header: Depth=1
	movl	-4(%rbp), %eax
	movq	-16(%rbp), %rcx
	cmpl	60(%rcx), %eax
	ja	.LBB19_28
# %bb.26:                               # %for.body58
                                        #   in Loop: Header=BB19_25 Depth=1
	movq	input, %rax
	movq	3184(%rax), %rax
	movl	-4(%rbp), %ecx
	movl	(%rax,%rcx,4), %eax
	movq	-16(%rbp), %rcx
	movl	-4(%rbp), %edx
	movl	%eax, 68(%rcx,%rdx,4)
# %bb.27:                               # %for.inc64
                                        #   in Loop: Header=BB19_25 Depth=1
	movl	-4(%rbp), %eax
	addl	$1, %eax
	movl	%eax, -4(%rbp)
	jmp	.LBB19_25
.LBB19_28:                              # %for.end66
	jmp	.LBB19_42
.LBB19_29:                              # %sw.bb67
	movq	-16(%rbp), %rax
	movl	$1, 64(%rax)
	jmp	.LBB19_42
.LBB19_30:                              # %sw.bb69
	movq	-16(%rbp), %rax
	movl	$2, 64(%rax)
	movl	$0, -4(%rbp)
.LBB19_31:                              # %for.cond71
                                        # =>This Inner Loop Header: Depth=1
	movl	-4(%rbp), %eax
	movq	-16(%rbp), %rcx
	cmpl	60(%rcx), %eax
	jae	.LBB19_34
# %bb.32:                               # %for.body74
                                        #   in Loop: Header=BB19_31 Depth=1
	movq	input, %rax
	movq	3160(%rax), %rax
	movl	-4(%rbp), %ecx
	movl	(%rax,%rcx,4), %eax
	movq	-16(%rbp), %rcx
	movl	-4(%rbp), %edx
	movl	%eax, 100(%rcx,%rdx,4)
	movq	input, %rax
	movq	3168(%rax), %rax
	movl	-4(%rbp), %ecx
	movl	(%rax,%rcx,4), %eax
	movq	-16(%rbp), %rcx
	movl	-4(%rbp), %edx
	movl	%eax, 132(%rcx,%rdx,4)
# %bb.33:                               # %for.inc85
                                        #   in Loop: Header=BB19_31 Depth=1
	movl	-4(%rbp), %eax
	addl	$1, %eax
	movl	%eax, -4(%rbp)
	jmp	.LBB19_31
.LBB19_34:                              # %for.end87
	jmp	.LBB19_42
.LBB19_35:                              # %sw.bb88
	movq	input, %rax
	movl	3156(%rax), %eax
	movq	-16(%rbp), %rcx
	movl	%eax, 64(%rcx)
	movq	input, %rax
	movl	3192(%rax), %eax
	movq	-16(%rbp), %rcx
	movl	%eax, 164(%rcx)
	movq	input, %rax
	movl	3196(%rax), %eax
	movq	-16(%rbp), %rcx
	movl	%eax, 168(%rcx)
	jmp	.LBB19_42
.LBB19_36:                              # %sw.bb93
	movq	-16(%rbp), %rax
	movl	$6, 64(%rax)
	movq	input, %rax
	movl	68(%rax), %eax
	movq	img, %rcx
	addl	72732(%rcx), %eax
	cltd
	movl	$16, %esi
	idivl	%esi
	movq	-24(%rbp), %rcx
	movl	$2, %edi
	subl	1148(%rcx), %edi
	xorl	%edx, %edx
	divl	%edi
	movl	%eax, %ecx
	movq	input, %rax
	movl	64(%rax), %eax
	movq	img, %rdx
	addl	72728(%rdx), %eax
	cltd
	idivl	%esi
	imull	%eax, %ecx
	subl	$1, %ecx
	movq	-16(%rbp), %rax
	movl	%ecx, 172(%rax)
	movl	$0, -4(%rbp)
.LBB19_37:                              # %for.cond99
                                        # =>This Inner Loop Header: Depth=1
	movl	-4(%rbp), %eax
	movq	-16(%rbp), %rcx
	cmpl	172(%rcx), %eax
	ja	.LBB19_40
# %bb.38:                               # %for.body102
                                        #   in Loop: Header=BB19_37 Depth=1
	movq	input, %rax
	movq	3176(%rax), %rax
	movl	-4(%rbp), %ecx
	movb	(%rax,%rcx), %al
	movq	-16(%rbp), %rcx
	movq	176(%rcx), %rcx
	movl	-4(%rbp), %edx
	movb	%al, (%rcx,%rdx)
# %bb.39:                               # %for.inc108
                                        #   in Loop: Header=BB19_37 Depth=1
	movl	-4(%rbp), %eax
	addl	$1, %eax
	movl	%eax, -4(%rbp)
	jmp	.LBB19_37
.LBB19_40:                              # %for.end110
	jmp	.LBB19_42
.LBB19_41:                              # %sw.default
	movabsq	$.L.str.2, %rdi
	movb	$0, %al
	callq	printf
.LBB19_42:                              # %sw.epilog
	jmp	.LBB19_43
.LBB19_43:                              # %if.end112
	movq	-24(%rbp), %rax
	cmpl	$0, 1148(%rax)
	je	.LBB19_45
# %bb.44:                               # %cond.true
	movq	-24(%rbp), %rax
	movl	1132(%rax), %eax
	subl	$1, %eax
	jmp	.LBB19_46
.LBB19_45:                              # %cond.false
	movq	-24(%rbp), %rax
	movl	1132(%rax), %eax
	shll	$1, %eax
	subl	$1, %eax
.LBB19_46:                              # %cond.end
	movq	-16(%rbp), %rcx
	movl	%eax, 184(%rcx)
	movq	-24(%rbp), %rax
	cmpl	$0, 1148(%rax)
	je	.LBB19_48
# %bb.47:                               # %cond.true122
	movq	-24(%rbp), %rax
	movl	1132(%rax), %eax
	subl	$1, %eax
	jmp	.LBB19_49
.LBB19_48:                              # %cond.false125
	movq	-24(%rbp), %rax
	movl	1132(%rax), %eax
	shll	$1, %eax
	subl	$1, %eax
.LBB19_49:                              # %cond.end129
	movq	-16(%rbp), %rcx
	movl	%eax, 188(%rcx)
	movl	-40(%rbp), %eax
	movq	-16(%rbp), %rcx
	movl	%eax, 192(%rcx)
	movl	-48(%rbp), %eax
	movq	-16(%rbp), %rcx
	movl	%eax, 196(%rcx)
	movq	-16(%rbp), %rax
	movl	$0, 200(%rax)
	movq	-16(%rbp), %rax
	movl	$0, 204(%rax)
	movl	-32(%rbp), %eax
	movq	-16(%rbp), %rcx
	movl	%eax, 208(%rcx)
	cmpl	$0, -28(%rbp)
	je	.LBB19_51
# %bb.50:                               # %if.then132
	movl	-32(%rbp), %eax
	movq	-16(%rbp), %rcx
	movl	%eax, 212(%rcx)
	movl	16(%rbp), %eax
	movq	-16(%rbp), %rcx
	movl	%eax, 216(%rcx)
	jmp	.LBB19_52
.LBB19_51:                              # %if.else135
	movq	-16(%rbp), %rax
	movl	208(%rax), %eax
	movq	-16(%rbp), %rcx
	movl	%eax, 216(%rcx)
	movq	-16(%rbp), %rcx
	movl	%eax, 212(%rcx)
.LBB19_52:                              # %if.end139
	movq	input, %rax
	movl	2924(%rax), %eax
	movq	-16(%rbp), %rcx
	movl	%eax, 220(%rcx)
	movq	input, %rax
	movl	216(%rax), %eax
	movq	-16(%rbp), %rcx
	movl	%eax, 224(%rcx)
	movq	-16(%rbp), %rax
	movl	$0, 228(%rax)
	cmpl	$944754028, -36(%rbp)   # imm = 0x384FCD6C
	jne	.LBB19_54
.LBB19_53:
	addq	$48, %rsp
	popq	%rbp
	.cfi_def_cfa %rsp, 8
	retq
.LBB19_54:                              # %func_exit
	.cfi_def_cfa %rbp, 16
	callq	detect_breach
	jmp	.LBB19_53
.Lfunc_end19:
	.size	GeneratePictureParameterSet.8, .Lfunc_end19-GeneratePictureParameterSet.8
	.cfi_endproc
	.section	.rodata,"a",@progbits
	.p2align	3
.LJTI19_0:
	.quad	.LBB19_24
	.quad	.LBB19_29
	.quad	.LBB19_30
	.quad	.LBB19_35
	.quad	.LBB19_35
	.quad	.LBB19_35
	.quad	.LBB19_36
                                        # -- End function
	.text
	.p2align	4, 0x90         # -- Begin function GenerateVUISequenceParameters.9
	.type	GenerateVUISequenceParameters.9,@function
GenerateVUISequenceParameters.9:        # @GenerateVUISequenceParameters.9
	.cfi_startproc
# %bb.0:                                # %entry
	pushq	%rbp
	.cfi_def_cfa_offset 16
	.cfi_offset %rbp, -16
	movq	%rsp, %rbp
	.cfi_def_cfa_register %rbp
	pushq	%rbx
	subq	$24, %rsp
	.cfi_offset %rbx, -24
	movl	$599553653, -28(%rbp)   # imm = 0x23BC7675
	movq	%rdi, -24(%rbp)
	movl	$0, -12(%rbp)
	movq	input, %rax
	cmpl	$0, 3312(%rax)
	je	.LBB20_4
# %bb.1:                                # %land.lhs.true
	movq	input, %rax
	cmpl	$3, 72(%rax)
	jne	.LBB20_4
# %bb.2:                                # %if.then
	movabsq	$.L.str.71, %rdi
	movb	$0, %al
	callq	printf
	movq	-24(%rbp), %rdx
	movabsq	$.L.str.72, %rdi
	xorl	%esi, %esi
	callq	u_1
	addl	-12(%rbp), %eax
	movl	%eax, -12(%rbp)
	movq	-24(%rbp), %rdx
	movabsq	$.L.str.73, %rdi
	xorl	%esi, %esi
	callq	u_1
	addl	-12(%rbp), %eax
	movl	%eax, -12(%rbp)
	movq	-24(%rbp), %rdx
	movabsq	$.L.str.74, %rdi
	movl	$1, %esi
	callq	u_1
	addl	-12(%rbp), %eax
	movl	%eax, -12(%rbp)
	movq	-24(%rbp), %rcx
	movl	$3, %edi
	movabsq	$.L.str.75, %rsi
	movl	$2, %edx
	callq	u_v
	addl	-12(%rbp), %eax
	movl	%eax, -12(%rbp)
	movq	-24(%rbp), %rdx
	movabsq	$.L.str.76, %rdi
	movl	$1, %esi
	callq	u_1
	addl	-12(%rbp), %eax
	movl	%eax, -12(%rbp)
	movq	-24(%rbp), %rdx
	movabsq	$.L.str.77, %rdi
	movl	$1, %esi
	callq	u_1
	addl	-12(%rbp), %eax
	movl	%eax, -12(%rbp)
	movq	-24(%rbp), %rcx
	movl	$8, %edi
	movabsq	$.L.str.78, %rsi
	movl	$2, %edx
	callq	u_v
	addl	-12(%rbp), %eax
	movl	%eax, -12(%rbp)
	movq	-24(%rbp), %rcx
	movl	$8, %edi
	movabsq	$.L.str.79, %rsi
	movl	$2, %edx
	callq	u_v
	addl	-12(%rbp), %eax
	movl	%eax, -12(%rbp)
	movq	-24(%rbp), %rcx
	movl	$8, %edi
	movabsq	$.L.str.80, %rsi
	xorl	%edx, %edx
	callq	u_v
	addl	-12(%rbp), %eax
	movl	%eax, -12(%rbp)
	movq	-24(%rbp), %rdx
	movabsq	$.L.str.81, %rdi
	xorl	%esi, %esi
	callq	u_1
	addl	-12(%rbp), %eax
	movl	%eax, -12(%rbp)
	movq	-24(%rbp), %rdx
	movabsq	$.L.str.82, %rdi
	xorl	%esi, %esi
	callq	u_1
	addl	-12(%rbp), %eax
	movl	%eax, -12(%rbp)
	movq	-24(%rbp), %rdx
	movabsq	$.L.str.83, %rdi
	xorl	%esi, %esi
	callq	u_1
	addl	-12(%rbp), %eax
	movl	%eax, -12(%rbp)
	movq	-24(%rbp), %rdx
	movabsq	$.L.str.84, %rdi
	xorl	%esi, %esi
	callq	u_1
	addl	-12(%rbp), %eax
	movl	%eax, -12(%rbp)
	movq	-24(%rbp), %rdx
	movabsq	$.L.str.85, %rdi
	xorl	%esi, %esi
	callq	u_1
	addl	-12(%rbp), %eax
	movl	%eax, -12(%rbp)
	movq	-24(%rbp), %rdx
	movabsq	$.L.str.86, %rdi
	xorl	%esi, %esi
	callq	u_1
	addl	-12(%rbp), %eax
	movl	%eax, -12(%rbp)
	movl	-12(%rbp), %ebx
	cmpl	$599553653, -28(%rbp)   # imm = 0x23BC7675
	jne	.LBB20_5
.LBB20_3:
	movl	%ebx, %eax
	addq	$24, %rsp
	popq	%rbx
	popq	%rbp
	.cfi_def_cfa %rsp, 8
	retq
.LBB20_4:                               # %if.else
	.cfi_def_cfa %rbp, 16
	movabsq	$.L.str.87, %rdi
	movb	$0, %al
	callq	printf
	movl	$4294967295, %edi       # imm = 0xFFFFFFFF
	callq	exit
.LBB20_5:                               # %func_exit
	callq	detect_breach
	jmp	.LBB20_3
.Lfunc_end20:
	.size	GenerateVUISequenceParameters.9, .Lfunc_end20-GenerateVUISequenceParameters.9
	.cfi_endproc
                                        # -- End function
	.globl	GenerateSeq_parameter_set_rbsp.10 # -- Begin function GenerateSeq_parameter_set_rbsp.10
	.p2align	4, 0x90
	.type	GenerateSeq_parameter_set_rbsp.10,@function
GenerateSeq_parameter_set_rbsp.10:      # @GenerateSeq_parameter_set_rbsp.10
	.cfi_startproc
# %bb.0:                                # %entry
	pushq	%rbp
	.cfi_def_cfa_offset 16
	.cfi_offset %rbp, -16
	movq	%rsp, %rbp
	.cfi_def_cfa_register %rbp
	pushq	%rbx
	subq	$56, %rsp
	.cfi_offset %rbx, -24
	movl	$14383715, -44(%rbp)    # imm = 0xDB7A63
	movq	%rdi, -32(%rbp)
	movq	%rsi, -56(%rbp)
	movl	$0, -12(%rbp)
	movl	$1, %edi
	movl	$120, %esi
	callq	calloc
	movq	%rax, -24(%rbp)
	cmpq	$0, %rax
	jne	.LBB21_2
# %bb.1:                                # %if.then
	movabsq	$.L.str.4, %rdi
	callq	no_mem_exit
.LBB21_2:                               # %if.end
	movl	$1, %edi
	movl	$48, %esi
	callq	calloc
	movq	-24(%rbp), %rcx
	movq	%rax, (%rcx)
	cmpq	$0, %rax
	jne	.LBB21_4
# %bb.3:                                # %if.then3
	movabsq	$.L.str.5, %rdi
	callq	no_mem_exit
.LBB21_4:                               # %if.end4
	movq	-56(%rbp), %rax
	movq	-24(%rbp), %rcx
	movq	(%rcx), %rcx
	movq	%rax, 32(%rcx)
	movq	-24(%rbp), %rax
	movq	(%rax), %rax
	movl	$8, 4(%rax)
	movq	-32(%rbp), %rax
	movl	4(%rax), %edx
	movq	-24(%rbp), %rcx
	movl	$8, %edi
	movabsq	$.L.str.6, %rsi
	callq	u_v
	addl	-12(%rbp), %eax
	movl	%eax, -12(%rbp)
	movq	-32(%rbp), %rax
	movl	8(%rax), %esi
	movq	-24(%rbp), %rdx
	movabsq	$.L.str.7, %rdi
	callq	u_1
	addl	-12(%rbp), %eax
	movl	%eax, -12(%rbp)
	movq	-32(%rbp), %rax
	movl	12(%rax), %esi
	movq	-24(%rbp), %rdx
	movabsq	$.L.str.8, %rdi
	callq	u_1
	addl	-12(%rbp), %eax
	movl	%eax, -12(%rbp)
	movq	-32(%rbp), %rax
	movl	16(%rax), %esi
	movq	-24(%rbp), %rdx
	movabsq	$.L.str.9, %rdi
	callq	u_1
	addl	-12(%rbp), %eax
	movl	%eax, -12(%rbp)
	movq	-32(%rbp), %rax
	movl	20(%rax), %esi
	movq	-24(%rbp), %rdx
	movabsq	$.L.str.10, %rdi
	callq	u_1
	addl	-12(%rbp), %eax
	movl	%eax, -12(%rbp)
	movq	-24(%rbp), %rcx
	movl	$4, %edi
	movabsq	$.L.str.11, %rsi
	xorl	%edx, %edx
	callq	u_v
	addl	-12(%rbp), %eax
	movl	%eax, -12(%rbp)
	movq	-32(%rbp), %rax
	movl	24(%rax), %edx
	movq	-24(%rbp), %rcx
	movl	$8, %edi
	movabsq	$.L.str.12, %rsi
	callq	u_v
	addl	-12(%rbp), %eax
	movl	%eax, -12(%rbp)
	movq	-32(%rbp), %rax
	movl	28(%rax), %esi
	movq	-24(%rbp), %rdx
	movabsq	$.L.str.13, %rdi
	callq	ue_v
	addl	-12(%rbp), %eax
	movl	%eax, -12(%rbp)
	movq	-32(%rbp), %rax
	cmpl	$100, 4(%rax)
	je	.LBB21_8
# %bb.5:                                # %lor.lhs.false
	movq	-32(%rbp), %rax
	cmpl	$110, 4(%rax)
	je	.LBB21_8
# %bb.6:                                # %lor.lhs.false26
	movq	-32(%rbp), %rax
	cmpl	$122, 4(%rax)
	je	.LBB21_8
# %bb.7:                                # %lor.lhs.false29
	movq	-32(%rbp), %rax
	cmpl	$144, 4(%rax)
	jne	.LBB21_22
.LBB21_8:                               # %if.then32
	movq	-32(%rbp), %rax
	movl	32(%rax), %esi
	movq	-24(%rbp), %rdx
	movabsq	$.L.str.14, %rdi
	callq	ue_v
	addl	-12(%rbp), %eax
	movl	%eax, -12(%rbp)
	movq	img, %rax
	cmpl	$3, 72700(%rax)
	jne	.LBB21_10
# %bb.9:                                # %if.then36
	movq	img, %rax
	movl	72724(%rax), %esi
	movq	-24(%rbp), %rdx
	movabsq	$.L.str.15, %rdi
	callq	u_1
	addl	-12(%rbp), %eax
	movl	%eax, -12(%rbp)
.LBB21_10:                              # %if.end39
	movq	-32(%rbp), %rax
	movl	72(%rax), %esi
	movq	-24(%rbp), %rdx
	movabsq	$.L.str.16, %rdi
	callq	ue_v
	addl	-12(%rbp), %eax
	movl	%eax, -12(%rbp)
	movq	-32(%rbp), %rax
	movl	76(%rax), %esi
	movq	-24(%rbp), %rdx
	movabsq	$.L.str.17, %rdi
	callq	ue_v
	addl	-12(%rbp), %eax
	movl	%eax, -12(%rbp)
	movq	img, %rax
	movl	72704(%rax), %esi
	movq	-24(%rbp), %rdx
	movabsq	$.L.str.18, %rdi
	callq	u_1
	addl	-12(%rbp), %eax
	movl	%eax, -12(%rbp)
	movq	-32(%rbp), %rax
	movl	36(%rax), %esi
	movq	-24(%rbp), %rdx
	movabsq	$.L.str.19, %rdi
	callq	u_1
	addl	-12(%rbp), %eax
	movl	%eax, -12(%rbp)
	movq	-32(%rbp), %rax
	cmpl	$0, 36(%rax)
	je	.LBB21_21
# %bb.11:                               # %if.then49
	movl	$0, -36(%rbp)
.LBB21_12:                              # %for.cond
                                        # =>This Inner Loop Header: Depth=1
	cmpl	$8, -36(%rbp)
	jae	.LBB21_20
# %bb.13:                               # %for.body
                                        #   in Loop: Header=BB21_12 Depth=1
	movq	-32(%rbp), %rax
	movl	-36(%rbp), %ecx
	movl	40(%rax,%rcx,4), %esi
	movq	-24(%rbp), %rdx
	movabsq	$.L.str.20, %rdi
	callq	u_1
	addl	-12(%rbp), %eax
	movl	%eax, -12(%rbp)
	movq	-32(%rbp), %rax
	movl	-36(%rbp), %ecx
	cmpl	$0, 40(%rax,%rcx,4)
	je	.LBB21_18
# %bb.14:                               # %if.then57
                                        #   in Loop: Header=BB21_12 Depth=1
	cmpl	$6, -36(%rbp)
	jae	.LBB21_16
# %bb.15:                               # %if.then59
                                        #   in Loop: Header=BB21_12 Depth=1
	movl	-36(%rbp), %eax
	shlq	$5, %rax
	movabsq	$ScalingList4x4input, %rdi
	addq	%rax, %rdi
	movl	-36(%rbp), %eax
	shlq	$5, %rax
	movabsq	$ScalingList4x4, %rsi
	addq	%rax, %rsi
	movl	-36(%rbp), %eax
	shlq	$1, %rax
	movabsq	$UseDefaultScalingMatrix4x4Flag, %rcx
	addq	%rax, %rcx
	movq	-24(%rbp), %r8
	movl	$16, %edx
	callq	Scaling_List
	addl	-12(%rbp), %eax
	movl	%eax, -12(%rbp)
	jmp	.LBB21_17
.LBB21_16:                              # %if.else
                                        #   in Loop: Header=BB21_12 Depth=1
	movl	-36(%rbp), %eax
	subl	$6, %eax
	movl	%eax, %eax
	shlq	$7, %rax
	movabsq	$ScalingList8x8input, %rdi
	addq	%rax, %rdi
	movl	-36(%rbp), %eax
	subl	$6, %eax
	movl	%eax, %eax
	shlq	$7, %rax
	movabsq	$ScalingList8x8, %rsi
	addq	%rax, %rsi
	movl	-36(%rbp), %eax
	subl	$6, %eax
	movl	%eax, %eax
	shlq	$1, %rax
	movabsq	$UseDefaultScalingMatrix8x8Flag, %rcx
	addq	%rax, %rcx
	movq	-24(%rbp), %r8
	movl	$64, %edx
	callq	Scaling_List
	addl	-12(%rbp), %eax
	movl	%eax, -12(%rbp)
.LBB21_17:                              # %if.end81
                                        #   in Loop: Header=BB21_12 Depth=1
	jmp	.LBB21_18
.LBB21_18:                              # %if.end82
                                        #   in Loop: Header=BB21_12 Depth=1
	jmp	.LBB21_19
.LBB21_19:                              # %for.inc
                                        #   in Loop: Header=BB21_12 Depth=1
	movl	-36(%rbp), %eax
	addl	$1, %eax
	movl	%eax, -36(%rbp)
	jmp	.LBB21_12
.LBB21_20:                              # %for.end
	jmp	.LBB21_21
.LBB21_21:                              # %if.end83
	jmp	.LBB21_22
.LBB21_22:                              # %if.end84
	movq	-32(%rbp), %rax
	movl	80(%rax), %esi
	movq	-24(%rbp), %rdx
	movabsq	$.L.str.21, %rdi
	callq	ue_v
	addl	-12(%rbp), %eax
	movl	%eax, -12(%rbp)
	movq	-32(%rbp), %rax
	movl	84(%rax), %esi
	movq	-24(%rbp), %rdx
	movabsq	$.L.str.22, %rdi
	callq	ue_v
	addl	-12(%rbp), %eax
	movl	%eax, -12(%rbp)
	movq	-32(%rbp), %rax
	cmpl	$0, 84(%rax)
	jne	.LBB21_24
# %bb.23:                               # %if.then91
	movq	-32(%rbp), %rax
	movl	88(%rax), %esi
	movq	-24(%rbp), %rdx
	movabsq	$.L.str.23, %rdi
	callq	ue_v
	addl	-12(%rbp), %eax
	movl	%eax, -12(%rbp)
	jmp	.LBB21_31
.LBB21_24:                              # %if.else94
	movq	-32(%rbp), %rax
	cmpl	$1, 84(%rax)
	jne	.LBB21_30
# %bb.25:                               # %if.then97
	movq	-32(%rbp), %rax
	movl	92(%rax), %esi
	movq	-24(%rbp), %rdx
	movabsq	$.L.str.24, %rdi
	callq	u_1
	addl	-12(%rbp), %eax
	movl	%eax, -12(%rbp)
	movq	-32(%rbp), %rax
	movl	96(%rax), %esi
	movq	-24(%rbp), %rdx
	movabsq	$.L.str.25, %rdi
	callq	se_v
	addl	-12(%rbp), %eax
	movl	%eax, -12(%rbp)
	movq	-32(%rbp), %rax
	movl	100(%rax), %esi
	movq	-24(%rbp), %rdx
	movabsq	$.L.str.26, %rdi
	callq	se_v
	addl	-12(%rbp), %eax
	movl	%eax, -12(%rbp)
	movq	-32(%rbp), %rax
	movl	104(%rax), %esi
	movq	-24(%rbp), %rdx
	movabsq	$.L.str.27, %rdi
	callq	ue_v
	addl	-12(%rbp), %eax
	movl	%eax, -12(%rbp)
	movl	$0, -36(%rbp)
.LBB21_26:                              # %for.cond106
                                        # =>This Inner Loop Header: Depth=1
	movl	-36(%rbp), %eax
	movq	-32(%rbp), %rcx
	cmpl	104(%rcx), %eax
	jae	.LBB21_29
# %bb.27:                               # %for.body109
                                        #   in Loop: Header=BB21_26 Depth=1
	movq	-32(%rbp), %rax
	movl	-36(%rbp), %ecx
	movl	108(%rax,%rcx,4), %esi
	movq	-24(%rbp), %rdx
	movabsq	$.L.str.28, %rdi
	callq	se_v
	addl	-12(%rbp), %eax
	movl	%eax, -12(%rbp)
# %bb.28:                               # %for.inc114
                                        #   in Loop: Header=BB21_26 Depth=1
	movl	-36(%rbp), %eax
	addl	$1, %eax
	movl	%eax, -36(%rbp)
	jmp	.LBB21_26
.LBB21_29:                              # %for.end116
	jmp	.LBB21_30
.LBB21_30:                              # %if.end117
	jmp	.LBB21_31
.LBB21_31:                              # %if.end118
	movq	-32(%rbp), %rax
	movl	1132(%rax), %esi
	movq	-24(%rbp), %rdx
	movabsq	$.L.str.29, %rdi
	callq	ue_v
	addl	-12(%rbp), %eax
	movl	%eax, -12(%rbp)
	movq	-32(%rbp), %rax
	movl	1136(%rax), %esi
	movq	-24(%rbp), %rdx
	movabsq	$.L.str.30, %rdi
	callq	u_1
	addl	-12(%rbp), %eax
	movl	%eax, -12(%rbp)
	movq	-32(%rbp), %rax
	movl	1140(%rax), %esi
	movq	-24(%rbp), %rdx
	movabsq	$.L.str.31, %rdi
	callq	ue_v
	addl	-12(%rbp), %eax
	movl	%eax, -12(%rbp)
	movq	-32(%rbp), %rax
	movl	1144(%rax), %esi
	movq	-24(%rbp), %rdx
	movabsq	$.L.str.32, %rdi
	callq	ue_v
	addl	-12(%rbp), %eax
	movl	%eax, -12(%rbp)
	movq	-32(%rbp), %rax
	movl	1148(%rax), %esi
	movq	-24(%rbp), %rdx
	movabsq	$.L.str.33, %rdi
	callq	u_1
	addl	-12(%rbp), %eax
	movl	%eax, -12(%rbp)
	movq	-32(%rbp), %rax
	cmpl	$0, 1148(%rax)
	jne	.LBB21_33
# %bb.32:                               # %if.then131
	movq	-32(%rbp), %rax
	movl	1152(%rax), %esi
	movq	-24(%rbp), %rdx
	movabsq	$.L.str.34, %rdi
	callq	u_1
	addl	-12(%rbp), %eax
	movl	%eax, -12(%rbp)
.LBB21_33:                              # %if.end134
	movq	-32(%rbp), %rax
	movl	1156(%rax), %esi
	movq	-24(%rbp), %rdx
	movabsq	$.L.str.35, %rdi
	callq	u_1
	addl	-12(%rbp), %eax
	movl	%eax, -12(%rbp)
	movq	-32(%rbp), %rax
	movl	1160(%rax), %esi
	movq	-24(%rbp), %rdx
	movabsq	$.L.str.36, %rdi
	callq	u_1
	addl	-12(%rbp), %eax
	movl	%eax, -12(%rbp)
	movq	-32(%rbp), %rax
	cmpl	$0, 1160(%rax)
	je	.LBB21_35
# %bb.34:                               # %if.then141
	movq	-32(%rbp), %rax
	movl	1164(%rax), %esi
	movq	-24(%rbp), %rdx
	movabsq	$.L.str.37, %rdi
	callq	ue_v
	addl	-12(%rbp), %eax
	movl	%eax, -12(%rbp)
	movq	-32(%rbp), %rax
	movl	1168(%rax), %esi
	movq	-24(%rbp), %rdx
	movabsq	$.L.str.38, %rdi
	callq	ue_v
	addl	-12(%rbp), %eax
	movl	%eax, -12(%rbp)
	movq	-32(%rbp), %rax
	movl	1172(%rax), %esi
	movq	-24(%rbp), %rdx
	movabsq	$.L.str.39, %rdi
	callq	ue_v
	addl	-12(%rbp), %eax
	movl	%eax, -12(%rbp)
	movq	-32(%rbp), %rax
	movl	1176(%rax), %esi
	movq	-24(%rbp), %rdx
	movabsq	$.L.str.40, %rdi
	callq	ue_v
	addl	-12(%rbp), %eax
	movl	%eax, -12(%rbp)
.LBB21_35:                              # %if.end150
	movq	-32(%rbp), %rax
	movl	1180(%rax), %esi
	movq	-24(%rbp), %rdx
	movabsq	$.L.str.41, %rdi
	callq	u_1
	addl	-12(%rbp), %eax
	movl	%eax, -12(%rbp)
	movq	-32(%rbp), %rax
	cmpl	$0, 1180(%rax)
	je	.LBB21_37
# %bb.36:                               # %if.then155
	movq	-24(%rbp), %rdi
	callq	GenerateVUISequenceParameters
	addl	-12(%rbp), %eax
	movl	%eax, -12(%rbp)
.LBB21_37:                              # %if.end158
	movq	-24(%rbp), %rax
	movq	(%rax), %rdi
	callq	SODBtoRBSP
	movq	-24(%rbp), %rax
	movq	(%rax), %rax
	movl	(%rax), %eax
	movl	%eax, -40(%rbp)
	movq	-24(%rbp), %rax
	movq	(%rax), %rdi
	callq	free
	movq	-24(%rbp), %rdi
	callq	free
	movl	-40(%rbp), %ebx
	cmpl	$14383715, -44(%rbp)    # imm = 0xDB7A63
	jne	.LBB21_39
.LBB21_38:
	movl	%ebx, %eax
	addq	$56, %rsp
	popq	%rbx
	popq	%rbp
	.cfi_def_cfa %rsp, 8
	retq
.LBB21_39:                              # %func_exit
	.cfi_def_cfa %rbp, 16
	callq	detect_breach
	jmp	.LBB21_38
.Lfunc_end21:
	.size	GenerateSeq_parameter_set_rbsp.10, .Lfunc_end21-GenerateSeq_parameter_set_rbsp.10
	.cfi_endproc
                                        # -- End function
	.globl	Scaling_List.11         # -- Begin function Scaling_List.11
	.p2align	4, 0x90
	.type	Scaling_List.11,@function
Scaling_List.11:                        # @Scaling_List.11
	.cfi_startproc
# %bb.0:                                # %entry
	pushq	%rbp
	.cfi_def_cfa_offset 16
	.cfi_offset %rbp, -16
	movq	%rsp, %rbp
	.cfi_def_cfa_register %rbp
	pushq	%rbx
	subq	$72, %rsp
	.cfi_offset %rbx, -24
	movl	$1869835690, -40(%rbp)  # imm = 0x6F736DAA
	movq	%rdi, -56(%rbp)
	movq	%rsi, -48(%rbp)
	movl	%edx, -36(%rbp)
	movq	%rcx, -64(%rbp)
	movq	%r8, -72(%rbp)
	movl	$0, -32(%rbp)
	movl	$8, -28(%rbp)
	movl	$8, -24(%rbp)
	movl	$0, -20(%rbp)
.LBB22_1:                               # %for.cond
                                        # =>This Inner Loop Header: Depth=1
	movl	-20(%rbp), %eax
	cmpl	-36(%rbp), %eax
	jge	.LBB22_19
# %bb.2:                                # %for.body
                                        #   in Loop: Header=BB22_1 Depth=1
	cmpl	$16, -36(%rbp)
	jne	.LBB22_4
# %bb.3:                                # %cond.true
                                        #   in Loop: Header=BB22_1 Depth=1
	movslq	-20(%rbp), %rax
	movzbl	ZZ_SCAN(,%rax), %eax
	jmp	.LBB22_5
.LBB22_4:                               # %cond.false
                                        #   in Loop: Header=BB22_1 Depth=1
	movslq	-20(%rbp), %rax
	movzbl	ZZ_SCAN8(,%rax), %eax
.LBB22_5:                               # %cond.end
                                        #   in Loop: Header=BB22_1 Depth=1
	movl	%eax, -16(%rbp)
	cmpl	$0, -24(%rbp)
	je	.LBB22_14
# %bb.6:                                # %if.then
                                        #   in Loop: Header=BB22_1 Depth=1
	movq	-56(%rbp), %rax
	movslq	-16(%rbp), %rcx
	movswl	(%rax,%rcx,2), %eax
	subl	-28(%rbp), %eax
	movl	%eax, -12(%rbp)
	cmpl	$127, -12(%rbp)
	jle	.LBB22_8
# %bb.7:                                # %if.then12
                                        #   in Loop: Header=BB22_1 Depth=1
	movl	-12(%rbp), %eax
	subl	$256, %eax              # imm = 0x100
	movl	%eax, -12(%rbp)
	jmp	.LBB22_11
.LBB22_8:                               # %if.else
                                        #   in Loop: Header=BB22_1 Depth=1
	cmpl	$-128, -12(%rbp)
	jge	.LBB22_10
# %bb.9:                                # %if.then16
                                        #   in Loop: Header=BB22_1 Depth=1
	movl	-12(%rbp), %eax
	addl	$256, %eax              # imm = 0x100
	movl	%eax, -12(%rbp)
.LBB22_10:                              # %if.end
                                        #   in Loop: Header=BB22_1 Depth=1
	jmp	.LBB22_11
.LBB22_11:                              # %if.end17
                                        #   in Loop: Header=BB22_1 Depth=1
	movl	-12(%rbp), %esi
	movq	-72(%rbp), %rdx
	movabsq	$.L.str.3, %rdi
	callq	se_v
	xorl	%ecx, %ecx
	addl	-32(%rbp), %eax
	movl	%eax, -32(%rbp)
	movq	-56(%rbp), %rax
	movslq	-16(%rbp), %rdx
	movswl	(%rax,%rdx,2), %eax
	movl	%eax, -24(%rbp)
	cmpl	$0, -16(%rbp)
	jne	.LBB22_13
# %bb.12:                               # %land.rhs
                                        #   in Loop: Header=BB22_1 Depth=1
	cmpl	$0, -24(%rbp)
	sete	%cl
.LBB22_13:                              # %land.end
                                        #   in Loop: Header=BB22_1 Depth=1
	andb	$1, %cl
	movzbl	%cl, %eax
	movq	-64(%rbp), %rcx
	movswl	(%rcx), %edx
	orl	%eax, %edx
	movw	%dx, (%rcx)
.LBB22_14:                              # %if.end28
                                        #   in Loop: Header=BB22_1 Depth=1
	cmpl	$0, -24(%rbp)
	jne	.LBB22_16
# %bb.15:                               # %cond.true31
                                        #   in Loop: Header=BB22_1 Depth=1
	movl	-28(%rbp), %eax
	jmp	.LBB22_17
.LBB22_16:                              # %cond.false32
                                        #   in Loop: Header=BB22_1 Depth=1
	movl	-24(%rbp), %eax
.LBB22_17:                              # %cond.end33
                                        #   in Loop: Header=BB22_1 Depth=1
	movq	-48(%rbp), %rcx
	movslq	-16(%rbp), %rdx
	movw	%ax, (%rcx,%rdx,2)
	movq	-48(%rbp), %rax
	movslq	-16(%rbp), %rcx
	movswl	(%rax,%rcx,2), %eax
	movl	%eax, -28(%rbp)
# %bb.18:                               # %for.inc
                                        #   in Loop: Header=BB22_1 Depth=1
	movl	-20(%rbp), %eax
	addl	$1, %eax
	movl	%eax, -20(%rbp)
	jmp	.LBB22_1
.LBB22_19:                              # %for.end
	movl	-32(%rbp), %ebx
	cmpl	$1869835690, -40(%rbp)  # imm = 0x6F736DAA
	jne	.LBB22_21
.LBB22_20:
	movl	%ebx, %eax
	addq	$72, %rsp
	popq	%rbx
	popq	%rbp
	.cfi_def_cfa %rsp, 8
	retq
.LBB22_21:                              # %func_exit
	.cfi_def_cfa %rbp, 16
	callq	detect_breach
	jmp	.LBB22_20
.Lfunc_end22:
	.size	Scaling_List.11, .Lfunc_end22-Scaling_List.11
	.cfi_endproc
                                        # -- End function
	.globl	GenerateParameterSets.12 # -- Begin function GenerateParameterSets.12
	.p2align	4, 0x90
	.type	GenerateParameterSets.12,@function
GenerateParameterSets.12:               # @GenerateParameterSets.12
	.cfi_startproc
# %bb.0:                                # %entry
	pushq	%rbp
	.cfi_def_cfa_offset 16
	.cfi_offset %rbp, -16
	movq	%rsp, %rbp
	.cfi_def_cfa_register %rbp
	subq	$32, %rsp
	movl	$1958709781, -20(%rbp)  # imm = 0x74BF8A15
	movq	$0, -16(%rbp)
	movq	$0, -8(%rbp)
	movb	$0, %al
	callq	AllocSPS
	movq	%rax, -16(%rbp)
	movb	$0, %al
	callq	AllocPPS
	movq	%rax, -8(%rbp)
	movq	-16(%rbp), %rdi
	xorl	%esi, %esi
	callq	GenerateSequenceParameterSet
	movq	input, %rax
	cmpl	$0, 60(%rax)
	je	.LBB23_5
# %bb.1:                                # %if.then
	movq	-16(%rbp), %rax
	cmpl	$100, 4(%rax)
	jb	.LBB23_3
# %bb.2:                                # %if.then2
	movq	-8(%rbp), %rdi
	movq	-16(%rbp), %rsi
	movq	input, %rax
	movl	3316(%rax), %r9d
	movq	input, %rax
	movl	3320(%rax), %eax
	xorl	%edx, %edx
	xorl	%ecx, %ecx
	xorl	%r8d, %r8d
	movl	%eax, (%rsp)
	callq	GeneratePictureParameterSet
	movabsq	$PicParSet, %rdi
	movq	-8(%rbp), %rsi
	movl	$240, %edx
	callq	memcpy
	movq	-8(%rbp), %rdi
	movq	-16(%rbp), %rsi
	movq	input, %rax
	movl	3316(%rax), %r9d
	movq	input, %rax
	movl	3320(%rax), %eax
	movl	$1, %edx
	movl	$1, %ecx
	movl	$1, %r8d
	movl	%eax, (%rsp)
	callq	GeneratePictureParameterSet
	movabsq	$PicParSet, %rdi
	addq	$240, %rdi
	movq	-8(%rbp), %rsi
	movl	$240, %edx
	callq	memcpy
	movq	-8(%rbp), %rdi
	movq	-16(%rbp), %rsi
	movq	input, %rax
	movl	3316(%rax), %r9d
	movq	input, %rax
	movl	3320(%rax), %eax
	movl	$2, %edx
	movl	$1, %ecx
	movl	$2, %r8d
	movl	%eax, (%rsp)
	callq	GeneratePictureParameterSet
	movabsq	$PicParSet, %rdi
	addq	$480, %rdi              # imm = 0x1E0
	movq	-8(%rbp), %rsi
	movl	$240, %edx
	callq	memcpy
	jmp	.LBB23_4
.LBB23_3:                               # %if.else
	movq	-8(%rbp), %rdi
	movq	-16(%rbp), %rsi
	movq	input, %rax
	movl	2432(%rax), %r9d
	xorl	%edx, %edx
	xorl	%ecx, %ecx
	xorl	%r8d, %r8d
	movl	$0, (%rsp)
	callq	GeneratePictureParameterSet
	xorl	%eax, %eax
	movabsq	$PicParSet, %rdi
	movq	-8(%rbp), %rsi
	movl	$240, %edx
	callq	memcpy
	movq	-8(%rbp), %rdi
	movq	-16(%rbp), %rsi
	movq	input, %rax
	movl	2432(%rax), %r9d
	movl	$1, %edx
	movl	$1, %ecx
	movl	$1, %r8d
	movl	$0, (%rsp)
	callq	GeneratePictureParameterSet
	xorl	%eax, %eax
	movabsq	$PicParSet, %rdi
	addq	$240, %rdi
	movq	-8(%rbp), %rsi
	movl	$240, %edx
	callq	memcpy
	movq	-8(%rbp), %rdi
	movq	-16(%rbp), %rsi
	movq	input, %rax
	movl	2432(%rax), %r9d
	movl	$2, %edx
	movl	$1, %ecx
	movl	$2, %r8d
	movl	$0, (%rsp)
	callq	GeneratePictureParameterSet
	movabsq	$PicParSet, %rdi
	addq	$480, %rdi              # imm = 0x1E0
	movq	-8(%rbp), %rsi
	movl	$240, %edx
	callq	memcpy
.LBB23_4:                               # %if.end
	jmp	.LBB23_9
.LBB23_5:                               # %if.else9
	movq	-16(%rbp), %rax
	cmpl	$100, 4(%rax)
	jb	.LBB23_7
# %bb.6:                                # %if.then12
	movq	-8(%rbp), %rdi
	movq	-16(%rbp), %rsi
	movq	input, %rax
	movl	1284(%rax), %ecx
	movq	input, %rax
	movl	1288(%rax), %r8d
	movq	input, %rax
	movl	3316(%rax), %r9d
	movq	input, %rax
	movl	3320(%rax), %eax
	xorl	%edx, %edx
	movl	%eax, (%rsp)
	callq	GeneratePictureParameterSet
	jmp	.LBB23_8
.LBB23_7:                               # %if.else15
	movq	-8(%rbp), %rdi
	movq	-16(%rbp), %rsi
	movq	input, %rax
	movl	1284(%rax), %ecx
	movq	input, %rax
	movl	1288(%rax), %r8d
	movq	input, %rax
	movl	2432(%rax), %r9d
	xorl	%edx, %edx
	movl	$0, (%rsp)
	callq	GeneratePictureParameterSet
.LBB23_8:                               # %if.end19
	movabsq	$PicParSet, %rdi
	movq	-8(%rbp), %rsi
	movl	$240, %edx
	callq	memcpy
.LBB23_9:                               # %if.end20
	movq	-16(%rbp), %rax
	movq	%rax, active_sps
	movabsq	$PicParSet, %rax
	movq	%rax, active_pps
	cmpl	$1958709781, -20(%rbp)  # imm = 0x74BF8A15
	jne	.LBB23_11
.LBB23_10:
	addq	$32, %rsp
	popq	%rbp
	.cfi_def_cfa %rsp, 8
	retq
.LBB23_11:                              # %func_exit
	.cfi_def_cfa %rbp, 16
	callq	detect_breach
	jmp	.LBB23_10
.Lfunc_end23:
	.size	GenerateParameterSets.12, .Lfunc_end23-GenerateParameterSets.12
	.cfi_endproc
                                        # -- End function
	.globl	GeneratePictureParameterSet.13 # -- Begin function GeneratePictureParameterSet.13
	.p2align	4, 0x90
	.type	GeneratePictureParameterSet.13,@function
GeneratePictureParameterSet.13:         # @GeneratePictureParameterSet.13
	.cfi_startproc
# %bb.0:                                # %entry
	pushq	%rbp
	.cfi_def_cfa_offset 16
	.cfi_offset %rbp, -16
	movq	%rsp, %rbp
	.cfi_def_cfa_register %rbp
	subq	$48, %rsp
	movl	16(%rbp), %eax
	movl	$1116523878, -40(%rbp)  # imm = 0x428CCD66
	movq	%rdi, -16(%rbp)
	movq	%rsi, -24(%rbp)
	movl	%edx, -36(%rbp)
	movl	%ecx, -48(%rbp)
	movl	%r8d, -44(%rbp)
	movl	%r9d, -32(%rbp)
	callq	IdentifyProfile
	cmpl	$100, %eax
	movb	$1, %al
	je	.LBB24_4
# %bb.1:                                # %lor.lhs.false
	callq	IdentifyProfile
	cmpl	$110, %eax
	movb	$1, %al
	je	.LBB24_4
# %bb.2:                                # %lor.lhs.false3
	callq	IdentifyProfile
	cmpl	$122, %eax
	movb	$1, %al
	je	.LBB24_4
# %bb.3:                                # %lor.rhs
	callq	IdentifyProfile
	cmpl	$144, %eax
	sete	%al
.LBB24_4:                               # %lor.end
	xorl	%ecx, %ecx
	andb	$1, %al
	movzbl	%al, %eax
	movl	%eax, -28(%rbp)
	movq	-24(%rbp), %rax
	movl	28(%rax), %eax
	movq	-16(%rbp), %rdx
	movl	%eax, 8(%rdx)
	movl	-36(%rbp), %eax
	movq	-16(%rbp), %rdx
	movl	%eax, 4(%rdx)
	movq	input, %rax
	movl	2356(%rax), %eax
	cmpl	$0, %eax
	movl	$1, %eax
	cmovel	%ecx, %eax
	movq	-16(%rbp), %rcx
	movl	%eax, 12(%rcx)
	cmpl	$0, -28(%rbp)
	je	.LBB24_16
# %bb.5:                                # %if.then
	xorl	%eax, %eax
	movq	input, %rcx
	movl	3220(%rcx), %ecx
	cmpl	$0, %ecx
	movl	$1, %ecx
	cmovnel	%ecx, %eax
	movq	-16(%rbp), %rcx
	movl	%eax, 16(%rcx)
	movq	input, %rax
	movl	3256(%rax), %eax
	andl	$2, %eax
	sarl	$1, %eax
	movq	-16(%rbp), %rcx
	movl	%eax, 20(%rcx)
	movl	$0, -4(%rbp)
.LBB24_6:                               # %for.cond
                                        # =>This Inner Loop Header: Depth=1
	cmpl	$8, -4(%rbp)
	jae	.LBB24_15
# %bb.7:                                # %for.body
                                        #   in Loop: Header=BB24_6 Depth=1
	cmpl	$6, -4(%rbp)
	jae	.LBB24_9
# %bb.8:                                # %if.then14
                                        #   in Loop: Header=BB24_6 Depth=1
	movq	input, %rax
	movl	-4(%rbp), %ecx
	movl	3260(%rax,%rcx,4), %eax
	andl	$2, %eax
	sarl	$1, %eax
	movq	-16(%rbp), %rcx
	movl	-4(%rbp), %edx
	movl	%eax, 24(%rcx,%rdx,4)
	jmp	.LBB24_13
.LBB24_9:                               # %if.else
                                        #   in Loop: Header=BB24_6 Depth=1
	movq	-16(%rbp), %rax
	cmpl	$0, 16(%rax)
	je	.LBB24_11
# %bb.10:                               # %if.then21
                                        #   in Loop: Header=BB24_6 Depth=1
	movq	input, %rax
	movl	-4(%rbp), %ecx
	movl	3260(%rax,%rcx,4), %eax
	andl	$2, %eax
	sarl	$1, %eax
	movq	-16(%rbp), %rcx
	movl	-4(%rbp), %edx
	movl	%eax, 24(%rcx,%rdx,4)
	jmp	.LBB24_12
.LBB24_11:                              # %if.else30
                                        #   in Loop: Header=BB24_6 Depth=1
	movq	-16(%rbp), %rax
	movl	-4(%rbp), %ecx
	movl	$0, 24(%rax,%rcx,4)
.LBB24_12:                              # %if.end
                                        #   in Loop: Header=BB24_6 Depth=1
	jmp	.LBB24_13
.LBB24_13:                              # %if.end34
                                        #   in Loop: Header=BB24_6 Depth=1
	jmp	.LBB24_14
.LBB24_14:                              # %for.inc
                                        #   in Loop: Header=BB24_6 Depth=1
	movl	-4(%rbp), %eax
	addl	$1, %eax
	movl	%eax, -4(%rbp)
	jmp	.LBB24_6
.LBB24_15:                              # %for.end
	jmp	.LBB24_21
.LBB24_16:                              # %if.else35
	movq	-16(%rbp), %rax
	movl	$0, 20(%rax)
	movl	$0, -4(%rbp)
.LBB24_17:                              # %for.cond37
                                        # =>This Inner Loop Header: Depth=1
	cmpl	$8, -4(%rbp)
	jae	.LBB24_20
# %bb.18:                               # %for.body39
                                        #   in Loop: Header=BB24_17 Depth=1
	movq	-16(%rbp), %rax
	movl	-4(%rbp), %ecx
	movl	$0, 24(%rax,%rcx,4)
# %bb.19:                               # %for.inc43
                                        #   in Loop: Header=BB24_17 Depth=1
	movl	-4(%rbp), %eax
	addl	$1, %eax
	movl	%eax, -4(%rbp)
	jmp	.LBB24_17
.LBB24_20:                              # %for.end45
	movq	input, %rax
	movl	$0, 3220(%rax)
	movq	-16(%rbp), %rax
	movl	$0, 16(%rax)
.LBB24_21:                              # %if.end48
	movq	img, %rax
	movl	72492(%rax), %eax
	movq	-16(%rbp), %rcx
	movl	%eax, 56(%rcx)
	movq	input, %rax
	movl	3152(%rax), %eax
	movq	-16(%rbp), %rcx
	movl	%eax, 60(%rcx)
	movq	-16(%rbp), %rax
	cmpl	$0, 60(%rax)
	jbe	.LBB24_43
# %bb.22:                               # %if.then53
	movq	input(%rip), %rax
	movl	3156(%rax), %eax
	movq	%rax, %rcx
	subq	$6, %rcx
	ja	.LBB24_41
# %bb.23:                               # %if.then53
	movq	.LJTI24_0(,%rax,8), %rax
	jmpq	*%rax
.LBB24_24:                              # %sw.bb
	movq	-16(%rbp), %rax
	movl	$0, 64(%rax)
	movl	$0, -4(%rbp)
.LBB24_25:                              # %for.cond55
                                        # =>This Inner Loop Header: Depth=1
	movl	-4(%rbp), %eax
	movq	-16(%rbp), %rcx
	cmpl	60(%rcx), %eax
	ja	.LBB24_28
# %bb.26:                               # %for.body58
                                        #   in Loop: Header=BB24_25 Depth=1
	movq	input, %rax
	movq	3184(%rax), %rax
	movl	-4(%rbp), %ecx
	movl	(%rax,%rcx,4), %eax
	movq	-16(%rbp), %rcx
	movl	-4(%rbp), %edx
	movl	%eax, 68(%rcx,%rdx,4)
# %bb.27:                               # %for.inc64
                                        #   in Loop: Header=BB24_25 Depth=1
	movl	-4(%rbp), %eax
	addl	$1, %eax
	movl	%eax, -4(%rbp)
	jmp	.LBB24_25
.LBB24_28:                              # %for.end66
	jmp	.LBB24_42
.LBB24_29:                              # %sw.bb67
	movq	-16(%rbp), %rax
	movl	$1, 64(%rax)
	jmp	.LBB24_42
.LBB24_30:                              # %sw.bb69
	movq	-16(%rbp), %rax
	movl	$2, 64(%rax)
	movl	$0, -4(%rbp)
.LBB24_31:                              # %for.cond71
                                        # =>This Inner Loop Header: Depth=1
	movl	-4(%rbp), %eax
	movq	-16(%rbp), %rcx
	cmpl	60(%rcx), %eax
	jae	.LBB24_34
# %bb.32:                               # %for.body74
                                        #   in Loop: Header=BB24_31 Depth=1
	movq	input, %rax
	movq	3160(%rax), %rax
	movl	-4(%rbp), %ecx
	movl	(%rax,%rcx,4), %eax
	movq	-16(%rbp), %rcx
	movl	-4(%rbp), %edx
	movl	%eax, 100(%rcx,%rdx,4)
	movq	input, %rax
	movq	3168(%rax), %rax
	movl	-4(%rbp), %ecx
	movl	(%rax,%rcx,4), %eax
	movq	-16(%rbp), %rcx
	movl	-4(%rbp), %edx
	movl	%eax, 132(%rcx,%rdx,4)
# %bb.33:                               # %for.inc85
                                        #   in Loop: Header=BB24_31 Depth=1
	movl	-4(%rbp), %eax
	addl	$1, %eax
	movl	%eax, -4(%rbp)
	jmp	.LBB24_31
.LBB24_34:                              # %for.end87
	jmp	.LBB24_42
.LBB24_35:                              # %sw.bb88
	movq	input, %rax
	movl	3156(%rax), %eax
	movq	-16(%rbp), %rcx
	movl	%eax, 64(%rcx)
	movq	input, %rax
	movl	3192(%rax), %eax
	movq	-16(%rbp), %rcx
	movl	%eax, 164(%rcx)
	movq	input, %rax
	movl	3196(%rax), %eax
	movq	-16(%rbp), %rcx
	movl	%eax, 168(%rcx)
	jmp	.LBB24_42
.LBB24_36:                              # %sw.bb93
	movq	-16(%rbp), %rax
	movl	$6, 64(%rax)
	movq	input, %rax
	movl	68(%rax), %eax
	movq	img, %rcx
	addl	72732(%rcx), %eax
	cltd
	movl	$16, %esi
	idivl	%esi
	movq	-24(%rbp), %rcx
	movl	$2, %edi
	subl	1148(%rcx), %edi
	xorl	%edx, %edx
	divl	%edi
	movl	%eax, %ecx
	movq	input, %rax
	movl	64(%rax), %eax
	movq	img, %rdx
	addl	72728(%rdx), %eax
	cltd
	idivl	%esi
	imull	%eax, %ecx
	subl	$1, %ecx
	movq	-16(%rbp), %rax
	movl	%ecx, 172(%rax)
	movl	$0, -4(%rbp)
.LBB24_37:                              # %for.cond99
                                        # =>This Inner Loop Header: Depth=1
	movl	-4(%rbp), %eax
	movq	-16(%rbp), %rcx
	cmpl	172(%rcx), %eax
	ja	.LBB24_40
# %bb.38:                               # %for.body102
                                        #   in Loop: Header=BB24_37 Depth=1
	movq	input, %rax
	movq	3176(%rax), %rax
	movl	-4(%rbp), %ecx
	movb	(%rax,%rcx), %al
	movq	-16(%rbp), %rcx
	movq	176(%rcx), %rcx
	movl	-4(%rbp), %edx
	movb	%al, (%rcx,%rdx)
# %bb.39:                               # %for.inc108
                                        #   in Loop: Header=BB24_37 Depth=1
	movl	-4(%rbp), %eax
	addl	$1, %eax
	movl	%eax, -4(%rbp)
	jmp	.LBB24_37
.LBB24_40:                              # %for.end110
	jmp	.LBB24_42
.LBB24_41:                              # %sw.default
	movabsq	$.L.str.2, %rdi
	movb	$0, %al
	callq	printf
.LBB24_42:                              # %sw.epilog
	jmp	.LBB24_43
.LBB24_43:                              # %if.end112
	movq	-24(%rbp), %rax
	cmpl	$0, 1148(%rax)
	je	.LBB24_45
# %bb.44:                               # %cond.true
	movq	-24(%rbp), %rax
	movl	1132(%rax), %eax
	subl	$1, %eax
	jmp	.LBB24_46
.LBB24_45:                              # %cond.false
	movq	-24(%rbp), %rax
	movl	1132(%rax), %eax
	shll	$1, %eax
	subl	$1, %eax
.LBB24_46:                              # %cond.end
	movq	-16(%rbp), %rcx
	movl	%eax, 184(%rcx)
	movq	-24(%rbp), %rax
	cmpl	$0, 1148(%rax)
	je	.LBB24_48
# %bb.47:                               # %cond.true122
	movq	-24(%rbp), %rax
	movl	1132(%rax), %eax
	subl	$1, %eax
	jmp	.LBB24_49
.LBB24_48:                              # %cond.false125
	movq	-24(%rbp), %rax
	movl	1132(%rax), %eax
	shll	$1, %eax
	subl	$1, %eax
.LBB24_49:                              # %cond.end129
	movq	-16(%rbp), %rcx
	movl	%eax, 188(%rcx)
	movl	-48(%rbp), %eax
	movq	-16(%rbp), %rcx
	movl	%eax, 192(%rcx)
	movl	-44(%rbp), %eax
	movq	-16(%rbp), %rcx
	movl	%eax, 196(%rcx)
	movq	-16(%rbp), %rax
	movl	$0, 200(%rax)
	movq	-16(%rbp), %rax
	movl	$0, 204(%rax)
	movl	-32(%rbp), %eax
	movq	-16(%rbp), %rcx
	movl	%eax, 208(%rcx)
	cmpl	$0, -28(%rbp)
	je	.LBB24_51
# %bb.50:                               # %if.then132
	movl	-32(%rbp), %eax
	movq	-16(%rbp), %rcx
	movl	%eax, 212(%rcx)
	movl	16(%rbp), %eax
	movq	-16(%rbp), %rcx
	movl	%eax, 216(%rcx)
	jmp	.LBB24_52
.LBB24_51:                              # %if.else135
	movq	-16(%rbp), %rax
	movl	208(%rax), %eax
	movq	-16(%rbp), %rcx
	movl	%eax, 216(%rcx)
	movq	-16(%rbp), %rcx
	movl	%eax, 212(%rcx)
.LBB24_52:                              # %if.end139
	movq	input, %rax
	movl	2924(%rax), %eax
	movq	-16(%rbp), %rcx
	movl	%eax, 220(%rcx)
	movq	input, %rax
	movl	216(%rax), %eax
	movq	-16(%rbp), %rcx
	movl	%eax, 224(%rcx)
	movq	-16(%rbp), %rax
	movl	$0, 228(%rax)
	cmpl	$1116523878, -40(%rbp)  # imm = 0x428CCD66
	jne	.LBB24_54
.LBB24_53:
	addq	$48, %rsp
	popq	%rbp
	.cfi_def_cfa %rsp, 8
	retq
.LBB24_54:                              # %func_exit
	.cfi_def_cfa %rbp, 16
	callq	detect_breach
	jmp	.LBB24_53
.Lfunc_end24:
	.size	GeneratePictureParameterSet.13, .Lfunc_end24-GeneratePictureParameterSet.13
	.cfi_endproc
	.section	.rodata,"a",@progbits
	.p2align	3
.LJTI24_0:
	.quad	.LBB24_24
	.quad	.LBB24_29
	.quad	.LBB24_30
	.quad	.LBB24_35
	.quad	.LBB24_35
	.quad	.LBB24_35
	.quad	.LBB24_36
                                        # -- End function
	.text
	.globl	GenerateSequenceParameterSet.14 # -- Begin function GenerateSequenceParameterSet.14
	.p2align	4, 0x90
	.type	GenerateSequenceParameterSet.14,@function
GenerateSequenceParameterSet.14:        # @GenerateSequenceParameterSet.14
	.cfi_startproc
# %bb.0:                                # %entry
	pushq	%rbp
	.cfi_def_cfa_offset 16
	.cfi_offset %rbp, -16
	movq	%rsp, %rbp
	.cfi_def_cfa_register %rbp
	subq	$96, %rsp
	movl	$1114183080, -36(%rbp)  # imm = 0x426915A8
	movq	%rdi, -8(%rbp)
	movl	%esi, -84(%rbp)
	movq	.L__const.GenerateSequenceParameterSet.SubWidthC, %rax
	movq	%rax, -80(%rbp)
	movq	.L__const.GenerateSequenceParameterSet.SubWidthC+8, %rax
	movq	%rax, -72(%rbp)
	movq	.L__const.GenerateSequenceParameterSet.SubHeightC, %rax
	movq	%rax, -64(%rbp)
	movq	.L__const.GenerateSequenceParameterSet.SubHeightC+8, %rax
	movq	%rax, -56(%rbp)
	callq	IdentifyProfile
	cmpl	$100, %eax
	movb	$1, %al
	je	.LBB25_4
# %bb.1:                                # %lor.lhs.false
	callq	IdentifyProfile
	cmpl	$110, %eax
	movb	$1, %al
	je	.LBB25_4
# %bb.2:                                # %lor.lhs.false3
	callq	IdentifyProfile
	cmpl	$122, %eax
	movb	$1, %al
	je	.LBB25_4
# %bb.3:                                # %lor.rhs
	callq	IdentifyProfile
	cmpl	$144, %eax
	sete	%al
.LBB25_4:                               # %lor.end
	andb	$1, %al
	movzbl	%al, %eax
	movl	%eax, -24(%rbp)
	callq	IdentifyProfile
	movq	-8(%rbp), %rcx
	movl	%eax, 4(%rcx)
	callq	IdentifyLevel
	movq	-8(%rbp), %rcx
	movl	%eax, 24(%rcx)
	movq	-8(%rbp), %rax
	movl	$0, 8(%rax)
	movq	-8(%rbp), %rax
	movl	$0, 12(%rax)
	movq	-8(%rbp), %rax
	movl	$0, 16(%rax)
	movq	-8(%rbp), %rax
	movl	$0, 20(%rax)
	movq	-8(%rbp), %rax
	movl	$0, 28(%rax)
	movq	input, %rax
	movl	3296(%rax), %eax
	subl	$8, %eax
	movq	-8(%rbp), %rcx
	movl	%eax, 72(%rcx)
	movq	input, %rax
	movl	3300(%rax), %eax
	subl	$8, %eax
	movq	-8(%rbp), %rcx
	movl	%eax, 76(%rcx)
	movq	input, %rax
	movl	3324(%rax), %eax
	movq	-8(%rbp), %rcx
	cmpl	$144, 4(%rcx)
	sete	%cl
	andb	$1, %cl
	movzbl	%cl, %ecx
	andl	%ecx, %eax
	movq	img, %rcx
	movl	%eax, 72704(%rcx)
	movq	input, %rax
	movl	3328(%rax), %eax
	movq	img, %rcx
	movl	%eax, 72724(%rcx)
	movl	log2_max_frame_num_minus4, %eax
	movq	-8(%rbp), %rcx
	movl	%eax, 80(%rcx)
	movl	log2_max_pic_order_cnt_lsb_minus4, %eax
	movq	-8(%rbp), %rcx
	movl	%eax, 88(%rcx)
	movq	input, %rax
	movl	3208(%rax), %eax
	movq	-8(%rbp), %rcx
	movl	%eax, 84(%rcx)
	movq	img, %rax
	movl	72420(%rax), %eax
	movq	-8(%rbp), %rcx
	movl	%eax, 104(%rcx)
	movq	img, %rax
	movl	72408(%rax), %eax
	movq	-8(%rbp), %rcx
	movl	%eax, 92(%rcx)
	movq	img, %rax
	movl	72412(%rax), %eax
	movq	-8(%rbp), %rcx
	movl	%eax, 96(%rcx)
	movq	img, %rax
	movl	72416(%rax), %eax
	movq	-8(%rbp), %rcx
	movl	%eax, 100(%rcx)
	movl	$0, -12(%rbp)
.LBB25_5:                               # %for.cond
                                        # =>This Inner Loop Header: Depth=1
	movl	-12(%rbp), %eax
	movq	img, %rcx
	cmpl	72420(%rcx), %eax
	jae	.LBB25_8
# %bb.6:                                # %for.body
                                        #   in Loop: Header=BB25_5 Depth=1
	movq	img, %rax
	movl	-12(%rbp), %ecx
	movl	72424(%rax,%rcx,4), %eax
	movq	-8(%rbp), %rcx
	movl	-12(%rbp), %edx
	movl	%eax, 108(%rcx,%rdx,4)
# %bb.7:                                # %for.inc
                                        #   in Loop: Header=BB25_5 Depth=1
	movl	-12(%rbp), %eax
	addl	$1, %eax
	movl	%eax, -12(%rbp)
	jmp	.LBB25_5
.LBB25_8:                               # %for.end
	movq	input, %rax
	movl	36(%rax), %eax
	movq	-8(%rbp), %rcx
	movl	%eax, 1132(%rcx)
	movq	-8(%rbp), %rax
	movl	$0, 1136(%rax)
	movq	input, %rax
	cmpl	$0, 2880(%rax)
	movb	$1, %al
	jne	.LBB25_10
# %bb.9:                                # %lor.rhs26
	movq	input, %rax
	cmpl	$0, 2884(%rax)
	setne	%al
.LBB25_10:                              # %lor.end28
	xorl	%ecx, %ecx
	xorl	%esi, %esi
	xorb	$-1, %al
	andb	$1, %al
	movzbl	%al, %eax
	movq	-8(%rbp), %rdx
	movl	%eax, 1148(%rdx)
	movq	input, %rax
	movl	64(%rax), %eax
	movq	img, %rdx
	addl	72728(%rdx), %eax
	cltd
	movl	$16, %edi
	idivl	%edi
	subl	$1, %eax
	movq	-8(%rbp), %rdx
	movl	%eax, 1140(%rdx)
	movq	input, %rax
	movl	68(%rax), %eax
	movq	img, %rdx
	addl	72732(%rdx), %eax
	cltd
	idivl	%edi
	movq	-8(%rbp), %rdx
	movl	$2, %edi
	subl	1148(%rdx), %edi
	xorl	%edx, %edx
	divl	%edi
	subl	$1, %eax
	movq	-8(%rbp), %rdx
	movl	%eax, 1144(%rdx)
	movq	input, %rax
	cmpl	2884(%rax), %esi
	setne	%al
	andb	$1, %al
	movzbl	%al, %eax
	movq	-8(%rbp), %rdx
	movl	%eax, 1152(%rdx)
	movq	input, %rax
	movl	1252(%rax), %eax
	movq	-8(%rbp), %rdx
	movl	%eax, 1156(%rdx)
	movq	input, %rax
	cmpl	$0, 3312(%rax)
	je	.LBB25_12
# %bb.11:                               # %land.rhs
	movq	input, %rax
	cmpl	$3, 72(%rax)
	sete	%cl
.LBB25_12:                              # %land.end
	andb	$1, %cl
	movzbl	%cl, %eax
	movq	-8(%rbp), %rcx
	movl	%eax, 1180(%rcx)
	movq	input, %rax
	movl	72(%rax), %eax
	movq	-8(%rbp), %rcx
	movl	%eax, 32(%rcx)
	movq	-8(%rbp), %rax
	movl	1140(%rax), %eax
	addl	$1, %eax
	movl	%eax, -28(%rbp)
	movq	-8(%rbp), %rax
	movl	1144(%rax), %eax
	addl	$1, %eax
	movl	%eax, -32(%rbp)
	movq	-8(%rbp), %rax
	movl	$2, %ecx
	subl	1148(%rax), %ecx
	imull	-32(%rbp), %ecx
	movl	%ecx, -16(%rbp)
	movl	-28(%rbp), %eax
	shll	$4, %eax
	movl	%eax, -40(%rbp)
	movl	-16(%rbp), %eax
	shll	$4, %eax
	movl	%eax, -20(%rbp)
	movl	-40(%rbp), %edi
	movl	-20(%rbp), %esi
	movq	-8(%rbp), %rax
	movl	1152(%rax), %edx
	callq	alloc_colocated
	movq	%rax, Co_located
	cmpl	$0, -24(%rbp)
	je	.LBB25_24
# %bb.13:                               # %if.then
	movq	input, %rax
	movl	3256(%rax), %eax
	andl	$1, %eax
	movq	-8(%rbp), %rcx
	movl	%eax, 36(%rcx)
	movl	$0, -12(%rbp)
.LBB25_14:                              # %for.cond56
                                        # =>This Inner Loop Header: Depth=1
	cmpl	$8, -12(%rbp)
	jae	.LBB25_23
# %bb.15:                               # %for.body59
                                        #   in Loop: Header=BB25_14 Depth=1
	cmpl	$6, -12(%rbp)
	jae	.LBB25_17
# %bb.16:                               # %if.then62
                                        #   in Loop: Header=BB25_14 Depth=1
	movq	input, %rax
	movl	-12(%rbp), %ecx
	movl	3260(%rax,%rcx,4), %eax
	andl	$1, %eax
	movq	-8(%rbp), %rcx
	movl	-12(%rbp), %edx
	movl	%eax, 40(%rcx,%rdx,4)
	jmp	.LBB25_21
.LBB25_17:                              # %if.else
                                        #   in Loop: Header=BB25_14 Depth=1
	movq	input, %rax
	cmpl	$0, 3220(%rax)
	je	.LBB25_19
# %bb.18:                               # %if.then69
                                        #   in Loop: Header=BB25_14 Depth=1
	movq	input, %rax
	movl	-12(%rbp), %ecx
	movl	3260(%rax,%rcx,4), %eax
	andl	$1, %eax
	movq	-8(%rbp), %rcx
	movl	-12(%rbp), %edx
	movl	%eax, 40(%rcx,%rdx,4)
	jmp	.LBB25_20
.LBB25_19:                              # %if.else77
                                        #   in Loop: Header=BB25_14 Depth=1
	movq	-8(%rbp), %rax
	movl	-12(%rbp), %ecx
	movl	$0, 40(%rax,%rcx,4)
.LBB25_20:                              # %if.end
                                        #   in Loop: Header=BB25_14 Depth=1
	jmp	.LBB25_21
.LBB25_21:                              # %if.end81
                                        #   in Loop: Header=BB25_14 Depth=1
	jmp	.LBB25_22
.LBB25_22:                              # %for.inc82
                                        #   in Loop: Header=BB25_14 Depth=1
	movl	-12(%rbp), %eax
	addl	$1, %eax
	movl	%eax, -12(%rbp)
	jmp	.LBB25_14
.LBB25_23:                              # %for.end84
	jmp	.LBB25_29
.LBB25_24:                              # %if.else85
	movq	-8(%rbp), %rax
	movl	$0, 36(%rax)
	movl	$0, -12(%rbp)
.LBB25_25:                              # %for.cond87
                                        # =>This Inner Loop Header: Depth=1
	cmpl	$8, -12(%rbp)
	jae	.LBB25_28
# %bb.26:                               # %for.body90
                                        #   in Loop: Header=BB25_25 Depth=1
	movq	-8(%rbp), %rax
	movl	-12(%rbp), %ecx
	movl	$0, 40(%rax,%rcx,4)
# %bb.27:                               # %for.inc94
                                        #   in Loop: Header=BB25_25 Depth=1
	movl	-12(%rbp), %eax
	addl	$1, %eax
	movl	%eax, -12(%rbp)
	jmp	.LBB25_25
.LBB25_28:                              # %for.end96
	jmp	.LBB25_29
.LBB25_29:                              # %if.end97
	movq	img, %rax
	cmpl	$0, 72728(%rax)
	jne	.LBB25_31
# %bb.30:                               # %lor.lhs.false100
	movq	img, %rax
	cmpl	$0, 72732(%rax)
	je	.LBB25_36
.LBB25_31:                              # %if.then103
	movq	-8(%rbp), %rax
	movl	$1, 1160(%rax)
	movq	-8(%rbp), %rax
	movl	$0, 1164(%rax)
	movq	-8(%rbp), %rax
	movl	$0, 1172(%rax)
	movq	img, %rax
	movl	72728(%rax), %eax
	movq	-8(%rbp), %rcx
	movl	32(%rcx), %ecx
	cltd
	idivl	-80(%rbp,%rcx,4)
	movq	-8(%rbp), %rcx
	movl	%eax, 1168(%rcx)
	movq	img, %rax
	movl	72732(%rax), %eax
	movq	-8(%rbp), %rcx
	movl	32(%rcx), %ecx
	movl	-64(%rbp,%rcx,4), %ecx
	movq	-8(%rbp), %rdx
	movl	$2, %esi
	subl	1148(%rdx), %esi
	imull	%esi, %ecx
	xorl	%edx, %edx
	divl	%ecx
	movq	-8(%rbp), %rcx
	movl	%eax, 1176(%rcx)
	movq	img, %rax
	movl	72728(%rax), %eax
	movq	-8(%rbp), %rcx
	movl	32(%rcx), %ecx
	cltd
	idivl	-80(%rbp,%rcx,4)
	cmpl	$0, %edx
	je	.LBB25_33
# %bb.32:                               # %if.then122
	movabsq	$.L.str, %rdi
	movl	$500, %esi              # imm = 0x1F4
	callq	error
.LBB25_33:                              # %if.end123
	movq	img, %rax
	movl	72732(%rax), %eax
	movq	-8(%rbp), %rcx
	movl	32(%rcx), %ecx
	movl	-64(%rbp,%rcx,4), %ecx
	movq	-8(%rbp), %rdx
	movl	$2, %esi
	subl	1148(%rdx), %esi
	imull	%esi, %ecx
	xorl	%edx, %edx
	divl	%ecx
	cmpl	$0, %edx
	je	.LBB25_35
# %bb.34:                               # %if.then133
	movabsq	$.L.str.1, %rdi
	movl	$500, %esi              # imm = 0x1F4
	callq	error
.LBB25_35:                              # %if.end134
	jmp	.LBB25_37
.LBB25_36:                              # %if.else135
	movq	-8(%rbp), %rax
	movl	$0, 1160(%rax)
.LBB25_37:                              # %if.end137
	cmpl	$1114183080, -36(%rbp)  # imm = 0x426915A8
	jne	.LBB25_39
.LBB25_38:
	addq	$96, %rsp
	popq	%rbp
	.cfi_def_cfa %rsp, 8
	retq
.LBB25_39:                              # %func_exit
	.cfi_def_cfa %rbp, 16
	callq	detect_breach
	jmp	.LBB25_38
.Lfunc_end25:
	.size	GenerateSequenceParameterSet.14, .Lfunc_end25-GenerateSequenceParameterSet.14
	.cfi_endproc
                                        # -- End function
	.globl	GeneratePic_parameter_set_rbsp.15 # -- Begin function GeneratePic_parameter_set_rbsp.15
	.p2align	4, 0x90
	.type	GeneratePic_parameter_set_rbsp.15,@function
GeneratePic_parameter_set_rbsp.15:      # @GeneratePic_parameter_set_rbsp.15
	.cfi_startproc
# %bb.0:                                # %entry
	pushq	%rbp
	.cfi_def_cfa_offset 16
	.cfi_offset %rbp, -16
	movq	%rsp, %rbp
	.cfi_def_cfa_register %rbp
	pushq	%rbx
	subq	$56, %rsp
	.cfi_offset %rbx, -24
	movl	$1983509126, -48(%rbp)  # imm = 0x7639F286
	movq	%rdi, -24(%rbp)
	movq	%rsi, -56(%rbp)
	movl	$0, -12(%rbp)
	movl	$1, %edi
	movl	$120, %esi
	callq	calloc
	movq	%rax, -32(%rbp)
	cmpq	$0, %rax
	jne	.LBB26_2
# %bb.1:                                # %if.then
	movabsq	$.L.str.42, %rdi
	callq	no_mem_exit
.LBB26_2:                               # %if.end
	movl	$1, %edi
	movl	$48, %esi
	callq	calloc
	movq	-32(%rbp), %rcx
	movq	%rax, (%rcx)
	cmpq	$0, %rax
	jne	.LBB26_4
# %bb.3:                                # %if.then3
	movabsq	$.L.str.43, %rdi
	callq	no_mem_exit
.LBB26_4:                               # %if.end4
	movq	-56(%rbp), %rax
	movq	-32(%rbp), %rcx
	movq	(%rcx), %rcx
	movq	%rax, 32(%rcx)
	movq	-32(%rbp), %rax
	movq	(%rax), %rax
	movl	$8, 4(%rax)
	movq	img, %rax
	movl	72492(%rax), %eax
	movq	-24(%rbp), %rcx
	movl	%eax, 56(%rcx)
	movq	-24(%rbp), %rax
	movl	4(%rax), %esi
	movq	-32(%rbp), %rdx
	movabsq	$.L.str.44, %rdi
	callq	ue_v
	addl	-12(%rbp), %eax
	movl	%eax, -12(%rbp)
	movq	-24(%rbp), %rax
	movl	8(%rax), %esi
	movq	-32(%rbp), %rdx
	movabsq	$.L.str.45, %rdi
	callq	ue_v
	addl	-12(%rbp), %eax
	movl	%eax, -12(%rbp)
	movq	-24(%rbp), %rax
	movl	12(%rax), %esi
	movq	-32(%rbp), %rdx
	movabsq	$.L.str.46, %rdi
	callq	u_1
	addl	-12(%rbp), %eax
	movl	%eax, -12(%rbp)
	movq	-24(%rbp), %rax
	movl	56(%rax), %esi
	movq	-32(%rbp), %rdx
	movabsq	$.L.str.47, %rdi
	callq	u_1
	addl	-12(%rbp), %eax
	movl	%eax, -12(%rbp)
	movq	-24(%rbp), %rax
	movl	60(%rax), %esi
	movq	-32(%rbp), %rdx
	movabsq	$.L.str.48, %rdi
	callq	ue_v
	addl	-12(%rbp), %eax
	movl	%eax, -12(%rbp)
	movq	-24(%rbp), %rax
	cmpl	$0, 60(%rax)
	jbe	.LBB26_40
# %bb.5:                                # %if.then20
	movq	-24(%rbp), %rax
	movl	64(%rax), %esi
	movq	-32(%rbp), %rdx
	movabsq	$.L.str.49, %rdi
	callq	ue_v
	addl	-12(%rbp), %eax
	movl	%eax, -12(%rbp)
	movq	-24(%rbp), %rax
	cmpl	$0, 64(%rax)
	jne	.LBB26_11
# %bb.6:                                # %if.then25
	movl	$0, -16(%rbp)
.LBB26_7:                               # %for.cond
                                        # =>This Inner Loop Header: Depth=1
	movl	-16(%rbp), %eax
	movq	-24(%rbp), %rcx
	cmpl	60(%rcx), %eax
	ja	.LBB26_10
# %bb.8:                                # %for.body
                                        #   in Loop: Header=BB26_7 Depth=1
	movq	-24(%rbp), %rax
	movl	-16(%rbp), %ecx
	movl	68(%rax,%rcx,4), %esi
	movq	-32(%rbp), %rdx
	movabsq	$.L.str.50, %rdi
	callq	ue_v
	addl	-12(%rbp), %eax
	movl	%eax, -12(%rbp)
# %bb.9:                                # %for.inc
                                        #   in Loop: Header=BB26_7 Depth=1
	movl	-16(%rbp), %eax
	addl	$1, %eax
	movl	%eax, -16(%rbp)
	jmp	.LBB26_7
.LBB26_10:                              # %for.end
	jmp	.LBB26_39
.LBB26_11:                              # %if.else
	movq	-24(%rbp), %rax
	cmpl	$2, 64(%rax)
	jne	.LBB26_17
# %bb.12:                               # %if.then32
	movl	$0, -16(%rbp)
.LBB26_13:                              # %for.cond33
                                        # =>This Inner Loop Header: Depth=1
	movl	-16(%rbp), %eax
	movq	-24(%rbp), %rcx
	cmpl	60(%rcx), %eax
	jae	.LBB26_16
# %bb.14:                               # %for.body36
                                        #   in Loop: Header=BB26_13 Depth=1
	movq	-24(%rbp), %rax
	movl	-16(%rbp), %ecx
	movl	100(%rax,%rcx,4), %esi
	movq	-32(%rbp), %rdx
	movabsq	$.L.str.51, %rdi
	callq	ue_v
	addl	-12(%rbp), %eax
	movl	%eax, -12(%rbp)
	movq	-24(%rbp), %rax
	movl	-16(%rbp), %ecx
	movl	132(%rax,%rcx,4), %esi
	movq	-32(%rbp), %rdx
	movabsq	$.L.str.52, %rdi
	callq	ue_v
	addl	-12(%rbp), %eax
	movl	%eax, -12(%rbp)
# %bb.15:                               # %for.inc45
                                        #   in Loop: Header=BB26_13 Depth=1
	movl	-16(%rbp), %eax
	addl	$1, %eax
	movl	%eax, -16(%rbp)
	jmp	.LBB26_13
.LBB26_16:                              # %for.end47
	jmp	.LBB26_38
.LBB26_17:                              # %if.else48
	movq	-24(%rbp), %rax
	cmpl	$3, 64(%rax)
	je	.LBB26_20
# %bb.18:                               # %lor.lhs.false
	movq	-24(%rbp), %rax
	cmpl	$4, 64(%rax)
	je	.LBB26_20
# %bb.19:                               # %lor.lhs.false53
	movq	-24(%rbp), %rax
	cmpl	$5, 64(%rax)
	jne	.LBB26_21
.LBB26_20:                              # %if.then56
	movq	-24(%rbp), %rax
	movl	164(%rax), %esi
	movq	-32(%rbp), %rdx
	movabsq	$.L.str.53, %rdi
	callq	u_1
	addl	-12(%rbp), %eax
	movl	%eax, -12(%rbp)
	movq	-24(%rbp), %rax
	movl	168(%rax), %esi
	movq	-32(%rbp), %rdx
	movabsq	$.L.str.54, %rdi
	callq	ue_v
	addl	-12(%rbp), %eax
	movl	%eax, -12(%rbp)
	jmp	.LBB26_37
.LBB26_21:                              # %if.else61
	movq	-24(%rbp), %rax
	cmpl	$6, 64(%rax)
	jne	.LBB26_36
# %bb.22:                               # %if.then64
	movq	-24(%rbp), %rax
	cmpl	$4, 60(%rax)
	jb	.LBB26_24
# %bb.23:                               # %if.then67
	movl	$3, -40(%rbp)
	jmp	.LBB26_31
.LBB26_24:                              # %if.else68
	movq	-24(%rbp), %rax
	cmpl	$2, 60(%rax)
	jb	.LBB26_26
# %bb.25:                               # %if.then71
	movl	$2, -40(%rbp)
	jmp	.LBB26_30
.LBB26_26:                              # %if.else72
	movq	-24(%rbp), %rax
	cmpl	$1, 60(%rax)
	jb	.LBB26_28
# %bb.27:                               # %if.then75
	movl	$1, -40(%rbp)
	jmp	.LBB26_29
.LBB26_28:                              # %if.else76
	movl	$0, -40(%rbp)
.LBB26_29:                              # %if.end77
	jmp	.LBB26_30
.LBB26_30:                              # %if.end78
	jmp	.LBB26_31
.LBB26_31:                              # %if.end79
	movq	-24(%rbp), %rax
	movl	172(%rax), %esi
	movq	-32(%rbp), %rdx
	movabsq	$.L.str.55, %rdi
	callq	ue_v
	addl	-12(%rbp), %eax
	movl	%eax, -12(%rbp)
	movl	$0, -16(%rbp)
.LBB26_32:                              # %for.cond82
                                        # =>This Inner Loop Header: Depth=1
	movl	-16(%rbp), %eax
	movq	-24(%rbp), %rcx
	cmpl	172(%rcx), %eax
	ja	.LBB26_35
# %bb.33:                               # %for.body85
                                        #   in Loop: Header=BB26_32 Depth=1
	movl	-40(%rbp), %edi
	movq	-24(%rbp), %rax
	movq	176(%rax), %rax
	movl	-16(%rbp), %ecx
	movzbl	(%rax,%rcx), %edx
	movq	-32(%rbp), %rcx
	movabsq	$.L.str.56, %rsi
	callq	u_v
	addl	-12(%rbp), %eax
	movl	%eax, -12(%rbp)
# %bb.34:                               # %for.inc90
                                        #   in Loop: Header=BB26_32 Depth=1
	movl	-16(%rbp), %eax
	addl	$1, %eax
	movl	%eax, -16(%rbp)
	jmp	.LBB26_32
.LBB26_35:                              # %for.end92
	jmp	.LBB26_36
.LBB26_36:                              # %if.end93
	jmp	.LBB26_37
.LBB26_37:                              # %if.end94
	jmp	.LBB26_38
.LBB26_38:                              # %if.end95
	jmp	.LBB26_39
.LBB26_39:                              # %if.end96
	jmp	.LBB26_40
.LBB26_40:                              # %if.end97
	movq	-24(%rbp), %rax
	movl	184(%rax), %esi
	movq	-32(%rbp), %rdx
	movabsq	$.L.str.57, %rdi
	callq	ue_v
	addl	-12(%rbp), %eax
	movl	%eax, -12(%rbp)
	movq	-24(%rbp), %rax
	movl	188(%rax), %esi
	movq	-32(%rbp), %rdx
	movabsq	$.L.str.58, %rdi
	callq	ue_v
	addl	-12(%rbp), %eax
	movl	%eax, -12(%rbp)
	movq	-24(%rbp), %rax
	movl	192(%rax), %esi
	movq	-32(%rbp), %rdx
	movabsq	$.L.str.59, %rdi
	callq	u_1
	addl	-12(%rbp), %eax
	movl	%eax, -12(%rbp)
	movq	-24(%rbp), %rax
	movl	196(%rax), %edx
	movq	-32(%rbp), %rcx
	movl	$2, %edi
	movabsq	$.L.str.60, %rsi
	callq	u_v
	addl	-12(%rbp), %eax
	movl	%eax, -12(%rbp)
	movq	-24(%rbp), %rax
	movl	200(%rax), %esi
	movq	-32(%rbp), %rdx
	movabsq	$.L.str.61, %rdi
	callq	se_v
	addl	-12(%rbp), %eax
	movl	%eax, -12(%rbp)
	movq	-24(%rbp), %rax
	movl	204(%rax), %esi
	movq	-32(%rbp), %rdx
	movabsq	$.L.str.62, %rdi
	callq	se_v
	addl	-12(%rbp), %eax
	movl	%eax, -12(%rbp)
	callq	IdentifyProfile
	movl	%eax, -36(%rbp)
	cmpl	$100, -36(%rbp)
	je	.LBB26_44
# %bb.41:                               # %lor.lhs.false113
	cmpl	$110, -36(%rbp)
	je	.LBB26_44
# %bb.42:                               # %lor.lhs.false116
	cmpl	$122, -36(%rbp)
	je	.LBB26_44
# %bb.43:                               # %lor.lhs.false119
	cmpl	$144, -36(%rbp)
	jne	.LBB26_45
.LBB26_44:                              # %if.then122
	movq	-24(%rbp), %rax
	movl	212(%rax), %esi
	movq	-32(%rbp), %rdx
	movabsq	$.L.str.63, %rdi
	callq	se_v
	addl	-12(%rbp), %eax
	movl	%eax, -12(%rbp)
	jmp	.LBB26_46
.LBB26_45:                              # %if.else125
	movq	-24(%rbp), %rax
	movl	208(%rax), %esi
	movq	-32(%rbp), %rdx
	movabsq	$.L.str.63, %rdi
	callq	se_v
	addl	-12(%rbp), %eax
	movl	%eax, -12(%rbp)
.LBB26_46:                              # %if.end128
	movq	-24(%rbp), %rax
	movl	220(%rax), %esi
	movq	-32(%rbp), %rdx
	movabsq	$.L.str.64, %rdi
	callq	u_1
	addl	-12(%rbp), %eax
	movl	%eax, -12(%rbp)
	movq	-24(%rbp), %rax
	movl	224(%rax), %esi
	movq	-32(%rbp), %rdx
	movabsq	$.L.str.65, %rdi
	callq	u_1
	addl	-12(%rbp), %eax
	movl	%eax, -12(%rbp)
	movq	-24(%rbp), %rax
	movl	228(%rax), %esi
	movq	-32(%rbp), %rdx
	movabsq	$.L.str.66, %rdi
	callq	u_1
	addl	-12(%rbp), %eax
	movl	%eax, -12(%rbp)
	cmpl	$100, -36(%rbp)
	je	.LBB26_50
# %bb.47:                               # %lor.lhs.false137
	cmpl	$110, -36(%rbp)
	je	.LBB26_50
# %bb.48:                               # %lor.lhs.false140
	cmpl	$122, -36(%rbp)
	je	.LBB26_50
# %bb.49:                               # %lor.lhs.false143
	cmpl	$144, -36(%rbp)
	jne	.LBB26_62
.LBB26_50:                              # %if.then146
	movq	-24(%rbp), %rax
	movl	16(%rax), %esi
	movq	-32(%rbp), %rdx
	movabsq	$.L.str.67, %rdi
	callq	u_1
	addl	-12(%rbp), %eax
	movl	%eax, -12(%rbp)
	movq	-24(%rbp), %rax
	movl	20(%rax), %esi
	movq	-32(%rbp), %rdx
	movabsq	$.L.str.68, %rdi
	callq	u_1
	addl	-12(%rbp), %eax
	movl	%eax, -12(%rbp)
	movq	-24(%rbp), %rax
	cmpl	$0, 20(%rax)
	je	.LBB26_61
# %bb.51:                               # %if.then152
	movl	$0, -16(%rbp)
.LBB26_52:                              # %for.cond153
                                        # =>This Inner Loop Header: Depth=1
	movl	-16(%rbp), %eax
	movq	-24(%rbp), %rcx
	movl	16(%rcx), %ecx
	shll	$1, %ecx
	addl	$6, %ecx
	cmpl	%ecx, %eax
	jae	.LBB26_60
# %bb.53:                               # %for.body158
                                        #   in Loop: Header=BB26_52 Depth=1
	movq	-24(%rbp), %rax
	movl	-16(%rbp), %ecx
	movl	24(%rax,%rcx,4), %esi
	movq	-32(%rbp), %rdx
	movabsq	$.L.str.69, %rdi
	callq	u_1
	addl	-12(%rbp), %eax
	movl	%eax, -12(%rbp)
	movq	-24(%rbp), %rax
	movl	-16(%rbp), %ecx
	cmpl	$0, 24(%rax,%rcx,4)
	je	.LBB26_58
# %bb.54:                               # %if.then167
                                        #   in Loop: Header=BB26_52 Depth=1
	cmpl	$6, -16(%rbp)
	jae	.LBB26_56
# %bb.55:                               # %if.then170
                                        #   in Loop: Header=BB26_52 Depth=1
	movl	-16(%rbp), %eax
	shlq	$5, %rax
	movabsq	$ScalingList4x4input, %rdi
	addq	%rax, %rdi
	movl	-16(%rbp), %eax
	shlq	$5, %rax
	movabsq	$ScalingList4x4, %rsi
	addq	%rax, %rsi
	movl	-16(%rbp), %eax
	shlq	$1, %rax
	movabsq	$UseDefaultScalingMatrix4x4Flag, %rcx
	addq	%rax, %rcx
	movq	-32(%rbp), %r8
	movl	$16, %edx
	callq	Scaling_List
	addl	-12(%rbp), %eax
	movl	%eax, -12(%rbp)
	jmp	.LBB26_57
.LBB26_56:                              # %if.else180
                                        #   in Loop: Header=BB26_52 Depth=1
	movl	-16(%rbp), %eax
	subl	$6, %eax
	movl	%eax, %eax
	shlq	$7, %rax
	movabsq	$ScalingList8x8input, %rdi
	addq	%rax, %rdi
	movl	-16(%rbp), %eax
	subl	$6, %eax
	movl	%eax, %eax
	shlq	$7, %rax
	movabsq	$ScalingList8x8, %rsi
	addq	%rax, %rsi
	movl	-16(%rbp), %eax
	subl	$6, %eax
	movl	%eax, %eax
	shlq	$1, %rax
	movabsq	$UseDefaultScalingMatrix8x8Flag, %rcx
	addq	%rax, %rcx
	movq	-32(%rbp), %r8
	movl	$64, %edx
	callq	Scaling_List
	addl	-12(%rbp), %eax
	movl	%eax, -12(%rbp)
.LBB26_57:                              # %if.end193
                                        #   in Loop: Header=BB26_52 Depth=1
	jmp	.LBB26_58
.LBB26_58:                              # %if.end194
                                        #   in Loop: Header=BB26_52 Depth=1
	jmp	.LBB26_59
.LBB26_59:                              # %for.inc195
                                        #   in Loop: Header=BB26_52 Depth=1
	movl	-16(%rbp), %eax
	addl	$1, %eax
	movl	%eax, -16(%rbp)
	jmp	.LBB26_52
.LBB26_60:                              # %for.end197
	jmp	.LBB26_61
.LBB26_61:                              # %if.end198
	movq	-24(%rbp), %rax
	movl	216(%rax), %esi
	movq	-32(%rbp), %rdx
	movabsq	$.L.str.70, %rdi
	callq	se_v
	addl	-12(%rbp), %eax
	movl	%eax, -12(%rbp)
.LBB26_62:                              # %if.end201
	movq	-32(%rbp), %rax
	movq	(%rax), %rdi
	callq	SODBtoRBSP
	movq	-32(%rbp), %rax
	movq	(%rax), %rax
	movl	(%rax), %eax
	movl	%eax, -44(%rbp)
	movq	-32(%rbp), %rax
	movq	(%rax), %rdi
	callq	free
	movq	-32(%rbp), %rdi
	callq	free
	movl	-44(%rbp), %ebx
	cmpl	$1983509126, -48(%rbp)  # imm = 0x7639F286
	jne	.LBB26_64
.LBB26_63:
	movl	%ebx, %eax
	addq	$56, %rsp
	popq	%rbx
	popq	%rbp
	.cfi_def_cfa %rsp, 8
	retq
.LBB26_64:                              # %func_exit
	.cfi_def_cfa %rbp, 16
	callq	detect_breach
	jmp	.LBB26_63
.Lfunc_end26:
	.size	GeneratePic_parameter_set_rbsp.15, .Lfunc_end26-GeneratePic_parameter_set_rbsp.15
	.cfi_endproc
                                        # -- End function
	.globl	Scaling_List.16         # -- Begin function Scaling_List.16
	.p2align	4, 0x90
	.type	Scaling_List.16,@function
Scaling_List.16:                        # @Scaling_List.16
	.cfi_startproc
# %bb.0:                                # %entry
	pushq	%rbp
	.cfi_def_cfa_offset 16
	.cfi_offset %rbp, -16
	movq	%rsp, %rbp
	.cfi_def_cfa_register %rbp
	pushq	%rbx
	subq	$72, %rsp
	.cfi_offset %rbx, -24
	movl	$783573324, -40(%rbp)   # imm = 0x2EB4614C
	movq	%rdi, -56(%rbp)
	movq	%rsi, -48(%rbp)
	movl	%edx, -36(%rbp)
	movq	%rcx, -72(%rbp)
	movq	%r8, -64(%rbp)
	movl	$0, -28(%rbp)
	movl	$8, -32(%rbp)
	movl	$8, -16(%rbp)
	movl	$0, -24(%rbp)
.LBB27_1:                               # %for.cond
                                        # =>This Inner Loop Header: Depth=1
	movl	-24(%rbp), %eax
	cmpl	-36(%rbp), %eax
	jge	.LBB27_19
# %bb.2:                                # %for.body
                                        #   in Loop: Header=BB27_1 Depth=1
	cmpl	$16, -36(%rbp)
	jne	.LBB27_4
# %bb.3:                                # %cond.true
                                        #   in Loop: Header=BB27_1 Depth=1
	movslq	-24(%rbp), %rax
	movzbl	ZZ_SCAN(,%rax), %eax
	jmp	.LBB27_5
.LBB27_4:                               # %cond.false
                                        #   in Loop: Header=BB27_1 Depth=1
	movslq	-24(%rbp), %rax
	movzbl	ZZ_SCAN8(,%rax), %eax
.LBB27_5:                               # %cond.end
                                        #   in Loop: Header=BB27_1 Depth=1
	movl	%eax, -20(%rbp)
	cmpl	$0, -16(%rbp)
	je	.LBB27_14
# %bb.6:                                # %if.then
                                        #   in Loop: Header=BB27_1 Depth=1
	movq	-56(%rbp), %rax
	movslq	-20(%rbp), %rcx
	movswl	(%rax,%rcx,2), %eax
	subl	-32(%rbp), %eax
	movl	%eax, -12(%rbp)
	cmpl	$127, -12(%rbp)
	jle	.LBB27_8
# %bb.7:                                # %if.then12
                                        #   in Loop: Header=BB27_1 Depth=1
	movl	-12(%rbp), %eax
	subl	$256, %eax              # imm = 0x100
	movl	%eax, -12(%rbp)
	jmp	.LBB27_11
.LBB27_8:                               # %if.else
                                        #   in Loop: Header=BB27_1 Depth=1
	cmpl	$-128, -12(%rbp)
	jge	.LBB27_10
# %bb.9:                                # %if.then16
                                        #   in Loop: Header=BB27_1 Depth=1
	movl	-12(%rbp), %eax
	addl	$256, %eax              # imm = 0x100
	movl	%eax, -12(%rbp)
.LBB27_10:                              # %if.end
                                        #   in Loop: Header=BB27_1 Depth=1
	jmp	.LBB27_11
.LBB27_11:                              # %if.end17
                                        #   in Loop: Header=BB27_1 Depth=1
	movl	-12(%rbp), %esi
	movq	-64(%rbp), %rdx
	movabsq	$.L.str.3, %rdi
	callq	se_v
	xorl	%ecx, %ecx
	addl	-28(%rbp), %eax
	movl	%eax, -28(%rbp)
	movq	-56(%rbp), %rax
	movslq	-20(%rbp), %rdx
	movswl	(%rax,%rdx,2), %eax
	movl	%eax, -16(%rbp)
	cmpl	$0, -20(%rbp)
	jne	.LBB27_13
# %bb.12:                               # %land.rhs
                                        #   in Loop: Header=BB27_1 Depth=1
	cmpl	$0, -16(%rbp)
	sete	%cl
.LBB27_13:                              # %land.end
                                        #   in Loop: Header=BB27_1 Depth=1
	andb	$1, %cl
	movzbl	%cl, %eax
	movq	-72(%rbp), %rcx
	movswl	(%rcx), %edx
	orl	%eax, %edx
	movw	%dx, (%rcx)
.LBB27_14:                              # %if.end28
                                        #   in Loop: Header=BB27_1 Depth=1
	cmpl	$0, -16(%rbp)
	jne	.LBB27_16
# %bb.15:                               # %cond.true31
                                        #   in Loop: Header=BB27_1 Depth=1
	movl	-32(%rbp), %eax
	jmp	.LBB27_17
.LBB27_16:                              # %cond.false32
                                        #   in Loop: Header=BB27_1 Depth=1
	movl	-16(%rbp), %eax
.LBB27_17:                              # %cond.end33
                                        #   in Loop: Header=BB27_1 Depth=1
	movq	-48(%rbp), %rcx
	movslq	-20(%rbp), %rdx
	movw	%ax, (%rcx,%rdx,2)
	movq	-48(%rbp), %rax
	movslq	-20(%rbp), %rcx
	movswl	(%rax,%rcx,2), %eax
	movl	%eax, -32(%rbp)
# %bb.18:                               # %for.inc
                                        #   in Loop: Header=BB27_1 Depth=1
	movl	-24(%rbp), %eax
	addl	$1, %eax
	movl	%eax, -24(%rbp)
	jmp	.LBB27_1
.LBB27_19:                              # %for.end
	movl	-28(%rbp), %ebx
	cmpl	$783573324, -40(%rbp)   # imm = 0x2EB4614C
	jne	.LBB27_21
.LBB27_20:
	movl	%ebx, %eax
	addq	$72, %rsp
	popq	%rbx
	popq	%rbp
	.cfi_def_cfa %rsp, 8
	retq
.LBB27_21:                              # %func_exit
	.cfi_def_cfa %rbp, 16
	callq	detect_breach
	jmp	.LBB27_20
.Lfunc_end27:
	.size	Scaling_List.16, .Lfunc_end27-Scaling_List.16
	.cfi_endproc
                                        # -- End function
	.globl	GenerateParameterSets.17 # -- Begin function GenerateParameterSets.17
	.p2align	4, 0x90
	.type	GenerateParameterSets.17,@function
GenerateParameterSets.17:               # @GenerateParameterSets.17
	.cfi_startproc
# %bb.0:                                # %entry
	pushq	%rbp
	.cfi_def_cfa_offset 16
	.cfi_offset %rbp, -16
	movq	%rsp, %rbp
	.cfi_def_cfa_register %rbp
	subq	$32, %rsp
	movl	$519654656, -20(%rbp)   # imm = 0x1EF94D00
	movq	$0, -16(%rbp)
	movq	$0, -8(%rbp)
	movb	$0, %al
	callq	AllocSPS
	movq	%rax, -16(%rbp)
	movb	$0, %al
	callq	AllocPPS
	movq	%rax, -8(%rbp)
	movq	-16(%rbp), %rdi
	xorl	%esi, %esi
	callq	GenerateSequenceParameterSet
	movq	input, %rax
	cmpl	$0, 60(%rax)
	je	.LBB28_5
# %bb.1:                                # %if.then
	movq	-16(%rbp), %rax
	cmpl	$100, 4(%rax)
	jb	.LBB28_3
# %bb.2:                                # %if.then2
	movq	-8(%rbp), %rdi
	movq	-16(%rbp), %rsi
	movq	input, %rax
	movl	3316(%rax), %r9d
	movq	input, %rax
	movl	3320(%rax), %eax
	xorl	%edx, %edx
	xorl	%ecx, %ecx
	xorl	%r8d, %r8d
	movl	%eax, (%rsp)
	callq	GeneratePictureParameterSet
	movabsq	$PicParSet, %rdi
	movq	-8(%rbp), %rsi
	movl	$240, %edx
	callq	memcpy
	movq	-8(%rbp), %rdi
	movq	-16(%rbp), %rsi
	movq	input, %rax
	movl	3316(%rax), %r9d
	movq	input, %rax
	movl	3320(%rax), %eax
	movl	$1, %edx
	movl	$1, %ecx
	movl	$1, %r8d
	movl	%eax, (%rsp)
	callq	GeneratePictureParameterSet
	movabsq	$PicParSet, %rdi
	addq	$240, %rdi
	movq	-8(%rbp), %rsi
	movl	$240, %edx
	callq	memcpy
	movq	-8(%rbp), %rdi
	movq	-16(%rbp), %rsi
	movq	input, %rax
	movl	3316(%rax), %r9d
	movq	input, %rax
	movl	3320(%rax), %eax
	movl	$2, %edx
	movl	$1, %ecx
	movl	$2, %r8d
	movl	%eax, (%rsp)
	callq	GeneratePictureParameterSet
	movabsq	$PicParSet, %rdi
	addq	$480, %rdi              # imm = 0x1E0
	movq	-8(%rbp), %rsi
	movl	$240, %edx
	callq	memcpy
	jmp	.LBB28_4
.LBB28_3:                               # %if.else
	movq	-8(%rbp), %rdi
	movq	-16(%rbp), %rsi
	movq	input, %rax
	movl	2432(%rax), %r9d
	xorl	%edx, %edx
	xorl	%ecx, %ecx
	xorl	%r8d, %r8d
	movl	$0, (%rsp)
	callq	GeneratePictureParameterSet
	xorl	%eax, %eax
	movabsq	$PicParSet, %rdi
	movq	-8(%rbp), %rsi
	movl	$240, %edx
	callq	memcpy
	movq	-8(%rbp), %rdi
	movq	-16(%rbp), %rsi
	movq	input, %rax
	movl	2432(%rax), %r9d
	movl	$1, %edx
	movl	$1, %ecx
	movl	$1, %r8d
	movl	$0, (%rsp)
	callq	GeneratePictureParameterSet
	xorl	%eax, %eax
	movabsq	$PicParSet, %rdi
	addq	$240, %rdi
	movq	-8(%rbp), %rsi
	movl	$240, %edx
	callq	memcpy
	movq	-8(%rbp), %rdi
	movq	-16(%rbp), %rsi
	movq	input, %rax
	movl	2432(%rax), %r9d
	movl	$2, %edx
	movl	$1, %ecx
	movl	$2, %r8d
	movl	$0, (%rsp)
	callq	GeneratePictureParameterSet
	movabsq	$PicParSet, %rdi
	addq	$480, %rdi              # imm = 0x1E0
	movq	-8(%rbp), %rsi
	movl	$240, %edx
	callq	memcpy
.LBB28_4:                               # %if.end
	jmp	.LBB28_9
.LBB28_5:                               # %if.else9
	movq	-16(%rbp), %rax
	cmpl	$100, 4(%rax)
	jb	.LBB28_7
# %bb.6:                                # %if.then12
	movq	-8(%rbp), %rdi
	movq	-16(%rbp), %rsi
	movq	input, %rax
	movl	1284(%rax), %ecx
	movq	input, %rax
	movl	1288(%rax), %r8d
	movq	input, %rax
	movl	3316(%rax), %r9d
	movq	input, %rax
	movl	3320(%rax), %eax
	xorl	%edx, %edx
	movl	%eax, (%rsp)
	callq	GeneratePictureParameterSet
	jmp	.LBB28_8
.LBB28_7:                               # %if.else15
	movq	-8(%rbp), %rdi
	movq	-16(%rbp), %rsi
	movq	input, %rax
	movl	1284(%rax), %ecx
	movq	input, %rax
	movl	1288(%rax), %r8d
	movq	input, %rax
	movl	2432(%rax), %r9d
	xorl	%edx, %edx
	movl	$0, (%rsp)
	callq	GeneratePictureParameterSet
.LBB28_8:                               # %if.end19
	movabsq	$PicParSet, %rdi
	movq	-8(%rbp), %rsi
	movl	$240, %edx
	callq	memcpy
.LBB28_9:                               # %if.end20
	movq	-16(%rbp), %rax
	movq	%rax, active_sps
	movabsq	$PicParSet, %rax
	movq	%rax, active_pps
	cmpl	$519654656, -20(%rbp)   # imm = 0x1EF94D00
	jne	.LBB28_11
.LBB28_10:
	addq	$32, %rsp
	popq	%rbp
	.cfi_def_cfa %rsp, 8
	retq
.LBB28_11:                              # %func_exit
	.cfi_def_cfa %rbp, 16
	callq	detect_breach
	jmp	.LBB28_10
.Lfunc_end28:
	.size	GenerateParameterSets.17, .Lfunc_end28-GenerateParameterSets.17
	.cfi_endproc
                                        # -- End function
	.globl	GenerateSeq_parameter_set_rbsp.18 # -- Begin function GenerateSeq_parameter_set_rbsp.18
	.p2align	4, 0x90
	.type	GenerateSeq_parameter_set_rbsp.18,@function
GenerateSeq_parameter_set_rbsp.18:      # @GenerateSeq_parameter_set_rbsp.18
	.cfi_startproc
# %bb.0:                                # %entry
	pushq	%rbp
	.cfi_def_cfa_offset 16
	.cfi_offset %rbp, -16
	movq	%rsp, %rbp
	.cfi_def_cfa_register %rbp
	pushq	%rbx
	subq	$56, %rsp
	.cfi_offset %rbx, -24
	movl	$2066929287, -40(%rbp)  # imm = 0x7B32D687
	movq	%rdi, -32(%rbp)
	movq	%rsi, -56(%rbp)
	movl	$0, -12(%rbp)
	movl	$1, %edi
	movl	$120, %esi
	callq	calloc
	movq	%rax, -24(%rbp)
	cmpq	$0, %rax
	jne	.LBB29_2
# %bb.1:                                # %if.then
	movabsq	$.L.str.4, %rdi
	callq	no_mem_exit
.LBB29_2:                               # %if.end
	movl	$1, %edi
	movl	$48, %esi
	callq	calloc
	movq	-24(%rbp), %rcx
	movq	%rax, (%rcx)
	cmpq	$0, %rax
	jne	.LBB29_4
# %bb.3:                                # %if.then3
	movabsq	$.L.str.5, %rdi
	callq	no_mem_exit
.LBB29_4:                               # %if.end4
	movq	-56(%rbp), %rax
	movq	-24(%rbp), %rcx
	movq	(%rcx), %rcx
	movq	%rax, 32(%rcx)
	movq	-24(%rbp), %rax
	movq	(%rax), %rax
	movl	$8, 4(%rax)
	movq	-32(%rbp), %rax
	movl	4(%rax), %edx
	movq	-24(%rbp), %rcx
	movl	$8, %edi
	movabsq	$.L.str.6, %rsi
	callq	u_v
	addl	-12(%rbp), %eax
	movl	%eax, -12(%rbp)
	movq	-32(%rbp), %rax
	movl	8(%rax), %esi
	movq	-24(%rbp), %rdx
	movabsq	$.L.str.7, %rdi
	callq	u_1
	addl	-12(%rbp), %eax
	movl	%eax, -12(%rbp)
	movq	-32(%rbp), %rax
	movl	12(%rax), %esi
	movq	-24(%rbp), %rdx
	movabsq	$.L.str.8, %rdi
	callq	u_1
	addl	-12(%rbp), %eax
	movl	%eax, -12(%rbp)
	movq	-32(%rbp), %rax
	movl	16(%rax), %esi
	movq	-24(%rbp), %rdx
	movabsq	$.L.str.9, %rdi
	callq	u_1
	addl	-12(%rbp), %eax
	movl	%eax, -12(%rbp)
	movq	-32(%rbp), %rax
	movl	20(%rax), %esi
	movq	-24(%rbp), %rdx
	movabsq	$.L.str.10, %rdi
	callq	u_1
	addl	-12(%rbp), %eax
	movl	%eax, -12(%rbp)
	movq	-24(%rbp), %rcx
	movl	$4, %edi
	movabsq	$.L.str.11, %rsi
	xorl	%edx, %edx
	callq	u_v
	addl	-12(%rbp), %eax
	movl	%eax, -12(%rbp)
	movq	-32(%rbp), %rax
	movl	24(%rax), %edx
	movq	-24(%rbp), %rcx
	movl	$8, %edi
	movabsq	$.L.str.12, %rsi
	callq	u_v
	addl	-12(%rbp), %eax
	movl	%eax, -12(%rbp)
	movq	-32(%rbp), %rax
	movl	28(%rax), %esi
	movq	-24(%rbp), %rdx
	movabsq	$.L.str.13, %rdi
	callq	ue_v
	addl	-12(%rbp), %eax
	movl	%eax, -12(%rbp)
	movq	-32(%rbp), %rax
	cmpl	$100, 4(%rax)
	je	.LBB29_8
# %bb.5:                                # %lor.lhs.false
	movq	-32(%rbp), %rax
	cmpl	$110, 4(%rax)
	je	.LBB29_8
# %bb.6:                                # %lor.lhs.false26
	movq	-32(%rbp), %rax
	cmpl	$122, 4(%rax)
	je	.LBB29_8
# %bb.7:                                # %lor.lhs.false29
	movq	-32(%rbp), %rax
	cmpl	$144, 4(%rax)
	jne	.LBB29_22
.LBB29_8:                               # %if.then32
	movq	-32(%rbp), %rax
	movl	32(%rax), %esi
	movq	-24(%rbp), %rdx
	movabsq	$.L.str.14, %rdi
	callq	ue_v
	addl	-12(%rbp), %eax
	movl	%eax, -12(%rbp)
	movq	img, %rax
	cmpl	$3, 72700(%rax)
	jne	.LBB29_10
# %bb.9:                                # %if.then36
	movq	img, %rax
	movl	72724(%rax), %esi
	movq	-24(%rbp), %rdx
	movabsq	$.L.str.15, %rdi
	callq	u_1
	addl	-12(%rbp), %eax
	movl	%eax, -12(%rbp)
.LBB29_10:                              # %if.end39
	movq	-32(%rbp), %rax
	movl	72(%rax), %esi
	movq	-24(%rbp), %rdx
	movabsq	$.L.str.16, %rdi
	callq	ue_v
	addl	-12(%rbp), %eax
	movl	%eax, -12(%rbp)
	movq	-32(%rbp), %rax
	movl	76(%rax), %esi
	movq	-24(%rbp), %rdx
	movabsq	$.L.str.17, %rdi
	callq	ue_v
	addl	-12(%rbp), %eax
	movl	%eax, -12(%rbp)
	movq	img, %rax
	movl	72704(%rax), %esi
	movq	-24(%rbp), %rdx
	movabsq	$.L.str.18, %rdi
	callq	u_1
	addl	-12(%rbp), %eax
	movl	%eax, -12(%rbp)
	movq	-32(%rbp), %rax
	movl	36(%rax), %esi
	movq	-24(%rbp), %rdx
	movabsq	$.L.str.19, %rdi
	callq	u_1
	addl	-12(%rbp), %eax
	movl	%eax, -12(%rbp)
	movq	-32(%rbp), %rax
	cmpl	$0, 36(%rax)
	je	.LBB29_21
# %bb.11:                               # %if.then49
	movl	$0, -36(%rbp)
.LBB29_12:                              # %for.cond
                                        # =>This Inner Loop Header: Depth=1
	cmpl	$8, -36(%rbp)
	jae	.LBB29_20
# %bb.13:                               # %for.body
                                        #   in Loop: Header=BB29_12 Depth=1
	movq	-32(%rbp), %rax
	movl	-36(%rbp), %ecx
	movl	40(%rax,%rcx,4), %esi
	movq	-24(%rbp), %rdx
	movabsq	$.L.str.20, %rdi
	callq	u_1
	addl	-12(%rbp), %eax
	movl	%eax, -12(%rbp)
	movq	-32(%rbp), %rax
	movl	-36(%rbp), %ecx
	cmpl	$0, 40(%rax,%rcx,4)
	je	.LBB29_18
# %bb.14:                               # %if.then57
                                        #   in Loop: Header=BB29_12 Depth=1
	cmpl	$6, -36(%rbp)
	jae	.LBB29_16
# %bb.15:                               # %if.then59
                                        #   in Loop: Header=BB29_12 Depth=1
	movl	-36(%rbp), %eax
	shlq	$5, %rax
	movabsq	$ScalingList4x4input, %rdi
	addq	%rax, %rdi
	movl	-36(%rbp), %eax
	shlq	$5, %rax
	movabsq	$ScalingList4x4, %rsi
	addq	%rax, %rsi
	movl	-36(%rbp), %eax
	shlq	$1, %rax
	movabsq	$UseDefaultScalingMatrix4x4Flag, %rcx
	addq	%rax, %rcx
	movq	-24(%rbp), %r8
	movl	$16, %edx
	callq	Scaling_List
	addl	-12(%rbp), %eax
	movl	%eax, -12(%rbp)
	jmp	.LBB29_17
.LBB29_16:                              # %if.else
                                        #   in Loop: Header=BB29_12 Depth=1
	movl	-36(%rbp), %eax
	subl	$6, %eax
	movl	%eax, %eax
	shlq	$7, %rax
	movabsq	$ScalingList8x8input, %rdi
	addq	%rax, %rdi
	movl	-36(%rbp), %eax
	subl	$6, %eax
	movl	%eax, %eax
	shlq	$7, %rax
	movabsq	$ScalingList8x8, %rsi
	addq	%rax, %rsi
	movl	-36(%rbp), %eax
	subl	$6, %eax
	movl	%eax, %eax
	shlq	$1, %rax
	movabsq	$UseDefaultScalingMatrix8x8Flag, %rcx
	addq	%rax, %rcx
	movq	-24(%rbp), %r8
	movl	$64, %edx
	callq	Scaling_List
	addl	-12(%rbp), %eax
	movl	%eax, -12(%rbp)
.LBB29_17:                              # %if.end81
                                        #   in Loop: Header=BB29_12 Depth=1
	jmp	.LBB29_18
.LBB29_18:                              # %if.end82
                                        #   in Loop: Header=BB29_12 Depth=1
	jmp	.LBB29_19
.LBB29_19:                              # %for.inc
                                        #   in Loop: Header=BB29_12 Depth=1
	movl	-36(%rbp), %eax
	addl	$1, %eax
	movl	%eax, -36(%rbp)
	jmp	.LBB29_12
.LBB29_20:                              # %for.end
	jmp	.LBB29_21
.LBB29_21:                              # %if.end83
	jmp	.LBB29_22
.LBB29_22:                              # %if.end84
	movq	-32(%rbp), %rax
	movl	80(%rax), %esi
	movq	-24(%rbp), %rdx
	movabsq	$.L.str.21, %rdi
	callq	ue_v
	addl	-12(%rbp), %eax
	movl	%eax, -12(%rbp)
	movq	-32(%rbp), %rax
	movl	84(%rax), %esi
	movq	-24(%rbp), %rdx
	movabsq	$.L.str.22, %rdi
	callq	ue_v
	addl	-12(%rbp), %eax
	movl	%eax, -12(%rbp)
	movq	-32(%rbp), %rax
	cmpl	$0, 84(%rax)
	jne	.LBB29_24
# %bb.23:                               # %if.then91
	movq	-32(%rbp), %rax
	movl	88(%rax), %esi
	movq	-24(%rbp), %rdx
	movabsq	$.L.str.23, %rdi
	callq	ue_v
	addl	-12(%rbp), %eax
	movl	%eax, -12(%rbp)
	jmp	.LBB29_31
.LBB29_24:                              # %if.else94
	movq	-32(%rbp), %rax
	cmpl	$1, 84(%rax)
	jne	.LBB29_30
# %bb.25:                               # %if.then97
	movq	-32(%rbp), %rax
	movl	92(%rax), %esi
	movq	-24(%rbp), %rdx
	movabsq	$.L.str.24, %rdi
	callq	u_1
	addl	-12(%rbp), %eax
	movl	%eax, -12(%rbp)
	movq	-32(%rbp), %rax
	movl	96(%rax), %esi
	movq	-24(%rbp), %rdx
	movabsq	$.L.str.25, %rdi
	callq	se_v
	addl	-12(%rbp), %eax
	movl	%eax, -12(%rbp)
	movq	-32(%rbp), %rax
	movl	100(%rax), %esi
	movq	-24(%rbp), %rdx
	movabsq	$.L.str.26, %rdi
	callq	se_v
	addl	-12(%rbp), %eax
	movl	%eax, -12(%rbp)
	movq	-32(%rbp), %rax
	movl	104(%rax), %esi
	movq	-24(%rbp), %rdx
	movabsq	$.L.str.27, %rdi
	callq	ue_v
	addl	-12(%rbp), %eax
	movl	%eax, -12(%rbp)
	movl	$0, -36(%rbp)
.LBB29_26:                              # %for.cond106
                                        # =>This Inner Loop Header: Depth=1
	movl	-36(%rbp), %eax
	movq	-32(%rbp), %rcx
	cmpl	104(%rcx), %eax
	jae	.LBB29_29
# %bb.27:                               # %for.body109
                                        #   in Loop: Header=BB29_26 Depth=1
	movq	-32(%rbp), %rax
	movl	-36(%rbp), %ecx
	movl	108(%rax,%rcx,4), %esi
	movq	-24(%rbp), %rdx
	movabsq	$.L.str.28, %rdi
	callq	se_v
	addl	-12(%rbp), %eax
	movl	%eax, -12(%rbp)
# %bb.28:                               # %for.inc114
                                        #   in Loop: Header=BB29_26 Depth=1
	movl	-36(%rbp), %eax
	addl	$1, %eax
	movl	%eax, -36(%rbp)
	jmp	.LBB29_26
.LBB29_29:                              # %for.end116
	jmp	.LBB29_30
.LBB29_30:                              # %if.end117
	jmp	.LBB29_31
.LBB29_31:                              # %if.end118
	movq	-32(%rbp), %rax
	movl	1132(%rax), %esi
	movq	-24(%rbp), %rdx
	movabsq	$.L.str.29, %rdi
	callq	ue_v
	addl	-12(%rbp), %eax
	movl	%eax, -12(%rbp)
	movq	-32(%rbp), %rax
	movl	1136(%rax), %esi
	movq	-24(%rbp), %rdx
	movabsq	$.L.str.30, %rdi
	callq	u_1
	addl	-12(%rbp), %eax
	movl	%eax, -12(%rbp)
	movq	-32(%rbp), %rax
	movl	1140(%rax), %esi
	movq	-24(%rbp), %rdx
	movabsq	$.L.str.31, %rdi
	callq	ue_v
	addl	-12(%rbp), %eax
	movl	%eax, -12(%rbp)
	movq	-32(%rbp), %rax
	movl	1144(%rax), %esi
	movq	-24(%rbp), %rdx
	movabsq	$.L.str.32, %rdi
	callq	ue_v
	addl	-12(%rbp), %eax
	movl	%eax, -12(%rbp)
	movq	-32(%rbp), %rax
	movl	1148(%rax), %esi
	movq	-24(%rbp), %rdx
	movabsq	$.L.str.33, %rdi
	callq	u_1
	addl	-12(%rbp), %eax
	movl	%eax, -12(%rbp)
	movq	-32(%rbp), %rax
	cmpl	$0, 1148(%rax)
	jne	.LBB29_33
# %bb.32:                               # %if.then131
	movq	-32(%rbp), %rax
	movl	1152(%rax), %esi
	movq	-24(%rbp), %rdx
	movabsq	$.L.str.34, %rdi
	callq	u_1
	addl	-12(%rbp), %eax
	movl	%eax, -12(%rbp)
.LBB29_33:                              # %if.end134
	movq	-32(%rbp), %rax
	movl	1156(%rax), %esi
	movq	-24(%rbp), %rdx
	movabsq	$.L.str.35, %rdi
	callq	u_1
	addl	-12(%rbp), %eax
	movl	%eax, -12(%rbp)
	movq	-32(%rbp), %rax
	movl	1160(%rax), %esi
	movq	-24(%rbp), %rdx
	movabsq	$.L.str.36, %rdi
	callq	u_1
	addl	-12(%rbp), %eax
	movl	%eax, -12(%rbp)
	movq	-32(%rbp), %rax
	cmpl	$0, 1160(%rax)
	je	.LBB29_35
# %bb.34:                               # %if.then141
	movq	-32(%rbp), %rax
	movl	1164(%rax), %esi
	movq	-24(%rbp), %rdx
	movabsq	$.L.str.37, %rdi
	callq	ue_v
	addl	-12(%rbp), %eax
	movl	%eax, -12(%rbp)
	movq	-32(%rbp), %rax
	movl	1168(%rax), %esi
	movq	-24(%rbp), %rdx
	movabsq	$.L.str.38, %rdi
	callq	ue_v
	addl	-12(%rbp), %eax
	movl	%eax, -12(%rbp)
	movq	-32(%rbp), %rax
	movl	1172(%rax), %esi
	movq	-24(%rbp), %rdx
	movabsq	$.L.str.39, %rdi
	callq	ue_v
	addl	-12(%rbp), %eax
	movl	%eax, -12(%rbp)
	movq	-32(%rbp), %rax
	movl	1176(%rax), %esi
	movq	-24(%rbp), %rdx
	movabsq	$.L.str.40, %rdi
	callq	ue_v
	addl	-12(%rbp), %eax
	movl	%eax, -12(%rbp)
.LBB29_35:                              # %if.end150
	movq	-32(%rbp), %rax
	movl	1180(%rax), %esi
	movq	-24(%rbp), %rdx
	movabsq	$.L.str.41, %rdi
	callq	u_1
	addl	-12(%rbp), %eax
	movl	%eax, -12(%rbp)
	movq	-32(%rbp), %rax
	cmpl	$0, 1180(%rax)
	je	.LBB29_37
# %bb.36:                               # %if.then155
	movq	-24(%rbp), %rdi
	callq	GenerateVUISequenceParameters
	addl	-12(%rbp), %eax
	movl	%eax, -12(%rbp)
.LBB29_37:                              # %if.end158
	movq	-24(%rbp), %rax
	movq	(%rax), %rdi
	callq	SODBtoRBSP
	movq	-24(%rbp), %rax
	movq	(%rax), %rax
	movl	(%rax), %eax
	movl	%eax, -44(%rbp)
	movq	-24(%rbp), %rax
	movq	(%rax), %rdi
	callq	free
	movq	-24(%rbp), %rdi
	callq	free
	movl	-44(%rbp), %ebx
	cmpl	$2066929287, -40(%rbp)  # imm = 0x7B32D687
	jne	.LBB29_39
.LBB29_38:
	movl	%ebx, %eax
	addq	$56, %rsp
	popq	%rbx
	popq	%rbp
	.cfi_def_cfa %rsp, 8
	retq
.LBB29_39:                              # %func_exit
	.cfi_def_cfa %rbp, 16
	callq	detect_breach
	jmp	.LBB29_38
.Lfunc_end29:
	.size	GenerateSeq_parameter_set_rbsp.18, .Lfunc_end29-GenerateSeq_parameter_set_rbsp.18
	.cfi_endproc
                                        # -- End function
	.globl	GenerateSequenceParameterSet.19 # -- Begin function GenerateSequenceParameterSet.19
	.p2align	4, 0x90
	.type	GenerateSequenceParameterSet.19,@function
GenerateSequenceParameterSet.19:        # @GenerateSequenceParameterSet.19
	.cfi_startproc
# %bb.0:                                # %entry
	pushq	%rbp
	.cfi_def_cfa_offset 16
	.cfi_offset %rbp, -16
	movq	%rsp, %rbp
	.cfi_def_cfa_register %rbp
	subq	$96, %rsp
	movl	$1586465250, -32(%rbp)  # imm = 0x5E8F89E2
	movq	%rdi, -8(%rbp)
	movl	%esi, -84(%rbp)
	movq	.L__const.GenerateSequenceParameterSet.SubWidthC, %rax
	movq	%rax, -80(%rbp)
	movq	.L__const.GenerateSequenceParameterSet.SubWidthC+8, %rax
	movq	%rax, -72(%rbp)
	movq	.L__const.GenerateSequenceParameterSet.SubHeightC, %rax
	movq	%rax, -64(%rbp)
	movq	.L__const.GenerateSequenceParameterSet.SubHeightC+8, %rax
	movq	%rax, -56(%rbp)
	callq	IdentifyProfile
	cmpl	$100, %eax
	movb	$1, %al
	je	.LBB30_4
# %bb.1:                                # %lor.lhs.false
	callq	IdentifyProfile
	cmpl	$110, %eax
	movb	$1, %al
	je	.LBB30_4
# %bb.2:                                # %lor.lhs.false3
	callq	IdentifyProfile
	cmpl	$122, %eax
	movb	$1, %al
	je	.LBB30_4
# %bb.3:                                # %lor.rhs
	callq	IdentifyProfile
	cmpl	$144, %eax
	sete	%al
.LBB30_4:                               # %lor.end
	andb	$1, %al
	movzbl	%al, %eax
	movl	%eax, -16(%rbp)
	callq	IdentifyProfile
	movq	-8(%rbp), %rcx
	movl	%eax, 4(%rcx)
	callq	IdentifyLevel
	movq	-8(%rbp), %rcx
	movl	%eax, 24(%rcx)
	movq	-8(%rbp), %rax
	movl	$0, 8(%rax)
	movq	-8(%rbp), %rax
	movl	$0, 12(%rax)
	movq	-8(%rbp), %rax
	movl	$0, 16(%rax)
	movq	-8(%rbp), %rax
	movl	$0, 20(%rax)
	movq	-8(%rbp), %rax
	movl	$0, 28(%rax)
	movq	input, %rax
	movl	3296(%rax), %eax
	subl	$8, %eax
	movq	-8(%rbp), %rcx
	movl	%eax, 72(%rcx)
	movq	input, %rax
	movl	3300(%rax), %eax
	subl	$8, %eax
	movq	-8(%rbp), %rcx
	movl	%eax, 76(%rcx)
	movq	input, %rax
	movl	3324(%rax), %eax
	movq	-8(%rbp), %rcx
	cmpl	$144, 4(%rcx)
	sete	%cl
	andb	$1, %cl
	movzbl	%cl, %ecx
	andl	%ecx, %eax
	movq	img, %rcx
	movl	%eax, 72704(%rcx)
	movq	input, %rax
	movl	3328(%rax), %eax
	movq	img, %rcx
	movl	%eax, 72724(%rcx)
	movl	log2_max_frame_num_minus4, %eax
	movq	-8(%rbp), %rcx
	movl	%eax, 80(%rcx)
	movl	log2_max_pic_order_cnt_lsb_minus4, %eax
	movq	-8(%rbp), %rcx
	movl	%eax, 88(%rcx)
	movq	input, %rax
	movl	3208(%rax), %eax
	movq	-8(%rbp), %rcx
	movl	%eax, 84(%rcx)
	movq	img, %rax
	movl	72420(%rax), %eax
	movq	-8(%rbp), %rcx
	movl	%eax, 104(%rcx)
	movq	img, %rax
	movl	72408(%rax), %eax
	movq	-8(%rbp), %rcx
	movl	%eax, 92(%rcx)
	movq	img, %rax
	movl	72412(%rax), %eax
	movq	-8(%rbp), %rcx
	movl	%eax, 96(%rcx)
	movq	img, %rax
	movl	72416(%rax), %eax
	movq	-8(%rbp), %rcx
	movl	%eax, 100(%rcx)
	movl	$0, -12(%rbp)
.LBB30_5:                               # %for.cond
                                        # =>This Inner Loop Header: Depth=1
	movl	-12(%rbp), %eax
	movq	img, %rcx
	cmpl	72420(%rcx), %eax
	jae	.LBB30_8
# %bb.6:                                # %for.body
                                        #   in Loop: Header=BB30_5 Depth=1
	movq	img, %rax
	movl	-12(%rbp), %ecx
	movl	72424(%rax,%rcx,4), %eax
	movq	-8(%rbp), %rcx
	movl	-12(%rbp), %edx
	movl	%eax, 108(%rcx,%rdx,4)
# %bb.7:                                # %for.inc
                                        #   in Loop: Header=BB30_5 Depth=1
	movl	-12(%rbp), %eax
	addl	$1, %eax
	movl	%eax, -12(%rbp)
	jmp	.LBB30_5
.LBB30_8:                               # %for.end
	movq	input, %rax
	movl	36(%rax), %eax
	movq	-8(%rbp), %rcx
	movl	%eax, 1132(%rcx)
	movq	-8(%rbp), %rax
	movl	$0, 1136(%rax)
	movq	input, %rax
	cmpl	$0, 2880(%rax)
	movb	$1, %al
	jne	.LBB30_10
# %bb.9:                                # %lor.rhs26
	movq	input, %rax
	cmpl	$0, 2884(%rax)
	setne	%al
.LBB30_10:                              # %lor.end28
	xorl	%ecx, %ecx
	xorl	%esi, %esi
	xorb	$-1, %al
	andb	$1, %al
	movzbl	%al, %eax
	movq	-8(%rbp), %rdx
	movl	%eax, 1148(%rdx)
	movq	input, %rax
	movl	64(%rax), %eax
	movq	img, %rdx
	addl	72728(%rdx), %eax
	cltd
	movl	$16, %edi
	idivl	%edi
	subl	$1, %eax
	movq	-8(%rbp), %rdx
	movl	%eax, 1140(%rdx)
	movq	input, %rax
	movl	68(%rax), %eax
	movq	img, %rdx
	addl	72732(%rdx), %eax
	cltd
	idivl	%edi
	movq	-8(%rbp), %rdx
	movl	$2, %edi
	subl	1148(%rdx), %edi
	xorl	%edx, %edx
	divl	%edi
	subl	$1, %eax
	movq	-8(%rbp), %rdx
	movl	%eax, 1144(%rdx)
	movq	input, %rax
	cmpl	2884(%rax), %esi
	setne	%al
	andb	$1, %al
	movzbl	%al, %eax
	movq	-8(%rbp), %rdx
	movl	%eax, 1152(%rdx)
	movq	input, %rax
	movl	1252(%rax), %eax
	movq	-8(%rbp), %rdx
	movl	%eax, 1156(%rdx)
	movq	input, %rax
	cmpl	$0, 3312(%rax)
	je	.LBB30_12
# %bb.11:                               # %land.rhs
	movq	input, %rax
	cmpl	$3, 72(%rax)
	sete	%cl
.LBB30_12:                              # %land.end
	andb	$1, %cl
	movzbl	%cl, %eax
	movq	-8(%rbp), %rcx
	movl	%eax, 1180(%rcx)
	movq	input, %rax
	movl	72(%rax), %eax
	movq	-8(%rbp), %rcx
	movl	%eax, 32(%rcx)
	movq	-8(%rbp), %rax
	movl	1140(%rax), %eax
	addl	$1, %eax
	movl	%eax, -24(%rbp)
	movq	-8(%rbp), %rax
	movl	1144(%rax), %eax
	addl	$1, %eax
	movl	%eax, -20(%rbp)
	movq	-8(%rbp), %rax
	movl	$2, %ecx
	subl	1148(%rax), %ecx
	imull	-20(%rbp), %ecx
	movl	%ecx, -40(%rbp)
	movl	-24(%rbp), %eax
	shll	$4, %eax
	movl	%eax, -36(%rbp)
	movl	-40(%rbp), %eax
	shll	$4, %eax
	movl	%eax, -28(%rbp)
	movl	-36(%rbp), %edi
	movl	-28(%rbp), %esi
	movq	-8(%rbp), %rax
	movl	1152(%rax), %edx
	callq	alloc_colocated
	movq	%rax, Co_located
	cmpl	$0, -16(%rbp)
	je	.LBB30_24
# %bb.13:                               # %if.then
	movq	input, %rax
	movl	3256(%rax), %eax
	andl	$1, %eax
	movq	-8(%rbp), %rcx
	movl	%eax, 36(%rcx)
	movl	$0, -12(%rbp)
.LBB30_14:                              # %for.cond56
                                        # =>This Inner Loop Header: Depth=1
	cmpl	$8, -12(%rbp)
	jae	.LBB30_23
# %bb.15:                               # %for.body59
                                        #   in Loop: Header=BB30_14 Depth=1
	cmpl	$6, -12(%rbp)
	jae	.LBB30_17
# %bb.16:                               # %if.then62
                                        #   in Loop: Header=BB30_14 Depth=1
	movq	input, %rax
	movl	-12(%rbp), %ecx
	movl	3260(%rax,%rcx,4), %eax
	andl	$1, %eax
	movq	-8(%rbp), %rcx
	movl	-12(%rbp), %edx
	movl	%eax, 40(%rcx,%rdx,4)
	jmp	.LBB30_21
.LBB30_17:                              # %if.else
                                        #   in Loop: Header=BB30_14 Depth=1
	movq	input, %rax
	cmpl	$0, 3220(%rax)
	je	.LBB30_19
# %bb.18:                               # %if.then69
                                        #   in Loop: Header=BB30_14 Depth=1
	movq	input, %rax
	movl	-12(%rbp), %ecx
	movl	3260(%rax,%rcx,4), %eax
	andl	$1, %eax
	movq	-8(%rbp), %rcx
	movl	-12(%rbp), %edx
	movl	%eax, 40(%rcx,%rdx,4)
	jmp	.LBB30_20
.LBB30_19:                              # %if.else77
                                        #   in Loop: Header=BB30_14 Depth=1
	movq	-8(%rbp), %rax
	movl	-12(%rbp), %ecx
	movl	$0, 40(%rax,%rcx,4)
.LBB30_20:                              # %if.end
                                        #   in Loop: Header=BB30_14 Depth=1
	jmp	.LBB30_21
.LBB30_21:                              # %if.end81
                                        #   in Loop: Header=BB30_14 Depth=1
	jmp	.LBB30_22
.LBB30_22:                              # %for.inc82
                                        #   in Loop: Header=BB30_14 Depth=1
	movl	-12(%rbp), %eax
	addl	$1, %eax
	movl	%eax, -12(%rbp)
	jmp	.LBB30_14
.LBB30_23:                              # %for.end84
	jmp	.LBB30_29
.LBB30_24:                              # %if.else85
	movq	-8(%rbp), %rax
	movl	$0, 36(%rax)
	movl	$0, -12(%rbp)
.LBB30_25:                              # %for.cond87
                                        # =>This Inner Loop Header: Depth=1
	cmpl	$8, -12(%rbp)
	jae	.LBB30_28
# %bb.26:                               # %for.body90
                                        #   in Loop: Header=BB30_25 Depth=1
	movq	-8(%rbp), %rax
	movl	-12(%rbp), %ecx
	movl	$0, 40(%rax,%rcx,4)
# %bb.27:                               # %for.inc94
                                        #   in Loop: Header=BB30_25 Depth=1
	movl	-12(%rbp), %eax
	addl	$1, %eax
	movl	%eax, -12(%rbp)
	jmp	.LBB30_25
.LBB30_28:                              # %for.end96
	jmp	.LBB30_29
.LBB30_29:                              # %if.end97
	movq	img, %rax
	cmpl	$0, 72728(%rax)
	jne	.LBB30_31
# %bb.30:                               # %lor.lhs.false100
	movq	img, %rax
	cmpl	$0, 72732(%rax)
	je	.LBB30_36
.LBB30_31:                              # %if.then103
	movq	-8(%rbp), %rax
	movl	$1, 1160(%rax)
	movq	-8(%rbp), %rax
	movl	$0, 1164(%rax)
	movq	-8(%rbp), %rax
	movl	$0, 1172(%rax)
	movq	img, %rax
	movl	72728(%rax), %eax
	movq	-8(%rbp), %rcx
	movl	32(%rcx), %ecx
	cltd
	idivl	-80(%rbp,%rcx,4)
	movq	-8(%rbp), %rcx
	movl	%eax, 1168(%rcx)
	movq	img, %rax
	movl	72732(%rax), %eax
	movq	-8(%rbp), %rcx
	movl	32(%rcx), %ecx
	movl	-64(%rbp,%rcx,4), %ecx
	movq	-8(%rbp), %rdx
	movl	$2, %esi
	subl	1148(%rdx), %esi
	imull	%esi, %ecx
	xorl	%edx, %edx
	divl	%ecx
	movq	-8(%rbp), %rcx
	movl	%eax, 1176(%rcx)
	movq	img, %rax
	movl	72728(%rax), %eax
	movq	-8(%rbp), %rcx
	movl	32(%rcx), %ecx
	cltd
	idivl	-80(%rbp,%rcx,4)
	cmpl	$0, %edx
	je	.LBB30_33
# %bb.32:                               # %if.then122
	movabsq	$.L.str, %rdi
	movl	$500, %esi              # imm = 0x1F4
	callq	error
.LBB30_33:                              # %if.end123
	movq	img, %rax
	movl	72732(%rax), %eax
	movq	-8(%rbp), %rcx
	movl	32(%rcx), %ecx
	movl	-64(%rbp,%rcx,4), %ecx
	movq	-8(%rbp), %rdx
	movl	$2, %esi
	subl	1148(%rdx), %esi
	imull	%esi, %ecx
	xorl	%edx, %edx
	divl	%ecx
	cmpl	$0, %edx
	je	.LBB30_35
# %bb.34:                               # %if.then133
	movabsq	$.L.str.1, %rdi
	movl	$500, %esi              # imm = 0x1F4
	callq	error
.LBB30_35:                              # %if.end134
	jmp	.LBB30_37
.LBB30_36:                              # %if.else135
	movq	-8(%rbp), %rax
	movl	$0, 1160(%rax)
.LBB30_37:                              # %if.end137
	cmpl	$1586465250, -32(%rbp)  # imm = 0x5E8F89E2
	jne	.LBB30_39
.LBB30_38:
	addq	$96, %rsp
	popq	%rbp
	.cfi_def_cfa %rsp, 8
	retq
.LBB30_39:                              # %func_exit
	.cfi_def_cfa %rbp, 16
	callq	detect_breach
	jmp	.LBB30_38
.Lfunc_end30:
	.size	GenerateSequenceParameterSet.19, .Lfunc_end30-GenerateSequenceParameterSet.19
	.cfi_endproc
                                        # -- End function
	.globl	GeneratePictureParameterSet.20 # -- Begin function GeneratePictureParameterSet.20
	.p2align	4, 0x90
	.type	GeneratePictureParameterSet.20,@function
GeneratePictureParameterSet.20:         # @GeneratePictureParameterSet.20
	.cfi_startproc
# %bb.0:                                # %entry
	pushq	%rbp
	.cfi_def_cfa_offset 16
	.cfi_offset %rbp, -16
	movq	%rsp, %rbp
	.cfi_def_cfa_register %rbp
	subq	$48, %rsp
	movl	16(%rbp), %eax
	movl	$1398937369, -36(%rbp)  # imm = 0x53621719
	movq	%rdi, -16(%rbp)
	movq	%rsi, -24(%rbp)
	movl	%edx, -44(%rbp)
	movl	%ecx, -48(%rbp)
	movl	%r8d, -40(%rbp)
	movl	%r9d, -32(%rbp)
	callq	IdentifyProfile
	cmpl	$100, %eax
	movb	$1, %al
	je	.LBB31_4
# %bb.1:                                # %lor.lhs.false
	callq	IdentifyProfile
	cmpl	$110, %eax
	movb	$1, %al
	je	.LBB31_4
# %bb.2:                                # %lor.lhs.false3
	callq	IdentifyProfile
	cmpl	$122, %eax
	movb	$1, %al
	je	.LBB31_4
# %bb.3:                                # %lor.rhs
	callq	IdentifyProfile
	cmpl	$144, %eax
	sete	%al
.LBB31_4:                               # %lor.end
	xorl	%ecx, %ecx
	andb	$1, %al
	movzbl	%al, %eax
	movl	%eax, -28(%rbp)
	movq	-24(%rbp), %rax
	movl	28(%rax), %eax
	movq	-16(%rbp), %rdx
	movl	%eax, 8(%rdx)
	movl	-44(%rbp), %eax
	movq	-16(%rbp), %rdx
	movl	%eax, 4(%rdx)
	movq	input, %rax
	movl	2356(%rax), %eax
	cmpl	$0, %eax
	movl	$1, %eax
	cmovel	%ecx, %eax
	movq	-16(%rbp), %rcx
	movl	%eax, 12(%rcx)
	cmpl	$0, -28(%rbp)
	je	.LBB31_16
# %bb.5:                                # %if.then
	xorl	%eax, %eax
	movq	input, %rcx
	movl	3220(%rcx), %ecx
	cmpl	$0, %ecx
	movl	$1, %ecx
	cmovnel	%ecx, %eax
	movq	-16(%rbp), %rcx
	movl	%eax, 16(%rcx)
	movq	input, %rax
	movl	3256(%rax), %eax
	andl	$2, %eax
	sarl	$1, %eax
	movq	-16(%rbp), %rcx
	movl	%eax, 20(%rcx)
	movl	$0, -4(%rbp)
.LBB31_6:                               # %for.cond
                                        # =>This Inner Loop Header: Depth=1
	cmpl	$8, -4(%rbp)
	jae	.LBB31_15
# %bb.7:                                # %for.body
                                        #   in Loop: Header=BB31_6 Depth=1
	cmpl	$6, -4(%rbp)
	jae	.LBB31_9
# %bb.8:                                # %if.then14
                                        #   in Loop: Header=BB31_6 Depth=1
	movq	input, %rax
	movl	-4(%rbp), %ecx
	movl	3260(%rax,%rcx,4), %eax
	andl	$2, %eax
	sarl	$1, %eax
	movq	-16(%rbp), %rcx
	movl	-4(%rbp), %edx
	movl	%eax, 24(%rcx,%rdx,4)
	jmp	.LBB31_13
.LBB31_9:                               # %if.else
                                        #   in Loop: Header=BB31_6 Depth=1
	movq	-16(%rbp), %rax
	cmpl	$0, 16(%rax)
	je	.LBB31_11
# %bb.10:                               # %if.then21
                                        #   in Loop: Header=BB31_6 Depth=1
	movq	input, %rax
	movl	-4(%rbp), %ecx
	movl	3260(%rax,%rcx,4), %eax
	andl	$2, %eax
	sarl	$1, %eax
	movq	-16(%rbp), %rcx
	movl	-4(%rbp), %edx
	movl	%eax, 24(%rcx,%rdx,4)
	jmp	.LBB31_12
.LBB31_11:                              # %if.else30
                                        #   in Loop: Header=BB31_6 Depth=1
	movq	-16(%rbp), %rax
	movl	-4(%rbp), %ecx
	movl	$0, 24(%rax,%rcx,4)
.LBB31_12:                              # %if.end
                                        #   in Loop: Header=BB31_6 Depth=1
	jmp	.LBB31_13
.LBB31_13:                              # %if.end34
                                        #   in Loop: Header=BB31_6 Depth=1
	jmp	.LBB31_14
.LBB31_14:                              # %for.inc
                                        #   in Loop: Header=BB31_6 Depth=1
	movl	-4(%rbp), %eax
	addl	$1, %eax
	movl	%eax, -4(%rbp)
	jmp	.LBB31_6
.LBB31_15:                              # %for.end
	jmp	.LBB31_21
.LBB31_16:                              # %if.else35
	movq	-16(%rbp), %rax
	movl	$0, 20(%rax)
	movl	$0, -4(%rbp)
.LBB31_17:                              # %for.cond37
                                        # =>This Inner Loop Header: Depth=1
	cmpl	$8, -4(%rbp)
	jae	.LBB31_20
# %bb.18:                               # %for.body39
                                        #   in Loop: Header=BB31_17 Depth=1
	movq	-16(%rbp), %rax
	movl	-4(%rbp), %ecx
	movl	$0, 24(%rax,%rcx,4)
# %bb.19:                               # %for.inc43
                                        #   in Loop: Header=BB31_17 Depth=1
	movl	-4(%rbp), %eax
	addl	$1, %eax
	movl	%eax, -4(%rbp)
	jmp	.LBB31_17
.LBB31_20:                              # %for.end45
	movq	input, %rax
	movl	$0, 3220(%rax)
	movq	-16(%rbp), %rax
	movl	$0, 16(%rax)
.LBB31_21:                              # %if.end48
	movq	img, %rax
	movl	72492(%rax), %eax
	movq	-16(%rbp), %rcx
	movl	%eax, 56(%rcx)
	movq	input, %rax
	movl	3152(%rax), %eax
	movq	-16(%rbp), %rcx
	movl	%eax, 60(%rcx)
	movq	-16(%rbp), %rax
	cmpl	$0, 60(%rax)
	jbe	.LBB31_43
# %bb.22:                               # %if.then53
	movq	input(%rip), %rax
	movl	3156(%rax), %eax
	movq	%rax, %rcx
	subq	$6, %rcx
	ja	.LBB31_41
# %bb.23:                               # %if.then53
	movq	.LJTI31_0(,%rax,8), %rax
	jmpq	*%rax
.LBB31_24:                              # %sw.bb
	movq	-16(%rbp), %rax
	movl	$0, 64(%rax)
	movl	$0, -4(%rbp)
.LBB31_25:                              # %for.cond55
                                        # =>This Inner Loop Header: Depth=1
	movl	-4(%rbp), %eax
	movq	-16(%rbp), %rcx
	cmpl	60(%rcx), %eax
	ja	.LBB31_28
# %bb.26:                               # %for.body58
                                        #   in Loop: Header=BB31_25 Depth=1
	movq	input, %rax
	movq	3184(%rax), %rax
	movl	-4(%rbp), %ecx
	movl	(%rax,%rcx,4), %eax
	movq	-16(%rbp), %rcx
	movl	-4(%rbp), %edx
	movl	%eax, 68(%rcx,%rdx,4)
# %bb.27:                               # %for.inc64
                                        #   in Loop: Header=BB31_25 Depth=1
	movl	-4(%rbp), %eax
	addl	$1, %eax
	movl	%eax, -4(%rbp)
	jmp	.LBB31_25
.LBB31_28:                              # %for.end66
	jmp	.LBB31_42
.LBB31_29:                              # %sw.bb67
	movq	-16(%rbp), %rax
	movl	$1, 64(%rax)
	jmp	.LBB31_42
.LBB31_30:                              # %sw.bb69
	movq	-16(%rbp), %rax
	movl	$2, 64(%rax)
	movl	$0, -4(%rbp)
.LBB31_31:                              # %for.cond71
                                        # =>This Inner Loop Header: Depth=1
	movl	-4(%rbp), %eax
	movq	-16(%rbp), %rcx
	cmpl	60(%rcx), %eax
	jae	.LBB31_34
# %bb.32:                               # %for.body74
                                        #   in Loop: Header=BB31_31 Depth=1
	movq	input, %rax
	movq	3160(%rax), %rax
	movl	-4(%rbp), %ecx
	movl	(%rax,%rcx,4), %eax
	movq	-16(%rbp), %rcx
	movl	-4(%rbp), %edx
	movl	%eax, 100(%rcx,%rdx,4)
	movq	input, %rax
	movq	3168(%rax), %rax
	movl	-4(%rbp), %ecx
	movl	(%rax,%rcx,4), %eax
	movq	-16(%rbp), %rcx
	movl	-4(%rbp), %edx
	movl	%eax, 132(%rcx,%rdx,4)
# %bb.33:                               # %for.inc85
                                        #   in Loop: Header=BB31_31 Depth=1
	movl	-4(%rbp), %eax
	addl	$1, %eax
	movl	%eax, -4(%rbp)
	jmp	.LBB31_31
.LBB31_34:                              # %for.end87
	jmp	.LBB31_42
.LBB31_35:                              # %sw.bb88
	movq	input, %rax
	movl	3156(%rax), %eax
	movq	-16(%rbp), %rcx
	movl	%eax, 64(%rcx)
	movq	input, %rax
	movl	3192(%rax), %eax
	movq	-16(%rbp), %rcx
	movl	%eax, 164(%rcx)
	movq	input, %rax
	movl	3196(%rax), %eax
	movq	-16(%rbp), %rcx
	movl	%eax, 168(%rcx)
	jmp	.LBB31_42
.LBB31_36:                              # %sw.bb93
	movq	-16(%rbp), %rax
	movl	$6, 64(%rax)
	movq	input, %rax
	movl	68(%rax), %eax
	movq	img, %rcx
	addl	72732(%rcx), %eax
	cltd
	movl	$16, %esi
	idivl	%esi
	movq	-24(%rbp), %rcx
	movl	$2, %edi
	subl	1148(%rcx), %edi
	xorl	%edx, %edx
	divl	%edi
	movl	%eax, %ecx
	movq	input, %rax
	movl	64(%rax), %eax
	movq	img, %rdx
	addl	72728(%rdx), %eax
	cltd
	idivl	%esi
	imull	%eax, %ecx
	subl	$1, %ecx
	movq	-16(%rbp), %rax
	movl	%ecx, 172(%rax)
	movl	$0, -4(%rbp)
.LBB31_37:                              # %for.cond99
                                        # =>This Inner Loop Header: Depth=1
	movl	-4(%rbp), %eax
	movq	-16(%rbp), %rcx
	cmpl	172(%rcx), %eax
	ja	.LBB31_40
# %bb.38:                               # %for.body102
                                        #   in Loop: Header=BB31_37 Depth=1
	movq	input, %rax
	movq	3176(%rax), %rax
	movl	-4(%rbp), %ecx
	movb	(%rax,%rcx), %al
	movq	-16(%rbp), %rcx
	movq	176(%rcx), %rcx
	movl	-4(%rbp), %edx
	movb	%al, (%rcx,%rdx)
# %bb.39:                               # %for.inc108
                                        #   in Loop: Header=BB31_37 Depth=1
	movl	-4(%rbp), %eax
	addl	$1, %eax
	movl	%eax, -4(%rbp)
	jmp	.LBB31_37
.LBB31_40:                              # %for.end110
	jmp	.LBB31_42
.LBB31_41:                              # %sw.default
	movabsq	$.L.str.2, %rdi
	movb	$0, %al
	callq	printf
.LBB31_42:                              # %sw.epilog
	jmp	.LBB31_43
.LBB31_43:                              # %if.end112
	movq	-24(%rbp), %rax
	cmpl	$0, 1148(%rax)
	je	.LBB31_45
# %bb.44:                               # %cond.true
	movq	-24(%rbp), %rax
	movl	1132(%rax), %eax
	subl	$1, %eax
	jmp	.LBB31_46
.LBB31_45:                              # %cond.false
	movq	-24(%rbp), %rax
	movl	1132(%rax), %eax
	shll	$1, %eax
	subl	$1, %eax
.LBB31_46:                              # %cond.end
	movq	-16(%rbp), %rcx
	movl	%eax, 184(%rcx)
	movq	-24(%rbp), %rax
	cmpl	$0, 1148(%rax)
	je	.LBB31_48
# %bb.47:                               # %cond.true122
	movq	-24(%rbp), %rax
	movl	1132(%rax), %eax
	subl	$1, %eax
	jmp	.LBB31_49
.LBB31_48:                              # %cond.false125
	movq	-24(%rbp), %rax
	movl	1132(%rax), %eax
	shll	$1, %eax
	subl	$1, %eax
.LBB31_49:                              # %cond.end129
	movq	-16(%rbp), %rcx
	movl	%eax, 188(%rcx)
	movl	-48(%rbp), %eax
	movq	-16(%rbp), %rcx
	movl	%eax, 192(%rcx)
	movl	-40(%rbp), %eax
	movq	-16(%rbp), %rcx
	movl	%eax, 196(%rcx)
	movq	-16(%rbp), %rax
	movl	$0, 200(%rax)
	movq	-16(%rbp), %rax
	movl	$0, 204(%rax)
	movl	-32(%rbp), %eax
	movq	-16(%rbp), %rcx
	movl	%eax, 208(%rcx)
	cmpl	$0, -28(%rbp)
	je	.LBB31_51
# %bb.50:                               # %if.then132
	movl	-32(%rbp), %eax
	movq	-16(%rbp), %rcx
	movl	%eax, 212(%rcx)
	movl	16(%rbp), %eax
	movq	-16(%rbp), %rcx
	movl	%eax, 216(%rcx)
	jmp	.LBB31_52
.LBB31_51:                              # %if.else135
	movq	-16(%rbp), %rax
	movl	208(%rax), %eax
	movq	-16(%rbp), %rcx
	movl	%eax, 216(%rcx)
	movq	-16(%rbp), %rcx
	movl	%eax, 212(%rcx)
.LBB31_52:                              # %if.end139
	movq	input, %rax
	movl	2924(%rax), %eax
	movq	-16(%rbp), %rcx
	movl	%eax, 220(%rcx)
	movq	input, %rax
	movl	216(%rax), %eax
	movq	-16(%rbp), %rcx
	movl	%eax, 224(%rcx)
	movq	-16(%rbp), %rax
	movl	$0, 228(%rax)
	cmpl	$1398937369, -36(%rbp)  # imm = 0x53621719
	jne	.LBB31_54
.LBB31_53:
	addq	$48, %rsp
	popq	%rbp
	.cfi_def_cfa %rsp, 8
	retq
.LBB31_54:                              # %func_exit
	.cfi_def_cfa %rbp, 16
	callq	detect_breach
	jmp	.LBB31_53
.Lfunc_end31:
	.size	GeneratePictureParameterSet.20, .Lfunc_end31-GeneratePictureParameterSet.20
	.cfi_endproc
	.section	.rodata,"a",@progbits
	.p2align	3
.LJTI31_0:
	.quad	.LBB31_24
	.quad	.LBB31_29
	.quad	.LBB31_30
	.quad	.LBB31_35
	.quad	.LBB31_35
	.quad	.LBB31_35
	.quad	.LBB31_36
                                        # -- End function
	.text
	.globl	Scaling_List.21         # -- Begin function Scaling_List.21
	.p2align	4, 0x90
	.type	Scaling_List.21,@function
Scaling_List.21:                        # @Scaling_List.21
	.cfi_startproc
# %bb.0:                                # %entry
	pushq	%rbp
	.cfi_def_cfa_offset 16
	.cfi_offset %rbp, -16
	movq	%rsp, %rbp
	.cfi_def_cfa_register %rbp
	pushq	%rbx
	subq	$72, %rsp
	.cfi_offset %rbx, -24
	movl	$7258002, -40(%rbp)     # imm = 0x6EBF92
	movq	%rdi, -48(%rbp)
	movq	%rsi, -56(%rbp)
	movl	%edx, -36(%rbp)
	movq	%rcx, -64(%rbp)
	movq	%r8, -72(%rbp)
	movl	$0, -32(%rbp)
	movl	$8, -28(%rbp)
	movl	$8, -20(%rbp)
	movl	$0, -24(%rbp)
.LBB32_1:                               # %for.cond
                                        # =>This Inner Loop Header: Depth=1
	movl	-24(%rbp), %eax
	cmpl	-36(%rbp), %eax
	jge	.LBB32_19
# %bb.2:                                # %for.body
                                        #   in Loop: Header=BB32_1 Depth=1
	cmpl	$16, -36(%rbp)
	jne	.LBB32_4
# %bb.3:                                # %cond.true
                                        #   in Loop: Header=BB32_1 Depth=1
	movslq	-24(%rbp), %rax
	movzbl	ZZ_SCAN(,%rax), %eax
	jmp	.LBB32_5
.LBB32_4:                               # %cond.false
                                        #   in Loop: Header=BB32_1 Depth=1
	movslq	-24(%rbp), %rax
	movzbl	ZZ_SCAN8(,%rax), %eax
.LBB32_5:                               # %cond.end
                                        #   in Loop: Header=BB32_1 Depth=1
	movl	%eax, -16(%rbp)
	cmpl	$0, -20(%rbp)
	je	.LBB32_14
# %bb.6:                                # %if.then
                                        #   in Loop: Header=BB32_1 Depth=1
	movq	-48(%rbp), %rax
	movslq	-16(%rbp), %rcx
	movswl	(%rax,%rcx,2), %eax
	subl	-28(%rbp), %eax
	movl	%eax, -12(%rbp)
	cmpl	$127, -12(%rbp)
	jle	.LBB32_8
# %bb.7:                                # %if.then12
                                        #   in Loop: Header=BB32_1 Depth=1
	movl	-12(%rbp), %eax
	subl	$256, %eax              # imm = 0x100
	movl	%eax, -12(%rbp)
	jmp	.LBB32_11
.LBB32_8:                               # %if.else
                                        #   in Loop: Header=BB32_1 Depth=1
	cmpl	$-128, -12(%rbp)
	jge	.LBB32_10
# %bb.9:                                # %if.then16
                                        #   in Loop: Header=BB32_1 Depth=1
	movl	-12(%rbp), %eax
	addl	$256, %eax              # imm = 0x100
	movl	%eax, -12(%rbp)
.LBB32_10:                              # %if.end
                                        #   in Loop: Header=BB32_1 Depth=1
	jmp	.LBB32_11
.LBB32_11:                              # %if.end17
                                        #   in Loop: Header=BB32_1 Depth=1
	movl	-12(%rbp), %esi
	movq	-72(%rbp), %rdx
	movabsq	$.L.str.3, %rdi
	callq	se_v
	xorl	%ecx, %ecx
	addl	-32(%rbp), %eax
	movl	%eax, -32(%rbp)
	movq	-48(%rbp), %rax
	movslq	-16(%rbp), %rdx
	movswl	(%rax,%rdx,2), %eax
	movl	%eax, -20(%rbp)
	cmpl	$0, -16(%rbp)
	jne	.LBB32_13
# %bb.12:                               # %land.rhs
                                        #   in Loop: Header=BB32_1 Depth=1
	cmpl	$0, -20(%rbp)
	sete	%cl
.LBB32_13:                              # %land.end
                                        #   in Loop: Header=BB32_1 Depth=1
	andb	$1, %cl
	movzbl	%cl, %eax
	movq	-64(%rbp), %rcx
	movswl	(%rcx), %edx
	orl	%eax, %edx
	movw	%dx, (%rcx)
.LBB32_14:                              # %if.end28
                                        #   in Loop: Header=BB32_1 Depth=1
	cmpl	$0, -20(%rbp)
	jne	.LBB32_16
# %bb.15:                               # %cond.true31
                                        #   in Loop: Header=BB32_1 Depth=1
	movl	-28(%rbp), %eax
	jmp	.LBB32_17
.LBB32_16:                              # %cond.false32
                                        #   in Loop: Header=BB32_1 Depth=1
	movl	-20(%rbp), %eax
.LBB32_17:                              # %cond.end33
                                        #   in Loop: Header=BB32_1 Depth=1
	movq	-56(%rbp), %rcx
	movslq	-16(%rbp), %rdx
	movw	%ax, (%rcx,%rdx,2)
	movq	-56(%rbp), %rax
	movslq	-16(%rbp), %rcx
	movswl	(%rax,%rcx,2), %eax
	movl	%eax, -28(%rbp)
# %bb.18:                               # %for.inc
                                        #   in Loop: Header=BB32_1 Depth=1
	movl	-24(%rbp), %eax
	addl	$1, %eax
	movl	%eax, -24(%rbp)
	jmp	.LBB32_1
.LBB32_19:                              # %for.end
	movl	-32(%rbp), %ebx
	cmpl	$7258002, -40(%rbp)     # imm = 0x6EBF92
	jne	.LBB32_21
.LBB32_20:
	movl	%ebx, %eax
	addq	$72, %rsp
	popq	%rbx
	popq	%rbp
	.cfi_def_cfa %rsp, 8
	retq
.LBB32_21:                              # %func_exit
	.cfi_def_cfa %rbp, 16
	callq	detect_breach
	jmp	.LBB32_20
.Lfunc_end32:
	.size	Scaling_List.21, .Lfunc_end32-Scaling_List.21
	.cfi_endproc
                                        # -- End function
	.globl	GenerateSequenceParameterSet.22 # -- Begin function GenerateSequenceParameterSet.22
	.p2align	4, 0x90
	.type	GenerateSequenceParameterSet.22,@function
GenerateSequenceParameterSet.22:        # @GenerateSequenceParameterSet.22
	.cfi_startproc
# %bb.0:                                # %entry
	pushq	%rbp
	.cfi_def_cfa_offset 16
	.cfi_offset %rbp, -16
	movq	%rsp, %rbp
	.cfi_def_cfa_register %rbp
	subq	$96, %rsp
	movl	$1187678572, -32(%rbp)  # imm = 0x46CA896C
	movq	%rdi, -8(%rbp)
	movl	%esi, -84(%rbp)
	movq	.L__const.GenerateSequenceParameterSet.SubWidthC, %rax
	movq	%rax, -64(%rbp)
	movq	.L__const.GenerateSequenceParameterSet.SubWidthC+8, %rax
	movq	%rax, -56(%rbp)
	movq	.L__const.GenerateSequenceParameterSet.SubHeightC, %rax
	movq	%rax, -80(%rbp)
	movq	.L__const.GenerateSequenceParameterSet.SubHeightC+8, %rax
	movq	%rax, -72(%rbp)
	callq	IdentifyProfile
	cmpl	$100, %eax
	movb	$1, %al
	je	.LBB33_4
# %bb.1:                                # %lor.lhs.false
	callq	IdentifyProfile
	cmpl	$110, %eax
	movb	$1, %al
	je	.LBB33_4
# %bb.2:                                # %lor.lhs.false3
	callq	IdentifyProfile
	cmpl	$122, %eax
	movb	$1, %al
	je	.LBB33_4
# %bb.3:                                # %lor.rhs
	callq	IdentifyProfile
	cmpl	$144, %eax
	sete	%al
.LBB33_4:                               # %lor.end
	andb	$1, %al
	movzbl	%al, %eax
	movl	%eax, -36(%rbp)
	callq	IdentifyProfile
	movq	-8(%rbp), %rcx
	movl	%eax, 4(%rcx)
	callq	IdentifyLevel
	movq	-8(%rbp), %rcx
	movl	%eax, 24(%rcx)
	movq	-8(%rbp), %rax
	movl	$0, 8(%rax)
	movq	-8(%rbp), %rax
	movl	$0, 12(%rax)
	movq	-8(%rbp), %rax
	movl	$0, 16(%rax)
	movq	-8(%rbp), %rax
	movl	$0, 20(%rax)
	movq	-8(%rbp), %rax
	movl	$0, 28(%rax)
	movq	input, %rax
	movl	3296(%rax), %eax
	subl	$8, %eax
	movq	-8(%rbp), %rcx
	movl	%eax, 72(%rcx)
	movq	input, %rax
	movl	3300(%rax), %eax
	subl	$8, %eax
	movq	-8(%rbp), %rcx
	movl	%eax, 76(%rcx)
	movq	input, %rax
	movl	3324(%rax), %eax
	movq	-8(%rbp), %rcx
	cmpl	$144, 4(%rcx)
	sete	%cl
	andb	$1, %cl
	movzbl	%cl, %ecx
	andl	%ecx, %eax
	movq	img, %rcx
	movl	%eax, 72704(%rcx)
	movq	input, %rax
	movl	3328(%rax), %eax
	movq	img, %rcx
	movl	%eax, 72724(%rcx)
	movl	log2_max_frame_num_minus4, %eax
	movq	-8(%rbp), %rcx
	movl	%eax, 80(%rcx)
	movl	log2_max_pic_order_cnt_lsb_minus4, %eax
	movq	-8(%rbp), %rcx
	movl	%eax, 88(%rcx)
	movq	input, %rax
	movl	3208(%rax), %eax
	movq	-8(%rbp), %rcx
	movl	%eax, 84(%rcx)
	movq	img, %rax
	movl	72420(%rax), %eax
	movq	-8(%rbp), %rcx
	movl	%eax, 104(%rcx)
	movq	img, %rax
	movl	72408(%rax), %eax
	movq	-8(%rbp), %rcx
	movl	%eax, 92(%rcx)
	movq	img, %rax
	movl	72412(%rax), %eax
	movq	-8(%rbp), %rcx
	movl	%eax, 96(%rcx)
	movq	img, %rax
	movl	72416(%rax), %eax
	movq	-8(%rbp), %rcx
	movl	%eax, 100(%rcx)
	movl	$0, -12(%rbp)
.LBB33_5:                               # %for.cond
                                        # =>This Inner Loop Header: Depth=1
	movl	-12(%rbp), %eax
	movq	img, %rcx
	cmpl	72420(%rcx), %eax
	jae	.LBB33_8
# %bb.6:                                # %for.body
                                        #   in Loop: Header=BB33_5 Depth=1
	movq	img, %rax
	movl	-12(%rbp), %ecx
	movl	72424(%rax,%rcx,4), %eax
	movq	-8(%rbp), %rcx
	movl	-12(%rbp), %edx
	movl	%eax, 108(%rcx,%rdx,4)
# %bb.7:                                # %for.inc
                                        #   in Loop: Header=BB33_5 Depth=1
	movl	-12(%rbp), %eax
	addl	$1, %eax
	movl	%eax, -12(%rbp)
	jmp	.LBB33_5
.LBB33_8:                               # %for.end
	movq	input, %rax
	movl	36(%rax), %eax
	movq	-8(%rbp), %rcx
	movl	%eax, 1132(%rcx)
	movq	-8(%rbp), %rax
	movl	$0, 1136(%rax)
	movq	input, %rax
	cmpl	$0, 2880(%rax)
	movb	$1, %al
	jne	.LBB33_10
# %bb.9:                                # %lor.rhs26
	movq	input, %rax
	cmpl	$0, 2884(%rax)
	setne	%al
.LBB33_10:                              # %lor.end28
	xorl	%ecx, %ecx
	xorl	%esi, %esi
	xorb	$-1, %al
	andb	$1, %al
	movzbl	%al, %eax
	movq	-8(%rbp), %rdx
	movl	%eax, 1148(%rdx)
	movq	input, %rax
	movl	64(%rax), %eax
	movq	img, %rdx
	addl	72728(%rdx), %eax
	cltd
	movl	$16, %edi
	idivl	%edi
	subl	$1, %eax
	movq	-8(%rbp), %rdx
	movl	%eax, 1140(%rdx)
	movq	input, %rax
	movl	68(%rax), %eax
	movq	img, %rdx
	addl	72732(%rdx), %eax
	cltd
	idivl	%edi
	movq	-8(%rbp), %rdx
	movl	$2, %edi
	subl	1148(%rdx), %edi
	xorl	%edx, %edx
	divl	%edi
	subl	$1, %eax
	movq	-8(%rbp), %rdx
	movl	%eax, 1144(%rdx)
	movq	input, %rax
	cmpl	2884(%rax), %esi
	setne	%al
	andb	$1, %al
	movzbl	%al, %eax
	movq	-8(%rbp), %rdx
	movl	%eax, 1152(%rdx)
	movq	input, %rax
	movl	1252(%rax), %eax
	movq	-8(%rbp), %rdx
	movl	%eax, 1156(%rdx)
	movq	input, %rax
	cmpl	$0, 3312(%rax)
	je	.LBB33_12
# %bb.11:                               # %land.rhs
	movq	input, %rax
	cmpl	$3, 72(%rax)
	sete	%cl
.LBB33_12:                              # %land.end
	andb	$1, %cl
	movzbl	%cl, %eax
	movq	-8(%rbp), %rcx
	movl	%eax, 1180(%rcx)
	movq	input, %rax
	movl	72(%rax), %eax
	movq	-8(%rbp), %rcx
	movl	%eax, 32(%rcx)
	movq	-8(%rbp), %rax
	movl	1140(%rax), %eax
	addl	$1, %eax
	movl	%eax, -24(%rbp)
	movq	-8(%rbp), %rax
	movl	1144(%rax), %eax
	addl	$1, %eax
	movl	%eax, -40(%rbp)
	movq	-8(%rbp), %rax
	movl	$2, %ecx
	subl	1148(%rax), %ecx
	imull	-40(%rbp), %ecx
	movl	%ecx, -16(%rbp)
	movl	-24(%rbp), %eax
	shll	$4, %eax
	movl	%eax, -20(%rbp)
	movl	-16(%rbp), %eax
	shll	$4, %eax
	movl	%eax, -28(%rbp)
	movl	-20(%rbp), %edi
	movl	-28(%rbp), %esi
	movq	-8(%rbp), %rax
	movl	1152(%rax), %edx
	callq	alloc_colocated
	movq	%rax, Co_located
	cmpl	$0, -36(%rbp)
	je	.LBB33_24
# %bb.13:                               # %if.then
	movq	input, %rax
	movl	3256(%rax), %eax
	andl	$1, %eax
	movq	-8(%rbp), %rcx
	movl	%eax, 36(%rcx)
	movl	$0, -12(%rbp)
.LBB33_14:                              # %for.cond56
                                        # =>This Inner Loop Header: Depth=1
	cmpl	$8, -12(%rbp)
	jae	.LBB33_23
# %bb.15:                               # %for.body59
                                        #   in Loop: Header=BB33_14 Depth=1
	cmpl	$6, -12(%rbp)
	jae	.LBB33_17
# %bb.16:                               # %if.then62
                                        #   in Loop: Header=BB33_14 Depth=1
	movq	input, %rax
	movl	-12(%rbp), %ecx
	movl	3260(%rax,%rcx,4), %eax
	andl	$1, %eax
	movq	-8(%rbp), %rcx
	movl	-12(%rbp), %edx
	movl	%eax, 40(%rcx,%rdx,4)
	jmp	.LBB33_21
.LBB33_17:                              # %if.else
                                        #   in Loop: Header=BB33_14 Depth=1
	movq	input, %rax
	cmpl	$0, 3220(%rax)
	je	.LBB33_19
# %bb.18:                               # %if.then69
                                        #   in Loop: Header=BB33_14 Depth=1
	movq	input, %rax
	movl	-12(%rbp), %ecx
	movl	3260(%rax,%rcx,4), %eax
	andl	$1, %eax
	movq	-8(%rbp), %rcx
	movl	-12(%rbp), %edx
	movl	%eax, 40(%rcx,%rdx,4)
	jmp	.LBB33_20
.LBB33_19:                              # %if.else77
                                        #   in Loop: Header=BB33_14 Depth=1
	movq	-8(%rbp), %rax
	movl	-12(%rbp), %ecx
	movl	$0, 40(%rax,%rcx,4)
.LBB33_20:                              # %if.end
                                        #   in Loop: Header=BB33_14 Depth=1
	jmp	.LBB33_21
.LBB33_21:                              # %if.end81
                                        #   in Loop: Header=BB33_14 Depth=1
	jmp	.LBB33_22
.LBB33_22:                              # %for.inc82
                                        #   in Loop: Header=BB33_14 Depth=1
	movl	-12(%rbp), %eax
	addl	$1, %eax
	movl	%eax, -12(%rbp)
	jmp	.LBB33_14
.LBB33_23:                              # %for.end84
	jmp	.LBB33_29
.LBB33_24:                              # %if.else85
	movq	-8(%rbp), %rax
	movl	$0, 36(%rax)
	movl	$0, -12(%rbp)
.LBB33_25:                              # %for.cond87
                                        # =>This Inner Loop Header: Depth=1
	cmpl	$8, -12(%rbp)
	jae	.LBB33_28
# %bb.26:                               # %for.body90
                                        #   in Loop: Header=BB33_25 Depth=1
	movq	-8(%rbp), %rax
	movl	-12(%rbp), %ecx
	movl	$0, 40(%rax,%rcx,4)
# %bb.27:                               # %for.inc94
                                        #   in Loop: Header=BB33_25 Depth=1
	movl	-12(%rbp), %eax
	addl	$1, %eax
	movl	%eax, -12(%rbp)
	jmp	.LBB33_25
.LBB33_28:                              # %for.end96
	jmp	.LBB33_29
.LBB33_29:                              # %if.end97
	movq	img, %rax
	cmpl	$0, 72728(%rax)
	jne	.LBB33_31
# %bb.30:                               # %lor.lhs.false100
	movq	img, %rax
	cmpl	$0, 72732(%rax)
	je	.LBB33_36
.LBB33_31:                              # %if.then103
	movq	-8(%rbp), %rax
	movl	$1, 1160(%rax)
	movq	-8(%rbp), %rax
	movl	$0, 1164(%rax)
	movq	-8(%rbp), %rax
	movl	$0, 1172(%rax)
	movq	img, %rax
	movl	72728(%rax), %eax
	movq	-8(%rbp), %rcx
	movl	32(%rcx), %ecx
	cltd
	idivl	-64(%rbp,%rcx,4)
	movq	-8(%rbp), %rcx
	movl	%eax, 1168(%rcx)
	movq	img, %rax
	movl	72732(%rax), %eax
	movq	-8(%rbp), %rcx
	movl	32(%rcx), %ecx
	movl	-80(%rbp,%rcx,4), %ecx
	movq	-8(%rbp), %rdx
	movl	$2, %esi
	subl	1148(%rdx), %esi
	imull	%esi, %ecx
	xorl	%edx, %edx
	divl	%ecx
	movq	-8(%rbp), %rcx
	movl	%eax, 1176(%rcx)
	movq	img, %rax
	movl	72728(%rax), %eax
	movq	-8(%rbp), %rcx
	movl	32(%rcx), %ecx
	cltd
	idivl	-64(%rbp,%rcx,4)
	cmpl	$0, %edx
	je	.LBB33_33
# %bb.32:                               # %if.then122
	movabsq	$.L.str, %rdi
	movl	$500, %esi              # imm = 0x1F4
	callq	error
.LBB33_33:                              # %if.end123
	movq	img, %rax
	movl	72732(%rax), %eax
	movq	-8(%rbp), %rcx
	movl	32(%rcx), %ecx
	movl	-80(%rbp,%rcx,4), %ecx
	movq	-8(%rbp), %rdx
	movl	$2, %esi
	subl	1148(%rdx), %esi
	imull	%esi, %ecx
	xorl	%edx, %edx
	divl	%ecx
	cmpl	$0, %edx
	je	.LBB33_35
# %bb.34:                               # %if.then133
	movabsq	$.L.str.1, %rdi
	movl	$500, %esi              # imm = 0x1F4
	callq	error
.LBB33_35:                              # %if.end134
	jmp	.LBB33_37
.LBB33_36:                              # %if.else135
	movq	-8(%rbp), %rax
	movl	$0, 1160(%rax)
.LBB33_37:                              # %if.end137
	cmpl	$1187678572, -32(%rbp)  # imm = 0x46CA896C
	jne	.LBB33_39
.LBB33_38:
	addq	$96, %rsp
	popq	%rbp
	.cfi_def_cfa %rsp, 8
	retq
.LBB33_39:                              # %func_exit
	.cfi_def_cfa %rbp, 16
	callq	detect_breach
	jmp	.LBB33_38
.Lfunc_end33:
	.size	GenerateSequenceParameterSet.22, .Lfunc_end33-GenerateSequenceParameterSet.22
	.cfi_endproc
                                        # -- End function
	.globl	Scaling_List.23         # -- Begin function Scaling_List.23
	.p2align	4, 0x90
	.type	Scaling_List.23,@function
Scaling_List.23:                        # @Scaling_List.23
	.cfi_startproc
# %bb.0:                                # %entry
	pushq	%rbp
	.cfi_def_cfa_offset 16
	.cfi_offset %rbp, -16
	movq	%rsp, %rbp
	.cfi_def_cfa_register %rbp
	pushq	%rbx
	subq	$72, %rsp
	.cfi_offset %rbx, -24
	movl	$516261427, -40(%rbp)   # imm = 0x1EC58633
	movq	%rdi, -56(%rbp)
	movq	%rsi, -48(%rbp)
	movl	%edx, -36(%rbp)
	movq	%rcx, -72(%rbp)
	movq	%r8, -64(%rbp)
	movl	$0, -32(%rbp)
	movl	$8, -28(%rbp)
	movl	$8, -16(%rbp)
	movl	$0, -20(%rbp)
.LBB34_1:                               # %for.cond
                                        # =>This Inner Loop Header: Depth=1
	movl	-20(%rbp), %eax
	cmpl	-36(%rbp), %eax
	jge	.LBB34_19
# %bb.2:                                # %for.body
                                        #   in Loop: Header=BB34_1 Depth=1
	cmpl	$16, -36(%rbp)
	jne	.LBB34_4
# %bb.3:                                # %cond.true
                                        #   in Loop: Header=BB34_1 Depth=1
	movslq	-20(%rbp), %rax
	movzbl	ZZ_SCAN(,%rax), %eax
	jmp	.LBB34_5
.LBB34_4:                               # %cond.false
                                        #   in Loop: Header=BB34_1 Depth=1
	movslq	-20(%rbp), %rax
	movzbl	ZZ_SCAN8(,%rax), %eax
.LBB34_5:                               # %cond.end
                                        #   in Loop: Header=BB34_1 Depth=1
	movl	%eax, -24(%rbp)
	cmpl	$0, -16(%rbp)
	je	.LBB34_14
# %bb.6:                                # %if.then
                                        #   in Loop: Header=BB34_1 Depth=1
	movq	-56(%rbp), %rax
	movslq	-24(%rbp), %rcx
	movswl	(%rax,%rcx,2), %eax
	subl	-28(%rbp), %eax
	movl	%eax, -12(%rbp)
	cmpl	$127, -12(%rbp)
	jle	.LBB34_8
# %bb.7:                                # %if.then12
                                        #   in Loop: Header=BB34_1 Depth=1
	movl	-12(%rbp), %eax
	subl	$256, %eax              # imm = 0x100
	movl	%eax, -12(%rbp)
	jmp	.LBB34_11
.LBB34_8:                               # %if.else
                                        #   in Loop: Header=BB34_1 Depth=1
	cmpl	$-128, -12(%rbp)
	jge	.LBB34_10
# %bb.9:                                # %if.then16
                                        #   in Loop: Header=BB34_1 Depth=1
	movl	-12(%rbp), %eax
	addl	$256, %eax              # imm = 0x100
	movl	%eax, -12(%rbp)
.LBB34_10:                              # %if.end
                                        #   in Loop: Header=BB34_1 Depth=1
	jmp	.LBB34_11
.LBB34_11:                              # %if.end17
                                        #   in Loop: Header=BB34_1 Depth=1
	movl	-12(%rbp), %esi
	movq	-64(%rbp), %rdx
	movabsq	$.L.str.3, %rdi
	callq	se_v
	xorl	%ecx, %ecx
	addl	-32(%rbp), %eax
	movl	%eax, -32(%rbp)
	movq	-56(%rbp), %rax
	movslq	-24(%rbp), %rdx
	movswl	(%rax,%rdx,2), %eax
	movl	%eax, -16(%rbp)
	cmpl	$0, -24(%rbp)
	jne	.LBB34_13
# %bb.12:                               # %land.rhs
                                        #   in Loop: Header=BB34_1 Depth=1
	cmpl	$0, -16(%rbp)
	sete	%cl
.LBB34_13:                              # %land.end
                                        #   in Loop: Header=BB34_1 Depth=1
	andb	$1, %cl
	movzbl	%cl, %eax
	movq	-72(%rbp), %rcx
	movswl	(%rcx), %edx
	orl	%eax, %edx
	movw	%dx, (%rcx)
.LBB34_14:                              # %if.end28
                                        #   in Loop: Header=BB34_1 Depth=1
	cmpl	$0, -16(%rbp)
	jne	.LBB34_16
# %bb.15:                               # %cond.true31
                                        #   in Loop: Header=BB34_1 Depth=1
	movl	-28(%rbp), %eax
	jmp	.LBB34_17
.LBB34_16:                              # %cond.false32
                                        #   in Loop: Header=BB34_1 Depth=1
	movl	-16(%rbp), %eax
.LBB34_17:                              # %cond.end33
                                        #   in Loop: Header=BB34_1 Depth=1
	movq	-48(%rbp), %rcx
	movslq	-24(%rbp), %rdx
	movw	%ax, (%rcx,%rdx,2)
	movq	-48(%rbp), %rax
	movslq	-24(%rbp), %rcx
	movswl	(%rax,%rcx,2), %eax
	movl	%eax, -28(%rbp)
# %bb.18:                               # %for.inc
                                        #   in Loop: Header=BB34_1 Depth=1
	movl	-20(%rbp), %eax
	addl	$1, %eax
	movl	%eax, -20(%rbp)
	jmp	.LBB34_1
.LBB34_19:                              # %for.end
	movl	-32(%rbp), %ebx
	cmpl	$516261427, -40(%rbp)   # imm = 0x1EC58633
	jne	.LBB34_21
.LBB34_20:
	movl	%ebx, %eax
	addq	$72, %rsp
	popq	%rbx
	popq	%rbp
	.cfi_def_cfa %rsp, 8
	retq
.LBB34_21:                              # %func_exit
	.cfi_def_cfa %rbp, 16
	callq	detect_breach
	jmp	.LBB34_20
.Lfunc_end34:
	.size	Scaling_List.23, .Lfunc_end34-Scaling_List.23
	.cfi_endproc
                                        # -- End function
	.globl	GenerateSequenceParameterSet.24 # -- Begin function GenerateSequenceParameterSet.24
	.p2align	4, 0x90
	.type	GenerateSequenceParameterSet.24,@function
GenerateSequenceParameterSet.24:        # @GenerateSequenceParameterSet.24
	.cfi_startproc
# %bb.0:                                # %entry
	pushq	%rbp
	.cfi_def_cfa_offset 16
	.cfi_offset %rbp, -16
	movq	%rsp, %rbp
	.cfi_def_cfa_register %rbp
	subq	$96, %rsp
	movl	$297045855, -16(%rbp)   # imm = 0x11B48F5F
	movq	%rdi, -8(%rbp)
	movl	%esi, -84(%rbp)
	movq	.L__const.GenerateSequenceParameterSet.SubWidthC, %rax
	movq	%rax, -80(%rbp)
	movq	.L__const.GenerateSequenceParameterSet.SubWidthC+8, %rax
	movq	%rax, -72(%rbp)
	movq	.L__const.GenerateSequenceParameterSet.SubHeightC, %rax
	movq	%rax, -64(%rbp)
	movq	.L__const.GenerateSequenceParameterSet.SubHeightC+8, %rax
	movq	%rax, -56(%rbp)
	callq	IdentifyProfile
	cmpl	$100, %eax
	movb	$1, %al
	je	.LBB35_4
# %bb.1:                                # %lor.lhs.false
	callq	IdentifyProfile
	cmpl	$110, %eax
	movb	$1, %al
	je	.LBB35_4
# %bb.2:                                # %lor.lhs.false3
	callq	IdentifyProfile
	cmpl	$122, %eax
	movb	$1, %al
	je	.LBB35_4
# %bb.3:                                # %lor.rhs
	callq	IdentifyProfile
	cmpl	$144, %eax
	sete	%al
.LBB35_4:                               # %lor.end
	andb	$1, %al
	movzbl	%al, %eax
	movl	%eax, -24(%rbp)
	callq	IdentifyProfile
	movq	-8(%rbp), %rcx
	movl	%eax, 4(%rcx)
	callq	IdentifyLevel
	movq	-8(%rbp), %rcx
	movl	%eax, 24(%rcx)
	movq	-8(%rbp), %rax
	movl	$0, 8(%rax)
	movq	-8(%rbp), %rax
	movl	$0, 12(%rax)
	movq	-8(%rbp), %rax
	movl	$0, 16(%rax)
	movq	-8(%rbp), %rax
	movl	$0, 20(%rax)
	movq	-8(%rbp), %rax
	movl	$0, 28(%rax)
	movq	input, %rax
	movl	3296(%rax), %eax
	subl	$8, %eax
	movq	-8(%rbp), %rcx
	movl	%eax, 72(%rcx)
	movq	input, %rax
	movl	3300(%rax), %eax
	subl	$8, %eax
	movq	-8(%rbp), %rcx
	movl	%eax, 76(%rcx)
	movq	input, %rax
	movl	3324(%rax), %eax
	movq	-8(%rbp), %rcx
	cmpl	$144, 4(%rcx)
	sete	%cl
	andb	$1, %cl
	movzbl	%cl, %ecx
	andl	%ecx, %eax
	movq	img, %rcx
	movl	%eax, 72704(%rcx)
	movq	input, %rax
	movl	3328(%rax), %eax
	movq	img, %rcx
	movl	%eax, 72724(%rcx)
	movl	log2_max_frame_num_minus4, %eax
	movq	-8(%rbp), %rcx
	movl	%eax, 80(%rcx)
	movl	log2_max_pic_order_cnt_lsb_minus4, %eax
	movq	-8(%rbp), %rcx
	movl	%eax, 88(%rcx)
	movq	input, %rax
	movl	3208(%rax), %eax
	movq	-8(%rbp), %rcx
	movl	%eax, 84(%rcx)
	movq	img, %rax
	movl	72420(%rax), %eax
	movq	-8(%rbp), %rcx
	movl	%eax, 104(%rcx)
	movq	img, %rax
	movl	72408(%rax), %eax
	movq	-8(%rbp), %rcx
	movl	%eax, 92(%rcx)
	movq	img, %rax
	movl	72412(%rax), %eax
	movq	-8(%rbp), %rcx
	movl	%eax, 96(%rcx)
	movq	img, %rax
	movl	72416(%rax), %eax
	movq	-8(%rbp), %rcx
	movl	%eax, 100(%rcx)
	movl	$0, -12(%rbp)
.LBB35_5:                               # %for.cond
                                        # =>This Inner Loop Header: Depth=1
	movl	-12(%rbp), %eax
	movq	img, %rcx
	cmpl	72420(%rcx), %eax
	jae	.LBB35_8
# %bb.6:                                # %for.body
                                        #   in Loop: Header=BB35_5 Depth=1
	movq	img, %rax
	movl	-12(%rbp), %ecx
	movl	72424(%rax,%rcx,4), %eax
	movq	-8(%rbp), %rcx
	movl	-12(%rbp), %edx
	movl	%eax, 108(%rcx,%rdx,4)
# %bb.7:                                # %for.inc
                                        #   in Loop: Header=BB35_5 Depth=1
	movl	-12(%rbp), %eax
	addl	$1, %eax
	movl	%eax, -12(%rbp)
	jmp	.LBB35_5
.LBB35_8:                               # %for.end
	movq	input, %rax
	movl	36(%rax), %eax
	movq	-8(%rbp), %rcx
	movl	%eax, 1132(%rcx)
	movq	-8(%rbp), %rax
	movl	$0, 1136(%rax)
	movq	input, %rax
	cmpl	$0, 2880(%rax)
	movb	$1, %al
	jne	.LBB35_10
# %bb.9:                                # %lor.rhs26
	movq	input, %rax
	cmpl	$0, 2884(%rax)
	setne	%al
.LBB35_10:                              # %lor.end28
	xorl	%ecx, %ecx
	xorl	%esi, %esi
	xorb	$-1, %al
	andb	$1, %al
	movzbl	%al, %eax
	movq	-8(%rbp), %rdx
	movl	%eax, 1148(%rdx)
	movq	input, %rax
	movl	64(%rax), %eax
	movq	img, %rdx
	addl	72728(%rdx), %eax
	cltd
	movl	$16, %edi
	idivl	%edi
	subl	$1, %eax
	movq	-8(%rbp), %rdx
	movl	%eax, 1140(%rdx)
	movq	input, %rax
	movl	68(%rax), %eax
	movq	img, %rdx
	addl	72732(%rdx), %eax
	cltd
	idivl	%edi
	movq	-8(%rbp), %rdx
	movl	$2, %edi
	subl	1148(%rdx), %edi
	xorl	%edx, %edx
	divl	%edi
	subl	$1, %eax
	movq	-8(%rbp), %rdx
	movl	%eax, 1144(%rdx)
	movq	input, %rax
	cmpl	2884(%rax), %esi
	setne	%al
	andb	$1, %al
	movzbl	%al, %eax
	movq	-8(%rbp), %rdx
	movl	%eax, 1152(%rdx)
	movq	input, %rax
	movl	1252(%rax), %eax
	movq	-8(%rbp), %rdx
	movl	%eax, 1156(%rdx)
	movq	input, %rax
	cmpl	$0, 3312(%rax)
	je	.LBB35_12
# %bb.11:                               # %land.rhs
	movq	input, %rax
	cmpl	$3, 72(%rax)
	sete	%cl
.LBB35_12:                              # %land.end
	andb	$1, %cl
	movzbl	%cl, %eax
	movq	-8(%rbp), %rcx
	movl	%eax, 1180(%rcx)
	movq	input, %rax
	movl	72(%rax), %eax
	movq	-8(%rbp), %rcx
	movl	%eax, 32(%rcx)
	movq	-8(%rbp), %rax
	movl	1140(%rax), %eax
	addl	$1, %eax
	movl	%eax, -28(%rbp)
	movq	-8(%rbp), %rax
	movl	1144(%rax), %eax
	addl	$1, %eax
	movl	%eax, -40(%rbp)
	movq	-8(%rbp), %rax
	movl	$2, %ecx
	subl	1148(%rax), %ecx
	imull	-40(%rbp), %ecx
	movl	%ecx, -32(%rbp)
	movl	-28(%rbp), %eax
	shll	$4, %eax
	movl	%eax, -20(%rbp)
	movl	-32(%rbp), %eax
	shll	$4, %eax
	movl	%eax, -36(%rbp)
	movl	-20(%rbp), %edi
	movl	-36(%rbp), %esi
	movq	-8(%rbp), %rax
	movl	1152(%rax), %edx
	callq	alloc_colocated
	movq	%rax, Co_located
	cmpl	$0, -24(%rbp)
	je	.LBB35_24
# %bb.13:                               # %if.then
	movq	input, %rax
	movl	3256(%rax), %eax
	andl	$1, %eax
	movq	-8(%rbp), %rcx
	movl	%eax, 36(%rcx)
	movl	$0, -12(%rbp)
.LBB35_14:                              # %for.cond56
                                        # =>This Inner Loop Header: Depth=1
	cmpl	$8, -12(%rbp)
	jae	.LBB35_23
# %bb.15:                               # %for.body59
                                        #   in Loop: Header=BB35_14 Depth=1
	cmpl	$6, -12(%rbp)
	jae	.LBB35_17
# %bb.16:                               # %if.then62
                                        #   in Loop: Header=BB35_14 Depth=1
	movq	input, %rax
	movl	-12(%rbp), %ecx
	movl	3260(%rax,%rcx,4), %eax
	andl	$1, %eax
	movq	-8(%rbp), %rcx
	movl	-12(%rbp), %edx
	movl	%eax, 40(%rcx,%rdx,4)
	jmp	.LBB35_21
.LBB35_17:                              # %if.else
                                        #   in Loop: Header=BB35_14 Depth=1
	movq	input, %rax
	cmpl	$0, 3220(%rax)
	je	.LBB35_19
# %bb.18:                               # %if.then69
