	.text
	.file	"parset.c"
	.globl	GenerateParameterSets   # -- Begin function GenerateParameterSets
	.p2align	4, 0x90
	.type	GenerateParameterSets,@function
GenerateParameterSets:                  # @GenerateParameterSets
	.cfi_startproc
# %bb.0:                                # %rand_bb
	pushq	%rbp
	.cfi_def_cfa_offset 16
	.cfi_offset %rbp, -16
	movq	%rsp, %rbp
	.cfi_def_cfa_register %rbp
	callq	get_urand
	cmpl	$0, %eax
	jne	.LBB0_2
# %bb.1:                                # %func_GenerateParameterSets.2
	callq	GenerateParameterSets.2
	popq	%rbp
	.cfi_def_cfa %rsp, 8
	retq
.LBB0_2:                                # %func_GenerateParameterSets.29
	.cfi_def_cfa %rbp, 16
	callq	GenerateParameterSets.29
	popq	%rbp
	.cfi_def_cfa %rsp, 8
	retq
.Lfunc_end0:
	.size	GenerateParameterSets, .Lfunc_end0-GenerateParameterSets
	.cfi_endproc
                                        # -- End function
	.globl	GenerateSequenceParameterSet # -- Begin function GenerateSequenceParameterSet
	.p2align	4, 0x90
	.type	GenerateSequenceParameterSet,@function
GenerateSequenceParameterSet:           # @GenerateSequenceParameterSet
	.cfi_startproc
# %bb.0:                                # %rand_bb
	pushq	%rbp
	.cfi_def_cfa_offset 16
	.cfi_offset %rbp, -16
	movq	%rsp, %rbp
	.cfi_def_cfa_register %rbp
	pushq	%r14
	pushq	%rbx
	.cfi_offset %rbx, -32
	.cfi_offset %r14, -24
	movl	%esi, %r14d
	movq	%rdi, %rbx
	callq	get_urand
	cmpl	$0, %eax
	jne	.LBB1_17
# %bb.1:                                # %func_GenerateSequenceParameterSet.12
	movq	%rbx, %rdi
	movl	%r14d, %esi
	callq	GenerateSequenceParameterSet.12
	popq	%rbx
	popq	%r14
	popq	%rbp
	.cfi_def_cfa %rsp, 8
	retq
.LBB1_2:                                # %func_GenerateSequenceParameterSet.18
	.cfi_def_cfa %rbp, 16
	movq	%rbx, %rdi
	movl	%r14d, %esi
	callq	GenerateSequenceParameterSet.18
	popq	%rbx
	popq	%r14
	popq	%rbp
	.cfi_def_cfa %rsp, 8
	retq
.LBB1_3:                                # %func_GenerateSequenceParameterSet.22
	.cfi_def_cfa %rbp, 16
	movq	%rbx, %rdi
	movl	%r14d, %esi
	callq	GenerateSequenceParameterSet.22
	popq	%rbx
	popq	%r14
	popq	%rbp
	.cfi_def_cfa %rsp, 8
	retq
.LBB1_4:                                # %func_GenerateSequenceParameterSet.25
	.cfi_def_cfa %rbp, 16
	movq	%rbx, %rdi
	movl	%r14d, %esi
	callq	GenerateSequenceParameterSet.25
	popq	%rbx
	popq	%r14
	popq	%rbp
	.cfi_def_cfa %rsp, 8
	retq
.LBB1_5:                                # %func_GenerateSequenceParameterSet.27
	.cfi_def_cfa %rbp, 16
	movq	%rbx, %rdi
	movl	%r14d, %esi
	callq	GenerateSequenceParameterSet.27
	popq	%rbx
	popq	%r14
	popq	%rbp
	.cfi_def_cfa %rsp, 8
	retq
.LBB1_6:                                # %func_GenerateSequenceParameterSet.50
	.cfi_def_cfa %rbp, 16
	movq	%rbx, %rdi
	movl	%r14d, %esi
	callq	GenerateSequenceParameterSet.50
	popq	%rbx
	popq	%r14
	popq	%rbp
	.cfi_def_cfa %rsp, 8
	retq
.LBB1_7:                                # %func_GenerateSequenceParameterSet.62
	.cfi_def_cfa %rbp, 16
	movq	%rbx, %rdi
	movl	%r14d, %esi
	callq	GenerateSequenceParameterSet.62
	popq	%rbx
	popq	%r14
	popq	%rbp
	.cfi_def_cfa %rsp, 8
	retq
.LBB1_8:                                # %func_GenerateSequenceParameterSet.65
	.cfi_def_cfa %rbp, 16
	movq	%rbx, %rdi
	movl	%r14d, %esi
	callq	GenerateSequenceParameterSet.65
	popq	%rbx
	popq	%r14
	popq	%rbp
	.cfi_def_cfa %rsp, 8
	retq
.LBB1_9:                                # %func_GenerateSequenceParameterSet.80
	.cfi_def_cfa %rbp, 16
	movq	%rbx, %rdi
	movl	%r14d, %esi
	callq	GenerateSequenceParameterSet.80
	popq	%rbx
	popq	%r14
	popq	%rbp
	.cfi_def_cfa %rsp, 8
	retq
.LBB1_10:                               # %func_GenerateSequenceParameterSet.81
	.cfi_def_cfa %rbp, 16
	movq	%rbx, %rdi
	movl	%r14d, %esi
	callq	GenerateSequenceParameterSet.81
	popq	%rbx
	popq	%r14
	popq	%rbp
	.cfi_def_cfa %rsp, 8
	retq
.LBB1_11:                               # %func_GenerateSequenceParameterSet.83
	.cfi_def_cfa %rbp, 16
	movq	%rbx, %rdi
	movl	%r14d, %esi
	callq	GenerateSequenceParameterSet.83
	popq	%rbx
	popq	%r14
	popq	%rbp
	.cfi_def_cfa %rsp, 8
	retq
.LBB1_12:                               # %func_GenerateSequenceParameterSet.84
	.cfi_def_cfa %rbp, 16
	movq	%rbx, %rdi
	movl	%r14d, %esi
	callq	GenerateSequenceParameterSet.84
	popq	%rbx
	popq	%r14
	popq	%rbp
	.cfi_def_cfa %rsp, 8
	retq
.LBB1_13:                               # %func_GenerateSequenceParameterSet.87
	.cfi_def_cfa %rbp, 16
	movq	%rbx, %rdi
	movl	%r14d, %esi
	callq	GenerateSequenceParameterSet.87
	popq	%rbx
	popq	%r14
	popq	%rbp
	.cfi_def_cfa %rsp, 8
	retq
.LBB1_14:                               # %func_GenerateSequenceParameterSet.89
	.cfi_def_cfa %rbp, 16
	movq	%rbx, %rdi
	movl	%r14d, %esi
	callq	GenerateSequenceParameterSet.89
	popq	%rbx
	popq	%r14
	popq	%rbp
	.cfi_def_cfa %rsp, 8
	retq
.LBB1_15:                               # %func_GenerateSequenceParameterSet.93
	.cfi_def_cfa %rbp, 16
	movq	%rbx, %rdi
	movl	%r14d, %esi
	callq	GenerateSequenceParameterSet.93
	popq	%rbx
	popq	%r14
	popq	%rbp
	.cfi_def_cfa %rsp, 8
	retq
.LBB1_16:                               # %func_GenerateSequenceParameterSet.99
	.cfi_def_cfa %rbp, 16
	movq	%rbx, %rdi
	movl	%r14d, %esi
	callq	GenerateSequenceParameterSet.99
	popq	%rbx
	popq	%r14
	popq	%rbp
	.cfi_def_cfa %rsp, 8
	retq
.LBB1_17:                               # %ctrl0
	.cfi_def_cfa %rbp, 16
	cmpl	$1, %eax
	je	.LBB1_2
# %bb.18:                               # %ctrl1
	cmpl	$2, %eax
	je	.LBB1_3
# %bb.19:                               # %ctrl2
	cmpl	$3, %eax
	je	.LBB1_4
# %bb.20:                               # %ctrl3
	cmpl	$4, %eax
	je	.LBB1_5
# %bb.21:                               # %ctrl4
	cmpl	$5, %eax
	je	.LBB1_6
# %bb.22:                               # %ctrl5
	cmpl	$6, %eax
	je	.LBB1_7
# %bb.23:                               # %ctrl6
	cmpl	$7, %eax
	je	.LBB1_8
# %bb.24:                               # %ctrl7
	cmpl	$8, %eax
	je	.LBB1_9
# %bb.25:                               # %ctrl8
	cmpl	$9, %eax
	je	.LBB1_10
# %bb.26:                               # %ctrl9
	cmpl	$10, %eax
	je	.LBB1_11
# %bb.27:                               # %ctrl10
	cmpl	$11, %eax
	je	.LBB1_12
# %bb.28:                               # %ctrl11
	cmpl	$12, %eax
	je	.LBB1_13
# %bb.29:                               # %ctrl12
	cmpl	$13, %eax
	je	.LBB1_14
# %bb.30:                               # %ctrl13
	cmpl	$14, %eax
	je	.LBB1_15
	jmp	.LBB1_16
.Lfunc_end1:
	.size	GenerateSequenceParameterSet, .Lfunc_end1-GenerateSequenceParameterSet
	.cfi_endproc
                                        # -- End function
	.globl	GeneratePictureParameterSet # -- Begin function GeneratePictureParameterSet
	.p2align	4, 0x90
	.type	GeneratePictureParameterSet,@function
GeneratePictureParameterSet:            # @GeneratePictureParameterSet
	.cfi_startproc
# %bb.0:                                # %rand_bb
	pushq	%rbp
	.cfi_def_cfa_offset 16
	.cfi_offset %rbp, -16
	movq	%rsp, %rbp
	.cfi_def_cfa_register %rbp
	pushq	%r15
	pushq	%r14
	pushq	%r13
	pushq	%r12
	pushq	%rbx
	subq	$24, %rsp
	.cfi_offset %rbx, -56
	.cfi_offset %r12, -48
	.cfi_offset %r13, -40
	.cfi_offset %r14, -32
	.cfi_offset %r15, -24
	movl	%r9d, -44(%rbp)         # 4-byte Spill
	movl	%r8d, %r13d
	movl	%ecx, %ebx
	movl	%edx, %r14d
	movq	%rsi, %r15
	movq	%rdi, %r12
	callq	get_urand
	cmpl	$0, %eax
	jne	.LBB2_17
# %bb.1:                                # %func_GeneratePictureParameterSet.3
	movq	%r12, %rdi
	movq	%r15, %rsi
	movl	%r14d, %edx
	movl	%ebx, %ecx
	movl	%r13d, %r8d
	movl	-44(%rbp), %r9d         # 4-byte Reload
	movl	16(%rbp), %eax
	movl	%eax, (%rsp)
	callq	GeneratePictureParameterSet.3
	addq	$24, %rsp
	popq	%rbx
	popq	%r12
	popq	%r13
	popq	%r14
	popq	%r15
	popq	%rbp
	.cfi_def_cfa %rsp, 8
	retq
.LBB2_2:                                # %func_GeneratePictureParameterSet.5
	.cfi_def_cfa %rbp, 16
	movq	%r15, %rsi
	movl	%r12d, %r9d
	movl	16(%rbp), %eax
	movl	%eax, (%rsp)
	callq	GeneratePictureParameterSet.5
	addq	$24, %rsp
	popq	%rbx
	popq	%r12
	popq	%r13
	popq	%r14
	popq	%r15
	popq	%rbp
	.cfi_def_cfa %rsp, 8
	retq
.LBB2_3:                                # %func_GeneratePictureParameterSet.8
	.cfi_def_cfa %rbp, 16
	movq	%r10, %rdi
	movl	%ebx, %edx
	movl	%r14d, %ecx
	movl	%r13d, %r8d
	movl	%r11d, (%rsp)
	callq	GeneratePictureParameterSet.8
	addq	$24, %rsp
	popq	%rbx
	popq	%r12
	popq	%r13
	popq	%r14
	popq	%r15
	popq	%rbp
	.cfi_def_cfa %rsp, 8
	retq
.LBB2_4:                                # %func_GeneratePictureParameterSet.9
	.cfi_def_cfa %rbp, 16
	movq	%r10, %rdi
	movq	-56(%rbp), %rsi         # 8-byte Reload
	movl	%ebx, %edx
	movl	%r14d, %ecx
	movl	%r13d, %r8d
	movl	-44(%rbp), %r9d         # 4-byte Reload
	movl	%r11d, (%rsp)
	callq	GeneratePictureParameterSet.9
	addq	$24, %rsp
	popq	%rbx
	popq	%r12
	popq	%r13
	popq	%r14
	popq	%r15
	popq	%rbp
	.cfi_def_cfa %rsp, 8
	retq
.LBB2_5:                                # %func_GeneratePictureParameterSet.21
	.cfi_def_cfa %rbp, 16
	movq	%r10, %rdi
	movq	-56(%rbp), %rsi         # 8-byte Reload
	movl	%ebx, %edx
	movl	%r14d, %ecx
	movl	%r9d, %r8d
	movl	-44(%rbp), %r9d         # 4-byte Reload
	movl	%r11d, (%rsp)
	callq	GeneratePictureParameterSet.21
	addq	$24, %rsp
	popq	%rbx
	popq	%r12
	popq	%r13
	popq	%r14
	popq	%r15
	popq	%rbp
	.cfi_def_cfa %rsp, 8
	retq
.LBB2_6:                                # %func_GeneratePictureParameterSet.24
	.cfi_def_cfa %rbp, 16
	movq	%r10, %rdi
	movq	-56(%rbp), %rsi         # 8-byte Reload
	movl	%ebx, %edx
	movl	%r13d, %ecx
	movl	%r9d, %r8d
	movl	-44(%rbp), %r9d         # 4-byte Reload
	movl	%r11d, (%rsp)
	callq	GeneratePictureParameterSet.24
	addq	$24, %rsp
	popq	%rbx
	popq	%r12
	popq	%r13
	popq	%r14
	popq	%r15
	popq	%rbp
	.cfi_def_cfa %rsp, 8
	retq
.LBB2_7:                                # %func_GeneratePictureParameterSet.31
	.cfi_def_cfa %rbp, 16
	movq	%r10, %rdi
	movq	-56(%rbp), %rsi         # 8-byte Reload
	movl	%r14d, %edx
	movl	%r13d, %ecx
	movl	%r9d, %r8d
	movl	-44(%rbp), %r9d         # 4-byte Reload
	movl	%r11d, (%rsp)
	callq	GeneratePictureParameterSet.31
	addq	$24, %rsp
	popq	%rbx
	popq	%r12
	popq	%r13
	popq	%r14
	popq	%r15
	popq	%rbp
	.cfi_def_cfa %rsp, 8
	retq
.LBB2_8:                                # %func_GeneratePictureParameterSet.33
	.cfi_def_cfa %rbp, 16
	movq	%r10, %rdi
	movq	%rbx, %rsi
	movl	%r14d, %edx
	movl	%r13d, %ecx
	movl	%r9d, %r8d
	movl	-44(%rbp), %r9d         # 4-byte Reload
	movl	%r11d, (%rsp)
	callq	GeneratePictureParameterSet.33
	addq	$24, %rsp
	popq	%rbx
	popq	%r12
	popq	%r13
	popq	%r14
	popq	%r15
	popq	%rbp
	.cfi_def_cfa %rsp, 8
	retq
.LBB2_9:                                # %func_GeneratePictureParameterSet.42
	.cfi_def_cfa %rbp, 16
	movq	%r10, %rdi
	movq	%rbx, %rsi
	movl	%r14d, %edx
	movl	%r13d, %ecx
	movl	%r9d, %r8d
	movl	-44(%rbp), %r9d         # 4-byte Reload
	movl	%r11d, (%rsp)
	callq	GeneratePictureParameterSet.42
	addq	$24, %rsp
	popq	%rbx
	popq	%r12
	popq	%r13
	popq	%r14
	popq	%r15
	popq	%rbp
	.cfi_def_cfa %rsp, 8
	retq
.LBB2_10:                               # %func_GeneratePictureParameterSet.47
	.cfi_def_cfa %rbp, 16
	movq	%r10, %rdi
	movq	%rbx, %rsi
	movl	%r14d, %edx
	movl	%r13d, %ecx
	movl	%r9d, %r8d
	movl	-44(%rbp), %r9d         # 4-byte Reload
	movl	%r11d, (%rsp)
	callq	GeneratePictureParameterSet.47
	addq	$24, %rsp
	popq	%rbx
	popq	%r12
	popq	%r13
	popq	%r14
	popq	%r15
	popq	%rbp
	.cfi_def_cfa %rsp, 8
	retq
.LBB2_11:                               # %func_GeneratePictureParameterSet.48
	.cfi_def_cfa %rbp, 16
	movq	%r10, %rdi
	movq	%rbx, %rsi
	movl	%r14d, %edx
	movl	%r13d, %ecx
	movl	%r9d, %r8d
	movl	-44(%rbp), %r9d         # 4-byte Reload
	movl	%r11d, (%rsp)
	callq	GeneratePictureParameterSet.48
	addq	$24, %rsp
	popq	%rbx
	popq	%r12
	popq	%r13
	popq	%r14
	popq	%r15
	popq	%rbp
	.cfi_def_cfa %rsp, 8
	retq
.LBB2_12:                               # %func_GeneratePictureParameterSet.53
	.cfi_def_cfa %rbp, 16
	movq	%r10, %rdi
	movq	%rbx, %rsi
	movl	%r14d, %edx
	movl	%r13d, %ecx
	movl	%r9d, %r8d
	movl	-44(%rbp), %r9d         # 4-byte Reload
	movl	%r11d, (%rsp)
	callq	GeneratePictureParameterSet.53
	addq	$24, %rsp
	popq	%rbx
	popq	%r12
	popq	%r13
	popq	%r14
	popq	%r15
	popq	%rbp
	.cfi_def_cfa %rsp, 8
	retq
.LBB2_13:                               # %func_GeneratePictureParameterSet.54
	.cfi_def_cfa %rbp, 16
	movq	%r10, %rdi
	movq	%rbx, %rsi
	movl	%r14d, %edx
	movl	%r13d, %ecx
	movl	%r9d, %r8d
	movl	-44(%rbp), %r9d         # 4-byte Reload
	movl	%r11d, (%rsp)
	callq	GeneratePictureParameterSet.54
	addq	$24, %rsp
	popq	%rbx
	popq	%r12
	popq	%r13
	popq	%r14
	popq	%r15
	popq	%rbp
	.cfi_def_cfa %rsp, 8
	retq
.LBB2_14:                               # %func_GeneratePictureParameterSet.56
	.cfi_def_cfa %rbp, 16
	movq	%r10, %rdi
	movq	%rbx, %rsi
	movl	%r14d, %edx
	movl	%r13d, %ecx
	movl	%r9d, %r8d
	movl	-44(%rbp), %r9d         # 4-byte Reload
	movl	%r11d, (%rsp)
	callq	GeneratePictureParameterSet.56
	addq	$24, %rsp
	popq	%rbx
	popq	%r12
	popq	%r13
	popq	%r14
	popq	%r15
	popq	%rbp
	.cfi_def_cfa %rsp, 8
	retq
.LBB2_15:                               # %func_GeneratePictureParameterSet.76
	.cfi_def_cfa %rbp, 16
	movq	%r15, %rsi
	movl	%r12d, %r9d
	movl	16(%rbp), %eax
	movl	%eax, (%rsp)
	callq	GeneratePictureParameterSet.76
	addq	$24, %rsp
	popq	%rbx
	popq	%r12
	popq	%r13
	popq	%r14
	popq	%r15
	popq	%rbp
	.cfi_def_cfa %rsp, 8
	retq
.LBB2_16:                               # %func_GeneratePictureParameterSet.86
	.cfi_def_cfa %rbp, 16
	movq	%r15, %rsi
	movl	%r12d, %r9d
	movl	16(%rbp), %eax
	movl	%eax, (%rsp)
	callq	GeneratePictureParameterSet.86
	addq	$24, %rsp
	popq	%rbx
	popq	%r12
	popq	%r13
	popq	%r14
	popq	%r15
	popq	%rbp
	.cfi_def_cfa %rsp, 8
	retq
.LBB2_17:                               # %ctrl0
	.cfi_def_cfa %rbp, 16
	movq	%r12, %rdi
	movl	%r14d, %edx
	movl	%ebx, %ecx
	movl	%r13d, %r8d
	movl	-44(%rbp), %r12d        # 4-byte Reload
	cmpl	$1, %eax
	je	.LBB2_2
# %bb.18:                               # %ctrl1
	cmpl	$2, %eax
	movl	16(%rbp), %r11d
	movl	%r12d, %r9d
	movl	%r8d, %r13d
	movl	%ecx, %r14d
	movl	%edx, %ebx
	movq	%r15, %rsi
	movq	%rdi, %r10
	je	.LBB2_3
# %bb.19:                               # %ctrl2
	movq	%rsi, -56(%rbp)         # 8-byte Spill
	cmpl	$3, %eax
	je	.LBB2_4
# %bb.20:                               # %ctrl3
	cmpl	$4, %eax
	movl	%r13d, %r9d
	je	.LBB2_5
# %bb.21:                               # %ctrl4
	cmpl	$5, %eax
	movl	%r14d, %r13d
	je	.LBB2_6
# %bb.22:                               # %ctrl5
	cmpl	$6, %eax
	movl	%ebx, %r14d
	je	.LBB2_7
# %bb.23:                               # %ctrl6
	cmpl	$7, %eax
	movq	-56(%rbp), %rbx         # 8-byte Reload
	je	.LBB2_8
# %bb.24:                               # %ctrl7
	cmpl	$8, %eax
	je	.LBB2_9
# %bb.25:                               # %ctrl8
	cmpl	$9, %eax
	je	.LBB2_10
# %bb.26:                               # %ctrl9
	cmpl	$10, %eax
	je	.LBB2_11
# %bb.27:                               # %ctrl10
	cmpl	$11, %eax
	je	.LBB2_12
# %bb.28:                               # %ctrl11
	cmpl	$12, %eax
	je	.LBB2_13
# %bb.29:                               # %ctrl12
	cmpl	$13, %eax
	je	.LBB2_14
# %bb.30:                               # %ctrl13
	cmpl	$14, %eax
	je	.LBB2_15
	jmp	.LBB2_16
.Lfunc_end2:
	.size	GeneratePictureParameterSet, .Lfunc_end2-GeneratePictureParameterSet
	.cfi_endproc
                                        # -- End function
	.globl	FreeParameterSets       # -- Begin function FreeParameterSets
	.p2align	4, 0x90
	.type	FreeParameterSets,@function
FreeParameterSets:                      # @FreeParameterSets
	.cfi_startproc
# %bb.0:                                # %entry
	pushq	%rbp
	.cfi_def_cfa_offset 16
	.cfi_offset %rbp, -16
	movq	%rsp, %rbp
	.cfi_def_cfa_register %rbp
	movq	active_sps, %rdi
	callq	FreeSPS
	popq	%rbp
	.cfi_def_cfa %rsp, 8
	retq
.Lfunc_end3:
	.size	FreeParameterSets, .Lfunc_end3-FreeParameterSets
	.cfi_endproc
                                        # -- End function
	.globl	GenerateSeq_parameter_set_NALU # -- Begin function GenerateSeq_parameter_set_NALU
	.p2align	4, 0x90
	.type	GenerateSeq_parameter_set_NALU,@function
GenerateSeq_parameter_set_NALU:         # @GenerateSeq_parameter_set_NALU
	.cfi_startproc
# %bb.0:                                # %rand_bb
	pushq	%rbp
	.cfi_def_cfa_offset 16
	.cfi_offset %rbp, -16
	movq	%rsp, %rbp
	.cfi_def_cfa_register %rbp
	callq	get_urand
	cmpl	$0, %eax
	jne	.LBB4_17
# %bb.1:                                # %func_GenerateSeq_parameter_set_NALU.4
	callq	GenerateSeq_parameter_set_NALU.4
	popq	%rbp
	.cfi_def_cfa %rsp, 8
	retq
.LBB4_2:                                # %func_GenerateSeq_parameter_set_NALU.14
	.cfi_def_cfa %rbp, 16
	callq	GenerateSeq_parameter_set_NALU.14
	popq	%rbp
	.cfi_def_cfa %rsp, 8
	retq
.LBB4_3:                                # %func_GenerateSeq_parameter_set_NALU.20
	.cfi_def_cfa %rbp, 16
	callq	GenerateSeq_parameter_set_NALU.20
	popq	%rbp
	.cfi_def_cfa %rsp, 8
	retq
.LBB4_4:                                # %func_GenerateSeq_parameter_set_NALU.30
	.cfi_def_cfa %rbp, 16
	callq	GenerateSeq_parameter_set_NALU.30
	popq	%rbp
	.cfi_def_cfa %rsp, 8
	retq
.LBB4_5:                                # %func_GenerateSeq_parameter_set_NALU.41
	.cfi_def_cfa %rbp, 16
	callq	GenerateSeq_parameter_set_NALU.41
	popq	%rbp
	.cfi_def_cfa %rsp, 8
	retq
.LBB4_6:                                # %func_GenerateSeq_parameter_set_NALU.43
	.cfi_def_cfa %rbp, 16
	callq	GenerateSeq_parameter_set_NALU.43
	popq	%rbp
	.cfi_def_cfa %rsp, 8
	retq
.LBB4_7:                                # %func_GenerateSeq_parameter_set_NALU.58
	.cfi_def_cfa %rbp, 16
	callq	GenerateSeq_parameter_set_NALU.58
	popq	%rbp
	.cfi_def_cfa %rsp, 8
	retq
.LBB4_8:                                # %func_GenerateSeq_parameter_set_NALU.75
	.cfi_def_cfa %rbp, 16
	callq	GenerateSeq_parameter_set_NALU.75
	popq	%rbp
	.cfi_def_cfa %rsp, 8
	retq
.LBB4_9:                                # %func_GenerateSeq_parameter_set_NALU.79
	.cfi_def_cfa %rbp, 16
	callq	GenerateSeq_parameter_set_NALU.79
	popq	%rbp
	.cfi_def_cfa %rsp, 8
	retq
.LBB4_10:                               # %func_GenerateSeq_parameter_set_NALU.85
	.cfi_def_cfa %rbp, 16
	callq	GenerateSeq_parameter_set_NALU.85
	popq	%rbp
	.cfi_def_cfa %rsp, 8
	retq
.LBB4_11:                               # %func_GenerateSeq_parameter_set_NALU.90
	.cfi_def_cfa %rbp, 16
	callq	GenerateSeq_parameter_set_NALU.90
	popq	%rbp
	.cfi_def_cfa %rsp, 8
	retq
.LBB4_12:                               # %func_GenerateSeq_parameter_set_NALU.92
	.cfi_def_cfa %rbp, 16
	callq	GenerateSeq_parameter_set_NALU.92
	popq	%rbp
	.cfi_def_cfa %rsp, 8
	retq
.LBB4_13:                               # %func_GenerateSeq_parameter_set_NALU.102
	.cfi_def_cfa %rbp, 16
	callq	GenerateSeq_parameter_set_NALU.102
	popq	%rbp
	.cfi_def_cfa %rsp, 8
	retq
.LBB4_14:                               # %func_GenerateSeq_parameter_set_NALU.106
	.cfi_def_cfa %rbp, 16
	callq	GenerateSeq_parameter_set_NALU.106
	popq	%rbp
	.cfi_def_cfa %rsp, 8
	retq
.LBB4_15:                               # %func_GenerateSeq_parameter_set_NALU.108
	.cfi_def_cfa %rbp, 16
	callq	GenerateSeq_parameter_set_NALU.108
	popq	%rbp
	.cfi_def_cfa %rsp, 8
	retq
.LBB4_16:                               # %func_GenerateSeq_parameter_set_NALU.111
	.cfi_def_cfa %rbp, 16
	callq	GenerateSeq_parameter_set_NALU.111
	popq	%rbp
	.cfi_def_cfa %rsp, 8
	retq
.LBB4_17:                               # %ctrl0
	.cfi_def_cfa %rbp, 16
	cmpl	$1, %eax
	je	.LBB4_2
# %bb.18:                               # %ctrl1
	cmpl	$2, %eax
	je	.LBB4_3
# %bb.19:                               # %ctrl2
	cmpl	$3, %eax
	je	.LBB4_4
# %bb.20:                               # %ctrl3
	cmpl	$4, %eax
	je	.LBB4_5
# %bb.21:                               # %ctrl4
	cmpl	$5, %eax
	je	.LBB4_6
# %bb.22:                               # %ctrl5
	cmpl	$6, %eax
	je	.LBB4_7
# %bb.23:                               # %ctrl6
	cmpl	$7, %eax
	je	.LBB4_8
# %bb.24:                               # %ctrl7
	cmpl	$8, %eax
	je	.LBB4_9
# %bb.25:                               # %ctrl8
	cmpl	$9, %eax
	je	.LBB4_10
# %bb.26:                               # %ctrl9
	cmpl	$10, %eax
	je	.LBB4_11
# %bb.27:                               # %ctrl10
	cmpl	$11, %eax
	je	.LBB4_12
# %bb.28:                               # %ctrl11
	cmpl	$12, %eax
	je	.LBB4_13
# %bb.29:                               # %ctrl12
	cmpl	$13, %eax
	je	.LBB4_14
# %bb.30:                               # %ctrl13
	cmpl	$14, %eax
	je	.LBB4_15
	jmp	.LBB4_16
.Lfunc_end4:
	.size	GenerateSeq_parameter_set_NALU, .Lfunc_end4-GenerateSeq_parameter_set_NALU
	.cfi_endproc
                                        # -- End function
	.globl	GenerateSeq_parameter_set_rbsp # -- Begin function GenerateSeq_parameter_set_rbsp
	.p2align	4, 0x90
	.type	GenerateSeq_parameter_set_rbsp,@function
GenerateSeq_parameter_set_rbsp:         # @GenerateSeq_parameter_set_rbsp
	.cfi_startproc
# %bb.0:                                # %rand_bb
	pushq	%rbp
	.cfi_def_cfa_offset 16
	.cfi_offset %rbp, -16
	movq	%rsp, %rbp
	.cfi_def_cfa_register %rbp
	pushq	%r14
	pushq	%rbx
	.cfi_offset %rbx, -32
	.cfi_offset %r14, -24
	movq	%rsi, %r14
	movq	%rdi, %rbx
	callq	get_urand
	cmpl	$0, %eax
	jne	.LBB5_17
# %bb.1:                                # %func_GenerateSeq_parameter_set_rbsp.6
	movq	%rbx, %rdi
	movq	%r14, %rsi
	callq	GenerateSeq_parameter_set_rbsp.6
	popq	%rbx
	popq	%r14
	popq	%rbp
	.cfi_def_cfa %rsp, 8
	retq
.LBB5_2:                                # %func_GenerateSeq_parameter_set_rbsp.23
	.cfi_def_cfa %rbp, 16
	movq	%rbx, %rdi
	movq	%r14, %rsi
	callq	GenerateSeq_parameter_set_rbsp.23
	popq	%rbx
	popq	%r14
	popq	%rbp
	.cfi_def_cfa %rsp, 8
	retq
.LBB5_3:                                # %func_GenerateSeq_parameter_set_rbsp.26
	.cfi_def_cfa %rbp, 16
	movq	%rbx, %rdi
	movq	%r14, %rsi
	callq	GenerateSeq_parameter_set_rbsp.26
	popq	%rbx
	popq	%r14
	popq	%rbp
	.cfi_def_cfa %rsp, 8
	retq
.LBB5_4:                                # %func_GenerateSeq_parameter_set_rbsp.34
	.cfi_def_cfa %rbp, 16
	movq	%rbx, %rdi
	movq	%r14, %rsi
	callq	GenerateSeq_parameter_set_rbsp.34
	popq	%rbx
	popq	%r14
	popq	%rbp
	.cfi_def_cfa %rsp, 8
	retq
.LBB5_5:                                # %func_GenerateSeq_parameter_set_rbsp.36
	.cfi_def_cfa %rbp, 16
	movq	%rbx, %rdi
	movq	%r14, %rsi
	callq	GenerateSeq_parameter_set_rbsp.36
	popq	%rbx
	popq	%r14
	popq	%rbp
	.cfi_def_cfa %rsp, 8
	retq
.LBB5_6:                                # %func_GenerateSeq_parameter_set_rbsp.39
	.cfi_def_cfa %rbp, 16
	movq	%rbx, %rdi
	movq	%r14, %rsi
	callq	GenerateSeq_parameter_set_rbsp.39
	popq	%rbx
	popq	%r14
	popq	%rbp
	.cfi_def_cfa %rsp, 8
	retq
.LBB5_7:                                # %func_GenerateSeq_parameter_set_rbsp.44
	.cfi_def_cfa %rbp, 16
	movq	%rbx, %rdi
	movq	%r14, %rsi
	callq	GenerateSeq_parameter_set_rbsp.44
	popq	%rbx
	popq	%r14
	popq	%rbp
	.cfi_def_cfa %rsp, 8
	retq
.LBB5_8:                                # %func_GenerateSeq_parameter_set_rbsp.46
	.cfi_def_cfa %rbp, 16
	movq	%rbx, %rdi
	movq	%r14, %rsi
	callq	GenerateSeq_parameter_set_rbsp.46
	popq	%rbx
	popq	%r14
	popq	%rbp
	.cfi_def_cfa %rsp, 8
	retq
.LBB5_9:                                # %func_GenerateSeq_parameter_set_rbsp.51
	.cfi_def_cfa %rbp, 16
	movq	%rbx, %rdi
	movq	%r14, %rsi
	callq	GenerateSeq_parameter_set_rbsp.51
	popq	%rbx
	popq	%r14
	popq	%rbp
	.cfi_def_cfa %rsp, 8
	retq
.LBB5_10:                               # %func_GenerateSeq_parameter_set_rbsp.57
	.cfi_def_cfa %rbp, 16
	movq	%rbx, %rdi
	movq	%r14, %rsi
	callq	GenerateSeq_parameter_set_rbsp.57
	popq	%rbx
	popq	%r14
	popq	%rbp
	.cfi_def_cfa %rsp, 8
	retq
.LBB5_11:                               # %func_GenerateSeq_parameter_set_rbsp.59
	.cfi_def_cfa %rbp, 16
	movq	%rbx, %rdi
	movq	%r14, %rsi
	callq	GenerateSeq_parameter_set_rbsp.59
	popq	%rbx
	popq	%r14
	popq	%rbp
	.cfi_def_cfa %rsp, 8
	retq
.LBB5_12:                               # %func_GenerateSeq_parameter_set_rbsp.67
	.cfi_def_cfa %rbp, 16
	movq	%rbx, %rdi
	movq	%r14, %rsi
	callq	GenerateSeq_parameter_set_rbsp.67
	popq	%rbx
	popq	%r14
	popq	%rbp
	.cfi_def_cfa %rsp, 8
	retq
.LBB5_13:                               # %func_GenerateSeq_parameter_set_rbsp.73
	.cfi_def_cfa %rbp, 16
	movq	%rbx, %rdi
	movq	%r14, %rsi
	callq	GenerateSeq_parameter_set_rbsp.73
	popq	%rbx
	popq	%r14
	popq	%rbp
	.cfi_def_cfa %rsp, 8
	retq
.LBB5_14:                               # %func_GenerateSeq_parameter_set_rbsp.97
	.cfi_def_cfa %rbp, 16
	movq	%rbx, %rdi
	movq	%r14, %rsi
	callq	GenerateSeq_parameter_set_rbsp.97
	popq	%rbx
	popq	%r14
	popq	%rbp
	.cfi_def_cfa %rsp, 8
	retq
.LBB5_15:                               # %func_GenerateSeq_parameter_set_rbsp.101
	.cfi_def_cfa %rbp, 16
	movq	%rbx, %rdi
	movq	%r14, %rsi
	callq	GenerateSeq_parameter_set_rbsp.101
	popq	%rbx
	popq	%r14
	popq	%rbp
	.cfi_def_cfa %rsp, 8
	retq
.LBB5_16:                               # %func_GenerateSeq_parameter_set_rbsp.104
	.cfi_def_cfa %rbp, 16
	movq	%rbx, %rdi
	movq	%r14, %rsi
	callq	GenerateSeq_parameter_set_rbsp.104
	popq	%rbx
	popq	%r14
	popq	%rbp
	.cfi_def_cfa %rsp, 8
	retq
.LBB5_17:                               # %ctrl0
	.cfi_def_cfa %rbp, 16
	cmpl	$1, %eax
	je	.LBB5_2
# %bb.18:                               # %ctrl1
	cmpl	$2, %eax
	je	.LBB5_3
# %bb.19:                               # %ctrl2
	cmpl	$3, %eax
	je	.LBB5_4
# %bb.20:                               # %ctrl3
	cmpl	$4, %eax
	je	.LBB5_5
# %bb.21:                               # %ctrl4
	cmpl	$5, %eax
	je	.LBB5_6
# %bb.22:                               # %ctrl5
	cmpl	$6, %eax
	je	.LBB5_7
# %bb.23:                               # %ctrl6
	cmpl	$7, %eax
	je	.LBB5_8
# %bb.24:                               # %ctrl7
	cmpl	$8, %eax
	je	.LBB5_9
# %bb.25:                               # %ctrl8
	cmpl	$9, %eax
	je	.LBB5_10
# %bb.26:                               # %ctrl9
	cmpl	$10, %eax
	je	.LBB5_11
# %bb.27:                               # %ctrl10
	cmpl	$11, %eax
	je	.LBB5_12
# %bb.28:                               # %ctrl11
	cmpl	$12, %eax
	je	.LBB5_13
# %bb.29:                               # %ctrl12
	cmpl	$13, %eax
	je	.LBB5_14
# %bb.30:                               # %ctrl13
	cmpl	$14, %eax
	je	.LBB5_15
	jmp	.LBB5_16
.Lfunc_end5:
	.size	GenerateSeq_parameter_set_rbsp, .Lfunc_end5-GenerateSeq_parameter_set_rbsp
	.cfi_endproc
                                        # -- End function
	.globl	GeneratePic_parameter_set_NALU # -- Begin function GeneratePic_parameter_set_NALU
	.p2align	4, 0x90
	.type	GeneratePic_parameter_set_NALU,@function
GeneratePic_parameter_set_NALU:         # @GeneratePic_parameter_set_NALU
	.cfi_startproc
# %bb.0:                                # %rand_bb
	pushq	%rbp
	.cfi_def_cfa_offset 16
	.cfi_offset %rbp, -16
	movq	%rsp, %rbp
	.cfi_def_cfa_register %rbp
	pushq	%rbx
	pushq	%rax
	.cfi_offset %rbx, -24
	movl	%edi, %ebx
	callq	get_urand
	cmpl	$0, %eax
	jne	.LBB6_17
# %bb.1:                                # %func_GeneratePic_parameter_set_NALU.17
	movl	%ebx, %edi
	callq	GeneratePic_parameter_set_NALU.17
	addq	$8, %rsp
	popq	%rbx
	popq	%rbp
	.cfi_def_cfa %rsp, 8
	retq
.LBB6_2:                                # %func_GeneratePic_parameter_set_NALU.19
	.cfi_def_cfa %rbp, 16
	movl	%ebx, %edi
	callq	GeneratePic_parameter_set_NALU.19
	addq	$8, %rsp
	popq	%rbx
	popq	%rbp
	.cfi_def_cfa %rsp, 8
	retq
.LBB6_3:                                # %func_GeneratePic_parameter_set_NALU.55
	.cfi_def_cfa %rbp, 16
	movl	%ebx, %edi
	callq	GeneratePic_parameter_set_NALU.55
	addq	$8, %rsp
	popq	%rbx
	popq	%rbp
	.cfi_def_cfa %rsp, 8
	retq
.LBB6_4:                                # %func_GeneratePic_parameter_set_NALU.70
	.cfi_def_cfa %rbp, 16
	movl	%ebx, %edi
	callq	GeneratePic_parameter_set_NALU.70
	addq	$8, %rsp
	popq	%rbx
	popq	%rbp
	.cfi_def_cfa %rsp, 8
	retq
.LBB6_5:                                # %func_GeneratePic_parameter_set_NALU.71
	.cfi_def_cfa %rbp, 16
	movl	%ebx, %edi
	callq	GeneratePic_parameter_set_NALU.71
	addq	$8, %rsp
	popq	%rbx
	popq	%rbp
	.cfi_def_cfa %rsp, 8
	retq
.LBB6_6:                                # %func_GeneratePic_parameter_set_NALU.72
	.cfi_def_cfa %rbp, 16
	movl	%ebx, %edi
	callq	GeneratePic_parameter_set_NALU.72
	addq	$8, %rsp
	popq	%rbx
	popq	%rbp
	.cfi_def_cfa %rsp, 8
	retq
.LBB6_7:                                # %func_GeneratePic_parameter_set_NALU.82
	.cfi_def_cfa %rbp, 16
	movl	%ebx, %edi
	callq	GeneratePic_parameter_set_NALU.82
	addq	$8, %rsp
	popq	%rbx
	popq	%rbp
	.cfi_def_cfa %rsp, 8
	retq
.LBB6_8:                                # %func_GeneratePic_parameter_set_NALU.88
	.cfi_def_cfa %rbp, 16
	movl	%ebx, %edi
	callq	GeneratePic_parameter_set_NALU.88
	addq	$8, %rsp
	popq	%rbx
	popq	%rbp
	.cfi_def_cfa %rsp, 8
	retq
.LBB6_9:                                # %func_GeneratePic_parameter_set_NALU.91
	.cfi_def_cfa %rbp, 16
	movl	%ebx, %edi
	callq	GeneratePic_parameter_set_NALU.91
	addq	$8, %rsp
	popq	%rbx
	popq	%rbp
	.cfi_def_cfa %rsp, 8
	retq
.LBB6_10:                               # %func_GeneratePic_parameter_set_NALU.98
	.cfi_def_cfa %rbp, 16
	movl	%ebx, %edi
	callq	GeneratePic_parameter_set_NALU.98
	addq	$8, %rsp
	popq	%rbx
	popq	%rbp
	.cfi_def_cfa %rsp, 8
	retq
.LBB6_11:                               # %func_GeneratePic_parameter_set_NALU.107
	.cfi_def_cfa %rbp, 16
	movl	%ebx, %edi
	callq	GeneratePic_parameter_set_NALU.107
	addq	$8, %rsp
	popq	%rbx
	popq	%rbp
	.cfi_def_cfa %rsp, 8
	retq
.LBB6_12:                               # %func_GeneratePic_parameter_set_NALU.109
	.cfi_def_cfa %rbp, 16
	movl	%ebx, %edi
	callq	GeneratePic_parameter_set_NALU.109
	addq	$8, %rsp
	popq	%rbx
	popq	%rbp
	.cfi_def_cfa %rsp, 8
	retq
.LBB6_13:                               # %func_GeneratePic_parameter_set_NALU.110
	.cfi_def_cfa %rbp, 16
	movl	%ebx, %edi
	callq	GeneratePic_parameter_set_NALU.110
	addq	$8, %rsp
	popq	%rbx
	popq	%rbp
	.cfi_def_cfa %rsp, 8
	retq
.LBB6_14:                               # %func_GeneratePic_parameter_set_NALU.113
	.cfi_def_cfa %rbp, 16
	movl	%ebx, %edi
	callq	GeneratePic_parameter_set_NALU.113
	addq	$8, %rsp
	popq	%rbx
	popq	%rbp
	.cfi_def_cfa %rsp, 8
	retq
.LBB6_15:                               # %func_GeneratePic_parameter_set_NALU.115
	.cfi_def_cfa %rbp, 16
	movl	%ebx, %edi
	callq	GeneratePic_parameter_set_NALU.115
	addq	$8, %rsp
	popq	%rbx
	popq	%rbp
	.cfi_def_cfa %rsp, 8
	retq
.LBB6_16:                               # %func_GeneratePic_parameter_set_NALU.116
	.cfi_def_cfa %rbp, 16
	movl	%ebx, %edi
	callq	GeneratePic_parameter_set_NALU.116
	addq	$8, %rsp
	popq	%rbx
	popq	%rbp
	.cfi_def_cfa %rsp, 8
	retq
.LBB6_17:                               # %ctrl0
	.cfi_def_cfa %rbp, 16
	cmpl	$1, %eax
	je	.LBB6_2
# %bb.18:                               # %ctrl1
	cmpl	$2, %eax
	je	.LBB6_3
# %bb.19:                               # %ctrl2
	cmpl	$3, %eax
	je	.LBB6_4
# %bb.20:                               # %ctrl3
	cmpl	$4, %eax
	je	.LBB6_5
# %bb.21:                               # %ctrl4
	cmpl	$5, %eax
	je	.LBB6_6
# %bb.22:                               # %ctrl5
	cmpl	$6, %eax
	je	.LBB6_7
# %bb.23:                               # %ctrl6
	cmpl	$7, %eax
	je	.LBB6_8
# %bb.24:                               # %ctrl7
	cmpl	$8, %eax
	je	.LBB6_9
# %bb.25:                               # %ctrl8
	cmpl	$9, %eax
	je	.LBB6_10
# %bb.26:                               # %ctrl9
	cmpl	$10, %eax
	je	.LBB6_11
# %bb.27:                               # %ctrl10
	cmpl	$11, %eax
	je	.LBB6_12
# %bb.28:                               # %ctrl11
	cmpl	$12, %eax
	je	.LBB6_13
# %bb.29:                               # %ctrl12
	cmpl	$13, %eax
	je	.LBB6_14
# %bb.30:                               # %ctrl13
	cmpl	$14, %eax
	je	.LBB6_15
	jmp	.LBB6_16
.Lfunc_end6:
	.size	GeneratePic_parameter_set_NALU, .Lfunc_end6-GeneratePic_parameter_set_NALU
	.cfi_endproc
                                        # -- End function
	.globl	GeneratePic_parameter_set_rbsp # -- Begin function GeneratePic_parameter_set_rbsp
	.p2align	4, 0x90
	.type	GeneratePic_parameter_set_rbsp,@function
GeneratePic_parameter_set_rbsp:         # @GeneratePic_parameter_set_rbsp
	.cfi_startproc
# %bb.0:                                # %rand_bb
	pushq	%rbp
	.cfi_def_cfa_offset 16
	.cfi_offset %rbp, -16
	movq	%rsp, %rbp
	.cfi_def_cfa_register %rbp
	pushq	%r14
	pushq	%rbx
	.cfi_offset %rbx, -32
	.cfi_offset %r14, -24
	movq	%rsi, %r14
	movq	%rdi, %rbx
	callq	get_urand
	cmpl	$0, %eax
	jne	.LBB7_17
# %bb.1:                                # %func_GeneratePic_parameter_set_rbsp.1
	movq	%rbx, %rdi
	movq	%r14, %rsi
	callq	GeneratePic_parameter_set_rbsp.1
	popq	%rbx
	popq	%r14
	popq	%rbp
	.cfi_def_cfa %rsp, 8
	retq
.LBB7_2:                                # %func_GeneratePic_parameter_set_rbsp.10
	.cfi_def_cfa %rbp, 16
	movq	%rbx, %rdi
	movq	%r14, %rsi
	callq	GeneratePic_parameter_set_rbsp.10
	popq	%rbx
	popq	%r14
	popq	%rbp
	.cfi_def_cfa %rsp, 8
	retq
.LBB7_3:                                # %func_GeneratePic_parameter_set_rbsp.11
	.cfi_def_cfa %rbp, 16
	movq	%rbx, %rdi
	movq	%r14, %rsi
	callq	GeneratePic_parameter_set_rbsp.11
	popq	%rbx
	popq	%r14
	popq	%rbp
	.cfi_def_cfa %rsp, 8
	retq
.LBB7_4:                                # %func_GeneratePic_parameter_set_rbsp.13
	.cfi_def_cfa %rbp, 16
	movq	%rbx, %rdi
	movq	%r14, %rsi
	callq	GeneratePic_parameter_set_rbsp.13
	popq	%rbx
	popq	%r14
	popq	%rbp
	.cfi_def_cfa %rsp, 8
	retq
.LBB7_5:                                # %func_GeneratePic_parameter_set_rbsp.38
	.cfi_def_cfa %rbp, 16
	movq	%rbx, %rdi
	movq	%r14, %rsi
	callq	GeneratePic_parameter_set_rbsp.38
	popq	%rbx
	popq	%r14
	popq	%rbp
	.cfi_def_cfa %rsp, 8
	retq
.LBB7_6:                                # %func_GeneratePic_parameter_set_rbsp.45
	.cfi_def_cfa %rbp, 16
	movq	%rbx, %rdi
	movq	%r14, %rsi
	callq	GeneratePic_parameter_set_rbsp.45
	popq	%rbx
	popq	%r14
	popq	%rbp
	.cfi_def_cfa %rsp, 8
	retq
.LBB7_7:                                # %func_GeneratePic_parameter_set_rbsp.49
	.cfi_def_cfa %rbp, 16
	movq	%rbx, %rdi
	movq	%r14, %rsi
	callq	GeneratePic_parameter_set_rbsp.49
	popq	%rbx
	popq	%r14
	popq	%rbp
	.cfi_def_cfa %rsp, 8
	retq
.LBB7_8:                                # %func_GeneratePic_parameter_set_rbsp.66
	.cfi_def_cfa %rbp, 16
	movq	%rbx, %rdi
	movq	%r14, %rsi
	callq	GeneratePic_parameter_set_rbsp.66
	popq	%rbx
	popq	%r14
	popq	%rbp
	.cfi_def_cfa %rsp, 8
	retq
.LBB7_9:                                # %func_GeneratePic_parameter_set_rbsp.68
	.cfi_def_cfa %rbp, 16
	movq	%rbx, %rdi
	movq	%r14, %rsi
	callq	GeneratePic_parameter_set_rbsp.68
	popq	%rbx
	popq	%r14
	popq	%rbp
	.cfi_def_cfa %rsp, 8
	retq
.LBB7_10:                               # %func_GeneratePic_parameter_set_rbsp.94
	.cfi_def_cfa %rbp, 16
	movq	%rbx, %rdi
	movq	%r14, %rsi
	callq	GeneratePic_parameter_set_rbsp.94
	popq	%rbx
	popq	%r14
	popq	%rbp
	.cfi_def_cfa %rsp, 8
	retq
.LBB7_11:                               # %func_GeneratePic_parameter_set_rbsp.95
	.cfi_def_cfa %rbp, 16
	movq	%rbx, %rdi
	movq	%r14, %rsi
	callq	GeneratePic_parameter_set_rbsp.95
	popq	%rbx
	popq	%r14
	popq	%rbp
	.cfi_def_cfa %rsp, 8
	retq
.LBB7_12:                               # %func_GeneratePic_parameter_set_rbsp.100
	.cfi_def_cfa %rbp, 16
	movq	%rbx, %rdi
	movq	%r14, %rsi
	callq	GeneratePic_parameter_set_rbsp.100
	popq	%rbx
	popq	%r14
	popq	%rbp
	.cfi_def_cfa %rsp, 8
	retq
.LBB7_13:                               # %func_GeneratePic_parameter_set_rbsp.103
	.cfi_def_cfa %rbp, 16
	movq	%rbx, %rdi
	movq	%r14, %rsi
	callq	GeneratePic_parameter_set_rbsp.103
	popq	%rbx
	popq	%r14
	popq	%rbp
	.cfi_def_cfa %rsp, 8
	retq
.LBB7_14:                               # %func_GeneratePic_parameter_set_rbsp.105
	.cfi_def_cfa %rbp, 16
	movq	%rbx, %rdi
	movq	%r14, %rsi
	callq	GeneratePic_parameter_set_rbsp.105
	popq	%rbx
	popq	%r14
	popq	%rbp
	.cfi_def_cfa %rsp, 8
	retq
.LBB7_15:                               # %func_GeneratePic_parameter_set_rbsp.112
	.cfi_def_cfa %rbp, 16
	movq	%rbx, %rdi
	movq	%r14, %rsi
	callq	GeneratePic_parameter_set_rbsp.112
	popq	%rbx
	popq	%r14
	popq	%rbp
	.cfi_def_cfa %rsp, 8
	retq
.LBB7_16:                               # %func_GeneratePic_parameter_set_rbsp.114
	.cfi_def_cfa %rbp, 16
	movq	%rbx, %rdi
	movq	%r14, %rsi
	callq	GeneratePic_parameter_set_rbsp.114
	popq	%rbx
	popq	%r14
	popq	%rbp
	.cfi_def_cfa %rsp, 8
	retq
.LBB7_17:                               # %ctrl0
	.cfi_def_cfa %rbp, 16
	cmpl	$1, %eax
	je	.LBB7_2
# %bb.18:                               # %ctrl1
	cmpl	$2, %eax
	je	.LBB7_3
# %bb.19:                               # %ctrl2
	cmpl	$3, %eax
	je	.LBB7_4
# %bb.20:                               # %ctrl3
	cmpl	$4, %eax
	je	.LBB7_5
# %bb.21:                               # %ctrl4
	cmpl	$5, %eax
	je	.LBB7_6
# %bb.22:                               # %ctrl5
	cmpl	$6, %eax
	je	.LBB7_7
# %bb.23:                               # %ctrl6
	cmpl	$7, %eax
	je	.LBB7_8
# %bb.24:                               # %ctrl7
	cmpl	$8, %eax
	je	.LBB7_9
# %bb.25:                               # %ctrl8
	cmpl	$9, %eax
	je	.LBB7_10
# %bb.26:                               # %ctrl9
	cmpl	$10, %eax
	je	.LBB7_11
# %bb.27:                               # %ctrl10
	cmpl	$11, %eax
	je	.LBB7_12
# %bb.28:                               # %ctrl11
	cmpl	$12, %eax
	je	.LBB7_13
# %bb.29:                               # %ctrl12
	cmpl	$13, %eax
	je	.LBB7_14
# %bb.30:                               # %ctrl13
	cmpl	$14, %eax
	je	.LBB7_15
	jmp	.LBB7_16
.Lfunc_end7:
	.size	GeneratePic_parameter_set_rbsp, .Lfunc_end7-GeneratePic_parameter_set_rbsp
	.cfi_endproc
                                        # -- End function
	.globl	Scaling_List            # -- Begin function Scaling_List
	.p2align	4, 0x90
	.type	Scaling_List,@function
Scaling_List:                           # @Scaling_List
	.cfi_startproc
# %bb.0:                                # %rand_bb
	pushq	%rbp
	.cfi_def_cfa_offset 16
	.cfi_offset %rbp, -16
	movq	%rsp, %rbp
	.cfi_def_cfa_register %rbp
	pushq	%r15
	pushq	%r14
	pushq	%r13
	pushq	%r12
	pushq	%rbx
	pushq	%rax
	.cfi_offset %rbx, -56
	.cfi_offset %r12, -48
	.cfi_offset %r13, -40
	.cfi_offset %r14, -32
	.cfi_offset %r15, -24
	movq	%r8, %r14
	movq	%rcx, %r15
	movl	%edx, %r12d
	movq	%rsi, %r13
	movq	%rdi, %rbx
	callq	get_urand
	cmpl	$0, %eax
	jne	.LBB8_17
# %bb.1:                                # %func_Scaling_List.15
	movq	%rbx, %rdi
	movq	%r13, %rsi
	movl	%r12d, %edx
	movq	%r15, %rcx
	movq	%r14, %r8
	callq	Scaling_List.15
	addq	$8, %rsp
	popq	%rbx
	popq	%r12
	popq	%r13
	popq	%r14
	popq	%r15
	popq	%rbp
	.cfi_def_cfa %rsp, 8
	retq
.LBB8_2:                                # %func_Scaling_List.16
	.cfi_def_cfa %rbp, 16
	movq	%rbx, %rdi
	movq	%r13, %rsi
	movl	%r12d, %edx
	movq	%r15, %rcx
	movq	%r14, %r8
	callq	Scaling_List.16
	addq	$8, %rsp
	popq	%rbx
	popq	%r12
	popq	%r13
	popq	%r14
	popq	%r15
	popq	%rbp
	.cfi_def_cfa %rsp, 8
	retq
.LBB8_3:                                # %func_Scaling_List.28
	.cfi_def_cfa %rbp, 16
	movq	%rbx, %rdi
	movq	%r13, %rsi
	movl	%r12d, %edx
	movq	%r15, %rcx
	movq	%r14, %r8
	callq	Scaling_List.28
	addq	$8, %rsp
	popq	%rbx
	popq	%r12
	popq	%r13
	popq	%r14
	popq	%r15
	popq	%rbp
	.cfi_def_cfa %rsp, 8
	retq
.LBB8_4:                                # %func_Scaling_List.32
	.cfi_def_cfa %rbp, 16
	movq	%rbx, %rdi
	movq	%r13, %rsi
	movl	%r12d, %edx
	movq	%r15, %rcx
	movq	%r14, %r8
	callq	Scaling_List.32
	addq	$8, %rsp
	popq	%rbx
	popq	%r12
	popq	%r13
	popq	%r14
	popq	%r15
	popq	%rbp
	.cfi_def_cfa %rsp, 8
	retq
.LBB8_5:                                # %func_Scaling_List.37
	.cfi_def_cfa %rbp, 16
	movq	%rbx, %rdi
	movq	%r13, %rsi
	movl	%r12d, %edx
	movq	%r15, %rcx
	movq	%r14, %r8
	callq	Scaling_List.37
	addq	$8, %rsp
	popq	%rbx
	popq	%r12
	popq	%r13
	popq	%r14
	popq	%r15
	popq	%rbp
	.cfi_def_cfa %rsp, 8
	retq
.LBB8_6:                                # %func_Scaling_List.40
	.cfi_def_cfa %rbp, 16
	movq	%rbx, %rdi
	movq	%r13, %rsi
	movl	%r12d, %edx
	movq	%r15, %rcx
	movq	%r14, %r8
	callq	Scaling_List.40
	addq	$8, %rsp
	popq	%rbx
	popq	%r12
	popq	%r13
	popq	%r14
	popq	%r15
	popq	%rbp
	.cfi_def_cfa %rsp, 8
	retq
.LBB8_7:                                # %func_Scaling_List.52
	.cfi_def_cfa %rbp, 16
	movq	%rbx, %rdi
	movq	%r13, %rsi
	movl	%r12d, %edx
	movq	%r15, %rcx
	movq	%r14, %r8
	callq	Scaling_List.52
	addq	$8, %rsp
	popq	%rbx
	popq	%r12
	popq	%r13
	popq	%r14
	popq	%r15
	popq	%rbp
	.cfi_def_cfa %rsp, 8
	retq
.LBB8_8:                                # %func_Scaling_List.60
	.cfi_def_cfa %rbp, 16
	movq	%rbx, %rdi
	movq	%r13, %rsi
	movl	%r12d, %edx
	movq	%r15, %rcx
	movq	%r14, %r8
	callq	Scaling_List.60
	addq	$8, %rsp
	popq	%rbx
	popq	%r12
	popq	%r13
	popq	%r14
	popq	%r15
	popq	%rbp
	.cfi_def_cfa %rsp, 8
	retq
.LBB8_9:                                # %func_Scaling_List.61
	.cfi_def_cfa %rbp, 16
	movq	%rbx, %rdi
	movq	%r13, %rsi
	movl	%r12d, %edx
	movq	%r15, %rcx
	movq	%r14, %r8
	callq	Scaling_List.61
	addq	$8, %rsp
	popq	%rbx
	popq	%r12
	popq	%r13
	popq	%r14
	popq	%r15
	popq	%rbp
	.cfi_def_cfa %rsp, 8
	retq
.LBB8_10:                               # %func_Scaling_List.63
	.cfi_def_cfa %rbp, 16
	movq	%rbx, %rdi
	movq	%r13, %rsi
	movl	%r12d, %edx
	movq	%r15, %rcx
	movq	%r14, %r8
	callq	Scaling_List.63
	addq	$8, %rsp
	popq	%rbx
	popq	%r12
	popq	%r13
	popq	%r14
	popq	%r15
	popq	%rbp
	.cfi_def_cfa %rsp, 8
	retq
.LBB8_11:                               # %func_Scaling_List.64
	.cfi_def_cfa %rbp, 16
	movq	%rbx, %rdi
	movq	%r13, %rsi
	movl	%r12d, %edx
	movq	%r15, %rcx
	movq	%r14, %r8
	callq	Scaling_List.64
	addq	$8, %rsp
	popq	%rbx
	popq	%r12
	popq	%r13
	popq	%r14
	popq	%r15
	popq	%rbp
	.cfi_def_cfa %rsp, 8
	retq
.LBB8_12:                               # %func_Scaling_List.69
	.cfi_def_cfa %rbp, 16
	movq	%rbx, %rdi
	movq	%r13, %rsi
	movl	%r12d, %edx
	movq	%r15, %rcx
	movq	%r14, %r8
	callq	Scaling_List.69
	addq	$8, %rsp
	popq	%rbx
	popq	%r12
	popq	%r13
	popq	%r14
	popq	%r15
	popq	%rbp
	.cfi_def_cfa %rsp, 8
	retq
.LBB8_13:                               # %func_Scaling_List.74
	.cfi_def_cfa %rbp, 16
	movq	%rbx, %rdi
	movq	%r13, %rsi
	movl	%r12d, %edx
	movq	%r15, %rcx
	movq	%r14, %r8
	callq	Scaling_List.74
	addq	$8, %rsp
	popq	%rbx
	popq	%r12
	popq	%r13
	popq	%r14
	popq	%r15
	popq	%rbp
	.cfi_def_cfa %rsp, 8
	retq
.LBB8_14:                               # %func_Scaling_List.77
	.cfi_def_cfa %rbp, 16
	movq	%rbx, %rdi
	movq	%r13, %rsi
	movl	%r12d, %edx
	movq	%r15, %rcx
	movq	%r14, %r8
	callq	Scaling_List.77
	addq	$8, %rsp
	popq	%rbx
	popq	%r12
	popq	%r13
	popq	%r14
	popq	%r15
	popq	%rbp
	.cfi_def_cfa %rsp, 8
	retq
.LBB8_15:                               # %func_Scaling_List.78
	.cfi_def_cfa %rbp, 16
	movq	%rbx, %rdi
	movq	%r13, %rsi
	movl	%r12d, %edx
	movq	%r15, %rcx
	movq	%r14, %r8
	callq	Scaling_List.78
	addq	$8, %rsp
	popq	%rbx
	popq	%r12
	popq	%r13
	popq	%r14
	popq	%r15
	popq	%rbp
	.cfi_def_cfa %rsp, 8
	retq
.LBB8_16:                               # %func_Scaling_List.96
	.cfi_def_cfa %rbp, 16
	movq	%rbx, %rdi
	movq	%r13, %rsi
	movl	%r12d, %edx
	movq	%r15, %rcx
	movq	%r14, %r8
	callq	Scaling_List.96
	addq	$8, %rsp
	popq	%rbx
	popq	%r12
	popq	%r13
	popq	%r14
	popq	%r15
	popq	%rbp
	.cfi_def_cfa %rsp, 8
	retq
.LBB8_17:                               # %ctrl0
	.cfi_def_cfa %rbp, 16
	cmpl	$1, %eax
	je	.LBB8_2
# %bb.18:                               # %ctrl1
	cmpl	$2, %eax
	je	.LBB8_3
# %bb.19:                               # %ctrl2
	cmpl	$3, %eax
	je	.LBB8_4
# %bb.20:                               # %ctrl3
	cmpl	$4, %eax
	je	.LBB8_5
# %bb.21:                               # %ctrl4
	cmpl	$5, %eax
	je	.LBB8_6
# %bb.22:                               # %ctrl5
	cmpl	$6, %eax
	je	.LBB8_7
# %bb.23:                               # %ctrl6
	cmpl	$7, %eax
	je	.LBB8_8
# %bb.24:                               # %ctrl7
	cmpl	$8, %eax
	je	.LBB8_9
# %bb.25:                               # %ctrl8
	cmpl	$9, %eax
	je	.LBB8_10
# %bb.26:                               # %ctrl9
	cmpl	$10, %eax
	je	.LBB8_11
# %bb.27:                               # %ctrl10
	cmpl	$11, %eax
	je	.LBB8_12
# %bb.28:                               # %ctrl11
	cmpl	$12, %eax
	je	.LBB8_13
# %bb.29:                               # %ctrl12
	cmpl	$13, %eax
	je	.LBB8_14
# %bb.30:                               # %ctrl13
	cmpl	$14, %eax
	je	.LBB8_15
	jmp	.LBB8_16
.Lfunc_end8:
	.size	Scaling_List, .Lfunc_end8-Scaling_List
	.cfi_endproc
                                        # -- End function
	.p2align	4, 0x90         # -- Begin function IdentifyProfile
	.type	IdentifyProfile,@function
IdentifyProfile:                        # @IdentifyProfile
	.cfi_startproc
# %bb.0:                                # %entry
	pushq	%rbp
	.cfi_def_cfa_offset 16
	.cfi_offset %rbp, -16
	movq	%rsp, %rbp
	.cfi_def_cfa_register %rbp
	movq	input, %rax
	movl	(%rax), %eax
	popq	%rbp
	.cfi_def_cfa %rsp, 8
	retq
.Lfunc_end9:
	.size	IdentifyProfile, .Lfunc_end9-IdentifyProfile
	.cfi_endproc
                                        # -- End function
	.p2align	4, 0x90         # -- Begin function IdentifyLevel
	.type	IdentifyLevel,@function
IdentifyLevel:                          # @IdentifyLevel
	.cfi_startproc
# %bb.0:                                # %entry
	pushq	%rbp
	.cfi_def_cfa_offset 16
	.cfi_offset %rbp, -16
	movq	%rsp, %rbp
	.cfi_def_cfa_register %rbp
	movq	input, %rax
	movl	4(%rax), %eax
	popq	%rbp
	.cfi_def_cfa %rsp, 8
	retq
.Lfunc_end10:
	.size	IdentifyLevel, .Lfunc_end10-IdentifyLevel
	.cfi_endproc
                                        # -- End function
	.p2align	4, 0x90         # -- Begin function GenerateVUISequenceParameters
	.type	GenerateVUISequenceParameters,@function
GenerateVUISequenceParameters:          # @GenerateVUISequenceParameters
	.cfi_startproc
# %bb.0:                                # %rand_bb
	pushq	%rbp
	.cfi_def_cfa_offset 16
	.cfi_offset %rbp, -16
	movq	%rsp, %rbp
	.cfi_def_cfa_register %rbp
	pushq	%rbx
	pushq	%rax
	.cfi_offset %rbx, -24
	movq	%rdi, %rbx
	callq	get_urand
	cmpl	$0, %eax
	jne	.LBB11_2
# %bb.1:                                # %func_GenerateVUISequenceParameters.7
	movq	%rbx, %rdi
	callq	GenerateVUISequenceParameters.7
	addq	$8, %rsp
	popq	%rbx
	popq	%rbp
	.cfi_def_cfa %rsp, 8
	retq
.LBB11_2:                               # %func_GenerateVUISequenceParameters.35
	.cfi_def_cfa %rbp, 16
	movq	%rbx, %rdi
	callq	GenerateVUISequenceParameters.35
	addq	$8, %rsp
	popq	%rbx
	popq	%rbp
	.cfi_def_cfa %rsp, 8
	retq
.Lfunc_end11:
	.size	GenerateVUISequenceParameters, .Lfunc_end11-GenerateVUISequenceParameters
	.cfi_endproc
                                        # -- End function
	.globl	GeneratePic_parameter_set_rbsp.1 # -- Begin function GeneratePic_parameter_set_rbsp.1
	.p2align	4, 0x90
	.type	GeneratePic_parameter_set_rbsp.1,@function
GeneratePic_parameter_set_rbsp.1:       # @GeneratePic_parameter_set_rbsp.1
	.cfi_startproc
# %bb.0:                                # %entry
	pushq	%rbp
	.cfi_def_cfa_offset 16
	.cfi_offset %rbp, -16
	movq	%rsp, %rbp
	.cfi_def_cfa_register %rbp
	pushq	%rbx
	subq	$56, %rsp
	.cfi_offset %rbx, -24
	movl	$1291690680, -44(%rbp)  # imm = 0x4CFDA2B8
	movq	%rdi, -24(%rbp)
	movq	%rsi, -56(%rbp)
	movl	$0, -12(%rbp)
	movl	$1, %edi
	movl	$120, %esi
	callq	calloc
	movq	%rax, -32(%rbp)
	cmpq	$0, %rax
	jne	.LBB12_2
# %bb.1:                                # %if.then
	movabsq	$.L.str.42, %rdi
	callq	no_mem_exit
.LBB12_2:                               # %if.end
	movl	$1, %edi
	movl	$48, %esi
	callq	calloc
	movq	-32(%rbp), %rcx
	movq	%rax, (%rcx)
	cmpq	$0, %rax
	jne	.LBB12_4
# %bb.3:                                # %if.then3
	movabsq	$.L.str.43, %rdi
	callq	no_mem_exit
.LBB12_4:                               # %if.end4
	movq	-56(%rbp), %rax
	movq	-32(%rbp), %rcx
	movq	(%rcx), %rcx
	movq	%rax, 32(%rcx)
	movq	-32(%rbp), %rax
	movq	(%rax), %rax
	movl	$8, 4(%rax)
	movq	img, %rax
	movl	72492(%rax), %eax
	movq	-24(%rbp), %rcx
	movl	%eax, 56(%rcx)
	movq	-24(%rbp), %rax
	movl	4(%rax), %esi
	movq	-32(%rbp), %rdx
	movabsq	$.L.str.44, %rdi
	callq	ue_v
	addl	-12(%rbp), %eax
	movl	%eax, -12(%rbp)
	movq	-24(%rbp), %rax
	movl	8(%rax), %esi
	movq	-32(%rbp), %rdx
	movabsq	$.L.str.45, %rdi
	callq	ue_v
	addl	-12(%rbp), %eax
	movl	%eax, -12(%rbp)
	movq	-24(%rbp), %rax
	movl	12(%rax), %esi
	movq	-32(%rbp), %rdx
	movabsq	$.L.str.46, %rdi
	callq	u_1
	addl	-12(%rbp), %eax
	movl	%eax, -12(%rbp)
	movq	-24(%rbp), %rax
	movl	56(%rax), %esi
	movq	-32(%rbp), %rdx
	movabsq	$.L.str.47, %rdi
	callq	u_1
	addl	-12(%rbp), %eax
	movl	%eax, -12(%rbp)
	movq	-24(%rbp), %rax
	movl	60(%rax), %esi
	movq	-32(%rbp), %rdx
	movabsq	$.L.str.48, %rdi
	callq	ue_v
	addl	-12(%rbp), %eax
	movl	%eax, -12(%rbp)
	movq	-24(%rbp), %rax
	cmpl	$0, 60(%rax)
	jbe	.LBB12_40
# %bb.5:                                # %if.then20
	movq	-24(%rbp), %rax
	movl	64(%rax), %esi
	movq	-32(%rbp), %rdx
	movabsq	$.L.str.49, %rdi
	callq	ue_v
	addl	-12(%rbp), %eax
	movl	%eax, -12(%rbp)
	movq	-24(%rbp), %rax
	cmpl	$0, 64(%rax)
	jne	.LBB12_11
# %bb.6:                                # %if.then25
	movl	$0, -16(%rbp)
.LBB12_7:                               # %for.cond
                                        # =>This Inner Loop Header: Depth=1
	movl	-16(%rbp), %eax
	movq	-24(%rbp), %rcx
	cmpl	60(%rcx), %eax
	ja	.LBB12_10
# %bb.8:                                # %for.body
                                        #   in Loop: Header=BB12_7 Depth=1
	movq	-24(%rbp), %rax
	movl	-16(%rbp), %ecx
	movl	68(%rax,%rcx,4), %esi
	movq	-32(%rbp), %rdx
	movabsq	$.L.str.50, %rdi
	callq	ue_v
	addl	-12(%rbp), %eax
	movl	%eax, -12(%rbp)
# %bb.9:                                # %for.inc
                                        #   in Loop: Header=BB12_7 Depth=1
	movl	-16(%rbp), %eax
	addl	$1, %eax
	movl	%eax, -16(%rbp)
	jmp	.LBB12_7
.LBB12_10:                              # %for.end
	jmp	.LBB12_39
.LBB12_11:                              # %if.else
	movq	-24(%rbp), %rax
	cmpl	$2, 64(%rax)
	jne	.LBB12_17
# %bb.12:                               # %if.then32
	movl	$0, -16(%rbp)
.LBB12_13:                              # %for.cond33
                                        # =>This Inner Loop Header: Depth=1
	movl	-16(%rbp), %eax
	movq	-24(%rbp), %rcx
	cmpl	60(%rcx), %eax
	jae	.LBB12_16
# %bb.14:                               # %for.body36
                                        #   in Loop: Header=BB12_13 Depth=1
	movq	-24(%rbp), %rax
	movl	-16(%rbp), %ecx
	movl	100(%rax,%rcx,4), %esi
	movq	-32(%rbp), %rdx
	movabsq	$.L.str.51, %rdi
	callq	ue_v
	addl	-12(%rbp), %eax
	movl	%eax, -12(%rbp)
	movq	-24(%rbp), %rax
	movl	-16(%rbp), %ecx
	movl	132(%rax,%rcx,4), %esi
	movq	-32(%rbp), %rdx
	movabsq	$.L.str.52, %rdi
	callq	ue_v
	addl	-12(%rbp), %eax
	movl	%eax, -12(%rbp)
# %bb.15:                               # %for.inc45
                                        #   in Loop: Header=BB12_13 Depth=1
	movl	-16(%rbp), %eax
	addl	$1, %eax
	movl	%eax, -16(%rbp)
	jmp	.LBB12_13
.LBB12_16:                              # %for.end47
	jmp	.LBB12_38
.LBB12_17:                              # %if.else48
	movq	-24(%rbp), %rax
	cmpl	$3, 64(%rax)
	je	.LBB12_20
# %bb.18:                               # %lor.lhs.false
	movq	-24(%rbp), %rax
	cmpl	$4, 64(%rax)
	je	.LBB12_20
# %bb.19:                               # %lor.lhs.false53
	movq	-24(%rbp), %rax
	cmpl	$5, 64(%rax)
	jne	.LBB12_21
.LBB12_20:                              # %if.then56
	movq	-24(%rbp), %rax
	movl	164(%rax), %esi
	movq	-32(%rbp), %rdx
	movabsq	$.L.str.53, %rdi
	callq	u_1
	addl	-12(%rbp), %eax
	movl	%eax, -12(%rbp)
	movq	-24(%rbp), %rax
	movl	168(%rax), %esi
	movq	-32(%rbp), %rdx
	movabsq	$.L.str.54, %rdi
	callq	ue_v
	addl	-12(%rbp), %eax
	movl	%eax, -12(%rbp)
	jmp	.LBB12_37
.LBB12_21:                              # %if.else61
	movq	-24(%rbp), %rax
	cmpl	$6, 64(%rax)
	jne	.LBB12_36
# %bb.22:                               # %if.then64
	movq	-24(%rbp), %rax
	cmpl	$4, 60(%rax)
	jb	.LBB12_24
# %bb.23:                               # %if.then67
	movl	$3, -40(%rbp)
	jmp	.LBB12_31
.LBB12_24:                              # %if.else68
	movq	-24(%rbp), %rax
	cmpl	$2, 60(%rax)
	jb	.LBB12_26
# %bb.25:                               # %if.then71
	movl	$2, -40(%rbp)
	jmp	.LBB12_30
.LBB12_26:                              # %if.else72
	movq	-24(%rbp), %rax
	cmpl	$1, 60(%rax)
	jb	.LBB12_28
# %bb.27:                               # %if.then75
	movl	$1, -40(%rbp)
	jmp	.LBB12_29
.LBB12_28:                              # %if.else76
	movl	$0, -40(%rbp)
.LBB12_29:                              # %if.end77
	jmp	.LBB12_30
.LBB12_30:                              # %if.end78
	jmp	.LBB12_31
.LBB12_31:                              # %if.end79
	movq	-24(%rbp), %rax
	movl	172(%rax), %esi
	movq	-32(%rbp), %rdx
	movabsq	$.L.str.55, %rdi
	callq	ue_v
	addl	-12(%rbp), %eax
	movl	%eax, -12(%rbp)
	movl	$0, -16(%rbp)
.LBB12_32:                              # %for.cond82
                                        # =>This Inner Loop Header: Depth=1
	movl	-16(%rbp), %eax
	movq	-24(%rbp), %rcx
	cmpl	172(%rcx), %eax
	ja	.LBB12_35
# %bb.33:                               # %for.body85
                                        #   in Loop: Header=BB12_32 Depth=1
	movl	-40(%rbp), %edi
	movq	-24(%rbp), %rax
	movq	176(%rax), %rax
	movl	-16(%rbp), %ecx
	movzbl	(%rax,%rcx), %edx
	movq	-32(%rbp), %rcx
	movabsq	$.L.str.56, %rsi
	callq	u_v
	addl	-12(%rbp), %eax
	movl	%eax, -12(%rbp)
# %bb.34:                               # %for.inc90
                                        #   in Loop: Header=BB12_32 Depth=1
	movl	-16(%rbp), %eax
	addl	$1, %eax
	movl	%eax, -16(%rbp)
	jmp	.LBB12_32
.LBB12_35:                              # %for.end92
	jmp	.LBB12_36
.LBB12_36:                              # %if.end93
	jmp	.LBB12_37
.LBB12_37:                              # %if.end94
	jmp	.LBB12_38
.LBB12_38:                              # %if.end95
	jmp	.LBB12_39
.LBB12_39:                              # %if.end96
	jmp	.LBB12_40
.LBB12_40:                              # %if.end97
	movq	-24(%rbp), %rax
	movl	184(%rax), %esi
	movq	-32(%rbp), %rdx
	movabsq	$.L.str.57, %rdi
	callq	ue_v
	addl	-12(%rbp), %eax
	movl	%eax, -12(%rbp)
	movq	-24(%rbp), %rax
	movl	188(%rax), %esi
	movq	-32(%rbp), %rdx
	movabsq	$.L.str.58, %rdi
	callq	ue_v
	addl	-12(%rbp), %eax
	movl	%eax, -12(%rbp)
	movq	-24(%rbp), %rax
	movl	192(%rax), %esi
	movq	-32(%rbp), %rdx
	movabsq	$.L.str.59, %rdi
	callq	u_1
	addl	-12(%rbp), %eax
	movl	%eax, -12(%rbp)
	movq	-24(%rbp), %rax
	movl	196(%rax), %edx
	movq	-32(%rbp), %rcx
	movl	$2, %edi
	movabsq	$.L.str.60, %rsi
	callq	u_v
	addl	-12(%rbp), %eax
	movl	%eax, -12(%rbp)
	movq	-24(%rbp), %rax
	movl	200(%rax), %esi
	movq	-32(%rbp), %rdx
	movabsq	$.L.str.61, %rdi
	callq	se_v
	addl	-12(%rbp), %eax
	movl	%eax, -12(%rbp)
	movq	-24(%rbp), %rax
	movl	204(%rax), %esi
	movq	-32(%rbp), %rdx
	movabsq	$.L.str.62, %rdi
	callq	se_v
	addl	-12(%rbp), %eax
	movl	%eax, -12(%rbp)
	callq	IdentifyProfile
	movl	%eax, -36(%rbp)
	cmpl	$100, -36(%rbp)
	je	.LBB12_44
# %bb.41:                               # %lor.lhs.false113
	cmpl	$110, -36(%rbp)
	je	.LBB12_44
# %bb.42:                               # %lor.lhs.false116
	cmpl	$122, -36(%rbp)
	je	.LBB12_44
# %bb.43:                               # %lor.lhs.false119
	cmpl	$144, -36(%rbp)
	jne	.LBB12_45
.LBB12_44:                              # %if.then122
	movq	-24(%rbp), %rax
	movl	212(%rax), %esi
	movq	-32(%rbp), %rdx
	movabsq	$.L.str.63, %rdi
	callq	se_v
	addl	-12(%rbp), %eax
	movl	%eax, -12(%rbp)
	jmp	.LBB12_46
.LBB12_45:                              # %if.else125
	movq	-24(%rbp), %rax
	movl	208(%rax), %esi
	movq	-32(%rbp), %rdx
	movabsq	$.L.str.63, %rdi
	callq	se_v
	addl	-12(%rbp), %eax
	movl	%eax, -12(%rbp)
.LBB12_46:                              # %if.end128
	movq	-24(%rbp), %rax
	movl	220(%rax), %esi
	movq	-32(%rbp), %rdx
	movabsq	$.L.str.64, %rdi
	callq	u_1
	addl	-12(%rbp), %eax
	movl	%eax, -12(%rbp)
	movq	-24(%rbp), %rax
	movl	224(%rax), %esi
	movq	-32(%rbp), %rdx
	movabsq	$.L.str.65, %rdi
	callq	u_1
	addl	-12(%rbp), %eax
	movl	%eax, -12(%rbp)
	movq	-24(%rbp), %rax
	movl	228(%rax), %esi
	movq	-32(%rbp), %rdx
	movabsq	$.L.str.66, %rdi
	callq	u_1
	addl	-12(%rbp), %eax
	movl	%eax, -12(%rbp)
	cmpl	$100, -36(%rbp)
	je	.LBB12_50
# %bb.47:                               # %lor.lhs.false137
	cmpl	$110, -36(%rbp)
	je	.LBB12_50
# %bb.48:                               # %lor.lhs.false140
	cmpl	$122, -36(%rbp)
	je	.LBB12_50
# %bb.49:                               # %lor.lhs.false143
	cmpl	$144, -36(%rbp)
	jne	.LBB12_62
.LBB12_50:                              # %if.then146
	movq	-24(%rbp), %rax
	movl	16(%rax), %esi
	movq	-32(%rbp), %rdx
	movabsq	$.L.str.67, %rdi
	callq	u_1
	addl	-12(%rbp), %eax
	movl	%eax, -12(%rbp)
	movq	-24(%rbp), %rax
	movl	20(%rax), %esi
	movq	-32(%rbp), %rdx
	movabsq	$.L.str.68, %rdi
	callq	u_1
	addl	-12(%rbp), %eax
	movl	%eax, -12(%rbp)
	movq	-24(%rbp), %rax
	cmpl	$0, 20(%rax)
	je	.LBB12_61
# %bb.51:                               # %if.then152
	movl	$0, -16(%rbp)
.LBB12_52:                              # %for.cond153
                                        # =>This Inner Loop Header: Depth=1
	movl	-16(%rbp), %eax
	movq	-24(%rbp), %rcx
	movl	16(%rcx), %ecx
	shll	$1, %ecx
	addl	$6, %ecx
	cmpl	%ecx, %eax
	jae	.LBB12_60
# %bb.53:                               # %for.body158
                                        #   in Loop: Header=BB12_52 Depth=1
	movq	-24(%rbp), %rax
	movl	-16(%rbp), %ecx
	movl	24(%rax,%rcx,4), %esi
	movq	-32(%rbp), %rdx
	movabsq	$.L.str.69, %rdi
	callq	u_1
	addl	-12(%rbp), %eax
	movl	%eax, -12(%rbp)
	movq	-24(%rbp), %rax
	movl	-16(%rbp), %ecx
	cmpl	$0, 24(%rax,%rcx,4)
	je	.LBB12_58
# %bb.54:                               # %if.then167
                                        #   in Loop: Header=BB12_52 Depth=1
	cmpl	$6, -16(%rbp)
	jae	.LBB12_56
# %bb.55:                               # %if.then170
                                        #   in Loop: Header=BB12_52 Depth=1
	movl	-16(%rbp), %eax
	shlq	$5, %rax
	movabsq	$ScalingList4x4input, %rdi
	addq	%rax, %rdi
	movl	-16(%rbp), %eax
	shlq	$5, %rax
	movabsq	$ScalingList4x4, %rsi
	addq	%rax, %rsi
	movl	-16(%rbp), %eax
	shlq	$1, %rax
	movabsq	$UseDefaultScalingMatrix4x4Flag, %rcx
	addq	%rax, %rcx
	movq	-32(%rbp), %r8
	movl	$16, %edx
	callq	Scaling_List
	addl	-12(%rbp), %eax
	movl	%eax, -12(%rbp)
	jmp	.LBB12_57
.LBB12_56:                              # %if.else180
                                        #   in Loop: Header=BB12_52 Depth=1
	movl	-16(%rbp), %eax
	subl	$6, %eax
	movl	%eax, %eax
	shlq	$7, %rax
	movabsq	$ScalingList8x8input, %rdi
	addq	%rax, %rdi
	movl	-16(%rbp), %eax
	subl	$6, %eax
	movl	%eax, %eax
	shlq	$7, %rax
	movabsq	$ScalingList8x8, %rsi
	addq	%rax, %rsi
	movl	-16(%rbp), %eax
	subl	$6, %eax
	movl	%eax, %eax
	shlq	$1, %rax
	movabsq	$UseDefaultScalingMatrix8x8Flag, %rcx
	addq	%rax, %rcx
	movq	-32(%rbp), %r8
	movl	$64, %edx
	callq	Scaling_List
	addl	-12(%rbp), %eax
	movl	%eax, -12(%rbp)
.LBB12_57:                              # %if.end193
                                        #   in Loop: Header=BB12_52 Depth=1
	jmp	.LBB12_58
.LBB12_58:                              # %if.end194
                                        #   in Loop: Header=BB12_52 Depth=1
	jmp	.LBB12_59
.LBB12_59:                              # %for.inc195
                                        #   in Loop: Header=BB12_52 Depth=1
	movl	-16(%rbp), %eax
	addl	$1, %eax
	movl	%eax, -16(%rbp)
	jmp	.LBB12_52
.LBB12_60:                              # %for.end197
	jmp	.LBB12_61
.LBB12_61:                              # %if.end198
	movq	-24(%rbp), %rax
	movl	216(%rax), %esi
	movq	-32(%rbp), %rdx
	movabsq	$.L.str.70, %rdi
	callq	se_v
	addl	-12(%rbp), %eax
	movl	%eax, -12(%rbp)
.LBB12_62:                              # %if.end201
	movq	-32(%rbp), %rax
	movq	(%rax), %rdi
	callq	SODBtoRBSP
	movq	-32(%rbp), %rax
	movq	(%rax), %rax
	movl	(%rax), %eax
	movl	%eax, -48(%rbp)
	movq	-32(%rbp), %rax
	movq	(%rax), %rdi
	callq	free
	movq	-32(%rbp), %rdi
	callq	free
	movl	-48(%rbp), %ebx
	cmpl	$1291690680, -44(%rbp)  # imm = 0x4CFDA2B8
	jne	.LBB12_64
.LBB12_63:
	movl	%ebx, %eax
	addq	$56, %rsp
	popq	%rbx
	popq	%rbp
	.cfi_def_cfa %rsp, 8
	retq
.LBB12_64:                              # %func_exit
	.cfi_def_cfa %rbp, 16
	callq	detect_breach
	jmp	.LBB12_63
.Lfunc_end12:
	.size	GeneratePic_parameter_set_rbsp.1, .Lfunc_end12-GeneratePic_parameter_set_rbsp.1
	.cfi_endproc
                                        # -- End function
	.globl	GenerateParameterSets.2 # -- Begin function GenerateParameterSets.2
	.p2align	4, 0x90
	.type	GenerateParameterSets.2,@function
GenerateParameterSets.2:                # @GenerateParameterSets.2
	.cfi_startproc
# %bb.0:                                # %entry
	pushq	%rbp
	.cfi_def_cfa_offset 16
	.cfi_offset %rbp, -16
	movq	%rsp, %rbp
	.cfi_def_cfa_register %rbp
	subq	$32, %rsp
	movl	$1662284144, -20(%rbp)  # imm = 0x63147170
	movq	$0, -16(%rbp)
	movq	$0, -8(%rbp)
	movb	$0, %al
	callq	AllocSPS
	movq	%rax, -16(%rbp)
	movb	$0, %al
	callq	AllocPPS
	movq	%rax, -8(%rbp)
	movq	-16(%rbp), %rdi
	xorl	%esi, %esi
	callq	GenerateSequenceParameterSet
	movq	input, %rax
	cmpl	$0, 60(%rax)
	je	.LBB13_5
# %bb.1:                                # %if.then
	movq	-16(%rbp), %rax
	cmpl	$100, 4(%rax)
	jb	.LBB13_3
# %bb.2:                                # %if.then2
	movq	-8(%rbp), %rdi
	movq	-16(%rbp), %rsi
	movq	input, %rax
	movl	3316(%rax), %r9d
	movq	input, %rax
	movl	3320(%rax), %eax
	xorl	%edx, %edx
	xorl	%ecx, %ecx
	xorl	%r8d, %r8d
	movl	%eax, (%rsp)
	callq	GeneratePictureParameterSet
	movabsq	$PicParSet, %rdi
	movq	-8(%rbp), %rsi
	movl	$240, %edx
	callq	memcpy
	movq	-8(%rbp), %rdi
	movq	-16(%rbp), %rsi
	movq	input, %rax
	movl	3316(%rax), %r9d
	movq	input, %rax
	movl	3320(%rax), %eax
	movl	$1, %edx
	movl	$1, %ecx
	movl	$1, %r8d
	movl	%eax, (%rsp)
	callq	GeneratePictureParameterSet
	movabsq	$PicParSet, %rdi
	addq	$240, %rdi
	movq	-8(%rbp), %rsi
	movl	$240, %edx
	callq	memcpy
	movq	-8(%rbp), %rdi
	movq	-16(%rbp), %rsi
	movq	input, %rax
	movl	3316(%rax), %r9d
	movq	input, %rax
	movl	3320(%rax), %eax
	movl	$2, %edx
	movl	$1, %ecx
	movl	$2, %r8d
	movl	%eax, (%rsp)
	callq	GeneratePictureParameterSet
	movabsq	$PicParSet, %rdi
	addq	$480, %rdi              # imm = 0x1E0
	movq	-8(%rbp), %rsi
	movl	$240, %edx
	callq	memcpy
	jmp	.LBB13_4
.LBB13_3:                               # %if.else
	movq	-8(%rbp), %rdi
	movq	-16(%rbp), %rsi
	movq	input, %rax
	movl	2432(%rax), %r9d
	xorl	%edx, %edx
	xorl	%ecx, %ecx
	xorl	%r8d, %r8d
	movl	$0, (%rsp)
	callq	GeneratePictureParameterSet
	xorl	%eax, %eax
	movabsq	$PicParSet, %rdi
	movq	-8(%rbp), %rsi
	movl	$240, %edx
	callq	memcpy
	movq	-8(%rbp), %rdi
	movq	-16(%rbp), %rsi
	movq	input, %rax
	movl	2432(%rax), %r9d
	movl	$1, %edx
	movl	$1, %ecx
	movl	$1, %r8d
	movl	$0, (%rsp)
	callq	GeneratePictureParameterSet
	xorl	%eax, %eax
	movabsq	$PicParSet, %rdi
	addq	$240, %rdi
	movq	-8(%rbp), %rsi
	movl	$240, %edx
	callq	memcpy
	movq	-8(%rbp), %rdi
	movq	-16(%rbp), %rsi
	movq	input, %rax
	movl	2432(%rax), %r9d
	movl	$2, %edx
	movl	$1, %ecx
	movl	$2, %r8d
	movl	$0, (%rsp)
	callq	GeneratePictureParameterSet
	movabsq	$PicParSet, %rdi
	addq	$480, %rdi              # imm = 0x1E0
	movq	-8(%rbp), %rsi
	movl	$240, %edx
	callq	memcpy
.LBB13_4:                               # %if.end
	jmp	.LBB13_9
.LBB13_5:                               # %if.else9
	movq	-16(%rbp), %rax
	cmpl	$100, 4(%rax)
	jb	.LBB13_7
# %bb.6:                                # %if.then12
	movq	-8(%rbp), %rdi
	movq	-16(%rbp), %rsi
	movq	input, %rax
	movl	1284(%rax), %ecx
	movq	input, %rax
	movl	1288(%rax), %r8d
	movq	input, %rax
	movl	3316(%rax), %r9d
	movq	input, %rax
	movl	3320(%rax), %eax
	xorl	%edx, %edx
	movl	%eax, (%rsp)
	callq	GeneratePictureParameterSet
	jmp	.LBB13_8
.LBB13_7:                               # %if.else15
	movq	-8(%rbp), %rdi
	movq	-16(%rbp), %rsi
	movq	input, %rax
	movl	1284(%rax), %ecx
	movq	input, %rax
	movl	1288(%rax), %r8d
	movq	input, %rax
	movl	2432(%rax), %r9d
	xorl	%edx, %edx
	movl	$0, (%rsp)
	callq	GeneratePictureParameterSet
.LBB13_8:                               # %if.end19
	movabsq	$PicParSet, %rdi
	movq	-8(%rbp), %rsi
	movl	$240, %edx
	callq	memcpy
.LBB13_9:                               # %if.end20
	movq	-16(%rbp), %rax
	movq	%rax, active_sps
	movabsq	$PicParSet, %rax
	movq	%rax, active_pps
	cmpl	$1662284144, -20(%rbp)  # imm = 0x63147170
	jne	.LBB13_11
.LBB13_10:
	addq	$32, %rsp
	popq	%rbp
	.cfi_def_cfa %rsp, 8
	retq
.LBB13_11:                              # %func_exit
	.cfi_def_cfa %rbp, 16
	callq	detect_breach
	jmp	.LBB13_10
.Lfunc_end13:
	.size	GenerateParameterSets.2, .Lfunc_end13-GenerateParameterSets.2
	.cfi_endproc
                                        # -- End function
	.globl	GeneratePictureParameterSet.3 # -- Begin function GeneratePictureParameterSet.3
	.p2align	4, 0x90
	.type	GeneratePictureParameterSet.3,@function
GeneratePictureParameterSet.3:          # @GeneratePictureParameterSet.3
	.cfi_startproc
# %bb.0:                                # %entry
	pushq	%rbp
	.cfi_def_cfa_offset 16
	.cfi_offset %rbp, -16
	movq	%rsp, %rbp
	.cfi_def_cfa_register %rbp
	subq	$48, %rsp
	movl	16(%rbp), %eax
	movl	$1008493479, -44(%rbp)  # imm = 0x3C1C63A7
	movq	%rdi, -16(%rbp)
	movq	%rsi, -24(%rbp)
	movl	%edx, -36(%rbp)
	movl	%ecx, -40(%rbp)
	movl	%r8d, -48(%rbp)
	movl	%r9d, -32(%rbp)
	callq	IdentifyProfile
	cmpl	$100, %eax
	movb	$1, %al
	je	.LBB14_4
# %bb.1:                                # %lor.lhs.false
	callq	IdentifyProfile
	cmpl	$110, %eax
	movb	$1, %al
	je	.LBB14_4
# %bb.2:                                # %lor.lhs.false3
	callq	IdentifyProfile
	cmpl	$122, %eax
	movb	$1, %al
	je	.LBB14_4
# %bb.3:                                # %lor.rhs
	callq	IdentifyProfile
	cmpl	$144, %eax
	sete	%al
.LBB14_4:                               # %lor.end
	xorl	%ecx, %ecx
	andb	$1, %al
	movzbl	%al, %eax
	movl	%eax, -28(%rbp)
	movq	-24(%rbp), %rax
	movl	28(%rax), %eax
	movq	-16(%rbp), %rdx
	movl	%eax, 8(%rdx)
	movl	-36(%rbp), %eax
	movq	-16(%rbp), %rdx
	movl	%eax, 4(%rdx)
	movq	input, %rax
	movl	2356(%rax), %eax
	cmpl	$0, %eax
	movl	$1, %eax
	cmovel	%ecx, %eax
	movq	-16(%rbp), %rcx
	movl	%eax, 12(%rcx)
	cmpl	$0, -28(%rbp)
	je	.LBB14_16
# %bb.5:                                # %if.then
	xorl	%eax, %eax
	movq	input, %rcx
	movl	3220(%rcx), %ecx
	cmpl	$0, %ecx
	movl	$1, %ecx
	cmovnel	%ecx, %eax
	movq	-16(%rbp), %rcx
	movl	%eax, 16(%rcx)
	movq	input, %rax
	movl	3256(%rax), %eax
	andl	$2, %eax
	sarl	$1, %eax
	movq	-16(%rbp), %rcx
	movl	%eax, 20(%rcx)
	movl	$0, -4(%rbp)
.LBB14_6:                               # %for.cond
                                        # =>This Inner Loop Header: Depth=1
	cmpl	$8, -4(%rbp)
	jae	.LBB14_15
# %bb.7:                                # %for.body
                                        #   in Loop: Header=BB14_6 Depth=1
	cmpl	$6, -4(%rbp)
	jae	.LBB14_9
# %bb.8:                                # %if.then14
                                        #   in Loop: Header=BB14_6 Depth=1
	movq	input, %rax
	movl	-4(%rbp), %ecx
	movl	3260(%rax,%rcx,4), %eax
	andl	$2, %eax
	sarl	$1, %eax
	movq	-16(%rbp), %rcx
	movl	-4(%rbp), %edx
	movl	%eax, 24(%rcx,%rdx,4)
	jmp	.LBB14_13
.LBB14_9:                               # %if.else
                                        #   in Loop: Header=BB14_6 Depth=1
	movq	-16(%rbp), %rax
	cmpl	$0, 16(%rax)
	je	.LBB14_11
# %bb.10:                               # %if.then21
                                        #   in Loop: Header=BB14_6 Depth=1
	movq	input, %rax
	movl	-4(%rbp), %ecx
	movl	3260(%rax,%rcx,4), %eax
	andl	$2, %eax
	sarl	$1, %eax
	movq	-16(%rbp), %rcx
	movl	-4(%rbp), %edx
	movl	%eax, 24(%rcx,%rdx,4)
	jmp	.LBB14_12
.LBB14_11:                              # %if.else30
                                        #   in Loop: Header=BB14_6 Depth=1
	movq	-16(%rbp), %rax
	movl	-4(%rbp), %ecx
	movl	$0, 24(%rax,%rcx,4)
.LBB14_12:                              # %if.end
                                        #   in Loop: Header=BB14_6 Depth=1
	jmp	.LBB14_13
.LBB14_13:                              # %if.end34
                                        #   in Loop: Header=BB14_6 Depth=1
	jmp	.LBB14_14
.LBB14_14:                              # %for.inc
                                        #   in Loop: Header=BB14_6 Depth=1
	movl	-4(%rbp), %eax
	addl	$1, %eax
	movl	%eax, -4(%rbp)
	jmp	.LBB14_6
.LBB14_15:                              # %for.end
	jmp	.LBB14_21
.LBB14_16:                              # %if.else35
	movq	-16(%rbp), %rax
	movl	$0, 20(%rax)
	movl	$0, -4(%rbp)
.LBB14_17:                              # %for.cond37
                                        # =>This Inner Loop Header: Depth=1
	cmpl	$8, -4(%rbp)
	jae	.LBB14_20
# %bb.18:                               # %for.body39
                                        #   in Loop: Header=BB14_17 Depth=1
	movq	-16(%rbp), %rax
	movl	-4(%rbp), %ecx
	movl	$0, 24(%rax,%rcx,4)
# %bb.19:                               # %for.inc43
                                        #   in Loop: Header=BB14_17 Depth=1
	movl	-4(%rbp), %eax
	addl	$1, %eax
	movl	%eax, -4(%rbp)
	jmp	.LBB14_17
.LBB14_20:                              # %for.end45
	movq	input, %rax
	movl	$0, 3220(%rax)
	movq	-16(%rbp), %rax
	movl	$0, 16(%rax)
.LBB14_21:                              # %if.end48
	movq	img, %rax
	movl	72492(%rax), %eax
	movq	-16(%rbp), %rcx
	movl	%eax, 56(%rcx)
	movq	input, %rax
	movl	3152(%rax), %eax
	movq	-16(%rbp), %rcx
	movl	%eax, 60(%rcx)
	movq	-16(%rbp), %rax
	cmpl	$0, 60(%rax)
	jbe	.LBB14_43
# %bb.22:                               # %if.then53
	movq	input(%rip), %rax
	movl	3156(%rax), %eax
	movq	%rax, %rcx
	subq	$6, %rcx
	ja	.LBB14_41
# %bb.23:                               # %if.then53
	movq	.LJTI14_0(,%rax,8), %rax
	jmpq	*%rax
.LBB14_24:                              # %sw.bb
	movq	-16(%rbp), %rax
	movl	$0, 64(%rax)
	movl	$0, -4(%rbp)
.LBB14_25:                              # %for.cond55
                                        # =>This Inner Loop Header: Depth=1
	movl	-4(%rbp), %eax
	movq	-16(%rbp), %rcx
	cmpl	60(%rcx), %eax
	ja	.LBB14_28
# %bb.26:                               # %for.body58
                                        #   in Loop: Header=BB14_25 Depth=1
	movq	input, %rax
	movq	3184(%rax), %rax
	movl	-4(%rbp), %ecx
	movl	(%rax,%rcx,4), %eax
	movq	-16(%rbp), %rcx
	movl	-4(%rbp), %edx
	movl	%eax, 68(%rcx,%rdx,4)
# %bb.27:                               # %for.inc64
                                        #   in Loop: Header=BB14_25 Depth=1
	movl	-4(%rbp), %eax
	addl	$1, %eax
	movl	%eax, -4(%rbp)
	jmp	.LBB14_25
.LBB14_28:                              # %for.end66
	jmp	.LBB14_42
.LBB14_29:                              # %sw.bb67
	movq	-16(%rbp), %rax
	movl	$1, 64(%rax)
	jmp	.LBB14_42
.LBB14_30:                              # %sw.bb69
	movq	-16(%rbp), %rax
	movl	$2, 64(%rax)
	movl	$0, -4(%rbp)
.LBB14_31:                              # %for.cond71
                                        # =>This Inner Loop Header: Depth=1
	movl	-4(%rbp), %eax
	movq	-16(%rbp), %rcx
	cmpl	60(%rcx), %eax
	jae	.LBB14_34
# %bb.32:                               # %for.body74
                                        #   in Loop: Header=BB14_31 Depth=1
	movq	input, %rax
	movq	3160(%rax), %rax
	movl	-4(%rbp), %ecx
	movl	(%rax,%rcx,4), %eax
	movq	-16(%rbp), %rcx
	movl	-4(%rbp), %edx
	movl	%eax, 100(%rcx,%rdx,4)
	movq	input, %rax
	movq	3168(%rax), %rax
	movl	-4(%rbp), %ecx
	movl	(%rax,%rcx,4), %eax
	movq	-16(%rbp), %rcx
	movl	-4(%rbp), %edx
	movl	%eax, 132(%rcx,%rdx,4)
# %bb.33:                               # %for.inc85
                                        #   in Loop: Header=BB14_31 Depth=1
	movl	-4(%rbp), %eax
	addl	$1, %eax
	movl	%eax, -4(%rbp)
	jmp	.LBB14_31
.LBB14_34:                              # %for.end87
	jmp	.LBB14_42
.LBB14_35:                              # %sw.bb88
	movq	input, %rax
	movl	3156(%rax), %eax
	movq	-16(%rbp), %rcx
	movl	%eax, 64(%rcx)
	movq	input, %rax
	movl	3192(%rax), %eax
	movq	-16(%rbp), %rcx
	movl	%eax, 164(%rcx)
	movq	input, %rax
	movl	3196(%rax), %eax
	movq	-16(%rbp), %rcx
	movl	%eax, 168(%rcx)
	jmp	.LBB14_42
.LBB14_36:                              # %sw.bb93
	movq	-16(%rbp), %rax
	movl	$6, 64(%rax)
	movq	input, %rax
	movl	68(%rax), %eax
	movq	img, %rcx
	addl	72732(%rcx), %eax
	cltd
	movl	$16, %esi
	idivl	%esi
	movq	-24(%rbp), %rcx
	movl	$2, %edi
	subl	1148(%rcx), %edi
	xorl	%edx, %edx
	divl	%edi
	movl	%eax, %ecx
	movq	input, %rax
	movl	64(%rax), %eax
	movq	img, %rdx
	addl	72728(%rdx), %eax
	cltd
	idivl	%esi
	imull	%eax, %ecx
	subl	$1, %ecx
	movq	-16(%rbp), %rax
	movl	%ecx, 172(%rax)
	movl	$0, -4(%rbp)
.LBB14_37:                              # %for.cond99
                                        # =>This Inner Loop Header: Depth=1
	movl	-4(%rbp), %eax
	movq	-16(%rbp), %rcx
	cmpl	172(%rcx), %eax
	ja	.LBB14_40
# %bb.38:                               # %for.body102
                                        #   in Loop: Header=BB14_37 Depth=1
	movq	input, %rax
	movq	3176(%rax), %rax
	movl	-4(%rbp), %ecx
	movb	(%rax,%rcx), %al
	movq	-16(%rbp), %rcx
	movq	176(%rcx), %rcx
	movl	-4(%rbp), %edx
	movb	%al, (%rcx,%rdx)
# %bb.39:                               # %for.inc108
                                        #   in Loop: Header=BB14_37 Depth=1
	movl	-4(%rbp), %eax
	addl	$1, %eax
	movl	%eax, -4(%rbp)
	jmp	.LBB14_37
.LBB14_40:                              # %for.end110
	jmp	.LBB14_42
.LBB14_41:                              # %sw.default
	movabsq	$.L.str.2, %rdi
	movb	$0, %al
	callq	printf
.LBB14_42:                              # %sw.epilog
	jmp	.LBB14_43
.LBB14_43:                              # %if.end112
	movq	-24(%rbp), %rax
	cmpl	$0, 1148(%rax)
	je	.LBB14_45
# %bb.44:                               # %cond.true
	movq	-24(%rbp), %rax
	movl	1132(%rax), %eax
	subl	$1, %eax
	jmp	.LBB14_46
.LBB14_45:                              # %cond.false
	movq	-24(%rbp), %rax
	movl	1132(%rax), %eax
	shll	$1, %eax
	subl	$1, %eax
.LBB14_46:                              # %cond.end
	movq	-16(%rbp), %rcx
	movl	%eax, 184(%rcx)
	movq	-24(%rbp), %rax
	cmpl	$0, 1148(%rax)
	je	.LBB14_48
# %bb.47:                               # %cond.true122
	movq	-24(%rbp), %rax
	movl	1132(%rax), %eax
	subl	$1, %eax
	jmp	.LBB14_49
.LBB14_48:                              # %cond.false125
	movq	-24(%rbp), %rax
	movl	1132(%rax), %eax
	shll	$1, %eax
	subl	$1, %eax
.LBB14_49:                              # %cond.end129
	movq	-16(%rbp), %rcx
	movl	%eax, 188(%rcx)
	movl	-40(%rbp), %eax
	movq	-16(%rbp), %rcx
	movl	%eax, 192(%rcx)
	movl	-48(%rbp), %eax
	movq	-16(%rbp), %rcx
	movl	%eax, 196(%rcx)
	movq	-16(%rbp), %rax
	movl	$0, 200(%rax)
	movq	-16(%rbp), %rax
	movl	$0, 204(%rax)
	movl	-32(%rbp), %eax
	movq	-16(%rbp), %rcx
	movl	%eax, 208(%rcx)
	cmpl	$0, -28(%rbp)
	je	.LBB14_51
# %bb.50:                               # %if.then132
	movl	-32(%rbp), %eax
	movq	-16(%rbp), %rcx
	movl	%eax, 212(%rcx)
	movl	16(%rbp), %eax
	movq	-16(%rbp), %rcx
	movl	%eax, 216(%rcx)
	jmp	.LBB14_52
.LBB14_51:                              # %if.else135
	movq	-16(%rbp), %rax
	movl	208(%rax), %eax
	movq	-16(%rbp), %rcx
	movl	%eax, 216(%rcx)
	movq	-16(%rbp), %rcx
	movl	%eax, 212(%rcx)
.LBB14_52:                              # %if.end139
	movq	input, %rax
	movl	2924(%rax), %eax
	movq	-16(%rbp), %rcx
	movl	%eax, 220(%rcx)
	movq	input, %rax
	movl	216(%rax), %eax
	movq	-16(%rbp), %rcx
	movl	%eax, 224(%rcx)
	movq	-16(%rbp), %rax
	movl	$0, 228(%rax)
	cmpl	$1008493479, -44(%rbp)  # imm = 0x3C1C63A7
	jne	.LBB14_54
.LBB14_53:
	addq	$48, %rsp
	popq	%rbp
	.cfi_def_cfa %rsp, 8
	retq
.LBB14_54:                              # %func_exit
	.cfi_def_cfa %rbp, 16
	callq	detect_breach
	jmp	.LBB14_53
.Lfunc_end14:
	.size	GeneratePictureParameterSet.3, .Lfunc_end14-GeneratePictureParameterSet.3
	.cfi_endproc
	.section	.rodata,"a",@progbits
	.p2align	3
.LJTI14_0:
	.quad	.LBB14_24
	.quad	.LBB14_29
	.quad	.LBB14_30
	.quad	.LBB14_35
	.quad	.LBB14_35
	.quad	.LBB14_35
	.quad	.LBB14_36
                                        # -- End function
	.text
	.globl	GenerateSeq_parameter_set_NALU.4 # -- Begin function GenerateSeq_parameter_set_NALU.4
	.p2align	4, 0x90
	.type	GenerateSeq_parameter_set_NALU.4,@function
GenerateSeq_parameter_set_NALU.4:       # @GenerateSeq_parameter_set_NALU.4
	.cfi_startproc
# %bb.0:                                # %entry
	pushq	%rbp
	.cfi_def_cfa_offset 16
	.cfi_offset %rbp, -16
	movq	%rsp, %rbp
	.cfi_def_cfa_register %rbp
	pushq	%rbx
	subq	$64040, %rsp            # imm = 0xFA28
	.cfi_offset %rbx, -24
	movl	$1644118524, -28(%rbp)  # imm = 0x61FF41FC
	movl	$64000, %edi            # imm = 0xFA00
	movb	$0, %al
	callq	AllocNALU
	leaq	-64032(%rbp), %rsi
	movq	%rax, -24(%rbp)
	movl	$0, -12(%rbp)
	movq	active_sps, %rdi
	callq	GenerateSeq_parameter_set_rbsp
	leaq	-64032(%rbp), %rdi
	movl	%eax, -12(%rbp)
	movq	-24(%rbp), %rsi
	movl	-12(%rbp), %edx
	movl	$7, %ecx
	movl	$3, %r8d
	xorl	%r9d, %r9d
	movl	$1, (%rsp)
	callq	RBSPtoNALU
	movl	%eax, -32(%rbp)
	movq	-24(%rbp), %rax
	movl	$4, (%rax)
	movq	-24(%rbp), %rbx
	cmpl	$1644118524, -28(%rbp)  # imm = 0x61FF41FC
	jne	.LBB15_2
.LBB15_1:
	movq	%rbx, %rax
	addq	$64040, %rsp            # imm = 0xFA28
	popq	%rbx
	popq	%rbp
	.cfi_def_cfa %rsp, 8
	retq
.LBB15_2:                               # %func_exit
	.cfi_def_cfa %rbp, 16
	callq	detect_breach
	jmp	.LBB15_1
.Lfunc_end15:
	.size	GenerateSeq_parameter_set_NALU.4, .Lfunc_end15-GenerateSeq_parameter_set_NALU.4
	.cfi_endproc
                                        # -- End function
	.globl	GeneratePictureParameterSet.5 # -- Begin function GeneratePictureParameterSet.5
	.p2align	4, 0x90
	.type	GeneratePictureParameterSet.5,@function
GeneratePictureParameterSet.5:          # @GeneratePictureParameterSet.5
	.cfi_startproc
# %bb.0:                                # %entry
	pushq	%rbp
	.cfi_def_cfa_offset 16
	.cfi_offset %rbp, -16
	movq	%rsp, %rbp
	.cfi_def_cfa_register %rbp
	subq	$48, %rsp
	movl	16(%rbp), %eax
	movl	$1138263740, -40(%rbp)  # imm = 0x43D886BC
	movq	%rdi, -16(%rbp)
	movq	%rsi, -24(%rbp)
	movl	%edx, -36(%rbp)
	movl	%ecx, -44(%rbp)
	movl	%r8d, -48(%rbp)
	movl	%r9d, -28(%rbp)
	callq	IdentifyProfile
	cmpl	$100, %eax
	movb	$1, %al
	je	.LBB16_4
# %bb.1:                                # %lor.lhs.false
	callq	IdentifyProfile
	cmpl	$110, %eax
	movb	$1, %al
	je	.LBB16_4
# %bb.2:                                # %lor.lhs.false3
	callq	IdentifyProfile
	cmpl	$122, %eax
	movb	$1, %al
	je	.LBB16_4
# %bb.3:                                # %lor.rhs
	callq	IdentifyProfile
	cmpl	$144, %eax
	sete	%al
.LBB16_4:                               # %lor.end
	xorl	%ecx, %ecx
	andb	$1, %al
	movzbl	%al, %eax
	movl	%eax, -32(%rbp)
	movq	-24(%rbp), %rax
	movl	28(%rax), %eax
	movq	-16(%rbp), %rdx
	movl	%eax, 8(%rdx)
	movl	-36(%rbp), %eax
	movq	-16(%rbp), %rdx
	movl	%eax, 4(%rdx)
	movq	input, %rax
	movl	2356(%rax), %eax
	cmpl	$0, %eax
	movl	$1, %eax
	cmovel	%ecx, %eax
	movq	-16(%rbp), %rcx
	movl	%eax, 12(%rcx)
	cmpl	$0, -32(%rbp)
	je	.LBB16_16
# %bb.5:                                # %if.then
	xorl	%eax, %eax
	movq	input, %rcx
	movl	3220(%rcx), %ecx
	cmpl	$0, %ecx
	movl	$1, %ecx
	cmovnel	%ecx, %eax
	movq	-16(%rbp), %rcx
	movl	%eax, 16(%rcx)
	movq	input, %rax
	movl	3256(%rax), %eax
	andl	$2, %eax
	sarl	$1, %eax
	movq	-16(%rbp), %rcx
	movl	%eax, 20(%rcx)
	movl	$0, -4(%rbp)
.LBB16_6:                               # %for.cond
                                        # =>This Inner Loop Header: Depth=1
	cmpl	$8, -4(%rbp)
	jae	.LBB16_15
# %bb.7:                                # %for.body
                                        #   in Loop: Header=BB16_6 Depth=1
	cmpl	$6, -4(%rbp)
	jae	.LBB16_9
# %bb.8:                                # %if.then14
                                        #   in Loop: Header=BB16_6 Depth=1
	movq	input, %rax
	movl	-4(%rbp), %ecx
	movl	3260(%rax,%rcx,4), %eax
	andl	$2, %eax
	sarl	$1, %eax
	movq	-16(%rbp), %rcx
	movl	-4(%rbp), %edx
	movl	%eax, 24(%rcx,%rdx,4)
	jmp	.LBB16_13
.LBB16_9:                               # %if.else
                                        #   in Loop: Header=BB16_6 Depth=1
	movq	-16(%rbp), %rax
	cmpl	$0, 16(%rax)
	je	.LBB16_11
# %bb.10:                               # %if.then21
                                        #   in Loop: Header=BB16_6 Depth=1
	movq	input, %rax
	movl	-4(%rbp), %ecx
	movl	3260(%rax,%rcx,4), %eax
	andl	$2, %eax
	sarl	$1, %eax
	movq	-16(%rbp), %rcx
	movl	-4(%rbp), %edx
	movl	%eax, 24(%rcx,%rdx,4)
	jmp	.LBB16_12
.LBB16_11:                              # %if.else30
                                        #   in Loop: Header=BB16_6 Depth=1
	movq	-16(%rbp), %rax
	movl	-4(%rbp), %ecx
	movl	$0, 24(%rax,%rcx,4)
.LBB16_12:                              # %if.end
                                        #   in Loop: Header=BB16_6 Depth=1
	jmp	.LBB16_13
.LBB16_13:                              # %if.end34
                                        #   in Loop: Header=BB16_6 Depth=1
	jmp	.LBB16_14
.LBB16_14:                              # %for.inc
                                        #   in Loop: Header=BB16_6 Depth=1
	movl	-4(%rbp), %eax
	addl	$1, %eax
	movl	%eax, -4(%rbp)
	jmp	.LBB16_6
.LBB16_15:                              # %for.end
	jmp	.LBB16_21
.LBB16_16:                              # %if.else35
	movq	-16(%rbp), %rax
	movl	$0, 20(%rax)
	movl	$0, -4(%rbp)
.LBB16_17:                              # %for.cond37
                                        # =>This Inner Loop Header: Depth=1
	cmpl	$8, -4(%rbp)
	jae	.LBB16_20
# %bb.18:                               # %for.body39
                                        #   in Loop: Header=BB16_17 Depth=1
	movq	-16(%rbp), %rax
	movl	-4(%rbp), %ecx
	movl	$0, 24(%rax,%rcx,4)
# %bb.19:                               # %for.inc43
                                        #   in Loop: Header=BB16_17 Depth=1
	movl	-4(%rbp), %eax
	addl	$1, %eax
	movl	%eax, -4(%rbp)
	jmp	.LBB16_17
.LBB16_20:                              # %for.end45
	movq	input, %rax
	movl	$0, 3220(%rax)
	movq	-16(%rbp), %rax
	movl	$0, 16(%rax)
.LBB16_21:                              # %if.end48
	movq	img, %rax
	movl	72492(%rax), %eax
	movq	-16(%rbp), %rcx
	movl	%eax, 56(%rcx)
	movq	input, %rax
	movl	3152(%rax), %eax
	movq	-16(%rbp), %rcx
	movl	%eax, 60(%rcx)
	movq	-16(%rbp), %rax
	cmpl	$0, 60(%rax)
	jbe	.LBB16_43
# %bb.22:                               # %if.then53
	movq	input(%rip), %rax
	movl	3156(%rax), %eax
	movq	%rax, %rcx
	subq	$6, %rcx
	ja	.LBB16_41
# %bb.23:                               # %if.then53
	movq	.LJTI16_0(,%rax,8), %rax
	jmpq	*%rax
.LBB16_24:                              # %sw.bb
	movq	-16(%rbp), %rax
	movl	$0, 64(%rax)
	movl	$0, -4(%rbp)
.LBB16_25:                              # %for.cond55
                                        # =>This Inner Loop Header: Depth=1
	movl	-4(%rbp), %eax
	movq	-16(%rbp), %rcx
	cmpl	60(%rcx), %eax
	ja	.LBB16_28
# %bb.26:                               # %for.body58
                                        #   in Loop: Header=BB16_25 Depth=1
	movq	input, %rax
	movq	3184(%rax), %rax
	movl	-4(%rbp), %ecx
	movl	(%rax,%rcx,4), %eax
	movq	-16(%rbp), %rcx
	movl	-4(%rbp), %edx
	movl	%eax, 68(%rcx,%rdx,4)
# %bb.27:                               # %for.inc64
                                        #   in Loop: Header=BB16_25 Depth=1
	movl	-4(%rbp), %eax
	addl	$1, %eax
	movl	%eax, -4(%rbp)
	jmp	.LBB16_25
.LBB16_28:                              # %for.end66
	jmp	.LBB16_42
.LBB16_29:                              # %sw.bb67
	movq	-16(%rbp), %rax
	movl	$1, 64(%rax)
	jmp	.LBB16_42
.LBB16_30:                              # %sw.bb69
	movq	-16(%rbp), %rax
	movl	$2, 64(%rax)
	movl	$0, -4(%rbp)
.LBB16_31:                              # %for.cond71
                                        # =>This Inner Loop Header: Depth=1
	movl	-4(%rbp), %eax
	movq	-16(%rbp), %rcx
	cmpl	60(%rcx), %eax
	jae	.LBB16_34
# %bb.32:                               # %for.body74
                                        #   in Loop: Header=BB16_31 Depth=1
	movq	input, %rax
	movq	3160(%rax), %rax
	movl	-4(%rbp), %ecx
	movl	(%rax,%rcx,4), %eax
	movq	-16(%rbp), %rcx
	movl	-4(%rbp), %edx
	movl	%eax, 100(%rcx,%rdx,4)
	movq	input, %rax
	movq	3168(%rax), %rax
	movl	-4(%rbp), %ecx
	movl	(%rax,%rcx,4), %eax
	movq	-16(%rbp), %rcx
	movl	-4(%rbp), %edx
	movl	%eax, 132(%rcx,%rdx,4)
# %bb.33:                               # %for.inc85
                                        #   in Loop: Header=BB16_31 Depth=1
	movl	-4(%rbp), %eax
	addl	$1, %eax
	movl	%eax, -4(%rbp)
	jmp	.LBB16_31
.LBB16_34:                              # %for.end87
	jmp	.LBB16_42
.LBB16_35:                              # %sw.bb88
	movq	input, %rax
	movl	3156(%rax), %eax
	movq	-16(%rbp), %rcx
	movl	%eax, 64(%rcx)
	movq	input, %rax
	movl	3192(%rax), %eax
	movq	-16(%rbp), %rcx
	movl	%eax, 164(%rcx)
	movq	input, %rax
	movl	3196(%rax), %eax
	movq	-16(%rbp), %rcx
	movl	%eax, 168(%rcx)
	jmp	.LBB16_42
.LBB16_36:                              # %sw.bb93
	movq	-16(%rbp), %rax
	movl	$6, 64(%rax)
	movq	input, %rax
	movl	68(%rax), %eax
	movq	img, %rcx
	addl	72732(%rcx), %eax
	cltd
	movl	$16, %esi
	idivl	%esi
	movq	-24(%rbp), %rcx
	movl	$2, %edi
	subl	1148(%rcx), %edi
	xorl	%edx, %edx
	divl	%edi
	movl	%eax, %ecx
	movq	input, %rax
	movl	64(%rax), %eax
	movq	img, %rdx
	addl	72728(%rdx), %eax
	cltd
	idivl	%esi
	imull	%eax, %ecx
	subl	$1, %ecx
	movq	-16(%rbp), %rax
	movl	%ecx, 172(%rax)
	movl	$0, -4(%rbp)
.LBB16_37:                              # %for.cond99
                                        # =>This Inner Loop Header: Depth=1
	movl	-4(%rbp), %eax
	movq	-16(%rbp), %rcx
	cmpl	172(%rcx), %eax
	ja	.LBB16_40
# %bb.38:                               # %for.body102
                                        #   in Loop: Header=BB16_37 Depth=1
	movq	input, %rax
	movq	3176(%rax), %rax
	movl	-4(%rbp), %ecx
	movb	(%rax,%rcx), %al
	movq	-16(%rbp), %rcx
	movq	176(%rcx), %rcx
	movl	-4(%rbp), %edx
	movb	%al, (%rcx,%rdx)
# %bb.39:                               # %for.inc108
                                        #   in Loop: Header=BB16_37 Depth=1
	movl	-4(%rbp), %eax
	addl	$1, %eax
	movl	%eax, -4(%rbp)
	jmp	.LBB16_37
.LBB16_40:                              # %for.end110
	jmp	.LBB16_42
.LBB16_41:                              # %sw.default
	movabsq	$.L.str.2, %rdi
	movb	$0, %al
	callq	printf
.LBB16_42:                              # %sw.epilog
	jmp	.LBB16_43
.LBB16_43:                              # %if.end112
	movq	-24(%rbp), %rax
	cmpl	$0, 1148(%rax)
	je	.LBB16_45
# %bb.44:                               # %cond.true
	movq	-24(%rbp), %rax
	movl	1132(%rax), %eax
	subl	$1, %eax
	jmp	.LBB16_46
.LBB16_45:                              # %cond.false
	movq	-24(%rbp), %rax
	movl	1132(%rax), %eax
	shll	$1, %eax
	subl	$1, %eax
.LBB16_46:                              # %cond.end
	movq	-16(%rbp), %rcx
	movl	%eax, 184(%rcx)
	movq	-24(%rbp), %rax
	cmpl	$0, 1148(%rax)
	je	.LBB16_48
# %bb.47:                               # %cond.true122
	movq	-24(%rbp), %rax
	movl	1132(%rax), %eax
	subl	$1, %eax
	jmp	.LBB16_49
.LBB16_48:                              # %cond.false125
	movq	-24(%rbp), %rax
	movl	1132(%rax), %eax
	shll	$1, %eax
	subl	$1, %eax
.LBB16_49:                              # %cond.end129
	movq	-16(%rbp), %rcx
	movl	%eax, 188(%rcx)
	movl	-44(%rbp), %eax
	movq	-16(%rbp), %rcx
	movl	%eax, 192(%rcx)
	movl	-48(%rbp), %eax
	movq	-16(%rbp), %rcx
	movl	%eax, 196(%rcx)
	movq	-16(%rbp), %rax
	movl	$0, 200(%rax)
	movq	-16(%rbp), %rax
	movl	$0, 204(%rax)
	movl	-28(%rbp), %eax
	movq	-16(%rbp), %rcx
	movl	%eax, 208(%rcx)
	cmpl	$0, -32(%rbp)
	je	.LBB16_51
# %bb.50:                               # %if.then132
	movl	-28(%rbp), %eax
	movq	-16(%rbp), %rcx
	movl	%eax, 212(%rcx)
	movl	16(%rbp), %eax
	movq	-16(%rbp), %rcx
	movl	%eax, 216(%rcx)
	jmp	.LBB16_52
.LBB16_51:                              # %if.else135
	movq	-16(%rbp), %rax
	movl	208(%rax), %eax
	movq	-16(%rbp), %rcx
	movl	%eax, 216(%rcx)
	movq	-16(%rbp), %rcx
	movl	%eax, 212(%rcx)
.LBB16_52:                              # %if.end139
	movq	input, %rax
	movl	2924(%rax), %eax
	movq	-16(%rbp), %rcx
	movl	%eax, 220(%rcx)
	movq	input, %rax
	movl	216(%rax), %eax
	movq	-16(%rbp), %rcx
	movl	%eax, 224(%rcx)
	movq	-16(%rbp), %rax
	movl	$0, 228(%rax)
	cmpl	$1138263740, -40(%rbp)  # imm = 0x43D886BC
	jne	.LBB16_54
.LBB16_53:
	addq	$48, %rsp
	popq	%rbp
	.cfi_def_cfa %rsp, 8
	retq
.LBB16_54:                              # %func_exit
	.cfi_def_cfa %rbp, 16
	callq	detect_breach
	jmp	.LBB16_53
.Lfunc_end16:
	.size	GeneratePictureParameterSet.5, .Lfunc_end16-GeneratePictureParameterSet.5
	.cfi_endproc
	.section	.rodata,"a",@progbits
	.p2align	3
.LJTI16_0:
	.quad	.LBB16_24
	.quad	.LBB16_29
	.quad	.LBB16_30
	.quad	.LBB16_35
	.quad	.LBB16_35
	.quad	.LBB16_35
	.quad	.LBB16_36
                                        # -- End function
	.text
	.globl	GenerateSeq_parameter_set_rbsp.6 # -- Begin function GenerateSeq_parameter_set_rbsp.6
	.p2align	4, 0x90
	.type	GenerateSeq_parameter_set_rbsp.6,@function
GenerateSeq_parameter_set_rbsp.6:       # @GenerateSeq_parameter_set_rbsp.6
	.cfi_startproc
# %bb.0:                                # %entry
	pushq	%rbp
	.cfi_def_cfa_offset 16
	.cfi_offset %rbp, -16
	movq	%rsp, %rbp
	.cfi_def_cfa_register %rbp
	pushq	%rbx
	subq	$56, %rsp
	.cfi_offset %rbx, -24
	movl	$1207342959, -40(%rbp)  # imm = 0x47F6976F
	movq	%rdi, -32(%rbp)
	movq	%rsi, -56(%rbp)
	movl	$0, -12(%rbp)
	movl	$1, %edi
	movl	$120, %esi
	callq	calloc
	movq	%rax, -24(%rbp)
	cmpq	$0, %rax
	jne	.LBB17_2
# %bb.1:                                # %if.then
	movabsq	$.L.str.4, %rdi
	callq	no_mem_exit
.LBB17_2:                               # %if.end
	movl	$1, %edi
	movl	$48, %esi
	callq	calloc
	movq	-24(%rbp), %rcx
	movq	%rax, (%rcx)
	cmpq	$0, %rax
	jne	.LBB17_4
# %bb.3:                                # %if.then3
	movabsq	$.L.str.5, %rdi
	callq	no_mem_exit
.LBB17_4:                               # %if.end4
	movq	-56(%rbp), %rax
	movq	-24(%rbp), %rcx
	movq	(%rcx), %rcx
	movq	%rax, 32(%rcx)
	movq	-24(%rbp), %rax
	movq	(%rax), %rax
	movl	$8, 4(%rax)
	movq	-32(%rbp), %rax
	movl	4(%rax), %edx
	movq	-24(%rbp), %rcx
	movl	$8, %edi
	movabsq	$.L.str.6, %rsi
	callq	u_v
	addl	-12(%rbp), %eax
	movl	%eax, -12(%rbp)
	movq	-32(%rbp), %rax
	movl	8(%rax), %esi
	movq	-24(%rbp), %rdx
	movabsq	$.L.str.7, %rdi
	callq	u_1
	addl	-12(%rbp), %eax
	movl	%eax, -12(%rbp)
	movq	-32(%rbp), %rax
	movl	12(%rax), %esi
	movq	-24(%rbp), %rdx
	movabsq	$.L.str.8, %rdi
	callq	u_1
	addl	-12(%rbp), %eax
	movl	%eax, -12(%rbp)
	movq	-32(%rbp), %rax
	movl	16(%rax), %esi
	movq	-24(%rbp), %rdx
	movabsq	$.L.str.9, %rdi
	callq	u_1
	addl	-12(%rbp), %eax
	movl	%eax, -12(%rbp)
	movq	-32(%rbp), %rax
	movl	20(%rax), %esi
	movq	-24(%rbp), %rdx
	movabsq	$.L.str.10, %rdi
	callq	u_1
	addl	-12(%rbp), %eax
	movl	%eax, -12(%rbp)
	movq	-24(%rbp), %rcx
	movl	$4, %edi
	movabsq	$.L.str.11, %rsi
	xorl	%edx, %edx
	callq	u_v
	addl	-12(%rbp), %eax
	movl	%eax, -12(%rbp)
	movq	-32(%rbp), %rax
	movl	24(%rax), %edx
	movq	-24(%rbp), %rcx
	movl	$8, %edi
	movabsq	$.L.str.12, %rsi
	callq	u_v
	addl	-12(%rbp), %eax
	movl	%eax, -12(%rbp)
	movq	-32(%rbp), %rax
	movl	28(%rax), %esi
	movq	-24(%rbp), %rdx
	movabsq	$.L.str.13, %rdi
	callq	ue_v
	addl	-12(%rbp), %eax
	movl	%eax, -12(%rbp)
	movq	-32(%rbp), %rax
	cmpl	$100, 4(%rax)
	je	.LBB17_8
# %bb.5:                                # %lor.lhs.false
	movq	-32(%rbp), %rax
	cmpl	$110, 4(%rax)
	je	.LBB17_8
# %bb.6:                                # %lor.lhs.false26
	movq	-32(%rbp), %rax
	cmpl	$122, 4(%rax)
	je	.LBB17_8
# %bb.7:                                # %lor.lhs.false29
	movq	-32(%rbp), %rax
	cmpl	$144, 4(%rax)
	jne	.LBB17_22
.LBB17_8:                               # %if.then32
	movq	-32(%rbp), %rax
	movl	32(%rax), %esi
	movq	-24(%rbp), %rdx
	movabsq	$.L.str.14, %rdi
	callq	ue_v
	addl	-12(%rbp), %eax
	movl	%eax, -12(%rbp)
	movq	img, %rax
	cmpl	$3, 72700(%rax)
	jne	.LBB17_10
# %bb.9:                                # %if.then36
	movq	img, %rax
	movl	72724(%rax), %esi
	movq	-24(%rbp), %rdx
	movabsq	$.L.str.15, %rdi
	callq	u_1
	addl	-12(%rbp), %eax
	movl	%eax, -12(%rbp)
.LBB17_10:                              # %if.end39
	movq	-32(%rbp), %rax
	movl	72(%rax), %esi
	movq	-24(%rbp), %rdx
	movabsq	$.L.str.16, %rdi
	callq	ue_v
	addl	-12(%rbp), %eax
	movl	%eax, -12(%rbp)
	movq	-32(%rbp), %rax
	movl	76(%rax), %esi
	movq	-24(%rbp), %rdx
	movabsq	$.L.str.17, %rdi
	callq	ue_v
	addl	-12(%rbp), %eax
	movl	%eax, -12(%rbp)
	movq	img, %rax
	movl	72704(%rax), %esi
	movq	-24(%rbp), %rdx
	movabsq	$.L.str.18, %rdi
	callq	u_1
	addl	-12(%rbp), %eax
	movl	%eax, -12(%rbp)
	movq	-32(%rbp), %rax
	movl	36(%rax), %esi
	movq	-24(%rbp), %rdx
	movabsq	$.L.str.19, %rdi
	callq	u_1
	addl	-12(%rbp), %eax
	movl	%eax, -12(%rbp)
	movq	-32(%rbp), %rax
	cmpl	$0, 36(%rax)
	je	.LBB17_21
# %bb.11:                               # %if.then49
	movl	$0, -36(%rbp)
.LBB17_12:                              # %for.cond
                                        # =>This Inner Loop Header: Depth=1
	cmpl	$8, -36(%rbp)
	jae	.LBB17_20
# %bb.13:                               # %for.body
                                        #   in Loop: Header=BB17_12 Depth=1
	movq	-32(%rbp), %rax
	movl	-36(%rbp), %ecx
	movl	40(%rax,%rcx,4), %esi
	movq	-24(%rbp), %rdx
	movabsq	$.L.str.20, %rdi
	callq	u_1
	addl	-12(%rbp), %eax
	movl	%eax, -12(%rbp)
	movq	-32(%rbp), %rax
	movl	-36(%rbp), %ecx
	cmpl	$0, 40(%rax,%rcx,4)
	je	.LBB17_18
# %bb.14:                               # %if.then57
                                        #   in Loop: Header=BB17_12 Depth=1
	cmpl	$6, -36(%rbp)
	jae	.LBB17_16
# %bb.15:                               # %if.then59
                                        #   in Loop: Header=BB17_12 Depth=1
	movl	-36(%rbp), %eax
	shlq	$5, %rax
	movabsq	$ScalingList4x4input, %rdi
	addq	%rax, %rdi
	movl	-36(%rbp), %eax
	shlq	$5, %rax
	movabsq	$ScalingList4x4, %rsi
	addq	%rax, %rsi
	movl	-36(%rbp), %eax
	shlq	$1, %rax
	movabsq	$UseDefaultScalingMatrix4x4Flag, %rcx
	addq	%rax, %rcx
	movq	-24(%rbp), %r8
	movl	$16, %edx
	callq	Scaling_List
	addl	-12(%rbp), %eax
	movl	%eax, -12(%rbp)
	jmp	.LBB17_17
.LBB17_16:                              # %if.else
                                        #   in Loop: Header=BB17_12 Depth=1
	movl	-36(%rbp), %eax
	subl	$6, %eax
	movl	%eax, %eax
	shlq	$7, %rax
	movabsq	$ScalingList8x8input, %rdi
	addq	%rax, %rdi
	movl	-36(%rbp), %eax
	subl	$6, %eax
	movl	%eax, %eax
	shlq	$7, %rax
	movabsq	$ScalingList8x8, %rsi
	addq	%rax, %rsi
	movl	-36(%rbp), %eax
	subl	$6, %eax
	movl	%eax, %eax
	shlq	$1, %rax
	movabsq	$UseDefaultScalingMatrix8x8Flag, %rcx
	addq	%rax, %rcx
	movq	-24(%rbp), %r8
	movl	$64, %edx
	callq	Scaling_List
	addl	-12(%rbp), %eax
	movl	%eax, -12(%rbp)
.LBB17_17:                              # %if.end81
                                        #   in Loop: Header=BB17_12 Depth=1
	jmp	.LBB17_18
.LBB17_18:                              # %if.end82
                                        #   in Loop: Header=BB17_12 Depth=1
	jmp	.LBB17_19
.LBB17_19:                              # %for.inc
                                        #   in Loop: Header=BB17_12 Depth=1
	movl	-36(%rbp), %eax
	addl	$1, %eax
	movl	%eax, -36(%rbp)
	jmp	.LBB17_12
.LBB17_20:                              # %for.end
	jmp	.LBB17_21
.LBB17_21:                              # %if.end83
	jmp	.LBB17_22
.LBB17_22:                              # %if.end84
	movq	-32(%rbp), %rax
	movl	80(%rax), %esi
	movq	-24(%rbp), %rdx
	movabsq	$.L.str.21, %rdi
	callq	ue_v
	addl	-12(%rbp), %eax
	movl	%eax, -12(%rbp)
	movq	-32(%rbp), %rax
	movl	84(%rax), %esi
	movq	-24(%rbp), %rdx
	movabsq	$.L.str.22, %rdi
	callq	ue_v
	addl	-12(%rbp), %eax
	movl	%eax, -12(%rbp)
	movq	-32(%rbp), %rax
	cmpl	$0, 84(%rax)
	jne	.LBB17_24
# %bb.23:                               # %if.then91
	movq	-32(%rbp), %rax
	movl	88(%rax), %esi
	movq	-24(%rbp), %rdx
	movabsq	$.L.str.23, %rdi
	callq	ue_v
	addl	-12(%rbp), %eax
	movl	%eax, -12(%rbp)
	jmp	.LBB17_31
.LBB17_24:                              # %if.else94
	movq	-32(%rbp), %rax
	cmpl	$1, 84(%rax)
	jne	.LBB17_30
# %bb.25:                               # %if.then97
	movq	-32(%rbp), %rax
	movl	92(%rax), %esi
	movq	-24(%rbp), %rdx
	movabsq	$.L.str.24, %rdi
	callq	u_1
	addl	-12(%rbp), %eax
	movl	%eax, -12(%rbp)
	movq	-32(%rbp), %rax
	movl	96(%rax), %esi
	movq	-24(%rbp), %rdx
	movabsq	$.L.str.25, %rdi
	callq	se_v
	addl	-12(%rbp), %eax
	movl	%eax, -12(%rbp)
	movq	-32(%rbp), %rax
	movl	100(%rax), %esi
	movq	-24(%rbp), %rdx
	movabsq	$.L.str.26, %rdi
	callq	se_v
	addl	-12(%rbp), %eax
	movl	%eax, -12(%rbp)
	movq	-32(%rbp), %rax
	movl	104(%rax), %esi
	movq	-24(%rbp), %rdx
	movabsq	$.L.str.27, %rdi
	callq	ue_v
	addl	-12(%rbp), %eax
	movl	%eax, -12(%rbp)
	movl	$0, -36(%rbp)
.LBB17_26:                              # %for.cond106
                                        # =>This Inner Loop Header: Depth=1
	movl	-36(%rbp), %eax
	movq	-32(%rbp), %rcx
	cmpl	104(%rcx), %eax
	jae	.LBB17_29
# %bb.27:                               # %for.body109
                                        #   in Loop: Header=BB17_26 Depth=1
	movq	-32(%rbp), %rax
	movl	-36(%rbp), %ecx
	movl	108(%rax,%rcx,4), %esi
	movq	-24(%rbp), %rdx
	movabsq	$.L.str.28, %rdi
	callq	se_v
	addl	-12(%rbp), %eax
	movl	%eax, -12(%rbp)
# %bb.28:                               # %for.inc114
                                        #   in Loop: Header=BB17_26 Depth=1
	movl	-36(%rbp), %eax
	addl	$1, %eax
	movl	%eax, -36(%rbp)
	jmp	.LBB17_26
.LBB17_29:                              # %for.end116
	jmp	.LBB17_30
.LBB17_30:                              # %if.end117
	jmp	.LBB17_31
.LBB17_31:                              # %if.end118
	movq	-32(%rbp), %rax
	movl	1132(%rax), %esi
	movq	-24(%rbp), %rdx
	movabsq	$.L.str.29, %rdi
	callq	ue_v
	addl	-12(%rbp), %eax
	movl	%eax, -12(%rbp)
	movq	-32(%rbp), %rax
	movl	1136(%rax), %esi
	movq	-24(%rbp), %rdx
	movabsq	$.L.str.30, %rdi
	callq	u_1
	addl	-12(%rbp), %eax
	movl	%eax, -12(%rbp)
	movq	-32(%rbp), %rax
	movl	1140(%rax), %esi
	movq	-24(%rbp), %rdx
	movabsq	$.L.str.31, %rdi
	callq	ue_v
	addl	-12(%rbp), %eax
	movl	%eax, -12(%rbp)
	movq	-32(%rbp), %rax
	movl	1144(%rax), %esi
	movq	-24(%rbp), %rdx
	movabsq	$.L.str.32, %rdi
	callq	ue_v
	addl	-12(%rbp), %eax
	movl	%eax, -12(%rbp)
	movq	-32(%rbp), %rax
	movl	1148(%rax), %esi
	movq	-24(%rbp), %rdx
	movabsq	$.L.str.33, %rdi
	callq	u_1
	addl	-12(%rbp), %eax
	movl	%eax, -12(%rbp)
	movq	-32(%rbp), %rax
	cmpl	$0, 1148(%rax)
	jne	.LBB17_33
# %bb.32:                               # %if.then131
	movq	-32(%rbp), %rax
	movl	1152(%rax), %esi
	movq	-24(%rbp), %rdx
	movabsq	$.L.str.34, %rdi
	callq	u_1
	addl	-12(%rbp), %eax
	movl	%eax, -12(%rbp)
.LBB17_33:                              # %if.end134
	movq	-32(%rbp), %rax
	movl	1156(%rax), %esi
	movq	-24(%rbp), %rdx
	movabsq	$.L.str.35, %rdi
	callq	u_1
	addl	-12(%rbp), %eax
	movl	%eax, -12(%rbp)
	movq	-32(%rbp), %rax
	movl	1160(%rax), %esi
	movq	-24(%rbp), %rdx
	movabsq	$.L.str.36, %rdi
	callq	u_1
	addl	-12(%rbp), %eax
	movl	%eax, -12(%rbp)
	movq	-32(%rbp), %rax
	cmpl	$0, 1160(%rax)
	je	.LBB17_35
# %bb.34:                               # %if.then141
	movq	-32(%rbp), %rax
	movl	1164(%rax), %esi
	movq	-24(%rbp), %rdx
	movabsq	$.L.str.37, %rdi
	callq	ue_v
	addl	-12(%rbp), %eax
	movl	%eax, -12(%rbp)
	movq	-32(%rbp), %rax
	movl	1168(%rax), %esi
	movq	-24(%rbp), %rdx
	movabsq	$.L.str.38, %rdi
	callq	ue_v
	addl	-12(%rbp), %eax
	movl	%eax, -12(%rbp)
	movq	-32(%rbp), %rax
	movl	1172(%rax), %esi
	movq	-24(%rbp), %rdx
	movabsq	$.L.str.39, %rdi
	callq	ue_v
	addl	-12(%rbp), %eax
	movl	%eax, -12(%rbp)
	movq	-32(%rbp), %rax
	movl	1176(%rax), %esi
	movq	-24(%rbp), %rdx
	movabsq	$.L.str.40, %rdi
	callq	ue_v
	addl	-12(%rbp), %eax
	movl	%eax, -12(%rbp)
.LBB17_35:                              # %if.end150
	movq	-32(%rbp), %rax
	movl	1180(%rax), %esi
	movq	-24(%rbp), %rdx
	movabsq	$.L.str.41, %rdi
	callq	u_1
	addl	-12(%rbp), %eax
	movl	%eax, -12(%rbp)
	movq	-32(%rbp), %rax
	cmpl	$0, 1180(%rax)
	je	.LBB17_37
# %bb.36:                               # %if.then155
	movq	-24(%rbp), %rdi
	callq	GenerateVUISequenceParameters
	addl	-12(%rbp), %eax
	movl	%eax, -12(%rbp)
.LBB17_37:                              # %if.end158
	movq	-24(%rbp), %rax
	movq	(%rax), %rdi
	callq	SODBtoRBSP
	movq	-24(%rbp), %rax
	movq	(%rax), %rax
	movl	(%rax), %eax
	movl	%eax, -44(%rbp)
	movq	-24(%rbp), %rax
	movq	(%rax), %rdi
	callq	free
	movq	-24(%rbp), %rdi
	callq	free
	movl	-44(%rbp), %ebx
	cmpl	$1207342959, -40(%rbp)  # imm = 0x47F6976F
	jne	.LBB17_39
.LBB17_38:
	movl	%ebx, %eax
	addq	$56, %rsp
	popq	%rbx
	popq	%rbp
	.cfi_def_cfa %rsp, 8
	retq
.LBB17_39:                              # %func_exit
	.cfi_def_cfa %rbp, 16
	callq	detect_breach
	jmp	.LBB17_38
.Lfunc_end17:
	.size	GenerateSeq_parameter_set_rbsp.6, .Lfunc_end17-GenerateSeq_parameter_set_rbsp.6
	.cfi_endproc
                                        # -- End function
	.p2align	4, 0x90         # -- Begin function GenerateVUISequenceParameters.7
	.type	GenerateVUISequenceParameters.7,@function
GenerateVUISequenceParameters.7:        # @GenerateVUISequenceParameters.7
	.cfi_startproc
# %bb.0:                                # %entry
	pushq	%rbp
	.cfi_def_cfa_offset 16
	.cfi_offset %rbp, -16
	movq	%rsp, %rbp
	.cfi_def_cfa_register %rbp
	pushq	%rbx
	subq	$24, %rsp
	.cfi_offset %rbx, -24
	movl	$885048316, -28(%rbp)   # imm = 0x34C0C3FC
	movq	%rdi, -24(%rbp)
	movl	$0, -12(%rbp)
	movq	input, %rax
	cmpl	$0, 3312(%rax)
	je	.LBB18_4
# %bb.1:                                # %land.lhs.true
	movq	input, %rax
	cmpl	$3, 72(%rax)
	jne	.LBB18_4
# %bb.2:                                # %if.then
	movabsq	$.L.str.71, %rdi
	movb	$0, %al
	callq	printf
	movq	-24(%rbp), %rdx
	movabsq	$.L.str.72, %rdi
	xorl	%esi, %esi
	callq	u_1
	addl	-12(%rbp), %eax
	movl	%eax, -12(%rbp)
	movq	-24(%rbp), %rdx
	movabsq	$.L.str.73, %rdi
	xorl	%esi, %esi
	callq	u_1
	addl	-12(%rbp), %eax
	movl	%eax, -12(%rbp)
	movq	-24(%rbp), %rdx
	movabsq	$.L.str.74, %rdi
	movl	$1, %esi
	callq	u_1
	addl	-12(%rbp), %eax
	movl	%eax, -12(%rbp)
	movq	-24(%rbp), %rcx
	movl	$3, %edi
	movabsq	$.L.str.75, %rsi
	movl	$2, %edx
	callq	u_v
	addl	-12(%rbp), %eax
	movl	%eax, -12(%rbp)
	movq	-24(%rbp), %rdx
	movabsq	$.L.str.76, %rdi
	movl	$1, %esi
	callq	u_1
	addl	-12(%rbp), %eax
	movl	%eax, -12(%rbp)
	movq	-24(%rbp), %rdx
	movabsq	$.L.str.77, %rdi
	movl	$1, %esi
	callq	u_1
	addl	-12(%rbp), %eax
	movl	%eax, -12(%rbp)
	movq	-24(%rbp), %rcx
	movl	$8, %edi
	movabsq	$.L.str.78, %rsi
	movl	$2, %edx
	callq	u_v
	addl	-12(%rbp), %eax
	movl	%eax, -12(%rbp)
	movq	-24(%rbp), %rcx
	movl	$8, %edi
	movabsq	$.L.str.79, %rsi
	movl	$2, %edx
	callq	u_v
	addl	-12(%rbp), %eax
	movl	%eax, -12(%rbp)
	movq	-24(%rbp), %rcx
	movl	$8, %edi
	movabsq	$.L.str.80, %rsi
	xorl	%edx, %edx
	callq	u_v
	addl	-12(%rbp), %eax
	movl	%eax, -12(%rbp)
	movq	-24(%rbp), %rdx
	movabsq	$.L.str.81, %rdi
	xorl	%esi, %esi
	callq	u_1
	addl	-12(%rbp), %eax
	movl	%eax, -12(%rbp)
	movq	-24(%rbp), %rdx
	movabsq	$.L.str.82, %rdi
	xorl	%esi, %esi
	callq	u_1
	addl	-12(%rbp), %eax
	movl	%eax, -12(%rbp)
	movq	-24(%rbp), %rdx
	movabsq	$.L.str.83, %rdi
	xorl	%esi, %esi
	callq	u_1
	addl	-12(%rbp), %eax
	movl	%eax, -12(%rbp)
	movq	-24(%rbp), %rdx
	movabsq	$.L.str.84, %rdi
	xorl	%esi, %esi
	callq	u_1
	addl	-12(%rbp), %eax
	movl	%eax, -12(%rbp)
	movq	-24(%rbp), %rdx
	movabsq	$.L.str.85, %rdi
	xorl	%esi, %esi
	callq	u_1
	addl	-12(%rbp), %eax
	movl	%eax, -12(%rbp)
	movq	-24(%rbp), %rdx
	movabsq	$.L.str.86, %rdi
	xorl	%esi, %esi
	callq	u_1
	addl	-12(%rbp), %eax
	movl	%eax, -12(%rbp)
	movl	-12(%rbp), %ebx
	cmpl	$885048316, -28(%rbp)   # imm = 0x34C0C3FC
	jne	.LBB18_5
.LBB18_3:
	movl	%ebx, %eax
	addq	$24, %rsp
	popq	%rbx
	popq	%rbp
	.cfi_def_cfa %rsp, 8
	retq
.LBB18_4:                               # %if.else
	.cfi_def_cfa %rbp, 16
	movabsq	$.L.str.87, %rdi
	movb	$0, %al
	callq	printf
	movl	$4294967295, %edi       # imm = 0xFFFFFFFF
	callq	exit
.LBB18_5:                               # %func_exit
	callq	detect_breach
	jmp	.LBB18_3
.Lfunc_end18:
	.size	GenerateVUISequenceParameters.7, .Lfunc_end18-GenerateVUISequenceParameters.7
	.cfi_endproc
                                        # -- End function
	.globl	GeneratePictureParameterSet.8 # -- Begin function GeneratePictureParameterSet.8
	.p2align	4, 0x90
	.type	GeneratePictureParameterSet.8,@function
GeneratePictureParameterSet.8:          # @GeneratePictureParameterSet.8
	.cfi_startproc
# %bb.0:                                # %entry
	pushq	%rbp
	.cfi_def_cfa_offset 16
	.cfi_offset %rbp, -16
	movq	%rsp, %rbp
	.cfi_def_cfa_register %rbp
	subq	$48, %rsp
	movl	16(%rbp), %eax
	movl	$1700091563, -48(%rbp)  # imm = 0x655556AB
	movq	%rdi, -16(%rbp)
	movq	%rsi, -24(%rbp)
	movl	%edx, -36(%rbp)
	movl	%ecx, -40(%rbp)
	movl	%r8d, -44(%rbp)
	movl	%r9d, -32(%rbp)
	callq	IdentifyProfile
	cmpl	$100, %eax
	movb	$1, %al
	je	.LBB19_4
# %bb.1:                                # %lor.lhs.false
	callq	IdentifyProfile
	cmpl	$110, %eax
	movb	$1, %al
	je	.LBB19_4
# %bb.2:                                # %lor.lhs.false3
	callq	IdentifyProfile
	cmpl	$122, %eax
	movb	$1, %al
	je	.LBB19_4
# %bb.3:                                # %lor.rhs
	callq	IdentifyProfile
	cmpl	$144, %eax
	sete	%al
.LBB19_4:                               # %lor.end
	xorl	%ecx, %ecx
	andb	$1, %al
	movzbl	%al, %eax
	movl	%eax, -28(%rbp)
	movq	-24(%rbp), %rax
	movl	28(%rax), %eax
	movq	-16(%rbp), %rdx
	movl	%eax, 8(%rdx)
	movl	-36(%rbp), %eax
	movq	-16(%rbp), %rdx
	movl	%eax, 4(%rdx)
	movq	input, %rax
	movl	2356(%rax), %eax
	cmpl	$0, %eax
	movl	$1, %eax
	cmovel	%ecx, %eax
	movq	-16(%rbp), %rcx
	movl	%eax, 12(%rcx)
	cmpl	$0, -28(%rbp)
	je	.LBB19_16
# %bb.5:                                # %if.then
	xorl	%eax, %eax
	movq	input, %rcx
	movl	3220(%rcx), %ecx
	cmpl	$0, %ecx
	movl	$1, %ecx
	cmovnel	%ecx, %eax
	movq	-16(%rbp), %rcx
	movl	%eax, 16(%rcx)
	movq	input, %rax
	movl	3256(%rax), %eax
	andl	$2, %eax
	sarl	$1, %eax
	movq	-16(%rbp), %rcx
	movl	%eax, 20(%rcx)
	movl	$0, -4(%rbp)
.LBB19_6:                               # %for.cond
                                        # =>This Inner Loop Header: Depth=1
	cmpl	$8, -4(%rbp)
	jae	.LBB19_15
# %bb.7:                                # %for.body
                                        #   in Loop: Header=BB19_6 Depth=1
	cmpl	$6, -4(%rbp)
	jae	.LBB19_9
# %bb.8:                                # %if.then14
                                        #   in Loop: Header=BB19_6 Depth=1
	movq	input, %rax
	movl	-4(%rbp), %ecx
	movl	3260(%rax,%rcx,4), %eax
	andl	$2, %eax
	sarl	$1, %eax
	movq	-16(%rbp), %rcx
	movl	-4(%rbp), %edx
	movl	%eax, 24(%rcx,%rdx,4)
	jmp	.LBB19_13
.LBB19_9:                               # %if.else
                                        #   in Loop: Header=BB19_6 Depth=1
	movq	-16(%rbp), %rax
	cmpl	$0, 16(%rax)
	je	.LBB19_11
# %bb.10:                               # %if.then21
                                        #   in Loop: Header=BB19_6 Depth=1
	movq	input, %rax
	movl	-4(%rbp), %ecx
	movl	3260(%rax,%rcx,4), %eax
	andl	$2, %eax
	sarl	$1, %eax
	movq	-16(%rbp), %rcx
	movl	-4(%rbp), %edx
	movl	%eax, 24(%rcx,%rdx,4)
	jmp	.LBB19_12
.LBB19_11:                              # %if.else30
                                        #   in Loop: Header=BB19_6 Depth=1
	movq	-16(%rbp), %rax
	movl	-4(%rbp), %ecx
	movl	$0, 24(%rax,%rcx,4)
.LBB19_12:                              # %if.end
                                        #   in Loop: Header=BB19_6 Depth=1
	jmp	.LBB19_13
.LBB19_13:                              # %if.end34
                                        #   in Loop: Header=BB19_6 Depth=1
	jmp	.LBB19_14
.LBB19_14:                              # %for.inc
                                        #   in Loop: Header=BB19_6 Depth=1
	movl	-4(%rbp), %eax
	addl	$1, %eax
	movl	%eax, -4(%rbp)
	jmp	.LBB19_6
.LBB19_15:                              # %for.end
	jmp	.LBB19_21
.LBB19_16:                              # %if.else35
	movq	-16(%rbp), %rax
	movl	$0, 20(%rax)
	movl	$0, -4(%rbp)
.LBB19_17:                              # %for.cond37
                                        # =>This Inner Loop Header: Depth=1
	cmpl	$8, -4(%rbp)
	jae	.LBB19_20
# %bb.18:                               # %for.body39
                                        #   in Loop: Header=BB19_17 Depth=1
	movq	-16(%rbp), %rax
	movl	-4(%rbp), %ecx
	movl	$0, 24(%rax,%rcx,4)
# %bb.19:                               # %for.inc43
                                        #   in Loop: Header=BB19_17 Depth=1
	movl	-4(%rbp), %eax
	addl	$1, %eax
	movl	%eax, -4(%rbp)
	jmp	.LBB19_17
.LBB19_20:                              # %for.end45
	movq	input, %rax
	movl	$0, 3220(%rax)
	movq	-16(%rbp), %rax
	movl	$0, 16(%rax)
.LBB19_21:                              # %if.end48
	movq	img, %rax
	movl	72492(%rax), %eax
	movq	-16(%rbp), %rcx
	movl	%eax, 56(%rcx)
	movq	input, %rax
	movl	3152(%rax), %eax
	movq	-16(%rbp), %rcx
	movl	%eax, 60(%rcx)
	movq	-16(%rbp), %rax
	cmpl	$0, 60(%rax)
	jbe	.LBB19_43
# %bb.22:                               # %if.then53
	movq	input(%rip), %rax
	movl	3156(%rax), %eax
	movq	%rax, %rcx
	subq	$6, %rcx
	ja	.LBB19_41
# %bb.23:                               # %if.then53
	movq	.LJTI19_0(,%rax,8), %rax
	jmpq	*%rax
.LBB19_24:                              # %sw.bb
	movq	-16(%rbp), %rax
	movl	$0, 64(%rax)
	movl	$0, -4(%rbp)
.LBB19_25:                              # %for.cond55
                                        # =>This Inner Loop Header: Depth=1
	movl	-4(%rbp), %eax
	movq	-16(%rbp), %rcx
	cmpl	60(%rcx), %eax
	ja	.LBB19_28
# %bb.26:                               # %for.body58
                                        #   in Loop: Header=BB19_25 Depth=1
	movq	input, %rax
	movq	3184(%rax), %rax
	movl	-4(%rbp), %ecx
	movl	(%rax,%rcx,4), %eax
	movq	-16(%rbp), %rcx
	movl	-4(%rbp), %edx
	movl	%eax, 68(%rcx,%rdx,4)
# %bb.27:                               # %for.inc64
                                        #   in Loop: Header=BB19_25 Depth=1
	movl	-4(%rbp), %eax
	addl	$1, %eax
	movl	%eax, -4(%rbp)
	jmp	.LBB19_25
.LBB19_28:                              # %for.end66
	jmp	.LBB19_42
.LBB19_29:                              # %sw.bb67
	movq	-16(%rbp), %rax
	movl	$1, 64(%rax)
	jmp	.LBB19_42
.LBB19_30:                              # %sw.bb69
	movq	-16(%rbp), %rax
	movl	$2, 64(%rax)
	movl	$0, -4(%rbp)
.LBB19_31:                              # %for.cond71
                                        # =>This Inner Loop Header: Depth=1
	movl	-4(%rbp), %eax
	movq	-16(%rbp), %rcx
	cmpl	60(%rcx), %eax
	jae	.LBB19_34
# %bb.32:                               # %for.body74
                                        #   in Loop: Header=BB19_31 Depth=1
	movq	input, %rax
	movq	3160(%rax), %rax
	movl	-4(%rbp), %ecx
	movl	(%rax,%rcx,4), %eax
	movq	-16(%rbp), %rcx
	movl	-4(%rbp), %edx
	movl	%eax, 100(%rcx,%rdx,4)
	movq	input, %rax
	movq	3168(%rax), %rax
	movl	-4(%rbp), %ecx
	movl	(%rax,%rcx,4), %eax
	movq	-16(%rbp), %rcx
	movl	-4(%rbp), %edx
	movl	%eax, 132(%rcx,%rdx,4)
# %bb.33:                               # %for.inc85
                                        #   in Loop: Header=BB19_31 Depth=1
	movl	-4(%rbp), %eax
	addl	$1, %eax
	movl	%eax, -4(%rbp)
	jmp	.LBB19_31
.LBB19_34:                              # %for.end87
	jmp	.LBB19_42
.LBB19_35:                              # %sw.bb88
	movq	input, %rax
	movl	3156(%rax), %eax
	movq	-16(%rbp), %rcx
	movl	%eax, 64(%rcx)
	movq	input, %rax
	movl	3192(%rax), %eax
	movq	-16(%rbp), %rcx
	movl	%eax, 164(%rcx)
	movq	input, %rax
	movl	3196(%rax), %eax
	movq	-16(%rbp), %rcx
	movl	%eax, 168(%rcx)
	jmp	.LBB19_42
.LBB19_36:                              # %sw.bb93
	movq	-16(%rbp), %rax
	movl	$6, 64(%rax)
	movq	input, %rax
	movl	68(%rax), %eax
	movq	img, %rcx
	addl	72732(%rcx), %eax
	cltd
	movl	$16, %esi
	idivl	%esi
	movq	-24(%rbp), %rcx
	movl	$2, %edi
	subl	1148(%rcx), %edi
	xorl	%edx, %edx
	divl	%edi
	movl	%eax, %ecx
	movq	input, %rax
	movl	64(%rax), %eax
	movq	img, %rdx
	addl	72728(%rdx), %eax
	cltd
	idivl	%esi
	imull	%eax, %ecx
	subl	$1, %ecx
	movq	-16(%rbp), %rax
	movl	%ecx, 172(%rax)
	movl	$0, -4(%rbp)
.LBB19_37:                              # %for.cond99
                                        # =>This Inner Loop Header: Depth=1
	movl	-4(%rbp), %eax
	movq	-16(%rbp), %rcx
	cmpl	172(%rcx), %eax
	ja	.LBB19_40
# %bb.38:                               # %for.body102
                                        #   in Loop: Header=BB19_37 Depth=1
	movq	input, %rax
	movq	3176(%rax), %rax
	movl	-4(%rbp), %ecx
	movb	(%rax,%rcx), %al
	movq	-16(%rbp), %rcx
	movq	176(%rcx), %rcx
	movl	-4(%rbp), %edx
	movb	%al, (%rcx,%rdx)
# %bb.39:                               # %for.inc108
                                        #   in Loop: Header=BB19_37 Depth=1
	movl	-4(%rbp), %eax
	addl	$1, %eax
	movl	%eax, -4(%rbp)
	jmp	.LBB19_37
.LBB19_40:                              # %for.end110
	jmp	.LBB19_42
.LBB19_41:                              # %sw.default
	movabsq	$.L.str.2, %rdi
	movb	$0, %al
	callq	printf
.LBB19_42:                              # %sw.epilog
	jmp	.LBB19_43
.LBB19_43:                              # %if.end112
	movq	-24(%rbp), %rax
	cmpl	$0, 1148(%rax)
	je	.LBB19_45
# %bb.44:                               # %cond.true
	movq	-24(%rbp), %rax
	movl	1132(%rax), %eax
	subl	$1, %eax
	jmp	.LBB19_46
.LBB19_45:                              # %cond.false
	movq	-24(%rbp), %rax
	movl	1132(%rax), %eax
	shll	$1, %eax
	subl	$1, %eax
.LBB19_46:                              # %cond.end
	movq	-16(%rbp), %rcx
	movl	%eax, 184(%rcx)
	movq	-24(%rbp), %rax
	cmpl	$0, 1148(%rax)
	je	.LBB19_48
# %bb.47:                               # %cond.true122
	movq	-24(%rbp), %rax
	movl	1132(%rax), %eax
	subl	$1, %eax
	jmp	.LBB19_49
.LBB19_48:                              # %cond.false125
	movq	-24(%rbp), %rax
	movl	1132(%rax), %eax
	shll	$1, %eax
	subl	$1, %eax
.LBB19_49:                              # %cond.end129
	movq	-16(%rbp), %rcx
	movl	%eax, 188(%rcx)
	movl	-40(%rbp), %eax
	movq	-16(%rbp), %rcx
	movl	%eax, 192(%rcx)
	movl	-44(%rbp), %eax
	movq	-16(%rbp), %rcx
	movl	%eax, 196(%rcx)
	movq	-16(%rbp), %rax
	movl	$0, 200(%rax)
	movq	-16(%rbp), %rax
	movl	$0, 204(%rax)
	movl	-32(%rbp), %eax
	movq	-16(%rbp), %rcx
	movl	%eax, 208(%rcx)
	cmpl	$0, -28(%rbp)
	je	.LBB19_51
# %bb.50:                               # %if.then132
	movl	-32(%rbp), %eax
	movq	-16(%rbp), %rcx
	movl	%eax, 212(%rcx)
	movl	16(%rbp), %eax
	movq	-16(%rbp), %rcx
	movl	%eax, 216(%rcx)
	jmp	.LBB19_52
.LBB19_51:                              # %if.else135
	movq	-16(%rbp), %rax
	movl	208(%rax), %eax
	movq	-16(%rbp), %rcx
	movl	%eax, 216(%rcx)
	movq	-16(%rbp), %rcx
	movl	%eax, 212(%rcx)
.LBB19_52:                              # %if.end139
	movq	input, %rax
	movl	2924(%rax), %eax
	movq	-16(%rbp), %rcx
	movl	%eax, 220(%rcx)
	movq	input, %rax
	movl	216(%rax), %eax
	movq	-16(%rbp), %rcx
	movl	%eax, 224(%rcx)
	movq	-16(%rbp), %rax
	movl	$0, 228(%rax)
	cmpl	$1700091563, -48(%rbp)  # imm = 0x655556AB
	jne	.LBB19_54
.LBB19_53:
	addq	$48, %rsp
	popq	%rbp
	.cfi_def_cfa %rsp, 8
	retq
.LBB19_54:                              # %func_exit
	.cfi_def_cfa %rbp, 16
	callq	detect_breach
	jmp	.LBB19_53
.Lfunc_end19:
	.size	GeneratePictureParameterSet.8, .Lfunc_end19-GeneratePictureParameterSet.8
	.cfi_endproc
	.section	.rodata,"a",@progbits
	.p2align	3
.LJTI19_0:
	.quad	.LBB19_24
	.quad	.LBB19_29
	.quad	.LBB19_30
	.quad	.LBB19_35
	.quad	.LBB19_35
	.quad	.LBB19_35
	.quad	.LBB19_36
                                        # -- End function
	.text
	.globl	GeneratePictureParameterSet.9 # -- Begin function GeneratePictureParameterSet.9
	.p2align	4, 0x90
	.type	GeneratePictureParameterSet.9,@function
GeneratePictureParameterSet.9:          # @GeneratePictureParameterSet.9
	.cfi_startproc
# %bb.0:                                # %entry
	pushq	%rbp
	.cfi_def_cfa_offset 16
	.cfi_offset %rbp, -16
	movq	%rsp, %rbp
	.cfi_def_cfa_register %rbp
	subq	$48, %rsp
	movl	16(%rbp), %eax
	movl	$618478352, -48(%rbp)   # imm = 0x24DD3B10
	movq	%rdi, -16(%rbp)
	movq	%rsi, -24(%rbp)
	movl	%edx, -40(%rbp)
	movl	%ecx, -44(%rbp)
	movl	%r8d, -36(%rbp)
	movl	%r9d, -32(%rbp)
	callq	IdentifyProfile
	cmpl	$100, %eax
	movb	$1, %al
	je	.LBB20_4
# %bb.1:                                # %lor.lhs.false
	callq	IdentifyProfile
	cmpl	$110, %eax
	movb	$1, %al
	je	.LBB20_4
# %bb.2:                                # %lor.lhs.false3
	callq	IdentifyProfile
	cmpl	$122, %eax
	movb	$1, %al
	je	.LBB20_4
# %bb.3:                                # %lor.rhs
	callq	IdentifyProfile
	cmpl	$144, %eax
	sete	%al
.LBB20_4:                               # %lor.end
	xorl	%ecx, %ecx
	andb	$1, %al
	movzbl	%al, %eax
	movl	%eax, -28(%rbp)
	movq	-24(%rbp), %rax
	movl	28(%rax), %eax
	movq	-16(%rbp), %rdx
	movl	%eax, 8(%rdx)
	movl	-40(%rbp), %eax
	movq	-16(%rbp), %rdx
	movl	%eax, 4(%rdx)
	movq	input, %rax
	movl	2356(%rax), %eax
	cmpl	$0, %eax
	movl	$1, %eax
	cmovel	%ecx, %eax
	movq	-16(%rbp), %rcx
	movl	%eax, 12(%rcx)
	cmpl	$0, -28(%rbp)
	je	.LBB20_16
# %bb.5:                                # %if.then
	xorl	%eax, %eax
	movq	input, %rcx
	movl	3220(%rcx), %ecx
	cmpl	$0, %ecx
	movl	$1, %ecx
	cmovnel	%ecx, %eax
	movq	-16(%rbp), %rcx
	movl	%eax, 16(%rcx)
	movq	input, %rax
	movl	3256(%rax), %eax
	andl	$2, %eax
	sarl	$1, %eax
	movq	-16(%rbp), %rcx
	movl	%eax, 20(%rcx)
	movl	$0, -4(%rbp)
.LBB20_6:                               # %for.cond
                                        # =>This Inner Loop Header: Depth=1
	cmpl	$8, -4(%rbp)
	jae	.LBB20_15
# %bb.7:                                # %for.body
                                        #   in Loop: Header=BB20_6 Depth=1
	cmpl	$6, -4(%rbp)
	jae	.LBB20_9
# %bb.8:                                # %if.then14
                                        #   in Loop: Header=BB20_6 Depth=1
	movq	input, %rax
	movl	-4(%rbp), %ecx
	movl	3260(%rax,%rcx,4), %eax
	andl	$2, %eax
	sarl	$1, %eax
	movq	-16(%rbp), %rcx
	movl	-4(%rbp), %edx
	movl	%eax, 24(%rcx,%rdx,4)
	jmp	.LBB20_13
.LBB20_9:                               # %if.else
                                        #   in Loop: Header=BB20_6 Depth=1
	movq	-16(%rbp), %rax
	cmpl	$0, 16(%rax)
	je	.LBB20_11
# %bb.10:                               # %if.then21
                                        #   in Loop: Header=BB20_6 Depth=1
	movq	input, %rax
	movl	-4(%rbp), %ecx
	movl	3260(%rax,%rcx,4), %eax
	andl	$2, %eax
	sarl	$1, %eax
	movq	-16(%rbp), %rcx
	movl	-4(%rbp), %edx
	movl	%eax, 24(%rcx,%rdx,4)
	jmp	.LBB20_12
.LBB20_11:                              # %if.else30
                                        #   in Loop: Header=BB20_6 Depth=1
	movq	-16(%rbp), %rax
	movl	-4(%rbp), %ecx
	movl	$0, 24(%rax,%rcx,4)
.LBB20_12:                              # %if.end
                                        #   in Loop: Header=BB20_6 Depth=1
	jmp	.LBB20_13
.LBB20_13:                              # %if.end34
                                        #   in Loop: Header=BB20_6 Depth=1
	jmp	.LBB20_14
.LBB20_14:                              # %for.inc
                                        #   in Loop: Header=BB20_6 Depth=1
	movl	-4(%rbp), %eax
	addl	$1, %eax
	movl	%eax, -4(%rbp)
	jmp	.LBB20_6
.LBB20_15:                              # %for.end
	jmp	.LBB20_21
.LBB20_16:                              # %if.else35
	movq	-16(%rbp), %rax
	movl	$0, 20(%rax)
	movl	$0, -4(%rbp)
.LBB20_17:                              # %for.cond37
                                        # =>This Inner Loop Header: Depth=1
	cmpl	$8, -4(%rbp)
	jae	.LBB20_20
# %bb.18:                               # %for.body39
                                        #   in Loop: Header=BB20_17 Depth=1
	movq	-16(%rbp), %rax
	movl	-4(%rbp), %ecx
	movl	$0, 24(%rax,%rcx,4)
# %bb.19:                               # %for.inc43
                                        #   in Loop: Header=BB20_17 Depth=1
	movl	-4(%rbp), %eax
	addl	$1, %eax
	movl	%eax, -4(%rbp)
	jmp	.LBB20_17
.LBB20_20:                              # %for.end45
	movq	input, %rax
	movl	$0, 3220(%rax)
	movq	-16(%rbp), %rax
	movl	$0, 16(%rax)
.LBB20_21:                              # %if.end48
	movq	img, %rax
	movl	72492(%rax), %eax
	movq	-16(%rbp), %rcx
	movl	%eax, 56(%rcx)
	movq	input, %rax
	movl	3152(%rax), %eax
	movq	-16(%rbp), %rcx
	movl	%eax, 60(%rcx)
	movq	-16(%rbp), %rax
	cmpl	$0, 60(%rax)
	jbe	.LBB20_43
# %bb.22:                               # %if.then53
	movq	input(%rip), %rax
	movl	3156(%rax), %eax
	movq	%rax, %rcx
	subq	$6, %rcx
	ja	.LBB20_41
# %bb.23:                               # %if.then53
	movq	.LJTI20_0(,%rax,8), %rax
	jmpq	*%rax
.LBB20_24:                              # %sw.bb
	movq	-16(%rbp), %rax
	movl	$0, 64(%rax)
	movl	$0, -4(%rbp)
.LBB20_25:                              # %for.cond55
                                        # =>This Inner Loop Header: Depth=1
	movl	-4(%rbp), %eax
	movq	-16(%rbp), %rcx
	cmpl	60(%rcx), %eax
	ja	.LBB20_28
# %bb.26:                               # %for.body58
                                        #   in Loop: Header=BB20_25 Depth=1
	movq	input, %rax
	movq	3184(%rax), %rax
	movl	-4(%rbp), %ecx
	movl	(%rax,%rcx,4), %eax
	movq	-16(%rbp), %rcx
	movl	-4(%rbp), %edx
	movl	%eax, 68(%rcx,%rdx,4)
# %bb.27:                               # %for.inc64
                                        #   in Loop: Header=BB20_25 Depth=1
	movl	-4(%rbp), %eax
	addl	$1, %eax
	movl	%eax, -4(%rbp)
	jmp	.LBB20_25
.LBB20_28:                              # %for.end66
	jmp	.LBB20_42
.LBB20_29:                              # %sw.bb67
	movq	-16(%rbp), %rax
	movl	$1, 64(%rax)
	jmp	.LBB20_42
.LBB20_30:                              # %sw.bb69
	movq	-16(%rbp), %rax
	movl	$2, 64(%rax)
	movl	$0, -4(%rbp)
.LBB20_31:                              # %for.cond71
                                        # =>This Inner Loop Header: Depth=1
	movl	-4(%rbp), %eax
	movq	-16(%rbp), %rcx
	cmpl	60(%rcx), %eax
	jae	.LBB20_34
# %bb.32:                               # %for.body74
                                        #   in Loop: Header=BB20_31 Depth=1
	movq	input, %rax
	movq	3160(%rax), %rax
	movl	-4(%rbp), %ecx
	movl	(%rax,%rcx,4), %eax
	movq	-16(%rbp), %rcx
	movl	-4(%rbp), %edx
	movl	%eax, 100(%rcx,%rdx,4)
	movq	input, %rax
	movq	3168(%rax), %rax
	movl	-4(%rbp), %ecx
	movl	(%rax,%rcx,4), %eax
	movq	-16(%rbp), %rcx
	movl	-4(%rbp), %edx
	movl	%eax, 132(%rcx,%rdx,4)
# %bb.33:                               # %for.inc85
                                        #   in Loop: Header=BB20_31 Depth=1
	movl	-4(%rbp), %eax
	addl	$1, %eax
	movl	%eax, -4(%rbp)
	jmp	.LBB20_31
.LBB20_34:                              # %for.end87
	jmp	.LBB20_42
.LBB20_35:                              # %sw.bb88
	movq	input, %rax
	movl	3156(%rax), %eax
	movq	-16(%rbp), %rcx
	movl	%eax, 64(%rcx)
	movq	input, %rax
	movl	3192(%rax), %eax
	movq	-16(%rbp), %rcx
	movl	%eax, 164(%rcx)
	movq	input, %rax
	movl	3196(%rax), %eax
	movq	-16(%rbp), %rcx
	movl	%eax, 168(%rcx)
	jmp	.LBB20_42
.LBB20_36:                              # %sw.bb93
	movq	-16(%rbp), %rax
	movl	$6, 64(%rax)
	movq	input, %rax
	movl	68(%rax), %eax
	movq	img, %rcx
	addl	72732(%rcx), %eax
	cltd
	movl	$16, %esi
	idivl	%esi
	movq	-24(%rbp), %rcx
	movl	$2, %edi
	subl	1148(%rcx), %edi
	xorl	%edx, %edx
	divl	%edi
	movl	%eax, %ecx
	movq	input, %rax
	movl	64(%rax), %eax
	movq	img, %rdx
	addl	72728(%rdx), %eax
	cltd
	idivl	%esi
	imull	%eax, %ecx
	subl	$1, %ecx
	movq	-16(%rbp), %rax
	movl	%ecx, 172(%rax)
	movl	$0, -4(%rbp)
.LBB20_37:                              # %for.cond99
                                        # =>This Inner Loop Header: Depth=1
	movl	-4(%rbp), %eax
	movq	-16(%rbp), %rcx
	cmpl	172(%rcx), %eax
	ja	.LBB20_40
# %bb.38:                               # %for.body102
                                        #   in Loop: Header=BB20_37 Depth=1
	movq	input, %rax
	movq	3176(%rax), %rax
	movl	-4(%rbp), %ecx
	movb	(%rax,%rcx), %al
	movq	-16(%rbp), %rcx
	movq	176(%rcx), %rcx
	movl	-4(%rbp), %edx
	movb	%al, (%rcx,%rdx)
# %bb.39:                               # %for.inc108
                                        #   in Loop: Header=BB20_37 Depth=1
	movl	-4(%rbp), %eax
	addl	$1, %eax
	movl	%eax, -4(%rbp)
	jmp	.LBB20_37
.LBB20_40:                              # %for.end110
	jmp	.LBB20_42
.LBB20_41:                              # %sw.default
	movabsq	$.L.str.2, %rdi
	movb	$0, %al
	callq	printf
.LBB20_42:                              # %sw.epilog
	jmp	.LBB20_43
.LBB20_43:                              # %if.end112
	movq	-24(%rbp), %rax
	cmpl	$0, 1148(%rax)
	je	.LBB20_45
# %bb.44:                               # %cond.true
	movq	-24(%rbp), %rax
	movl	1132(%rax), %eax
	subl	$1, %eax
	jmp	.LBB20_46
.LBB20_45:                              # %cond.false
	movq	-24(%rbp), %rax
	movl	1132(%rax), %eax
	shll	$1, %eax
	subl	$1, %eax
.LBB20_46:                              # %cond.end
	movq	-16(%rbp), %rcx
	movl	%eax, 184(%rcx)
	movq	-24(%rbp), %rax
	cmpl	$0, 1148(%rax)
	je	.LBB20_48
# %bb.47:                               # %cond.true122
	movq	-24(%rbp), %rax
	movl	1132(%rax), %eax
	subl	$1, %eax
	jmp	.LBB20_49
.LBB20_48:                              # %cond.false125
	movq	-24(%rbp), %rax
	movl	1132(%rax), %eax
	shll	$1, %eax
	subl	$1, %eax
.LBB20_49:                              # %cond.end129
	movq	-16(%rbp), %rcx
	movl	%eax, 188(%rcx)
	movl	-44(%rbp), %eax
	movq	-16(%rbp), %rcx
	movl	%eax, 192(%rcx)
	movl	-36(%rbp), %eax
	movq	-16(%rbp), %rcx
	movl	%eax, 196(%rcx)
	movq	-16(%rbp), %rax
	movl	$0, 200(%rax)
	movq	-16(%rbp), %rax
	movl	$0, 204(%rax)
	movl	-32(%rbp), %eax
	movq	-16(%rbp), %rcx
	movl	%eax, 208(%rcx)
	cmpl	$0, -28(%rbp)
	je	.LBB20_51
# %bb.50:                               # %if.then132
	movl	-32(%rbp), %eax
	movq	-16(%rbp), %rcx
	movl	%eax, 212(%rcx)
	movl	16(%rbp), %eax
	movq	-16(%rbp), %rcx
	movl	%eax, 216(%rcx)
	jmp	.LBB20_52
.LBB20_51:                              # %if.else135
	movq	-16(%rbp), %rax
	movl	208(%rax), %eax
	movq	-16(%rbp), %rcx
	movl	%eax, 216(%rcx)
	movq	-16(%rbp), %rcx
	movl	%eax, 212(%rcx)
.LBB20_52:                              # %if.end139
	movq	input, %rax
	movl	2924(%rax), %eax
	movq	-16(%rbp), %rcx
	movl	%eax, 220(%rcx)
	movq	input, %rax
	movl	216(%rax), %eax
	movq	-16(%rbp), %rcx
	movl	%eax, 224(%rcx)
	movq	-16(%rbp), %rax
	movl	$0, 228(%rax)
	cmpl	$618478352, -48(%rbp)   # imm = 0x24DD3B10
	jne	.LBB20_54
.LBB20_53:
	addq	$48, %rsp
	popq	%rbp
	.cfi_def_cfa %rsp, 8
	retq
.LBB20_54:                              # %func_exit
	.cfi_def_cfa %rbp, 16
	callq	detect_breach
	jmp	.LBB20_53
.Lfunc_end20:
	.size	GeneratePictureParameterSet.9, .Lfunc_end20-GeneratePictureParameterSet.9
	.cfi_endproc
	.section	.rodata,"a",@progbits
	.p2align	3
.LJTI20_0:
	.quad	.LBB20_24
	.quad	.LBB20_29
	.quad	.LBB20_30
	.quad	.LBB20_35
	.quad	.LBB20_35
	.quad	.LBB20_35
	.quad	.LBB20_36
                                        # -- End function
	.text
	.globl	GeneratePic_parameter_set_rbsp.10 # -- Begin function GeneratePic_parameter_set_rbsp.10
	.p2align	4, 0x90
	.type	GeneratePic_parameter_set_rbsp.10,@function
GeneratePic_parameter_set_rbsp.10:      # @GeneratePic_parameter_set_rbsp.10
	.cfi_startproc
# %bb.0:                                # %entry
	pushq	%rbp
	.cfi_def_cfa_offset 16
	.cfi_offset %rbp, -16
	movq	%rsp, %rbp
	.cfi_def_cfa_register %rbp
	pushq	%rbx
	subq	$56, %rsp
	.cfi_offset %rbx, -24
	movl	$1674118049, -48(%rbp)  # imm = 0x63C903A1
	movq	%rdi, -24(%rbp)
	movq	%rsi, -56(%rbp)
	movl	$0, -12(%rbp)
	movl	$1, %edi
	movl	$120, %esi
	callq	calloc
	movq	%rax, -32(%rbp)
	cmpq	$0, %rax
	jne	.LBB21_2
# %bb.1:                                # %if.then
	movabsq	$.L.str.42, %rdi
	callq	no_mem_exit
.LBB21_2:                               # %if.end
	movl	$1, %edi
	movl	$48, %esi
	callq	calloc
	movq	-32(%rbp), %rcx
	movq	%rax, (%rcx)
	cmpq	$0, %rax
	jne	.LBB21_4
# %bb.3:                                # %if.then3
	movabsq	$.L.str.43, %rdi
	callq	no_mem_exit
.LBB21_4:                               # %if.end4
	movq	-56(%rbp), %rax
	movq	-32(%rbp), %rcx
	movq	(%rcx), %rcx
	movq	%rax, 32(%rcx)
	movq	-32(%rbp), %rax
	movq	(%rax), %rax
	movl	$8, 4(%rax)
	movq	img, %rax
	movl	72492(%rax), %eax
	movq	-24(%rbp), %rcx
	movl	%eax, 56(%rcx)
	movq	-24(%rbp), %rax
	movl	4(%rax), %esi
	movq	-32(%rbp), %rdx
	movabsq	$.L.str.44, %rdi
	callq	ue_v
	addl	-12(%rbp), %eax
	movl	%eax, -12(%rbp)
	movq	-24(%rbp), %rax
	movl	8(%rax), %esi
	movq	-32(%rbp), %rdx
	movabsq	$.L.str.45, %rdi
	callq	ue_v
	addl	-12(%rbp), %eax
	movl	%eax, -12(%rbp)
	movq	-24(%rbp), %rax
	movl	12(%rax), %esi
	movq	-32(%rbp), %rdx
	movabsq	$.L.str.46, %rdi
	callq	u_1
	addl	-12(%rbp), %eax
	movl	%eax, -12(%rbp)
	movq	-24(%rbp), %rax
	movl	56(%rax), %esi
	movq	-32(%rbp), %rdx
	movabsq	$.L.str.47, %rdi
	callq	u_1
	addl	-12(%rbp), %eax
	movl	%eax, -12(%rbp)
	movq	-24(%rbp), %rax
	movl	60(%rax), %esi
	movq	-32(%rbp), %rdx
	movabsq	$.L.str.48, %rdi
	callq	ue_v
	addl	-12(%rbp), %eax
	movl	%eax, -12(%rbp)
	movq	-24(%rbp), %rax
	cmpl	$0, 60(%rax)
	jbe	.LBB21_40
# %bb.5:                                # %if.then20
	movq	-24(%rbp), %rax
	movl	64(%rax), %esi
	movq	-32(%rbp), %rdx
	movabsq	$.L.str.49, %rdi
	callq	ue_v
	addl	-12(%rbp), %eax
	movl	%eax, -12(%rbp)
	movq	-24(%rbp), %rax
	cmpl	$0, 64(%rax)
	jne	.LBB21_11
# %bb.6:                                # %if.then25
	movl	$0, -16(%rbp)
.LBB21_7:                               # %for.cond
                                        # =>This Inner Loop Header: Depth=1
	movl	-16(%rbp), %eax
	movq	-24(%rbp), %rcx
	cmpl	60(%rcx), %eax
	ja	.LBB21_10
# %bb.8:                                # %for.body
                                        #   in Loop: Header=BB21_7 Depth=1
	movq	-24(%rbp), %rax
	movl	-16(%rbp), %ecx
	movl	68(%rax,%rcx,4), %esi
	movq	-32(%rbp), %rdx
	movabsq	$.L.str.50, %rdi
	callq	ue_v
	addl	-12(%rbp), %eax
	movl	%eax, -12(%rbp)
# %bb.9:                                # %for.inc
                                        #   in Loop: Header=BB21_7 Depth=1
	movl	-16(%rbp), %eax
	addl	$1, %eax
	movl	%eax, -16(%rbp)
	jmp	.LBB21_7
.LBB21_10:                              # %for.end
	jmp	.LBB21_39
.LBB21_11:                              # %if.else
	movq	-24(%rbp), %rax
	cmpl	$2, 64(%rax)
	jne	.LBB21_17
# %bb.12:                               # %if.then32
	movl	$0, -16(%rbp)
.LBB21_13:                              # %for.cond33
                                        # =>This Inner Loop Header: Depth=1
	movl	-16(%rbp), %eax
	movq	-24(%rbp), %rcx
	cmpl	60(%rcx), %eax
	jae	.LBB21_16
# %bb.14:                               # %for.body36
                                        #   in Loop: Header=BB21_13 Depth=1
	movq	-24(%rbp), %rax
	movl	-16(%rbp), %ecx
	movl	100(%rax,%rcx,4), %esi
	movq	-32(%rbp), %rdx
	movabsq	$.L.str.51, %rdi
	callq	ue_v
	addl	-12(%rbp), %eax
	movl	%eax, -12(%rbp)
	movq	-24(%rbp), %rax
	movl	-16(%rbp), %ecx
	movl	132(%rax,%rcx,4), %esi
	movq	-32(%rbp), %rdx
	movabsq	$.L.str.52, %rdi
	callq	ue_v
	addl	-12(%rbp), %eax
	movl	%eax, -12(%rbp)
# %bb.15:                               # %for.inc45
                                        #   in Loop: Header=BB21_13 Depth=1
	movl	-16(%rbp), %eax
	addl	$1, %eax
	movl	%eax, -16(%rbp)
	jmp	.LBB21_13
.LBB21_16:                              # %for.end47
	jmp	.LBB21_38
.LBB21_17:                              # %if.else48
	movq	-24(%rbp), %rax
	cmpl	$3, 64(%rax)
	je	.LBB21_20
# %bb.18:                               # %lor.lhs.false
	movq	-24(%rbp), %rax
	cmpl	$4, 64(%rax)
	je	.LBB21_20
# %bb.19:                               # %lor.lhs.false53
	movq	-24(%rbp), %rax
	cmpl	$5, 64(%rax)
	jne	.LBB21_21
.LBB21_20:                              # %if.then56
	movq	-24(%rbp), %rax
	movl	164(%rax), %esi
	movq	-32(%rbp), %rdx
	movabsq	$.L.str.53, %rdi
	callq	u_1
	addl	-12(%rbp), %eax
	movl	%eax, -12(%rbp)
	movq	-24(%rbp), %rax
	movl	168(%rax), %esi
	movq	-32(%rbp), %rdx
	movabsq	$.L.str.54, %rdi
	callq	ue_v
	addl	-12(%rbp), %eax
	movl	%eax, -12(%rbp)
	jmp	.LBB21_37
.LBB21_21:                              # %if.else61
	movq	-24(%rbp), %rax
	cmpl	$6, 64(%rax)
	jne	.LBB21_36
# %bb.22:                               # %if.then64
	movq	-24(%rbp), %rax
	cmpl	$4, 60(%rax)
	jb	.LBB21_24
# %bb.23:                               # %if.then67
	movl	$3, -40(%rbp)
	jmp	.LBB21_31
.LBB21_24:                              # %if.else68
	movq	-24(%rbp), %rax
	cmpl	$2, 60(%rax)
	jb	.LBB21_26
# %bb.25:                               # %if.then71
	movl	$2, -40(%rbp)
	jmp	.LBB21_30
.LBB21_26:                              # %if.else72
	movq	-24(%rbp), %rax
	cmpl	$1, 60(%rax)
	jb	.LBB21_28
# %bb.27:                               # %if.then75
	movl	$1, -40(%rbp)
	jmp	.LBB21_29
.LBB21_28:                              # %if.else76
	movl	$0, -40(%rbp)
.LBB21_29:                              # %if.end77
	jmp	.LBB21_30
.LBB21_30:                              # %if.end78
	jmp	.LBB21_31
.LBB21_31:                              # %if.end79
	movq	-24(%rbp), %rax
	movl	172(%rax), %esi
	movq	-32(%rbp), %rdx
	movabsq	$.L.str.55, %rdi
	callq	ue_v
	addl	-12(%rbp), %eax
	movl	%eax, -12(%rbp)
	movl	$0, -16(%rbp)
.LBB21_32:                              # %for.cond82
                                        # =>This Inner Loop Header: Depth=1
	movl	-16(%rbp), %eax
	movq	-24(%rbp), %rcx
	cmpl	172(%rcx), %eax
	ja	.LBB21_35
# %bb.33:                               # %for.body85
                                        #   in Loop: Header=BB21_32 Depth=1
	movl	-40(%rbp), %edi
	movq	-24(%rbp), %rax
	movq	176(%rax), %rax
	movl	-16(%rbp), %ecx
	movzbl	(%rax,%rcx), %edx
	movq	-32(%rbp), %rcx
	movabsq	$.L.str.56, %rsi
	callq	u_v
	addl	-12(%rbp), %eax
	movl	%eax, -12(%rbp)
# %bb.34:                               # %for.inc90
                                        #   in Loop: Header=BB21_32 Depth=1
	movl	-16(%rbp), %eax
	addl	$1, %eax
	movl	%eax, -16(%rbp)
	jmp	.LBB21_32
.LBB21_35:                              # %for.end92
	jmp	.LBB21_36
.LBB21_36:                              # %if.end93
	jmp	.LBB21_37
.LBB21_37:                              # %if.end94
	jmp	.LBB21_38
.LBB21_38:                              # %if.end95
	jmp	.LBB21_39
.LBB21_39:                              # %if.end96
	jmp	.LBB21_40
.LBB21_40:                              # %if.end97
	movq	-24(%rbp), %rax
	movl	184(%rax), %esi
	movq	-32(%rbp), %rdx
	movabsq	$.L.str.57, %rdi
	callq	ue_v
	addl	-12(%rbp), %eax
	movl	%eax, -12(%rbp)
	movq	-24(%rbp), %rax
	movl	188(%rax), %esi
	movq	-32(%rbp), %rdx
	movabsq	$.L.str.58, %rdi
	callq	ue_v
	addl	-12(%rbp), %eax
	movl	%eax, -12(%rbp)
	movq	-24(%rbp), %rax
	movl	192(%rax), %esi
	movq	-32(%rbp), %rdx
	movabsq	$.L.str.59, %rdi
	callq	u_1
	addl	-12(%rbp), %eax
	movl	%eax, -12(%rbp)
	movq	-24(%rbp), %rax
	movl	196(%rax), %edx
	movq	-32(%rbp), %rcx
	movl	$2, %edi
	movabsq	$.L.str.60, %rsi
	callq	u_v
	addl	-12(%rbp), %eax
	movl	%eax, -12(%rbp)
	movq	-24(%rbp), %rax
	movl	200(%rax), %esi
	movq	-32(%rbp), %rdx
	movabsq	$.L.str.61, %rdi
	callq	se_v
	addl	-12(%rbp), %eax
	movl	%eax, -12(%rbp)
	movq	-24(%rbp), %rax
	movl	204(%rax), %esi
	movq	-32(%rbp), %rdx
	movabsq	$.L.str.62, %rdi
	callq	se_v
	addl	-12(%rbp), %eax
	movl	%eax, -12(%rbp)
	callq	IdentifyProfile
	movl	%eax, -36(%rbp)
	cmpl	$100, -36(%rbp)
	je	.LBB21_44
# %bb.41:                               # %lor.lhs.false113
	cmpl	$110, -36(%rbp)
	je	.LBB21_44
# %bb.42:                               # %lor.lhs.false116
	cmpl	$122, -36(%rbp)
	je	.LBB21_44
# %bb.43:                               # %lor.lhs.false119
	cmpl	$144, -36(%rbp)
	jne	.LBB21_45
.LBB21_44:                              # %if.then122
	movq	-24(%rbp), %rax
	movl	212(%rax), %esi
	movq	-32(%rbp), %rdx
	movabsq	$.L.str.63, %rdi
	callq	se_v
	addl	-12(%rbp), %eax
	movl	%eax, -12(%rbp)
	jmp	.LBB21_46
.LBB21_45:                              # %if.else125
	movq	-24(%rbp), %rax
	movl	208(%rax), %esi
	movq	-32(%rbp), %rdx
	movabsq	$.L.str.63, %rdi
	callq	se_v
	addl	-12(%rbp), %eax
	movl	%eax, -12(%rbp)
.LBB21_46:                              # %if.end128
	movq	-24(%rbp), %rax
	movl	220(%rax), %esi
	movq	-32(%rbp), %rdx
	movabsq	$.L.str.64, %rdi
	callq	u_1
	addl	-12(%rbp), %eax
	movl	%eax, -12(%rbp)
	movq	-24(%rbp), %rax
	movl	224(%rax), %esi
	movq	-32(%rbp), %rdx
	movabsq	$.L.str.65, %rdi
	callq	u_1
	addl	-12(%rbp), %eax
	movl	%eax, -12(%rbp)
	movq	-24(%rbp), %rax
	movl	228(%rax), %esi
	movq	-32(%rbp), %rdx
	movabsq	$.L.str.66, %rdi
	callq	u_1
	addl	-12(%rbp), %eax
	movl	%eax, -12(%rbp)
	cmpl	$100, -36(%rbp)
	je	.LBB21_50
# %bb.47:                               # %lor.lhs.false137
	cmpl	$110, -36(%rbp)
	je	.LBB21_50
# %bb.48:                               # %lor.lhs.false140
	cmpl	$122, -36(%rbp)
	je	.LBB21_50
# %bb.49:                               # %lor.lhs.false143
	cmpl	$144, -36(%rbp)
	jne	.LBB21_62
.LBB21_50:                              # %if.then146
	movq	-24(%rbp), %rax
	movl	16(%rax), %esi
	movq	-32(%rbp), %rdx
	movabsq	$.L.str.67, %rdi
	callq	u_1
	addl	-12(%rbp), %eax
	movl	%eax, -12(%rbp)
	movq	-24(%rbp), %rax
	movl	20(%rax), %esi
	movq	-32(%rbp), %rdx
	movabsq	$.L.str.68, %rdi
	callq	u_1
	addl	-12(%rbp), %eax
	movl	%eax, -12(%rbp)
	movq	-24(%rbp), %rax
	cmpl	$0, 20(%rax)
	je	.LBB21_61
# %bb.51:                               # %if.then152
	movl	$0, -16(%rbp)
.LBB21_52:                              # %for.cond153
                                        # =>This Inner Loop Header: Depth=1
	movl	-16(%rbp), %eax
	movq	-24(%rbp), %rcx
	movl	16(%rcx), %ecx
	shll	$1, %ecx
	addl	$6, %ecx
	cmpl	%ecx, %eax
	jae	.LBB21_60
# %bb.53:                               # %for.body158
                                        #   in Loop: Header=BB21_52 Depth=1
	movq	-24(%rbp), %rax
	movl	-16(%rbp), %ecx
	movl	24(%rax,%rcx,4), %esi
	movq	-32(%rbp), %rdx
	movabsq	$.L.str.69, %rdi
	callq	u_1
	addl	-12(%rbp), %eax
	movl	%eax, -12(%rbp)
	movq	-24(%rbp), %rax
	movl	-16(%rbp), %ecx
	cmpl	$0, 24(%rax,%rcx,4)
	je	.LBB21_58
# %bb.54:                               # %if.then167
                                        #   in Loop: Header=BB21_52 Depth=1
	cmpl	$6, -16(%rbp)
	jae	.LBB21_56
# %bb.55:                               # %if.then170
                                        #   in Loop: Header=BB21_52 Depth=1
	movl	-16(%rbp), %eax
	shlq	$5, %rax
	movabsq	$ScalingList4x4input, %rdi
	addq	%rax, %rdi
	movl	-16(%rbp), %eax
	shlq	$5, %rax
	movabsq	$ScalingList4x4, %rsi
	addq	%rax, %rsi
	movl	-16(%rbp), %eax
	shlq	$1, %rax
	movabsq	$UseDefaultScalingMatrix4x4Flag, %rcx
	addq	%rax, %rcx
	movq	-32(%rbp), %r8
	movl	$16, %edx
	callq	Scaling_List
	addl	-12(%rbp), %eax
	movl	%eax, -12(%rbp)
	jmp	.LBB21_57
.LBB21_56:                              # %if.else180
                                        #   in Loop: Header=BB21_52 Depth=1
	movl	-16(%rbp), %eax
	subl	$6, %eax
	movl	%eax, %eax
	shlq	$7, %rax
	movabsq	$ScalingList8x8input, %rdi
	addq	%rax, %rdi
	movl	-16(%rbp), %eax
	subl	$6, %eax
	movl	%eax, %eax
	shlq	$7, %rax
	movabsq	$ScalingList8x8, %rsi
	addq	%rax, %rsi
	movl	-16(%rbp), %eax
	subl	$6, %eax
	movl	%eax, %eax
	shlq	$1, %rax
	movabsq	$UseDefaultScalingMatrix8x8Flag, %rcx
	addq	%rax, %rcx
	movq	-32(%rbp), %r8
	movl	$64, %edx
	callq	Scaling_List
	addl	-12(%rbp), %eax
	movl	%eax, -12(%rbp)
.LBB21_57:                              # %if.end193
                                        #   in Loop: Header=BB21_52 Depth=1
	jmp	.LBB21_58
.LBB21_58:                              # %if.end194
                                        #   in Loop: Header=BB21_52 Depth=1
	jmp	.LBB21_59
.LBB21_59:                              # %for.inc195
                                        #   in Loop: Header=BB21_52 Depth=1
	movl	-16(%rbp), %eax
	addl	$1, %eax
	movl	%eax, -16(%rbp)
	jmp	.LBB21_52
.LBB21_60:                              # %for.end197
	jmp	.LBB21_61
.LBB21_61:                              # %if.end198
	movq	-24(%rbp), %rax
	movl	216(%rax), %esi
	movq	-32(%rbp), %rdx
	movabsq	$.L.str.70, %rdi
	callq	se_v
	addl	-12(%rbp), %eax
	movl	%eax, -12(%rbp)
.LBB21_62:                              # %if.end201
	movq	-32(%rbp), %rax
	movq	(%rax), %rdi
	callq	SODBtoRBSP
	movq	-32(%rbp), %rax
	movq	(%rax), %rax
	movl	(%rax), %eax
	movl	%eax, -44(%rbp)
	movq	-32(%rbp), %rax
	movq	(%rax), %rdi
	callq	free
	movq	-32(%rbp), %rdi
	callq	free
	movl	-44(%rbp), %ebx
	cmpl	$1674118049, -48(%rbp)  # imm = 0x63C903A1
	jne	.LBB21_64
.LBB21_63:
	movl	%ebx, %eax
	addq	$56, %rsp
	popq	%rbx
	popq	%rbp
	.cfi_def_cfa %rsp, 8
	retq
.LBB21_64:                              # %func_exit
	.cfi_def_cfa %rbp, 16
	callq	detect_breach
	jmp	.LBB21_63
.Lfunc_end21:
	.size	GeneratePic_parameter_set_rbsp.10, .Lfunc_end21-GeneratePic_parameter_set_rbsp.10
	.cfi_endproc
                                        # -- End function
	.globl	GeneratePic_parameter_set_rbsp.11 # -- Begin function GeneratePic_parameter_set_rbsp.11
	.p2align	4, 0x90
	.type	GeneratePic_parameter_set_rbsp.11,@function
GeneratePic_parameter_set_rbsp.11:      # @GeneratePic_parameter_set_rbsp.11
	.cfi_startproc
# %bb.0:                                # %entry
	pushq	%rbp
	.cfi_def_cfa_offset 16
	.cfi_offset %rbp, -16
	movq	%rsp, %rbp
	.cfi_def_cfa_register %rbp
	pushq	%rbx
	subq	$56, %rsp
	.cfi_offset %rbx, -24
	movl	$823473788, -44(%rbp)   # imm = 0x3115367C
	movq	%rdi, -24(%rbp)
	movq	%rsi, -56(%rbp)
	movl	$0, -12(%rbp)
	movl	$1, %edi
	movl	$120, %esi
	callq	calloc
	movq	%rax, -32(%rbp)
	cmpq	$0, %rax
	jne	.LBB22_2
# %bb.1:                                # %if.then
	movabsq	$.L.str.42, %rdi
	callq	no_mem_exit
.LBB22_2:                               # %if.end
	movl	$1, %edi
	movl	$48, %esi
	callq	calloc
	movq	-32(%rbp), %rcx
	movq	%rax, (%rcx)
	cmpq	$0, %rax
	jne	.LBB22_4
# %bb.3:                                # %if.then3
	movabsq	$.L.str.43, %rdi
	callq	no_mem_exit
.LBB22_4:                               # %if.end4
	movq	-56(%rbp), %rax
	movq	-32(%rbp), %rcx
	movq	(%rcx), %rcx
	movq	%rax, 32(%rcx)
	movq	-32(%rbp), %rax
	movq	(%rax), %rax
	movl	$8, 4(%rax)
	movq	img, %rax
	movl	72492(%rax), %eax
	movq	-24(%rbp), %rcx
	movl	%eax, 56(%rcx)
	movq	-24(%rbp), %rax
	movl	4(%rax), %esi
	movq	-32(%rbp), %rdx
	movabsq	$.L.str.44, %rdi
	callq	ue_v
	addl	-12(%rbp), %eax
	movl	%eax, -12(%rbp)
	movq	-24(%rbp), %rax
	movl	8(%rax), %esi
	movq	-32(%rbp), %rdx
	movabsq	$.L.str.45, %rdi
	callq	ue_v
	addl	-12(%rbp), %eax
	movl	%eax, -12(%rbp)
	movq	-24(%rbp), %rax
	movl	12(%rax), %esi
	movq	-32(%rbp), %rdx
	movabsq	$.L.str.46, %rdi
	callq	u_1
	addl	-12(%rbp), %eax
	movl	%eax, -12(%rbp)
	movq	-24(%rbp), %rax
	movl	56(%rax), %esi
	movq	-32(%rbp), %rdx
	movabsq	$.L.str.47, %rdi
	callq	u_1
	addl	-12(%rbp), %eax
	movl	%eax, -12(%rbp)
	movq	-24(%rbp), %rax
	movl	60(%rax), %esi
	movq	-32(%rbp), %rdx
	movabsq	$.L.str.48, %rdi
	callq	ue_v
	addl	-12(%rbp), %eax
	movl	%eax, -12(%rbp)
	movq	-24(%rbp), %rax
	cmpl	$0, 60(%rax)
	jbe	.LBB22_40
# %bb.5:                                # %if.then20
	movq	-24(%rbp), %rax
	movl	64(%rax), %esi
	movq	-32(%rbp), %rdx
	movabsq	$.L.str.49, %rdi
	callq	ue_v
	addl	-12(%rbp), %eax
	movl	%eax, -12(%rbp)
	movq	-24(%rbp), %rax
	cmpl	$0, 64(%rax)
	jne	.LBB22_11
# %bb.6:                                # %if.then25
	movl	$0, -16(%rbp)
.LBB22_7:                               # %for.cond
                                        # =>This Inner Loop Header: Depth=1
	movl	-16(%rbp), %eax
	movq	-24(%rbp), %rcx
	cmpl	60(%rcx), %eax
	ja	.LBB22_10
# %bb.8:                                # %for.body
                                        #   in Loop: Header=BB22_7 Depth=1
	movq	-24(%rbp), %rax
	movl	-16(%rbp), %ecx
	movl	68(%rax,%rcx,4), %esi
	movq	-32(%rbp), %rdx
	movabsq	$.L.str.50, %rdi
	callq	ue_v
	addl	-12(%rbp), %eax
	movl	%eax, -12(%rbp)
# %bb.9:                                # %for.inc
                                        #   in Loop: Header=BB22_7 Depth=1
	movl	-16(%rbp), %eax
	addl	$1, %eax
	movl	%eax, -16(%rbp)
	jmp	.LBB22_7
.LBB22_10:                              # %for.end
	jmp	.LBB22_39
.LBB22_11:                              # %if.else
	movq	-24(%rbp), %rax
	cmpl	$2, 64(%rax)
	jne	.LBB22_17
# %bb.12:                               # %if.then32
	movl	$0, -16(%rbp)
.LBB22_13:                              # %for.cond33
                                        # =>This Inner Loop Header: Depth=1
	movl	-16(%rbp), %eax
	movq	-24(%rbp), %rcx
	cmpl	60(%rcx), %eax
	jae	.LBB22_16
# %bb.14:                               # %for.body36
                                        #   in Loop: Header=BB22_13 Depth=1
	movq	-24(%rbp), %rax
	movl	-16(%rbp), %ecx
	movl	100(%rax,%rcx,4), %esi
	movq	-32(%rbp), %rdx
	movabsq	$.L.str.51, %rdi
	callq	ue_v
	addl	-12(%rbp), %eax
	movl	%eax, -12(%rbp)
	movq	-24(%rbp), %rax
	movl	-16(%rbp), %ecx
	movl	132(%rax,%rcx,4), %esi
	movq	-32(%rbp), %rdx
	movabsq	$.L.str.52, %rdi
	callq	ue_v
	addl	-12(%rbp), %eax
	movl	%eax, -12(%rbp)
# %bb.15:                               # %for.inc45
                                        #   in Loop: Header=BB22_13 Depth=1
	movl	-16(%rbp), %eax
	addl	$1, %eax
	movl	%eax, -16(%rbp)
	jmp	.LBB22_13
.LBB22_16:                              # %for.end47
	jmp	.LBB22_38
.LBB22_17:                              # %if.else48
	movq	-24(%rbp), %rax
	cmpl	$3, 64(%rax)
	je	.LBB22_20
# %bb.18:                               # %lor.lhs.false
	movq	-24(%rbp), %rax
	cmpl	$4, 64(%rax)
	je	.LBB22_20
# %bb.19:                               # %lor.lhs.false53
	movq	-24(%rbp), %rax
	cmpl	$5, 64(%rax)
	jne	.LBB22_21
.LBB22_20:                              # %if.then56
	movq	-24(%rbp), %rax
	movl	164(%rax), %esi
	movq	-32(%rbp), %rdx
	movabsq	$.L.str.53, %rdi
	callq	u_1
	addl	-12(%rbp), %eax
	movl	%eax, -12(%rbp)
	movq	-24(%rbp), %rax
	movl	168(%rax), %esi
	movq	-32(%rbp), %rdx
	movabsq	$.L.str.54, %rdi
	callq	ue_v
	addl	-12(%rbp), %eax
	movl	%eax, -12(%rbp)
	jmp	.LBB22_37
.LBB22_21:                              # %if.else61
	movq	-24(%rbp), %rax
	cmpl	$6, 64(%rax)
	jne	.LBB22_36
# %bb.22:                               # %if.then64
	movq	-24(%rbp), %rax
	cmpl	$4, 60(%rax)
	jb	.LBB22_24
# %bb.23:                               # %if.then67
	movl	$3, -40(%rbp)
	jmp	.LBB22_31
.LBB22_24:                              # %if.else68
	movq	-24(%rbp), %rax
	cmpl	$2, 60(%rax)
	jb	.LBB22_26
# %bb.25:                               # %if.then71
	movl	$2, -40(%rbp)
	jmp	.LBB22_30
.LBB22_26:                              # %if.else72
	movq	-24(%rbp), %rax
	cmpl	$1, 60(%rax)
	jb	.LBB22_28
# %bb.27:                               # %if.then75
	movl	$1, -40(%rbp)
	jmp	.LBB22_29
.LBB22_28:                              # %if.else76
	movl	$0, -40(%rbp)
.LBB22_29:                              # %if.end77
	jmp	.LBB22_30
.LBB22_30:                              # %if.end78
	jmp	.LBB22_31
.LBB22_31:                              # %if.end79
	movq	-24(%rbp), %rax
	movl	172(%rax), %esi
	movq	-32(%rbp), %rdx
	movabsq	$.L.str.55, %rdi
	callq	ue_v
	addl	-12(%rbp), %eax
	movl	%eax, -12(%rbp)
	movl	$0, -16(%rbp)
.LBB22_32:                              # %for.cond82
                                        # =>This Inner Loop Header: Depth=1
	movl	-16(%rbp), %eax
	movq	-24(%rbp), %rcx
	cmpl	172(%rcx), %eax
	ja	.LBB22_35
# %bb.33:                               # %for.body85
                                        #   in Loop: Header=BB22_32 Depth=1
	movl	-40(%rbp), %edi
	movq	-24(%rbp), %rax
	movq	176(%rax), %rax
	movl	-16(%rbp), %ecx
	movzbl	(%rax,%rcx), %edx
	movq	-32(%rbp), %rcx
	movabsq	$.L.str.56, %rsi
	callq	u_v
	addl	-12(%rbp), %eax
	movl	%eax, -12(%rbp)
# %bb.34:                               # %for.inc90
                                        #   in Loop: Header=BB22_32 Depth=1
	movl	-16(%rbp), %eax
	addl	$1, %eax
	movl	%eax, -16(%rbp)
	jmp	.LBB22_32
.LBB22_35:                              # %for.end92
	jmp	.LBB22_36
.LBB22_36:                              # %if.end93
	jmp	.LBB22_37
.LBB22_37:                              # %if.end94
	jmp	.LBB22_38
.LBB22_38:                              # %if.end95
	jmp	.LBB22_39
.LBB22_39:                              # %if.end96
	jmp	.LBB22_40
.LBB22_40:                              # %if.end97
	movq	-24(%rbp), %rax
	movl	184(%rax), %esi
	movq	-32(%rbp), %rdx
	movabsq	$.L.str.57, %rdi
	callq	ue_v
	addl	-12(%rbp), %eax
	movl	%eax, -12(%rbp)
	movq	-24(%rbp), %rax
	movl	188(%rax), %esi
	movq	-32(%rbp), %rdx
	movabsq	$.L.str.58, %rdi
	callq	ue_v
	addl	-12(%rbp), %eax
	movl	%eax, -12(%rbp)
	movq	-24(%rbp), %rax
	movl	192(%rax), %esi
	movq	-32(%rbp), %rdx
	movabsq	$.L.str.59, %rdi
	callq	u_1
	addl	-12(%rbp), %eax
	movl	%eax, -12(%rbp)
	movq	-24(%rbp), %rax
	movl	196(%rax), %edx
	movq	-32(%rbp), %rcx
	movl	$2, %edi
	movabsq	$.L.str.60, %rsi
	callq	u_v
	addl	-12(%rbp), %eax
	movl	%eax, -12(%rbp)
	movq	-24(%rbp), %rax
	movl	200(%rax), %esi
	movq	-32(%rbp), %rdx
	movabsq	$.L.str.61, %rdi
	callq	se_v
	addl	-12(%rbp), %eax
	movl	%eax, -12(%rbp)
	movq	-24(%rbp), %rax
	movl	204(%rax), %esi
	movq	-32(%rbp), %rdx
	movabsq	$.L.str.62, %rdi
	callq	se_v
	addl	-12(%rbp), %eax
	movl	%eax, -12(%rbp)
	callq	IdentifyProfile
	movl	%eax, -36(%rbp)
	cmpl	$100, -36(%rbp)
	je	.LBB22_44
# %bb.41:                               # %lor.lhs.false113
	cmpl	$110, -36(%rbp)
	je	.LBB22_44
# %bb.42:                               # %lor.lhs.false116
	cmpl	$122, -36(%rbp)
	je	.LBB22_44
# %bb.43:                               # %lor.lhs.false119
	cmpl	$144, -36(%rbp)
	jne	.LBB22_45
.LBB22_44:                              # %if.then122
	movq	-24(%rbp), %rax
	movl	212(%rax), %esi
	movq	-32(%rbp), %rdx
	movabsq	$.L.str.63, %rdi
	callq	se_v
	addl	-12(%rbp), %eax
	movl	%eax, -12(%rbp)
	jmp	.LBB22_46
.LBB22_45:                              # %if.else125
	movq	-24(%rbp), %rax
	movl	208(%rax), %esi
	movq	-32(%rbp), %rdx
	movabsq	$.L.str.63, %rdi
	callq	se_v
	addl	-12(%rbp), %eax
	movl	%eax, -12(%rbp)
.LBB22_46:                              # %if.end128
	movq	-24(%rbp), %rax
	movl	220(%rax), %esi
	movq	-32(%rbp), %rdx
	movabsq	$.L.str.64, %rdi
	callq	u_1
	addl	-12(%rbp), %eax
	movl	%eax, -12(%rbp)
	movq	-24(%rbp), %rax
	movl	224(%rax), %esi
	movq	-32(%rbp), %rdx
	movabsq	$.L.str.65, %rdi
	callq	u_1
	addl	-12(%rbp), %eax
	movl	%eax, -12(%rbp)
	movq	-24(%rbp), %rax
	movl	228(%rax), %esi
	movq	-32(%rbp), %rdx
	movabsq	$.L.str.66, %rdi
	callq	u_1
	addl	-12(%rbp), %eax
	movl	%eax, -12(%rbp)
	cmpl	$100, -36(%rbp)
	je	.LBB22_50
# %bb.47:                               # %lor.lhs.false137
	cmpl	$110, -36(%rbp)
	je	.LBB22_50
# %bb.48:                               # %lor.lhs.false140
	cmpl	$122, -36(%rbp)
	je	.LBB22_50
# %bb.49:                               # %lor.lhs.false143
	cmpl	$144, -36(%rbp)
	jne	.LBB22_62
.LBB22_50:                              # %if.then146
	movq	-24(%rbp), %rax
	movl	16(%rax), %esi
	movq	-32(%rbp), %rdx
	movabsq	$.L.str.67, %rdi
	callq	u_1
	addl	-12(%rbp), %eax
	movl	%eax, -12(%rbp)
	movq	-24(%rbp), %rax
	movl	20(%rax), %esi
	movq	-32(%rbp), %rdx
	movabsq	$.L.str.68, %rdi
	callq	u_1
	addl	-12(%rbp), %eax
	movl	%eax, -12(%rbp)
	movq	-24(%rbp), %rax
	cmpl	$0, 20(%rax)
	je	.LBB22_61
# %bb.51:                               # %if.then152
	movl	$0, -16(%rbp)
.LBB22_52:                              # %for.cond153
                                        # =>This Inner Loop Header: Depth=1
	movl	-16(%rbp), %eax
	movq	-24(%rbp), %rcx
	movl	16(%rcx), %ecx
	shll	$1, %ecx
	addl	$6, %ecx
	cmpl	%ecx, %eax
	jae	.LBB22_60
# %bb.53:                               # %for.body158
                                        #   in Loop: Header=BB22_52 Depth=1
	movq	-24(%rbp), %rax
	movl	-16(%rbp), %ecx
	movl	24(%rax,%rcx,4), %esi
	movq	-32(%rbp), %rdx
	movabsq	$.L.str.69, %rdi
	callq	u_1
	addl	-12(%rbp), %eax
	movl	%eax, -12(%rbp)
	movq	-24(%rbp), %rax
	movl	-16(%rbp), %ecx
	cmpl	$0, 24(%rax,%rcx,4)
	je	.LBB22_58
# %bb.54:                               # %if.then167
                                        #   in Loop: Header=BB22_52 Depth=1
	cmpl	$6, -16(%rbp)
	jae	.LBB22_56
# %bb.55:                               # %if.then170
                                        #   in Loop: Header=BB22_52 Depth=1
	movl	-16(%rbp), %eax
	shlq	$5, %rax
	movabsq	$ScalingList4x4input, %rdi
	addq	%rax, %rdi
	movl	-16(%rbp), %eax
	shlq	$5, %rax
	movabsq	$ScalingList4x4, %rsi
	addq	%rax, %rsi
	movl	-16(%rbp), %eax
	shlq	$1, %rax
	movabsq	$UseDefaultScalingMatrix4x4Flag, %rcx
	addq	%rax, %rcx
	movq	-32(%rbp), %r8
	movl	$16, %edx
	callq	Scaling_List
	addl	-12(%rbp), %eax
	movl	%eax, -12(%rbp)
	jmp	.LBB22_57
.LBB22_56:                              # %if.else180
                                        #   in Loop: Header=BB22_52 Depth=1
	movl	-16(%rbp), %eax
	subl	$6, %eax
	movl	%eax, %eax
	shlq	$7, %rax
	movabsq	$ScalingList8x8input, %rdi
	addq	%rax, %rdi
	movl	-16(%rbp), %eax
	subl	$6, %eax
	movl	%eax, %eax
	shlq	$7, %rax
	movabsq	$ScalingList8x8, %rsi
	addq	%rax, %rsi
	movl	-16(%rbp), %eax
	subl	$6, %eax
	movl	%eax, %eax
	shlq	$1, %rax
	movabsq	$UseDefaultScalingMatrix8x8Flag, %rcx
	addq	%rax, %rcx
	movq	-32(%rbp), %r8
	movl	$64, %edx
	callq	Scaling_List
	addl	-12(%rbp), %eax
	movl	%eax, -12(%rbp)
.LBB22_57:                              # %if.end193
                                        #   in Loop: Header=BB22_52 Depth=1
	jmp	.LBB22_58
.LBB22_58:                              # %if.end194
                                        #   in Loop: Header=BB22_52 Depth=1
	jmp	.LBB22_59
.LBB22_59:                              # %for.inc195
                                        #   in Loop: Header=BB22_52 Depth=1
	movl	-16(%rbp), %eax
	addl	$1, %eax
	movl	%eax, -16(%rbp)
	jmp	.LBB22_52
.LBB22_60:                              # %for.end197
	jmp	.LBB22_61
.LBB22_61:                              # %if.end198
	movq	-24(%rbp), %rax
	movl	216(%rax), %esi
	movq	-32(%rbp), %rdx
	movabsq	$.L.str.70, %rdi
	callq	se_v
	addl	-12(%rbp), %eax
	movl	%eax, -12(%rbp)
.LBB22_62:                              # %if.end201
	movq	-32(%rbp), %rax
	movq	(%rax), %rdi
	callq	SODBtoRBSP
	movq	-32(%rbp), %rax
	movq	(%rax), %rax
	movl	(%rax), %eax
	movl	%eax, -48(%rbp)
	movq	-32(%rbp), %rax
	movq	(%rax), %rdi
	callq	free
	movq	-32(%rbp), %rdi
	callq	free
	movl	-48(%rbp), %ebx
	cmpl	$823473788, -44(%rbp)   # imm = 0x3115367C
	jne	.LBB22_64
.LBB22_63:
	movl	%ebx, %eax
	addq	$56, %rsp
	popq	%rbx
	popq	%rbp
	.cfi_def_cfa %rsp, 8
	retq
.LBB22_64:                              # %func_exit
	.cfi_def_cfa %rbp, 16
	callq	detect_breach
	jmp	.LBB22_63
.Lfunc_end22:
	.size	GeneratePic_parameter_set_rbsp.11, .Lfunc_end22-GeneratePic_parameter_set_rbsp.11
	.cfi_endproc
                                        # -- End function
	.globl	GenerateSequenceParameterSet.12 # -- Begin function GenerateSequenceParameterSet.12
	.p2align	4, 0x90
	.type	GenerateSequenceParameterSet.12,@function
GenerateSequenceParameterSet.12:        # @GenerateSequenceParameterSet.12
	.cfi_startproc
# %bb.0:                                # %entry
	pushq	%rbp
	.cfi_def_cfa_offset 16
	.cfi_offset %rbp, -16
	movq	%rsp, %rbp
	.cfi_def_cfa_register %rbp
	subq	$96, %rsp
	movl	$1091136902, -40(%rbp)  # imm = 0x41096D86
	movq	%rdi, -8(%rbp)
	movl	%esi, -84(%rbp)
	movq	.L__const.GenerateSequenceParameterSet.SubWidthC, %rax
	movq	%rax, -64(%rbp)
	movq	.L__const.GenerateSequenceParameterSet.SubWidthC+8, %rax
	movq	%rax, -56(%rbp)
	movq	.L__const.GenerateSequenceParameterSet.SubHeightC, %rax
	movq	%rax, -80(%rbp)
	movq	.L__const.GenerateSequenceParameterSet.SubHeightC+8, %rax
	movq	%rax, -72(%rbp)
	callq	IdentifyProfile
	cmpl	$100, %eax
	movb	$1, %al
	je	.LBB23_4
# %bb.1:                                # %lor.lhs.false
	callq	IdentifyProfile
	cmpl	$110, %eax
	movb	$1, %al
	je	.LBB23_4
# %bb.2:                                # %lor.lhs.false3
	callq	IdentifyProfile
	cmpl	$122, %eax
	movb	$1, %al
	je	.LBB23_4
# %bb.3:                                # %lor.rhs
	callq	IdentifyProfile
	cmpl	$144, %eax
	sete	%al
.LBB23_4:                               # %lor.end
	andb	$1, %al
	movzbl	%al, %eax
	movl	%eax, -20(%rbp)
	callq	IdentifyProfile
	movq	-8(%rbp), %rcx
	movl	%eax, 4(%rcx)
	callq	IdentifyLevel
	movq	-8(%rbp), %rcx
	movl	%eax, 24(%rcx)
	movq	-8(%rbp), %rax
	movl	$0, 8(%rax)
	movq	-8(%rbp), %rax
	movl	$0, 12(%rax)
	movq	-8(%rbp), %rax
	movl	$0, 16(%rax)
	movq	-8(%rbp), %rax
	movl	$0, 20(%rax)
	movq	-8(%rbp), %rax
	movl	$0, 28(%rax)
	movq	input, %rax
	movl	3296(%rax), %eax
	subl	$8, %eax
	movq	-8(%rbp), %rcx
	movl	%eax, 72(%rcx)
	movq	input, %rax
	movl	3300(%rax), %eax
	subl	$8, %eax
	movq	-8(%rbp), %rcx
	movl	%eax, 76(%rcx)
	movq	input, %rax
	movl	3324(%rax), %eax
	movq	-8(%rbp), %rcx
	cmpl	$144, 4(%rcx)
	sete	%cl
	andb	$1, %cl
	movzbl	%cl, %ecx
	andl	%ecx, %eax
	movq	img, %rcx
	movl	%eax, 72704(%rcx)
	movq	input, %rax
	movl	3328(%rax), %eax
	movq	img, %rcx
	movl	%eax, 72724(%rcx)
	movl	log2_max_frame_num_minus4, %eax
	movq	-8(%rbp), %rcx
	movl	%eax, 80(%rcx)
	movl	log2_max_pic_order_cnt_lsb_minus4, %eax
	movq	-8(%rbp), %rcx
	movl	%eax, 88(%rcx)
	movq	input, %rax
	movl	3208(%rax), %eax
	movq	-8(%rbp), %rcx
	movl	%eax, 84(%rcx)
	movq	img, %rax
	movl	72420(%rax), %eax
	movq	-8(%rbp), %rcx
	movl	%eax, 104(%rcx)
	movq	img, %rax
	movl	72408(%rax), %eax
	movq	-8(%rbp), %rcx
	movl	%eax, 92(%rcx)
	movq	img, %rax
	movl	72412(%rax), %eax
	movq	-8(%rbp), %rcx
	movl	%eax, 96(%rcx)
	movq	img, %rax
	movl	72416(%rax), %eax
	movq	-8(%rbp), %rcx
	movl	%eax, 100(%rcx)
	movl	$0, -12(%rbp)
.LBB23_5:                               # %for.cond
                                        # =>This Inner Loop Header: Depth=1
	movl	-12(%rbp), %eax
	movq	img, %rcx
	cmpl	72420(%rcx), %eax
	jae	.LBB23_8
# %bb.6:                                # %for.body
                                        #   in Loop: Header=BB23_5 Depth=1
	movq	img, %rax
	movl	-12(%rbp), %ecx
	movl	72424(%rax,%rcx,4), %eax
	movq	-8(%rbp), %rcx
	movl	-12(%rbp), %edx
	movl	%eax, 108(%rcx,%rdx,4)
# %bb.7:                                # %for.inc
                                        #   in Loop: Header=BB23_5 Depth=1
	movl	-12(%rbp), %eax
	addl	$1, %eax
	movl	%eax, -12(%rbp)
	jmp	.LBB23_5
.LBB23_8:                               # %for.end
	movq	input, %rax
	movl	36(%rax), %eax
	movq	-8(%rbp), %rcx
	movl	%eax, 1132(%rcx)
	movq	-8(%rbp), %rax
	movl	$0, 1136(%rax)
	movq	input, %rax
	cmpl	$0, 2880(%rax)
	movb	$1, %al
	jne	.LBB23_10
# %bb.9:                                # %lor.rhs26
	movq	input, %rax
	cmpl	$0, 2884(%rax)
	setne	%al
.LBB23_10:                              # %lor.end28
	xorl	%ecx, %ecx
	xorl	%esi, %esi
	xorb	$-1, %al
	andb	$1, %al
	movzbl	%al, %eax
	movq	-8(%rbp), %rdx
	movl	%eax, 1148(%rdx)
	movq	input, %rax
	movl	64(%rax), %eax
	movq	img, %rdx
	addl	72728(%rdx), %eax
	cltd
	movl	$16, %edi
	idivl	%edi
	subl	$1, %eax
	movq	-8(%rbp), %rdx
	movl	%eax, 1140(%rdx)
	movq	input, %rax
	movl	68(%rax), %eax
	movq	img, %rdx
	addl	72732(%rdx), %eax
	cltd
	idivl	%edi
	movq	-8(%rbp), %rdx
	movl	$2, %edi
	subl	1148(%rdx), %edi
	xorl	%edx, %edx
	divl	%edi
	subl	$1, %eax
	movq	-8(%rbp), %rdx
	movl	%eax, 1144(%rdx)
	movq	input, %rax
	cmpl	2884(%rax), %esi
	setne	%al
	andb	$1, %al
	movzbl	%al, %eax
	movq	-8(%rbp), %rdx
	movl	%eax, 1152(%rdx)
	movq	input, %rax
	movl	1252(%rax), %eax
	movq	-8(%rbp), %rdx
	movl	%eax, 1156(%rdx)
	movq	input, %rax
	cmpl	$0, 3312(%rax)
	je	.LBB23_12
# %bb.11:                               # %land.rhs
	movq	input, %rax
	cmpl	$3, 72(%rax)
	sete	%cl
.LBB23_12:                              # %land.end
	andb	$1, %cl
	movzbl	%cl, %eax
	movq	-8(%rbp), %rcx
	movl	%eax, 1180(%rcx)
	movq	input, %rax
	movl	72(%rax), %eax
	movq	-8(%rbp), %rcx
	movl	%eax, 32(%rcx)
	movq	-8(%rbp), %rax
	movl	1140(%rax), %eax
	addl	$1, %eax
	movl	%eax, -28(%rbp)
	movq	-8(%rbp), %rax
	movl	1144(%rax), %eax
	addl	$1, %eax
	movl	%eax, -36(%rbp)
	movq	-8(%rbp), %rax
	movl	$2, %ecx
	subl	1148(%rax), %ecx
	imull	-36(%rbp), %ecx
	movl	%ecx, -32(%rbp)
	movl	-28(%rbp), %eax
	shll	$4, %eax
	movl	%eax, -24(%rbp)
	movl	-32(%rbp), %eax
	shll	$4, %eax
	movl	%eax, -16(%rbp)
	movl	-24(%rbp), %edi
	movl	-16(%rbp), %esi
	movq	-8(%rbp), %rax
	movl	1152(%rax), %edx
	callq	alloc_colocated
	movq	%rax, Co_located
	cmpl	$0, -20(%rbp)
	je	.LBB23_24
# %bb.13:                               # %if.then
	movq	input, %rax
	movl	3256(%rax), %eax
	andl	$1, %eax
	movq	-8(%rbp), %rcx
	movl	%eax, 36(%rcx)
	movl	$0, -12(%rbp)
.LBB23_14:                              # %for.cond56
                                        # =>This Inner Loop Header: Depth=1
	cmpl	$8, -12(%rbp)
	jae	.LBB23_23
# %bb.15:                               # %for.body59
                                        #   in Loop: Header=BB23_14 Depth=1
	cmpl	$6, -12(%rbp)
	jae	.LBB23_17
# %bb.16:                               # %if.then62
                                        #   in Loop: Header=BB23_14 Depth=1
	movq	input, %rax
	movl	-12(%rbp), %ecx
	movl	3260(%rax,%rcx,4), %eax
	andl	$1, %eax
	movq	-8(%rbp), %rcx
	movl	-12(%rbp), %edx
	movl	%eax, 40(%rcx,%rdx,4)
	jmp	.LBB23_21
.LBB23_17:                              # %if.else
                                        #   in Loop: Header=BB23_14 Depth=1
	movq	input, %rax
	cmpl	$0, 3220(%rax)
	je	.LBB23_19
# %bb.18:                               # %if.then69
                                        #   in Loop: Header=BB23_14 Depth=1
	movq	input, %rax
	movl	-12(%rbp), %ecx
	movl	3260(%rax,%rcx,4), %eax
	andl	$1, %eax
	movq	-8(%rbp), %rcx
	movl	-12(%rbp), %edx
	movl	%eax, 40(%rcx,%rdx,4)
	jmp	.LBB23_20
.LBB23_19:                              # %if.else77
                                        #   in Loop: Header=BB23_14 Depth=1
	movq	-8(%rbp), %rax
	movl	-12(%rbp), %ecx
	movl	$0, 40(%rax,%rcx,4)
.LBB23_20:                              # %if.end
                                        #   in Loop: Header=BB23_14 Depth=1
	jmp	.LBB23_21
.LBB23_21:                              # %if.end81
                                        #   in Loop: Header=BB23_14 Depth=1
	jmp	.LBB23_22
.LBB23_22:                              # %for.inc82
                                        #   in Loop: Header=BB23_14 Depth=1
	movl	-12(%rbp), %eax
	addl	$1, %eax
	movl	%eax, -12(%rbp)
	jmp	.LBB23_14
.LBB23_23:                              # %for.end84
	jmp	.LBB23_29
.LBB23_24:                              # %if.else85
	movq	-8(%rbp), %rax
	movl	$0, 36(%rax)
	movl	$0, -12(%rbp)
.LBB23_25:                              # %for.cond87
                                        # =>This Inner Loop Header: Depth=1
	cmpl	$8, -12(%rbp)
	jae	.LBB23_28
# %bb.26:                               # %for.body90
                                        #   in Loop: Header=BB23_25 Depth=1
	movq	-8(%rbp), %rax
	movl	-12(%rbp), %ecx
	movl	$0, 40(%rax,%rcx,4)
# %bb.27:                               # %for.inc94
                                        #   in Loop: Header=BB23_25 Depth=1
	movl	-12(%rbp), %eax
	addl	$1, %eax
	movl	%eax, -12(%rbp)
	jmp	.LBB23_25
.LBB23_28:                              # %for.end96
	jmp	.LBB23_29
.LBB23_29:                              # %if.end97
	movq	img, %rax
	cmpl	$0, 72728(%rax)
	jne	.LBB23_31
# %bb.30:                               # %lor.lhs.false100
	movq	img, %rax
	cmpl	$0, 72732(%rax)
	je	.LBB23_36
.LBB23_31:                              # %if.then103
	movq	-8(%rbp), %rax
	movl	$1, 1160(%rax)
	movq	-8(%rbp), %rax
	movl	$0, 1164(%rax)
	movq	-8(%rbp), %rax
	movl	$0, 1172(%rax)
	movq	img, %rax
	movl	72728(%rax), %eax
	movq	-8(%rbp), %rcx
	movl	32(%rcx), %ecx
	cltd
	idivl	-64(%rbp,%rcx,4)
	movq	-8(%rbp), %rcx
	movl	%eax, 1168(%rcx)
	movq	img, %rax
	movl	72732(%rax), %eax
	movq	-8(%rbp), %rcx
	movl	32(%rcx), %ecx
	movl	-80(%rbp,%rcx,4), %ecx
	movq	-8(%rbp), %rdx
	movl	$2, %esi
	subl	1148(%rdx), %esi
	imull	%esi, %ecx
	xorl	%edx, %edx
	divl	%ecx
	movq	-8(%rbp), %rcx
	movl	%eax, 1176(%rcx)
	movq	img, %rax
	movl	72728(%rax), %eax
	movq	-8(%rbp), %rcx
	movl	32(%rcx), %ecx
	cltd
	idivl	-64(%rbp,%rcx,4)
	cmpl	$0, %edx
	je	.LBB23_33
# %bb.32:                               # %if.then122
	movabsq	$.L.str, %rdi
	movl	$500, %esi              # imm = 0x1F4
	callq	error
.LBB23_33:                              # %if.end123
	movq	img, %rax
	movl	72732(%rax), %eax
	movq	-8(%rbp), %rcx
	movl	32(%rcx), %ecx
	movl	-80(%rbp,%rcx,4), %ecx
	movq	-8(%rbp), %rdx
	movl	$2, %esi
	subl	1148(%rdx), %esi
	imull	%esi, %ecx
	xorl	%edx, %edx
	divl	%ecx
	cmpl	$0, %edx
	je	.LBB23_35
# %bb.34:                               # %if.then133
	movabsq	$.L.str.1, %rdi
	movl	$500, %esi              # imm = 0x1F4
	callq	error
.LBB23_35:                              # %if.end134
	jmp	.LBB23_37
.LBB23_36:                              # %if.else135
	movq	-8(%rbp), %rax
	movl	$0, 1160(%rax)
.LBB23_37:                              # %if.end137
	cmpl	$1091136902, -40(%rbp)  # imm = 0x41096D86
	jne	.LBB23_39
.LBB23_38:
	addq	$96, %rsp
	popq	%rbp
	.cfi_def_cfa %rsp, 8
	retq
.LBB23_39:                              # %func_exit
	.cfi_def_cfa %rbp, 16
	callq	detect_breach
	jmp	.LBB23_38
.Lfunc_end23:
	.size	GenerateSequenceParameterSet.12, .Lfunc_end23-GenerateSequenceParameterSet.12
	.cfi_endproc
                                        # -- End function
	.globl	GeneratePic_parameter_set_rbsp.13 # -- Begin function GeneratePic_parameter_set_rbsp.13
	.p2align	4, 0x90
	.type	GeneratePic_parameter_set_rbsp.13,@function
GeneratePic_parameter_set_rbsp.13:      # @GeneratePic_parameter_set_rbsp.13
	.cfi_startproc
# %bb.0:                                # %entry
	pushq	%rbp
	.cfi_def_cfa_offset 16
	.cfi_offset %rbp, -16
	movq	%rsp, %rbp
	.cfi_def_cfa_register %rbp
	pushq	%rbx
	subq	$56, %rsp
	.cfi_offset %rbx, -24
	movl	$1541744819, -48(%rbp)  # imm = 0x5BE528B3
	movq	%rdi, -24(%rbp)
	movq	%rsi, -56(%rbp)
	movl	$0, -12(%rbp)
	movl	$1, %edi
	movl	$120, %esi
	callq	calloc
	movq	%rax, -32(%rbp)
	cmpq	$0, %rax
	jne	.LBB24_2
# %bb.1:                                # %if.then
	movabsq	$.L.str.42, %rdi
	callq	no_mem_exit
.LBB24_2:                               # %if.end
	movl	$1, %edi
	movl	$48, %esi
	callq	calloc
	movq	-32(%rbp), %rcx
	movq	%rax, (%rcx)
	cmpq	$0, %rax
	jne	.LBB24_4
# %bb.3:                                # %if.then3
	movabsq	$.L.str.43, %rdi
	callq	no_mem_exit
.LBB24_4:                               # %if.end4
	movq	-56(%rbp), %rax
	movq	-32(%rbp), %rcx
	movq	(%rcx), %rcx
	movq	%rax, 32(%rcx)
	movq	-32(%rbp), %rax
	movq	(%rax), %rax
	movl	$8, 4(%rax)
	movq	img, %rax
	movl	72492(%rax), %eax
	movq	-24(%rbp), %rcx
	movl	%eax, 56(%rcx)
	movq	-24(%rbp), %rax
	movl	4(%rax), %esi
	movq	-32(%rbp), %rdx
	movabsq	$.L.str.44, %rdi
	callq	ue_v
	addl	-12(%rbp), %eax
	movl	%eax, -12(%rbp)
	movq	-24(%rbp), %rax
	movl	8(%rax), %esi
	movq	-32(%rbp), %rdx
	movabsq	$.L.str.45, %rdi
	callq	ue_v
	addl	-12(%rbp), %eax
	movl	%eax, -12(%rbp)
	movq	-24(%rbp), %rax
	movl	12(%rax), %esi
	movq	-32(%rbp), %rdx
	movabsq	$.L.str.46, %rdi
	callq	u_1
	addl	-12(%rbp), %eax
	movl	%eax, -12(%rbp)
	movq	-24(%rbp), %rax
	movl	56(%rax), %esi
	movq	-32(%rbp), %rdx
	movabsq	$.L.str.47, %rdi
	callq	u_1
	addl	-12(%rbp), %eax
	movl	%eax, -12(%rbp)
	movq	-24(%rbp), %rax
	movl	60(%rax), %esi
	movq	-32(%rbp), %rdx
	movabsq	$.L.str.48, %rdi
	callq	ue_v
	addl	-12(%rbp), %eax
	movl	%eax, -12(%rbp)
	movq	-24(%rbp), %rax
	cmpl	$0, 60(%rax)
	jbe	.LBB24_40
# %bb.5:                                # %if.then20
	movq	-24(%rbp), %rax
	movl	64(%rax), %esi
	movq	-32(%rbp), %rdx
	movabsq	$.L.str.49, %rdi
	callq	ue_v
	addl	-12(%rbp), %eax
	movl	%eax, -12(%rbp)
	movq	-24(%rbp), %rax
	cmpl	$0, 64(%rax)
	jne	.LBB24_11
# %bb.6:                                # %if.then25
	movl	$0, -16(%rbp)
.LBB24_7:                               # %for.cond
                                        # =>This Inner Loop Header: Depth=1
	movl	-16(%rbp), %eax
	movq	-24(%rbp), %rcx
	cmpl	60(%rcx), %eax
	ja	.LBB24_10
# %bb.8:                                # %for.body
                                        #   in Loop: Header=BB24_7 Depth=1
	movq	-24(%rbp), %rax
	movl	-16(%rbp), %ecx
	movl	68(%rax,%rcx,4), %esi
	movq	-32(%rbp), %rdx
	movabsq	$.L.str.50, %rdi
	callq	ue_v
	addl	-12(%rbp), %eax
	movl	%eax, -12(%rbp)
# %bb.9:                                # %for.inc
                                        #   in Loop: Header=BB24_7 Depth=1
	movl	-16(%rbp), %eax
	addl	$1, %eax
	movl	%eax, -16(%rbp)
	jmp	.LBB24_7
.LBB24_10:                              # %for.end
	jmp	.LBB24_39
.LBB24_11:                              # %if.else
	movq	-24(%rbp), %rax
	cmpl	$2, 64(%rax)
	jne	.LBB24_17
# %bb.12:                               # %if.then32
	movl	$0, -16(%rbp)
.LBB24_13:                              # %for.cond33
                                        # =>This Inner Loop Header: Depth=1
	movl	-16(%rbp), %eax
	movq	-24(%rbp), %rcx
	cmpl	60(%rcx), %eax
	jae	.LBB24_16
# %bb.14:                               # %for.body36
                                        #   in Loop: Header=BB24_13 Depth=1
	movq	-24(%rbp), %rax
	movl	-16(%rbp), %ecx
	movl	100(%rax,%rcx,4), %esi
	movq	-32(%rbp), %rdx
	movabsq	$.L.str.51, %rdi
	callq	ue_v
	addl	-12(%rbp), %eax
	movl	%eax, -12(%rbp)
	movq	-24(%rbp), %rax
	movl	-16(%rbp), %ecx
	movl	132(%rax,%rcx,4), %esi
	movq	-32(%rbp), %rdx
	movabsq	$.L.str.52, %rdi
	callq	ue_v
	addl	-12(%rbp), %eax
	movl	%eax, -12(%rbp)
# %bb.15:                               # %for.inc45
                                        #   in Loop: Header=BB24_13 Depth=1
	movl	-16(%rbp), %eax
	addl	$1, %eax
	movl	%eax, -16(%rbp)
	jmp	.LBB24_13
.LBB24_16:                              # %for.end47
	jmp	.LBB24_38
.LBB24_17:                              # %if.else48
	movq	-24(%rbp), %rax
	cmpl	$3, 64(%rax)
	je	.LBB24_20
# %bb.18:                               # %lor.lhs.false
	movq	-24(%rbp), %rax
	cmpl	$4, 64(%rax)
	je	.LBB24_20
# %bb.19:                               # %lor.lhs.false53
	movq	-24(%rbp), %rax
	cmpl	$5, 64(%rax)
	jne	.LBB24_21
.LBB24_20:                              # %if.then56
	movq	-24(%rbp), %rax
	movl	164(%rax), %esi
	movq	-32(%rbp), %rdx
	movabsq	$.L.str.53, %rdi
	callq	u_1
	addl	-12(%rbp), %eax
	movl	%eax, -12(%rbp)
	movq	-24(%rbp), %rax
	movl	168(%rax), %esi
	movq	-32(%rbp), %rdx
	movabsq	$.L.str.54, %rdi
	callq	ue_v
	addl	-12(%rbp), %eax
	movl	%eax, -12(%rbp)
	jmp	.LBB24_37
.LBB24_21:                              # %if.else61
	movq	-24(%rbp), %rax
	cmpl	$6, 64(%rax)
	jne	.LBB24_36
# %bb.22:                               # %if.then64
	movq	-24(%rbp), %rax
	cmpl	$4, 60(%rax)
	jb	.LBB24_24
# %bb.23:                               # %if.then67
	movl	$3, -40(%rbp)
	jmp	.LBB24_31
.LBB24_24:                              # %if.else68
	movq	-24(%rbp), %rax
	cmpl	$2, 60(%rax)
	jb	.LBB24_26
# %bb.25:                               # %if.then71
	movl	$2, -40(%rbp)
	jmp	.LBB24_30
.LBB24_26:                              # %if.else72
	movq	-24(%rbp), %rax
	cmpl	$1, 60(%rax)
	jb	.LBB24_28
# %bb.27:                               # %if.then75
	movl	$1, -40(%rbp)
	jmp	.LBB24_29
.LBB24_28:                              # %if.else76
	movl	$0, -40(%rbp)
.LBB24_29:                              # %if.end77
	jmp	.LBB24_30
.LBB24_30:                              # %if.end78
	jmp	.LBB24_31
.LBB24_31:                              # %if.end79
	movq	-24(%rbp), %rax
	movl	172(%rax), %esi
	movq	-32(%rbp), %rdx
	movabsq	$.L.str.55, %rdi
	callq	ue_v
	addl	-12(%rbp), %eax
	movl	%eax, -12(%rbp)
	movl	$0, -16(%rbp)
.LBB24_32:                              # %for.cond82
                                        # =>This Inner Loop Header: Depth=1
	movl	-16(%rbp), %eax
	movq	-24(%rbp), %rcx
	cmpl	172(%rcx), %eax
	ja	.LBB24_35
# %bb.33:                               # %for.body85
                                        #   in Loop: Header=BB24_32 Depth=1
	movl	-40(%rbp), %edi
	movq	-24(%rbp), %rax
	movq	176(%rax), %rax
	movl	-16(%rbp), %ecx
	movzbl	(%rax,%rcx), %edx
	movq	-32(%rbp), %rcx
	movabsq	$.L.str.56, %rsi
	callq	u_v
	addl	-12(%rbp), %eax
	movl	%eax, -12(%rbp)
# %bb.34:                               # %for.inc90
                                        #   in Loop: Header=BB24_32 Depth=1
	movl	-16(%rbp), %eax
	addl	$1, %eax
	movl	%eax, -16(%rbp)
	jmp	.LBB24_32
.LBB24_35:                              # %for.end92
	jmp	.LBB24_36
.LBB24_36:                              # %if.end93
	jmp	.LBB24_37
.LBB24_37:                              # %if.end94
	jmp	.LBB24_38
.LBB24_38:                              # %if.end95
	jmp	.LBB24_39
.LBB24_39:                              # %if.end96
	jmp	.LBB24_40
.LBB24_40:                              # %if.end97
	movq	-24(%rbp), %rax
	movl	184(%rax), %esi
	movq	-32(%rbp), %rdx
	movabsq	$.L.str.57, %rdi
	callq	ue_v
	addl	-12(%rbp), %eax
	movl	%eax, -12(%rbp)
	movq	-24(%rbp), %rax
	movl	188(%rax), %esi
	movq	-32(%rbp), %rdx
	movabsq	$.L.str.58, %rdi
	callq	ue_v
	addl	-12(%rbp), %eax
	movl	%eax, -12(%rbp)
	movq	-24(%rbp), %rax
	movl	192(%rax), %esi
	movq	-32(%rbp), %rdx
	movabsq	$.L.str.59, %rdi
	callq	u_1
	addl	-12(%rbp), %eax
	movl	%eax, -12(%rbp)
	movq	-24(%rbp), %rax
	movl	196(%rax), %edx
	movq	-32(%rbp), %rcx
	movl	$2, %edi
	movabsq	$.L.str.60, %rsi
	callq	u_v
	addl	-12(%rbp), %eax
	movl	%eax, -12(%rbp)
	movq	-24(%rbp), %rax
	movl	200(%rax), %esi
	movq	-32(%rbp), %rdx
	movabsq	$.L.str.61, %rdi
	callq	se_v
	addl	-12(%rbp), %eax
	movl	%eax, -12(%rbp)
	movq	-24(%rbp), %rax
	movl	204(%rax), %esi
	movq	-32(%rbp), %rdx
	movabsq	$.L.str.62, %rdi
	callq	se_v
	addl	-12(%rbp), %eax
	movl	%eax, -12(%rbp)
	callq	IdentifyProfile
	movl	%eax, -36(%rbp)
	cmpl	$100, -36(%rbp)
	je	.LBB24_44
# %bb.41:                               # %lor.lhs.false113
	cmpl	$110, -36(%rbp)
	je	.LBB24_44
# %bb.42:                               # %lor.lhs.false116
	cmpl	$122, -36(%rbp)
	je	.LBB24_44
# %bb.43:                               # %lor.lhs.false119
	cmpl	$144, -36(%rbp)
	jne	.LBB24_45
.LBB24_44:                              # %if.then122
	movq	-24(%rbp), %rax
	movl	212(%rax), %esi
	movq	-32(%rbp), %rdx
	movabsq	$.L.str.63, %rdi
	callq	se_v
	addl	-12(%rbp), %eax
	movl	%eax, -12(%rbp)
	jmp	.LBB24_46
.LBB24_45:                              # %if.else125
	movq	-24(%rbp), %rax
	movl	208(%rax), %esi
	movq	-32(%rbp), %rdx
	movabsq	$.L.str.63, %rdi
	callq	se_v
	addl	-12(%rbp), %eax
	movl	%eax, -12(%rbp)
.LBB24_46:                              # %if.end128
	movq	-24(%rbp), %rax
	movl	220(%rax), %esi
	movq	-32(%rbp), %rdx
	movabsq	$.L.str.64, %rdi
	callq	u_1
	addl	-12(%rbp), %eax
	movl	%eax, -12(%rbp)
	movq	-24(%rbp), %rax
	movl	224(%rax), %esi
	movq	-32(%rbp), %rdx
	movabsq	$.L.str.65, %rdi
	callq	u_1
	addl	-12(%rbp), %eax
	movl	%eax, -12(%rbp)
	movq	-24(%rbp), %rax
	movl	228(%rax), %esi
	movq	-32(%rbp), %rdx
	movabsq	$.L.str.66, %rdi
	callq	u_1
	addl	-12(%rbp), %eax
	movl	%eax, -12(%rbp)
	cmpl	$100, -36(%rbp)
	je	.LBB24_50
# %bb.47:                               # %lor.lhs.false137
	cmpl	$110, -36(%rbp)
	je	.LBB24_50
# %bb.48:                               # %lor.lhs.false140
	cmpl	$122, -36(%rbp)
	je	.LBB24_50
# %bb.49:                               # %lor.lhs.false143
	cmpl	$144, -36(%rbp)
	jne	.LBB24_62
.LBB24_50:                              # %if.then146
	movq	-24(%rbp), %rax
	movl	16(%rax), %esi
	movq	-32(%rbp), %rdx
	movabsq	$.L.str.67, %rdi
	callq	u_1
	addl	-12(%rbp), %eax
	movl	%eax, -12(%rbp)
	movq	-24(%rbp), %rax
	movl	20(%rax), %esi
	movq	-32(%rbp), %rdx
	movabsq	$.L.str.68, %rdi
	callq	u_1
	addl	-12(%rbp), %eax
	movl	%eax, -12(%rbp)
	movq	-24(%rbp), %rax
	cmpl	$0, 20(%rax)
	je	.LBB24_61
# %bb.51:                               # %if.then152
	movl	$0, -16(%rbp)
.LBB24_52:                              # %for.cond153
                                        # =>This Inner Loop Header: Depth=1
	movl	-16(%rbp), %eax
	movq	-24(%rbp), %rcx
	movl	16(%rcx), %ecx
	shll	$1, %ecx
	addl	$6, %ecx
	cmpl	%ecx, %eax
	jae	.LBB24_60
# %bb.53:                               # %for.body158
                                        #   in Loop: Header=BB24_52 Depth=1
	movq	-24(%rbp), %rax
	movl	-16(%rbp), %ecx
	movl	24(%rax,%rcx,4), %esi
	movq	-32(%rbp), %rdx
	movabsq	$.L.str.69, %rdi
	callq	u_1
	addl	-12(%rbp), %eax
	movl	%eax, -12(%rbp)
	movq	-24(%rbp), %rax
	movl	-16(%rbp), %ecx
	cmpl	$0, 24(%rax,%rcx,4)
	je	.LBB24_58
# %bb.54:                               # %if.then167
                                        #   in Loop: Header=BB24_52 Depth=1
	cmpl	$6, -16(%rbp)
	jae	.LBB24_56
# %bb.55:                               # %if.then170
                                        #   in Loop: Header=BB24_52 Depth=1
	movl	-16(%rbp), %eax
	shlq	$5, %rax
	movabsq	$ScalingList4x4input, %rdi
	addq	%rax, %rdi
	movl	-16(%rbp), %eax
	shlq	$5, %rax
	movabsq	$ScalingList4x4, %rsi
	addq	%rax, %rsi
	movl	-16(%rbp), %eax
	shlq	$1, %rax
	movabsq	$UseDefaultScalingMatrix4x4Flag, %rcx
	addq	%rax, %rcx
	movq	-32(%rbp), %r8
	movl	$16, %edx
	callq	Scaling_List
	addl	-12(%rbp), %eax
	movl	%eax, -12(%rbp)
	jmp	.LBB24_57
.LBB24_56:                              # %if.else180
                                        #   in Loop: Header=BB24_52 Depth=1
	movl	-16(%rbp), %eax
	subl	$6, %eax
	movl	%eax, %eax
	shlq	$7, %rax
	movabsq	$ScalingList8x8input, %rdi
	addq	%rax, %rdi
	movl	-16(%rbp), %eax
	subl	$6, %eax
	movl	%eax, %eax
	shlq	$7, %rax
	movabsq	$ScalingList8x8, %rsi
	addq	%rax, %rsi
	movl	-16(%rbp), %eax
	subl	$6, %eax
	movl	%eax, %eax
	shlq	$1, %rax
	movabsq	$UseDefaultScalingMatrix8x8Flag, %rcx
	addq	%rax, %rcx
	movq	-32(%rbp), %r8
	movl	$64, %edx
	callq	Scaling_List
	addl	-12(%rbp), %eax
	movl	%eax, -12(%rbp)
.LBB24_57:                              # %if.end193
                                        #   in Loop: Header=BB24_52 Depth=1
	jmp	.LBB24_58
.LBB24_58:                              # %if.end194
                                        #   in Loop: Header=BB24_52 Depth=1
	jmp	.LBB24_59
.LBB24_59:                              # %for.inc195
                                        #   in Loop: Header=BB24_52 Depth=1
	movl	-16(%rbp), %eax
	addl	$1, %eax
	movl	%eax, -16(%rbp)
	jmp	.LBB24_52
.LBB24_60:                              # %for.end197
	jmp	.LBB24_61
.LBB24_61:                              # %if.end198
	movq	-24(%rbp), %rax
	movl	216(%rax), %esi
	movq	-32(%rbp), %rdx
	movabsq	$.L.str.70, %rdi
	callq	se_v
	addl	-12(%rbp), %eax
	movl	%eax, -12(%rbp)
.LBB24_62:                              # %if.end201
	movq	-32(%rbp), %rax
	movq	(%rax), %rdi
	callq	SODBtoRBSP
	movq	-32(%rbp), %rax
	movq	(%rax), %rax
	movl	(%rax), %eax
	movl	%eax, -44(%rbp)
	movq	-32(%rbp), %rax
	movq	(%rax), %rdi
	callq	free
	movq	-32(%rbp), %rdi
	callq	free
	movl	-44(%rbp), %ebx
	cmpl	$1541744819, -48(%rbp)  # imm = 0x5BE528B3
	jne	.LBB24_64
.LBB24_63:
	movl	%ebx, %eax
	addq	$56, %rsp
	popq	%rbx
	popq	%rbp
	.cfi_def_cfa %rsp, 8
	retq
.LBB24_64:                              # %func_exit
	.cfi_def_cfa %rbp, 16
	callq	detect_breach
	jmp	.LBB24_63
.Lfunc_end24:
	.size	GeneratePic_parameter_set_rbsp.13, .Lfunc_end24-GeneratePic_parameter_set_rbsp.13
	.cfi_endproc
                                        # -- End function
	.globl	GenerateSeq_parameter_set_NALU.14 # -- Begin function GenerateSeq_parameter_set_NALU.14
	.p2align	4, 0x90
	.type	GenerateSeq_parameter_set_NALU.14,@function
GenerateSeq_parameter_set_NALU.14:      # @GenerateSeq_parameter_set_NALU.14
	.cfi_startproc
# %bb.0:                                # %entry
	pushq	%rbp
	.cfi_def_cfa_offset 16
	.cfi_offset %rbp, -16
	movq	%rsp, %rbp
	.cfi_def_cfa_register %rbp
	pushq	%rbx
	subq	$64040, %rsp            # imm = 0xFA28
	.cfi_offset %rbx, -24
	movl	$187226619, -28(%rbp)   # imm = 0xB28D9FB
	movl	$64000, %edi            # imm = 0xFA00
	movb	$0, %al
	callq	AllocNALU
	leaq	-64032(%rbp), %rsi
	movq	%rax, -24(%rbp)
	movl	$0, -12(%rbp)
	movq	active_sps, %rdi
	callq	GenerateSeq_parameter_set_rbsp
	leaq	-64032(%rbp), %rdi
	movl	%eax, -12(%rbp)
	movq	-24(%rbp), %rsi
	movl	-12(%rbp), %edx
	movl	$7, %ecx
	movl	$3, %r8d
	xorl	%r9d, %r9d
	movl	$1, (%rsp)
	callq	RBSPtoNALU
	movl	%eax, -32(%rbp)
	movq	-24(%rbp), %rax
	movl	$4, (%rax)
	movq	-24(%rbp), %rbx
	cmpl	$187226619, -28(%rbp)   # imm = 0xB28D9FB
	jne	.LBB25_2
.LBB25_1:
	movq	%rbx, %rax
	addq	$64040, %rsp            # imm = 0xFA28
	popq	%rbx
	popq	%rbp
	.cfi_def_cfa %rsp, 8
	retq
.LBB25_2:                               # %func_exit
	.cfi_def_cfa %rbp, 16
	callq	detect_breach
	jmp	.LBB25_1
.Lfunc_end25:
	.size	GenerateSeq_parameter_set_NALU.14, .Lfunc_end25-GenerateSeq_parameter_set_NALU.14
	.cfi_endproc
                                        # -- End function
	.globl	Scaling_List.15         # -- Begin function Scaling_List.15
	.p2align	4, 0x90
	.type	Scaling_List.15,@function
Scaling_List.15:                        # @Scaling_List.15
	.cfi_startproc
# %bb.0:                                # %entry
	pushq	%rbp
	.cfi_def_cfa_offset 16
	.cfi_offset %rbp, -16
	movq	%rsp, %rbp
	.cfi_def_cfa_register %rbp
	pushq	%rbx
	subq	$72, %rsp
	.cfi_offset %rbx, -24
	movl	$903590893, -40(%rbp)   # imm = 0x35DBB3ED
	movq	%rdi, -56(%rbp)
	movq	%rsi, -48(%rbp)
	movl	%edx, -36(%rbp)
	movq	%rcx, -64(%rbp)
	movq	%r8, -72(%rbp)
	movl	$0, -32(%rbp)
	movl	$8, -28(%rbp)
	movl	$8, -24(%rbp)
	movl	$0, -20(%rbp)
.LBB26_1:                               # %for.cond
                                        # =>This Inner Loop Header: Depth=1
	movl	-20(%rbp), %eax
	cmpl	-36(%rbp), %eax
	jge	.LBB26_19
# %bb.2:                                # %for.body
                                        #   in Loop: Header=BB26_1 Depth=1
	cmpl	$16, -36(%rbp)
	jne	.LBB26_4
# %bb.3:                                # %cond.true
                                        #   in Loop: Header=BB26_1 Depth=1
	movslq	-20(%rbp), %rax
	movzbl	ZZ_SCAN(,%rax), %eax
	jmp	.LBB26_5
.LBB26_4:                               # %cond.false
                                        #   in Loop: Header=BB26_1 Depth=1
	movslq	-20(%rbp), %rax
	movzbl	ZZ_SCAN8(,%rax), %eax
.LBB26_5:                               # %cond.end
                                        #   in Loop: Header=BB26_1 Depth=1
	movl	%eax, -16(%rbp)
	cmpl	$0, -24(%rbp)
	je	.LBB26_14
# %bb.6:                                # %if.then
                                        #   in Loop: Header=BB26_1 Depth=1
	movq	-56(%rbp), %rax
	movslq	-16(%rbp), %rcx
	movswl	(%rax,%rcx,2), %eax
	subl	-28(%rbp), %eax
	movl	%eax, -12(%rbp)
	cmpl	$127, -12(%rbp)
	jle	.LBB26_8
# %bb.7:                                # %if.then12
                                        #   in Loop: Header=BB26_1 Depth=1
	movl	-12(%rbp), %eax
	subl	$256, %eax              # imm = 0x100
	movl	%eax, -12(%rbp)
	jmp	.LBB26_11
.LBB26_8:                               # %if.else
                                        #   in Loop: Header=BB26_1 Depth=1
	cmpl	$-128, -12(%rbp)
	jge	.LBB26_10
# %bb.9:                                # %if.then16
                                        #   in Loop: Header=BB26_1 Depth=1
	movl	-12(%rbp), %eax
	addl	$256, %eax              # imm = 0x100
	movl	%eax, -12(%rbp)
.LBB26_10:                              # %if.end
                                        #   in Loop: Header=BB26_1 Depth=1
	jmp	.LBB26_11
.LBB26_11:                              # %if.end17
                                        #   in Loop: Header=BB26_1 Depth=1
	movl	-12(%rbp), %esi
	movq	-72(%rbp), %rdx
	movabsq	$.L.str.3, %rdi
	callq	se_v
	xorl	%ecx, %ecx
	addl	-32(%rbp), %eax
	movl	%eax, -32(%rbp)
	movq	-56(%rbp), %rax
	movslq	-16(%rbp), %rdx
	movswl	(%rax,%rdx,2), %eax
	movl	%eax, -24(%rbp)
	cmpl	$0, -16(%rbp)
	jne	.LBB26_13
# %bb.12:                               # %land.rhs
                                        #   in Loop: Header=BB26_1 Depth=1
	cmpl	$0, -24(%rbp)
	sete	%cl
.LBB26_13:                              # %land.end
                                        #   in Loop: Header=BB26_1 Depth=1
	andb	$1, %cl
	movzbl	%cl, %eax
	movq	-64(%rbp), %rcx
	movswl	(%rcx), %edx
	orl	%eax, %edx
	movw	%dx, (%rcx)
.LBB26_14:                              # %if.end28
                                        #   in Loop: Header=BB26_1 Depth=1
	cmpl	$0, -24(%rbp)
	jne	.LBB26_16
# %bb.15:                               # %cond.true31
                                        #   in Loop: Header=BB26_1 Depth=1
	movl	-28(%rbp), %eax
	jmp	.LBB26_17
.LBB26_16:                              # %cond.false32
                                        #   in Loop: Header=BB26_1 Depth=1
	movl	-24(%rbp), %eax
.LBB26_17:                              # %cond.end33
                                        #   in Loop: Header=BB26_1 Depth=1
	movq	-48(%rbp), %rcx
	movslq	-16(%rbp), %rdx
	movw	%ax, (%rcx,%rdx,2)
	movq	-48(%rbp), %rax
	movslq	-16(%rbp), %rcx
	movswl	(%rax,%rcx,2), %eax
	movl	%eax, -28(%rbp)
# %bb.18:                               # %for.inc
                                        #   in Loop: Header=BB26_1 Depth=1
	movl	-20(%rbp), %eax
	addl	$1, %eax
	movl	%eax, -20(%rbp)
	jmp	.LBB26_1
.LBB26_19:                              # %for.end
	movl	-32(%rbp), %ebx
	cmpl	$903590893, -40(%rbp)   # imm = 0x35DBB3ED
	jne	.LBB26_21
.LBB26_20:
	movl	%ebx, %eax
	addq	$72, %rsp
	popq	%rbx
	popq	%rbp
	.cfi_def_cfa %rsp, 8
	retq
.LBB26_21:                              # %func_exit
	.cfi_def_cfa %rbp, 16
	callq	detect_breach
	jmp	.LBB26_20
.Lfunc_end26:
	.size	Scaling_List.15, .Lfunc_end26-Scaling_List.15
	.cfi_endproc
                                        # -- End function
	.globl	Scaling_List.16         # -- Begin function Scaling_List.16
	.p2align	4, 0x90
	.type	Scaling_List.16,@function
Scaling_List.16:                        # @Scaling_List.16
	.cfi_startproc
# %bb.0:                                # %entry
	pushq	%rbp
	.cfi_def_cfa_offset 16
	.cfi_offset %rbp, -16
	movq	%rsp, %rbp
	.cfi_def_cfa_register %rbp
	pushq	%rbx
	subq	$72, %rsp
	.cfi_offset %rbx, -24
	movl	$1977196650, -40(%rbp)  # imm = 0x75D9A06A
	movq	%rdi, -48(%rbp)
	movq	%rsi, -56(%rbp)
	movl	%edx, -36(%rbp)
	movq	%rcx, -64(%rbp)
	movq	%r8, -72(%rbp)
	movl	$0, -32(%rbp)
	movl	$8, -28(%rbp)
	movl	$8, -16(%rbp)
	movl	$0, -20(%rbp)
.LBB27_1:                               # %for.cond
                                        # =>This Inner Loop Header: Depth=1
	movl	-20(%rbp), %eax
	cmpl	-36(%rbp), %eax
	jge	.LBB27_19
# %bb.2:                                # %for.body
                                        #   in Loop: Header=BB27_1 Depth=1
	cmpl	$16, -36(%rbp)
	jne	.LBB27_4
# %bb.3:                                # %cond.true
                                        #   in Loop: Header=BB27_1 Depth=1
	movslq	-20(%rbp), %rax
	movzbl	ZZ_SCAN(,%rax), %eax
	jmp	.LBB27_5
.LBB27_4:                               # %cond.false
                                        #   in Loop: Header=BB27_1 Depth=1
	movslq	-20(%rbp), %rax
	movzbl	ZZ_SCAN8(,%rax), %eax
.LBB27_5:                               # %cond.end
                                        #   in Loop: Header=BB27_1 Depth=1
	movl	%eax, -24(%rbp)
	cmpl	$0, -16(%rbp)
	je	.LBB27_14
# %bb.6:                                # %if.then
                                        #   in Loop: Header=BB27_1 Depth=1
	movq	-48(%rbp), %rax
	movslq	-24(%rbp), %rcx
	movswl	(%rax,%rcx,2), %eax
	subl	-28(%rbp), %eax
	movl	%eax, -12(%rbp)
	cmpl	$127, -12(%rbp)
	jle	.LBB27_8
# %bb.7:                                # %if.then12
                                        #   in Loop: Header=BB27_1 Depth=1
	movl	-12(%rbp), %eax
	subl	$256, %eax              # imm = 0x100
	movl	%eax, -12(%rbp)
	jmp	.LBB27_11
.LBB27_8:                               # %if.else
                                        #   in Loop: Header=BB27_1 Depth=1
	cmpl	$-128, -12(%rbp)
	jge	.LBB27_10
# %bb.9:                                # %if.then16
                                        #   in Loop: Header=BB27_1 Depth=1
	movl	-12(%rbp), %eax
	addl	$256, %eax              # imm = 0x100
	movl	%eax, -12(%rbp)
.LBB27_10:                              # %if.end
                                        #   in Loop: Header=BB27_1 Depth=1
	jmp	.LBB27_11
.LBB27_11:                              # %if.end17
                                        #   in Loop: Header=BB27_1 Depth=1
	movl	-12(%rbp), %esi
	movq	-72(%rbp), %rdx
	movabsq	$.L.str.3, %rdi
	callq	se_v
	xorl	%ecx, %ecx
	addl	-32(%rbp), %eax
	movl	%eax, -32(%rbp)
	movq	-48(%rbp), %rax
	movslq	-24(%rbp), %rdx
	movswl	(%rax,%rdx,2), %eax
	movl	%eax, -16(%rbp)
	cmpl	$0, -24(%rbp)
	jne	.LBB27_13
# %bb.12:                               # %land.rhs
                                        #   in Loop: Header=BB27_1 Depth=1
	cmpl	$0, -16(%rbp)
	sete	%cl
.LBB27_13:                              # %land.end
                                        #   in Loop: Header=BB27_1 Depth=1
	andb	$1, %cl
	movzbl	%cl, %eax
	movq	-64(%rbp), %rcx
	movswl	(%rcx), %edx
	orl	%eax, %edx
	movw	%dx, (%rcx)
.LBB27_14:                              # %if.end28
                                        #   in Loop: Header=BB27_1 Depth=1
	cmpl	$0, -16(%rbp)
	jne	.LBB27_16
# %bb.15:                               # %cond.true31
                                        #   in Loop: Header=BB27_1 Depth=1
	movl	-28(%rbp), %eax
	jmp	.LBB27_17
.LBB27_16:                              # %cond.false32
                                        #   in Loop: Header=BB27_1 Depth=1
	movl	-16(%rbp), %eax
.LBB27_17:                              # %cond.end33
                                        #   in Loop: Header=BB27_1 Depth=1
	movq	-56(%rbp), %rcx
	movslq	-24(%rbp), %rdx
	movw	%ax, (%rcx,%rdx,2)
	movq	-56(%rbp), %rax
	movslq	-24(%rbp), %rcx
	movswl	(%rax,%rcx,2), %eax
	movl	%eax, -28(%rbp)
# %bb.18:                               # %for.inc
                                        #   in Loop: Header=BB27_1 Depth=1
	movl	-20(%rbp), %eax
	addl	$1, %eax
	movl	%eax, -20(%rbp)
	jmp	.LBB27_1
.LBB27_19:                              # %for.end
	movl	-32(%rbp), %ebx
	cmpl	$1977196650, -40(%rbp)  # imm = 0x75D9A06A
	jne	.LBB27_21
.LBB27_20:
	movl	%ebx, %eax
	addq	$72, %rsp
	popq	%rbx
	popq	%rbp
	.cfi_def_cfa %rsp, 8
	retq
.LBB27_21:                              # %func_exit
	.cfi_def_cfa %rbp, 16
	callq	detect_breach
	jmp	.LBB27_20
.Lfunc_end27:
	.size	Scaling_List.16, .Lfunc_end27-Scaling_List.16
	.cfi_endproc
                                        # -- End function
	.globl	GeneratePic_parameter_set_NALU.17 # -- Begin function GeneratePic_parameter_set_NALU.17
	.p2align	4, 0x90
	.type	GeneratePic_parameter_set_NALU.17,@function
GeneratePic_parameter_set_NALU.17:      # @GeneratePic_parameter_set_NALU.17
	.cfi_startproc
# %bb.0:                                # %entry
	pushq	%rbp
	.cfi_def_cfa_offset 16
	.cfi_offset %rbp, -16
	movq	%rsp, %rbp
	.cfi_def_cfa_register %rbp
	pushq	%rbx
	subq	$64056, %rsp            # imm = 0xFA38
	.cfi_offset %rbx, -24
	movl	$1284866473, -32(%rbp)  # imm = 0x4C9581A9
	movl	%edi, -28(%rbp)
	movl	$64000, %edi            # imm = 0xFA00
	movb	$0, %al
	callq	AllocNALU
	leaq	-64048(%rbp), %rsi
	movq	%rax, -24(%rbp)
	movl	$0, -12(%rbp)
	movslq	-28(%rbp), %rax
	imulq	$240, %rax, %rax
	movabsq	$PicParSet, %rdi
	addq	%rax, %rdi
	callq	GeneratePic_parameter_set_rbsp
	leaq	-64048(%rbp), %rdi
	movl	%eax, -12(%rbp)
	movq	-24(%rbp), %rsi
	movl	-12(%rbp), %edx
	movl	$8, %ecx
	movl	$3, %r8d
	xorl	%r9d, %r9d
	movl	$1, (%rsp)
	callq	RBSPtoNALU
	movl	%eax, -36(%rbp)
	movq	-24(%rbp), %rax
	movl	$4, (%rax)
	movq	-24(%rbp), %rbx
	cmpl	$1284866473, -32(%rbp)  # imm = 0x4C9581A9
	jne	.LBB28_2
.LBB28_1:
	movq	%rbx, %rax
	addq	$64056, %rsp            # imm = 0xFA38
	popq	%rbx
	popq	%rbp
	.cfi_def_cfa %rsp, 8
	retq
.LBB28_2:                               # %func_exit
	.cfi_def_cfa %rbp, 16
	callq	detect_breach
	jmp	.LBB28_1
.Lfunc_end28:
	.size	GeneratePic_parameter_set_NALU.17, .Lfunc_end28-GeneratePic_parameter_set_NALU.17
	.cfi_endproc
                                        # -- End function
	.globl	GenerateSequenceParameterSet.18 # -- Begin function GenerateSequenceParameterSet.18
	.p2align	4, 0x90
	.type	GenerateSequenceParameterSet.18,@function
GenerateSequenceParameterSet.18:        # @GenerateSequenceParameterSet.18
	.cfi_startproc
# %bb.0:                                # %entry
	pushq	%rbp
	.cfi_def_cfa_offset 16
	.cfi_offset %rbp, -16
	movq	%rsp, %rbp
	.cfi_def_cfa_register %rbp
	subq	$96, %rsp
	movl	$1233139000, -40(%rbp)  # imm = 0x49803538
	movq	%rdi, -8(%rbp)
	movl	%esi, -84(%rbp)
	movq	.L__const.GenerateSequenceParameterSet.SubWidthC, %rax
	movq	%rax, -64(%rbp)
	movq	.L__const.GenerateSequenceParameterSet.SubWidthC+8, %rax
	movq	%rax, -56(%rbp)
	movq	.L__const.GenerateSequenceParameterSet.SubHeightC, %rax
	movq	%rax, -80(%rbp)
	movq	.L__const.GenerateSequenceParameterSet.SubHeightC+8, %rax
	movq	%rax, -72(%rbp)
	callq	IdentifyProfile
	cmpl	$100, %eax
	movb	$1, %al
	je	.LBB29_4
# %bb.1:                                # %lor.lhs.false
	callq	IdentifyProfile
	cmpl	$110, %eax
	movb	$1, %al
	je	.LBB29_4
# %bb.2:                                # %lor.lhs.false3
	callq	IdentifyProfile
	cmpl	$122, %eax
	movb	$1, %al
	je	.LBB29_4
# %bb.3:                                # %lor.rhs
	callq	IdentifyProfile
	cmpl	$144, %eax
	sete	%al
.LBB29_4:                               # %lor.end
	andb	$1, %al
	movzbl	%al, %eax
	movl	%eax, -20(%rbp)
	callq	IdentifyProfile
	movq	-8(%rbp), %rcx
	movl	%eax, 4(%rcx)
	callq	IdentifyLevel
	movq	-8(%rbp), %rcx
	movl	%eax, 24(%rcx)
	movq	-8(%rbp), %rax
	movl	$0, 8(%rax)
	movq	-8(%rbp), %rax
	movl	$0, 12(%rax)
	movq	-8(%rbp), %rax
	movl	$0, 16(%rax)
	movq	-8(%rbp), %rax
	movl	$0, 20(%rax)
	movq	-8(%rbp), %rax
	movl	$0, 28(%rax)
	movq	input, %rax
	movl	3296(%rax), %eax
	subl	$8, %eax
	movq	-8(%rbp), %rcx
	movl	%eax, 72(%rcx)
	movq	input, %rax
	movl	3300(%rax), %eax
	subl	$8, %eax
	movq	-8(%rbp), %rcx
	movl	%eax, 76(%rcx)
	movq	input, %rax
	movl	3324(%rax), %eax
	movq	-8(%rbp), %rcx
	cmpl	$144, 4(%rcx)
	sete	%cl
	andb	$1, %cl
	movzbl	%cl, %ecx
	andl	%ecx, %eax
	movq	img, %rcx
	movl	%eax, 72704(%rcx)
	movq	input, %rax
	movl	3328(%rax), %eax
	movq	img, %rcx
	movl	%eax, 72724(%rcx)
	movl	log2_max_frame_num_minus4, %eax
	movq	-8(%rbp), %rcx
	movl	%eax, 80(%rcx)
	movl	log2_max_pic_order_cnt_lsb_minus4, %eax
	movq	-8(%rbp), %rcx
	movl	%eax, 88(%rcx)
	movq	input, %rax
	movl	3208(%rax), %eax
	movq	-8(%rbp), %rcx
	movl	%eax, 84(%rcx)
	movq	img, %rax
	movl	72420(%rax), %eax
	movq	-8(%rbp), %rcx
	movl	%eax, 104(%rcx)
	movq	img, %rax
	movl	72408(%rax), %eax
	movq	-8(%rbp), %rcx
	movl	%eax, 92(%rcx)
	movq	img, %rax
	movl	72412(%rax), %eax
	movq	-8(%rbp), %rcx
	movl	%eax, 96(%rcx)
	movq	img, %rax
	movl	72416(%rax), %eax
	movq	-8(%rbp), %rcx
	movl	%eax, 100(%rcx)
	movl	$0, -12(%rbp)
.LBB29_5:                               # %for.cond
                                        # =>This Inner Loop Header: Depth=1
	movl	-12(%rbp), %eax
	movq	img, %rcx
	cmpl	72420(%rcx), %eax
	jae	.LBB29_8
# %bb.6:                                # %for.body
                                        #   in Loop: Header=BB29_5 Depth=1
	movq	img, %rax
	movl	-12(%rbp), %ecx
	movl	72424(%rax,%rcx,4), %eax
	movq	-8(%rbp), %rcx
	movl	-12(%rbp), %edx
	movl	%eax, 108(%rcx,%rdx,4)
# %bb.7:                                # %for.inc
                                        #   in Loop: Header=BB29_5 Depth=1
	movl	-12(%rbp), %eax
	addl	$1, %eax
	movl	%eax, -12(%rbp)
	jmp	.LBB29_5
.LBB29_8:                               # %for.end
	movq	input, %rax
	movl	36(%rax), %eax
	movq	-8(%rbp), %rcx
	movl	%eax, 1132(%rcx)
	movq	-8(%rbp), %rax
	movl	$0, 1136(%rax)
	movq	input, %rax
	cmpl	$0, 2880(%rax)
	movb	$1, %al
	jne	.LBB29_10
# %bb.9:                                # %lor.rhs26
	movq	input, %rax
	cmpl	$0, 2884(%rax)
	setne	%al
.LBB29_10:                              # %lor.end28
	xorl	%ecx, %ecx
	xorl	%esi, %esi
	xorb	$-1, %al
	andb	$1, %al
	movzbl	%al, %eax
	movq	-8(%rbp), %rdx
	movl	%eax, 1148(%rdx)
	movq	input, %rax
	movl	64(%rax), %eax
	movq	img, %rdx
	addl	72728(%rdx), %eax
	cltd
	movl	$16, %edi
	idivl	%edi
	subl	$1, %eax
	movq	-8(%rbp), %rdx
	movl	%eax, 1140(%rdx)
	movq	input, %rax
	movl	68(%rax), %eax
	movq	img, %rdx
	addl	72732(%rdx), %eax
	cltd
	idivl	%edi
	movq	-8(%rbp), %rdx
	movl	$2, %edi
	subl	1148(%rdx), %edi
	xorl	%edx, %edx
	divl	%edi
	subl	$1, %eax
	movq	-8(%rbp), %rdx
	movl	%eax, 1144(%rdx)
	movq	input, %rax
	cmpl	2884(%rax), %esi
	setne	%al
	andb	$1, %al
	movzbl	%al, %eax
	movq	-8(%rbp), %rdx
	movl	%eax, 1152(%rdx)
	movq	input, %rax
	movl	1252(%rax), %eax
	movq	-8(%rbp), %rdx
	movl	%eax, 1156(%rdx)
	movq	input, %rax
	cmpl	$0, 3312(%rax)
	je	.LBB29_12
# %bb.11:                               # %land.rhs
	movq	input, %rax
	cmpl	$3, 72(%rax)
	sete	%cl
.LBB29_12:                              # %land.end
	andb	$1, %cl
	movzbl	%cl, %eax
	movq	-8(%rbp), %rcx
	movl	%eax, 1180(%rcx)
	movq	input, %rax
	movl	72(%rax), %eax
	movq	-8(%rbp), %rcx
	movl	%eax, 32(%rcx)
	movq	-8(%rbp), %rax
	movl	1140(%rax), %eax
	addl	$1, %eax
	movl	%eax, -24(%rbp)
	movq	-8(%rbp), %rax
	movl	1144(%rax), %eax
	addl	$1, %eax
	movl	%eax, -36(%rbp)
	movq	-8(%rbp), %rax
	movl	$2, %ecx
	subl	1148(%rax), %ecx
	imull	-36(%rbp), %ecx
	movl	%ecx, -28(%rbp)
	movl	-24(%rbp), %eax
	shll	$4, %eax
	movl	%eax, -16(%rbp)
	movl	-28(%rbp), %eax
	shll	$4, %eax
	movl	%eax, -32(%rbp)
	movl	-16(%rbp), %edi
	movl	-32(%rbp), %esi
	movq	-8(%rbp), %rax
	movl	1152(%rax), %edx
	callq	alloc_colocated
	movq	%rax, Co_located
	cmpl	$0, -20(%rbp)
	je	.LBB29_24
# %bb.13:                               # %if.then
	movq	input, %rax
	movl	3256(%rax), %eax
	andl	$1, %eax
	movq	-8(%rbp), %rcx
	movl	%eax, 36(%rcx)
	movl	$0, -12(%rbp)
.LBB29_14:                              # %for.cond56
                                        # =>This Inner Loop Header: Depth=1
	cmpl	$8, -12(%rbp)
	jae	.LBB29_23
# %bb.15:                               # %for.body59
                                        #   in Loop: Header=BB29_14 Depth=1
	cmpl	$6, -12(%rbp)
	jae	.LBB29_17
# %bb.16:                               # %if.then62
                                        #   in Loop: Header=BB29_14 Depth=1
	movq	input, %rax
	movl	-12(%rbp), %ecx
	movl	3260(%rax,%rcx,4), %eax
	andl	$1, %eax
	movq	-8(%rbp), %rcx
	movl	-12(%rbp), %edx
	movl	%eax, 40(%rcx,%rdx,4)
	jmp	.LBB29_21
.LBB29_17:                              # %if.else
                                        #   in Loop: Header=BB29_14 Depth=1
	movq	input, %rax
	cmpl	$0, 3220(%rax)
	je	.LBB29_19
# %bb.18:                               # %if.then69
                                        #   in Loop: Header=BB29_14 Depth=1
	movq	input, %rax
	movl	-12(%rbp), %ecx
	movl	3260(%rax,%rcx,4), %eax
	andl	$1, %eax
	movq	-8(%rbp), %rcx
	movl	-12(%rbp), %edx
	movl	%eax, 40(%rcx,%rdx,4)
	jmp	.LBB29_20
.LBB29_19:                              # %if.else77
                                        #   in Loop: Header=BB29_14 Depth=1
	movq	-8(%rbp), %rax
	movl	-12(%rbp), %ecx
	movl	$0, 40(%rax,%rcx,4)
.LBB29_20:                              # %if.end
                                        #   in Loop: Header=BB29_14 Depth=1
	jmp	.LBB29_21
.LBB29_21:                              # %if.end81
                                        #   in Loop: Header=BB29_14 Depth=1
	jmp	.LBB29_22
.LBB29_22:                              # %for.inc82
                                        #   in Loop: Header=BB29_14 Depth=1
	movl	-12(%rbp), %eax
	addl	$1, %eax
	movl	%eax, -12(%rbp)
	jmp	.LBB29_14
.LBB29_23:                              # %for.end84
	jmp	.LBB29_29
.LBB29_24:                              # %if.else85
	movq	-8(%rbp), %rax
	movl	$0, 36(%rax)
	movl	$0, -12(%rbp)
.LBB29_25:                              # %for.cond87
                                        # =>This Inner Loop Header: Depth=1
	cmpl	$8, -12(%rbp)
	jae	.LBB29_28
# %bb.26:                               # %for.body90
                                        #   in Loop: Header=BB29_25 Depth=1
	movq	-8(%rbp), %rax
	movl	-12(%rbp), %ecx
	movl	$0, 40(%rax,%rcx,4)
# %bb.27:                               # %for.inc94
                                        #   in Loop: Header=BB29_25 Depth=1
	movl	-12(%rbp), %eax
	addl	$1, %eax
	movl	%eax, -12(%rbp)
	jmp	.LBB29_25
.LBB29_28:                              # %for.end96
	jmp	.LBB29_29
.LBB29_29:                              # %if.end97
	movq	img, %rax
	cmpl	$0, 72728(%rax)
	jne	.LBB29_31
# %bb.30:                               # %lor.lhs.false100
	movq	img, %rax
	cmpl	$0, 72732(%rax)
	je	.LBB29_36
.LBB29_31:                              # %if.then103
	movq	-8(%rbp), %rax
	movl	$1, 1160(%rax)
	movq	-8(%rbp), %rax
	movl	$0, 1164(%rax)
	movq	-8(%rbp), %rax
	movl	$0, 1172(%rax)
	movq	img, %rax
	movl	72728(%rax), %eax
	movq	-8(%rbp), %rcx
	movl	32(%rcx), %ecx
	cltd
	idivl	-64(%rbp,%rcx,4)
	movq	-8(%rbp), %rcx
	movl	%eax, 1168(%rcx)
	movq	img, %rax
	movl	72732(%rax), %eax
	movq	-8(%rbp), %rcx
	movl	32(%rcx), %ecx
	movl	-80(%rbp,%rcx,4), %ecx
	movq	-8(%rbp), %rdx
	movl	$2, %esi
	subl	1148(%rdx), %esi
	imull	%esi, %ecx
	xorl	%edx, %edx
	divl	%ecx
	movq	-8(%rbp), %rcx
	movl	%eax, 1176(%rcx)
	movq	img, %rax
	movl	72728(%rax), %eax
	movq	-8(%rbp), %rcx
	movl	32(%rcx), %ecx
	cltd
	idivl	-64(%rbp,%rcx,4)
	cmpl	$0, %edx
	je	.LBB29_33
# %bb.32:                               # %if.then122
	movabsq	$.L.str, %rdi
	movl	$500, %esi              # imm = 0x1F4
	callq	error
.LBB29_33:                              # %if.end123
	movq	img, %rax
	movl	72732(%rax), %eax
	movq	-8(%rbp), %rcx
	movl	32(%rcx), %ecx
	movl	-80(%rbp,%rcx,4), %ecx
	movq	-8(%rbp), %rdx
	movl	$2, %esi
	subl	1148(%rdx), %esi
	imull	%esi, %ecx
	xorl	%edx, %edx
	divl	%ecx
	cmpl	$0, %edx
	je	.LBB29_35
# %bb.34:                               # %if.then133
	movabsq	$.L.str.1, %rdi
	movl	$500, %esi              # imm = 0x1F4
	callq	error
.LBB29_35:                              # %if.end134
	jmp	.LBB29_37
.LBB29_36:                              # %if.else135
	movq	-8(%rbp), %rax
	movl	$0, 1160(%rax)
.LBB29_37:                              # %if.end137
	cmpl	$1233139000, -40(%rbp)  # imm = 0x49803538
	jne	.LBB29_39
.LBB29_38:
	addq	$96, %rsp
	popq	%rbp
	.cfi_def_cfa %rsp, 8
	retq
.LBB29_39:                              # %func_exit
	.cfi_def_cfa %rbp, 16
	callq	detect_breach
	jmp	.LBB29_38
.Lfunc_end29:
	.size	GenerateSequenceParameterSet.18, .Lfunc_end29-GenerateSequenceParameterSet.18
	.cfi_endproc
                                        # -- End function
	.globl	GeneratePic_parameter_set_NALU.19 # -- Begin function GeneratePic_parameter_set_NALU.19
	.p2align	4, 0x90
	.type	GeneratePic_parameter_set_NALU.19,@function
GeneratePic_parameter_set_NALU.19:      # @GeneratePic_parameter_set_NALU.19
	.cfi_startproc
# %bb.0:                                # %entry
	pushq	%rbp
	.cfi_def_cfa_offset 16
	.cfi_offset %rbp, -16
	movq	%rsp, %rbp
	.cfi_def_cfa_register %rbp
	pushq	%rbx
	subq	$64056, %rsp            # imm = 0xFA38
	.cfi_offset %rbx, -24
	movl	$1953079714, -32(%rbp)  # imm = 0x7469A1A2
	movl	%edi, -28(%rbp)
	movl	$64000, %edi            # imm = 0xFA00
	movb	$0, %al
	callq	AllocNALU
	leaq	-64048(%rbp), %rsi
	movq	%rax, -24(%rbp)
	movl	$0, -12(%rbp)
	movslq	-28(%rbp), %rax
	imulq	$240, %rax, %rax
	movabsq	$PicParSet, %rdi
	addq	%rax, %rdi
	callq	GeneratePic_parameter_set_rbsp
	leaq	-64048(%rbp), %rdi
	movl	%eax, -12(%rbp)
	movq	-24(%rbp), %rsi
	movl	-12(%rbp), %edx
	movl	$8, %ecx
	movl	$3, %r8d
	xorl	%r9d, %r9d
	movl	$1, (%rsp)
	callq	RBSPtoNALU
	movl	%eax, -36(%rbp)
	movq	-24(%rbp), %rax
	movl	$4, (%rax)
	movq	-24(%rbp), %rbx
	cmpl	$1953079714, -32(%rbp)  # imm = 0x7469A1A2
	jne	.LBB30_2
.LBB30_1:
	movq	%rbx, %rax
	addq	$64056, %rsp            # imm = 0xFA38
	popq	%rbx
	popq	%rbp
	.cfi_def_cfa %rsp, 8
	retq
.LBB30_2:                               # %func_exit
	.cfi_def_cfa %rbp, 16
	callq	detect_breach
	jmp	.LBB30_1
.Lfunc_end30:
	.size	GeneratePic_parameter_set_NALU.19, .Lfunc_end30-GeneratePic_parameter_set_NALU.19
	.cfi_endproc
                                        # -- End function
	.globl	GenerateSeq_parameter_set_NALU.20 # -- Begin function GenerateSeq_parameter_set_NALU.20
	.p2align	4, 0x90
	.type	GenerateSeq_parameter_set_NALU.20,@function
GenerateSeq_parameter_set_NALU.20:      # @GenerateSeq_parameter_set_NALU.20
	.cfi_startproc
# %bb.0:                                # %entry
	pushq	%rbp
	.cfi_def_cfa_offset 16
	.cfi_offset %rbp, -16
	movq	%rsp, %rbp
	.cfi_def_cfa_register %rbp
	pushq	%rbx
	subq	$64040, %rsp            # imm = 0xFA28
	.cfi_offset %rbx, -24
	movl	$579146260, -28(%rbp)   # imm = 0x22851214
	movl	$64000, %edi            # imm = 0xFA00
	movb	$0, %al
	callq	AllocNALU
	leaq	-64032(%rbp), %rsi
	movq	%rax, -24(%rbp)
	movl	$0, -12(%rbp)
	movq	active_sps, %rdi
	callq	GenerateSeq_parameter_set_rbsp
	leaq	-64032(%rbp), %rdi
	movl	%eax, -12(%rbp)
	movq	-24(%rbp), %rsi
	movl	-12(%rbp), %edx
	movl	$7, %ecx
	movl	$3, %r8d
	xorl	%r9d, %r9d
	movl	$1, (%rsp)
	callq	RBSPtoNALU
	movl	%eax, -32(%rbp)
	movq	-24(%rbp), %rax
	movl	$4, (%rax)
	movq	-24(%rbp), %rbx
	cmpl	$579146260, -28(%rbp)   # imm = 0x22851214
	jne	.LBB31_2
.LBB31_1:
	movq	%rbx, %rax
	addq	$64040, %rsp            # imm = 0xFA28
	popq	%rbx
	popq	%rbp
	.cfi_def_cfa %rsp, 8
	retq
.LBB31_2:                               # %func_exit
	.cfi_def_cfa %rbp, 16
	callq	detect_breach
	jmp	.LBB31_1
.Lfunc_end31:
	.size	GenerateSeq_parameter_set_NALU.20, .Lfunc_end31-GenerateSeq_parameter_set_NALU.20
	.cfi_endproc
                                        # -- End function
	.globl	GeneratePictureParameterSet.21 # -- Begin function GeneratePictureParameterSet.21
	.p2align	4, 0x90
	.type	GeneratePictureParameterSet.21,@function
GeneratePictureParameterSet.21:         # @GeneratePictureParameterSet.21
	.cfi_startproc
# %bb.0:                                # %entry
	pushq	%rbp
	.cfi_def_cfa_offset 16
	.cfi_offset %rbp, -16
	movq	%rsp, %rbp
	.cfi_def_cfa_register %rbp
	subq	$48, %rsp
	movl	16(%rbp), %eax
	movl	$1003209763, -40(%rbp)  # imm = 0x3BCBC423
	movq	%rdi, -16(%rbp)
	movq	%rsi, -24(%rbp)
	movl	%edx, -44(%rbp)
	movl	%ecx, -36(%rbp)
	movl	%r8d, -48(%rbp)
	movl	%r9d, -32(%rbp)
	callq	IdentifyProfile
	cmpl	$100, %eax
	movb	$1, %al
	je	.LBB32_4
# %bb.1:                                # %lor.lhs.false
	callq	IdentifyProfile
	cmpl	$110, %eax
	movb	$1, %al
	je	.LBB32_4
# %bb.2:                                # %lor.lhs.false3
	callq	IdentifyProfile
	cmpl	$122, %eax
	movb	$1, %al
	je	.LBB32_4
# %bb.3:                                # %lor.rhs
	callq	IdentifyProfile
	cmpl	$144, %eax
	sete	%al
.LBB32_4:                               # %lor.end
	xorl	%ecx, %ecx
	andb	$1, %al
	movzbl	%al, %eax
	movl	%eax, -28(%rbp)
	movq	-24(%rbp), %rax
	movl	28(%rax), %eax
	movq	-16(%rbp), %rdx
	movl	%eax, 8(%rdx)
	movl	-44(%rbp), %eax
	movq	-16(%rbp), %rdx
	movl	%eax, 4(%rdx)
	movq	input, %rax
	movl	2356(%rax), %eax
	cmpl	$0, %eax
	movl	$1, %eax
	cmovel	%ecx, %eax
	movq	-16(%rbp), %rcx
	movl	%eax, 12(%rcx)
	cmpl	$0, -28(%rbp)
	je	.LBB32_16
# %bb.5:                                # %if.then
	xorl	%eax, %eax
	movq	input, %rcx
	movl	3220(%rcx), %ecx
	cmpl	$0, %ecx
	movl	$1, %ecx
	cmovnel	%ecx, %eax
	movq	-16(%rbp), %rcx
	movl	%eax, 16(%rcx)
	movq	input, %rax
	movl	3256(%rax), %eax
	andl	$2, %eax
	sarl	$1, %eax
	movq	-16(%rbp), %rcx
	movl	%eax, 20(%rcx)
	movl	$0, -4(%rbp)
.LBB32_6:                               # %for.cond
                                        # =>This Inner Loop Header: Depth=1
	cmpl	$8, -4(%rbp)
	jae	.LBB32_15
# %bb.7:                                # %for.body
                                        #   in Loop: Header=BB32_6 Depth=1
	cmpl	$6, -4(%rbp)
	jae	.LBB32_9
# %bb.8:                                # %if.then14
                                        #   in Loop: Header=BB32_6 Depth=1
	movq	input, %rax
	movl	-4(%rbp), %ecx
	movl	3260(%rax,%rcx,4), %eax
	andl	$2, %eax
	sarl	$1, %eax
	movq	-16(%rbp), %rcx
	movl	-4(%rbp), %edx
	movl	%eax, 24(%rcx,%rdx,4)
	jmp	.LBB32_13
.LBB32_9:                               # %if.else
                                        #   in Loop: Header=BB32_6 Depth=1
	movq	-16(%rbp), %rax
	cmpl	$0, 16(%rax)
	je	.LBB32_11
# %bb.10:                               # %if.then21
                                        #   in Loop: Header=BB32_6 Depth=1
	movq	input, %rax
	movl	-4(%rbp), %ecx
	movl	3260(%rax,%rcx,4), %eax
	andl	$2, %eax
	sarl	$1, %eax
	movq	-16(%rbp), %rcx
	movl	-4(%rbp), %edx
	movl	%eax, 24(%rcx,%rdx,4)
	jmp	.LBB32_12
.LBB32_11:                              # %if.else30
                                        #   in Loop: Header=BB32_6 Depth=1
	movq	-16(%rbp), %rax
	movl	-4(%rbp), %ecx
	movl	$0, 24(%rax,%rcx,4)
.LBB32_12:                              # %if.end
                                        #   in Loop: Header=BB32_6 Depth=1
	jmp	.LBB32_13
.LBB32_13:                              # %if.end34
                                        #   in Loop: Header=BB32_6 Depth=1
	jmp	.LBB32_14
.LBB32_14:                              # %for.inc
                                        #   in Loop: Header=BB32_6 Depth=1
	movl	-4(%rbp), %eax
	addl	$1, %eax
	movl	%eax, -4(%rbp)
	jmp	.LBB32_6
.LBB32_15:                              # %for.end
	jmp	.LBB32_21
.LBB32_16:                              # %if.else35
	movq	-16(%rbp), %rax
	movl	$0, 20(%rax)
	movl	$0, -4(%rbp)
.LBB32_17:                              # %for.cond37
                                        # =>This Inner Loop Header: Depth=1
	cmpl	$8, -4(%rbp)
	jae	.LBB32_20
# %bb.18:                               # %for.body39
                                        #   in Loop: Header=BB32_17 Depth=1
	movq	-16(%rbp), %rax
	movl	-4(%rbp), %ecx
	movl	$0, 24(%rax,%rcx,4)
# %bb.19:                               # %for.inc43
                                        #   in Loop: Header=BB32_17 Depth=1
	movl	-4(%rbp), %eax
	addl	$1, %eax
	movl	%eax, -4(%rbp)
	jmp	.LBB32_17
.LBB32_20:                              # %for.end45
	movq	input, %rax
	movl	$0, 3220(%rax)
	movq	-16(%rbp), %rax
	movl	$0, 16(%rax)
.LBB32_21:                              # %if.end48
	movq	img, %rax
	movl	72492(%rax), %eax
	movq	-16(%rbp), %rcx
	movl	%eax, 56(%rcx)
	movq	input, %rax
	movl	3152(%rax), %eax
	movq	-16(%rbp), %rcx
	movl	%eax, 60(%rcx)
	movq	-16(%rbp), %rax
	cmpl	$0, 60(%rax)
	jbe	.LBB32_43
# %bb.22:                               # %if.then53
	movq	input(%rip), %rax
	movl	3156(%rax), %eax
	movq	%rax, %rcx
	subq	$6, %rcx
	ja	.LBB32_41
# %bb.23:                               # %if.then53
	movq	.LJTI32_0(,%rax,8), %rax
	jmpq	*%rax
.LBB32_24:                              # %sw.bb
	movq	-16(%rbp), %rax
	movl	$0, 64(%rax)
	movl	$0, -4(%rbp)
.LBB32_25:                              # %for.cond55
                                        # =>This Inner Loop Header: Depth=1
	movl	-4(%rbp), %eax
	movq	-16(%rbp), %rcx
	cmpl	60(%rcx), %eax
	ja	.LBB32_28
# %bb.26:                               # %for.body58
                                        #   in Loop: Header=BB32_25 Depth=1
	movq	input, %rax
	movq	3184(%rax), %rax
	movl	-4(%rbp), %ecx
	movl	(%rax,%rcx,4), %eax
	movq	-16(%rbp), %rcx
	movl	-4(%rbp), %edx
	movl	%eax, 68(%rcx,%rdx,4)
# %bb.27:                               # %for.inc64
                                        #   in Loop: Header=BB32_25 Depth=1
	movl	-4(%rbp), %eax
	addl	$1, %eax
	movl	%eax, -4(%rbp)
	jmp	.LBB32_25
.LBB32_28:                              # %for.end66
	jmp	.LBB32_42
.LBB32_29:                              # %sw.bb67
	movq	-16(%rbp), %rax
	movl	$1, 64(%rax)
	jmp	.LBB32_42
.LBB32_30:                              # %sw.bb69
	movq	-16(%rbp), %rax
	movl	$2, 64(%rax)
	movl	$0, -4(%rbp)
.LBB32_31:                              # %for.cond71
                                        # =>This Inner Loop Header: Depth=1
	movl	-4(%rbp), %eax
	movq	-16(%rbp), %rcx
	cmpl	60(%rcx), %eax
	jae	.LBB32_34
# %bb.32:                               # %for.body74
                                        #   in Loop: Header=BB32_31 Depth=1
	movq	input, %rax
	movq	3160(%rax), %rax
	movl	-4(%rbp), %ecx
	movl	(%rax,%rcx,4), %eax
	movq	-16(%rbp), %rcx
	movl	-4(%rbp), %edx
	movl	%eax, 100(%rcx,%rdx,4)
	movq	input, %rax
	movq	3168(%rax), %rax
	movl	-4(%rbp), %ecx
	movl	(%rax,%rcx,4), %eax
	movq	-16(%rbp), %rcx
	movl	-4(%rbp), %edx
	movl	%eax, 132(%rcx,%rdx,4)
# %bb.33:                               # %for.inc85
                                        #   in Loop: Header=BB32_31 Depth=1
	movl	-4(%rbp), %eax
	addl	$1, %eax
	movl	%eax, -4(%rbp)
	jmp	.LBB32_31
.LBB32_34:                              # %for.end87
	jmp	.LBB32_42
.LBB32_35:                              # %sw.bb88
	movq	input, %rax
	movl	3156(%rax), %eax
	movq	-16(%rbp), %rcx
	movl	%eax, 64(%rcx)
	movq	input, %rax
	movl	3192(%rax), %eax
	movq	-16(%rbp), %rcx
	movl	%eax, 164(%rcx)
	movq	input, %rax
	movl	3196(%rax), %eax
	movq	-16(%rbp), %rcx
	movl	%eax, 168(%rcx)
	jmp	.LBB32_42
.LBB32_36:                              # %sw.bb93
	movq	-16(%rbp), %rax
	movl	$6, 64(%rax)
	movq	input, %rax
	movl	68(%rax), %eax
	movq	img, %rcx
	addl	72732(%rcx), %eax
	cltd
	movl	$16, %esi
	idivl	%esi
	movq	-24(%rbp), %rcx
	movl	$2, %edi
	subl	1148(%rcx), %edi
	xorl	%edx, %edx
	divl	%edi
	movl	%eax, %ecx
	movq	input, %rax
	movl	64(%rax), %eax
	movq	img, %rdx
	addl	72728(%rdx), %eax
	cltd
	idivl	%esi
	imull	%eax, %ecx
	subl	$1, %ecx
	movq	-16(%rbp), %rax
	movl	%ecx, 172(%rax)
	movl	$0, -4(%rbp)
.LBB32_37:                              # %for.cond99
                                        # =>This Inner Loop Header: Depth=1
	movl	-4(%rbp), %eax
	movq	-16(%rbp), %rcx
	cmpl	172(%rcx), %eax
	ja	.LBB32_40
# %bb.38:                               # %for.body102
                                        #   in Loop: Header=BB32_37 Depth=1
	movq	input, %rax
	movq	3176(%rax), %rax
	movl	-4(%rbp), %ecx
	movb	(%rax,%rcx), %al
	movq	-16(%rbp), %rcx
	movq	176(%rcx), %rcx
	movl	-4(%rbp), %edx
	movb	%al, (%rcx,%rdx)
# %bb.39:                               # %for.inc108
                                        #   in Loop: Header=BB32_37 Depth=1
	movl	-4(%rbp), %eax
	addl	$1, %eax
	movl	%eax, -4(%rbp)
	jmp	.LBB32_37
.LBB32_40:                              # %for.end110
	jmp	.LBB32_42
.LBB32_41:                              # %sw.default
	movabsq	$.L.str.2, %rdi
	movb	$0, %al
	callq	printf
.LBB32_42:                              # %sw.epilog
	jmp	.LBB32_43
.LBB32_43:                              # %if.end112
	movq	-24(%rbp), %rax
	cmpl	$0, 1148(%rax)
	je	.LBB32_45
# %bb.44:                               # %cond.true
	movq	-24(%rbp), %rax
	movl	1132(%rax), %eax
	subl	$1, %eax
	jmp	.LBB32_46
.LBB32_45:                              # %cond.false
	movq	-24(%rbp), %rax
	movl	1132(%rax), %eax
	shll	$1, %eax
	subl	$1, %eax
.LBB32_46:                              # %cond.end
	movq	-16(%rbp), %rcx
	movl	%eax, 184(%rcx)
	movq	-24(%rbp), %rax
	cmpl	$0, 1148(%rax)
	je	.LBB32_48
# %bb.47:                               # %cond.true122
	movq	-24(%rbp), %rax
	movl	1132(%rax), %eax
	subl	$1, %eax
	jmp	.LBB32_49
.LBB32_48:                              # %cond.false125
	movq	-24(%rbp), %rax
	movl	1132(%rax), %eax
	shll	$1, %eax
	subl	$1, %eax
.LBB32_49:                              # %cond.end129
	movq	-16(%rbp), %rcx
	movl	%eax, 188(%rcx)
	movl	-36(%rbp), %eax
	movq	-16(%rbp), %rcx
	movl	%eax, 192(%rcx)
	movl	-48(%rbp), %eax
	movq	-16(%rbp), %rcx
	movl	%eax, 196(%rcx)
	movq	-16(%rbp), %rax
	movl	$0, 200(%rax)
	movq	-16(%rbp), %rax
	movl	$0, 204(%rax)
	movl	-32(%rbp), %eax
	movq	-16(%rbp), %rcx
	movl	%eax, 208(%rcx)
	cmpl	$0, -28(%rbp)
	je	.LBB32_51
# %bb.50:                               # %if.then132
	movl	-32(%rbp), %eax
	movq	-16(%rbp), %rcx
	movl	%eax, 212(%rcx)
	movl	16(%rbp), %eax
	movq	-16(%rbp), %rcx
	movl	%eax, 216(%rcx)
	jmp	.LBB32_52
.LBB32_51:                              # %if.else135
	movq	-16(%rbp), %rax
	movl	208(%rax), %eax
	movq	-16(%rbp), %rcx
	movl	%eax, 216(%rcx)
	movq	-16(%rbp), %rcx
	movl	%eax, 212(%rcx)
.LBB32_52:                              # %if.end139
	movq	input, %rax
	movl	2924(%rax), %eax
	movq	-16(%rbp), %rcx
	movl	%eax, 220(%rcx)
	movq	input, %rax
	movl	216(%rax), %eax
	movq	-16(%rbp), %rcx
	movl	%eax, 224(%rcx)
	movq	-16(%rbp), %rax
	movl	$0, 228(%rax)
	cmpl	$1003209763, -40(%rbp)  # imm = 0x3BCBC423
	jne	.LBB32_54
.LBB32_53:
	addq	$48, %rsp
	popq	%rbp
	.cfi_def_cfa %rsp, 8
	retq
.LBB32_54:                              # %func_exit
	.cfi_def_cfa %rbp, 16
	callq	detect_breach
	jmp	.LBB32_53
.Lfunc_end32:
	.size	GeneratePictureParameterSet.21, .Lfunc_end32-GeneratePictureParameterSet.21
	.cfi_endproc
	.section	.rodata,"a",@progbits
	.p2align	3
.LJTI32_0:
	.quad	.LBB32_24
	.quad	.LBB32_29
	.quad	.LBB32_30
	.quad	.LBB32_35
	.quad	.LBB32_35
	.quad	.LBB32_35
	.quad	.LBB32_36
                                        # -- End function
	.text
	.globl	GenerateSequenceParameterSet.22 # -- Begin function GenerateSequenceParameterSet.22
	.p2align	4, 0x90
	.type	GenerateSequenceParameterSet.22,@function
GenerateSequenceParameterSet.22:        # @GenerateSequenceParameterSet.22
	.cfi_startproc
# %bb.0:                                # %entry
	pushq	%rbp
	.cfi_def_cfa_offset 16
	.cfi_offset %rbp, -16
	movq	%rsp, %rbp
	.cfi_def_cfa_register %rbp
	subq	$96, %rsp
	movl	$870545814, -16(%rbp)   # imm = 0x33E37996
	movq	%rdi, -8(%rbp)
	movl	%esi, -84(%rbp)
	movq	.L__const.GenerateSequenceParameterSet.SubWidthC, %rax
	movq	%rax, -64(%rbp)
	movq	.L__const.GenerateSequenceParameterSet.SubWidthC+8, %rax
	movq	%rax, -56(%rbp)
	movq	.L__const.GenerateSequenceParameterSet.SubHeightC, %rax
	movq	%rax, -80(%rbp)
	movq	.L__const.GenerateSequenceParameterSet.SubHeightC+8, %rax
	movq	%rax, -72(%rbp)
	callq	IdentifyProfile
	cmpl	$100, %eax
	movb	$1, %al
	je	.LBB33_4
# %bb.1:                                # %lor.lhs.false
	callq	IdentifyProfile
	cmpl	$110, %eax
	movb	$1, %al
	je	.LBB33_4
# %bb.2:                                # %lor.lhs.false3
	callq	IdentifyProfile
	cmpl	$122, %eax
	movb	$1, %al
	je	.LBB33_4
# %bb.3:                                # %lor.rhs
	callq	IdentifyProfile
	cmpl	$144, %eax
	sete	%al
.LBB33_4:                               # %lor.end
	andb	$1, %al
	movzbl	%al, %eax
	movl	%eax, -20(%rbp)
	callq	IdentifyProfile
	movq	-8(%rbp), %rcx
	movl	%eax, 4(%rcx)
	callq	IdentifyLevel
	movq	-8(%rbp), %rcx
	movl	%eax, 24(%rcx)
	movq	-8(%rbp), %rax
	movl	$0, 8(%rax)
	movq	-8(%rbp), %rax
	movl	$0, 12(%rax)
	movq	-8(%rbp), %rax
	movl	$0, 16(%rax)
	movq	-8(%rbp), %rax
	movl	$0, 20(%rax)
	movq	-8(%rbp), %rax
	movl	$0, 28(%rax)
	movq	input, %rax
	movl	3296(%rax), %eax
	subl	$8, %eax
	movq	-8(%rbp), %rcx
	movl	%eax, 72(%rcx)
	movq	input, %rax
	movl	3300(%rax), %eax
	subl	$8, %eax
	movq	-8(%rbp), %rcx
	movl	%eax, 76(%rcx)
	movq	input, %rax
	movl	3324(%rax), %eax
	movq	-8(%rbp), %rcx
	cmpl	$144, 4(%rcx)
	sete	%cl
	andb	$1, %cl
	movzbl	%cl, %ecx
	andl	%ecx, %eax
	movq	img, %rcx
	movl	%eax, 72704(%rcx)
	movq	input, %rax
	movl	3328(%rax), %eax
	movq	img, %rcx
	movl	%eax, 72724(%rcx)
	movl	log2_max_frame_num_minus4, %eax
	movq	-8(%rbp), %rcx
	movl	%eax, 80(%rcx)
	movl	log2_max_pic_order_cnt_lsb_minus4, %eax
	movq	-8(%rbp), %rcx
	movl	%eax, 88(%rcx)
	movq	input, %rax
	movl	3208(%rax), %eax
	movq	-8(%rbp), %rcx
	movl	%eax, 84(%rcx)
	movq	img, %rax
	movl	72420(%rax), %eax
	movq	-8(%rbp), %rcx
	movl	%eax, 104(%rcx)
	movq	img, %rax
	movl	72408(%rax), %eax
	movq	-8(%rbp), %rcx
	movl	%eax, 92(%rcx)
	movq	img, %rax
	movl	72412(%rax), %eax
	movq	-8(%rbp), %rcx
	movl	%eax, 96(%rcx)
	movq	img, %rax
	movl	72416(%rax), %eax
	movq	-8(%rbp), %rcx
	movl	%eax, 100(%rcx)
	movl	$0, -12(%rbp)
.LBB33_5:                               # %for.cond
                                        # =>This Inner Loop Header: Depth=1
	movl	-12(%rbp), %eax
	movq	img, %rcx
	cmpl	72420(%rcx), %eax
	jae	.LBB33_8
# %bb.6:                                # %for.body
                                        #   in Loop: Header=BB33_5 Depth=1
	movq	img, %rax
	movl	-12(%rbp), %ecx
	movl	72424(%rax,%rcx,4), %eax
	movq	-8(%rbp), %rcx
	movl	-12(%rbp), %edx
	movl	%eax, 108(%rcx,%rdx,4)
# %bb.7:                                # %for.inc
                                        #   in Loop: Header=BB33_5 Depth=1
	movl	-12(%rbp), %eax
	addl	$1, %eax
	movl	%eax, -12(%rbp)
	jmp	.LBB33_5
.LBB33_8:                               # %for.end
	movq	input, %rax
	movl	36(%rax), %eax
	movq	-8(%rbp), %rcx
	movl	%eax, 1132(%rcx)
	movq	-8(%rbp), %rax
	movl	$0, 1136(%rax)
	movq	input, %rax
	cmpl	$0, 2880(%rax)
	movb	$1, %al
	jne	.LBB33_10
# %bb.9:                                # %lor.rhs26
	movq	input, %rax
	cmpl	$0, 2884(%rax)
	setne	%al
.LBB33_10:                              # %lor.end28
	xorl	%ecx, %ecx
	xorl	%esi, %esi
	xorb	$-1, %al
	andb	$1, %al
	movzbl	%al, %eax
	movq	-8(%rbp), %rdx
	movl	%eax, 1148(%rdx)
	movq	input, %rax
	movl	64(%rax), %eax
	movq	img, %rdx
	addl	72728(%rdx), %eax
	cltd
	movl	$16, %edi
	idivl	%edi
	subl	$1, %eax
	movq	-8(%rbp), %rdx
	movl	%eax, 1140(%rdx)
	movq	input, %rax
	movl	68(%rax), %eax
	movq	img, %rdx
	addl	72732(%rdx), %eax
	cltd
	idivl	%edi
	movq	-8(%rbp), %rdx
	movl	$2, %edi
	subl	1148(%rdx), %edi
	xorl	%edx, %edx
	divl	%edi
	subl	$1, %eax
	movq	-8(%rbp), %rdx
	movl	%eax, 1144(%rdx)
	movq	input, %rax
	cmpl	2884(%rax), %esi
	setne	%al
	andb	$1, %al
	movzbl	%al, %eax
	movq	-8(%rbp), %rdx
	movl	%eax, 1152(%rdx)
	movq	input, %rax
	movl	1252(%rax), %eax
	movq	-8(%rbp), %rdx
	movl	%eax, 1156(%rdx)
	movq	input, %rax
	cmpl	$0, 3312(%rax)
	je	.LBB33_12
# %bb.11:                               # %land.rhs
	movq	input, %rax
	cmpl	$3, 72(%rax)
	sete	%cl
.LBB33_12:                              # %land.end
	andb	$1, %cl
	movzbl	%cl, %eax
	movq	-8(%rbp), %rcx
	movl	%eax, 1180(%rcx)
	movq	input, %rax
	movl	72(%rax), %eax
	movq	-8(%rbp), %rcx
	movl	%eax, 32(%rcx)
	movq	-8(%rbp), %rax
	movl	1140(%rax), %eax
	addl	$1, %eax
	movl	%eax, -36(%rbp)
	movq	-8(%rbp), %rax
	movl	1144(%rax), %eax
	addl	$1, %eax
	movl	%eax, -32(%rbp)
	movq	-8(%rbp), %rax
	movl	$2, %ecx
	subl	1148(%rax), %ecx
	imull	-32(%rbp), %ecx
	movl	%ecx, -40(%rbp)
	movl	-36(%rbp), %eax
	shll	$4, %eax
	movl	%eax, -24(%rbp)
	movl	-40(%rbp), %eax
	shll	$4, %eax
	movl	%eax, -28(%rbp)
	movl	-24(%rbp), %edi
	movl	-28(%rbp), %esi
	movq	-8(%rbp), %rax
	movl	1152(%rax), %edx
	callq	alloc_colocated
	movq	%rax, Co_located
	cmpl	$0, -20(%rbp)
	je	.LBB33_24
# %bb.13:                               # %if.then
	movq	input, %rax
	movl	3256(%rax), %eax
	andl	$1, %eax
	movq	-8(%rbp), %rcx
	movl	%eax, 36(%rcx)
	movl	$0, -12(%rbp)
.LBB33_14:                              # %for.cond56
                                        # =>This Inner Loop Header: Depth=1
	cmpl	$8, -12(%rbp)
	jae	.LBB33_23
# %bb.15:                               # %for.body59
                                        #   in Loop: Header=BB33_14 Depth=1
	cmpl	$6, -12(%rbp)
	jae	.LBB33_17
# %bb.16:                               # %if.then62
                                        #   in Loop: Header=BB33_14 Depth=1
	movq	input, %rax
	movl	-12(%rbp), %ecx
	movl	3260(%rax,%rcx,4), %eax
	andl	$1, %eax
	movq	-8(%rbp), %rcx
	movl	-12(%rbp), %edx
	movl	%eax, 40(%rcx,%rdx,4)
	jmp	.LBB33_21
.LBB33_17:                              # %if.else
                                        #   in Loop: Header=BB33_14 Depth=1
	movq	input, %rax
	cmpl	$0, 3220(%rax)
	je	.LBB33_19
# %bb.18:                               # %if.then69
                                        #   in Loop: Header=BB33_14 Depth=1
	movq	input, %rax
	movl	-12(%rbp), %ecx
	movl	3260(%rax,%rcx,4), %eax
	andl	$1, %eax
	movq	-8(%rbp), %rcx
	movl	-12(%rbp), %edx
	movl	%eax, 40(%rcx,%rdx,4)
	jmp	.LBB33_20
.LBB33_19:                              # %if.else77
                                        #   in Loop: Header=BB33_14 Depth=1
	movq	-8(%rbp), %rax
	movl	-12(%rbp), %ecx
	movl	$0, 40(%rax,%rcx,4)
.LBB33_20:                              # %if.end
                                        #   in Loop: Header=BB33_14 Depth=1
	jmp	.LBB33_21
.LBB33_21:                              # %if.end81
                                        #   in Loop: Header=BB33_14 Depth=1
	jmp	.LBB33_22
.LBB33_22:                              # %for.inc82
                                        #   in Loop: Header=BB33_14 Depth=1
	movl	-12(%rbp), %eax
	addl	$1, %eax
	movl	%eax, -12(%rbp)
	jmp	.LBB33_14
.LBB33_23:                              # %for.end84
	jmp	.LBB33_29
.LBB33_24:                              # %if.else85
	movq	-8(%rbp), %rax
	movl	$0, 36(%rax)
	movl	$0, -12(%rbp)
.LBB33_25:                              # %for.cond87
                                        # =>This Inner Loop Header: Depth=1
	cmpl	$8, -12(%rbp)
	jae	.LBB33_28
# %bb.26:                               # %for.body90
                                        #   in Loop: Header=BB33_25 Depth=1
	movq	-8(%rbp), %rax
	movl	-12(%rbp), %ecx
	movl	$0, 40(%rax,%rcx,4)
# %bb.27:                               # %for.inc94
                                        #   in Loop: Header=BB33_25 Depth=1
	movl	-12(%rbp), %eax
	addl	$1, %eax
	movl	%eax, -12(%rbp)
	jmp	.LBB33_25
.LBB33_28:                              # %for.end96
	jmp	.LBB33_29
.LBB33_29:                              # %if.end97
	movq	img, %rax
	cmpl	$0, 72728(%rax)
	jne	.LBB33_31
# %bb.30:                               # %lor.lhs.false100
	movq	img, %rax
	cmpl	$0, 72732(%rax)
	je	.LBB33_36
.LBB33_31:                              # %if.then103
	movq	-8(%rbp), %rax
	movl	$1, 1160(%rax)
	movq	-8(%rbp), %rax
	movl	$0, 1164(%rax)
	movq	-8(%rbp), %rax
	movl	$0, 1172(%rax)
	movq	img, %rax
	movl	72728(%rax), %eax
	movq	-8(%rbp), %rcx
	movl	32(%rcx), %ecx
	cltd
	idivl	-64(%rbp,%rcx,4)
	movq	-8(%rbp), %rcx
	movl	%eax, 1168(%rcx)
	movq	img, %rax
	movl	72732(%rax), %eax
	movq	-8(%rbp), %rcx
	movl	32(%rcx), %ecx
	movl	-80(%rbp,%rcx,4), %ecx
	movq	-8(%rbp), %rdx
	movl	$2, %esi
	subl	1148(%rdx), %esi
	imull	%esi, %ecx
	xorl	%edx, %edx
	divl	%ecx
	movq	-8(%rbp), %rcx
	movl	%eax, 1176(%rcx)
	movq	img, %rax
	movl	72728(%rax), %eax
	movq	-8(%rbp), %rcx
	movl	32(%rcx), %ecx
	cltd
	idivl	-64(%rbp,%rcx,4)
	cmpl	$0, %edx
	je	.LBB33_33
# %bb.32:                               # %if.then122
	movabsq	$.L.str, %rdi
	movl	$500, %esi              # imm = 0x1F4
	callq	error
.LBB33_33:                              # %if.end123
	movq	img, %rax
	movl	72732(%rax), %eax
	movq	-8(%rbp), %rcx
	movl	32(%rcx), %ecx
	movl	-80(%rbp,%rcx,4), %ecx
	movq	-8(%rbp), %rdx
	movl	$2, %esi
	subl	1148(%rdx), %esi
	imull	%esi, %ecx
	xorl	%edx, %edx
	divl	%ecx
	cmpl	$0, %edx
	je	.LBB33_35
# %bb.34:                               # %if.then133
	movabsq	$.L.str.1, %rdi
	movl	$500, %esi              # imm = 0x1F4
	callq	error
.LBB33_35:                              # %if.end134
	jmp	.LBB33_37
.LBB33_36:                              # %if.else135
	movq	-8(%rbp), %rax
	movl	$0, 1160(%rax)
.LBB33_37:                              # %if.end137
	cmpl	$870545814, -16(%rbp)   # imm = 0x33E37996
	jne	.LBB33_39
.LBB33_38:
	addq	$96, %rsp
	popq	%rbp
	.cfi_def_cfa %rsp, 8
	retq
.LBB33_39:                              # %func_exit
	.cfi_def_cfa %rbp, 16
	callq	detect_breach
	jmp	.LBB33_38
.Lfunc_end33:
	.size	GenerateSequenceParameterSet.22, .Lfunc_end33-GenerateSequenceParameterSet.22
	.cfi_endproc
                                        # -- End function
	.globl	GenerateSeq_parameter_set_rbsp.23 # -- Begin function GenerateSeq_parameter_set_rbsp.23
	.p2align	4, 0x90
	.type	GenerateSeq_parameter_set_rbsp.23,@function
GenerateSeq_parameter_set_rbsp.23:      # @GenerateSeq_parameter_set_rbsp.23
	.cfi_startproc
# %bb.0:                                # %entry
	pushq	%rbp
	.cfi_def_cfa_offset 16
	.cfi_offset %rbp, -16
	movq	%rsp, %rbp
	.cfi_def_cfa_register %rbp
	pushq	%rbx
	subq	$56, %rsp
	.cfi_offset %rbx, -24
	movl	$1588890296, -44(%rbp)  # imm = 0x5EB48AB8
	movq	%rdi, -32(%rbp)
	movq	%rsi, -56(%rbp)
	movl	$0, -12(%rbp)
	movl	$1, %edi
	movl	$120, %esi
	callq	calloc
	movq	%rax, -24(%rbp)
	cmpq	$0, %rax
	jne	.LBB34_2
# %bb.1:                                # %if.then
	movabsq	$.L.str.4, %rdi
	callq	no_mem_exit
.LBB34_2:                               # %if.end
	movl	$1, %edi
	movl	$48, %esi
	callq	calloc
	movq	-24(%rbp), %rcx
	movq	%rax, (%rcx)
	cmpq	$0, %rax
	jne	.LBB34_4
# %bb.3:                                # %if.then3
	movabsq	$.L.str.5, %rdi
	callq	no_mem_exit
.LBB34_4:                               # %if.end4
	movq	-56(%rbp), %rax
	movq	-24(%rbp), %rcx
	movq	(%rcx), %rcx
	movq	%rax, 32(%rcx)
	movq	-24(%rbp), %rax
	movq	(%rax), %rax
	movl	$8, 4(%rax)
	movq	-32(%rbp), %rax
	movl	4(%rax), %edx
	movq	-24(%rbp), %rcx
	movl	$8, %edi
	movabsq	$.L.str.6, %rsi
	callq	u_v
	addl	-12(%rbp), %eax
	movl	%eax, -12(%rbp)
	movq	-32(%rbp), %rax
	movl	8(%rax), %esi
	movq	-24(%rbp), %rdx
	movabsq	$.L.str.7, %rdi
	callq	u_1
	addl	-12(%rbp), %eax
	movl	%eax, -12(%rbp)
	movq	-32(%rbp), %rax
	movl	12(%rax), %esi
	movq	-24(%rbp), %rdx
	movabsq	$.L.str.8, %rdi
	callq	u_1
	addl	-12(%rbp), %eax
	movl	%eax, -12(%rbp)
	movq	-32(%rbp), %rax
	movl	16(%rax), %esi
	movq	-24(%rbp), %rdx
	movabsq	$.L.str.9, %rdi
	callq	u_1
	addl	-12(%rbp), %eax
	movl	%eax, -12(%rbp)
	movq	-32(%rbp), %rax
	movl	20(%rax), %esi
	movq	-24(%rbp), %rdx
	movabsq	$.L.str.10, %rdi
	callq	u_1
	addl	-12(%rbp), %eax
	movl	%eax, -12(%rbp)
	movq	-24(%rbp), %rcx
	movl	$4, %edi
	movabsq	$.L.str.11, %rsi
	xorl	%edx, %edx
	callq	u_v
	addl	-12(%rbp), %eax
	movl	%eax, -12(%rbp)
	movq	-32(%rbp), %rax
	movl	24(%rax), %edx
	movq	-24(%rbp), %rcx
	movl	$8, %edi
	movabsq	$.L.str.12, %rsi
	callq	u_v
	addl	-12(%rbp), %eax
	movl	%eax, -12(%rbp)
	movq	-32(%rbp), %rax
	movl	28(%rax), %esi
	movq	-24(%rbp), %rdx
	movabsq	$.L.str.13, %rdi
	callq	ue_v
	addl	-12(%rbp), %eax
	movl	%eax, -12(%rbp)
	movq	-32(%rbp), %rax
	cmpl	$100, 4(%rax)
	je	.LBB34_8
# %bb.5:                                # %lor.lhs.false
	movq	-32(%rbp), %rax
	cmpl	$110, 4(%rax)
	je	.LBB34_8
# %bb.6:                                # %lor.lhs.false26
	movq	-32(%rbp), %rax
	cmpl	$122, 4(%rax)
	je	.LBB34_8
# %bb.7:                                # %lor.lhs.false29
	movq	-32(%rbp), %rax
	cmpl	$144, 4(%rax)
	jne	.LBB34_22
.LBB34_8:                               # %if.then32
	movq	-32(%rbp), %rax
	movl	32(%rax), %esi
	movq	-24(%rbp), %rdx
	movabsq	$.L.str.14, %rdi
	callq	ue_v
	addl	-12(%rbp), %eax
	movl	%eax, -12(%rbp)
	movq	img, %rax
	cmpl	$3, 72700(%rax)
	jne	.LBB34_10
# %bb.9:                                # %if.then36
	movq	img, %rax
	movl	72724(%rax), %esi
	movq	-24(%rbp), %rdx
	movabsq	$.L.str.15, %rdi
	callq	u_1
	addl	-12(%rbp), %eax
	movl	%eax, -12(%rbp)
.LBB34_10:                              # %if.end39
	movq	-32(%rbp), %rax
	movl	72(%rax), %esi
	movq	-24(%rbp), %rdx
	movabsq	$.L.str.16, %rdi
	callq	ue_v
	addl	-12(%rbp), %eax
	movl	%eax, -12(%rbp)
	movq	-32(%rbp), %rax
	movl	76(%rax), %esi
	movq	-24(%rbp), %rdx
	movabsq	$.L.str.17, %rdi
	callq	ue_v
	addl	-12(%rbp), %eax
	movl	%eax, -12(%rbp)
	movq	img, %rax
	movl	72704(%rax), %esi
	movq	-24(%rbp), %rdx
	movabsq	$.L.str.18, %rdi
	callq	u_1
	addl	-12(%rbp), %eax
	movl	%eax, -12(%rbp)
	movq	-32(%rbp), %rax
	movl	36(%rax), %esi
	movq	-24(%rbp), %rdx
	movabsq	$.L.str.19, %rdi
	callq	u_1
	addl	-12(%rbp), %eax
	movl	%eax, -12(%rbp)
	movq	-32(%rbp), %rax
	cmpl	$0, 36(%rax)
	je	.LBB34_21
# %bb.11:                               # %if.then49
	movl	$0, -36(%rbp)
.LBB34_12:                              # %for.cond
                                        # =>This Inner Loop Header: Depth=1
	cmpl	$8, -36(%rbp)
	jae	.LBB34_20
# %bb.13:                               # %for.body
                                        #   in Loop: Header=BB34_12 Depth=1
	movq	-32(%rbp), %rax
	movl	-36(%rbp), %ecx
	movl	40(%rax,%rcx,4), %esi
	movq	-24(%rbp), %rdx
	movabsq	$.L.str.20, %rdi
	callq	u_1
	addl	-12(%rbp), %eax
	movl	%eax, -12(%rbp)
	movq	-32(%rbp), %rax
	movl	-36(%rbp), %ecx
	cmpl	$0, 40(%rax,%rcx,4)
	je	.LBB34_18
# %bb.14:                               # %if.then57
                                        #   in Loop: Header=BB34_12 Depth=1
	cmpl	$6, -36(%rbp)
	jae	.LBB34_16
# %bb.15:                               # %if.then59
                                        #   in Loop: Header=BB34_12 Depth=1
	movl	-36(%rbp), %eax
	shlq	$5, %rax
	movabsq	$ScalingList4x4input, %rdi
	addq	%rax, %rdi
	movl	-36(%rbp), %eax
	shlq	$5, %rax
	movabsq	$ScalingList4x4, %rsi
	addq	%rax, %rsi
	movl	-36(%rbp), %eax
	shlq	$1, %rax
	movabsq	$UseDefaultScalingMatrix4x4Flag, %rcx
	addq	%rax, %rcx
	movq	-24(%rbp), %r8
	movl	$16, %edx
	callq	Scaling_List
	addl	-12(%rbp), %eax
	movl	%eax, -12(%rbp)
	jmp	.LBB34_17
.LBB34_16:                              # %if.else
                                        #   in Loop: Header=BB34_12 Depth=1
	movl	-36(%rbp), %eax
	subl	$6, %eax
	movl	%eax, %eax
	shlq	$7, %rax
	movabsq	$ScalingList8x8input, %rdi
	addq	%rax, %rdi
	movl	-36(%rbp), %eax
	subl	$6, %eax
	movl	%eax, %eax
	shlq	$7, %rax
	movabsq	$ScalingList8x8, %rsi
	addq	%rax, %rsi
	movl	-36(%rbp), %eax
	subl	$6, %eax
	movl	%eax, %eax
	shlq	$1, %rax
	movabsq	$UseDefaultScalingMatrix8x8Flag, %rcx
	addq	%rax, %rcx
	movq	-24(%rbp), %r8
	movl	$64, %edx
	callq	Scaling_List
	addl	-12(%rbp), %eax
	movl	%eax, -12(%rbp)
.LBB34_17:                              # %if.end81
                                        #   in Loop: Header=BB34_12 Depth=1
	jmp	.LBB34_18
.LBB34_18:                              # %if.end82
                                        #   in Loop: Header=BB34_12 Depth=1
	jmp	.LBB34_19
.LBB34_19:                              # %for.inc
                                        #   in Loop: Header=BB34_12 Depth=1
	movl	-36(%rbp), %eax
	addl	$1, %eax
	movl	%eax, -36(%rbp)
	jmp	.LBB34_12
.LBB34_20:                              # %for.end
	jmp	.LBB34_21
.LBB34_21:                              # %if.end83
	jmp	.LBB34_22
.LBB34_22:                              # %if.end84
	movq	-32(%rbp), %rax
	movl	80(%rax), %esi
	movq	-24(%rbp), %rdx
	movabsq	$.L.str.21, %rdi
	callq	ue_v
	addl	-12(%rbp), %eax
	movl	%eax, -12(%rbp)
	movq	-32(%rbp), %rax
	movl	84(%rax), %esi
	movq	-24(%rbp), %rdx
	movabsq	$.L.str.22, %rdi
	callq	ue_v
	addl	-12(%rbp), %eax
	movl	%eax, -12(%rbp)
	movq	-32(%rbp), %rax
	cmpl	$0, 84(%rax)
	jne	.LBB34_24
# %bb.23:                               # %if.then91
	movq	-32(%rbp), %rax
	movl	88(%rax), %esi
	movq	-24(%rbp), %rdx
	movabsq	$.L.str.23, %rdi
	callq	ue_v
	addl	-12(%rbp), %eax
	movl	%eax, -12(%rbp)
	jmp	.LBB34_31
.LBB34_24:                              # %if.else94
	movq	-32(%rbp), %rax
	cmpl	$1, 84(%rax)
	jne	.LBB34_30
# %bb.25:                               # %if.then97
	movq	-32(%rbp), %rax
	movl	92(%rax), %esi
	movq	-24(%rbp), %rdx
	movabsq	$.L.str.24, %rdi
	callq	u_1
	addl	-12(%rbp), %eax
	movl	%eax, -12(%rbp)
	movq	-32(%rbp), %rax
	movl	96(%rax), %esi
	movq	-24(%rbp), %rdx
	movabsq	$.L.str.25, %rdi
	callq	se_v
	addl	-12(%rbp), %eax
	movl	%eax, -12(%rbp)
	movq	-32(%rbp), %rax
	movl	100(%rax), %esi
	movq	-24(%rbp), %rdx
	movabsq	$.L.str.26, %rdi
	callq	se_v
	addl	-12(%rbp), %eax
	movl	%eax, -12(%rbp)
	movq	-32(%rbp), %rax
	movl	104(%rax), %esi
	movq	-24(%rbp), %rdx
	movabsq	$.L.str.27, %rdi
	callq	ue_v
	addl	-12(%rbp), %eax
	movl	%eax, -12(%rbp)
	movl	$0, -36(%rbp)
.LBB34_26:                              # %for.cond106
                                        # =>This Inner Loop Header: Depth=1
	movl	-36(%rbp), %eax
	movq	-32(%rbp), %rcx
	cmpl	104(%rcx), %eax
	jae	.LBB34_29
# %bb.27:                               # %for.body109
                                        #   in Loop: Header=BB34_26 Depth=1
	movq	-32(%rbp), %rax
	movl	-36(%rbp), %ecx
	movl	108(%rax,%rcx,4), %esi
	movq	-24(%rbp), %rdx
	movabsq	$.L.str.28, %rdi
	callq	se_v
	addl	-12(%rbp), %eax
	movl	%eax, -12(%rbp)
# %bb.28:                               # %for.inc114
                                        #   in Loop: Header=BB34_26 Depth=1
	movl	-36(%rbp), %eax
	addl	$1, %eax
	movl	%eax, -36(%rbp)
	jmp	.LBB34_26
.LBB34_29:                              # %for.end116
	jmp	.LBB34_30
.LBB34_30:                              # %if.end117
	jmp	.LBB34_31
.LBB34_31:                              # %if.end118
	movq	-32(%rbp), %rax
	movl	1132(%rax), %esi
	movq	-24(%rbp), %rdx
	movabsq	$.L.str.29, %rdi
	callq	ue_v
	addl	-12(%rbp), %eax
	movl	%eax, -12(%rbp)
	movq	-32(%rbp), %rax
	movl	1136(%rax), %esi
	movq	-24(%rbp), %rdx
	movabsq	$.L.str.30, %rdi
	callq	u_1
	addl	-12(%rbp), %eax
	movl	%eax, -12(%rbp)
	movq	-32(%rbp), %rax
	movl	1140(%rax), %esi
	movq	-24(%rbp), %rdx
	movabsq	$.L.str.31, %rdi
	callq	ue_v
	addl	-12(%rbp), %eax
	movl	%eax, -12(%rbp)
	movq	-32(%rbp), %rax
	movl	1144(%rax), %esi
	movq	-24(%rbp), %rdx
	movabsq	$.L.str.32, %rdi
	callq	ue_v
	addl	-12(%rbp), %eax
	movl	%eax, -12(%rbp)
	movq	-32(%rbp), %rax
	movl	1148(%rax), %esi
	movq	-24(%rbp), %rdx
	movabsq	$.L.str.33, %rdi
	callq	u_1
	addl	-12(%rbp), %eax
	movl	%eax, -12(%rbp)
	movq	-32(%rbp), %rax
	cmpl	$0, 1148(%rax)
	jne	.LBB34_33
# %bb.32:                               # %if.then131
	movq	-32(%rbp), %rax
	movl	1152(%rax), %esi
	movq	-24(%rbp), %rdx
	movabsq	$.L.str.34, %rdi
	callq	u_1
	addl	-12(%rbp), %eax
	movl	%eax, -12(%rbp)
.LBB34_33:                              # %if.end134
	movq	-32(%rbp), %rax
	movl	1156(%rax), %esi
	movq	-24(%rbp), %rdx
	movabsq	$.L.str.35, %rdi
	callq	u_1
	addl	-12(%rbp), %eax
	movl	%eax, -12(%rbp)
	movq	-32(%rbp), %rax
	movl	1160(%rax), %esi
	movq	-24(%rbp), %rdx
	movabsq	$.L.str.36, %rdi
	callq	u_1
	addl	-12(%rbp), %eax
	movl	%eax, -12(%rbp)
	movq	-32(%rbp), %rax
	cmpl	$0, 1160(%rax)
	je	.LBB34_35
# %bb.34:                               # %if.then141
	movq	-32(%rbp), %rax
	movl	1164(%rax), %esi
	movq	-24(%rbp), %rdx
	movabsq	$.L.str.37, %rdi
	callq	ue_v
	addl	-12(%rbp), %eax
	movl	%eax, -12(%rbp)
	movq	-32(%rbp), %rax
	movl	1168(%rax), %esi
	movq	-24(%rbp), %rdx
	movabsq	$.L.str.38, %rdi
	callq	ue_v
	addl	-12(%rbp), %eax
	movl	%eax, -12(%rbp)
	movq	-32(%rbp), %rax
	movl	1172(%rax), %esi
	movq	-24(%rbp), %rdx
	movabsq	$.L.str.39, %rdi
	callq	ue_v
	addl	-12(%rbp), %eax
	movl	%eax, -12(%rbp)
	movq	-32(%rbp), %rax
	movl	1176(%rax), %esi
	movq	-24(%rbp), %rdx
	movabsq	$.L.str.40, %rdi
	callq	ue_v
	addl	-12(%rbp), %eax
	movl	%eax, -12(%rbp)
.LBB34_35:                              # %if.end150
	movq	-32(%rbp), %rax
	movl	1180(%rax), %esi
	movq	-24(%rbp), %rdx
	movabsq	$.L.str.41, %rdi
	callq	u_1
	addl	-12(%rbp), %eax
	movl	%eax, -12(%rbp)
	movq	-32(%rbp), %rax
	cmpl	$0, 1180(%rax)
	je	.LBB34_37
# %bb.36:                               # %if.then155
	movq	-24(%rbp), %rdi
	callq	GenerateVUISequenceParameters
	addl	-12(%rbp), %eax
	movl	%eax, -12(%rbp)
.LBB34_37:                              # %if.end158
	movq	-24(%rbp), %rax
	movq	(%rax), %rdi
	callq	SODBtoRBSP
	movq	-24(%rbp), %rax
	movq	(%rax), %rax
	movl	(%rax), %eax
	movl	%eax, -40(%rbp)
	movq	-24(%rbp), %rax
	movq	(%rax), %rdi
	callq	free
	movq	-24(%rbp), %rdi
	callq	free
	movl	-40(%rbp), %ebx
	cmpl	$1588890296, -44(%rbp)  # imm = 0x5EB48AB8
	jne	.LBB34_39
.LBB34_38:
	movl	%ebx, %eax
	addq	$56, %rsp
	popq	%rbx
	popq	%rbp
	.cfi_def_cfa %rsp, 8
	retq
.LBB34_39:                              # %func_exit
	.cfi_def_cfa %rbp, 16
	callq	detect_breach
	jmp	.LBB34_38
.Lfunc_end34:
	.size	GenerateSeq_parameter_set_rbsp.23, .Lfunc_end34-GenerateSeq_parameter_set_rbsp.23
	.cfi_endproc
                                        # -- End function
	.globl	GeneratePictureParameterSet.24 # -- Begin function GeneratePictureParameterSet.24
	.p2align	4, 0x90
	.type	GeneratePictureParameterSet.24,@function
GeneratePictureParameterSet.24:         # @GeneratePictureParameterSet.24
	.cfi_startproc
# %bb.0:                                # %entry
	pushq	%rbp
	.cfi_def_cfa_offset 16
	.cfi_offset %rbp, -16
	movq	%rsp, %rbp
	.cfi_def_cfa_register %rbp
	subq	$48, %rsp
	movl	16(%rbp), %eax
	movl	$1019134298, -40(%rbp)  # imm = 0x3CBEC15A
	movq	%rdi, -16(%rbp)
	movq	%rsi, -24(%rbp)
	movl	%edx, -36(%rbp)
	movl	%ecx, -48(%rbp)
	movl	%r8d, -44(%rbp)
	movl	%r9d, -32(%rbp)
	callq	IdentifyProfile
	cmpl	$100, %eax
	movb	$1, %al
	je	.LBB35_4
# %bb.1:                                # %lor.lhs.false
	callq	IdentifyProfile
	cmpl	$110, %eax
	movb	$1, %al
	je	.LBB35_4
# %bb.2:                                # %lor.lhs.false3
	callq	IdentifyProfile
	cmpl	$122, %eax
	movb	$1, %al
	je	.LBB35_4
# %bb.3:                                # %lor.rhs
	callq	IdentifyProfile
	cmpl	$144, %eax
	sete	%al
.LBB35_4:                               # %lor.end
	xorl	%ecx, %ecx
	andb	$1, %al
	movzbl	%al, %eax
	movl	%eax, -28(%rbp)
	movq	-24(%rbp), %rax
	movl	28(%rax), %eax
	movq	-16(%rbp), %rdx
	movl	%eax, 8(%rdx)
	movl	-36(%rbp), %eax
	movq	-16(%rbp), %rdx
	movl	%eax, 4(%rdx)
	movq	input, %rax
	movl	2356(%rax), %eax
	cmpl	$0, %eax
	movl	$1, %eax
	cmovel	%ecx, %eax
	movq	-16(%rbp), %rcx
	movl	%eax, 12(%rcx)
	cmpl	$0, -28(%rbp)
	je	.LBB35_16
# %bb.5:                                # %if.then
	xorl	%eax, %eax
	movq	input, %rcx
	movl	3220(%rcx), %ecx
	cmpl	$0, %ecx
	movl	$1, %ecx
	cmovnel	%ecx, %eax
	movq	-16(%rbp), %rcx
	movl	%eax, 16(%rcx)
	movq	input, %rax
	movl	3256(%rax), %eax
	andl	$2, %eax
	sarl	$1, %eax
	movq	-16(%rbp), %rcx
	movl	%eax, 20(%rcx)
	movl	$0, -4(%rbp)
.LBB35_6:                               # %for.cond
                                        # =>This Inner Loop Header: Depth=1
	cmpl	$8, -4(%rbp)
	jae	.LBB35_15
# %bb.7:                                # %for.body
                                        #   in Loop: Header=BB35_6 Depth=1
	cmpl	$6, -4(%rbp)
	jae	.LBB35_9
# %bb.8:                                # %if.then14
                                        #   in Loop: Header=BB35_6 Depth=1
	movq	input, %rax
	movl	-4(%rbp), %ecx
	movl	3260(%rax,%rcx,4), %eax
	andl	$2, %eax
	sarl	$1, %eax
	movq	-16(%rbp), %rcx
	movl	-4(%rbp), %edx
	movl	%eax, 24(%rcx,%rdx,4)
	jmp	.LBB35_13
.LBB35_9:                               # %if.else
                                        #   in Loop: Header=BB35_6 Depth=1
	movq	-16(%rbp), %rax
	cmpl	$0, 16(%rax)
	je	.LBB35_11
# %bb.10:                               # %if.then21
                                        #   in Loop: Header=BB35_6 Depth=1
	movq	input, %rax
	movl	-4(%rbp), %ecx
	movl	3260(%rax,%rcx,4), %eax
	andl	$2, %eax
	sarl	$1, %eax
	movq	-16(%rbp), %rcx
	movl	-4(%rbp), %edx
	movl	%eax, 24(%rcx,%rdx,4)
	jmp	.LBB35_12
.LBB35_11:                              # %if.else30
                                        #   in Loop: Header=BB35_6 Depth=1
	movq	-16(%rbp), %rax
	movl	-4(%rbp), %ecx
	movl	$0, 24(%rax,%rcx,4)
.LBB35_12:                              # %if.end
                                        #   in Loop: Header=BB35_6 Depth=1
	jmp	.LBB35_13
.LBB35_13:                              # %if.end34
                                        #   in Loop: Header=BB35_6 Depth=1
	jmp	.LBB35_14
.LBB35_14:                              # %for.inc
                                        #   in Loop: Header=BB35_6 Depth=1
	movl	-4(%rbp), %eax
	addl	$1, %eax
	movl	%eax, -4(%rbp)
	jmp	.LBB35_6
.LBB35_15:                              # %for.end
	jmp	.LBB35_21
.LBB35_16:                              # %if.else35
	movq	-16(%rbp), %rax
	movl	$0, 20(%rax)
	movl	$0, -4(%rbp)
.LBB35_17:                              # %for.cond37
                                        # =>This Inner Loop Header: Depth=1
	cmpl	$8, -4(%rbp)
	jae	.LBB35_20
# %bb.18:                               # %for.body39
                                        #   in Loop: Header=BB35_17 Depth=1
	movq	-16(%rbp), %rax
	movl	-4(%rbp), %ecx
	movl	$0, 24(%rax,%rcx,4)
# %bb.19:                               # %for.inc43
                                        #   in Loop: Header=BB35_17 Depth=1
	movl	-4(%rbp), %eax
	addl	$1, %eax
	movl	%eax, -4(%rbp)
	jmp	.LBB35_17
.LBB35_20:                              # %for.end45
	movq	input, %rax
	movl	$0, 3220(%rax)
	movq	-16(%rbp), %rax
	movl	$0, 16(%rax)
.LBB35_21:                              # %if.end48
	movq	img, %rax
	movl	72492(%rax), %eax
	movq	-16(%rbp), %rcx
	movl	%eax, 56(%rcx)
	movq	input, %rax
	movl	3152(%rax), %eax
	movq	-16(%rbp), %rcx
	movl	%eax, 60(%rcx)
	movq	-16(%rbp), %rax
	cmpl	$0, 60(%rax)
	jbe	.LBB35_43
# %bb.22:                               # %if.then53
	movq	input(%rip), %rax
	movl	3156(%rax), %eax
	movq	%rax, %rcx
	subq	$6, %rcx
	ja	.LBB35_41
# %bb.23:                               # %if.then53
	movq	.LJTI35_0(,%rax,8), %rax
	jmpq	*%rax
.LBB35_24:                              # %sw.bb
	movq	-16(%rbp), %rax
	movl	$0, 64(%rax)
	movl	$0, -4(%rbp)
.LBB35_25:                              # %for.cond55
                                        # =>This Inner Loop Header: Depth=1
	movl	-4(%rbp), %eax
	movq	-16(%rbp), %rcx
	cmpl	60(%rcx), %eax
	ja	.LBB35_28
# %bb.26:                               # %for.body58
                                        #   in Loop: Header=BB35_25 Depth=1
	movq	input, %rax
	movq	3184(%rax), %rax
	movl	-4(%rbp), %ecx
	movl	(%rax,%rcx,4), %eax
	movq	-16(%rbp), %rcx
	movl	-4(%rbp), %edx
	movl	%eax, 68(%rcx,%rdx,4)
# %bb.27:                               # %for.inc64
                                        #   in Loop: Header=BB35_25 Depth=1
	movl	-4(%rbp), %eax
	addl	$1, %eax
	movl	%eax, -4(%rbp)
	jmp	.LBB35_25
.LBB35_28:                              # %for.end66
	jmp	.LBB35_42
.LBB35_29:                              # %sw.bb67
	movq	-16(%rbp), %rax
	movl	$1, 64(%rax)
	jmp	.LBB35_42
.LBB35_30:                              # %sw.bb69
	movq	-16(%rbp), %rax
	movl	$2, 64(%rax)
	movl	$0, -4(%rbp)
.LBB35_31:                              # %for.cond71
                                        # =>This Inner Loop Header: Depth=1
	movl	-4(%rbp), %eax
	movq	-16(%rbp), %rcx
	cmpl	60(%rcx), %eax
	jae	.LBB35_34
# %bb.32:                               # %for.body74
                                        #   in Loop: Header=BB35_31 Depth=1
	movq	input, %rax
	movq	3160(%rax), %rax
	movl	-4(%rbp), %ecx
	movl	(%rax,%rcx,4), %eax
	movq	-16(%rbp), %rcx
	movl	-4(%rbp), %edx
	movl	%eax, 100(%rcx,%rdx,4)
	movq	input, %rax
	movq	3168(%rax), %rax
	movl	-4(%rbp), %ecx
	movl	(%rax,%rcx,4), %eax
	movq	-16(%rbp), %rcx
	movl	-4(%rbp), %edx
	movl	%eax, 132(%rcx,%rdx,4)
# %bb.33:                               # %for.inc85
                                        #   in Loop: Header=BB35_31 Depth=1
	movl	-4(%rbp), %eax
	addl	$1, %eax
	movl	%eax, -4(%rbp)
	jmp	.LBB35_31
.LBB35_34:                              # %for.end87
	jmp	.LBB35_42
.LBB35_35:                              # %sw.bb88
	movq	input, %rax
	movl	3156(%rax), %eax
	movq	-16(%rbp), %rcx
	movl	%eax, 64(%rcx)
	movq	input, %rax
	movl	3192(%rax), %eax
	movq	-16(%rbp), %rcx
	movl	%eax, 164(%rcx)
	movq	input, %rax
	movl	3196(%rax), %eax
	movq	-16(%rbp), %rcx
	movl	%eax, 168(%rcx)
	jmp	.LBB35_42
.LBB35_36:                              # %sw.bb93
	movq	-16(%rbp), %rax
	movl	$6, 64(%rax)
	movq	input, %rax
	movl	68(%rax), %eax
	movq	img, %rcx
	addl	72732(%rcx), %eax
	cltd
	movl	$16, %esi
	idivl	%esi
	movq	-24(%rbp), %rcx
	movl	$2, %edi
	subl	1148(%rcx), %edi
	xorl	%edx, %edx
	divl	%edi
	movl	%eax, %ecx
	movq	input, %rax
	movl	64(%rax), %eax
	movq	img, %rdx
	addl	72728(%rdx), %eax
	cltd
	idivl	%esi
	imull	%eax, %ecx
	subl	$1, %ecx
	movq	-16(%rbp), %rax
	movl	%ecx, 172(%rax)
	movl	$0, -4(%rbp)
.LBB35_37:                              # %for.cond99
                                        # =>This Inner Loop Header: Depth=1
	movl	-4(%rbp), %eax
	movq	-16(%rbp), %rcx
	cmpl	172(%rcx), %eax
	ja	.LBB35_40
# %bb.38:                               # %for.body102
                                        #   in Loop: Header=BB35_37 Depth=1
	movq	input, %rax
	movq	3176(%rax), %rax
	movl	-4(%rbp), %ecx
	movb	(%rax,%rcx), %al
	movq	-16(%rbp), %rcx
	movq	176(%rcx), %rcx
	movl	-4(%rbp), %edx
	movb	%al, (%rcx,%rdx)
# %bb.39:                               # %for.inc108
                                        #   in Loop: Header=BB35_37 Depth=1
	movl	-4(%rbp), %eax
	addl	$1, %eax
	movl	%eax, -4(%rbp)
	jmp	.LBB35_37
.LBB35_40:                              # %for.end110
	jmp	.LBB35_42
.LBB35_41:                              # %sw.default
	movabsq	$.L.str.2, %rdi
	movb	$0, %al
	callq	printf
.LBB35_42:                              # %sw.epilog
	jmp	.LBB35_43
.LBB35_43:                              # %if.end112
	movq	-24(%rbp), %rax
	cmpl	$0, 1148(%rax)
	je	.LBB35_45
# %bb.44:                               # %cond.true
	movq	-24(%rbp), %rax
	movl	1132(%rax), %eax
	subl	$1, %eax
	jmp	.LBB35_46
.LBB35_45:                              # %cond.false
	movq	-24(%rbp), %rax
	movl	1132(%rax), %eax
	shll	$1, %eax
	subl	$1, %eax
.LBB35_46:                              # %cond.end
	movq	-16(%rbp), %rcx
	movl	%eax, 184(%rcx)
	movq	-24(%rbp), %rax
	cmpl	$0, 1148(%rax)
	je	.LBB35_48
# %bb.47:                               # %cond.true122
	movq	-24(%rbp), %rax
	movl	1132(%rax), %eax
	subl	$1, %eax
	jmp	.LBB35_49
.LBB35_48:                              # %cond.false125
	movq	-24(%rbp), %rax
	movl	1132(%rax), %eax
	shll	$1, %eax
	subl	$1, %eax
.LBB35_49:                              # %cond.end129
	movq	-16(%rbp), %rcx
	movl	%eax, 188(%rcx)
	movl	-48(%rbp), %eax
	movq	-16(%rbp), %rcx
	movl	%eax, 192(%rcx)
	movl	-44(%rbp), %eax
	movq	-16(%rbp), %rcx
	movl	%eax, 196(%rcx)
	movq	-16(%rbp), %rax
	movl	$0, 200(%rax)
	movq	-16(%rbp), %rax
	movl	$0, 204(%rax)
	movl	-32(%rbp), %eax
	movq	-16(%rbp), %rcx
	movl	%eax, 208(%rcx)
	cmpl	$0, -28(%rbp)
	je	.LBB35_51
# %bb.50:                               # %if.then132
	movl	-32(%rbp), %eax
	movq	-16(%rbp), %rcx
	movl	%eax, 212(%rcx)
	movl	16(%rbp), %eax
	movq	-16(%rbp), %rcx
	movl	%eax, 216(%rcx)
	jmp	.LBB35_52
.LBB35_51:                              # %if.else135
	movq	-16(%rbp), %rax
	movl	208(%rax), %eax
	movq	-16(%rbp), %rcx
	movl	%eax, 216(%rcx)
	movq	-16(%rbp), %rcx
	movl	%eax, 212(%rcx)
.LBB35_52:                              # %if.end139
	movq	input, %rax
	movl	2924(%rax), %eax
	movq	-16(%rbp), %rcx
	movl	%eax, 220(%rcx)
	movq	input, %rax
	movl	216(%rax), %eax
	movq	-16(%rbp), %rcx
	movl	%eax, 224(%rcx)
	movq	-16(%rbp), %rax
	movl	$0, 228(%rax)
	cmpl	$1019134298, -40(%rbp)  # imm = 0x3CBEC15A
	jne	.LBB35_54
.LBB35_53:
	addq	$48, %rsp
	popq	%rbp
	.cfi_def_cfa %rsp, 8
	retq
.LBB35_54:                              # %func_exit
	.cfi_def_cfa %rbp, 16
	callq	detect_breach
	jmp	.LBB35_53
.Lfunc_end35:
	.size	GeneratePictureParameterSet.24, .Lfunc_end35-GeneratePictureParameterSet.24
	.cfi_endproc
	.section	.rodata,"a",@progbits
	.p2align	3
.LJTI35_0:
	.quad	.LBB35_24
	.quad	.LBB35_29
	.quad	.LBB35_30
	.quad	.LBB35_35
	.quad	.LBB35_35
	.quad	.LBB35_35
	.quad	.LBB35_36
                                        # -- End function
	.text
	.globl	GenerateSequenceParameterSet.25 # -- Begin function GenerateSequenceParameterSet.25
	.p2align	4, 0x90
	.type	GenerateSequenceParameterSet.25,@function
GenerateSequenceParameterSet.25:        # @GenerateSequenceParameterSet.25
	.cfi_startproc
# %bb.0:                                # %entry
	pushq	%rbp
	.cfi_def_cfa_offset 16
	.cfi_offset %rbp, -16
	movq	%rsp, %rbp
	.cfi_def_cfa_register %rbp
	subq	$96, %rsp
	movl	$936616366, -24(%rbp)   # imm = 0x37D3A1AE
	movq	%rdi, -8(%rbp)
	movl	%esi, -84(%rbp)
	movq	.L__const.GenerateSequenceParameterSet.SubWidthC, %rax
	movq	%rax, -64(%rbp)
	movq	.L__const.GenerateSequenceParameterSet.SubWidthC+8, %rax
	movq	%rax, -56(%rbp)
	movq	.L__const.GenerateSequenceParameterSet.SubHeightC, %rax
	movq	%rax, -80(%rbp)
	movq	.L__const.GenerateSequenceParameterSet.SubHeightC+8, %rax
	movq	%rax, -72(%rbp)
	callq	IdentifyProfile
	cmpl	$100, %eax
	movb	$1, %al
	je	.LBB36_4
# %bb.1:                                # %lor.lhs.false
	callq	IdentifyProfile
	cmpl	$110, %eax
	movb	$1, %al
	je	.LBB36_4
# %bb.2:                                # %lor.lhs.false3
	callq	IdentifyProfile
	cmpl	$122, %eax
	movb	$1, %al
	je	.LBB36_4
# %bb.3:                                # %lor.rhs
	callq	IdentifyProfile
	cmpl	$144, %eax
	sete	%al
.LBB36_4:                               # %lor.end
	andb	$1, %al
	movzbl	%al, %eax
	movl	%eax, -40(%rbp)
	callq	IdentifyProfile
	movq	-8(%rbp), %rcx
	movl	%eax, 4(%rcx)
	callq	IdentifyLevel
	movq	-8(%rbp), %rcx
	movl	%eax, 24(%rcx)
	movq	-8(%rbp), %rax
