	.text
	.file	"parset.c"
	.globl	GenerateParameterSets   # -- Begin function GenerateParameterSets
	.p2align	4, 0x90
	.type	GenerateParameterSets,@function
GenerateParameterSets:                  # @GenerateParameterSets
	.cfi_startproc
# %bb.0:                                # %rand_bb
	pushq	%rbp
	.cfi_def_cfa_offset 16
	.cfi_offset %rbp, -16
	movq	%rsp, %rbp
	.cfi_def_cfa_register %rbp
	callq	get_rand
	cmpl	$0, %eax
	jne	.LBB0_2
# %bb.1:                                # %func_GenerateParameterSets.1
	callq	GenerateParameterSets.1
	popq	%rbp
	.cfi_def_cfa %rsp, 8
	retq
.LBB0_2:                                # %func_GenerateParameterSets.4
	.cfi_def_cfa %rbp, 16
	callq	GenerateParameterSets.4
	popq	%rbp
	.cfi_def_cfa %rsp, 8
	retq
.Lfunc_end0:
	.size	GenerateParameterSets, .Lfunc_end0-GenerateParameterSets
	.cfi_endproc
                                        # -- End function
	.globl	GenerateSequenceParameterSet # -- Begin function GenerateSequenceParameterSet
	.p2align	4, 0x90
	.type	GenerateSequenceParameterSet,@function
GenerateSequenceParameterSet:           # @GenerateSequenceParameterSet
	.cfi_startproc
# %bb.0:                                # %rand_bb
	pushq	%rbp
	.cfi_def_cfa_offset 16
	.cfi_offset %rbp, -16
	movq	%rsp, %rbp
	.cfi_def_cfa_register %rbp
	pushq	%r14
	pushq	%rbx
	.cfi_offset %rbx, -32
	.cfi_offset %r14, -24
	movl	%esi, %r14d
	movq	%rdi, %rbx
	callq	get_rand
	cmpl	$0, %eax
	jne	.LBB1_17
# %bb.1:                                # %func_GenerateSequenceParameterSet.3
	movq	%rbx, %rdi
	movl	%r14d, %esi
	callq	GenerateSequenceParameterSet.3
	popq	%rbx
	popq	%r14
	popq	%rbp
	.cfi_def_cfa %rsp, 8
	retq
.LBB1_2:                                # %func_GenerateSequenceParameterSet.9
	.cfi_def_cfa %rbp, 16
	movq	%rbx, %rdi
	movl	%r14d, %esi
	callq	GenerateSequenceParameterSet.9
	popq	%rbx
	popq	%r14
	popq	%rbp
	.cfi_def_cfa %rsp, 8
	retq
.LBB1_3:                                # %func_GenerateSequenceParameterSet.15
	.cfi_def_cfa %rbp, 16
	movq	%rbx, %rdi
	movl	%r14d, %esi
	callq	GenerateSequenceParameterSet.15
	popq	%rbx
	popq	%r14
	popq	%rbp
	.cfi_def_cfa %rsp, 8
	retq
.LBB1_4:                                # %func_GenerateSequenceParameterSet.22
	.cfi_def_cfa %rbp, 16
	movq	%rbx, %rdi
	movl	%r14d, %esi
	callq	GenerateSequenceParameterSet.22
	popq	%rbx
	popq	%r14
	popq	%rbp
	.cfi_def_cfa %rsp, 8
	retq
.LBB1_5:                                # %func_GenerateSequenceParameterSet.38
	.cfi_def_cfa %rbp, 16
	movq	%rbx, %rdi
	movl	%r14d, %esi
	callq	GenerateSequenceParameterSet.38
	popq	%rbx
	popq	%r14
	popq	%rbp
	.cfi_def_cfa %rsp, 8
	retq
.LBB1_6:                                # %func_GenerateSequenceParameterSet.39
	.cfi_def_cfa %rbp, 16
	movq	%rbx, %rdi
	movl	%r14d, %esi
	callq	GenerateSequenceParameterSet.39
	popq	%rbx
	popq	%r14
	popq	%rbp
	.cfi_def_cfa %rsp, 8
	retq
.LBB1_7:                                # %func_GenerateSequenceParameterSet.45
	.cfi_def_cfa %rbp, 16
	movq	%rbx, %rdi
	movl	%r14d, %esi
	callq	GenerateSequenceParameterSet.45
	popq	%rbx
	popq	%r14
	popq	%rbp
	.cfi_def_cfa %rsp, 8
	retq
.LBB1_8:                                # %func_GenerateSequenceParameterSet.48
	.cfi_def_cfa %rbp, 16
	movq	%rbx, %rdi
	movl	%r14d, %esi
	callq	GenerateSequenceParameterSet.48
	popq	%rbx
	popq	%r14
	popq	%rbp
	.cfi_def_cfa %rsp, 8
	retq
.LBB1_9:                                # %func_GenerateSequenceParameterSet.66
	.cfi_def_cfa %rbp, 16
	movq	%rbx, %rdi
	movl	%r14d, %esi
	callq	GenerateSequenceParameterSet.66
	popq	%rbx
	popq	%r14
	popq	%rbp
	.cfi_def_cfa %rsp, 8
	retq
.LBB1_10:                               # %func_GenerateSequenceParameterSet.68
	.cfi_def_cfa %rbp, 16
	movq	%rbx, %rdi
	movl	%r14d, %esi
	callq	GenerateSequenceParameterSet.68
	popq	%rbx
	popq	%r14
	popq	%rbp
	.cfi_def_cfa %rsp, 8
	retq
.LBB1_11:                               # %func_GenerateSequenceParameterSet.74
	.cfi_def_cfa %rbp, 16
	movq	%rbx, %rdi
	movl	%r14d, %esi
	callq	GenerateSequenceParameterSet.74
	popq	%rbx
	popq	%r14
	popq	%rbp
	.cfi_def_cfa %rsp, 8
	retq
.LBB1_12:                               # %func_GenerateSequenceParameterSet.76
	.cfi_def_cfa %rbp, 16
	movq	%rbx, %rdi
	movl	%r14d, %esi
	callq	GenerateSequenceParameterSet.76
	popq	%rbx
	popq	%r14
	popq	%rbp
	.cfi_def_cfa %rsp, 8
	retq
.LBB1_13:                               # %func_GenerateSequenceParameterSet.78
	.cfi_def_cfa %rbp, 16
	movq	%rbx, %rdi
	movl	%r14d, %esi
	callq	GenerateSequenceParameterSet.78
	popq	%rbx
	popq	%r14
	popq	%rbp
	.cfi_def_cfa %rsp, 8
	retq
.LBB1_14:                               # %func_GenerateSequenceParameterSet.81
	.cfi_def_cfa %rbp, 16
	movq	%rbx, %rdi
	movl	%r14d, %esi
	callq	GenerateSequenceParameterSet.81
	popq	%rbx
	popq	%r14
	popq	%rbp
	.cfi_def_cfa %rsp, 8
	retq
.LBB1_15:                               # %func_GenerateSequenceParameterSet.82
	.cfi_def_cfa %rbp, 16
	movq	%rbx, %rdi
	movl	%r14d, %esi
	callq	GenerateSequenceParameterSet.82
	popq	%rbx
	popq	%r14
	popq	%rbp
	.cfi_def_cfa %rsp, 8
	retq
.LBB1_16:                               # %func_GenerateSequenceParameterSet.85
	.cfi_def_cfa %rbp, 16
	movq	%rbx, %rdi
	movl	%r14d, %esi
	callq	GenerateSequenceParameterSet.85
	popq	%rbx
	popq	%r14
	popq	%rbp
	.cfi_def_cfa %rsp, 8
	retq
.LBB1_17:                               # %ctrl0
	.cfi_def_cfa %rbp, 16
	cmpl	$1, %eax
	je	.LBB1_2
# %bb.18:                               # %ctrl1
	cmpl	$2, %eax
	je	.LBB1_3
# %bb.19:                               # %ctrl2
	cmpl	$3, %eax
	je	.LBB1_4
# %bb.20:                               # %ctrl3
	cmpl	$4, %eax
	je	.LBB1_5
# %bb.21:                               # %ctrl4
	cmpl	$5, %eax
	je	.LBB1_6
# %bb.22:                               # %ctrl5
	cmpl	$6, %eax
	je	.LBB1_7
# %bb.23:                               # %ctrl6
	cmpl	$7, %eax
	je	.LBB1_8
# %bb.24:                               # %ctrl7
	cmpl	$8, %eax
	je	.LBB1_9
# %bb.25:                               # %ctrl8
	cmpl	$9, %eax
	je	.LBB1_10
# %bb.26:                               # %ctrl9
	cmpl	$10, %eax
	je	.LBB1_11
# %bb.27:                               # %ctrl10
	cmpl	$11, %eax
	je	.LBB1_12
# %bb.28:                               # %ctrl11
	cmpl	$12, %eax
	je	.LBB1_13
# %bb.29:                               # %ctrl12
	cmpl	$13, %eax
	je	.LBB1_14
# %bb.30:                               # %ctrl13
	cmpl	$14, %eax
	je	.LBB1_15
	jmp	.LBB1_16
.Lfunc_end1:
	.size	GenerateSequenceParameterSet, .Lfunc_end1-GenerateSequenceParameterSet
	.cfi_endproc
                                        # -- End function
	.globl	GeneratePictureParameterSet # -- Begin function GeneratePictureParameterSet
	.p2align	4, 0x90
	.type	GeneratePictureParameterSet,@function
GeneratePictureParameterSet:            # @GeneratePictureParameterSet
	.cfi_startproc
# %bb.0:                                # %rand_bb
	pushq	%rbp
	.cfi_def_cfa_offset 16
	.cfi_offset %rbp, -16
	movq	%rsp, %rbp
	.cfi_def_cfa_register %rbp
	pushq	%r15
	pushq	%r14
	pushq	%r13
	pushq	%r12
	pushq	%rbx
	subq	$24, %rsp
	.cfi_offset %rbx, -56
	.cfi_offset %r12, -48
	.cfi_offset %r13, -40
	.cfi_offset %r14, -32
	.cfi_offset %r15, -24
	movl	%r9d, -44(%rbp)         # 4-byte Spill
	movl	%r8d, %r13d
	movl	%ecx, %ebx
	movl	%edx, %r14d
	movq	%rsi, %r15
	movq	%rdi, %r12
	callq	get_rand
	cmpl	$0, %eax
	jne	.LBB2_17
# %bb.1:                                # %func_GeneratePictureParameterSet.2
	movq	%r12, %rdi
	movq	%r15, %rsi
	movl	%r14d, %edx
	movl	%ebx, %ecx
	movl	%r13d, %r8d
	movl	-44(%rbp), %r9d         # 4-byte Reload
	movl	16(%rbp), %eax
	movl	%eax, (%rsp)
	callq	GeneratePictureParameterSet.2
	addq	$24, %rsp
	popq	%rbx
	popq	%r12
	popq	%r13
	popq	%r14
	popq	%r15
	popq	%rbp
	.cfi_def_cfa %rsp, 8
	retq
.LBB2_2:                                # %func_GeneratePictureParameterSet.24
	.cfi_def_cfa %rbp, 16
	movq	%r15, %rsi
	movl	%r12d, %r9d
	movl	16(%rbp), %eax
	movl	%eax, (%rsp)
	callq	GeneratePictureParameterSet.24
	addq	$24, %rsp
	popq	%rbx
	popq	%r12
	popq	%r13
	popq	%r14
	popq	%r15
	popq	%rbp
	.cfi_def_cfa %rsp, 8
	retq
.LBB2_3:                                # %func_GeneratePictureParameterSet.31
	.cfi_def_cfa %rbp, 16
	movq	%r10, %rdi
	movl	%ebx, %edx
	movl	%r14d, %ecx
	movl	%r13d, %r8d
	movl	%r11d, (%rsp)
	callq	GeneratePictureParameterSet.31
	addq	$24, %rsp
	popq	%rbx
	popq	%r12
	popq	%r13
	popq	%r14
	popq	%r15
	popq	%rbp
	.cfi_def_cfa %rsp, 8
	retq
.LBB2_4:                                # %func_GeneratePictureParameterSet.35
	.cfi_def_cfa %rbp, 16
	movq	%r10, %rdi
	movq	-56(%rbp), %rsi         # 8-byte Reload
	movl	%ebx, %edx
	movl	%r14d, %ecx
	movl	%r13d, %r8d
	movl	-44(%rbp), %r9d         # 4-byte Reload
	movl	%r11d, (%rsp)
	callq	GeneratePictureParameterSet.35
	addq	$24, %rsp
	popq	%rbx
	popq	%r12
	popq	%r13
	popq	%r14
	popq	%r15
	popq	%rbp
	.cfi_def_cfa %rsp, 8
	retq
.LBB2_5:                                # %func_GeneratePictureParameterSet.43
	.cfi_def_cfa %rbp, 16
	movq	%r10, %rdi
	movq	-56(%rbp), %rsi         # 8-byte Reload
	movl	%ebx, %edx
	movl	%r14d, %ecx
	movl	%r9d, %r8d
	movl	-44(%rbp), %r9d         # 4-byte Reload
	movl	%r11d, (%rsp)
	callq	GeneratePictureParameterSet.43
	addq	$24, %rsp
	popq	%rbx
	popq	%r12
	popq	%r13
	popq	%r14
	popq	%r15
	popq	%rbp
	.cfi_def_cfa %rsp, 8
	retq
.LBB2_6:                                # %func_GeneratePictureParameterSet.44
	.cfi_def_cfa %rbp, 16
	movq	%r10, %rdi
	movq	-56(%rbp), %rsi         # 8-byte Reload
	movl	%ebx, %edx
	movl	%r13d, %ecx
	movl	%r9d, %r8d
	movl	-44(%rbp), %r9d         # 4-byte Reload
	movl	%r11d, (%rsp)
	callq	GeneratePictureParameterSet.44
	addq	$24, %rsp
	popq	%rbx
	popq	%r12
	popq	%r13
	popq	%r14
	popq	%r15
	popq	%rbp
	.cfi_def_cfa %rsp, 8
	retq
.LBB2_7:                                # %func_GeneratePictureParameterSet.51
	.cfi_def_cfa %rbp, 16
	movq	%r10, %rdi
	movq	-56(%rbp), %rsi         # 8-byte Reload
	movl	%r14d, %edx
	movl	%r13d, %ecx
	movl	%r9d, %r8d
	movl	-44(%rbp), %r9d         # 4-byte Reload
	movl	%r11d, (%rsp)
	callq	GeneratePictureParameterSet.51
	addq	$24, %rsp
	popq	%rbx
	popq	%r12
	popq	%r13
	popq	%r14
	popq	%r15
	popq	%rbp
	.cfi_def_cfa %rsp, 8
	retq
.LBB2_8:                                # %func_GeneratePictureParameterSet.57
	.cfi_def_cfa %rbp, 16
	movq	%r10, %rdi
	movq	%rbx, %rsi
	movl	%r14d, %edx
	movl	%r13d, %ecx
	movl	%r9d, %r8d
	movl	-44(%rbp), %r9d         # 4-byte Reload
	movl	%r11d, (%rsp)
	callq	GeneratePictureParameterSet.57
	addq	$24, %rsp
	popq	%rbx
	popq	%r12
	popq	%r13
	popq	%r14
	popq	%r15
	popq	%rbp
	.cfi_def_cfa %rsp, 8
	retq
.LBB2_9:                                # %func_GeneratePictureParameterSet.61
	.cfi_def_cfa %rbp, 16
	movq	%r10, %rdi
	movq	%rbx, %rsi
	movl	%r14d, %edx
	movl	%r13d, %ecx
	movl	%r9d, %r8d
	movl	-44(%rbp), %r9d         # 4-byte Reload
	movl	%r11d, (%rsp)
	callq	GeneratePictureParameterSet.61
	addq	$24, %rsp
	popq	%rbx
	popq	%r12
	popq	%r13
	popq	%r14
	popq	%r15
	popq	%rbp
	.cfi_def_cfa %rsp, 8
	retq
.LBB2_10:                               # %func_GeneratePictureParameterSet.63
	.cfi_def_cfa %rbp, 16
	movq	%r10, %rdi
	movq	%rbx, %rsi
	movl	%r14d, %edx
	movl	%r13d, %ecx
	movl	%r9d, %r8d
	movl	-44(%rbp), %r9d         # 4-byte Reload
	movl	%r11d, (%rsp)
	callq	GeneratePictureParameterSet.63
	addq	$24, %rsp
	popq	%rbx
	popq	%r12
	popq	%r13
	popq	%r14
	popq	%r15
	popq	%rbp
	.cfi_def_cfa %rsp, 8
	retq
.LBB2_11:                               # %func_GeneratePictureParameterSet.64
	.cfi_def_cfa %rbp, 16
	movq	%r10, %rdi
	movq	%rbx, %rsi
	movl	%r14d, %edx
	movl	%r13d, %ecx
	movl	%r9d, %r8d
	movl	-44(%rbp), %r9d         # 4-byte Reload
	movl	%r11d, (%rsp)
	callq	GeneratePictureParameterSet.64
	addq	$24, %rsp
	popq	%rbx
	popq	%r12
	popq	%r13
	popq	%r14
	popq	%r15
	popq	%rbp
	.cfi_def_cfa %rsp, 8
	retq
.LBB2_12:                               # %func_GeneratePictureParameterSet.69
	.cfi_def_cfa %rbp, 16
	movq	%r10, %rdi
	movq	%rbx, %rsi
	movl	%r14d, %edx
	movl	%r13d, %ecx
	movl	%r9d, %r8d
	movl	-44(%rbp), %r9d         # 4-byte Reload
	movl	%r11d, (%rsp)
	callq	GeneratePictureParameterSet.69
	addq	$24, %rsp
	popq	%rbx
	popq	%r12
	popq	%r13
	popq	%r14
	popq	%r15
	popq	%rbp
	.cfi_def_cfa %rsp, 8
	retq
.LBB2_13:                               # %func_GeneratePictureParameterSet.70
	.cfi_def_cfa %rbp, 16
	movq	%r10, %rdi
	movq	%rbx, %rsi
	movl	%r14d, %edx
	movl	%r13d, %ecx
	movl	%r9d, %r8d
	movl	-44(%rbp), %r9d         # 4-byte Reload
	movl	%r11d, (%rsp)
	callq	GeneratePictureParameterSet.70
	addq	$24, %rsp
	popq	%rbx
	popq	%r12
	popq	%r13
	popq	%r14
	popq	%r15
	popq	%rbp
	.cfi_def_cfa %rsp, 8
	retq
.LBB2_14:                               # %func_GeneratePictureParameterSet.80
	.cfi_def_cfa %rbp, 16
	movq	%r10, %rdi
	movq	%rbx, %rsi
	movl	%r14d, %edx
	movl	%r13d, %ecx
	movl	%r9d, %r8d
	movl	-44(%rbp), %r9d         # 4-byte Reload
	movl	%r11d, (%rsp)
	callq	GeneratePictureParameterSet.80
	addq	$24, %rsp
	popq	%rbx
	popq	%r12
	popq	%r13
	popq	%r14
	popq	%r15
	popq	%rbp
	.cfi_def_cfa %rsp, 8
	retq
.LBB2_15:                               # %func_GeneratePictureParameterSet.89
	.cfi_def_cfa %rbp, 16
	movq	%r15, %rsi
	movl	%r12d, %r9d
	movl	16(%rbp), %eax
	movl	%eax, (%rsp)
	callq	GeneratePictureParameterSet.89
	addq	$24, %rsp
	popq	%rbx
	popq	%r12
	popq	%r13
	popq	%r14
	popq	%r15
	popq	%rbp
	.cfi_def_cfa %rsp, 8
	retq
.LBB2_16:                               # %func_GeneratePictureParameterSet.90
	.cfi_def_cfa %rbp, 16
	movq	%r15, %rsi
	movl	%r12d, %r9d
	movl	16(%rbp), %eax
	movl	%eax, (%rsp)
	callq	GeneratePictureParameterSet.90
	addq	$24, %rsp
	popq	%rbx
	popq	%r12
	popq	%r13
	popq	%r14
	popq	%r15
	popq	%rbp
	.cfi_def_cfa %rsp, 8
	retq
.LBB2_17:                               # %ctrl0
	.cfi_def_cfa %rbp, 16
	movq	%r12, %rdi
	movl	%r14d, %edx
	movl	%ebx, %ecx
	movl	%r13d, %r8d
	movl	-44(%rbp), %r12d        # 4-byte Reload
	cmpl	$1, %eax
	je	.LBB2_2
# %bb.18:                               # %ctrl1
	cmpl	$2, %eax
	movl	16(%rbp), %r11d
	movl	%r12d, %r9d
	movl	%r8d, %r13d
	movl	%ecx, %r14d
	movl	%edx, %ebx
	movq	%r15, %rsi
	movq	%rdi, %r10
	je	.LBB2_3
# %bb.19:                               # %ctrl2
	movq	%rsi, -56(%rbp)         # 8-byte Spill
	cmpl	$3, %eax
	je	.LBB2_4
# %bb.20:                               # %ctrl3
	cmpl	$4, %eax
	movl	%r13d, %r9d
	je	.LBB2_5
# %bb.21:                               # %ctrl4
	cmpl	$5, %eax
	movl	%r14d, %r13d
	je	.LBB2_6
# %bb.22:                               # %ctrl5
	cmpl	$6, %eax
	movl	%ebx, %r14d
	je	.LBB2_7
# %bb.23:                               # %ctrl6
	cmpl	$7, %eax
	movq	-56(%rbp), %rbx         # 8-byte Reload
	je	.LBB2_8
# %bb.24:                               # %ctrl7
	cmpl	$8, %eax
	je	.LBB2_9
# %bb.25:                               # %ctrl8
	cmpl	$9, %eax
	je	.LBB2_10
# %bb.26:                               # %ctrl9
	cmpl	$10, %eax
	je	.LBB2_11
# %bb.27:                               # %ctrl10
	cmpl	$11, %eax
	je	.LBB2_12
# %bb.28:                               # %ctrl11
	cmpl	$12, %eax
	je	.LBB2_13
# %bb.29:                               # %ctrl12
	cmpl	$13, %eax
	je	.LBB2_14
# %bb.30:                               # %ctrl13
	cmpl	$14, %eax
	je	.LBB2_15
	jmp	.LBB2_16
.Lfunc_end2:
	.size	GeneratePictureParameterSet, .Lfunc_end2-GeneratePictureParameterSet
	.cfi_endproc
                                        # -- End function
	.globl	FreeParameterSets       # -- Begin function FreeParameterSets
	.p2align	4, 0x90
	.type	FreeParameterSets,@function
FreeParameterSets:                      # @FreeParameterSets
	.cfi_startproc
# %bb.0:                                # %entry
	pushq	%rbp
	.cfi_def_cfa_offset 16
	.cfi_offset %rbp, -16
	movq	%rsp, %rbp
	.cfi_def_cfa_register %rbp
	movq	active_sps, %rdi
	callq	FreeSPS
	popq	%rbp
	.cfi_def_cfa %rsp, 8
	retq
.Lfunc_end3:
	.size	FreeParameterSets, .Lfunc_end3-FreeParameterSets
	.cfi_endproc
                                        # -- End function
	.globl	GenerateSeq_parameter_set_NALU # -- Begin function GenerateSeq_parameter_set_NALU
	.p2align	4, 0x90
	.type	GenerateSeq_parameter_set_NALU,@function
GenerateSeq_parameter_set_NALU:         # @GenerateSeq_parameter_set_NALU
	.cfi_startproc
# %bb.0:                                # %rand_bb
	pushq	%rbp
	.cfi_def_cfa_offset 16
	.cfi_offset %rbp, -16
	movq	%rsp, %rbp
	.cfi_def_cfa_register %rbp
	callq	get_rand
	cmpl	$0, %eax
	jne	.LBB4_17
# %bb.1:                                # %func_GenerateSeq_parameter_set_NALU.7
	callq	GenerateSeq_parameter_set_NALU.7
	popq	%rbp
	.cfi_def_cfa %rsp, 8
	retq
.LBB4_2:                                # %func_GenerateSeq_parameter_set_NALU.13
	.cfi_def_cfa %rbp, 16
	callq	GenerateSeq_parameter_set_NALU.13
	popq	%rbp
	.cfi_def_cfa %rsp, 8
	retq
.LBB4_3:                                # %func_GenerateSeq_parameter_set_NALU.17
	.cfi_def_cfa %rbp, 16
	callq	GenerateSeq_parameter_set_NALU.17
	popq	%rbp
	.cfi_def_cfa %rsp, 8
	retq
.LBB4_4:                                # %func_GenerateSeq_parameter_set_NALU.21
	.cfi_def_cfa %rbp, 16
	callq	GenerateSeq_parameter_set_NALU.21
	popq	%rbp
	.cfi_def_cfa %rsp, 8
	retq
.LBB4_5:                                # %func_GenerateSeq_parameter_set_NALU.25
	.cfi_def_cfa %rbp, 16
	callq	GenerateSeq_parameter_set_NALU.25
	popq	%rbp
	.cfi_def_cfa %rsp, 8
	retq
.LBB4_6:                                # %func_GenerateSeq_parameter_set_NALU.42
	.cfi_def_cfa %rbp, 16
	callq	GenerateSeq_parameter_set_NALU.42
	popq	%rbp
	.cfi_def_cfa %rsp, 8
	retq
.LBB4_7:                                # %func_GenerateSeq_parameter_set_NALU.49
	.cfi_def_cfa %rbp, 16
	callq	GenerateSeq_parameter_set_NALU.49
	popq	%rbp
	.cfi_def_cfa %rsp, 8
	retq
.LBB4_8:                                # %func_GenerateSeq_parameter_set_NALU.52
	.cfi_def_cfa %rbp, 16
	callq	GenerateSeq_parameter_set_NALU.52
	popq	%rbp
	.cfi_def_cfa %rsp, 8
	retq
.LBB4_9:                                # %func_GenerateSeq_parameter_set_NALU.56
	.cfi_def_cfa %rbp, 16
	callq	GenerateSeq_parameter_set_NALU.56
	popq	%rbp
	.cfi_def_cfa %rsp, 8
	retq
.LBB4_10:                               # %func_GenerateSeq_parameter_set_NALU.58
	.cfi_def_cfa %rbp, 16
	callq	GenerateSeq_parameter_set_NALU.58
	popq	%rbp
	.cfi_def_cfa %rsp, 8
	retq
.LBB4_11:                               # %func_GenerateSeq_parameter_set_NALU.59
	.cfi_def_cfa %rbp, 16
	callq	GenerateSeq_parameter_set_NALU.59
	popq	%rbp
	.cfi_def_cfa %rsp, 8
	retq
.LBB4_12:                               # %func_GenerateSeq_parameter_set_NALU.65
	.cfi_def_cfa %rbp, 16
	callq	GenerateSeq_parameter_set_NALU.65
	popq	%rbp
	.cfi_def_cfa %rsp, 8
	retq
.LBB4_13:                               # %func_GenerateSeq_parameter_set_NALU.67
	.cfi_def_cfa %rbp, 16
	callq	GenerateSeq_parameter_set_NALU.67
	popq	%rbp
	.cfi_def_cfa %rsp, 8
	retq
.LBB4_14:                               # %func_GenerateSeq_parameter_set_NALU.72
	.cfi_def_cfa %rbp, 16
	callq	GenerateSeq_parameter_set_NALU.72
	popq	%rbp
	.cfi_def_cfa %rsp, 8
	retq
.LBB4_15:                               # %func_GenerateSeq_parameter_set_NALU.87
	.cfi_def_cfa %rbp, 16
	callq	GenerateSeq_parameter_set_NALU.87
	popq	%rbp
	.cfi_def_cfa %rsp, 8
	retq
.LBB4_16:                               # %func_GenerateSeq_parameter_set_NALU.93
	.cfi_def_cfa %rbp, 16
	callq	GenerateSeq_parameter_set_NALU.93
	popq	%rbp
	.cfi_def_cfa %rsp, 8
	retq
.LBB4_17:                               # %ctrl0
	.cfi_def_cfa %rbp, 16
	cmpl	$1, %eax
	je	.LBB4_2
# %bb.18:                               # %ctrl1
	cmpl	$2, %eax
	je	.LBB4_3
# %bb.19:                               # %ctrl2
	cmpl	$3, %eax
	je	.LBB4_4
# %bb.20:                               # %ctrl3
	cmpl	$4, %eax
	je	.LBB4_5
# %bb.21:                               # %ctrl4
	cmpl	$5, %eax
	je	.LBB4_6
# %bb.22:                               # %ctrl5
	cmpl	$6, %eax
	je	.LBB4_7
# %bb.23:                               # %ctrl6
	cmpl	$7, %eax
	je	.LBB4_8
# %bb.24:                               # %ctrl7
	cmpl	$8, %eax
	je	.LBB4_9
# %bb.25:                               # %ctrl8
	cmpl	$9, %eax
	je	.LBB4_10
# %bb.26:                               # %ctrl9
	cmpl	$10, %eax
	je	.LBB4_11
# %bb.27:                               # %ctrl10
	cmpl	$11, %eax
	je	.LBB4_12
# %bb.28:                               # %ctrl11
	cmpl	$12, %eax
	je	.LBB4_13
# %bb.29:                               # %ctrl12
	cmpl	$13, %eax
	je	.LBB4_14
# %bb.30:                               # %ctrl13
	cmpl	$14, %eax
	je	.LBB4_15
	jmp	.LBB4_16
.Lfunc_end4:
	.size	GenerateSeq_parameter_set_NALU, .Lfunc_end4-GenerateSeq_parameter_set_NALU
	.cfi_endproc
                                        # -- End function
	.globl	GenerateSeq_parameter_set_rbsp # -- Begin function GenerateSeq_parameter_set_rbsp
	.p2align	4, 0x90
	.type	GenerateSeq_parameter_set_rbsp,@function
GenerateSeq_parameter_set_rbsp:         # @GenerateSeq_parameter_set_rbsp
	.cfi_startproc
# %bb.0:                                # %rand_bb
	pushq	%rbp
	.cfi_def_cfa_offset 16
	.cfi_offset %rbp, -16
	movq	%rsp, %rbp
	.cfi_def_cfa_register %rbp
	pushq	%r14
	pushq	%rbx
	.cfi_offset %rbx, -32
	.cfi_offset %r14, -24
	movq	%rsi, %r14
	movq	%rdi, %rbx
	callq	get_rand
	cmpl	$0, %eax
	jne	.LBB5_17
# %bb.1:                                # %func_GenerateSeq_parameter_set_rbsp.11
	movq	%rbx, %rdi
	movq	%r14, %rsi
	callq	GenerateSeq_parameter_set_rbsp.11
	popq	%rbx
	popq	%r14
	popq	%rbp
	.cfi_def_cfa %rsp, 8
	retq
.LBB5_2:                                # %func_GenerateSeq_parameter_set_rbsp.12
	.cfi_def_cfa %rbp, 16
	movq	%rbx, %rdi
	movq	%r14, %rsi
	callq	GenerateSeq_parameter_set_rbsp.12
	popq	%rbx
	popq	%r14
	popq	%rbp
	.cfi_def_cfa %rsp, 8
	retq
.LBB5_3:                                # %func_GenerateSeq_parameter_set_rbsp.19
	.cfi_def_cfa %rbp, 16
	movq	%rbx, %rdi
	movq	%r14, %rsi
	callq	GenerateSeq_parameter_set_rbsp.19
	popq	%rbx
	popq	%r14
	popq	%rbp
	.cfi_def_cfa %rsp, 8
	retq
.LBB5_4:                                # %func_GenerateSeq_parameter_set_rbsp.23
	.cfi_def_cfa %rbp, 16
	movq	%rbx, %rdi
	movq	%r14, %rsi
	callq	GenerateSeq_parameter_set_rbsp.23
	popq	%rbx
	popq	%r14
	popq	%rbp
	.cfi_def_cfa %rsp, 8
	retq
.LBB5_5:                                # %func_GenerateSeq_parameter_set_rbsp.55
	.cfi_def_cfa %rbp, 16
	movq	%rbx, %rdi
	movq	%r14, %rsi
	callq	GenerateSeq_parameter_set_rbsp.55
	popq	%rbx
	popq	%r14
	popq	%rbp
	.cfi_def_cfa %rsp, 8
	retq
.LBB5_6:                                # %func_GenerateSeq_parameter_set_rbsp.77
	.cfi_def_cfa %rbp, 16
	movq	%rbx, %rdi
	movq	%r14, %rsi
	callq	GenerateSeq_parameter_set_rbsp.77
	popq	%rbx
	popq	%r14
	popq	%rbp
	.cfi_def_cfa %rsp, 8
	retq
.LBB5_7:                                # %func_GenerateSeq_parameter_set_rbsp.84
	.cfi_def_cfa %rbp, 16
	movq	%rbx, %rdi
	movq	%r14, %rsi
	callq	GenerateSeq_parameter_set_rbsp.84
	popq	%rbx
	popq	%r14
	popq	%rbp
	.cfi_def_cfa %rsp, 8
	retq
.LBB5_8:                                # %func_GenerateSeq_parameter_set_rbsp.102
	.cfi_def_cfa %rbp, 16
	movq	%rbx, %rdi
	movq	%r14, %rsi
	callq	GenerateSeq_parameter_set_rbsp.102
	popq	%rbx
	popq	%r14
	popq	%rbp
	.cfi_def_cfa %rsp, 8
	retq
.LBB5_9:                                # %func_GenerateSeq_parameter_set_rbsp.105
	.cfi_def_cfa %rbp, 16
	movq	%rbx, %rdi
	movq	%r14, %rsi
	callq	GenerateSeq_parameter_set_rbsp.105
	popq	%rbx
	popq	%r14
	popq	%rbp
	.cfi_def_cfa %rsp, 8
	retq
.LBB5_10:                               # %func_GenerateSeq_parameter_set_rbsp.106
	.cfi_def_cfa %rbp, 16
	movq	%rbx, %rdi
	movq	%r14, %rsi
	callq	GenerateSeq_parameter_set_rbsp.106
	popq	%rbx
	popq	%r14
	popq	%rbp
	.cfi_def_cfa %rsp, 8
	retq
.LBB5_11:                               # %func_GenerateSeq_parameter_set_rbsp.111
	.cfi_def_cfa %rbp, 16
	movq	%rbx, %rdi
	movq	%r14, %rsi
	callq	GenerateSeq_parameter_set_rbsp.111
	popq	%rbx
	popq	%r14
	popq	%rbp
	.cfi_def_cfa %rsp, 8
	retq
.LBB5_12:                               # %func_GenerateSeq_parameter_set_rbsp.112
	.cfi_def_cfa %rbp, 16
	movq	%rbx, %rdi
	movq	%r14, %rsi
	callq	GenerateSeq_parameter_set_rbsp.112
	popq	%rbx
	popq	%r14
	popq	%rbp
	.cfi_def_cfa %rsp, 8
	retq
.LBB5_13:                               # %func_GenerateSeq_parameter_set_rbsp.113
	.cfi_def_cfa %rbp, 16
	movq	%rbx, %rdi
	movq	%r14, %rsi
	callq	GenerateSeq_parameter_set_rbsp.113
	popq	%rbx
	popq	%r14
	popq	%rbp
	.cfi_def_cfa %rsp, 8
	retq
.LBB5_14:                               # %func_GenerateSeq_parameter_set_rbsp.114
	.cfi_def_cfa %rbp, 16
	movq	%rbx, %rdi
	movq	%r14, %rsi
	callq	GenerateSeq_parameter_set_rbsp.114
	popq	%rbx
	popq	%r14
	popq	%rbp
	.cfi_def_cfa %rsp, 8
	retq
.LBB5_15:                               # %func_GenerateSeq_parameter_set_rbsp.115
	.cfi_def_cfa %rbp, 16
	movq	%rbx, %rdi
	movq	%r14, %rsi
	callq	GenerateSeq_parameter_set_rbsp.115
	popq	%rbx
	popq	%r14
	popq	%rbp
	.cfi_def_cfa %rsp, 8
	retq
.LBB5_16:                               # %func_GenerateSeq_parameter_set_rbsp.116
	.cfi_def_cfa %rbp, 16
	movq	%rbx, %rdi
	movq	%r14, %rsi
	callq	GenerateSeq_parameter_set_rbsp.116
	popq	%rbx
	popq	%r14
	popq	%rbp
	.cfi_def_cfa %rsp, 8
	retq
.LBB5_17:                               # %ctrl0
	.cfi_def_cfa %rbp, 16
	cmpl	$1, %eax
	je	.LBB5_2
# %bb.18:                               # %ctrl1
	cmpl	$2, %eax
	je	.LBB5_3
# %bb.19:                               # %ctrl2
	cmpl	$3, %eax
	je	.LBB5_4
# %bb.20:                               # %ctrl3
	cmpl	$4, %eax
	je	.LBB5_5
# %bb.21:                               # %ctrl4
	cmpl	$5, %eax
	je	.LBB5_6
# %bb.22:                               # %ctrl5
	cmpl	$6, %eax
	je	.LBB5_7
# %bb.23:                               # %ctrl6
	cmpl	$7, %eax
	je	.LBB5_8
# %bb.24:                               # %ctrl7
	cmpl	$8, %eax
	je	.LBB5_9
# %bb.25:                               # %ctrl8
	cmpl	$9, %eax
	je	.LBB5_10
# %bb.26:                               # %ctrl9
	cmpl	$10, %eax
	je	.LBB5_11
# %bb.27:                               # %ctrl10
	cmpl	$11, %eax
	je	.LBB5_12
# %bb.28:                               # %ctrl11
	cmpl	$12, %eax
	je	.LBB5_13
# %bb.29:                               # %ctrl12
	cmpl	$13, %eax
	je	.LBB5_14
# %bb.30:                               # %ctrl13
	cmpl	$14, %eax
	je	.LBB5_15
	jmp	.LBB5_16
.Lfunc_end5:
	.size	GenerateSeq_parameter_set_rbsp, .Lfunc_end5-GenerateSeq_parameter_set_rbsp
	.cfi_endproc
                                        # -- End function
	.globl	GeneratePic_parameter_set_NALU # -- Begin function GeneratePic_parameter_set_NALU
	.p2align	4, 0x90
	.type	GeneratePic_parameter_set_NALU,@function
GeneratePic_parameter_set_NALU:         # @GeneratePic_parameter_set_NALU
	.cfi_startproc
# %bb.0:                                # %rand_bb
	pushq	%rbp
	.cfi_def_cfa_offset 16
	.cfi_offset %rbp, -16
	movq	%rsp, %rbp
	.cfi_def_cfa_register %rbp
	pushq	%rbx
	pushq	%rax
	.cfi_offset %rbx, -24
	movl	%edi, %ebx
	callq	get_rand
	cmpl	$0, %eax
	jne	.LBB6_17
# %bb.1:                                # %func_GeneratePic_parameter_set_NALU.20
	movl	%ebx, %edi
	callq	GeneratePic_parameter_set_NALU.20
	addq	$8, %rsp
	popq	%rbx
	popq	%rbp
	.cfi_def_cfa %rsp, 8
	retq
.LBB6_2:                                # %func_GeneratePic_parameter_set_NALU.27
	.cfi_def_cfa %rbp, 16
	movl	%ebx, %edi
	callq	GeneratePic_parameter_set_NALU.27
	addq	$8, %rsp
	popq	%rbx
	popq	%rbp
	.cfi_def_cfa %rsp, 8
	retq
.LBB6_3:                                # %func_GeneratePic_parameter_set_NALU.28
	.cfi_def_cfa %rbp, 16
	movl	%ebx, %edi
	callq	GeneratePic_parameter_set_NALU.28
	addq	$8, %rsp
	popq	%rbx
	popq	%rbp
	.cfi_def_cfa %rsp, 8
	retq
.LBB6_4:                                # %func_GeneratePic_parameter_set_NALU.33
	.cfi_def_cfa %rbp, 16
	movl	%ebx, %edi
	callq	GeneratePic_parameter_set_NALU.33
	addq	$8, %rsp
	popq	%rbx
	popq	%rbp
	.cfi_def_cfa %rsp, 8
	retq
.LBB6_5:                                # %func_GeneratePic_parameter_set_NALU.36
	.cfi_def_cfa %rbp, 16
	movl	%ebx, %edi
	callq	GeneratePic_parameter_set_NALU.36
	addq	$8, %rsp
	popq	%rbx
	popq	%rbp
	.cfi_def_cfa %rsp, 8
	retq
.LBB6_6:                                # %func_GeneratePic_parameter_set_NALU.37
	.cfi_def_cfa %rbp, 16
	movl	%ebx, %edi
	callq	GeneratePic_parameter_set_NALU.37
	addq	$8, %rsp
	popq	%rbx
	popq	%rbp
	.cfi_def_cfa %rsp, 8
	retq
.LBB6_7:                                # %func_GeneratePic_parameter_set_NALU.40
	.cfi_def_cfa %rbp, 16
	movl	%ebx, %edi
	callq	GeneratePic_parameter_set_NALU.40
	addq	$8, %rsp
	popq	%rbx
	popq	%rbp
	.cfi_def_cfa %rsp, 8
	retq
.LBB6_8:                                # %func_GeneratePic_parameter_set_NALU.46
	.cfi_def_cfa %rbp, 16
	movl	%ebx, %edi
	callq	GeneratePic_parameter_set_NALU.46
	addq	$8, %rsp
	popq	%rbx
	popq	%rbp
	.cfi_def_cfa %rsp, 8
	retq
.LBB6_9:                                # %func_GeneratePic_parameter_set_NALU.54
	.cfi_def_cfa %rbp, 16
	movl	%ebx, %edi
	callq	GeneratePic_parameter_set_NALU.54
	addq	$8, %rsp
	popq	%rbx
	popq	%rbp
	.cfi_def_cfa %rsp, 8
	retq
.LBB6_10:                               # %func_GeneratePic_parameter_set_NALU.60
	.cfi_def_cfa %rbp, 16
	movl	%ebx, %edi
	callq	GeneratePic_parameter_set_NALU.60
	addq	$8, %rsp
	popq	%rbx
	popq	%rbp
	.cfi_def_cfa %rsp, 8
	retq
.LBB6_11:                               # %func_GeneratePic_parameter_set_NALU.73
	.cfi_def_cfa %rbp, 16
	movl	%ebx, %edi
	callq	GeneratePic_parameter_set_NALU.73
	addq	$8, %rsp
	popq	%rbx
	popq	%rbp
	.cfi_def_cfa %rsp, 8
	retq
.LBB6_12:                               # %func_GeneratePic_parameter_set_NALU.91
	.cfi_def_cfa %rbp, 16
	movl	%ebx, %edi
	callq	GeneratePic_parameter_set_NALU.91
	addq	$8, %rsp
	popq	%rbx
	popq	%rbp
	.cfi_def_cfa %rsp, 8
	retq
.LBB6_13:                               # %func_GeneratePic_parameter_set_NALU.99
	.cfi_def_cfa %rbp, 16
	movl	%ebx, %edi
	callq	GeneratePic_parameter_set_NALU.99
	addq	$8, %rsp
	popq	%rbx
	popq	%rbp
	.cfi_def_cfa %rsp, 8
	retq
.LBB6_14:                               # %func_GeneratePic_parameter_set_NALU.101
	.cfi_def_cfa %rbp, 16
	movl	%ebx, %edi
	callq	GeneratePic_parameter_set_NALU.101
	addq	$8, %rsp
	popq	%rbx
	popq	%rbp
	.cfi_def_cfa %rsp, 8
	retq
.LBB6_15:                               # %func_GeneratePic_parameter_set_NALU.103
	.cfi_def_cfa %rbp, 16
	movl	%ebx, %edi
	callq	GeneratePic_parameter_set_NALU.103
	addq	$8, %rsp
	popq	%rbx
	popq	%rbp
	.cfi_def_cfa %rsp, 8
	retq
.LBB6_16:                               # %func_GeneratePic_parameter_set_NALU.107
	.cfi_def_cfa %rbp, 16
	movl	%ebx, %edi
	callq	GeneratePic_parameter_set_NALU.107
	addq	$8, %rsp
	popq	%rbx
	popq	%rbp
	.cfi_def_cfa %rsp, 8
	retq
.LBB6_17:                               # %ctrl0
	.cfi_def_cfa %rbp, 16
	cmpl	$1, %eax
	je	.LBB6_2
# %bb.18:                               # %ctrl1
	cmpl	$2, %eax
	je	.LBB6_3
# %bb.19:                               # %ctrl2
	cmpl	$3, %eax
	je	.LBB6_4
# %bb.20:                               # %ctrl3
	cmpl	$4, %eax
	je	.LBB6_5
# %bb.21:                               # %ctrl4
	cmpl	$5, %eax
	je	.LBB6_6
# %bb.22:                               # %ctrl5
	cmpl	$6, %eax
	je	.LBB6_7
# %bb.23:                               # %ctrl6
	cmpl	$7, %eax
	je	.LBB6_8
# %bb.24:                               # %ctrl7
	cmpl	$8, %eax
	je	.LBB6_9
# %bb.25:                               # %ctrl8
	cmpl	$9, %eax
	je	.LBB6_10
# %bb.26:                               # %ctrl9
	cmpl	$10, %eax
	je	.LBB6_11
# %bb.27:                               # %ctrl10
	cmpl	$11, %eax
	je	.LBB6_12
# %bb.28:                               # %ctrl11
	cmpl	$12, %eax
	je	.LBB6_13
# %bb.29:                               # %ctrl12
	cmpl	$13, %eax
	je	.LBB6_14
# %bb.30:                               # %ctrl13
	cmpl	$14, %eax
	je	.LBB6_15
	jmp	.LBB6_16
.Lfunc_end6:
	.size	GeneratePic_parameter_set_NALU, .Lfunc_end6-GeneratePic_parameter_set_NALU
	.cfi_endproc
                                        # -- End function
	.globl	GeneratePic_parameter_set_rbsp # -- Begin function GeneratePic_parameter_set_rbsp
	.p2align	4, 0x90
	.type	GeneratePic_parameter_set_rbsp,@function
GeneratePic_parameter_set_rbsp:         # @GeneratePic_parameter_set_rbsp
	.cfi_startproc
# %bb.0:                                # %rand_bb
	pushq	%rbp
	.cfi_def_cfa_offset 16
	.cfi_offset %rbp, -16
	movq	%rsp, %rbp
	.cfi_def_cfa_register %rbp
	pushq	%r14
	pushq	%rbx
	.cfi_offset %rbx, -32
	.cfi_offset %r14, -24
	movq	%rsi, %r14
	movq	%rdi, %rbx
	callq	get_rand
	cmpl	$0, %eax
	jne	.LBB7_17
# %bb.1:                                # %func_GeneratePic_parameter_set_rbsp.8
	movq	%rbx, %rdi
	movq	%r14, %rsi
	callq	GeneratePic_parameter_set_rbsp.8
	popq	%rbx
	popq	%r14
	popq	%rbp
	.cfi_def_cfa %rsp, 8
	retq
.LBB7_2:                                # %func_GeneratePic_parameter_set_rbsp.16
	.cfi_def_cfa %rbp, 16
	movq	%rbx, %rdi
	movq	%r14, %rsi
	callq	GeneratePic_parameter_set_rbsp.16
	popq	%rbx
	popq	%r14
	popq	%rbp
	.cfi_def_cfa %rsp, 8
	retq
.LBB7_3:                                # %func_GeneratePic_parameter_set_rbsp.29
	.cfi_def_cfa %rbp, 16
	movq	%rbx, %rdi
	movq	%r14, %rsi
	callq	GeneratePic_parameter_set_rbsp.29
	popq	%rbx
	popq	%r14
	popq	%rbp
	.cfi_def_cfa %rsp, 8
	retq
.LBB7_4:                                # %func_GeneratePic_parameter_set_rbsp.30
	.cfi_def_cfa %rbp, 16
	movq	%rbx, %rdi
	movq	%r14, %rsi
	callq	GeneratePic_parameter_set_rbsp.30
	popq	%rbx
	popq	%r14
	popq	%rbp
	.cfi_def_cfa %rsp, 8
	retq
.LBB7_5:                                # %func_GeneratePic_parameter_set_rbsp.32
	.cfi_def_cfa %rbp, 16
	movq	%rbx, %rdi
	movq	%r14, %rsi
	callq	GeneratePic_parameter_set_rbsp.32
	popq	%rbx
	popq	%r14
	popq	%rbp
	.cfi_def_cfa %rsp, 8
	retq
.LBB7_6:                                # %func_GeneratePic_parameter_set_rbsp.34
	.cfi_def_cfa %rbp, 16
	movq	%rbx, %rdi
	movq	%r14, %rsi
	callq	GeneratePic_parameter_set_rbsp.34
	popq	%rbx
	popq	%r14
	popq	%rbp
	.cfi_def_cfa %rsp, 8
	retq
.LBB7_7:                                # %func_GeneratePic_parameter_set_rbsp.53
	.cfi_def_cfa %rbp, 16
	movq	%rbx, %rdi
	movq	%r14, %rsi
	callq	GeneratePic_parameter_set_rbsp.53
	popq	%rbx
	popq	%r14
	popq	%rbp
	.cfi_def_cfa %rsp, 8
	retq
.LBB7_8:                                # %func_GeneratePic_parameter_set_rbsp.62
	.cfi_def_cfa %rbp, 16
	movq	%rbx, %rdi
	movq	%r14, %rsi
	callq	GeneratePic_parameter_set_rbsp.62
	popq	%rbx
	popq	%r14
	popq	%rbp
	.cfi_def_cfa %rsp, 8
	retq
.LBB7_9:                                # %func_GeneratePic_parameter_set_rbsp.75
	.cfi_def_cfa %rbp, 16
	movq	%rbx, %rdi
	movq	%r14, %rsi
	callq	GeneratePic_parameter_set_rbsp.75
	popq	%rbx
	popq	%r14
	popq	%rbp
	.cfi_def_cfa %rsp, 8
	retq
.LBB7_10:                               # %func_GeneratePic_parameter_set_rbsp.79
	.cfi_def_cfa %rbp, 16
	movq	%rbx, %rdi
	movq	%r14, %rsi
	callq	GeneratePic_parameter_set_rbsp.79
	popq	%rbx
	popq	%r14
	popq	%rbp
	.cfi_def_cfa %rsp, 8
	retq
.LBB7_11:                               # %func_GeneratePic_parameter_set_rbsp.83
	.cfi_def_cfa %rbp, 16
	movq	%rbx, %rdi
	movq	%r14, %rsi
	callq	GeneratePic_parameter_set_rbsp.83
	popq	%rbx
	popq	%r14
	popq	%rbp
	.cfi_def_cfa %rsp, 8
	retq
.LBB7_12:                               # %func_GeneratePic_parameter_set_rbsp.86
	.cfi_def_cfa %rbp, 16
	movq	%rbx, %rdi
	movq	%r14, %rsi
	callq	GeneratePic_parameter_set_rbsp.86
	popq	%rbx
	popq	%r14
	popq	%rbp
	.cfi_def_cfa %rsp, 8
	retq
.LBB7_13:                               # %func_GeneratePic_parameter_set_rbsp.104
	.cfi_def_cfa %rbp, 16
	movq	%rbx, %rdi
	movq	%r14, %rsi
	callq	GeneratePic_parameter_set_rbsp.104
	popq	%rbx
	popq	%r14
	popq	%rbp
	.cfi_def_cfa %rsp, 8
	retq
.LBB7_14:                               # %func_GeneratePic_parameter_set_rbsp.108
	.cfi_def_cfa %rbp, 16
	movq	%rbx, %rdi
	movq	%r14, %rsi
	callq	GeneratePic_parameter_set_rbsp.108
	popq	%rbx
	popq	%r14
	popq	%rbp
	.cfi_def_cfa %rsp, 8
	retq
.LBB7_15:                               # %func_GeneratePic_parameter_set_rbsp.109
	.cfi_def_cfa %rbp, 16
	movq	%rbx, %rdi
	movq	%r14, %rsi
	callq	GeneratePic_parameter_set_rbsp.109
	popq	%rbx
	popq	%r14
	popq	%rbp
	.cfi_def_cfa %rsp, 8
	retq
.LBB7_16:                               # %func_GeneratePic_parameter_set_rbsp.110
	.cfi_def_cfa %rbp, 16
	movq	%rbx, %rdi
	movq	%r14, %rsi
	callq	GeneratePic_parameter_set_rbsp.110
	popq	%rbx
	popq	%r14
	popq	%rbp
	.cfi_def_cfa %rsp, 8
	retq
.LBB7_17:                               # %ctrl0
	.cfi_def_cfa %rbp, 16
	cmpl	$1, %eax
	je	.LBB7_2
# %bb.18:                               # %ctrl1
	cmpl	$2, %eax
	je	.LBB7_3
# %bb.19:                               # %ctrl2
	cmpl	$3, %eax
	je	.LBB7_4
# %bb.20:                               # %ctrl3
	cmpl	$4, %eax
	je	.LBB7_5
# %bb.21:                               # %ctrl4
	cmpl	$5, %eax
	je	.LBB7_6
# %bb.22:                               # %ctrl5
	cmpl	$6, %eax
	je	.LBB7_7
# %bb.23:                               # %ctrl6
	cmpl	$7, %eax
	je	.LBB7_8
# %bb.24:                               # %ctrl7
	cmpl	$8, %eax
	je	.LBB7_9
# %bb.25:                               # %ctrl8
	cmpl	$9, %eax
	je	.LBB7_10
# %bb.26:                               # %ctrl9
	cmpl	$10, %eax
	je	.LBB7_11
# %bb.27:                               # %ctrl10
	cmpl	$11, %eax
	je	.LBB7_12
# %bb.28:                               # %ctrl11
	cmpl	$12, %eax
	je	.LBB7_13
# %bb.29:                               # %ctrl12
	cmpl	$13, %eax
	je	.LBB7_14
# %bb.30:                               # %ctrl13
	cmpl	$14, %eax
	je	.LBB7_15
	jmp	.LBB7_16
.Lfunc_end7:
	.size	GeneratePic_parameter_set_rbsp, .Lfunc_end7-GeneratePic_parameter_set_rbsp
	.cfi_endproc
                                        # -- End function
	.globl	Scaling_List            # -- Begin function Scaling_List
	.p2align	4, 0x90
	.type	Scaling_List,@function
Scaling_List:                           # @Scaling_List
	.cfi_startproc
# %bb.0:                                # %rand_bb
	pushq	%rbp
	.cfi_def_cfa_offset 16
	.cfi_offset %rbp, -16
	movq	%rsp, %rbp
	.cfi_def_cfa_register %rbp
	pushq	%r15
	pushq	%r14
	pushq	%r13
	pushq	%r12
	pushq	%rbx
	pushq	%rax
	.cfi_offset %rbx, -56
	.cfi_offset %r12, -48
	.cfi_offset %r13, -40
	.cfi_offset %r14, -32
	.cfi_offset %r15, -24
	movq	%r8, %r14
	movq	%rcx, %r15
	movl	%edx, %r12d
	movq	%rsi, %r13
	movq	%rdi, %rbx
	callq	get_rand
	cmpl	$0, %eax
	jne	.LBB8_17
# %bb.1:                                # %func_Scaling_List.5
	movq	%rbx, %rdi
	movq	%r13, %rsi
	movl	%r12d, %edx
	movq	%r15, %rcx
	movq	%r14, %r8
	callq	Scaling_List.5
	addq	$8, %rsp
	popq	%rbx
	popq	%r12
	popq	%r13
	popq	%r14
	popq	%r15
	popq	%rbp
	.cfi_def_cfa %rsp, 8
	retq
.LBB8_2:                                # %func_Scaling_List.6
	.cfi_def_cfa %rbp, 16
	movq	%rbx, %rdi
	movq	%r13, %rsi
	movl	%r12d, %edx
	movq	%r15, %rcx
	movq	%r14, %r8
	callq	Scaling_List.6
	addq	$8, %rsp
	popq	%rbx
	popq	%r12
	popq	%r13
	popq	%r14
	popq	%r15
	popq	%rbp
	.cfi_def_cfa %rsp, 8
	retq
.LBB8_3:                                # %func_Scaling_List.14
	.cfi_def_cfa %rbp, 16
	movq	%rbx, %rdi
	movq	%r13, %rsi
	movl	%r12d, %edx
	movq	%r15, %rcx
	movq	%r14, %r8
	callq	Scaling_List.14
	addq	$8, %rsp
	popq	%rbx
	popq	%r12
	popq	%r13
	popq	%r14
	popq	%r15
	popq	%rbp
	.cfi_def_cfa %rsp, 8
	retq
.LBB8_4:                                # %func_Scaling_List.26
	.cfi_def_cfa %rbp, 16
	movq	%rbx, %rdi
	movq	%r13, %rsi
	movl	%r12d, %edx
	movq	%r15, %rcx
	movq	%r14, %r8
	callq	Scaling_List.26
	addq	$8, %rsp
	popq	%rbx
	popq	%r12
	popq	%r13
	popq	%r14
	popq	%r15
	popq	%rbp
	.cfi_def_cfa %rsp, 8
	retq
.LBB8_5:                                # %func_Scaling_List.41
	.cfi_def_cfa %rbp, 16
	movq	%rbx, %rdi
	movq	%r13, %rsi
	movl	%r12d, %edx
	movq	%r15, %rcx
	movq	%r14, %r8
	callq	Scaling_List.41
	addq	$8, %rsp
	popq	%rbx
	popq	%r12
	popq	%r13
	popq	%r14
	popq	%r15
	popq	%rbp
	.cfi_def_cfa %rsp, 8
	retq
.LBB8_6:                                # %func_Scaling_List.47
	.cfi_def_cfa %rbp, 16
	movq	%rbx, %rdi
	movq	%r13, %rsi
	movl	%r12d, %edx
	movq	%r15, %rcx
	movq	%r14, %r8
	callq	Scaling_List.47
	addq	$8, %rsp
	popq	%rbx
	popq	%r12
	popq	%r13
	popq	%r14
	popq	%r15
	popq	%rbp
	.cfi_def_cfa %rsp, 8
	retq
.LBB8_7:                                # %func_Scaling_List.50
	.cfi_def_cfa %rbp, 16
	movq	%rbx, %rdi
	movq	%r13, %rsi
	movl	%r12d, %edx
	movq	%r15, %rcx
	movq	%r14, %r8
	callq	Scaling_List.50
	addq	$8, %rsp
	popq	%rbx
	popq	%r12
	popq	%r13
	popq	%r14
	popq	%r15
	popq	%rbp
	.cfi_def_cfa %rsp, 8
	retq
.LBB8_8:                                # %func_Scaling_List.71
	.cfi_def_cfa %rbp, 16
	movq	%rbx, %rdi
	movq	%r13, %rsi
	movl	%r12d, %edx
	movq	%r15, %rcx
	movq	%r14, %r8
	callq	Scaling_List.71
	addq	$8, %rsp
	popq	%rbx
	popq	%r12
	popq	%r13
	popq	%r14
	popq	%r15
	popq	%rbp
	.cfi_def_cfa %rsp, 8
	retq
.LBB8_9:                                # %func_Scaling_List.88
	.cfi_def_cfa %rbp, 16
	movq	%rbx, %rdi
	movq	%r13, %rsi
	movl	%r12d, %edx
	movq	%r15, %rcx
	movq	%r14, %r8
	callq	Scaling_List.88
	addq	$8, %rsp
	popq	%rbx
	popq	%r12
	popq	%r13
	popq	%r14
	popq	%r15
	popq	%rbp
	.cfi_def_cfa %rsp, 8
	retq
.LBB8_10:                               # %func_Scaling_List.92
	.cfi_def_cfa %rbp, 16
	movq	%rbx, %rdi
	movq	%r13, %rsi
	movl	%r12d, %edx
	movq	%r15, %rcx
	movq	%r14, %r8
	callq	Scaling_List.92
	addq	$8, %rsp
	popq	%rbx
	popq	%r12
	popq	%r13
	popq	%r14
	popq	%r15
	popq	%rbp
	.cfi_def_cfa %rsp, 8
	retq
.LBB8_11:                               # %func_Scaling_List.94
	.cfi_def_cfa %rbp, 16
	movq	%rbx, %rdi
	movq	%r13, %rsi
	movl	%r12d, %edx
	movq	%r15, %rcx
	movq	%r14, %r8
	callq	Scaling_List.94
	addq	$8, %rsp
	popq	%rbx
	popq	%r12
	popq	%r13
	popq	%r14
	popq	%r15
	popq	%rbp
	.cfi_def_cfa %rsp, 8
	retq
.LBB8_12:                               # %func_Scaling_List.95
	.cfi_def_cfa %rbp, 16
	movq	%rbx, %rdi
	movq	%r13, %rsi
	movl	%r12d, %edx
	movq	%r15, %rcx
	movq	%r14, %r8
	callq	Scaling_List.95
	addq	$8, %rsp
	popq	%rbx
	popq	%r12
	popq	%r13
	popq	%r14
	popq	%r15
	popq	%rbp
	.cfi_def_cfa %rsp, 8
	retq
.LBB8_13:                               # %func_Scaling_List.96
	.cfi_def_cfa %rbp, 16
	movq	%rbx, %rdi
	movq	%r13, %rsi
	movl	%r12d, %edx
	movq	%r15, %rcx
	movq	%r14, %r8
	callq	Scaling_List.96
	addq	$8, %rsp
	popq	%rbx
	popq	%r12
	popq	%r13
	popq	%r14
	popq	%r15
	popq	%rbp
	.cfi_def_cfa %rsp, 8
	retq
.LBB8_14:                               # %func_Scaling_List.97
	.cfi_def_cfa %rbp, 16
	movq	%rbx, %rdi
	movq	%r13, %rsi
	movl	%r12d, %edx
	movq	%r15, %rcx
	movq	%r14, %r8
	callq	Scaling_List.97
	addq	$8, %rsp
	popq	%rbx
	popq	%r12
	popq	%r13
	popq	%r14
	popq	%r15
	popq	%rbp
	.cfi_def_cfa %rsp, 8
	retq
.LBB8_15:                               # %func_Scaling_List.98
	.cfi_def_cfa %rbp, 16
	movq	%rbx, %rdi
	movq	%r13, %rsi
	movl	%r12d, %edx
	movq	%r15, %rcx
	movq	%r14, %r8
	callq	Scaling_List.98
	addq	$8, %rsp
	popq	%rbx
	popq	%r12
	popq	%r13
	popq	%r14
	popq	%r15
	popq	%rbp
	.cfi_def_cfa %rsp, 8
	retq
.LBB8_16:                               # %func_Scaling_List.100
	.cfi_def_cfa %rbp, 16
	movq	%rbx, %rdi
	movq	%r13, %rsi
	movl	%r12d, %edx
	movq	%r15, %rcx
	movq	%r14, %r8
	callq	Scaling_List.100
	addq	$8, %rsp
	popq	%rbx
	popq	%r12
	popq	%r13
	popq	%r14
	popq	%r15
	popq	%rbp
	.cfi_def_cfa %rsp, 8
	retq
.LBB8_17:                               # %ctrl0
	.cfi_def_cfa %rbp, 16
	cmpl	$1, %eax
	je	.LBB8_2
# %bb.18:                               # %ctrl1
	cmpl	$2, %eax
	je	.LBB8_3
# %bb.19:                               # %ctrl2
	cmpl	$3, %eax
	je	.LBB8_4
# %bb.20:                               # %ctrl3
	cmpl	$4, %eax
	je	.LBB8_5
# %bb.21:                               # %ctrl4
	cmpl	$5, %eax
	je	.LBB8_6
# %bb.22:                               # %ctrl5
	cmpl	$6, %eax
	je	.LBB8_7
# %bb.23:                               # %ctrl6
	cmpl	$7, %eax
	je	.LBB8_8
# %bb.24:                               # %ctrl7
	cmpl	$8, %eax
	je	.LBB8_9
# %bb.25:                               # %ctrl8
	cmpl	$9, %eax
	je	.LBB8_10
# %bb.26:                               # %ctrl9
	cmpl	$10, %eax
	je	.LBB8_11
# %bb.27:                               # %ctrl10
	cmpl	$11, %eax
	je	.LBB8_12
# %bb.28:                               # %ctrl11
	cmpl	$12, %eax
	je	.LBB8_13
# %bb.29:                               # %ctrl12
	cmpl	$13, %eax
	je	.LBB8_14
# %bb.30:                               # %ctrl13
	cmpl	$14, %eax
	je	.LBB8_15
	jmp	.LBB8_16
.Lfunc_end8:
	.size	Scaling_List, .Lfunc_end8-Scaling_List
	.cfi_endproc
                                        # -- End function
	.p2align	4, 0x90         # -- Begin function IdentifyProfile
	.type	IdentifyProfile,@function
IdentifyProfile:                        # @IdentifyProfile
	.cfi_startproc
# %bb.0:                                # %entry
	pushq	%rbp
	.cfi_def_cfa_offset 16
	.cfi_offset %rbp, -16
	movq	%rsp, %rbp
	.cfi_def_cfa_register %rbp
	movq	input, %rax
	movl	(%rax), %eax
	popq	%rbp
	.cfi_def_cfa %rsp, 8
	retq
.Lfunc_end9:
	.size	IdentifyProfile, .Lfunc_end9-IdentifyProfile
	.cfi_endproc
                                        # -- End function
	.p2align	4, 0x90         # -- Begin function IdentifyLevel
	.type	IdentifyLevel,@function
IdentifyLevel:                          # @IdentifyLevel
	.cfi_startproc
# %bb.0:                                # %entry
	pushq	%rbp
	.cfi_def_cfa_offset 16
	.cfi_offset %rbp, -16
	movq	%rsp, %rbp
	.cfi_def_cfa_register %rbp
	movq	input, %rax
	movl	4(%rax), %eax
	popq	%rbp
	.cfi_def_cfa %rsp, 8
	retq
.Lfunc_end10:
	.size	IdentifyLevel, .Lfunc_end10-IdentifyLevel
	.cfi_endproc
                                        # -- End function
	.p2align	4, 0x90         # -- Begin function GenerateVUISequenceParameters
	.type	GenerateVUISequenceParameters,@function
GenerateVUISequenceParameters:          # @GenerateVUISequenceParameters
	.cfi_startproc
# %bb.0:                                # %rand_bb
	pushq	%rbp
	.cfi_def_cfa_offset 16
	.cfi_offset %rbp, -16
	movq	%rsp, %rbp
	.cfi_def_cfa_register %rbp
	pushq	%rbx
	pushq	%rax
	.cfi_offset %rbx, -24
	movq	%rdi, %rbx
	callq	get_rand
	cmpl	$0, %eax
	jne	.LBB11_2
# %bb.1:                                # %func_GenerateVUISequenceParameters.10
	movq	%rbx, %rdi
	callq	GenerateVUISequenceParameters.10
	addq	$8, %rsp
	popq	%rbx
	popq	%rbp
	.cfi_def_cfa %rsp, 8
	retq
.LBB11_2:                               # %func_GenerateVUISequenceParameters.18
	.cfi_def_cfa %rbp, 16
	movq	%rbx, %rdi
	callq	GenerateVUISequenceParameters.18
	addq	$8, %rsp
	popq	%rbx
	popq	%rbp
	.cfi_def_cfa %rsp, 8
	retq
.Lfunc_end11:
	.size	GenerateVUISequenceParameters, .Lfunc_end11-GenerateVUISequenceParameters
	.cfi_endproc
                                        # -- End function
	.globl	GenerateParameterSets.1 # -- Begin function GenerateParameterSets.1
	.p2align	4, 0x90
	.type	GenerateParameterSets.1,@function
GenerateParameterSets.1:                # @GenerateParameterSets.1
	.cfi_startproc
# %bb.0:                                # %entry
	pushq	%rbp
	.cfi_def_cfa_offset 16
	.cfi_offset %rbp, -16
	movq	%rsp, %rbp
	.cfi_def_cfa_register %rbp
	subq	$32, %rsp
	movl	$646489813, -20(%rbp)   # imm = 0x2688A6D5
	movq	$0, -16(%rbp)
	movq	$0, -8(%rbp)
	movb	$0, %al
	callq	AllocSPS
	movq	%rax, -16(%rbp)
	movb	$0, %al
	callq	AllocPPS
	movq	%rax, -8(%rbp)
	movq	-16(%rbp), %rdi
	xorl	%esi, %esi
	callq	GenerateSequenceParameterSet
	movq	input, %rax
	cmpl	$0, 60(%rax)
	je	.LBB12_5
# %bb.1:                                # %if.then
	movq	-16(%rbp), %rax
	cmpl	$100, 4(%rax)
	jb	.LBB12_3
# %bb.2:                                # %if.then2
	movq	-8(%rbp), %rdi
	movq	-16(%rbp), %rsi
	movq	input, %rax
	movl	3316(%rax), %r9d
	movq	input, %rax
	movl	3320(%rax), %eax
	xorl	%edx, %edx
	xorl	%ecx, %ecx
	xorl	%r8d, %r8d
	movl	%eax, (%rsp)
	callq	GeneratePictureParameterSet
	movabsq	$PicParSet, %rdi
	movq	-8(%rbp), %rsi
	movl	$240, %edx
	callq	memcpy
	movq	-8(%rbp), %rdi
	movq	-16(%rbp), %rsi
	movq	input, %rax
	movl	3316(%rax), %r9d
	movq	input, %rax
	movl	3320(%rax), %eax
	movl	$1, %edx
	movl	$1, %ecx
	movl	$1, %r8d
	movl	%eax, (%rsp)
	callq	GeneratePictureParameterSet
	movabsq	$PicParSet, %rdi
	addq	$240, %rdi
	movq	-8(%rbp), %rsi
	movl	$240, %edx
	callq	memcpy
	movq	-8(%rbp), %rdi
	movq	-16(%rbp), %rsi
	movq	input, %rax
	movl	3316(%rax), %r9d
	movq	input, %rax
	movl	3320(%rax), %eax
	movl	$2, %edx
	movl	$1, %ecx
	movl	$2, %r8d
	movl	%eax, (%rsp)
	callq	GeneratePictureParameterSet
	movabsq	$PicParSet, %rdi
	addq	$480, %rdi              # imm = 0x1E0
	movq	-8(%rbp), %rsi
	movl	$240, %edx
	callq	memcpy
	jmp	.LBB12_4
.LBB12_3:                               # %if.else
	movq	-8(%rbp), %rdi
	movq	-16(%rbp), %rsi
	movq	input, %rax
	movl	2432(%rax), %r9d
	xorl	%edx, %edx
	xorl	%ecx, %ecx
	xorl	%r8d, %r8d
	movl	$0, (%rsp)
	callq	GeneratePictureParameterSet
	xorl	%eax, %eax
	movabsq	$PicParSet, %rdi
	movq	-8(%rbp), %rsi
	movl	$240, %edx
	callq	memcpy
	movq	-8(%rbp), %rdi
	movq	-16(%rbp), %rsi
	movq	input, %rax
	movl	2432(%rax), %r9d
	movl	$1, %edx
	movl	$1, %ecx
	movl	$1, %r8d
	movl	$0, (%rsp)
	callq	GeneratePictureParameterSet
	xorl	%eax, %eax
	movabsq	$PicParSet, %rdi
	addq	$240, %rdi
	movq	-8(%rbp), %rsi
	movl	$240, %edx
	callq	memcpy
	movq	-8(%rbp), %rdi
	movq	-16(%rbp), %rsi
	movq	input, %rax
	movl	2432(%rax), %r9d
	movl	$2, %edx
	movl	$1, %ecx
	movl	$2, %r8d
	movl	$0, (%rsp)
	callq	GeneratePictureParameterSet
	movabsq	$PicParSet, %rdi
	addq	$480, %rdi              # imm = 0x1E0
	movq	-8(%rbp), %rsi
	movl	$240, %edx
	callq	memcpy
.LBB12_4:                               # %if.end
	jmp	.LBB12_9
.LBB12_5:                               # %if.else9
	movq	-16(%rbp), %rax
	cmpl	$100, 4(%rax)
	jb	.LBB12_7
# %bb.6:                                # %if.then12
	movq	-8(%rbp), %rdi
	movq	-16(%rbp), %rsi
	movq	input, %rax
	movl	1284(%rax), %ecx
	movq	input, %rax
	movl	1288(%rax), %r8d
	movq	input, %rax
	movl	3316(%rax), %r9d
	movq	input, %rax
	movl	3320(%rax), %eax
	xorl	%edx, %edx
	movl	%eax, (%rsp)
	callq	GeneratePictureParameterSet
	jmp	.LBB12_8
.LBB12_7:                               # %if.else15
	movq	-8(%rbp), %rdi
	movq	-16(%rbp), %rsi
	movq	input, %rax
	movl	1284(%rax), %ecx
	movq	input, %rax
	movl	1288(%rax), %r8d
	movq	input, %rax
	movl	2432(%rax), %r9d
	xorl	%edx, %edx
	movl	$0, (%rsp)
	callq	GeneratePictureParameterSet
.LBB12_8:                               # %if.end19
	movabsq	$PicParSet, %rdi
	movq	-8(%rbp), %rsi
	movl	$240, %edx
	callq	memcpy
.LBB12_9:                               # %if.end20
	movq	-16(%rbp), %rax
	movq	%rax, active_sps
	movabsq	$PicParSet, %rax
	movq	%rax, active_pps
	cmpl	$646489813, -20(%rbp)   # imm = 0x2688A6D5
	jne	.LBB12_11
.LBB12_10:
	addq	$32, %rsp
	popq	%rbp
	.cfi_def_cfa %rsp, 8
	retq
.LBB12_11:                              # %func_exit
	.cfi_def_cfa %rbp, 16
	callq	detect_breach
	jmp	.LBB12_10
.Lfunc_end12:
	.size	GenerateParameterSets.1, .Lfunc_end12-GenerateParameterSets.1
	.cfi_endproc
                                        # -- End function
	.globl	GeneratePictureParameterSet.2 # -- Begin function GeneratePictureParameterSet.2
	.p2align	4, 0x90
	.type	GeneratePictureParameterSet.2,@function
GeneratePictureParameterSet.2:          # @GeneratePictureParameterSet.2
	.cfi_startproc
# %bb.0:                                # %entry
	pushq	%rbp
	.cfi_def_cfa_offset 16
	.cfi_offset %rbp, -16
	movq	%rsp, %rbp
	.cfi_def_cfa_register %rbp
	subq	$48, %rsp
	movl	16(%rbp), %eax
	movl	$46716239, -44(%rbp)    # imm = 0x2C8D54F
	movq	%rdi, -16(%rbp)
	movq	%rsi, -24(%rbp)
	movl	%edx, -36(%rbp)
	movl	%ecx, -40(%rbp)
	movl	%r8d, -48(%rbp)
	movl	%r9d, -32(%rbp)
	callq	IdentifyProfile
	cmpl	$100, %eax
	movb	$1, %al
	je	.LBB13_4
# %bb.1:                                # %lor.lhs.false
	callq	IdentifyProfile
	cmpl	$110, %eax
	movb	$1, %al
	je	.LBB13_4
# %bb.2:                                # %lor.lhs.false3
	callq	IdentifyProfile
	cmpl	$122, %eax
	movb	$1, %al
	je	.LBB13_4
# %bb.3:                                # %lor.rhs
	callq	IdentifyProfile
	cmpl	$144, %eax
	sete	%al
.LBB13_4:                               # %lor.end
	xorl	%ecx, %ecx
	andb	$1, %al
	movzbl	%al, %eax
	movl	%eax, -28(%rbp)
	movq	-24(%rbp), %rax
	movl	28(%rax), %eax
	movq	-16(%rbp), %rdx
	movl	%eax, 8(%rdx)
	movl	-36(%rbp), %eax
	movq	-16(%rbp), %rdx
	movl	%eax, 4(%rdx)
	movq	input, %rax
	movl	2356(%rax), %eax
	cmpl	$0, %eax
	movl	$1, %eax
	cmovel	%ecx, %eax
	movq	-16(%rbp), %rcx
	movl	%eax, 12(%rcx)
	cmpl	$0, -28(%rbp)
	je	.LBB13_16
# %bb.5:                                # %if.then
	xorl	%eax, %eax
	movq	input, %rcx
	movl	3220(%rcx), %ecx
	cmpl	$0, %ecx
	movl	$1, %ecx
	cmovnel	%ecx, %eax
	movq	-16(%rbp), %rcx
	movl	%eax, 16(%rcx)
	movq	input, %rax
	movl	3256(%rax), %eax
	andl	$2, %eax
	sarl	$1, %eax
	movq	-16(%rbp), %rcx
	movl	%eax, 20(%rcx)
	movl	$0, -4(%rbp)
.LBB13_6:                               # %for.cond
                                        # =>This Inner Loop Header: Depth=1
	cmpl	$8, -4(%rbp)
	jae	.LBB13_15
# %bb.7:                                # %for.body
                                        #   in Loop: Header=BB13_6 Depth=1
	cmpl	$6, -4(%rbp)
	jae	.LBB13_9
# %bb.8:                                # %if.then14
                                        #   in Loop: Header=BB13_6 Depth=1
	movq	input, %rax
	movl	-4(%rbp), %ecx
	movl	3260(%rax,%rcx,4), %eax
	andl	$2, %eax
	sarl	$1, %eax
	movq	-16(%rbp), %rcx
	movl	-4(%rbp), %edx
	movl	%eax, 24(%rcx,%rdx,4)
	jmp	.LBB13_13
.LBB13_9:                               # %if.else
                                        #   in Loop: Header=BB13_6 Depth=1
	movq	-16(%rbp), %rax
	cmpl	$0, 16(%rax)
	je	.LBB13_11
# %bb.10:                               # %if.then21
                                        #   in Loop: Header=BB13_6 Depth=1
	movq	input, %rax
	movl	-4(%rbp), %ecx
	movl	3260(%rax,%rcx,4), %eax
	andl	$2, %eax
	sarl	$1, %eax
	movq	-16(%rbp), %rcx
	movl	-4(%rbp), %edx
	movl	%eax, 24(%rcx,%rdx,4)
	jmp	.LBB13_12
.LBB13_11:                              # %if.else30
                                        #   in Loop: Header=BB13_6 Depth=1
	movq	-16(%rbp), %rax
	movl	-4(%rbp), %ecx
	movl	$0, 24(%rax,%rcx,4)
.LBB13_12:                              # %if.end
                                        #   in Loop: Header=BB13_6 Depth=1
	jmp	.LBB13_13
.LBB13_13:                              # %if.end34
                                        #   in Loop: Header=BB13_6 Depth=1
	jmp	.LBB13_14
.LBB13_14:                              # %for.inc
                                        #   in Loop: Header=BB13_6 Depth=1
	movl	-4(%rbp), %eax
	addl	$1, %eax
	movl	%eax, -4(%rbp)
	jmp	.LBB13_6
.LBB13_15:                              # %for.end
	jmp	.LBB13_21
.LBB13_16:                              # %if.else35
	movq	-16(%rbp), %rax
	movl	$0, 20(%rax)
	movl	$0, -4(%rbp)
.LBB13_17:                              # %for.cond37
                                        # =>This Inner Loop Header: Depth=1
	cmpl	$8, -4(%rbp)
	jae	.LBB13_20
# %bb.18:                               # %for.body39
                                        #   in Loop: Header=BB13_17 Depth=1
	movq	-16(%rbp), %rax
	movl	-4(%rbp), %ecx
	movl	$0, 24(%rax,%rcx,4)
# %bb.19:                               # %for.inc43
                                        #   in Loop: Header=BB13_17 Depth=1
	movl	-4(%rbp), %eax
	addl	$1, %eax
	movl	%eax, -4(%rbp)
	jmp	.LBB13_17
.LBB13_20:                              # %for.end45
	movq	input, %rax
	movl	$0, 3220(%rax)
	movq	-16(%rbp), %rax
	movl	$0, 16(%rax)
.LBB13_21:                              # %if.end48
	movq	img, %rax
	movl	72492(%rax), %eax
	movq	-16(%rbp), %rcx
	movl	%eax, 56(%rcx)
	movq	input, %rax
	movl	3152(%rax), %eax
	movq	-16(%rbp), %rcx
	movl	%eax, 60(%rcx)
	movq	-16(%rbp), %rax
	cmpl	$0, 60(%rax)
	jbe	.LBB13_43
# %bb.22:                               # %if.then53
	movq	input(%rip), %rax
	movl	3156(%rax), %eax
	movq	%rax, %rcx
	subq	$6, %rcx
	ja	.LBB13_41
# %bb.23:                               # %if.then53
	movq	.LJTI13_0(,%rax,8), %rax
	jmpq	*%rax
.LBB13_24:                              # %sw.bb
	movq	-16(%rbp), %rax
	movl	$0, 64(%rax)
	movl	$0, -4(%rbp)
.LBB13_25:                              # %for.cond55
                                        # =>This Inner Loop Header: Depth=1
	movl	-4(%rbp), %eax
	movq	-16(%rbp), %rcx
	cmpl	60(%rcx), %eax
	ja	.LBB13_28
# %bb.26:                               # %for.body58
                                        #   in Loop: Header=BB13_25 Depth=1
	movq	input, %rax
	movq	3184(%rax), %rax
	movl	-4(%rbp), %ecx
	movl	(%rax,%rcx,4), %eax
	movq	-16(%rbp), %rcx
	movl	-4(%rbp), %edx
	movl	%eax, 68(%rcx,%rdx,4)
# %bb.27:                               # %for.inc64
                                        #   in Loop: Header=BB13_25 Depth=1
	movl	-4(%rbp), %eax
	addl	$1, %eax
	movl	%eax, -4(%rbp)
	jmp	.LBB13_25
.LBB13_28:                              # %for.end66
	jmp	.LBB13_42
.LBB13_29:                              # %sw.bb67
	movq	-16(%rbp), %rax
	movl	$1, 64(%rax)
	jmp	.LBB13_42
.LBB13_30:                              # %sw.bb69
	movq	-16(%rbp), %rax
	movl	$2, 64(%rax)
	movl	$0, -4(%rbp)
.LBB13_31:                              # %for.cond71
                                        # =>This Inner Loop Header: Depth=1
	movl	-4(%rbp), %eax
	movq	-16(%rbp), %rcx
	cmpl	60(%rcx), %eax
	jae	.LBB13_34
# %bb.32:                               # %for.body74
                                        #   in Loop: Header=BB13_31 Depth=1
	movq	input, %rax
	movq	3160(%rax), %rax
	movl	-4(%rbp), %ecx
	movl	(%rax,%rcx,4), %eax
	movq	-16(%rbp), %rcx
	movl	-4(%rbp), %edx
	movl	%eax, 100(%rcx,%rdx,4)
	movq	input, %rax
	movq	3168(%rax), %rax
	movl	-4(%rbp), %ecx
	movl	(%rax,%rcx,4), %eax
	movq	-16(%rbp), %rcx
	movl	-4(%rbp), %edx
	movl	%eax, 132(%rcx,%rdx,4)
# %bb.33:                               # %for.inc85
                                        #   in Loop: Header=BB13_31 Depth=1
	movl	-4(%rbp), %eax
	addl	$1, %eax
	movl	%eax, -4(%rbp)
	jmp	.LBB13_31
.LBB13_34:                              # %for.end87
	jmp	.LBB13_42
.LBB13_35:                              # %sw.bb88
	movq	input, %rax
	movl	3156(%rax), %eax
	movq	-16(%rbp), %rcx
	movl	%eax, 64(%rcx)
	movq	input, %rax
	movl	3192(%rax), %eax
	movq	-16(%rbp), %rcx
	movl	%eax, 164(%rcx)
	movq	input, %rax
	movl	3196(%rax), %eax
	movq	-16(%rbp), %rcx
	movl	%eax, 168(%rcx)
	jmp	.LBB13_42
.LBB13_36:                              # %sw.bb93
	movq	-16(%rbp), %rax
	movl	$6, 64(%rax)
	movq	input, %rax
	movl	68(%rax), %eax
	movq	img, %rcx
	addl	72732(%rcx), %eax
	cltd
	movl	$16, %esi
	idivl	%esi
	movq	-24(%rbp), %rcx
	movl	$2, %edi
	subl	1148(%rcx), %edi
	xorl	%edx, %edx
	divl	%edi
	movl	%eax, %ecx
	movq	input, %rax
	movl	64(%rax), %eax
	movq	img, %rdx
	addl	72728(%rdx), %eax
	cltd
	idivl	%esi
	imull	%eax, %ecx
	subl	$1, %ecx
	movq	-16(%rbp), %rax
	movl	%ecx, 172(%rax)
	movl	$0, -4(%rbp)
.LBB13_37:                              # %for.cond99
                                        # =>This Inner Loop Header: Depth=1
	movl	-4(%rbp), %eax
	movq	-16(%rbp), %rcx
	cmpl	172(%rcx), %eax
	ja	.LBB13_40
# %bb.38:                               # %for.body102
                                        #   in Loop: Header=BB13_37 Depth=1
	movq	input, %rax
	movq	3176(%rax), %rax
	movl	-4(%rbp), %ecx
	movb	(%rax,%rcx), %al
	movq	-16(%rbp), %rcx
	movq	176(%rcx), %rcx
	movl	-4(%rbp), %edx
	movb	%al, (%rcx,%rdx)
# %bb.39:                               # %for.inc108
                                        #   in Loop: Header=BB13_37 Depth=1
	movl	-4(%rbp), %eax
	addl	$1, %eax
	movl	%eax, -4(%rbp)
	jmp	.LBB13_37
.LBB13_40:                              # %for.end110
	jmp	.LBB13_42
.LBB13_41:                              # %sw.default
	movabsq	$.L.str.2, %rdi
	movb	$0, %al
	callq	printf
.LBB13_42:                              # %sw.epilog
	jmp	.LBB13_43
.LBB13_43:                              # %if.end112
	movq	-24(%rbp), %rax
	cmpl	$0, 1148(%rax)
	je	.LBB13_45
# %bb.44:                               # %cond.true
	movq	-24(%rbp), %rax
	movl	1132(%rax), %eax
	subl	$1, %eax
	jmp	.LBB13_46
.LBB13_45:                              # %cond.false
	movq	-24(%rbp), %rax
	movl	1132(%rax), %eax
	shll	$1, %eax
	subl	$1, %eax
.LBB13_46:                              # %cond.end
	movq	-16(%rbp), %rcx
	movl	%eax, 184(%rcx)
	movq	-24(%rbp), %rax
	cmpl	$0, 1148(%rax)
	je	.LBB13_48
# %bb.47:                               # %cond.true122
	movq	-24(%rbp), %rax
	movl	1132(%rax), %eax
	subl	$1, %eax
	jmp	.LBB13_49
.LBB13_48:                              # %cond.false125
	movq	-24(%rbp), %rax
	movl	1132(%rax), %eax
	shll	$1, %eax
	subl	$1, %eax
.LBB13_49:                              # %cond.end129
	movq	-16(%rbp), %rcx
	movl	%eax, 188(%rcx)
	movl	-40(%rbp), %eax
	movq	-16(%rbp), %rcx
	movl	%eax, 192(%rcx)
	movl	-48(%rbp), %eax
	movq	-16(%rbp), %rcx
	movl	%eax, 196(%rcx)
	movq	-16(%rbp), %rax
	movl	$0, 200(%rax)
	movq	-16(%rbp), %rax
	movl	$0, 204(%rax)
	movl	-32(%rbp), %eax
	movq	-16(%rbp), %rcx
	movl	%eax, 208(%rcx)
	cmpl	$0, -28(%rbp)
	je	.LBB13_51
# %bb.50:                               # %if.then132
	movl	-32(%rbp), %eax
	movq	-16(%rbp), %rcx
	movl	%eax, 212(%rcx)
	movl	16(%rbp), %eax
	movq	-16(%rbp), %rcx
	movl	%eax, 216(%rcx)
	jmp	.LBB13_52
.LBB13_51:                              # %if.else135
	movq	-16(%rbp), %rax
	movl	208(%rax), %eax
	movq	-16(%rbp), %rcx
	movl	%eax, 216(%rcx)
	movq	-16(%rbp), %rcx
	movl	%eax, 212(%rcx)
.LBB13_52:                              # %if.end139
	movq	input, %rax
	movl	2924(%rax), %eax
	movq	-16(%rbp), %rcx
	movl	%eax, 220(%rcx)
	movq	input, %rax
	movl	216(%rax), %eax
	movq	-16(%rbp), %rcx
	movl	%eax, 224(%rcx)
	movq	-16(%rbp), %rax
	movl	$0, 228(%rax)
	cmpl	$46716239, -44(%rbp)    # imm = 0x2C8D54F
	jne	.LBB13_54
.LBB13_53:
	addq	$48, %rsp
	popq	%rbp
	.cfi_def_cfa %rsp, 8
	retq
.LBB13_54:                              # %func_exit
	.cfi_def_cfa %rbp, 16
	callq	detect_breach
	jmp	.LBB13_53
.Lfunc_end13:
	.size	GeneratePictureParameterSet.2, .Lfunc_end13-GeneratePictureParameterSet.2
	.cfi_endproc
	.section	.rodata,"a",@progbits
	.p2align	3
.LJTI13_0:
	.quad	.LBB13_24
	.quad	.LBB13_29
	.quad	.LBB13_30
	.quad	.LBB13_35
	.quad	.LBB13_35
	.quad	.LBB13_35
	.quad	.LBB13_36
                                        # -- End function
	.text
	.globl	GenerateSequenceParameterSet.3 # -- Begin function GenerateSequenceParameterSet.3
	.p2align	4, 0x90
	.type	GenerateSequenceParameterSet.3,@function
GenerateSequenceParameterSet.3:         # @GenerateSequenceParameterSet.3
	.cfi_startproc
# %bb.0:                                # %entry
	pushq	%rbp
	.cfi_def_cfa_offset 16
	.cfi_offset %rbp, -16
	movq	%rsp, %rbp
	.cfi_def_cfa_register %rbp
	subq	$96, %rsp
	movl	$102839959, -16(%rbp)   # imm = 0x6213697
	movq	%rdi, -8(%rbp)
	movl	%esi, -84(%rbp)
	movq	.L__const.GenerateSequenceParameterSet.SubWidthC, %rax
	movq	%rax, -80(%rbp)
	movq	.L__const.GenerateSequenceParameterSet.SubWidthC+8, %rax
	movq	%rax, -72(%rbp)
	movq	.L__const.GenerateSequenceParameterSet.SubHeightC, %rax
	movq	%rax, -64(%rbp)
	movq	.L__const.GenerateSequenceParameterSet.SubHeightC+8, %rax
	movq	%rax, -56(%rbp)
	callq	IdentifyProfile
	cmpl	$100, %eax
	movb	$1, %al
	je	.LBB14_4
# %bb.1:                                # %lor.lhs.false
	callq	IdentifyProfile
	cmpl	$110, %eax
	movb	$1, %al
	je	.LBB14_4
# %bb.2:                                # %lor.lhs.false3
	callq	IdentifyProfile
	cmpl	$122, %eax
	movb	$1, %al
	je	.LBB14_4
# %bb.3:                                # %lor.rhs
	callq	IdentifyProfile
	cmpl	$144, %eax
	sete	%al
.LBB14_4:                               # %lor.end
	andb	$1, %al
	movzbl	%al, %eax
	movl	%eax, -20(%rbp)
	callq	IdentifyProfile
	movq	-8(%rbp), %rcx
	movl	%eax, 4(%rcx)
	callq	IdentifyLevel
	movq	-8(%rbp), %rcx
	movl	%eax, 24(%rcx)
	movq	-8(%rbp), %rax
	movl	$0, 8(%rax)
	movq	-8(%rbp), %rax
	movl	$0, 12(%rax)
	movq	-8(%rbp), %rax
	movl	$0, 16(%rax)
	movq	-8(%rbp), %rax
	movl	$0, 20(%rax)
	movq	-8(%rbp), %rax
	movl	$0, 28(%rax)
	movq	input, %rax
	movl	3296(%rax), %eax
	subl	$8, %eax
	movq	-8(%rbp), %rcx
	movl	%eax, 72(%rcx)
	movq	input, %rax
	movl	3300(%rax), %eax
	subl	$8, %eax
	movq	-8(%rbp), %rcx
	movl	%eax, 76(%rcx)
	movq	input, %rax
	movl	3324(%rax), %eax
	movq	-8(%rbp), %rcx
	cmpl	$144, 4(%rcx)
	sete	%cl
	andb	$1, %cl
	movzbl	%cl, %ecx
	andl	%ecx, %eax
	movq	img, %rcx
	movl	%eax, 72704(%rcx)
	movq	input, %rax
	movl	3328(%rax), %eax
	movq	img, %rcx
	movl	%eax, 72724(%rcx)
	movl	log2_max_frame_num_minus4, %eax
	movq	-8(%rbp), %rcx
	movl	%eax, 80(%rcx)
	movl	log2_max_pic_order_cnt_lsb_minus4, %eax
	movq	-8(%rbp), %rcx
	movl	%eax, 88(%rcx)
	movq	input, %rax
	movl	3208(%rax), %eax
	movq	-8(%rbp), %rcx
	movl	%eax, 84(%rcx)
	movq	img, %rax
	movl	72420(%rax), %eax
	movq	-8(%rbp), %rcx
	movl	%eax, 104(%rcx)
	movq	img, %rax
	movl	72408(%rax), %eax
	movq	-8(%rbp), %rcx
	movl	%eax, 92(%rcx)
	movq	img, %rax
	movl	72412(%rax), %eax
	movq	-8(%rbp), %rcx
	movl	%eax, 96(%rcx)
	movq	img, %rax
	movl	72416(%rax), %eax
	movq	-8(%rbp), %rcx
	movl	%eax, 100(%rcx)
	movl	$0, -12(%rbp)
.LBB14_5:                               # %for.cond
                                        # =>This Inner Loop Header: Depth=1
	movl	-12(%rbp), %eax
	movq	img, %rcx
	cmpl	72420(%rcx), %eax
	jae	.LBB14_8
# %bb.6:                                # %for.body
                                        #   in Loop: Header=BB14_5 Depth=1
	movq	img, %rax
	movl	-12(%rbp), %ecx
	movl	72424(%rax,%rcx,4), %eax
	movq	-8(%rbp), %rcx
	movl	-12(%rbp), %edx
	movl	%eax, 108(%rcx,%rdx,4)
# %bb.7:                                # %for.inc
                                        #   in Loop: Header=BB14_5 Depth=1
	movl	-12(%rbp), %eax
	addl	$1, %eax
	movl	%eax, -12(%rbp)
	jmp	.LBB14_5
.LBB14_8:                               # %for.end
	movq	input, %rax
	movl	36(%rax), %eax
	movq	-8(%rbp), %rcx
	movl	%eax, 1132(%rcx)
	movq	-8(%rbp), %rax
	movl	$0, 1136(%rax)
	movq	input, %rax
	cmpl	$0, 2880(%rax)
	movb	$1, %al
	jne	.LBB14_10
# %bb.9:                                # %lor.rhs26
	movq	input, %rax
	cmpl	$0, 2884(%rax)
	setne	%al
.LBB14_10:                              # %lor.end28
	xorl	%ecx, %ecx
	xorl	%esi, %esi
	xorb	$-1, %al
	andb	$1, %al
	movzbl	%al, %eax
	movq	-8(%rbp), %rdx
	movl	%eax, 1148(%rdx)
	movq	input, %rax
	movl	64(%rax), %eax
	movq	img, %rdx
	addl	72728(%rdx), %eax
	cltd
	movl	$16, %edi
	idivl	%edi
	subl	$1, %eax
	movq	-8(%rbp), %rdx
	movl	%eax, 1140(%rdx)
	movq	input, %rax
	movl	68(%rax), %eax
	movq	img, %rdx
	addl	72732(%rdx), %eax
	cltd
	idivl	%edi
	movq	-8(%rbp), %rdx
	movl	$2, %edi
	subl	1148(%rdx), %edi
	xorl	%edx, %edx
	divl	%edi
	subl	$1, %eax
	movq	-8(%rbp), %rdx
	movl	%eax, 1144(%rdx)
	movq	input, %rax
	cmpl	2884(%rax), %esi
	setne	%al
	andb	$1, %al
	movzbl	%al, %eax
	movq	-8(%rbp), %rdx
	movl	%eax, 1152(%rdx)
	movq	input, %rax
	movl	1252(%rax), %eax
	movq	-8(%rbp), %rdx
	movl	%eax, 1156(%rdx)
	movq	input, %rax
	cmpl	$0, 3312(%rax)
	je	.LBB14_12
# %bb.11:                               # %land.rhs
	movq	input, %rax
	cmpl	$3, 72(%rax)
	sete	%cl
.LBB14_12:                              # %land.end
	andb	$1, %cl
	movzbl	%cl, %eax
	movq	-8(%rbp), %rcx
	movl	%eax, 1180(%rcx)
	movq	input, %rax
	movl	72(%rax), %eax
	movq	-8(%rbp), %rcx
	movl	%eax, 32(%rcx)
	movq	-8(%rbp), %rax
	movl	1140(%rax), %eax
	addl	$1, %eax
	movl	%eax, -24(%rbp)
	movq	-8(%rbp), %rax
	movl	1144(%rax), %eax
	addl	$1, %eax
	movl	%eax, -32(%rbp)
	movq	-8(%rbp), %rax
	movl	$2, %ecx
	subl	1148(%rax), %ecx
	imull	-32(%rbp), %ecx
	movl	%ecx, -36(%rbp)
	movl	-24(%rbp), %eax
	shll	$4, %eax
	movl	%eax, -28(%rbp)
	movl	-36(%rbp), %eax
	shll	$4, %eax
	movl	%eax, -40(%rbp)
	movl	-28(%rbp), %edi
	movl	-40(%rbp), %esi
	movq	-8(%rbp), %rax
	movl	1152(%rax), %edx
	callq	alloc_colocated
	movq	%rax, Co_located
	cmpl	$0, -20(%rbp)
	je	.LBB14_24
# %bb.13:                               # %if.then
	movq	input, %rax
	movl	3256(%rax), %eax
	andl	$1, %eax
	movq	-8(%rbp), %rcx
	movl	%eax, 36(%rcx)
	movl	$0, -12(%rbp)
.LBB14_14:                              # %for.cond56
                                        # =>This Inner Loop Header: Depth=1
	cmpl	$8, -12(%rbp)
	jae	.LBB14_23
# %bb.15:                               # %for.body59
                                        #   in Loop: Header=BB14_14 Depth=1
	cmpl	$6, -12(%rbp)
	jae	.LBB14_17
# %bb.16:                               # %if.then62
                                        #   in Loop: Header=BB14_14 Depth=1
	movq	input, %rax
	movl	-12(%rbp), %ecx
	movl	3260(%rax,%rcx,4), %eax
	andl	$1, %eax
	movq	-8(%rbp), %rcx
	movl	-12(%rbp), %edx
	movl	%eax, 40(%rcx,%rdx,4)
	jmp	.LBB14_21
.LBB14_17:                              # %if.else
                                        #   in Loop: Header=BB14_14 Depth=1
	movq	input, %rax
	cmpl	$0, 3220(%rax)
	je	.LBB14_19
# %bb.18:                               # %if.then69
                                        #   in Loop: Header=BB14_14 Depth=1
	movq	input, %rax
	movl	-12(%rbp), %ecx
	movl	3260(%rax,%rcx,4), %eax
	andl	$1, %eax
	movq	-8(%rbp), %rcx
	movl	-12(%rbp), %edx
	movl	%eax, 40(%rcx,%rdx,4)
	jmp	.LBB14_20
.LBB14_19:                              # %if.else77
                                        #   in Loop: Header=BB14_14 Depth=1
	movq	-8(%rbp), %rax
	movl	-12(%rbp), %ecx
	movl	$0, 40(%rax,%rcx,4)
.LBB14_20:                              # %if.end
                                        #   in Loop: Header=BB14_14 Depth=1
	jmp	.LBB14_21
.LBB14_21:                              # %if.end81
                                        #   in Loop: Header=BB14_14 Depth=1
	jmp	.LBB14_22
.LBB14_22:                              # %for.inc82
                                        #   in Loop: Header=BB14_14 Depth=1
	movl	-12(%rbp), %eax
	addl	$1, %eax
	movl	%eax, -12(%rbp)
	jmp	.LBB14_14
.LBB14_23:                              # %for.end84
	jmp	.LBB14_29
.LBB14_24:                              # %if.else85
	movq	-8(%rbp), %rax
	movl	$0, 36(%rax)
	movl	$0, -12(%rbp)
.LBB14_25:                              # %for.cond87
                                        # =>This Inner Loop Header: Depth=1
	cmpl	$8, -12(%rbp)
	jae	.LBB14_28
# %bb.26:                               # %for.body90
                                        #   in Loop: Header=BB14_25 Depth=1
	movq	-8(%rbp), %rax
	movl	-12(%rbp), %ecx
	movl	$0, 40(%rax,%rcx,4)
# %bb.27:                               # %for.inc94
                                        #   in Loop: Header=BB14_25 Depth=1
	movl	-12(%rbp), %eax
	addl	$1, %eax
	movl	%eax, -12(%rbp)
	jmp	.LBB14_25
.LBB14_28:                              # %for.end96
	jmp	.LBB14_29
.LBB14_29:                              # %if.end97
	movq	img, %rax
	cmpl	$0, 72728(%rax)
	jne	.LBB14_31
# %bb.30:                               # %lor.lhs.false100
	movq	img, %rax
	cmpl	$0, 72732(%rax)
	je	.LBB14_36
.LBB14_31:                              # %if.then103
	movq	-8(%rbp), %rax
	movl	$1, 1160(%rax)
	movq	-8(%rbp), %rax
	movl	$0, 1164(%rax)
	movq	-8(%rbp), %rax
	movl	$0, 1172(%rax)
	movq	img, %rax
	movl	72728(%rax), %eax
	movq	-8(%rbp), %rcx
	movl	32(%rcx), %ecx
	cltd
	idivl	-80(%rbp,%rcx,4)
	movq	-8(%rbp), %rcx
	movl	%eax, 1168(%rcx)
	movq	img, %rax
	movl	72732(%rax), %eax
	movq	-8(%rbp), %rcx
	movl	32(%rcx), %ecx
	movl	-64(%rbp,%rcx,4), %ecx
	movq	-8(%rbp), %rdx
	movl	$2, %esi
	subl	1148(%rdx), %esi
	imull	%esi, %ecx
	xorl	%edx, %edx
	divl	%ecx
	movq	-8(%rbp), %rcx
	movl	%eax, 1176(%rcx)
	movq	img, %rax
	movl	72728(%rax), %eax
	movq	-8(%rbp), %rcx
	movl	32(%rcx), %ecx
	cltd
	idivl	-80(%rbp,%rcx,4)
	cmpl	$0, %edx
	je	.LBB14_33
# %bb.32:                               # %if.then122
	movabsq	$.L.str, %rdi
	movl	$500, %esi              # imm = 0x1F4
	callq	error
.LBB14_33:                              # %if.end123
	movq	img, %rax
	movl	72732(%rax), %eax
	movq	-8(%rbp), %rcx
	movl	32(%rcx), %ecx
	movl	-64(%rbp,%rcx,4), %ecx
	movq	-8(%rbp), %rdx
	movl	$2, %esi
	subl	1148(%rdx), %esi
	imull	%esi, %ecx
	xorl	%edx, %edx
	divl	%ecx
	cmpl	$0, %edx
	je	.LBB14_35
# %bb.34:                               # %if.then133
	movabsq	$.L.str.1, %rdi
	movl	$500, %esi              # imm = 0x1F4
	callq	error
.LBB14_35:                              # %if.end134
	jmp	.LBB14_37
.LBB14_36:                              # %if.else135
	movq	-8(%rbp), %rax
	movl	$0, 1160(%rax)
.LBB14_37:                              # %if.end137
	cmpl	$102839959, -16(%rbp)   # imm = 0x6213697
	jne	.LBB14_39
.LBB14_38:
	addq	$96, %rsp
	popq	%rbp
	.cfi_def_cfa %rsp, 8
	retq
.LBB14_39:                              # %func_exit
	.cfi_def_cfa %rbp, 16
	callq	detect_breach
	jmp	.LBB14_38
.Lfunc_end14:
	.size	GenerateSequenceParameterSet.3, .Lfunc_end14-GenerateSequenceParameterSet.3
	.cfi_endproc
                                        # -- End function
	.globl	GenerateParameterSets.4 # -- Begin function GenerateParameterSets.4
	.p2align	4, 0x90
	.type	GenerateParameterSets.4,@function
GenerateParameterSets.4:                # @GenerateParameterSets.4
	.cfi_startproc
# %bb.0:                                # %entry
	pushq	%rbp
	.cfi_def_cfa_offset 16
	.cfi_offset %rbp, -16
	movq	%rsp, %rbp
	.cfi_def_cfa_register %rbp
	subq	$32, %rsp
	movl	$553492839, -20(%rbp)   # imm = 0x20FDA167
	movq	$0, -16(%rbp)
	movq	$0, -8(%rbp)
	movb	$0, %al
	callq	AllocSPS
	movq	%rax, -16(%rbp)
	movb	$0, %al
	callq	AllocPPS
	movq	%rax, -8(%rbp)
	movq	-16(%rbp), %rdi
	xorl	%esi, %esi
	callq	GenerateSequenceParameterSet
	movq	input, %rax
	cmpl	$0, 60(%rax)
	je	.LBB15_5
# %bb.1:                                # %if.then
	movq	-16(%rbp), %rax
	cmpl	$100, 4(%rax)
	jb	.LBB15_3
# %bb.2:                                # %if.then2
	movq	-8(%rbp), %rdi
	movq	-16(%rbp), %rsi
	movq	input, %rax
	movl	3316(%rax), %r9d
	movq	input, %rax
	movl	3320(%rax), %eax
	xorl	%edx, %edx
	xorl	%ecx, %ecx
	xorl	%r8d, %r8d
	movl	%eax, (%rsp)
	callq	GeneratePictureParameterSet
	movabsq	$PicParSet, %rdi
	movq	-8(%rbp), %rsi
	movl	$240, %edx
	callq	memcpy
	movq	-8(%rbp), %rdi
	movq	-16(%rbp), %rsi
	movq	input, %rax
	movl	3316(%rax), %r9d
	movq	input, %rax
	movl	3320(%rax), %eax
	movl	$1, %edx
	movl	$1, %ecx
	movl	$1, %r8d
	movl	%eax, (%rsp)
	callq	GeneratePictureParameterSet
	movabsq	$PicParSet, %rdi
	addq	$240, %rdi
	movq	-8(%rbp), %rsi
	movl	$240, %edx
	callq	memcpy
	movq	-8(%rbp), %rdi
	movq	-16(%rbp), %rsi
	movq	input, %rax
	movl	3316(%rax), %r9d
	movq	input, %rax
	movl	3320(%rax), %eax
	movl	$2, %edx
	movl	$1, %ecx
	movl	$2, %r8d
	movl	%eax, (%rsp)
	callq	GeneratePictureParameterSet
	movabsq	$PicParSet, %rdi
	addq	$480, %rdi              # imm = 0x1E0
	movq	-8(%rbp), %rsi
	movl	$240, %edx
	callq	memcpy
	jmp	.LBB15_4
.LBB15_3:                               # %if.else
	movq	-8(%rbp), %rdi
	movq	-16(%rbp), %rsi
	movq	input, %rax
	movl	2432(%rax), %r9d
	xorl	%edx, %edx
	xorl	%ecx, %ecx
	xorl	%r8d, %r8d
	movl	$0, (%rsp)
	callq	GeneratePictureParameterSet
	xorl	%eax, %eax
	movabsq	$PicParSet, %rdi
	movq	-8(%rbp), %rsi
	movl	$240, %edx
	callq	memcpy
	movq	-8(%rbp), %rdi
	movq	-16(%rbp), %rsi
	movq	input, %rax
	movl	2432(%rax), %r9d
	movl	$1, %edx
	movl	$1, %ecx
	movl	$1, %r8d
	movl	$0, (%rsp)
	callq	GeneratePictureParameterSet
	xorl	%eax, %eax
	movabsq	$PicParSet, %rdi
	addq	$240, %rdi
	movq	-8(%rbp), %rsi
	movl	$240, %edx
	callq	memcpy
	movq	-8(%rbp), %rdi
	movq	-16(%rbp), %rsi
	movq	input, %rax
	movl	2432(%rax), %r9d
	movl	$2, %edx
	movl	$1, %ecx
	movl	$2, %r8d
	movl	$0, (%rsp)
	callq	GeneratePictureParameterSet
	movabsq	$PicParSet, %rdi
	addq	$480, %rdi              # imm = 0x1E0
	movq	-8(%rbp), %rsi
	movl	$240, %edx
	callq	memcpy
.LBB15_4:                               # %if.end
	jmp	.LBB15_9
.LBB15_5:                               # %if.else9
	movq	-16(%rbp), %rax
	cmpl	$100, 4(%rax)
	jb	.LBB15_7
# %bb.6:                                # %if.then12
	movq	-8(%rbp), %rdi
	movq	-16(%rbp), %rsi
	movq	input, %rax
	movl	1284(%rax), %ecx
	movq	input, %rax
	movl	1288(%rax), %r8d
	movq	input, %rax
	movl	3316(%rax), %r9d
	movq	input, %rax
	movl	3320(%rax), %eax
	xorl	%edx, %edx
	movl	%eax, (%rsp)
	callq	GeneratePictureParameterSet
	jmp	.LBB15_8
.LBB15_7:                               # %if.else15
	movq	-8(%rbp), %rdi
	movq	-16(%rbp), %rsi
	movq	input, %rax
	movl	1284(%rax), %ecx
	movq	input, %rax
	movl	1288(%rax), %r8d
	movq	input, %rax
	movl	2432(%rax), %r9d
	xorl	%edx, %edx
	movl	$0, (%rsp)
	callq	GeneratePictureParameterSet
.LBB15_8:                               # %if.end19
	movabsq	$PicParSet, %rdi
	movq	-8(%rbp), %rsi
	movl	$240, %edx
	callq	memcpy
.LBB15_9:                               # %if.end20
	movq	-16(%rbp), %rax
	movq	%rax, active_sps
	movabsq	$PicParSet, %rax
	movq	%rax, active_pps
	cmpl	$553492839, -20(%rbp)   # imm = 0x20FDA167
	jne	.LBB15_11
.LBB15_10:
	addq	$32, %rsp
	popq	%rbp
	.cfi_def_cfa %rsp, 8
	retq
.LBB15_11:                              # %func_exit
	.cfi_def_cfa %rbp, 16
	callq	detect_breach
	jmp	.LBB15_10
.Lfunc_end15:
	.size	GenerateParameterSets.4, .Lfunc_end15-GenerateParameterSets.4
	.cfi_endproc
                                        # -- End function
	.globl	Scaling_List.5          # -- Begin function Scaling_List.5
	.p2align	4, 0x90
	.type	Scaling_List.5,@function
Scaling_List.5:                         # @Scaling_List.5
	.cfi_startproc
# %bb.0:                                # %entry
	pushq	%rbp
	.cfi_def_cfa_offset 16
	.cfi_offset %rbp, -16
	movq	%rsp, %rbp
	.cfi_def_cfa_register %rbp
	pushq	%rbx
	subq	$72, %rsp
	.cfi_offset %rbx, -24
	movl	$1320623407, -40(%rbp)  # imm = 0x4EB71D2F
	movq	%rdi, -56(%rbp)
	movq	%rsi, -48(%rbp)
	movl	%edx, -36(%rbp)
	movq	%rcx, -64(%rbp)
	movq	%r8, -72(%rbp)
	movl	$0, -32(%rbp)
	movl	$8, -28(%rbp)
	movl	$8, -24(%rbp)
	movl	$0, -16(%rbp)
.LBB16_1:                               # %for.cond
                                        # =>This Inner Loop Header: Depth=1
	movl	-16(%rbp), %eax
	cmpl	-36(%rbp), %eax
	jge	.LBB16_19
# %bb.2:                                # %for.body
                                        #   in Loop: Header=BB16_1 Depth=1
	cmpl	$16, -36(%rbp)
	jne	.LBB16_4
# %bb.3:                                # %cond.true
                                        #   in Loop: Header=BB16_1 Depth=1
	movslq	-16(%rbp), %rax
	movzbl	ZZ_SCAN(,%rax), %eax
	jmp	.LBB16_5
.LBB16_4:                               # %cond.false
                                        #   in Loop: Header=BB16_1 Depth=1
	movslq	-16(%rbp), %rax
	movzbl	ZZ_SCAN8(,%rax), %eax
.LBB16_5:                               # %cond.end
                                        #   in Loop: Header=BB16_1 Depth=1
	movl	%eax, -20(%rbp)
	cmpl	$0, -24(%rbp)
	je	.LBB16_14
# %bb.6:                                # %if.then
                                        #   in Loop: Header=BB16_1 Depth=1
	movq	-56(%rbp), %rax
	movslq	-20(%rbp), %rcx
	movswl	(%rax,%rcx,2), %eax
	subl	-28(%rbp), %eax
	movl	%eax, -12(%rbp)
	cmpl	$127, -12(%rbp)
	jle	.LBB16_8
# %bb.7:                                # %if.then12
                                        #   in Loop: Header=BB16_1 Depth=1
	movl	-12(%rbp), %eax
	subl	$256, %eax              # imm = 0x100
	movl	%eax, -12(%rbp)
	jmp	.LBB16_11
.LBB16_8:                               # %if.else
                                        #   in Loop: Header=BB16_1 Depth=1
	cmpl	$-128, -12(%rbp)
	jge	.LBB16_10
# %bb.9:                                # %if.then16
                                        #   in Loop: Header=BB16_1 Depth=1
	movl	-12(%rbp), %eax
	addl	$256, %eax              # imm = 0x100
	movl	%eax, -12(%rbp)
.LBB16_10:                              # %if.end
                                        #   in Loop: Header=BB16_1 Depth=1
	jmp	.LBB16_11
.LBB16_11:                              # %if.end17
                                        #   in Loop: Header=BB16_1 Depth=1
	movl	-12(%rbp), %esi
	movq	-72(%rbp), %rdx
	movabsq	$.L.str.3, %rdi
	callq	se_v
	xorl	%ecx, %ecx
	addl	-32(%rbp), %eax
	movl	%eax, -32(%rbp)
	movq	-56(%rbp), %rax
	movslq	-20(%rbp), %rdx
	movswl	(%rax,%rdx,2), %eax
	movl	%eax, -24(%rbp)
	cmpl	$0, -20(%rbp)
	jne	.LBB16_13
# %bb.12:                               # %land.rhs
                                        #   in Loop: Header=BB16_1 Depth=1
	cmpl	$0, -24(%rbp)
	sete	%cl
.LBB16_13:                              # %land.end
                                        #   in Loop: Header=BB16_1 Depth=1
	andb	$1, %cl
	movzbl	%cl, %eax
	movq	-64(%rbp), %rcx
	movswl	(%rcx), %edx
	orl	%eax, %edx
	movw	%dx, (%rcx)
.LBB16_14:                              # %if.end28
                                        #   in Loop: Header=BB16_1 Depth=1
	cmpl	$0, -24(%rbp)
	jne	.LBB16_16
# %bb.15:                               # %cond.true31
                                        #   in Loop: Header=BB16_1 Depth=1
	movl	-28(%rbp), %eax
	jmp	.LBB16_17
.LBB16_16:                              # %cond.false32
                                        #   in Loop: Header=BB16_1 Depth=1
	movl	-24(%rbp), %eax
.LBB16_17:                              # %cond.end33
                                        #   in Loop: Header=BB16_1 Depth=1
	movq	-48(%rbp), %rcx
	movslq	-20(%rbp), %rdx
	movw	%ax, (%rcx,%rdx,2)
	movq	-48(%rbp), %rax
	movslq	-20(%rbp), %rcx
	movswl	(%rax,%rcx,2), %eax
	movl	%eax, -28(%rbp)
# %bb.18:                               # %for.inc
                                        #   in Loop: Header=BB16_1 Depth=1
	movl	-16(%rbp), %eax
	addl	$1, %eax
	movl	%eax, -16(%rbp)
	jmp	.LBB16_1
.LBB16_19:                              # %for.end
	movl	-32(%rbp), %ebx
	cmpl	$1320623407, -40(%rbp)  # imm = 0x4EB71D2F
	jne	.LBB16_21
.LBB16_20:
	movl	%ebx, %eax
	addq	$72, %rsp
	popq	%rbx
	popq	%rbp
	.cfi_def_cfa %rsp, 8
	retq
.LBB16_21:                              # %func_exit
	.cfi_def_cfa %rbp, 16
	callq	detect_breach
	jmp	.LBB16_20
.Lfunc_end16:
	.size	Scaling_List.5, .Lfunc_end16-Scaling_List.5
	.cfi_endproc
                                        # -- End function
	.globl	Scaling_List.6          # -- Begin function Scaling_List.6
	.p2align	4, 0x90
	.type	Scaling_List.6,@function
Scaling_List.6:                         # @Scaling_List.6
	.cfi_startproc
# %bb.0:                                # %entry
	pushq	%rbp
	.cfi_def_cfa_offset 16
	.cfi_offset %rbp, -16
	movq	%rsp, %rbp
	.cfi_def_cfa_register %rbp
	pushq	%rbx
	subq	$72, %rsp
	.cfi_offset %rbx, -24
	movl	$927609877, -40(%rbp)   # imm = 0x374A3415
	movq	%rdi, -48(%rbp)
	movq	%rsi, -56(%rbp)
	movl	%edx, -36(%rbp)
	movq	%rcx, -64(%rbp)
	movq	%r8, -72(%rbp)
	movl	$0, -28(%rbp)
	movl	$8, -32(%rbp)
	movl	$8, -16(%rbp)
	movl	$0, -20(%rbp)
.LBB17_1:                               # %for.cond
                                        # =>This Inner Loop Header: Depth=1
	movl	-20(%rbp), %eax
	cmpl	-36(%rbp), %eax
	jge	.LBB17_19
# %bb.2:                                # %for.body
                                        #   in Loop: Header=BB17_1 Depth=1
	cmpl	$16, -36(%rbp)
	jne	.LBB17_4
# %bb.3:                                # %cond.true
                                        #   in Loop: Header=BB17_1 Depth=1
	movslq	-20(%rbp), %rax
	movzbl	ZZ_SCAN(,%rax), %eax
	jmp	.LBB17_5
.LBB17_4:                               # %cond.false
                                        #   in Loop: Header=BB17_1 Depth=1
	movslq	-20(%rbp), %rax
	movzbl	ZZ_SCAN8(,%rax), %eax
.LBB17_5:                               # %cond.end
                                        #   in Loop: Header=BB17_1 Depth=1
	movl	%eax, -24(%rbp)
	cmpl	$0, -16(%rbp)
	je	.LBB17_14
# %bb.6:                                # %if.then
                                        #   in Loop: Header=BB17_1 Depth=1
	movq	-48(%rbp), %rax
	movslq	-24(%rbp), %rcx
	movswl	(%rax,%rcx,2), %eax
	subl	-32(%rbp), %eax
	movl	%eax, -12(%rbp)
	cmpl	$127, -12(%rbp)
	jle	.LBB17_8
# %bb.7:                                # %if.then12
                                        #   in Loop: Header=BB17_1 Depth=1
	movl	-12(%rbp), %eax
	subl	$256, %eax              # imm = 0x100
	movl	%eax, -12(%rbp)
	jmp	.LBB17_11
.LBB17_8:                               # %if.else
                                        #   in Loop: Header=BB17_1 Depth=1
	cmpl	$-128, -12(%rbp)
	jge	.LBB17_10
# %bb.9:                                # %if.then16
                                        #   in Loop: Header=BB17_1 Depth=1
	movl	-12(%rbp), %eax
	addl	$256, %eax              # imm = 0x100
	movl	%eax, -12(%rbp)
.LBB17_10:                              # %if.end
                                        #   in Loop: Header=BB17_1 Depth=1
	jmp	.LBB17_11
.LBB17_11:                              # %if.end17
                                        #   in Loop: Header=BB17_1 Depth=1
	movl	-12(%rbp), %esi
	movq	-72(%rbp), %rdx
	movabsq	$.L.str.3, %rdi
	callq	se_v
	xorl	%ecx, %ecx
	addl	-28(%rbp), %eax
	movl	%eax, -28(%rbp)
	movq	-48(%rbp), %rax
	movslq	-24(%rbp), %rdx
	movswl	(%rax,%rdx,2), %eax
	movl	%eax, -16(%rbp)
	cmpl	$0, -24(%rbp)
	jne	.LBB17_13
# %bb.12:                               # %land.rhs
                                        #   in Loop: Header=BB17_1 Depth=1
	cmpl	$0, -16(%rbp)
	sete	%cl
.LBB17_13:                              # %land.end
                                        #   in Loop: Header=BB17_1 Depth=1
	andb	$1, %cl
	movzbl	%cl, %eax
	movq	-64(%rbp), %rcx
	movswl	(%rcx), %edx
	orl	%eax, %edx
	movw	%dx, (%rcx)
.LBB17_14:                              # %if.end28
                                        #   in Loop: Header=BB17_1 Depth=1
	cmpl	$0, -16(%rbp)
	jne	.LBB17_16
# %bb.15:                               # %cond.true31
                                        #   in Loop: Header=BB17_1 Depth=1
	movl	-32(%rbp), %eax
	jmp	.LBB17_17
.LBB17_16:                              # %cond.false32
                                        #   in Loop: Header=BB17_1 Depth=1
	movl	-16(%rbp), %eax
.LBB17_17:                              # %cond.end33
                                        #   in Loop: Header=BB17_1 Depth=1
	movq	-56(%rbp), %rcx
	movslq	-24(%rbp), %rdx
	movw	%ax, (%rcx,%rdx,2)
	movq	-56(%rbp), %rax
	movslq	-24(%rbp), %rcx
	movswl	(%rax,%rcx,2), %eax
	movl	%eax, -32(%rbp)
# %bb.18:                               # %for.inc
                                        #   in Loop: Header=BB17_1 Depth=1
	movl	-20(%rbp), %eax
	addl	$1, %eax
	movl	%eax, -20(%rbp)
	jmp	.LBB17_1
.LBB17_19:                              # %for.end
	movl	-28(%rbp), %ebx
	cmpl	$927609877, -40(%rbp)   # imm = 0x374A3415
	jne	.LBB17_21
.LBB17_20:
	movl	%ebx, %eax
	addq	$72, %rsp
	popq	%rbx
	popq	%rbp
	.cfi_def_cfa %rsp, 8
	retq
.LBB17_21:                              # %func_exit
	.cfi_def_cfa %rbp, 16
	callq	detect_breach
	jmp	.LBB17_20
.Lfunc_end17:
	.size	Scaling_List.6, .Lfunc_end17-Scaling_List.6
	.cfi_endproc
                                        # -- End function
	.globl	GenerateSeq_parameter_set_NALU.7 # -- Begin function GenerateSeq_parameter_set_NALU.7
	.p2align	4, 0x90
	.type	GenerateSeq_parameter_set_NALU.7,@function
GenerateSeq_parameter_set_NALU.7:       # @GenerateSeq_parameter_set_NALU.7
	.cfi_startproc
# %bb.0:                                # %entry
	pushq	%rbp
	.cfi_def_cfa_offset 16
	.cfi_offset %rbp, -16
	movq	%rsp, %rbp
	.cfi_def_cfa_register %rbp
	pushq	%rbx
	subq	$64040, %rsp            # imm = 0xFA28
	.cfi_offset %rbx, -24
	movl	$1157181119, -28(%rbp)  # imm = 0x44F92EBF
	movl	$64000, %edi            # imm = 0xFA00
	movb	$0, %al
	callq	AllocNALU
	leaq	-64032(%rbp), %rsi
	movq	%rax, -24(%rbp)
	movl	$0, -12(%rbp)
	movq	active_sps, %rdi
	callq	GenerateSeq_parameter_set_rbsp
	leaq	-64032(%rbp), %rdi
	movl	%eax, -12(%rbp)
	movq	-24(%rbp), %rsi
	movl	-12(%rbp), %edx
	movl	$7, %ecx
	movl	$3, %r8d
	xorl	%r9d, %r9d
	movl	$1, (%rsp)
	callq	RBSPtoNALU
	movl	%eax, -32(%rbp)
	movq	-24(%rbp), %rax
	movl	$4, (%rax)
	movq	-24(%rbp), %rbx
	cmpl	$1157181119, -28(%rbp)  # imm = 0x44F92EBF
	jne	.LBB18_2
.LBB18_1:
	movq	%rbx, %rax
	addq	$64040, %rsp            # imm = 0xFA28
	popq	%rbx
	popq	%rbp
	.cfi_def_cfa %rsp, 8
	retq
.LBB18_2:                               # %func_exit
	.cfi_def_cfa %rbp, 16
	callq	detect_breach
	jmp	.LBB18_1
.Lfunc_end18:
	.size	GenerateSeq_parameter_set_NALU.7, .Lfunc_end18-GenerateSeq_parameter_set_NALU.7
	.cfi_endproc
                                        # -- End function
	.globl	GeneratePic_parameter_set_rbsp.8 # -- Begin function GeneratePic_parameter_set_rbsp.8
	.p2align	4, 0x90
	.type	GeneratePic_parameter_set_rbsp.8,@function
GeneratePic_parameter_set_rbsp.8:       # @GeneratePic_parameter_set_rbsp.8
	.cfi_startproc
# %bb.0:                                # %entry
	pushq	%rbp
	.cfi_def_cfa_offset 16
	.cfi_offset %rbp, -16
	movq	%rsp, %rbp
	.cfi_def_cfa_register %rbp
	pushq	%rbx
	subq	$56, %rsp
	.cfi_offset %rbx, -24
	movl	$69120942, -44(%rbp)    # imm = 0x41EB3AE
	movq	%rdi, -24(%rbp)
	movq	%rsi, -56(%rbp)
	movl	$0, -12(%rbp)
	movl	$1, %edi
	movl	$120, %esi
	callq	calloc
	movq	%rax, -32(%rbp)
	cmpq	$0, %rax
	jne	.LBB19_2
# %bb.1:                                # %if.then
	movabsq	$.L.str.42, %rdi
	callq	no_mem_exit
.LBB19_2:                               # %if.end
	movl	$1, %edi
	movl	$48, %esi
	callq	calloc
	movq	-32(%rbp), %rcx
	movq	%rax, (%rcx)
	cmpq	$0, %rax
	jne	.LBB19_4
# %bb.3:                                # %if.then3
	movabsq	$.L.str.43, %rdi
	callq	no_mem_exit
.LBB19_4:                               # %if.end4
	movq	-56(%rbp), %rax
	movq	-32(%rbp), %rcx
	movq	(%rcx), %rcx
	movq	%rax, 32(%rcx)
	movq	-32(%rbp), %rax
	movq	(%rax), %rax
	movl	$8, 4(%rax)
	movq	img, %rax
	movl	72492(%rax), %eax
	movq	-24(%rbp), %rcx
	movl	%eax, 56(%rcx)
	movq	-24(%rbp), %rax
	movl	4(%rax), %esi
	movq	-32(%rbp), %rdx
	movabsq	$.L.str.44, %rdi
	callq	ue_v
	addl	-12(%rbp), %eax
	movl	%eax, -12(%rbp)
	movq	-24(%rbp), %rax
	movl	8(%rax), %esi
	movq	-32(%rbp), %rdx
	movabsq	$.L.str.45, %rdi
	callq	ue_v
	addl	-12(%rbp), %eax
	movl	%eax, -12(%rbp)
	movq	-24(%rbp), %rax
	movl	12(%rax), %esi
	movq	-32(%rbp), %rdx
	movabsq	$.L.str.46, %rdi
	callq	u_1
	addl	-12(%rbp), %eax
	movl	%eax, -12(%rbp)
	movq	-24(%rbp), %rax
	movl	56(%rax), %esi
	movq	-32(%rbp), %rdx
	movabsq	$.L.str.47, %rdi
	callq	u_1
	addl	-12(%rbp), %eax
	movl	%eax, -12(%rbp)
	movq	-24(%rbp), %rax
	movl	60(%rax), %esi
	movq	-32(%rbp), %rdx
	movabsq	$.L.str.48, %rdi
	callq	ue_v
	addl	-12(%rbp), %eax
	movl	%eax, -12(%rbp)
	movq	-24(%rbp), %rax
	cmpl	$0, 60(%rax)
	jbe	.LBB19_40
# %bb.5:                                # %if.then20
	movq	-24(%rbp), %rax
	movl	64(%rax), %esi
	movq	-32(%rbp), %rdx
	movabsq	$.L.str.49, %rdi
	callq	ue_v
	addl	-12(%rbp), %eax
	movl	%eax, -12(%rbp)
	movq	-24(%rbp), %rax
	cmpl	$0, 64(%rax)
	jne	.LBB19_11
# %bb.6:                                # %if.then25
	movl	$0, -16(%rbp)
.LBB19_7:                               # %for.cond
                                        # =>This Inner Loop Header: Depth=1
	movl	-16(%rbp), %eax
	movq	-24(%rbp), %rcx
	cmpl	60(%rcx), %eax
	ja	.LBB19_10
# %bb.8:                                # %for.body
                                        #   in Loop: Header=BB19_7 Depth=1
	movq	-24(%rbp), %rax
	movl	-16(%rbp), %ecx
	movl	68(%rax,%rcx,4), %esi
	movq	-32(%rbp), %rdx
	movabsq	$.L.str.50, %rdi
	callq	ue_v
	addl	-12(%rbp), %eax
	movl	%eax, -12(%rbp)
# %bb.9:                                # %for.inc
                                        #   in Loop: Header=BB19_7 Depth=1
	movl	-16(%rbp), %eax
	addl	$1, %eax
	movl	%eax, -16(%rbp)
	jmp	.LBB19_7
.LBB19_10:                              # %for.end
	jmp	.LBB19_39
.LBB19_11:                              # %if.else
	movq	-24(%rbp), %rax
	cmpl	$2, 64(%rax)
	jne	.LBB19_17
# %bb.12:                               # %if.then32
	movl	$0, -16(%rbp)
.LBB19_13:                              # %for.cond33
                                        # =>This Inner Loop Header: Depth=1
	movl	-16(%rbp), %eax
	movq	-24(%rbp), %rcx
	cmpl	60(%rcx), %eax
	jae	.LBB19_16
# %bb.14:                               # %for.body36
                                        #   in Loop: Header=BB19_13 Depth=1
	movq	-24(%rbp), %rax
	movl	-16(%rbp), %ecx
	movl	100(%rax,%rcx,4), %esi
	movq	-32(%rbp), %rdx
	movabsq	$.L.str.51, %rdi
	callq	ue_v
	addl	-12(%rbp), %eax
	movl	%eax, -12(%rbp)
	movq	-24(%rbp), %rax
	movl	-16(%rbp), %ecx
	movl	132(%rax,%rcx,4), %esi
	movq	-32(%rbp), %rdx
	movabsq	$.L.str.52, %rdi
	callq	ue_v
	addl	-12(%rbp), %eax
	movl	%eax, -12(%rbp)
# %bb.15:                               # %for.inc45
                                        #   in Loop: Header=BB19_13 Depth=1
	movl	-16(%rbp), %eax
	addl	$1, %eax
	movl	%eax, -16(%rbp)
	jmp	.LBB19_13
.LBB19_16:                              # %for.end47
	jmp	.LBB19_38
.LBB19_17:                              # %if.else48
	movq	-24(%rbp), %rax
	cmpl	$3, 64(%rax)
	je	.LBB19_20
# %bb.18:                               # %lor.lhs.false
	movq	-24(%rbp), %rax
	cmpl	$4, 64(%rax)
	je	.LBB19_20
# %bb.19:                               # %lor.lhs.false53
	movq	-24(%rbp), %rax
	cmpl	$5, 64(%rax)
	jne	.LBB19_21
.LBB19_20:                              # %if.then56
	movq	-24(%rbp), %rax
	movl	164(%rax), %esi
	movq	-32(%rbp), %rdx
	movabsq	$.L.str.53, %rdi
	callq	u_1
	addl	-12(%rbp), %eax
	movl	%eax, -12(%rbp)
	movq	-24(%rbp), %rax
	movl	168(%rax), %esi
	movq	-32(%rbp), %rdx
	movabsq	$.L.str.54, %rdi
	callq	ue_v
	addl	-12(%rbp), %eax
	movl	%eax, -12(%rbp)
	jmp	.LBB19_37
.LBB19_21:                              # %if.else61
	movq	-24(%rbp), %rax
	cmpl	$6, 64(%rax)
	jne	.LBB19_36
# %bb.22:                               # %if.then64
	movq	-24(%rbp), %rax
	cmpl	$4, 60(%rax)
	jb	.LBB19_24
# %bb.23:                               # %if.then67
	movl	$3, -40(%rbp)
	jmp	.LBB19_31
.LBB19_24:                              # %if.else68
	movq	-24(%rbp), %rax
	cmpl	$2, 60(%rax)
	jb	.LBB19_26
# %bb.25:                               # %if.then71
	movl	$2, -40(%rbp)
	jmp	.LBB19_30
.LBB19_26:                              # %if.else72
	movq	-24(%rbp), %rax
	cmpl	$1, 60(%rax)
	jb	.LBB19_28
# %bb.27:                               # %if.then75
	movl	$1, -40(%rbp)
	jmp	.LBB19_29
.LBB19_28:                              # %if.else76
	movl	$0, -40(%rbp)
.LBB19_29:                              # %if.end77
	jmp	.LBB19_30
.LBB19_30:                              # %if.end78
	jmp	.LBB19_31
.LBB19_31:                              # %if.end79
	movq	-24(%rbp), %rax
	movl	172(%rax), %esi
	movq	-32(%rbp), %rdx
	movabsq	$.L.str.55, %rdi
	callq	ue_v
	addl	-12(%rbp), %eax
	movl	%eax, -12(%rbp)
	movl	$0, -16(%rbp)
.LBB19_32:                              # %for.cond82
                                        # =>This Inner Loop Header: Depth=1
	movl	-16(%rbp), %eax
	movq	-24(%rbp), %rcx
	cmpl	172(%rcx), %eax
	ja	.LBB19_35
# %bb.33:                               # %for.body85
                                        #   in Loop: Header=BB19_32 Depth=1
	movl	-40(%rbp), %edi
	movq	-24(%rbp), %rax
	movq	176(%rax), %rax
	movl	-16(%rbp), %ecx
	movzbl	(%rax,%rcx), %edx
	movq	-32(%rbp), %rcx
	movabsq	$.L.str.56, %rsi
	callq	u_v
	addl	-12(%rbp), %eax
	movl	%eax, -12(%rbp)
# %bb.34:                               # %for.inc90
                                        #   in Loop: Header=BB19_32 Depth=1
	movl	-16(%rbp), %eax
	addl	$1, %eax
	movl	%eax, -16(%rbp)
	jmp	.LBB19_32
.LBB19_35:                              # %for.end92
	jmp	.LBB19_36
.LBB19_36:                              # %if.end93
	jmp	.LBB19_37
.LBB19_37:                              # %if.end94
	jmp	.LBB19_38
.LBB19_38:                              # %if.end95
	jmp	.LBB19_39
.LBB19_39:                              # %if.end96
	jmp	.LBB19_40
.LBB19_40:                              # %if.end97
	movq	-24(%rbp), %rax
	movl	184(%rax), %esi
	movq	-32(%rbp), %rdx
	movabsq	$.L.str.57, %rdi
	callq	ue_v
	addl	-12(%rbp), %eax
	movl	%eax, -12(%rbp)
	movq	-24(%rbp), %rax
	movl	188(%rax), %esi
	movq	-32(%rbp), %rdx
	movabsq	$.L.str.58, %rdi
	callq	ue_v
	addl	-12(%rbp), %eax
	movl	%eax, -12(%rbp)
	movq	-24(%rbp), %rax
	movl	192(%rax), %esi
	movq	-32(%rbp), %rdx
	movabsq	$.L.str.59, %rdi
	callq	u_1
	addl	-12(%rbp), %eax
	movl	%eax, -12(%rbp)
	movq	-24(%rbp), %rax
	movl	196(%rax), %edx
	movq	-32(%rbp), %rcx
	movl	$2, %edi
	movabsq	$.L.str.60, %rsi
	callq	u_v
	addl	-12(%rbp), %eax
	movl	%eax, -12(%rbp)
	movq	-24(%rbp), %rax
	movl	200(%rax), %esi
	movq	-32(%rbp), %rdx
	movabsq	$.L.str.61, %rdi
	callq	se_v
	addl	-12(%rbp), %eax
	movl	%eax, -12(%rbp)
	movq	-24(%rbp), %rax
	movl	204(%rax), %esi
	movq	-32(%rbp), %rdx
	movabsq	$.L.str.62, %rdi
	callq	se_v
	addl	-12(%rbp), %eax
	movl	%eax, -12(%rbp)
	callq	IdentifyProfile
	movl	%eax, -36(%rbp)
	cmpl	$100, -36(%rbp)
	je	.LBB19_44
# %bb.41:                               # %lor.lhs.false113
	cmpl	$110, -36(%rbp)
	je	.LBB19_44
# %bb.42:                               # %lor.lhs.false116
	cmpl	$122, -36(%rbp)
	je	.LBB19_44
# %bb.43:                               # %lor.lhs.false119
	cmpl	$144, -36(%rbp)
	jne	.LBB19_45
.LBB19_44:                              # %if.then122
	movq	-24(%rbp), %rax
	movl	212(%rax), %esi
	movq	-32(%rbp), %rdx
	movabsq	$.L.str.63, %rdi
	callq	se_v
	addl	-12(%rbp), %eax
	movl	%eax, -12(%rbp)
	jmp	.LBB19_46
.LBB19_45:                              # %if.else125
	movq	-24(%rbp), %rax
	movl	208(%rax), %esi
	movq	-32(%rbp), %rdx
	movabsq	$.L.str.63, %rdi
	callq	se_v
	addl	-12(%rbp), %eax
	movl	%eax, -12(%rbp)
.LBB19_46:                              # %if.end128
	movq	-24(%rbp), %rax
	movl	220(%rax), %esi
	movq	-32(%rbp), %rdx
	movabsq	$.L.str.64, %rdi
	callq	u_1
	addl	-12(%rbp), %eax
	movl	%eax, -12(%rbp)
	movq	-24(%rbp), %rax
	movl	224(%rax), %esi
	movq	-32(%rbp), %rdx
	movabsq	$.L.str.65, %rdi
	callq	u_1
	addl	-12(%rbp), %eax
	movl	%eax, -12(%rbp)
	movq	-24(%rbp), %rax
	movl	228(%rax), %esi
	movq	-32(%rbp), %rdx
	movabsq	$.L.str.66, %rdi
	callq	u_1
	addl	-12(%rbp), %eax
	movl	%eax, -12(%rbp)
	cmpl	$100, -36(%rbp)
	je	.LBB19_50
# %bb.47:                               # %lor.lhs.false137
	cmpl	$110, -36(%rbp)
	je	.LBB19_50
# %bb.48:                               # %lor.lhs.false140
	cmpl	$122, -36(%rbp)
	je	.LBB19_50
# %bb.49:                               # %lor.lhs.false143
	cmpl	$144, -36(%rbp)
	jne	.LBB19_62
.LBB19_50:                              # %if.then146
	movq	-24(%rbp), %rax
	movl	16(%rax), %esi
	movq	-32(%rbp), %rdx
	movabsq	$.L.str.67, %rdi
	callq	u_1
	addl	-12(%rbp), %eax
	movl	%eax, -12(%rbp)
	movq	-24(%rbp), %rax
	movl	20(%rax), %esi
	movq	-32(%rbp), %rdx
	movabsq	$.L.str.68, %rdi
	callq	u_1
	addl	-12(%rbp), %eax
	movl	%eax, -12(%rbp)
	movq	-24(%rbp), %rax
	cmpl	$0, 20(%rax)
	je	.LBB19_61
# %bb.51:                               # %if.then152
	movl	$0, -16(%rbp)
.LBB19_52:                              # %for.cond153
                                        # =>This Inner Loop Header: Depth=1
	movl	-16(%rbp), %eax
	movq	-24(%rbp), %rcx
	movl	16(%rcx), %ecx
	shll	$1, %ecx
	addl	$6, %ecx
	cmpl	%ecx, %eax
	jae	.LBB19_60
# %bb.53:                               # %for.body158
                                        #   in Loop: Header=BB19_52 Depth=1
	movq	-24(%rbp), %rax
	movl	-16(%rbp), %ecx
	movl	24(%rax,%rcx,4), %esi
	movq	-32(%rbp), %rdx
	movabsq	$.L.str.69, %rdi
	callq	u_1
	addl	-12(%rbp), %eax
	movl	%eax, -12(%rbp)
	movq	-24(%rbp), %rax
	movl	-16(%rbp), %ecx
	cmpl	$0, 24(%rax,%rcx,4)
	je	.LBB19_58
# %bb.54:                               # %if.then167
                                        #   in Loop: Header=BB19_52 Depth=1
	cmpl	$6, -16(%rbp)
	jae	.LBB19_56
# %bb.55:                               # %if.then170
                                        #   in Loop: Header=BB19_52 Depth=1
	movl	-16(%rbp), %eax
	shlq	$5, %rax
	movabsq	$ScalingList4x4input, %rdi
	addq	%rax, %rdi
	movl	-16(%rbp), %eax
	shlq	$5, %rax
	movabsq	$ScalingList4x4, %rsi
	addq	%rax, %rsi
	movl	-16(%rbp), %eax
	shlq	$1, %rax
	movabsq	$UseDefaultScalingMatrix4x4Flag, %rcx
	addq	%rax, %rcx
	movq	-32(%rbp), %r8
	movl	$16, %edx
	callq	Scaling_List
	addl	-12(%rbp), %eax
	movl	%eax, -12(%rbp)
	jmp	.LBB19_57
.LBB19_56:                              # %if.else180
                                        #   in Loop: Header=BB19_52 Depth=1
	movl	-16(%rbp), %eax
	subl	$6, %eax
	movl	%eax, %eax
	shlq	$7, %rax
	movabsq	$ScalingList8x8input, %rdi
	addq	%rax, %rdi
	movl	-16(%rbp), %eax
	subl	$6, %eax
	movl	%eax, %eax
	shlq	$7, %rax
	movabsq	$ScalingList8x8, %rsi
	addq	%rax, %rsi
	movl	-16(%rbp), %eax
	subl	$6, %eax
	movl	%eax, %eax
	shlq	$1, %rax
	movabsq	$UseDefaultScalingMatrix8x8Flag, %rcx
	addq	%rax, %rcx
	movq	-32(%rbp), %r8
	movl	$64, %edx
	callq	Scaling_List
	addl	-12(%rbp), %eax
	movl	%eax, -12(%rbp)
.LBB19_57:                              # %if.end193
                                        #   in Loop: Header=BB19_52 Depth=1
	jmp	.LBB19_58
.LBB19_58:                              # %if.end194
                                        #   in Loop: Header=BB19_52 Depth=1
	jmp	.LBB19_59
.LBB19_59:                              # %for.inc195
                                        #   in Loop: Header=BB19_52 Depth=1
	movl	-16(%rbp), %eax
	addl	$1, %eax
	movl	%eax, -16(%rbp)
	jmp	.LBB19_52
.LBB19_60:                              # %for.end197
	jmp	.LBB19_61
.LBB19_61:                              # %if.end198
	movq	-24(%rbp), %rax
	movl	216(%rax), %esi
	movq	-32(%rbp), %rdx
	movabsq	$.L.str.70, %rdi
	callq	se_v
	addl	-12(%rbp), %eax
	movl	%eax, -12(%rbp)
.LBB19_62:                              # %if.end201
	movq	-32(%rbp), %rax
	movq	(%rax), %rdi
	callq	SODBtoRBSP
	movq	-32(%rbp), %rax
	movq	(%rax), %rax
	movl	(%rax), %eax
	movl	%eax, -48(%rbp)
	movq	-32(%rbp), %rax
	movq	(%rax), %rdi
	callq	free
	movq	-32(%rbp), %rdi
	callq	free
	movl	-48(%rbp), %ebx
	cmpl	$69120942, -44(%rbp)    # imm = 0x41EB3AE
	jne	.LBB19_64
.LBB19_63:
	movl	%ebx, %eax
	addq	$56, %rsp
	popq	%rbx
	popq	%rbp
	.cfi_def_cfa %rsp, 8
	retq
.LBB19_64:                              # %func_exit
	.cfi_def_cfa %rbp, 16
	callq	detect_breach
	jmp	.LBB19_63
.Lfunc_end19:
	.size	GeneratePic_parameter_set_rbsp.8, .Lfunc_end19-GeneratePic_parameter_set_rbsp.8
	.cfi_endproc
                                        # -- End function
	.globl	GenerateSequenceParameterSet.9 # -- Begin function GenerateSequenceParameterSet.9
	.p2align	4, 0x90
	.type	GenerateSequenceParameterSet.9,@function
GenerateSequenceParameterSet.9:         # @GenerateSequenceParameterSet.9
	.cfi_startproc
# %bb.0:                                # %entry
	pushq	%rbp
	.cfi_def_cfa_offset 16
	.cfi_offset %rbp, -16
	movq	%rsp, %rbp
	.cfi_def_cfa_register %rbp
	subq	$96, %rsp
	movl	$2112007671, -40(%rbp)  # imm = 0x7DE2ADF7
	movq	%rdi, -8(%rbp)
	movl	%esi, -84(%rbp)
	movq	.L__const.GenerateSequenceParameterSet.SubWidthC, %rax
	movq	%rax, -64(%rbp)
	movq	.L__const.GenerateSequenceParameterSet.SubWidthC+8, %rax
	movq	%rax, -56(%rbp)
	movq	.L__const.GenerateSequenceParameterSet.SubHeightC, %rax
	movq	%rax, -80(%rbp)
	movq	.L__const.GenerateSequenceParameterSet.SubHeightC+8, %rax
	movq	%rax, -72(%rbp)
	callq	IdentifyProfile
	cmpl	$100, %eax
	movb	$1, %al
	je	.LBB20_4
# %bb.1:                                # %lor.lhs.false
	callq	IdentifyProfile
	cmpl	$110, %eax
	movb	$1, %al
	je	.LBB20_4
# %bb.2:                                # %lor.lhs.false3
	callq	IdentifyProfile
	cmpl	$122, %eax
	movb	$1, %al
	je	.LBB20_4
# %bb.3:                                # %lor.rhs
	callq	IdentifyProfile
	cmpl	$144, %eax
	sete	%al
.LBB20_4:                               # %lor.end
	andb	$1, %al
	movzbl	%al, %eax
	movl	%eax, -28(%rbp)
	callq	IdentifyProfile
	movq	-8(%rbp), %rcx
	movl	%eax, 4(%rcx)
	callq	IdentifyLevel
	movq	-8(%rbp), %rcx
	movl	%eax, 24(%rcx)
	movq	-8(%rbp), %rax
	movl	$0, 8(%rax)
	movq	-8(%rbp), %rax
	movl	$0, 12(%rax)
	movq	-8(%rbp), %rax
	movl	$0, 16(%rax)
	movq	-8(%rbp), %rax
	movl	$0, 20(%rax)
	movq	-8(%rbp), %rax
	movl	$0, 28(%rax)
	movq	input, %rax
	movl	3296(%rax), %eax
	subl	$8, %eax
	movq	-8(%rbp), %rcx
	movl	%eax, 72(%rcx)
	movq	input, %rax
	movl	3300(%rax), %eax
	subl	$8, %eax
	movq	-8(%rbp), %rcx
	movl	%eax, 76(%rcx)
	movq	input, %rax
	movl	3324(%rax), %eax
	movq	-8(%rbp), %rcx
	cmpl	$144, 4(%rcx)
	sete	%cl
	andb	$1, %cl
	movzbl	%cl, %ecx
	andl	%ecx, %eax
	movq	img, %rcx
	movl	%eax, 72704(%rcx)
	movq	input, %rax
	movl	3328(%rax), %eax
	movq	img, %rcx
	movl	%eax, 72724(%rcx)
	movl	log2_max_frame_num_minus4, %eax
	movq	-8(%rbp), %rcx
	movl	%eax, 80(%rcx)
	movl	log2_max_pic_order_cnt_lsb_minus4, %eax
	movq	-8(%rbp), %rcx
	movl	%eax, 88(%rcx)
	movq	input, %rax
	movl	3208(%rax), %eax
	movq	-8(%rbp), %rcx
	movl	%eax, 84(%rcx)
	movq	img, %rax
	movl	72420(%rax), %eax
	movq	-8(%rbp), %rcx
	movl	%eax, 104(%rcx)
	movq	img, %rax
	movl	72408(%rax), %eax
	movq	-8(%rbp), %rcx
	movl	%eax, 92(%rcx)
	movq	img, %rax
	movl	72412(%rax), %eax
	movq	-8(%rbp), %rcx
	movl	%eax, 96(%rcx)
	movq	img, %rax
	movl	72416(%rax), %eax
	movq	-8(%rbp), %rcx
	movl	%eax, 100(%rcx)
	movl	$0, -12(%rbp)
.LBB20_5:                               # %for.cond
                                        # =>This Inner Loop Header: Depth=1
	movl	-12(%rbp), %eax
	movq	img, %rcx
	cmpl	72420(%rcx), %eax
	jae	.LBB20_8
# %bb.6:                                # %for.body
                                        #   in Loop: Header=BB20_5 Depth=1
	movq	img, %rax
	movl	-12(%rbp), %ecx
	movl	72424(%rax,%rcx,4), %eax
	movq	-8(%rbp), %rcx
	movl	-12(%rbp), %edx
	movl	%eax, 108(%rcx,%rdx,4)
# %bb.7:                                # %for.inc
                                        #   in Loop: Header=BB20_5 Depth=1
	movl	-12(%rbp), %eax
	addl	$1, %eax
	movl	%eax, -12(%rbp)
	jmp	.LBB20_5
.LBB20_8:                               # %for.end
	movq	input, %rax
	movl	36(%rax), %eax
	movq	-8(%rbp), %rcx
	movl	%eax, 1132(%rcx)
	movq	-8(%rbp), %rax
	movl	$0, 1136(%rax)
	movq	input, %rax
	cmpl	$0, 2880(%rax)
	movb	$1, %al
	jne	.LBB20_10
# %bb.9:                                # %lor.rhs26
	movq	input, %rax
	cmpl	$0, 2884(%rax)
	setne	%al
.LBB20_10:                              # %lor.end28
	xorl	%ecx, %ecx
	xorl	%esi, %esi
	xorb	$-1, %al
	andb	$1, %al
	movzbl	%al, %eax
	movq	-8(%rbp), %rdx
	movl	%eax, 1148(%rdx)
	movq	input, %rax
	movl	64(%rax), %eax
	movq	img, %rdx
	addl	72728(%rdx), %eax
	cltd
	movl	$16, %edi
	idivl	%edi
	subl	$1, %eax
	movq	-8(%rbp), %rdx
	movl	%eax, 1140(%rdx)
	movq	input, %rax
	movl	68(%rax), %eax
	movq	img, %rdx
	addl	72732(%rdx), %eax
	cltd
	idivl	%edi
	movq	-8(%rbp), %rdx
	movl	$2, %edi
	subl	1148(%rdx), %edi
	xorl	%edx, %edx
	divl	%edi
	subl	$1, %eax
	movq	-8(%rbp), %rdx
	movl	%eax, 1144(%rdx)
	movq	input, %rax
	cmpl	2884(%rax), %esi
	setne	%al
	andb	$1, %al
	movzbl	%al, %eax
	movq	-8(%rbp), %rdx
	movl	%eax, 1152(%rdx)
	movq	input, %rax
	movl	1252(%rax), %eax
	movq	-8(%rbp), %rdx
	movl	%eax, 1156(%rdx)
	movq	input, %rax
	cmpl	$0, 3312(%rax)
	je	.LBB20_12
# %bb.11:                               # %land.rhs
	movq	input, %rax
	cmpl	$3, 72(%rax)
	sete	%cl
.LBB20_12:                              # %land.end
	andb	$1, %cl
	movzbl	%cl, %eax
	movq	-8(%rbp), %rcx
	movl	%eax, 1180(%rcx)
	movq	input, %rax
	movl	72(%rax), %eax
	movq	-8(%rbp), %rcx
	movl	%eax, 32(%rcx)
	movq	-8(%rbp), %rax
	movl	1140(%rax), %eax
	addl	$1, %eax
	movl	%eax, -16(%rbp)
	movq	-8(%rbp), %rax
	movl	1144(%rax), %eax
	addl	$1, %eax
	movl	%eax, -24(%rbp)
	movq	-8(%rbp), %rax
	movl	$2, %ecx
	subl	1148(%rax), %ecx
	imull	-24(%rbp), %ecx
	movl	%ecx, -32(%rbp)
	movl	-16(%rbp), %eax
	shll	$4, %eax
	movl	%eax, -36(%rbp)
	movl	-32(%rbp), %eax
	shll	$4, %eax
	movl	%eax, -20(%rbp)
	movl	-36(%rbp), %edi
	movl	-20(%rbp), %esi
	movq	-8(%rbp), %rax
	movl	1152(%rax), %edx
	callq	alloc_colocated
	movq	%rax, Co_located
	cmpl	$0, -28(%rbp)
	je	.LBB20_24
# %bb.13:                               # %if.then
	movq	input, %rax
	movl	3256(%rax), %eax
	andl	$1, %eax
	movq	-8(%rbp), %rcx
	movl	%eax, 36(%rcx)
	movl	$0, -12(%rbp)
.LBB20_14:                              # %for.cond56
                                        # =>This Inner Loop Header: Depth=1
	cmpl	$8, -12(%rbp)
	jae	.LBB20_23
# %bb.15:                               # %for.body59
                                        #   in Loop: Header=BB20_14 Depth=1
	cmpl	$6, -12(%rbp)
	jae	.LBB20_17
# %bb.16:                               # %if.then62
                                        #   in Loop: Header=BB20_14 Depth=1
	movq	input, %rax
	movl	-12(%rbp), %ecx
	movl	3260(%rax,%rcx,4), %eax
	andl	$1, %eax
	movq	-8(%rbp), %rcx
	movl	-12(%rbp), %edx
	movl	%eax, 40(%rcx,%rdx,4)
	jmp	.LBB20_21
.LBB20_17:                              # %if.else
                                        #   in Loop: Header=BB20_14 Depth=1
	movq	input, %rax
	cmpl	$0, 3220(%rax)
	je	.LBB20_19
# %bb.18:                               # %if.then69
                                        #   in Loop: Header=BB20_14 Depth=1
	movq	input, %rax
	movl	-12(%rbp), %ecx
	movl	3260(%rax,%rcx,4), %eax
	andl	$1, %eax
	movq	-8(%rbp), %rcx
	movl	-12(%rbp), %edx
	movl	%eax, 40(%rcx,%rdx,4)
	jmp	.LBB20_20
.LBB20_19:                              # %if.else77
                                        #   in Loop: Header=BB20_14 Depth=1
	movq	-8(%rbp), %rax
	movl	-12(%rbp), %ecx
	movl	$0, 40(%rax,%rcx,4)
.LBB20_20:                              # %if.end
                                        #   in Loop: Header=BB20_14 Depth=1
	jmp	.LBB20_21
.LBB20_21:                              # %if.end81
                                        #   in Loop: Header=BB20_14 Depth=1
	jmp	.LBB20_22
.LBB20_22:                              # %for.inc82
                                        #   in Loop: Header=BB20_14 Depth=1
	movl	-12(%rbp), %eax
	addl	$1, %eax
	movl	%eax, -12(%rbp)
	jmp	.LBB20_14
.LBB20_23:                              # %for.end84
	jmp	.LBB20_29
.LBB20_24:                              # %if.else85
	movq	-8(%rbp), %rax
	movl	$0, 36(%rax)
	movl	$0, -12(%rbp)
.LBB20_25:                              # %for.cond87
                                        # =>This Inner Loop Header: Depth=1
	cmpl	$8, -12(%rbp)
	jae	.LBB20_28
# %bb.26:                               # %for.body90
                                        #   in Loop: Header=BB20_25 Depth=1
	movq	-8(%rbp), %rax
	movl	-12(%rbp), %ecx
	movl	$0, 40(%rax,%rcx,4)
# %bb.27:                               # %for.inc94
                                        #   in Loop: Header=BB20_25 Depth=1
	movl	-12(%rbp), %eax
	addl	$1, %eax
	movl	%eax, -12(%rbp)
	jmp	.LBB20_25
.LBB20_28:                              # %for.end96
	jmp	.LBB20_29
.LBB20_29:                              # %if.end97
	movq	img, %rax
	cmpl	$0, 72728(%rax)
	jne	.LBB20_31
# %bb.30:                               # %lor.lhs.false100
	movq	img, %rax
	cmpl	$0, 72732(%rax)
	je	.LBB20_36
.LBB20_31:                              # %if.then103
	movq	-8(%rbp), %rax
	movl	$1, 1160(%rax)
	movq	-8(%rbp), %rax
	movl	$0, 1164(%rax)
	movq	-8(%rbp), %rax
	movl	$0, 1172(%rax)
	movq	img, %rax
	movl	72728(%rax), %eax
	movq	-8(%rbp), %rcx
	movl	32(%rcx), %ecx
	cltd
	idivl	-64(%rbp,%rcx,4)
	movq	-8(%rbp), %rcx
	movl	%eax, 1168(%rcx)
	movq	img, %rax
	movl	72732(%rax), %eax
	movq	-8(%rbp), %rcx
	movl	32(%rcx), %ecx
	movl	-80(%rbp,%rcx,4), %ecx
	movq	-8(%rbp), %rdx
	movl	$2, %esi
	subl	1148(%rdx), %esi
	imull	%esi, %ecx
	xorl	%edx, %edx
	divl	%ecx
	movq	-8(%rbp), %rcx
	movl	%eax, 1176(%rcx)
	movq	img, %rax
	movl	72728(%rax), %eax
	movq	-8(%rbp), %rcx
	movl	32(%rcx), %ecx
	cltd
	idivl	-64(%rbp,%rcx,4)
	cmpl	$0, %edx
	je	.LBB20_33
# %bb.32:                               # %if.then122
	movabsq	$.L.str, %rdi
	movl	$500, %esi              # imm = 0x1F4
	callq	error
.LBB20_33:                              # %if.end123
	movq	img, %rax
	movl	72732(%rax), %eax
	movq	-8(%rbp), %rcx
	movl	32(%rcx), %ecx
	movl	-80(%rbp,%rcx,4), %ecx
	movq	-8(%rbp), %rdx
	movl	$2, %esi
	subl	1148(%rdx), %esi
	imull	%esi, %ecx
	xorl	%edx, %edx
	divl	%ecx
	cmpl	$0, %edx
	je	.LBB20_35
# %bb.34:                               # %if.then133
	movabsq	$.L.str.1, %rdi
	movl	$500, %esi              # imm = 0x1F4
	callq	error
.LBB20_35:                              # %if.end134
	jmp	.LBB20_37
.LBB20_36:                              # %if.else135
	movq	-8(%rbp), %rax
	movl	$0, 1160(%rax)
.LBB20_37:                              # %if.end137
	cmpl	$2112007671, -40(%rbp)  # imm = 0x7DE2ADF7
	jne	.LBB20_39
.LBB20_38:
	addq	$96, %rsp
	popq	%rbp
	.cfi_def_cfa %rsp, 8
	retq
.LBB20_39:                              # %func_exit
	.cfi_def_cfa %rbp, 16
	callq	detect_breach
	jmp	.LBB20_38
.Lfunc_end20:
	.size	GenerateSequenceParameterSet.9, .Lfunc_end20-GenerateSequenceParameterSet.9
	.cfi_endproc
                                        # -- End function
	.p2align	4, 0x90         # -- Begin function GenerateVUISequenceParameters.10
	.type	GenerateVUISequenceParameters.10,@function
GenerateVUISequenceParameters.10:       # @GenerateVUISequenceParameters.10
	.cfi_startproc
# %bb.0:                                # %entry
	pushq	%rbp
	.cfi_def_cfa_offset 16
	.cfi_offset %rbp, -16
	movq	%rsp, %rbp
	.cfi_def_cfa_register %rbp
	pushq	%rbx
	subq	$24, %rsp
	.cfi_offset %rbx, -24
	movl	$983265165, -28(%rbp)   # imm = 0x3A9B6F8D
	movq	%rdi, -24(%rbp)
	movl	$0, -12(%rbp)
	movq	input, %rax
	cmpl	$0, 3312(%rax)
	je	.LBB21_4
# %bb.1:                                # %land.lhs.true
	movq	input, %rax
	cmpl	$3, 72(%rax)
	jne	.LBB21_4
# %bb.2:                                # %if.then
	movabsq	$.L.str.71, %rdi
	movb	$0, %al
	callq	printf
	movq	-24(%rbp), %rdx
	movabsq	$.L.str.72, %rdi
	xorl	%esi, %esi
	callq	u_1
	addl	-12(%rbp), %eax
	movl	%eax, -12(%rbp)
	movq	-24(%rbp), %rdx
	movabsq	$.L.str.73, %rdi
	xorl	%esi, %esi
	callq	u_1
	addl	-12(%rbp), %eax
	movl	%eax, -12(%rbp)
	movq	-24(%rbp), %rdx
	movabsq	$.L.str.74, %rdi
	movl	$1, %esi
	callq	u_1
	addl	-12(%rbp), %eax
	movl	%eax, -12(%rbp)
	movq	-24(%rbp), %rcx
	movl	$3, %edi
	movabsq	$.L.str.75, %rsi
	movl	$2, %edx
	callq	u_v
	addl	-12(%rbp), %eax
	movl	%eax, -12(%rbp)
	movq	-24(%rbp), %rdx
	movabsq	$.L.str.76, %rdi
	movl	$1, %esi
	callq	u_1
	addl	-12(%rbp), %eax
	movl	%eax, -12(%rbp)
	movq	-24(%rbp), %rdx
	movabsq	$.L.str.77, %rdi
	movl	$1, %esi
	callq	u_1
	addl	-12(%rbp), %eax
	movl	%eax, -12(%rbp)
	movq	-24(%rbp), %rcx
	movl	$8, %edi
	movabsq	$.L.str.78, %rsi
	movl	$2, %edx
	callq	u_v
	addl	-12(%rbp), %eax
	movl	%eax, -12(%rbp)
	movq	-24(%rbp), %rcx
	movl	$8, %edi
	movabsq	$.L.str.79, %rsi
	movl	$2, %edx
	callq	u_v
	addl	-12(%rbp), %eax
	movl	%eax, -12(%rbp)
	movq	-24(%rbp), %rcx
	movl	$8, %edi
	movabsq	$.L.str.80, %rsi
	xorl	%edx, %edx
	callq	u_v
	addl	-12(%rbp), %eax
	movl	%eax, -12(%rbp)
	movq	-24(%rbp), %rdx
	movabsq	$.L.str.81, %rdi
	xorl	%esi, %esi
	callq	u_1
	addl	-12(%rbp), %eax
	movl	%eax, -12(%rbp)
	movq	-24(%rbp), %rdx
	movabsq	$.L.str.82, %rdi
	xorl	%esi, %esi
	callq	u_1
	addl	-12(%rbp), %eax
	movl	%eax, -12(%rbp)
	movq	-24(%rbp), %rdx
	movabsq	$.L.str.83, %rdi
	xorl	%esi, %esi
	callq	u_1
	addl	-12(%rbp), %eax
	movl	%eax, -12(%rbp)
	movq	-24(%rbp), %rdx
	movabsq	$.L.str.84, %rdi
	xorl	%esi, %esi
	callq	u_1
	addl	-12(%rbp), %eax
	movl	%eax, -12(%rbp)
	movq	-24(%rbp), %rdx
	movabsq	$.L.str.85, %rdi
	xorl	%esi, %esi
	callq	u_1
	addl	-12(%rbp), %eax
	movl	%eax, -12(%rbp)
	movq	-24(%rbp), %rdx
	movabsq	$.L.str.86, %rdi
	xorl	%esi, %esi
	callq	u_1
	addl	-12(%rbp), %eax
	movl	%eax, -12(%rbp)
	movl	-12(%rbp), %ebx
	cmpl	$983265165, -28(%rbp)   # imm = 0x3A9B6F8D
	jne	.LBB21_5
.LBB21_3:
	movl	%ebx, %eax
	addq	$24, %rsp
	popq	%rbx
	popq	%rbp
	.cfi_def_cfa %rsp, 8
	retq
.LBB21_4:                               # %if.else
	.cfi_def_cfa %rbp, 16
	movabsq	$.L.str.87, %rdi
	movb	$0, %al
	callq	printf
	movl	$4294967295, %edi       # imm = 0xFFFFFFFF
	callq	exit
.LBB21_5:                               # %func_exit
	callq	detect_breach
	jmp	.LBB21_3
.Lfunc_end21:
	.size	GenerateVUISequenceParameters.10, .Lfunc_end21-GenerateVUISequenceParameters.10
	.cfi_endproc
                                        # -- End function
	.globl	GenerateSeq_parameter_set_rbsp.11 # -- Begin function GenerateSeq_parameter_set_rbsp.11
	.p2align	4, 0x90
	.type	GenerateSeq_parameter_set_rbsp.11,@function
GenerateSeq_parameter_set_rbsp.11:      # @GenerateSeq_parameter_set_rbsp.11
	.cfi_startproc
# %bb.0:                                # %entry
	pushq	%rbp
	.cfi_def_cfa_offset 16
	.cfi_offset %rbp, -16
	movq	%rsp, %rbp
	.cfi_def_cfa_register %rbp
	pushq	%rbx
	subq	$56, %rsp
	.cfi_offset %rbx, -24
	movl	$1194561324, -44(%rbp)  # imm = 0x47338F2C
	movq	%rdi, -32(%rbp)
	movq	%rsi, -56(%rbp)
	movl	$0, -12(%rbp)
	movl	$1, %edi
	movl	$120, %esi
	callq	calloc
	movq	%rax, -24(%rbp)
	cmpq	$0, %rax
	jne	.LBB22_2
# %bb.1:                                # %if.then
	movabsq	$.L.str.4, %rdi
	callq	no_mem_exit
.LBB22_2:                               # %if.end
	movl	$1, %edi
	movl	$48, %esi
	callq	calloc
	movq	-24(%rbp), %rcx
	movq	%rax, (%rcx)
	cmpq	$0, %rax
	jne	.LBB22_4
# %bb.3:                                # %if.then3
	movabsq	$.L.str.5, %rdi
	callq	no_mem_exit
.LBB22_4:                               # %if.end4
	movq	-56(%rbp), %rax
	movq	-24(%rbp), %rcx
	movq	(%rcx), %rcx
	movq	%rax, 32(%rcx)
	movq	-24(%rbp), %rax
	movq	(%rax), %rax
	movl	$8, 4(%rax)
	movq	-32(%rbp), %rax
	movl	4(%rax), %edx
	movq	-24(%rbp), %rcx
	movl	$8, %edi
	movabsq	$.L.str.6, %rsi
	callq	u_v
	addl	-12(%rbp), %eax
	movl	%eax, -12(%rbp)
	movq	-32(%rbp), %rax
	movl	8(%rax), %esi
	movq	-24(%rbp), %rdx
	movabsq	$.L.str.7, %rdi
	callq	u_1
	addl	-12(%rbp), %eax
	movl	%eax, -12(%rbp)
	movq	-32(%rbp), %rax
	movl	12(%rax), %esi
	movq	-24(%rbp), %rdx
	movabsq	$.L.str.8, %rdi
	callq	u_1
	addl	-12(%rbp), %eax
	movl	%eax, -12(%rbp)
	movq	-32(%rbp), %rax
	movl	16(%rax), %esi
	movq	-24(%rbp), %rdx
	movabsq	$.L.str.9, %rdi
	callq	u_1
	addl	-12(%rbp), %eax
	movl	%eax, -12(%rbp)
	movq	-32(%rbp), %rax
	movl	20(%rax), %esi
	movq	-24(%rbp), %rdx
	movabsq	$.L.str.10, %rdi
	callq	u_1
	addl	-12(%rbp), %eax
	movl	%eax, -12(%rbp)
	movq	-24(%rbp), %rcx
	movl	$4, %edi
	movabsq	$.L.str.11, %rsi
	xorl	%edx, %edx
	callq	u_v
	addl	-12(%rbp), %eax
	movl	%eax, -12(%rbp)
	movq	-32(%rbp), %rax
	movl	24(%rax), %edx
	movq	-24(%rbp), %rcx
	movl	$8, %edi
	movabsq	$.L.str.12, %rsi
	callq	u_v
	addl	-12(%rbp), %eax
	movl	%eax, -12(%rbp)
	movq	-32(%rbp), %rax
	movl	28(%rax), %esi
	movq	-24(%rbp), %rdx
	movabsq	$.L.str.13, %rdi
	callq	ue_v
	addl	-12(%rbp), %eax
	movl	%eax, -12(%rbp)
	movq	-32(%rbp), %rax
	cmpl	$100, 4(%rax)
	je	.LBB22_8
# %bb.5:                                # %lor.lhs.false
	movq	-32(%rbp), %rax
	cmpl	$110, 4(%rax)
	je	.LBB22_8
# %bb.6:                                # %lor.lhs.false26
	movq	-32(%rbp), %rax
	cmpl	$122, 4(%rax)
	je	.LBB22_8
# %bb.7:                                # %lor.lhs.false29
	movq	-32(%rbp), %rax
	cmpl	$144, 4(%rax)
	jne	.LBB22_22
.LBB22_8:                               # %if.then32
	movq	-32(%rbp), %rax
	movl	32(%rax), %esi
	movq	-24(%rbp), %rdx
	movabsq	$.L.str.14, %rdi
	callq	ue_v
	addl	-12(%rbp), %eax
	movl	%eax, -12(%rbp)
	movq	img, %rax
	cmpl	$3, 72700(%rax)
	jne	.LBB22_10
# %bb.9:                                # %if.then36
	movq	img, %rax
	movl	72724(%rax), %esi
	movq	-24(%rbp), %rdx
	movabsq	$.L.str.15, %rdi
	callq	u_1
	addl	-12(%rbp), %eax
	movl	%eax, -12(%rbp)
.LBB22_10:                              # %if.end39
	movq	-32(%rbp), %rax
	movl	72(%rax), %esi
	movq	-24(%rbp), %rdx
	movabsq	$.L.str.16, %rdi
	callq	ue_v
	addl	-12(%rbp), %eax
	movl	%eax, -12(%rbp)
	movq	-32(%rbp), %rax
	movl	76(%rax), %esi
	movq	-24(%rbp), %rdx
	movabsq	$.L.str.17, %rdi
	callq	ue_v
	addl	-12(%rbp), %eax
	movl	%eax, -12(%rbp)
	movq	img, %rax
	movl	72704(%rax), %esi
	movq	-24(%rbp), %rdx
	movabsq	$.L.str.18, %rdi
	callq	u_1
	addl	-12(%rbp), %eax
	movl	%eax, -12(%rbp)
	movq	-32(%rbp), %rax
	movl	36(%rax), %esi
	movq	-24(%rbp), %rdx
	movabsq	$.L.str.19, %rdi
	callq	u_1
	addl	-12(%rbp), %eax
	movl	%eax, -12(%rbp)
	movq	-32(%rbp), %rax
	cmpl	$0, 36(%rax)
	je	.LBB22_21
# %bb.11:                               # %if.then49
	movl	$0, -36(%rbp)
.LBB22_12:                              # %for.cond
                                        # =>This Inner Loop Header: Depth=1
	cmpl	$8, -36(%rbp)
	jae	.LBB22_20
# %bb.13:                               # %for.body
                                        #   in Loop: Header=BB22_12 Depth=1
	movq	-32(%rbp), %rax
	movl	-36(%rbp), %ecx
	movl	40(%rax,%rcx,4), %esi
	movq	-24(%rbp), %rdx
	movabsq	$.L.str.20, %rdi
	callq	u_1
	addl	-12(%rbp), %eax
	movl	%eax, -12(%rbp)
	movq	-32(%rbp), %rax
	movl	-36(%rbp), %ecx
	cmpl	$0, 40(%rax,%rcx,4)
	je	.LBB22_18
# %bb.14:                               # %if.then57
                                        #   in Loop: Header=BB22_12 Depth=1
	cmpl	$6, -36(%rbp)
	jae	.LBB22_16
# %bb.15:                               # %if.then59
                                        #   in Loop: Header=BB22_12 Depth=1
	movl	-36(%rbp), %eax
	shlq	$5, %rax
	movabsq	$ScalingList4x4input, %rdi
	addq	%rax, %rdi
	movl	-36(%rbp), %eax
	shlq	$5, %rax
	movabsq	$ScalingList4x4, %rsi
	addq	%rax, %rsi
	movl	-36(%rbp), %eax
	shlq	$1, %rax
	movabsq	$UseDefaultScalingMatrix4x4Flag, %rcx
	addq	%rax, %rcx
	movq	-24(%rbp), %r8
	movl	$16, %edx
	callq	Scaling_List
	addl	-12(%rbp), %eax
	movl	%eax, -12(%rbp)
	jmp	.LBB22_17
.LBB22_16:                              # %if.else
                                        #   in Loop: Header=BB22_12 Depth=1
	movl	-36(%rbp), %eax
	subl	$6, %eax
	movl	%eax, %eax
	shlq	$7, %rax
	movabsq	$ScalingList8x8input, %rdi
	addq	%rax, %rdi
	movl	-36(%rbp), %eax
	subl	$6, %eax
	movl	%eax, %eax
	shlq	$7, %rax
	movabsq	$ScalingList8x8, %rsi
	addq	%rax, %rsi
	movl	-36(%rbp), %eax
	subl	$6, %eax
	movl	%eax, %eax
	shlq	$1, %rax
	movabsq	$UseDefaultScalingMatrix8x8Flag, %rcx
	addq	%rax, %rcx
	movq	-24(%rbp), %r8
	movl	$64, %edx
	callq	Scaling_List
	addl	-12(%rbp), %eax
	movl	%eax, -12(%rbp)
.LBB22_17:                              # %if.end81
                                        #   in Loop: Header=BB22_12 Depth=1
	jmp	.LBB22_18
.LBB22_18:                              # %if.end82
                                        #   in Loop: Header=BB22_12 Depth=1
	jmp	.LBB22_19
.LBB22_19:                              # %for.inc
                                        #   in Loop: Header=BB22_12 Depth=1
	movl	-36(%rbp), %eax
	addl	$1, %eax
	movl	%eax, -36(%rbp)
	jmp	.LBB22_12
.LBB22_20:                              # %for.end
	jmp	.LBB22_21
.LBB22_21:                              # %if.end83
	jmp	.LBB22_22
.LBB22_22:                              # %if.end84
	movq	-32(%rbp), %rax
	movl	80(%rax), %esi
	movq	-24(%rbp), %rdx
	movabsq	$.L.str.21, %rdi
	callq	ue_v
	addl	-12(%rbp), %eax
	movl	%eax, -12(%rbp)
	movq	-32(%rbp), %rax
	movl	84(%rax), %esi
	movq	-24(%rbp), %rdx
	movabsq	$.L.str.22, %rdi
	callq	ue_v
	addl	-12(%rbp), %eax
	movl	%eax, -12(%rbp)
	movq	-32(%rbp), %rax
	cmpl	$0, 84(%rax)
	jne	.LBB22_24
# %bb.23:                               # %if.then91
	movq	-32(%rbp), %rax
	movl	88(%rax), %esi
	movq	-24(%rbp), %rdx
	movabsq	$.L.str.23, %rdi
	callq	ue_v
	addl	-12(%rbp), %eax
	movl	%eax, -12(%rbp)
	jmp	.LBB22_31
.LBB22_24:                              # %if.else94
	movq	-32(%rbp), %rax
	cmpl	$1, 84(%rax)
	jne	.LBB22_30
# %bb.25:                               # %if.then97
	movq	-32(%rbp), %rax
	movl	92(%rax), %esi
	movq	-24(%rbp), %rdx
	movabsq	$.L.str.24, %rdi
	callq	u_1
	addl	-12(%rbp), %eax
	movl	%eax, -12(%rbp)
	movq	-32(%rbp), %rax
	movl	96(%rax), %esi
	movq	-24(%rbp), %rdx
	movabsq	$.L.str.25, %rdi
	callq	se_v
	addl	-12(%rbp), %eax
	movl	%eax, -12(%rbp)
	movq	-32(%rbp), %rax
	movl	100(%rax), %esi
	movq	-24(%rbp), %rdx
	movabsq	$.L.str.26, %rdi
	callq	se_v
	addl	-12(%rbp), %eax
	movl	%eax, -12(%rbp)
	movq	-32(%rbp), %rax
	movl	104(%rax), %esi
	movq	-24(%rbp), %rdx
	movabsq	$.L.str.27, %rdi
	callq	ue_v
	addl	-12(%rbp), %eax
	movl	%eax, -12(%rbp)
	movl	$0, -36(%rbp)
.LBB22_26:                              # %for.cond106
                                        # =>This Inner Loop Header: Depth=1
	movl	-36(%rbp), %eax
	movq	-32(%rbp), %rcx
	cmpl	104(%rcx), %eax
	jae	.LBB22_29
# %bb.27:                               # %for.body109
                                        #   in Loop: Header=BB22_26 Depth=1
	movq	-32(%rbp), %rax
	movl	-36(%rbp), %ecx
	movl	108(%rax,%rcx,4), %esi
	movq	-24(%rbp), %rdx
	movabsq	$.L.str.28, %rdi
	callq	se_v
	addl	-12(%rbp), %eax
	movl	%eax, -12(%rbp)
# %bb.28:                               # %for.inc114
                                        #   in Loop: Header=BB22_26 Depth=1
	movl	-36(%rbp), %eax
	addl	$1, %eax
	movl	%eax, -36(%rbp)
	jmp	.LBB22_26
.LBB22_29:                              # %for.end116
	jmp	.LBB22_30
.LBB22_30:                              # %if.end117
	jmp	.LBB22_31
.LBB22_31:                              # %if.end118
	movq	-32(%rbp), %rax
	movl	1132(%rax), %esi
	movq	-24(%rbp), %rdx
	movabsq	$.L.str.29, %rdi
	callq	ue_v
	addl	-12(%rbp), %eax
	movl	%eax, -12(%rbp)
	movq	-32(%rbp), %rax
	movl	1136(%rax), %esi
	movq	-24(%rbp), %rdx
	movabsq	$.L.str.30, %rdi
	callq	u_1
	addl	-12(%rbp), %eax
	movl	%eax, -12(%rbp)
	movq	-32(%rbp), %rax
	movl	1140(%rax), %esi
	movq	-24(%rbp), %rdx
	movabsq	$.L.str.31, %rdi
	callq	ue_v
	addl	-12(%rbp), %eax
	movl	%eax, -12(%rbp)
	movq	-32(%rbp), %rax
	movl	1144(%rax), %esi
	movq	-24(%rbp), %rdx
	movabsq	$.L.str.32, %rdi
	callq	ue_v
	addl	-12(%rbp), %eax
	movl	%eax, -12(%rbp)
	movq	-32(%rbp), %rax
	movl	1148(%rax), %esi
	movq	-24(%rbp), %rdx
	movabsq	$.L.str.33, %rdi
	callq	u_1
	addl	-12(%rbp), %eax
	movl	%eax, -12(%rbp)
	movq	-32(%rbp), %rax
	cmpl	$0, 1148(%rax)
	jne	.LBB22_33
# %bb.32:                               # %if.then131
	movq	-32(%rbp), %rax
	movl	1152(%rax), %esi
	movq	-24(%rbp), %rdx
	movabsq	$.L.str.34, %rdi
	callq	u_1
	addl	-12(%rbp), %eax
	movl	%eax, -12(%rbp)
.LBB22_33:                              # %if.end134
	movq	-32(%rbp), %rax
	movl	1156(%rax), %esi
	movq	-24(%rbp), %rdx
	movabsq	$.L.str.35, %rdi
	callq	u_1
	addl	-12(%rbp), %eax
	movl	%eax, -12(%rbp)
	movq	-32(%rbp), %rax
	movl	1160(%rax), %esi
	movq	-24(%rbp), %rdx
	movabsq	$.L.str.36, %rdi
	callq	u_1
	addl	-12(%rbp), %eax
	movl	%eax, -12(%rbp)
	movq	-32(%rbp), %rax
	cmpl	$0, 1160(%rax)
	je	.LBB22_35
# %bb.34:                               # %if.then141
	movq	-32(%rbp), %rax
	movl	1164(%rax), %esi
	movq	-24(%rbp), %rdx
	movabsq	$.L.str.37, %rdi
	callq	ue_v
	addl	-12(%rbp), %eax
	movl	%eax, -12(%rbp)
	movq	-32(%rbp), %rax
	movl	1168(%rax), %esi
	movq	-24(%rbp), %rdx
	movabsq	$.L.str.38, %rdi
	callq	ue_v
	addl	-12(%rbp), %eax
	movl	%eax, -12(%rbp)
	movq	-32(%rbp), %rax
	movl	1172(%rax), %esi
	movq	-24(%rbp), %rdx
	movabsq	$.L.str.39, %rdi
	callq	ue_v
	addl	-12(%rbp), %eax
	movl	%eax, -12(%rbp)
	movq	-32(%rbp), %rax
	movl	1176(%rax), %esi
	movq	-24(%rbp), %rdx
	movabsq	$.L.str.40, %rdi
	callq	ue_v
	addl	-12(%rbp), %eax
	movl	%eax, -12(%rbp)
.LBB22_35:                              # %if.end150
	movq	-32(%rbp), %rax
	movl	1180(%rax), %esi
	movq	-24(%rbp), %rdx
	movabsq	$.L.str.41, %rdi
	callq	u_1
	addl	-12(%rbp), %eax
	movl	%eax, -12(%rbp)
	movq	-32(%rbp), %rax
	cmpl	$0, 1180(%rax)
	je	.LBB22_37
# %bb.36:                               # %if.then155
	movq	-24(%rbp), %rdi
	callq	GenerateVUISequenceParameters
	addl	-12(%rbp), %eax
	movl	%eax, -12(%rbp)
.LBB22_37:                              # %if.end158
	movq	-24(%rbp), %rax
	movq	(%rax), %rdi
	callq	SODBtoRBSP
	movq	-24(%rbp), %rax
	movq	(%rax), %rax
	movl	(%rax), %eax
	movl	%eax, -40(%rbp)
	movq	-24(%rbp), %rax
	movq	(%rax), %rdi
	callq	free
	movq	-24(%rbp), %rdi
	callq	free
	movl	-40(%rbp), %ebx
	cmpl	$1194561324, -44(%rbp)  # imm = 0x47338F2C
	jne	.LBB22_39
.LBB22_38:
	movl	%ebx, %eax
	addq	$56, %rsp
	popq	%rbx
	popq	%rbp
	.cfi_def_cfa %rsp, 8
	retq
.LBB22_39:                              # %func_exit
	.cfi_def_cfa %rbp, 16
	callq	detect_breach
	jmp	.LBB22_38
.Lfunc_end22:
	.size	GenerateSeq_parameter_set_rbsp.11, .Lfunc_end22-GenerateSeq_parameter_set_rbsp.11
	.cfi_endproc
                                        # -- End function
	.globl	GenerateSeq_parameter_set_rbsp.12 # -- Begin function GenerateSeq_parameter_set_rbsp.12
	.p2align	4, 0x90
	.type	GenerateSeq_parameter_set_rbsp.12,@function
GenerateSeq_parameter_set_rbsp.12:      # @GenerateSeq_parameter_set_rbsp.12
	.cfi_startproc
# %bb.0:                                # %entry
	pushq	%rbp
	.cfi_def_cfa_offset 16
	.cfi_offset %rbp, -16
	movq	%rsp, %rbp
	.cfi_def_cfa_register %rbp
	pushq	%rbx
	subq	$56, %rsp
	.cfi_offset %rbx, -24
	movl	$592809101, -44(%rbp)   # imm = 0x23558C8D
	movq	%rdi, -32(%rbp)
	movq	%rsi, -56(%rbp)
	movl	$0, -12(%rbp)
	movl	$1, %edi
	movl	$120, %esi
	callq	calloc
	movq	%rax, -24(%rbp)
	cmpq	$0, %rax
	jne	.LBB23_2
# %bb.1:                                # %if.then
	movabsq	$.L.str.4, %rdi
	callq	no_mem_exit
.LBB23_2:                               # %if.end
	movl	$1, %edi
	movl	$48, %esi
	callq	calloc
	movq	-24(%rbp), %rcx
	movq	%rax, (%rcx)
	cmpq	$0, %rax
	jne	.LBB23_4
# %bb.3:                                # %if.then3
	movabsq	$.L.str.5, %rdi
	callq	no_mem_exit
.LBB23_4:                               # %if.end4
	movq	-56(%rbp), %rax
	movq	-24(%rbp), %rcx
	movq	(%rcx), %rcx
	movq	%rax, 32(%rcx)
	movq	-24(%rbp), %rax
	movq	(%rax), %rax
	movl	$8, 4(%rax)
	movq	-32(%rbp), %rax
	movl	4(%rax), %edx
	movq	-24(%rbp), %rcx
	movl	$8, %edi
	movabsq	$.L.str.6, %rsi
	callq	u_v
	addl	-12(%rbp), %eax
	movl	%eax, -12(%rbp)
	movq	-32(%rbp), %rax
	movl	8(%rax), %esi
	movq	-24(%rbp), %rdx
	movabsq	$.L.str.7, %rdi
	callq	u_1
	addl	-12(%rbp), %eax
	movl	%eax, -12(%rbp)
	movq	-32(%rbp), %rax
	movl	12(%rax), %esi
	movq	-24(%rbp), %rdx
	movabsq	$.L.str.8, %rdi
	callq	u_1
	addl	-12(%rbp), %eax
	movl	%eax, -12(%rbp)
	movq	-32(%rbp), %rax
	movl	16(%rax), %esi
	movq	-24(%rbp), %rdx
	movabsq	$.L.str.9, %rdi
	callq	u_1
	addl	-12(%rbp), %eax
	movl	%eax, -12(%rbp)
	movq	-32(%rbp), %rax
	movl	20(%rax), %esi
	movq	-24(%rbp), %rdx
	movabsq	$.L.str.10, %rdi
	callq	u_1
	addl	-12(%rbp), %eax
	movl	%eax, -12(%rbp)
	movq	-24(%rbp), %rcx
	movl	$4, %edi
	movabsq	$.L.str.11, %rsi
	xorl	%edx, %edx
	callq	u_v
	addl	-12(%rbp), %eax
	movl	%eax, -12(%rbp)
	movq	-32(%rbp), %rax
	movl	24(%rax), %edx
	movq	-24(%rbp), %rcx
	movl	$8, %edi
	movabsq	$.L.str.12, %rsi
	callq	u_v
	addl	-12(%rbp), %eax
	movl	%eax, -12(%rbp)
	movq	-32(%rbp), %rax
	movl	28(%rax), %esi
	movq	-24(%rbp), %rdx
	movabsq	$.L.str.13, %rdi
	callq	ue_v
	addl	-12(%rbp), %eax
	movl	%eax, -12(%rbp)
	movq	-32(%rbp), %rax
	cmpl	$100, 4(%rax)
	je	.LBB23_8
# %bb.5:                                # %lor.lhs.false
	movq	-32(%rbp), %rax
	cmpl	$110, 4(%rax)
	je	.LBB23_8
# %bb.6:                                # %lor.lhs.false26
	movq	-32(%rbp), %rax
	cmpl	$122, 4(%rax)
	je	.LBB23_8
# %bb.7:                                # %lor.lhs.false29
	movq	-32(%rbp), %rax
	cmpl	$144, 4(%rax)
	jne	.LBB23_22
.LBB23_8:                               # %if.then32
	movq	-32(%rbp), %rax
	movl	32(%rax), %esi
	movq	-24(%rbp), %rdx
	movabsq	$.L.str.14, %rdi
	callq	ue_v
	addl	-12(%rbp), %eax
	movl	%eax, -12(%rbp)
	movq	img, %rax
	cmpl	$3, 72700(%rax)
	jne	.LBB23_10
# %bb.9:                                # %if.then36
	movq	img, %rax
	movl	72724(%rax), %esi
	movq	-24(%rbp), %rdx
	movabsq	$.L.str.15, %rdi
	callq	u_1
	addl	-12(%rbp), %eax
	movl	%eax, -12(%rbp)
.LBB23_10:                              # %if.end39
	movq	-32(%rbp), %rax
	movl	72(%rax), %esi
	movq	-24(%rbp), %rdx
	movabsq	$.L.str.16, %rdi
	callq	ue_v
	addl	-12(%rbp), %eax
	movl	%eax, -12(%rbp)
	movq	-32(%rbp), %rax
	movl	76(%rax), %esi
	movq	-24(%rbp), %rdx
	movabsq	$.L.str.17, %rdi
	callq	ue_v
	addl	-12(%rbp), %eax
	movl	%eax, -12(%rbp)
	movq	img, %rax
	movl	72704(%rax), %esi
	movq	-24(%rbp), %rdx
	movabsq	$.L.str.18, %rdi
	callq	u_1
	addl	-12(%rbp), %eax
	movl	%eax, -12(%rbp)
	movq	-32(%rbp), %rax
	movl	36(%rax), %esi
	movq	-24(%rbp), %rdx
	movabsq	$.L.str.19, %rdi
	callq	u_1
	addl	-12(%rbp), %eax
	movl	%eax, -12(%rbp)
	movq	-32(%rbp), %rax
	cmpl	$0, 36(%rax)
	je	.LBB23_21
# %bb.11:                               # %if.then49
	movl	$0, -36(%rbp)
.LBB23_12:                              # %for.cond
                                        # =>This Inner Loop Header: Depth=1
	cmpl	$8, -36(%rbp)
	jae	.LBB23_20
# %bb.13:                               # %for.body
                                        #   in Loop: Header=BB23_12 Depth=1
	movq	-32(%rbp), %rax
	movl	-36(%rbp), %ecx
	movl	40(%rax,%rcx,4), %esi
	movq	-24(%rbp), %rdx
	movabsq	$.L.str.20, %rdi
	callq	u_1
	addl	-12(%rbp), %eax
	movl	%eax, -12(%rbp)
	movq	-32(%rbp), %rax
	movl	-36(%rbp), %ecx
	cmpl	$0, 40(%rax,%rcx,4)
	je	.LBB23_18
# %bb.14:                               # %if.then57
                                        #   in Loop: Header=BB23_12 Depth=1
	cmpl	$6, -36(%rbp)
	jae	.LBB23_16
# %bb.15:                               # %if.then59
                                        #   in Loop: Header=BB23_12 Depth=1
	movl	-36(%rbp), %eax
	shlq	$5, %rax
	movabsq	$ScalingList4x4input, %rdi
	addq	%rax, %rdi
	movl	-36(%rbp), %eax
	shlq	$5, %rax
	movabsq	$ScalingList4x4, %rsi
	addq	%rax, %rsi
	movl	-36(%rbp), %eax
	shlq	$1, %rax
	movabsq	$UseDefaultScalingMatrix4x4Flag, %rcx
	addq	%rax, %rcx
	movq	-24(%rbp), %r8
	movl	$16, %edx
	callq	Scaling_List
	addl	-12(%rbp), %eax
	movl	%eax, -12(%rbp)
	jmp	.LBB23_17
.LBB23_16:                              # %if.else
                                        #   in Loop: Header=BB23_12 Depth=1
	movl	-36(%rbp), %eax
	subl	$6, %eax
	movl	%eax, %eax
	shlq	$7, %rax
	movabsq	$ScalingList8x8input, %rdi
	addq	%rax, %rdi
	movl	-36(%rbp), %eax
	subl	$6, %eax
	movl	%eax, %eax
	shlq	$7, %rax
	movabsq	$ScalingList8x8, %rsi
	addq	%rax, %rsi
	movl	-36(%rbp), %eax
	subl	$6, %eax
	movl	%eax, %eax
	shlq	$1, %rax
	movabsq	$UseDefaultScalingMatrix8x8Flag, %rcx
	addq	%rax, %rcx
	movq	-24(%rbp), %r8
	movl	$64, %edx
	callq	Scaling_List
	addl	-12(%rbp), %eax
	movl	%eax, -12(%rbp)
.LBB23_17:                              # %if.end81
                                        #   in Loop: Header=BB23_12 Depth=1
	jmp	.LBB23_18
.LBB23_18:                              # %if.end82
                                        #   in Loop: Header=BB23_12 Depth=1
	jmp	.LBB23_19
.LBB23_19:                              # %for.inc
                                        #   in Loop: Header=BB23_12 Depth=1
	movl	-36(%rbp), %eax
	addl	$1, %eax
	movl	%eax, -36(%rbp)
	jmp	.LBB23_12
.LBB23_20:                              # %for.end
	jmp	.LBB23_21
.LBB23_21:                              # %if.end83
	jmp	.LBB23_22
.LBB23_22:                              # %if.end84
	movq	-32(%rbp), %rax
	movl	80(%rax), %esi
	movq	-24(%rbp), %rdx
	movabsq	$.L.str.21, %rdi
	callq	ue_v
	addl	-12(%rbp), %eax
	movl	%eax, -12(%rbp)
	movq	-32(%rbp), %rax
	movl	84(%rax), %esi
	movq	-24(%rbp), %rdx
	movabsq	$.L.str.22, %rdi
	callq	ue_v
	addl	-12(%rbp), %eax
	movl	%eax, -12(%rbp)
	movq	-32(%rbp), %rax
	cmpl	$0, 84(%rax)
	jne	.LBB23_24
# %bb.23:                               # %if.then91
	movq	-32(%rbp), %rax
	movl	88(%rax), %esi
	movq	-24(%rbp), %rdx
	movabsq	$.L.str.23, %rdi
	callq	ue_v
	addl	-12(%rbp), %eax
	movl	%eax, -12(%rbp)
	jmp	.LBB23_31
.LBB23_24:                              # %if.else94
	movq	-32(%rbp), %rax
	cmpl	$1, 84(%rax)
	jne	.LBB23_30
# %bb.25:                               # %if.then97
	movq	-32(%rbp), %rax
	movl	92(%rax), %esi
	movq	-24(%rbp), %rdx
	movabsq	$.L.str.24, %rdi
	callq	u_1
	addl	-12(%rbp), %eax
	movl	%eax, -12(%rbp)
	movq	-32(%rbp), %rax
	movl	96(%rax), %esi
	movq	-24(%rbp), %rdx
	movabsq	$.L.str.25, %rdi
	callq	se_v
	addl	-12(%rbp), %eax
	movl	%eax, -12(%rbp)
	movq	-32(%rbp), %rax
	movl	100(%rax), %esi
	movq	-24(%rbp), %rdx
	movabsq	$.L.str.26, %rdi
	callq	se_v
	addl	-12(%rbp), %eax
	movl	%eax, -12(%rbp)
	movq	-32(%rbp), %rax
	movl	104(%rax), %esi
	movq	-24(%rbp), %rdx
	movabsq	$.L.str.27, %rdi
	callq	ue_v
	addl	-12(%rbp), %eax
	movl	%eax, -12(%rbp)
	movl	$0, -36(%rbp)
.LBB23_26:                              # %for.cond106
                                        # =>This Inner Loop Header: Depth=1
	movl	-36(%rbp), %eax
	movq	-32(%rbp), %rcx
	cmpl	104(%rcx), %eax
	jae	.LBB23_29
# %bb.27:                               # %for.body109
                                        #   in Loop: Header=BB23_26 Depth=1
	movq	-32(%rbp), %rax
	movl	-36(%rbp), %ecx
	movl	108(%rax,%rcx,4), %esi
	movq	-24(%rbp), %rdx
	movabsq	$.L.str.28, %rdi
	callq	se_v
	addl	-12(%rbp), %eax
	movl	%eax, -12(%rbp)
# %bb.28:                               # %for.inc114
                                        #   in Loop: Header=BB23_26 Depth=1
	movl	-36(%rbp), %eax
	addl	$1, %eax
	movl	%eax, -36(%rbp)
	jmp	.LBB23_26
.LBB23_29:                              # %for.end116
	jmp	.LBB23_30
.LBB23_30:                              # %if.end117
	jmp	.LBB23_31
.LBB23_31:                              # %if.end118
	movq	-32(%rbp), %rax
	movl	1132(%rax), %esi
	movq	-24(%rbp), %rdx
	movabsq	$.L.str.29, %rdi
	callq	ue_v
	addl	-12(%rbp), %eax
	movl	%eax, -12(%rbp)
	movq	-32(%rbp), %rax
	movl	1136(%rax), %esi
	movq	-24(%rbp), %rdx
	movabsq	$.L.str.30, %rdi
	callq	u_1
	addl	-12(%rbp), %eax
	movl	%eax, -12(%rbp)
	movq	-32(%rbp), %rax
	movl	1140(%rax), %esi
	movq	-24(%rbp), %rdx
	movabsq	$.L.str.31, %rdi
	callq	ue_v
	addl	-12(%rbp), %eax
	movl	%eax, -12(%rbp)
	movq	-32(%rbp), %rax
	movl	1144(%rax), %esi
	movq	-24(%rbp), %rdx
	movabsq	$.L.str.32, %rdi
	callq	ue_v
	addl	-12(%rbp), %eax
	movl	%eax, -12(%rbp)
	movq	-32(%rbp), %rax
	movl	1148(%rax), %esi
	movq	-24(%rbp), %rdx
	movabsq	$.L.str.33, %rdi
	callq	u_1
	addl	-12(%rbp), %eax
	movl	%eax, -12(%rbp)
	movq	-32(%rbp), %rax
	cmpl	$0, 1148(%rax)
	jne	.LBB23_33
# %bb.32:                               # %if.then131
	movq	-32(%rbp), %rax
	movl	1152(%rax), %esi
	movq	-24(%rbp), %rdx
	movabsq	$.L.str.34, %rdi
	callq	u_1
	addl	-12(%rbp), %eax
	movl	%eax, -12(%rbp)
.LBB23_33:                              # %if.end134
	movq	-32(%rbp), %rax
	movl	1156(%rax), %esi
	movq	-24(%rbp), %rdx
	movabsq	$.L.str.35, %rdi
	callq	u_1
	addl	-12(%rbp), %eax
	movl	%eax, -12(%rbp)
	movq	-32(%rbp), %rax
	movl	1160(%rax), %esi
	movq	-24(%rbp), %rdx
	movabsq	$.L.str.36, %rdi
	callq	u_1
	addl	-12(%rbp), %eax
	movl	%eax, -12(%rbp)
	movq	-32(%rbp), %rax
	cmpl	$0, 1160(%rax)
	je	.LBB23_35
# %bb.34:                               # %if.then141
	movq	-32(%rbp), %rax
	movl	1164(%rax), %esi
	movq	-24(%rbp), %rdx
	movabsq	$.L.str.37, %rdi
	callq	ue_v
	addl	-12(%rbp), %eax
	movl	%eax, -12(%rbp)
	movq	-32(%rbp), %rax
	movl	1168(%rax), %esi
	movq	-24(%rbp), %rdx
	movabsq	$.L.str.38, %rdi
	callq	ue_v
	addl	-12(%rbp), %eax
	movl	%eax, -12(%rbp)
	movq	-32(%rbp), %rax
	movl	1172(%rax), %esi
	movq	-24(%rbp), %rdx
	movabsq	$.L.str.39, %rdi
	callq	ue_v
	addl	-12(%rbp), %eax
	movl	%eax, -12(%rbp)
	movq	-32(%rbp), %rax
	movl	1176(%rax), %esi
	movq	-24(%rbp), %rdx
	movabsq	$.L.str.40, %rdi
	callq	ue_v
	addl	-12(%rbp), %eax
	movl	%eax, -12(%rbp)
.LBB23_35:                              # %if.end150
	movq	-32(%rbp), %rax
	movl	1180(%rax), %esi
	movq	-24(%rbp), %rdx
	movabsq	$.L.str.41, %rdi
	callq	u_1
	addl	-12(%rbp), %eax
	movl	%eax, -12(%rbp)
	movq	-32(%rbp), %rax
	cmpl	$0, 1180(%rax)
	je	.LBB23_37
# %bb.36:                               # %if.then155
	movq	-24(%rbp), %rdi
	callq	GenerateVUISequenceParameters
	addl	-12(%rbp), %eax
	movl	%eax, -12(%rbp)
.LBB23_37:                              # %if.end158
	movq	-24(%rbp), %rax
	movq	(%rax), %rdi
	callq	SODBtoRBSP
	movq	-24(%rbp), %rax
	movq	(%rax), %rax
	movl	(%rax), %eax
	movl	%eax, -40(%rbp)
	movq	-24(%rbp), %rax
	movq	(%rax), %rdi
	callq	free
	movq	-24(%rbp), %rdi
	callq	free
	movl	-40(%rbp), %ebx
	cmpl	$592809101, -44(%rbp)   # imm = 0x23558C8D
	jne	.LBB23_39
.LBB23_38:
	movl	%ebx, %eax
	addq	$56, %rsp
	popq	%rbx
	popq	%rbp
	.cfi_def_cfa %rsp, 8
	retq
.LBB23_39:                              # %func_exit
	.cfi_def_cfa %rbp, 16
	callq	detect_breach
	jmp	.LBB23_38
.Lfunc_end23:
	.size	GenerateSeq_parameter_set_rbsp.12, .Lfunc_end23-GenerateSeq_parameter_set_rbsp.12
	.cfi_endproc
                                        # -- End function
	.globl	GenerateSeq_parameter_set_NALU.13 # -- Begin function GenerateSeq_parameter_set_NALU.13
	.p2align	4, 0x90
	.type	GenerateSeq_parameter_set_NALU.13,@function
GenerateSeq_parameter_set_NALU.13:      # @GenerateSeq_parameter_set_NALU.13
	.cfi_startproc
# %bb.0:                                # %entry
	pushq	%rbp
	.cfi_def_cfa_offset 16
	.cfi_offset %rbp, -16
	movq	%rsp, %rbp
	.cfi_def_cfa_register %rbp
	pushq	%rbx
	subq	$64040, %rsp            # imm = 0xFA28
	.cfi_offset %rbx, -24
	movl	$178154607, -28(%rbp)   # imm = 0xA9E6C6F
	movl	$64000, %edi            # imm = 0xFA00
	movb	$0, %al
	callq	AllocNALU
	leaq	-64032(%rbp), %rsi
	movq	%rax, -24(%rbp)
	movl	$0, -12(%rbp)
	movq	active_sps, %rdi
	callq	GenerateSeq_parameter_set_rbsp
	leaq	-64032(%rbp), %rdi
	movl	%eax, -12(%rbp)
	movq	-24(%rbp), %rsi
	movl	-12(%rbp), %edx
	movl	$7, %ecx
	movl	$3, %r8d
	xorl	%r9d, %r9d
	movl	$1, (%rsp)
	callq	RBSPtoNALU
	movl	%eax, -32(%rbp)
	movq	-24(%rbp), %rax
	movl	$4, (%rax)
	movq	-24(%rbp), %rbx
	cmpl	$178154607, -28(%rbp)   # imm = 0xA9E6C6F
	jne	.LBB24_2
.LBB24_1:
	movq	%rbx, %rax
	addq	$64040, %rsp            # imm = 0xFA28
	popq	%rbx
	popq	%rbp
	.cfi_def_cfa %rsp, 8
	retq
.LBB24_2:                               # %func_exit
	.cfi_def_cfa %rbp, 16
	callq	detect_breach
	jmp	.LBB24_1
.Lfunc_end24:
	.size	GenerateSeq_parameter_set_NALU.13, .Lfunc_end24-GenerateSeq_parameter_set_NALU.13
	.cfi_endproc
                                        # -- End function
	.globl	Scaling_List.14         # -- Begin function Scaling_List.14
	.p2align	4, 0x90
	.type	Scaling_List.14,@function
Scaling_List.14:                        # @Scaling_List.14
	.cfi_startproc
# %bb.0:                                # %entry
	pushq	%rbp
	.cfi_def_cfa_offset 16
	.cfi_offset %rbp, -16
	movq	%rsp, %rbp
	.cfi_def_cfa_register %rbp
	pushq	%rbx
	subq	$72, %rsp
	.cfi_offset %rbx, -24
	movl	$1107702765, -40(%rbp)  # imm = 0x420633ED
	movq	%rdi, -48(%rbp)
	movq	%rsi, -56(%rbp)
	movl	%edx, -36(%rbp)
	movq	%rcx, -64(%rbp)
	movq	%r8, -72(%rbp)
	movl	$0, -28(%rbp)
	movl	$8, -32(%rbp)
	movl	$8, -20(%rbp)
	movl	$0, -16(%rbp)
.LBB25_1:                               # %for.cond
                                        # =>This Inner Loop Header: Depth=1
	movl	-16(%rbp), %eax
	cmpl	-36(%rbp), %eax
	jge	.LBB25_19
# %bb.2:                                # %for.body
                                        #   in Loop: Header=BB25_1 Depth=1
	cmpl	$16, -36(%rbp)
	jne	.LBB25_4
# %bb.3:                                # %cond.true
                                        #   in Loop: Header=BB25_1 Depth=1
	movslq	-16(%rbp), %rax
	movzbl	ZZ_SCAN(,%rax), %eax
	jmp	.LBB25_5
.LBB25_4:                               # %cond.false
                                        #   in Loop: Header=BB25_1 Depth=1
	movslq	-16(%rbp), %rax
	movzbl	ZZ_SCAN8(,%rax), %eax
.LBB25_5:                               # %cond.end
                                        #   in Loop: Header=BB25_1 Depth=1
	movl	%eax, -24(%rbp)
	cmpl	$0, -20(%rbp)
	je	.LBB25_14
# %bb.6:                                # %if.then
                                        #   in Loop: Header=BB25_1 Depth=1
	movq	-48(%rbp), %rax
	movslq	-24(%rbp), %rcx
	movswl	(%rax,%rcx,2), %eax
	subl	-32(%rbp), %eax
	movl	%eax, -12(%rbp)
	cmpl	$127, -12(%rbp)
	jle	.LBB25_8
# %bb.7:                                # %if.then12
                                        #   in Loop: Header=BB25_1 Depth=1
	movl	-12(%rbp), %eax
	subl	$256, %eax              # imm = 0x100
	movl	%eax, -12(%rbp)
	jmp	.LBB25_11
.LBB25_8:                               # %if.else
                                        #   in Loop: Header=BB25_1 Depth=1
	cmpl	$-128, -12(%rbp)
	jge	.LBB25_10
# %bb.9:                                # %if.then16
                                        #   in Loop: Header=BB25_1 Depth=1
	movl	-12(%rbp), %eax
	addl	$256, %eax              # imm = 0x100
	movl	%eax, -12(%rbp)
.LBB25_10:                              # %if.end
                                        #   in Loop: Header=BB25_1 Depth=1
	jmp	.LBB25_11
.LBB25_11:                              # %if.end17
                                        #   in Loop: Header=BB25_1 Depth=1
	movl	-12(%rbp), %esi
	movq	-72(%rbp), %rdx
	movabsq	$.L.str.3, %rdi
	callq	se_v
	xorl	%ecx, %ecx
	addl	-28(%rbp), %eax
	movl	%eax, -28(%rbp)
	movq	-48(%rbp), %rax
	movslq	-24(%rbp), %rdx
	movswl	(%rax,%rdx,2), %eax
	movl	%eax, -20(%rbp)
	cmpl	$0, -24(%rbp)
	jne	.LBB25_13
# %bb.12:                               # %land.rhs
                                        #   in Loop: Header=BB25_1 Depth=1
	cmpl	$0, -20(%rbp)
	sete	%cl
.LBB25_13:                              # %land.end
                                        #   in Loop: Header=BB25_1 Depth=1
	andb	$1, %cl
	movzbl	%cl, %eax
	movq	-64(%rbp), %rcx
	movswl	(%rcx), %edx
	orl	%eax, %edx
	movw	%dx, (%rcx)
.LBB25_14:                              # %if.end28
                                        #   in Loop: Header=BB25_1 Depth=1
	cmpl	$0, -20(%rbp)
	jne	.LBB25_16
# %bb.15:                               # %cond.true31
                                        #   in Loop: Header=BB25_1 Depth=1
	movl	-32(%rbp), %eax
	jmp	.LBB25_17
.LBB25_16:                              # %cond.false32
                                        #   in Loop: Header=BB25_1 Depth=1
	movl	-20(%rbp), %eax
.LBB25_17:                              # %cond.end33
                                        #   in Loop: Header=BB25_1 Depth=1
	movq	-56(%rbp), %rcx
	movslq	-24(%rbp), %rdx
	movw	%ax, (%rcx,%rdx,2)
	movq	-56(%rbp), %rax
	movslq	-24(%rbp), %rcx
	movswl	(%rax,%rcx,2), %eax
	movl	%eax, -32(%rbp)
# %bb.18:                               # %for.inc
                                        #   in Loop: Header=BB25_1 Depth=1
	movl	-16(%rbp), %eax
	addl	$1, %eax
	movl	%eax, -16(%rbp)
	jmp	.LBB25_1
.LBB25_19:                              # %for.end
	movl	-28(%rbp), %ebx
	cmpl	$1107702765, -40(%rbp)  # imm = 0x420633ED
	jne	.LBB25_21
.LBB25_20:
	movl	%ebx, %eax
	addq	$72, %rsp
	popq	%rbx
	popq	%rbp
	.cfi_def_cfa %rsp, 8
	retq
.LBB25_21:                              # %func_exit
	.cfi_def_cfa %rbp, 16
	callq	detect_breach
	jmp	.LBB25_20
.Lfunc_end25:
	.size	Scaling_List.14, .Lfunc_end25-Scaling_List.14
	.cfi_endproc
                                        # -- End function
	.globl	GenerateSequenceParameterSet.15 # -- Begin function GenerateSequenceParameterSet.15
	.p2align	4, 0x90
	.type	GenerateSequenceParameterSet.15,@function
GenerateSequenceParameterSet.15:        # @GenerateSequenceParameterSet.15
	.cfi_startproc
# %bb.0:                                # %entry
	pushq	%rbp
	.cfi_def_cfa_offset 16
	.cfi_offset %rbp, -16
	movq	%rsp, %rbp
	.cfi_def_cfa_register %rbp
	subq	$96, %rsp
	movl	$1423207565, -20(%rbp)  # imm = 0x54D46C8D
	movq	%rdi, -8(%rbp)
	movl	%esi, -84(%rbp)
	movq	.L__const.GenerateSequenceParameterSet.SubWidthC, %rax
	movq	%rax, -80(%rbp)
	movq	.L__const.GenerateSequenceParameterSet.SubWidthC+8, %rax
	movq	%rax, -72(%rbp)
	movq	.L__const.GenerateSequenceParameterSet.SubHeightC, %rax
	movq	%rax, -64(%rbp)
	movq	.L__const.GenerateSequenceParameterSet.SubHeightC+8, %rax
	movq	%rax, -56(%rbp)
	callq	IdentifyProfile
	cmpl	$100, %eax
	movb	$1, %al
	je	.LBB26_4
# %bb.1:                                # %lor.lhs.false
	callq	IdentifyProfile
	cmpl	$110, %eax
	movb	$1, %al
	je	.LBB26_4
# %bb.2:                                # %lor.lhs.false3
	callq	IdentifyProfile
	cmpl	$122, %eax
	movb	$1, %al
	je	.LBB26_4
# %bb.3:                                # %lor.rhs
	callq	IdentifyProfile
	cmpl	$144, %eax
	sete	%al
.LBB26_4:                               # %lor.end
	andb	$1, %al
	movzbl	%al, %eax
	movl	%eax, -16(%rbp)
	callq	IdentifyProfile
	movq	-8(%rbp), %rcx
	movl	%eax, 4(%rcx)
	callq	IdentifyLevel
	movq	-8(%rbp), %rcx
	movl	%eax, 24(%rcx)
	movq	-8(%rbp), %rax
	movl	$0, 8(%rax)
	movq	-8(%rbp), %rax
	movl	$0, 12(%rax)
	movq	-8(%rbp), %rax
	movl	$0, 16(%rax)
	movq	-8(%rbp), %rax
	movl	$0, 20(%rax)
	movq	-8(%rbp), %rax
	movl	$0, 28(%rax)
	movq	input, %rax
	movl	3296(%rax), %eax
	subl	$8, %eax
	movq	-8(%rbp), %rcx
	movl	%eax, 72(%rcx)
	movq	input, %rax
	movl	3300(%rax), %eax
	subl	$8, %eax
	movq	-8(%rbp), %rcx
	movl	%eax, 76(%rcx)
	movq	input, %rax
	movl	3324(%rax), %eax
	movq	-8(%rbp), %rcx
	cmpl	$144, 4(%rcx)
	sete	%cl
	andb	$1, %cl
	movzbl	%cl, %ecx
	andl	%ecx, %eax
	movq	img, %rcx
	movl	%eax, 72704(%rcx)
	movq	input, %rax
	movl	3328(%rax), %eax
	movq	img, %rcx
	movl	%eax, 72724(%rcx)
	movl	log2_max_frame_num_minus4, %eax
	movq	-8(%rbp), %rcx
	movl	%eax, 80(%rcx)
	movl	log2_max_pic_order_cnt_lsb_minus4, %eax
	movq	-8(%rbp), %rcx
	movl	%eax, 88(%rcx)
	movq	input, %rax
	movl	3208(%rax), %eax
	movq	-8(%rbp), %rcx
	movl	%eax, 84(%rcx)
	movq	img, %rax
	movl	72420(%rax), %eax
	movq	-8(%rbp), %rcx
	movl	%eax, 104(%rcx)
	movq	img, %rax
	movl	72408(%rax), %eax
	movq	-8(%rbp), %rcx
	movl	%eax, 92(%rcx)
	movq	img, %rax
	movl	72412(%rax), %eax
	movq	-8(%rbp), %rcx
	movl	%eax, 96(%rcx)
	movq	img, %rax
	movl	72416(%rax), %eax
	movq	-8(%rbp), %rcx
	movl	%eax, 100(%rcx)
	movl	$0, -12(%rbp)
.LBB26_5:                               # %for.cond
                                        # =>This Inner Loop Header: Depth=1
	movl	-12(%rbp), %eax
	movq	img, %rcx
	cmpl	72420(%rcx), %eax
	jae	.LBB26_8
# %bb.6:                                # %for.body
                                        #   in Loop: Header=BB26_5 Depth=1
	movq	img, %rax
	movl	-12(%rbp), %ecx
	movl	72424(%rax,%rcx,4), %eax
	movq	-8(%rbp), %rcx
	movl	-12(%rbp), %edx
	movl	%eax, 108(%rcx,%rdx,4)
# %bb.7:                                # %for.inc
                                        #   in Loop: Header=BB26_5 Depth=1
	movl	-12(%rbp), %eax
	addl	$1, %eax
	movl	%eax, -12(%rbp)
	jmp	.LBB26_5
.LBB26_8:                               # %for.end
	movq	input, %rax
	movl	36(%rax), %eax
	movq	-8(%rbp), %rcx
	movl	%eax, 1132(%rcx)
	movq	-8(%rbp), %rax
	movl	$0, 1136(%rax)
	movq	input, %rax
	cmpl	$0, 2880(%rax)
	movb	$1, %al
	jne	.LBB26_10
# %bb.9:                                # %lor.rhs26
	movq	input, %rax
	cmpl	$0, 2884(%rax)
	setne	%al
.LBB26_10:                              # %lor.end28
	xorl	%ecx, %ecx
	xorl	%esi, %esi
	xorb	$-1, %al
	andb	$1, %al
	movzbl	%al, %eax
	movq	-8(%rbp), %rdx
	movl	%eax, 1148(%rdx)
	movq	input, %rax
	movl	64(%rax), %eax
	movq	img, %rdx
	addl	72728(%rdx), %eax
	cltd
	movl	$16, %edi
	idivl	%edi
	subl	$1, %eax
	movq	-8(%rbp), %rdx
	movl	%eax, 1140(%rdx)
	movq	input, %rax
	movl	68(%rax), %eax
	movq	img, %rdx
	addl	72732(%rdx), %eax
	cltd
	idivl	%edi
	movq	-8(%rbp), %rdx
	movl	$2, %edi
	subl	1148(%rdx), %edi
	xorl	%edx, %edx
	divl	%edi
	subl	$1, %eax
	movq	-8(%rbp), %rdx
	movl	%eax, 1144(%rdx)
	movq	input, %rax
	cmpl	2884(%rax), %esi
	setne	%al
	andb	$1, %al
	movzbl	%al, %eax
	movq	-8(%rbp), %rdx
	movl	%eax, 1152(%rdx)
	movq	input, %rax
	movl	1252(%rax), %eax
	movq	-8(%rbp), %rdx
	movl	%eax, 1156(%rdx)
	movq	input, %rax
	cmpl	$0, 3312(%rax)
	je	.LBB26_12
# %bb.11:                               # %land.rhs
	movq	input, %rax
	cmpl	$3, 72(%rax)
	sete	%cl
.LBB26_12:                              # %land.end
	andb	$1, %cl
	movzbl	%cl, %eax
	movq	-8(%rbp), %rcx
	movl	%eax, 1180(%rcx)
	movq	input, %rax
	movl	72(%rax), %eax
	movq	-8(%rbp), %rcx
	movl	%eax, 32(%rcx)
	movq	-8(%rbp), %rax
	movl	1140(%rax), %eax
	addl	$1, %eax
	movl	%eax, -40(%rbp)
	movq	-8(%rbp), %rax
	movl	1144(%rax), %eax
	addl	$1, %eax
	movl	%eax, -24(%rbp)
	movq	-8(%rbp), %rax
	movl	$2, %ecx
	subl	1148(%rax), %ecx
	imull	-24(%rbp), %ecx
	movl	%ecx, -32(%rbp)
	movl	-40(%rbp), %eax
	shll	$4, %eax
	movl	%eax, -36(%rbp)
	movl	-32(%rbp), %eax
	shll	$4, %eax
	movl	%eax, -28(%rbp)
	movl	-36(%rbp), %edi
	movl	-28(%rbp), %esi
	movq	-8(%rbp), %rax
	movl	1152(%rax), %edx
	callq	alloc_colocated
	movq	%rax, Co_located
	cmpl	$0, -16(%rbp)
	je	.LBB26_24
# %bb.13:                               # %if.then
	movq	input, %rax
	movl	3256(%rax), %eax
	andl	$1, %eax
	movq	-8(%rbp), %rcx
	movl	%eax, 36(%rcx)
	movl	$0, -12(%rbp)
.LBB26_14:                              # %for.cond56
                                        # =>This Inner Loop Header: Depth=1
	cmpl	$8, -12(%rbp)
	jae	.LBB26_23
# %bb.15:                               # %for.body59
                                        #   in Loop: Header=BB26_14 Depth=1
	cmpl	$6, -12(%rbp)
	jae	.LBB26_17
# %bb.16:                               # %if.then62
                                        #   in Loop: Header=BB26_14 Depth=1
	movq	input, %rax
	movl	-12(%rbp), %ecx
	movl	3260(%rax,%rcx,4), %eax
	andl	$1, %eax
	movq	-8(%rbp), %rcx
	movl	-12(%rbp), %edx
	movl	%eax, 40(%rcx,%rdx,4)
	jmp	.LBB26_21
.LBB26_17:                              # %if.else
                                        #   in Loop: Header=BB26_14 Depth=1
	movq	input, %rax
	cmpl	$0, 3220(%rax)
	je	.LBB26_19
# %bb.18:                               # %if.then69
                                        #   in Loop: Header=BB26_14 Depth=1
	movq	input, %rax
	movl	-12(%rbp), %ecx
	movl	3260(%rax,%rcx,4), %eax
	andl	$1, %eax
	movq	-8(%rbp), %rcx
	movl	-12(%rbp), %edx
	movl	%eax, 40(%rcx,%rdx,4)
	jmp	.LBB26_20
.LBB26_19:                              # %if.else77
                                        #   in Loop: Header=BB26_14 Depth=1
	movq	-8(%rbp), %rax
	movl	-12(%rbp), %ecx
	movl	$0, 40(%rax,%rcx,4)
.LBB26_20:                              # %if.end
                                        #   in Loop: Header=BB26_14 Depth=1
	jmp	.LBB26_21
.LBB26_21:                              # %if.end81
                                        #   in Loop: Header=BB26_14 Depth=1
	jmp	.LBB26_22
.LBB26_22:                              # %for.inc82
                                        #   in Loop: Header=BB26_14 Depth=1
	movl	-12(%rbp), %eax
	addl	$1, %eax
	movl	%eax, -12(%rbp)
	jmp	.LBB26_14
.LBB26_23:                              # %for.end84
	jmp	.LBB26_29
.LBB26_24:                              # %if.else85
	movq	-8(%rbp), %rax
	movl	$0, 36(%rax)
	movl	$0, -12(%rbp)
.LBB26_25:                              # %for.cond87
                                        # =>This Inner Loop Header: Depth=1
	cmpl	$8, -12(%rbp)
	jae	.LBB26_28
# %bb.26:                               # %for.body90
                                        #   in Loop: Header=BB26_25 Depth=1
	movq	-8(%rbp), %rax
	movl	-12(%rbp), %ecx
	movl	$0, 40(%rax,%rcx,4)
# %bb.27:                               # %for.inc94
                                        #   in Loop: Header=BB26_25 Depth=1
	movl	-12(%rbp), %eax
	addl	$1, %eax
	movl	%eax, -12(%rbp)
	jmp	.LBB26_25
.LBB26_28:                              # %for.end96
	jmp	.LBB26_29
.LBB26_29:                              # %if.end97
	movq	img, %rax
	cmpl	$0, 72728(%rax)
	jne	.LBB26_31
# %bb.30:                               # %lor.lhs.false100
	movq	img, %rax
	cmpl	$0, 72732(%rax)
	je	.LBB26_36
.LBB26_31:                              # %if.then103
	movq	-8(%rbp), %rax
	movl	$1, 1160(%rax)
	movq	-8(%rbp), %rax
	movl	$0, 1164(%rax)
	movq	-8(%rbp), %rax
	movl	$0, 1172(%rax)
	movq	img, %rax
	movl	72728(%rax), %eax
	movq	-8(%rbp), %rcx
	movl	32(%rcx), %ecx
	cltd
	idivl	-80(%rbp,%rcx,4)
	movq	-8(%rbp), %rcx
	movl	%eax, 1168(%rcx)
	movq	img, %rax
	movl	72732(%rax), %eax
	movq	-8(%rbp), %rcx
	movl	32(%rcx), %ecx
	movl	-64(%rbp,%rcx,4), %ecx
	movq	-8(%rbp), %rdx
	movl	$2, %esi
	subl	1148(%rdx), %esi
	imull	%esi, %ecx
	xorl	%edx, %edx
	divl	%ecx
	movq	-8(%rbp), %rcx
	movl	%eax, 1176(%rcx)
	movq	img, %rax
	movl	72728(%rax), %eax
	movq	-8(%rbp), %rcx
	movl	32(%rcx), %ecx
	cltd
	idivl	-80(%rbp,%rcx,4)
	cmpl	$0, %edx
	je	.LBB26_33
# %bb.32:                               # %if.then122
	movabsq	$.L.str, %rdi
	movl	$500, %esi              # imm = 0x1F4
	callq	error
.LBB26_33:                              # %if.end123
	movq	img, %rax
	movl	72732(%rax), %eax
	movq	-8(%rbp), %rcx
	movl	32(%rcx), %ecx
	movl	-64(%rbp,%rcx,4), %ecx
	movq	-8(%rbp), %rdx
	movl	$2, %esi
	subl	1148(%rdx), %esi
	imull	%esi, %ecx
	xorl	%edx, %edx
	divl	%ecx
	cmpl	$0, %edx
	je	.LBB26_35
# %bb.34:                               # %if.then133
	movabsq	$.L.str.1, %rdi
	movl	$500, %esi              # imm = 0x1F4
	callq	error
.LBB26_35:                              # %if.end134
	jmp	.LBB26_37
.LBB26_36:                              # %if.else135
	movq	-8(%rbp), %rax
	movl	$0, 1160(%rax)
.LBB26_37:                              # %if.end137
	cmpl	$1423207565, -20(%rbp)  # imm = 0x54D46C8D
	jne	.LBB26_39
.LBB26_38:
	addq	$96, %rsp
	popq	%rbp
	.cfi_def_cfa %rsp, 8
	retq
.LBB26_39:                              # %func_exit
	.cfi_def_cfa %rbp, 16
	callq	detect_breach
	jmp	.LBB26_38
.Lfunc_end26:
	.size	GenerateSequenceParameterSet.15, .Lfunc_end26-GenerateSequenceParameterSet.15
	.cfi_endproc
                                        # -- End function
	.globl	GeneratePic_parameter_set_rbsp.16 # -- Begin function GeneratePic_parameter_set_rbsp.16
	.p2align	4, 0x90
	.type	GeneratePic_parameter_set_rbsp.16,@function
GeneratePic_parameter_set_rbsp.16:      # @GeneratePic_parameter_set_rbsp.16
	.cfi_startproc
# %bb.0:                                # %entry
	pushq	%rbp
	.cfi_def_cfa_offset 16
	.cfi_offset %rbp, -16
	movq	%rsp, %rbp
	.cfi_def_cfa_register %rbp
	pushq	%rbx
	subq	$56, %rsp
	.cfi_offset %rbx, -24
	movl	$769435886, -48(%rbp)   # imm = 0x2DDCA8EE
	movq	%rdi, -24(%rbp)
	movq	%rsi, -56(%rbp)
	movl	$0, -12(%rbp)
	movl	$1, %edi
	movl	$120, %esi
	callq	calloc
	movq	%rax, -32(%rbp)
	cmpq	$0, %rax
	jne	.LBB27_2
# %bb.1:                                # %if.then
	movabsq	$.L.str.42, %rdi
	callq	no_mem_exit
.LBB27_2:                               # %if.end
	movl	$1, %edi
	movl	$48, %esi
	callq	calloc
	movq	-32(%rbp), %rcx
	movq	%rax, (%rcx)
	cmpq	$0, %rax
	jne	.LBB27_4
# %bb.3:                                # %if.then3
	movabsq	$.L.str.43, %rdi
	callq	no_mem_exit
.LBB27_4:                               # %if.end4
	movq	-56(%rbp), %rax
	movq	-32(%rbp), %rcx
	movq	(%rcx), %rcx
	movq	%rax, 32(%rcx)
	movq	-32(%rbp), %rax
	movq	(%rax), %rax
	movl	$8, 4(%rax)
	movq	img, %rax
	movl	72492(%rax), %eax
	movq	-24(%rbp), %rcx
	movl	%eax, 56(%rcx)
	movq	-24(%rbp), %rax
	movl	4(%rax), %esi
	movq	-32(%rbp), %rdx
	movabsq	$.L.str.44, %rdi
	callq	ue_v
	addl	-12(%rbp), %eax
	movl	%eax, -12(%rbp)
	movq	-24(%rbp), %rax
	movl	8(%rax), %esi
	movq	-32(%rbp), %rdx
	movabsq	$.L.str.45, %rdi
	callq	ue_v
	addl	-12(%rbp), %eax
	movl	%eax, -12(%rbp)
	movq	-24(%rbp), %rax
	movl	12(%rax), %esi
	movq	-32(%rbp), %rdx
	movabsq	$.L.str.46, %rdi
	callq	u_1
	addl	-12(%rbp), %eax
	movl	%eax, -12(%rbp)
	movq	-24(%rbp), %rax
	movl	56(%rax), %esi
	movq	-32(%rbp), %rdx
	movabsq	$.L.str.47, %rdi
	callq	u_1
	addl	-12(%rbp), %eax
	movl	%eax, -12(%rbp)
	movq	-24(%rbp), %rax
	movl	60(%rax), %esi
	movq	-32(%rbp), %rdx
	movabsq	$.L.str.48, %rdi
	callq	ue_v
	addl	-12(%rbp), %eax
	movl	%eax, -12(%rbp)
	movq	-24(%rbp), %rax
	cmpl	$0, 60(%rax)
	jbe	.LBB27_40
# %bb.5:                                # %if.then20
	movq	-24(%rbp), %rax
	movl	64(%rax), %esi
	movq	-32(%rbp), %rdx
	movabsq	$.L.str.49, %rdi
	callq	ue_v
	addl	-12(%rbp), %eax
	movl	%eax, -12(%rbp)
	movq	-24(%rbp), %rax
	cmpl	$0, 64(%rax)
	jne	.LBB27_11
# %bb.6:                                # %if.then25
	movl	$0, -16(%rbp)
.LBB27_7:                               # %for.cond
                                        # =>This Inner Loop Header: Depth=1
	movl	-16(%rbp), %eax
	movq	-24(%rbp), %rcx
	cmpl	60(%rcx), %eax
	ja	.LBB27_10
# %bb.8:                                # %for.body
                                        #   in Loop: Header=BB27_7 Depth=1
	movq	-24(%rbp), %rax
	movl	-16(%rbp), %ecx
	movl	68(%rax,%rcx,4), %esi
	movq	-32(%rbp), %rdx
	movabsq	$.L.str.50, %rdi
	callq	ue_v
	addl	-12(%rbp), %eax
	movl	%eax, -12(%rbp)
# %bb.9:                                # %for.inc
                                        #   in Loop: Header=BB27_7 Depth=1
	movl	-16(%rbp), %eax
	addl	$1, %eax
	movl	%eax, -16(%rbp)
	jmp	.LBB27_7
.LBB27_10:                              # %for.end
	jmp	.LBB27_39
.LBB27_11:                              # %if.else
	movq	-24(%rbp), %rax
	cmpl	$2, 64(%rax)
	jne	.LBB27_17
# %bb.12:                               # %if.then32
	movl	$0, -16(%rbp)
.LBB27_13:                              # %for.cond33
                                        # =>This Inner Loop Header: Depth=1
	movl	-16(%rbp), %eax
	movq	-24(%rbp), %rcx
	cmpl	60(%rcx), %eax
	jae	.LBB27_16
# %bb.14:                               # %for.body36
                                        #   in Loop: Header=BB27_13 Depth=1
	movq	-24(%rbp), %rax
	movl	-16(%rbp), %ecx
	movl	100(%rax,%rcx,4), %esi
	movq	-32(%rbp), %rdx
	movabsq	$.L.str.51, %rdi
	callq	ue_v
	addl	-12(%rbp), %eax
	movl	%eax, -12(%rbp)
	movq	-24(%rbp), %rax
	movl	-16(%rbp), %ecx
	movl	132(%rax,%rcx,4), %esi
	movq	-32(%rbp), %rdx
	movabsq	$.L.str.52, %rdi
	callq	ue_v
	addl	-12(%rbp), %eax
	movl	%eax, -12(%rbp)
# %bb.15:                               # %for.inc45
                                        #   in Loop: Header=BB27_13 Depth=1
	movl	-16(%rbp), %eax
	addl	$1, %eax
	movl	%eax, -16(%rbp)
	jmp	.LBB27_13
.LBB27_16:                              # %for.end47
	jmp	.LBB27_38
.LBB27_17:                              # %if.else48
	movq	-24(%rbp), %rax
	cmpl	$3, 64(%rax)
	je	.LBB27_20
# %bb.18:                               # %lor.lhs.false
	movq	-24(%rbp), %rax
	cmpl	$4, 64(%rax)
	je	.LBB27_20
# %bb.19:                               # %lor.lhs.false53
	movq	-24(%rbp), %rax
	cmpl	$5, 64(%rax)
	jne	.LBB27_21
.LBB27_20:                              # %if.then56
	movq	-24(%rbp), %rax
	movl	164(%rax), %esi
	movq	-32(%rbp), %rdx
	movabsq	$.L.str.53, %rdi
	callq	u_1
	addl	-12(%rbp), %eax
	movl	%eax, -12(%rbp)
	movq	-24(%rbp), %rax
	movl	168(%rax), %esi
	movq	-32(%rbp), %rdx
	movabsq	$.L.str.54, %rdi
	callq	ue_v
	addl	-12(%rbp), %eax
	movl	%eax, -12(%rbp)
	jmp	.LBB27_37
.LBB27_21:                              # %if.else61
	movq	-24(%rbp), %rax
	cmpl	$6, 64(%rax)
	jne	.LBB27_36
# %bb.22:                               # %if.then64
	movq	-24(%rbp), %rax
	cmpl	$4, 60(%rax)
	jb	.LBB27_24
# %bb.23:                               # %if.then67
	movl	$3, -40(%rbp)
	jmp	.LBB27_31
.LBB27_24:                              # %if.else68
	movq	-24(%rbp), %rax
	cmpl	$2, 60(%rax)
	jb	.LBB27_26
# %bb.25:                               # %if.then71
	movl	$2, -40(%rbp)
	jmp	.LBB27_30
.LBB27_26:                              # %if.else72
	movq	-24(%rbp), %rax
	cmpl	$1, 60(%rax)
	jb	.LBB27_28
# %bb.27:                               # %if.then75
	movl	$1, -40(%rbp)
	jmp	.LBB27_29
.LBB27_28:                              # %if.else76
	movl	$0, -40(%rbp)
.LBB27_29:                              # %if.end77
	jmp	.LBB27_30
.LBB27_30:                              # %if.end78
	jmp	.LBB27_31
.LBB27_31:                              # %if.end79
	movq	-24(%rbp), %rax
	movl	172(%rax), %esi
	movq	-32(%rbp), %rdx
	movabsq	$.L.str.55, %rdi
	callq	ue_v
	addl	-12(%rbp), %eax
	movl	%eax, -12(%rbp)
	movl	$0, -16(%rbp)
.LBB27_32:                              # %for.cond82
                                        # =>This Inner Loop Header: Depth=1
	movl	-16(%rbp), %eax
	movq	-24(%rbp), %rcx
	cmpl	172(%rcx), %eax
	ja	.LBB27_35
# %bb.33:                               # %for.body85
                                        #   in Loop: Header=BB27_32 Depth=1
	movl	-40(%rbp), %edi
	movq	-24(%rbp), %rax
	movq	176(%rax), %rax
	movl	-16(%rbp), %ecx
	movzbl	(%rax,%rcx), %edx
	movq	-32(%rbp), %rcx
	movabsq	$.L.str.56, %rsi
	callq	u_v
	addl	-12(%rbp), %eax
	movl	%eax, -12(%rbp)
# %bb.34:                               # %for.inc90
                                        #   in Loop: Header=BB27_32 Depth=1
	movl	-16(%rbp), %eax
	addl	$1, %eax
	movl	%eax, -16(%rbp)
	jmp	.LBB27_32
.LBB27_35:                              # %for.end92
	jmp	.LBB27_36
.LBB27_36:                              # %if.end93
	jmp	.LBB27_37
.LBB27_37:                              # %if.end94
	jmp	.LBB27_38
.LBB27_38:                              # %if.end95
	jmp	.LBB27_39
.LBB27_39:                              # %if.end96
	jmp	.LBB27_40
.LBB27_40:                              # %if.end97
	movq	-24(%rbp), %rax
	movl	184(%rax), %esi
	movq	-32(%rbp), %rdx
	movabsq	$.L.str.57, %rdi
	callq	ue_v
	addl	-12(%rbp), %eax
	movl	%eax, -12(%rbp)
	movq	-24(%rbp), %rax
	movl	188(%rax), %esi
	movq	-32(%rbp), %rdx
	movabsq	$.L.str.58, %rdi
	callq	ue_v
	addl	-12(%rbp), %eax
	movl	%eax, -12(%rbp)
	movq	-24(%rbp), %rax
	movl	192(%rax), %esi
	movq	-32(%rbp), %rdx
	movabsq	$.L.str.59, %rdi
	callq	u_1
	addl	-12(%rbp), %eax
	movl	%eax, -12(%rbp)
	movq	-24(%rbp), %rax
	movl	196(%rax), %edx
	movq	-32(%rbp), %rcx
	movl	$2, %edi
	movabsq	$.L.str.60, %rsi
	callq	u_v
	addl	-12(%rbp), %eax
	movl	%eax, -12(%rbp)
	movq	-24(%rbp), %rax
	movl	200(%rax), %esi
	movq	-32(%rbp), %rdx
	movabsq	$.L.str.61, %rdi
	callq	se_v
	addl	-12(%rbp), %eax
	movl	%eax, -12(%rbp)
	movq	-24(%rbp), %rax
	movl	204(%rax), %esi
	movq	-32(%rbp), %rdx
	movabsq	$.L.str.62, %rdi
	callq	se_v
	addl	-12(%rbp), %eax
	movl	%eax, -12(%rbp)
	callq	IdentifyProfile
	movl	%eax, -36(%rbp)
	cmpl	$100, -36(%rbp)
	je	.LBB27_44
# %bb.41:                               # %lor.lhs.false113
	cmpl	$110, -36(%rbp)
	je	.LBB27_44
# %bb.42:                               # %lor.lhs.false116
	cmpl	$122, -36(%rbp)
	je	.LBB27_44
# %bb.43:                               # %lor.lhs.false119
	cmpl	$144, -36(%rbp)
	jne	.LBB27_45
.LBB27_44:                              # %if.then122
	movq	-24(%rbp), %rax
	movl	212(%rax), %esi
	movq	-32(%rbp), %rdx
	movabsq	$.L.str.63, %rdi
	callq	se_v
	addl	-12(%rbp), %eax
	movl	%eax, -12(%rbp)
	jmp	.LBB27_46
.LBB27_45:                              # %if.else125
	movq	-24(%rbp), %rax
	movl	208(%rax), %esi
	movq	-32(%rbp), %rdx
	movabsq	$.L.str.63, %rdi
	callq	se_v
	addl	-12(%rbp), %eax
	movl	%eax, -12(%rbp)
.LBB27_46:                              # %if.end128
	movq	-24(%rbp), %rax
	movl	220(%rax), %esi
	movq	-32(%rbp), %rdx
	movabsq	$.L.str.64, %rdi
	callq	u_1
	addl	-12(%rbp), %eax
	movl	%eax, -12(%rbp)
	movq	-24(%rbp), %rax
	movl	224(%rax), %esi
	movq	-32(%rbp), %rdx
	movabsq	$.L.str.65, %rdi
	callq	u_1
	addl	-12(%rbp), %eax
	movl	%eax, -12(%rbp)
	movq	-24(%rbp), %rax
	movl	228(%rax), %esi
	movq	-32(%rbp), %rdx
	movabsq	$.L.str.66, %rdi
	callq	u_1
	addl	-12(%rbp), %eax
	movl	%eax, -12(%rbp)
	cmpl	$100, -36(%rbp)
	je	.LBB27_50
# %bb.47:                               # %lor.lhs.false137
	cmpl	$110, -36(%rbp)
	je	.LBB27_50
# %bb.48:                               # %lor.lhs.false140
	cmpl	$122, -36(%rbp)
	je	.LBB27_50
# %bb.49:                               # %lor.lhs.false143
	cmpl	$144, -36(%rbp)
	jne	.LBB27_62
.LBB27_50:                              # %if.then146
	movq	-24(%rbp), %rax
	movl	16(%rax), %esi
	movq	-32(%rbp), %rdx
	movabsq	$.L.str.67, %rdi
	callq	u_1
	addl	-12(%rbp), %eax
	movl	%eax, -12(%rbp)
	movq	-24(%rbp), %rax
	movl	20(%rax), %esi
	movq	-32(%rbp), %rdx
	movabsq	$.L.str.68, %rdi
	callq	u_1
	addl	-12(%rbp), %eax
	movl	%eax, -12(%rbp)
	movq	-24(%rbp), %rax
	cmpl	$0, 20(%rax)
	je	.LBB27_61
# %bb.51:                               # %if.then152
	movl	$0, -16(%rbp)
.LBB27_52:                              # %for.cond153
                                        # =>This Inner Loop Header: Depth=1
	movl	-16(%rbp), %eax
	movq	-24(%rbp), %rcx
	movl	16(%rcx), %ecx
	shll	$1, %ecx
	addl	$6, %ecx
	cmpl	%ecx, %eax
	jae	.LBB27_60
# %bb.53:                               # %for.body158
                                        #   in Loop: Header=BB27_52 Depth=1
	movq	-24(%rbp), %rax
	movl	-16(%rbp), %ecx
	movl	24(%rax,%rcx,4), %esi
	movq	-32(%rbp), %rdx
	movabsq	$.L.str.69, %rdi
	callq	u_1
	addl	-12(%rbp), %eax
	movl	%eax, -12(%rbp)
	movq	-24(%rbp), %rax
	movl	-16(%rbp), %ecx
	cmpl	$0, 24(%rax,%rcx,4)
	je	.LBB27_58
# %bb.54:                               # %if.then167
                                        #   in Loop: Header=BB27_52 Depth=1
	cmpl	$6, -16(%rbp)
	jae	.LBB27_56
# %bb.55:                               # %if.then170
                                        #   in Loop: Header=BB27_52 Depth=1
	movl	-16(%rbp), %eax
	shlq	$5, %rax
	movabsq	$ScalingList4x4input, %rdi
	addq	%rax, %rdi
	movl	-16(%rbp), %eax
	shlq	$5, %rax
	movabsq	$ScalingList4x4, %rsi
	addq	%rax, %rsi
	movl	-16(%rbp), %eax
	shlq	$1, %rax
	movabsq	$UseDefaultScalingMatrix4x4Flag, %rcx
	addq	%rax, %rcx
	movq	-32(%rbp), %r8
	movl	$16, %edx
	callq	Scaling_List
	addl	-12(%rbp), %eax
	movl	%eax, -12(%rbp)
	jmp	.LBB27_57
.LBB27_56:                              # %if.else180
                                        #   in Loop: Header=BB27_52 Depth=1
	movl	-16(%rbp), %eax
	subl	$6, %eax
	movl	%eax, %eax
	shlq	$7, %rax
	movabsq	$ScalingList8x8input, %rdi
	addq	%rax, %rdi
	movl	-16(%rbp), %eax
	subl	$6, %eax
	movl	%eax, %eax
	shlq	$7, %rax
	movabsq	$ScalingList8x8, %rsi
	addq	%rax, %rsi
	movl	-16(%rbp), %eax
	subl	$6, %eax
	movl	%eax, %eax
	shlq	$1, %rax
	movabsq	$UseDefaultScalingMatrix8x8Flag, %rcx
	addq	%rax, %rcx
	movq	-32(%rbp), %r8
	movl	$64, %edx
	callq	Scaling_List
	addl	-12(%rbp), %eax
	movl	%eax, -12(%rbp)
.LBB27_57:                              # %if.end193
                                        #   in Loop: Header=BB27_52 Depth=1
	jmp	.LBB27_58
.LBB27_58:                              # %if.end194
                                        #   in Loop: Header=BB27_52 Depth=1
	jmp	.LBB27_59
.LBB27_59:                              # %for.inc195
                                        #   in Loop: Header=BB27_52 Depth=1
	movl	-16(%rbp), %eax
	addl	$1, %eax
	movl	%eax, -16(%rbp)
	jmp	.LBB27_52
.LBB27_60:                              # %for.end197
	jmp	.LBB27_61
.LBB27_61:                              # %if.end198
	movq	-24(%rbp), %rax
	movl	216(%rax), %esi
	movq	-32(%rbp), %rdx
	movabsq	$.L.str.70, %rdi
	callq	se_v
	addl	-12(%rbp), %eax
	movl	%eax, -12(%rbp)
.LBB27_62:                              # %if.end201
	movq	-32(%rbp), %rax
	movq	(%rax), %rdi
	callq	SODBtoRBSP
	movq	-32(%rbp), %rax
	movq	(%rax), %rax
	movl	(%rax), %eax
	movl	%eax, -44(%rbp)
	movq	-32(%rbp), %rax
	movq	(%rax), %rdi
	callq	free
	movq	-32(%rbp), %rdi
	callq	free
	movl	-44(%rbp), %ebx
	cmpl	$769435886, -48(%rbp)   # imm = 0x2DDCA8EE
	jne	.LBB27_64
.LBB27_63:
	movl	%ebx, %eax
	addq	$56, %rsp
	popq	%rbx
	popq	%rbp
	.cfi_def_cfa %rsp, 8
	retq
.LBB27_64:                              # %func_exit
	.cfi_def_cfa %rbp, 16
	callq	detect_breach
	jmp	.LBB27_63
.Lfunc_end27:
	.size	GeneratePic_parameter_set_rbsp.16, .Lfunc_end27-GeneratePic_parameter_set_rbsp.16
	.cfi_endproc
                                        # -- End function
	.globl	GenerateSeq_parameter_set_NALU.17 # -- Begin function GenerateSeq_parameter_set_NALU.17
	.p2align	4, 0x90
	.type	GenerateSeq_parameter_set_NALU.17,@function
GenerateSeq_parameter_set_NALU.17:      # @GenerateSeq_parameter_set_NALU.17
	.cfi_startproc
# %bb.0:                                # %entry
	pushq	%rbp
	.cfi_def_cfa_offset 16
	.cfi_offset %rbp, -16
	movq	%rsp, %rbp
	.cfi_def_cfa_register %rbp
	pushq	%rbx
	subq	$64040, %rsp            # imm = 0xFA28
	.cfi_offset %rbx, -24
	movl	$1278147500, -28(%rbp)  # imm = 0x4C2EFBAC
	movl	$64000, %edi            # imm = 0xFA00
	movb	$0, %al
	callq	AllocNALU
	leaq	-64032(%rbp), %rsi
	movq	%rax, -24(%rbp)
	movl	$0, -12(%rbp)
	movq	active_sps, %rdi
	callq	GenerateSeq_parameter_set_rbsp
	leaq	-64032(%rbp), %rdi
	movl	%eax, -12(%rbp)
	movq	-24(%rbp), %rsi
	movl	-12(%rbp), %edx
	movl	$7, %ecx
	movl	$3, %r8d
	xorl	%r9d, %r9d
	movl	$1, (%rsp)
	callq	RBSPtoNALU
	movl	%eax, -32(%rbp)
	movq	-24(%rbp), %rax
	movl	$4, (%rax)
	movq	-24(%rbp), %rbx
	cmpl	$1278147500, -28(%rbp)  # imm = 0x4C2EFBAC
	jne	.LBB28_2
.LBB28_1:
	movq	%rbx, %rax
	addq	$64040, %rsp            # imm = 0xFA28
	popq	%rbx
	popq	%rbp
	.cfi_def_cfa %rsp, 8
	retq
.LBB28_2:                               # %func_exit
	.cfi_def_cfa %rbp, 16
	callq	detect_breach
	jmp	.LBB28_1
.Lfunc_end28:
	.size	GenerateSeq_parameter_set_NALU.17, .Lfunc_end28-GenerateSeq_parameter_set_NALU.17
	.cfi_endproc
                                        # -- End function
	.p2align	4, 0x90         # -- Begin function GenerateVUISequenceParameters.18
	.type	GenerateVUISequenceParameters.18,@function
GenerateVUISequenceParameters.18:       # @GenerateVUISequenceParameters.18
	.cfi_startproc
# %bb.0:                                # %entry
	pushq	%rbp
	.cfi_def_cfa_offset 16
	.cfi_offset %rbp, -16
	movq	%rsp, %rbp
	.cfi_def_cfa_register %rbp
	pushq	%rbx
	subq	$24, %rsp
	.cfi_offset %rbx, -24
	movl	$689408763, -28(%rbp)   # imm = 0x29178AFB
	movq	%rdi, -24(%rbp)
	movl	$0, -12(%rbp)
	movq	input, %rax
	cmpl	$0, 3312(%rax)
	je	.LBB29_4
# %bb.1:                                # %land.lhs.true
	movq	input, %rax
	cmpl	$3, 72(%rax)
	jne	.LBB29_4
# %bb.2:                                # %if.then
	movabsq	$.L.str.71, %rdi
	movb	$0, %al
	callq	printf
	movq	-24(%rbp), %rdx
	movabsq	$.L.str.72, %rdi
	xorl	%esi, %esi
	callq	u_1
	addl	-12(%rbp), %eax
	movl	%eax, -12(%rbp)
	movq	-24(%rbp), %rdx
	movabsq	$.L.str.73, %rdi
	xorl	%esi, %esi
	callq	u_1
	addl	-12(%rbp), %eax
	movl	%eax, -12(%rbp)
	movq	-24(%rbp), %rdx
	movabsq	$.L.str.74, %rdi
	movl	$1, %esi
	callq	u_1
	addl	-12(%rbp), %eax
	movl	%eax, -12(%rbp)
	movq	-24(%rbp), %rcx
	movl	$3, %edi
	movabsq	$.L.str.75, %rsi
	movl	$2, %edx
	callq	u_v
	addl	-12(%rbp), %eax
	movl	%eax, -12(%rbp)
	movq	-24(%rbp), %rdx
	movabsq	$.L.str.76, %rdi
	movl	$1, %esi
	callq	u_1
	addl	-12(%rbp), %eax
	movl	%eax, -12(%rbp)
	movq	-24(%rbp), %rdx
	movabsq	$.L.str.77, %rdi
	movl	$1, %esi
	callq	u_1
	addl	-12(%rbp), %eax
	movl	%eax, -12(%rbp)
	movq	-24(%rbp), %rcx
	movl	$8, %edi
	movabsq	$.L.str.78, %rsi
	movl	$2, %edx
	callq	u_v
	addl	-12(%rbp), %eax
	movl	%eax, -12(%rbp)
	movq	-24(%rbp), %rcx
	movl	$8, %edi
	movabsq	$.L.str.79, %rsi
	movl	$2, %edx
	callq	u_v
	addl	-12(%rbp), %eax
	movl	%eax, -12(%rbp)
	movq	-24(%rbp), %rcx
	movl	$8, %edi
	movabsq	$.L.str.80, %rsi
	xorl	%edx, %edx
	callq	u_v
	addl	-12(%rbp), %eax
	movl	%eax, -12(%rbp)
	movq	-24(%rbp), %rdx
	movabsq	$.L.str.81, %rdi
	xorl	%esi, %esi
	callq	u_1
	addl	-12(%rbp), %eax
	movl	%eax, -12(%rbp)
	movq	-24(%rbp), %rdx
	movabsq	$.L.str.82, %rdi
	xorl	%esi, %esi
	callq	u_1
	addl	-12(%rbp), %eax
	movl	%eax, -12(%rbp)
	movq	-24(%rbp), %rdx
	movabsq	$.L.str.83, %rdi
	xorl	%esi, %esi
	callq	u_1
	addl	-12(%rbp), %eax
	movl	%eax, -12(%rbp)
	movq	-24(%rbp), %rdx
	movabsq	$.L.str.84, %rdi
	xorl	%esi, %esi
	callq	u_1
	addl	-12(%rbp), %eax
	movl	%eax, -12(%rbp)
	movq	-24(%rbp), %rdx
	movabsq	$.L.str.85, %rdi
	xorl	%esi, %esi
	callq	u_1
	addl	-12(%rbp), %eax
	movl	%eax, -12(%rbp)
	movq	-24(%rbp), %rdx
	movabsq	$.L.str.86, %rdi
	xorl	%esi, %esi
	callq	u_1
	addl	-12(%rbp), %eax
	movl	%eax, -12(%rbp)
	movl	-12(%rbp), %ebx
	cmpl	$689408763, -28(%rbp)   # imm = 0x29178AFB
	jne	.LBB29_5
.LBB29_3:
	movl	%ebx, %eax
	addq	$24, %rsp
	popq	%rbx
	popq	%rbp
	.cfi_def_cfa %rsp, 8
	retq
.LBB29_4:                               # %if.else
	.cfi_def_cfa %rbp, 16
	movabsq	$.L.str.87, %rdi
	movb	$0, %al
	callq	printf
	movl	$4294967295, %edi       # imm = 0xFFFFFFFF
	callq	exit
.LBB29_5:                               # %func_exit
	callq	detect_breach
	jmp	.LBB29_3
.Lfunc_end29:
	.size	GenerateVUISequenceParameters.18, .Lfunc_end29-GenerateVUISequenceParameters.18
	.cfi_endproc
                                        # -- End function
	.globl	GenerateSeq_parameter_set_rbsp.19 # -- Begin function GenerateSeq_parameter_set_rbsp.19
	.p2align	4, 0x90
	.type	GenerateSeq_parameter_set_rbsp.19,@function
GenerateSeq_parameter_set_rbsp.19:      # @GenerateSeq_parameter_set_rbsp.19
	.cfi_startproc
# %bb.0:                                # %entry
	pushq	%rbp
	.cfi_def_cfa_offset 16
	.cfi_offset %rbp, -16
	movq	%rsp, %rbp
	.cfi_def_cfa_register %rbp
	pushq	%rbx
	subq	$56, %rsp
	.cfi_offset %rbx, -24
	movl	$272137215, -44(%rbp)   # imm = 0x10387BFF
	movq	%rdi, -32(%rbp)
	movq	%rsi, -56(%rbp)
	movl	$0, -12(%rbp)
	movl	$1, %edi
	movl	$120, %esi
	callq	calloc
	movq	%rax, -24(%rbp)
	cmpq	$0, %rax
	jne	.LBB30_2
# %bb.1:                                # %if.then
	movabsq	$.L.str.4, %rdi
	callq	no_mem_exit
.LBB30_2:                               # %if.end
	movl	$1, %edi
	movl	$48, %esi
	callq	calloc
	movq	-24(%rbp), %rcx
	movq	%rax, (%rcx)
	cmpq	$0, %rax
	jne	.LBB30_4
# %bb.3:                                # %if.then3
	movabsq	$.L.str.5, %rdi
	callq	no_mem_exit
.LBB30_4:                               # %if.end4
	movq	-56(%rbp), %rax
	movq	-24(%rbp), %rcx
	movq	(%rcx), %rcx
	movq	%rax, 32(%rcx)
	movq	-24(%rbp), %rax
	movq	(%rax), %rax
	movl	$8, 4(%rax)
	movq	-32(%rbp), %rax
	movl	4(%rax), %edx
	movq	-24(%rbp), %rcx
	movl	$8, %edi
	movabsq	$.L.str.6, %rsi
	callq	u_v
	addl	-12(%rbp), %eax
	movl	%eax, -12(%rbp)
	movq	-32(%rbp), %rax
	movl	8(%rax), %esi
	movq	-24(%rbp), %rdx
	movabsq	$.L.str.7, %rdi
	callq	u_1
	addl	-12(%rbp), %eax
	movl	%eax, -12(%rbp)
	movq	-32(%rbp), %rax
	movl	12(%rax), %esi
	movq	-24(%rbp), %rdx
	movabsq	$.L.str.8, %rdi
	callq	u_1
	addl	-12(%rbp), %eax
	movl	%eax, -12(%rbp)
	movq	-32(%rbp), %rax
	movl	16(%rax), %esi
	movq	-24(%rbp), %rdx
	movabsq	$.L.str.9, %rdi
	callq	u_1
	addl	-12(%rbp), %eax
	movl	%eax, -12(%rbp)
	movq	-32(%rbp), %rax
	movl	20(%rax), %esi
	movq	-24(%rbp), %rdx
	movabsq	$.L.str.10, %rdi
	callq	u_1
	addl	-12(%rbp), %eax
	movl	%eax, -12(%rbp)
	movq	-24(%rbp), %rcx
	movl	$4, %edi
	movabsq	$.L.str.11, %rsi
	xorl	%edx, %edx
	callq	u_v
	addl	-12(%rbp), %eax
	movl	%eax, -12(%rbp)
	movq	-32(%rbp), %rax
	movl	24(%rax), %edx
	movq	-24(%rbp), %rcx
	movl	$8, %edi
	movabsq	$.L.str.12, %rsi
	callq	u_v
	addl	-12(%rbp), %eax
	movl	%eax, -12(%rbp)
	movq	-32(%rbp), %rax
	movl	28(%rax), %esi
	movq	-24(%rbp), %rdx
	movabsq	$.L.str.13, %rdi
	callq	ue_v
	addl	-12(%rbp), %eax
	movl	%eax, -12(%rbp)
	movq	-32(%rbp), %rax
	cmpl	$100, 4(%rax)
	je	.LBB30_8
# %bb.5:                                # %lor.lhs.false
	movq	-32(%rbp), %rax
	cmpl	$110, 4(%rax)
	je	.LBB30_8
# %bb.6:                                # %lor.lhs.false26
	movq	-32(%rbp), %rax
	cmpl	$122, 4(%rax)
	je	.LBB30_8
# %bb.7:                                # %lor.lhs.false29
	movq	-32(%rbp), %rax
	cmpl	$144, 4(%rax)
	jne	.LBB30_22
.LBB30_8:                               # %if.then32
	movq	-32(%rbp), %rax
	movl	32(%rax), %esi
	movq	-24(%rbp), %rdx
	movabsq	$.L.str.14, %rdi
	callq	ue_v
	addl	-12(%rbp), %eax
	movl	%eax, -12(%rbp)
	movq	img, %rax
	cmpl	$3, 72700(%rax)
	jne	.LBB30_10
# %bb.9:                                # %if.then36
	movq	img, %rax
	movl	72724(%rax), %esi
	movq	-24(%rbp), %rdx
	movabsq	$.L.str.15, %rdi
	callq	u_1
	addl	-12(%rbp), %eax
	movl	%eax, -12(%rbp)
.LBB30_10:                              # %if.end39
	movq	-32(%rbp), %rax
	movl	72(%rax), %esi
	movq	-24(%rbp), %rdx
	movabsq	$.L.str.16, %rdi
	callq	ue_v
	addl	-12(%rbp), %eax
	movl	%eax, -12(%rbp)
	movq	-32(%rbp), %rax
	movl	76(%rax), %esi
	movq	-24(%rbp), %rdx
	movabsq	$.L.str.17, %rdi
	callq	ue_v
	addl	-12(%rbp), %eax
	movl	%eax, -12(%rbp)
	movq	img, %rax
	movl	72704(%rax), %esi
	movq	-24(%rbp), %rdx
	movabsq	$.L.str.18, %rdi
	callq	u_1
	addl	-12(%rbp), %eax
	movl	%eax, -12(%rbp)
	movq	-32(%rbp), %rax
	movl	36(%rax), %esi
	movq	-24(%rbp), %rdx
	movabsq	$.L.str.19, %rdi
	callq	u_1
	addl	-12(%rbp), %eax
	movl	%eax, -12(%rbp)
	movq	-32(%rbp), %rax
	cmpl	$0, 36(%rax)
	je	.LBB30_21
# %bb.11:                               # %if.then49
	movl	$0, -36(%rbp)
.LBB30_12:                              # %for.cond
                                        # =>This Inner Loop Header: Depth=1
	cmpl	$8, -36(%rbp)
	jae	.LBB30_20
# %bb.13:                               # %for.body
                                        #   in Loop: Header=BB30_12 Depth=1
	movq	-32(%rbp), %rax
	movl	-36(%rbp), %ecx
	movl	40(%rax,%rcx,4), %esi
	movq	-24(%rbp), %rdx
	movabsq	$.L.str.20, %rdi
	callq	u_1
	addl	-12(%rbp), %eax
	movl	%eax, -12(%rbp)
	movq	-32(%rbp), %rax
	movl	-36(%rbp), %ecx
	cmpl	$0, 40(%rax,%rcx,4)
	je	.LBB30_18
# %bb.14:                               # %if.then57
                                        #   in Loop: Header=BB30_12 Depth=1
	cmpl	$6, -36(%rbp)
	jae	.LBB30_16
# %bb.15:                               # %if.then59
                                        #   in Loop: Header=BB30_12 Depth=1
	movl	-36(%rbp), %eax
	shlq	$5, %rax
	movabsq	$ScalingList4x4input, %rdi
	addq	%rax, %rdi
	movl	-36(%rbp), %eax
	shlq	$5, %rax
	movabsq	$ScalingList4x4, %rsi
	addq	%rax, %rsi
	movl	-36(%rbp), %eax
	shlq	$1, %rax
	movabsq	$UseDefaultScalingMatrix4x4Flag, %rcx
	addq	%rax, %rcx
	movq	-24(%rbp), %r8
	movl	$16, %edx
	callq	Scaling_List
	addl	-12(%rbp), %eax
	movl	%eax, -12(%rbp)
	jmp	.LBB30_17
.LBB30_16:                              # %if.else
                                        #   in Loop: Header=BB30_12 Depth=1
	movl	-36(%rbp), %eax
	subl	$6, %eax
	movl	%eax, %eax
	shlq	$7, %rax
	movabsq	$ScalingList8x8input, %rdi
	addq	%rax, %rdi
	movl	-36(%rbp), %eax
	subl	$6, %eax
	movl	%eax, %eax
	shlq	$7, %rax
	movabsq	$ScalingList8x8, %rsi
	addq	%rax, %rsi
	movl	-36(%rbp), %eax
	subl	$6, %eax
	movl	%eax, %eax
	shlq	$1, %rax
	movabsq	$UseDefaultScalingMatrix8x8Flag, %rcx
	addq	%rax, %rcx
	movq	-24(%rbp), %r8
	movl	$64, %edx
	callq	Scaling_List
	addl	-12(%rbp), %eax
	movl	%eax, -12(%rbp)
.LBB30_17:                              # %if.end81
                                        #   in Loop: Header=BB30_12 Depth=1
	jmp	.LBB30_18
.LBB30_18:                              # %if.end82
                                        #   in Loop: Header=BB30_12 Depth=1
	jmp	.LBB30_19
.LBB30_19:                              # %for.inc
                                        #   in Loop: Header=BB30_12 Depth=1
	movl	-36(%rbp), %eax
	addl	$1, %eax
	movl	%eax, -36(%rbp)
	jmp	.LBB30_12
.LBB30_20:                              # %for.end
	jmp	.LBB30_21
.LBB30_21:                              # %if.end83
	jmp	.LBB30_22
.LBB30_22:                              # %if.end84
	movq	-32(%rbp), %rax
	movl	80(%rax), %esi
	movq	-24(%rbp), %rdx
	movabsq	$.L.str.21, %rdi
	callq	ue_v
	addl	-12(%rbp), %eax
	movl	%eax, -12(%rbp)
	movq	-32(%rbp), %rax
	movl	84(%rax), %esi
	movq	-24(%rbp), %rdx
	movabsq	$.L.str.22, %rdi
	callq	ue_v
	addl	-12(%rbp), %eax
	movl	%eax, -12(%rbp)
	movq	-32(%rbp), %rax
	cmpl	$0, 84(%rax)
	jne	.LBB30_24
# %bb.23:                               # %if.then91
	movq	-32(%rbp), %rax
	movl	88(%rax), %esi
	movq	-24(%rbp), %rdx
	movabsq	$.L.str.23, %rdi
	callq	ue_v
	addl	-12(%rbp), %eax
	movl	%eax, -12(%rbp)
	jmp	.LBB30_31
.LBB30_24:                              # %if.else94
	movq	-32(%rbp), %rax
	cmpl	$1, 84(%rax)
	jne	.LBB30_30
# %bb.25:                               # %if.then97
	movq	-32(%rbp), %rax
	movl	92(%rax), %esi
	movq	-24(%rbp), %rdx
	movabsq	$.L.str.24, %rdi
	callq	u_1
	addl	-12(%rbp), %eax
	movl	%eax, -12(%rbp)
	movq	-32(%rbp), %rax
	movl	96(%rax), %esi
	movq	-24(%rbp), %rdx
	movabsq	$.L.str.25, %rdi
	callq	se_v
	addl	-12(%rbp), %eax
	movl	%eax, -12(%rbp)
	movq	-32(%rbp), %rax
	movl	100(%rax), %esi
	movq	-24(%rbp), %rdx
	movabsq	$.L.str.26, %rdi
	callq	se_v
	addl	-12(%rbp), %eax
	movl	%eax, -12(%rbp)
	movq	-32(%rbp), %rax
	movl	104(%rax), %esi
	movq	-24(%rbp), %rdx
	movabsq	$.L.str.27, %rdi
	callq	ue_v
	addl	-12(%rbp), %eax
	movl	%eax, -12(%rbp)
	movl	$0, -36(%rbp)
.LBB30_26:                              # %for.cond106
                                        # =>This Inner Loop Header: Depth=1
	movl	-36(%rbp), %eax
	movq	-32(%rbp), %rcx
	cmpl	104(%rcx), %eax
	jae	.LBB30_29
# %bb.27:                               # %for.body109
                                        #   in Loop: Header=BB30_26 Depth=1
	movq	-32(%rbp), %rax
	movl	-36(%rbp), %ecx
	movl	108(%rax,%rcx,4), %esi
	movq	-24(%rbp), %rdx
	movabsq	$.L.str.28, %rdi
	callq	se_v
	addl	-12(%rbp), %eax
	movl	%eax, -12(%rbp)
# %bb.28:                               # %for.inc114
                                        #   in Loop: Header=BB30_26 Depth=1
	movl	-36(%rbp), %eax
	addl	$1, %eax
	movl	%eax, -36(%rbp)
	jmp	.LBB30_26
.LBB30_29:                              # %for.end116
	jmp	.LBB30_30
.LBB30_30:                              # %if.end117
	jmp	.LBB30_31
.LBB30_31:                              # %if.end118
	movq	-32(%rbp), %rax
	movl	1132(%rax), %esi
	movq	-24(%rbp), %rdx
	movabsq	$.L.str.29, %rdi
	callq	ue_v
	addl	-12(%rbp), %eax
	movl	%eax, -12(%rbp)
	movq	-32(%rbp), %rax
	movl	1136(%rax), %esi
	movq	-24(%rbp), %rdx
	movabsq	$.L.str.30, %rdi
	callq	u_1
	addl	-12(%rbp), %eax
	movl	%eax, -12(%rbp)
	movq	-32(%rbp), %rax
	movl	1140(%rax), %esi
	movq	-24(%rbp), %rdx
	movabsq	$.L.str.31, %rdi
	callq	ue_v
	addl	-12(%rbp), %eax
	movl	%eax, -12(%rbp)
	movq	-32(%rbp), %rax
	movl	1144(%rax), %esi
	movq	-24(%rbp), %rdx
	movabsq	$.L.str.32, %rdi
	callq	ue_v
	addl	-12(%rbp), %eax
	movl	%eax, -12(%rbp)
	movq	-32(%rbp), %rax
	movl	1148(%rax), %esi
	movq	-24(%rbp), %rdx
	movabsq	$.L.str.33, %rdi
	callq	u_1
	addl	-12(%rbp), %eax
	movl	%eax, -12(%rbp)
	movq	-32(%rbp), %rax
	cmpl	$0, 1148(%rax)
	jne	.LBB30_33
# %bb.32:                               # %if.then131
	movq	-32(%rbp), %rax
	movl	1152(%rax), %esi
	movq	-24(%rbp), %rdx
	movabsq	$.L.str.34, %rdi
	callq	u_1
	addl	-12(%rbp), %eax
	movl	%eax, -12(%rbp)
.LBB30_33:                              # %if.end134
	movq	-32(%rbp), %rax
	movl	1156(%rax), %esi
	movq	-24(%rbp), %rdx
	movabsq	$.L.str.35, %rdi
	callq	u_1
	addl	-12(%rbp), %eax
	movl	%eax, -12(%rbp)
	movq	-32(%rbp), %rax
	movl	1160(%rax), %esi
	movq	-24(%rbp), %rdx
	movabsq	$.L.str.36, %rdi
	callq	u_1
	addl	-12(%rbp), %eax
	movl	%eax, -12(%rbp)
	movq	-32(%rbp), %rax
	cmpl	$0, 1160(%rax)
	je	.LBB30_35
# %bb.34:                               # %if.then141
	movq	-32(%rbp), %rax
	movl	1164(%rax), %esi
	movq	-24(%rbp), %rdx
	movabsq	$.L.str.37, %rdi
	callq	ue_v
	addl	-12(%rbp), %eax
	movl	%eax, -12(%rbp)
	movq	-32(%rbp), %rax
	movl	1168(%rax), %esi
	movq	-24(%rbp), %rdx
	movabsq	$.L.str.38, %rdi
	callq	ue_v
	addl	-12(%rbp), %eax
	movl	%eax, -12(%rbp)
	movq	-32(%rbp), %rax
	movl	1172(%rax), %esi
	movq	-24(%rbp), %rdx
	movabsq	$.L.str.39, %rdi
	callq	ue_v
	addl	-12(%rbp), %eax
	movl	%eax, -12(%rbp)
	movq	-32(%rbp), %rax
	movl	1176(%rax), %esi
	movq	-24(%rbp), %rdx
	movabsq	$.L.str.40, %rdi
	callq	ue_v
	addl	-12(%rbp), %eax
	movl	%eax, -12(%rbp)
.LBB30_35:                              # %if.end150
	movq	-32(%rbp), %rax
	movl	1180(%rax), %esi
	movq	-24(%rbp), %rdx
	movabsq	$.L.str.41, %rdi
	callq	u_1
	addl	-12(%rbp), %eax
	movl	%eax, -12(%rbp)
	movq	-32(%rbp), %rax
	cmpl	$0, 1180(%rax)
	je	.LBB30_37
# %bb.36:                               # %if.then155
	movq	-24(%rbp), %rdi
	callq	GenerateVUISequenceParameters
	addl	-12(%rbp), %eax
	movl	%eax, -12(%rbp)
.LBB30_37:                              # %if.end158
	movq	-24(%rbp), %rax
	movq	(%rax), %rdi
	callq	SODBtoRBSP
	movq	-24(%rbp), %rax
	movq	(%rax), %rax
	movl	(%rax), %eax
	movl	%eax, -40(%rbp)
	movq	-24(%rbp), %rax
	movq	(%rax), %rdi
	callq	free
	movq	-24(%rbp), %rdi
	callq	free
	movl	-40(%rbp), %ebx
	cmpl	$272137215, -44(%rbp)   # imm = 0x10387BFF
	jne	.LBB30_39
.LBB30_38:
	movl	%ebx, %eax
	addq	$56, %rsp
	popq	%rbx
	popq	%rbp
	.cfi_def_cfa %rsp, 8
	retq
.LBB30_39:                              # %func_exit
	.cfi_def_cfa %rbp, 16
	callq	detect_breach
	jmp	.LBB30_38
.Lfunc_end30:
	.size	GenerateSeq_parameter_set_rbsp.19, .Lfunc_end30-GenerateSeq_parameter_set_rbsp.19
	.cfi_endproc
                                        # -- End function
	.globl	GeneratePic_parameter_set_NALU.20 # -- Begin function GeneratePic_parameter_set_NALU.20
	.p2align	4, 0x90
	.type	GeneratePic_parameter_set_NALU.20,@function
GeneratePic_parameter_set_NALU.20:      # @GeneratePic_parameter_set_NALU.20
	.cfi_startproc
# %bb.0:                                # %entry
	pushq	%rbp
	.cfi_def_cfa_offset 16
	.cfi_offset %rbp, -16
	movq	%rsp, %rbp
	.cfi_def_cfa_register %rbp
	pushq	%rbx
	subq	$64056, %rsp            # imm = 0xFA38
	.cfi_offset %rbx, -24
	movl	$755894545, -32(%rbp)   # imm = 0x2D0E0911
	movl	%edi, -28(%rbp)
	movl	$64000, %edi            # imm = 0xFA00
	movb	$0, %al
	callq	AllocNALU
	leaq	-64048(%rbp), %rsi
	movq	%rax, -24(%rbp)
	movl	$0, -12(%rbp)
	movslq	-28(%rbp), %rax
	imulq	$240, %rax, %rax
	movabsq	$PicParSet, %rdi
	addq	%rax, %rdi
	callq	GeneratePic_parameter_set_rbsp
	leaq	-64048(%rbp), %rdi
	movl	%eax, -12(%rbp)
	movq	-24(%rbp), %rsi
	movl	-12(%rbp), %edx
	movl	$8, %ecx
	movl	$3, %r8d
	xorl	%r9d, %r9d
	movl	$1, (%rsp)
	callq	RBSPtoNALU
	movl	%eax, -36(%rbp)
	movq	-24(%rbp), %rax
	movl	$4, (%rax)
	movq	-24(%rbp), %rbx
	cmpl	$755894545, -32(%rbp)   # imm = 0x2D0E0911
	jne	.LBB31_2
.LBB31_1:
	movq	%rbx, %rax
	addq	$64056, %rsp            # imm = 0xFA38
	popq	%rbx
	popq	%rbp
	.cfi_def_cfa %rsp, 8
	retq
.LBB31_2:                               # %func_exit
	.cfi_def_cfa %rbp, 16
	callq	detect_breach
	jmp	.LBB31_1
.Lfunc_end31:
	.size	GeneratePic_parameter_set_NALU.20, .Lfunc_end31-GeneratePic_parameter_set_NALU.20
	.cfi_endproc
                                        # -- End function
	.globl	GenerateSeq_parameter_set_NALU.21 # -- Begin function GenerateSeq_parameter_set_NALU.21
	.p2align	4, 0x90
	.type	GenerateSeq_parameter_set_NALU.21,@function
GenerateSeq_parameter_set_NALU.21:      # @GenerateSeq_parameter_set_NALU.21
	.cfi_startproc
# %bb.0:                                # %entry
	pushq	%rbp
	.cfi_def_cfa_offset 16
	.cfi_offset %rbp, -16
	movq	%rsp, %rbp
	.cfi_def_cfa_register %rbp
	pushq	%rbx
	subq	$64040, %rsp            # imm = 0xFA28
	.cfi_offset %rbx, -24
	movl	$456795017, -28(%rbp)   # imm = 0x1B3A2389
	movl	$64000, %edi            # imm = 0xFA00
	movb	$0, %al
	callq	AllocNALU
	leaq	-64032(%rbp), %rsi
	movq	%rax, -24(%rbp)
	movl	$0, -12(%rbp)
	movq	active_sps, %rdi
	callq	GenerateSeq_parameter_set_rbsp
	leaq	-64032(%rbp), %rdi
	movl	%eax, -12(%rbp)
	movq	-24(%rbp), %rsi
	movl	-12(%rbp), %edx
	movl	$7, %ecx
	movl	$3, %r8d
	xorl	%r9d, %r9d
	movl	$1, (%rsp)
	callq	RBSPtoNALU
	movl	%eax, -32(%rbp)
	movq	-24(%rbp), %rax
	movl	$4, (%rax)
	movq	-24(%rbp), %rbx
	cmpl	$456795017, -28(%rbp)   # imm = 0x1B3A2389
	jne	.LBB32_2
.LBB32_1:
	movq	%rbx, %rax
	addq	$64040, %rsp            # imm = 0xFA28
	popq	%rbx
	popq	%rbp
	.cfi_def_cfa %rsp, 8
	retq
.LBB32_2:                               # %func_exit
	.cfi_def_cfa %rbp, 16
	callq	detect_breach
	jmp	.LBB32_1
.Lfunc_end32:
	.size	GenerateSeq_parameter_set_NALU.21, .Lfunc_end32-GenerateSeq_parameter_set_NALU.21
	.cfi_endproc
                                        # -- End function
	.globl	GenerateSequenceParameterSet.22 # -- Begin function GenerateSequenceParameterSet.22
	.p2align	4, 0x90
	.type	GenerateSequenceParameterSet.22,@function
GenerateSequenceParameterSet.22:        # @GenerateSequenceParameterSet.22
	.cfi_startproc
# %bb.0:                                # %entry
	pushq	%rbp
	.cfi_def_cfa_offset 16
	.cfi_offset %rbp, -16
	movq	%rsp, %rbp
	.cfi_def_cfa_register %rbp
	subq	$96, %rsp
	movl	$1100033213, -16(%rbp)  # imm = 0x41912CBD
	movq	%rdi, -8(%rbp)
	movl	%esi, -84(%rbp)
	movq	.L__const.GenerateSequenceParameterSet.SubWidthC, %rax
	movq	%rax, -80(%rbp)
	movq	.L__const.GenerateSequenceParameterSet.SubWidthC+8, %rax
	movq	%rax, -72(%rbp)
	movq	.L__const.GenerateSequenceParameterSet.SubHeightC, %rax
	movq	%rax, -64(%rbp)
	movq	.L__const.GenerateSequenceParameterSet.SubHeightC+8, %rax
	movq	%rax, -56(%rbp)
	callq	IdentifyProfile
	cmpl	$100, %eax
	movb	$1, %al
	je	.LBB33_4
# %bb.1:                                # %lor.lhs.false
	callq	IdentifyProfile
	cmpl	$110, %eax
	movb	$1, %al
	je	.LBB33_4
# %bb.2:                                # %lor.lhs.false3
	callq	IdentifyProfile
	cmpl	$122, %eax
	movb	$1, %al
	je	.LBB33_4
# %bb.3:                                # %lor.rhs
	callq	IdentifyProfile
	cmpl	$144, %eax
	sete	%al
.LBB33_4:                               # %lor.end
	andb	$1, %al
	movzbl	%al, %eax
	movl	%eax, -32(%rbp)
	callq	IdentifyProfile
	movq	-8(%rbp), %rcx
	movl	%eax, 4(%rcx)
	callq	IdentifyLevel
	movq	-8(%rbp), %rcx
	movl	%eax, 24(%rcx)
	movq	-8(%rbp), %rax
	movl	$0, 8(%rax)
	movq	-8(%rbp), %rax
	movl	$0, 12(%rax)
	movq	-8(%rbp), %rax
	movl	$0, 16(%rax)
	movq	-8(%rbp), %rax
	movl	$0, 20(%rax)
	movq	-8(%rbp), %rax
	movl	$0, 28(%rax)
	movq	input, %rax
	movl	3296(%rax), %eax
	subl	$8, %eax
	movq	-8(%rbp), %rcx
	movl	%eax, 72(%rcx)
	movq	input, %rax
	movl	3300(%rax), %eax
	subl	$8, %eax
	movq	-8(%rbp), %rcx
	movl	%eax, 76(%rcx)
	movq	input, %rax
	movl	3324(%rax), %eax
	movq	-8(%rbp), %rcx
	cmpl	$144, 4(%rcx)
	sete	%cl
	andb	$1, %cl
	movzbl	%cl, %ecx
	andl	%ecx, %eax
	movq	img, %rcx
	movl	%eax, 72704(%rcx)
	movq	input, %rax
	movl	3328(%rax), %eax
	movq	img, %rcx
	movl	%eax, 72724(%rcx)
	movl	log2_max_frame_num_minus4, %eax
	movq	-8(%rbp), %rcx
	movl	%eax, 80(%rcx)
	movl	log2_max_pic_order_cnt_lsb_minus4, %eax
	movq	-8(%rbp), %rcx
	movl	%eax, 88(%rcx)
	movq	input, %rax
	movl	3208(%rax), %eax
	movq	-8(%rbp), %rcx
	movl	%eax, 84(%rcx)
	movq	img, %rax
	movl	72420(%rax), %eax
	movq	-8(%rbp), %rcx
	movl	%eax, 104(%rcx)
	movq	img, %rax
	movl	72408(%rax), %eax
	movq	-8(%rbp), %rcx
	movl	%eax, 92(%rcx)
	movq	img, %rax
	movl	72412(%rax), %eax
	movq	-8(%rbp), %rcx
	movl	%eax, 96(%rcx)
	movq	img, %rax
	movl	72416(%rax), %eax
	movq	-8(%rbp), %rcx
	movl	%eax, 100(%rcx)
	movl	$0, -12(%rbp)
.LBB33_5:                               # %for.cond
                                        # =>This Inner Loop Header: Depth=1
	movl	-12(%rbp), %eax
	movq	img, %rcx
	cmpl	72420(%rcx), %eax
	jae	.LBB33_8
# %bb.6:                                # %for.body
                                        #   in Loop: Header=BB33_5 Depth=1
	movq	img, %rax
	movl	-12(%rbp), %ecx
	movl	72424(%rax,%rcx,4), %eax
	movq	-8(%rbp), %rcx
	movl	-12(%rbp), %edx
	movl	%eax, 108(%rcx,%rdx,4)
# %bb.7:                                # %for.inc
                                        #   in Loop: Header=BB33_5 Depth=1
	movl	-12(%rbp), %eax
	addl	$1, %eax
	movl	%eax, -12(%rbp)
	jmp	.LBB33_5
.LBB33_8:                               # %for.end
	movq	input, %rax
	movl	36(%rax), %eax
	movq	-8(%rbp), %rcx
	movl	%eax, 1132(%rcx)
	movq	-8(%rbp), %rax
	movl	$0, 1136(%rax)
	movq	input, %rax
	cmpl	$0, 2880(%rax)
	movb	$1, %al
	jne	.LBB33_10
# %bb.9:                                # %lor.rhs26
	movq	input, %rax
	cmpl	$0, 2884(%rax)
	setne	%al
.LBB33_10:                              # %lor.end28
	xorl	%ecx, %ecx
	xorl	%esi, %esi
	xorb	$-1, %al
	andb	$1, %al
	movzbl	%al, %eax
	movq	-8(%rbp), %rdx
	movl	%eax, 1148(%rdx)
	movq	input, %rax
	movl	64(%rax), %eax
	movq	img, %rdx
	addl	72728(%rdx), %eax
	cltd
	movl	$16, %edi
	idivl	%edi
	subl	$1, %eax
	movq	-8(%rbp), %rdx
	movl	%eax, 1140(%rdx)
	movq	input, %rax
	movl	68(%rax), %eax
	movq	img, %rdx
	addl	72732(%rdx), %eax
	cltd
	idivl	%edi
	movq	-8(%rbp), %rdx
	movl	$2, %edi
	subl	1148(%rdx), %edi
	xorl	%edx, %edx
	divl	%edi
	subl	$1, %eax
	movq	-8(%rbp), %rdx
	movl	%eax, 1144(%rdx)
	movq	input, %rax
	cmpl	2884(%rax), %esi
	setne	%al
	andb	$1, %al
	movzbl	%al, %eax
	movq	-8(%rbp), %rdx
	movl	%eax, 1152(%rdx)
	movq	input, %rax
	movl	1252(%rax), %eax
	movq	-8(%rbp), %rdx
	movl	%eax, 1156(%rdx)
	movq	input, %rax
	cmpl	$0, 3312(%rax)
	je	.LBB33_12
# %bb.11:                               # %land.rhs
	movq	input, %rax
	cmpl	$3, 72(%rax)
	sete	%cl
.LBB33_12:                              # %land.end
	andb	$1, %cl
	movzbl	%cl, %eax
	movq	-8(%rbp), %rcx
	movl	%eax, 1180(%rcx)
	movq	input, %rax
	movl	72(%rax), %eax
	movq	-8(%rbp), %rcx
	movl	%eax, 32(%rcx)
	movq	-8(%rbp), %rax
	movl	1140(%rax), %eax
	addl	$1, %eax
	movl	%eax, -28(%rbp)
	movq	-8(%rbp), %rax
	movl	1144(%rax), %eax
	addl	$1, %eax
	movl	%eax, -36(%rbp)
	movq	-8(%rbp), %rax
	movl	$2, %ecx
	subl	1148(%rax), %ecx
	imull	-36(%rbp), %ecx
	movl	%ecx, -24(%rbp)
	movl	-28(%rbp), %eax
	shll	$4, %eax
	movl	%eax, -20(%rbp)
	movl	-24(%rbp), %eax
	shll	$4, %eax
	movl	%eax, -40(%rbp)
	movl	-20(%rbp), %edi
	movl	-40(%rbp), %esi
	movq	-8(%rbp), %rax
	movl	1152(%rax), %edx
	callq	alloc_colocated
	movq	%rax, Co_located
	cmpl	$0, -32(%rbp)
	je	.LBB33_24
# %bb.13:                               # %if.then
	movq	input, %rax
	movl	3256(%rax), %eax
	andl	$1, %eax
	movq	-8(%rbp), %rcx
	movl	%eax, 36(%rcx)
	movl	$0, -12(%rbp)
.LBB33_14:                              # %for.cond56
                                        # =>This Inner Loop Header: Depth=1
	cmpl	$8, -12(%rbp)
	jae	.LBB33_23
# %bb.15:                               # %for.body59
                                        #   in Loop: Header=BB33_14 Depth=1
	cmpl	$6, -12(%rbp)
	jae	.LBB33_17
# %bb.16:                               # %if.then62
                                        #   in Loop: Header=BB33_14 Depth=1
	movq	input, %rax
	movl	-12(%rbp), %ecx
	movl	3260(%rax,%rcx,4), %eax
	andl	$1, %eax
	movq	-8(%rbp), %rcx
	movl	-12(%rbp), %edx
	movl	%eax, 40(%rcx,%rdx,4)
	jmp	.LBB33_21
.LBB33_17:                              # %if.else
                                        #   in Loop: Header=BB33_14 Depth=1
	movq	input, %rax
	cmpl	$0, 3220(%rax)
	je	.LBB33_19
# %bb.18:                               # %if.then69
                                        #   in Loop: Header=BB33_14 Depth=1
	movq	input, %rax
	movl	-12(%rbp), %ecx
	movl	3260(%rax,%rcx,4), %eax
	andl	$1, %eax
	movq	-8(%rbp), %rcx
	movl	-12(%rbp), %edx
	movl	%eax, 40(%rcx,%rdx,4)
	jmp	.LBB33_20
.LBB33_19:                              # %if.else77
                                        #   in Loop: Header=BB33_14 Depth=1
	movq	-8(%rbp), %rax
	movl	-12(%rbp), %ecx
	movl	$0, 40(%rax,%rcx,4)
.LBB33_20:                              # %if.end
                                        #   in Loop: Header=BB33_14 Depth=1
	jmp	.LBB33_21
.LBB33_21:                              # %if.end81
                                        #   in Loop: Header=BB33_14 Depth=1
	jmp	.LBB33_22
.LBB33_22:                              # %for.inc82
                                        #   in Loop: Header=BB33_14 Depth=1
	movl	-12(%rbp), %eax
	addl	$1, %eax
	movl	%eax, -12(%rbp)
	jmp	.LBB33_14
.LBB33_23:                              # %for.end84
	jmp	.LBB33_29
.LBB33_24:                              # %if.else85
	movq	-8(%rbp), %rax
	movl	$0, 36(%rax)
	movl	$0, -12(%rbp)
.LBB33_25:                              # %for.cond87
                                        # =>This Inner Loop Header: Depth=1
	cmpl	$8, -12(%rbp)
	jae	.LBB33_28
# %bb.26:                               # %for.body90
                                        #   in Loop: Header=BB33_25 Depth=1
	movq	-8(%rbp), %rax
	movl	-12(%rbp), %ecx
	movl	$0, 40(%rax,%rcx,4)
# %bb.27:                               # %for.inc94
                                        #   in Loop: Header=BB33_25 Depth=1
	movl	-12(%rbp), %eax
	addl	$1, %eax
	movl	%eax, -12(%rbp)
	jmp	.LBB33_25
.LBB33_28:                              # %for.end96
	jmp	.LBB33_29
.LBB33_29:                              # %if.end97
	movq	img, %rax
	cmpl	$0, 72728(%rax)
	jne	.LBB33_31
# %bb.30:                               # %lor.lhs.false100
	movq	img, %rax
	cmpl	$0, 72732(%rax)
	je	.LBB33_36
.LBB33_31:                              # %if.then103
	movq	-8(%rbp), %rax
	movl	$1, 1160(%rax)
	movq	-8(%rbp), %rax
	movl	$0, 1164(%rax)
	movq	-8(%rbp), %rax
	movl	$0, 1172(%rax)
	movq	img, %rax
	movl	72728(%rax), %eax
	movq	-8(%rbp), %rcx
	movl	32(%rcx), %ecx
	cltd
	idivl	-80(%rbp,%rcx,4)
	movq	-8(%rbp), %rcx
	movl	%eax, 1168(%rcx)
	movq	img, %rax
	movl	72732(%rax), %eax
	movq	-8(%rbp), %rcx
	movl	32(%rcx), %ecx
	movl	-64(%rbp,%rcx,4), %ecx
	movq	-8(%rbp), %rdx
	movl	$2, %esi
	subl	1148(%rdx), %esi
	imull	%esi, %ecx
	xorl	%edx, %edx
	divl	%ecx
	movq	-8(%rbp), %rcx
	movl	%eax, 1176(%rcx)
	movq	img, %rax
	movl	72728(%rax), %eax
	movq	-8(%rbp), %rcx
	movl	32(%rcx), %ecx
	cltd
	idivl	-80(%rbp,%rcx,4)
	cmpl	$0, %edx
	je	.LBB33_33
# %bb.32:                               # %if.then122
	movabsq	$.L.str, %rdi
	movl	$500, %esi              # imm = 0x1F4
	callq	error
.LBB33_33:                              # %if.end123
	movq	img, %rax
	movl	72732(%rax), %eax
	movq	-8(%rbp), %rcx
	movl	32(%rcx), %ecx
	movl	-64(%rbp,%rcx,4), %ecx
	movq	-8(%rbp), %rdx
	movl	$2, %esi
	subl	1148(%rdx), %esi
	imull	%esi, %ecx
	xorl	%edx, %edx
	divl	%ecx
	cmpl	$0, %edx
	je	.LBB33_35
# %bb.34:                               # %if.then133
	movabsq	$.L.str.1, %rdi
	movl	$500, %esi              # imm = 0x1F4
	callq	error
.LBB33_35:                              # %if.end134
	jmp	.LBB33_37
.LBB33_36:                              # %if.else135
	movq	-8(%rbp), %rax
	movl	$0, 1160(%rax)
.LBB33_37:                              # %if.end137
	cmpl	$1100033213, -16(%rbp)  # imm = 0x41912CBD
	jne	.LBB33_39
.LBB33_38:
	addq	$96, %rsp
	popq	%rbp
	.cfi_def_cfa %rsp, 8
	retq
.LBB33_39:                              # %func_exit
	.cfi_def_cfa %rbp, 16
	callq	detect_breach
	jmp	.LBB33_38
.Lfunc_end33:
	.size	GenerateSequenceParameterSet.22, .Lfunc_end33-GenerateSequenceParameterSet.22
	.cfi_endproc
                                        # -- End function
	.globl	GenerateSeq_parameter_set_rbsp.23 # -- Begin function GenerateSeq_parameter_set_rbsp.23
	.p2align	4, 0x90
	.type	GenerateSeq_parameter_set_rbsp.23,@function
GenerateSeq_parameter_set_rbsp.23:      # @GenerateSeq_parameter_set_rbsp.23
	.cfi_startproc
# %bb.0:                                # %entry
	pushq	%rbp
	.cfi_def_cfa_offset 16
	.cfi_offset %rbp, -16
	movq	%rsp, %rbp
	.cfi_def_cfa_register %rbp
	pushq	%rbx
	subq	$56, %rsp
	.cfi_offset %rbx, -24
	movl	$1259797468, -44(%rbp)  # imm = 0x4B16FBDC
	movq	%rdi, -32(%rbp)
	movq	%rsi, -56(%rbp)
	movl	$0, -12(%rbp)
	movl	$1, %edi
	movl	$120, %esi
	callq	calloc
	movq	%rax, -24(%rbp)
	cmpq	$0, %rax
	jne	.LBB34_2
# %bb.1:                                # %if.then
	movabsq	$.L.str.4, %rdi
	callq	no_mem_exit
.LBB34_2:                               # %if.end
	movl	$1, %edi
	movl	$48, %esi
	callq	calloc
	movq	-24(%rbp), %rcx
	movq	%rax, (%rcx)
	cmpq	$0, %rax
	jne	.LBB34_4
# %bb.3:                                # %if.then3
	movabsq	$.L.str.5, %rdi
	callq	no_mem_exit
.LBB34_4:                               # %if.end4
	movq	-56(%rbp), %rax
	movq	-24(%rbp), %rcx
	movq	(%rcx), %rcx
	movq	%rax, 32(%rcx)
	movq	-24(%rbp), %rax
	movq	(%rax), %rax
	movl	$8, 4(%rax)
	movq	-32(%rbp), %rax
	movl	4(%rax), %edx
	movq	-24(%rbp), %rcx
	movl	$8, %edi
	movabsq	$.L.str.6, %rsi
	callq	u_v
	addl	-12(%rbp), %eax
	movl	%eax, -12(%rbp)
	movq	-32(%rbp), %rax
	movl	8(%rax), %esi
	movq	-24(%rbp), %rdx
	movabsq	$.L.str.7, %rdi
	callq	u_1
	addl	-12(%rbp), %eax
	movl	%eax, -12(%rbp)
	movq	-32(%rbp), %rax
	movl	12(%rax), %esi
	movq	-24(%rbp), %rdx
	movabsq	$.L.str.8, %rdi
	callq	u_1
	addl	-12(%rbp), %eax
	movl	%eax, -12(%rbp)
	movq	-32(%rbp), %rax
	movl	16(%rax), %esi
	movq	-24(%rbp), %rdx
	movabsq	$.L.str.9, %rdi
	callq	u_1
	addl	-12(%rbp), %eax
	movl	%eax, -12(%rbp)
	movq	-32(%rbp), %rax
	movl	20(%rax), %esi
	movq	-24(%rbp), %rdx
	movabsq	$.L.str.10, %rdi
	callq	u_1
	addl	-12(%rbp), %eax
	movl	%eax, -12(%rbp)
	movq	-24(%rbp), %rcx
	movl	$4, %edi
	movabsq	$.L.str.11, %rsi
	xorl	%edx, %edx
	callq	u_v
	addl	-12(%rbp), %eax
	movl	%eax, -12(%rbp)
	movq	-32(%rbp), %rax
	movl	24(%rax), %edx
	movq	-24(%rbp), %rcx
	movl	$8, %edi
	movabsq	$.L.str.12, %rsi
	callq	u_v
	addl	-12(%rbp), %eax
	movl	%eax, -12(%rbp)
	movq	-32(%rbp), %rax
	movl	28(%rax), %esi
	movq	-24(%rbp), %rdx
	movabsq	$.L.str.13, %rdi
	callq	ue_v
	addl	-12(%rbp), %eax
	movl	%eax, -12(%rbp)
	movq	-32(%rbp), %rax
	cmpl	$100, 4(%rax)
	je	.LBB34_8
# %bb.5:                                # %lor.lhs.false
	movq	-32(%rbp), %rax
	cmpl	$110, 4(%rax)
	je	.LBB34_8
# %bb.6:                                # %lor.lhs.false26
	movq	-32(%rbp), %rax
	cmpl	$122, 4(%rax)
	je	.LBB34_8
# %bb.7:                                # %lor.lhs.false29
	movq	-32(%rbp), %rax
	cmpl	$144, 4(%rax)
	jne	.LBB34_22
.LBB34_8:                               # %if.then32
	movq	-32(%rbp), %rax
	movl	32(%rax), %esi
	movq	-24(%rbp), %rdx
	movabsq	$.L.str.14, %rdi
	callq	ue_v
	addl	-12(%rbp), %eax
	movl	%eax, -12(%rbp)
	movq	img, %rax
	cmpl	$3, 72700(%rax)
	jne	.LBB34_10
# %bb.9:                                # %if.then36
	movq	img, %rax
	movl	72724(%rax), %esi
	movq	-24(%rbp), %rdx
	movabsq	$.L.str.15, %rdi
	callq	u_1
	addl	-12(%rbp), %eax
	movl	%eax, -12(%rbp)
.LBB34_10:                              # %if.end39
	movq	-32(%rbp), %rax
	movl	72(%rax), %esi
	movq	-24(%rbp), %rdx
	movabsq	$.L.str.16, %rdi
	callq	ue_v
	addl	-12(%rbp), %eax
	movl	%eax, -12(%rbp)
	movq	-32(%rbp), %rax
	movl	76(%rax), %esi
	movq	-24(%rbp), %rdx
	movabsq	$.L.str.17, %rdi
	callq	ue_v
	addl	-12(%rbp), %eax
	movl	%eax, -12(%rbp)
	movq	img, %rax
	movl	72704(%rax), %esi
	movq	-24(%rbp), %rdx
	movabsq	$.L.str.18, %rdi
	callq	u_1
	addl	-12(%rbp), %eax
	movl	%eax, -12(%rbp)
	movq	-32(%rbp), %rax
	movl	36(%rax), %esi
	movq	-24(%rbp), %rdx
	movabsq	$.L.str.19, %rdi
	callq	u_1
	addl	-12(%rbp), %eax
	movl	%eax, -12(%rbp)
	movq	-32(%rbp), %rax
	cmpl	$0, 36(%rax)
	je	.LBB34_21
# %bb.11:                               # %if.then49
	movl	$0, -36(%rbp)
.LBB34_12:                              # %for.cond
                                        # =>This Inner Loop Header: Depth=1
	cmpl	$8, -36(%rbp)
	jae	.LBB34_20
# %bb.13:                               # %for.body
                                        #   in Loop: Header=BB34_12 Depth=1
	movq	-32(%rbp), %rax
	movl	-36(%rbp), %ecx
	movl	40(%rax,%rcx,4), %esi
	movq	-24(%rbp), %rdx
	movabsq	$.L.str.20, %rdi
	callq	u_1
	addl	-12(%rbp), %eax
	movl	%eax, -12(%rbp)
	movq	-32(%rbp), %rax
	movl	-36(%rbp), %ecx
	cmpl	$0, 40(%rax,%rcx,4)
	je	.LBB34_18
# %bb.14:                               # %if.then57
                                        #   in Loop: Header=BB34_12 Depth=1
	cmpl	$6, -36(%rbp)
	jae	.LBB34_16
# %bb.15:                               # %if.then59
                                        #   in Loop: Header=BB34_12 Depth=1
	movl	-36(%rbp), %eax
	shlq	$5, %rax
	movabsq	$ScalingList4x4input, %rdi
	addq	%rax, %rdi
	movl	-36(%rbp), %eax
	shlq	$5, %rax
	movabsq	$ScalingList4x4, %rsi
	addq	%rax, %rsi
	movl	-36(%rbp), %eax
	shlq	$1, %rax
	movabsq	$UseDefaultScalingMatrix4x4Flag, %rcx
	addq	%rax, %rcx
	movq	-24(%rbp), %r8
	movl	$16, %edx
	callq	Scaling_List
	addl	-12(%rbp), %eax
	movl	%eax, -12(%rbp)
	jmp	.LBB34_17
.LBB34_16:                              # %if.else
                                        #   in Loop: Header=BB34_12 Depth=1
	movl	-36(%rbp), %eax
	subl	$6, %eax
	movl	%eax, %eax
	shlq	$7, %rax
	movabsq	$ScalingList8x8input, %rdi
	addq	%rax, %rdi
	movl	-36(%rbp), %eax
	subl	$6, %eax
	movl	%eax, %eax
	shlq	$7, %rax
	movabsq	$ScalingList8x8, %rsi
	addq	%rax, %rsi
	movl	-36(%rbp), %eax
	subl	$6, %eax
	movl	%eax, %eax
	shlq	$1, %rax
	movabsq	$UseDefaultScalingMatrix8x8Flag, %rcx
	addq	%rax, %rcx
	movq	-24(%rbp), %r8
	movl	$64, %edx
	callq	Scaling_List
	addl	-12(%rbp), %eax
	movl	%eax, -12(%rbp)
.LBB34_17:                              # %if.end81
                                        #   in Loop: Header=BB34_12 Depth=1
	jmp	.LBB34_18
.LBB34_18:                              # %if.end82
                                        #   in Loop: Header=BB34_12 Depth=1
	jmp	.LBB34_19
.LBB34_19:                              # %for.inc
                                        #   in Loop: Header=BB34_12 Depth=1
	movl	-36(%rbp), %eax
	addl	$1, %eax
	movl	%eax, -36(%rbp)
	jmp	.LBB34_12
.LBB34_20:                              # %for.end
	jmp	.LBB34_21
.LBB34_21:                              # %if.end83
	jmp	.LBB34_22
.LBB34_22:                              # %if.end84
	movq	-32(%rbp), %rax
	movl	80(%rax), %esi
	movq	-24(%rbp), %rdx
	movabsq	$.L.str.21, %rdi
	callq	ue_v
	addl	-12(%rbp), %eax
	movl	%eax, -12(%rbp)
	movq	-32(%rbp), %rax
	movl	84(%rax), %esi
	movq	-24(%rbp), %rdx
	movabsq	$.L.str.22, %rdi
	callq	ue_v
	addl	-12(%rbp), %eax
	movl	%eax, -12(%rbp)
	movq	-32(%rbp), %rax
	cmpl	$0, 84(%rax)
	jne	.LBB34_24
# %bb.23:                               # %if.then91
	movq	-32(%rbp), %rax
	movl	88(%rax), %esi
	movq	-24(%rbp), %rdx
	movabsq	$.L.str.23, %rdi
	callq	ue_v
	addl	-12(%rbp), %eax
	movl	%eax, -12(%rbp)
	jmp	.LBB34_31
.LBB34_24:                              # %if.else94
	movq	-32(%rbp), %rax
	cmpl	$1, 84(%rax)
	jne	.LBB34_30
# %bb.25:                               # %if.then97
	movq	-32(%rbp), %rax
	movl	92(%rax), %esi
	movq	-24(%rbp), %rdx
	movabsq	$.L.str.24, %rdi
	callq	u_1
	addl	-12(%rbp), %eax
	movl	%eax, -12(%rbp)
	movq	-32(%rbp), %rax
	movl	96(%rax), %esi
	movq	-24(%rbp), %rdx
	movabsq	$.L.str.25, %rdi
	callq	se_v
	addl	-12(%rbp), %eax
	movl	%eax, -12(%rbp)
	movq	-32(%rbp), %rax
	movl	100(%rax), %esi
	movq	-24(%rbp), %rdx
	movabsq	$.L.str.26, %rdi
	callq	se_v
	addl	-12(%rbp), %eax
	movl	%eax, -12(%rbp)
	movq	-32(%rbp), %rax
	movl	104(%rax), %esi
	movq	-24(%rbp), %rdx
	movabsq	$.L.str.27, %rdi
	callq	ue_v
	addl	-12(%rbp), %eax
	movl	%eax, -12(%rbp)
	movl	$0, -36(%rbp)
.LBB34_26:                              # %for.cond106
                                        # =>This Inner Loop Header: Depth=1
	movl	-36(%rbp), %eax
	movq	-32(%rbp), %rcx
	cmpl	104(%rcx), %eax
	jae	.LBB34_29
# %bb.27:                               # %for.body109
                                        #   in Loop: Header=BB34_26 Depth=1
	movq	-32(%rbp), %rax
	movl	-36(%rbp), %ecx
	movl	108(%rax,%rcx,4), %esi
	movq	-24(%rbp), %rdx
	movabsq	$.L.str.28, %rdi
	callq	se_v
	addl	-12(%rbp), %eax
	movl	%eax, -12(%rbp)
# %bb.28:                               # %for.inc114
                                        #   in Loop: Header=BB34_26 Depth=1
	movl	-36(%rbp), %eax
	addl	$1, %eax
	movl	%eax, -36(%rbp)
	jmp	.LBB34_26
.LBB34_29:                              # %for.end116
	jmp	.LBB34_30
.LBB34_30:                              # %if.end117
	jmp	.LBB34_31
.LBB34_31:                              # %if.end118
	movq	-32(%rbp), %rax
	movl	1132(%rax), %esi
	movq	-24(%rbp), %rdx
	movabsq	$.L.str.29, %rdi
	callq	ue_v
	addl	-12(%rbp), %eax
	movl	%eax, -12(%rbp)
	movq	-32(%rbp), %rax
	movl	1136(%rax), %esi
	movq	-24(%rbp), %rdx
	movabsq	$.L.str.30, %rdi
	callq	u_1
	addl	-12(%rbp), %eax
	movl	%eax, -12(%rbp)
	movq	-32(%rbp), %rax
	movl	1140(%rax), %esi
	movq	-24(%rbp), %rdx
	movabsq	$.L.str.31, %rdi
	callq	ue_v
	addl	-12(%rbp), %eax
	movl	%eax, -12(%rbp)
	movq	-32(%rbp), %rax
	movl	1144(%rax), %esi
	movq	-24(%rbp), %rdx
	movabsq	$.L.str.32, %rdi
	callq	ue_v
	addl	-12(%rbp), %eax
	movl	%eax, -12(%rbp)
	movq	-32(%rbp), %rax
	movl	1148(%rax), %esi
	movq	-24(%rbp), %rdx
	movabsq	$.L.str.33, %rdi
	callq	u_1
	addl	-12(%rbp), %eax
	movl	%eax, -12(%rbp)
	movq	-32(%rbp), %rax
	cmpl	$0, 1148(%rax)
	jne	.LBB34_33
# %bb.32:                               # %if.then131
	movq	-32(%rbp), %rax
	movl	1152(%rax), %esi
	movq	-24(%rbp), %rdx
	movabsq	$.L.str.34, %rdi
	callq	u_1
	addl	-12(%rbp), %eax
	movl	%eax, -12(%rbp)
.LBB34_33:                              # %if.end134
	movq	-32(%rbp), %rax
	movl	1156(%rax), %esi
	movq	-24(%rbp), %rdx
	movabsq	$.L.str.35, %rdi
	callq	u_1
	addl	-12(%rbp), %eax
	movl	%eax, -12(%rbp)
	movq	-32(%rbp), %rax
	movl	1160(%rax), %esi
	movq	-24(%rbp), %rdx
	movabsq	$.L.str.36, %rdi
	callq	u_1
	addl	-12(%rbp), %eax
	movl	%eax, -12(%rbp)
	movq	-32(%rbp), %rax
	cmpl	$0, 1160(%rax)
	je	.LBB34_35
# %bb.34:                               # %if.then141
	movq	-32(%rbp), %rax
	movl	1164(%rax), %esi
	movq	-24(%rbp), %rdx
	movabsq	$.L.str.37, %rdi
	callq	ue_v
	addl	-12(%rbp), %eax
	movl	%eax, -12(%rbp)
	movq	-32(%rbp), %rax
	movl	1168(%rax), %esi
	movq	-24(%rbp), %rdx
	movabsq	$.L.str.38, %rdi
	callq	ue_v
	addl	-12(%rbp), %eax
	movl	%eax, -12(%rbp)
	movq	-32(%rbp), %rax
	movl	1172(%rax), %esi
	movq	-24(%rbp), %rdx
	movabsq	$.L.str.39, %rdi
	callq	ue_v
	addl	-12(%rbp), %eax
	movl	%eax, -12(%rbp)
	movq	-32(%rbp), %rax
	movl	1176(%rax), %esi
	movq	-24(%rbp), %rdx
	movabsq	$.L.str.40, %rdi
	callq	ue_v
	addl	-12(%rbp), %eax
	movl	%eax, -12(%rbp)
.LBB34_35:                              # %if.end150
	movq	-32(%rbp), %rax
	movl	1180(%rax), %esi
	movq	-24(%rbp), %rdx
	movabsq	$.L.str.41, %rdi
	callq	u_1
	addl	-12(%rbp), %eax
	movl	%eax, -12(%rbp)
	movq	-32(%rbp), %rax
	cmpl	$0, 1180(%rax)
	je	.LBB34_37
# %bb.36:                               # %if.then155
	movq	-24(%rbp), %rdi
	callq	GenerateVUISequenceParameters
	addl	-12(%rbp), %eax
	movl	%eax, -12(%rbp)
.LBB34_37:                              # %if.end158
	movq	-24(%rbp), %rax
	movq	(%rax), %rdi
	callq	SODBtoRBSP
	movq	-24(%rbp), %rax
	movq	(%rax), %rax
	movl	(%rax), %eax
	movl	%eax, -40(%rbp)
	movq	-24(%rbp), %rax
	movq	(%rax), %rdi
	callq	free
	movq	-24(%rbp), %rdi
	callq	free
	movl	-40(%rbp), %ebx
	cmpl	$1259797468, -44(%rbp)  # imm = 0x4B16FBDC
	jne	.LBB34_39
.LBB34_38:
	movl	%ebx, %eax
	addq	$56, %rsp
	popq	%rbx
	popq	%rbp
	.cfi_def_cfa %rsp, 8
	retq
.LBB34_39:                              # %func_exit
	.cfi_def_cfa %rbp, 16
	callq	detect_breach
	jmp	.LBB34_38
.Lfunc_end34:
	.size	GenerateSeq_parameter_set_rbsp.23, .Lfunc_end34-GenerateSeq_parameter_set_rbsp.23
	.cfi_endproc
                                        # -- End function
	.globl	GeneratePictureParameterSet.24 # -- Begin function GeneratePictureParameterSet.24
	.p2align	4, 0x90
	.type	GeneratePictureParameterSet.24,@function
GeneratePictureParameterSet.24:         # @GeneratePictureParameterSet.24
	.cfi_startproc
# %bb.0:                                # %entry
	pushq	%rbp
	.cfi_def_cfa_offset 16
	.cfi_offset %rbp, -16
	movq	%rsp, %rbp
	.cfi_def_cfa_register %rbp
	subq	$48, %rsp
	movl	16(%rbp), %eax
	movl	$1807975274, -36(%rbp)  # imm = 0x6BC3836A
	movq	%rdi, -16(%rbp)
	movq	%rsi, -24(%rbp)
	movl	%edx, -40(%rbp)
	movl	%ecx, -44(%rbp)
	movl	%r8d, -48(%rbp)
	movl	%r9d, -32(%rbp)
	callq	IdentifyProfile
	cmpl	$100, %eax
	movb	$1, %al
	je	.LBB35_4
# %bb.1:                                # %lor.lhs.false
	callq	IdentifyProfile
	cmpl	$110, %eax
	movb	$1, %al
	je	.LBB35_4
# %bb.2:                                # %lor.lhs.false3
	callq	IdentifyProfile
	cmpl	$122, %eax
	movb	$1, %al
	je	.LBB35_4
# %bb.3:                                # %lor.rhs
	callq	IdentifyProfile
	cmpl	$144, %eax
	sete	%al
.LBB35_4:                               # %lor.end
	xorl	%ecx, %ecx
	andb	$1, %al
	movzbl	%al, %eax
	movl	%eax, -28(%rbp)
	movq	-24(%rbp), %rax
	movl	28(%rax), %eax
	movq	-16(%rbp), %rdx
	movl	%eax, 8(%rdx)
	movl	-40(%rbp), %eax
	movq	-16(%rbp), %rdx
	movl	%eax, 4(%rdx)
	movq	input, %rax
	movl	2356(%rax), %eax
	cmpl	$0, %eax
	movl	$1, %eax
	cmovel	%ecx, %eax
	movq	-16(%rbp), %rcx
	movl	%eax, 12(%rcx)
	cmpl	$0, -28(%rbp)
	je	.LBB35_16
# %bb.5:                                # %if.then
	xorl	%eax, %eax
	movq	input, %rcx
	movl	3220(%rcx), %ecx
	cmpl	$0, %ecx
	movl	$1, %ecx
	cmovnel	%ecx, %eax
	movq	-16(%rbp), %rcx
	movl	%eax, 16(%rcx)
	movq	input, %rax
	movl	3256(%rax), %eax
	andl	$2, %eax
	sarl	$1, %eax
	movq	-16(%rbp), %rcx
	movl	%eax, 20(%rcx)
	movl	$0, -4(%rbp)
.LBB35_6:                               # %for.cond
                                        # =>This Inner Loop Header: Depth=1
	cmpl	$8, -4(%rbp)
	jae	.LBB35_15
# %bb.7:                                # %for.body
                                        #   in Loop: Header=BB35_6 Depth=1
	cmpl	$6, -4(%rbp)
	jae	.LBB35_9
# %bb.8:                                # %if.then14
                                        #   in Loop: Header=BB35_6 Depth=1
	movq	input, %rax
	movl	-4(%rbp), %ecx
	movl	3260(%rax,%rcx,4), %eax
	andl	$2, %eax
	sarl	$1, %eax
	movq	-16(%rbp), %rcx
	movl	-4(%rbp), %edx
	movl	%eax, 24(%rcx,%rdx,4)
	jmp	.LBB35_13
.LBB35_9:                               # %if.else
                                        #   in Loop: Header=BB35_6 Depth=1
	movq	-16(%rbp), %rax
	cmpl	$0, 16(%rax)
	je	.LBB35_11
# %bb.10:                               # %if.then21
                                        #   in Loop: Header=BB35_6 Depth=1
	movq	input, %rax
	movl	-4(%rbp), %ecx
	movl	3260(%rax,%rcx,4), %eax
	andl	$2, %eax
	sarl	$1, %eax
	movq	-16(%rbp), %rcx
	movl	-4(%rbp), %edx
	movl	%eax, 24(%rcx,%rdx,4)
	jmp	.LBB35_12
.LBB35_11:                              # %if.else30
                                        #   in Loop: Header=BB35_6 Depth=1
	movq	-16(%rbp), %rax
	movl	-4(%rbp), %ecx
	movl	$0, 24(%rax,%rcx,4)
.LBB35_12:                              # %if.end
                                        #   in Loop: Header=BB35_6 Depth=1
	jmp	.LBB35_13
.LBB35_13:                              # %if.end34
                                        #   in Loop: Header=BB35_6 Depth=1
	jmp	.LBB35_14
.LBB35_14:                              # %for.inc
                                        #   in Loop: Header=BB35_6 Depth=1
	movl	-4(%rbp), %eax
	addl	$1, %eax
	movl	%eax, -4(%rbp)
	jmp	.LBB35_6
.LBB35_15:                              # %for.end
	jmp	.LBB35_21
.LBB35_16:                              # %if.else35
	movq	-16(%rbp), %rax
	movl	$0, 20(%rax)
	movl	$0, -4(%rbp)
.LBB35_17:                              # %for.cond37
                                        # =>This Inner Loop Header: Depth=1
	cmpl	$8, -4(%rbp)
	jae	.LBB35_20
# %bb.18:                               # %for.body39
                                        #   in Loop: Header=BB35_17 Depth=1
	movq	-16(%rbp), %rax
	movl	-4(%rbp), %ecx
	movl	$0, 24(%rax,%rcx,4)
# %bb.19:                               # %for.inc43
                                        #   in Loop: Header=BB35_17 Depth=1
	movl	-4(%rbp), %eax
	addl	$1, %eax
	movl	%eax, -4(%rbp)
	jmp	.LBB35_17
.LBB35_20:                              # %for.end45
	movq	input, %rax
	movl	$0, 3220(%rax)
	movq	-16(%rbp), %rax
	movl	$0, 16(%rax)
.LBB35_21:                              # %if.end48
	movq	img, %rax
	movl	72492(%rax), %eax
	movq	-16(%rbp), %rcx
	movl	%eax, 56(%rcx)
	movq	input, %rax
	movl	3152(%rax), %eax
	movq	-16(%rbp), %rcx
	movl	%eax, 60(%rcx)
	movq	-16(%rbp), %rax
	cmpl	$0, 60(%rax)
	jbe	.LBB35_43
# %bb.22:                               # %if.then53
	movq	input(%rip), %rax
	movl	3156(%rax), %eax
	movq	%rax, %rcx
	subq	$6, %rcx
	ja	.LBB35_41
# %bb.23:                               # %if.then53
	movq	.LJTI35_0(,%rax,8), %rax
	jmpq	*%rax
.LBB35_24:                              # %sw.bb
	movq	-16(%rbp), %rax
	movl	$0, 64(%rax)
	movl	$0, -4(%rbp)
.LBB35_25:                              # %for.cond55
                                        # =>This Inner Loop Header: Depth=1
	movl	-4(%rbp), %eax
	movq	-16(%rbp), %rcx
	cmpl	60(%rcx), %eax
	ja	.LBB35_28
# %bb.26:                               # %for.body58
                                        #   in Loop: Header=BB35_25 Depth=1
	movq	input, %rax
	movq	3184(%rax), %rax
	movl	-4(%rbp), %ecx
	movl	(%rax,%rcx,4), %eax
	movq	-16(%rbp), %rcx
	movl	-4(%rbp), %edx
	movl	%eax, 68(%rcx,%rdx,4)
# %bb.27:                               # %for.inc64
                                        #   in Loop: Header=BB35_25 Depth=1
	movl	-4(%rbp), %eax
	addl	$1, %eax
	movl	%eax, -4(%rbp)
	jmp	.LBB35_25
.LBB35_28:                              # %for.end66
	jmp	.LBB35_42
.LBB35_29:                              # %sw.bb67
	movq	-16(%rbp), %rax
	movl	$1, 64(%rax)
	jmp	.LBB35_42
.LBB35_30:                              # %sw.bb69
	movq	-16(%rbp), %rax
	movl	$2, 64(%rax)
	movl	$0, -4(%rbp)
.LBB35_31:                              # %for.cond71
                                        # =>This Inner Loop Header: Depth=1
	movl	-4(%rbp), %eax
	movq	-16(%rbp), %rcx
	cmpl	60(%rcx), %eax
	jae	.LBB35_34
# %bb.32:                               # %for.body74
                                        #   in Loop: Header=BB35_31 Depth=1
	movq	input, %rax
	movq	3160(%rax), %rax
	movl	-4(%rbp), %ecx
	movl	(%rax,%rcx,4), %eax
	movq	-16(%rbp), %rcx
	movl	-4(%rbp), %edx
	movl	%eax, 100(%rcx,%rdx,4)
	movq	input, %rax
	movq	3168(%rax), %rax
	movl	-4(%rbp), %ecx
	movl	(%rax,%rcx,4), %eax
	movq	-16(%rbp), %rcx
	movl	-4(%rbp), %edx
	movl	%eax, 132(%rcx,%rdx,4)
# %bb.33:                               # %for.inc85
                                        #   in Loop: Header=BB35_31 Depth=1
	movl	-4(%rbp), %eax
	addl	$1, %eax
	movl	%eax, -4(%rbp)
	jmp	.LBB35_31
.LBB35_34:                              # %for.end87
	jmp	.LBB35_42
.LBB35_35:                              # %sw.bb88
	movq	input, %rax
	movl	3156(%rax), %eax
	movq	-16(%rbp), %rcx
	movl	%eax, 64(%rcx)
	movq	input, %rax
	movl	3192(%rax), %eax
	movq	-16(%rbp), %rcx
	movl	%eax, 164(%rcx)
	movq	input, %rax
	movl	3196(%rax), %eax
	movq	-16(%rbp), %rcx
	movl	%eax, 168(%rcx)
	jmp	.LBB35_42
.LBB35_36:                              # %sw.bb93
	movq	-16(%rbp), %rax
	movl	$6, 64(%rax)
	movq	input, %rax
	movl	68(%rax), %eax
	movq	img, %rcx
	addl	72732(%rcx), %eax
	cltd
	movl	$16, %esi
	idivl	%esi
	movq	-24(%rbp), %rcx
	movl	$2, %edi
	subl	1148(%rcx), %edi
	xorl	%edx, %edx
	divl	%edi
	movl	%eax, %ecx
	movq	input, %rax
	movl	64(%rax), %eax
	movq	img, %rdx
	addl	72728(%rdx), %eax
	cltd
	idivl	%esi
	imull	%eax, %ecx
	subl	$1, %ecx
	movq	-16(%rbp), %rax
	movl	%ecx, 172(%rax)
	movl	$0, -4(%rbp)
.LBB35_37:                              # %for.cond99
                                        # =>This Inner Loop Header: Depth=1
	movl	-4(%rbp), %eax
	movq	-16(%rbp), %rcx
	cmpl	172(%rcx), %eax
	ja	.LBB35_40
# %bb.38:                               # %for.body102
                                        #   in Loop: Header=BB35_37 Depth=1
	movq	input, %rax
	movq	3176(%rax), %rax
	movl	-4(%rbp), %ecx
	movb	(%rax,%rcx), %al
	movq	-16(%rbp), %rcx
	movq	176(%rcx), %rcx
	movl	-4(%rbp), %edx
	movb	%al, (%rcx,%rdx)
# %bb.39:                               # %for.inc108
                                        #   in Loop: Header=BB35_37 Depth=1
	movl	-4(%rbp), %eax
	addl	$1, %eax
	movl	%eax, -4(%rbp)
	jmp	.LBB35_37
.LBB35_40:                              # %for.end110
	jmp	.LBB35_42
.LBB35_41:                              # %sw.default
	movabsq	$.L.str.2, %rdi
	movb	$0, %al
	callq	printf
.LBB35_42:                              # %sw.epilog
	jmp	.LBB35_43
.LBB35_43:                              # %if.end112
	movq	-24(%rbp), %rax
	cmpl	$0, 1148(%rax)
	je	.LBB35_45
# %bb.44:                               # %cond.true
	movq	-24(%rbp), %rax
	movl	1132(%rax), %eax
	subl	$1, %eax
	jmp	.LBB35_46
.LBB35_45:                              # %cond.false
	movq	-24(%rbp), %rax
	movl	1132(%rax), %eax
	shll	$1, %eax
	subl	$1, %eax
.LBB35_46:                              # %cond.end
	movq	-16(%rbp), %rcx
	movl	%eax, 184(%rcx)
	movq	-24(%rbp), %rax
	cmpl	$0, 1148(%rax)
	je	.LBB35_48
# %bb.47:                               # %cond.true122
	movq	-24(%rbp), %rax
	movl	1132(%rax), %eax
	subl	$1, %eax
	jmp	.LBB35_49
.LBB35_48:                              # %cond.false125
	movq	-24(%rbp), %rax
	movl	1132(%rax), %eax
	shll	$1, %eax
	subl	$1, %eax
.LBB35_49:                              # %cond.end129
	movq	-16(%rbp), %rcx
	movl	%eax, 188(%rcx)
	movl	-44(%rbp), %eax
	movq	-16(%rbp), %rcx
	movl	%eax, 192(%rcx)
	movl	-48(%rbp), %eax
	movq	-16(%rbp), %rcx
	movl	%eax, 196(%rcx)
	movq	-16(%rbp), %rax
	movl	$0, 200(%rax)
	movq	-16(%rbp), %rax
	movl	$0, 204(%rax)
	movl	-32(%rbp), %eax
	movq	-16(%rbp), %rcx
	movl	%eax, 208(%rcx)
	cmpl	$0, -28(%rbp)
	je	.LBB35_51
# %bb.50:                               # %if.then132
	movl	-32(%rbp), %eax
	movq	-16(%rbp), %rcx
	movl	%eax, 212(%rcx)
	movl	16(%rbp), %eax
	movq	-16(%rbp), %rcx
	movl	%eax, 216(%rcx)
	jmp	.LBB35_52
.LBB35_51:                              # %if.else135
	movq	-16(%rbp), %rax
	movl	208(%rax), %eax
	movq	-16(%rbp), %rcx
	movl	%eax, 216(%rcx)
	movq	-16(%rbp), %rcx
	movl	%eax, 212(%rcx)
.LBB35_52:                              # %if.end139
	movq	input, %rax
	movl	2924(%rax), %eax
	movq	-16(%rbp), %rcx
	movl	%eax, 220(%rcx)
	movq	input, %rax
	movl	216(%rax), %eax
	movq	-16(%rbp), %rcx
	movl	%eax, 224(%rcx)
	movq	-16(%rbp), %rax
	movl	$0, 228(%rax)
	cmpl	$1807975274, -36(%rbp)  # imm = 0x6BC3836A
	jne	.LBB35_54
.LBB35_53:
	addq	$48, %rsp
	popq	%rbp
	.cfi_def_cfa %rsp, 8
	retq
.LBB35_54:                              # %func_exit
	.cfi_def_cfa %rbp, 16
	callq	detect_breach
	jmp	.LBB35_53
.Lfunc_end35:
	.size	GeneratePictureParameterSet.24, .Lfunc_end35-GeneratePictureParameterSet.24
	.cfi_endproc
	.section	.rodata,"a",@progbits
	.p2align	3
.LJTI35_0:
	.quad	.LBB35_24
	.quad	.LBB35_29
	.quad	.LBB35_30
	.quad	.LBB35_35
	.quad	.LBB35_35
	.quad	.LBB35_35
	.quad	.LBB35_36
                                        # -- End function
	.text
	.globl	GenerateSeq_parameter_set_NALU.25 # -- Begin function GenerateSeq_parameter_set_NALU.25
	.p2align	4, 0x90
	.type	GenerateSeq_parameter_set_NALU.25,@function
GenerateSeq_parameter_set_NALU.25:      # @GenerateSeq_parameter_set_NALU.25
	.cfi_startproc
# %bb.0:                                # %entry
	pushq	%rbp
	.cfi_def_cfa_offset 16
	.cfi_offset %rbp, -16
	movq	%rsp, %rbp
	.cfi_def_cfa_register %rbp
	pushq	%rbx
	subq	$64040, %rsp            # imm = 0xFA28
	.cfi_offset %rbx, -24
	movl	$533460931, -28(%rbp)   # imm = 0x1FCBF7C3
	movl	$64000, %edi            # imm = 0xFA00
	movb	$0, %al
	callq	AllocNALU
	leaq	-64032(%rbp), %rsi
	movq	%rax, -24(%rbp)
	movl	$0, -12(%rbp)
	movq	active_sps, %rdi
	callq	GenerateSeq_parameter_set_rbsp
	leaq	-64032(%rbp), %rdi
	movl	%eax, -12(%rbp)
	movq	-24(%rbp), %rsi
	movl	-12(%rbp), %edx
	movl	$7, %ecx
	movl	$3, %r8d
	xorl	%r9d, %r9d
	movl	$1, (%rsp)
	callq	RBSPtoNALU
	movl	%eax, -32(%rbp)
	movq	-24(%rbp), %rax
	movl	$4, (%rax)
	movq	-24(%rbp), %rbx
	cmpl	$533460931, -28(%rbp)   # imm = 0x1FCBF7C3
	jne	.LBB36_2
.LBB36_1:
	movq	%rbx, %rax
	addq	$64040, %rsp            # imm = 0xFA28
	popq	%rbx
	popq	%rbp
	.cfi_def_cfa %rsp, 8
	retq
.LBB36_2:                               # %func_exit
	.cfi_def_cfa %rbp, 16
	callq	detect_breach
	jmp	.LBB36_1
.Lfunc_end36:
	.size	GenerateSeq_parameter_set_NALU.25, .Lfunc_end36-GenerateSeq_parameter_set_NALU.25
	.cfi_endproc
                                        # -- End function
	.globl	Scaling_List.26         # -- Begin function Scaling_List.26
	.p2align	4, 0x90
	.type	Scaling_List.26,@function
Scaling_List.26:                        # @Scaling_List.26
	.cfi_startproc
# %bb.0:                                # %entry
	pushq	%rbp
	.cfi_def_cfa_offset 16
	.cfi_offset %rbp, -16
	movq	%rsp, %rbp
	.cfi_def_cfa_register %rbp
	pushq	%rbx
	subq	$72, %rsp
	.cfi_offset %rbx, -24
	movl	$1631866496, -40(%rbp)  # imm = 0x61444E80
	movq	%rdi, -56(%rbp)
	movq	%rsi, -48(%rbp)
	movl	%edx, -36(%rbp)
	movq	%rcx, -72(%rbp)
	movq	%r8, -64(%rbp)
	movl	$0, -32(%rbp)
	movl	$8, -28(%rbp)
	movl	$8, -16(%rbp)
	movl	$0, -20(%rbp)
.LBB37_1:                               # %for.cond
                                        # =>This Inner Loop Header: Depth=1
	movl	-20(%rbp), %eax
	cmpl	-36(%rbp), %eax
	jge	.LBB37_19
# %bb.2:                                # %for.body
                                        #   in Loop: Header=BB37_1 Depth=1
	cmpl	$16, -36(%rbp)
	jne	.LBB37_4
# %bb.3:                                # %cond.true
                                        #   in Loop: Header=BB37_1 Depth=1
	movslq	-20(%rbp), %rax
	movzbl	ZZ_SCAN(,%rax), %eax
	jmp	.LBB37_5
.LBB37_4:                               # %cond.false
                                        #   in Loop: Header=BB37_1 Depth=1
	movslq	-20(%rbp), %rax
	movzbl	ZZ_SCAN8(,%rax), %eax
.LBB37_5:                               # %cond.end
                                        #   in Loop: Header=BB37_1 Depth=1
	movl	%eax, -24(%rbp)
	cmpl	$0, -16(%rbp)
	je	.LBB37_14
# %bb.6:                                # %if.then
                                        #   in Loop: Header=BB37_1 Depth=1
	movq	-56(%rbp), %rax
	movslq	-24(%rbp), %rcx
	movswl	(%rax,%rcx,2), %eax
	subl	-28(%rbp), %eax
	movl	%eax, -12(%rbp)
	cmpl	$127, -12(%rbp)
	jle	.LBB37_8
# %bb.7:                                # %if.then12
                                        #   in Loop: Header=BB37_1 Depth=1
	movl	-12(%rbp), %eax
	subl	$256, %eax              # imm = 0x100
	movl	%eax, -12(%rbp)
	jmp	.LBB37_11
.LBB37_8:                               # %if.else
                                        #   in Loop: Header=BB37_1 Depth=1
	cmpl	$-128, -12(%rbp)
	jge	.LBB37_10
# %bb.9:                                # %if.then16
                                        #   in Loop: Header=BB37_1 Depth=1
	movl	-12(%rbp), %eax
	addl	$256, %eax              # imm = 0x100
	movl	%eax, -12(%rbp)
.LBB37_10:                              # %if.end
                                        #   in Loop: Header=BB37_1 Depth=1
	jmp	.LBB37_11
.LBB37_11:                              # %if.end17
                                        #   in Loop: Header=BB37_1 Depth=1
	movl	-12(%rbp), %esi
	movq	-64(%rbp), %rdx
	movabsq	$.L.str.3, %rdi
	callq	se_v
	xorl	%ecx, %ecx
	addl	-32(%rbp), %eax
	movl	%eax, -32(%rbp)
	movq	-56(%rbp), %rax
	movslq	-24(%rbp), %rdx
	movswl	(%rax,%rdx,2), %eax
	movl	%eax, -16(%rbp)
	cmpl	$0, -24(%rbp)
	jne	.LBB37_13
# %bb.12:                               # %land.rhs
                                        #   in Loop: Header=BB37_1 Depth=1
	cmpl	$0, -16(%rbp)
	sete	%cl
.LBB37_13:                              # %land.end
                                        #   in Loop: Header=BB37_1 Depth=1
	andb	$1, %cl
	movzbl	%cl, %eax
	movq	-72(%rbp), %rcx
	movswl	(%rcx), %edx
	orl	%eax, %edx
	movw	%dx, (%rcx)
.LBB37_14:                              # %if.end28
                                        #   in Loop: Header=BB37_1 Depth=1
	cmpl	$0, -16(%rbp)
	jne	.LBB37_16
# %bb.15:                               # %cond.true31
                                        #   in Loop: Header=BB37_1 Depth=1
	movl	-28(%rbp), %eax
	jmp	.LBB37_17
.LBB37_16:                              # %cond.false32
                                        #   in Loop: Header=BB37_1 Depth=1
	movl	-16(%rbp), %eax
.LBB37_17:                              # %cond.end33
                                        #   in Loop: Header=BB37_1 Depth=1
	movq	-48(%rbp), %rcx
	movslq	-24(%rbp), %rdx
	movw	%ax, (%rcx,%rdx,2)
	movq	-48(%rbp), %rax
	movslq	-24(%rbp), %rcx
	movswl	(%rax,%rcx,2), %eax
	movl	%eax, -28(%rbp)
# %bb.18:                               # %for.inc
                                        #   in Loop: Header=BB37_1 Depth=1
	movl	-20(%rbp), %eax
	addl	$1, %eax
	movl	%eax, -20(%rbp)
	jmp	.LBB37_1
.LBB37_19:                              # %for.end
	movl	-32(%rbp), %ebx
	cmpl	$1631866496, -40(%rbp)  # imm = 0x61444E80
	jne	.LBB37_21
.LBB37_20:
	movl	%ebx, %eax
	addq	$72, %rsp
	popq	%rbx
	popq	%rbp
	.cfi_def_cfa %rsp, 8
	retq
.LBB37_21:                              # %func_exit
	.cfi_def_cfa %rbp, 16
	callq	detect_breach
	jmp	.LBB37_20
.Lfunc_end37:
	.size	Scaling_List.26, .Lfunc_end37-Scaling_List.26
	.cfi_endproc
                                        # -- End function
	.globl	GeneratePic_parameter_set_NALU.27 # -- Begin function GeneratePic_parameter_set_NALU.27
	.p2align	4, 0x90
	.type	GeneratePic_parameter_set_NALU.27,@function
GeneratePic_parameter_set_NALU.27:      # @GeneratePic_parameter_set_NALU.27
	.cfi_startproc
# %bb.0:                                # %entry
	pushq	%rbp
	.cfi_def_cfa_offset 16
	.cfi_offset %rbp, -16
	movq	%rsp, %rbp
	.cfi_def_cfa_register %rbp
	pushq	%rbx
	subq	$64056, %rsp            # imm = 0xFA38
	.cfi_offset %rbx, -24
	movl	$973573875, -28(%rbp)   # imm = 0x3A078EF3
	movl	%edi, -32(%rbp)
	movl	$64000, %edi            # imm = 0xFA00
	movb	$0, %al
	callq	AllocNALU
	leaq	-64048(%rbp), %rsi
	movq	%rax, -24(%rbp)
	movl	$0, -12(%rbp)
	movslq	-32(%rbp), %rax
	imulq	$240, %rax, %rax
	movabsq	$PicParSet, %rdi
	addq	%rax, %rdi
	callq	GeneratePic_parameter_set_rbsp
	leaq	-64048(%rbp), %rdi
	movl	%eax, -12(%rbp)
	movq	-24(%rbp), %rsi
	movl	-12(%rbp), %edx
	movl	$8, %ecx
	movl	$3, %r8d
	xorl	%r9d, %r9d
	movl	$1, (%rsp)
	callq	RBSPtoNALU
	movl	%eax, -36(%rbp)
	movq	-24(%rbp), %rax
	movl	$4, (%rax)
	movq	-24(%rbp), %rbx
	cmpl	$973573875, -28(%rbp)   # imm = 0x3A078EF3
	jne	.LBB38_2
.LBB38_1:
	movq	%rbx, %rax
	addq	$64056, %rsp            # imm = 0xFA38
	popq	%rbx
	popq	%rbp
	.cfi_def_cfa %rsp, 8
	retq
.LBB38_2:                               # %func_exit
	.cfi_def_cfa %rbp, 16
	callq	detect_breach
	jmp	.LBB38_1
.Lfunc_end38:
	.size	GeneratePic_parameter_set_NALU.27, .Lfunc_end38-GeneratePic_parameter_set_NALU.27
	.cfi_endproc
                                        # -- End function
	.globl	GeneratePic_parameter_set_NALU.28 # -- Begin function GeneratePic_parameter_set_NALU.28
	.p2align	4, 0x90
	.type	GeneratePic_parameter_set_NALU.28,@function
GeneratePic_parameter_set_NALU.28:      # @GeneratePic_parameter_set_NALU.28
	.cfi_startproc
# %bb.0:                                # %entry
	pushq	%rbp
	.cfi_def_cfa_offset 16
	.cfi_offset %rbp, -16
	movq	%rsp, %rbp
	.cfi_def_cfa_register %rbp
	pushq	%rbx
	subq	$64056, %rsp            # imm = 0xFA38
	.cfi_offset %rbx, -24
	movl	$57232979, -32(%rbp)    # imm = 0x3694E53
	movl	%edi, -28(%rbp)
	movl	$64000, %edi            # imm = 0xFA00
	movb	$0, %al
	callq	AllocNALU
	leaq	-64048(%rbp), %rsi
	movq	%rax, -24(%rbp)
	movl	$0, -12(%rbp)
	movslq	-28(%rbp), %rax
	imulq	$240, %rax, %rax
	movabsq	$PicParSet, %rdi
	addq	%rax, %rdi
	callq	GeneratePic_parameter_set_rbsp
	leaq	-64048(%rbp), %rdi
	movl	%eax, -12(%rbp)
	movq	-24(%rbp), %rsi
	movl	-12(%rbp), %edx
	movl	$8, %ecx
	movl	$3, %r8d
	xorl	%r9d, %r9d
	movl	$1, (%rsp)
	callq	RBSPtoNALU
	movl	%eax, -36(%rbp)
	movq	-24(%rbp), %rax
	movl	$4, (%rax)
	movq	-24(%rbp), %rbx
	cmpl	$57232979, -32(%rbp)    # imm = 0x3694E53
	jne	.LBB39_2
.LBB39_1:
	movq	%rbx, %rax
	addq	$64056, %rsp            # imm = 0xFA38
	popq	%rbx
	popq	%rbp
	.cfi_def_cfa %rsp, 8
	retq
.LBB39_2:                               # %func_exit
	.cfi_def_cfa %rbp, 16
	callq	detect_breach
	jmp	.LBB39_1
.Lfunc_end39:
	.size	GeneratePic_parameter_set_NALU.28, .Lfunc_end39-GeneratePic_parameter_set_NALU.28
	.cfi_endproc
                                        # -- End function
	.globl	GeneratePic_parameter_set_rbsp.29 # -- Begin function GeneratePic_parameter_set_rbsp.29
	.p2align	4, 0x90
	.type	GeneratePic_parameter_set_rbsp.29,@function
GeneratePic_parameter_set_rbsp.29:      # @GeneratePic_parameter_set_rbsp.29
	.cfi_startproc
# %bb.0:                                # %entry
	pushq	%rbp
	.cfi_def_cfa_offset 16
	.cfi_offset %rbp, -16
	movq	%rsp, %rbp
	.cfi_def_cfa_register %rbp
	pushq	%rbx
	subq	$56, %rsp
	.cfi_offset %rbx, -24
	movl	$1052688489, -48(%rbp)  # imm = 0x3EBEC069
	movq	%rdi, -24(%rbp)
	movq	%rsi, -56(%rbp)
	movl	$0, -12(%rbp)
	movl	$1, %edi
	movl	$120, %esi
	callq	calloc
	movq	%rax, -32(%rbp)
	cmpq	$0, %rax
	jne	.LBB40_2
# %bb.1:                                # %if.then
	movabsq	$.L.str.42, %rdi
	callq	no_mem_exit
.LBB40_2:                               # %if.end
	movl	$1, %edi
	movl	$48, %esi
	callq	calloc
	movq	-32(%rbp), %rcx
	movq	%rax, (%rcx)
	cmpq	$0, %rax
	jne	.LBB40_4
# %bb.3:                                # %if.then3
	movabsq	$.L.str.43, %rdi
	callq	no_mem_exit
.LBB40_4:                               # %if.end4
	movq	-56(%rbp), %rax
	movq	-32(%rbp), %rcx
	movq	(%rcx), %rcx
	movq	%rax, 32(%rcx)
	movq	-32(%rbp), %rax
	movq	(%rax), %rax
	movl	$8, 4(%rax)
	movq	img, %rax
	movl	72492(%rax), %eax
	movq	-24(%rbp), %rcx
	movl	%eax, 56(%rcx)
	movq	-24(%rbp), %rax
	movl	4(%rax), %esi
	movq	-32(%rbp), %rdx
	movabsq	$.L.str.44, %rdi
	callq	ue_v
	addl	-12(%rbp), %eax
	movl	%eax, -12(%rbp)
	movq	-24(%rbp), %rax
	movl	8(%rax), %esi
	movq	-32(%rbp), %rdx
	movabsq	$.L.str.45, %rdi
	callq	ue_v
	addl	-12(%rbp), %eax
	movl	%eax, -12(%rbp)
	movq	-24(%rbp), %rax
	movl	12(%rax), %esi
	movq	-32(%rbp), %rdx
	movabsq	$.L.str.46, %rdi
	callq	u_1
	addl	-12(%rbp), %eax
	movl	%eax, -12(%rbp)
	movq	-24(%rbp), %rax
	movl	56(%rax), %esi
	movq	-32(%rbp), %rdx
	movabsq	$.L.str.47, %rdi
	callq	u_1
	addl	-12(%rbp), %eax
	movl	%eax, -12(%rbp)
	movq	-24(%rbp), %rax
	movl	60(%rax), %esi
	movq	-32(%rbp), %rdx
	movabsq	$.L.str.48, %rdi
	callq	ue_v
	addl	-12(%rbp), %eax
	movl	%eax, -12(%rbp)
	movq	-24(%rbp), %rax
	cmpl	$0, 60(%rax)
	jbe	.LBB40_40
# %bb.5:                                # %if.then20
	movq	-24(%rbp), %rax
	movl	64(%rax), %esi
	movq	-32(%rbp), %rdx
	movabsq	$.L.str.49, %rdi
	callq	ue_v
	addl	-12(%rbp), %eax
	movl	%eax, -12(%rbp)
	movq	-24(%rbp), %rax
	cmpl	$0, 64(%rax)
	jne	.LBB40_11
# %bb.6:                                # %if.then25
	movl	$0, -16(%rbp)
.LBB40_7:                               # %for.cond
                                        # =>This Inner Loop Header: Depth=1
	movl	-16(%rbp), %eax
	movq	-24(%rbp), %rcx
	cmpl	60(%rcx), %eax
	ja	.LBB40_10
# %bb.8:                                # %for.body
                                        #   in Loop: Header=BB40_7 Depth=1
	movq	-24(%rbp), %rax
	movl	-16(%rbp), %ecx
	movl	68(%rax,%rcx,4), %esi
	movq	-32(%rbp), %rdx
	movabsq	$.L.str.50, %rdi
	callq	ue_v
	addl	-12(%rbp), %eax
	movl	%eax, -12(%rbp)
# %bb.9:                                # %for.inc
                                        #   in Loop: Header=BB40_7 Depth=1
	movl	-16(%rbp), %eax
	addl	$1, %eax
	movl	%eax, -16(%rbp)
	jmp	.LBB40_7
.LBB40_10:                              # %for.end
	jmp	.LBB40_39
.LBB40_11:                              # %if.else
	movq	-24(%rbp), %rax
	cmpl	$2, 64(%rax)
	jne	.LBB40_17
# %bb.12:                               # %if.then32
	movl	$0, -16(%rbp)
.LBB40_13:                              # %for.cond33
                                        # =>This Inner Loop Header: Depth=1
	movl	-16(%rbp), %eax
	movq	-24(%rbp), %rcx
	cmpl	60(%rcx), %eax
	jae	.LBB40_16
# %bb.14:                               # %for.body36
                                        #   in Loop: Header=BB40_13 Depth=1
	movq	-24(%rbp), %rax
	movl	-16(%rbp), %ecx
	movl	100(%rax,%rcx,4), %esi
	movq	-32(%rbp), %rdx
	movabsq	$.L.str.51, %rdi
	callq	ue_v
	addl	-12(%rbp), %eax
	movl	%eax, -12(%rbp)
	movq	-24(%rbp), %rax
	movl	-16(%rbp), %ecx
	movl	132(%rax,%rcx,4), %esi
	movq	-32(%rbp), %rdx
	movabsq	$.L.str.52, %rdi
	callq	ue_v
	addl	-12(%rbp), %eax
	movl	%eax, -12(%rbp)
# %bb.15:                               # %for.inc45
                                        #   in Loop: Header=BB40_13 Depth=1
	movl	-16(%rbp), %eax
	addl	$1, %eax
	movl	%eax, -16(%rbp)
	jmp	.LBB40_13
.LBB40_16:                              # %for.end47
	jmp	.LBB40_38
.LBB40_17:                              # %if.else48
	movq	-24(%rbp), %rax
	cmpl	$3, 64(%rax)
	je	.LBB40_20
# %bb.18:                               # %lor.lhs.false
	movq	-24(%rbp), %rax
	cmpl	$4, 64(%rax)
	je	.LBB40_20
# %bb.19:                               # %lor.lhs.false53
	movq	-24(%rbp), %rax
	cmpl	$5, 64(%rax)
	jne	.LBB40_21
.LBB40_20:                              # %if.then56
	movq	-24(%rbp), %rax
	movl	164(%rax), %esi
	movq	-32(%rbp), %rdx
	movabsq	$.L.str.53, %rdi
	callq	u_1
	addl	-12(%rbp), %eax
	movl	%eax, -12(%rbp)
	movq	-24(%rbp), %rax
	movl	168(%rax), %esi
	movq	-32(%rbp), %rdx
	movabsq	$.L.str.54, %rdi
	callq	ue_v
	addl	-12(%rbp), %eax
	movl	%eax, -12(%rbp)
	jmp	.LBB40_37
.LBB40_21:                              # %if.else61
	movq	-24(%rbp), %rax
	cmpl	$6, 64(%rax)
	jne	.LBB40_36
# %bb.22:                               # %if.then64
	movq	-24(%rbp), %rax
	cmpl	$4, 60(%rax)
	jb	.LBB40_24
# %bb.23:                               # %if.then67
	movl	$3, -40(%rbp)
	jmp	.LBB40_31
.LBB40_24:                              # %if.else68
	movq	-24(%rbp), %rax
	cmpl	$2, 60(%rax)
	jb	.LBB40_26
# %bb.25:                               # %if.then71
	movl	$2, -40(%rbp)
	jmp	.LBB40_30
.LBB40_26:                              # %if.else72
	movq	-24(%rbp), %rax
	cmpl	$1, 60(%rax)
	jb	.LBB40_28
# %bb.27:                               # %if.then75
	movl	$1, -40(%rbp)
	jmp	.LBB40_29
.LBB40_28:                              # %if.else76
	movl	$0, -40(%rbp)
.LBB40_29:                              # %if.end77
	jmp	.LBB40_30
.LBB40_30:                              # %if.end78
	jmp	.LBB40_31
.LBB40_31:                              # %if.end79
	movq	-24(%rbp), %rax
	movl	172(%rax), %esi
	movq	-32(%rbp), %rdx
	movabsq	$.L.str.55, %rdi
	callq	ue_v
	addl	-12(%rbp), %eax
	movl	%eax, -12(%rbp)
	movl	$0, -16(%rbp)
.LBB40_32:                              # %for.cond82
                                        # =>This Inner Loop Header: Depth=1
	movl	-16(%rbp), %eax
	movq	-24(%rbp), %rcx
	cmpl	172(%rcx), %eax
	ja	.LBB40_35
# %bb.33:                               # %for.body85
                                        #   in Loop: Header=BB40_32 Depth=1
	movl	-40(%rbp), %edi
	movq	-24(%rbp), %rax
	movq	176(%rax), %rax
	movl	-16(%rbp), %ecx
	movzbl	(%rax,%rcx), %edx
	movq	-32(%rbp), %rcx
	movabsq	$.L.str.56, %rsi
	callq	u_v
	addl	-12(%rbp), %eax
	movl	%eax, -12(%rbp)
# %bb.34:                               # %for.inc90
                                        #   in Loop: Header=BB40_32 Depth=1
	movl	-16(%rbp), %eax
	addl	$1, %eax
	movl	%eax, -16(%rbp)
	jmp	.LBB40_32
.LBB40_35:                              # %for.end92
	jmp	.LBB40_36
.LBB40_36:                              # %if.end93
	jmp	.LBB40_37
.LBB40_37:                              # %if.end94
	jmp	.LBB40_38
.LBB40_38:                              # %if.end95
	jmp	.LBB40_39
.LBB40_39:                              # %if.end96
	jmp	.LBB40_40
.LBB40_40:                              # %if.end97
	movq	-24(%rbp), %rax
	movl	184(%rax), %esi
	movq	-32(%rbp), %rdx
	movabsq	$.L.str.57, %rdi
	callq	ue_v
	addl	-12(%rbp), %eax
	movl	%eax, -12(%rbp)
	movq	-24(%rbp), %rax
	movl	188(%rax), %esi
	movq	-32(%rbp), %rdx
	movabsq	$.L.str.58, %rdi
	callq	ue_v
	addl	-12(%rbp), %eax
	movl	%eax, -12(%rbp)
	movq	-24(%rbp), %rax
	movl	192(%rax), %esi
	movq	-32(%rbp), %rdx
	movabsq	$.L.str.59, %rdi
	callq	u_1
	addl	-12(%rbp), %eax
	movl	%eax, -12(%rbp)
	movq	-24(%rbp), %rax
	movl	196(%rax), %edx
	movq	-32(%rbp), %rcx
	movl	$2, %edi
	movabsq	$.L.str.60, %rsi
	callq	u_v
	addl	-12(%rbp), %eax
	movl	%eax, -12(%rbp)
	movq	-24(%rbp), %rax
	movl	200(%rax), %esi
	movq	-32(%rbp), %rdx
	movabsq	$.L.str.61, %rdi
	callq	se_v
	addl	-12(%rbp), %eax
	movl	%eax, -12(%rbp)
	movq	-24(%rbp), %rax
	movl	204(%rax), %esi
	movq	-32(%rbp), %rdx
	movabsq	$.L.str.62, %rdi
	callq	se_v
	addl	-12(%rbp), %eax
	movl	%eax, -12(%rbp)
	callq	IdentifyProfile
	movl	%eax, -36(%rbp)
	cmpl	$100, -36(%rbp)
	je	.LBB40_44
# %bb.41:                               # %lor.lhs.false113
	cmpl	$110, -36(%rbp)
	je	.LBB40_44
# %bb.42:                               # %lor.lhs.false116
	cmpl	$122, -36(%rbp)
	je	.LBB40_44
# %bb.43:                               # %lor.lhs.false119
	cmpl	$144, -36(%rbp)
	jne	.LBB40_45
.LBB40_44:                              # %if.then122
	movq	-24(%rbp), %rax
	movl	212(%rax), %esi
	movq	-32(%rbp), %rdx
	movabsq	$.L.str.63, %rdi
	callq	se_v
	addl	-12(%rbp), %eax
	movl	%eax, -12(%rbp)
	jmp	.LBB40_46
.LBB40_45:                              # %if.else125
	movq	-24(%rbp), %rax
	movl	208(%rax), %esi
	movq	-32(%rbp), %rdx
	movabsq	$.L.str.63, %rdi
	callq	se_v
	addl	-12(%rbp), %eax
	movl	%eax, -12(%rbp)
.LBB40_46:                              # %if.end128
	movq	-24(%rbp), %rax
	movl	220(%rax), %esi
	movq	-32(%rbp), %rdx
	movabsq	$.L.str.64, %rdi
	callq	u_1
	addl	-12(%rbp), %eax
	movl	%eax, -12(%rbp)
	movq	-24(%rbp), %rax
	movl	224(%rax), %esi
	movq	-32(%rbp), %rdx
	movabsq	$.L.str.65, %rdi
	callq	u_1
	addl	-12(%rbp), %eax
	movl	%eax, -12(%rbp)
	movq	-24(%rbp), %rax
	movl	228(%rax), %esi
	movq	-32(%rbp), %rdx
	movabsq	$.L.str.66, %rdi
	callq	u_1
	addl	-12(%rbp), %eax
	movl	%eax, -12(%rbp)
	cmpl	$100, -36(%rbp)
	je	.LBB40_50
# %bb.47:                               # %lor.lhs.false137
	cmpl	$110, -36(%rbp)
	je	.LBB40_50
# %bb.48:                               # %lor.lhs.false140
	cmpl	$122, -36(%rbp)
	je	.LBB40_50
# %bb.49:                               # %lor.lhs.false143
	cmpl	$144, -36(%rbp)
	jne	.LBB40_62
.LBB40_50:                              # %if.then146
	movq	-24(%rbp), %rax
	movl	16(%rax), %esi
	movq	-32(%rbp), %rdx
	movabsq	$.L.str.67, %rdi
	callq	u_1
	addl	-12(%rbp), %eax
	movl	%eax, -12(%rbp)
	movq	-24(%rbp), %rax
	movl	20(%rax), %esi
	movq	-32(%rbp), %rdx
	movabsq	$.L.str.68, %rdi
	callq	u_1
	addl	-12(%rbp), %eax
	movl	%eax, -12(%rbp)
	movq	-24(%rbp), %rax
	cmpl	$0, 20(%rax)
	je	.LBB40_61
# %bb.51:                               # %if.then152
	movl	$0, -16(%rbp)
.LBB40_52:                              # %for.cond153
                                        # =>This Inner Loop Header: Depth=1
	movl	-16(%rbp), %eax
	movq	-24(%rbp), %rcx
	movl	16(%rcx), %ecx
	shll	$1, %ecx
	addl	$6, %ecx
	cmpl	%ecx, %eax
	jae	.LBB40_60
# %bb.53:                               # %for.body158
                                        #   in Loop: Header=BB40_52 Depth=1
	movq	-24(%rbp), %rax
	movl	-16(%rbp), %ecx
	movl	24(%rax,%rcx,4), %esi
	movq	-32(%rbp), %rdx
	movabsq	$.L.str.69, %rdi
	callq	u_1
	addl	-12(%rbp), %eax
	movl	%eax, -12(%rbp)
	movq	-24(%rbp), %rax
	movl	-16(%rbp), %ecx
	cmpl	$0, 24(%rax,%rcx,4)
	je	.LBB40_58
# %bb.54:                               # %if.then167
                                        #   in Loop: Header=BB40_52 Depth=1
	cmpl	$6, -16(%rbp)
	jae	.LBB40_56
# %bb.55:                               # %if.then170
                                        #   in Loop: Header=BB40_52 Depth=1
	movl	-16(%rbp), %eax
	shlq	$5, %rax
	movabsq	$ScalingList4x4input, %rdi
	addq	%rax, %rdi
	movl	-16(%rbp), %eax
	shlq	$5, %rax
	movabsq	$ScalingList4x4, %rsi
	addq	%rax, %rsi
	movl	-16(%rbp), %eax
	shlq	$1, %rax
	movabsq	$UseDefaultScalingMatrix4x4Flag, %rcx
	addq	%rax, %rcx
	movq	-32(%rbp), %r8
	movl	$16, %edx
	callq	Scaling_List
	addl	-12(%rbp), %eax
	movl	%eax, -12(%rbp)
	jmp	.LBB40_57
.LBB40_56:                              # %if.else180
                                        #   in Loop: Header=BB40_52 Depth=1
	movl	-16(%rbp), %eax
	subl	$6, %eax
	movl	%eax, %eax
	shlq	$7, %rax
	movabsq	$ScalingList8x8input, %rdi
	addq	%rax, %rdi
	movl	-16(%rbp), %eax
	subl	$6, %eax
	movl	%eax, %eax
	shlq	$7, %rax
	movabsq	$ScalingList8x8, %rsi
	addq	%rax, %rsi
	movl	-16(%rbp), %eax
	subl	$6, %eax
	movl	%eax, %eax
	shlq	$1, %rax
	movabsq	$UseDefaultScalingMatrix8x8Flag, %rcx
	addq	%rax, %rcx
	movq	-32(%rbp), %r8
	movl	$64, %edx
	callq	Scaling_List
	addl	-12(%rbp), %eax
	movl	%eax, -12(%rbp)
.LBB40_57:                              # %if.end193
                                        #   in Loop: Header=BB40_52 Depth=1
	jmp	.LBB40_58
.LBB40_58:                              # %if.end194
                                        #   in Loop: Header=BB40_52 Depth=1
	jmp	.LBB40_59
.LBB40_59:                              # %for.inc195
                                        #   in Loop: Header=BB40_52 Depth=1
	movl	-16(%rbp), %eax
	addl	$1, %eax
	movl	%eax, -16(%rbp)
	jmp	.LBB40_52
.LBB40_60:                              # %for.end197
	jmp	.LBB40_61
.LBB40_61:                              # %if.end198
	movq	-24(%rbp), %rax
	movl	216(%rax), %esi
	movq	-32(%rbp), %rdx
	movabsq	$.L.str.70, %rdi
	callq	se_v
	addl	-12(%rbp), %eax
	movl	%eax, -12(%rbp)
.LBB40_62:                              # %if.end201
	movq	-32(%rbp), %rax
	movq	(%rax), %rdi
	callq	SODBtoRBSP
	movq	-32(%rbp), %rax
	movq	(%rax), %rax
	movl	(%rax), %eax
	movl	%eax, -44(%rbp)
	movq	-32(%rbp), %rax
	movq	(%rax), %rdi
	callq	free
	movq	-32(%rbp), %rdi
	callq	free
	movl	-44(%rbp), %ebx
	cmpl	$1052688489, -48(%rbp)  # imm = 0x3EBEC069
	jne	.LBB40_64
.LBB40_63:
	movl	%ebx, %eax
	addq	$56, %rsp
	popq	%rbx
	popq	%rbp
	.cfi_def_cfa %rsp, 8
	retq
.LBB40_64:                              # %func_exit
	.cfi_def_cfa %rbp, 16
	callq	detect_breach
	jmp	.LBB40_63
.Lfunc_end40:
	.size	GeneratePic_parameter_set_rbsp.29, .Lfunc_end40-GeneratePic_parameter_set_rbsp.29
	.cfi_endproc
                                        # -- End function
	.globl	GeneratePic_parameter_set_rbsp.30 # -- Begin function GeneratePic_parameter_set_rbsp.30
	.p2align	4, 0x90
	.type	GeneratePic_parameter_set_rbsp.30,@function
GeneratePic_parameter_set_rbsp.30:      # @GeneratePic_parameter_set_rbsp.30
	.cfi_startproc
# %bb.0:                                # %entry
	pushq	%rbp
	.cfi_def_cfa_offset 16
	.cfi_offset %rbp, -16
	movq	%rsp, %rbp
	.cfi_def_cfa_register %rbp
	pushq	%rbx
	subq	$56, %rsp
	.cfi_offset %rbx, -24
	movl	$830022226, -48(%rbp)   # imm = 0x31792252
	movq	%rdi, -24(%rbp)
	movq	%rsi, -56(%rbp)
	movl	$0, -12(%rbp)
	movl	$1, %edi
	movl	$120, %esi
	callq	calloc
	movq	%rax, -32(%rbp)
	cmpq	$0, %rax
	jne	.LBB41_2
# %bb.1:                                # %if.then
	movabsq	$.L.str.42, %rdi
	callq	no_mem_exit
.LBB41_2:                               # %if.end
	movl	$1, %edi
	movl	$48, %esi
	callq	calloc
	movq	-32(%rbp), %rcx
	movq	%rax, (%rcx)
	cmpq	$0, %rax
	jne	.LBB41_4
# %bb.3:                                # %if.then3
	movabsq	$.L.str.43, %rdi
	callq	no_mem_exit
.LBB41_4:                               # %if.end4
	movq	-56(%rbp), %rax
	movq	-32(%rbp), %rcx
	movq	(%rcx), %rcx
	movq	%rax, 32(%rcx)
	movq	-32(%rbp), %rax
	movq	(%rax), %rax
	movl	$8, 4(%rax)
	movq	img, %rax
	movl	72492(%rax), %eax
	movq	-24(%rbp), %rcx
	movl	%eax, 56(%rcx)
	movq	-24(%rbp), %rax
	movl	4(%rax), %esi
	movq	-32(%rbp), %rdx
	movabsq	$.L.str.44, %rdi
	callq	ue_v
	addl	-12(%rbp), %eax
	movl	%eax, -12(%rbp)
	movq	-24(%rbp), %rax
	movl	8(%rax), %esi
	movq	-32(%rbp), %rdx
	movabsq	$.L.str.45, %rdi
	callq	ue_v
	addl	-12(%rbp), %eax
	movl	%eax, -12(%rbp)
	movq	-24(%rbp), %rax
	movl	12(%rax), %esi
	movq	-32(%rbp), %rdx
	movabsq	$.L.str.46, %rdi
	callq	u_1
	addl	-12(%rbp), %eax
	movl	%eax, -12(%rbp)
	movq	-24(%rbp), %rax
	movl	56(%rax), %esi
	movq	-32(%rbp), %rdx
	movabsq	$.L.str.47, %rdi
	callq	u_1
	addl	-12(%rbp), %eax
	movl	%eax, -12(%rbp)
	movq	-24(%rbp), %rax
	movl	60(%rax), %esi
	movq	-32(%rbp), %rdx
	movabsq	$.L.str.48, %rdi
	callq	ue_v
	addl	-12(%rbp), %eax
	movl	%eax, -12(%rbp)
	movq	-24(%rbp), %rax
	cmpl	$0, 60(%rax)
	jbe	.LBB41_40
# %bb.5:                                # %if.then20
	movq	-24(%rbp), %rax
	movl	64(%rax), %esi
	movq	-32(%rbp), %rdx
	movabsq	$.L.str.49, %rdi
	callq	ue_v
	addl	-12(%rbp), %eax
	movl	%eax, -12(%rbp)
	movq	-24(%rbp), %rax
	cmpl	$0, 64(%rax)
	jne	.LBB41_11
# %bb.6:                                # %if.then25
	movl	$0, -16(%rbp)
.LBB41_7:                               # %for.cond
                                        # =>This Inner Loop Header: Depth=1
	movl	-16(%rbp), %eax
	movq	-24(%rbp), %rcx
	cmpl	60(%rcx), %eax
	ja	.LBB41_10
# %bb.8:                                # %for.body
                                        #   in Loop: Header=BB41_7 Depth=1
	movq	-24(%rbp), %rax
	movl	-16(%rbp), %ecx
	movl	68(%rax,%rcx,4), %esi
	movq	-32(%rbp), %rdx
	movabsq	$.L.str.50, %rdi
	callq	ue_v
	addl	-12(%rbp), %eax
	movl	%eax, -12(%rbp)
# %bb.9:                                # %for.inc
                                        #   in Loop: Header=BB41_7 Depth=1
	movl	-16(%rbp), %eax
	addl	$1, %eax
	movl	%eax, -16(%rbp)
	jmp	.LBB41_7
.LBB41_10:                              # %for.end
	jmp	.LBB41_39
.LBB41_11:                              # %if.else
	movq	-24(%rbp), %rax
	cmpl	$2, 64(%rax)
	jne	.LBB41_17
# %bb.12:                               # %if.then32
	movl	$0, -16(%rbp)
.LBB41_13:                              # %for.cond33
                                        # =>This Inner Loop Header: Depth=1
	movl	-16(%rbp), %eax
	movq	-24(%rbp), %rcx
	cmpl	60(%rcx), %eax
	jae	.LBB41_16
# %bb.14:                               # %for.body36
                                        #   in Loop: Header=BB41_13 Depth=1
	movq	-24(%rbp), %rax
	movl	-16(%rbp), %ecx
	movl	100(%rax,%rcx,4), %esi
	movq	-32(%rbp), %rdx
	movabsq	$.L.str.51, %rdi
	callq	ue_v
	addl	-12(%rbp), %eax
	movl	%eax, -12(%rbp)
	movq	-24(%rbp), %rax
	movl	-16(%rbp), %ecx
	movl	132(%rax,%rcx,4), %esi
	movq	-32(%rbp), %rdx
	movabsq	$.L.str.52, %rdi
	callq	ue_v
	addl	-12(%rbp), %eax
	movl	%eax, -12(%rbp)
# %bb.15:                               # %for.inc45
                                        #   in Loop: Header=BB41_13 Depth=1
