	.text
	.file	"q_matrix.c"
	.globl	CheckParameterName      # -- Begin function CheckParameterName
	.p2align	4, 0x90
	.type	CheckParameterName,@function
CheckParameterName:                     # @CheckParameterName
	.cfi_startproc
# %bb.0:                                # %rand_bb
	pushq	%rbp
	.cfi_def_cfa_offset 16
	.cfi_offset %rbp, -16
	movq	%rsp, %rbp
	.cfi_def_cfa_register %rbp
	pushq	%r14
	pushq	%rbx
	.cfi_offset %rbx, -32
	.cfi_offset %r14, -24
	movq	%rsi, %r14
	movq	%rdi, %rbx
	callq	get_urand
	cmpl	$0, %eax
	jne	.LBB0_17
# %bb.1:                                # %func_CheckParameterName.4
	movq	%rbx, %rdi
	movq	%r14, %rsi
	callq	CheckParameterName.4
	popq	%rbx
	popq	%r14
	popq	%rbp
	.cfi_def_cfa %rsp, 8
	retq
.LBB0_2:                                # %func_CheckParameterName.8
	.cfi_def_cfa %rbp, 16
	movq	%rbx, %rdi
	movq	%r14, %rsi
	callq	CheckParameterName.8
	popq	%rbx
	popq	%r14
	popq	%rbp
	.cfi_def_cfa %rsp, 8
	retq
.LBB0_3:                                # %func_CheckParameterName.12
	.cfi_def_cfa %rbp, 16
	movq	%rbx, %rdi
	movq	%r14, %rsi
	callq	CheckParameterName.12
	popq	%rbx
	popq	%r14
	popq	%rbp
	.cfi_def_cfa %rsp, 8
	retq
.LBB0_4:                                # %func_CheckParameterName.15
	.cfi_def_cfa %rbp, 16
	movq	%rbx, %rdi
	movq	%r14, %rsi
	callq	CheckParameterName.15
	popq	%rbx
	popq	%r14
	popq	%rbp
	.cfi_def_cfa %rsp, 8
	retq
.LBB0_5:                                # %func_CheckParameterName.18
	.cfi_def_cfa %rbp, 16
	movq	%rbx, %rdi
	movq	%r14, %rsi
	callq	CheckParameterName.18
	popq	%rbx
	popq	%r14
	popq	%rbp
	.cfi_def_cfa %rsp, 8
	retq
.LBB0_6:                                # %func_CheckParameterName.24
	.cfi_def_cfa %rbp, 16
	movq	%rbx, %rdi
	movq	%r14, %rsi
	callq	CheckParameterName.24
	popq	%rbx
	popq	%r14
	popq	%rbp
	.cfi_def_cfa %rsp, 8
	retq
.LBB0_7:                                # %func_CheckParameterName.27
	.cfi_def_cfa %rbp, 16
	movq	%rbx, %rdi
	movq	%r14, %rsi
	callq	CheckParameterName.27
	popq	%rbx
	popq	%r14
	popq	%rbp
	.cfi_def_cfa %rsp, 8
	retq
.LBB0_8:                                # %func_CheckParameterName.40
	.cfi_def_cfa %rbp, 16
	movq	%rbx, %rdi
	movq	%r14, %rsi
	callq	CheckParameterName.40
	popq	%rbx
	popq	%r14
	popq	%rbp
	.cfi_def_cfa %rsp, 8
	retq
.LBB0_9:                                # %func_CheckParameterName.42
	.cfi_def_cfa %rbp, 16
	movq	%rbx, %rdi
	movq	%r14, %rsi
	callq	CheckParameterName.42
	popq	%rbx
	popq	%r14
	popq	%rbp
	.cfi_def_cfa %rsp, 8
	retq
.LBB0_10:                               # %func_CheckParameterName.44
	.cfi_def_cfa %rbp, 16
	movq	%rbx, %rdi
	movq	%r14, %rsi
	callq	CheckParameterName.44
	popq	%rbx
	popq	%r14
	popq	%rbp
	.cfi_def_cfa %rsp, 8
	retq
.LBB0_11:                               # %func_CheckParameterName.47
	.cfi_def_cfa %rbp, 16
	movq	%rbx, %rdi
	movq	%r14, %rsi
	callq	CheckParameterName.47
	popq	%rbx
	popq	%r14
	popq	%rbp
	.cfi_def_cfa %rsp, 8
	retq
.LBB0_12:                               # %func_CheckParameterName.53
	.cfi_def_cfa %rbp, 16
	movq	%rbx, %rdi
	movq	%r14, %rsi
	callq	CheckParameterName.53
	popq	%rbx
	popq	%r14
	popq	%rbp
	.cfi_def_cfa %rsp, 8
	retq
.LBB0_13:                               # %func_CheckParameterName.55
	.cfi_def_cfa %rbp, 16
	movq	%rbx, %rdi
	movq	%r14, %rsi
	callq	CheckParameterName.55
	popq	%rbx
	popq	%r14
	popq	%rbp
	.cfi_def_cfa %rsp, 8
	retq
.LBB0_14:                               # %func_CheckParameterName.68
	.cfi_def_cfa %rbp, 16
	movq	%rbx, %rdi
	movq	%r14, %rsi
	callq	CheckParameterName.68
	popq	%rbx
	popq	%r14
	popq	%rbp
	.cfi_def_cfa %rsp, 8
	retq
.LBB0_15:                               # %func_CheckParameterName.71
	.cfi_def_cfa %rbp, 16
	movq	%rbx, %rdi
	movq	%r14, %rsi
	callq	CheckParameterName.71
	popq	%rbx
	popq	%r14
	popq	%rbp
	.cfi_def_cfa %rsp, 8
	retq
.LBB0_16:                               # %func_CheckParameterName.75
	.cfi_def_cfa %rbp, 16
	movq	%rbx, %rdi
	movq	%r14, %rsi
	callq	CheckParameterName.75
	popq	%rbx
	popq	%r14
	popq	%rbp
	.cfi_def_cfa %rsp, 8
	retq
.LBB0_17:                               # %ctrl0
	.cfi_def_cfa %rbp, 16
	cmpl	$1, %eax
	je	.LBB0_2
# %bb.18:                               # %ctrl1
	cmpl	$2, %eax
	je	.LBB0_3
# %bb.19:                               # %ctrl2
	cmpl	$3, %eax
	je	.LBB0_4
# %bb.20:                               # %ctrl3
	cmpl	$4, %eax
	je	.LBB0_5
# %bb.21:                               # %ctrl4
	cmpl	$5, %eax
	je	.LBB0_6
# %bb.22:                               # %ctrl5
	cmpl	$6, %eax
	je	.LBB0_7
# %bb.23:                               # %ctrl6
	cmpl	$7, %eax
	je	.LBB0_8
# %bb.24:                               # %ctrl7
	cmpl	$8, %eax
	je	.LBB0_9
# %bb.25:                               # %ctrl8
	cmpl	$9, %eax
	je	.LBB0_10
# %bb.26:                               # %ctrl9
	cmpl	$10, %eax
	je	.LBB0_11
# %bb.27:                               # %ctrl10
	cmpl	$11, %eax
	je	.LBB0_12
# %bb.28:                               # %ctrl11
	cmpl	$12, %eax
	je	.LBB0_13
# %bb.29:                               # %ctrl12
	cmpl	$13, %eax
	je	.LBB0_14
# %bb.30:                               # %ctrl13
	cmpl	$14, %eax
	je	.LBB0_15
	jmp	.LBB0_16
.Lfunc_end0:
	.size	CheckParameterName, .Lfunc_end0-CheckParameterName
	.cfi_endproc
                                        # -- End function
	.globl	ParseMatrix             # -- Begin function ParseMatrix
	.p2align	4, 0x90
	.type	ParseMatrix,@function
ParseMatrix:                            # @ParseMatrix
	.cfi_startproc
# %bb.0:                                # %rand_bb
	pushq	%rbp
	.cfi_def_cfa_offset 16
	.cfi_offset %rbp, -16
	movq	%rsp, %rbp
	.cfi_def_cfa_register %rbp
	pushq	%r14
	pushq	%rbx
	.cfi_offset %rbx, -32
	.cfi_offset %r14, -24
	movl	%esi, %r14d
	movq	%rdi, %rbx
	callq	get_urand
	cmpl	$0, %eax
	jne	.LBB1_17
# %bb.1:                                # %func_ParseMatrix.9
	movq	%rbx, %rdi
	movl	%r14d, %esi
	callq	ParseMatrix.9
	popq	%rbx
	popq	%r14
	popq	%rbp
	.cfi_def_cfa %rsp, 8
	retq
.LBB1_2:                                # %func_ParseMatrix.10
	.cfi_def_cfa %rbp, 16
	movq	%rbx, %rdi
	movl	%r14d, %esi
	callq	ParseMatrix.10
	popq	%rbx
	popq	%r14
	popq	%rbp
	.cfi_def_cfa %rsp, 8
	retq
.LBB1_3:                                # %func_ParseMatrix.13
	.cfi_def_cfa %rbp, 16
	movq	%rbx, %rdi
	movl	%r14d, %esi
	callq	ParseMatrix.13
	popq	%rbx
	popq	%r14
	popq	%rbp
	.cfi_def_cfa %rsp, 8
	retq
.LBB1_4:                                # %func_ParseMatrix.21
	.cfi_def_cfa %rbp, 16
	movq	%rbx, %rdi
	movl	%r14d, %esi
	callq	ParseMatrix.21
	popq	%rbx
	popq	%r14
	popq	%rbp
	.cfi_def_cfa %rsp, 8
	retq
.LBB1_5:                                # %func_ParseMatrix.22
	.cfi_def_cfa %rbp, 16
	movq	%rbx, %rdi
	movl	%r14d, %esi
	callq	ParseMatrix.22
	popq	%rbx
	popq	%r14
	popq	%rbp
	.cfi_def_cfa %rsp, 8
	retq
.LBB1_6:                                # %func_ParseMatrix.25
	.cfi_def_cfa %rbp, 16
	movq	%rbx, %rdi
	movl	%r14d, %esi
	callq	ParseMatrix.25
	popq	%rbx
	popq	%r14
	popq	%rbp
	.cfi_def_cfa %rsp, 8
	retq
.LBB1_7:                                # %func_ParseMatrix.31
	.cfi_def_cfa %rbp, 16
	movq	%rbx, %rdi
	movl	%r14d, %esi
	callq	ParseMatrix.31
	popq	%rbx
	popq	%r14
	popq	%rbp
	.cfi_def_cfa %rsp, 8
	retq
.LBB1_8:                                # %func_ParseMatrix.33
	.cfi_def_cfa %rbp, 16
	movq	%rbx, %rdi
	movl	%r14d, %esi
	callq	ParseMatrix.33
	popq	%rbx
	popq	%r14
	popq	%rbp
	.cfi_def_cfa %rsp, 8
	retq
.LBB1_9:                                # %func_ParseMatrix.34
	.cfi_def_cfa %rbp, 16
	movq	%rbx, %rdi
	movl	%r14d, %esi
	callq	ParseMatrix.34
	popq	%rbx
	popq	%r14
	popq	%rbp
	.cfi_def_cfa %rsp, 8
	retq
.LBB1_10:                               # %func_ParseMatrix.38
	.cfi_def_cfa %rbp, 16
	movq	%rbx, %rdi
	movl	%r14d, %esi
	callq	ParseMatrix.38
	popq	%rbx
	popq	%r14
	popq	%rbp
	.cfi_def_cfa %rsp, 8
	retq
.LBB1_11:                               # %func_ParseMatrix.39
	.cfi_def_cfa %rbp, 16
	movq	%rbx, %rdi
	movl	%r14d, %esi
	callq	ParseMatrix.39
	popq	%rbx
	popq	%r14
	popq	%rbp
	.cfi_def_cfa %rsp, 8
	retq
.LBB1_12:                               # %func_ParseMatrix.59
	.cfi_def_cfa %rbp, 16
	movq	%rbx, %rdi
	movl	%r14d, %esi
	callq	ParseMatrix.59
	popq	%rbx
	popq	%r14
	popq	%rbp
	.cfi_def_cfa %rsp, 8
	retq
.LBB1_13:                               # %func_ParseMatrix.61
	.cfi_def_cfa %rbp, 16
	movq	%rbx, %rdi
	movl	%r14d, %esi
	callq	ParseMatrix.61
	popq	%rbx
	popq	%r14
	popq	%rbp
	.cfi_def_cfa %rsp, 8
	retq
.LBB1_14:                               # %func_ParseMatrix.65
	.cfi_def_cfa %rbp, 16
	movq	%rbx, %rdi
	movl	%r14d, %esi
	callq	ParseMatrix.65
	popq	%rbx
	popq	%r14
	popq	%rbp
	.cfi_def_cfa %rsp, 8
	retq
.LBB1_15:                               # %func_ParseMatrix.70
	.cfi_def_cfa %rbp, 16
	movq	%rbx, %rdi
	movl	%r14d, %esi
	callq	ParseMatrix.70
	popq	%rbx
	popq	%r14
	popq	%rbp
	.cfi_def_cfa %rsp, 8
	retq
.LBB1_16:                               # %func_ParseMatrix.74
	.cfi_def_cfa %rbp, 16
	movq	%rbx, %rdi
	movl	%r14d, %esi
	callq	ParseMatrix.74
	popq	%rbx
	popq	%r14
	popq	%rbp
	.cfi_def_cfa %rsp, 8
	retq
.LBB1_17:                               # %ctrl0
	.cfi_def_cfa %rbp, 16
	cmpl	$1, %eax
	je	.LBB1_2
# %bb.18:                               # %ctrl1
	cmpl	$2, %eax
	je	.LBB1_3
# %bb.19:                               # %ctrl2
	cmpl	$3, %eax
	je	.LBB1_4
# %bb.20:                               # %ctrl3
	cmpl	$4, %eax
	je	.LBB1_5
# %bb.21:                               # %ctrl4
	cmpl	$5, %eax
	je	.LBB1_6
# %bb.22:                               # %ctrl5
	cmpl	$6, %eax
	je	.LBB1_7
# %bb.23:                               # %ctrl6
	cmpl	$7, %eax
	je	.LBB1_8
# %bb.24:                               # %ctrl7
	cmpl	$8, %eax
	je	.LBB1_9
# %bb.25:                               # %ctrl8
	cmpl	$9, %eax
	je	.LBB1_10
# %bb.26:                               # %ctrl9
	cmpl	$10, %eax
	je	.LBB1_11
# %bb.27:                               # %ctrl10
	cmpl	$11, %eax
	je	.LBB1_12
# %bb.28:                               # %ctrl11
	cmpl	$12, %eax
	je	.LBB1_13
# %bb.29:                               # %ctrl12
	cmpl	$13, %eax
	je	.LBB1_14
# %bb.30:                               # %ctrl13
	cmpl	$14, %eax
	je	.LBB1_15
	jmp	.LBB1_16
.Lfunc_end1:
	.size	ParseMatrix, .Lfunc_end1-ParseMatrix
	.cfi_endproc
                                        # -- End function
	.globl	PatchMatrix             # -- Begin function PatchMatrix
	.p2align	4, 0x90
	.type	PatchMatrix,@function
PatchMatrix:                            # @PatchMatrix
	.cfi_startproc
# %bb.0:                                # %rand_bb
	pushq	%rbp
	.cfi_def_cfa_offset 16
	.cfi_offset %rbp, -16
	movq	%rsp, %rbp
	.cfi_def_cfa_register %rbp
	callq	get_urand
	cmpl	$0, %eax
	jne	.LBB2_17
# %bb.1:                                # %func_PatchMatrix.2
	callq	PatchMatrix.2
	popq	%rbp
	.cfi_def_cfa %rsp, 8
	retq
.LBB2_2:                                # %func_PatchMatrix.5
	.cfi_def_cfa %rbp, 16
	callq	PatchMatrix.5
	popq	%rbp
	.cfi_def_cfa %rsp, 8
	retq
.LBB2_3:                                # %func_PatchMatrix.6
	.cfi_def_cfa %rbp, 16
	callq	PatchMatrix.6
	popq	%rbp
	.cfi_def_cfa %rsp, 8
	retq
.LBB2_4:                                # %func_PatchMatrix.19
	.cfi_def_cfa %rbp, 16
	callq	PatchMatrix.19
	popq	%rbp
	.cfi_def_cfa %rsp, 8
	retq
.LBB2_5:                                # %func_PatchMatrix.28
	.cfi_def_cfa %rbp, 16
	callq	PatchMatrix.28
	popq	%rbp
	.cfi_def_cfa %rsp, 8
	retq
.LBB2_6:                                # %func_PatchMatrix.29
	.cfi_def_cfa %rbp, 16
	callq	PatchMatrix.29
	popq	%rbp
	.cfi_def_cfa %rsp, 8
	retq
.LBB2_7:                                # %func_PatchMatrix.32
	.cfi_def_cfa %rbp, 16
	callq	PatchMatrix.32
	popq	%rbp
	.cfi_def_cfa %rsp, 8
	retq
.LBB2_8:                                # %func_PatchMatrix.35
	.cfi_def_cfa %rbp, 16
	callq	PatchMatrix.35
	popq	%rbp
	.cfi_def_cfa %rsp, 8
	retq
.LBB2_9:                                # %func_PatchMatrix.43
	.cfi_def_cfa %rbp, 16
	callq	PatchMatrix.43
	popq	%rbp
	.cfi_def_cfa %rsp, 8
	retq
.LBB2_10:                               # %func_PatchMatrix.50
	.cfi_def_cfa %rbp, 16
	callq	PatchMatrix.50
	popq	%rbp
	.cfi_def_cfa %rsp, 8
	retq
.LBB2_11:                               # %func_PatchMatrix.52
	.cfi_def_cfa %rbp, 16
	callq	PatchMatrix.52
	popq	%rbp
	.cfi_def_cfa %rsp, 8
	retq
.LBB2_12:                               # %func_PatchMatrix.54
	.cfi_def_cfa %rbp, 16
	callq	PatchMatrix.54
	popq	%rbp
	.cfi_def_cfa %rsp, 8
	retq
.LBB2_13:                               # %func_PatchMatrix.56
	.cfi_def_cfa %rbp, 16
	callq	PatchMatrix.56
	popq	%rbp
	.cfi_def_cfa %rsp, 8
	retq
.LBB2_14:                               # %func_PatchMatrix.57
	.cfi_def_cfa %rbp, 16
	callq	PatchMatrix.57
	popq	%rbp
	.cfi_def_cfa %rsp, 8
	retq
.LBB2_15:                               # %func_PatchMatrix.58
	.cfi_def_cfa %rbp, 16
	callq	PatchMatrix.58
	popq	%rbp
	.cfi_def_cfa %rsp, 8
	retq
.LBB2_16:                               # %func_PatchMatrix.63
	.cfi_def_cfa %rbp, 16
	callq	PatchMatrix.63
	popq	%rbp
	.cfi_def_cfa %rsp, 8
	retq
.LBB2_17:                               # %ctrl0
	.cfi_def_cfa %rbp, 16
	cmpl	$1, %eax
	je	.LBB2_2
# %bb.18:                               # %ctrl1
	cmpl	$2, %eax
	je	.LBB2_3
# %bb.19:                               # %ctrl2
	cmpl	$3, %eax
	je	.LBB2_4
# %bb.20:                               # %ctrl3
	cmpl	$4, %eax
	je	.LBB2_5
# %bb.21:                               # %ctrl4
	cmpl	$5, %eax
	je	.LBB2_6
# %bb.22:                               # %ctrl5
	cmpl	$6, %eax
	je	.LBB2_7
# %bb.23:                               # %ctrl6
	cmpl	$7, %eax
	je	.LBB2_8
# %bb.24:                               # %ctrl7
	cmpl	$8, %eax
	je	.LBB2_9
# %bb.25:                               # %ctrl8
	cmpl	$9, %eax
	je	.LBB2_10
# %bb.26:                               # %ctrl9
	cmpl	$10, %eax
	je	.LBB2_11
# %bb.27:                               # %ctrl10
	cmpl	$11, %eax
	je	.LBB2_12
# %bb.28:                               # %ctrl11
	cmpl	$12, %eax
	je	.LBB2_13
# %bb.29:                               # %ctrl12
	cmpl	$13, %eax
	je	.LBB2_14
# %bb.30:                               # %ctrl13
	cmpl	$14, %eax
	je	.LBB2_15
	jmp	.LBB2_16
.Lfunc_end2:
	.size	PatchMatrix, .Lfunc_end2-PatchMatrix
	.cfi_endproc
                                        # -- End function
	.globl	Init_QMatrix            # -- Begin function Init_QMatrix
	.p2align	4, 0x90
	.type	Init_QMatrix,@function
Init_QMatrix:                           # @Init_QMatrix
	.cfi_startproc
# %bb.0:                                # %entry
	pushq	%rbp
	.cfi_def_cfa_offset 16
	.cfi_offset %rbp, -16
	movq	%rsp, %rbp
	.cfi_def_cfa_register %rbp
	pushq	%rbx
	pushq	%rax
	.cfi_offset %rbx, -24
	movq	input, %rax
	cmpl	$0, 3256(%rax)
	je	.LBB3_5
# %bb.1:                                # %if.then
	movq	input, %rsi
	addq	$1024, %rsi             # imm = 0x400
	movabsq	$.L.str.9, %rdi
	movb	$0, %al
	callq	printf
	movq	input, %rdi
	addq	$1024, %rdi             # imm = 0x400
	xorl	%esi, %esi
	callq	GetConfigFileContent
	movq	%rax, -16(%rbp)
	cmpq	$0, -16(%rbp)
	je	.LBB3_3
# %bb.2:                                # %if.then4
	movq	-16(%rbp), %rbx
	movq	-16(%rbp), %rdi
	callq	strlen
	movq	%rbx, %rdi
	movl	%eax, %esi
	callq	ParseMatrix
	jmp	.LBB3_4
.LBB3_3:                                # %if.else
	movabsq	$.L.str.10, %rdi
	movabsq	$errortext, %rsi
	movb	$0, %al
	callq	printf
.LBB3_4:                                # %if.end
	callq	PatchMatrix
	movabsq	$.L.str.11, %rdi
	movb	$0, %al
	callq	printf
	movabsq	$UseDefaultScalingMatrix4x4Flag, %rdi
	xorl	%esi, %esi
	movl	$12, %edx
	callq	memset
	movw	$0, UseDefaultScalingMatrix8x8Flag+2
	movw	$0, UseDefaultScalingMatrix8x8Flag
	movq	-16(%rbp), %rdi
	callq	free
.LBB3_5:                                # %if.end8
	addq	$8, %rsp
	popq	%rbx
	popq	%rbp
	.cfi_def_cfa %rsp, 8
	retq
.Lfunc_end3:
	.size	Init_QMatrix, .Lfunc_end3-Init_QMatrix
	.cfi_endproc
                                        # -- End function
	.globl	CalculateQuantParam     # -- Begin function CalculateQuantParam
	.p2align	4, 0x90
	.type	CalculateQuantParam,@function
CalculateQuantParam:                    # @CalculateQuantParam
	.cfi_startproc
# %bb.0:                                # %rand_bb
	pushq	%rbp
	.cfi_def_cfa_offset 16
	.cfi_offset %rbp, -16
	movq	%rsp, %rbp
	.cfi_def_cfa_register %rbp
	callq	get_urand
	cmpl	$0, %eax
	jne	.LBB4_17
# %bb.1:                                # %func_CalculateQuantParam.1
	callq	CalculateQuantParam.1
	popq	%rbp
	.cfi_def_cfa %rsp, 8
	retq
.LBB4_2:                                # %func_CalculateQuantParam.3
	.cfi_def_cfa %rbp, 16
	callq	CalculateQuantParam.3
	popq	%rbp
	.cfi_def_cfa %rsp, 8
	retq
.LBB4_3:                                # %func_CalculateQuantParam.7
	.cfi_def_cfa %rbp, 16
	callq	CalculateQuantParam.7
	popq	%rbp
	.cfi_def_cfa %rsp, 8
	retq
.LBB4_4:                                # %func_CalculateQuantParam.11
	.cfi_def_cfa %rbp, 16
	callq	CalculateQuantParam.11
	popq	%rbp
	.cfi_def_cfa %rsp, 8
	retq
.LBB4_5:                                # %func_CalculateQuantParam.16
	.cfi_def_cfa %rbp, 16
	callq	CalculateQuantParam.16
	popq	%rbp
	.cfi_def_cfa %rsp, 8
	retq
.LBB4_6:                                # %func_CalculateQuantParam.17
	.cfi_def_cfa %rbp, 16
	callq	CalculateQuantParam.17
	popq	%rbp
	.cfi_def_cfa %rsp, 8
	retq
.LBB4_7:                                # %func_CalculateQuantParam.20
	.cfi_def_cfa %rbp, 16
	callq	CalculateQuantParam.20
	popq	%rbp
	.cfi_def_cfa %rsp, 8
	retq
.LBB4_8:                                # %func_CalculateQuantParam.26
	.cfi_def_cfa %rbp, 16
	callq	CalculateQuantParam.26
	popq	%rbp
	.cfi_def_cfa %rsp, 8
	retq
.LBB4_9:                                # %func_CalculateQuantParam.48
	.cfi_def_cfa %rbp, 16
	callq	CalculateQuantParam.48
	popq	%rbp
	.cfi_def_cfa %rsp, 8
	retq
.LBB4_10:                               # %func_CalculateQuantParam.51
	.cfi_def_cfa %rbp, 16
	callq	CalculateQuantParam.51
	popq	%rbp
	.cfi_def_cfa %rsp, 8
	retq
.LBB4_11:                               # %func_CalculateQuantParam.64
	.cfi_def_cfa %rbp, 16
	callq	CalculateQuantParam.64
	popq	%rbp
	.cfi_def_cfa %rsp, 8
	retq
.LBB4_12:                               # %func_CalculateQuantParam.69
	.cfi_def_cfa %rbp, 16
	callq	CalculateQuantParam.69
	popq	%rbp
	.cfi_def_cfa %rsp, 8
	retq
.LBB4_13:                               # %func_CalculateQuantParam.73
	.cfi_def_cfa %rbp, 16
	callq	CalculateQuantParam.73
	popq	%rbp
	.cfi_def_cfa %rsp, 8
	retq
.LBB4_14:                               # %func_CalculateQuantParam.76
	.cfi_def_cfa %rbp, 16
	callq	CalculateQuantParam.76
	popq	%rbp
	.cfi_def_cfa %rsp, 8
	retq
.LBB4_15:                               # %func_CalculateQuantParam.78
	.cfi_def_cfa %rbp, 16
	callq	CalculateQuantParam.78
	popq	%rbp
	.cfi_def_cfa %rsp, 8
	retq
.LBB4_16:                               # %func_CalculateQuantParam.80
	.cfi_def_cfa %rbp, 16
	callq	CalculateQuantParam.80
	popq	%rbp
	.cfi_def_cfa %rsp, 8
	retq
.LBB4_17:                               # %ctrl0
	.cfi_def_cfa %rbp, 16
	cmpl	$1, %eax
	je	.LBB4_2
# %bb.18:                               # %ctrl1
	cmpl	$2, %eax
	je	.LBB4_3
# %bb.19:                               # %ctrl2
	cmpl	$3, %eax
	je	.LBB4_4
# %bb.20:                               # %ctrl3
	cmpl	$4, %eax
	je	.LBB4_5
# %bb.21:                               # %ctrl4
	cmpl	$5, %eax
	je	.LBB4_6
# %bb.22:                               # %ctrl5
	cmpl	$6, %eax
	je	.LBB4_7
# %bb.23:                               # %ctrl6
	cmpl	$7, %eax
	je	.LBB4_8
# %bb.24:                               # %ctrl7
	cmpl	$8, %eax
	je	.LBB4_9
# %bb.25:                               # %ctrl8
	cmpl	$9, %eax
	je	.LBB4_10
# %bb.26:                               # %ctrl9
	cmpl	$10, %eax
	je	.LBB4_11
# %bb.27:                               # %ctrl10
	cmpl	$11, %eax
	je	.LBB4_12
# %bb.28:                               # %ctrl11
	cmpl	$12, %eax
	je	.LBB4_13
# %bb.29:                               # %ctrl12
	cmpl	$13, %eax
	je	.LBB4_14
# %bb.30:                               # %ctrl13
	cmpl	$14, %eax
	je	.LBB4_15
	jmp	.LBB4_16
.Lfunc_end4:
	.size	CalculateQuantParam, .Lfunc_end4-CalculateQuantParam
	.cfi_endproc
                                        # -- End function
	.globl	CalculateQuant8Param    # -- Begin function CalculateQuant8Param
	.p2align	4, 0x90
	.type	CalculateQuant8Param,@function
CalculateQuant8Param:                   # @CalculateQuant8Param
	.cfi_startproc
# %bb.0:                                # %rand_bb
	pushq	%rbp
	.cfi_def_cfa_offset 16
	.cfi_offset %rbp, -16
	movq	%rsp, %rbp
	.cfi_def_cfa_register %rbp
	callq	get_urand
	cmpl	$0, %eax
	jne	.LBB5_17
# %bb.1:                                # %func_CalculateQuant8Param.14
	callq	CalculateQuant8Param.14
	popq	%rbp
	.cfi_def_cfa %rsp, 8
	retq
.LBB5_2:                                # %func_CalculateQuant8Param.23
	.cfi_def_cfa %rbp, 16
	callq	CalculateQuant8Param.23
	popq	%rbp
	.cfi_def_cfa %rsp, 8
	retq
.LBB5_3:                                # %func_CalculateQuant8Param.30
	.cfi_def_cfa %rbp, 16
	callq	CalculateQuant8Param.30
	popq	%rbp
	.cfi_def_cfa %rsp, 8
	retq
.LBB5_4:                                # %func_CalculateQuant8Param.36
	.cfi_def_cfa %rbp, 16
	callq	CalculateQuant8Param.36
	popq	%rbp
	.cfi_def_cfa %rsp, 8
	retq
.LBB5_5:                                # %func_CalculateQuant8Param.37
	.cfi_def_cfa %rbp, 16
	callq	CalculateQuant8Param.37
	popq	%rbp
	.cfi_def_cfa %rsp, 8
	retq
.LBB5_6:                                # %func_CalculateQuant8Param.41
	.cfi_def_cfa %rbp, 16
	callq	CalculateQuant8Param.41
	popq	%rbp
	.cfi_def_cfa %rsp, 8
	retq
.LBB5_7:                                # %func_CalculateQuant8Param.45
	.cfi_def_cfa %rbp, 16
	callq	CalculateQuant8Param.45
	popq	%rbp
	.cfi_def_cfa %rsp, 8
	retq
.LBB5_8:                                # %func_CalculateQuant8Param.46
	.cfi_def_cfa %rbp, 16
	callq	CalculateQuant8Param.46
	popq	%rbp
	.cfi_def_cfa %rsp, 8
	retq
.LBB5_9:                                # %func_CalculateQuant8Param.49
	.cfi_def_cfa %rbp, 16
	callq	CalculateQuant8Param.49
	popq	%rbp
	.cfi_def_cfa %rsp, 8
	retq
.LBB5_10:                               # %func_CalculateQuant8Param.60
	.cfi_def_cfa %rbp, 16
	callq	CalculateQuant8Param.60
	popq	%rbp
	.cfi_def_cfa %rsp, 8
	retq
.LBB5_11:                               # %func_CalculateQuant8Param.62
	.cfi_def_cfa %rbp, 16
	callq	CalculateQuant8Param.62
	popq	%rbp
	.cfi_def_cfa %rsp, 8
	retq
.LBB5_12:                               # %func_CalculateQuant8Param.66
	.cfi_def_cfa %rbp, 16
	callq	CalculateQuant8Param.66
	popq	%rbp
	.cfi_def_cfa %rsp, 8
	retq
.LBB5_13:                               # %func_CalculateQuant8Param.67
	.cfi_def_cfa %rbp, 16
	callq	CalculateQuant8Param.67
	popq	%rbp
	.cfi_def_cfa %rsp, 8
	retq
.LBB5_14:                               # %func_CalculateQuant8Param.72
	.cfi_def_cfa %rbp, 16
	callq	CalculateQuant8Param.72
	popq	%rbp
	.cfi_def_cfa %rsp, 8
	retq
.LBB5_15:                               # %func_CalculateQuant8Param.77
	.cfi_def_cfa %rbp, 16
	callq	CalculateQuant8Param.77
	popq	%rbp
	.cfi_def_cfa %rsp, 8
	retq
.LBB5_16:                               # %func_CalculateQuant8Param.79
	.cfi_def_cfa %rbp, 16
	callq	CalculateQuant8Param.79
	popq	%rbp
	.cfi_def_cfa %rsp, 8
	retq
.LBB5_17:                               # %ctrl0
	.cfi_def_cfa %rbp, 16
	cmpl	$1, %eax
	je	.LBB5_2
# %bb.18:                               # %ctrl1
	cmpl	$2, %eax
	je	.LBB5_3
# %bb.19:                               # %ctrl2
	cmpl	$3, %eax
	je	.LBB5_4
# %bb.20:                               # %ctrl3
	cmpl	$4, %eax
	je	.LBB5_5
# %bb.21:                               # %ctrl4
	cmpl	$5, %eax
	je	.LBB5_6
# %bb.22:                               # %ctrl5
	cmpl	$6, %eax
	je	.LBB5_7
# %bb.23:                               # %ctrl6
	cmpl	$7, %eax
	je	.LBB5_8
# %bb.24:                               # %ctrl7
	cmpl	$8, %eax
	je	.LBB5_9
# %bb.25:                               # %ctrl8
	cmpl	$9, %eax
	je	.LBB5_10
# %bb.26:                               # %ctrl9
	cmpl	$10, %eax
	je	.LBB5_11
# %bb.27:                               # %ctrl10
	cmpl	$11, %eax
	je	.LBB5_12
# %bb.28:                               # %ctrl11
	cmpl	$12, %eax
	je	.LBB5_13
# %bb.29:                               # %ctrl12
	cmpl	$13, %eax
	je	.LBB5_14
# %bb.30:                               # %ctrl13
	cmpl	$14, %eax
	je	.LBB5_15
	jmp	.LBB5_16
.Lfunc_end5:
	.size	CalculateQuant8Param, .Lfunc_end5-CalculateQuant8Param
	.cfi_endproc
                                        # -- End function
	.globl	CalculateQuantParam.1   # -- Begin function CalculateQuantParam.1
	.p2align	4, 0x90
	.type	CalculateQuantParam.1,@function
CalculateQuantParam.1:                  # @CalculateQuantParam.1
	.cfi_startproc
# %bb.0:                                # %entry
	pushq	%rbp
	.cfi_def_cfa_offset 16
	.cfi_offset %rbp, -16
	movq	%rsp, %rbp
	.cfi_def_cfa_register %rbp
	pushq	%r15
	pushq	%r14
	pushq	%r12
	pushq	%rbx
	subq	$48, %rsp
	.cfi_offset %rbx, -48
	.cfi_offset %r12, -40
	.cfi_offset %r14, -32
	.cfi_offset %r15, -24
	movl	$1425004367, -56(%rbp)  # imm = 0x54EFD74F
	movl	$0, -52(%rbp)
	movq	active_sps, %rax
	cmpl	$0, 36(%rax)
	jne	.LBB6_3
# %bb.1:                                # %land.lhs.true
	movq	active_pps, %rax
	cmpl	$0, 20(%rax)
	jne	.LBB6_3
# %bb.2:                                # %if.then
	movl	$1, -52(%rbp)
	jmp	.LBB6_20
.LBB6_3:                                # %if.else
	leaq	-80(%rbp), %rdi
	xorl	%esi, %esi
	movl	$24, %edx
	callq	memset
	movq	active_sps, %rax
	cmpl	$0, 36(%rax)
	je	.LBB6_9
# %bb.4:                                # %if.then4
	movl	$0, -36(%rbp)
.LBB6_5:                                # %for.cond
                                        # =>This Inner Loop Header: Depth=1
	cmpl	$6, -36(%rbp)
	jge	.LBB6_8
# %bb.6:                                # %for.body
                                        #   in Loop: Header=BB6_5 Depth=1
	movq	active_sps, %rax
	movslq	-36(%rbp), %rcx
	movl	40(%rax,%rcx,4), %eax
	movslq	-36(%rbp), %rcx
	movl	%eax, -80(%rbp,%rcx,4)
# %bb.7:                                # %for.inc
                                        #   in Loop: Header=BB6_5 Depth=1
	movl	-36(%rbp), %eax
	addl	$1, %eax
	movl	%eax, -36(%rbp)
	jmp	.LBB6_5
.LBB6_8:                                # %for.end
	jmp	.LBB6_9
.LBB6_9:                                # %if.end
	movq	active_pps, %rax
	cmpl	$0, 20(%rax)
	je	.LBB6_19
# %bb.10:                               # %if.then9
	movl	$0, -36(%rbp)
.LBB6_11:                               # %for.cond10
                                        # =>This Inner Loop Header: Depth=1
	cmpl	$6, -36(%rbp)
	jge	.LBB6_18
# %bb.12:                               # %for.body12
                                        #   in Loop: Header=BB6_11 Depth=1
	cmpl	$0, -36(%rbp)
	je	.LBB6_14
# %bb.13:                               # %lor.lhs.false
                                        #   in Loop: Header=BB6_11 Depth=1
	cmpl	$3, -36(%rbp)
	jne	.LBB6_15
.LBB6_14:                               # %if.then15
                                        #   in Loop: Header=BB6_11 Depth=1
	movq	active_pps, %rax
	movslq	-36(%rbp), %rcx
	movl	24(%rax,%rcx,4), %eax
	movslq	-36(%rbp), %rcx
	orl	-80(%rbp,%rcx,4), %eax
	movl	%eax, -80(%rbp,%rcx,4)
	jmp	.LBB6_16
.LBB6_15:                               # %if.else20
                                        #   in Loop: Header=BB6_11 Depth=1
	movq	active_pps, %rax
	movslq	-36(%rbp), %rcx
	movl	24(%rax,%rcx,4), %eax
	movslq	-36(%rbp), %rcx
	movl	%eax, -80(%rbp,%rcx,4)
.LBB6_16:                               # %if.end26
                                        #   in Loop: Header=BB6_11 Depth=1
	jmp	.LBB6_17
.LBB6_17:                               # %for.inc27
                                        #   in Loop: Header=BB6_11 Depth=1
	movl	-36(%rbp), %eax
	addl	$1, %eax
	movl	%eax, -36(%rbp)
	jmp	.LBB6_11
.LBB6_18:                               # %for.end29
	jmp	.LBB6_19
.LBB6_19:                               # %if.end30
	jmp	.LBB6_20
.LBB6_20:                               # %if.end31
	cmpl	$1, -52(%rbp)
	jne	.LBB6_34
# %bb.21:                               # %if.then33
	movl	$0, -44(%rbp)
.LBB6_22:                               # %for.cond34
                                        # =>This Loop Header: Depth=1
                                        #     Child Loop BB6_24 Depth 2
                                        #       Child Loop BB6_26 Depth 3
	cmpl	$6, -44(%rbp)
	jge	.LBB6_33
# %bb.23:                               # %for.body36
                                        #   in Loop: Header=BB6_22 Depth=1
	movl	$0, -40(%rbp)
.LBB6_24:                               # %for.cond37
                                        #   Parent Loop BB6_22 Depth=1
                                        # =>  This Loop Header: Depth=2
                                        #       Child Loop BB6_26 Depth 3
	cmpl	$4, -40(%rbp)
	jge	.LBB6_31
# %bb.25:                               # %for.body39
                                        #   in Loop: Header=BB6_24 Depth=2
	movl	$0, -36(%rbp)
.LBB6_26:                               # %for.cond40
                                        #   Parent Loop BB6_22 Depth=1
                                        #     Parent Loop BB6_24 Depth=2
                                        # =>    This Inner Loop Header: Depth=3
	cmpl	$4, -36(%rbp)
	jge	.LBB6_29
# %bb.27:                               # %for.body42
                                        #   in Loop: Header=BB6_26 Depth=3
	movabsq	$InvLevelScale4x4Chroma_Inter, %r9
	movq	%r9, %r8
	addq	$384, %r8               # imm = 0x180
	movabsq	$LevelScale4x4Chroma_Inter, %r11
	movq	%r11, %r10
	addq	$384, %r10              # imm = 0x180
	movabsq	$InvLevelScale4x4Chroma_Intra, %rdx
	movq	%rdx, %r15
	addq	$384, %r15              # imm = 0x180
	movabsq	$LevelScale4x4Chroma_Intra, %rbx
	movq	%rbx, %rax
	addq	$384, %rax              # imm = 0x180
	movslq	-44(%rbp), %rdi
	shlq	$6, %rdi
	movabsq	$quant_coef, %r14
	movq	%r14, %rsi
	addq	%rdi, %rsi
	movslq	-40(%rbp), %rdi
	shlq	$4, %rdi
	addq	%rdi, %rsi
	movslq	-36(%rbp), %rdi
	movl	(%rsi,%rdi,4), %esi
	movslq	-44(%rbp), %rdi
	shlq	$6, %rdi
	movabsq	$LevelScale4x4Luma_Intra, %rcx
	addq	%rdi, %rcx
	movslq	-40(%rbp), %rdi
	shlq	$4, %rdi
	addq	%rdi, %rcx
	movslq	-36(%rbp), %rdi
	movl	%esi, (%rcx,%rdi,4)
	movslq	-44(%rbp), %rcx
	shlq	$6, %rcx
	movabsq	$dequant_coef, %r12
	movq	%r12, %rsi
	addq	%rcx, %rsi
	movslq	-40(%rbp), %rcx
	shlq	$4, %rcx
	addq	%rcx, %rsi
	movslq	-36(%rbp), %rcx
	movl	(%rsi,%rcx,4), %ecx
	shll	$4, %ecx
	movslq	-44(%rbp), %rsi
	shlq	$6, %rsi
	movabsq	$InvLevelScale4x4Luma_Intra, %rdi
	addq	%rsi, %rdi
	movslq	-40(%rbp), %rsi
	shlq	$4, %rsi
	addq	%rsi, %rdi
	movslq	-36(%rbp), %rsi
	movl	%ecx, (%rdi,%rsi,4)
	movslq	-44(%rbp), %rcx
	shlq	$6, %rcx
	movq	%r14, %rsi
	addq	%rcx, %rsi
	movslq	-40(%rbp), %rcx
	shlq	$4, %rcx
	addq	%rcx, %rsi
	movslq	-36(%rbp), %rcx
	movl	(%rsi,%rcx,4), %ecx
	movslq	-44(%rbp), %rsi
	shlq	$6, %rsi
	addq	%rsi, %rbx
	movslq	-40(%rbp), %rsi
	shlq	$4, %rsi
	addq	%rsi, %rbx
	movslq	-36(%rbp), %rsi
	movl	%ecx, (%rbx,%rsi,4)
	movslq	-44(%rbp), %rcx
	shlq	$6, %rcx
	movq	%r12, %rsi
	addq	%rcx, %rsi
	movslq	-40(%rbp), %rcx
	shlq	$4, %rcx
	addq	%rcx, %rsi
	movslq	-36(%rbp), %rcx
	movl	(%rsi,%rcx,4), %ecx
	shll	$4, %ecx
	movslq	-44(%rbp), %rsi
	shlq	$6, %rsi
	addq	%rsi, %rdx
	movslq	-40(%rbp), %rsi
	shlq	$4, %rsi
	addq	%rsi, %rdx
	movslq	-36(%rbp), %rsi
	movl	%ecx, (%rdx,%rsi,4)
	movslq	-44(%rbp), %rcx
	shlq	$6, %rcx
	movq	%r14, %rdx
	addq	%rcx, %rdx
	movslq	-40(%rbp), %rcx
	shlq	$4, %rcx
	addq	%rcx, %rdx
	movslq	-36(%rbp), %rcx
	movl	(%rdx,%rcx,4), %ecx
	movslq	-44(%rbp), %rdx
	shlq	$6, %rdx
	addq	%rdx, %rax
	movslq	-40(%rbp), %rdx
	shlq	$4, %rdx
	addq	%rdx, %rax
	movslq	-36(%rbp), %rdx
	movl	%ecx, (%rax,%rdx,4)
	movslq	-44(%rbp), %rax
	shlq	$6, %rax
	movq	%r12, %rcx
	addq	%rax, %rcx
	movslq	-40(%rbp), %rax
	shlq	$4, %rax
	addq	%rax, %rcx
	movslq	-36(%rbp), %rax
	movl	(%rcx,%rax,4), %eax
	shll	$4, %eax
	movslq	-44(%rbp), %rcx
	shlq	$6, %rcx
	addq	%rcx, %r15
	movslq	-40(%rbp), %rcx
	shlq	$4, %rcx
	addq	%rcx, %r15
	movslq	-36(%rbp), %rcx
	movl	%eax, (%r15,%rcx,4)
	movslq	-44(%rbp), %rax
	shlq	$6, %rax
	movq	%r14, %rcx
	addq	%rax, %rcx
	movslq	-40(%rbp), %rax
	shlq	$4, %rax
	addq	%rax, %rcx
	movslq	-36(%rbp), %rax
	movl	(%rcx,%rax,4), %eax
	movslq	-44(%rbp), %rcx
	shlq	$6, %rcx
	movabsq	$LevelScale4x4Luma_Inter, %rdx
	addq	%rcx, %rdx
	movslq	-40(%rbp), %rcx
	shlq	$4, %rcx
	addq	%rcx, %rdx
	movslq	-36(%rbp), %rcx
	movl	%eax, (%rdx,%rcx,4)
	movslq	-44(%rbp), %rax
	shlq	$6, %rax
	movq	%r12, %rcx
	addq	%rax, %rcx
	movslq	-40(%rbp), %rax
	shlq	$4, %rax
	addq	%rax, %rcx
	movslq	-36(%rbp), %rax
	movl	(%rcx,%rax,4), %eax
	shll	$4, %eax
	movslq	-44(%rbp), %rcx
	shlq	$6, %rcx
	movabsq	$InvLevelScale4x4Luma_Inter, %rdx
	addq	%rcx, %rdx
	movslq	-40(%rbp), %rcx
	shlq	$4, %rcx
	addq	%rcx, %rdx
	movslq	-36(%rbp), %rcx
	movl	%eax, (%rdx,%rcx,4)
	movslq	-44(%rbp), %rax
	shlq	$6, %rax
	movq	%r14, %rcx
	addq	%rax, %rcx
	movslq	-40(%rbp), %rax
	shlq	$4, %rax
	addq	%rax, %rcx
	movslq	-36(%rbp), %rax
	movl	(%rcx,%rax,4), %eax
	movslq	-44(%rbp), %rcx
	shlq	$6, %rcx
	addq	%rcx, %r11
	movslq	-40(%rbp), %rcx
	shlq	$4, %rcx
	addq	%rcx, %r11
	movslq	-36(%rbp), %rcx
	movl	%eax, (%r11,%rcx,4)
	movslq	-44(%rbp), %rax
	shlq	$6, %rax
	movq	%r12, %rcx
	addq	%rax, %rcx
	movslq	-40(%rbp), %rax
	shlq	$4, %rax
	addq	%rax, %rcx
	movslq	-36(%rbp), %rax
	movl	(%rcx,%rax,4), %eax
	shll	$4, %eax
	movslq	-44(%rbp), %rcx
	shlq	$6, %rcx
	addq	%rcx, %r9
	movslq	-40(%rbp), %rcx
	shlq	$4, %rcx
	addq	%rcx, %r9
	movslq	-36(%rbp), %rcx
	movl	%eax, (%r9,%rcx,4)
	movslq	-44(%rbp), %rax
	shlq	$6, %rax
	addq	%rax, %r14
	movslq	-40(%rbp), %rax
	shlq	$4, %rax
	addq	%rax, %r14
	movslq	-36(%rbp), %rax
	movl	(%r14,%rax,4), %eax
	movslq	-44(%rbp), %rcx
	shlq	$6, %rcx
	addq	%rcx, %r10
	movslq	-40(%rbp), %rcx
	shlq	$4, %rcx
	addq	%rcx, %r10
	movslq	-36(%rbp), %rcx
	movl	%eax, (%r10,%rcx,4)
	movslq	-44(%rbp), %rax
	shlq	$6, %rax
	addq	%rax, %r12
	movslq	-40(%rbp), %rax
	shlq	$4, %rax
	addq	%rax, %r12
	movslq	-36(%rbp), %rax
	movl	(%r12,%rax,4), %eax
	shll	$4, %eax
	movslq	-44(%rbp), %rcx
	shlq	$6, %rcx
	addq	%rcx, %r8
	movslq	-40(%rbp), %rcx
	shlq	$4, %rcx
	addq	%rcx, %r8
	movslq	-36(%rbp), %rcx
	movl	%eax, (%r8,%rcx,4)
# %bb.28:                               # %for.inc192
                                        #   in Loop: Header=BB6_26 Depth=3
	movl	-36(%rbp), %eax
	addl	$1, %eax
	movl	%eax, -36(%rbp)
	jmp	.LBB6_26
.LBB6_29:                               # %for.end194
                                        #   in Loop: Header=BB6_24 Depth=2
	jmp	.LBB6_30
.LBB6_30:                               # %for.inc195
                                        #   in Loop: Header=BB6_24 Depth=2
	movl	-40(%rbp), %eax
	addl	$1, %eax
	movl	%eax, -40(%rbp)
	jmp	.LBB6_24
.LBB6_31:                               # %for.end197
                                        #   in Loop: Header=BB6_22 Depth=1
	jmp	.LBB6_32
.LBB6_32:                               # %for.inc198
                                        #   in Loop: Header=BB6_22 Depth=1
	movl	-44(%rbp), %eax
	addl	$1, %eax
	movl	%eax, -44(%rbp)
	jmp	.LBB6_22
.LBB6_33:                               # %for.end200
	jmp	.LBB6_91
.LBB6_34:                               # %if.else201
	movl	$0, -44(%rbp)
.LBB6_35:                               # %for.cond202
                                        # =>This Loop Header: Depth=1
                                        #     Child Loop BB6_37 Depth 2
                                        #       Child Loop BB6_39 Depth 3
	cmpl	$6, -44(%rbp)
	jge	.LBB6_90
# %bb.36:                               # %for.body204
                                        #   in Loop: Header=BB6_35 Depth=1
	movl	$0, -40(%rbp)
.LBB6_37:                               # %for.cond205
                                        #   Parent Loop BB6_35 Depth=1
                                        # =>  This Loop Header: Depth=2
                                        #       Child Loop BB6_39 Depth 3
	cmpl	$4, -40(%rbp)
	jge	.LBB6_88
# %bb.38:                               # %for.body207
                                        #   in Loop: Header=BB6_37 Depth=2
	movl	$0, -36(%rbp)
.LBB6_39:                               # %for.cond208
                                        #   Parent Loop BB6_35 Depth=1
                                        #     Parent Loop BB6_37 Depth=2
                                        # =>    This Inner Loop Header: Depth=3
	cmpl	$4, -36(%rbp)
	jge	.LBB6_86
# %bb.40:                               # %for.body210
                                        #   in Loop: Header=BB6_39 Depth=3
	movl	-36(%rbp), %eax
	shll	$2, %eax
	addl	-40(%rbp), %eax
	movl	%eax, -48(%rbp)
	cmpl	$0, -80(%rbp)
	je	.LBB6_42
# %bb.41:                               # %lor.lhs.false214
                                        #   in Loop: Header=BB6_39 Depth=3
	movswl	UseDefaultScalingMatrix4x4Flag, %eax
	cmpl	$0, %eax
	je	.LBB6_43
.LBB6_42:                               # %if.then216
                                        #   in Loop: Header=BB6_39 Depth=3
	movslq	-44(%rbp), %rax
	shlq	$6, %rax
	movabsq	$quant_coef, %rcx
	addq	%rax, %rcx
	movslq	-40(%rbp), %rax
	shlq	$4, %rax
	addq	%rax, %rcx
	movslq	-36(%rbp), %rax
	movl	(%rcx,%rax,4), %eax
	shll	$4, %eax
	movslq	-48(%rbp), %rcx
	movswl	Quant_intra_default(,%rcx,2), %ecx
	cltd
	idivl	%ecx
	movslq	-44(%rbp), %rcx
	shlq	$6, %rcx
	movabsq	$LevelScale4x4Luma_Intra, %rdx
	addq	%rcx, %rdx
	movslq	-40(%rbp), %rcx
	shlq	$4, %rcx
	addq	%rcx, %rdx
	movslq	-36(%rbp), %rcx
	movl	%eax, (%rdx,%rcx,4)
	movslq	-44(%rbp), %rax
	shlq	$6, %rax
	movabsq	$dequant_coef, %rcx
	addq	%rax, %rcx
	movslq	-40(%rbp), %rax
	shlq	$4, %rax
	addq	%rax, %rcx
	movslq	-36(%rbp), %rax
	movl	(%rcx,%rax,4), %eax
	movslq	-48(%rbp), %rcx
	movswl	Quant_intra_default(,%rcx,2), %ecx
	imull	%ecx, %eax
	movslq	-44(%rbp), %rcx
	shlq	$6, %rcx
	movabsq	$InvLevelScale4x4Luma_Intra, %rdx
	addq	%rcx, %rdx
	movslq	-40(%rbp), %rcx
	shlq	$4, %rcx
	addq	%rcx, %rdx
	movslq	-36(%rbp), %rcx
	movl	%eax, (%rdx,%rcx,4)
	jmp	.LBB6_44
.LBB6_43:                               # %if.else248
                                        #   in Loop: Header=BB6_39 Depth=3
	movslq	-44(%rbp), %rax
	shlq	$6, %rax
	movabsq	$quant_coef, %rcx
	addq	%rax, %rcx
	movslq	-40(%rbp), %rax
	shlq	$4, %rax
	addq	%rax, %rcx
	movslq	-36(%rbp), %rax
	movl	(%rcx,%rax,4), %eax
	shll	$4, %eax
	movslq	-48(%rbp), %rcx
	movswl	ScalingList4x4(,%rcx,2), %ecx
	cltd
	idivl	%ecx
	movslq	-44(%rbp), %rcx
	shlq	$6, %rcx
	movabsq	$LevelScale4x4Luma_Intra, %rdx
	addq	%rcx, %rdx
	movslq	-40(%rbp), %rcx
	shlq	$4, %rcx
	addq	%rcx, %rdx
	movslq	-36(%rbp), %rcx
	movl	%eax, (%rdx,%rcx,4)
	movslq	-44(%rbp), %rax
	shlq	$6, %rax
	movabsq	$dequant_coef, %rcx
	addq	%rax, %rcx
	movslq	-40(%rbp), %rax
	shlq	$4, %rax
	addq	%rax, %rcx
	movslq	-36(%rbp), %rax
	movl	(%rcx,%rax,4), %eax
	movslq	-48(%rbp), %rcx
	movswl	ScalingList4x4(,%rcx,2), %ecx
	imull	%ecx, %eax
	movslq	-44(%rbp), %rcx
	shlq	$6, %rcx
	movabsq	$InvLevelScale4x4Luma_Intra, %rdx
	addq	%rcx, %rdx
	movslq	-40(%rbp), %rcx
	shlq	$4, %rcx
	addq	%rcx, %rdx
	movslq	-36(%rbp), %rcx
	movl	%eax, (%rdx,%rcx,4)
.LBB6_44:                               # %if.end282
                                        #   in Loop: Header=BB6_39 Depth=3
	cmpl	$0, -76(%rbp)
	jne	.LBB6_46
# %bb.45:                               # %if.then285
                                        #   in Loop: Header=BB6_39 Depth=3
	movslq	-44(%rbp), %rax
	shlq	$6, %rax
	movabsq	$LevelScale4x4Luma_Intra, %rcx
	addq	%rax, %rcx
	movslq	-40(%rbp), %rax
	shlq	$4, %rax
	addq	%rax, %rcx
	movslq	-36(%rbp), %rax
	movl	(%rcx,%rax,4), %eax
	movslq	-44(%rbp), %rcx
	shlq	$6, %rcx
	movabsq	$LevelScale4x4Chroma_Intra, %rdx
	addq	%rcx, %rdx
	movslq	-40(%rbp), %rcx
	shlq	$4, %rcx
	addq	%rcx, %rdx
	movslq	-36(%rbp), %rcx
	movl	%eax, (%rdx,%rcx,4)
	movslq	-44(%rbp), %rax
	shlq	$6, %rax
	movabsq	$InvLevelScale4x4Luma_Intra, %rcx
	addq	%rax, %rcx
	movslq	-40(%rbp), %rax
	shlq	$4, %rax
	addq	%rax, %rcx
	movslq	-36(%rbp), %rax
	movl	(%rcx,%rax,4), %eax
	movslq	-44(%rbp), %rcx
	shlq	$6, %rcx
	movabsq	$InvLevelScale4x4Chroma_Intra, %rdx
	addq	%rcx, %rdx
	movslq	-40(%rbp), %rcx
	shlq	$4, %rcx
	addq	%rcx, %rdx
	movslq	-36(%rbp), %rcx
	movl	%eax, (%rdx,%rcx,4)
	jmp	.LBB6_53
.LBB6_46:                               # %if.else310
                                        #   in Loop: Header=BB6_39 Depth=3
	movslq	-44(%rbp), %rax
	shlq	$6, %rax
	movabsq	$quant_coef, %rcx
	addq	%rax, %rcx
	movslq	-40(%rbp), %rax
	shlq	$4, %rax
	addq	%rax, %rcx
	movslq	-36(%rbp), %rax
	movl	(%rcx,%rax,4), %eax
	shll	$4, %eax
	movswl	UseDefaultScalingMatrix4x4Flag+2, %ecx
	cmpl	$0, %ecx
	je	.LBB6_48
# %bb.47:                               # %cond.true
                                        #   in Loop: Header=BB6_39 Depth=3
	movslq	-48(%rbp), %rcx
	movswl	Quant_intra_default(,%rcx,2), %ecx
	jmp	.LBB6_49
.LBB6_48:                               # %cond.false
                                        #   in Loop: Header=BB6_39 Depth=3
	movslq	-48(%rbp), %rcx
	movswl	ScalingList4x4+32(,%rcx,2), %ecx
.LBB6_49:                               # %cond.end
                                        #   in Loop: Header=BB6_39 Depth=3
	cltd
	idivl	%ecx
	movslq	-44(%rbp), %rcx
	shlq	$6, %rcx
	movabsq	$LevelScale4x4Chroma_Intra, %rdx
	addq	%rcx, %rdx
	movslq	-40(%rbp), %rcx
	shlq	$4, %rcx
	addq	%rcx, %rdx
	movslq	-36(%rbp), %rcx
	movl	%eax, (%rdx,%rcx,4)
	movslq	-44(%rbp), %rax
	shlq	$6, %rax
	movabsq	$dequant_coef, %rcx
	addq	%rax, %rcx
	movslq	-40(%rbp), %rax
	shlq	$4, %rax
	addq	%rax, %rcx
	movslq	-36(%rbp), %rax
	movl	(%rcx,%rax,4), %eax
	movswl	UseDefaultScalingMatrix4x4Flag+2, %ecx
	cmpl	$0, %ecx
	je	.LBB6_51
# %bb.50:                               # %cond.true341
                                        #   in Loop: Header=BB6_39 Depth=3
	movslq	-48(%rbp), %rcx
	movswl	Quant_intra_default(,%rcx,2), %ecx
	jmp	.LBB6_52
.LBB6_51:                               # %cond.false345
                                        #   in Loop: Header=BB6_39 Depth=3
	movslq	-48(%rbp), %rcx
	movswl	ScalingList4x4+32(,%rcx,2), %ecx
.LBB6_52:                               # %cond.end349
                                        #   in Loop: Header=BB6_39 Depth=3
	imull	%ecx, %eax
	movslq	-44(%rbp), %rcx
	shlq	$6, %rcx
	movabsq	$InvLevelScale4x4Chroma_Intra, %rdx
	addq	%rcx, %rdx
	movslq	-40(%rbp), %rcx
	shlq	$4, %rcx
	addq	%rcx, %rdx
	movslq	-36(%rbp), %rcx
	movl	%eax, (%rdx,%rcx,4)
.LBB6_53:                               # %if.end358
                                        #   in Loop: Header=BB6_39 Depth=3
	cmpl	$0, -72(%rbp)
	jne	.LBB6_55
# %bb.54:                               # %if.then361
                                        #   in Loop: Header=BB6_39 Depth=3
	movabsq	$InvLevelScale4x4Chroma_Intra, %rcx
	movq	%rcx, %rax
	addq	$384, %rax              # imm = 0x180
	movabsq	$LevelScale4x4Chroma_Intra, %rdx
	movq	%rdx, %rsi
	addq	$384, %rsi              # imm = 0x180
	movslq	-44(%rbp), %rdi
	shlq	$6, %rdi
	addq	%rdi, %rdx
	movslq	-40(%rbp), %rdi
	shlq	$4, %rdi
	addq	%rdi, %rdx
	movslq	-36(%rbp), %rdi
	movl	(%rdx,%rdi,4), %edx
	movslq	-44(%rbp), %rdi
	shlq	$6, %rdi
	addq	%rdi, %rsi
	movslq	-40(%rbp), %rdi
	shlq	$4, %rdi
	addq	%rdi, %rsi
	movslq	-36(%rbp), %rdi
	movl	%edx, (%rsi,%rdi,4)
	movslq	-44(%rbp), %rdx
	shlq	$6, %rdx
	addq	%rdx, %rcx
	movslq	-40(%rbp), %rdx
	shlq	$4, %rdx
	addq	%rdx, %rcx
	movslq	-36(%rbp), %rdx
	movl	(%rcx,%rdx,4), %ecx
	movslq	-44(%rbp), %rdx
	shlq	$6, %rdx
	addq	%rdx, %rax
	movslq	-40(%rbp), %rdx
	shlq	$4, %rdx
	addq	%rdx, %rax
	movslq	-36(%rbp), %rdx
	movl	%ecx, (%rax,%rdx,4)
	jmp	.LBB6_62
.LBB6_55:                               # %if.else386
                                        #   in Loop: Header=BB6_39 Depth=3
	movslq	-44(%rbp), %rax
	shlq	$6, %rax
	movabsq	$quant_coef, %rcx
	addq	%rax, %rcx
	movslq	-40(%rbp), %rax
	shlq	$4, %rax
	addq	%rax, %rcx
	movslq	-36(%rbp), %rax
	movl	(%rcx,%rax,4), %eax
	shll	$4, %eax
	movswl	UseDefaultScalingMatrix4x4Flag+4, %ecx
	cmpl	$0, %ecx
	je	.LBB6_57
# %bb.56:                               # %cond.true396
                                        #   in Loop: Header=BB6_39 Depth=3
	movslq	-48(%rbp), %rcx
	movswl	Quant_intra_default(,%rcx,2), %ecx
	jmp	.LBB6_58
.LBB6_57:                               # %cond.false400
                                        #   in Loop: Header=BB6_39 Depth=3
	movslq	-48(%rbp), %rcx
	movswl	ScalingList4x4+64(,%rcx,2), %ecx
.LBB6_58:                               # %cond.end404
                                        #   in Loop: Header=BB6_39 Depth=3
	movabsq	$LevelScale4x4Chroma_Intra, %rsi
	addq	$384, %rsi              # imm = 0x180
	cltd
	idivl	%ecx
	movslq	-44(%rbp), %rcx
	shlq	$6, %rcx
	addq	%rcx, %rsi
	movslq	-40(%rbp), %rcx
	shlq	$4, %rcx
	addq	%rcx, %rsi
	movslq	-36(%rbp), %rcx
	movl	%eax, (%rsi,%rcx,4)
	movslq	-44(%rbp), %rax
	shlq	$6, %rax
	movabsq	$dequant_coef, %rcx
	addq	%rax, %rcx
	movslq	-40(%rbp), %rax
	shlq	$4, %rax
	addq	%rax, %rcx
	movslq	-36(%rbp), %rax
	movl	(%rcx,%rax,4), %eax
	movswl	UseDefaultScalingMatrix4x4Flag+4, %ecx
	cmpl	$0, %ecx
	je	.LBB6_60
# %bb.59:                               # %cond.true421
                                        #   in Loop: Header=BB6_39 Depth=3
	movslq	-48(%rbp), %rcx
	movswl	Quant_intra_default(,%rcx,2), %ecx
	jmp	.LBB6_61
.LBB6_60:                               # %cond.false425
                                        #   in Loop: Header=BB6_39 Depth=3
	movslq	-48(%rbp), %rcx
	movswl	ScalingList4x4+64(,%rcx,2), %ecx
.LBB6_61:                               # %cond.end429
                                        #   in Loop: Header=BB6_39 Depth=3
	movabsq	$InvLevelScale4x4Chroma_Intra, %rdx
	addq	$384, %rdx              # imm = 0x180
	imull	%ecx, %eax
	movslq	-44(%rbp), %rcx
	shlq	$6, %rcx
	addq	%rcx, %rdx
	movslq	-40(%rbp), %rcx
	shlq	$4, %rcx
	addq	%rcx, %rdx
	movslq	-36(%rbp), %rcx
	movl	%eax, (%rdx,%rcx,4)
.LBB6_62:                               # %if.end438
                                        #   in Loop: Header=BB6_39 Depth=3
	cmpl	$0, -68(%rbp)
	je	.LBB6_64
# %bb.63:                               # %lor.lhs.false441
                                        #   in Loop: Header=BB6_39 Depth=3
	movswl	UseDefaultScalingMatrix4x4Flag+6, %eax
	cmpl	$0, %eax
	je	.LBB6_65
.LBB6_64:                               # %if.then444
                                        #   in Loop: Header=BB6_39 Depth=3
	movslq	-44(%rbp), %rax
	shlq	$6, %rax
	movabsq	$quant_coef, %rcx
	addq	%rax, %rcx
	movslq	-40(%rbp), %rax
	shlq	$4, %rax
	addq	%rax, %rcx
	movslq	-36(%rbp), %rax
	movl	(%rcx,%rax,4), %eax
	shll	$4, %eax
	movslq	-48(%rbp), %rcx
	movswl	Quant_inter_default(,%rcx,2), %ecx
	cltd
	idivl	%ecx
	movslq	-44(%rbp), %rcx
	shlq	$6, %rcx
	movabsq	$LevelScale4x4Luma_Inter, %rdx
	addq	%rcx, %rdx
	movslq	-40(%rbp), %rcx
	shlq	$4, %rcx
	addq	%rcx, %rdx
	movslq	-36(%rbp), %rcx
	movl	%eax, (%rdx,%rcx,4)
	movslq	-44(%rbp), %rax
	shlq	$6, %rax
	movabsq	$dequant_coef, %rcx
	addq	%rax, %rcx
	movslq	-40(%rbp), %rax
	shlq	$4, %rax
	addq	%rax, %rcx
	movslq	-36(%rbp), %rax
	movl	(%rcx,%rax,4), %eax
	movslq	-48(%rbp), %rcx
	movswl	Quant_inter_default(,%rcx,2), %ecx
	imull	%ecx, %eax
	movslq	-44(%rbp), %rcx
	shlq	$6, %rcx
	movabsq	$InvLevelScale4x4Luma_Inter, %rdx
	addq	%rcx, %rdx
	movslq	-40(%rbp), %rcx
	shlq	$4, %rcx
	addq	%rcx, %rdx
	movslq	-36(%rbp), %rcx
	movl	%eax, (%rdx,%rcx,4)
	jmp	.LBB6_66
.LBB6_65:                               # %if.else478
                                        #   in Loop: Header=BB6_39 Depth=3
	movslq	-44(%rbp), %rax
	shlq	$6, %rax
	movabsq	$quant_coef, %rcx
	addq	%rax, %rcx
	movslq	-40(%rbp), %rax
	shlq	$4, %rax
	addq	%rax, %rcx
	movslq	-36(%rbp), %rax
	movl	(%rcx,%rax,4), %eax
	shll	$4, %eax
	movslq	-48(%rbp), %rcx
	movswl	ScalingList4x4+96(,%rcx,2), %ecx
	cltd
	idivl	%ecx
	movslq	-44(%rbp), %rcx
	shlq	$6, %rcx
	movabsq	$LevelScale4x4Luma_Inter, %rdx
	addq	%rcx, %rdx
	movslq	-40(%rbp), %rcx
	shlq	$4, %rcx
	addq	%rcx, %rdx
	movslq	-36(%rbp), %rcx
	movl	%eax, (%rdx,%rcx,4)
	movslq	-44(%rbp), %rax
	shlq	$6, %rax
	movabsq	$dequant_coef, %rcx
	addq	%rax, %rcx
	movslq	-40(%rbp), %rax
	shlq	$4, %rax
	addq	%rax, %rcx
	movslq	-36(%rbp), %rax
	movl	(%rcx,%rax,4), %eax
	movslq	-48(%rbp), %rcx
	movswl	ScalingList4x4+96(,%rcx,2), %ecx
	imull	%ecx, %eax
	movslq	-44(%rbp), %rcx
	shlq	$6, %rcx
	movabsq	$InvLevelScale4x4Luma_Inter, %rdx
	addq	%rcx, %rdx
	movslq	-40(%rbp), %rcx
	shlq	$4, %rcx
	addq	%rcx, %rdx
	movslq	-36(%rbp), %rcx
	movl	%eax, (%rdx,%rcx,4)
.LBB6_66:                               # %if.end512
                                        #   in Loop: Header=BB6_39 Depth=3
	cmpl	$0, -64(%rbp)
	jne	.LBB6_68
# %bb.67:                               # %if.then515
                                        #   in Loop: Header=BB6_39 Depth=3
	movslq	-44(%rbp), %rax
	shlq	$6, %rax
	movabsq	$LevelScale4x4Luma_Inter, %rcx
	addq	%rax, %rcx
	movslq	-40(%rbp), %rax
	shlq	$4, %rax
	addq	%rax, %rcx
	movslq	-36(%rbp), %rax
	movl	(%rcx,%rax,4), %eax
	movslq	-44(%rbp), %rcx
	shlq	$6, %rcx
	movabsq	$LevelScale4x4Chroma_Inter, %rdx
	addq	%rcx, %rdx
	movslq	-40(%rbp), %rcx
	shlq	$4, %rcx
	addq	%rcx, %rdx
	movslq	-36(%rbp), %rcx
	movl	%eax, (%rdx,%rcx,4)
	movslq	-44(%rbp), %rax
	shlq	$6, %rax
	movabsq	$InvLevelScale4x4Luma_Inter, %rcx
	addq	%rax, %rcx
	movslq	-40(%rbp), %rax
	shlq	$4, %rax
	addq	%rax, %rcx
	movslq	-36(%rbp), %rax
	movl	(%rcx,%rax,4), %eax
	movslq	-44(%rbp), %rcx
	shlq	$6, %rcx
	movabsq	$InvLevelScale4x4Chroma_Inter, %rdx
	addq	%rcx, %rdx
	movslq	-40(%rbp), %rcx
	shlq	$4, %rcx
	addq	%rcx, %rdx
	movslq	-36(%rbp), %rcx
	movl	%eax, (%rdx,%rcx,4)
	jmp	.LBB6_75
.LBB6_68:                               # %if.else540
                                        #   in Loop: Header=BB6_39 Depth=3
	movslq	-44(%rbp), %rax
	shlq	$6, %rax
	movabsq	$quant_coef, %rcx
	addq	%rax, %rcx
	movslq	-40(%rbp), %rax
	shlq	$4, %rax
	addq	%rax, %rcx
	movslq	-36(%rbp), %rax
	movl	(%rcx,%rax,4), %eax
	shll	$4, %eax
	movswl	UseDefaultScalingMatrix4x4Flag+8, %ecx
	cmpl	$0, %ecx
	je	.LBB6_70
# %bb.69:                               # %cond.true550
                                        #   in Loop: Header=BB6_39 Depth=3
	movslq	-48(%rbp), %rcx
	movswl	Quant_inter_default(,%rcx,2), %ecx
	jmp	.LBB6_71
.LBB6_70:                               # %cond.false554
                                        #   in Loop: Header=BB6_39 Depth=3
	movslq	-48(%rbp), %rcx
	movswl	ScalingList4x4+128(,%rcx,2), %ecx
.LBB6_71:                               # %cond.end558
                                        #   in Loop: Header=BB6_39 Depth=3
	cltd
	idivl	%ecx
	movslq	-44(%rbp), %rcx
	shlq	$6, %rcx
	movabsq	$LevelScale4x4Chroma_Inter, %rdx
	addq	%rcx, %rdx
	movslq	-40(%rbp), %rcx
	shlq	$4, %rcx
	addq	%rcx, %rdx
	movslq	-36(%rbp), %rcx
	movl	%eax, (%rdx,%rcx,4)
	movslq	-44(%rbp), %rax
	shlq	$6, %rax
	movabsq	$dequant_coef, %rcx
	addq	%rax, %rcx
	movslq	-40(%rbp), %rax
	shlq	$4, %rax
	addq	%rax, %rcx
	movslq	-36(%rbp), %rax
	movl	(%rcx,%rax,4), %eax
	movswl	UseDefaultScalingMatrix4x4Flag+8, %ecx
	cmpl	$0, %ecx
	je	.LBB6_73
# %bb.72:                               # %cond.true575
                                        #   in Loop: Header=BB6_39 Depth=3
	movslq	-48(%rbp), %rcx
	movswl	Quant_inter_default(,%rcx,2), %ecx
	jmp	.LBB6_74
.LBB6_73:                               # %cond.false579
                                        #   in Loop: Header=BB6_39 Depth=3
	movslq	-48(%rbp), %rcx
	movswl	ScalingList4x4+128(,%rcx,2), %ecx
.LBB6_74:                               # %cond.end583
                                        #   in Loop: Header=BB6_39 Depth=3
	imull	%ecx, %eax
	movslq	-44(%rbp), %rcx
	shlq	$6, %rcx
	movabsq	$InvLevelScale4x4Chroma_Inter, %rdx
	addq	%rcx, %rdx
	movslq	-40(%rbp), %rcx
	shlq	$4, %rcx
	addq	%rcx, %rdx
	movslq	-36(%rbp), %rcx
	movl	%eax, (%rdx,%rcx,4)
.LBB6_75:                               # %if.end592
                                        #   in Loop: Header=BB6_39 Depth=3
	cmpl	$0, -60(%rbp)
	jne	.LBB6_77
# %bb.76:                               # %if.then595
                                        #   in Loop: Header=BB6_39 Depth=3
	movabsq	$InvLevelScale4x4Chroma_Inter, %rcx
	movq	%rcx, %rax
	addq	$384, %rax              # imm = 0x180
	movabsq	$LevelScale4x4Chroma_Inter, %rdx
	movq	%rdx, %rsi
	addq	$384, %rsi              # imm = 0x180
	movslq	-44(%rbp), %rdi
	shlq	$6, %rdi
	addq	%rdi, %rdx
	movslq	-40(%rbp), %rdi
	shlq	$4, %rdi
	addq	%rdi, %rdx
	movslq	-36(%rbp), %rdi
	movl	(%rdx,%rdi,4), %edx
	movslq	-44(%rbp), %rdi
	shlq	$6, %rdi
	addq	%rdi, %rsi
	movslq	-40(%rbp), %rdi
	shlq	$4, %rdi
	addq	%rdi, %rsi
	movslq	-36(%rbp), %rdi
	movl	%edx, (%rsi,%rdi,4)
	movslq	-44(%rbp), %rdx
	shlq	$6, %rdx
	addq	%rdx, %rcx
	movslq	-40(%rbp), %rdx
	shlq	$4, %rdx
	addq	%rdx, %rcx
	movslq	-36(%rbp), %rdx
	movl	(%rcx,%rdx,4), %ecx
	movslq	-44(%rbp), %rdx
	shlq	$6, %rdx
	addq	%rdx, %rax
	movslq	-40(%rbp), %rdx
	shlq	$4, %rdx
	addq	%rdx, %rax
	movslq	-36(%rbp), %rdx
	movl	%ecx, (%rax,%rdx,4)
	jmp	.LBB6_84
.LBB6_77:                               # %if.else620
                                        #   in Loop: Header=BB6_39 Depth=3
	movslq	-44(%rbp), %rax
	shlq	$6, %rax
	movabsq	$quant_coef, %rcx
	addq	%rax, %rcx
	movslq	-40(%rbp), %rax
	shlq	$4, %rax
	addq	%rax, %rcx
	movslq	-36(%rbp), %rax
	movl	(%rcx,%rax,4), %eax
	shll	$4, %eax
	movswl	UseDefaultScalingMatrix4x4Flag+10, %ecx
	cmpl	$0, %ecx
	je	.LBB6_79
# %bb.78:                               # %cond.true630
                                        #   in Loop: Header=BB6_39 Depth=3
	movslq	-48(%rbp), %rcx
	movswl	Quant_inter_default(,%rcx,2), %ecx
	jmp	.LBB6_80
.LBB6_79:                               # %cond.false634
                                        #   in Loop: Header=BB6_39 Depth=3
	movslq	-48(%rbp), %rcx
	movswl	ScalingList4x4+160(,%rcx,2), %ecx
.LBB6_80:                               # %cond.end638
                                        #   in Loop: Header=BB6_39 Depth=3
	movabsq	$LevelScale4x4Chroma_Inter, %rsi
	addq	$384, %rsi              # imm = 0x180
	cltd
	idivl	%ecx
	movslq	-44(%rbp), %rcx
	shlq	$6, %rcx
	addq	%rcx, %rsi
	movslq	-40(%rbp), %rcx
	shlq	$4, %rcx
	addq	%rcx, %rsi
	movslq	-36(%rbp), %rcx
	movl	%eax, (%rsi,%rcx,4)
	movslq	-44(%rbp), %rax
	shlq	$6, %rax
	movabsq	$dequant_coef, %rcx
	addq	%rax, %rcx
	movslq	-40(%rbp), %rax
	shlq	$4, %rax
	addq	%rax, %rcx
	movslq	-36(%rbp), %rax
	movl	(%rcx,%rax,4), %eax
	movswl	UseDefaultScalingMatrix4x4Flag+10, %ecx
	cmpl	$0, %ecx
	je	.LBB6_82
# %bb.81:                               # %cond.true655
                                        #   in Loop: Header=BB6_39 Depth=3
	movslq	-48(%rbp), %rcx
	movswl	Quant_inter_default(,%rcx,2), %ecx
	jmp	.LBB6_83
.LBB6_82:                               # %cond.false659
                                        #   in Loop: Header=BB6_39 Depth=3
	movslq	-48(%rbp), %rcx
	movswl	ScalingList4x4+160(,%rcx,2), %ecx
.LBB6_83:                               # %cond.end663
                                        #   in Loop: Header=BB6_39 Depth=3
	movabsq	$InvLevelScale4x4Chroma_Inter, %rdx
	addq	$384, %rdx              # imm = 0x180
	imull	%ecx, %eax
	movslq	-44(%rbp), %rcx
	shlq	$6, %rcx
	addq	%rcx, %rdx
	movslq	-40(%rbp), %rcx
	shlq	$4, %rcx
	addq	%rcx, %rdx
	movslq	-36(%rbp), %rcx
	movl	%eax, (%rdx,%rcx,4)
.LBB6_84:                               # %if.end672
                                        #   in Loop: Header=BB6_39 Depth=3
	jmp	.LBB6_85
.LBB6_85:                               # %for.inc673
                                        #   in Loop: Header=BB6_39 Depth=3
	movl	-36(%rbp), %eax
	addl	$1, %eax
	movl	%eax, -36(%rbp)
	jmp	.LBB6_39
.LBB6_86:                               # %for.end675
                                        #   in Loop: Header=BB6_37 Depth=2
	jmp	.LBB6_87
.LBB6_87:                               # %for.inc676
                                        #   in Loop: Header=BB6_37 Depth=2
	movl	-40(%rbp), %eax
	addl	$1, %eax
	movl	%eax, -40(%rbp)
	jmp	.LBB6_37
.LBB6_88:                               # %for.end678
                                        #   in Loop: Header=BB6_35 Depth=1
	jmp	.LBB6_89
.LBB6_89:                               # %for.inc679
                                        #   in Loop: Header=BB6_35 Depth=1
	movl	-44(%rbp), %eax
	addl	$1, %eax
	movl	%eax, -44(%rbp)
	jmp	.LBB6_35
.LBB6_90:                               # %for.end681
	jmp	.LBB6_91
.LBB6_91:                               # %if.end682
	cmpl	$1425004367, -56(%rbp)  # imm = 0x54EFD74F
	jne	.LBB6_93
.LBB6_92:
	addq	$48, %rsp
	popq	%rbx
	popq	%r12
	popq	%r14
	popq	%r15
	popq	%rbp
	.cfi_def_cfa %rsp, 8
	retq
.LBB6_93:                               # %func_exit
	.cfi_def_cfa %rbp, 16
	callq	detect_breach
	jmp	.LBB6_92
.Lfunc_end6:
	.size	CalculateQuantParam.1, .Lfunc_end6-CalculateQuantParam.1
	.cfi_endproc
                                        # -- End function
	.globl	PatchMatrix.2           # -- Begin function PatchMatrix.2
	.p2align	4, 0x90
	.type	PatchMatrix.2,@function
PatchMatrix.2:                          # @PatchMatrix.2
	.cfi_startproc
# %bb.0:                                # %entry
	pushq	%rbp
	.cfi_def_cfa_offset 16
	.cfi_offset %rbp, -16
	movq	%rsp, %rbp
	.cfi_def_cfa_register %rbp
	subq	$32, %rsp
	movl	$553546590, -24(%rbp)   # imm = 0x20FE735E
	movl	$0, -4(%rbp)
.LBB7_1:                                # %for.cond
                                        # =>This Loop Header: Depth=1
                                        #     Child Loop BB7_5 Depth 2
                                        #     Child Loop BB7_27 Depth 2
	cmpl	$6, -4(%rbp)
	jge	.LBB7_47
# %bb.2:                                # %for.body
                                        #   in Loop: Header=BB7_1 Depth=1
	movq	input, %rax
	movslq	-4(%rbp), %rcx
	cmpl	$0, 3260(%rax,%rcx,4)
	je	.LBB7_23
# %bb.3:                                # %if.then
                                        #   in Loop: Header=BB7_1 Depth=1
	movslq	-4(%rbp), %rax
	shlq	$5, %rax
	movabsq	$ScalingList4x4input, %rcx
	addq	%rax, %rcx
	movq	%rcx, -16(%rbp)
	movslq	-4(%rbp), %rax
	cmpl	$0, matrix4x4_check(,%rax,4)
	je	.LBB7_18
# %bb.4:                                # %if.then6
                                        #   in Loop: Header=BB7_1 Depth=1
	movl	$0, -20(%rbp)
	movl	$0, -8(%rbp)
.LBB7_5:                                # %for.cond7
                                        #   Parent Loop BB7_1 Depth=1
                                        # =>  This Inner Loop Header: Depth=2
	cmpl	$16, -8(%rbp)
	jge	.LBB7_11
# %bb.6:                                # %for.body9
                                        #   in Loop: Header=BB7_5 Depth=2
	movq	-16(%rbp), %rax
	movslq	-8(%rbp), %rcx
	movswl	(%rax,%rcx,2), %eax
	cmpl	$0, %eax
	jl	.LBB7_8
# %bb.7:                                # %lor.lhs.false
                                        #   in Loop: Header=BB7_5 Depth=2
	movq	-16(%rbp), %rax
	movslq	-8(%rbp), %rcx
	movswl	(%rax,%rcx,2), %eax
	cmpl	$255, %eax
	jle	.LBB7_9
.LBB7_8:                                # %if.then19
                                        #   in Loop: Header=BB7_1 Depth=1
	movl	$1, -20(%rbp)
	jmp	.LBB7_12
.LBB7_9:                                # %if.end
                                        #   in Loop: Header=BB7_5 Depth=2
	jmp	.LBB7_10
.LBB7_10:                               # %for.inc
                                        #   in Loop: Header=BB7_5 Depth=2
	movl	-8(%rbp), %eax
	addl	$1, %eax
	movl	%eax, -8(%rbp)
	jmp	.LBB7_5
.LBB7_11:                               # %for.end.loopexit
                                        #   in Loop: Header=BB7_1 Depth=1
	jmp	.LBB7_12
.LBB7_12:                               # %for.end
                                        #   in Loop: Header=BB7_1 Depth=1
	cmpl	$0, -20(%rbp)
	je	.LBB7_17
# %bb.13:                               # %if.then21
                                        #   in Loop: Header=BB7_1 Depth=1
	movslq	-4(%rbp), %rax
	imulq	$20, %rax, %rax
	movabsq	$MatrixType4x4, %rsi
	addq	%rax, %rsi
	movabsq	$.L.str.6, %rdi
	movb	$0, %al
	callq	printf
	movabsq	$.L.str.7, %rdi
	movb	$0, %al
	callq	printf
	cmpl	$2, -4(%rbp)
	jle	.LBB7_15
# %bb.14:                               # %if.then28
                                        #   in Loop: Header=BB7_1 Depth=1
	movq	-16(%rbp), %rax
	movq	Quant_inter_default, %rcx
	movq	%rcx, (%rax)
	movq	Quant_inter_default+8, %rcx
	movq	%rcx, 8(%rax)
	movq	Quant_inter_default+16, %rcx
	movq	%rcx, 16(%rax)
	movq	Quant_inter_default+24, %rcx
	movq	%rcx, 24(%rax)
	jmp	.LBB7_16
.LBB7_15:                               # %if.else
                                        #   in Loop: Header=BB7_1 Depth=1
	movq	-16(%rbp), %rax
	movq	Quant_intra_default, %rcx
	movq	%rcx, (%rax)
	movq	Quant_intra_default+8, %rcx
	movq	%rcx, 8(%rax)
	movq	Quant_intra_default+16, %rcx
	movq	%rcx, 16(%rax)
	movq	Quant_intra_default+24, %rcx
	movq	%rcx, 24(%rax)
.LBB7_16:                               # %if.end29
                                        #   in Loop: Header=BB7_1 Depth=1
	jmp	.LBB7_17
.LBB7_17:                               # %if.end30
                                        #   in Loop: Header=BB7_1 Depth=1
	jmp	.LBB7_22
.LBB7_18:                               # %if.else31
                                        #   in Loop: Header=BB7_1 Depth=1
	movslq	-4(%rbp), %rax
	imulq	$20, %rax, %rax
	movabsq	$MatrixType4x4, %rsi
	addq	%rax, %rsi
	movabsq	$.L.str.8, %rdi
	movb	$0, %al
	callq	printf
	cmpl	$2, -4(%rbp)
	jle	.LBB7_20
# %bb.19:                               # %if.then38
                                        #   in Loop: Header=BB7_1 Depth=1
	movq	-16(%rbp), %rax
	movq	Quant_inter_default, %rcx
	movq	%rcx, (%rax)
	movq	Quant_inter_default+8, %rcx
	movq	%rcx, 8(%rax)
	movq	Quant_inter_default+16, %rcx
	movq	%rcx, 16(%rax)
	movq	Quant_inter_default+24, %rcx
	movq	%rcx, 24(%rax)
	jmp	.LBB7_21
.LBB7_20:                               # %if.else39
                                        #   in Loop: Header=BB7_1 Depth=1
	movq	-16(%rbp), %rax
	movq	Quant_intra_default, %rcx
	movq	%rcx, (%rax)
	movq	Quant_intra_default+8, %rcx
	movq	%rcx, 8(%rax)
	movq	Quant_intra_default+16, %rcx
	movq	%rcx, 16(%rax)
	movq	Quant_intra_default+24, %rcx
	movq	%rcx, 24(%rax)
.LBB7_21:                               # %if.end40
                                        #   in Loop: Header=BB7_1 Depth=1
	jmp	.LBB7_22
.LBB7_22:                               # %if.end41
                                        #   in Loop: Header=BB7_1 Depth=1
	jmp	.LBB7_23
.LBB7_23:                               # %if.end42
                                        #   in Loop: Header=BB7_1 Depth=1
	cmpl	$2, -4(%rbp)
	jge	.LBB7_45
# %bb.24:                               # %land.lhs.true
                                        #   in Loop: Header=BB7_1 Depth=1
	movq	input, %rax
	movl	-4(%rbp), %ecx
	addl	$6, %ecx
	movslq	%ecx, %rcx
	cmpl	$0, 3260(%rax,%rcx,4)
	je	.LBB7_45
# %bb.25:                               # %if.then49
                                        #   in Loop: Header=BB7_1 Depth=1
	movslq	-4(%rbp), %rax
	shlq	$7, %rax
	movabsq	$ScalingList8x8input, %rcx
	addq	%rax, %rcx
	movq	%rcx, -16(%rbp)
	movslq	-4(%rbp), %rax
	cmpl	$0, matrix8x8_check(,%rax,4)
	je	.LBB7_40
# %bb.26:                               # %if.then56
                                        #   in Loop: Header=BB7_1 Depth=1
	movl	$0, -20(%rbp)
	movl	$0, -8(%rbp)
.LBB7_27:                               # %for.cond57
                                        #   Parent Loop BB7_1 Depth=1
                                        # =>  This Inner Loop Header: Depth=2
	cmpl	$64, -8(%rbp)
	jge	.LBB7_33
# %bb.28:                               # %for.body60
                                        #   in Loop: Header=BB7_27 Depth=2
	movq	-16(%rbp), %rax
	movslq	-8(%rbp), %rcx
	movswl	(%rax,%rcx,2), %eax
	cmpl	$0, %eax
	jl	.LBB7_30
# %bb.29:                               # %lor.lhs.false66
                                        #   in Loop: Header=BB7_27 Depth=2
	movq	-16(%rbp), %rax
	movslq	-8(%rbp), %rcx
	movswl	(%rax,%rcx,2), %eax
	cmpl	$255, %eax
	jle	.LBB7_31
.LBB7_30:                               # %if.then72
                                        #   in Loop: Header=BB7_1 Depth=1
	movl	$1, -20(%rbp)
	jmp	.LBB7_34
.LBB7_31:                               # %if.end73
                                        #   in Loop: Header=BB7_27 Depth=2
	jmp	.LBB7_32
.LBB7_32:                               # %for.inc74
                                        #   in Loop: Header=BB7_27 Depth=2
	movl	-8(%rbp), %eax
	addl	$1, %eax
	movl	%eax, -8(%rbp)
	jmp	.LBB7_27
.LBB7_33:                               # %for.end76.loopexit
                                        #   in Loop: Header=BB7_1 Depth=1
	jmp	.LBB7_34
.LBB7_34:                               # %for.end76
                                        #   in Loop: Header=BB7_1 Depth=1
	cmpl	$0, -20(%rbp)
	je	.LBB7_39
# %bb.35:                               # %if.then78
                                        #   in Loop: Header=BB7_1 Depth=1
	movslq	-4(%rbp), %rax
	imulq	$20, %rax, %rax
	movabsq	$MatrixType8x8, %rsi
	addq	%rax, %rsi
	movabsq	$.L.str.6, %rdi
	movb	$0, %al
	callq	printf
	movabsq	$.L.str.7, %rdi
	movb	$0, %al
	callq	printf
	cmpl	$7, -4(%rbp)
	jne	.LBB7_37
# %bb.36:                               # %if.then86
                                        #   in Loop: Header=BB7_1 Depth=1
	movabsq	$Quant8_inter_default, %rsi
	movq	-16(%rbp), %rdi
	movl	$128, %edx
	callq	memcpy
	jmp	.LBB7_38
.LBB7_37:                               # %if.else87
                                        #   in Loop: Header=BB7_1 Depth=1
	movabsq	$Quant8_intra_default, %rsi
	movq	-16(%rbp), %rdi
	movl	$128, %edx
	callq	memcpy
.LBB7_38:                               # %if.end88
                                        #   in Loop: Header=BB7_1 Depth=1
	jmp	.LBB7_39
.LBB7_39:                               # %if.end89
                                        #   in Loop: Header=BB7_1 Depth=1
	jmp	.LBB7_44
.LBB7_40:                               # %if.else90
                                        #   in Loop: Header=BB7_1 Depth=1
	movslq	-4(%rbp), %rax
	imulq	$20, %rax, %rax
	movabsq	$MatrixType8x8, %rsi
	addq	%rax, %rsi
	movabsq	$.L.str.8, %rdi
	movb	$0, %al
	callq	printf
	cmpl	$7, -4(%rbp)
	jne	.LBB7_42
# %bb.41:                               # %if.then97
                                        #   in Loop: Header=BB7_1 Depth=1
	movabsq	$Quant8_inter_default, %rsi
	movq	-16(%rbp), %rdi
	movl	$128, %edx
	callq	memcpy
	jmp	.LBB7_43
.LBB7_42:                               # %if.else98
                                        #   in Loop: Header=BB7_1 Depth=1
	movabsq	$Quant8_intra_default, %rsi
	movq	-16(%rbp), %rdi
	movl	$128, %edx
	callq	memcpy
.LBB7_43:                               # %if.end99
                                        #   in Loop: Header=BB7_1 Depth=1
	jmp	.LBB7_44
.LBB7_44:                               # %if.end100
                                        #   in Loop: Header=BB7_1 Depth=1
	jmp	.LBB7_45
.LBB7_45:                               # %if.end101
                                        #   in Loop: Header=BB7_1 Depth=1
	jmp	.LBB7_46
.LBB7_46:                               # %for.inc102
                                        #   in Loop: Header=BB7_1 Depth=1
	movl	-4(%rbp), %eax
	addl	$1, %eax
	movl	%eax, -4(%rbp)
	jmp	.LBB7_1
.LBB7_47:                               # %for.end104
	cmpl	$553546590, -24(%rbp)   # imm = 0x20FE735E
	jne	.LBB7_49
.LBB7_48:
	addq	$32, %rsp
	popq	%rbp
	.cfi_def_cfa %rsp, 8
	retq
.LBB7_49:                               # %func_exit
	.cfi_def_cfa %rbp, 16
	callq	detect_breach
	jmp	.LBB7_48
.Lfunc_end7:
	.size	PatchMatrix.2, .Lfunc_end7-PatchMatrix.2
	.cfi_endproc
                                        # -- End function
	.globl	CalculateQuantParam.3   # -- Begin function CalculateQuantParam.3
	.p2align	4, 0x90
	.type	CalculateQuantParam.3,@function
CalculateQuantParam.3:                  # @CalculateQuantParam.3
	.cfi_startproc
# %bb.0:                                # %entry
	pushq	%rbp
	.cfi_def_cfa_offset 16
	.cfi_offset %rbp, -16
	movq	%rsp, %rbp
	.cfi_def_cfa_register %rbp
	pushq	%r15
	pushq	%r14
	pushq	%r12
	pushq	%rbx
	subq	$48, %rsp
	.cfi_offset %rbx, -48
	.cfi_offset %r12, -40
	.cfi_offset %r14, -32
	.cfi_offset %r15, -24
	movl	$1675469728, -56(%rbp)  # imm = 0x63DDA3A0
	movl	$0, -52(%rbp)
	movq	active_sps, %rax
	cmpl	$0, 36(%rax)
	jne	.LBB8_3
# %bb.1:                                # %land.lhs.true
	movq	active_pps, %rax
	cmpl	$0, 20(%rax)
	jne	.LBB8_3
# %bb.2:                                # %if.then
	movl	$1, -52(%rbp)
	jmp	.LBB8_20
.LBB8_3:                                # %if.else
	leaq	-80(%rbp), %rdi
	xorl	%esi, %esi
	movl	$24, %edx
	callq	memset
	movq	active_sps, %rax
	cmpl	$0, 36(%rax)
	je	.LBB8_9
# %bb.4:                                # %if.then4
	movl	$0, -36(%rbp)
.LBB8_5:                                # %for.cond
                                        # =>This Inner Loop Header: Depth=1
	cmpl	$6, -36(%rbp)
	jge	.LBB8_8
# %bb.6:                                # %for.body
                                        #   in Loop: Header=BB8_5 Depth=1
	movq	active_sps, %rax
	movslq	-36(%rbp), %rcx
	movl	40(%rax,%rcx,4), %eax
	movslq	-36(%rbp), %rcx
	movl	%eax, -80(%rbp,%rcx,4)
# %bb.7:                                # %for.inc
                                        #   in Loop: Header=BB8_5 Depth=1
	movl	-36(%rbp), %eax
	addl	$1, %eax
	movl	%eax, -36(%rbp)
	jmp	.LBB8_5
.LBB8_8:                                # %for.end
	jmp	.LBB8_9
.LBB8_9:                                # %if.end
	movq	active_pps, %rax
	cmpl	$0, 20(%rax)
	je	.LBB8_19
# %bb.10:                               # %if.then9
	movl	$0, -36(%rbp)
.LBB8_11:                               # %for.cond10
                                        # =>This Inner Loop Header: Depth=1
	cmpl	$6, -36(%rbp)
	jge	.LBB8_18
# %bb.12:                               # %for.body12
                                        #   in Loop: Header=BB8_11 Depth=1
	cmpl	$0, -36(%rbp)
	je	.LBB8_14
# %bb.13:                               # %lor.lhs.false
                                        #   in Loop: Header=BB8_11 Depth=1
	cmpl	$3, -36(%rbp)
	jne	.LBB8_15
.LBB8_14:                               # %if.then15
                                        #   in Loop: Header=BB8_11 Depth=1
	movq	active_pps, %rax
	movslq	-36(%rbp), %rcx
	movl	24(%rax,%rcx,4), %eax
	movslq	-36(%rbp), %rcx
	orl	-80(%rbp,%rcx,4), %eax
	movl	%eax, -80(%rbp,%rcx,4)
	jmp	.LBB8_16
.LBB8_15:                               # %if.else20
                                        #   in Loop: Header=BB8_11 Depth=1
	movq	active_pps, %rax
	movslq	-36(%rbp), %rcx
	movl	24(%rax,%rcx,4), %eax
	movslq	-36(%rbp), %rcx
	movl	%eax, -80(%rbp,%rcx,4)
.LBB8_16:                               # %if.end26
                                        #   in Loop: Header=BB8_11 Depth=1
	jmp	.LBB8_17
.LBB8_17:                               # %for.inc27
                                        #   in Loop: Header=BB8_11 Depth=1
	movl	-36(%rbp), %eax
	addl	$1, %eax
	movl	%eax, -36(%rbp)
	jmp	.LBB8_11
.LBB8_18:                               # %for.end29
	jmp	.LBB8_19
.LBB8_19:                               # %if.end30
	jmp	.LBB8_20
.LBB8_20:                               # %if.end31
	cmpl	$1, -52(%rbp)
	jne	.LBB8_34
# %bb.21:                               # %if.then33
	movl	$0, -44(%rbp)
.LBB8_22:                               # %for.cond34
                                        # =>This Loop Header: Depth=1
                                        #     Child Loop BB8_24 Depth 2
                                        #       Child Loop BB8_26 Depth 3
	cmpl	$6, -44(%rbp)
	jge	.LBB8_33
# %bb.23:                               # %for.body36
                                        #   in Loop: Header=BB8_22 Depth=1
	movl	$0, -40(%rbp)
.LBB8_24:                               # %for.cond37
                                        #   Parent Loop BB8_22 Depth=1
                                        # =>  This Loop Header: Depth=2
                                        #       Child Loop BB8_26 Depth 3
	cmpl	$4, -40(%rbp)
	jge	.LBB8_31
# %bb.25:                               # %for.body39
                                        #   in Loop: Header=BB8_24 Depth=2
	movl	$0, -36(%rbp)
.LBB8_26:                               # %for.cond40
                                        #   Parent Loop BB8_22 Depth=1
                                        #     Parent Loop BB8_24 Depth=2
                                        # =>    This Inner Loop Header: Depth=3
	cmpl	$4, -36(%rbp)
	jge	.LBB8_29
# %bb.27:                               # %for.body42
                                        #   in Loop: Header=BB8_26 Depth=3
	movabsq	$InvLevelScale4x4Chroma_Inter, %r9
	movq	%r9, %r8
	addq	$384, %r8               # imm = 0x180
	movabsq	$LevelScale4x4Chroma_Inter, %r11
	movq	%r11, %r10
	addq	$384, %r10              # imm = 0x180
	movabsq	$InvLevelScale4x4Chroma_Intra, %rdx
	movq	%rdx, %r15
	addq	$384, %r15              # imm = 0x180
	movabsq	$LevelScale4x4Chroma_Intra, %rbx
	movq	%rbx, %rax
	addq	$384, %rax              # imm = 0x180
	movslq	-44(%rbp), %rdi
	shlq	$6, %rdi
	movabsq	$quant_coef, %r14
	movq	%r14, %rsi
	addq	%rdi, %rsi
	movslq	-40(%rbp), %rdi
	shlq	$4, %rdi
	addq	%rdi, %rsi
	movslq	-36(%rbp), %rdi
	movl	(%rsi,%rdi,4), %esi
	movslq	-44(%rbp), %rdi
	shlq	$6, %rdi
	movabsq	$LevelScale4x4Luma_Intra, %rcx
	addq	%rdi, %rcx
	movslq	-40(%rbp), %rdi
	shlq	$4, %rdi
	addq	%rdi, %rcx
	movslq	-36(%rbp), %rdi
	movl	%esi, (%rcx,%rdi,4)
	movslq	-44(%rbp), %rcx
	shlq	$6, %rcx
	movabsq	$dequant_coef, %r12
	movq	%r12, %rsi
	addq	%rcx, %rsi
	movslq	-40(%rbp), %rcx
	shlq	$4, %rcx
	addq	%rcx, %rsi
	movslq	-36(%rbp), %rcx
	movl	(%rsi,%rcx,4), %ecx
	shll	$4, %ecx
	movslq	-44(%rbp), %rsi
	shlq	$6, %rsi
	movabsq	$InvLevelScale4x4Luma_Intra, %rdi
	addq	%rsi, %rdi
	movslq	-40(%rbp), %rsi
	shlq	$4, %rsi
	addq	%rsi, %rdi
	movslq	-36(%rbp), %rsi
	movl	%ecx, (%rdi,%rsi,4)
	movslq	-44(%rbp), %rcx
	shlq	$6, %rcx
	movq	%r14, %rsi
	addq	%rcx, %rsi
	movslq	-40(%rbp), %rcx
	shlq	$4, %rcx
	addq	%rcx, %rsi
	movslq	-36(%rbp), %rcx
	movl	(%rsi,%rcx,4), %ecx
	movslq	-44(%rbp), %rsi
	shlq	$6, %rsi
	addq	%rsi, %rbx
	movslq	-40(%rbp), %rsi
	shlq	$4, %rsi
	addq	%rsi, %rbx
	movslq	-36(%rbp), %rsi
	movl	%ecx, (%rbx,%rsi,4)
	movslq	-44(%rbp), %rcx
	shlq	$6, %rcx
	movq	%r12, %rsi
	addq	%rcx, %rsi
	movslq	-40(%rbp), %rcx
	shlq	$4, %rcx
	addq	%rcx, %rsi
	movslq	-36(%rbp), %rcx
	movl	(%rsi,%rcx,4), %ecx
	shll	$4, %ecx
	movslq	-44(%rbp), %rsi
	shlq	$6, %rsi
	addq	%rsi, %rdx
	movslq	-40(%rbp), %rsi
	shlq	$4, %rsi
	addq	%rsi, %rdx
	movslq	-36(%rbp), %rsi
	movl	%ecx, (%rdx,%rsi,4)
	movslq	-44(%rbp), %rcx
	shlq	$6, %rcx
	movq	%r14, %rdx
	addq	%rcx, %rdx
	movslq	-40(%rbp), %rcx
	shlq	$4, %rcx
	addq	%rcx, %rdx
	movslq	-36(%rbp), %rcx
	movl	(%rdx,%rcx,4), %ecx
	movslq	-44(%rbp), %rdx
	shlq	$6, %rdx
	addq	%rdx, %rax
	movslq	-40(%rbp), %rdx
	shlq	$4, %rdx
	addq	%rdx, %rax
	movslq	-36(%rbp), %rdx
	movl	%ecx, (%rax,%rdx,4)
	movslq	-44(%rbp), %rax
	shlq	$6, %rax
	movq	%r12, %rcx
	addq	%rax, %rcx
	movslq	-40(%rbp), %rax
	shlq	$4, %rax
	addq	%rax, %rcx
	movslq	-36(%rbp), %rax
	movl	(%rcx,%rax,4), %eax
	shll	$4, %eax
	movslq	-44(%rbp), %rcx
	shlq	$6, %rcx
	addq	%rcx, %r15
	movslq	-40(%rbp), %rcx
	shlq	$4, %rcx
	addq	%rcx, %r15
	movslq	-36(%rbp), %rcx
	movl	%eax, (%r15,%rcx,4)
	movslq	-44(%rbp), %rax
	shlq	$6, %rax
	movq	%r14, %rcx
	addq	%rax, %rcx
	movslq	-40(%rbp), %rax
	shlq	$4, %rax
	addq	%rax, %rcx
	movslq	-36(%rbp), %rax
	movl	(%rcx,%rax,4), %eax
	movslq	-44(%rbp), %rcx
	shlq	$6, %rcx
	movabsq	$LevelScale4x4Luma_Inter, %rdx
	addq	%rcx, %rdx
	movslq	-40(%rbp), %rcx
	shlq	$4, %rcx
	addq	%rcx, %rdx
	movslq	-36(%rbp), %rcx
	movl	%eax, (%rdx,%rcx,4)
	movslq	-44(%rbp), %rax
	shlq	$6, %rax
	movq	%r12, %rcx
	addq	%rax, %rcx
	movslq	-40(%rbp), %rax
	shlq	$4, %rax
	addq	%rax, %rcx
	movslq	-36(%rbp), %rax
	movl	(%rcx,%rax,4), %eax
	shll	$4, %eax
	movslq	-44(%rbp), %rcx
	shlq	$6, %rcx
	movabsq	$InvLevelScale4x4Luma_Inter, %rdx
	addq	%rcx, %rdx
	movslq	-40(%rbp), %rcx
	shlq	$4, %rcx
	addq	%rcx, %rdx
	movslq	-36(%rbp), %rcx
	movl	%eax, (%rdx,%rcx,4)
	movslq	-44(%rbp), %rax
	shlq	$6, %rax
	movq	%r14, %rcx
	addq	%rax, %rcx
	movslq	-40(%rbp), %rax
	shlq	$4, %rax
	addq	%rax, %rcx
	movslq	-36(%rbp), %rax
	movl	(%rcx,%rax,4), %eax
	movslq	-44(%rbp), %rcx
	shlq	$6, %rcx
	addq	%rcx, %r11
	movslq	-40(%rbp), %rcx
	shlq	$4, %rcx
	addq	%rcx, %r11
	movslq	-36(%rbp), %rcx
	movl	%eax, (%r11,%rcx,4)
	movslq	-44(%rbp), %rax
	shlq	$6, %rax
	movq	%r12, %rcx
	addq	%rax, %rcx
	movslq	-40(%rbp), %rax
	shlq	$4, %rax
	addq	%rax, %rcx
	movslq	-36(%rbp), %rax
	movl	(%rcx,%rax,4), %eax
	shll	$4, %eax
	movslq	-44(%rbp), %rcx
	shlq	$6, %rcx
	addq	%rcx, %r9
	movslq	-40(%rbp), %rcx
	shlq	$4, %rcx
	addq	%rcx, %r9
	movslq	-36(%rbp), %rcx
	movl	%eax, (%r9,%rcx,4)
	movslq	-44(%rbp), %rax
	shlq	$6, %rax
	addq	%rax, %r14
	movslq	-40(%rbp), %rax
	shlq	$4, %rax
	addq	%rax, %r14
	movslq	-36(%rbp), %rax
	movl	(%r14,%rax,4), %eax
	movslq	-44(%rbp), %rcx
	shlq	$6, %rcx
	addq	%rcx, %r10
	movslq	-40(%rbp), %rcx
	shlq	$4, %rcx
	addq	%rcx, %r10
	movslq	-36(%rbp), %rcx
	movl	%eax, (%r10,%rcx,4)
	movslq	-44(%rbp), %rax
	shlq	$6, %rax
	addq	%rax, %r12
	movslq	-40(%rbp), %rax
	shlq	$4, %rax
	addq	%rax, %r12
	movslq	-36(%rbp), %rax
	movl	(%r12,%rax,4), %eax
	shll	$4, %eax
	movslq	-44(%rbp), %rcx
	shlq	$6, %rcx
	addq	%rcx, %r8
	movslq	-40(%rbp), %rcx
	shlq	$4, %rcx
	addq	%rcx, %r8
	movslq	-36(%rbp), %rcx
	movl	%eax, (%r8,%rcx,4)
# %bb.28:                               # %for.inc192
                                        #   in Loop: Header=BB8_26 Depth=3
	movl	-36(%rbp), %eax
	addl	$1, %eax
	movl	%eax, -36(%rbp)
	jmp	.LBB8_26
.LBB8_29:                               # %for.end194
                                        #   in Loop: Header=BB8_24 Depth=2
	jmp	.LBB8_30
.LBB8_30:                               # %for.inc195
                                        #   in Loop: Header=BB8_24 Depth=2
	movl	-40(%rbp), %eax
	addl	$1, %eax
	movl	%eax, -40(%rbp)
	jmp	.LBB8_24
.LBB8_31:                               # %for.end197
                                        #   in Loop: Header=BB8_22 Depth=1
	jmp	.LBB8_32
.LBB8_32:                               # %for.inc198
                                        #   in Loop: Header=BB8_22 Depth=1
	movl	-44(%rbp), %eax
	addl	$1, %eax
	movl	%eax, -44(%rbp)
	jmp	.LBB8_22
.LBB8_33:                               # %for.end200
	jmp	.LBB8_91
.LBB8_34:                               # %if.else201
	movl	$0, -44(%rbp)
.LBB8_35:                               # %for.cond202
                                        # =>This Loop Header: Depth=1
                                        #     Child Loop BB8_37 Depth 2
                                        #       Child Loop BB8_39 Depth 3
	cmpl	$6, -44(%rbp)
	jge	.LBB8_90
# %bb.36:                               # %for.body204
                                        #   in Loop: Header=BB8_35 Depth=1
	movl	$0, -40(%rbp)
.LBB8_37:                               # %for.cond205
                                        #   Parent Loop BB8_35 Depth=1
                                        # =>  This Loop Header: Depth=2
                                        #       Child Loop BB8_39 Depth 3
	cmpl	$4, -40(%rbp)
	jge	.LBB8_88
# %bb.38:                               # %for.body207
                                        #   in Loop: Header=BB8_37 Depth=2
	movl	$0, -36(%rbp)
.LBB8_39:                               # %for.cond208
                                        #   Parent Loop BB8_35 Depth=1
                                        #     Parent Loop BB8_37 Depth=2
                                        # =>    This Inner Loop Header: Depth=3
	cmpl	$4, -36(%rbp)
	jge	.LBB8_86
# %bb.40:                               # %for.body210
                                        #   in Loop: Header=BB8_39 Depth=3
	movl	-36(%rbp), %eax
	shll	$2, %eax
	addl	-40(%rbp), %eax
	movl	%eax, -48(%rbp)
	cmpl	$0, -80(%rbp)
	je	.LBB8_42
# %bb.41:                               # %lor.lhs.false214
                                        #   in Loop: Header=BB8_39 Depth=3
	movswl	UseDefaultScalingMatrix4x4Flag, %eax
	cmpl	$0, %eax
	je	.LBB8_43
.LBB8_42:                               # %if.then216
                                        #   in Loop: Header=BB8_39 Depth=3
	movslq	-44(%rbp), %rax
	shlq	$6, %rax
	movabsq	$quant_coef, %rcx
	addq	%rax, %rcx
	movslq	-40(%rbp), %rax
	shlq	$4, %rax
	addq	%rax, %rcx
	movslq	-36(%rbp), %rax
	movl	(%rcx,%rax,4), %eax
	shll	$4, %eax
	movslq	-48(%rbp), %rcx
	movswl	Quant_intra_default(,%rcx,2), %ecx
	cltd
	idivl	%ecx
	movslq	-44(%rbp), %rcx
	shlq	$6, %rcx
	movabsq	$LevelScale4x4Luma_Intra, %rdx
	addq	%rcx, %rdx
	movslq	-40(%rbp), %rcx
	shlq	$4, %rcx
	addq	%rcx, %rdx
	movslq	-36(%rbp), %rcx
	movl	%eax, (%rdx,%rcx,4)
	movslq	-44(%rbp), %rax
	shlq	$6, %rax
	movabsq	$dequant_coef, %rcx
	addq	%rax, %rcx
	movslq	-40(%rbp), %rax
	shlq	$4, %rax
	addq	%rax, %rcx
	movslq	-36(%rbp), %rax
	movl	(%rcx,%rax,4), %eax
	movslq	-48(%rbp), %rcx
	movswl	Quant_intra_default(,%rcx,2), %ecx
	imull	%ecx, %eax
	movslq	-44(%rbp), %rcx
	shlq	$6, %rcx
	movabsq	$InvLevelScale4x4Luma_Intra, %rdx
	addq	%rcx, %rdx
	movslq	-40(%rbp), %rcx
	shlq	$4, %rcx
	addq	%rcx, %rdx
	movslq	-36(%rbp), %rcx
	movl	%eax, (%rdx,%rcx,4)
	jmp	.LBB8_44
.LBB8_43:                               # %if.else248
                                        #   in Loop: Header=BB8_39 Depth=3
	movslq	-44(%rbp), %rax
	shlq	$6, %rax
	movabsq	$quant_coef, %rcx
	addq	%rax, %rcx
	movslq	-40(%rbp), %rax
	shlq	$4, %rax
	addq	%rax, %rcx
	movslq	-36(%rbp), %rax
	movl	(%rcx,%rax,4), %eax
	shll	$4, %eax
	movslq	-48(%rbp), %rcx
	movswl	ScalingList4x4(,%rcx,2), %ecx
	cltd
	idivl	%ecx
	movslq	-44(%rbp), %rcx
	shlq	$6, %rcx
	movabsq	$LevelScale4x4Luma_Intra, %rdx
	addq	%rcx, %rdx
	movslq	-40(%rbp), %rcx
	shlq	$4, %rcx
	addq	%rcx, %rdx
	movslq	-36(%rbp), %rcx
	movl	%eax, (%rdx,%rcx,4)
	movslq	-44(%rbp), %rax
	shlq	$6, %rax
	movabsq	$dequant_coef, %rcx
	addq	%rax, %rcx
	movslq	-40(%rbp), %rax
	shlq	$4, %rax
	addq	%rax, %rcx
	movslq	-36(%rbp), %rax
	movl	(%rcx,%rax,4), %eax
	movslq	-48(%rbp), %rcx
	movswl	ScalingList4x4(,%rcx,2), %ecx
	imull	%ecx, %eax
	movslq	-44(%rbp), %rcx
	shlq	$6, %rcx
	movabsq	$InvLevelScale4x4Luma_Intra, %rdx
	addq	%rcx, %rdx
	movslq	-40(%rbp), %rcx
	shlq	$4, %rcx
	addq	%rcx, %rdx
	movslq	-36(%rbp), %rcx
	movl	%eax, (%rdx,%rcx,4)
.LBB8_44:                               # %if.end282
                                        #   in Loop: Header=BB8_39 Depth=3
	cmpl	$0, -76(%rbp)
	jne	.LBB8_46
# %bb.45:                               # %if.then285
                                        #   in Loop: Header=BB8_39 Depth=3
	movslq	-44(%rbp), %rax
	shlq	$6, %rax
	movabsq	$LevelScale4x4Luma_Intra, %rcx
	addq	%rax, %rcx
	movslq	-40(%rbp), %rax
	shlq	$4, %rax
	addq	%rax, %rcx
	movslq	-36(%rbp), %rax
	movl	(%rcx,%rax,4), %eax
	movslq	-44(%rbp), %rcx
	shlq	$6, %rcx
	movabsq	$LevelScale4x4Chroma_Intra, %rdx
	addq	%rcx, %rdx
	movslq	-40(%rbp), %rcx
	shlq	$4, %rcx
	addq	%rcx, %rdx
	movslq	-36(%rbp), %rcx
	movl	%eax, (%rdx,%rcx,4)
	movslq	-44(%rbp), %rax
	shlq	$6, %rax
	movabsq	$InvLevelScale4x4Luma_Intra, %rcx
	addq	%rax, %rcx
	movslq	-40(%rbp), %rax
	shlq	$4, %rax
	addq	%rax, %rcx
	movslq	-36(%rbp), %rax
	movl	(%rcx,%rax,4), %eax
	movslq	-44(%rbp), %rcx
	shlq	$6, %rcx
	movabsq	$InvLevelScale4x4Chroma_Intra, %rdx
	addq	%rcx, %rdx
	movslq	-40(%rbp), %rcx
	shlq	$4, %rcx
	addq	%rcx, %rdx
	movslq	-36(%rbp), %rcx
	movl	%eax, (%rdx,%rcx,4)
	jmp	.LBB8_53
.LBB8_46:                               # %if.else310
                                        #   in Loop: Header=BB8_39 Depth=3
	movslq	-44(%rbp), %rax
	shlq	$6, %rax
	movabsq	$quant_coef, %rcx
	addq	%rax, %rcx
	movslq	-40(%rbp), %rax
	shlq	$4, %rax
	addq	%rax, %rcx
	movslq	-36(%rbp), %rax
	movl	(%rcx,%rax,4), %eax
	shll	$4, %eax
	movswl	UseDefaultScalingMatrix4x4Flag+2, %ecx
	cmpl	$0, %ecx
	je	.LBB8_48
# %bb.47:                               # %cond.true
                                        #   in Loop: Header=BB8_39 Depth=3
	movslq	-48(%rbp), %rcx
	movswl	Quant_intra_default(,%rcx,2), %ecx
	jmp	.LBB8_49
.LBB8_48:                               # %cond.false
                                        #   in Loop: Header=BB8_39 Depth=3
	movslq	-48(%rbp), %rcx
	movswl	ScalingList4x4+32(,%rcx,2), %ecx
.LBB8_49:                               # %cond.end
                                        #   in Loop: Header=BB8_39 Depth=3
	cltd
	idivl	%ecx
	movslq	-44(%rbp), %rcx
	shlq	$6, %rcx
	movabsq	$LevelScale4x4Chroma_Intra, %rdx
	addq	%rcx, %rdx
	movslq	-40(%rbp), %rcx
	shlq	$4, %rcx
	addq	%rcx, %rdx
	movslq	-36(%rbp), %rcx
	movl	%eax, (%rdx,%rcx,4)
	movslq	-44(%rbp), %rax
	shlq	$6, %rax
	movabsq	$dequant_coef, %rcx
	addq	%rax, %rcx
	movslq	-40(%rbp), %rax
	shlq	$4, %rax
	addq	%rax, %rcx
	movslq	-36(%rbp), %rax
	movl	(%rcx,%rax,4), %eax
	movswl	UseDefaultScalingMatrix4x4Flag+2, %ecx
	cmpl	$0, %ecx
	je	.LBB8_51
# %bb.50:                               # %cond.true341
                                        #   in Loop: Header=BB8_39 Depth=3
	movslq	-48(%rbp), %rcx
	movswl	Quant_intra_default(,%rcx,2), %ecx
	jmp	.LBB8_52
.LBB8_51:                               # %cond.false345
                                        #   in Loop: Header=BB8_39 Depth=3
	movslq	-48(%rbp), %rcx
	movswl	ScalingList4x4+32(,%rcx,2), %ecx
.LBB8_52:                               # %cond.end349
                                        #   in Loop: Header=BB8_39 Depth=3
	imull	%ecx, %eax
	movslq	-44(%rbp), %rcx
	shlq	$6, %rcx
	movabsq	$InvLevelScale4x4Chroma_Intra, %rdx
	addq	%rcx, %rdx
	movslq	-40(%rbp), %rcx
	shlq	$4, %rcx
	addq	%rcx, %rdx
	movslq	-36(%rbp), %rcx
	movl	%eax, (%rdx,%rcx,4)
.LBB8_53:                               # %if.end358
                                        #   in Loop: Header=BB8_39 Depth=3
	cmpl	$0, -72(%rbp)
	jne	.LBB8_55
# %bb.54:                               # %if.then361
                                        #   in Loop: Header=BB8_39 Depth=3
	movabsq	$InvLevelScale4x4Chroma_Intra, %rcx
	movq	%rcx, %rax
	addq	$384, %rax              # imm = 0x180
	movabsq	$LevelScale4x4Chroma_Intra, %rdx
	movq	%rdx, %rsi
	addq	$384, %rsi              # imm = 0x180
	movslq	-44(%rbp), %rdi
	shlq	$6, %rdi
	addq	%rdi, %rdx
	movslq	-40(%rbp), %rdi
	shlq	$4, %rdi
	addq	%rdi, %rdx
	movslq	-36(%rbp), %rdi
	movl	(%rdx,%rdi,4), %edx
	movslq	-44(%rbp), %rdi
	shlq	$6, %rdi
	addq	%rdi, %rsi
	movslq	-40(%rbp), %rdi
	shlq	$4, %rdi
	addq	%rdi, %rsi
	movslq	-36(%rbp), %rdi
	movl	%edx, (%rsi,%rdi,4)
	movslq	-44(%rbp), %rdx
	shlq	$6, %rdx
	addq	%rdx, %rcx
	movslq	-40(%rbp), %rdx
	shlq	$4, %rdx
	addq	%rdx, %rcx
	movslq	-36(%rbp), %rdx
	movl	(%rcx,%rdx,4), %ecx
	movslq	-44(%rbp), %rdx
	shlq	$6, %rdx
	addq	%rdx, %rax
	movslq	-40(%rbp), %rdx
	shlq	$4, %rdx
	addq	%rdx, %rax
	movslq	-36(%rbp), %rdx
	movl	%ecx, (%rax,%rdx,4)
	jmp	.LBB8_62
.LBB8_55:                               # %if.else386
                                        #   in Loop: Header=BB8_39 Depth=3
	movslq	-44(%rbp), %rax
	shlq	$6, %rax
	movabsq	$quant_coef, %rcx
	addq	%rax, %rcx
	movslq	-40(%rbp), %rax
	shlq	$4, %rax
	addq	%rax, %rcx
	movslq	-36(%rbp), %rax
	movl	(%rcx,%rax,4), %eax
	shll	$4, %eax
	movswl	UseDefaultScalingMatrix4x4Flag+4, %ecx
	cmpl	$0, %ecx
	je	.LBB8_57
# %bb.56:                               # %cond.true396
                                        #   in Loop: Header=BB8_39 Depth=3
	movslq	-48(%rbp), %rcx
	movswl	Quant_intra_default(,%rcx,2), %ecx
	jmp	.LBB8_58
.LBB8_57:                               # %cond.false400
                                        #   in Loop: Header=BB8_39 Depth=3
	movslq	-48(%rbp), %rcx
	movswl	ScalingList4x4+64(,%rcx,2), %ecx
.LBB8_58:                               # %cond.end404
                                        #   in Loop: Header=BB8_39 Depth=3
	movabsq	$LevelScale4x4Chroma_Intra, %rsi
	addq	$384, %rsi              # imm = 0x180
	cltd
	idivl	%ecx
	movslq	-44(%rbp), %rcx
	shlq	$6, %rcx
	addq	%rcx, %rsi
	movslq	-40(%rbp), %rcx
	shlq	$4, %rcx
	addq	%rcx, %rsi
	movslq	-36(%rbp), %rcx
	movl	%eax, (%rsi,%rcx,4)
	movslq	-44(%rbp), %rax
	shlq	$6, %rax
	movabsq	$dequant_coef, %rcx
	addq	%rax, %rcx
	movslq	-40(%rbp), %rax
	shlq	$4, %rax
	addq	%rax, %rcx
	movslq	-36(%rbp), %rax
	movl	(%rcx,%rax,4), %eax
	movswl	UseDefaultScalingMatrix4x4Flag+4, %ecx
	cmpl	$0, %ecx
	je	.LBB8_60
# %bb.59:                               # %cond.true421
                                        #   in Loop: Header=BB8_39 Depth=3
	movslq	-48(%rbp), %rcx
	movswl	Quant_intra_default(,%rcx,2), %ecx
	jmp	.LBB8_61
.LBB8_60:                               # %cond.false425
                                        #   in Loop: Header=BB8_39 Depth=3
	movslq	-48(%rbp), %rcx
	movswl	ScalingList4x4+64(,%rcx,2), %ecx
.LBB8_61:                               # %cond.end429
                                        #   in Loop: Header=BB8_39 Depth=3
	movabsq	$InvLevelScale4x4Chroma_Intra, %rdx
	addq	$384, %rdx              # imm = 0x180
	imull	%ecx, %eax
	movslq	-44(%rbp), %rcx
	shlq	$6, %rcx
	addq	%rcx, %rdx
	movslq	-40(%rbp), %rcx
	shlq	$4, %rcx
	addq	%rcx, %rdx
	movslq	-36(%rbp), %rcx
	movl	%eax, (%rdx,%rcx,4)
.LBB8_62:                               # %if.end438
                                        #   in Loop: Header=BB8_39 Depth=3
	cmpl	$0, -68(%rbp)
	je	.LBB8_64
# %bb.63:                               # %lor.lhs.false441
                                        #   in Loop: Header=BB8_39 Depth=3
	movswl	UseDefaultScalingMatrix4x4Flag+6, %eax
	cmpl	$0, %eax
	je	.LBB8_65
.LBB8_64:                               # %if.then444
                                        #   in Loop: Header=BB8_39 Depth=3
	movslq	-44(%rbp), %rax
	shlq	$6, %rax
	movabsq	$quant_coef, %rcx
	addq	%rax, %rcx
	movslq	-40(%rbp), %rax
	shlq	$4, %rax
	addq	%rax, %rcx
	movslq	-36(%rbp), %rax
	movl	(%rcx,%rax,4), %eax
	shll	$4, %eax
	movslq	-48(%rbp), %rcx
	movswl	Quant_inter_default(,%rcx,2), %ecx
	cltd
	idivl	%ecx
	movslq	-44(%rbp), %rcx
	shlq	$6, %rcx
	movabsq	$LevelScale4x4Luma_Inter, %rdx
	addq	%rcx, %rdx
	movslq	-40(%rbp), %rcx
	shlq	$4, %rcx
	addq	%rcx, %rdx
	movslq	-36(%rbp), %rcx
	movl	%eax, (%rdx,%rcx,4)
	movslq	-44(%rbp), %rax
	shlq	$6, %rax
	movabsq	$dequant_coef, %rcx
	addq	%rax, %rcx
	movslq	-40(%rbp), %rax
	shlq	$4, %rax
	addq	%rax, %rcx
	movslq	-36(%rbp), %rax
	movl	(%rcx,%rax,4), %eax
	movslq	-48(%rbp), %rcx
	movswl	Quant_inter_default(,%rcx,2), %ecx
	imull	%ecx, %eax
	movslq	-44(%rbp), %rcx
	shlq	$6, %rcx
	movabsq	$InvLevelScale4x4Luma_Inter, %rdx
	addq	%rcx, %rdx
	movslq	-40(%rbp), %rcx
	shlq	$4, %rcx
	addq	%rcx, %rdx
	movslq	-36(%rbp), %rcx
	movl	%eax, (%rdx,%rcx,4)
	jmp	.LBB8_66
.LBB8_65:                               # %if.else478
                                        #   in Loop: Header=BB8_39 Depth=3
	movslq	-44(%rbp), %rax
	shlq	$6, %rax
	movabsq	$quant_coef, %rcx
	addq	%rax, %rcx
	movslq	-40(%rbp), %rax
	shlq	$4, %rax
	addq	%rax, %rcx
	movslq	-36(%rbp), %rax
	movl	(%rcx,%rax,4), %eax
	shll	$4, %eax
	movslq	-48(%rbp), %rcx
	movswl	ScalingList4x4+96(,%rcx,2), %ecx
	cltd
	idivl	%ecx
	movslq	-44(%rbp), %rcx
	shlq	$6, %rcx
	movabsq	$LevelScale4x4Luma_Inter, %rdx
	addq	%rcx, %rdx
	movslq	-40(%rbp), %rcx
	shlq	$4, %rcx
	addq	%rcx, %rdx
	movslq	-36(%rbp), %rcx
	movl	%eax, (%rdx,%rcx,4)
	movslq	-44(%rbp), %rax
	shlq	$6, %rax
	movabsq	$dequant_coef, %rcx
	addq	%rax, %rcx
	movslq	-40(%rbp), %rax
	shlq	$4, %rax
	addq	%rax, %rcx
	movslq	-36(%rbp), %rax
	movl	(%rcx,%rax,4), %eax
	movslq	-48(%rbp), %rcx
	movswl	ScalingList4x4+96(,%rcx,2), %ecx
	imull	%ecx, %eax
	movslq	-44(%rbp), %rcx
	shlq	$6, %rcx
	movabsq	$InvLevelScale4x4Luma_Inter, %rdx
	addq	%rcx, %rdx
	movslq	-40(%rbp), %rcx
	shlq	$4, %rcx
	addq	%rcx, %rdx
	movslq	-36(%rbp), %rcx
	movl	%eax, (%rdx,%rcx,4)
.LBB8_66:                               # %if.end512
                                        #   in Loop: Header=BB8_39 Depth=3
	cmpl	$0, -64(%rbp)
	jne	.LBB8_68
# %bb.67:                               # %if.then515
                                        #   in Loop: Header=BB8_39 Depth=3
	movslq	-44(%rbp), %rax
	shlq	$6, %rax
	movabsq	$LevelScale4x4Luma_Inter, %rcx
	addq	%rax, %rcx
	movslq	-40(%rbp), %rax
	shlq	$4, %rax
	addq	%rax, %rcx
	movslq	-36(%rbp), %rax
	movl	(%rcx,%rax,4), %eax
	movslq	-44(%rbp), %rcx
	shlq	$6, %rcx
	movabsq	$LevelScale4x4Chroma_Inter, %rdx
	addq	%rcx, %rdx
	movslq	-40(%rbp), %rcx
	shlq	$4, %rcx
	addq	%rcx, %rdx
	movslq	-36(%rbp), %rcx
	movl	%eax, (%rdx,%rcx,4)
	movslq	-44(%rbp), %rax
	shlq	$6, %rax
	movabsq	$InvLevelScale4x4Luma_Inter, %rcx
	addq	%rax, %rcx
	movslq	-40(%rbp), %rax
	shlq	$4, %rax
	addq	%rax, %rcx
	movslq	-36(%rbp), %rax
	movl	(%rcx,%rax,4), %eax
	movslq	-44(%rbp), %rcx
	shlq	$6, %rcx
	movabsq	$InvLevelScale4x4Chroma_Inter, %rdx
	addq	%rcx, %rdx
	movslq	-40(%rbp), %rcx
	shlq	$4, %rcx
	addq	%rcx, %rdx
	movslq	-36(%rbp), %rcx
	movl	%eax, (%rdx,%rcx,4)
	jmp	.LBB8_75
.LBB8_68:                               # %if.else540
                                        #   in Loop: Header=BB8_39 Depth=3
	movslq	-44(%rbp), %rax
	shlq	$6, %rax
	movabsq	$quant_coef, %rcx
	addq	%rax, %rcx
	movslq	-40(%rbp), %rax
	shlq	$4, %rax
	addq	%rax, %rcx
	movslq	-36(%rbp), %rax
	movl	(%rcx,%rax,4), %eax
	shll	$4, %eax
	movswl	UseDefaultScalingMatrix4x4Flag+8, %ecx
	cmpl	$0, %ecx
	je	.LBB8_70
# %bb.69:                               # %cond.true550
                                        #   in Loop: Header=BB8_39 Depth=3
	movslq	-48(%rbp), %rcx
	movswl	Quant_inter_default(,%rcx,2), %ecx
	jmp	.LBB8_71
.LBB8_70:                               # %cond.false554
                                        #   in Loop: Header=BB8_39 Depth=3
	movslq	-48(%rbp), %rcx
	movswl	ScalingList4x4+128(,%rcx,2), %ecx
.LBB8_71:                               # %cond.end558
                                        #   in Loop: Header=BB8_39 Depth=3
	cltd
	idivl	%ecx
	movslq	-44(%rbp), %rcx
	shlq	$6, %rcx
	movabsq	$LevelScale4x4Chroma_Inter, %rdx
	addq	%rcx, %rdx
	movslq	-40(%rbp), %rcx
	shlq	$4, %rcx
	addq	%rcx, %rdx
	movslq	-36(%rbp), %rcx
	movl	%eax, (%rdx,%rcx,4)
	movslq	-44(%rbp), %rax
	shlq	$6, %rax
	movabsq	$dequant_coef, %rcx
	addq	%rax, %rcx
	movslq	-40(%rbp), %rax
	shlq	$4, %rax
	addq	%rax, %rcx
	movslq	-36(%rbp), %rax
	movl	(%rcx,%rax,4), %eax
	movswl	UseDefaultScalingMatrix4x4Flag+8, %ecx
	cmpl	$0, %ecx
	je	.LBB8_73
# %bb.72:                               # %cond.true575
                                        #   in Loop: Header=BB8_39 Depth=3
	movslq	-48(%rbp), %rcx
	movswl	Quant_inter_default(,%rcx,2), %ecx
	jmp	.LBB8_74
.LBB8_73:                               # %cond.false579
                                        #   in Loop: Header=BB8_39 Depth=3
	movslq	-48(%rbp), %rcx
	movswl	ScalingList4x4+128(,%rcx,2), %ecx
.LBB8_74:                               # %cond.end583
                                        #   in Loop: Header=BB8_39 Depth=3
	imull	%ecx, %eax
	movslq	-44(%rbp), %rcx
	shlq	$6, %rcx
	movabsq	$InvLevelScale4x4Chroma_Inter, %rdx
	addq	%rcx, %rdx
	movslq	-40(%rbp), %rcx
	shlq	$4, %rcx
	addq	%rcx, %rdx
	movslq	-36(%rbp), %rcx
	movl	%eax, (%rdx,%rcx,4)
.LBB8_75:                               # %if.end592
                                        #   in Loop: Header=BB8_39 Depth=3
	cmpl	$0, -60(%rbp)
	jne	.LBB8_77
# %bb.76:                               # %if.then595
                                        #   in Loop: Header=BB8_39 Depth=3
	movabsq	$InvLevelScale4x4Chroma_Inter, %rcx
	movq	%rcx, %rax
	addq	$384, %rax              # imm = 0x180
	movabsq	$LevelScale4x4Chroma_Inter, %rdx
	movq	%rdx, %rsi
	addq	$384, %rsi              # imm = 0x180
	movslq	-44(%rbp), %rdi
	shlq	$6, %rdi
	addq	%rdi, %rdx
	movslq	-40(%rbp), %rdi
	shlq	$4, %rdi
	addq	%rdi, %rdx
	movslq	-36(%rbp), %rdi
	movl	(%rdx,%rdi,4), %edx
	movslq	-44(%rbp), %rdi
	shlq	$6, %rdi
	addq	%rdi, %rsi
	movslq	-40(%rbp), %rdi
	shlq	$4, %rdi
	addq	%rdi, %rsi
	movslq	-36(%rbp), %rdi
	movl	%edx, (%rsi,%rdi,4)
	movslq	-44(%rbp), %rdx
	shlq	$6, %rdx
	addq	%rdx, %rcx
	movslq	-40(%rbp), %rdx
	shlq	$4, %rdx
	addq	%rdx, %rcx
	movslq	-36(%rbp), %rdx
	movl	(%rcx,%rdx,4), %ecx
	movslq	-44(%rbp), %rdx
	shlq	$6, %rdx
	addq	%rdx, %rax
	movslq	-40(%rbp), %rdx
	shlq	$4, %rdx
	addq	%rdx, %rax
	movslq	-36(%rbp), %rdx
	movl	%ecx, (%rax,%rdx,4)
	jmp	.LBB8_84
.LBB8_77:                               # %if.else620
                                        #   in Loop: Header=BB8_39 Depth=3
	movslq	-44(%rbp), %rax
	shlq	$6, %rax
	movabsq	$quant_coef, %rcx
	addq	%rax, %rcx
	movslq	-40(%rbp), %rax
	shlq	$4, %rax
	addq	%rax, %rcx
	movslq	-36(%rbp), %rax
	movl	(%rcx,%rax,4), %eax
	shll	$4, %eax
	movswl	UseDefaultScalingMatrix4x4Flag+10, %ecx
	cmpl	$0, %ecx
	je	.LBB8_79
# %bb.78:                               # %cond.true630
                                        #   in Loop: Header=BB8_39 Depth=3
	movslq	-48(%rbp), %rcx
	movswl	Quant_inter_default(,%rcx,2), %ecx
	jmp	.LBB8_80
.LBB8_79:                               # %cond.false634
                                        #   in Loop: Header=BB8_39 Depth=3
	movslq	-48(%rbp), %rcx
	movswl	ScalingList4x4+160(,%rcx,2), %ecx
.LBB8_80:                               # %cond.end638
                                        #   in Loop: Header=BB8_39 Depth=3
	movabsq	$LevelScale4x4Chroma_Inter, %rsi
	addq	$384, %rsi              # imm = 0x180
	cltd
	idivl	%ecx
	movslq	-44(%rbp), %rcx
	shlq	$6, %rcx
	addq	%rcx, %rsi
	movslq	-40(%rbp), %rcx
	shlq	$4, %rcx
	addq	%rcx, %rsi
	movslq	-36(%rbp), %rcx
	movl	%eax, (%rsi,%rcx,4)
	movslq	-44(%rbp), %rax
	shlq	$6, %rax
	movabsq	$dequant_coef, %rcx
	addq	%rax, %rcx
	movslq	-40(%rbp), %rax
	shlq	$4, %rax
	addq	%rax, %rcx
	movslq	-36(%rbp), %rax
	movl	(%rcx,%rax,4), %eax
	movswl	UseDefaultScalingMatrix4x4Flag+10, %ecx
	cmpl	$0, %ecx
	je	.LBB8_82
# %bb.81:                               # %cond.true655
                                        #   in Loop: Header=BB8_39 Depth=3
	movslq	-48(%rbp), %rcx
	movswl	Quant_inter_default(,%rcx,2), %ecx
	jmp	.LBB8_83
.LBB8_82:                               # %cond.false659
                                        #   in Loop: Header=BB8_39 Depth=3
	movslq	-48(%rbp), %rcx
	movswl	ScalingList4x4+160(,%rcx,2), %ecx
.LBB8_83:                               # %cond.end663
                                        #   in Loop: Header=BB8_39 Depth=3
	movabsq	$InvLevelScale4x4Chroma_Inter, %rdx
	addq	$384, %rdx              # imm = 0x180
	imull	%ecx, %eax
	movslq	-44(%rbp), %rcx
	shlq	$6, %rcx
	addq	%rcx, %rdx
	movslq	-40(%rbp), %rcx
	shlq	$4, %rcx
	addq	%rcx, %rdx
	movslq	-36(%rbp), %rcx
	movl	%eax, (%rdx,%rcx,4)
.LBB8_84:                               # %if.end672
                                        #   in Loop: Header=BB8_39 Depth=3
	jmp	.LBB8_85
.LBB8_85:                               # %for.inc673
                                        #   in Loop: Header=BB8_39 Depth=3
	movl	-36(%rbp), %eax
	addl	$1, %eax
	movl	%eax, -36(%rbp)
	jmp	.LBB8_39
.LBB8_86:                               # %for.end675
                                        #   in Loop: Header=BB8_37 Depth=2
	jmp	.LBB8_87
.LBB8_87:                               # %for.inc676
                                        #   in Loop: Header=BB8_37 Depth=2
	movl	-40(%rbp), %eax
	addl	$1, %eax
	movl	%eax, -40(%rbp)
	jmp	.LBB8_37
.LBB8_88:                               # %for.end678
                                        #   in Loop: Header=BB8_35 Depth=1
	jmp	.LBB8_89
.LBB8_89:                               # %for.inc679
                                        #   in Loop: Header=BB8_35 Depth=1
	movl	-44(%rbp), %eax
	addl	$1, %eax
	movl	%eax, -44(%rbp)
	jmp	.LBB8_35
.LBB8_90:                               # %for.end681
	jmp	.LBB8_91
.LBB8_91:                               # %if.end682
	cmpl	$1675469728, -56(%rbp)  # imm = 0x63DDA3A0
	jne	.LBB8_93
.LBB8_92:
	addq	$48, %rsp
	popq	%rbx
	popq	%r12
	popq	%r14
	popq	%r15
	popq	%rbp
	.cfi_def_cfa %rsp, 8
	retq
.LBB8_93:                               # %func_exit
	.cfi_def_cfa %rbp, 16
	callq	detect_breach
	jmp	.LBB8_92
.Lfunc_end8:
	.size	CalculateQuantParam.3, .Lfunc_end8-CalculateQuantParam.3
	.cfi_endproc
                                        # -- End function
	.globl	CheckParameterName.4    # -- Begin function CheckParameterName.4
	.p2align	4, 0x90
	.type	CheckParameterName.4,@function
CheckParameterName.4:                   # @CheckParameterName.4
	.cfi_startproc
# %bb.0:                                # %entry
	pushq	%rbp
	.cfi_def_cfa_offset 16
	.cfi_offset %rbp, -16
	movq	%rsp, %rbp
	.cfi_def_cfa_register %rbp
	pushq	%rbx
	subq	$40, %rsp
	.cfi_offset %rbx, -24
	movl	$877791746, -20(%rbp)   # imm = 0x34520A02
	movq	%rdi, -40(%rbp)
	movq	%rsi, -32(%rbp)
	movl	$0, -12(%rbp)
	movq	-32(%rbp), %rax
	movl	$0, (%rax)
.LBB9_1:                                # %while.cond
                                        # =>This Inner Loop Header: Depth=1
	xorl	%eax, %eax
	movslq	-12(%rbp), %rcx
	imulq	$20, %rcx, %rcx
	movabsq	$MatrixType4x4, %rdx
	addq	%rcx, %rdx
	cmpq	$0, %rdx
	je	.LBB9_3
# %bb.2:                                # %land.rhs
                                        #   in Loop: Header=BB9_1 Depth=1
	cmpl	$6, -12(%rbp)
	setl	%al
.LBB9_3:                                # %land.end
                                        #   in Loop: Header=BB9_1 Depth=1
	testb	$1, %al
	jne	.LBB9_4
	jmp	.LBB9_8
.LBB9_4:                                # %while.body
                                        #   in Loop: Header=BB9_1 Depth=1
	xorl	%ebx, %ebx
	movslq	-12(%rbp), %rax
	imulq	$20, %rax, %rax
	movabsq	$MatrixType4x4, %rdi
	addq	%rax, %rdi
	movq	-40(%rbp), %rsi
	callq	strcmp
	cmpl	%eax, %ebx
	jne	.LBB9_6
# %bb.5:                                # %if.then
	movl	-12(%rbp), %eax
	movl	%eax, -16(%rbp)
	jmp	.LBB9_17
.LBB9_6:                                # %if.else
                                        #   in Loop: Header=BB9_1 Depth=1
	movl	-12(%rbp), %eax
	addl	$1, %eax
	movl	%eax, -12(%rbp)
# %bb.7:                                # %if.end
                                        #   in Loop: Header=BB9_1 Depth=1
	jmp	.LBB9_1
.LBB9_8:                                # %while.end
	movl	$0, -12(%rbp)
	movq	-32(%rbp), %rax
	movl	$1, (%rax)
.LBB9_9:                                # %while.cond6
                                        # =>This Inner Loop Header: Depth=1
	xorl	%eax, %eax
	movslq	-12(%rbp), %rcx
	imulq	$20, %rcx, %rcx
	movabsq	$MatrixType8x8, %rdx
	addq	%rcx, %rdx
	cmpq	$0, %rdx
	je	.LBB9_11
# %bb.10:                               # %land.rhs11
                                        #   in Loop: Header=BB9_9 Depth=1
	cmpl	$2, -12(%rbp)
	setl	%al
.LBB9_11:                               # %land.end13
                                        #   in Loop: Header=BB9_9 Depth=1
	testb	$1, %al
	jne	.LBB9_12
	jmp	.LBB9_16
.LBB9_12:                               # %while.body14
                                        #   in Loop: Header=BB9_9 Depth=1
	xorl	%ebx, %ebx
	movslq	-12(%rbp), %rax
	imulq	$20, %rax, %rax
	movabsq	$MatrixType8x8, %rdi
	addq	%rax, %rdi
	movq	-40(%rbp), %rsi
	callq	strcmp
	cmpl	%eax, %ebx
	jne	.LBB9_14
# %bb.13:                               # %if.then20
	movl	-12(%rbp), %eax
	movl	%eax, -16(%rbp)
	jmp	.LBB9_17
.LBB9_14:                               # %if.else21
                                        #   in Loop: Header=BB9_9 Depth=1
	movl	-12(%rbp), %eax
	addl	$1, %eax
	movl	%eax, -12(%rbp)
# %bb.15:                               # %if.end23
                                        #   in Loop: Header=BB9_9 Depth=1
	jmp	.LBB9_9
.LBB9_16:                               # %while.end24
	movl	$-1, -16(%rbp)
.LBB9_17:                               # %return
	movl	-16(%rbp), %ebx
	cmpl	$877791746, -20(%rbp)   # imm = 0x34520A02
	jne	.LBB9_19
.LBB9_18:
	movl	%ebx, %eax
	addq	$40, %rsp
	popq	%rbx
	popq	%rbp
	.cfi_def_cfa %rsp, 8
	retq
.LBB9_19:                               # %func_exit
	.cfi_def_cfa %rbp, 16
	callq	detect_breach
	jmp	.LBB9_18
.Lfunc_end9:
	.size	CheckParameterName.4, .Lfunc_end9-CheckParameterName.4
	.cfi_endproc
                                        # -- End function
	.globl	PatchMatrix.5           # -- Begin function PatchMatrix.5
	.p2align	4, 0x90
	.type	PatchMatrix.5,@function
PatchMatrix.5:                          # @PatchMatrix.5
	.cfi_startproc
# %bb.0:                                # %entry
	pushq	%rbp
	.cfi_def_cfa_offset 16
	.cfi_offset %rbp, -16
	movq	%rsp, %rbp
	.cfi_def_cfa_register %rbp
	subq	$32, %rsp
	movl	$831471678, -24(%rbp)   # imm = 0x318F403E
	movl	$0, -4(%rbp)
.LBB10_1:                               # %for.cond
                                        # =>This Loop Header: Depth=1
                                        #     Child Loop BB10_5 Depth 2
                                        #     Child Loop BB10_27 Depth 2
	cmpl	$6, -4(%rbp)
	jge	.LBB10_47
# %bb.2:                                # %for.body
                                        #   in Loop: Header=BB10_1 Depth=1
	movq	input, %rax
	movslq	-4(%rbp), %rcx
	cmpl	$0, 3260(%rax,%rcx,4)
	je	.LBB10_23
# %bb.3:                                # %if.then
                                        #   in Loop: Header=BB10_1 Depth=1
	movslq	-4(%rbp), %rax
	shlq	$5, %rax
	movabsq	$ScalingList4x4input, %rcx
	addq	%rax, %rcx
	movq	%rcx, -16(%rbp)
	movslq	-4(%rbp), %rax
	cmpl	$0, matrix4x4_check(,%rax,4)
	je	.LBB10_18
# %bb.4:                                # %if.then6
                                        #   in Loop: Header=BB10_1 Depth=1
	movl	$0, -20(%rbp)
	movl	$0, -8(%rbp)
.LBB10_5:                               # %for.cond7
                                        #   Parent Loop BB10_1 Depth=1
                                        # =>  This Inner Loop Header: Depth=2
	cmpl	$16, -8(%rbp)
	jge	.LBB10_11
# %bb.6:                                # %for.body9
                                        #   in Loop: Header=BB10_5 Depth=2
	movq	-16(%rbp), %rax
	movslq	-8(%rbp), %rcx
	movswl	(%rax,%rcx,2), %eax
	cmpl	$0, %eax
	jl	.LBB10_8
# %bb.7:                                # %lor.lhs.false
                                        #   in Loop: Header=BB10_5 Depth=2
	movq	-16(%rbp), %rax
	movslq	-8(%rbp), %rcx
	movswl	(%rax,%rcx,2), %eax
	cmpl	$255, %eax
	jle	.LBB10_9
.LBB10_8:                               # %if.then19
                                        #   in Loop: Header=BB10_1 Depth=1
	movl	$1, -20(%rbp)
	jmp	.LBB10_12
.LBB10_9:                               # %if.end
                                        #   in Loop: Header=BB10_5 Depth=2
	jmp	.LBB10_10
.LBB10_10:                              # %for.inc
                                        #   in Loop: Header=BB10_5 Depth=2
	movl	-8(%rbp), %eax
	addl	$1, %eax
	movl	%eax, -8(%rbp)
	jmp	.LBB10_5
.LBB10_11:                              # %for.end.loopexit
                                        #   in Loop: Header=BB10_1 Depth=1
	jmp	.LBB10_12
.LBB10_12:                              # %for.end
                                        #   in Loop: Header=BB10_1 Depth=1
	cmpl	$0, -20(%rbp)
	je	.LBB10_17
# %bb.13:                               # %if.then21
                                        #   in Loop: Header=BB10_1 Depth=1
	movslq	-4(%rbp), %rax
	imulq	$20, %rax, %rax
	movabsq	$MatrixType4x4, %rsi
	addq	%rax, %rsi
	movabsq	$.L.str.6, %rdi
	movb	$0, %al
	callq	printf
	movabsq	$.L.str.7, %rdi
	movb	$0, %al
	callq	printf
	cmpl	$2, -4(%rbp)
	jle	.LBB10_15
# %bb.14:                               # %if.then28
                                        #   in Loop: Header=BB10_1 Depth=1
	movq	-16(%rbp), %rax
	movq	Quant_inter_default, %rcx
	movq	%rcx, (%rax)
	movq	Quant_inter_default+8, %rcx
	movq	%rcx, 8(%rax)
	movq	Quant_inter_default+16, %rcx
	movq	%rcx, 16(%rax)
	movq	Quant_inter_default+24, %rcx
	movq	%rcx, 24(%rax)
	jmp	.LBB10_16
.LBB10_15:                              # %if.else
                                        #   in Loop: Header=BB10_1 Depth=1
	movq	-16(%rbp), %rax
	movq	Quant_intra_default, %rcx
	movq	%rcx, (%rax)
	movq	Quant_intra_default+8, %rcx
	movq	%rcx, 8(%rax)
	movq	Quant_intra_default+16, %rcx
	movq	%rcx, 16(%rax)
	movq	Quant_intra_default+24, %rcx
	movq	%rcx, 24(%rax)
.LBB10_16:                              # %if.end29
                                        #   in Loop: Header=BB10_1 Depth=1
	jmp	.LBB10_17
.LBB10_17:                              # %if.end30
                                        #   in Loop: Header=BB10_1 Depth=1
	jmp	.LBB10_22
.LBB10_18:                              # %if.else31
                                        #   in Loop: Header=BB10_1 Depth=1
	movslq	-4(%rbp), %rax
	imulq	$20, %rax, %rax
	movabsq	$MatrixType4x4, %rsi
	addq	%rax, %rsi
	movabsq	$.L.str.8, %rdi
	movb	$0, %al
	callq	printf
	cmpl	$2, -4(%rbp)
	jle	.LBB10_20
# %bb.19:                               # %if.then38
                                        #   in Loop: Header=BB10_1 Depth=1
	movq	-16(%rbp), %rax
	movq	Quant_inter_default, %rcx
	movq	%rcx, (%rax)
	movq	Quant_inter_default+8, %rcx
	movq	%rcx, 8(%rax)
	movq	Quant_inter_default+16, %rcx
	movq	%rcx, 16(%rax)
	movq	Quant_inter_default+24, %rcx
	movq	%rcx, 24(%rax)
	jmp	.LBB10_21
.LBB10_20:                              # %if.else39
                                        #   in Loop: Header=BB10_1 Depth=1
	movq	-16(%rbp), %rax
	movq	Quant_intra_default, %rcx
	movq	%rcx, (%rax)
	movq	Quant_intra_default+8, %rcx
	movq	%rcx, 8(%rax)
	movq	Quant_intra_default+16, %rcx
	movq	%rcx, 16(%rax)
	movq	Quant_intra_default+24, %rcx
	movq	%rcx, 24(%rax)
.LBB10_21:                              # %if.end40
                                        #   in Loop: Header=BB10_1 Depth=1
	jmp	.LBB10_22
.LBB10_22:                              # %if.end41
                                        #   in Loop: Header=BB10_1 Depth=1
	jmp	.LBB10_23
.LBB10_23:                              # %if.end42
                                        #   in Loop: Header=BB10_1 Depth=1
	cmpl	$2, -4(%rbp)
	jge	.LBB10_45
# %bb.24:                               # %land.lhs.true
                                        #   in Loop: Header=BB10_1 Depth=1
	movq	input, %rax
	movl	-4(%rbp), %ecx
	addl	$6, %ecx
	movslq	%ecx, %rcx
	cmpl	$0, 3260(%rax,%rcx,4)
	je	.LBB10_45
# %bb.25:                               # %if.then49
                                        #   in Loop: Header=BB10_1 Depth=1
	movslq	-4(%rbp), %rax
	shlq	$7, %rax
	movabsq	$ScalingList8x8input, %rcx
	addq	%rax, %rcx
	movq	%rcx, -16(%rbp)
	movslq	-4(%rbp), %rax
	cmpl	$0, matrix8x8_check(,%rax,4)
	je	.LBB10_40
# %bb.26:                               # %if.then56
                                        #   in Loop: Header=BB10_1 Depth=1
	movl	$0, -20(%rbp)
	movl	$0, -8(%rbp)
.LBB10_27:                              # %for.cond57
                                        #   Parent Loop BB10_1 Depth=1
                                        # =>  This Inner Loop Header: Depth=2
	cmpl	$64, -8(%rbp)
	jge	.LBB10_33
# %bb.28:                               # %for.body60
                                        #   in Loop: Header=BB10_27 Depth=2
	movq	-16(%rbp), %rax
	movslq	-8(%rbp), %rcx
	movswl	(%rax,%rcx,2), %eax
	cmpl	$0, %eax
	jl	.LBB10_30
# %bb.29:                               # %lor.lhs.false66
                                        #   in Loop: Header=BB10_27 Depth=2
	movq	-16(%rbp), %rax
	movslq	-8(%rbp), %rcx
	movswl	(%rax,%rcx,2), %eax
	cmpl	$255, %eax
	jle	.LBB10_31
.LBB10_30:                              # %if.then72
                                        #   in Loop: Header=BB10_1 Depth=1
	movl	$1, -20(%rbp)
	jmp	.LBB10_34
.LBB10_31:                              # %if.end73
                                        #   in Loop: Header=BB10_27 Depth=2
	jmp	.LBB10_32
.LBB10_32:                              # %for.inc74
                                        #   in Loop: Header=BB10_27 Depth=2
	movl	-8(%rbp), %eax
	addl	$1, %eax
	movl	%eax, -8(%rbp)
	jmp	.LBB10_27
.LBB10_33:                              # %for.end76.loopexit
                                        #   in Loop: Header=BB10_1 Depth=1
	jmp	.LBB10_34
.LBB10_34:                              # %for.end76
                                        #   in Loop: Header=BB10_1 Depth=1
	cmpl	$0, -20(%rbp)
	je	.LBB10_39
# %bb.35:                               # %if.then78
                                        #   in Loop: Header=BB10_1 Depth=1
	movslq	-4(%rbp), %rax
	imulq	$20, %rax, %rax
	movabsq	$MatrixType8x8, %rsi
	addq	%rax, %rsi
	movabsq	$.L.str.6, %rdi
	movb	$0, %al
	callq	printf
	movabsq	$.L.str.7, %rdi
	movb	$0, %al
	callq	printf
	cmpl	$7, -4(%rbp)
	jne	.LBB10_37
# %bb.36:                               # %if.then86
                                        #   in Loop: Header=BB10_1 Depth=1
	movabsq	$Quant8_inter_default, %rsi
	movq	-16(%rbp), %rdi
	movl	$128, %edx
	callq	memcpy
	jmp	.LBB10_38
.LBB10_37:                              # %if.else87
                                        #   in Loop: Header=BB10_1 Depth=1
	movabsq	$Quant8_intra_default, %rsi
	movq	-16(%rbp), %rdi
	movl	$128, %edx
	callq	memcpy
.LBB10_38:                              # %if.end88
                                        #   in Loop: Header=BB10_1 Depth=1
	jmp	.LBB10_39
.LBB10_39:                              # %if.end89
                                        #   in Loop: Header=BB10_1 Depth=1
	jmp	.LBB10_44
.LBB10_40:                              # %if.else90
                                        #   in Loop: Header=BB10_1 Depth=1
	movslq	-4(%rbp), %rax
	imulq	$20, %rax, %rax
	movabsq	$MatrixType8x8, %rsi
	addq	%rax, %rsi
	movabsq	$.L.str.8, %rdi
	movb	$0, %al
	callq	printf
	cmpl	$7, -4(%rbp)
	jne	.LBB10_42
# %bb.41:                               # %if.then97
                                        #   in Loop: Header=BB10_1 Depth=1
	movabsq	$Quant8_inter_default, %rsi
	movq	-16(%rbp), %rdi
	movl	$128, %edx
	callq	memcpy
	jmp	.LBB10_43
.LBB10_42:                              # %if.else98
                                        #   in Loop: Header=BB10_1 Depth=1
	movabsq	$Quant8_intra_default, %rsi
	movq	-16(%rbp), %rdi
	movl	$128, %edx
	callq	memcpy
.LBB10_43:                              # %if.end99
                                        #   in Loop: Header=BB10_1 Depth=1
	jmp	.LBB10_44
.LBB10_44:                              # %if.end100
                                        #   in Loop: Header=BB10_1 Depth=1
	jmp	.LBB10_45
.LBB10_45:                              # %if.end101
                                        #   in Loop: Header=BB10_1 Depth=1
	jmp	.LBB10_46
.LBB10_46:                              # %for.inc102
                                        #   in Loop: Header=BB10_1 Depth=1
	movl	-4(%rbp), %eax
	addl	$1, %eax
	movl	%eax, -4(%rbp)
	jmp	.LBB10_1
.LBB10_47:                              # %for.end104
	cmpl	$831471678, -24(%rbp)   # imm = 0x318F403E
	jne	.LBB10_49
.LBB10_48:
	addq	$32, %rsp
	popq	%rbp
	.cfi_def_cfa %rsp, 8
	retq
.LBB10_49:                              # %func_exit
	.cfi_def_cfa %rbp, 16
	callq	detect_breach
	jmp	.LBB10_48
.Lfunc_end10:
	.size	PatchMatrix.5, .Lfunc_end10-PatchMatrix.5
	.cfi_endproc
                                        # -- End function
	.globl	PatchMatrix.6           # -- Begin function PatchMatrix.6
	.p2align	4, 0x90
	.type	PatchMatrix.6,@function
PatchMatrix.6:                          # @PatchMatrix.6
	.cfi_startproc
# %bb.0:                                # %entry
	pushq	%rbp
	.cfi_def_cfa_offset 16
	.cfi_offset %rbp, -16
	movq	%rsp, %rbp
	.cfi_def_cfa_register %rbp
	subq	$32, %rsp
	movl	$2055676879, -24(%rbp)  # imm = 0x7A8723CF
	movl	$0, -4(%rbp)
.LBB11_1:                               # %for.cond
                                        # =>This Loop Header: Depth=1
                                        #     Child Loop BB11_5 Depth 2
                                        #     Child Loop BB11_27 Depth 2
	cmpl	$6, -4(%rbp)
	jge	.LBB11_47
# %bb.2:                                # %for.body
                                        #   in Loop: Header=BB11_1 Depth=1
	movq	input, %rax
	movslq	-4(%rbp), %rcx
	cmpl	$0, 3260(%rax,%rcx,4)
	je	.LBB11_23
# %bb.3:                                # %if.then
                                        #   in Loop: Header=BB11_1 Depth=1
	movslq	-4(%rbp), %rax
	shlq	$5, %rax
	movabsq	$ScalingList4x4input, %rcx
	addq	%rax, %rcx
	movq	%rcx, -16(%rbp)
	movslq	-4(%rbp), %rax
	cmpl	$0, matrix4x4_check(,%rax,4)
	je	.LBB11_18
# %bb.4:                                # %if.then6
                                        #   in Loop: Header=BB11_1 Depth=1
	movl	$0, -20(%rbp)
	movl	$0, -8(%rbp)
.LBB11_5:                               # %for.cond7
                                        #   Parent Loop BB11_1 Depth=1
                                        # =>  This Inner Loop Header: Depth=2
	cmpl	$16, -8(%rbp)
	jge	.LBB11_11
# %bb.6:                                # %for.body9
                                        #   in Loop: Header=BB11_5 Depth=2
	movq	-16(%rbp), %rax
	movslq	-8(%rbp), %rcx
	movswl	(%rax,%rcx,2), %eax
	cmpl	$0, %eax
	jl	.LBB11_8
# %bb.7:                                # %lor.lhs.false
                                        #   in Loop: Header=BB11_5 Depth=2
	movq	-16(%rbp), %rax
	movslq	-8(%rbp), %rcx
	movswl	(%rax,%rcx,2), %eax
	cmpl	$255, %eax
	jle	.LBB11_9
.LBB11_8:                               # %if.then19
                                        #   in Loop: Header=BB11_1 Depth=1
	movl	$1, -20(%rbp)
	jmp	.LBB11_12
.LBB11_9:                               # %if.end
                                        #   in Loop: Header=BB11_5 Depth=2
	jmp	.LBB11_10
.LBB11_10:                              # %for.inc
                                        #   in Loop: Header=BB11_5 Depth=2
	movl	-8(%rbp), %eax
	addl	$1, %eax
	movl	%eax, -8(%rbp)
	jmp	.LBB11_5
.LBB11_11:                              # %for.end.loopexit
                                        #   in Loop: Header=BB11_1 Depth=1
	jmp	.LBB11_12
.LBB11_12:                              # %for.end
                                        #   in Loop: Header=BB11_1 Depth=1
	cmpl	$0, -20(%rbp)
	je	.LBB11_17
# %bb.13:                               # %if.then21
                                        #   in Loop: Header=BB11_1 Depth=1
	movslq	-4(%rbp), %rax
	imulq	$20, %rax, %rax
	movabsq	$MatrixType4x4, %rsi
	addq	%rax, %rsi
	movabsq	$.L.str.6, %rdi
	movb	$0, %al
	callq	printf
	movabsq	$.L.str.7, %rdi
	movb	$0, %al
	callq	printf
	cmpl	$2, -4(%rbp)
	jle	.LBB11_15
# %bb.14:                               # %if.then28
                                        #   in Loop: Header=BB11_1 Depth=1
	movq	-16(%rbp), %rax
	movq	Quant_inter_default, %rcx
	movq	%rcx, (%rax)
	movq	Quant_inter_default+8, %rcx
	movq	%rcx, 8(%rax)
	movq	Quant_inter_default+16, %rcx
	movq	%rcx, 16(%rax)
	movq	Quant_inter_default+24, %rcx
	movq	%rcx, 24(%rax)
	jmp	.LBB11_16
.LBB11_15:                              # %if.else
                                        #   in Loop: Header=BB11_1 Depth=1
	movq	-16(%rbp), %rax
	movq	Quant_intra_default, %rcx
	movq	%rcx, (%rax)
	movq	Quant_intra_default+8, %rcx
	movq	%rcx, 8(%rax)
	movq	Quant_intra_default+16, %rcx
	movq	%rcx, 16(%rax)
	movq	Quant_intra_default+24, %rcx
	movq	%rcx, 24(%rax)
.LBB11_16:                              # %if.end29
                                        #   in Loop: Header=BB11_1 Depth=1
	jmp	.LBB11_17
.LBB11_17:                              # %if.end30
                                        #   in Loop: Header=BB11_1 Depth=1
	jmp	.LBB11_22
.LBB11_18:                              # %if.else31
                                        #   in Loop: Header=BB11_1 Depth=1
	movslq	-4(%rbp), %rax
	imulq	$20, %rax, %rax
	movabsq	$MatrixType4x4, %rsi
	addq	%rax, %rsi
	movabsq	$.L.str.8, %rdi
	movb	$0, %al
	callq	printf
	cmpl	$2, -4(%rbp)
	jle	.LBB11_20
# %bb.19:                               # %if.then38
                                        #   in Loop: Header=BB11_1 Depth=1
	movq	-16(%rbp), %rax
	movq	Quant_inter_default, %rcx
	movq	%rcx, (%rax)
	movq	Quant_inter_default+8, %rcx
	movq	%rcx, 8(%rax)
	movq	Quant_inter_default+16, %rcx
	movq	%rcx, 16(%rax)
	movq	Quant_inter_default+24, %rcx
	movq	%rcx, 24(%rax)
	jmp	.LBB11_21
.LBB11_20:                              # %if.else39
                                        #   in Loop: Header=BB11_1 Depth=1
	movq	-16(%rbp), %rax
	movq	Quant_intra_default, %rcx
	movq	%rcx, (%rax)
	movq	Quant_intra_default+8, %rcx
	movq	%rcx, 8(%rax)
	movq	Quant_intra_default+16, %rcx
	movq	%rcx, 16(%rax)
	movq	Quant_intra_default+24, %rcx
	movq	%rcx, 24(%rax)
.LBB11_21:                              # %if.end40
                                        #   in Loop: Header=BB11_1 Depth=1
	jmp	.LBB11_22
.LBB11_22:                              # %if.end41
                                        #   in Loop: Header=BB11_1 Depth=1
	jmp	.LBB11_23
.LBB11_23:                              # %if.end42
                                        #   in Loop: Header=BB11_1 Depth=1
	cmpl	$2, -4(%rbp)
	jge	.LBB11_45
# %bb.24:                               # %land.lhs.true
                                        #   in Loop: Header=BB11_1 Depth=1
	movq	input, %rax
	movl	-4(%rbp), %ecx
	addl	$6, %ecx
	movslq	%ecx, %rcx
	cmpl	$0, 3260(%rax,%rcx,4)
	je	.LBB11_45
# %bb.25:                               # %if.then49
                                        #   in Loop: Header=BB11_1 Depth=1
	movslq	-4(%rbp), %rax
	shlq	$7, %rax
	movabsq	$ScalingList8x8input, %rcx
	addq	%rax, %rcx
	movq	%rcx, -16(%rbp)
	movslq	-4(%rbp), %rax
	cmpl	$0, matrix8x8_check(,%rax,4)
	je	.LBB11_40
# %bb.26:                               # %if.then56
                                        #   in Loop: Header=BB11_1 Depth=1
	movl	$0, -20(%rbp)
	movl	$0, -8(%rbp)
.LBB11_27:                              # %for.cond57
                                        #   Parent Loop BB11_1 Depth=1
                                        # =>  This Inner Loop Header: Depth=2
	cmpl	$64, -8(%rbp)
	jge	.LBB11_33
# %bb.28:                               # %for.body60
                                        #   in Loop: Header=BB11_27 Depth=2
	movq	-16(%rbp), %rax
	movslq	-8(%rbp), %rcx
	movswl	(%rax,%rcx,2), %eax
	cmpl	$0, %eax
	jl	.LBB11_30
# %bb.29:                               # %lor.lhs.false66
                                        #   in Loop: Header=BB11_27 Depth=2
	movq	-16(%rbp), %rax
	movslq	-8(%rbp), %rcx
	movswl	(%rax,%rcx,2), %eax
	cmpl	$255, %eax
	jle	.LBB11_31
.LBB11_30:                              # %if.then72
                                        #   in Loop: Header=BB11_1 Depth=1
	movl	$1, -20(%rbp)
	jmp	.LBB11_34
.LBB11_31:                              # %if.end73
                                        #   in Loop: Header=BB11_27 Depth=2
	jmp	.LBB11_32
.LBB11_32:                              # %for.inc74
                                        #   in Loop: Header=BB11_27 Depth=2
	movl	-8(%rbp), %eax
	addl	$1, %eax
	movl	%eax, -8(%rbp)
	jmp	.LBB11_27
.LBB11_33:                              # %for.end76.loopexit
                                        #   in Loop: Header=BB11_1 Depth=1
	jmp	.LBB11_34
.LBB11_34:                              # %for.end76
                                        #   in Loop: Header=BB11_1 Depth=1
	cmpl	$0, -20(%rbp)
	je	.LBB11_39
# %bb.35:                               # %if.then78
                                        #   in Loop: Header=BB11_1 Depth=1
	movslq	-4(%rbp), %rax
	imulq	$20, %rax, %rax
	movabsq	$MatrixType8x8, %rsi
	addq	%rax, %rsi
	movabsq	$.L.str.6, %rdi
	movb	$0, %al
	callq	printf
	movabsq	$.L.str.7, %rdi
	movb	$0, %al
	callq	printf
	cmpl	$7, -4(%rbp)
	jne	.LBB11_37
# %bb.36:                               # %if.then86
                                        #   in Loop: Header=BB11_1 Depth=1
	movabsq	$Quant8_inter_default, %rsi
	movq	-16(%rbp), %rdi
	movl	$128, %edx
	callq	memcpy
	jmp	.LBB11_38
.LBB11_37:                              # %if.else87
                                        #   in Loop: Header=BB11_1 Depth=1
	movabsq	$Quant8_intra_default, %rsi
	movq	-16(%rbp), %rdi
	movl	$128, %edx
	callq	memcpy
.LBB11_38:                              # %if.end88
                                        #   in Loop: Header=BB11_1 Depth=1
	jmp	.LBB11_39
.LBB11_39:                              # %if.end89
                                        #   in Loop: Header=BB11_1 Depth=1
	jmp	.LBB11_44
.LBB11_40:                              # %if.else90
                                        #   in Loop: Header=BB11_1 Depth=1
	movslq	-4(%rbp), %rax
	imulq	$20, %rax, %rax
	movabsq	$MatrixType8x8, %rsi
	addq	%rax, %rsi
	movabsq	$.L.str.8, %rdi
	movb	$0, %al
	callq	printf
	cmpl	$7, -4(%rbp)
	jne	.LBB11_42
# %bb.41:                               # %if.then97
                                        #   in Loop: Header=BB11_1 Depth=1
	movabsq	$Quant8_inter_default, %rsi
	movq	-16(%rbp), %rdi
	movl	$128, %edx
	callq	memcpy
	jmp	.LBB11_43
.LBB11_42:                              # %if.else98
                                        #   in Loop: Header=BB11_1 Depth=1
	movabsq	$Quant8_intra_default, %rsi
	movq	-16(%rbp), %rdi
	movl	$128, %edx
	callq	memcpy
.LBB11_43:                              # %if.end99
                                        #   in Loop: Header=BB11_1 Depth=1
	jmp	.LBB11_44
.LBB11_44:                              # %if.end100
                                        #   in Loop: Header=BB11_1 Depth=1
	jmp	.LBB11_45
.LBB11_45:                              # %if.end101
                                        #   in Loop: Header=BB11_1 Depth=1
	jmp	.LBB11_46
.LBB11_46:                              # %for.inc102
                                        #   in Loop: Header=BB11_1 Depth=1
	movl	-4(%rbp), %eax
	addl	$1, %eax
	movl	%eax, -4(%rbp)
	jmp	.LBB11_1
.LBB11_47:                              # %for.end104
	cmpl	$2055676879, -24(%rbp)  # imm = 0x7A8723CF
	jne	.LBB11_49
.LBB11_48:
	addq	$32, %rsp
	popq	%rbp
	.cfi_def_cfa %rsp, 8
	retq
.LBB11_49:                              # %func_exit
	.cfi_def_cfa %rbp, 16
	callq	detect_breach
	jmp	.LBB11_48
.Lfunc_end11:
	.size	PatchMatrix.6, .Lfunc_end11-PatchMatrix.6
	.cfi_endproc
                                        # -- End function
	.globl	CalculateQuantParam.7   # -- Begin function CalculateQuantParam.7
	.p2align	4, 0x90
	.type	CalculateQuantParam.7,@function
CalculateQuantParam.7:                  # @CalculateQuantParam.7
	.cfi_startproc
# %bb.0:                                # %entry
	pushq	%rbp
	.cfi_def_cfa_offset 16
	.cfi_offset %rbp, -16
	movq	%rsp, %rbp
	.cfi_def_cfa_register %rbp
	pushq	%r15
	pushq	%r14
	pushq	%r12
	pushq	%rbx
	subq	$48, %rsp
	.cfi_offset %rbx, -48
	.cfi_offset %r12, -40
	.cfi_offset %r14, -32
	.cfi_offset %r15, -24
	movl	$1546597250, -56(%rbp)  # imm = 0x5C2F3382
	movl	$0, -52(%rbp)
	movq	active_sps, %rax
	cmpl	$0, 36(%rax)
	jne	.LBB12_3
# %bb.1:                                # %land.lhs.true
	movq	active_pps, %rax
	cmpl	$0, 20(%rax)
	jne	.LBB12_3
# %bb.2:                                # %if.then
	movl	$1, -52(%rbp)
	jmp	.LBB12_20
.LBB12_3:                               # %if.else
	leaq	-80(%rbp), %rdi
	xorl	%esi, %esi
	movl	$24, %edx
	callq	memset
	movq	active_sps, %rax
	cmpl	$0, 36(%rax)
	je	.LBB12_9
# %bb.4:                                # %if.then4
	movl	$0, -36(%rbp)
.LBB12_5:                               # %for.cond
                                        # =>This Inner Loop Header: Depth=1
	cmpl	$6, -36(%rbp)
	jge	.LBB12_8
# %bb.6:                                # %for.body
                                        #   in Loop: Header=BB12_5 Depth=1
	movq	active_sps, %rax
	movslq	-36(%rbp), %rcx
	movl	40(%rax,%rcx,4), %eax
	movslq	-36(%rbp), %rcx
	movl	%eax, -80(%rbp,%rcx,4)
# %bb.7:                                # %for.inc
                                        #   in Loop: Header=BB12_5 Depth=1
	movl	-36(%rbp), %eax
	addl	$1, %eax
	movl	%eax, -36(%rbp)
	jmp	.LBB12_5
.LBB12_8:                               # %for.end
	jmp	.LBB12_9
.LBB12_9:                               # %if.end
	movq	active_pps, %rax
	cmpl	$0, 20(%rax)
	je	.LBB12_19
# %bb.10:                               # %if.then9
	movl	$0, -36(%rbp)
.LBB12_11:                              # %for.cond10
                                        # =>This Inner Loop Header: Depth=1
	cmpl	$6, -36(%rbp)
	jge	.LBB12_18
# %bb.12:                               # %for.body12
                                        #   in Loop: Header=BB12_11 Depth=1
	cmpl	$0, -36(%rbp)
	je	.LBB12_14
# %bb.13:                               # %lor.lhs.false
                                        #   in Loop: Header=BB12_11 Depth=1
	cmpl	$3, -36(%rbp)
	jne	.LBB12_15
.LBB12_14:                              # %if.then15
                                        #   in Loop: Header=BB12_11 Depth=1
	movq	active_pps, %rax
	movslq	-36(%rbp), %rcx
	movl	24(%rax,%rcx,4), %eax
	movslq	-36(%rbp), %rcx
	orl	-80(%rbp,%rcx,4), %eax
	movl	%eax, -80(%rbp,%rcx,4)
	jmp	.LBB12_16
.LBB12_15:                              # %if.else20
                                        #   in Loop: Header=BB12_11 Depth=1
	movq	active_pps, %rax
	movslq	-36(%rbp), %rcx
	movl	24(%rax,%rcx,4), %eax
	movslq	-36(%rbp), %rcx
	movl	%eax, -80(%rbp,%rcx,4)
.LBB12_16:                              # %if.end26
                                        #   in Loop: Header=BB12_11 Depth=1
	jmp	.LBB12_17
.LBB12_17:                              # %for.inc27
                                        #   in Loop: Header=BB12_11 Depth=1
	movl	-36(%rbp), %eax
	addl	$1, %eax
	movl	%eax, -36(%rbp)
	jmp	.LBB12_11
.LBB12_18:                              # %for.end29
	jmp	.LBB12_19
.LBB12_19:                              # %if.end30
	jmp	.LBB12_20
.LBB12_20:                              # %if.end31
	cmpl	$1, -52(%rbp)
	jne	.LBB12_34
# %bb.21:                               # %if.then33
	movl	$0, -44(%rbp)
.LBB12_22:                              # %for.cond34
                                        # =>This Loop Header: Depth=1
                                        #     Child Loop BB12_24 Depth 2
                                        #       Child Loop BB12_26 Depth 3
	cmpl	$6, -44(%rbp)
	jge	.LBB12_33
# %bb.23:                               # %for.body36
                                        #   in Loop: Header=BB12_22 Depth=1
	movl	$0, -40(%rbp)
.LBB12_24:                              # %for.cond37
                                        #   Parent Loop BB12_22 Depth=1
                                        # =>  This Loop Header: Depth=2
                                        #       Child Loop BB12_26 Depth 3
	cmpl	$4, -40(%rbp)
	jge	.LBB12_31
# %bb.25:                               # %for.body39
                                        #   in Loop: Header=BB12_24 Depth=2
	movl	$0, -36(%rbp)
.LBB12_26:                              # %for.cond40
                                        #   Parent Loop BB12_22 Depth=1
                                        #     Parent Loop BB12_24 Depth=2
                                        # =>    This Inner Loop Header: Depth=3
	cmpl	$4, -36(%rbp)
	jge	.LBB12_29
# %bb.27:                               # %for.body42
                                        #   in Loop: Header=BB12_26 Depth=3
	movabsq	$InvLevelScale4x4Chroma_Inter, %r9
	movq	%r9, %r8
	addq	$384, %r8               # imm = 0x180
	movabsq	$LevelScale4x4Chroma_Inter, %r11
	movq	%r11, %r10
	addq	$384, %r10              # imm = 0x180
	movabsq	$InvLevelScale4x4Chroma_Intra, %rdx
	movq	%rdx, %r15
	addq	$384, %r15              # imm = 0x180
	movabsq	$LevelScale4x4Chroma_Intra, %rbx
	movq	%rbx, %rax
	addq	$384, %rax              # imm = 0x180
	movslq	-44(%rbp), %rdi
	shlq	$6, %rdi
	movabsq	$quant_coef, %r14
	movq	%r14, %rsi
	addq	%rdi, %rsi
	movslq	-40(%rbp), %rdi
	shlq	$4, %rdi
	addq	%rdi, %rsi
	movslq	-36(%rbp), %rdi
	movl	(%rsi,%rdi,4), %esi
	movslq	-44(%rbp), %rdi
	shlq	$6, %rdi
	movabsq	$LevelScale4x4Luma_Intra, %rcx
	addq	%rdi, %rcx
	movslq	-40(%rbp), %rdi
	shlq	$4, %rdi
	addq	%rdi, %rcx
	movslq	-36(%rbp), %rdi
	movl	%esi, (%rcx,%rdi,4)
	movslq	-44(%rbp), %rcx
	shlq	$6, %rcx
	movabsq	$dequant_coef, %r12
	movq	%r12, %rsi
	addq	%rcx, %rsi
	movslq	-40(%rbp), %rcx
	shlq	$4, %rcx
	addq	%rcx, %rsi
	movslq	-36(%rbp), %rcx
	movl	(%rsi,%rcx,4), %ecx
	shll	$4, %ecx
	movslq	-44(%rbp), %rsi
	shlq	$6, %rsi
	movabsq	$InvLevelScale4x4Luma_Intra, %rdi
	addq	%rsi, %rdi
	movslq	-40(%rbp), %rsi
	shlq	$4, %rsi
	addq	%rsi, %rdi
	movslq	-36(%rbp), %rsi
	movl	%ecx, (%rdi,%rsi,4)
	movslq	-44(%rbp), %rcx
	shlq	$6, %rcx
	movq	%r14, %rsi
	addq	%rcx, %rsi
	movslq	-40(%rbp), %rcx
	shlq	$4, %rcx
	addq	%rcx, %rsi
	movslq	-36(%rbp), %rcx
	movl	(%rsi,%rcx,4), %ecx
	movslq	-44(%rbp), %rsi
	shlq	$6, %rsi
	addq	%rsi, %rbx
	movslq	-40(%rbp), %rsi
	shlq	$4, %rsi
	addq	%rsi, %rbx
	movslq	-36(%rbp), %rsi
	movl	%ecx, (%rbx,%rsi,4)
	movslq	-44(%rbp), %rcx
	shlq	$6, %rcx
	movq	%r12, %rsi
	addq	%rcx, %rsi
	movslq	-40(%rbp), %rcx
	shlq	$4, %rcx
	addq	%rcx, %rsi
	movslq	-36(%rbp), %rcx
	movl	(%rsi,%rcx,4), %ecx
	shll	$4, %ecx
	movslq	-44(%rbp), %rsi
	shlq	$6, %rsi
	addq	%rsi, %rdx
	movslq	-40(%rbp), %rsi
	shlq	$4, %rsi
	addq	%rsi, %rdx
	movslq	-36(%rbp), %rsi
	movl	%ecx, (%rdx,%rsi,4)
	movslq	-44(%rbp), %rcx
	shlq	$6, %rcx
	movq	%r14, %rdx
	addq	%rcx, %rdx
	movslq	-40(%rbp), %rcx
	shlq	$4, %rcx
	addq	%rcx, %rdx
	movslq	-36(%rbp), %rcx
	movl	(%rdx,%rcx,4), %ecx
	movslq	-44(%rbp), %rdx
	shlq	$6, %rdx
	addq	%rdx, %rax
	movslq	-40(%rbp), %rdx
	shlq	$4, %rdx
	addq	%rdx, %rax
	movslq	-36(%rbp), %rdx
	movl	%ecx, (%rax,%rdx,4)
	movslq	-44(%rbp), %rax
	shlq	$6, %rax
	movq	%r12, %rcx
	addq	%rax, %rcx
	movslq	-40(%rbp), %rax
	shlq	$4, %rax
	addq	%rax, %rcx
	movslq	-36(%rbp), %rax
	movl	(%rcx,%rax,4), %eax
	shll	$4, %eax
	movslq	-44(%rbp), %rcx
	shlq	$6, %rcx
	addq	%rcx, %r15
	movslq	-40(%rbp), %rcx
	shlq	$4, %rcx
	addq	%rcx, %r15
	movslq	-36(%rbp), %rcx
	movl	%eax, (%r15,%rcx,4)
	movslq	-44(%rbp), %rax
	shlq	$6, %rax
	movq	%r14, %rcx
	addq	%rax, %rcx
	movslq	-40(%rbp), %rax
	shlq	$4, %rax
	addq	%rax, %rcx
	movslq	-36(%rbp), %rax
	movl	(%rcx,%rax,4), %eax
	movslq	-44(%rbp), %rcx
	shlq	$6, %rcx
	movabsq	$LevelScale4x4Luma_Inter, %rdx
	addq	%rcx, %rdx
	movslq	-40(%rbp), %rcx
	shlq	$4, %rcx
	addq	%rcx, %rdx
	movslq	-36(%rbp), %rcx
	movl	%eax, (%rdx,%rcx,4)
	movslq	-44(%rbp), %rax
	shlq	$6, %rax
	movq	%r12, %rcx
	addq	%rax, %rcx
	movslq	-40(%rbp), %rax
	shlq	$4, %rax
	addq	%rax, %rcx
	movslq	-36(%rbp), %rax
	movl	(%rcx,%rax,4), %eax
	shll	$4, %eax
	movslq	-44(%rbp), %rcx
	shlq	$6, %rcx
	movabsq	$InvLevelScale4x4Luma_Inter, %rdx
	addq	%rcx, %rdx
	movslq	-40(%rbp), %rcx
	shlq	$4, %rcx
	addq	%rcx, %rdx
	movslq	-36(%rbp), %rcx
	movl	%eax, (%rdx,%rcx,4)
	movslq	-44(%rbp), %rax
	shlq	$6, %rax
	movq	%r14, %rcx
	addq	%rax, %rcx
	movslq	-40(%rbp), %rax
	shlq	$4, %rax
	addq	%rax, %rcx
	movslq	-36(%rbp), %rax
	movl	(%rcx,%rax,4), %eax
	movslq	-44(%rbp), %rcx
	shlq	$6, %rcx
	addq	%rcx, %r11
	movslq	-40(%rbp), %rcx
	shlq	$4, %rcx
	addq	%rcx, %r11
	movslq	-36(%rbp), %rcx
	movl	%eax, (%r11,%rcx,4)
	movslq	-44(%rbp), %rax
	shlq	$6, %rax
	movq	%r12, %rcx
	addq	%rax, %rcx
	movslq	-40(%rbp), %rax
	shlq	$4, %rax
	addq	%rax, %rcx
	movslq	-36(%rbp), %rax
	movl	(%rcx,%rax,4), %eax
	shll	$4, %eax
	movslq	-44(%rbp), %rcx
	shlq	$6, %rcx
	addq	%rcx, %r9
	movslq	-40(%rbp), %rcx
	shlq	$4, %rcx
	addq	%rcx, %r9
	movslq	-36(%rbp), %rcx
	movl	%eax, (%r9,%rcx,4)
	movslq	-44(%rbp), %rax
	shlq	$6, %rax
	addq	%rax, %r14
	movslq	-40(%rbp), %rax
	shlq	$4, %rax
	addq	%rax, %r14
	movslq	-36(%rbp), %rax
	movl	(%r14,%rax,4), %eax
	movslq	-44(%rbp), %rcx
	shlq	$6, %rcx
	addq	%rcx, %r10
	movslq	-40(%rbp), %rcx
	shlq	$4, %rcx
	addq	%rcx, %r10
	movslq	-36(%rbp), %rcx
	movl	%eax, (%r10,%rcx,4)
	movslq	-44(%rbp), %rax
	shlq	$6, %rax
	addq	%rax, %r12
	movslq	-40(%rbp), %rax
	shlq	$4, %rax
	addq	%rax, %r12
	movslq	-36(%rbp), %rax
	movl	(%r12,%rax,4), %eax
	shll	$4, %eax
	movslq	-44(%rbp), %rcx
	shlq	$6, %rcx
	addq	%rcx, %r8
	movslq	-40(%rbp), %rcx
	shlq	$4, %rcx
	addq	%rcx, %r8
	movslq	-36(%rbp), %rcx
	movl	%eax, (%r8,%rcx,4)
# %bb.28:                               # %for.inc192
                                        #   in Loop: Header=BB12_26 Depth=3
	movl	-36(%rbp), %eax
	addl	$1, %eax
	movl	%eax, -36(%rbp)
	jmp	.LBB12_26
.LBB12_29:                              # %for.end194
                                        #   in Loop: Header=BB12_24 Depth=2
	jmp	.LBB12_30
.LBB12_30:                              # %for.inc195
                                        #   in Loop: Header=BB12_24 Depth=2
	movl	-40(%rbp), %eax
	addl	$1, %eax
	movl	%eax, -40(%rbp)
	jmp	.LBB12_24
.LBB12_31:                              # %for.end197
                                        #   in Loop: Header=BB12_22 Depth=1
	jmp	.LBB12_32
.LBB12_32:                              # %for.inc198
                                        #   in Loop: Header=BB12_22 Depth=1
	movl	-44(%rbp), %eax
	addl	$1, %eax
	movl	%eax, -44(%rbp)
	jmp	.LBB12_22
.LBB12_33:                              # %for.end200
	jmp	.LBB12_91
.LBB12_34:                              # %if.else201
	movl	$0, -44(%rbp)
.LBB12_35:                              # %for.cond202
                                        # =>This Loop Header: Depth=1
                                        #     Child Loop BB12_37 Depth 2
                                        #       Child Loop BB12_39 Depth 3
	cmpl	$6, -44(%rbp)
	jge	.LBB12_90
# %bb.36:                               # %for.body204
                                        #   in Loop: Header=BB12_35 Depth=1
	movl	$0, -40(%rbp)
.LBB12_37:                              # %for.cond205
                                        #   Parent Loop BB12_35 Depth=1
                                        # =>  This Loop Header: Depth=2
                                        #       Child Loop BB12_39 Depth 3
	cmpl	$4, -40(%rbp)
	jge	.LBB12_88
# %bb.38:                               # %for.body207
                                        #   in Loop: Header=BB12_37 Depth=2
	movl	$0, -36(%rbp)
.LBB12_39:                              # %for.cond208
                                        #   Parent Loop BB12_35 Depth=1
                                        #     Parent Loop BB12_37 Depth=2
                                        # =>    This Inner Loop Header: Depth=3
	cmpl	$4, -36(%rbp)
	jge	.LBB12_86
# %bb.40:                               # %for.body210
                                        #   in Loop: Header=BB12_39 Depth=3
	movl	-36(%rbp), %eax
	shll	$2, %eax
	addl	-40(%rbp), %eax
	movl	%eax, -48(%rbp)
	cmpl	$0, -80(%rbp)
	je	.LBB12_42
# %bb.41:                               # %lor.lhs.false214
                                        #   in Loop: Header=BB12_39 Depth=3
	movswl	UseDefaultScalingMatrix4x4Flag, %eax
	cmpl	$0, %eax
	je	.LBB12_43
.LBB12_42:                              # %if.then216
                                        #   in Loop: Header=BB12_39 Depth=3
	movslq	-44(%rbp), %rax
	shlq	$6, %rax
	movabsq	$quant_coef, %rcx
	addq	%rax, %rcx
	movslq	-40(%rbp), %rax
	shlq	$4, %rax
	addq	%rax, %rcx
	movslq	-36(%rbp), %rax
	movl	(%rcx,%rax,4), %eax
	shll	$4, %eax
	movslq	-48(%rbp), %rcx
	movswl	Quant_intra_default(,%rcx,2), %ecx
	cltd
	idivl	%ecx
	movslq	-44(%rbp), %rcx
	shlq	$6, %rcx
	movabsq	$LevelScale4x4Luma_Intra, %rdx
	addq	%rcx, %rdx
	movslq	-40(%rbp), %rcx
	shlq	$4, %rcx
	addq	%rcx, %rdx
	movslq	-36(%rbp), %rcx
	movl	%eax, (%rdx,%rcx,4)
	movslq	-44(%rbp), %rax
	shlq	$6, %rax
	movabsq	$dequant_coef, %rcx
	addq	%rax, %rcx
	movslq	-40(%rbp), %rax
	shlq	$4, %rax
	addq	%rax, %rcx
	movslq	-36(%rbp), %rax
	movl	(%rcx,%rax,4), %eax
	movslq	-48(%rbp), %rcx
	movswl	Quant_intra_default(,%rcx,2), %ecx
	imull	%ecx, %eax
	movslq	-44(%rbp), %rcx
	shlq	$6, %rcx
	movabsq	$InvLevelScale4x4Luma_Intra, %rdx
	addq	%rcx, %rdx
	movslq	-40(%rbp), %rcx
	shlq	$4, %rcx
	addq	%rcx, %rdx
	movslq	-36(%rbp), %rcx
	movl	%eax, (%rdx,%rcx,4)
	jmp	.LBB12_44
.LBB12_43:                              # %if.else248
                                        #   in Loop: Header=BB12_39 Depth=3
	movslq	-44(%rbp), %rax
	shlq	$6, %rax
	movabsq	$quant_coef, %rcx
	addq	%rax, %rcx
	movslq	-40(%rbp), %rax
	shlq	$4, %rax
	addq	%rax, %rcx
	movslq	-36(%rbp), %rax
	movl	(%rcx,%rax,4), %eax
	shll	$4, %eax
	movslq	-48(%rbp), %rcx
	movswl	ScalingList4x4(,%rcx,2), %ecx
	cltd
	idivl	%ecx
	movslq	-44(%rbp), %rcx
	shlq	$6, %rcx
	movabsq	$LevelScale4x4Luma_Intra, %rdx
	addq	%rcx, %rdx
	movslq	-40(%rbp), %rcx
	shlq	$4, %rcx
	addq	%rcx, %rdx
	movslq	-36(%rbp), %rcx
	movl	%eax, (%rdx,%rcx,4)
	movslq	-44(%rbp), %rax
	shlq	$6, %rax
	movabsq	$dequant_coef, %rcx
	addq	%rax, %rcx
	movslq	-40(%rbp), %rax
	shlq	$4, %rax
	addq	%rax, %rcx
	movslq	-36(%rbp), %rax
	movl	(%rcx,%rax,4), %eax
	movslq	-48(%rbp), %rcx
	movswl	ScalingList4x4(,%rcx,2), %ecx
	imull	%ecx, %eax
	movslq	-44(%rbp), %rcx
	shlq	$6, %rcx
	movabsq	$InvLevelScale4x4Luma_Intra, %rdx
	addq	%rcx, %rdx
	movslq	-40(%rbp), %rcx
	shlq	$4, %rcx
	addq	%rcx, %rdx
	movslq	-36(%rbp), %rcx
	movl	%eax, (%rdx,%rcx,4)
.LBB12_44:                              # %if.end282
                                        #   in Loop: Header=BB12_39 Depth=3
	cmpl	$0, -76(%rbp)
	jne	.LBB12_46
# %bb.45:                               # %if.then285
                                        #   in Loop: Header=BB12_39 Depth=3
	movslq	-44(%rbp), %rax
	shlq	$6, %rax
	movabsq	$LevelScale4x4Luma_Intra, %rcx
	addq	%rax, %rcx
	movslq	-40(%rbp), %rax
	shlq	$4, %rax
	addq	%rax, %rcx
	movslq	-36(%rbp), %rax
	movl	(%rcx,%rax,4), %eax
	movslq	-44(%rbp), %rcx
	shlq	$6, %rcx
	movabsq	$LevelScale4x4Chroma_Intra, %rdx
	addq	%rcx, %rdx
	movslq	-40(%rbp), %rcx
	shlq	$4, %rcx
	addq	%rcx, %rdx
	movslq	-36(%rbp), %rcx
	movl	%eax, (%rdx,%rcx,4)
	movslq	-44(%rbp), %rax
	shlq	$6, %rax
	movabsq	$InvLevelScale4x4Luma_Intra, %rcx
	addq	%rax, %rcx
	movslq	-40(%rbp), %rax
	shlq	$4, %rax
	addq	%rax, %rcx
	movslq	-36(%rbp), %rax
	movl	(%rcx,%rax,4), %eax
	movslq	-44(%rbp), %rcx
	shlq	$6, %rcx
	movabsq	$InvLevelScale4x4Chroma_Intra, %rdx
	addq	%rcx, %rdx
	movslq	-40(%rbp), %rcx
	shlq	$4, %rcx
	addq	%rcx, %rdx
	movslq	-36(%rbp), %rcx
	movl	%eax, (%rdx,%rcx,4)
	jmp	.LBB12_53
.LBB12_46:                              # %if.else310
                                        #   in Loop: Header=BB12_39 Depth=3
	movslq	-44(%rbp), %rax
	shlq	$6, %rax
	movabsq	$quant_coef, %rcx
	addq	%rax, %rcx
	movslq	-40(%rbp), %rax
	shlq	$4, %rax
	addq	%rax, %rcx
	movslq	-36(%rbp), %rax
	movl	(%rcx,%rax,4), %eax
	shll	$4, %eax
	movswl	UseDefaultScalingMatrix4x4Flag+2, %ecx
	cmpl	$0, %ecx
	je	.LBB12_48
# %bb.47:                               # %cond.true
                                        #   in Loop: Header=BB12_39 Depth=3
	movslq	-48(%rbp), %rcx
	movswl	Quant_intra_default(,%rcx,2), %ecx
	jmp	.LBB12_49
.LBB12_48:                              # %cond.false
                                        #   in Loop: Header=BB12_39 Depth=3
	movslq	-48(%rbp), %rcx
	movswl	ScalingList4x4+32(,%rcx,2), %ecx
.LBB12_49:                              # %cond.end
                                        #   in Loop: Header=BB12_39 Depth=3
	cltd
	idivl	%ecx
	movslq	-44(%rbp), %rcx
	shlq	$6, %rcx
	movabsq	$LevelScale4x4Chroma_Intra, %rdx
	addq	%rcx, %rdx
	movslq	-40(%rbp), %rcx
	shlq	$4, %rcx
	addq	%rcx, %rdx
	movslq	-36(%rbp), %rcx
	movl	%eax, (%rdx,%rcx,4)
	movslq	-44(%rbp), %rax
	shlq	$6, %rax
	movabsq	$dequant_coef, %rcx
	addq	%rax, %rcx
	movslq	-40(%rbp), %rax
	shlq	$4, %rax
	addq	%rax, %rcx
	movslq	-36(%rbp), %rax
	movl	(%rcx,%rax,4), %eax
	movswl	UseDefaultScalingMatrix4x4Flag+2, %ecx
	cmpl	$0, %ecx
	je	.LBB12_51
# %bb.50:                               # %cond.true341
                                        #   in Loop: Header=BB12_39 Depth=3
	movslq	-48(%rbp), %rcx
	movswl	Quant_intra_default(,%rcx,2), %ecx
	jmp	.LBB12_52
.LBB12_51:                              # %cond.false345
                                        #   in Loop: Header=BB12_39 Depth=3
	movslq	-48(%rbp), %rcx
	movswl	ScalingList4x4+32(,%rcx,2), %ecx
.LBB12_52:                              # %cond.end349
                                        #   in Loop: Header=BB12_39 Depth=3
	imull	%ecx, %eax
	movslq	-44(%rbp), %rcx
	shlq	$6, %rcx
	movabsq	$InvLevelScale4x4Chroma_Intra, %rdx
	addq	%rcx, %rdx
	movslq	-40(%rbp), %rcx
	shlq	$4, %rcx
	addq	%rcx, %rdx
	movslq	-36(%rbp), %rcx
	movl	%eax, (%rdx,%rcx,4)
.LBB12_53:                              # %if.end358
                                        #   in Loop: Header=BB12_39 Depth=3
	cmpl	$0, -72(%rbp)
	jne	.LBB12_55
# %bb.54:                               # %if.then361
                                        #   in Loop: Header=BB12_39 Depth=3
	movabsq	$InvLevelScale4x4Chroma_Intra, %rcx
	movq	%rcx, %rax
	addq	$384, %rax              # imm = 0x180
	movabsq	$LevelScale4x4Chroma_Intra, %rdx
	movq	%rdx, %rsi
	addq	$384, %rsi              # imm = 0x180
	movslq	-44(%rbp), %rdi
	shlq	$6, %rdi
	addq	%rdi, %rdx
	movslq	-40(%rbp), %rdi
	shlq	$4, %rdi
	addq	%rdi, %rdx
	movslq	-36(%rbp), %rdi
	movl	(%rdx,%rdi,4), %edx
	movslq	-44(%rbp), %rdi
	shlq	$6, %rdi
	addq	%rdi, %rsi
	movslq	-40(%rbp), %rdi
	shlq	$4, %rdi
	addq	%rdi, %rsi
	movslq	-36(%rbp), %rdi
	movl	%edx, (%rsi,%rdi,4)
	movslq	-44(%rbp), %rdx
	shlq	$6, %rdx
	addq	%rdx, %rcx
	movslq	-40(%rbp), %rdx
	shlq	$4, %rdx
	addq	%rdx, %rcx
	movslq	-36(%rbp), %rdx
	movl	(%rcx,%rdx,4), %ecx
	movslq	-44(%rbp), %rdx
	shlq	$6, %rdx
	addq	%rdx, %rax
	movslq	-40(%rbp), %rdx
	shlq	$4, %rdx
	addq	%rdx, %rax
	movslq	-36(%rbp), %rdx
	movl	%ecx, (%rax,%rdx,4)
	jmp	.LBB12_62
.LBB12_55:                              # %if.else386
                                        #   in Loop: Header=BB12_39 Depth=3
	movslq	-44(%rbp), %rax
	shlq	$6, %rax
	movabsq	$quant_coef, %rcx
	addq	%rax, %rcx
	movslq	-40(%rbp), %rax
	shlq	$4, %rax
	addq	%rax, %rcx
	movslq	-36(%rbp), %rax
	movl	(%rcx,%rax,4), %eax
	shll	$4, %eax
	movswl	UseDefaultScalingMatrix4x4Flag+4, %ecx
	cmpl	$0, %ecx
	je	.LBB12_57
# %bb.56:                               # %cond.true396
                                        #   in Loop: Header=BB12_39 Depth=3
	movslq	-48(%rbp), %rcx
	movswl	Quant_intra_default(,%rcx,2), %ecx
	jmp	.LBB12_58
.LBB12_57:                              # %cond.false400
                                        #   in Loop: Header=BB12_39 Depth=3
	movslq	-48(%rbp), %rcx
	movswl	ScalingList4x4+64(,%rcx,2), %ecx
.LBB12_58:                              # %cond.end404
                                        #   in Loop: Header=BB12_39 Depth=3
	movabsq	$LevelScale4x4Chroma_Intra, %rsi
	addq	$384, %rsi              # imm = 0x180
	cltd
	idivl	%ecx
	movslq	-44(%rbp), %rcx
	shlq	$6, %rcx
	addq	%rcx, %rsi
	movslq	-40(%rbp), %rcx
	shlq	$4, %rcx
	addq	%rcx, %rsi
	movslq	-36(%rbp), %rcx
	movl	%eax, (%rsi,%rcx,4)
	movslq	-44(%rbp), %rax
	shlq	$6, %rax
	movabsq	$dequant_coef, %rcx
	addq	%rax, %rcx
	movslq	-40(%rbp), %rax
	shlq	$4, %rax
	addq	%rax, %rcx
	movslq	-36(%rbp), %rax
	movl	(%rcx,%rax,4), %eax
	movswl	UseDefaultScalingMatrix4x4Flag+4, %ecx
	cmpl	$0, %ecx
	je	.LBB12_60
# %bb.59:                               # %cond.true421
                                        #   in Loop: Header=BB12_39 Depth=3
	movslq	-48(%rbp), %rcx
	movswl	Quant_intra_default(,%rcx,2), %ecx
	jmp	.LBB12_61
.LBB12_60:                              # %cond.false425
                                        #   in Loop: Header=BB12_39 Depth=3
	movslq	-48(%rbp), %rcx
	movswl	ScalingList4x4+64(,%rcx,2), %ecx
.LBB12_61:                              # %cond.end429
                                        #   in Loop: Header=BB12_39 Depth=3
	movabsq	$InvLevelScale4x4Chroma_Intra, %rdx
	addq	$384, %rdx              # imm = 0x180
	imull	%ecx, %eax
	movslq	-44(%rbp), %rcx
	shlq	$6, %rcx
	addq	%rcx, %rdx
	movslq	-40(%rbp), %rcx
	shlq	$4, %rcx
	addq	%rcx, %rdx
	movslq	-36(%rbp), %rcx
	movl	%eax, (%rdx,%rcx,4)
.LBB12_62:                              # %if.end438
                                        #   in Loop: Header=BB12_39 Depth=3
	cmpl	$0, -68(%rbp)
	je	.LBB12_64
# %bb.63:                               # %lor.lhs.false441
                                        #   in Loop: Header=BB12_39 Depth=3
	movswl	UseDefaultScalingMatrix4x4Flag+6, %eax
	cmpl	$0, %eax
	je	.LBB12_65
.LBB12_64:                              # %if.then444
                                        #   in Loop: Header=BB12_39 Depth=3
	movslq	-44(%rbp), %rax
	shlq	$6, %rax
	movabsq	$quant_coef, %rcx
	addq	%rax, %rcx
	movslq	-40(%rbp), %rax
	shlq	$4, %rax
	addq	%rax, %rcx
	movslq	-36(%rbp), %rax
	movl	(%rcx,%rax,4), %eax
	shll	$4, %eax
	movslq	-48(%rbp), %rcx
	movswl	Quant_inter_default(,%rcx,2), %ecx
	cltd
	idivl	%ecx
	movslq	-44(%rbp), %rcx
	shlq	$6, %rcx
	movabsq	$LevelScale4x4Luma_Inter, %rdx
	addq	%rcx, %rdx
	movslq	-40(%rbp), %rcx
	shlq	$4, %rcx
	addq	%rcx, %rdx
	movslq	-36(%rbp), %rcx
	movl	%eax, (%rdx,%rcx,4)
	movslq	-44(%rbp), %rax
	shlq	$6, %rax
	movabsq	$dequant_coef, %rcx
	addq	%rax, %rcx
	movslq	-40(%rbp), %rax
	shlq	$4, %rax
	addq	%rax, %rcx
	movslq	-36(%rbp), %rax
	movl	(%rcx,%rax,4), %eax
	movslq	-48(%rbp), %rcx
	movswl	Quant_inter_default(,%rcx,2), %ecx
	imull	%ecx, %eax
	movslq	-44(%rbp), %rcx
	shlq	$6, %rcx
	movabsq	$InvLevelScale4x4Luma_Inter, %rdx
	addq	%rcx, %rdx
	movslq	-40(%rbp), %rcx
	shlq	$4, %rcx
	addq	%rcx, %rdx
	movslq	-36(%rbp), %rcx
	movl	%eax, (%rdx,%rcx,4)
	jmp	.LBB12_66
.LBB12_65:                              # %if.else478
                                        #   in Loop: Header=BB12_39 Depth=3
	movslq	-44(%rbp), %rax
	shlq	$6, %rax
	movabsq	$quant_coef, %rcx
	addq	%rax, %rcx
	movslq	-40(%rbp), %rax
	shlq	$4, %rax
	addq	%rax, %rcx
	movslq	-36(%rbp), %rax
	movl	(%rcx,%rax,4), %eax
	shll	$4, %eax
	movslq	-48(%rbp), %rcx
	movswl	ScalingList4x4+96(,%rcx,2), %ecx
	cltd
	idivl	%ecx
	movslq	-44(%rbp), %rcx
	shlq	$6, %rcx
	movabsq	$LevelScale4x4Luma_Inter, %rdx
	addq	%rcx, %rdx
	movslq	-40(%rbp), %rcx
	shlq	$4, %rcx
	addq	%rcx, %rdx
	movslq	-36(%rbp), %rcx
	movl	%eax, (%rdx,%rcx,4)
	movslq	-44(%rbp), %rax
	shlq	$6, %rax
	movabsq	$dequant_coef, %rcx
	addq	%rax, %rcx
	movslq	-40(%rbp), %rax
	shlq	$4, %rax
	addq	%rax, %rcx
	movslq	-36(%rbp), %rax
	movl	(%rcx,%rax,4), %eax
	movslq	-48(%rbp), %rcx
	movswl	ScalingList4x4+96(,%rcx,2), %ecx
	imull	%ecx, %eax
	movslq	-44(%rbp), %rcx
	shlq	$6, %rcx
	movabsq	$InvLevelScale4x4Luma_Inter, %rdx
	addq	%rcx, %rdx
	movslq	-40(%rbp), %rcx
	shlq	$4, %rcx
	addq	%rcx, %rdx
	movslq	-36(%rbp), %rcx
	movl	%eax, (%rdx,%rcx,4)
.LBB12_66:                              # %if.end512
                                        #   in Loop: Header=BB12_39 Depth=3
	cmpl	$0, -64(%rbp)
	jne	.LBB12_68
# %bb.67:                               # %if.then515
                                        #   in Loop: Header=BB12_39 Depth=3
	movslq	-44(%rbp), %rax
	shlq	$6, %rax
	movabsq	$LevelScale4x4Luma_Inter, %rcx
	addq	%rax, %rcx
	movslq	-40(%rbp), %rax
	shlq	$4, %rax
	addq	%rax, %rcx
	movslq	-36(%rbp), %rax
	movl	(%rcx,%rax,4), %eax
	movslq	-44(%rbp), %rcx
	shlq	$6, %rcx
	movabsq	$LevelScale4x4Chroma_Inter, %rdx
	addq	%rcx, %rdx
	movslq	-40(%rbp), %rcx
	shlq	$4, %rcx
	addq	%rcx, %rdx
	movslq	-36(%rbp), %rcx
	movl	%eax, (%rdx,%rcx,4)
	movslq	-44(%rbp), %rax
	shlq	$6, %rax
	movabsq	$InvLevelScale4x4Luma_Inter, %rcx
	addq	%rax, %rcx
	movslq	-40(%rbp), %rax
	shlq	$4, %rax
	addq	%rax, %rcx
	movslq	-36(%rbp), %rax
	movl	(%rcx,%rax,4), %eax
	movslq	-44(%rbp), %rcx
	shlq	$6, %rcx
	movabsq	$InvLevelScale4x4Chroma_Inter, %rdx
	addq	%rcx, %rdx
	movslq	-40(%rbp), %rcx
	shlq	$4, %rcx
	addq	%rcx, %rdx
	movslq	-36(%rbp), %rcx
	movl	%eax, (%rdx,%rcx,4)
	jmp	.LBB12_75
.LBB12_68:                              # %if.else540
                                        #   in Loop: Header=BB12_39 Depth=3
	movslq	-44(%rbp), %rax
	shlq	$6, %rax
	movabsq	$quant_coef, %rcx
	addq	%rax, %rcx
	movslq	-40(%rbp), %rax
	shlq	$4, %rax
	addq	%rax, %rcx
	movslq	-36(%rbp), %rax
	movl	(%rcx,%rax,4), %eax
	shll	$4, %eax
	movswl	UseDefaultScalingMatrix4x4Flag+8, %ecx
	cmpl	$0, %ecx
	je	.LBB12_70
# %bb.69:                               # %cond.true550
                                        #   in Loop: Header=BB12_39 Depth=3
	movslq	-48(%rbp), %rcx
	movswl	Quant_inter_default(,%rcx,2), %ecx
	jmp	.LBB12_71
.LBB12_70:                              # %cond.false554
                                        #   in Loop: Header=BB12_39 Depth=3
	movslq	-48(%rbp), %rcx
	movswl	ScalingList4x4+128(,%rcx,2), %ecx
.LBB12_71:                              # %cond.end558
                                        #   in Loop: Header=BB12_39 Depth=3
	cltd
	idivl	%ecx
	movslq	-44(%rbp), %rcx
	shlq	$6, %rcx
	movabsq	$LevelScale4x4Chroma_Inter, %rdx
	addq	%rcx, %rdx
	movslq	-40(%rbp), %rcx
	shlq	$4, %rcx
	addq	%rcx, %rdx
	movslq	-36(%rbp), %rcx
	movl	%eax, (%rdx,%rcx,4)
	movslq	-44(%rbp), %rax
	shlq	$6, %rax
	movabsq	$dequant_coef, %rcx
	addq	%rax, %rcx
	movslq	-40(%rbp), %rax
	shlq	$4, %rax
	addq	%rax, %rcx
	movslq	-36(%rbp), %rax
	movl	(%rcx,%rax,4), %eax
	movswl	UseDefaultScalingMatrix4x4Flag+8, %ecx
	cmpl	$0, %ecx
	je	.LBB12_73
# %bb.72:                               # %cond.true575
                                        #   in Loop: Header=BB12_39 Depth=3
	movslq	-48(%rbp), %rcx
	movswl	Quant_inter_default(,%rcx,2), %ecx
	jmp	.LBB12_74
.LBB12_73:                              # %cond.false579
                                        #   in Loop: Header=BB12_39 Depth=3
	movslq	-48(%rbp), %rcx
	movswl	ScalingList4x4+128(,%rcx,2), %ecx
.LBB12_74:                              # %cond.end583
                                        #   in Loop: Header=BB12_39 Depth=3
	imull	%ecx, %eax
	movslq	-44(%rbp), %rcx
	shlq	$6, %rcx
	movabsq	$InvLevelScale4x4Chroma_Inter, %rdx
	addq	%rcx, %rdx
	movslq	-40(%rbp), %rcx
	shlq	$4, %rcx
	addq	%rcx, %rdx
	movslq	-36(%rbp), %rcx
	movl	%eax, (%rdx,%rcx,4)
.LBB12_75:                              # %if.end592
                                        #   in Loop: Header=BB12_39 Depth=3
	cmpl	$0, -60(%rbp)
	jne	.LBB12_77
# %bb.76:                               # %if.then595
                                        #   in Loop: Header=BB12_39 Depth=3
	movabsq	$InvLevelScale4x4Chroma_Inter, %rcx
	movq	%rcx, %rax
	addq	$384, %rax              # imm = 0x180
	movabsq	$LevelScale4x4Chroma_Inter, %rdx
	movq	%rdx, %rsi
	addq	$384, %rsi              # imm = 0x180
	movslq	-44(%rbp), %rdi
	shlq	$6, %rdi
	addq	%rdi, %rdx
	movslq	-40(%rbp), %rdi
	shlq	$4, %rdi
	addq	%rdi, %rdx
	movslq	-36(%rbp), %rdi
	movl	(%rdx,%rdi,4), %edx
	movslq	-44(%rbp), %rdi
	shlq	$6, %rdi
	addq	%rdi, %rsi
	movslq	-40(%rbp), %rdi
	shlq	$4, %rdi
	addq	%rdi, %rsi
	movslq	-36(%rbp), %rdi
	movl	%edx, (%rsi,%rdi,4)
	movslq	-44(%rbp), %rdx
	shlq	$6, %rdx
	addq	%rdx, %rcx
	movslq	-40(%rbp), %rdx
	shlq	$4, %rdx
	addq	%rdx, %rcx
	movslq	-36(%rbp), %rdx
	movl	(%rcx,%rdx,4), %ecx
	movslq	-44(%rbp), %rdx
	shlq	$6, %rdx
	addq	%rdx, %rax
	movslq	-40(%rbp), %rdx
	shlq	$4, %rdx
	addq	%rdx, %rax
	movslq	-36(%rbp), %rdx
	movl	%ecx, (%rax,%rdx,4)
	jmp	.LBB12_84
.LBB12_77:                              # %if.else620
                                        #   in Loop: Header=BB12_39 Depth=3
	movslq	-44(%rbp), %rax
	shlq	$6, %rax
	movabsq	$quant_coef, %rcx
	addq	%rax, %rcx
	movslq	-40(%rbp), %rax
	shlq	$4, %rax
	addq	%rax, %rcx
	movslq	-36(%rbp), %rax
	movl	(%rcx,%rax,4), %eax
	shll	$4, %eax
	movswl	UseDefaultScalingMatrix4x4Flag+10, %ecx
	cmpl	$0, %ecx
	je	.LBB12_79
# %bb.78:                               # %cond.true630
                                        #   in Loop: Header=BB12_39 Depth=3
	movslq	-48(%rbp), %rcx
	movswl	Quant_inter_default(,%rcx,2), %ecx
	jmp	.LBB12_80
.LBB12_79:                              # %cond.false634
                                        #   in Loop: Header=BB12_39 Depth=3
	movslq	-48(%rbp), %rcx
	movswl	ScalingList4x4+160(,%rcx,2), %ecx
.LBB12_80:                              # %cond.end638
                                        #   in Loop: Header=BB12_39 Depth=3
	movabsq	$LevelScale4x4Chroma_Inter, %rsi
	addq	$384, %rsi              # imm = 0x180
	cltd
	idivl	%ecx
	movslq	-44(%rbp), %rcx
	shlq	$6, %rcx
	addq	%rcx, %rsi
	movslq	-40(%rbp), %rcx
	shlq	$4, %rcx
	addq	%rcx, %rsi
	movslq	-36(%rbp), %rcx
	movl	%eax, (%rsi,%rcx,4)
	movslq	-44(%rbp), %rax
	shlq	$6, %rax
	movabsq	$dequant_coef, %rcx
	addq	%rax, %rcx
	movslq	-40(%rbp), %rax
	shlq	$4, %rax
	addq	%rax, %rcx
	movslq	-36(%rbp), %rax
	movl	(%rcx,%rax,4), %eax
	movswl	UseDefaultScalingMatrix4x4Flag+10, %ecx
	cmpl	$0, %ecx
	je	.LBB12_82
# %bb.81:                               # %cond.true655
                                        #   in Loop: Header=BB12_39 Depth=3
	movslq	-48(%rbp), %rcx
	movswl	Quant_inter_default(,%rcx,2), %ecx
	jmp	.LBB12_83
.LBB12_82:                              # %cond.false659
                                        #   in Loop: Header=BB12_39 Depth=3
	movslq	-48(%rbp), %rcx
	movswl	ScalingList4x4+160(,%rcx,2), %ecx
.LBB12_83:                              # %cond.end663
                                        #   in Loop: Header=BB12_39 Depth=3
	movabsq	$InvLevelScale4x4Chroma_Inter, %rdx
	addq	$384, %rdx              # imm = 0x180
	imull	%ecx, %eax
	movslq	-44(%rbp), %rcx
	shlq	$6, %rcx
	addq	%rcx, %rdx
	movslq	-40(%rbp), %rcx
	shlq	$4, %rcx
	addq	%rcx, %rdx
	movslq	-36(%rbp), %rcx
	movl	%eax, (%rdx,%rcx,4)
.LBB12_84:                              # %if.end672
                                        #   in Loop: Header=BB12_39 Depth=3
	jmp	.LBB12_85
.LBB12_85:                              # %for.inc673
                                        #   in Loop: Header=BB12_39 Depth=3
	movl	-36(%rbp), %eax
	addl	$1, %eax
	movl	%eax, -36(%rbp)
	jmp	.LBB12_39
.LBB12_86:                              # %for.end675
                                        #   in Loop: Header=BB12_37 Depth=2
	jmp	.LBB12_87
.LBB12_87:                              # %for.inc676
                                        #   in Loop: Header=BB12_37 Depth=2
	movl	-40(%rbp), %eax
	addl	$1, %eax
	movl	%eax, -40(%rbp)
	jmp	.LBB12_37
.LBB12_88:                              # %for.end678
                                        #   in Loop: Header=BB12_35 Depth=1
	jmp	.LBB12_89
.LBB12_89:                              # %for.inc679
                                        #   in Loop: Header=BB12_35 Depth=1
	movl	-44(%rbp), %eax
	addl	$1, %eax
	movl	%eax, -44(%rbp)
	jmp	.LBB12_35
.LBB12_90:                              # %for.end681
	jmp	.LBB12_91
.LBB12_91:                              # %if.end682
	cmpl	$1546597250, -56(%rbp)  # imm = 0x5C2F3382
	jne	.LBB12_93
.LBB12_92:
	addq	$48, %rsp
	popq	%rbx
	popq	%r12
	popq	%r14
	popq	%r15
	popq	%rbp
	.cfi_def_cfa %rsp, 8
	retq
.LBB12_93:                              # %func_exit
	.cfi_def_cfa %rbp, 16
	callq	detect_breach
	jmp	.LBB12_92
.Lfunc_end12:
	.size	CalculateQuantParam.7, .Lfunc_end12-CalculateQuantParam.7
	.cfi_endproc
                                        # -- End function
	.globl	CheckParameterName.8    # -- Begin function CheckParameterName.8
	.p2align	4, 0x90
	.type	CheckParameterName.8,@function
CheckParameterName.8:                   # @CheckParameterName.8
	.cfi_startproc
# %bb.0:                                # %entry
	pushq	%rbp
	.cfi_def_cfa_offset 16
	.cfi_offset %rbp, -16
	movq	%rsp, %rbp
	.cfi_def_cfa_register %rbp
	pushq	%rbx
	subq	$40, %rsp
	.cfi_offset %rbx, -24
	movl	$1269806162, -20(%rbp)  # imm = 0x4BAFB452
	movq	%rdi, -40(%rbp)
	movq	%rsi, -32(%rbp)
	movl	$0, -12(%rbp)
	movq	-32(%rbp), %rax
	movl	$0, (%rax)
.LBB13_1:                               # %while.cond
                                        # =>This Inner Loop Header: Depth=1
	xorl	%eax, %eax
	movslq	-12(%rbp), %rcx
	imulq	$20, %rcx, %rcx
	movabsq	$MatrixType4x4, %rdx
	addq	%rcx, %rdx
	cmpq	$0, %rdx
	je	.LBB13_3
# %bb.2:                                # %land.rhs
                                        #   in Loop: Header=BB13_1 Depth=1
	cmpl	$6, -12(%rbp)
	setl	%al
.LBB13_3:                               # %land.end
                                        #   in Loop: Header=BB13_1 Depth=1
	testb	$1, %al
	jne	.LBB13_4
	jmp	.LBB13_8
.LBB13_4:                               # %while.body
                                        #   in Loop: Header=BB13_1 Depth=1
	xorl	%ebx, %ebx
	movslq	-12(%rbp), %rax
	imulq	$20, %rax, %rax
	movabsq	$MatrixType4x4, %rdi
	addq	%rax, %rdi
	movq	-40(%rbp), %rsi
	callq	strcmp
	cmpl	%eax, %ebx
	jne	.LBB13_6
# %bb.5:                                # %if.then
	movl	-12(%rbp), %eax
	movl	%eax, -16(%rbp)
	jmp	.LBB13_17
.LBB13_6:                               # %if.else
                                        #   in Loop: Header=BB13_1 Depth=1
	movl	-12(%rbp), %eax
	addl	$1, %eax
	movl	%eax, -12(%rbp)
# %bb.7:                                # %if.end
                                        #   in Loop: Header=BB13_1 Depth=1
	jmp	.LBB13_1
.LBB13_8:                               # %while.end
	movl	$0, -12(%rbp)
	movq	-32(%rbp), %rax
	movl	$1, (%rax)
.LBB13_9:                               # %while.cond6
                                        # =>This Inner Loop Header: Depth=1
	xorl	%eax, %eax
	movslq	-12(%rbp), %rcx
	imulq	$20, %rcx, %rcx
	movabsq	$MatrixType8x8, %rdx
	addq	%rcx, %rdx
	cmpq	$0, %rdx
	je	.LBB13_11
# %bb.10:                               # %land.rhs11
                                        #   in Loop: Header=BB13_9 Depth=1
	cmpl	$2, -12(%rbp)
	setl	%al
.LBB13_11:                              # %land.end13
                                        #   in Loop: Header=BB13_9 Depth=1
	testb	$1, %al
	jne	.LBB13_12
	jmp	.LBB13_16
.LBB13_12:                              # %while.body14
                                        #   in Loop: Header=BB13_9 Depth=1
	xorl	%ebx, %ebx
	movslq	-12(%rbp), %rax
	imulq	$20, %rax, %rax
	movabsq	$MatrixType8x8, %rdi
	addq	%rax, %rdi
	movq	-40(%rbp), %rsi
	callq	strcmp
	cmpl	%eax, %ebx
	jne	.LBB13_14
# %bb.13:                               # %if.then20
	movl	-12(%rbp), %eax
	movl	%eax, -16(%rbp)
	jmp	.LBB13_17
.LBB13_14:                              # %if.else21
                                        #   in Loop: Header=BB13_9 Depth=1
	movl	-12(%rbp), %eax
	addl	$1, %eax
	movl	%eax, -12(%rbp)
# %bb.15:                               # %if.end23
                                        #   in Loop: Header=BB13_9 Depth=1
	jmp	.LBB13_9
.LBB13_16:                              # %while.end24
	movl	$-1, -16(%rbp)
.LBB13_17:                              # %return
	movl	-16(%rbp), %ebx
	cmpl	$1269806162, -20(%rbp)  # imm = 0x4BAFB452
	jne	.LBB13_19
.LBB13_18:
	movl	%ebx, %eax
	addq	$40, %rsp
	popq	%rbx
	popq	%rbp
	.cfi_def_cfa %rsp, 8
	retq
.LBB13_19:                              # %func_exit
	.cfi_def_cfa %rbp, 16
	callq	detect_breach
	jmp	.LBB13_18
.Lfunc_end13:
	.size	CheckParameterName.8, .Lfunc_end13-CheckParameterName.8
	.cfi_endproc
                                        # -- End function
	.globl	ParseMatrix.9           # -- Begin function ParseMatrix.9
	.p2align	4, 0x90
	.type	ParseMatrix.9,@function
ParseMatrix.9:                          # @ParseMatrix.9
	.cfi_startproc
# %bb.0:                                # %entry
	pushq	%rbp
	.cfi_def_cfa_offset 16
	.cfi_offset %rbp, -16
	movq	%rsp, %rbp
	.cfi_def_cfa_register %rbp
	subq	$8096, %rsp             # imm = 0x1FA0
	movl	$1037890322, -52(%rbp)  # imm = 0x3DDCF312
	movq	%rdi, -88(%rbp)
	movl	%esi, -56(%rbp)
	movl	$0, -28(%rbp)
	movl	$0, -36(%rbp)
	movl	$0, -20(%rbp)
	movq	-88(%rbp), %rax
	movq	%rax, -16(%rbp)
	movq	-88(%rbp), %rax
	movslq	-56(%rbp), %rcx
	addq	%rcx, %rax
	movq	%rax, -80(%rbp)
.LBB14_1:                               # %while.cond
                                        # =>This Loop Header: Depth=1
                                        #     Child Loop BB14_6 Depth 2
	movq	-16(%rbp), %rax
	cmpq	-80(%rbp), %rax
	jae	.LBB14_25
# %bb.2:                                # %while.body
                                        #   in Loop: Header=BB14_1 Depth=1
	movq	-16(%rbp), %rax
	movsbl	(%rax), %eax
	addl	$-9, %eax
	movl	%eax, %ecx
	subl	$35, %ecx
	ja	.LBB14_21
# %bb.3:                                # %while.body
                                        #   in Loop: Header=BB14_1 Depth=1
	movq	.LJTI14_0(,%rax,8), %rax
	jmpq	*%rax
.LBB14_4:                               # %sw.bb
                                        #   in Loop: Header=BB14_1 Depth=1
	movq	-16(%rbp), %rax
	addq	$1, %rax
	movq	%rax, -16(%rbp)
	jmp	.LBB14_24
.LBB14_5:                               # %sw.bb1
                                        #   in Loop: Header=BB14_1 Depth=1
	movq	-16(%rbp), %rax
	movb	$0, (%rax)
.LBB14_6:                               # %while.cond2
                                        #   Parent Loop BB14_1 Depth=1
                                        # =>  This Inner Loop Header: Depth=2
	xorl	%eax, %eax
	movq	-16(%rbp), %rcx
	movsbl	(%rcx), %ecx
	cmpl	$10, %ecx
	je	.LBB14_8
# %bb.7:                                # %land.rhs
                                        #   in Loop: Header=BB14_6 Depth=2
	movq	-16(%rbp), %rax
	cmpq	-80(%rbp), %rax
	setb	%al
.LBB14_8:                               # %land.end
                                        #   in Loop: Header=BB14_6 Depth=2
	testb	$1, %al
	jne	.LBB14_9
	jmp	.LBB14_10
.LBB14_9:                               # %while.body8
                                        #   in Loop: Header=BB14_6 Depth=2
	movq	-16(%rbp), %rax
	addq	$1, %rax
	movq	%rax, -16(%rbp)
	jmp	.LBB14_6
.LBB14_10:                              # %while.end
                                        #   in Loop: Header=BB14_1 Depth=1
	movl	$0, -36(%rbp)
	movl	$0, -20(%rbp)
	jmp	.LBB14_24
.LBB14_11:                              # %sw.bb10
                                        #   in Loop: Header=BB14_1 Depth=1
	movl	$0, -20(%rbp)
	movl	$0, -36(%rbp)
	movq	-16(%rbp), %rax
	movq	%rax, %rcx
	addq	$1, %rcx
	movq	%rcx, -16(%rbp)
	movb	$0, (%rax)
	jmp	.LBB14_24
.LBB14_12:                              # %sw.bb12
                                        #   in Loop: Header=BB14_1 Depth=1
	cmpl	$0, -36(%rbp)
	je	.LBB14_14
# %bb.13:                               # %if.then
                                        #   in Loop: Header=BB14_1 Depth=1
	movq	-16(%rbp), %rax
	addq	$1, %rax
	movq	%rax, -16(%rbp)
	jmp	.LBB14_15
.LBB14_14:                              # %if.else
                                        #   in Loop: Header=BB14_1 Depth=1
	movq	-16(%rbp), %rax
	movq	%rax, %rcx
	addq	$1, %rcx
	movq	%rcx, -16(%rbp)
	movb	$0, (%rax)
	movl	$0, -20(%rbp)
.LBB14_15:                              # %if.end
                                        #   in Loop: Header=BB14_1 Depth=1
	jmp	.LBB14_24
.LBB14_16:                              # %sw.bb15
                                        #   in Loop: Header=BB14_1 Depth=1
	movq	-16(%rbp), %rax
	movq	%rax, %rcx
	addq	$1, %rcx
	movq	%rcx, -16(%rbp)
	movb	$0, (%rax)
	cmpl	$0, -36(%rbp)
	jne	.LBB14_18
# %bb.17:                               # %if.then18
                                        #   in Loop: Header=BB14_1 Depth=1
	movq	-16(%rbp), %rax
	movl	-28(%rbp), %ecx
	movl	%ecx, %edx
	addl	$1, %edx
	movl	%edx, -28(%rbp)
	movslq	%ecx, %rcx
	movq	%rax, -8096(%rbp,%rcx,8)
	movl	-20(%rbp), %eax
	xorl	$-1, %eax
	movl	%eax, -20(%rbp)
	jmp	.LBB14_19
.LBB14_18:                              # %if.else21
                                        #   in Loop: Header=BB14_1 Depth=1
	movl	$0, -20(%rbp)
.LBB14_19:                              # %if.end22
                                        #   in Loop: Header=BB14_1 Depth=1
	movl	-36(%rbp), %eax
	xorl	$-1, %eax
	movl	%eax, -36(%rbp)
	jmp	.LBB14_24
.LBB14_20:                              # %sw.bb24
                                        #   in Loop: Header=BB14_1 Depth=1
	movq	-16(%rbp), %rax
	addq	$1, %rax
	movq	%rax, -16(%rbp)
	movl	$0, -20(%rbp)
	jmp	.LBB14_24
.LBB14_21:                              # %sw.default
                                        #   in Loop: Header=BB14_1 Depth=1
	cmpl	$0, -20(%rbp)
	jne	.LBB14_23
# %bb.22:                               # %if.then27
                                        #   in Loop: Header=BB14_1 Depth=1
	movq	-16(%rbp), %rax
	movl	-28(%rbp), %ecx
	movl	%ecx, %edx
	addl	$1, %edx
	movl	%edx, -28(%rbp)
	movslq	%ecx, %rcx
	movq	%rax, -8096(%rbp,%rcx,8)
	movl	-20(%rbp), %eax
	xorl	$-1, %eax
	movl	%eax, -20(%rbp)
.LBB14_23:                              # %if.end32
                                        #   in Loop: Header=BB14_1 Depth=1
	movq	-16(%rbp), %rax
	addq	$1, %rax
	movq	%rax, -16(%rbp)
.LBB14_24:                              # %sw.epilog
                                        #   in Loop: Header=BB14_1 Depth=1
	jmp	.LBB14_1
.LBB14_25:                              # %while.end34
	movl	-28(%rbp), %eax
	addl	$-1, %eax
	movl	%eax, -28(%rbp)
	movl	$0, -24(%rbp)
.LBB14_26:                              # %for.cond
                                        # =>This Loop Header: Depth=1
                                        #     Child Loop BB14_35 Depth 2
	movl	-24(%rbp), %eax
	cmpl	-28(%rbp), %eax
	jge	.LBB14_42
# %bb.27:                               # %for.body
                                        #   in Loop: Header=BB14_26 Depth=1
	movl	$0, -4(%rbp)
	movl	-24(%rbp), %eax
	addl	-4(%rbp), %eax
	cltq
	movq	-8096(%rbp,%rax,8), %rdi
	leaq	-48(%rbp), %rsi
	callq	CheckParameterName
	xorl	%ecx, %ecx
	movl	%eax, -40(%rbp)
	cmpl	%eax, %ecx
	jle	.LBB14_29
# %bb.28:                               # %if.then41
                                        #   in Loop: Header=BB14_26 Depth=1
	movl	-24(%rbp), %eax
	addl	-4(%rbp), %eax
	cltq
	movq	-8096(%rbp,%rax,8), %rcx
	movabsq	$errortext, %rdi
	movl	$300, %esi              # imm = 0x12C
	movabsq	$.L.str, %rdx
	movb	$0, %al
	callq	snprintf
	movabsq	$errortext, %rdi
	movl	$300, %esi              # imm = 0x12C
	callq	error
.LBB14_29:                              # %if.end46
                                        #   in Loop: Header=BB14_26 Depth=1
	movl	-4(%rbp), %eax
	addl	$1, %eax
	movl	%eax, -4(%rbp)
	movl	-24(%rbp), %eax
	addl	-4(%rbp), %eax
	cltq
	movq	-8096(%rbp,%rax,8), %rsi
	movl	$.L.str.1, %edi
	callq	strcmp
	cmpl	$0, %eax
	je	.LBB14_31
# %bb.30:                               # %if.then53
                                        #   in Loop: Header=BB14_26 Depth=1
	movabsq	$errortext, %rdi
	movl	$300, %esi              # imm = 0x12C
	movabsq	$.L.str.2, %rdx
	movb	$0, %al
	callq	snprintf
	movabsq	$errortext, %rdi
	movl	$300, %esi              # imm = 0x12C
	callq	error
.LBB14_31:                              # %if.end55
                                        #   in Loop: Header=BB14_26 Depth=1
	movl	-4(%rbp), %eax
	addl	$1, %eax
	movl	%eax, -4(%rbp)
	cmpl	$0, -48(%rbp)
	jne	.LBB14_33
# %bb.32:                               # %if.then58
                                        #   in Loop: Header=BB14_26 Depth=1
	movl	$16, -44(%rbp)
	movslq	-40(%rbp), %rax
	shlq	$5, %rax
	movabsq	$ScalingList4x4input, %rcx
	addq	%rax, %rcx
	movq	%rcx, -72(%rbp)
	movslq	-40(%rbp), %rax
	movl	$1, matrix4x4_check(,%rax,4)
	jmp	.LBB14_34
.LBB14_33:                              # %if.else63
                                        #   in Loop: Header=BB14_26 Depth=1
	movl	$64, -44(%rbp)
	movslq	-40(%rbp), %rax
	shlq	$7, %rax
	movabsq	$ScalingList8x8input, %rcx
	addq	%rax, %rcx
	movq	%rcx, -72(%rbp)
	movslq	-40(%rbp), %rax
	movl	$1, matrix8x8_check(,%rax,4)
.LBB14_34:                              # %if.end69
                                        #   in Loop: Header=BB14_26 Depth=1
	movl	$0, -32(%rbp)
.LBB14_35:                              # %for.cond70
                                        #   Parent Loop BB14_26 Depth=1
                                        # =>  This Inner Loop Header: Depth=2
	movl	-32(%rbp), %eax
	cmpl	-44(%rbp), %eax
	jge	.LBB14_40
# %bb.36:                               # %for.body73
                                        #   in Loop: Header=BB14_35 Depth=2
	movl	-24(%rbp), %eax
	addl	-4(%rbp), %eax
	addl	-32(%rbp), %eax
	cltq
	movq	-8096(%rbp,%rax,8), %rdi
	movabsq	$.L.str.3, %rsi
	leaq	-60(%rbp), %rdx
	movb	$0, %al
	callq	__isoc99_sscanf
	movl	$1, %ecx
	cmpl	%eax, %ecx
	je	.LBB14_38
# %bb.37:                               # %if.then81
                                        #   in Loop: Header=BB14_35 Depth=2
	movslq	-24(%rbp), %rax
	movq	-8096(%rbp,%rax,8), %rcx
	movl	-24(%rbp), %eax
	addl	-4(%rbp), %eax
	addl	-32(%rbp), %eax
	cltq
	movq	-8096(%rbp,%rax,8), %r8
	movabsq	$errortext, %rdi
	movl	$300, %esi              # imm = 0x12C
	movabsq	$.L.str.4, %rdx
	movb	$0, %al
	callq	snprintf
	movabsq	$errortext, %rdi
	movl	$300, %esi              # imm = 0x12C
	callq	error
.LBB14_38:                              # %if.end89
                                        #   in Loop: Header=BB14_35 Depth=2
	movl	-60(%rbp), %eax
	movq	-72(%rbp), %rcx
	movslq	-32(%rbp), %rdx
	movw	%ax, (%rcx,%rdx,2)
# %bb.39:                               # %for.inc
                                        #   in Loop: Header=BB14_35 Depth=2
	movl	-32(%rbp), %eax
	addl	$1, %eax
	movl	%eax, -32(%rbp)
	jmp	.LBB14_35
.LBB14_40:                              # %for.end
                                        #   in Loop: Header=BB14_26 Depth=1
	movl	-32(%rbp), %eax
	addl	-4(%rbp), %eax
	movl	%eax, -4(%rbp)
	movabsq	$.L.str.5, %rdi
	movb	$0, %al
	callq	printf
# %bb.41:                               # %for.inc96
                                        #   in Loop: Header=BB14_26 Depth=1
	movl	-4(%rbp), %eax
	addl	-24(%rbp), %eax
	movl	%eax, -24(%rbp)
	jmp	.LBB14_26
.LBB14_42:                              # %for.end98
	cmpl	$1037890322, -52(%rbp)  # imm = 0x3DDCF312
	jne	.LBB14_44
.LBB14_43:
	addq	$8096, %rsp             # imm = 0x1FA0
	popq	%rbp
	.cfi_def_cfa %rsp, 8
	retq
.LBB14_44:                              # %func_exit
	.cfi_def_cfa %rbp, 16
	callq	detect_breach
	jmp	.LBB14_43
.Lfunc_end14:
	.size	ParseMatrix.9, .Lfunc_end14-ParseMatrix.9
	.cfi_endproc
	.section	.rodata,"a",@progbits
	.p2align	3
.LJTI14_0:
	.quad	.LBB14_12
	.quad	.LBB14_11
	.quad	.LBB14_21
	.quad	.LBB14_21
	.quad	.LBB14_4
	.quad	.LBB14_21
	.quad	.LBB14_21
	.quad	.LBB14_21
	.quad	.LBB14_21
	.quad	.LBB14_21
	.quad	.LBB14_21
	.quad	.LBB14_21
	.quad	.LBB14_21
	.quad	.LBB14_21
	.quad	.LBB14_21
	.quad	.LBB14_21
	.quad	.LBB14_21
	.quad	.LBB14_21
	.quad	.LBB14_21
	.quad	.LBB14_21
	.quad	.LBB14_21
	.quad	.LBB14_21
	.quad	.LBB14_21
	.quad	.LBB14_12
	.quad	.LBB14_21
	.quad	.LBB14_16
	.quad	.LBB14_5
	.quad	.LBB14_21
	.quad	.LBB14_21
	.quad	.LBB14_21
	.quad	.LBB14_21
	.quad	.LBB14_21
	.quad	.LBB14_21
	.quad	.LBB14_21
	.quad	.LBB14_21
	.quad	.LBB14_20
                                        # -- End function
	.text
	.globl	ParseMatrix.10          # -- Begin function ParseMatrix.10
	.p2align	4, 0x90
	.type	ParseMatrix.10,@function
ParseMatrix.10:                         # @ParseMatrix.10
	.cfi_startproc
# %bb.0:                                # %entry
	pushq	%rbp
	.cfi_def_cfa_offset 16
	.cfi_offset %rbp, -16
	movq	%rsp, %rbp
	.cfi_def_cfa_register %rbp
	subq	$8096, %rsp             # imm = 0x1FA0
	movl	$192402910, -56(%rbp)   # imm = 0xB77D5DE
	movq	%rdi, -80(%rbp)
	movl	%esi, -52(%rbp)
	movl	$0, -32(%rbp)
	movl	$0, -36(%rbp)
	movl	$0, -20(%rbp)
	movq	-80(%rbp), %rax
	movq	%rax, -16(%rbp)
	movq	-80(%rbp), %rax
	movslq	-52(%rbp), %rcx
	addq	%rcx, %rax
	movq	%rax, -72(%rbp)
.LBB15_1:                               # %while.cond
                                        # =>This Loop Header: Depth=1
                                        #     Child Loop BB15_6 Depth 2
	movq	-16(%rbp), %rax
	cmpq	-72(%rbp), %rax
	jae	.LBB15_25
# %bb.2:                                # %while.body
                                        #   in Loop: Header=BB15_1 Depth=1
	movq	-16(%rbp), %rax
	movsbl	(%rax), %eax
	addl	$-9, %eax
	movl	%eax, %ecx
	subl	$35, %ecx
	ja	.LBB15_21
# %bb.3:                                # %while.body
                                        #   in Loop: Header=BB15_1 Depth=1
	movq	.LJTI15_0(,%rax,8), %rax
	jmpq	*%rax
.LBB15_4:                               # %sw.bb
                                        #   in Loop: Header=BB15_1 Depth=1
	movq	-16(%rbp), %rax
	addq	$1, %rax
	movq	%rax, -16(%rbp)
	jmp	.LBB15_24
.LBB15_5:                               # %sw.bb1
                                        #   in Loop: Header=BB15_1 Depth=1
	movq	-16(%rbp), %rax
	movb	$0, (%rax)
.LBB15_6:                               # %while.cond2
                                        #   Parent Loop BB15_1 Depth=1
                                        # =>  This Inner Loop Header: Depth=2
	xorl	%eax, %eax
	movq	-16(%rbp), %rcx
	movsbl	(%rcx), %ecx
	cmpl	$10, %ecx
	je	.LBB15_8
# %bb.7:                                # %land.rhs
                                        #   in Loop: Header=BB15_6 Depth=2
	movq	-16(%rbp), %rax
	cmpq	-72(%rbp), %rax
	setb	%al
.LBB15_8:                               # %land.end
                                        #   in Loop: Header=BB15_6 Depth=2
	testb	$1, %al
	jne	.LBB15_9
	jmp	.LBB15_10
.LBB15_9:                               # %while.body8
                                        #   in Loop: Header=BB15_6 Depth=2
	movq	-16(%rbp), %rax
	addq	$1, %rax
	movq	%rax, -16(%rbp)
	jmp	.LBB15_6
.LBB15_10:                              # %while.end
                                        #   in Loop: Header=BB15_1 Depth=1
	movl	$0, -36(%rbp)
	movl	$0, -20(%rbp)
	jmp	.LBB15_24
.LBB15_11:                              # %sw.bb10
                                        #   in Loop: Header=BB15_1 Depth=1
	movl	$0, -20(%rbp)
	movl	$0, -36(%rbp)
	movq	-16(%rbp), %rax
	movq	%rax, %rcx
	addq	$1, %rcx
	movq	%rcx, -16(%rbp)
	movb	$0, (%rax)
	jmp	.LBB15_24
.LBB15_12:                              # %sw.bb12
                                        #   in Loop: Header=BB15_1 Depth=1
	cmpl	$0, -36(%rbp)
	je	.LBB15_14
# %bb.13:                               # %if.then
                                        #   in Loop: Header=BB15_1 Depth=1
	movq	-16(%rbp), %rax
	addq	$1, %rax
	movq	%rax, -16(%rbp)
	jmp	.LBB15_15
.LBB15_14:                              # %if.else
                                        #   in Loop: Header=BB15_1 Depth=1
	movq	-16(%rbp), %rax
	movq	%rax, %rcx
	addq	$1, %rcx
	movq	%rcx, -16(%rbp)
	movb	$0, (%rax)
	movl	$0, -20(%rbp)
.LBB15_15:                              # %if.end
                                        #   in Loop: Header=BB15_1 Depth=1
	jmp	.LBB15_24
.LBB15_16:                              # %sw.bb15
                                        #   in Loop: Header=BB15_1 Depth=1
	movq	-16(%rbp), %rax
	movq	%rax, %rcx
	addq	$1, %rcx
	movq	%rcx, -16(%rbp)
	movb	$0, (%rax)
	cmpl	$0, -36(%rbp)
	jne	.LBB15_18
# %bb.17:                               # %if.then18
                                        #   in Loop: Header=BB15_1 Depth=1
	movq	-16(%rbp), %rax
	movl	-32(%rbp), %ecx
	movl	%ecx, %edx
	addl	$1, %edx
	movl	%edx, -32(%rbp)
	movslq	%ecx, %rcx
	movq	%rax, -8096(%rbp,%rcx,8)
	movl	-20(%rbp), %eax
	xorl	$-1, %eax
	movl	%eax, -20(%rbp)
	jmp	.LBB15_19
.LBB15_18:                              # %if.else21
                                        #   in Loop: Header=BB15_1 Depth=1
	movl	$0, -20(%rbp)
.LBB15_19:                              # %if.end22
                                        #   in Loop: Header=BB15_1 Depth=1
	movl	-36(%rbp), %eax
	xorl	$-1, %eax
	movl	%eax, -36(%rbp)
	jmp	.LBB15_24
.LBB15_20:                              # %sw.bb24
                                        #   in Loop: Header=BB15_1 Depth=1
	movq	-16(%rbp), %rax
	addq	$1, %rax
	movq	%rax, -16(%rbp)
	movl	$0, -20(%rbp)
	jmp	.LBB15_24
.LBB15_21:                              # %sw.default
                                        #   in Loop: Header=BB15_1 Depth=1
	cmpl	$0, -20(%rbp)
	jne	.LBB15_23
# %bb.22:                               # %if.then27
                                        #   in Loop: Header=BB15_1 Depth=1
	movq	-16(%rbp), %rax
	movl	-32(%rbp), %ecx
	movl	%ecx, %edx
	addl	$1, %edx
	movl	%edx, -32(%rbp)
	movslq	%ecx, %rcx
	movq	%rax, -8096(%rbp,%rcx,8)
	movl	-20(%rbp), %eax
	xorl	$-1, %eax
	movl	%eax, -20(%rbp)
.LBB15_23:                              # %if.end32
                                        #   in Loop: Header=BB15_1 Depth=1
	movq	-16(%rbp), %rax
	addq	$1, %rax
	movq	%rax, -16(%rbp)
.LBB15_24:                              # %sw.epilog
                                        #   in Loop: Header=BB15_1 Depth=1
	jmp	.LBB15_1
.LBB15_25:                              # %while.end34
	movl	-32(%rbp), %eax
	addl	$-1, %eax
	movl	%eax, -32(%rbp)
	movl	$0, -24(%rbp)
.LBB15_26:                              # %for.cond
                                        # =>This Loop Header: Depth=1
                                        #     Child Loop BB15_35 Depth 2
	movl	-24(%rbp), %eax
	cmpl	-32(%rbp), %eax
	jge	.LBB15_42
# %bb.27:                               # %for.body
                                        #   in Loop: Header=BB15_26 Depth=1
	movl	$0, -4(%rbp)
	movl	-24(%rbp), %eax
	addl	-4(%rbp), %eax
	cltq
	movq	-8096(%rbp,%rax,8), %rdi
	leaq	-60(%rbp), %rsi
	callq	CheckParameterName
	xorl	%ecx, %ecx
	movl	%eax, -40(%rbp)
	cmpl	%eax, %ecx
	jle	.LBB15_29
# %bb.28:                               # %if.then41
                                        #   in Loop: Header=BB15_26 Depth=1
	movl	-24(%rbp), %eax
	addl	-4(%rbp), %eax
	cltq
	movq	-8096(%rbp,%rax,8), %rcx
	movabsq	$errortext, %rdi
	movl	$300, %esi              # imm = 0x12C
	movabsq	$.L.str, %rdx
	movb	$0, %al
	callq	snprintf
	movabsq	$errortext, %rdi
	movl	$300, %esi              # imm = 0x12C
	callq	error
.LBB15_29:                              # %if.end46
                                        #   in Loop: Header=BB15_26 Depth=1
	movl	-4(%rbp), %eax
	addl	$1, %eax
	movl	%eax, -4(%rbp)
	movl	-24(%rbp), %eax
	addl	-4(%rbp), %eax
	cltq
	movq	-8096(%rbp,%rax,8), %rsi
	movl	$.L.str.1, %edi
	callq	strcmp
	cmpl	$0, %eax
	je	.LBB15_31
# %bb.30:                               # %if.then53
                                        #   in Loop: Header=BB15_26 Depth=1
	movabsq	$errortext, %rdi
	movl	$300, %esi              # imm = 0x12C
	movabsq	$.L.str.2, %rdx
	movb	$0, %al
	callq	snprintf
	movabsq	$errortext, %rdi
	movl	$300, %esi              # imm = 0x12C
	callq	error
.LBB15_31:                              # %if.end55
                                        #   in Loop: Header=BB15_26 Depth=1
	movl	-4(%rbp), %eax
	addl	$1, %eax
	movl	%eax, -4(%rbp)
	cmpl	$0, -60(%rbp)
	jne	.LBB15_33
# %bb.32:                               # %if.then58
                                        #   in Loop: Header=BB15_26 Depth=1
	movl	$16, -44(%rbp)
	movslq	-40(%rbp), %rax
	shlq	$5, %rax
	movabsq	$ScalingList4x4input, %rcx
	addq	%rax, %rcx
	movq	%rcx, -88(%rbp)
	movslq	-40(%rbp), %rax
	movl	$1, matrix4x4_check(,%rax,4)
	jmp	.LBB15_34
.LBB15_33:                              # %if.else63
                                        #   in Loop: Header=BB15_26 Depth=1
	movl	$64, -44(%rbp)
	movslq	-40(%rbp), %rax
	shlq	$7, %rax
	movabsq	$ScalingList8x8input, %rcx
	addq	%rax, %rcx
	movq	%rcx, -88(%rbp)
	movslq	-40(%rbp), %rax
	movl	$1, matrix8x8_check(,%rax,4)
.LBB15_34:                              # %if.end69
                                        #   in Loop: Header=BB15_26 Depth=1
	movl	$0, -28(%rbp)
.LBB15_35:                              # %for.cond70
                                        #   Parent Loop BB15_26 Depth=1
                                        # =>  This Inner Loop Header: Depth=2
	movl	-28(%rbp), %eax
	cmpl	-44(%rbp), %eax
	jge	.LBB15_40
# %bb.36:                               # %for.body73
                                        #   in Loop: Header=BB15_35 Depth=2
	movl	-24(%rbp), %eax
	addl	-4(%rbp), %eax
	addl	-28(%rbp), %eax
	cltq
	movq	-8096(%rbp,%rax,8), %rdi
	movabsq	$.L.str.3, %rsi
	leaq	-48(%rbp), %rdx
	movb	$0, %al
	callq	__isoc99_sscanf
	movl	$1, %ecx
	cmpl	%eax, %ecx
	je	.LBB15_38
# %bb.37:                               # %if.then81
                                        #   in Loop: Header=BB15_35 Depth=2
	movslq	-24(%rbp), %rax
	movq	-8096(%rbp,%rax,8), %rcx
	movl	-24(%rbp), %eax
	addl	-4(%rbp), %eax
	addl	-28(%rbp), %eax
	cltq
	movq	-8096(%rbp,%rax,8), %r8
	movabsq	$errortext, %rdi
	movl	$300, %esi              # imm = 0x12C
	movabsq	$.L.str.4, %rdx
	movb	$0, %al
	callq	snprintf
	movabsq	$errortext, %rdi
	movl	$300, %esi              # imm = 0x12C
	callq	error
.LBB15_38:                              # %if.end89
                                        #   in Loop: Header=BB15_35 Depth=2
	movl	-48(%rbp), %eax
	movq	-88(%rbp), %rcx
	movslq	-28(%rbp), %rdx
	movw	%ax, (%rcx,%rdx,2)
# %bb.39:                               # %for.inc
                                        #   in Loop: Header=BB15_35 Depth=2
	movl	-28(%rbp), %eax
	addl	$1, %eax
	movl	%eax, -28(%rbp)
	jmp	.LBB15_35
.LBB15_40:                              # %for.end
                                        #   in Loop: Header=BB15_26 Depth=1
	movl	-28(%rbp), %eax
	addl	-4(%rbp), %eax
	movl	%eax, -4(%rbp)
	movabsq	$.L.str.5, %rdi
	movb	$0, %al
	callq	printf
# %bb.41:                               # %for.inc96
                                        #   in Loop: Header=BB15_26 Depth=1
	movl	-4(%rbp), %eax
	addl	-24(%rbp), %eax
	movl	%eax, -24(%rbp)
	jmp	.LBB15_26
.LBB15_42:                              # %for.end98
	cmpl	$192402910, -56(%rbp)   # imm = 0xB77D5DE
	jne	.LBB15_44
.LBB15_43:
	addq	$8096, %rsp             # imm = 0x1FA0
	popq	%rbp
	.cfi_def_cfa %rsp, 8
	retq
.LBB15_44:                              # %func_exit
	.cfi_def_cfa %rbp, 16
	callq	detect_breach
	jmp	.LBB15_43
.Lfunc_end15:
	.size	ParseMatrix.10, .Lfunc_end15-ParseMatrix.10
	.cfi_endproc
	.section	.rodata,"a",@progbits
	.p2align	3
.LJTI15_0:
	.quad	.LBB15_12
	.quad	.LBB15_11
	.quad	.LBB15_21
	.quad	.LBB15_21
	.quad	.LBB15_4
	.quad	.LBB15_21
	.quad	.LBB15_21
	.quad	.LBB15_21
	.quad	.LBB15_21
	.quad	.LBB15_21
	.quad	.LBB15_21
	.quad	.LBB15_21
	.quad	.LBB15_21
	.quad	.LBB15_21
	.quad	.LBB15_21
	.quad	.LBB15_21
	.quad	.LBB15_21
	.quad	.LBB15_21
	.quad	.LBB15_21
	.quad	.LBB15_21
	.quad	.LBB15_21
	.quad	.LBB15_21
	.quad	.LBB15_21
	.quad	.LBB15_12
	.quad	.LBB15_21
	.quad	.LBB15_16
	.quad	.LBB15_5
	.quad	.LBB15_21
	.quad	.LBB15_21
	.quad	.LBB15_21
	.quad	.LBB15_21
	.quad	.LBB15_21
	.quad	.LBB15_21
	.quad	.LBB15_21
	.quad	.LBB15_21
	.quad	.LBB15_20
                                        # -- End function
	.text
	.globl	CalculateQuantParam.11  # -- Begin function CalculateQuantParam.11
	.p2align	4, 0x90
	.type	CalculateQuantParam.11,@function
CalculateQuantParam.11:                 # @CalculateQuantParam.11
	.cfi_startproc
# %bb.0:                                # %entry
	pushq	%rbp
	.cfi_def_cfa_offset 16
	.cfi_offset %rbp, -16
	movq	%rsp, %rbp
	.cfi_def_cfa_register %rbp
	pushq	%r15
	pushq	%r14
	pushq	%r12
	pushq	%rbx
	subq	$48, %rsp
	.cfi_offset %rbx, -48
	.cfi_offset %r12, -40
	.cfi_offset %r14, -32
	.cfi_offset %r15, -24
	movl	$1071162860, -56(%rbp)  # imm = 0x3FD8A5EC
	movl	$0, -52(%rbp)
	movq	active_sps, %rax
	cmpl	$0, 36(%rax)
	jne	.LBB16_3
# %bb.1:                                # %land.lhs.true
	movq	active_pps, %rax
	cmpl	$0, 20(%rax)
	jne	.LBB16_3
# %bb.2:                                # %if.then
	movl	$1, -52(%rbp)
	jmp	.LBB16_20
.LBB16_3:                               # %if.else
	leaq	-80(%rbp), %rdi
	xorl	%esi, %esi
	movl	$24, %edx
	callq	memset
	movq	active_sps, %rax
	cmpl	$0, 36(%rax)
	je	.LBB16_9
# %bb.4:                                # %if.then4
	movl	$0, -36(%rbp)
.LBB16_5:                               # %for.cond
                                        # =>This Inner Loop Header: Depth=1
	cmpl	$6, -36(%rbp)
	jge	.LBB16_8
# %bb.6:                                # %for.body
                                        #   in Loop: Header=BB16_5 Depth=1
	movq	active_sps, %rax
	movslq	-36(%rbp), %rcx
	movl	40(%rax,%rcx,4), %eax
	movslq	-36(%rbp), %rcx
	movl	%eax, -80(%rbp,%rcx,4)
# %bb.7:                                # %for.inc
                                        #   in Loop: Header=BB16_5 Depth=1
	movl	-36(%rbp), %eax
	addl	$1, %eax
	movl	%eax, -36(%rbp)
	jmp	.LBB16_5
.LBB16_8:                               # %for.end
	jmp	.LBB16_9
.LBB16_9:                               # %if.end
	movq	active_pps, %rax
	cmpl	$0, 20(%rax)
	je	.LBB16_19
# %bb.10:                               # %if.then9
	movl	$0, -36(%rbp)
.LBB16_11:                              # %for.cond10
                                        # =>This Inner Loop Header: Depth=1
	cmpl	$6, -36(%rbp)
	jge	.LBB16_18
# %bb.12:                               # %for.body12
                                        #   in Loop: Header=BB16_11 Depth=1
	cmpl	$0, -36(%rbp)
	je	.LBB16_14
# %bb.13:                               # %lor.lhs.false
                                        #   in Loop: Header=BB16_11 Depth=1
	cmpl	$3, -36(%rbp)
	jne	.LBB16_15
.LBB16_14:                              # %if.then15
                                        #   in Loop: Header=BB16_11 Depth=1
	movq	active_pps, %rax
	movslq	-36(%rbp), %rcx
	movl	24(%rax,%rcx,4), %eax
	movslq	-36(%rbp), %rcx
	orl	-80(%rbp,%rcx,4), %eax
	movl	%eax, -80(%rbp,%rcx,4)
	jmp	.LBB16_16
.LBB16_15:                              # %if.else20
                                        #   in Loop: Header=BB16_11 Depth=1
	movq	active_pps, %rax
	movslq	-36(%rbp), %rcx
	movl	24(%rax,%rcx,4), %eax
	movslq	-36(%rbp), %rcx
	movl	%eax, -80(%rbp,%rcx,4)
.LBB16_16:                              # %if.end26
                                        #   in Loop: Header=BB16_11 Depth=1
	jmp	.LBB16_17
.LBB16_17:                              # %for.inc27
                                        #   in Loop: Header=BB16_11 Depth=1
	movl	-36(%rbp), %eax
	addl	$1, %eax
	movl	%eax, -36(%rbp)
	jmp	.LBB16_11
.LBB16_18:                              # %for.end29
	jmp	.LBB16_19
.LBB16_19:                              # %if.end30
	jmp	.LBB16_20
.LBB16_20:                              # %if.end31
	cmpl	$1, -52(%rbp)
	jne	.LBB16_34
# %bb.21:                               # %if.then33
	movl	$0, -44(%rbp)
.LBB16_22:                              # %for.cond34
                                        # =>This Loop Header: Depth=1
                                        #     Child Loop BB16_24 Depth 2
                                        #       Child Loop BB16_26 Depth 3
	cmpl	$6, -44(%rbp)
	jge	.LBB16_33
# %bb.23:                               # %for.body36
                                        #   in Loop: Header=BB16_22 Depth=1
	movl	$0, -40(%rbp)
.LBB16_24:                              # %for.cond37
                                        #   Parent Loop BB16_22 Depth=1
                                        # =>  This Loop Header: Depth=2
                                        #       Child Loop BB16_26 Depth 3
	cmpl	$4, -40(%rbp)
	jge	.LBB16_31
# %bb.25:                               # %for.body39
                                        #   in Loop: Header=BB16_24 Depth=2
	movl	$0, -36(%rbp)
.LBB16_26:                              # %for.cond40
                                        #   Parent Loop BB16_22 Depth=1
                                        #     Parent Loop BB16_24 Depth=2
                                        # =>    This Inner Loop Header: Depth=3
	cmpl	$4, -36(%rbp)
	jge	.LBB16_29
# %bb.27:                               # %for.body42
                                        #   in Loop: Header=BB16_26 Depth=3
	movabsq	$InvLevelScale4x4Chroma_Inter, %r9
	movq	%r9, %r8
	addq	$384, %r8               # imm = 0x180
	movabsq	$LevelScale4x4Chroma_Inter, %r11
	movq	%r11, %r10
	addq	$384, %r10              # imm = 0x180
	movabsq	$InvLevelScale4x4Chroma_Intra, %rdx
	movq	%rdx, %r15
	addq	$384, %r15              # imm = 0x180
	movabsq	$LevelScale4x4Chroma_Intra, %rbx
	movq	%rbx, %rax
	addq	$384, %rax              # imm = 0x180
	movslq	-44(%rbp), %rdi
	shlq	$6, %rdi
	movabsq	$quant_coef, %r14
	movq	%r14, %rsi
	addq	%rdi, %rsi
	movslq	-40(%rbp), %rdi
	shlq	$4, %rdi
	addq	%rdi, %rsi
	movslq	-36(%rbp), %rdi
	movl	(%rsi,%rdi,4), %esi
	movslq	-44(%rbp), %rdi
	shlq	$6, %rdi
	movabsq	$LevelScale4x4Luma_Intra, %rcx
	addq	%rdi, %rcx
	movslq	-40(%rbp), %rdi
	shlq	$4, %rdi
	addq	%rdi, %rcx
	movslq	-36(%rbp), %rdi
	movl	%esi, (%rcx,%rdi,4)
	movslq	-44(%rbp), %rcx
	shlq	$6, %rcx
	movabsq	$dequant_coef, %r12
	movq	%r12, %rsi
	addq	%rcx, %rsi
	movslq	-40(%rbp), %rcx
	shlq	$4, %rcx
	addq	%rcx, %rsi
	movslq	-36(%rbp), %rcx
	movl	(%rsi,%rcx,4), %ecx
	shll	$4, %ecx
	movslq	-44(%rbp), %rsi
	shlq	$6, %rsi
	movabsq	$InvLevelScale4x4Luma_Intra, %rdi
	addq	%rsi, %rdi
	movslq	-40(%rbp), %rsi
	shlq	$4, %rsi
	addq	%rsi, %rdi
	movslq	-36(%rbp), %rsi
	movl	%ecx, (%rdi,%rsi,4)
	movslq	-44(%rbp), %rcx
	shlq	$6, %rcx
	movq	%r14, %rsi
	addq	%rcx, %rsi
	movslq	-40(%rbp), %rcx
	shlq	$4, %rcx
	addq	%rcx, %rsi
	movslq	-36(%rbp), %rcx
	movl	(%rsi,%rcx,4), %ecx
	movslq	-44(%rbp), %rsi
	shlq	$6, %rsi
	addq	%rsi, %rbx
	movslq	-40(%rbp), %rsi
	shlq	$4, %rsi
	addq	%rsi, %rbx
	movslq	-36(%rbp), %rsi
	movl	%ecx, (%rbx,%rsi,4)
	movslq	-44(%rbp), %rcx
	shlq	$6, %rcx
	movq	%r12, %rsi
	addq	%rcx, %rsi
	movslq	-40(%rbp), %rcx
	shlq	$4, %rcx
	addq	%rcx, %rsi
	movslq	-36(%rbp), %rcx
	movl	(%rsi,%rcx,4), %ecx
	shll	$4, %ecx
	movslq	-44(%rbp), %rsi
	shlq	$6, %rsi
	addq	%rsi, %rdx
	movslq	-40(%rbp), %rsi
	shlq	$4, %rsi
	addq	%rsi, %rdx
	movslq	-36(%rbp), %rsi
	movl	%ecx, (%rdx,%rsi,4)
	movslq	-44(%rbp), %rcx
	shlq	$6, %rcx
	movq	%r14, %rdx
	addq	%rcx, %rdx
	movslq	-40(%rbp), %rcx
	shlq	$4, %rcx
	addq	%rcx, %rdx
	movslq	-36(%rbp), %rcx
	movl	(%rdx,%rcx,4), %ecx
	movslq	-44(%rbp), %rdx
	shlq	$6, %rdx
	addq	%rdx, %rax
	movslq	-40(%rbp), %rdx
	shlq	$4, %rdx
	addq	%rdx, %rax
	movslq	-36(%rbp), %rdx
	movl	%ecx, (%rax,%rdx,4)
	movslq	-44(%rbp), %rax
	shlq	$6, %rax
	movq	%r12, %rcx
	addq	%rax, %rcx
	movslq	-40(%rbp), %rax
	shlq	$4, %rax
	addq	%rax, %rcx
	movslq	-36(%rbp), %rax
	movl	(%rcx,%rax,4), %eax
	shll	$4, %eax
	movslq	-44(%rbp), %rcx
	shlq	$6, %rcx
	addq	%rcx, %r15
	movslq	-40(%rbp), %rcx
	shlq	$4, %rcx
	addq	%rcx, %r15
	movslq	-36(%rbp), %rcx
	movl	%eax, (%r15,%rcx,4)
	movslq	-44(%rbp), %rax
	shlq	$6, %rax
	movq	%r14, %rcx
	addq	%rax, %rcx
	movslq	-40(%rbp), %rax
	shlq	$4, %rax
	addq	%rax, %rcx
	movslq	-36(%rbp), %rax
	movl	(%rcx,%rax,4), %eax
	movslq	-44(%rbp), %rcx
	shlq	$6, %rcx
	movabsq	$LevelScale4x4Luma_Inter, %rdx
	addq	%rcx, %rdx
	movslq	-40(%rbp), %rcx
	shlq	$4, %rcx
	addq	%rcx, %rdx
	movslq	-36(%rbp), %rcx
	movl	%eax, (%rdx,%rcx,4)
	movslq	-44(%rbp), %rax
	shlq	$6, %rax
	movq	%r12, %rcx
	addq	%rax, %rcx
	movslq	-40(%rbp), %rax
	shlq	$4, %rax
	addq	%rax, %rcx
	movslq	-36(%rbp), %rax
	movl	(%rcx,%rax,4), %eax
	shll	$4, %eax
	movslq	-44(%rbp), %rcx
	shlq	$6, %rcx
	movabsq	$InvLevelScale4x4Luma_Inter, %rdx
	addq	%rcx, %rdx
	movslq	-40(%rbp), %rcx
	shlq	$4, %rcx
	addq	%rcx, %rdx
	movslq	-36(%rbp), %rcx
	movl	%eax, (%rdx,%rcx,4)
	movslq	-44(%rbp), %rax
	shlq	$6, %rax
	movq	%r14, %rcx
	addq	%rax, %rcx
	movslq	-40(%rbp), %rax
	shlq	$4, %rax
	addq	%rax, %rcx
	movslq	-36(%rbp), %rax
	movl	(%rcx,%rax,4), %eax
	movslq	-44(%rbp), %rcx
	shlq	$6, %rcx
	addq	%rcx, %r11
	movslq	-40(%rbp), %rcx
	shlq	$4, %rcx
	addq	%rcx, %r11
	movslq	-36(%rbp), %rcx
	movl	%eax, (%r11,%rcx,4)
	movslq	-44(%rbp), %rax
	shlq	$6, %rax
	movq	%r12, %rcx
	addq	%rax, %rcx
	movslq	-40(%rbp), %rax
	shlq	$4, %rax
	addq	%rax, %rcx
	movslq	-36(%rbp), %rax
	movl	(%rcx,%rax,4), %eax
	shll	$4, %eax
	movslq	-44(%rbp), %rcx
	shlq	$6, %rcx
	addq	%rcx, %r9
	movslq	-40(%rbp), %rcx
	shlq	$4, %rcx
	addq	%rcx, %r9
	movslq	-36(%rbp), %rcx
	movl	%eax, (%r9,%rcx,4)
	movslq	-44(%rbp), %rax
	shlq	$6, %rax
	addq	%rax, %r14
	movslq	-40(%rbp), %rax
	shlq	$4, %rax
	addq	%rax, %r14
	movslq	-36(%rbp), %rax
	movl	(%r14,%rax,4), %eax
	movslq	-44(%rbp), %rcx
	shlq	$6, %rcx
	addq	%rcx, %r10
	movslq	-40(%rbp), %rcx
	shlq	$4, %rcx
	addq	%rcx, %r10
	movslq	-36(%rbp), %rcx
	movl	%eax, (%r10,%rcx,4)
	movslq	-44(%rbp), %rax
	shlq	$6, %rax
	addq	%rax, %r12
	movslq	-40(%rbp), %rax
	shlq	$4, %rax
	addq	%rax, %r12
	movslq	-36(%rbp), %rax
	movl	(%r12,%rax,4), %eax
	shll	$4, %eax
	movslq	-44(%rbp), %rcx
	shlq	$6, %rcx
	addq	%rcx, %r8
	movslq	-40(%rbp), %rcx
	shlq	$4, %rcx
	addq	%rcx, %r8
	movslq	-36(%rbp), %rcx
	movl	%eax, (%r8,%rcx,4)
# %bb.28:                               # %for.inc192
                                        #   in Loop: Header=BB16_26 Depth=3
	movl	-36(%rbp), %eax
	addl	$1, %eax
	movl	%eax, -36(%rbp)
	jmp	.LBB16_26
.LBB16_29:                              # %for.end194
                                        #   in Loop: Header=BB16_24 Depth=2
	jmp	.LBB16_30
.LBB16_30:                              # %for.inc195
                                        #   in Loop: Header=BB16_24 Depth=2
	movl	-40(%rbp), %eax
	addl	$1, %eax
	movl	%eax, -40(%rbp)
	jmp	.LBB16_24
.LBB16_31:                              # %for.end197
                                        #   in Loop: Header=BB16_22 Depth=1
	jmp	.LBB16_32
.LBB16_32:                              # %for.inc198
                                        #   in Loop: Header=BB16_22 Depth=1
	movl	-44(%rbp), %eax
	addl	$1, %eax
	movl	%eax, -44(%rbp)
	jmp	.LBB16_22
.LBB16_33:                              # %for.end200
	jmp	.LBB16_91
.LBB16_34:                              # %if.else201
	movl	$0, -44(%rbp)
.LBB16_35:                              # %for.cond202
                                        # =>This Loop Header: Depth=1
                                        #     Child Loop BB16_37 Depth 2
                                        #       Child Loop BB16_39 Depth 3
	cmpl	$6, -44(%rbp)
	jge	.LBB16_90
# %bb.36:                               # %for.body204
                                        #   in Loop: Header=BB16_35 Depth=1
	movl	$0, -40(%rbp)
.LBB16_37:                              # %for.cond205
                                        #   Parent Loop BB16_35 Depth=1
                                        # =>  This Loop Header: Depth=2
                                        #       Child Loop BB16_39 Depth 3
	cmpl	$4, -40(%rbp)
	jge	.LBB16_88
# %bb.38:                               # %for.body207
                                        #   in Loop: Header=BB16_37 Depth=2
	movl	$0, -36(%rbp)
.LBB16_39:                              # %for.cond208
                                        #   Parent Loop BB16_35 Depth=1
                                        #     Parent Loop BB16_37 Depth=2
                                        # =>    This Inner Loop Header: Depth=3
	cmpl	$4, -36(%rbp)
	jge	.LBB16_86
# %bb.40:                               # %for.body210
                                        #   in Loop: Header=BB16_39 Depth=3
	movl	-36(%rbp), %eax
	shll	$2, %eax
	addl	-40(%rbp), %eax
	movl	%eax, -48(%rbp)
	cmpl	$0, -80(%rbp)
	je	.LBB16_42
# %bb.41:                               # %lor.lhs.false214
                                        #   in Loop: Header=BB16_39 Depth=3
	movswl	UseDefaultScalingMatrix4x4Flag, %eax
	cmpl	$0, %eax
	je	.LBB16_43
.LBB16_42:                              # %if.then216
                                        #   in Loop: Header=BB16_39 Depth=3
	movslq	-44(%rbp), %rax
	shlq	$6, %rax
	movabsq	$quant_coef, %rcx
	addq	%rax, %rcx
	movslq	-40(%rbp), %rax
	shlq	$4, %rax
	addq	%rax, %rcx
	movslq	-36(%rbp), %rax
	movl	(%rcx,%rax,4), %eax
	shll	$4, %eax
	movslq	-48(%rbp), %rcx
	movswl	Quant_intra_default(,%rcx,2), %ecx
	cltd
	idivl	%ecx
	movslq	-44(%rbp), %rcx
	shlq	$6, %rcx
	movabsq	$LevelScale4x4Luma_Intra, %rdx
	addq	%rcx, %rdx
	movslq	-40(%rbp), %rcx
	shlq	$4, %rcx
	addq	%rcx, %rdx
	movslq	-36(%rbp), %rcx
	movl	%eax, (%rdx,%rcx,4)
	movslq	-44(%rbp), %rax
	shlq	$6, %rax
	movabsq	$dequant_coef, %rcx
	addq	%rax, %rcx
	movslq	-40(%rbp), %rax
	shlq	$4, %rax
	addq	%rax, %rcx
	movslq	-36(%rbp), %rax
	movl	(%rcx,%rax,4), %eax
	movslq	-48(%rbp), %rcx
	movswl	Quant_intra_default(,%rcx,2), %ecx
	imull	%ecx, %eax
	movslq	-44(%rbp), %rcx
	shlq	$6, %rcx
	movabsq	$InvLevelScale4x4Luma_Intra, %rdx
	addq	%rcx, %rdx
	movslq	-40(%rbp), %rcx
	shlq	$4, %rcx
	addq	%rcx, %rdx
	movslq	-36(%rbp), %rcx
	movl	%eax, (%rdx,%rcx,4)
	jmp	.LBB16_44
.LBB16_43:                              # %if.else248
                                        #   in Loop: Header=BB16_39 Depth=3
	movslq	-44(%rbp), %rax
	shlq	$6, %rax
	movabsq	$quant_coef, %rcx
	addq	%rax, %rcx
	movslq	-40(%rbp), %rax
	shlq	$4, %rax
	addq	%rax, %rcx
	movslq	-36(%rbp), %rax
	movl	(%rcx,%rax,4), %eax
	shll	$4, %eax
	movslq	-48(%rbp), %rcx
	movswl	ScalingList4x4(,%rcx,2), %ecx
	cltd
	idivl	%ecx
	movslq	-44(%rbp), %rcx
	shlq	$6, %rcx
	movabsq	$LevelScale4x4Luma_Intra, %rdx
	addq	%rcx, %rdx
	movslq	-40(%rbp), %rcx
	shlq	$4, %rcx
	addq	%rcx, %rdx
	movslq	-36(%rbp), %rcx
	movl	%eax, (%rdx,%rcx,4)
	movslq	-44(%rbp), %rax
	shlq	$6, %rax
	movabsq	$dequant_coef, %rcx
	addq	%rax, %rcx
	movslq	-40(%rbp), %rax
	shlq	$4, %rax
	addq	%rax, %rcx
	movslq	-36(%rbp), %rax
	movl	(%rcx,%rax,4), %eax
	movslq	-48(%rbp), %rcx
	movswl	ScalingList4x4(,%rcx,2), %ecx
	imull	%ecx, %eax
	movslq	-44(%rbp), %rcx
	shlq	$6, %rcx
	movabsq	$InvLevelScale4x4Luma_Intra, %rdx
	addq	%rcx, %rdx
	movslq	-40(%rbp), %rcx
	shlq	$4, %rcx
	addq	%rcx, %rdx
	movslq	-36(%rbp), %rcx
	movl	%eax, (%rdx,%rcx,4)
.LBB16_44:                              # %if.end282
                                        #   in Loop: Header=BB16_39 Depth=3
	cmpl	$0, -76(%rbp)
	jne	.LBB16_46
# %bb.45:                               # %if.then285
                                        #   in Loop: Header=BB16_39 Depth=3
	movslq	-44(%rbp), %rax
	shlq	$6, %rax
	movabsq	$LevelScale4x4Luma_Intra, %rcx
	addq	%rax, %rcx
	movslq	-40(%rbp), %rax
	shlq	$4, %rax
	addq	%rax, %rcx
	movslq	-36(%rbp), %rax
	movl	(%rcx,%rax,4), %eax
	movslq	-44(%rbp), %rcx
	shlq	$6, %rcx
	movabsq	$LevelScale4x4Chroma_Intra, %rdx
	addq	%rcx, %rdx
	movslq	-40(%rbp), %rcx
	shlq	$4, %rcx
	addq	%rcx, %rdx
	movslq	-36(%rbp), %rcx
	movl	%eax, (%rdx,%rcx,4)
	movslq	-44(%rbp), %rax
	shlq	$6, %rax
	movabsq	$InvLevelScale4x4Luma_Intra, %rcx
	addq	%rax, %rcx
	movslq	-40(%rbp), %rax
	shlq	$4, %rax
	addq	%rax, %rcx
	movslq	-36(%rbp), %rax
	movl	(%rcx,%rax,4), %eax
	movslq	-44(%rbp), %rcx
	shlq	$6, %rcx
	movabsq	$InvLevelScale4x4Chroma_Intra, %rdx
	addq	%rcx, %rdx
	movslq	-40(%rbp), %rcx
	shlq	$4, %rcx
	addq	%rcx, %rdx
	movslq	-36(%rbp), %rcx
	movl	%eax, (%rdx,%rcx,4)
	jmp	.LBB16_53
.LBB16_46:                              # %if.else310
                                        #   in Loop: Header=BB16_39 Depth=3
	movslq	-44(%rbp), %rax
	shlq	$6, %rax
	movabsq	$quant_coef, %rcx
	addq	%rax, %rcx
	movslq	-40(%rbp), %rax
	shlq	$4, %rax
	addq	%rax, %rcx
	movslq	-36(%rbp), %rax
	movl	(%rcx,%rax,4), %eax
	shll	$4, %eax
	movswl	UseDefaultScalingMatrix4x4Flag+2, %ecx
	cmpl	$0, %ecx
	je	.LBB16_48
# %bb.47:                               # %cond.true
                                        #   in Loop: Header=BB16_39 Depth=3
	movslq	-48(%rbp), %rcx
	movswl	Quant_intra_default(,%rcx,2), %ecx
	jmp	.LBB16_49
.LBB16_48:                              # %cond.false
                                        #   in Loop: Header=BB16_39 Depth=3
	movslq	-48(%rbp), %rcx
	movswl	ScalingList4x4+32(,%rcx,2), %ecx
.LBB16_49:                              # %cond.end
                                        #   in Loop: Header=BB16_39 Depth=3
	cltd
	idivl	%ecx
	movslq	-44(%rbp), %rcx
	shlq	$6, %rcx
	movabsq	$LevelScale4x4Chroma_Intra, %rdx
	addq	%rcx, %rdx
	movslq	-40(%rbp), %rcx
	shlq	$4, %rcx
	addq	%rcx, %rdx
	movslq	-36(%rbp), %rcx
	movl	%eax, (%rdx,%rcx,4)
	movslq	-44(%rbp), %rax
	shlq	$6, %rax
	movabsq	$dequant_coef, %rcx
	addq	%rax, %rcx
	movslq	-40(%rbp), %rax
	shlq	$4, %rax
	addq	%rax, %rcx
	movslq	-36(%rbp), %rax
	movl	(%rcx,%rax,4), %eax
	movswl	UseDefaultScalingMatrix4x4Flag+2, %ecx
	cmpl	$0, %ecx
	je	.LBB16_51
# %bb.50:                               # %cond.true341
                                        #   in Loop: Header=BB16_39 Depth=3
	movslq	-48(%rbp), %rcx
	movswl	Quant_intra_default(,%rcx,2), %ecx
	jmp	.LBB16_52
.LBB16_51:                              # %cond.false345
                                        #   in Loop: Header=BB16_39 Depth=3
	movslq	-48(%rbp), %rcx
	movswl	ScalingList4x4+32(,%rcx,2), %ecx
.LBB16_52:                              # %cond.end349
                                        #   in Loop: Header=BB16_39 Depth=3
	imull	%ecx, %eax
	movslq	-44(%rbp), %rcx
	shlq	$6, %rcx
	movabsq	$InvLevelScale4x4Chroma_Intra, %rdx
	addq	%rcx, %rdx
	movslq	-40(%rbp), %rcx
	shlq	$4, %rcx
	addq	%rcx, %rdx
	movslq	-36(%rbp), %rcx
	movl	%eax, (%rdx,%rcx,4)
.LBB16_53:                              # %if.end358
                                        #   in Loop: Header=BB16_39 Depth=3
	cmpl	$0, -72(%rbp)
	jne	.LBB16_55
# %bb.54:                               # %if.then361
                                        #   in Loop: Header=BB16_39 Depth=3
	movabsq	$InvLevelScale4x4Chroma_Intra, %rcx
	movq	%rcx, %rax
	addq	$384, %rax              # imm = 0x180
	movabsq	$LevelScale4x4Chroma_Intra, %rdx
	movq	%rdx, %rsi
	addq	$384, %rsi              # imm = 0x180
	movslq	-44(%rbp), %rdi
	shlq	$6, %rdi
	addq	%rdi, %rdx
	movslq	-40(%rbp), %rdi
	shlq	$4, %rdi
	addq	%rdi, %rdx
	movslq	-36(%rbp), %rdi
	movl	(%rdx,%rdi,4), %edx
	movslq	-44(%rbp), %rdi
	shlq	$6, %rdi
	addq	%rdi, %rsi
	movslq	-40(%rbp), %rdi
	shlq	$4, %rdi
	addq	%rdi, %rsi
	movslq	-36(%rbp), %rdi
	movl	%edx, (%rsi,%rdi,4)
	movslq	-44(%rbp), %rdx
	shlq	$6, %rdx
	addq	%rdx, %rcx
	movslq	-40(%rbp), %rdx
	shlq	$4, %rdx
	addq	%rdx, %rcx
	movslq	-36(%rbp), %rdx
	movl	(%rcx,%rdx,4), %ecx
	movslq	-44(%rbp), %rdx
	shlq	$6, %rdx
	addq	%rdx, %rax
	movslq	-40(%rbp), %rdx
	shlq	$4, %rdx
	addq	%rdx, %rax
	movslq	-36(%rbp), %rdx
	movl	%ecx, (%rax,%rdx,4)
	jmp	.LBB16_62
.LBB16_55:                              # %if.else386
                                        #   in Loop: Header=BB16_39 Depth=3
	movslq	-44(%rbp), %rax
	shlq	$6, %rax
	movabsq	$quant_coef, %rcx
	addq	%rax, %rcx
	movslq	-40(%rbp), %rax
	shlq	$4, %rax
	addq	%rax, %rcx
	movslq	-36(%rbp), %rax
	movl	(%rcx,%rax,4), %eax
	shll	$4, %eax
	movswl	UseDefaultScalingMatrix4x4Flag+4, %ecx
	cmpl	$0, %ecx
	je	.LBB16_57
# %bb.56:                               # %cond.true396
                                        #   in Loop: Header=BB16_39 Depth=3
	movslq	-48(%rbp), %rcx
	movswl	Quant_intra_default(,%rcx,2), %ecx
	jmp	.LBB16_58
.LBB16_57:                              # %cond.false400
                                        #   in Loop: Header=BB16_39 Depth=3
	movslq	-48(%rbp), %rcx
	movswl	ScalingList4x4+64(,%rcx,2), %ecx
.LBB16_58:                              # %cond.end404
                                        #   in Loop: Header=BB16_39 Depth=3
	movabsq	$LevelScale4x4Chroma_Intra, %rsi
	addq	$384, %rsi              # imm = 0x180
	cltd
	idivl	%ecx
	movslq	-44(%rbp), %rcx
	shlq	$6, %rcx
	addq	%rcx, %rsi
	movslq	-40(%rbp), %rcx
	shlq	$4, %rcx
	addq	%rcx, %rsi
	movslq	-36(%rbp), %rcx
	movl	%eax, (%rsi,%rcx,4)
	movslq	-44(%rbp), %rax
	shlq	$6, %rax
	movabsq	$dequant_coef, %rcx
	addq	%rax, %rcx
	movslq	-40(%rbp), %rax
	shlq	$4, %rax
	addq	%rax, %rcx
	movslq	-36(%rbp), %rax
	movl	(%rcx,%rax,4), %eax
	movswl	UseDefaultScalingMatrix4x4Flag+4, %ecx
	cmpl	$0, %ecx
	je	.LBB16_60
# %bb.59:                               # %cond.true421
                                        #   in Loop: Header=BB16_39 Depth=3
	movslq	-48(%rbp), %rcx
	movswl	Quant_intra_default(,%rcx,2), %ecx
	jmp	.LBB16_61
.LBB16_60:                              # %cond.false425
                                        #   in Loop: Header=BB16_39 Depth=3
	movslq	-48(%rbp), %rcx
	movswl	ScalingList4x4+64(,%rcx,2), %ecx
.LBB16_61:                              # %cond.end429
                                        #   in Loop: Header=BB16_39 Depth=3
	movabsq	$InvLevelScale4x4Chroma_Intra, %rdx
	addq	$384, %rdx              # imm = 0x180
	imull	%ecx, %eax
	movslq	-44(%rbp), %rcx
	shlq	$6, %rcx
	addq	%rcx, %rdx
	movslq	-40(%rbp), %rcx
	shlq	$4, %rcx
	addq	%rcx, %rdx
	movslq	-36(%rbp), %rcx
	movl	%eax, (%rdx,%rcx,4)
.LBB16_62:                              # %if.end438
                                        #   in Loop: Header=BB16_39 Depth=3
	cmpl	$0, -68(%rbp)
	je	.LBB16_64
# %bb.63:                               # %lor.lhs.false441
                                        #   in Loop: Header=BB16_39 Depth=3
	movswl	UseDefaultScalingMatrix4x4Flag+6, %eax
	cmpl	$0, %eax
	je	.LBB16_65
.LBB16_64:                              # %if.then444
                                        #   in Loop: Header=BB16_39 Depth=3
	movslq	-44(%rbp), %rax
	shlq	$6, %rax
	movabsq	$quant_coef, %rcx
	addq	%rax, %rcx
	movslq	-40(%rbp), %rax
	shlq	$4, %rax
	addq	%rax, %rcx
	movslq	-36(%rbp), %rax
	movl	(%rcx,%rax,4), %eax
	shll	$4, %eax
	movslq	-48(%rbp), %rcx
	movswl	Quant_inter_default(,%rcx,2), %ecx
	cltd
	idivl	%ecx
	movslq	-44(%rbp), %rcx
	shlq	$6, %rcx
	movabsq	$LevelScale4x4Luma_Inter, %rdx
	addq	%rcx, %rdx
	movslq	-40(%rbp), %rcx
	shlq	$4, %rcx
	addq	%rcx, %rdx
	movslq	-36(%rbp), %rcx
	movl	%eax, (%rdx,%rcx,4)
	movslq	-44(%rbp), %rax
	shlq	$6, %rax
	movabsq	$dequant_coef, %rcx
	addq	%rax, %rcx
	movslq	-40(%rbp), %rax
	shlq	$4, %rax
	addq	%rax, %rcx
	movslq	-36(%rbp), %rax
	movl	(%rcx,%rax,4), %eax
	movslq	-48(%rbp), %rcx
	movswl	Quant_inter_default(,%rcx,2), %ecx
	imull	%ecx, %eax
	movslq	-44(%rbp), %rcx
	shlq	$6, %rcx
	movabsq	$InvLevelScale4x4Luma_Inter, %rdx
	addq	%rcx, %rdx
	movslq	-40(%rbp), %rcx
	shlq	$4, %rcx
	addq	%rcx, %rdx
	movslq	-36(%rbp), %rcx
	movl	%eax, (%rdx,%rcx,4)
	jmp	.LBB16_66
.LBB16_65:                              # %if.else478
                                        #   in Loop: Header=BB16_39 Depth=3
	movslq	-44(%rbp), %rax
	shlq	$6, %rax
	movabsq	$quant_coef, %rcx
	addq	%rax, %rcx
	movslq	-40(%rbp), %rax
	shlq	$4, %rax
	addq	%rax, %rcx
	movslq	-36(%rbp), %rax
	movl	(%rcx,%rax,4), %eax
	shll	$4, %eax
	movslq	-48(%rbp), %rcx
	movswl	ScalingList4x4+96(,%rcx,2), %ecx
	cltd
	idivl	%ecx
	movslq	-44(%rbp), %rcx
	shlq	$6, %rcx
	movabsq	$LevelScale4x4Luma_Inter, %rdx
	addq	%rcx, %rdx
	movslq	-40(%rbp), %rcx
	shlq	$4, %rcx
	addq	%rcx, %rdx
	movslq	-36(%rbp), %rcx
	movl	%eax, (%rdx,%rcx,4)
	movslq	-44(%rbp), %rax
	shlq	$6, %rax
	movabsq	$dequant_coef, %rcx
	addq	%rax, %rcx
	movslq	-40(%rbp), %rax
	shlq	$4, %rax
	addq	%rax, %rcx
	movslq	-36(%rbp), %rax
	movl	(%rcx,%rax,4), %eax
	movslq	-48(%rbp), %rcx
	movswl	ScalingList4x4+96(,%rcx,2), %ecx
	imull	%ecx, %eax
	movslq	-44(%rbp), %rcx
	shlq	$6, %rcx
	movabsq	$InvLevelScale4x4Luma_Inter, %rdx
	addq	%rcx, %rdx
	movslq	-40(%rbp), %rcx
	shlq	$4, %rcx
	addq	%rcx, %rdx
	movslq	-36(%rbp), %rcx
	movl	%eax, (%rdx,%rcx,4)
.LBB16_66:                              # %if.end512
                                        #   in Loop: Header=BB16_39 Depth=3
	cmpl	$0, -64(%rbp)
	jne	.LBB16_68
# %bb.67:                               # %if.then515
                                        #   in Loop: Header=BB16_39 Depth=3
	movslq	-44(%rbp), %rax
	shlq	$6, %rax
	movabsq	$LevelScale4x4Luma_Inter, %rcx
	addq	%rax, %rcx
	movslq	-40(%rbp), %rax
	shlq	$4, %rax
	addq	%rax, %rcx
	movslq	-36(%rbp), %rax
	movl	(%rcx,%rax,4), %eax
	movslq	-44(%rbp), %rcx
	shlq	$6, %rcx
	movabsq	$LevelScale4x4Chroma_Inter, %rdx
	addq	%rcx, %rdx
	movslq	-40(%rbp), %rcx
	shlq	$4, %rcx
	addq	%rcx, %rdx
	movslq	-36(%rbp), %rcx
	movl	%eax, (%rdx,%rcx,4)
	movslq	-44(%rbp), %rax
	shlq	$6, %rax
	movabsq	$InvLevelScale4x4Luma_Inter, %rcx
	addq	%rax, %rcx
	movslq	-40(%rbp), %rax
	shlq	$4, %rax
	addq	%rax, %rcx
	movslq	-36(%rbp), %rax
	movl	(%rcx,%rax,4), %eax
	movslq	-44(%rbp), %rcx
	shlq	$6, %rcx
	movabsq	$InvLevelScale4x4Chroma_Inter, %rdx
	addq	%rcx, %rdx
	movslq	-40(%rbp), %rcx
	shlq	$4, %rcx
	addq	%rcx, %rdx
	movslq	-36(%rbp), %rcx
	movl	%eax, (%rdx,%rcx,4)
	jmp	.LBB16_75
.LBB16_68:                              # %if.else540
                                        #   in Loop: Header=BB16_39 Depth=3
	movslq	-44(%rbp), %rax
	shlq	$6, %rax
	movabsq	$quant_coef, %rcx
	addq	%rax, %rcx
	movslq	-40(%rbp), %rax
	shlq	$4, %rax
	addq	%rax, %rcx
	movslq	-36(%rbp), %rax
	movl	(%rcx,%rax,4), %eax
	shll	$4, %eax
	movswl	UseDefaultScalingMatrix4x4Flag+8, %ecx
	cmpl	$0, %ecx
	je	.LBB16_70
# %bb.69:                               # %cond.true550
                                        #   in Loop: Header=BB16_39 Depth=3
	movslq	-48(%rbp), %rcx
	movswl	Quant_inter_default(,%rcx,2), %ecx
	jmp	.LBB16_71
.LBB16_70:                              # %cond.false554
                                        #   in Loop: Header=BB16_39 Depth=3
	movslq	-48(%rbp), %rcx
	movswl	ScalingList4x4+128(,%rcx,2), %ecx
.LBB16_71:                              # %cond.end558
                                        #   in Loop: Header=BB16_39 Depth=3
	cltd
	idivl	%ecx
	movslq	-44(%rbp), %rcx
	shlq	$6, %rcx
	movabsq	$LevelScale4x4Chroma_Inter, %rdx
	addq	%rcx, %rdx
	movslq	-40(%rbp), %rcx
	shlq	$4, %rcx
	addq	%rcx, %rdx
	movslq	-36(%rbp), %rcx
	movl	%eax, (%rdx,%rcx,4)
	movslq	-44(%rbp), %rax
	shlq	$6, %rax
	movabsq	$dequant_coef, %rcx
	addq	%rax, %rcx
	movslq	-40(%rbp), %rax
	shlq	$4, %rax
	addq	%rax, %rcx
	movslq	-36(%rbp), %rax
	movl	(%rcx,%rax,4), %eax
	movswl	UseDefaultScalingMatrix4x4Flag+8, %ecx
	cmpl	$0, %ecx
	je	.LBB16_73
# %bb.72:                               # %cond.true575
                                        #   in Loop: Header=BB16_39 Depth=3
	movslq	-48(%rbp), %rcx
	movswl	Quant_inter_default(,%rcx,2), %ecx
	jmp	.LBB16_74
.LBB16_73:                              # %cond.false579
                                        #   in Loop: Header=BB16_39 Depth=3
	movslq	-48(%rbp), %rcx
	movswl	ScalingList4x4+128(,%rcx,2), %ecx
.LBB16_74:                              # %cond.end583
                                        #   in Loop: Header=BB16_39 Depth=3
	imull	%ecx, %eax
	movslq	-44(%rbp), %rcx
	shlq	$6, %rcx
	movabsq	$InvLevelScale4x4Chroma_Inter, %rdx
	addq	%rcx, %rdx
	movslq	-40(%rbp), %rcx
	shlq	$4, %rcx
	addq	%rcx, %rdx
	movslq	-36(%rbp), %rcx
	movl	%eax, (%rdx,%rcx,4)
.LBB16_75:                              # %if.end592
                                        #   in Loop: Header=BB16_39 Depth=3
	cmpl	$0, -60(%rbp)
	jne	.LBB16_77
# %bb.76:                               # %if.then595
                                        #   in Loop: Header=BB16_39 Depth=3
	movabsq	$InvLevelScale4x4Chroma_Inter, %rcx
	movq	%rcx, %rax
	addq	$384, %rax              # imm = 0x180
	movabsq	$LevelScale4x4Chroma_Inter, %rdx
	movq	%rdx, %rsi
	addq	$384, %rsi              # imm = 0x180
	movslq	-44(%rbp), %rdi
	shlq	$6, %rdi
	addq	%rdi, %rdx
	movslq	-40(%rbp), %rdi
	shlq	$4, %rdi
	addq	%rdi, %rdx
	movslq	-36(%rbp), %rdi
	movl	(%rdx,%rdi,4), %edx
	movslq	-44(%rbp), %rdi
	shlq	$6, %rdi
	addq	%rdi, %rsi
	movslq	-40(%rbp), %rdi
	shlq	$4, %rdi
	addq	%rdi, %rsi
	movslq	-36(%rbp), %rdi
	movl	%edx, (%rsi,%rdi,4)
	movslq	-44(%rbp), %rdx
	shlq	$6, %rdx
	addq	%rdx, %rcx
	movslq	-40(%rbp), %rdx
	shlq	$4, %rdx
	addq	%rdx, %rcx
	movslq	-36(%rbp), %rdx
	movl	(%rcx,%rdx,4), %ecx
	movslq	-44(%rbp), %rdx
	shlq	$6, %rdx
	addq	%rdx, %rax
	movslq	-40(%rbp), %rdx
	shlq	$4, %rdx
	addq	%rdx, %rax
	movslq	-36(%rbp), %rdx
	movl	%ecx, (%rax,%rdx,4)
	jmp	.LBB16_84
.LBB16_77:                              # %if.else620
                                        #   in Loop: Header=BB16_39 Depth=3
	movslq	-44(%rbp), %rax
	shlq	$6, %rax
	movabsq	$quant_coef, %rcx
	addq	%rax, %rcx
	movslq	-40(%rbp), %rax
	shlq	$4, %rax
	addq	%rax, %rcx
	movslq	-36(%rbp), %rax
	movl	(%rcx,%rax,4), %eax
	shll	$4, %eax
	movswl	UseDefaultScalingMatrix4x4Flag+10, %ecx
	cmpl	$0, %ecx
	je	.LBB16_79
# %bb.78:                               # %cond.true630
                                        #   in Loop: Header=BB16_39 Depth=3
	movslq	-48(%rbp), %rcx
	movswl	Quant_inter_default(,%rcx,2), %ecx
	jmp	.LBB16_80
.LBB16_79:                              # %cond.false634
                                        #   in Loop: Header=BB16_39 Depth=3
	movslq	-48(%rbp), %rcx
	movswl	ScalingList4x4+160(,%rcx,2), %ecx
.LBB16_80:                              # %cond.end638
                                        #   in Loop: Header=BB16_39 Depth=3
	movabsq	$LevelScale4x4Chroma_Inter, %rsi
	addq	$384, %rsi              # imm = 0x180
	cltd
	idivl	%ecx
	movslq	-44(%rbp), %rcx
	shlq	$6, %rcx
	addq	%rcx, %rsi
	movslq	-40(%rbp), %rcx
	shlq	$4, %rcx
	addq	%rcx, %rsi
	movslq	-36(%rbp), %rcx
	movl	%eax, (%rsi,%rcx,4)
	movslq	-44(%rbp), %rax
	shlq	$6, %rax
	movabsq	$dequant_coef, %rcx
	addq	%rax, %rcx
	movslq	-40(%rbp), %rax
	shlq	$4, %rax
	addq	%rax, %rcx
	movslq	-36(%rbp), %rax
	movl	(%rcx,%rax,4), %eax
	movswl	UseDefaultScalingMatrix4x4Flag+10, %ecx
	cmpl	$0, %ecx
	je	.LBB16_82
# %bb.81:                               # %cond.true655
                                        #   in Loop: Header=BB16_39 Depth=3
	movslq	-48(%rbp), %rcx
	movswl	Quant_inter_default(,%rcx,2), %ecx
	jmp	.LBB16_83
.LBB16_82:                              # %cond.false659
                                        #   in Loop: Header=BB16_39 Depth=3
	movslq	-48(%rbp), %rcx
	movswl	ScalingList4x4+160(,%rcx,2), %ecx
.LBB16_83:                              # %cond.end663
                                        #   in Loop: Header=BB16_39 Depth=3
	movabsq	$InvLevelScale4x4Chroma_Inter, %rdx
	addq	$384, %rdx              # imm = 0x180
	imull	%ecx, %eax
	movslq	-44(%rbp), %rcx
	shlq	$6, %rcx
	addq	%rcx, %rdx
	movslq	-40(%rbp), %rcx
	shlq	$4, %rcx
	addq	%rcx, %rdx
	movslq	-36(%rbp), %rcx
	movl	%eax, (%rdx,%rcx,4)
.LBB16_84:                              # %if.end672
                                        #   in Loop: Header=BB16_39 Depth=3
	jmp	.LBB16_85
.LBB16_85:                              # %for.inc673
                                        #   in Loop: Header=BB16_39 Depth=3
	movl	-36(%rbp), %eax
	addl	$1, %eax
	movl	%eax, -36(%rbp)
	jmp	.LBB16_39
.LBB16_86:                              # %for.end675
                                        #   in Loop: Header=BB16_37 Depth=2
	jmp	.LBB16_87
.LBB16_87:                              # %for.inc676
                                        #   in Loop: Header=BB16_37 Depth=2
	movl	-40(%rbp), %eax
	addl	$1, %eax
	movl	%eax, -40(%rbp)
	jmp	.LBB16_37
.LBB16_88:                              # %for.end678
                                        #   in Loop: Header=BB16_35 Depth=1
	jmp	.LBB16_89
.LBB16_89:                              # %for.inc679
                                        #   in Loop: Header=BB16_35 Depth=1
	movl	-44(%rbp), %eax
	addl	$1, %eax
	movl	%eax, -44(%rbp)
	jmp	.LBB16_35
.LBB16_90:                              # %for.end681
	jmp	.LBB16_91
.LBB16_91:                              # %if.end682
	cmpl	$1071162860, -56(%rbp)  # imm = 0x3FD8A5EC
	jne	.LBB16_93
.LBB16_92:
	addq	$48, %rsp
	popq	%rbx
	popq	%r12
	popq	%r14
	popq	%r15
	popq	%rbp
	.cfi_def_cfa %rsp, 8
	retq
.LBB16_93:                              # %func_exit
	.cfi_def_cfa %rbp, 16
	callq	detect_breach
	jmp	.LBB16_92
.Lfunc_end16:
	.size	CalculateQuantParam.11, .Lfunc_end16-CalculateQuantParam.11
	.cfi_endproc
                                        # -- End function
	.globl	CheckParameterName.12   # -- Begin function CheckParameterName.12
	.p2align	4, 0x90
	.type	CheckParameterName.12,@function
CheckParameterName.12:                  # @CheckParameterName.12
	.cfi_startproc
# %bb.0:                                # %entry
	pushq	%rbp
	.cfi_def_cfa_offset 16
	.cfi_offset %rbp, -16
	movq	%rsp, %rbp
	.cfi_def_cfa_register %rbp
	pushq	%rbx
	subq	$40, %rsp
	.cfi_offset %rbx, -24
	movl	$2053372770, -20(%rbp)  # imm = 0x7A63FB62
	movq	%rdi, -40(%rbp)
	movq	%rsi, -32(%rbp)
	movl	$0, -12(%rbp)
	movq	-32(%rbp), %rax
	movl	$0, (%rax)
.LBB17_1:                               # %while.cond
                                        # =>This Inner Loop Header: Depth=1
	xorl	%eax, %eax
	movslq	-12(%rbp), %rcx
	imulq	$20, %rcx, %rcx
	movabsq	$MatrixType4x4, %rdx
	addq	%rcx, %rdx
	cmpq	$0, %rdx
	je	.LBB17_3
# %bb.2:                                # %land.rhs
                                        #   in Loop: Header=BB17_1 Depth=1
	cmpl	$6, -12(%rbp)
	setl	%al
.LBB17_3:                               # %land.end
                                        #   in Loop: Header=BB17_1 Depth=1
	testb	$1, %al
	jne	.LBB17_4
	jmp	.LBB17_8
.LBB17_4:                               # %while.body
                                        #   in Loop: Header=BB17_1 Depth=1
	xorl	%ebx, %ebx
	movslq	-12(%rbp), %rax
	imulq	$20, %rax, %rax
	movabsq	$MatrixType4x4, %rdi
	addq	%rax, %rdi
	movq	-40(%rbp), %rsi
	callq	strcmp
	cmpl	%eax, %ebx
	jne	.LBB17_6
# %bb.5:                                # %if.then
	movl	-12(%rbp), %eax
	movl	%eax, -16(%rbp)
	jmp	.LBB17_17
.LBB17_6:                               # %if.else
                                        #   in Loop: Header=BB17_1 Depth=1
	movl	-12(%rbp), %eax
	addl	$1, %eax
	movl	%eax, -12(%rbp)
# %bb.7:                                # %if.end
                                        #   in Loop: Header=BB17_1 Depth=1
	jmp	.LBB17_1
.LBB17_8:                               # %while.end
	movl	$0, -12(%rbp)
	movq	-32(%rbp), %rax
	movl	$1, (%rax)
.LBB17_9:                               # %while.cond6
                                        # =>This Inner Loop Header: Depth=1
	xorl	%eax, %eax
	movslq	-12(%rbp), %rcx
	imulq	$20, %rcx, %rcx
	movabsq	$MatrixType8x8, %rdx
	addq	%rcx, %rdx
	cmpq	$0, %rdx
	je	.LBB17_11
# %bb.10:                               # %land.rhs11
                                        #   in Loop: Header=BB17_9 Depth=1
	cmpl	$2, -12(%rbp)
	setl	%al
.LBB17_11:                              # %land.end13
                                        #   in Loop: Header=BB17_9 Depth=1
	testb	$1, %al
	jne	.LBB17_12
	jmp	.LBB17_16
.LBB17_12:                              # %while.body14
                                        #   in Loop: Header=BB17_9 Depth=1
	xorl	%ebx, %ebx
	movslq	-12(%rbp), %rax
	imulq	$20, %rax, %rax
	movabsq	$MatrixType8x8, %rdi
	addq	%rax, %rdi
	movq	-40(%rbp), %rsi
	callq	strcmp
	cmpl	%eax, %ebx
	jne	.LBB17_14
# %bb.13:                               # %if.then20
	movl	-12(%rbp), %eax
	movl	%eax, -16(%rbp)
	jmp	.LBB17_17
.LBB17_14:                              # %if.else21
                                        #   in Loop: Header=BB17_9 Depth=1
	movl	-12(%rbp), %eax
	addl	$1, %eax
	movl	%eax, -12(%rbp)
# %bb.15:                               # %if.end23
                                        #   in Loop: Header=BB17_9 Depth=1
	jmp	.LBB17_9
.LBB17_16:                              # %while.end24
	movl	$-1, -16(%rbp)
.LBB17_17:                              # %return
	movl	-16(%rbp), %ebx
	cmpl	$2053372770, -20(%rbp)  # imm = 0x7A63FB62
	jne	.LBB17_19
.LBB17_18:
	movl	%ebx, %eax
	addq	$40, %rsp
	popq	%rbx
	popq	%rbp
	.cfi_def_cfa %rsp, 8
	retq
.LBB17_19:                              # %func_exit
	.cfi_def_cfa %rbp, 16
	callq	detect_breach
	jmp	.LBB17_18
.Lfunc_end17:
	.size	CheckParameterName.12, .Lfunc_end17-CheckParameterName.12
	.cfi_endproc
                                        # -- End function
	.globl	ParseMatrix.13          # -- Begin function ParseMatrix.13
	.p2align	4, 0x90
	.type	ParseMatrix.13,@function
ParseMatrix.13:                         # @ParseMatrix.13
	.cfi_startproc
# %bb.0:                                # %entry
	pushq	%rbp
	.cfi_def_cfa_offset 16
	.cfi_offset %rbp, -16
	movq	%rsp, %rbp
	.cfi_def_cfa_register %rbp
	subq	$8096, %rsp             # imm = 0x1FA0
	movl	$384409130, -52(%rbp)   # imm = 0x16E99E2A
	movq	%rdi, -80(%rbp)
	movl	%esi, -56(%rbp)
	movl	$0, -32(%rbp)
	movl	$0, -36(%rbp)
	movl	$0, -20(%rbp)
	movq	-80(%rbp), %rax
	movq	%rax, -16(%rbp)
	movq	-80(%rbp), %rax
	movslq	-56(%rbp), %rcx
	addq	%rcx, %rax
	movq	%rax, -72(%rbp)
.LBB18_1:                               # %while.cond
                                        # =>This Loop Header: Depth=1
                                        #     Child Loop BB18_6 Depth 2
	movq	-16(%rbp), %rax
	cmpq	-72(%rbp), %rax
	jae	.LBB18_25
# %bb.2:                                # %while.body
                                        #   in Loop: Header=BB18_1 Depth=1
	movq	-16(%rbp), %rax
	movsbl	(%rax), %eax
	addl	$-9, %eax
	movl	%eax, %ecx
	subl	$35, %ecx
	ja	.LBB18_21
# %bb.3:                                # %while.body
                                        #   in Loop: Header=BB18_1 Depth=1
	movq	.LJTI18_0(,%rax,8), %rax
	jmpq	*%rax
.LBB18_4:                               # %sw.bb
                                        #   in Loop: Header=BB18_1 Depth=1
	movq	-16(%rbp), %rax
	addq	$1, %rax
	movq	%rax, -16(%rbp)
	jmp	.LBB18_24
.LBB18_5:                               # %sw.bb1
                                        #   in Loop: Header=BB18_1 Depth=1
	movq	-16(%rbp), %rax
	movb	$0, (%rax)
.LBB18_6:                               # %while.cond2
                                        #   Parent Loop BB18_1 Depth=1
                                        # =>  This Inner Loop Header: Depth=2
	xorl	%eax, %eax
	movq	-16(%rbp), %rcx
	movsbl	(%rcx), %ecx
	cmpl	$10, %ecx
	je	.LBB18_8
# %bb.7:                                # %land.rhs
                                        #   in Loop: Header=BB18_6 Depth=2
	movq	-16(%rbp), %rax
	cmpq	-72(%rbp), %rax
	setb	%al
.LBB18_8:                               # %land.end
                                        #   in Loop: Header=BB18_6 Depth=2
	testb	$1, %al
	jne	.LBB18_9
	jmp	.LBB18_10
.LBB18_9:                               # %while.body8
                                        #   in Loop: Header=BB18_6 Depth=2
	movq	-16(%rbp), %rax
	addq	$1, %rax
	movq	%rax, -16(%rbp)
	jmp	.LBB18_6
.LBB18_10:                              # %while.end
                                        #   in Loop: Header=BB18_1 Depth=1
	movl	$0, -36(%rbp)
	movl	$0, -20(%rbp)
	jmp	.LBB18_24
.LBB18_11:                              # %sw.bb10
                                        #   in Loop: Header=BB18_1 Depth=1
	movl	$0, -20(%rbp)
	movl	$0, -36(%rbp)
	movq	-16(%rbp), %rax
	movq	%rax, %rcx
	addq	$1, %rcx
	movq	%rcx, -16(%rbp)
	movb	$0, (%rax)
	jmp	.LBB18_24
.LBB18_12:                              # %sw.bb12
                                        #   in Loop: Header=BB18_1 Depth=1
	cmpl	$0, -36(%rbp)
	je	.LBB18_14
# %bb.13:                               # %if.then
                                        #   in Loop: Header=BB18_1 Depth=1
	movq	-16(%rbp), %rax
	addq	$1, %rax
	movq	%rax, -16(%rbp)
	jmp	.LBB18_15
.LBB18_14:                              # %if.else
                                        #   in Loop: Header=BB18_1 Depth=1
	movq	-16(%rbp), %rax
	movq	%rax, %rcx
	addq	$1, %rcx
	movq	%rcx, -16(%rbp)
	movb	$0, (%rax)
	movl	$0, -20(%rbp)
.LBB18_15:                              # %if.end
                                        #   in Loop: Header=BB18_1 Depth=1
	jmp	.LBB18_24
.LBB18_16:                              # %sw.bb15
                                        #   in Loop: Header=BB18_1 Depth=1
	movq	-16(%rbp), %rax
	movq	%rax, %rcx
	addq	$1, %rcx
	movq	%rcx, -16(%rbp)
	movb	$0, (%rax)
	cmpl	$0, -36(%rbp)
	jne	.LBB18_18
# %bb.17:                               # %if.then18
                                        #   in Loop: Header=BB18_1 Depth=1
	movq	-16(%rbp), %rax
	movl	-32(%rbp), %ecx
	movl	%ecx, %edx
	addl	$1, %edx
	movl	%edx, -32(%rbp)
	movslq	%ecx, %rcx
	movq	%rax, -8096(%rbp,%rcx,8)
	movl	-20(%rbp), %eax
	xorl	$-1, %eax
	movl	%eax, -20(%rbp)
	jmp	.LBB18_19
.LBB18_18:                              # %if.else21
                                        #   in Loop: Header=BB18_1 Depth=1
	movl	$0, -20(%rbp)
.LBB18_19:                              # %if.end22
                                        #   in Loop: Header=BB18_1 Depth=1
	movl	-36(%rbp), %eax
	xorl	$-1, %eax
	movl	%eax, -36(%rbp)
	jmp	.LBB18_24
.LBB18_20:                              # %sw.bb24
                                        #   in Loop: Header=BB18_1 Depth=1
	movq	-16(%rbp), %rax
	addq	$1, %rax
	movq	%rax, -16(%rbp)
	movl	$0, -20(%rbp)
	jmp	.LBB18_24
.LBB18_21:                              # %sw.default
                                        #   in Loop: Header=BB18_1 Depth=1
	cmpl	$0, -20(%rbp)
	jne	.LBB18_23
# %bb.22:                               # %if.then27
                                        #   in Loop: Header=BB18_1 Depth=1
	movq	-16(%rbp), %rax
	movl	-32(%rbp), %ecx
	movl	%ecx, %edx
	addl	$1, %edx
	movl	%edx, -32(%rbp)
	movslq	%ecx, %rcx
	movq	%rax, -8096(%rbp,%rcx,8)
	movl	-20(%rbp), %eax
	xorl	$-1, %eax
	movl	%eax, -20(%rbp)
.LBB18_23:                              # %if.end32
                                        #   in Loop: Header=BB18_1 Depth=1
	movq	-16(%rbp), %rax
	addq	$1, %rax
	movq	%rax, -16(%rbp)
.LBB18_24:                              # %sw.epilog
                                        #   in Loop: Header=BB18_1 Depth=1
	jmp	.LBB18_1
.LBB18_25:                              # %while.end34
	movl	-32(%rbp), %eax
	addl	$-1, %eax
	movl	%eax, -32(%rbp)
	movl	$0, -24(%rbp)
.LBB18_26:                              # %for.cond
                                        # =>This Loop Header: Depth=1
                                        #     Child Loop BB18_35 Depth 2
	movl	-24(%rbp), %eax
	cmpl	-32(%rbp), %eax
	jge	.LBB18_42
# %bb.27:                               # %for.body
                                        #   in Loop: Header=BB18_26 Depth=1
	movl	$0, -4(%rbp)
	movl	-24(%rbp), %eax
	addl	-4(%rbp), %eax
	cltq
	movq	-8096(%rbp,%rax,8), %rdi
	leaq	-48(%rbp), %rsi
	callq	CheckParameterName
	xorl	%ecx, %ecx
	movl	%eax, -40(%rbp)
	cmpl	%eax, %ecx
	jle	.LBB18_29
# %bb.28:                               # %if.then41
                                        #   in Loop: Header=BB18_26 Depth=1
	movl	-24(%rbp), %eax
	addl	-4(%rbp), %eax
	cltq
	movq	-8096(%rbp,%rax,8), %rcx
	movabsq	$errortext, %rdi
	movl	$300, %esi              # imm = 0x12C
	movabsq	$.L.str, %rdx
	movb	$0, %al
	callq	snprintf
	movabsq	$errortext, %rdi
	movl	$300, %esi              # imm = 0x12C
	callq	error
.LBB18_29:                              # %if.end46
                                        #   in Loop: Header=BB18_26 Depth=1
	movl	-4(%rbp), %eax
	addl	$1, %eax
	movl	%eax, -4(%rbp)
	movl	-24(%rbp), %eax
	addl	-4(%rbp), %eax
	cltq
	movq	-8096(%rbp,%rax,8), %rsi
	movl	$.L.str.1, %edi
	callq	strcmp
	cmpl	$0, %eax
	je	.LBB18_31
# %bb.30:                               # %if.then53
                                        #   in Loop: Header=BB18_26 Depth=1
	movabsq	$errortext, %rdi
	movl	$300, %esi              # imm = 0x12C
	movabsq	$.L.str.2, %rdx
	movb	$0, %al
	callq	snprintf
	movabsq	$errortext, %rdi
	movl	$300, %esi              # imm = 0x12C
	callq	error
.LBB18_31:                              # %if.end55
                                        #   in Loop: Header=BB18_26 Depth=1
	movl	-4(%rbp), %eax
	addl	$1, %eax
	movl	%eax, -4(%rbp)
	cmpl	$0, -48(%rbp)
	jne	.LBB18_33
# %bb.32:                               # %if.then58
                                        #   in Loop: Header=BB18_26 Depth=1
	movl	$16, -44(%rbp)
	movslq	-40(%rbp), %rax
	shlq	$5, %rax
	movabsq	$ScalingList4x4input, %rcx
	addq	%rax, %rcx
	movq	%rcx, -88(%rbp)
	movslq	-40(%rbp), %rax
	movl	$1, matrix4x4_check(,%rax,4)
	jmp	.LBB18_34
.LBB18_33:                              # %if.else63
                                        #   in Loop: Header=BB18_26 Depth=1
	movl	$64, -44(%rbp)
	movslq	-40(%rbp), %rax
	shlq	$7, %rax
	movabsq	$ScalingList8x8input, %rcx
	addq	%rax, %rcx
	movq	%rcx, -88(%rbp)
	movslq	-40(%rbp), %rax
	movl	$1, matrix8x8_check(,%rax,4)
.LBB18_34:                              # %if.end69
                                        #   in Loop: Header=BB18_26 Depth=1
	movl	$0, -28(%rbp)
.LBB18_35:                              # %for.cond70
                                        #   Parent Loop BB18_26 Depth=1
                                        # =>  This Inner Loop Header: Depth=2
	movl	-28(%rbp), %eax
	cmpl	-44(%rbp), %eax
	jge	.LBB18_40
# %bb.36:                               # %for.body73
                                        #   in Loop: Header=BB18_35 Depth=2
	movl	-24(%rbp), %eax
	addl	-4(%rbp), %eax
	addl	-28(%rbp), %eax
	cltq
	movq	-8096(%rbp,%rax,8), %rdi
	movabsq	$.L.str.3, %rsi
	leaq	-60(%rbp), %rdx
	movb	$0, %al
	callq	__isoc99_sscanf
	movl	$1, %ecx
	cmpl	%eax, %ecx
	je	.LBB18_38
# %bb.37:                               # %if.then81
                                        #   in Loop: Header=BB18_35 Depth=2
	movslq	-24(%rbp), %rax
	movq	-8096(%rbp,%rax,8), %rcx
	movl	-24(%rbp), %eax
	addl	-4(%rbp), %eax
	addl	-28(%rbp), %eax
	cltq
	movq	-8096(%rbp,%rax,8), %r8
	movabsq	$errortext, %rdi
	movl	$300, %esi              # imm = 0x12C
	movabsq	$.L.str.4, %rdx
	movb	$0, %al
	callq	snprintf
	movabsq	$errortext, %rdi
	movl	$300, %esi              # imm = 0x12C
	callq	error
.LBB18_38:                              # %if.end89
                                        #   in Loop: Header=BB18_35 Depth=2
	movl	-60(%rbp), %eax
	movq	-88(%rbp), %rcx
	movslq	-28(%rbp), %rdx
	movw	%ax, (%rcx,%rdx,2)
# %bb.39:                               # %for.inc
                                        #   in Loop: Header=BB18_35 Depth=2
	movl	-28(%rbp), %eax
	addl	$1, %eax
	movl	%eax, -28(%rbp)
	jmp	.LBB18_35
.LBB18_40:                              # %for.end
                                        #   in Loop: Header=BB18_26 Depth=1
	movl	-28(%rbp), %eax
	addl	-4(%rbp), %eax
	movl	%eax, -4(%rbp)
	movabsq	$.L.str.5, %rdi
	movb	$0, %al
	callq	printf
# %bb.41:                               # %for.inc96
                                        #   in Loop: Header=BB18_26 Depth=1
	movl	-4(%rbp), %eax
	addl	-24(%rbp), %eax
	movl	%eax, -24(%rbp)
	jmp	.LBB18_26
.LBB18_42:                              # %for.end98
	cmpl	$384409130, -52(%rbp)   # imm = 0x16E99E2A
	jne	.LBB18_44
.LBB18_43:
	addq	$8096, %rsp             # imm = 0x1FA0
	popq	%rbp
	.cfi_def_cfa %rsp, 8
	retq
.LBB18_44:                              # %func_exit
	.cfi_def_cfa %rbp, 16
	callq	detect_breach
	jmp	.LBB18_43
.Lfunc_end18:
	.size	ParseMatrix.13, .Lfunc_end18-ParseMatrix.13
	.cfi_endproc
	.section	.rodata,"a",@progbits
	.p2align	3
.LJTI18_0:
	.quad	.LBB18_12
	.quad	.LBB18_11
	.quad	.LBB18_21
	.quad	.LBB18_21
	.quad	.LBB18_4
	.quad	.LBB18_21
	.quad	.LBB18_21
	.quad	.LBB18_21
	.quad	.LBB18_21
	.quad	.LBB18_21
	.quad	.LBB18_21
	.quad	.LBB18_21
	.quad	.LBB18_21
	.quad	.LBB18_21
	.quad	.LBB18_21
	.quad	.LBB18_21
	.quad	.LBB18_21
	.quad	.LBB18_21
	.quad	.LBB18_21
	.quad	.LBB18_21
	.quad	.LBB18_21
	.quad	.LBB18_21
	.quad	.LBB18_21
	.quad	.LBB18_12
	.quad	.LBB18_21
	.quad	.LBB18_16
	.quad	.LBB18_5
	.quad	.LBB18_21
	.quad	.LBB18_21
	.quad	.LBB18_21
	.quad	.LBB18_21
	.quad	.LBB18_21
	.quad	.LBB18_21
	.quad	.LBB18_21
	.quad	.LBB18_21
	.quad	.LBB18_20
                                        # -- End function
	.text
	.globl	CalculateQuant8Param.14 # -- Begin function CalculateQuant8Param.14
	.p2align	4, 0x90
	.type	CalculateQuant8Param.14,@function
CalculateQuant8Param.14:                # @CalculateQuant8Param.14
	.cfi_startproc
# %bb.0:                                # %entry
	pushq	%rbp
	.cfi_def_cfa_offset 16
	.cfi_offset %rbp, -16
	movq	%rsp, %rbp
	.cfi_def_cfa_register %rbp
	subq	$32, %rsp
	movl	$833101414, -32(%rbp)   # imm = 0x31A81E66
	movl	$0, -20(%rbp)
	movq	active_sps, %rax
	cmpl	$0, 36(%rax)
	jne	.LBB19_3
# %bb.1:                                # %land.lhs.true
	movq	active_pps, %rax
	cmpl	$0, 20(%rax)
	jne	.LBB19_3
# %bb.2:                                # %if.then
	movl	$1, -20(%rbp)
	jmp	.LBB19_16
.LBB19_3:                               # %if.else
	leaq	-28(%rbp), %rdi
	xorl	%esi, %esi
	movl	$8, %edx
	callq	memset
	movq	active_sps, %rax
	cmpl	$0, 36(%rax)
	je	.LBB19_9
# %bb.4:                                # %if.then4
	movl	$0, -4(%rbp)
.LBB19_5:                               # %for.cond
                                        # =>This Inner Loop Header: Depth=1
	cmpl	$2, -4(%rbp)
	jge	.LBB19_8
# %bb.6:                                # %for.body
                                        #   in Loop: Header=BB19_5 Depth=1
	movq	active_sps, %rax
	movl	-4(%rbp), %ecx
	addl	$6, %ecx
	movslq	%ecx, %rcx
	movl	40(%rax,%rcx,4), %eax
	movslq	-4(%rbp), %rcx
	movl	%eax, -28(%rbp,%rcx,4)
# %bb.7:                                # %for.inc
                                        #   in Loop: Header=BB19_5 Depth=1
	movl	-4(%rbp), %eax
	addl	$1, %eax
	movl	%eax, -4(%rbp)
	jmp	.LBB19_5
.LBB19_8:                               # %for.end
	jmp	.LBB19_9
.LBB19_9:                               # %if.end
	movq	active_pps, %rax
	cmpl	$0, 20(%rax)
	je	.LBB19_15
# %bb.10:                               # %if.then9
	movl	$0, -4(%rbp)
.LBB19_11:                              # %for.cond10
                                        # =>This Inner Loop Header: Depth=1
	cmpl	$2, -4(%rbp)
	jge	.LBB19_14
# %bb.12:                               # %for.body12
                                        #   in Loop: Header=BB19_11 Depth=1
	movq	active_pps, %rax
	movl	-4(%rbp), %ecx
	addl	$6, %ecx
	movslq	%ecx, %rcx
	movl	24(%rax,%rcx,4), %eax
	movslq	-4(%rbp), %rcx
	orl	-28(%rbp,%rcx,4), %eax
	movl	%eax, -28(%rbp,%rcx,4)
# %bb.13:                               # %for.inc18
                                        #   in Loop: Header=BB19_11 Depth=1
	movl	-4(%rbp), %eax
	addl	$1, %eax
	movl	%eax, -4(%rbp)
	jmp	.LBB19_11
.LBB19_14:                              # %for.end20
	jmp	.LBB19_15
.LBB19_15:                              # %if.end21
	jmp	.LBB19_16
.LBB19_16:                              # %if.end22
	cmpl	$1, -20(%rbp)
	jne	.LBB19_30
# %bb.17:                               # %if.then24
	movl	$0, -12(%rbp)
.LBB19_18:                              # %for.cond25
                                        # =>This Loop Header: Depth=1
                                        #     Child Loop BB19_20 Depth 2
                                        #       Child Loop BB19_22 Depth 3
	cmpl	$6, -12(%rbp)
	jge	.LBB19_29
# %bb.19:                               # %for.body27
                                        #   in Loop: Header=BB19_18 Depth=1
	movl	$0, -8(%rbp)
.LBB19_20:                              # %for.cond28
                                        #   Parent Loop BB19_18 Depth=1
                                        # =>  This Loop Header: Depth=2
                                        #       Child Loop BB19_22 Depth 3
	cmpl	$8, -8(%rbp)
	jge	.LBB19_27
# %bb.21:                               # %for.body30
                                        #   in Loop: Header=BB19_20 Depth=2
	movl	$0, -4(%rbp)
.LBB19_22:                              # %for.cond31
                                        #   Parent Loop BB19_18 Depth=1
                                        #     Parent Loop BB19_20 Depth=2
                                        # =>    This Inner Loop Header: Depth=3
	cmpl	$8, -4(%rbp)
	jge	.LBB19_25
# %bb.23:                               # %for.body33
                                        #   in Loop: Header=BB19_22 Depth=3
	movslq	-12(%rbp), %rcx
	shlq	$8, %rcx
	movabsq	$quant_coef8, %rax
	movq	%rax, %rdx
	addq	%rcx, %rdx
	movslq	-8(%rbp), %rcx
	shlq	$5, %rcx
	addq	%rcx, %rdx
	movslq	-4(%rbp), %rcx
	movl	(%rdx,%rcx,4), %ecx
	movslq	-12(%rbp), %rdx
	shlq	$8, %rdx
	movabsq	$LevelScale8x8Luma_Intra, %rsi
	addq	%rdx, %rsi
	movslq	-8(%rbp), %rdx
	shlq	$5, %rdx
	addq	%rdx, %rsi
	movslq	-4(%rbp), %rdx
	movl	%ecx, (%rsi,%rdx,4)
	movslq	-12(%rbp), %rdx
	shlq	$8, %rdx
	movabsq	$dequant_coef8, %rcx
	movq	%rcx, %rsi
	addq	%rdx, %rsi
	movslq	-8(%rbp), %rdx
	shlq	$5, %rdx
	addq	%rdx, %rsi
	movslq	-4(%rbp), %rdx
	movl	(%rsi,%rdx,4), %edx
	shll	$4, %edx
	movslq	-12(%rbp), %rsi
	shlq	$8, %rsi
	movabsq	$InvLevelScale8x8Luma_Intra, %rdi
	addq	%rsi, %rdi
	movslq	-8(%rbp), %rsi
	shlq	$5, %rsi
	addq	%rsi, %rdi
	movslq	-4(%rbp), %rsi
	movl	%edx, (%rdi,%rsi,4)
	movslq	-12(%rbp), %rdx
	shlq	$8, %rdx
	addq	%rdx, %rax
	movslq	-8(%rbp), %rdx
	shlq	$5, %rdx
	addq	%rdx, %rax
	movslq	-4(%rbp), %rdx
	movl	(%rax,%rdx,4), %eax
	movslq	-12(%rbp), %rdx
	shlq	$8, %rdx
	movabsq	$LevelScale8x8Luma_Inter, %rsi
	addq	%rdx, %rsi
	movslq	-8(%rbp), %rdx
	shlq	$5, %rdx
	addq	%rdx, %rsi
	movslq	-4(%rbp), %rdx
	movl	%eax, (%rsi,%rdx,4)
	movslq	-12(%rbp), %rax
	shlq	$8, %rax
	addq	%rax, %rcx
	movslq	-8(%rbp), %rax
	shlq	$5, %rax
	addq	%rax, %rcx
	movslq	-4(%rbp), %rax
	movl	(%rcx,%rax,4), %eax
	shll	$4, %eax
	movslq	-12(%rbp), %rcx
	shlq	$8, %rcx
	movabsq	$InvLevelScale8x8Luma_Inter, %rdx
	addq	%rcx, %rdx
	movslq	-8(%rbp), %rcx
	shlq	$5, %rcx
	addq	%rcx, %rdx
	movslq	-4(%rbp), %rcx
	movl	%eax, (%rdx,%rcx,4)
# %bb.24:                               # %for.inc83
                                        #   in Loop: Header=BB19_22 Depth=3
	movl	-4(%rbp), %eax
	addl	$1, %eax
	movl	%eax, -4(%rbp)
	jmp	.LBB19_22
.LBB19_25:                              # %for.end85
                                        #   in Loop: Header=BB19_20 Depth=2
	jmp	.LBB19_26
.LBB19_26:                              # %for.inc86
                                        #   in Loop: Header=BB19_20 Depth=2
	movl	-8(%rbp), %eax
	addl	$1, %eax
	movl	%eax, -8(%rbp)
	jmp	.LBB19_20
.LBB19_27:                              # %for.end88
                                        #   in Loop: Header=BB19_18 Depth=1
	jmp	.LBB19_28
.LBB19_28:                              # %for.inc89
                                        #   in Loop: Header=BB19_18 Depth=1
	movl	-12(%rbp), %eax
	addl	$1, %eax
	movl	%eax, -12(%rbp)
	jmp	.LBB19_18
.LBB19_29:                              # %for.end91
	jmp	.LBB19_51
.LBB19_30:                              # %if.else92
	movl	$0, -12(%rbp)
.LBB19_31:                              # %for.cond93
                                        # =>This Loop Header: Depth=1
                                        #     Child Loop BB19_33 Depth 2
                                        #       Child Loop BB19_35 Depth 3
	cmpl	$6, -12(%rbp)
	jge	.LBB19_50
# %bb.32:                               # %for.body95
                                        #   in Loop: Header=BB19_31 Depth=1
	movl	$0, -8(%rbp)
.LBB19_33:                              # %for.cond96
                                        #   Parent Loop BB19_31 Depth=1
                                        # =>  This Loop Header: Depth=2
                                        #       Child Loop BB19_35 Depth 3
	cmpl	$8, -8(%rbp)
	jge	.LBB19_48
# %bb.34:                               # %for.body98
                                        #   in Loop: Header=BB19_33 Depth=2
	movl	$0, -4(%rbp)
.LBB19_35:                              # %for.cond99
                                        #   Parent Loop BB19_31 Depth=1
                                        #     Parent Loop BB19_33 Depth=2
                                        # =>    This Inner Loop Header: Depth=3
	cmpl	$8, -4(%rbp)
	jge	.LBB19_46
# %bb.36:                               # %for.body101
                                        #   in Loop: Header=BB19_35 Depth=3
	movl	-4(%rbp), %eax
	shll	$3, %eax
	addl	-8(%rbp), %eax
	movl	%eax, -16(%rbp)
	cmpl	$0, -28(%rbp)
	je	.LBB19_38
# %bb.37:                               # %lor.lhs.false
                                        #   in Loop: Header=BB19_35 Depth=3
	movswl	UseDefaultScalingMatrix8x8Flag, %eax
	cmpl	$0, %eax
	je	.LBB19_39
.LBB19_38:                              # %if.then107
                                        #   in Loop: Header=BB19_35 Depth=3
	movslq	-12(%rbp), %rax
	shlq	$8, %rax
	movabsq	$quant_coef8, %rcx
	addq	%rax, %rcx
	movslq	-8(%rbp), %rax
	shlq	$5, %rax
	addq	%rax, %rcx
	movslq	-4(%rbp), %rax
	movl	(%rcx,%rax,4), %eax
	shll	$4, %eax
	movslq	-16(%rbp), %rcx
	movswl	Quant8_intra_default(,%rcx,2), %ecx
	cltd
	idivl	%ecx
	movslq	-12(%rbp), %rcx
	shlq	$8, %rcx
	movabsq	$LevelScale8x8Luma_Intra, %rdx
	addq	%rcx, %rdx
	movslq	-8(%rbp), %rcx
	shlq	$5, %rcx
	addq	%rcx, %rdx
	movslq	-4(%rbp), %rcx
	movl	%eax, (%rdx,%rcx,4)
	movslq	-12(%rbp), %rax
	shlq	$8, %rax
	movabsq	$dequant_coef8, %rcx
	addq	%rax, %rcx
	movslq	-8(%rbp), %rax
	shlq	$5, %rax
	addq	%rax, %rcx
	movslq	-4(%rbp), %rax
	movl	(%rcx,%rax,4), %eax
	movslq	-16(%rbp), %rcx
	movswl	Quant8_intra_default(,%rcx,2), %ecx
	imull	%ecx, %eax
	movslq	-12(%rbp), %rcx
	shlq	$8, %rcx
	movabsq	$InvLevelScale8x8Luma_Intra, %rdx
	addq	%rcx, %rdx
	movslq	-8(%rbp), %rcx
	shlq	$5, %rcx
	addq	%rcx, %rdx
	movslq	-4(%rbp), %rcx
	movl	%eax, (%rdx,%rcx,4)
	jmp	.LBB19_40
.LBB19_39:                              # %if.else139
                                        #   in Loop: Header=BB19_35 Depth=3
	movslq	-12(%rbp), %rax
	shlq	$8, %rax
	movabsq	$quant_coef8, %rcx
	addq	%rax, %rcx
	movslq	-8(%rbp), %rax
	shlq	$5, %rax
	addq	%rax, %rcx
	movslq	-4(%rbp), %rax
	movl	(%rcx,%rax,4), %eax
	shll	$4, %eax
	movslq	-16(%rbp), %rcx
	movswl	ScalingList8x8(,%rcx,2), %ecx
	cltd
	idivl	%ecx
	movslq	-12(%rbp), %rcx
	shlq	$8, %rcx
	movabsq	$LevelScale8x8Luma_Intra, %rdx
	addq	%rcx, %rdx
	movslq	-8(%rbp), %rcx
	shlq	$5, %rcx
	addq	%rcx, %rdx
	movslq	-4(%rbp), %rcx
	movl	%eax, (%rdx,%rcx,4)
	movslq	-12(%rbp), %rax
	shlq	$8, %rax
	movabsq	$dequant_coef8, %rcx
	addq	%rax, %rcx
	movslq	-8(%rbp), %rax
	shlq	$5, %rax
	addq	%rax, %rcx
	movslq	-4(%rbp), %rax
	movl	(%rcx,%rax,4), %eax
	movslq	-16(%rbp), %rcx
	movswl	ScalingList8x8(,%rcx,2), %ecx
	imull	%ecx, %eax
	movslq	-12(%rbp), %rcx
	shlq	$8, %rcx
	movabsq	$InvLevelScale8x8Luma_Intra, %rdx
	addq	%rcx, %rdx
	movslq	-8(%rbp), %rcx
	shlq	$5, %rcx
	addq	%rcx, %rdx
	movslq	-4(%rbp), %rcx
	movl	%eax, (%rdx,%rcx,4)
.LBB19_40:                              # %if.end173
                                        #   in Loop: Header=BB19_35 Depth=3
	cmpl	$0, -24(%rbp)
	je	.LBB19_42
# %bb.41:                               # %lor.lhs.false176
                                        #   in Loop: Header=BB19_35 Depth=3
	movswl	UseDefaultScalingMatrix8x8Flag+2, %eax
	cmpl	$0, %eax
	je	.LBB19_43
.LBB19_42:                              # %if.then179
                                        #   in Loop: Header=BB19_35 Depth=3
	movslq	-12(%rbp), %rax
	shlq	$8, %rax
	movabsq	$quant_coef8, %rcx
	addq	%rax, %rcx
	movslq	-8(%rbp), %rax
	shlq	$5, %rax
	addq	%rax, %rcx
	movslq	-4(%rbp), %rax
	movl	(%rcx,%rax,4), %eax
	shll	$4, %eax
	movslq	-16(%rbp), %rcx
	movswl	Quant8_inter_default(,%rcx,2), %ecx
	cltd
	idivl	%ecx
	movslq	-12(%rbp), %rcx
	shlq	$8, %rcx
	movabsq	$LevelScale8x8Luma_Inter, %rdx
	addq	%rcx, %rdx
	movslq	-8(%rbp), %rcx
	shlq	$5, %rcx
	addq	%rcx, %rdx
	movslq	-4(%rbp), %rcx
	movl	%eax, (%rdx,%rcx,4)
	movslq	-12(%rbp), %rax
	shlq	$8, %rax
	movabsq	$dequant_coef8, %rcx
	addq	%rax, %rcx
	movslq	-8(%rbp), %rax
	shlq	$5, %rax
	addq	%rax, %rcx
	movslq	-4(%rbp), %rax
	movl	(%rcx,%rax,4), %eax
	movslq	-16(%rbp), %rcx
	movswl	Quant8_inter_default(,%rcx,2), %ecx
	imull	%ecx, %eax
	movslq	-12(%rbp), %rcx
	shlq	$8, %rcx
	movabsq	$InvLevelScale8x8Luma_Inter, %rdx
	addq	%rcx, %rdx
	movslq	-8(%rbp), %rcx
	shlq	$5, %rcx
	addq	%rcx, %rdx
	movslq	-4(%rbp), %rcx
	movl	%eax, (%rdx,%rcx,4)
	jmp	.LBB19_44
.LBB19_43:                              # %if.else213
                                        #   in Loop: Header=BB19_35 Depth=3
	movslq	-12(%rbp), %rax
	shlq	$8, %rax
	movabsq	$quant_coef8, %rcx
	addq	%rax, %rcx
	movslq	-8(%rbp), %rax
	shlq	$5, %rax
	addq	%rax, %rcx
	movslq	-4(%rbp), %rax
	movl	(%rcx,%rax,4), %eax
	shll	$4, %eax
	movslq	-16(%rbp), %rcx
	movswl	ScalingList8x8+128(,%rcx,2), %ecx
	cltd
	idivl	%ecx
	movslq	-12(%rbp), %rcx
	shlq	$8, %rcx
	movabsq	$LevelScale8x8Luma_Inter, %rdx
	addq	%rcx, %rdx
	movslq	-8(%rbp), %rcx
	shlq	$5, %rcx
	addq	%rcx, %rdx
	movslq	-4(%rbp), %rcx
	movl	%eax, (%rdx,%rcx,4)
	movslq	-12(%rbp), %rax
	shlq	$8, %rax
	movabsq	$dequant_coef8, %rcx
	addq	%rax, %rcx
	movslq	-8(%rbp), %rax
	shlq	$5, %rax
	addq	%rax, %rcx
	movslq	-4(%rbp), %rax
	movl	(%rcx,%rax,4), %eax
	movslq	-16(%rbp), %rcx
	movswl	ScalingList8x8+128(,%rcx,2), %ecx
	imull	%ecx, %eax
	movslq	-12(%rbp), %rcx
	shlq	$8, %rcx
	movabsq	$InvLevelScale8x8Luma_Inter, %rdx
	addq	%rcx, %rdx
	movslq	-8(%rbp), %rcx
	shlq	$5, %rcx
	addq	%rcx, %rdx
	movslq	-4(%rbp), %rcx
	movl	%eax, (%rdx,%rcx,4)
.LBB19_44:                              # %if.end247
                                        #   in Loop: Header=BB19_35 Depth=3
	jmp	.LBB19_45
.LBB19_45:                              # %for.inc248
                                        #   in Loop: Header=BB19_35 Depth=3
	movl	-4(%rbp), %eax
	addl	$1, %eax
	movl	%eax, -4(%rbp)
	jmp	.LBB19_35
.LBB19_46:                              # %for.end250
                                        #   in Loop: Header=BB19_33 Depth=2
	jmp	.LBB19_47
.LBB19_47:                              # %for.inc251
                                        #   in Loop: Header=BB19_33 Depth=2
	movl	-8(%rbp), %eax
	addl	$1, %eax
	movl	%eax, -8(%rbp)
	jmp	.LBB19_33
.LBB19_48:                              # %for.end253
                                        #   in Loop: Header=BB19_31 Depth=1
	jmp	.LBB19_49
.LBB19_49:                              # %for.inc254
                                        #   in Loop: Header=BB19_31 Depth=1
	movl	-12(%rbp), %eax
	addl	$1, %eax
	movl	%eax, -12(%rbp)
	jmp	.LBB19_31
.LBB19_50:                              # %for.end256
	jmp	.LBB19_51
.LBB19_51:                              # %if.end257
	cmpl	$833101414, -32(%rbp)   # imm = 0x31A81E66
	jne	.LBB19_53
.LBB19_52:
	addq	$32, %rsp
	popq	%rbp
	.cfi_def_cfa %rsp, 8
	retq
.LBB19_53:                              # %func_exit
	.cfi_def_cfa %rbp, 16
	callq	detect_breach
	jmp	.LBB19_52
.Lfunc_end19:
	.size	CalculateQuant8Param.14, .Lfunc_end19-CalculateQuant8Param.14
	.cfi_endproc
                                        # -- End function
	.globl	CheckParameterName.15   # -- Begin function CheckParameterName.15
	.p2align	4, 0x90
	.type	CheckParameterName.15,@function
CheckParameterName.15:                  # @CheckParameterName.15
	.cfi_startproc
# %bb.0:                                # %entry
	pushq	%rbp
	.cfi_def_cfa_offset 16
	.cfi_offset %rbp, -16
	movq	%rsp, %rbp
	.cfi_def_cfa_register %rbp
	pushq	%rbx
	subq	$40, %rsp
	.cfi_offset %rbx, -24
	movl	$206739644, -20(%rbp)   # imm = 0xC5298BC
	movq	%rdi, -40(%rbp)
	movq	%rsi, -32(%rbp)
	movl	$0, -12(%rbp)
	movq	-32(%rbp), %rax
	movl	$0, (%rax)
.LBB20_1:                               # %while.cond
                                        # =>This Inner Loop Header: Depth=1
	xorl	%eax, %eax
	movslq	-12(%rbp), %rcx
	imulq	$20, %rcx, %rcx
	movabsq	$MatrixType4x4, %rdx
	addq	%rcx, %rdx
	cmpq	$0, %rdx
	je	.LBB20_3
# %bb.2:                                # %land.rhs
                                        #   in Loop: Header=BB20_1 Depth=1
	cmpl	$6, -12(%rbp)
	setl	%al
.LBB20_3:                               # %land.end
                                        #   in Loop: Header=BB20_1 Depth=1
	testb	$1, %al
	jne	.LBB20_4
	jmp	.LBB20_8
.LBB20_4:                               # %while.body
