	.text
	.file	"q_matrix.c"
	.globl	CheckParameterName      # -- Begin function CheckParameterName
	.p2align	4, 0x90
	.type	CheckParameterName,@function
CheckParameterName:                     # @CheckParameterName
	.cfi_startproc
# %bb.0:                                # %rand_bb
	pushq	%rbp
	.cfi_def_cfa_offset 16
	.cfi_offset %rbp, -16
	movq	%rsp, %rbp
	.cfi_def_cfa_register %rbp
	pushq	%r14
	pushq	%rbx
	.cfi_offset %rbx, -32
	.cfi_offset %r14, -24
	movq	%rsi, %r14
	movq	%rdi, %rbx
	callq	get_rand
	cmpl	$0, %eax
	jne	.LBB0_17
# %bb.1:                                # %func_CheckParameterName.2
	movq	%rbx, %rdi
	movq	%r14, %rsi
	callq	CheckParameterName.2
	popq	%rbx
	popq	%r14
	popq	%rbp
	.cfi_def_cfa %rsp, 8
	retq
.LBB0_2:                                # %func_CheckParameterName.6
	.cfi_def_cfa %rbp, 16
	movq	%rbx, %rdi
	movq	%r14, %rsi
	callq	CheckParameterName.6
	popq	%rbx
	popq	%r14
	popq	%rbp
	.cfi_def_cfa %rsp, 8
	retq
.LBB0_3:                                # %func_CheckParameterName.8
	.cfi_def_cfa %rbp, 16
	movq	%rbx, %rdi
	movq	%r14, %rsi
	callq	CheckParameterName.8
	popq	%rbx
	popq	%r14
	popq	%rbp
	.cfi_def_cfa %rsp, 8
	retq
.LBB0_4:                                # %func_CheckParameterName.9
	.cfi_def_cfa %rbp, 16
	movq	%rbx, %rdi
	movq	%r14, %rsi
	callq	CheckParameterName.9
	popq	%rbx
	popq	%r14
	popq	%rbp
	.cfi_def_cfa %rsp, 8
	retq
.LBB0_5:                                # %func_CheckParameterName.10
	.cfi_def_cfa %rbp, 16
	movq	%rbx, %rdi
	movq	%r14, %rsi
	callq	CheckParameterName.10
	popq	%rbx
	popq	%r14
	popq	%rbp
	.cfi_def_cfa %rsp, 8
	retq
.LBB0_6:                                # %func_CheckParameterName.19
	.cfi_def_cfa %rbp, 16
	movq	%rbx, %rdi
	movq	%r14, %rsi
	callq	CheckParameterName.19
	popq	%rbx
	popq	%r14
	popq	%rbp
	.cfi_def_cfa %rsp, 8
	retq
.LBB0_7:                                # %func_CheckParameterName.20
	.cfi_def_cfa %rbp, 16
	movq	%rbx, %rdi
	movq	%r14, %rsi
	callq	CheckParameterName.20
	popq	%rbx
	popq	%r14
	popq	%rbp
	.cfi_def_cfa %rsp, 8
	retq
.LBB0_8:                                # %func_CheckParameterName.22
	.cfi_def_cfa %rbp, 16
	movq	%rbx, %rdi
	movq	%r14, %rsi
	callq	CheckParameterName.22
	popq	%rbx
	popq	%r14
	popq	%rbp
	.cfi_def_cfa %rsp, 8
	retq
.LBB0_9:                                # %func_CheckParameterName.35
	.cfi_def_cfa %rbp, 16
	movq	%rbx, %rdi
	movq	%r14, %rsi
	callq	CheckParameterName.35
	popq	%rbx
	popq	%r14
	popq	%rbp
	.cfi_def_cfa %rsp, 8
	retq
.LBB0_10:                               # %func_CheckParameterName.38
	.cfi_def_cfa %rbp, 16
	movq	%rbx, %rdi
	movq	%r14, %rsi
	callq	CheckParameterName.38
	popq	%rbx
	popq	%r14
	popq	%rbp
	.cfi_def_cfa %rsp, 8
	retq
.LBB0_11:                               # %func_CheckParameterName.39
	.cfi_def_cfa %rbp, 16
	movq	%rbx, %rdi
	movq	%r14, %rsi
	callq	CheckParameterName.39
	popq	%rbx
	popq	%r14
	popq	%rbp
	.cfi_def_cfa %rsp, 8
	retq
.LBB0_12:                               # %func_CheckParameterName.40
	.cfi_def_cfa %rbp, 16
	movq	%rbx, %rdi
	movq	%r14, %rsi
	callq	CheckParameterName.40
	popq	%rbx
	popq	%r14
	popq	%rbp
	.cfi_def_cfa %rsp, 8
	retq
.LBB0_13:                               # %func_CheckParameterName.50
	.cfi_def_cfa %rbp, 16
	movq	%rbx, %rdi
	movq	%r14, %rsi
	callq	CheckParameterName.50
	popq	%rbx
	popq	%r14
	popq	%rbp
	.cfi_def_cfa %rsp, 8
	retq
.LBB0_14:                               # %func_CheckParameterName.61
	.cfi_def_cfa %rbp, 16
	movq	%rbx, %rdi
	movq	%r14, %rsi
	callq	CheckParameterName.61
	popq	%rbx
	popq	%r14
	popq	%rbp
	.cfi_def_cfa %rsp, 8
	retq
.LBB0_15:                               # %func_CheckParameterName.68
	.cfi_def_cfa %rbp, 16
	movq	%rbx, %rdi
	movq	%r14, %rsi
	callq	CheckParameterName.68
	popq	%rbx
	popq	%r14
	popq	%rbp
	.cfi_def_cfa %rsp, 8
	retq
.LBB0_16:                               # %func_CheckParameterName.70
	.cfi_def_cfa %rbp, 16
	movq	%rbx, %rdi
	movq	%r14, %rsi
	callq	CheckParameterName.70
	popq	%rbx
	popq	%r14
	popq	%rbp
	.cfi_def_cfa %rsp, 8
	retq
.LBB0_17:                               # %ctrl0
	.cfi_def_cfa %rbp, 16
	cmpl	$1, %eax
	je	.LBB0_2
# %bb.18:                               # %ctrl1
	cmpl	$2, %eax
	je	.LBB0_3
# %bb.19:                               # %ctrl2
	cmpl	$3, %eax
	je	.LBB0_4
# %bb.20:                               # %ctrl3
	cmpl	$4, %eax
	je	.LBB0_5
# %bb.21:                               # %ctrl4
	cmpl	$5, %eax
	je	.LBB0_6
# %bb.22:                               # %ctrl5
	cmpl	$6, %eax
	je	.LBB0_7
# %bb.23:                               # %ctrl6
	cmpl	$7, %eax
	je	.LBB0_8
# %bb.24:                               # %ctrl7
	cmpl	$8, %eax
	je	.LBB0_9
# %bb.25:                               # %ctrl8
	cmpl	$9, %eax
	je	.LBB0_10
# %bb.26:                               # %ctrl9
	cmpl	$10, %eax
	je	.LBB0_11
# %bb.27:                               # %ctrl10
	cmpl	$11, %eax
	je	.LBB0_12
# %bb.28:                               # %ctrl11
	cmpl	$12, %eax
	je	.LBB0_13
# %bb.29:                               # %ctrl12
	cmpl	$13, %eax
	je	.LBB0_14
# %bb.30:                               # %ctrl13
	cmpl	$14, %eax
	je	.LBB0_15
	jmp	.LBB0_16
.Lfunc_end0:
	.size	CheckParameterName, .Lfunc_end0-CheckParameterName
	.cfi_endproc
                                        # -- End function
	.globl	ParseMatrix             # -- Begin function ParseMatrix
	.p2align	4, 0x90
	.type	ParseMatrix,@function
ParseMatrix:                            # @ParseMatrix
	.cfi_startproc
# %bb.0:                                # %rand_bb
	pushq	%rbp
	.cfi_def_cfa_offset 16
	.cfi_offset %rbp, -16
	movq	%rsp, %rbp
	.cfi_def_cfa_register %rbp
	pushq	%r14
	pushq	%rbx
	.cfi_offset %rbx, -32
	.cfi_offset %r14, -24
	movl	%esi, %r14d
	movq	%rdi, %rbx
	callq	get_rand
	cmpl	$0, %eax
	jne	.LBB1_17
# %bb.1:                                # %func_ParseMatrix.12
	movq	%rbx, %rdi
	movl	%r14d, %esi
	callq	ParseMatrix.12
	popq	%rbx
	popq	%r14
	popq	%rbp
	.cfi_def_cfa %rsp, 8
	retq
.LBB1_2:                                # %func_ParseMatrix.13
	.cfi_def_cfa %rbp, 16
	movq	%rbx, %rdi
	movl	%r14d, %esi
	callq	ParseMatrix.13
	popq	%rbx
	popq	%r14
	popq	%rbp
	.cfi_def_cfa %rsp, 8
	retq
.LBB1_3:                                # %func_ParseMatrix.16
	.cfi_def_cfa %rbp, 16
	movq	%rbx, %rdi
	movl	%r14d, %esi
	callq	ParseMatrix.16
	popq	%rbx
	popq	%r14
	popq	%rbp
	.cfi_def_cfa %rsp, 8
	retq
.LBB1_4:                                # %func_ParseMatrix.18
	.cfi_def_cfa %rbp, 16
	movq	%rbx, %rdi
	movl	%r14d, %esi
	callq	ParseMatrix.18
	popq	%rbx
	popq	%r14
	popq	%rbp
	.cfi_def_cfa %rsp, 8
	retq
.LBB1_5:                                # %func_ParseMatrix.21
	.cfi_def_cfa %rbp, 16
	movq	%rbx, %rdi
	movl	%r14d, %esi
	callq	ParseMatrix.21
	popq	%rbx
	popq	%r14
	popq	%rbp
	.cfi_def_cfa %rsp, 8
	retq
.LBB1_6:                                # %func_ParseMatrix.25
	.cfi_def_cfa %rbp, 16
	movq	%rbx, %rdi
	movl	%r14d, %esi
	callq	ParseMatrix.25
	popq	%rbx
	popq	%r14
	popq	%rbp
	.cfi_def_cfa %rsp, 8
	retq
.LBB1_7:                                # %func_ParseMatrix.27
	.cfi_def_cfa %rbp, 16
	movq	%rbx, %rdi
	movl	%r14d, %esi
	callq	ParseMatrix.27
	popq	%rbx
	popq	%r14
	popq	%rbp
	.cfi_def_cfa %rsp, 8
	retq
.LBB1_8:                                # %func_ParseMatrix.32
	.cfi_def_cfa %rbp, 16
	movq	%rbx, %rdi
	movl	%r14d, %esi
	callq	ParseMatrix.32
	popq	%rbx
	popq	%r14
	popq	%rbp
	.cfi_def_cfa %rsp, 8
	retq
.LBB1_9:                                # %func_ParseMatrix.33
	.cfi_def_cfa %rbp, 16
	movq	%rbx, %rdi
	movl	%r14d, %esi
	callq	ParseMatrix.33
	popq	%rbx
	popq	%r14
	popq	%rbp
	.cfi_def_cfa %rsp, 8
	retq
.LBB1_10:                               # %func_ParseMatrix.41
	.cfi_def_cfa %rbp, 16
	movq	%rbx, %rdi
	movl	%r14d, %esi
	callq	ParseMatrix.41
	popq	%rbx
	popq	%r14
	popq	%rbp
	.cfi_def_cfa %rsp, 8
	retq
.LBB1_11:                               # %func_ParseMatrix.45
	.cfi_def_cfa %rbp, 16
	movq	%rbx, %rdi
	movl	%r14d, %esi
	callq	ParseMatrix.45
	popq	%rbx
	popq	%r14
	popq	%rbp
	.cfi_def_cfa %rsp, 8
	retq
.LBB1_12:                               # %func_ParseMatrix.49
	.cfi_def_cfa %rbp, 16
	movq	%rbx, %rdi
	movl	%r14d, %esi
	callq	ParseMatrix.49
	popq	%rbx
	popq	%r14
	popq	%rbp
	.cfi_def_cfa %rsp, 8
	retq
.LBB1_13:                               # %func_ParseMatrix.53
	.cfi_def_cfa %rbp, 16
	movq	%rbx, %rdi
	movl	%r14d, %esi
	callq	ParseMatrix.53
	popq	%rbx
	popq	%r14
	popq	%rbp
	.cfi_def_cfa %rsp, 8
	retq
.LBB1_14:                               # %func_ParseMatrix.58
	.cfi_def_cfa %rbp, 16
	movq	%rbx, %rdi
	movl	%r14d, %esi
	callq	ParseMatrix.58
	popq	%rbx
	popq	%r14
	popq	%rbp
	.cfi_def_cfa %rsp, 8
	retq
.LBB1_15:                               # %func_ParseMatrix.62
	.cfi_def_cfa %rbp, 16
	movq	%rbx, %rdi
	movl	%r14d, %esi
	callq	ParseMatrix.62
	popq	%rbx
	popq	%r14
	popq	%rbp
	.cfi_def_cfa %rsp, 8
	retq
.LBB1_16:                               # %func_ParseMatrix.63
	.cfi_def_cfa %rbp, 16
	movq	%rbx, %rdi
	movl	%r14d, %esi
	callq	ParseMatrix.63
	popq	%rbx
	popq	%r14
	popq	%rbp
	.cfi_def_cfa %rsp, 8
	retq
.LBB1_17:                               # %ctrl0
	.cfi_def_cfa %rbp, 16
	cmpl	$1, %eax
	je	.LBB1_2
# %bb.18:                               # %ctrl1
	cmpl	$2, %eax
	je	.LBB1_3
# %bb.19:                               # %ctrl2
	cmpl	$3, %eax
	je	.LBB1_4
# %bb.20:                               # %ctrl3
	cmpl	$4, %eax
	je	.LBB1_5
# %bb.21:                               # %ctrl4
	cmpl	$5, %eax
	je	.LBB1_6
# %bb.22:                               # %ctrl5
	cmpl	$6, %eax
	je	.LBB1_7
# %bb.23:                               # %ctrl6
	cmpl	$7, %eax
	je	.LBB1_8
# %bb.24:                               # %ctrl7
	cmpl	$8, %eax
	je	.LBB1_9
# %bb.25:                               # %ctrl8
	cmpl	$9, %eax
	je	.LBB1_10
# %bb.26:                               # %ctrl9
	cmpl	$10, %eax
	je	.LBB1_11
# %bb.27:                               # %ctrl10
	cmpl	$11, %eax
	je	.LBB1_12
# %bb.28:                               # %ctrl11
	cmpl	$12, %eax
	je	.LBB1_13
# %bb.29:                               # %ctrl12
	cmpl	$13, %eax
	je	.LBB1_14
# %bb.30:                               # %ctrl13
	cmpl	$14, %eax
	je	.LBB1_15
	jmp	.LBB1_16
.Lfunc_end1:
	.size	ParseMatrix, .Lfunc_end1-ParseMatrix
	.cfi_endproc
                                        # -- End function
	.globl	PatchMatrix             # -- Begin function PatchMatrix
	.p2align	4, 0x90
	.type	PatchMatrix,@function
PatchMatrix:                            # @PatchMatrix
	.cfi_startproc
# %bb.0:                                # %rand_bb
	pushq	%rbp
	.cfi_def_cfa_offset 16
	.cfi_offset %rbp, -16
	movq	%rsp, %rbp
	.cfi_def_cfa_register %rbp
	callq	get_rand
	cmpl	$0, %eax
	jne	.LBB2_17
# %bb.1:                                # %func_PatchMatrix.1
	callq	PatchMatrix.1
	popq	%rbp
	.cfi_def_cfa %rsp, 8
	retq
.LBB2_2:                                # %func_PatchMatrix.4
	.cfi_def_cfa %rbp, 16
	callq	PatchMatrix.4
	popq	%rbp
	.cfi_def_cfa %rsp, 8
	retq
.LBB2_3:                                # %func_PatchMatrix.5
	.cfi_def_cfa %rbp, 16
	callq	PatchMatrix.5
	popq	%rbp
	.cfi_def_cfa %rsp, 8
	retq
.LBB2_4:                                # %func_PatchMatrix.11
	.cfi_def_cfa %rbp, 16
	callq	PatchMatrix.11
	popq	%rbp
	.cfi_def_cfa %rsp, 8
	retq
.LBB2_5:                                # %func_PatchMatrix.14
	.cfi_def_cfa %rbp, 16
	callq	PatchMatrix.14
	popq	%rbp
	.cfi_def_cfa %rsp, 8
	retq
.LBB2_6:                                # %func_PatchMatrix.42
	.cfi_def_cfa %rbp, 16
	callq	PatchMatrix.42
	popq	%rbp
	.cfi_def_cfa %rsp, 8
	retq
.LBB2_7:                                # %func_PatchMatrix.44
	.cfi_def_cfa %rbp, 16
	callq	PatchMatrix.44
	popq	%rbp
	.cfi_def_cfa %rsp, 8
	retq
.LBB2_8:                                # %func_PatchMatrix.46
	.cfi_def_cfa %rbp, 16
	callq	PatchMatrix.46
	popq	%rbp
	.cfi_def_cfa %rsp, 8
	retq
.LBB2_9:                                # %func_PatchMatrix.48
	.cfi_def_cfa %rbp, 16
	callq	PatchMatrix.48
	popq	%rbp
	.cfi_def_cfa %rsp, 8
	retq
.LBB2_10:                               # %func_PatchMatrix.52
	.cfi_def_cfa %rbp, 16
	callq	PatchMatrix.52
	popq	%rbp
	.cfi_def_cfa %rsp, 8
	retq
.LBB2_11:                               # %func_PatchMatrix.56
	.cfi_def_cfa %rbp, 16
	callq	PatchMatrix.56
	popq	%rbp
	.cfi_def_cfa %rsp, 8
	retq
.LBB2_12:                               # %func_PatchMatrix.64
	.cfi_def_cfa %rbp, 16
	callq	PatchMatrix.64
	popq	%rbp
	.cfi_def_cfa %rsp, 8
	retq
.LBB2_13:                               # %func_PatchMatrix.65
	.cfi_def_cfa %rbp, 16
	callq	PatchMatrix.65
	popq	%rbp
	.cfi_def_cfa %rsp, 8
	retq
.LBB2_14:                               # %func_PatchMatrix.66
	.cfi_def_cfa %rbp, 16
	callq	PatchMatrix.66
	popq	%rbp
	.cfi_def_cfa %rsp, 8
	retq
.LBB2_15:                               # %func_PatchMatrix.67
	.cfi_def_cfa %rbp, 16
	callq	PatchMatrix.67
	popq	%rbp
	.cfi_def_cfa %rsp, 8
	retq
.LBB2_16:                               # %func_PatchMatrix.69
	.cfi_def_cfa %rbp, 16
	callq	PatchMatrix.69
	popq	%rbp
	.cfi_def_cfa %rsp, 8
	retq
.LBB2_17:                               # %ctrl0
	.cfi_def_cfa %rbp, 16
	cmpl	$1, %eax
	je	.LBB2_2
# %bb.18:                               # %ctrl1
	cmpl	$2, %eax
	je	.LBB2_3
# %bb.19:                               # %ctrl2
	cmpl	$3, %eax
	je	.LBB2_4
# %bb.20:                               # %ctrl3
	cmpl	$4, %eax
	je	.LBB2_5
# %bb.21:                               # %ctrl4
	cmpl	$5, %eax
	je	.LBB2_6
# %bb.22:                               # %ctrl5
	cmpl	$6, %eax
	je	.LBB2_7
# %bb.23:                               # %ctrl6
	cmpl	$7, %eax
	je	.LBB2_8
# %bb.24:                               # %ctrl7
	cmpl	$8, %eax
	je	.LBB2_9
# %bb.25:                               # %ctrl8
	cmpl	$9, %eax
	je	.LBB2_10
# %bb.26:                               # %ctrl9
	cmpl	$10, %eax
	je	.LBB2_11
# %bb.27:                               # %ctrl10
	cmpl	$11, %eax
	je	.LBB2_12
# %bb.28:                               # %ctrl11
	cmpl	$12, %eax
	je	.LBB2_13
# %bb.29:                               # %ctrl12
	cmpl	$13, %eax
	je	.LBB2_14
# %bb.30:                               # %ctrl13
	cmpl	$14, %eax
	je	.LBB2_15
	jmp	.LBB2_16
.Lfunc_end2:
	.size	PatchMatrix, .Lfunc_end2-PatchMatrix
	.cfi_endproc
                                        # -- End function
	.globl	Init_QMatrix            # -- Begin function Init_QMatrix
	.p2align	4, 0x90
	.type	Init_QMatrix,@function
Init_QMatrix:                           # @Init_QMatrix
	.cfi_startproc
# %bb.0:                                # %entry
	pushq	%rbp
	.cfi_def_cfa_offset 16
	.cfi_offset %rbp, -16
	movq	%rsp, %rbp
	.cfi_def_cfa_register %rbp
	pushq	%rbx
	pushq	%rax
	.cfi_offset %rbx, -24
	movq	input, %rax
	cmpl	$0, 3256(%rax)
	je	.LBB3_5
# %bb.1:                                # %if.then
	movq	input, %rsi
	addq	$1024, %rsi             # imm = 0x400
	movabsq	$.L.str.9, %rdi
	movb	$0, %al
	callq	printf
	movq	input, %rdi
	addq	$1024, %rdi             # imm = 0x400
	xorl	%esi, %esi
	callq	GetConfigFileContent
	movq	%rax, -16(%rbp)
	cmpq	$0, -16(%rbp)
	je	.LBB3_3
# %bb.2:                                # %if.then4
	movq	-16(%rbp), %rbx
	movq	-16(%rbp), %rdi
	callq	strlen
	movq	%rbx, %rdi
	movl	%eax, %esi
	callq	ParseMatrix
	jmp	.LBB3_4
.LBB3_3:                                # %if.else
	movabsq	$.L.str.10, %rdi
	movabsq	$errortext, %rsi
	movb	$0, %al
	callq	printf
.LBB3_4:                                # %if.end
	callq	PatchMatrix
	movabsq	$.L.str.11, %rdi
	movb	$0, %al
	callq	printf
	movabsq	$UseDefaultScalingMatrix4x4Flag, %rdi
	xorl	%esi, %esi
	movl	$12, %edx
	callq	memset
	movw	$0, UseDefaultScalingMatrix8x8Flag+2
	movw	$0, UseDefaultScalingMatrix8x8Flag
	movq	-16(%rbp), %rdi
	callq	free
.LBB3_5:                                # %if.end8
	addq	$8, %rsp
	popq	%rbx
	popq	%rbp
	.cfi_def_cfa %rsp, 8
	retq
.Lfunc_end3:
	.size	Init_QMatrix, .Lfunc_end3-Init_QMatrix
	.cfi_endproc
                                        # -- End function
	.globl	CalculateQuantParam     # -- Begin function CalculateQuantParam
	.p2align	4, 0x90
	.type	CalculateQuantParam,@function
CalculateQuantParam:                    # @CalculateQuantParam
	.cfi_startproc
# %bb.0:                                # %rand_bb
	pushq	%rbp
	.cfi_def_cfa_offset 16
	.cfi_offset %rbp, -16
	movq	%rsp, %rbp
	.cfi_def_cfa_register %rbp
	callq	get_rand
	cmpl	$0, %eax
	jne	.LBB4_17
# %bb.1:                                # %func_CalculateQuantParam.3
	callq	CalculateQuantParam.3
	popq	%rbp
	.cfi_def_cfa %rsp, 8
	retq
.LBB4_2:                                # %func_CalculateQuantParam.7
	.cfi_def_cfa %rbp, 16
	callq	CalculateQuantParam.7
	popq	%rbp
	.cfi_def_cfa %rsp, 8
	retq
.LBB4_3:                                # %func_CalculateQuantParam.15
	.cfi_def_cfa %rbp, 16
	callq	CalculateQuantParam.15
	popq	%rbp
	.cfi_def_cfa %rsp, 8
	retq
.LBB4_4:                                # %func_CalculateQuantParam.17
	.cfi_def_cfa %rbp, 16
	callq	CalculateQuantParam.17
	popq	%rbp
	.cfi_def_cfa %rsp, 8
	retq
.LBB4_5:                                # %func_CalculateQuantParam.28
	.cfi_def_cfa %rbp, 16
	callq	CalculateQuantParam.28
	popq	%rbp
	.cfi_def_cfa %rsp, 8
	retq
.LBB4_6:                                # %func_CalculateQuantParam.29
	.cfi_def_cfa %rbp, 16
	callq	CalculateQuantParam.29
	popq	%rbp
	.cfi_def_cfa %rsp, 8
	retq
.LBB4_7:                                # %func_CalculateQuantParam.31
	.cfi_def_cfa %rbp, 16
	callq	CalculateQuantParam.31
	popq	%rbp
	.cfi_def_cfa %rsp, 8
	retq
.LBB4_8:                                # %func_CalculateQuantParam.34
	.cfi_def_cfa %rbp, 16
	callq	CalculateQuantParam.34
	popq	%rbp
	.cfi_def_cfa %rsp, 8
	retq
.LBB4_9:                                # %func_CalculateQuantParam.36
	.cfi_def_cfa %rbp, 16
	callq	CalculateQuantParam.36
	popq	%rbp
	.cfi_def_cfa %rsp, 8
	retq
.LBB4_10:                               # %func_CalculateQuantParam.37
	.cfi_def_cfa %rbp, 16
	callq	CalculateQuantParam.37
	popq	%rbp
	.cfi_def_cfa %rsp, 8
	retq
.LBB4_11:                               # %func_CalculateQuantParam.47
	.cfi_def_cfa %rbp, 16
	callq	CalculateQuantParam.47
	popq	%rbp
	.cfi_def_cfa %rsp, 8
	retq
.LBB4_12:                               # %func_CalculateQuantParam.54
	.cfi_def_cfa %rbp, 16
	callq	CalculateQuantParam.54
	popq	%rbp
	.cfi_def_cfa %rsp, 8
	retq
.LBB4_13:                               # %func_CalculateQuantParam.55
	.cfi_def_cfa %rbp, 16
	callq	CalculateQuantParam.55
	popq	%rbp
	.cfi_def_cfa %rsp, 8
	retq
.LBB4_14:                               # %func_CalculateQuantParam.57
	.cfi_def_cfa %rbp, 16
	callq	CalculateQuantParam.57
	popq	%rbp
	.cfi_def_cfa %rsp, 8
	retq
.LBB4_15:                               # %func_CalculateQuantParam.59
	.cfi_def_cfa %rbp, 16
	callq	CalculateQuantParam.59
	popq	%rbp
	.cfi_def_cfa %rsp, 8
	retq
.LBB4_16:                               # %func_CalculateQuantParam.60
	.cfi_def_cfa %rbp, 16
	callq	CalculateQuantParam.60
	popq	%rbp
	.cfi_def_cfa %rsp, 8
	retq
.LBB4_17:                               # %ctrl0
	.cfi_def_cfa %rbp, 16
	cmpl	$1, %eax
	je	.LBB4_2
# %bb.18:                               # %ctrl1
	cmpl	$2, %eax
	je	.LBB4_3
# %bb.19:                               # %ctrl2
	cmpl	$3, %eax
	je	.LBB4_4
# %bb.20:                               # %ctrl3
	cmpl	$4, %eax
	je	.LBB4_5
# %bb.21:                               # %ctrl4
	cmpl	$5, %eax
	je	.LBB4_6
# %bb.22:                               # %ctrl5
	cmpl	$6, %eax
	je	.LBB4_7
# %bb.23:                               # %ctrl6
	cmpl	$7, %eax
	je	.LBB4_8
# %bb.24:                               # %ctrl7
	cmpl	$8, %eax
	je	.LBB4_9
# %bb.25:                               # %ctrl8
	cmpl	$9, %eax
	je	.LBB4_10
# %bb.26:                               # %ctrl9
	cmpl	$10, %eax
	je	.LBB4_11
# %bb.27:                               # %ctrl10
	cmpl	$11, %eax
	je	.LBB4_12
# %bb.28:                               # %ctrl11
	cmpl	$12, %eax
	je	.LBB4_13
# %bb.29:                               # %ctrl12
	cmpl	$13, %eax
	je	.LBB4_14
# %bb.30:                               # %ctrl13
	cmpl	$14, %eax
	je	.LBB4_15
	jmp	.LBB4_16
.Lfunc_end4:
	.size	CalculateQuantParam, .Lfunc_end4-CalculateQuantParam
	.cfi_endproc
                                        # -- End function
	.globl	CalculateQuant8Param    # -- Begin function CalculateQuant8Param
	.p2align	4, 0x90
	.type	CalculateQuant8Param,@function
CalculateQuant8Param:                   # @CalculateQuant8Param
	.cfi_startproc
# %bb.0:                                # %rand_bb
	pushq	%rbp
	.cfi_def_cfa_offset 16
	.cfi_offset %rbp, -16
	movq	%rsp, %rbp
	.cfi_def_cfa_register %rbp
	callq	get_rand
	cmpl	$0, %eax
	jne	.LBB5_17
# %bb.1:                                # %func_CalculateQuant8Param.23
	callq	CalculateQuant8Param.23
	popq	%rbp
	.cfi_def_cfa %rsp, 8
	retq
.LBB5_2:                                # %func_CalculateQuant8Param.24
	.cfi_def_cfa %rbp, 16
	callq	CalculateQuant8Param.24
	popq	%rbp
	.cfi_def_cfa %rsp, 8
	retq
.LBB5_3:                                # %func_CalculateQuant8Param.26
	.cfi_def_cfa %rbp, 16
	callq	CalculateQuant8Param.26
	popq	%rbp
	.cfi_def_cfa %rsp, 8
	retq
.LBB5_4:                                # %func_CalculateQuant8Param.30
	.cfi_def_cfa %rbp, 16
	callq	CalculateQuant8Param.30
	popq	%rbp
	.cfi_def_cfa %rsp, 8
	retq
.LBB5_5:                                # %func_CalculateQuant8Param.43
	.cfi_def_cfa %rbp, 16
	callq	CalculateQuant8Param.43
	popq	%rbp
	.cfi_def_cfa %rsp, 8
	retq
.LBB5_6:                                # %func_CalculateQuant8Param.51
	.cfi_def_cfa %rbp, 16
	callq	CalculateQuant8Param.51
	popq	%rbp
	.cfi_def_cfa %rsp, 8
	retq
.LBB5_7:                                # %func_CalculateQuant8Param.71
	.cfi_def_cfa %rbp, 16
	callq	CalculateQuant8Param.71
	popq	%rbp
	.cfi_def_cfa %rsp, 8
	retq
.LBB5_8:                                # %func_CalculateQuant8Param.72
	.cfi_def_cfa %rbp, 16
	callq	CalculateQuant8Param.72
	popq	%rbp
	.cfi_def_cfa %rsp, 8
	retq
.LBB5_9:                                # %func_CalculateQuant8Param.73
	.cfi_def_cfa %rbp, 16
	callq	CalculateQuant8Param.73
	popq	%rbp
	.cfi_def_cfa %rsp, 8
	retq
.LBB5_10:                               # %func_CalculateQuant8Param.74
	.cfi_def_cfa %rbp, 16
	callq	CalculateQuant8Param.74
	popq	%rbp
	.cfi_def_cfa %rsp, 8
	retq
.LBB5_11:                               # %func_CalculateQuant8Param.75
	.cfi_def_cfa %rbp, 16
	callq	CalculateQuant8Param.75
	popq	%rbp
	.cfi_def_cfa %rsp, 8
	retq
.LBB5_12:                               # %func_CalculateQuant8Param.76
	.cfi_def_cfa %rbp, 16
	callq	CalculateQuant8Param.76
	popq	%rbp
	.cfi_def_cfa %rsp, 8
	retq
.LBB5_13:                               # %func_CalculateQuant8Param.77
	.cfi_def_cfa %rbp, 16
	callq	CalculateQuant8Param.77
	popq	%rbp
	.cfi_def_cfa %rsp, 8
	retq
.LBB5_14:                               # %func_CalculateQuant8Param.78
	.cfi_def_cfa %rbp, 16
	callq	CalculateQuant8Param.78
	popq	%rbp
	.cfi_def_cfa %rsp, 8
	retq
.LBB5_15:                               # %func_CalculateQuant8Param.79
	.cfi_def_cfa %rbp, 16
	callq	CalculateQuant8Param.79
	popq	%rbp
	.cfi_def_cfa %rsp, 8
	retq
.LBB5_16:                               # %func_CalculateQuant8Param.80
	.cfi_def_cfa %rbp, 16
	callq	CalculateQuant8Param.80
	popq	%rbp
	.cfi_def_cfa %rsp, 8
	retq
.LBB5_17:                               # %ctrl0
	.cfi_def_cfa %rbp, 16
	cmpl	$1, %eax
	je	.LBB5_2
# %bb.18:                               # %ctrl1
	cmpl	$2, %eax
	je	.LBB5_3
# %bb.19:                               # %ctrl2
	cmpl	$3, %eax
	je	.LBB5_4
# %bb.20:                               # %ctrl3
	cmpl	$4, %eax
	je	.LBB5_5
# %bb.21:                               # %ctrl4
	cmpl	$5, %eax
	je	.LBB5_6
# %bb.22:                               # %ctrl5
	cmpl	$6, %eax
	je	.LBB5_7
# %bb.23:                               # %ctrl6
	cmpl	$7, %eax
	je	.LBB5_8
# %bb.24:                               # %ctrl7
	cmpl	$8, %eax
	je	.LBB5_9
# %bb.25:                               # %ctrl8
	cmpl	$9, %eax
	je	.LBB5_10
# %bb.26:                               # %ctrl9
	cmpl	$10, %eax
	je	.LBB5_11
# %bb.27:                               # %ctrl10
	cmpl	$11, %eax
	je	.LBB5_12
# %bb.28:                               # %ctrl11
	cmpl	$12, %eax
	je	.LBB5_13
# %bb.29:                               # %ctrl12
	cmpl	$13, %eax
	je	.LBB5_14
# %bb.30:                               # %ctrl13
	cmpl	$14, %eax
	je	.LBB5_15
	jmp	.LBB5_16
.Lfunc_end5:
	.size	CalculateQuant8Param, .Lfunc_end5-CalculateQuant8Param
	.cfi_endproc
                                        # -- End function
	.globl	PatchMatrix.1           # -- Begin function PatchMatrix.1
	.p2align	4, 0x90
	.type	PatchMatrix.1,@function
PatchMatrix.1:                          # @PatchMatrix.1
	.cfi_startproc
# %bb.0:                                # %entry
	pushq	%rbp
	.cfi_def_cfa_offset 16
	.cfi_offset %rbp, -16
	movq	%rsp, %rbp
	.cfi_def_cfa_register %rbp
	subq	$32, %rsp
	movl	$726459218, -24(%rbp)   # imm = 0x2B4CE352
	movl	$0, -4(%rbp)
.LBB6_1:                                # %for.cond
                                        # =>This Loop Header: Depth=1
                                        #     Child Loop BB6_5 Depth 2
                                        #     Child Loop BB6_27 Depth 2
	cmpl	$6, -4(%rbp)
	jge	.LBB6_47
# %bb.2:                                # %for.body
                                        #   in Loop: Header=BB6_1 Depth=1
	movq	input, %rax
	movslq	-4(%rbp), %rcx
	cmpl	$0, 3260(%rax,%rcx,4)
	je	.LBB6_23
# %bb.3:                                # %if.then
                                        #   in Loop: Header=BB6_1 Depth=1
	movslq	-4(%rbp), %rax
	shlq	$5, %rax
	movabsq	$ScalingList4x4input, %rcx
	addq	%rax, %rcx
	movq	%rcx, -16(%rbp)
	movslq	-4(%rbp), %rax
	cmpl	$0, matrix4x4_check(,%rax,4)
	je	.LBB6_18
# %bb.4:                                # %if.then6
                                        #   in Loop: Header=BB6_1 Depth=1
	movl	$0, -20(%rbp)
	movl	$0, -8(%rbp)
.LBB6_5:                                # %for.cond7
                                        #   Parent Loop BB6_1 Depth=1
                                        # =>  This Inner Loop Header: Depth=2
	cmpl	$16, -8(%rbp)
	jge	.LBB6_11
# %bb.6:                                # %for.body9
                                        #   in Loop: Header=BB6_5 Depth=2
	movq	-16(%rbp), %rax
	movslq	-8(%rbp), %rcx
	movswl	(%rax,%rcx,2), %eax
	cmpl	$0, %eax
	jl	.LBB6_8
# %bb.7:                                # %lor.lhs.false
                                        #   in Loop: Header=BB6_5 Depth=2
	movq	-16(%rbp), %rax
	movslq	-8(%rbp), %rcx
	movswl	(%rax,%rcx,2), %eax
	cmpl	$255, %eax
	jle	.LBB6_9
.LBB6_8:                                # %if.then19
                                        #   in Loop: Header=BB6_1 Depth=1
	movl	$1, -20(%rbp)
	jmp	.LBB6_12
.LBB6_9:                                # %if.end
                                        #   in Loop: Header=BB6_5 Depth=2
	jmp	.LBB6_10
.LBB6_10:                               # %for.inc
                                        #   in Loop: Header=BB6_5 Depth=2
	movl	-8(%rbp), %eax
	addl	$1, %eax
	movl	%eax, -8(%rbp)
	jmp	.LBB6_5
.LBB6_11:                               # %for.end.loopexit
                                        #   in Loop: Header=BB6_1 Depth=1
	jmp	.LBB6_12
.LBB6_12:                               # %for.end
                                        #   in Loop: Header=BB6_1 Depth=1
	cmpl	$0, -20(%rbp)
	je	.LBB6_17
# %bb.13:                               # %if.then21
                                        #   in Loop: Header=BB6_1 Depth=1
	movslq	-4(%rbp), %rax
	imulq	$20, %rax, %rax
	movabsq	$MatrixType4x4, %rsi
	addq	%rax, %rsi
	movabsq	$.L.str.6, %rdi
	movb	$0, %al
	callq	printf
	movabsq	$.L.str.7, %rdi
	movb	$0, %al
	callq	printf
	cmpl	$2, -4(%rbp)
	jle	.LBB6_15
# %bb.14:                               # %if.then28
                                        #   in Loop: Header=BB6_1 Depth=1
	movq	-16(%rbp), %rax
	movq	Quant_inter_default, %rcx
	movq	%rcx, (%rax)
	movq	Quant_inter_default+8, %rcx
	movq	%rcx, 8(%rax)
	movq	Quant_inter_default+16, %rcx
	movq	%rcx, 16(%rax)
	movq	Quant_inter_default+24, %rcx
	movq	%rcx, 24(%rax)
	jmp	.LBB6_16
.LBB6_15:                               # %if.else
                                        #   in Loop: Header=BB6_1 Depth=1
	movq	-16(%rbp), %rax
	movq	Quant_intra_default, %rcx
	movq	%rcx, (%rax)
	movq	Quant_intra_default+8, %rcx
	movq	%rcx, 8(%rax)
	movq	Quant_intra_default+16, %rcx
	movq	%rcx, 16(%rax)
	movq	Quant_intra_default+24, %rcx
	movq	%rcx, 24(%rax)
.LBB6_16:                               # %if.end29
                                        #   in Loop: Header=BB6_1 Depth=1
	jmp	.LBB6_17
.LBB6_17:                               # %if.end30
                                        #   in Loop: Header=BB6_1 Depth=1
	jmp	.LBB6_22
.LBB6_18:                               # %if.else31
                                        #   in Loop: Header=BB6_1 Depth=1
	movslq	-4(%rbp), %rax
	imulq	$20, %rax, %rax
	movabsq	$MatrixType4x4, %rsi
	addq	%rax, %rsi
	movabsq	$.L.str.8, %rdi
	movb	$0, %al
	callq	printf
	cmpl	$2, -4(%rbp)
	jle	.LBB6_20
# %bb.19:                               # %if.then38
                                        #   in Loop: Header=BB6_1 Depth=1
	movq	-16(%rbp), %rax
	movq	Quant_inter_default, %rcx
	movq	%rcx, (%rax)
	movq	Quant_inter_default+8, %rcx
	movq	%rcx, 8(%rax)
	movq	Quant_inter_default+16, %rcx
	movq	%rcx, 16(%rax)
	movq	Quant_inter_default+24, %rcx
	movq	%rcx, 24(%rax)
	jmp	.LBB6_21
.LBB6_20:                               # %if.else39
                                        #   in Loop: Header=BB6_1 Depth=1
	movq	-16(%rbp), %rax
	movq	Quant_intra_default, %rcx
	movq	%rcx, (%rax)
	movq	Quant_intra_default+8, %rcx
	movq	%rcx, 8(%rax)
	movq	Quant_intra_default+16, %rcx
	movq	%rcx, 16(%rax)
	movq	Quant_intra_default+24, %rcx
	movq	%rcx, 24(%rax)
.LBB6_21:                               # %if.end40
                                        #   in Loop: Header=BB6_1 Depth=1
	jmp	.LBB6_22
.LBB6_22:                               # %if.end41
                                        #   in Loop: Header=BB6_1 Depth=1
	jmp	.LBB6_23
.LBB6_23:                               # %if.end42
                                        #   in Loop: Header=BB6_1 Depth=1
	cmpl	$2, -4(%rbp)
	jge	.LBB6_45
# %bb.24:                               # %land.lhs.true
                                        #   in Loop: Header=BB6_1 Depth=1
	movq	input, %rax
	movl	-4(%rbp), %ecx
	addl	$6, %ecx
	movslq	%ecx, %rcx
	cmpl	$0, 3260(%rax,%rcx,4)
	je	.LBB6_45
# %bb.25:                               # %if.then49
                                        #   in Loop: Header=BB6_1 Depth=1
	movslq	-4(%rbp), %rax
	shlq	$7, %rax
	movabsq	$ScalingList8x8input, %rcx
	addq	%rax, %rcx
	movq	%rcx, -16(%rbp)
	movslq	-4(%rbp), %rax
	cmpl	$0, matrix8x8_check(,%rax,4)
	je	.LBB6_40
# %bb.26:                               # %if.then56
                                        #   in Loop: Header=BB6_1 Depth=1
	movl	$0, -20(%rbp)
	movl	$0, -8(%rbp)
.LBB6_27:                               # %for.cond57
                                        #   Parent Loop BB6_1 Depth=1
                                        # =>  This Inner Loop Header: Depth=2
	cmpl	$64, -8(%rbp)
	jge	.LBB6_33
# %bb.28:                               # %for.body60
                                        #   in Loop: Header=BB6_27 Depth=2
	movq	-16(%rbp), %rax
	movslq	-8(%rbp), %rcx
	movswl	(%rax,%rcx,2), %eax
	cmpl	$0, %eax
	jl	.LBB6_30
# %bb.29:                               # %lor.lhs.false66
                                        #   in Loop: Header=BB6_27 Depth=2
	movq	-16(%rbp), %rax
	movslq	-8(%rbp), %rcx
	movswl	(%rax,%rcx,2), %eax
	cmpl	$255, %eax
	jle	.LBB6_31
.LBB6_30:                               # %if.then72
                                        #   in Loop: Header=BB6_1 Depth=1
	movl	$1, -20(%rbp)
	jmp	.LBB6_34
.LBB6_31:                               # %if.end73
                                        #   in Loop: Header=BB6_27 Depth=2
	jmp	.LBB6_32
.LBB6_32:                               # %for.inc74
                                        #   in Loop: Header=BB6_27 Depth=2
	movl	-8(%rbp), %eax
	addl	$1, %eax
	movl	%eax, -8(%rbp)
	jmp	.LBB6_27
.LBB6_33:                               # %for.end76.loopexit
                                        #   in Loop: Header=BB6_1 Depth=1
	jmp	.LBB6_34
.LBB6_34:                               # %for.end76
                                        #   in Loop: Header=BB6_1 Depth=1
	cmpl	$0, -20(%rbp)
	je	.LBB6_39
# %bb.35:                               # %if.then78
                                        #   in Loop: Header=BB6_1 Depth=1
	movslq	-4(%rbp), %rax
	imulq	$20, %rax, %rax
	movabsq	$MatrixType8x8, %rsi
	addq	%rax, %rsi
	movabsq	$.L.str.6, %rdi
	movb	$0, %al
	callq	printf
	movabsq	$.L.str.7, %rdi
	movb	$0, %al
	callq	printf
	cmpl	$7, -4(%rbp)
	jne	.LBB6_37
# %bb.36:                               # %if.then86
                                        #   in Loop: Header=BB6_1 Depth=1
	movabsq	$Quant8_inter_default, %rsi
	movq	-16(%rbp), %rdi
	movl	$128, %edx
	callq	memcpy
	jmp	.LBB6_38
.LBB6_37:                               # %if.else87
                                        #   in Loop: Header=BB6_1 Depth=1
	movabsq	$Quant8_intra_default, %rsi
	movq	-16(%rbp), %rdi
	movl	$128, %edx
	callq	memcpy
.LBB6_38:                               # %if.end88
                                        #   in Loop: Header=BB6_1 Depth=1
	jmp	.LBB6_39
.LBB6_39:                               # %if.end89
                                        #   in Loop: Header=BB6_1 Depth=1
	jmp	.LBB6_44
.LBB6_40:                               # %if.else90
                                        #   in Loop: Header=BB6_1 Depth=1
	movslq	-4(%rbp), %rax
	imulq	$20, %rax, %rax
	movabsq	$MatrixType8x8, %rsi
	addq	%rax, %rsi
	movabsq	$.L.str.8, %rdi
	movb	$0, %al
	callq	printf
	cmpl	$7, -4(%rbp)
	jne	.LBB6_42
# %bb.41:                               # %if.then97
                                        #   in Loop: Header=BB6_1 Depth=1
	movabsq	$Quant8_inter_default, %rsi
	movq	-16(%rbp), %rdi
	movl	$128, %edx
	callq	memcpy
	jmp	.LBB6_43
.LBB6_42:                               # %if.else98
                                        #   in Loop: Header=BB6_1 Depth=1
	movabsq	$Quant8_intra_default, %rsi
	movq	-16(%rbp), %rdi
	movl	$128, %edx
	callq	memcpy
.LBB6_43:                               # %if.end99
                                        #   in Loop: Header=BB6_1 Depth=1
	jmp	.LBB6_44
.LBB6_44:                               # %if.end100
                                        #   in Loop: Header=BB6_1 Depth=1
	jmp	.LBB6_45
.LBB6_45:                               # %if.end101
                                        #   in Loop: Header=BB6_1 Depth=1
	jmp	.LBB6_46
.LBB6_46:                               # %for.inc102
                                        #   in Loop: Header=BB6_1 Depth=1
	movl	-4(%rbp), %eax
	addl	$1, %eax
	movl	%eax, -4(%rbp)
	jmp	.LBB6_1
.LBB6_47:                               # %for.end104
	cmpl	$726459218, -24(%rbp)   # imm = 0x2B4CE352
	jne	.LBB6_49
.LBB6_48:
	addq	$32, %rsp
	popq	%rbp
	.cfi_def_cfa %rsp, 8
	retq
.LBB6_49:                               # %func_exit
	.cfi_def_cfa %rbp, 16
	callq	detect_breach
	jmp	.LBB6_48
.Lfunc_end6:
	.size	PatchMatrix.1, .Lfunc_end6-PatchMatrix.1
	.cfi_endproc
                                        # -- End function
	.globl	CheckParameterName.2    # -- Begin function CheckParameterName.2
	.p2align	4, 0x90
	.type	CheckParameterName.2,@function
CheckParameterName.2:                   # @CheckParameterName.2
	.cfi_startproc
# %bb.0:                                # %entry
	pushq	%rbp
	.cfi_def_cfa_offset 16
	.cfi_offset %rbp, -16
	movq	%rsp, %rbp
	.cfi_def_cfa_register %rbp
	pushq	%rbx
	subq	$40, %rsp
	.cfi_offset %rbx, -24
	movl	$595537536, -20(%rbp)   # imm = 0x237F2E80
	movq	%rdi, -32(%rbp)
	movq	%rsi, -40(%rbp)
	movl	$0, -12(%rbp)
	movq	-40(%rbp), %rax
	movl	$0, (%rax)
.LBB7_1:                                # %while.cond
                                        # =>This Inner Loop Header: Depth=1
	xorl	%eax, %eax
	movslq	-12(%rbp), %rcx
	imulq	$20, %rcx, %rcx
	movabsq	$MatrixType4x4, %rdx
	addq	%rcx, %rdx
	cmpq	$0, %rdx
	je	.LBB7_3
# %bb.2:                                # %land.rhs
                                        #   in Loop: Header=BB7_1 Depth=1
	cmpl	$6, -12(%rbp)
	setl	%al
.LBB7_3:                                # %land.end
                                        #   in Loop: Header=BB7_1 Depth=1
	testb	$1, %al
	jne	.LBB7_4
	jmp	.LBB7_8
.LBB7_4:                                # %while.body
                                        #   in Loop: Header=BB7_1 Depth=1
	xorl	%ebx, %ebx
	movslq	-12(%rbp), %rax
	imulq	$20, %rax, %rax
	movabsq	$MatrixType4x4, %rdi
	addq	%rax, %rdi
	movq	-32(%rbp), %rsi
	callq	strcmp
	cmpl	%eax, %ebx
	jne	.LBB7_6
# %bb.5:                                # %if.then
	movl	-12(%rbp), %eax
	movl	%eax, -16(%rbp)
	jmp	.LBB7_17
.LBB7_6:                                # %if.else
                                        #   in Loop: Header=BB7_1 Depth=1
	movl	-12(%rbp), %eax
	addl	$1, %eax
	movl	%eax, -12(%rbp)
# %bb.7:                                # %if.end
                                        #   in Loop: Header=BB7_1 Depth=1
	jmp	.LBB7_1
.LBB7_8:                                # %while.end
	movl	$0, -12(%rbp)
	movq	-40(%rbp), %rax
	movl	$1, (%rax)
.LBB7_9:                                # %while.cond6
                                        # =>This Inner Loop Header: Depth=1
	xorl	%eax, %eax
	movslq	-12(%rbp), %rcx
	imulq	$20, %rcx, %rcx
	movabsq	$MatrixType8x8, %rdx
	addq	%rcx, %rdx
	cmpq	$0, %rdx
	je	.LBB7_11
# %bb.10:                               # %land.rhs11
                                        #   in Loop: Header=BB7_9 Depth=1
	cmpl	$2, -12(%rbp)
	setl	%al
.LBB7_11:                               # %land.end13
                                        #   in Loop: Header=BB7_9 Depth=1
	testb	$1, %al
	jne	.LBB7_12
	jmp	.LBB7_16
.LBB7_12:                               # %while.body14
                                        #   in Loop: Header=BB7_9 Depth=1
	xorl	%ebx, %ebx
	movslq	-12(%rbp), %rax
	imulq	$20, %rax, %rax
	movabsq	$MatrixType8x8, %rdi
	addq	%rax, %rdi
	movq	-32(%rbp), %rsi
	callq	strcmp
	cmpl	%eax, %ebx
	jne	.LBB7_14
# %bb.13:                               # %if.then20
	movl	-12(%rbp), %eax
	movl	%eax, -16(%rbp)
	jmp	.LBB7_17
.LBB7_14:                               # %if.else21
                                        #   in Loop: Header=BB7_9 Depth=1
	movl	-12(%rbp), %eax
	addl	$1, %eax
	movl	%eax, -12(%rbp)
# %bb.15:                               # %if.end23
                                        #   in Loop: Header=BB7_9 Depth=1
	jmp	.LBB7_9
.LBB7_16:                               # %while.end24
	movl	$-1, -16(%rbp)
.LBB7_17:                               # %return
	movl	-16(%rbp), %ebx
	cmpl	$595537536, -20(%rbp)   # imm = 0x237F2E80
	jne	.LBB7_19
.LBB7_18:
	movl	%ebx, %eax
	addq	$40, %rsp
	popq	%rbx
	popq	%rbp
	.cfi_def_cfa %rsp, 8
	retq
.LBB7_19:                               # %func_exit
	.cfi_def_cfa %rbp, 16
	callq	detect_breach
	jmp	.LBB7_18
.Lfunc_end7:
	.size	CheckParameterName.2, .Lfunc_end7-CheckParameterName.2
	.cfi_endproc
                                        # -- End function
	.globl	CalculateQuantParam.3   # -- Begin function CalculateQuantParam.3
	.p2align	4, 0x90
	.type	CalculateQuantParam.3,@function
CalculateQuantParam.3:                  # @CalculateQuantParam.3
	.cfi_startproc
# %bb.0:                                # %entry
	pushq	%rbp
	.cfi_def_cfa_offset 16
	.cfi_offset %rbp, -16
	movq	%rsp, %rbp
	.cfi_def_cfa_register %rbp
	pushq	%r15
	pushq	%r14
	pushq	%r12
	pushq	%rbx
	subq	$48, %rsp
	.cfi_offset %rbx, -48
	.cfi_offset %r12, -40
	.cfi_offset %r14, -32
	.cfi_offset %r15, -24
	movl	$1128432182, -56(%rbp)  # imm = 0x43428236
	movl	$0, -52(%rbp)
	movq	active_sps, %rax
	cmpl	$0, 36(%rax)
	jne	.LBB8_3
# %bb.1:                                # %land.lhs.true
	movq	active_pps, %rax
	cmpl	$0, 20(%rax)
	jne	.LBB8_3
# %bb.2:                                # %if.then
	movl	$1, -52(%rbp)
	jmp	.LBB8_20
.LBB8_3:                                # %if.else
	leaq	-80(%rbp), %rdi
	xorl	%esi, %esi
	movl	$24, %edx
	callq	memset
	movq	active_sps, %rax
	cmpl	$0, 36(%rax)
	je	.LBB8_9
# %bb.4:                                # %if.then4
	movl	$0, -36(%rbp)
.LBB8_5:                                # %for.cond
                                        # =>This Inner Loop Header: Depth=1
	cmpl	$6, -36(%rbp)
	jge	.LBB8_8
# %bb.6:                                # %for.body
                                        #   in Loop: Header=BB8_5 Depth=1
	movq	active_sps, %rax
	movslq	-36(%rbp), %rcx
	movl	40(%rax,%rcx,4), %eax
	movslq	-36(%rbp), %rcx
	movl	%eax, -80(%rbp,%rcx,4)
# %bb.7:                                # %for.inc
                                        #   in Loop: Header=BB8_5 Depth=1
	movl	-36(%rbp), %eax
	addl	$1, %eax
	movl	%eax, -36(%rbp)
	jmp	.LBB8_5
.LBB8_8:                                # %for.end
	jmp	.LBB8_9
.LBB8_9:                                # %if.end
	movq	active_pps, %rax
	cmpl	$0, 20(%rax)
	je	.LBB8_19
# %bb.10:                               # %if.then9
	movl	$0, -36(%rbp)
.LBB8_11:                               # %for.cond10
                                        # =>This Inner Loop Header: Depth=1
	cmpl	$6, -36(%rbp)
	jge	.LBB8_18
# %bb.12:                               # %for.body12
                                        #   in Loop: Header=BB8_11 Depth=1
	cmpl	$0, -36(%rbp)
	je	.LBB8_14
# %bb.13:                               # %lor.lhs.false
                                        #   in Loop: Header=BB8_11 Depth=1
	cmpl	$3, -36(%rbp)
	jne	.LBB8_15
.LBB8_14:                               # %if.then15
                                        #   in Loop: Header=BB8_11 Depth=1
	movq	active_pps, %rax
	movslq	-36(%rbp), %rcx
	movl	24(%rax,%rcx,4), %eax
	movslq	-36(%rbp), %rcx
	orl	-80(%rbp,%rcx,4), %eax
	movl	%eax, -80(%rbp,%rcx,4)
	jmp	.LBB8_16
.LBB8_15:                               # %if.else20
                                        #   in Loop: Header=BB8_11 Depth=1
	movq	active_pps, %rax
	movslq	-36(%rbp), %rcx
	movl	24(%rax,%rcx,4), %eax
	movslq	-36(%rbp), %rcx
	movl	%eax, -80(%rbp,%rcx,4)
.LBB8_16:                               # %if.end26
                                        #   in Loop: Header=BB8_11 Depth=1
	jmp	.LBB8_17
.LBB8_17:                               # %for.inc27
                                        #   in Loop: Header=BB8_11 Depth=1
	movl	-36(%rbp), %eax
	addl	$1, %eax
	movl	%eax, -36(%rbp)
	jmp	.LBB8_11
.LBB8_18:                               # %for.end29
	jmp	.LBB8_19
.LBB8_19:                               # %if.end30
	jmp	.LBB8_20
.LBB8_20:                               # %if.end31
	cmpl	$1, -52(%rbp)
	jne	.LBB8_34
# %bb.21:                               # %if.then33
	movl	$0, -44(%rbp)
.LBB8_22:                               # %for.cond34
                                        # =>This Loop Header: Depth=1
                                        #     Child Loop BB8_24 Depth 2
                                        #       Child Loop BB8_26 Depth 3
	cmpl	$6, -44(%rbp)
	jge	.LBB8_33
# %bb.23:                               # %for.body36
                                        #   in Loop: Header=BB8_22 Depth=1
	movl	$0, -40(%rbp)
.LBB8_24:                               # %for.cond37
                                        #   Parent Loop BB8_22 Depth=1
                                        # =>  This Loop Header: Depth=2
                                        #       Child Loop BB8_26 Depth 3
	cmpl	$4, -40(%rbp)
	jge	.LBB8_31
# %bb.25:                               # %for.body39
                                        #   in Loop: Header=BB8_24 Depth=2
	movl	$0, -36(%rbp)
.LBB8_26:                               # %for.cond40
                                        #   Parent Loop BB8_22 Depth=1
                                        #     Parent Loop BB8_24 Depth=2
                                        # =>    This Inner Loop Header: Depth=3
	cmpl	$4, -36(%rbp)
	jge	.LBB8_29
# %bb.27:                               # %for.body42
                                        #   in Loop: Header=BB8_26 Depth=3
	movabsq	$InvLevelScale4x4Chroma_Inter, %r9
	movq	%r9, %r8
	addq	$384, %r8               # imm = 0x180
	movabsq	$LevelScale4x4Chroma_Inter, %r11
	movq	%r11, %r10
	addq	$384, %r10              # imm = 0x180
	movabsq	$InvLevelScale4x4Chroma_Intra, %rdx
	movq	%rdx, %r15
	addq	$384, %r15              # imm = 0x180
	movabsq	$LevelScale4x4Chroma_Intra, %rbx
	movq	%rbx, %rax
	addq	$384, %rax              # imm = 0x180
	movslq	-44(%rbp), %rdi
	shlq	$6, %rdi
	movabsq	$quant_coef, %r14
	movq	%r14, %rsi
	addq	%rdi, %rsi
	movslq	-40(%rbp), %rdi
	shlq	$4, %rdi
	addq	%rdi, %rsi
	movslq	-36(%rbp), %rdi
	movl	(%rsi,%rdi,4), %esi
	movslq	-44(%rbp), %rdi
	shlq	$6, %rdi
	movabsq	$LevelScale4x4Luma_Intra, %rcx
	addq	%rdi, %rcx
	movslq	-40(%rbp), %rdi
	shlq	$4, %rdi
	addq	%rdi, %rcx
	movslq	-36(%rbp), %rdi
	movl	%esi, (%rcx,%rdi,4)
	movslq	-44(%rbp), %rcx
	shlq	$6, %rcx
	movabsq	$dequant_coef, %r12
	movq	%r12, %rsi
	addq	%rcx, %rsi
	movslq	-40(%rbp), %rcx
	shlq	$4, %rcx
	addq	%rcx, %rsi
	movslq	-36(%rbp), %rcx
	movl	(%rsi,%rcx,4), %ecx
	shll	$4, %ecx
	movslq	-44(%rbp), %rsi
	shlq	$6, %rsi
	movabsq	$InvLevelScale4x4Luma_Intra, %rdi
	addq	%rsi, %rdi
	movslq	-40(%rbp), %rsi
	shlq	$4, %rsi
	addq	%rsi, %rdi
	movslq	-36(%rbp), %rsi
	movl	%ecx, (%rdi,%rsi,4)
	movslq	-44(%rbp), %rcx
	shlq	$6, %rcx
	movq	%r14, %rsi
	addq	%rcx, %rsi
	movslq	-40(%rbp), %rcx
	shlq	$4, %rcx
	addq	%rcx, %rsi
	movslq	-36(%rbp), %rcx
	movl	(%rsi,%rcx,4), %ecx
	movslq	-44(%rbp), %rsi
	shlq	$6, %rsi
	addq	%rsi, %rbx
	movslq	-40(%rbp), %rsi
	shlq	$4, %rsi
	addq	%rsi, %rbx
	movslq	-36(%rbp), %rsi
	movl	%ecx, (%rbx,%rsi,4)
	movslq	-44(%rbp), %rcx
	shlq	$6, %rcx
	movq	%r12, %rsi
	addq	%rcx, %rsi
	movslq	-40(%rbp), %rcx
	shlq	$4, %rcx
	addq	%rcx, %rsi
	movslq	-36(%rbp), %rcx
	movl	(%rsi,%rcx,4), %ecx
	shll	$4, %ecx
	movslq	-44(%rbp), %rsi
	shlq	$6, %rsi
	addq	%rsi, %rdx
	movslq	-40(%rbp), %rsi
	shlq	$4, %rsi
	addq	%rsi, %rdx
	movslq	-36(%rbp), %rsi
	movl	%ecx, (%rdx,%rsi,4)
	movslq	-44(%rbp), %rcx
	shlq	$6, %rcx
	movq	%r14, %rdx
	addq	%rcx, %rdx
	movslq	-40(%rbp), %rcx
	shlq	$4, %rcx
	addq	%rcx, %rdx
	movslq	-36(%rbp), %rcx
	movl	(%rdx,%rcx,4), %ecx
	movslq	-44(%rbp), %rdx
	shlq	$6, %rdx
	addq	%rdx, %rax
	movslq	-40(%rbp), %rdx
	shlq	$4, %rdx
	addq	%rdx, %rax
	movslq	-36(%rbp), %rdx
	movl	%ecx, (%rax,%rdx,4)
	movslq	-44(%rbp), %rax
	shlq	$6, %rax
	movq	%r12, %rcx
	addq	%rax, %rcx
	movslq	-40(%rbp), %rax
	shlq	$4, %rax
	addq	%rax, %rcx
	movslq	-36(%rbp), %rax
	movl	(%rcx,%rax,4), %eax
	shll	$4, %eax
	movslq	-44(%rbp), %rcx
	shlq	$6, %rcx
	addq	%rcx, %r15
	movslq	-40(%rbp), %rcx
	shlq	$4, %rcx
	addq	%rcx, %r15
	movslq	-36(%rbp), %rcx
	movl	%eax, (%r15,%rcx,4)
	movslq	-44(%rbp), %rax
	shlq	$6, %rax
	movq	%r14, %rcx
	addq	%rax, %rcx
	movslq	-40(%rbp), %rax
	shlq	$4, %rax
	addq	%rax, %rcx
	movslq	-36(%rbp), %rax
	movl	(%rcx,%rax,4), %eax
	movslq	-44(%rbp), %rcx
	shlq	$6, %rcx
	movabsq	$LevelScale4x4Luma_Inter, %rdx
	addq	%rcx, %rdx
	movslq	-40(%rbp), %rcx
	shlq	$4, %rcx
	addq	%rcx, %rdx
	movslq	-36(%rbp), %rcx
	movl	%eax, (%rdx,%rcx,4)
	movslq	-44(%rbp), %rax
	shlq	$6, %rax
	movq	%r12, %rcx
	addq	%rax, %rcx
	movslq	-40(%rbp), %rax
	shlq	$4, %rax
	addq	%rax, %rcx
	movslq	-36(%rbp), %rax
	movl	(%rcx,%rax,4), %eax
	shll	$4, %eax
	movslq	-44(%rbp), %rcx
	shlq	$6, %rcx
	movabsq	$InvLevelScale4x4Luma_Inter, %rdx
	addq	%rcx, %rdx
	movslq	-40(%rbp), %rcx
	shlq	$4, %rcx
	addq	%rcx, %rdx
	movslq	-36(%rbp), %rcx
	movl	%eax, (%rdx,%rcx,4)
	movslq	-44(%rbp), %rax
	shlq	$6, %rax
	movq	%r14, %rcx
	addq	%rax, %rcx
	movslq	-40(%rbp), %rax
	shlq	$4, %rax
	addq	%rax, %rcx
	movslq	-36(%rbp), %rax
	movl	(%rcx,%rax,4), %eax
	movslq	-44(%rbp), %rcx
	shlq	$6, %rcx
	addq	%rcx, %r11
	movslq	-40(%rbp), %rcx
	shlq	$4, %rcx
	addq	%rcx, %r11
	movslq	-36(%rbp), %rcx
	movl	%eax, (%r11,%rcx,4)
	movslq	-44(%rbp), %rax
	shlq	$6, %rax
	movq	%r12, %rcx
	addq	%rax, %rcx
	movslq	-40(%rbp), %rax
	shlq	$4, %rax
	addq	%rax, %rcx
	movslq	-36(%rbp), %rax
	movl	(%rcx,%rax,4), %eax
	shll	$4, %eax
	movslq	-44(%rbp), %rcx
	shlq	$6, %rcx
	addq	%rcx, %r9
	movslq	-40(%rbp), %rcx
	shlq	$4, %rcx
	addq	%rcx, %r9
	movslq	-36(%rbp), %rcx
	movl	%eax, (%r9,%rcx,4)
	movslq	-44(%rbp), %rax
	shlq	$6, %rax
	addq	%rax, %r14
	movslq	-40(%rbp), %rax
	shlq	$4, %rax
	addq	%rax, %r14
	movslq	-36(%rbp), %rax
	movl	(%r14,%rax,4), %eax
	movslq	-44(%rbp), %rcx
	shlq	$6, %rcx
	addq	%rcx, %r10
	movslq	-40(%rbp), %rcx
	shlq	$4, %rcx
	addq	%rcx, %r10
	movslq	-36(%rbp), %rcx
	movl	%eax, (%r10,%rcx,4)
	movslq	-44(%rbp), %rax
	shlq	$6, %rax
	addq	%rax, %r12
	movslq	-40(%rbp), %rax
	shlq	$4, %rax
	addq	%rax, %r12
	movslq	-36(%rbp), %rax
	movl	(%r12,%rax,4), %eax
	shll	$4, %eax
	movslq	-44(%rbp), %rcx
	shlq	$6, %rcx
	addq	%rcx, %r8
	movslq	-40(%rbp), %rcx
	shlq	$4, %rcx
	addq	%rcx, %r8
	movslq	-36(%rbp), %rcx
	movl	%eax, (%r8,%rcx,4)
# %bb.28:                               # %for.inc192
                                        #   in Loop: Header=BB8_26 Depth=3
	movl	-36(%rbp), %eax
	addl	$1, %eax
	movl	%eax, -36(%rbp)
	jmp	.LBB8_26
.LBB8_29:                               # %for.end194
                                        #   in Loop: Header=BB8_24 Depth=2
	jmp	.LBB8_30
.LBB8_30:                               # %for.inc195
                                        #   in Loop: Header=BB8_24 Depth=2
	movl	-40(%rbp), %eax
	addl	$1, %eax
	movl	%eax, -40(%rbp)
	jmp	.LBB8_24
.LBB8_31:                               # %for.end197
                                        #   in Loop: Header=BB8_22 Depth=1
	jmp	.LBB8_32
.LBB8_32:                               # %for.inc198
                                        #   in Loop: Header=BB8_22 Depth=1
	movl	-44(%rbp), %eax
	addl	$1, %eax
	movl	%eax, -44(%rbp)
	jmp	.LBB8_22
.LBB8_33:                               # %for.end200
	jmp	.LBB8_91
.LBB8_34:                               # %if.else201
	movl	$0, -44(%rbp)
.LBB8_35:                               # %for.cond202
                                        # =>This Loop Header: Depth=1
                                        #     Child Loop BB8_37 Depth 2
                                        #       Child Loop BB8_39 Depth 3
	cmpl	$6, -44(%rbp)
	jge	.LBB8_90
# %bb.36:                               # %for.body204
                                        #   in Loop: Header=BB8_35 Depth=1
	movl	$0, -40(%rbp)
.LBB8_37:                               # %for.cond205
                                        #   Parent Loop BB8_35 Depth=1
                                        # =>  This Loop Header: Depth=2
                                        #       Child Loop BB8_39 Depth 3
	cmpl	$4, -40(%rbp)
	jge	.LBB8_88
# %bb.38:                               # %for.body207
                                        #   in Loop: Header=BB8_37 Depth=2
	movl	$0, -36(%rbp)
.LBB8_39:                               # %for.cond208
                                        #   Parent Loop BB8_35 Depth=1
                                        #     Parent Loop BB8_37 Depth=2
                                        # =>    This Inner Loop Header: Depth=3
	cmpl	$4, -36(%rbp)
	jge	.LBB8_86
# %bb.40:                               # %for.body210
                                        #   in Loop: Header=BB8_39 Depth=3
	movl	-36(%rbp), %eax
	shll	$2, %eax
	addl	-40(%rbp), %eax
	movl	%eax, -48(%rbp)
	cmpl	$0, -80(%rbp)
	je	.LBB8_42
# %bb.41:                               # %lor.lhs.false214
                                        #   in Loop: Header=BB8_39 Depth=3
	movswl	UseDefaultScalingMatrix4x4Flag, %eax
	cmpl	$0, %eax
	je	.LBB8_43
.LBB8_42:                               # %if.then216
                                        #   in Loop: Header=BB8_39 Depth=3
	movslq	-44(%rbp), %rax
	shlq	$6, %rax
	movabsq	$quant_coef, %rcx
	addq	%rax, %rcx
	movslq	-40(%rbp), %rax
	shlq	$4, %rax
	addq	%rax, %rcx
	movslq	-36(%rbp), %rax
	movl	(%rcx,%rax,4), %eax
	shll	$4, %eax
	movslq	-48(%rbp), %rcx
	movswl	Quant_intra_default(,%rcx,2), %ecx
	cltd
	idivl	%ecx
	movslq	-44(%rbp), %rcx
	shlq	$6, %rcx
	movabsq	$LevelScale4x4Luma_Intra, %rdx
	addq	%rcx, %rdx
	movslq	-40(%rbp), %rcx
	shlq	$4, %rcx
	addq	%rcx, %rdx
	movslq	-36(%rbp), %rcx
	movl	%eax, (%rdx,%rcx,4)
	movslq	-44(%rbp), %rax
	shlq	$6, %rax
	movabsq	$dequant_coef, %rcx
	addq	%rax, %rcx
	movslq	-40(%rbp), %rax
	shlq	$4, %rax
	addq	%rax, %rcx
	movslq	-36(%rbp), %rax
	movl	(%rcx,%rax,4), %eax
	movslq	-48(%rbp), %rcx
	movswl	Quant_intra_default(,%rcx,2), %ecx
	imull	%ecx, %eax
	movslq	-44(%rbp), %rcx
	shlq	$6, %rcx
	movabsq	$InvLevelScale4x4Luma_Intra, %rdx
	addq	%rcx, %rdx
	movslq	-40(%rbp), %rcx
	shlq	$4, %rcx
	addq	%rcx, %rdx
	movslq	-36(%rbp), %rcx
	movl	%eax, (%rdx,%rcx,4)
	jmp	.LBB8_44
.LBB8_43:                               # %if.else248
                                        #   in Loop: Header=BB8_39 Depth=3
	movslq	-44(%rbp), %rax
	shlq	$6, %rax
	movabsq	$quant_coef, %rcx
	addq	%rax, %rcx
	movslq	-40(%rbp), %rax
	shlq	$4, %rax
	addq	%rax, %rcx
	movslq	-36(%rbp), %rax
	movl	(%rcx,%rax,4), %eax
	shll	$4, %eax
	movslq	-48(%rbp), %rcx
	movswl	ScalingList4x4(,%rcx,2), %ecx
	cltd
	idivl	%ecx
	movslq	-44(%rbp), %rcx
	shlq	$6, %rcx
	movabsq	$LevelScale4x4Luma_Intra, %rdx
	addq	%rcx, %rdx
	movslq	-40(%rbp), %rcx
	shlq	$4, %rcx
	addq	%rcx, %rdx
	movslq	-36(%rbp), %rcx
	movl	%eax, (%rdx,%rcx,4)
	movslq	-44(%rbp), %rax
	shlq	$6, %rax
	movabsq	$dequant_coef, %rcx
	addq	%rax, %rcx
	movslq	-40(%rbp), %rax
	shlq	$4, %rax
	addq	%rax, %rcx
	movslq	-36(%rbp), %rax
	movl	(%rcx,%rax,4), %eax
	movslq	-48(%rbp), %rcx
	movswl	ScalingList4x4(,%rcx,2), %ecx
	imull	%ecx, %eax
	movslq	-44(%rbp), %rcx
	shlq	$6, %rcx
	movabsq	$InvLevelScale4x4Luma_Intra, %rdx
	addq	%rcx, %rdx
	movslq	-40(%rbp), %rcx
	shlq	$4, %rcx
	addq	%rcx, %rdx
	movslq	-36(%rbp), %rcx
	movl	%eax, (%rdx,%rcx,4)
.LBB8_44:                               # %if.end282
                                        #   in Loop: Header=BB8_39 Depth=3
	cmpl	$0, -76(%rbp)
	jne	.LBB8_46
# %bb.45:                               # %if.then285
                                        #   in Loop: Header=BB8_39 Depth=3
	movslq	-44(%rbp), %rax
	shlq	$6, %rax
	movabsq	$LevelScale4x4Luma_Intra, %rcx
	addq	%rax, %rcx
	movslq	-40(%rbp), %rax
	shlq	$4, %rax
	addq	%rax, %rcx
	movslq	-36(%rbp), %rax
	movl	(%rcx,%rax,4), %eax
	movslq	-44(%rbp), %rcx
	shlq	$6, %rcx
	movabsq	$LevelScale4x4Chroma_Intra, %rdx
	addq	%rcx, %rdx
	movslq	-40(%rbp), %rcx
	shlq	$4, %rcx
	addq	%rcx, %rdx
	movslq	-36(%rbp), %rcx
	movl	%eax, (%rdx,%rcx,4)
	movslq	-44(%rbp), %rax
	shlq	$6, %rax
	movabsq	$InvLevelScale4x4Luma_Intra, %rcx
	addq	%rax, %rcx
	movslq	-40(%rbp), %rax
	shlq	$4, %rax
	addq	%rax, %rcx
	movslq	-36(%rbp), %rax
	movl	(%rcx,%rax,4), %eax
	movslq	-44(%rbp), %rcx
	shlq	$6, %rcx
	movabsq	$InvLevelScale4x4Chroma_Intra, %rdx
	addq	%rcx, %rdx
	movslq	-40(%rbp), %rcx
	shlq	$4, %rcx
	addq	%rcx, %rdx
	movslq	-36(%rbp), %rcx
	movl	%eax, (%rdx,%rcx,4)
	jmp	.LBB8_53
.LBB8_46:                               # %if.else310
                                        #   in Loop: Header=BB8_39 Depth=3
	movslq	-44(%rbp), %rax
	shlq	$6, %rax
	movabsq	$quant_coef, %rcx
	addq	%rax, %rcx
	movslq	-40(%rbp), %rax
	shlq	$4, %rax
	addq	%rax, %rcx
	movslq	-36(%rbp), %rax
	movl	(%rcx,%rax,4), %eax
	shll	$4, %eax
	movswl	UseDefaultScalingMatrix4x4Flag+2, %ecx
	cmpl	$0, %ecx
	je	.LBB8_48
# %bb.47:                               # %cond.true
                                        #   in Loop: Header=BB8_39 Depth=3
	movslq	-48(%rbp), %rcx
	movswl	Quant_intra_default(,%rcx,2), %ecx
	jmp	.LBB8_49
.LBB8_48:                               # %cond.false
                                        #   in Loop: Header=BB8_39 Depth=3
	movslq	-48(%rbp), %rcx
	movswl	ScalingList4x4+32(,%rcx,2), %ecx
.LBB8_49:                               # %cond.end
                                        #   in Loop: Header=BB8_39 Depth=3
	cltd
	idivl	%ecx
	movslq	-44(%rbp), %rcx
	shlq	$6, %rcx
	movabsq	$LevelScale4x4Chroma_Intra, %rdx
	addq	%rcx, %rdx
	movslq	-40(%rbp), %rcx
	shlq	$4, %rcx
	addq	%rcx, %rdx
	movslq	-36(%rbp), %rcx
	movl	%eax, (%rdx,%rcx,4)
	movslq	-44(%rbp), %rax
	shlq	$6, %rax
	movabsq	$dequant_coef, %rcx
	addq	%rax, %rcx
	movslq	-40(%rbp), %rax
	shlq	$4, %rax
	addq	%rax, %rcx
	movslq	-36(%rbp), %rax
	movl	(%rcx,%rax,4), %eax
	movswl	UseDefaultScalingMatrix4x4Flag+2, %ecx
	cmpl	$0, %ecx
	je	.LBB8_51
# %bb.50:                               # %cond.true341
                                        #   in Loop: Header=BB8_39 Depth=3
	movslq	-48(%rbp), %rcx
	movswl	Quant_intra_default(,%rcx,2), %ecx
	jmp	.LBB8_52
.LBB8_51:                               # %cond.false345
                                        #   in Loop: Header=BB8_39 Depth=3
	movslq	-48(%rbp), %rcx
	movswl	ScalingList4x4+32(,%rcx,2), %ecx
.LBB8_52:                               # %cond.end349
                                        #   in Loop: Header=BB8_39 Depth=3
	imull	%ecx, %eax
	movslq	-44(%rbp), %rcx
	shlq	$6, %rcx
	movabsq	$InvLevelScale4x4Chroma_Intra, %rdx
	addq	%rcx, %rdx
	movslq	-40(%rbp), %rcx
	shlq	$4, %rcx
	addq	%rcx, %rdx
	movslq	-36(%rbp), %rcx
	movl	%eax, (%rdx,%rcx,4)
.LBB8_53:                               # %if.end358
                                        #   in Loop: Header=BB8_39 Depth=3
	cmpl	$0, -72(%rbp)
	jne	.LBB8_55
# %bb.54:                               # %if.then361
                                        #   in Loop: Header=BB8_39 Depth=3
	movabsq	$InvLevelScale4x4Chroma_Intra, %rcx
	movq	%rcx, %rax
	addq	$384, %rax              # imm = 0x180
	movabsq	$LevelScale4x4Chroma_Intra, %rdx
	movq	%rdx, %rsi
	addq	$384, %rsi              # imm = 0x180
	movslq	-44(%rbp), %rdi
	shlq	$6, %rdi
	addq	%rdi, %rdx
	movslq	-40(%rbp), %rdi
	shlq	$4, %rdi
	addq	%rdi, %rdx
	movslq	-36(%rbp), %rdi
	movl	(%rdx,%rdi,4), %edx
	movslq	-44(%rbp), %rdi
	shlq	$6, %rdi
	addq	%rdi, %rsi
	movslq	-40(%rbp), %rdi
	shlq	$4, %rdi
	addq	%rdi, %rsi
	movslq	-36(%rbp), %rdi
	movl	%edx, (%rsi,%rdi,4)
	movslq	-44(%rbp), %rdx
	shlq	$6, %rdx
	addq	%rdx, %rcx
	movslq	-40(%rbp), %rdx
	shlq	$4, %rdx
	addq	%rdx, %rcx
	movslq	-36(%rbp), %rdx
	movl	(%rcx,%rdx,4), %ecx
	movslq	-44(%rbp), %rdx
	shlq	$6, %rdx
	addq	%rdx, %rax
	movslq	-40(%rbp), %rdx
	shlq	$4, %rdx
	addq	%rdx, %rax
	movslq	-36(%rbp), %rdx
	movl	%ecx, (%rax,%rdx,4)
	jmp	.LBB8_62
.LBB8_55:                               # %if.else386
                                        #   in Loop: Header=BB8_39 Depth=3
	movslq	-44(%rbp), %rax
	shlq	$6, %rax
	movabsq	$quant_coef, %rcx
	addq	%rax, %rcx
	movslq	-40(%rbp), %rax
	shlq	$4, %rax
	addq	%rax, %rcx
	movslq	-36(%rbp), %rax
	movl	(%rcx,%rax,4), %eax
	shll	$4, %eax
	movswl	UseDefaultScalingMatrix4x4Flag+4, %ecx
	cmpl	$0, %ecx
	je	.LBB8_57
# %bb.56:                               # %cond.true396
                                        #   in Loop: Header=BB8_39 Depth=3
	movslq	-48(%rbp), %rcx
	movswl	Quant_intra_default(,%rcx,2), %ecx
	jmp	.LBB8_58
.LBB8_57:                               # %cond.false400
                                        #   in Loop: Header=BB8_39 Depth=3
	movslq	-48(%rbp), %rcx
	movswl	ScalingList4x4+64(,%rcx,2), %ecx
.LBB8_58:                               # %cond.end404
                                        #   in Loop: Header=BB8_39 Depth=3
	movabsq	$LevelScale4x4Chroma_Intra, %rsi
	addq	$384, %rsi              # imm = 0x180
	cltd
	idivl	%ecx
	movslq	-44(%rbp), %rcx
	shlq	$6, %rcx
	addq	%rcx, %rsi
	movslq	-40(%rbp), %rcx
	shlq	$4, %rcx
	addq	%rcx, %rsi
	movslq	-36(%rbp), %rcx
	movl	%eax, (%rsi,%rcx,4)
	movslq	-44(%rbp), %rax
	shlq	$6, %rax
	movabsq	$dequant_coef, %rcx
	addq	%rax, %rcx
	movslq	-40(%rbp), %rax
	shlq	$4, %rax
	addq	%rax, %rcx
	movslq	-36(%rbp), %rax
	movl	(%rcx,%rax,4), %eax
	movswl	UseDefaultScalingMatrix4x4Flag+4, %ecx
	cmpl	$0, %ecx
	je	.LBB8_60
# %bb.59:                               # %cond.true421
                                        #   in Loop: Header=BB8_39 Depth=3
	movslq	-48(%rbp), %rcx
	movswl	Quant_intra_default(,%rcx,2), %ecx
	jmp	.LBB8_61
.LBB8_60:                               # %cond.false425
                                        #   in Loop: Header=BB8_39 Depth=3
	movslq	-48(%rbp), %rcx
	movswl	ScalingList4x4+64(,%rcx,2), %ecx
.LBB8_61:                               # %cond.end429
                                        #   in Loop: Header=BB8_39 Depth=3
	movabsq	$InvLevelScale4x4Chroma_Intra, %rdx
	addq	$384, %rdx              # imm = 0x180
	imull	%ecx, %eax
	movslq	-44(%rbp), %rcx
	shlq	$6, %rcx
	addq	%rcx, %rdx
	movslq	-40(%rbp), %rcx
	shlq	$4, %rcx
	addq	%rcx, %rdx
	movslq	-36(%rbp), %rcx
	movl	%eax, (%rdx,%rcx,4)
.LBB8_62:                               # %if.end438
                                        #   in Loop: Header=BB8_39 Depth=3
	cmpl	$0, -68(%rbp)
	je	.LBB8_64
# %bb.63:                               # %lor.lhs.false441
                                        #   in Loop: Header=BB8_39 Depth=3
	movswl	UseDefaultScalingMatrix4x4Flag+6, %eax
	cmpl	$0, %eax
	je	.LBB8_65
.LBB8_64:                               # %if.then444
                                        #   in Loop: Header=BB8_39 Depth=3
	movslq	-44(%rbp), %rax
	shlq	$6, %rax
	movabsq	$quant_coef, %rcx
	addq	%rax, %rcx
	movslq	-40(%rbp), %rax
	shlq	$4, %rax
	addq	%rax, %rcx
	movslq	-36(%rbp), %rax
	movl	(%rcx,%rax,4), %eax
	shll	$4, %eax
	movslq	-48(%rbp), %rcx
	movswl	Quant_inter_default(,%rcx,2), %ecx
	cltd
	idivl	%ecx
	movslq	-44(%rbp), %rcx
	shlq	$6, %rcx
	movabsq	$LevelScale4x4Luma_Inter, %rdx
	addq	%rcx, %rdx
	movslq	-40(%rbp), %rcx
	shlq	$4, %rcx
	addq	%rcx, %rdx
	movslq	-36(%rbp), %rcx
	movl	%eax, (%rdx,%rcx,4)
	movslq	-44(%rbp), %rax
	shlq	$6, %rax
	movabsq	$dequant_coef, %rcx
	addq	%rax, %rcx
	movslq	-40(%rbp), %rax
	shlq	$4, %rax
	addq	%rax, %rcx
	movslq	-36(%rbp), %rax
	movl	(%rcx,%rax,4), %eax
	movslq	-48(%rbp), %rcx
	movswl	Quant_inter_default(,%rcx,2), %ecx
	imull	%ecx, %eax
	movslq	-44(%rbp), %rcx
	shlq	$6, %rcx
	movabsq	$InvLevelScale4x4Luma_Inter, %rdx
	addq	%rcx, %rdx
	movslq	-40(%rbp), %rcx
	shlq	$4, %rcx
	addq	%rcx, %rdx
	movslq	-36(%rbp), %rcx
	movl	%eax, (%rdx,%rcx,4)
	jmp	.LBB8_66
.LBB8_65:                               # %if.else478
                                        #   in Loop: Header=BB8_39 Depth=3
	movslq	-44(%rbp), %rax
	shlq	$6, %rax
	movabsq	$quant_coef, %rcx
	addq	%rax, %rcx
	movslq	-40(%rbp), %rax
	shlq	$4, %rax
	addq	%rax, %rcx
	movslq	-36(%rbp), %rax
	movl	(%rcx,%rax,4), %eax
	shll	$4, %eax
	movslq	-48(%rbp), %rcx
	movswl	ScalingList4x4+96(,%rcx,2), %ecx
	cltd
	idivl	%ecx
	movslq	-44(%rbp), %rcx
	shlq	$6, %rcx
	movabsq	$LevelScale4x4Luma_Inter, %rdx
	addq	%rcx, %rdx
	movslq	-40(%rbp), %rcx
	shlq	$4, %rcx
	addq	%rcx, %rdx
	movslq	-36(%rbp), %rcx
	movl	%eax, (%rdx,%rcx,4)
	movslq	-44(%rbp), %rax
	shlq	$6, %rax
	movabsq	$dequant_coef, %rcx
	addq	%rax, %rcx
	movslq	-40(%rbp), %rax
	shlq	$4, %rax
	addq	%rax, %rcx
	movslq	-36(%rbp), %rax
	movl	(%rcx,%rax,4), %eax
	movslq	-48(%rbp), %rcx
	movswl	ScalingList4x4+96(,%rcx,2), %ecx
	imull	%ecx, %eax
	movslq	-44(%rbp), %rcx
	shlq	$6, %rcx
	movabsq	$InvLevelScale4x4Luma_Inter, %rdx
	addq	%rcx, %rdx
	movslq	-40(%rbp), %rcx
	shlq	$4, %rcx
	addq	%rcx, %rdx
	movslq	-36(%rbp), %rcx
	movl	%eax, (%rdx,%rcx,4)
.LBB8_66:                               # %if.end512
                                        #   in Loop: Header=BB8_39 Depth=3
	cmpl	$0, -64(%rbp)
	jne	.LBB8_68
# %bb.67:                               # %if.then515
                                        #   in Loop: Header=BB8_39 Depth=3
	movslq	-44(%rbp), %rax
	shlq	$6, %rax
	movabsq	$LevelScale4x4Luma_Inter, %rcx
	addq	%rax, %rcx
	movslq	-40(%rbp), %rax
	shlq	$4, %rax
	addq	%rax, %rcx
	movslq	-36(%rbp), %rax
	movl	(%rcx,%rax,4), %eax
	movslq	-44(%rbp), %rcx
	shlq	$6, %rcx
	movabsq	$LevelScale4x4Chroma_Inter, %rdx
	addq	%rcx, %rdx
	movslq	-40(%rbp), %rcx
	shlq	$4, %rcx
	addq	%rcx, %rdx
	movslq	-36(%rbp), %rcx
	movl	%eax, (%rdx,%rcx,4)
	movslq	-44(%rbp), %rax
	shlq	$6, %rax
	movabsq	$InvLevelScale4x4Luma_Inter, %rcx
	addq	%rax, %rcx
	movslq	-40(%rbp), %rax
	shlq	$4, %rax
	addq	%rax, %rcx
	movslq	-36(%rbp), %rax
	movl	(%rcx,%rax,4), %eax
	movslq	-44(%rbp), %rcx
	shlq	$6, %rcx
	movabsq	$InvLevelScale4x4Chroma_Inter, %rdx
	addq	%rcx, %rdx
	movslq	-40(%rbp), %rcx
	shlq	$4, %rcx
	addq	%rcx, %rdx
	movslq	-36(%rbp), %rcx
	movl	%eax, (%rdx,%rcx,4)
	jmp	.LBB8_75
.LBB8_68:                               # %if.else540
                                        #   in Loop: Header=BB8_39 Depth=3
	movslq	-44(%rbp), %rax
	shlq	$6, %rax
	movabsq	$quant_coef, %rcx
	addq	%rax, %rcx
	movslq	-40(%rbp), %rax
	shlq	$4, %rax
	addq	%rax, %rcx
	movslq	-36(%rbp), %rax
	movl	(%rcx,%rax,4), %eax
	shll	$4, %eax
	movswl	UseDefaultScalingMatrix4x4Flag+8, %ecx
	cmpl	$0, %ecx
	je	.LBB8_70
# %bb.69:                               # %cond.true550
                                        #   in Loop: Header=BB8_39 Depth=3
	movslq	-48(%rbp), %rcx
	movswl	Quant_inter_default(,%rcx,2), %ecx
	jmp	.LBB8_71
.LBB8_70:                               # %cond.false554
                                        #   in Loop: Header=BB8_39 Depth=3
	movslq	-48(%rbp), %rcx
	movswl	ScalingList4x4+128(,%rcx,2), %ecx
.LBB8_71:                               # %cond.end558
                                        #   in Loop: Header=BB8_39 Depth=3
	cltd
	idivl	%ecx
	movslq	-44(%rbp), %rcx
	shlq	$6, %rcx
	movabsq	$LevelScale4x4Chroma_Inter, %rdx
	addq	%rcx, %rdx
	movslq	-40(%rbp), %rcx
	shlq	$4, %rcx
	addq	%rcx, %rdx
	movslq	-36(%rbp), %rcx
	movl	%eax, (%rdx,%rcx,4)
	movslq	-44(%rbp), %rax
	shlq	$6, %rax
	movabsq	$dequant_coef, %rcx
	addq	%rax, %rcx
	movslq	-40(%rbp), %rax
	shlq	$4, %rax
	addq	%rax, %rcx
	movslq	-36(%rbp), %rax
	movl	(%rcx,%rax,4), %eax
	movswl	UseDefaultScalingMatrix4x4Flag+8, %ecx
	cmpl	$0, %ecx
	je	.LBB8_73
# %bb.72:                               # %cond.true575
                                        #   in Loop: Header=BB8_39 Depth=3
	movslq	-48(%rbp), %rcx
	movswl	Quant_inter_default(,%rcx,2), %ecx
	jmp	.LBB8_74
.LBB8_73:                               # %cond.false579
                                        #   in Loop: Header=BB8_39 Depth=3
	movslq	-48(%rbp), %rcx
	movswl	ScalingList4x4+128(,%rcx,2), %ecx
.LBB8_74:                               # %cond.end583
                                        #   in Loop: Header=BB8_39 Depth=3
	imull	%ecx, %eax
	movslq	-44(%rbp), %rcx
	shlq	$6, %rcx
	movabsq	$InvLevelScale4x4Chroma_Inter, %rdx
	addq	%rcx, %rdx
	movslq	-40(%rbp), %rcx
	shlq	$4, %rcx
	addq	%rcx, %rdx
	movslq	-36(%rbp), %rcx
	movl	%eax, (%rdx,%rcx,4)
.LBB8_75:                               # %if.end592
                                        #   in Loop: Header=BB8_39 Depth=3
	cmpl	$0, -60(%rbp)
	jne	.LBB8_77
# %bb.76:                               # %if.then595
                                        #   in Loop: Header=BB8_39 Depth=3
	movabsq	$InvLevelScale4x4Chroma_Inter, %rcx
	movq	%rcx, %rax
	addq	$384, %rax              # imm = 0x180
	movabsq	$LevelScale4x4Chroma_Inter, %rdx
	movq	%rdx, %rsi
	addq	$384, %rsi              # imm = 0x180
	movslq	-44(%rbp), %rdi
	shlq	$6, %rdi
	addq	%rdi, %rdx
	movslq	-40(%rbp), %rdi
	shlq	$4, %rdi
	addq	%rdi, %rdx
	movslq	-36(%rbp), %rdi
	movl	(%rdx,%rdi,4), %edx
	movslq	-44(%rbp), %rdi
	shlq	$6, %rdi
	addq	%rdi, %rsi
	movslq	-40(%rbp), %rdi
	shlq	$4, %rdi
	addq	%rdi, %rsi
	movslq	-36(%rbp), %rdi
	movl	%edx, (%rsi,%rdi,4)
	movslq	-44(%rbp), %rdx
	shlq	$6, %rdx
	addq	%rdx, %rcx
	movslq	-40(%rbp), %rdx
	shlq	$4, %rdx
	addq	%rdx, %rcx
	movslq	-36(%rbp), %rdx
	movl	(%rcx,%rdx,4), %ecx
	movslq	-44(%rbp), %rdx
	shlq	$6, %rdx
	addq	%rdx, %rax
	movslq	-40(%rbp), %rdx
	shlq	$4, %rdx
	addq	%rdx, %rax
	movslq	-36(%rbp), %rdx
	movl	%ecx, (%rax,%rdx,4)
	jmp	.LBB8_84
.LBB8_77:                               # %if.else620
                                        #   in Loop: Header=BB8_39 Depth=3
	movslq	-44(%rbp), %rax
	shlq	$6, %rax
	movabsq	$quant_coef, %rcx
	addq	%rax, %rcx
	movslq	-40(%rbp), %rax
	shlq	$4, %rax
	addq	%rax, %rcx
	movslq	-36(%rbp), %rax
	movl	(%rcx,%rax,4), %eax
	shll	$4, %eax
	movswl	UseDefaultScalingMatrix4x4Flag+10, %ecx
	cmpl	$0, %ecx
	je	.LBB8_79
# %bb.78:                               # %cond.true630
                                        #   in Loop: Header=BB8_39 Depth=3
	movslq	-48(%rbp), %rcx
	movswl	Quant_inter_default(,%rcx,2), %ecx
	jmp	.LBB8_80
.LBB8_79:                               # %cond.false634
                                        #   in Loop: Header=BB8_39 Depth=3
	movslq	-48(%rbp), %rcx
	movswl	ScalingList4x4+160(,%rcx,2), %ecx
.LBB8_80:                               # %cond.end638
                                        #   in Loop: Header=BB8_39 Depth=3
	movabsq	$LevelScale4x4Chroma_Inter, %rsi
	addq	$384, %rsi              # imm = 0x180
	cltd
	idivl	%ecx
	movslq	-44(%rbp), %rcx
	shlq	$6, %rcx
	addq	%rcx, %rsi
	movslq	-40(%rbp), %rcx
	shlq	$4, %rcx
	addq	%rcx, %rsi
	movslq	-36(%rbp), %rcx
	movl	%eax, (%rsi,%rcx,4)
	movslq	-44(%rbp), %rax
	shlq	$6, %rax
	movabsq	$dequant_coef, %rcx
	addq	%rax, %rcx
	movslq	-40(%rbp), %rax
	shlq	$4, %rax
	addq	%rax, %rcx
	movslq	-36(%rbp), %rax
	movl	(%rcx,%rax,4), %eax
	movswl	UseDefaultScalingMatrix4x4Flag+10, %ecx
	cmpl	$0, %ecx
	je	.LBB8_82
# %bb.81:                               # %cond.true655
                                        #   in Loop: Header=BB8_39 Depth=3
	movslq	-48(%rbp), %rcx
	movswl	Quant_inter_default(,%rcx,2), %ecx
	jmp	.LBB8_83
.LBB8_82:                               # %cond.false659
                                        #   in Loop: Header=BB8_39 Depth=3
	movslq	-48(%rbp), %rcx
	movswl	ScalingList4x4+160(,%rcx,2), %ecx
.LBB8_83:                               # %cond.end663
                                        #   in Loop: Header=BB8_39 Depth=3
	movabsq	$InvLevelScale4x4Chroma_Inter, %rdx
	addq	$384, %rdx              # imm = 0x180
	imull	%ecx, %eax
	movslq	-44(%rbp), %rcx
	shlq	$6, %rcx
	addq	%rcx, %rdx
	movslq	-40(%rbp), %rcx
	shlq	$4, %rcx
	addq	%rcx, %rdx
	movslq	-36(%rbp), %rcx
	movl	%eax, (%rdx,%rcx,4)
.LBB8_84:                               # %if.end672
                                        #   in Loop: Header=BB8_39 Depth=3
	jmp	.LBB8_85
.LBB8_85:                               # %for.inc673
                                        #   in Loop: Header=BB8_39 Depth=3
	movl	-36(%rbp), %eax
	addl	$1, %eax
	movl	%eax, -36(%rbp)
	jmp	.LBB8_39
.LBB8_86:                               # %for.end675
                                        #   in Loop: Header=BB8_37 Depth=2
	jmp	.LBB8_87
.LBB8_87:                               # %for.inc676
                                        #   in Loop: Header=BB8_37 Depth=2
	movl	-40(%rbp), %eax
	addl	$1, %eax
	movl	%eax, -40(%rbp)
	jmp	.LBB8_37
.LBB8_88:                               # %for.end678
                                        #   in Loop: Header=BB8_35 Depth=1
	jmp	.LBB8_89
.LBB8_89:                               # %for.inc679
                                        #   in Loop: Header=BB8_35 Depth=1
	movl	-44(%rbp), %eax
	addl	$1, %eax
	movl	%eax, -44(%rbp)
	jmp	.LBB8_35
.LBB8_90:                               # %for.end681
	jmp	.LBB8_91
.LBB8_91:                               # %if.end682
	cmpl	$1128432182, -56(%rbp)  # imm = 0x43428236
	jne	.LBB8_93
.LBB8_92:
	addq	$48, %rsp
	popq	%rbx
	popq	%r12
	popq	%r14
	popq	%r15
	popq	%rbp
	.cfi_def_cfa %rsp, 8
	retq
.LBB8_93:                               # %func_exit
	.cfi_def_cfa %rbp, 16
	callq	detect_breach
	jmp	.LBB8_92
.Lfunc_end8:
	.size	CalculateQuantParam.3, .Lfunc_end8-CalculateQuantParam.3
	.cfi_endproc
                                        # -- End function
	.globl	PatchMatrix.4           # -- Begin function PatchMatrix.4
	.p2align	4, 0x90
	.type	PatchMatrix.4,@function
PatchMatrix.4:                          # @PatchMatrix.4
	.cfi_startproc
# %bb.0:                                # %entry
	pushq	%rbp
	.cfi_def_cfa_offset 16
	.cfi_offset %rbp, -16
	movq	%rsp, %rbp
	.cfi_def_cfa_register %rbp
	subq	$32, %rsp
	movl	$603551744, -24(%rbp)   # imm = 0x23F97800
	movl	$0, -4(%rbp)
.LBB9_1:                                # %for.cond
                                        # =>This Loop Header: Depth=1
                                        #     Child Loop BB9_5 Depth 2
                                        #     Child Loop BB9_27 Depth 2
	cmpl	$6, -4(%rbp)
	jge	.LBB9_47
# %bb.2:                                # %for.body
                                        #   in Loop: Header=BB9_1 Depth=1
	movq	input, %rax
	movslq	-4(%rbp), %rcx
	cmpl	$0, 3260(%rax,%rcx,4)
	je	.LBB9_23
# %bb.3:                                # %if.then
                                        #   in Loop: Header=BB9_1 Depth=1
	movslq	-4(%rbp), %rax
	shlq	$5, %rax
	movabsq	$ScalingList4x4input, %rcx
	addq	%rax, %rcx
	movq	%rcx, -16(%rbp)
	movslq	-4(%rbp), %rax
	cmpl	$0, matrix4x4_check(,%rax,4)
	je	.LBB9_18
# %bb.4:                                # %if.then6
                                        #   in Loop: Header=BB9_1 Depth=1
	movl	$0, -20(%rbp)
	movl	$0, -8(%rbp)
.LBB9_5:                                # %for.cond7
                                        #   Parent Loop BB9_1 Depth=1
                                        # =>  This Inner Loop Header: Depth=2
	cmpl	$16, -8(%rbp)
	jge	.LBB9_11
# %bb.6:                                # %for.body9
                                        #   in Loop: Header=BB9_5 Depth=2
	movq	-16(%rbp), %rax
	movslq	-8(%rbp), %rcx
	movswl	(%rax,%rcx,2), %eax
	cmpl	$0, %eax
	jl	.LBB9_8
# %bb.7:                                # %lor.lhs.false
                                        #   in Loop: Header=BB9_5 Depth=2
	movq	-16(%rbp), %rax
	movslq	-8(%rbp), %rcx
	movswl	(%rax,%rcx,2), %eax
	cmpl	$255, %eax
	jle	.LBB9_9
.LBB9_8:                                # %if.then19
                                        #   in Loop: Header=BB9_1 Depth=1
	movl	$1, -20(%rbp)
	jmp	.LBB9_12
.LBB9_9:                                # %if.end
                                        #   in Loop: Header=BB9_5 Depth=2
	jmp	.LBB9_10
.LBB9_10:                               # %for.inc
                                        #   in Loop: Header=BB9_5 Depth=2
	movl	-8(%rbp), %eax
	addl	$1, %eax
	movl	%eax, -8(%rbp)
	jmp	.LBB9_5
.LBB9_11:                               # %for.end.loopexit
                                        #   in Loop: Header=BB9_1 Depth=1
	jmp	.LBB9_12
.LBB9_12:                               # %for.end
                                        #   in Loop: Header=BB9_1 Depth=1
	cmpl	$0, -20(%rbp)
	je	.LBB9_17
# %bb.13:                               # %if.then21
                                        #   in Loop: Header=BB9_1 Depth=1
	movslq	-4(%rbp), %rax
	imulq	$20, %rax, %rax
	movabsq	$MatrixType4x4, %rsi
	addq	%rax, %rsi
	movabsq	$.L.str.6, %rdi
	movb	$0, %al
	callq	printf
	movabsq	$.L.str.7, %rdi
	movb	$0, %al
	callq	printf
	cmpl	$2, -4(%rbp)
	jle	.LBB9_15
# %bb.14:                               # %if.then28
                                        #   in Loop: Header=BB9_1 Depth=1
	movq	-16(%rbp), %rax
	movq	Quant_inter_default, %rcx
	movq	%rcx, (%rax)
	movq	Quant_inter_default+8, %rcx
	movq	%rcx, 8(%rax)
	movq	Quant_inter_default+16, %rcx
	movq	%rcx, 16(%rax)
	movq	Quant_inter_default+24, %rcx
	movq	%rcx, 24(%rax)
	jmp	.LBB9_16
.LBB9_15:                               # %if.else
                                        #   in Loop: Header=BB9_1 Depth=1
	movq	-16(%rbp), %rax
	movq	Quant_intra_default, %rcx
	movq	%rcx, (%rax)
	movq	Quant_intra_default+8, %rcx
	movq	%rcx, 8(%rax)
	movq	Quant_intra_default+16, %rcx
	movq	%rcx, 16(%rax)
	movq	Quant_intra_default+24, %rcx
	movq	%rcx, 24(%rax)
.LBB9_16:                               # %if.end29
                                        #   in Loop: Header=BB9_1 Depth=1
	jmp	.LBB9_17
.LBB9_17:                               # %if.end30
                                        #   in Loop: Header=BB9_1 Depth=1
	jmp	.LBB9_22
.LBB9_18:                               # %if.else31
                                        #   in Loop: Header=BB9_1 Depth=1
	movslq	-4(%rbp), %rax
	imulq	$20, %rax, %rax
	movabsq	$MatrixType4x4, %rsi
	addq	%rax, %rsi
	movabsq	$.L.str.8, %rdi
	movb	$0, %al
	callq	printf
	cmpl	$2, -4(%rbp)
	jle	.LBB9_20
# %bb.19:                               # %if.then38
                                        #   in Loop: Header=BB9_1 Depth=1
	movq	-16(%rbp), %rax
	movq	Quant_inter_default, %rcx
	movq	%rcx, (%rax)
	movq	Quant_inter_default+8, %rcx
	movq	%rcx, 8(%rax)
	movq	Quant_inter_default+16, %rcx
	movq	%rcx, 16(%rax)
	movq	Quant_inter_default+24, %rcx
	movq	%rcx, 24(%rax)
	jmp	.LBB9_21
.LBB9_20:                               # %if.else39
                                        #   in Loop: Header=BB9_1 Depth=1
	movq	-16(%rbp), %rax
	movq	Quant_intra_default, %rcx
	movq	%rcx, (%rax)
	movq	Quant_intra_default+8, %rcx
	movq	%rcx, 8(%rax)
	movq	Quant_intra_default+16, %rcx
	movq	%rcx, 16(%rax)
	movq	Quant_intra_default+24, %rcx
	movq	%rcx, 24(%rax)
.LBB9_21:                               # %if.end40
                                        #   in Loop: Header=BB9_1 Depth=1
	jmp	.LBB9_22
.LBB9_22:                               # %if.end41
                                        #   in Loop: Header=BB9_1 Depth=1
	jmp	.LBB9_23
.LBB9_23:                               # %if.end42
                                        #   in Loop: Header=BB9_1 Depth=1
	cmpl	$2, -4(%rbp)
	jge	.LBB9_45
# %bb.24:                               # %land.lhs.true
                                        #   in Loop: Header=BB9_1 Depth=1
	movq	input, %rax
	movl	-4(%rbp), %ecx
	addl	$6, %ecx
	movslq	%ecx, %rcx
	cmpl	$0, 3260(%rax,%rcx,4)
	je	.LBB9_45
# %bb.25:                               # %if.then49
                                        #   in Loop: Header=BB9_1 Depth=1
	movslq	-4(%rbp), %rax
	shlq	$7, %rax
	movabsq	$ScalingList8x8input, %rcx
	addq	%rax, %rcx
	movq	%rcx, -16(%rbp)
	movslq	-4(%rbp), %rax
	cmpl	$0, matrix8x8_check(,%rax,4)
	je	.LBB9_40
# %bb.26:                               # %if.then56
                                        #   in Loop: Header=BB9_1 Depth=1
	movl	$0, -20(%rbp)
	movl	$0, -8(%rbp)
.LBB9_27:                               # %for.cond57
                                        #   Parent Loop BB9_1 Depth=1
                                        # =>  This Inner Loop Header: Depth=2
	cmpl	$64, -8(%rbp)
	jge	.LBB9_33
# %bb.28:                               # %for.body60
                                        #   in Loop: Header=BB9_27 Depth=2
	movq	-16(%rbp), %rax
	movslq	-8(%rbp), %rcx
	movswl	(%rax,%rcx,2), %eax
	cmpl	$0, %eax
	jl	.LBB9_30
# %bb.29:                               # %lor.lhs.false66
                                        #   in Loop: Header=BB9_27 Depth=2
	movq	-16(%rbp), %rax
	movslq	-8(%rbp), %rcx
	movswl	(%rax,%rcx,2), %eax
	cmpl	$255, %eax
	jle	.LBB9_31
.LBB9_30:                               # %if.then72
                                        #   in Loop: Header=BB9_1 Depth=1
	movl	$1, -20(%rbp)
	jmp	.LBB9_34
.LBB9_31:                               # %if.end73
                                        #   in Loop: Header=BB9_27 Depth=2
	jmp	.LBB9_32
.LBB9_32:                               # %for.inc74
                                        #   in Loop: Header=BB9_27 Depth=2
	movl	-8(%rbp), %eax
	addl	$1, %eax
	movl	%eax, -8(%rbp)
	jmp	.LBB9_27
.LBB9_33:                               # %for.end76.loopexit
                                        #   in Loop: Header=BB9_1 Depth=1
	jmp	.LBB9_34
.LBB9_34:                               # %for.end76
                                        #   in Loop: Header=BB9_1 Depth=1
	cmpl	$0, -20(%rbp)
	je	.LBB9_39
# %bb.35:                               # %if.then78
                                        #   in Loop: Header=BB9_1 Depth=1
	movslq	-4(%rbp), %rax
	imulq	$20, %rax, %rax
	movabsq	$MatrixType8x8, %rsi
	addq	%rax, %rsi
	movabsq	$.L.str.6, %rdi
	movb	$0, %al
	callq	printf
	movabsq	$.L.str.7, %rdi
	movb	$0, %al
	callq	printf
	cmpl	$7, -4(%rbp)
	jne	.LBB9_37
# %bb.36:                               # %if.then86
                                        #   in Loop: Header=BB9_1 Depth=1
	movabsq	$Quant8_inter_default, %rsi
	movq	-16(%rbp), %rdi
	movl	$128, %edx
	callq	memcpy
	jmp	.LBB9_38
.LBB9_37:                               # %if.else87
                                        #   in Loop: Header=BB9_1 Depth=1
	movabsq	$Quant8_intra_default, %rsi
	movq	-16(%rbp), %rdi
	movl	$128, %edx
	callq	memcpy
.LBB9_38:                               # %if.end88
                                        #   in Loop: Header=BB9_1 Depth=1
	jmp	.LBB9_39
.LBB9_39:                               # %if.end89
                                        #   in Loop: Header=BB9_1 Depth=1
	jmp	.LBB9_44
.LBB9_40:                               # %if.else90
                                        #   in Loop: Header=BB9_1 Depth=1
	movslq	-4(%rbp), %rax
	imulq	$20, %rax, %rax
	movabsq	$MatrixType8x8, %rsi
	addq	%rax, %rsi
	movabsq	$.L.str.8, %rdi
	movb	$0, %al
	callq	printf
	cmpl	$7, -4(%rbp)
	jne	.LBB9_42
# %bb.41:                               # %if.then97
                                        #   in Loop: Header=BB9_1 Depth=1
	movabsq	$Quant8_inter_default, %rsi
	movq	-16(%rbp), %rdi
	movl	$128, %edx
	callq	memcpy
	jmp	.LBB9_43
.LBB9_42:                               # %if.else98
                                        #   in Loop: Header=BB9_1 Depth=1
	movabsq	$Quant8_intra_default, %rsi
	movq	-16(%rbp), %rdi
	movl	$128, %edx
	callq	memcpy
.LBB9_43:                               # %if.end99
                                        #   in Loop: Header=BB9_1 Depth=1
	jmp	.LBB9_44
.LBB9_44:                               # %if.end100
                                        #   in Loop: Header=BB9_1 Depth=1
	jmp	.LBB9_45
.LBB9_45:                               # %if.end101
                                        #   in Loop: Header=BB9_1 Depth=1
	jmp	.LBB9_46
.LBB9_46:                               # %for.inc102
                                        #   in Loop: Header=BB9_1 Depth=1
	movl	-4(%rbp), %eax
	addl	$1, %eax
	movl	%eax, -4(%rbp)
	jmp	.LBB9_1
.LBB9_47:                               # %for.end104
	cmpl	$603551744, -24(%rbp)   # imm = 0x23F97800
	jne	.LBB9_49
.LBB9_48:
	addq	$32, %rsp
	popq	%rbp
	.cfi_def_cfa %rsp, 8
	retq
.LBB9_49:                               # %func_exit
	.cfi_def_cfa %rbp, 16
	callq	detect_breach
	jmp	.LBB9_48
.Lfunc_end9:
	.size	PatchMatrix.4, .Lfunc_end9-PatchMatrix.4
	.cfi_endproc
                                        # -- End function
	.globl	PatchMatrix.5           # -- Begin function PatchMatrix.5
	.p2align	4, 0x90
	.type	PatchMatrix.5,@function
PatchMatrix.5:                          # @PatchMatrix.5
	.cfi_startproc
# %bb.0:                                # %entry
	pushq	%rbp
	.cfi_def_cfa_offset 16
	.cfi_offset %rbp, -16
	movq	%rsp, %rbp
	.cfi_def_cfa_register %rbp
	subq	$32, %rsp
	movl	$218931795, -24(%rbp)   # imm = 0xD0CA253
	movl	$0, -4(%rbp)
.LBB10_1:                               # %for.cond
                                        # =>This Loop Header: Depth=1
                                        #     Child Loop BB10_5 Depth 2
                                        #     Child Loop BB10_27 Depth 2
	cmpl	$6, -4(%rbp)
	jge	.LBB10_47
# %bb.2:                                # %for.body
                                        #   in Loop: Header=BB10_1 Depth=1
	movq	input, %rax
	movslq	-4(%rbp), %rcx
	cmpl	$0, 3260(%rax,%rcx,4)
	je	.LBB10_23
# %bb.3:                                # %if.then
                                        #   in Loop: Header=BB10_1 Depth=1
	movslq	-4(%rbp), %rax
	shlq	$5, %rax
	movabsq	$ScalingList4x4input, %rcx
	addq	%rax, %rcx
	movq	%rcx, -16(%rbp)
	movslq	-4(%rbp), %rax
	cmpl	$0, matrix4x4_check(,%rax,4)
	je	.LBB10_18
# %bb.4:                                # %if.then6
                                        #   in Loop: Header=BB10_1 Depth=1
	movl	$0, -20(%rbp)
	movl	$0, -8(%rbp)
.LBB10_5:                               # %for.cond7
                                        #   Parent Loop BB10_1 Depth=1
                                        # =>  This Inner Loop Header: Depth=2
	cmpl	$16, -8(%rbp)
	jge	.LBB10_11
# %bb.6:                                # %for.body9
                                        #   in Loop: Header=BB10_5 Depth=2
	movq	-16(%rbp), %rax
	movslq	-8(%rbp), %rcx
	movswl	(%rax,%rcx,2), %eax
	cmpl	$0, %eax
	jl	.LBB10_8
# %bb.7:                                # %lor.lhs.false
                                        #   in Loop: Header=BB10_5 Depth=2
	movq	-16(%rbp), %rax
	movslq	-8(%rbp), %rcx
	movswl	(%rax,%rcx,2), %eax
	cmpl	$255, %eax
	jle	.LBB10_9
.LBB10_8:                               # %if.then19
                                        #   in Loop: Header=BB10_1 Depth=1
	movl	$1, -20(%rbp)
	jmp	.LBB10_12
.LBB10_9:                               # %if.end
                                        #   in Loop: Header=BB10_5 Depth=2
	jmp	.LBB10_10
.LBB10_10:                              # %for.inc
                                        #   in Loop: Header=BB10_5 Depth=2
	movl	-8(%rbp), %eax
	addl	$1, %eax
	movl	%eax, -8(%rbp)
	jmp	.LBB10_5
.LBB10_11:                              # %for.end.loopexit
                                        #   in Loop: Header=BB10_1 Depth=1
	jmp	.LBB10_12
.LBB10_12:                              # %for.end
                                        #   in Loop: Header=BB10_1 Depth=1
	cmpl	$0, -20(%rbp)
	je	.LBB10_17
# %bb.13:                               # %if.then21
                                        #   in Loop: Header=BB10_1 Depth=1
	movslq	-4(%rbp), %rax
	imulq	$20, %rax, %rax
	movabsq	$MatrixType4x4, %rsi
	addq	%rax, %rsi
	movabsq	$.L.str.6, %rdi
	movb	$0, %al
	callq	printf
	movabsq	$.L.str.7, %rdi
	movb	$0, %al
	callq	printf
	cmpl	$2, -4(%rbp)
	jle	.LBB10_15
# %bb.14:                               # %if.then28
                                        #   in Loop: Header=BB10_1 Depth=1
	movq	-16(%rbp), %rax
	movq	Quant_inter_default, %rcx
	movq	%rcx, (%rax)
	movq	Quant_inter_default+8, %rcx
	movq	%rcx, 8(%rax)
	movq	Quant_inter_default+16, %rcx
	movq	%rcx, 16(%rax)
	movq	Quant_inter_default+24, %rcx
	movq	%rcx, 24(%rax)
	jmp	.LBB10_16
.LBB10_15:                              # %if.else
                                        #   in Loop: Header=BB10_1 Depth=1
	movq	-16(%rbp), %rax
	movq	Quant_intra_default, %rcx
	movq	%rcx, (%rax)
	movq	Quant_intra_default+8, %rcx
	movq	%rcx, 8(%rax)
	movq	Quant_intra_default+16, %rcx
	movq	%rcx, 16(%rax)
	movq	Quant_intra_default+24, %rcx
	movq	%rcx, 24(%rax)
.LBB10_16:                              # %if.end29
                                        #   in Loop: Header=BB10_1 Depth=1
	jmp	.LBB10_17
.LBB10_17:                              # %if.end30
                                        #   in Loop: Header=BB10_1 Depth=1
	jmp	.LBB10_22
.LBB10_18:                              # %if.else31
                                        #   in Loop: Header=BB10_1 Depth=1
	movslq	-4(%rbp), %rax
	imulq	$20, %rax, %rax
	movabsq	$MatrixType4x4, %rsi
	addq	%rax, %rsi
	movabsq	$.L.str.8, %rdi
	movb	$0, %al
	callq	printf
	cmpl	$2, -4(%rbp)
	jle	.LBB10_20
# %bb.19:                               # %if.then38
                                        #   in Loop: Header=BB10_1 Depth=1
	movq	-16(%rbp), %rax
	movq	Quant_inter_default, %rcx
	movq	%rcx, (%rax)
	movq	Quant_inter_default+8, %rcx
	movq	%rcx, 8(%rax)
	movq	Quant_inter_default+16, %rcx
	movq	%rcx, 16(%rax)
	movq	Quant_inter_default+24, %rcx
	movq	%rcx, 24(%rax)
	jmp	.LBB10_21
.LBB10_20:                              # %if.else39
                                        #   in Loop: Header=BB10_1 Depth=1
	movq	-16(%rbp), %rax
	movq	Quant_intra_default, %rcx
	movq	%rcx, (%rax)
	movq	Quant_intra_default+8, %rcx
	movq	%rcx, 8(%rax)
	movq	Quant_intra_default+16, %rcx
	movq	%rcx, 16(%rax)
	movq	Quant_intra_default+24, %rcx
	movq	%rcx, 24(%rax)
.LBB10_21:                              # %if.end40
                                        #   in Loop: Header=BB10_1 Depth=1
	jmp	.LBB10_22
.LBB10_22:                              # %if.end41
                                        #   in Loop: Header=BB10_1 Depth=1
	jmp	.LBB10_23
.LBB10_23:                              # %if.end42
                                        #   in Loop: Header=BB10_1 Depth=1
	cmpl	$2, -4(%rbp)
	jge	.LBB10_45
# %bb.24:                               # %land.lhs.true
                                        #   in Loop: Header=BB10_1 Depth=1
	movq	input, %rax
	movl	-4(%rbp), %ecx
	addl	$6, %ecx
	movslq	%ecx, %rcx
	cmpl	$0, 3260(%rax,%rcx,4)
	je	.LBB10_45
# %bb.25:                               # %if.then49
                                        #   in Loop: Header=BB10_1 Depth=1
	movslq	-4(%rbp), %rax
	shlq	$7, %rax
	movabsq	$ScalingList8x8input, %rcx
	addq	%rax, %rcx
	movq	%rcx, -16(%rbp)
	movslq	-4(%rbp), %rax
	cmpl	$0, matrix8x8_check(,%rax,4)
	je	.LBB10_40
# %bb.26:                               # %if.then56
                                        #   in Loop: Header=BB10_1 Depth=1
	movl	$0, -20(%rbp)
	movl	$0, -8(%rbp)
.LBB10_27:                              # %for.cond57
                                        #   Parent Loop BB10_1 Depth=1
                                        # =>  This Inner Loop Header: Depth=2
	cmpl	$64, -8(%rbp)
	jge	.LBB10_33
# %bb.28:                               # %for.body60
                                        #   in Loop: Header=BB10_27 Depth=2
	movq	-16(%rbp), %rax
	movslq	-8(%rbp), %rcx
	movswl	(%rax,%rcx,2), %eax
	cmpl	$0, %eax
	jl	.LBB10_30
# %bb.29:                               # %lor.lhs.false66
                                        #   in Loop: Header=BB10_27 Depth=2
	movq	-16(%rbp), %rax
	movslq	-8(%rbp), %rcx
	movswl	(%rax,%rcx,2), %eax
	cmpl	$255, %eax
	jle	.LBB10_31
.LBB10_30:                              # %if.then72
                                        #   in Loop: Header=BB10_1 Depth=1
	movl	$1, -20(%rbp)
	jmp	.LBB10_34
.LBB10_31:                              # %if.end73
                                        #   in Loop: Header=BB10_27 Depth=2
	jmp	.LBB10_32
.LBB10_32:                              # %for.inc74
                                        #   in Loop: Header=BB10_27 Depth=2
	movl	-8(%rbp), %eax
	addl	$1, %eax
	movl	%eax, -8(%rbp)
	jmp	.LBB10_27
.LBB10_33:                              # %for.end76.loopexit
                                        #   in Loop: Header=BB10_1 Depth=1
	jmp	.LBB10_34
.LBB10_34:                              # %for.end76
                                        #   in Loop: Header=BB10_1 Depth=1
	cmpl	$0, -20(%rbp)
	je	.LBB10_39
# %bb.35:                               # %if.then78
                                        #   in Loop: Header=BB10_1 Depth=1
	movslq	-4(%rbp), %rax
	imulq	$20, %rax, %rax
	movabsq	$MatrixType8x8, %rsi
	addq	%rax, %rsi
	movabsq	$.L.str.6, %rdi
	movb	$0, %al
	callq	printf
	movabsq	$.L.str.7, %rdi
	movb	$0, %al
	callq	printf
	cmpl	$7, -4(%rbp)
	jne	.LBB10_37
# %bb.36:                               # %if.then86
                                        #   in Loop: Header=BB10_1 Depth=1
	movabsq	$Quant8_inter_default, %rsi
	movq	-16(%rbp), %rdi
	movl	$128, %edx
	callq	memcpy
	jmp	.LBB10_38
.LBB10_37:                              # %if.else87
                                        #   in Loop: Header=BB10_1 Depth=1
	movabsq	$Quant8_intra_default, %rsi
	movq	-16(%rbp), %rdi
	movl	$128, %edx
	callq	memcpy
.LBB10_38:                              # %if.end88
                                        #   in Loop: Header=BB10_1 Depth=1
	jmp	.LBB10_39
.LBB10_39:                              # %if.end89
                                        #   in Loop: Header=BB10_1 Depth=1
	jmp	.LBB10_44
.LBB10_40:                              # %if.else90
                                        #   in Loop: Header=BB10_1 Depth=1
	movslq	-4(%rbp), %rax
	imulq	$20, %rax, %rax
	movabsq	$MatrixType8x8, %rsi
	addq	%rax, %rsi
	movabsq	$.L.str.8, %rdi
	movb	$0, %al
	callq	printf
	cmpl	$7, -4(%rbp)
	jne	.LBB10_42
# %bb.41:                               # %if.then97
                                        #   in Loop: Header=BB10_1 Depth=1
	movabsq	$Quant8_inter_default, %rsi
	movq	-16(%rbp), %rdi
	movl	$128, %edx
	callq	memcpy
	jmp	.LBB10_43
.LBB10_42:                              # %if.else98
                                        #   in Loop: Header=BB10_1 Depth=1
	movabsq	$Quant8_intra_default, %rsi
	movq	-16(%rbp), %rdi
	movl	$128, %edx
	callq	memcpy
.LBB10_43:                              # %if.end99
                                        #   in Loop: Header=BB10_1 Depth=1
	jmp	.LBB10_44
.LBB10_44:                              # %if.end100
                                        #   in Loop: Header=BB10_1 Depth=1
	jmp	.LBB10_45
.LBB10_45:                              # %if.end101
                                        #   in Loop: Header=BB10_1 Depth=1
	jmp	.LBB10_46
.LBB10_46:                              # %for.inc102
                                        #   in Loop: Header=BB10_1 Depth=1
	movl	-4(%rbp), %eax
	addl	$1, %eax
	movl	%eax, -4(%rbp)
	jmp	.LBB10_1
.LBB10_47:                              # %for.end104
	cmpl	$218931795, -24(%rbp)   # imm = 0xD0CA253
	jne	.LBB10_49
.LBB10_48:
	addq	$32, %rsp
	popq	%rbp
	.cfi_def_cfa %rsp, 8
	retq
.LBB10_49:                              # %func_exit
	.cfi_def_cfa %rbp, 16
	callq	detect_breach
	jmp	.LBB10_48
.Lfunc_end10:
	.size	PatchMatrix.5, .Lfunc_end10-PatchMatrix.5
	.cfi_endproc
                                        # -- End function
	.globl	CheckParameterName.6    # -- Begin function CheckParameterName.6
	.p2align	4, 0x90
	.type	CheckParameterName.6,@function
CheckParameterName.6:                   # @CheckParameterName.6
	.cfi_startproc
# %bb.0:                                # %entry
	pushq	%rbp
	.cfi_def_cfa_offset 16
	.cfi_offset %rbp, -16
	movq	%rsp, %rbp
	.cfi_def_cfa_register %rbp
	pushq	%rbx
	subq	$40, %rsp
	.cfi_offset %rbx, -24
	movl	$498512161, -20(%rbp)   # imm = 0x1DB6B121
	movq	%rdi, -32(%rbp)
	movq	%rsi, -40(%rbp)
	movl	$0, -12(%rbp)
	movq	-40(%rbp), %rax
	movl	$0, (%rax)
.LBB11_1:                               # %while.cond
                                        # =>This Inner Loop Header: Depth=1
	xorl	%eax, %eax
	movslq	-12(%rbp), %rcx
	imulq	$20, %rcx, %rcx
	movabsq	$MatrixType4x4, %rdx
	addq	%rcx, %rdx
	cmpq	$0, %rdx
	je	.LBB11_3
# %bb.2:                                # %land.rhs
                                        #   in Loop: Header=BB11_1 Depth=1
	cmpl	$6, -12(%rbp)
	setl	%al
.LBB11_3:                               # %land.end
                                        #   in Loop: Header=BB11_1 Depth=1
	testb	$1, %al
	jne	.LBB11_4
	jmp	.LBB11_8
.LBB11_4:                               # %while.body
                                        #   in Loop: Header=BB11_1 Depth=1
	xorl	%ebx, %ebx
	movslq	-12(%rbp), %rax
	imulq	$20, %rax, %rax
	movabsq	$MatrixType4x4, %rdi
	addq	%rax, %rdi
	movq	-32(%rbp), %rsi
	callq	strcmp
	cmpl	%eax, %ebx
	jne	.LBB11_6
# %bb.5:                                # %if.then
	movl	-12(%rbp), %eax
	movl	%eax, -16(%rbp)
	jmp	.LBB11_17
.LBB11_6:                               # %if.else
                                        #   in Loop: Header=BB11_1 Depth=1
	movl	-12(%rbp), %eax
	addl	$1, %eax
	movl	%eax, -12(%rbp)
# %bb.7:                                # %if.end
                                        #   in Loop: Header=BB11_1 Depth=1
	jmp	.LBB11_1
.LBB11_8:                               # %while.end
	movl	$0, -12(%rbp)
	movq	-40(%rbp), %rax
	movl	$1, (%rax)
.LBB11_9:                               # %while.cond6
                                        # =>This Inner Loop Header: Depth=1
	xorl	%eax, %eax
	movslq	-12(%rbp), %rcx
	imulq	$20, %rcx, %rcx
	movabsq	$MatrixType8x8, %rdx
	addq	%rcx, %rdx
	cmpq	$0, %rdx
	je	.LBB11_11
# %bb.10:                               # %land.rhs11
                                        #   in Loop: Header=BB11_9 Depth=1
	cmpl	$2, -12(%rbp)
	setl	%al
.LBB11_11:                              # %land.end13
                                        #   in Loop: Header=BB11_9 Depth=1
	testb	$1, %al
	jne	.LBB11_12
	jmp	.LBB11_16
.LBB11_12:                              # %while.body14
                                        #   in Loop: Header=BB11_9 Depth=1
	xorl	%ebx, %ebx
	movslq	-12(%rbp), %rax
	imulq	$20, %rax, %rax
	movabsq	$MatrixType8x8, %rdi
	addq	%rax, %rdi
	movq	-32(%rbp), %rsi
	callq	strcmp
	cmpl	%eax, %ebx
	jne	.LBB11_14
# %bb.13:                               # %if.then20
	movl	-12(%rbp), %eax
	movl	%eax, -16(%rbp)
	jmp	.LBB11_17
.LBB11_14:                              # %if.else21
                                        #   in Loop: Header=BB11_9 Depth=1
	movl	-12(%rbp), %eax
	addl	$1, %eax
	movl	%eax, -12(%rbp)
# %bb.15:                               # %if.end23
                                        #   in Loop: Header=BB11_9 Depth=1
	jmp	.LBB11_9
.LBB11_16:                              # %while.end24
	movl	$-1, -16(%rbp)
.LBB11_17:                              # %return
	movl	-16(%rbp), %ebx
	cmpl	$498512161, -20(%rbp)   # imm = 0x1DB6B121
	jne	.LBB11_19
.LBB11_18:
	movl	%ebx, %eax
	addq	$40, %rsp
	popq	%rbx
	popq	%rbp
	.cfi_def_cfa %rsp, 8
	retq
.LBB11_19:                              # %func_exit
	.cfi_def_cfa %rbp, 16
	callq	detect_breach
	jmp	.LBB11_18
.Lfunc_end11:
	.size	CheckParameterName.6, .Lfunc_end11-CheckParameterName.6
	.cfi_endproc
                                        # -- End function
	.globl	CalculateQuantParam.7   # -- Begin function CalculateQuantParam.7
	.p2align	4, 0x90
	.type	CalculateQuantParam.7,@function
CalculateQuantParam.7:                  # @CalculateQuantParam.7
	.cfi_startproc
# %bb.0:                                # %entry
	pushq	%rbp
	.cfi_def_cfa_offset 16
	.cfi_offset %rbp, -16
	movq	%rsp, %rbp
	.cfi_def_cfa_register %rbp
	pushq	%r15
	pushq	%r14
	pushq	%r12
	pushq	%rbx
	subq	$48, %rsp
	.cfi_offset %rbx, -48
	.cfi_offset %r12, -40
	.cfi_offset %r14, -32
	.cfi_offset %r15, -24
	movl	$287738769, -56(%rbp)   # imm = 0x11268B91
	movl	$0, -52(%rbp)
	movq	active_sps, %rax
	cmpl	$0, 36(%rax)
	jne	.LBB12_3
# %bb.1:                                # %land.lhs.true
	movq	active_pps, %rax
	cmpl	$0, 20(%rax)
	jne	.LBB12_3
# %bb.2:                                # %if.then
	movl	$1, -52(%rbp)
	jmp	.LBB12_20
.LBB12_3:                               # %if.else
	leaq	-80(%rbp), %rdi
	xorl	%esi, %esi
	movl	$24, %edx
	callq	memset
	movq	active_sps, %rax
	cmpl	$0, 36(%rax)
	je	.LBB12_9
# %bb.4:                                # %if.then4
	movl	$0, -36(%rbp)
.LBB12_5:                               # %for.cond
                                        # =>This Inner Loop Header: Depth=1
	cmpl	$6, -36(%rbp)
	jge	.LBB12_8
# %bb.6:                                # %for.body
                                        #   in Loop: Header=BB12_5 Depth=1
	movq	active_sps, %rax
	movslq	-36(%rbp), %rcx
	movl	40(%rax,%rcx,4), %eax
	movslq	-36(%rbp), %rcx
	movl	%eax, -80(%rbp,%rcx,4)
# %bb.7:                                # %for.inc
                                        #   in Loop: Header=BB12_5 Depth=1
	movl	-36(%rbp), %eax
	addl	$1, %eax
	movl	%eax, -36(%rbp)
	jmp	.LBB12_5
.LBB12_8:                               # %for.end
	jmp	.LBB12_9
.LBB12_9:                               # %if.end
	movq	active_pps, %rax
	cmpl	$0, 20(%rax)
	je	.LBB12_19
# %bb.10:                               # %if.then9
	movl	$0, -36(%rbp)
.LBB12_11:                              # %for.cond10
                                        # =>This Inner Loop Header: Depth=1
	cmpl	$6, -36(%rbp)
	jge	.LBB12_18
# %bb.12:                               # %for.body12
                                        #   in Loop: Header=BB12_11 Depth=1
	cmpl	$0, -36(%rbp)
	je	.LBB12_14
# %bb.13:                               # %lor.lhs.false
                                        #   in Loop: Header=BB12_11 Depth=1
	cmpl	$3, -36(%rbp)
	jne	.LBB12_15
.LBB12_14:                              # %if.then15
                                        #   in Loop: Header=BB12_11 Depth=1
	movq	active_pps, %rax
	movslq	-36(%rbp), %rcx
	movl	24(%rax,%rcx,4), %eax
	movslq	-36(%rbp), %rcx
	orl	-80(%rbp,%rcx,4), %eax
	movl	%eax, -80(%rbp,%rcx,4)
	jmp	.LBB12_16
.LBB12_15:                              # %if.else20
                                        #   in Loop: Header=BB12_11 Depth=1
	movq	active_pps, %rax
	movslq	-36(%rbp), %rcx
	movl	24(%rax,%rcx,4), %eax
	movslq	-36(%rbp), %rcx
	movl	%eax, -80(%rbp,%rcx,4)
.LBB12_16:                              # %if.end26
                                        #   in Loop: Header=BB12_11 Depth=1
	jmp	.LBB12_17
.LBB12_17:                              # %for.inc27
                                        #   in Loop: Header=BB12_11 Depth=1
	movl	-36(%rbp), %eax
	addl	$1, %eax
	movl	%eax, -36(%rbp)
	jmp	.LBB12_11
.LBB12_18:                              # %for.end29
	jmp	.LBB12_19
.LBB12_19:                              # %if.end30
	jmp	.LBB12_20
.LBB12_20:                              # %if.end31
	cmpl	$1, -52(%rbp)
	jne	.LBB12_34
# %bb.21:                               # %if.then33
	movl	$0, -44(%rbp)
.LBB12_22:                              # %for.cond34
                                        # =>This Loop Header: Depth=1
                                        #     Child Loop BB12_24 Depth 2
                                        #       Child Loop BB12_26 Depth 3
	cmpl	$6, -44(%rbp)
	jge	.LBB12_33
# %bb.23:                               # %for.body36
                                        #   in Loop: Header=BB12_22 Depth=1
	movl	$0, -40(%rbp)
.LBB12_24:                              # %for.cond37
                                        #   Parent Loop BB12_22 Depth=1
                                        # =>  This Loop Header: Depth=2
                                        #       Child Loop BB12_26 Depth 3
	cmpl	$4, -40(%rbp)
	jge	.LBB12_31
# %bb.25:                               # %for.body39
                                        #   in Loop: Header=BB12_24 Depth=2
	movl	$0, -36(%rbp)
.LBB12_26:                              # %for.cond40
                                        #   Parent Loop BB12_22 Depth=1
                                        #     Parent Loop BB12_24 Depth=2
                                        # =>    This Inner Loop Header: Depth=3
	cmpl	$4, -36(%rbp)
	jge	.LBB12_29
# %bb.27:                               # %for.body42
                                        #   in Loop: Header=BB12_26 Depth=3
	movabsq	$InvLevelScale4x4Chroma_Inter, %r9
	movq	%r9, %r8
	addq	$384, %r8               # imm = 0x180
	movabsq	$LevelScale4x4Chroma_Inter, %r11
	movq	%r11, %r10
	addq	$384, %r10              # imm = 0x180
	movabsq	$InvLevelScale4x4Chroma_Intra, %rdx
	movq	%rdx, %r15
	addq	$384, %r15              # imm = 0x180
	movabsq	$LevelScale4x4Chroma_Intra, %rbx
	movq	%rbx, %rax
	addq	$384, %rax              # imm = 0x180
	movslq	-44(%rbp), %rdi
	shlq	$6, %rdi
	movabsq	$quant_coef, %r14
	movq	%r14, %rsi
	addq	%rdi, %rsi
	movslq	-40(%rbp), %rdi
	shlq	$4, %rdi
	addq	%rdi, %rsi
	movslq	-36(%rbp), %rdi
	movl	(%rsi,%rdi,4), %esi
	movslq	-44(%rbp), %rdi
	shlq	$6, %rdi
	movabsq	$LevelScale4x4Luma_Intra, %rcx
	addq	%rdi, %rcx
	movslq	-40(%rbp), %rdi
	shlq	$4, %rdi
	addq	%rdi, %rcx
	movslq	-36(%rbp), %rdi
	movl	%esi, (%rcx,%rdi,4)
	movslq	-44(%rbp), %rcx
	shlq	$6, %rcx
	movabsq	$dequant_coef, %r12
	movq	%r12, %rsi
	addq	%rcx, %rsi
	movslq	-40(%rbp), %rcx
	shlq	$4, %rcx
	addq	%rcx, %rsi
	movslq	-36(%rbp), %rcx
	movl	(%rsi,%rcx,4), %ecx
	shll	$4, %ecx
	movslq	-44(%rbp), %rsi
	shlq	$6, %rsi
	movabsq	$InvLevelScale4x4Luma_Intra, %rdi
	addq	%rsi, %rdi
	movslq	-40(%rbp), %rsi
	shlq	$4, %rsi
	addq	%rsi, %rdi
	movslq	-36(%rbp), %rsi
	movl	%ecx, (%rdi,%rsi,4)
	movslq	-44(%rbp), %rcx
	shlq	$6, %rcx
	movq	%r14, %rsi
	addq	%rcx, %rsi
	movslq	-40(%rbp), %rcx
	shlq	$4, %rcx
	addq	%rcx, %rsi
	movslq	-36(%rbp), %rcx
	movl	(%rsi,%rcx,4), %ecx
	movslq	-44(%rbp), %rsi
	shlq	$6, %rsi
	addq	%rsi, %rbx
	movslq	-40(%rbp), %rsi
	shlq	$4, %rsi
	addq	%rsi, %rbx
	movslq	-36(%rbp), %rsi
	movl	%ecx, (%rbx,%rsi,4)
	movslq	-44(%rbp), %rcx
	shlq	$6, %rcx
	movq	%r12, %rsi
	addq	%rcx, %rsi
	movslq	-40(%rbp), %rcx
	shlq	$4, %rcx
	addq	%rcx, %rsi
	movslq	-36(%rbp), %rcx
	movl	(%rsi,%rcx,4), %ecx
	shll	$4, %ecx
	movslq	-44(%rbp), %rsi
	shlq	$6, %rsi
	addq	%rsi, %rdx
	movslq	-40(%rbp), %rsi
	shlq	$4, %rsi
	addq	%rsi, %rdx
	movslq	-36(%rbp), %rsi
	movl	%ecx, (%rdx,%rsi,4)
	movslq	-44(%rbp), %rcx
	shlq	$6, %rcx
	movq	%r14, %rdx
	addq	%rcx, %rdx
	movslq	-40(%rbp), %rcx
	shlq	$4, %rcx
	addq	%rcx, %rdx
	movslq	-36(%rbp), %rcx
	movl	(%rdx,%rcx,4), %ecx
	movslq	-44(%rbp), %rdx
	shlq	$6, %rdx
	addq	%rdx, %rax
	movslq	-40(%rbp), %rdx
	shlq	$4, %rdx
	addq	%rdx, %rax
	movslq	-36(%rbp), %rdx
	movl	%ecx, (%rax,%rdx,4)
	movslq	-44(%rbp), %rax
	shlq	$6, %rax
	movq	%r12, %rcx
	addq	%rax, %rcx
	movslq	-40(%rbp), %rax
	shlq	$4, %rax
	addq	%rax, %rcx
	movslq	-36(%rbp), %rax
	movl	(%rcx,%rax,4), %eax
	shll	$4, %eax
	movslq	-44(%rbp), %rcx
	shlq	$6, %rcx
	addq	%rcx, %r15
	movslq	-40(%rbp), %rcx
	shlq	$4, %rcx
	addq	%rcx, %r15
	movslq	-36(%rbp), %rcx
	movl	%eax, (%r15,%rcx,4)
	movslq	-44(%rbp), %rax
	shlq	$6, %rax
	movq	%r14, %rcx
	addq	%rax, %rcx
	movslq	-40(%rbp), %rax
	shlq	$4, %rax
	addq	%rax, %rcx
	movslq	-36(%rbp), %rax
	movl	(%rcx,%rax,4), %eax
	movslq	-44(%rbp), %rcx
	shlq	$6, %rcx
	movabsq	$LevelScale4x4Luma_Inter, %rdx
	addq	%rcx, %rdx
	movslq	-40(%rbp), %rcx
	shlq	$4, %rcx
	addq	%rcx, %rdx
	movslq	-36(%rbp), %rcx
	movl	%eax, (%rdx,%rcx,4)
	movslq	-44(%rbp), %rax
	shlq	$6, %rax
	movq	%r12, %rcx
	addq	%rax, %rcx
	movslq	-40(%rbp), %rax
	shlq	$4, %rax
	addq	%rax, %rcx
	movslq	-36(%rbp), %rax
	movl	(%rcx,%rax,4), %eax
	shll	$4, %eax
	movslq	-44(%rbp), %rcx
	shlq	$6, %rcx
	movabsq	$InvLevelScale4x4Luma_Inter, %rdx
	addq	%rcx, %rdx
	movslq	-40(%rbp), %rcx
	shlq	$4, %rcx
	addq	%rcx, %rdx
	movslq	-36(%rbp), %rcx
	movl	%eax, (%rdx,%rcx,4)
	movslq	-44(%rbp), %rax
	shlq	$6, %rax
	movq	%r14, %rcx
	addq	%rax, %rcx
	movslq	-40(%rbp), %rax
	shlq	$4, %rax
	addq	%rax, %rcx
	movslq	-36(%rbp), %rax
	movl	(%rcx,%rax,4), %eax
	movslq	-44(%rbp), %rcx
	shlq	$6, %rcx
	addq	%rcx, %r11
	movslq	-40(%rbp), %rcx
	shlq	$4, %rcx
	addq	%rcx, %r11
	movslq	-36(%rbp), %rcx
	movl	%eax, (%r11,%rcx,4)
	movslq	-44(%rbp), %rax
	shlq	$6, %rax
	movq	%r12, %rcx
	addq	%rax, %rcx
	movslq	-40(%rbp), %rax
	shlq	$4, %rax
	addq	%rax, %rcx
	movslq	-36(%rbp), %rax
	movl	(%rcx,%rax,4), %eax
	shll	$4, %eax
	movslq	-44(%rbp), %rcx
	shlq	$6, %rcx
	addq	%rcx, %r9
	movslq	-40(%rbp), %rcx
	shlq	$4, %rcx
	addq	%rcx, %r9
	movslq	-36(%rbp), %rcx
	movl	%eax, (%r9,%rcx,4)
	movslq	-44(%rbp), %rax
	shlq	$6, %rax
	addq	%rax, %r14
	movslq	-40(%rbp), %rax
	shlq	$4, %rax
	addq	%rax, %r14
	movslq	-36(%rbp), %rax
	movl	(%r14,%rax,4), %eax
	movslq	-44(%rbp), %rcx
	shlq	$6, %rcx
	addq	%rcx, %r10
	movslq	-40(%rbp), %rcx
	shlq	$4, %rcx
	addq	%rcx, %r10
	movslq	-36(%rbp), %rcx
	movl	%eax, (%r10,%rcx,4)
	movslq	-44(%rbp), %rax
	shlq	$6, %rax
	addq	%rax, %r12
	movslq	-40(%rbp), %rax
	shlq	$4, %rax
	addq	%rax, %r12
	movslq	-36(%rbp), %rax
	movl	(%r12,%rax,4), %eax
	shll	$4, %eax
	movslq	-44(%rbp), %rcx
	shlq	$6, %rcx
	addq	%rcx, %r8
	movslq	-40(%rbp), %rcx
	shlq	$4, %rcx
	addq	%rcx, %r8
	movslq	-36(%rbp), %rcx
	movl	%eax, (%r8,%rcx,4)
# %bb.28:                               # %for.inc192
                                        #   in Loop: Header=BB12_26 Depth=3
	movl	-36(%rbp), %eax
	addl	$1, %eax
	movl	%eax, -36(%rbp)
	jmp	.LBB12_26
.LBB12_29:                              # %for.end194
                                        #   in Loop: Header=BB12_24 Depth=2
	jmp	.LBB12_30
.LBB12_30:                              # %for.inc195
                                        #   in Loop: Header=BB12_24 Depth=2
	movl	-40(%rbp), %eax
	addl	$1, %eax
	movl	%eax, -40(%rbp)
	jmp	.LBB12_24
.LBB12_31:                              # %for.end197
                                        #   in Loop: Header=BB12_22 Depth=1
	jmp	.LBB12_32
.LBB12_32:                              # %for.inc198
                                        #   in Loop: Header=BB12_22 Depth=1
	movl	-44(%rbp), %eax
	addl	$1, %eax
	movl	%eax, -44(%rbp)
	jmp	.LBB12_22
.LBB12_33:                              # %for.end200
	jmp	.LBB12_91
.LBB12_34:                              # %if.else201
	movl	$0, -44(%rbp)
.LBB12_35:                              # %for.cond202
                                        # =>This Loop Header: Depth=1
                                        #     Child Loop BB12_37 Depth 2
                                        #       Child Loop BB12_39 Depth 3
	cmpl	$6, -44(%rbp)
	jge	.LBB12_90
# %bb.36:                               # %for.body204
                                        #   in Loop: Header=BB12_35 Depth=1
	movl	$0, -40(%rbp)
.LBB12_37:                              # %for.cond205
                                        #   Parent Loop BB12_35 Depth=1
                                        # =>  This Loop Header: Depth=2
                                        #       Child Loop BB12_39 Depth 3
	cmpl	$4, -40(%rbp)
	jge	.LBB12_88
# %bb.38:                               # %for.body207
                                        #   in Loop: Header=BB12_37 Depth=2
	movl	$0, -36(%rbp)
.LBB12_39:                              # %for.cond208
                                        #   Parent Loop BB12_35 Depth=1
                                        #     Parent Loop BB12_37 Depth=2
                                        # =>    This Inner Loop Header: Depth=3
	cmpl	$4, -36(%rbp)
	jge	.LBB12_86
# %bb.40:                               # %for.body210
                                        #   in Loop: Header=BB12_39 Depth=3
	movl	-36(%rbp), %eax
	shll	$2, %eax
	addl	-40(%rbp), %eax
	movl	%eax, -48(%rbp)
	cmpl	$0, -80(%rbp)
	je	.LBB12_42
# %bb.41:                               # %lor.lhs.false214
                                        #   in Loop: Header=BB12_39 Depth=3
	movswl	UseDefaultScalingMatrix4x4Flag, %eax
	cmpl	$0, %eax
	je	.LBB12_43
.LBB12_42:                              # %if.then216
                                        #   in Loop: Header=BB12_39 Depth=3
	movslq	-44(%rbp), %rax
	shlq	$6, %rax
	movabsq	$quant_coef, %rcx
	addq	%rax, %rcx
	movslq	-40(%rbp), %rax
	shlq	$4, %rax
	addq	%rax, %rcx
	movslq	-36(%rbp), %rax
	movl	(%rcx,%rax,4), %eax
	shll	$4, %eax
	movslq	-48(%rbp), %rcx
	movswl	Quant_intra_default(,%rcx,2), %ecx
	cltd
	idivl	%ecx
	movslq	-44(%rbp), %rcx
	shlq	$6, %rcx
	movabsq	$LevelScale4x4Luma_Intra, %rdx
	addq	%rcx, %rdx
	movslq	-40(%rbp), %rcx
	shlq	$4, %rcx
	addq	%rcx, %rdx
	movslq	-36(%rbp), %rcx
	movl	%eax, (%rdx,%rcx,4)
	movslq	-44(%rbp), %rax
	shlq	$6, %rax
	movabsq	$dequant_coef, %rcx
	addq	%rax, %rcx
	movslq	-40(%rbp), %rax
	shlq	$4, %rax
	addq	%rax, %rcx
	movslq	-36(%rbp), %rax
	movl	(%rcx,%rax,4), %eax
	movslq	-48(%rbp), %rcx
	movswl	Quant_intra_default(,%rcx,2), %ecx
	imull	%ecx, %eax
	movslq	-44(%rbp), %rcx
	shlq	$6, %rcx
	movabsq	$InvLevelScale4x4Luma_Intra, %rdx
	addq	%rcx, %rdx
	movslq	-40(%rbp), %rcx
	shlq	$4, %rcx
	addq	%rcx, %rdx
	movslq	-36(%rbp), %rcx
	movl	%eax, (%rdx,%rcx,4)
	jmp	.LBB12_44
.LBB12_43:                              # %if.else248
                                        #   in Loop: Header=BB12_39 Depth=3
	movslq	-44(%rbp), %rax
	shlq	$6, %rax
	movabsq	$quant_coef, %rcx
	addq	%rax, %rcx
	movslq	-40(%rbp), %rax
	shlq	$4, %rax
	addq	%rax, %rcx
	movslq	-36(%rbp), %rax
	movl	(%rcx,%rax,4), %eax
	shll	$4, %eax
	movslq	-48(%rbp), %rcx
	movswl	ScalingList4x4(,%rcx,2), %ecx
	cltd
	idivl	%ecx
	movslq	-44(%rbp), %rcx
	shlq	$6, %rcx
	movabsq	$LevelScale4x4Luma_Intra, %rdx
	addq	%rcx, %rdx
	movslq	-40(%rbp), %rcx
	shlq	$4, %rcx
	addq	%rcx, %rdx
	movslq	-36(%rbp), %rcx
	movl	%eax, (%rdx,%rcx,4)
	movslq	-44(%rbp), %rax
	shlq	$6, %rax
	movabsq	$dequant_coef, %rcx
	addq	%rax, %rcx
	movslq	-40(%rbp), %rax
	shlq	$4, %rax
	addq	%rax, %rcx
	movslq	-36(%rbp), %rax
	movl	(%rcx,%rax,4), %eax
	movslq	-48(%rbp), %rcx
	movswl	ScalingList4x4(,%rcx,2), %ecx
	imull	%ecx, %eax
	movslq	-44(%rbp), %rcx
	shlq	$6, %rcx
	movabsq	$InvLevelScale4x4Luma_Intra, %rdx
	addq	%rcx, %rdx
	movslq	-40(%rbp), %rcx
	shlq	$4, %rcx
	addq	%rcx, %rdx
	movslq	-36(%rbp), %rcx
	movl	%eax, (%rdx,%rcx,4)
.LBB12_44:                              # %if.end282
                                        #   in Loop: Header=BB12_39 Depth=3
	cmpl	$0, -76(%rbp)
	jne	.LBB12_46
# %bb.45:                               # %if.then285
                                        #   in Loop: Header=BB12_39 Depth=3
	movslq	-44(%rbp), %rax
	shlq	$6, %rax
	movabsq	$LevelScale4x4Luma_Intra, %rcx
	addq	%rax, %rcx
	movslq	-40(%rbp), %rax
	shlq	$4, %rax
	addq	%rax, %rcx
	movslq	-36(%rbp), %rax
	movl	(%rcx,%rax,4), %eax
	movslq	-44(%rbp), %rcx
	shlq	$6, %rcx
	movabsq	$LevelScale4x4Chroma_Intra, %rdx
	addq	%rcx, %rdx
	movslq	-40(%rbp), %rcx
	shlq	$4, %rcx
	addq	%rcx, %rdx
	movslq	-36(%rbp), %rcx
	movl	%eax, (%rdx,%rcx,4)
	movslq	-44(%rbp), %rax
	shlq	$6, %rax
	movabsq	$InvLevelScale4x4Luma_Intra, %rcx
	addq	%rax, %rcx
	movslq	-40(%rbp), %rax
	shlq	$4, %rax
	addq	%rax, %rcx
	movslq	-36(%rbp), %rax
	movl	(%rcx,%rax,4), %eax
	movslq	-44(%rbp), %rcx
	shlq	$6, %rcx
	movabsq	$InvLevelScale4x4Chroma_Intra, %rdx
	addq	%rcx, %rdx
	movslq	-40(%rbp), %rcx
	shlq	$4, %rcx
	addq	%rcx, %rdx
	movslq	-36(%rbp), %rcx
	movl	%eax, (%rdx,%rcx,4)
	jmp	.LBB12_53
.LBB12_46:                              # %if.else310
                                        #   in Loop: Header=BB12_39 Depth=3
	movslq	-44(%rbp), %rax
	shlq	$6, %rax
	movabsq	$quant_coef, %rcx
	addq	%rax, %rcx
	movslq	-40(%rbp), %rax
	shlq	$4, %rax
	addq	%rax, %rcx
	movslq	-36(%rbp), %rax
	movl	(%rcx,%rax,4), %eax
	shll	$4, %eax
	movswl	UseDefaultScalingMatrix4x4Flag+2, %ecx
	cmpl	$0, %ecx
	je	.LBB12_48
# %bb.47:                               # %cond.true
                                        #   in Loop: Header=BB12_39 Depth=3
	movslq	-48(%rbp), %rcx
	movswl	Quant_intra_default(,%rcx,2), %ecx
	jmp	.LBB12_49
.LBB12_48:                              # %cond.false
                                        #   in Loop: Header=BB12_39 Depth=3
	movslq	-48(%rbp), %rcx
	movswl	ScalingList4x4+32(,%rcx,2), %ecx
.LBB12_49:                              # %cond.end
                                        #   in Loop: Header=BB12_39 Depth=3
	cltd
	idivl	%ecx
	movslq	-44(%rbp), %rcx
	shlq	$6, %rcx
	movabsq	$LevelScale4x4Chroma_Intra, %rdx
	addq	%rcx, %rdx
	movslq	-40(%rbp), %rcx
	shlq	$4, %rcx
	addq	%rcx, %rdx
	movslq	-36(%rbp), %rcx
	movl	%eax, (%rdx,%rcx,4)
	movslq	-44(%rbp), %rax
	shlq	$6, %rax
	movabsq	$dequant_coef, %rcx
	addq	%rax, %rcx
	movslq	-40(%rbp), %rax
	shlq	$4, %rax
	addq	%rax, %rcx
	movslq	-36(%rbp), %rax
	movl	(%rcx,%rax,4), %eax
	movswl	UseDefaultScalingMatrix4x4Flag+2, %ecx
	cmpl	$0, %ecx
	je	.LBB12_51
# %bb.50:                               # %cond.true341
                                        #   in Loop: Header=BB12_39 Depth=3
	movslq	-48(%rbp), %rcx
	movswl	Quant_intra_default(,%rcx,2), %ecx
	jmp	.LBB12_52
.LBB12_51:                              # %cond.false345
                                        #   in Loop: Header=BB12_39 Depth=3
	movslq	-48(%rbp), %rcx
	movswl	ScalingList4x4+32(,%rcx,2), %ecx
.LBB12_52:                              # %cond.end349
                                        #   in Loop: Header=BB12_39 Depth=3
	imull	%ecx, %eax
	movslq	-44(%rbp), %rcx
	shlq	$6, %rcx
	movabsq	$InvLevelScale4x4Chroma_Intra, %rdx
	addq	%rcx, %rdx
	movslq	-40(%rbp), %rcx
	shlq	$4, %rcx
	addq	%rcx, %rdx
	movslq	-36(%rbp), %rcx
	movl	%eax, (%rdx,%rcx,4)
.LBB12_53:                              # %if.end358
                                        #   in Loop: Header=BB12_39 Depth=3
	cmpl	$0, -72(%rbp)
	jne	.LBB12_55
# %bb.54:                               # %if.then361
                                        #   in Loop: Header=BB12_39 Depth=3
	movabsq	$InvLevelScale4x4Chroma_Intra, %rcx
	movq	%rcx, %rax
	addq	$384, %rax              # imm = 0x180
	movabsq	$LevelScale4x4Chroma_Intra, %rdx
	movq	%rdx, %rsi
	addq	$384, %rsi              # imm = 0x180
	movslq	-44(%rbp), %rdi
	shlq	$6, %rdi
	addq	%rdi, %rdx
	movslq	-40(%rbp), %rdi
	shlq	$4, %rdi
	addq	%rdi, %rdx
	movslq	-36(%rbp), %rdi
	movl	(%rdx,%rdi,4), %edx
	movslq	-44(%rbp), %rdi
	shlq	$6, %rdi
	addq	%rdi, %rsi
	movslq	-40(%rbp), %rdi
	shlq	$4, %rdi
	addq	%rdi, %rsi
	movslq	-36(%rbp), %rdi
	movl	%edx, (%rsi,%rdi,4)
	movslq	-44(%rbp), %rdx
	shlq	$6, %rdx
	addq	%rdx, %rcx
	movslq	-40(%rbp), %rdx
	shlq	$4, %rdx
	addq	%rdx, %rcx
	movslq	-36(%rbp), %rdx
	movl	(%rcx,%rdx,4), %ecx
	movslq	-44(%rbp), %rdx
	shlq	$6, %rdx
	addq	%rdx, %rax
	movslq	-40(%rbp), %rdx
	shlq	$4, %rdx
	addq	%rdx, %rax
	movslq	-36(%rbp), %rdx
	movl	%ecx, (%rax,%rdx,4)
	jmp	.LBB12_62
.LBB12_55:                              # %if.else386
                                        #   in Loop: Header=BB12_39 Depth=3
	movslq	-44(%rbp), %rax
	shlq	$6, %rax
	movabsq	$quant_coef, %rcx
	addq	%rax, %rcx
	movslq	-40(%rbp), %rax
	shlq	$4, %rax
	addq	%rax, %rcx
	movslq	-36(%rbp), %rax
	movl	(%rcx,%rax,4), %eax
	shll	$4, %eax
	movswl	UseDefaultScalingMatrix4x4Flag+4, %ecx
	cmpl	$0, %ecx
	je	.LBB12_57
# %bb.56:                               # %cond.true396
                                        #   in Loop: Header=BB12_39 Depth=3
	movslq	-48(%rbp), %rcx
	movswl	Quant_intra_default(,%rcx,2), %ecx
	jmp	.LBB12_58
.LBB12_57:                              # %cond.false400
                                        #   in Loop: Header=BB12_39 Depth=3
	movslq	-48(%rbp), %rcx
	movswl	ScalingList4x4+64(,%rcx,2), %ecx
.LBB12_58:                              # %cond.end404
                                        #   in Loop: Header=BB12_39 Depth=3
	movabsq	$LevelScale4x4Chroma_Intra, %rsi
	addq	$384, %rsi              # imm = 0x180
	cltd
	idivl	%ecx
	movslq	-44(%rbp), %rcx
	shlq	$6, %rcx
	addq	%rcx, %rsi
	movslq	-40(%rbp), %rcx
	shlq	$4, %rcx
	addq	%rcx, %rsi
	movslq	-36(%rbp), %rcx
	movl	%eax, (%rsi,%rcx,4)
	movslq	-44(%rbp), %rax
	shlq	$6, %rax
	movabsq	$dequant_coef, %rcx
	addq	%rax, %rcx
	movslq	-40(%rbp), %rax
	shlq	$4, %rax
	addq	%rax, %rcx
	movslq	-36(%rbp), %rax
	movl	(%rcx,%rax,4), %eax
	movswl	UseDefaultScalingMatrix4x4Flag+4, %ecx
	cmpl	$0, %ecx
	je	.LBB12_60
# %bb.59:                               # %cond.true421
                                        #   in Loop: Header=BB12_39 Depth=3
	movslq	-48(%rbp), %rcx
	movswl	Quant_intra_default(,%rcx,2), %ecx
	jmp	.LBB12_61
.LBB12_60:                              # %cond.false425
                                        #   in Loop: Header=BB12_39 Depth=3
	movslq	-48(%rbp), %rcx
	movswl	ScalingList4x4+64(,%rcx,2), %ecx
.LBB12_61:                              # %cond.end429
                                        #   in Loop: Header=BB12_39 Depth=3
	movabsq	$InvLevelScale4x4Chroma_Intra, %rdx
	addq	$384, %rdx              # imm = 0x180
	imull	%ecx, %eax
	movslq	-44(%rbp), %rcx
	shlq	$6, %rcx
	addq	%rcx, %rdx
	movslq	-40(%rbp), %rcx
	shlq	$4, %rcx
	addq	%rcx, %rdx
	movslq	-36(%rbp), %rcx
	movl	%eax, (%rdx,%rcx,4)
.LBB12_62:                              # %if.end438
                                        #   in Loop: Header=BB12_39 Depth=3
	cmpl	$0, -68(%rbp)
	je	.LBB12_64
# %bb.63:                               # %lor.lhs.false441
                                        #   in Loop: Header=BB12_39 Depth=3
	movswl	UseDefaultScalingMatrix4x4Flag+6, %eax
	cmpl	$0, %eax
	je	.LBB12_65
.LBB12_64:                              # %if.then444
                                        #   in Loop: Header=BB12_39 Depth=3
	movslq	-44(%rbp), %rax
	shlq	$6, %rax
	movabsq	$quant_coef, %rcx
	addq	%rax, %rcx
	movslq	-40(%rbp), %rax
	shlq	$4, %rax
	addq	%rax, %rcx
	movslq	-36(%rbp), %rax
	movl	(%rcx,%rax,4), %eax
	shll	$4, %eax
	movslq	-48(%rbp), %rcx
	movswl	Quant_inter_default(,%rcx,2), %ecx
	cltd
	idivl	%ecx
	movslq	-44(%rbp), %rcx
	shlq	$6, %rcx
	movabsq	$LevelScale4x4Luma_Inter, %rdx
	addq	%rcx, %rdx
	movslq	-40(%rbp), %rcx
	shlq	$4, %rcx
	addq	%rcx, %rdx
	movslq	-36(%rbp), %rcx
	movl	%eax, (%rdx,%rcx,4)
	movslq	-44(%rbp), %rax
	shlq	$6, %rax
	movabsq	$dequant_coef, %rcx
	addq	%rax, %rcx
	movslq	-40(%rbp), %rax
	shlq	$4, %rax
	addq	%rax, %rcx
	movslq	-36(%rbp), %rax
	movl	(%rcx,%rax,4), %eax
	movslq	-48(%rbp), %rcx
	movswl	Quant_inter_default(,%rcx,2), %ecx
	imull	%ecx, %eax
	movslq	-44(%rbp), %rcx
	shlq	$6, %rcx
	movabsq	$InvLevelScale4x4Luma_Inter, %rdx
	addq	%rcx, %rdx
	movslq	-40(%rbp), %rcx
	shlq	$4, %rcx
	addq	%rcx, %rdx
	movslq	-36(%rbp), %rcx
	movl	%eax, (%rdx,%rcx,4)
	jmp	.LBB12_66
.LBB12_65:                              # %if.else478
                                        #   in Loop: Header=BB12_39 Depth=3
	movslq	-44(%rbp), %rax
	shlq	$6, %rax
	movabsq	$quant_coef, %rcx
	addq	%rax, %rcx
	movslq	-40(%rbp), %rax
	shlq	$4, %rax
	addq	%rax, %rcx
	movslq	-36(%rbp), %rax
	movl	(%rcx,%rax,4), %eax
	shll	$4, %eax
	movslq	-48(%rbp), %rcx
	movswl	ScalingList4x4+96(,%rcx,2), %ecx
	cltd
	idivl	%ecx
	movslq	-44(%rbp), %rcx
	shlq	$6, %rcx
	movabsq	$LevelScale4x4Luma_Inter, %rdx
	addq	%rcx, %rdx
	movslq	-40(%rbp), %rcx
	shlq	$4, %rcx
	addq	%rcx, %rdx
	movslq	-36(%rbp), %rcx
	movl	%eax, (%rdx,%rcx,4)
	movslq	-44(%rbp), %rax
	shlq	$6, %rax
	movabsq	$dequant_coef, %rcx
	addq	%rax, %rcx
	movslq	-40(%rbp), %rax
	shlq	$4, %rax
	addq	%rax, %rcx
	movslq	-36(%rbp), %rax
	movl	(%rcx,%rax,4), %eax
	movslq	-48(%rbp), %rcx
	movswl	ScalingList4x4+96(,%rcx,2), %ecx
	imull	%ecx, %eax
	movslq	-44(%rbp), %rcx
	shlq	$6, %rcx
	movabsq	$InvLevelScale4x4Luma_Inter, %rdx
	addq	%rcx, %rdx
	movslq	-40(%rbp), %rcx
	shlq	$4, %rcx
	addq	%rcx, %rdx
	movslq	-36(%rbp), %rcx
	movl	%eax, (%rdx,%rcx,4)
.LBB12_66:                              # %if.end512
                                        #   in Loop: Header=BB12_39 Depth=3
	cmpl	$0, -64(%rbp)
	jne	.LBB12_68
# %bb.67:                               # %if.then515
                                        #   in Loop: Header=BB12_39 Depth=3
	movslq	-44(%rbp), %rax
	shlq	$6, %rax
	movabsq	$LevelScale4x4Luma_Inter, %rcx
	addq	%rax, %rcx
	movslq	-40(%rbp), %rax
	shlq	$4, %rax
	addq	%rax, %rcx
	movslq	-36(%rbp), %rax
	movl	(%rcx,%rax,4), %eax
	movslq	-44(%rbp), %rcx
	shlq	$6, %rcx
	movabsq	$LevelScale4x4Chroma_Inter, %rdx
	addq	%rcx, %rdx
	movslq	-40(%rbp), %rcx
	shlq	$4, %rcx
	addq	%rcx, %rdx
	movslq	-36(%rbp), %rcx
	movl	%eax, (%rdx,%rcx,4)
	movslq	-44(%rbp), %rax
	shlq	$6, %rax
	movabsq	$InvLevelScale4x4Luma_Inter, %rcx
	addq	%rax, %rcx
	movslq	-40(%rbp), %rax
	shlq	$4, %rax
	addq	%rax, %rcx
	movslq	-36(%rbp), %rax
	movl	(%rcx,%rax,4), %eax
	movslq	-44(%rbp), %rcx
	shlq	$6, %rcx
	movabsq	$InvLevelScale4x4Chroma_Inter, %rdx
	addq	%rcx, %rdx
	movslq	-40(%rbp), %rcx
	shlq	$4, %rcx
	addq	%rcx, %rdx
	movslq	-36(%rbp), %rcx
	movl	%eax, (%rdx,%rcx,4)
	jmp	.LBB12_75
.LBB12_68:                              # %if.else540
                                        #   in Loop: Header=BB12_39 Depth=3
	movslq	-44(%rbp), %rax
	shlq	$6, %rax
	movabsq	$quant_coef, %rcx
	addq	%rax, %rcx
	movslq	-40(%rbp), %rax
	shlq	$4, %rax
	addq	%rax, %rcx
	movslq	-36(%rbp), %rax
	movl	(%rcx,%rax,4), %eax
	shll	$4, %eax
	movswl	UseDefaultScalingMatrix4x4Flag+8, %ecx
	cmpl	$0, %ecx
	je	.LBB12_70
# %bb.69:                               # %cond.true550
                                        #   in Loop: Header=BB12_39 Depth=3
	movslq	-48(%rbp), %rcx
	movswl	Quant_inter_default(,%rcx,2), %ecx
	jmp	.LBB12_71
.LBB12_70:                              # %cond.false554
                                        #   in Loop: Header=BB12_39 Depth=3
	movslq	-48(%rbp), %rcx
	movswl	ScalingList4x4+128(,%rcx,2), %ecx
.LBB12_71:                              # %cond.end558
                                        #   in Loop: Header=BB12_39 Depth=3
	cltd
	idivl	%ecx
	movslq	-44(%rbp), %rcx
	shlq	$6, %rcx
	movabsq	$LevelScale4x4Chroma_Inter, %rdx
	addq	%rcx, %rdx
	movslq	-40(%rbp), %rcx
	shlq	$4, %rcx
	addq	%rcx, %rdx
	movslq	-36(%rbp), %rcx
	movl	%eax, (%rdx,%rcx,4)
	movslq	-44(%rbp), %rax
	shlq	$6, %rax
	movabsq	$dequant_coef, %rcx
	addq	%rax, %rcx
	movslq	-40(%rbp), %rax
	shlq	$4, %rax
	addq	%rax, %rcx
	movslq	-36(%rbp), %rax
	movl	(%rcx,%rax,4), %eax
	movswl	UseDefaultScalingMatrix4x4Flag+8, %ecx
	cmpl	$0, %ecx
	je	.LBB12_73
# %bb.72:                               # %cond.true575
                                        #   in Loop: Header=BB12_39 Depth=3
	movslq	-48(%rbp), %rcx
	movswl	Quant_inter_default(,%rcx,2), %ecx
	jmp	.LBB12_74
.LBB12_73:                              # %cond.false579
                                        #   in Loop: Header=BB12_39 Depth=3
	movslq	-48(%rbp), %rcx
	movswl	ScalingList4x4+128(,%rcx,2), %ecx
.LBB12_74:                              # %cond.end583
                                        #   in Loop: Header=BB12_39 Depth=3
	imull	%ecx, %eax
	movslq	-44(%rbp), %rcx
	shlq	$6, %rcx
	movabsq	$InvLevelScale4x4Chroma_Inter, %rdx
	addq	%rcx, %rdx
	movslq	-40(%rbp), %rcx
	shlq	$4, %rcx
	addq	%rcx, %rdx
	movslq	-36(%rbp), %rcx
	movl	%eax, (%rdx,%rcx,4)
.LBB12_75:                              # %if.end592
                                        #   in Loop: Header=BB12_39 Depth=3
	cmpl	$0, -60(%rbp)
	jne	.LBB12_77
# %bb.76:                               # %if.then595
                                        #   in Loop: Header=BB12_39 Depth=3
	movabsq	$InvLevelScale4x4Chroma_Inter, %rcx
	movq	%rcx, %rax
	addq	$384, %rax              # imm = 0x180
	movabsq	$LevelScale4x4Chroma_Inter, %rdx
	movq	%rdx, %rsi
	addq	$384, %rsi              # imm = 0x180
	movslq	-44(%rbp), %rdi
	shlq	$6, %rdi
	addq	%rdi, %rdx
	movslq	-40(%rbp), %rdi
	shlq	$4, %rdi
	addq	%rdi, %rdx
	movslq	-36(%rbp), %rdi
	movl	(%rdx,%rdi,4), %edx
	movslq	-44(%rbp), %rdi
	shlq	$6, %rdi
	addq	%rdi, %rsi
	movslq	-40(%rbp), %rdi
	shlq	$4, %rdi
	addq	%rdi, %rsi
	movslq	-36(%rbp), %rdi
	movl	%edx, (%rsi,%rdi,4)
	movslq	-44(%rbp), %rdx
	shlq	$6, %rdx
	addq	%rdx, %rcx
	movslq	-40(%rbp), %rdx
	shlq	$4, %rdx
	addq	%rdx, %rcx
	movslq	-36(%rbp), %rdx
	movl	(%rcx,%rdx,4), %ecx
	movslq	-44(%rbp), %rdx
	shlq	$6, %rdx
	addq	%rdx, %rax
	movslq	-40(%rbp), %rdx
	shlq	$4, %rdx
	addq	%rdx, %rax
	movslq	-36(%rbp), %rdx
	movl	%ecx, (%rax,%rdx,4)
	jmp	.LBB12_84
.LBB12_77:                              # %if.else620
                                        #   in Loop: Header=BB12_39 Depth=3
	movslq	-44(%rbp), %rax
	shlq	$6, %rax
	movabsq	$quant_coef, %rcx
	addq	%rax, %rcx
	movslq	-40(%rbp), %rax
	shlq	$4, %rax
	addq	%rax, %rcx
	movslq	-36(%rbp), %rax
	movl	(%rcx,%rax,4), %eax
	shll	$4, %eax
	movswl	UseDefaultScalingMatrix4x4Flag+10, %ecx
	cmpl	$0, %ecx
	je	.LBB12_79
# %bb.78:                               # %cond.true630
                                        #   in Loop: Header=BB12_39 Depth=3
	movslq	-48(%rbp), %rcx
	movswl	Quant_inter_default(,%rcx,2), %ecx
	jmp	.LBB12_80
.LBB12_79:                              # %cond.false634
                                        #   in Loop: Header=BB12_39 Depth=3
	movslq	-48(%rbp), %rcx
	movswl	ScalingList4x4+160(,%rcx,2), %ecx
.LBB12_80:                              # %cond.end638
                                        #   in Loop: Header=BB12_39 Depth=3
	movabsq	$LevelScale4x4Chroma_Inter, %rsi
	addq	$384, %rsi              # imm = 0x180
	cltd
	idivl	%ecx
	movslq	-44(%rbp), %rcx
	shlq	$6, %rcx
	addq	%rcx, %rsi
	movslq	-40(%rbp), %rcx
	shlq	$4, %rcx
	addq	%rcx, %rsi
	movslq	-36(%rbp), %rcx
	movl	%eax, (%rsi,%rcx,4)
	movslq	-44(%rbp), %rax
	shlq	$6, %rax
	movabsq	$dequant_coef, %rcx
	addq	%rax, %rcx
	movslq	-40(%rbp), %rax
	shlq	$4, %rax
	addq	%rax, %rcx
	movslq	-36(%rbp), %rax
	movl	(%rcx,%rax,4), %eax
	movswl	UseDefaultScalingMatrix4x4Flag+10, %ecx
	cmpl	$0, %ecx
	je	.LBB12_82
# %bb.81:                               # %cond.true655
                                        #   in Loop: Header=BB12_39 Depth=3
	movslq	-48(%rbp), %rcx
	movswl	Quant_inter_default(,%rcx,2), %ecx
	jmp	.LBB12_83
.LBB12_82:                              # %cond.false659
                                        #   in Loop: Header=BB12_39 Depth=3
	movslq	-48(%rbp), %rcx
	movswl	ScalingList4x4+160(,%rcx,2), %ecx
.LBB12_83:                              # %cond.end663
                                        #   in Loop: Header=BB12_39 Depth=3
	movabsq	$InvLevelScale4x4Chroma_Inter, %rdx
	addq	$384, %rdx              # imm = 0x180
	imull	%ecx, %eax
	movslq	-44(%rbp), %rcx
	shlq	$6, %rcx
	addq	%rcx, %rdx
	movslq	-40(%rbp), %rcx
	shlq	$4, %rcx
	addq	%rcx, %rdx
	movslq	-36(%rbp), %rcx
	movl	%eax, (%rdx,%rcx,4)
.LBB12_84:                              # %if.end672
                                        #   in Loop: Header=BB12_39 Depth=3
	jmp	.LBB12_85
.LBB12_85:                              # %for.inc673
                                        #   in Loop: Header=BB12_39 Depth=3
	movl	-36(%rbp), %eax
	addl	$1, %eax
	movl	%eax, -36(%rbp)
	jmp	.LBB12_39
.LBB12_86:                              # %for.end675
                                        #   in Loop: Header=BB12_37 Depth=2
	jmp	.LBB12_87
.LBB12_87:                              # %for.inc676
                                        #   in Loop: Header=BB12_37 Depth=2
	movl	-40(%rbp), %eax
	addl	$1, %eax
	movl	%eax, -40(%rbp)
	jmp	.LBB12_37
.LBB12_88:                              # %for.end678
                                        #   in Loop: Header=BB12_35 Depth=1
	jmp	.LBB12_89
.LBB12_89:                              # %for.inc679
                                        #   in Loop: Header=BB12_35 Depth=1
	movl	-44(%rbp), %eax
	addl	$1, %eax
	movl	%eax, -44(%rbp)
	jmp	.LBB12_35
.LBB12_90:                              # %for.end681
	jmp	.LBB12_91
.LBB12_91:                              # %if.end682
	cmpl	$287738769, -56(%rbp)   # imm = 0x11268B91
	jne	.LBB12_93
.LBB12_92:
	addq	$48, %rsp
	popq	%rbx
	popq	%r12
	popq	%r14
	popq	%r15
	popq	%rbp
	.cfi_def_cfa %rsp, 8
	retq
.LBB12_93:                              # %func_exit
	.cfi_def_cfa %rbp, 16
	callq	detect_breach
	jmp	.LBB12_92
.Lfunc_end12:
	.size	CalculateQuantParam.7, .Lfunc_end12-CalculateQuantParam.7
	.cfi_endproc
                                        # -- End function
	.globl	CheckParameterName.8    # -- Begin function CheckParameterName.8
	.p2align	4, 0x90
	.type	CheckParameterName.8,@function
CheckParameterName.8:                   # @CheckParameterName.8
	.cfi_startproc
# %bb.0:                                # %entry
	pushq	%rbp
	.cfi_def_cfa_offset 16
	.cfi_offset %rbp, -16
	movq	%rsp, %rbp
	.cfi_def_cfa_register %rbp
	pushq	%rbx
	subq	$40, %rsp
	.cfi_offset %rbx, -24
	movl	$1393349820, -20(%rbp)  # imm = 0x530CD4BC
	movq	%rdi, -32(%rbp)
	movq	%rsi, -40(%rbp)
	movl	$0, -12(%rbp)
	movq	-40(%rbp), %rax
	movl	$0, (%rax)
.LBB13_1:                               # %while.cond
                                        # =>This Inner Loop Header: Depth=1
	xorl	%eax, %eax
	movslq	-12(%rbp), %rcx
	imulq	$20, %rcx, %rcx
	movabsq	$MatrixType4x4, %rdx
	addq	%rcx, %rdx
	cmpq	$0, %rdx
	je	.LBB13_3
# %bb.2:                                # %land.rhs
                                        #   in Loop: Header=BB13_1 Depth=1
	cmpl	$6, -12(%rbp)
	setl	%al
.LBB13_3:                               # %land.end
                                        #   in Loop: Header=BB13_1 Depth=1
	testb	$1, %al
	jne	.LBB13_4
	jmp	.LBB13_8
.LBB13_4:                               # %while.body
                                        #   in Loop: Header=BB13_1 Depth=1
	xorl	%ebx, %ebx
	movslq	-12(%rbp), %rax
	imulq	$20, %rax, %rax
	movabsq	$MatrixType4x4, %rdi
	addq	%rax, %rdi
	movq	-32(%rbp), %rsi
	callq	strcmp
	cmpl	%eax, %ebx
	jne	.LBB13_6
# %bb.5:                                # %if.then
	movl	-12(%rbp), %eax
	movl	%eax, -16(%rbp)
	jmp	.LBB13_17
.LBB13_6:                               # %if.else
                                        #   in Loop: Header=BB13_1 Depth=1
	movl	-12(%rbp), %eax
	addl	$1, %eax
	movl	%eax, -12(%rbp)
# %bb.7:                                # %if.end
                                        #   in Loop: Header=BB13_1 Depth=1
	jmp	.LBB13_1
.LBB13_8:                               # %while.end
	movl	$0, -12(%rbp)
	movq	-40(%rbp), %rax
	movl	$1, (%rax)
.LBB13_9:                               # %while.cond6
                                        # =>This Inner Loop Header: Depth=1
	xorl	%eax, %eax
	movslq	-12(%rbp), %rcx
	imulq	$20, %rcx, %rcx
	movabsq	$MatrixType8x8, %rdx
	addq	%rcx, %rdx
	cmpq	$0, %rdx
	je	.LBB13_11
# %bb.10:                               # %land.rhs11
                                        #   in Loop: Header=BB13_9 Depth=1
	cmpl	$2, -12(%rbp)
	setl	%al
.LBB13_11:                              # %land.end13
                                        #   in Loop: Header=BB13_9 Depth=1
	testb	$1, %al
	jne	.LBB13_12
	jmp	.LBB13_16
.LBB13_12:                              # %while.body14
                                        #   in Loop: Header=BB13_9 Depth=1
	xorl	%ebx, %ebx
	movslq	-12(%rbp), %rax
	imulq	$20, %rax, %rax
	movabsq	$MatrixType8x8, %rdi
	addq	%rax, %rdi
	movq	-32(%rbp), %rsi
	callq	strcmp
	cmpl	%eax, %ebx
	jne	.LBB13_14
# %bb.13:                               # %if.then20
	movl	-12(%rbp), %eax
	movl	%eax, -16(%rbp)
	jmp	.LBB13_17
.LBB13_14:                              # %if.else21
                                        #   in Loop: Header=BB13_9 Depth=1
	movl	-12(%rbp), %eax
	addl	$1, %eax
	movl	%eax, -12(%rbp)
# %bb.15:                               # %if.end23
                                        #   in Loop: Header=BB13_9 Depth=1
	jmp	.LBB13_9
.LBB13_16:                              # %while.end24
	movl	$-1, -16(%rbp)
.LBB13_17:                              # %return
	movl	-16(%rbp), %ebx
	cmpl	$1393349820, -20(%rbp)  # imm = 0x530CD4BC
	jne	.LBB13_19
.LBB13_18:
	movl	%ebx, %eax
	addq	$40, %rsp
	popq	%rbx
	popq	%rbp
	.cfi_def_cfa %rsp, 8
	retq
.LBB13_19:                              # %func_exit
	.cfi_def_cfa %rbp, 16
	callq	detect_breach
	jmp	.LBB13_18
.Lfunc_end13:
	.size	CheckParameterName.8, .Lfunc_end13-CheckParameterName.8
	.cfi_endproc
                                        # -- End function
	.globl	CheckParameterName.9    # -- Begin function CheckParameterName.9
	.p2align	4, 0x90
	.type	CheckParameterName.9,@function
CheckParameterName.9:                   # @CheckParameterName.9
	.cfi_startproc
# %bb.0:                                # %entry
	pushq	%rbp
	.cfi_def_cfa_offset 16
	.cfi_offset %rbp, -16
	movq	%rsp, %rbp
	.cfi_def_cfa_register %rbp
	pushq	%rbx
	subq	$40, %rsp
	.cfi_offset %rbx, -24
	movl	$1347610146, -20(%rbp)  # imm = 0x5052E622
	movq	%rdi, -40(%rbp)
	movq	%rsi, -32(%rbp)
	movl	$0, -12(%rbp)
	movq	-32(%rbp), %rax
	movl	$0, (%rax)
.LBB14_1:                               # %while.cond
                                        # =>This Inner Loop Header: Depth=1
	xorl	%eax, %eax
	movslq	-12(%rbp), %rcx
	imulq	$20, %rcx, %rcx
	movabsq	$MatrixType4x4, %rdx
	addq	%rcx, %rdx
	cmpq	$0, %rdx
	je	.LBB14_3
# %bb.2:                                # %land.rhs
                                        #   in Loop: Header=BB14_1 Depth=1
	cmpl	$6, -12(%rbp)
	setl	%al
.LBB14_3:                               # %land.end
                                        #   in Loop: Header=BB14_1 Depth=1
	testb	$1, %al
	jne	.LBB14_4
	jmp	.LBB14_8
.LBB14_4:                               # %while.body
                                        #   in Loop: Header=BB14_1 Depth=1
	xorl	%ebx, %ebx
	movslq	-12(%rbp), %rax
	imulq	$20, %rax, %rax
	movabsq	$MatrixType4x4, %rdi
	addq	%rax, %rdi
	movq	-40(%rbp), %rsi
	callq	strcmp
	cmpl	%eax, %ebx
	jne	.LBB14_6
# %bb.5:                                # %if.then
	movl	-12(%rbp), %eax
	movl	%eax, -16(%rbp)
	jmp	.LBB14_17
.LBB14_6:                               # %if.else
                                        #   in Loop: Header=BB14_1 Depth=1
	movl	-12(%rbp), %eax
	addl	$1, %eax
	movl	%eax, -12(%rbp)
# %bb.7:                                # %if.end
                                        #   in Loop: Header=BB14_1 Depth=1
	jmp	.LBB14_1
.LBB14_8:                               # %while.end
	movl	$0, -12(%rbp)
	movq	-32(%rbp), %rax
	movl	$1, (%rax)
.LBB14_9:                               # %while.cond6
                                        # =>This Inner Loop Header: Depth=1
	xorl	%eax, %eax
	movslq	-12(%rbp), %rcx
	imulq	$20, %rcx, %rcx
	movabsq	$MatrixType8x8, %rdx
	addq	%rcx, %rdx
	cmpq	$0, %rdx
	je	.LBB14_11
# %bb.10:                               # %land.rhs11
                                        #   in Loop: Header=BB14_9 Depth=1
	cmpl	$2, -12(%rbp)
	setl	%al
.LBB14_11:                              # %land.end13
                                        #   in Loop: Header=BB14_9 Depth=1
	testb	$1, %al
	jne	.LBB14_12
	jmp	.LBB14_16
.LBB14_12:                              # %while.body14
                                        #   in Loop: Header=BB14_9 Depth=1
	xorl	%ebx, %ebx
	movslq	-12(%rbp), %rax
	imulq	$20, %rax, %rax
	movabsq	$MatrixType8x8, %rdi
	addq	%rax, %rdi
	movq	-40(%rbp), %rsi
	callq	strcmp
	cmpl	%eax, %ebx
	jne	.LBB14_14
# %bb.13:                               # %if.then20
	movl	-12(%rbp), %eax
	movl	%eax, -16(%rbp)
	jmp	.LBB14_17
.LBB14_14:                              # %if.else21
                                        #   in Loop: Header=BB14_9 Depth=1
	movl	-12(%rbp), %eax
	addl	$1, %eax
	movl	%eax, -12(%rbp)
# %bb.15:                               # %if.end23
                                        #   in Loop: Header=BB14_9 Depth=1
	jmp	.LBB14_9
.LBB14_16:                              # %while.end24
	movl	$-1, -16(%rbp)
.LBB14_17:                              # %return
	movl	-16(%rbp), %ebx
	cmpl	$1347610146, -20(%rbp)  # imm = 0x5052E622
	jne	.LBB14_19
.LBB14_18:
	movl	%ebx, %eax
	addq	$40, %rsp
	popq	%rbx
	popq	%rbp
	.cfi_def_cfa %rsp, 8
	retq
.LBB14_19:                              # %func_exit
	.cfi_def_cfa %rbp, 16
	callq	detect_breach
	jmp	.LBB14_18
.Lfunc_end14:
	.size	CheckParameterName.9, .Lfunc_end14-CheckParameterName.9
	.cfi_endproc
                                        # -- End function
	.globl	CheckParameterName.10   # -- Begin function CheckParameterName.10
	.p2align	4, 0x90
	.type	CheckParameterName.10,@function
CheckParameterName.10:                  # @CheckParameterName.10
	.cfi_startproc
# %bb.0:                                # %entry
	pushq	%rbp
	.cfi_def_cfa_offset 16
	.cfi_offset %rbp, -16
	movq	%rsp, %rbp
	.cfi_def_cfa_register %rbp
	pushq	%rbx
	subq	$40, %rsp
	.cfi_offset %rbx, -24
	movl	$1048300332, -20(%rbp)  # imm = 0x3E7BCB2C
	movq	%rdi, -32(%rbp)
	movq	%rsi, -40(%rbp)
	movl	$0, -12(%rbp)
	movq	-40(%rbp), %rax
	movl	$0, (%rax)
.LBB15_1:                               # %while.cond
                                        # =>This Inner Loop Header: Depth=1
	xorl	%eax, %eax
	movslq	-12(%rbp), %rcx
	imulq	$20, %rcx, %rcx
	movabsq	$MatrixType4x4, %rdx
	addq	%rcx, %rdx
	cmpq	$0, %rdx
	je	.LBB15_3
# %bb.2:                                # %land.rhs
                                        #   in Loop: Header=BB15_1 Depth=1
	cmpl	$6, -12(%rbp)
	setl	%al
.LBB15_3:                               # %land.end
                                        #   in Loop: Header=BB15_1 Depth=1
	testb	$1, %al
	jne	.LBB15_4
	jmp	.LBB15_8
.LBB15_4:                               # %while.body
                                        #   in Loop: Header=BB15_1 Depth=1
	xorl	%ebx, %ebx
	movslq	-12(%rbp), %rax
	imulq	$20, %rax, %rax
	movabsq	$MatrixType4x4, %rdi
	addq	%rax, %rdi
	movq	-32(%rbp), %rsi
	callq	strcmp
	cmpl	%eax, %ebx
	jne	.LBB15_6
# %bb.5:                                # %if.then
	movl	-12(%rbp), %eax
	movl	%eax, -16(%rbp)
	jmp	.LBB15_17
.LBB15_6:                               # %if.else
                                        #   in Loop: Header=BB15_1 Depth=1
	movl	-12(%rbp), %eax
	addl	$1, %eax
	movl	%eax, -12(%rbp)
# %bb.7:                                # %if.end
                                        #   in Loop: Header=BB15_1 Depth=1
	jmp	.LBB15_1
.LBB15_8:                               # %while.end
	movl	$0, -12(%rbp)
	movq	-40(%rbp), %rax
	movl	$1, (%rax)
.LBB15_9:                               # %while.cond6
                                        # =>This Inner Loop Header: Depth=1
	xorl	%eax, %eax
	movslq	-12(%rbp), %rcx
	imulq	$20, %rcx, %rcx
	movabsq	$MatrixType8x8, %rdx
	addq	%rcx, %rdx
	cmpq	$0, %rdx
	je	.LBB15_11
# %bb.10:                               # %land.rhs11
                                        #   in Loop: Header=BB15_9 Depth=1
	cmpl	$2, -12(%rbp)
	setl	%al
.LBB15_11:                              # %land.end13
                                        #   in Loop: Header=BB15_9 Depth=1
	testb	$1, %al
	jne	.LBB15_12
	jmp	.LBB15_16
.LBB15_12:                              # %while.body14
                                        #   in Loop: Header=BB15_9 Depth=1
	xorl	%ebx, %ebx
	movslq	-12(%rbp), %rax
	imulq	$20, %rax, %rax
	movabsq	$MatrixType8x8, %rdi
	addq	%rax, %rdi
	movq	-32(%rbp), %rsi
	callq	strcmp
	cmpl	%eax, %ebx
	jne	.LBB15_14
# %bb.13:                               # %if.then20
	movl	-12(%rbp), %eax
	movl	%eax, -16(%rbp)
	jmp	.LBB15_17
.LBB15_14:                              # %if.else21
                                        #   in Loop: Header=BB15_9 Depth=1
	movl	-12(%rbp), %eax
	addl	$1, %eax
	movl	%eax, -12(%rbp)
# %bb.15:                               # %if.end23
                                        #   in Loop: Header=BB15_9 Depth=1
	jmp	.LBB15_9
.LBB15_16:                              # %while.end24
	movl	$-1, -16(%rbp)
.LBB15_17:                              # %return
	movl	-16(%rbp), %ebx
	cmpl	$1048300332, -20(%rbp)  # imm = 0x3E7BCB2C
	jne	.LBB15_19
.LBB15_18:
	movl	%ebx, %eax
	addq	$40, %rsp
	popq	%rbx
	popq	%rbp
	.cfi_def_cfa %rsp, 8
	retq
.LBB15_19:                              # %func_exit
	.cfi_def_cfa %rbp, 16
	callq	detect_breach
	jmp	.LBB15_18
.Lfunc_end15:
	.size	CheckParameterName.10, .Lfunc_end15-CheckParameterName.10
	.cfi_endproc
                                        # -- End function
	.globl	PatchMatrix.11          # -- Begin function PatchMatrix.11
	.p2align	4, 0x90
	.type	PatchMatrix.11,@function
PatchMatrix.11:                         # @PatchMatrix.11
	.cfi_startproc
# %bb.0:                                # %entry
	pushq	%rbp
	.cfi_def_cfa_offset 16
	.cfi_offset %rbp, -16
	movq	%rsp, %rbp
	.cfi_def_cfa_register %rbp
	subq	$32, %rsp
	movl	$1920542920, -24(%rbp)  # imm = 0x727928C8
	movl	$0, -4(%rbp)
.LBB16_1:                               # %for.cond
                                        # =>This Loop Header: Depth=1
                                        #     Child Loop BB16_5 Depth 2
                                        #     Child Loop BB16_27 Depth 2
	cmpl	$6, -4(%rbp)
	jge	.LBB16_47
# %bb.2:                                # %for.body
                                        #   in Loop: Header=BB16_1 Depth=1
	movq	input, %rax
	movslq	-4(%rbp), %rcx
	cmpl	$0, 3260(%rax,%rcx,4)
	je	.LBB16_23
# %bb.3:                                # %if.then
                                        #   in Loop: Header=BB16_1 Depth=1
	movslq	-4(%rbp), %rax
	shlq	$5, %rax
	movabsq	$ScalingList4x4input, %rcx
	addq	%rax, %rcx
	movq	%rcx, -16(%rbp)
	movslq	-4(%rbp), %rax
	cmpl	$0, matrix4x4_check(,%rax,4)
	je	.LBB16_18
# %bb.4:                                # %if.then6
                                        #   in Loop: Header=BB16_1 Depth=1
	movl	$0, -20(%rbp)
	movl	$0, -8(%rbp)
.LBB16_5:                               # %for.cond7
                                        #   Parent Loop BB16_1 Depth=1
                                        # =>  This Inner Loop Header: Depth=2
	cmpl	$16, -8(%rbp)
	jge	.LBB16_11
# %bb.6:                                # %for.body9
                                        #   in Loop: Header=BB16_5 Depth=2
	movq	-16(%rbp), %rax
	movslq	-8(%rbp), %rcx
	movswl	(%rax,%rcx,2), %eax
	cmpl	$0, %eax
	jl	.LBB16_8
# %bb.7:                                # %lor.lhs.false
                                        #   in Loop: Header=BB16_5 Depth=2
	movq	-16(%rbp), %rax
	movslq	-8(%rbp), %rcx
	movswl	(%rax,%rcx,2), %eax
	cmpl	$255, %eax
	jle	.LBB16_9
.LBB16_8:                               # %if.then19
                                        #   in Loop: Header=BB16_1 Depth=1
	movl	$1, -20(%rbp)
	jmp	.LBB16_12
.LBB16_9:                               # %if.end
                                        #   in Loop: Header=BB16_5 Depth=2
	jmp	.LBB16_10
.LBB16_10:                              # %for.inc
                                        #   in Loop: Header=BB16_5 Depth=2
	movl	-8(%rbp), %eax
	addl	$1, %eax
	movl	%eax, -8(%rbp)
	jmp	.LBB16_5
.LBB16_11:                              # %for.end.loopexit
                                        #   in Loop: Header=BB16_1 Depth=1
	jmp	.LBB16_12
.LBB16_12:                              # %for.end
                                        #   in Loop: Header=BB16_1 Depth=1
	cmpl	$0, -20(%rbp)
	je	.LBB16_17
# %bb.13:                               # %if.then21
                                        #   in Loop: Header=BB16_1 Depth=1
	movslq	-4(%rbp), %rax
	imulq	$20, %rax, %rax
	movabsq	$MatrixType4x4, %rsi
	addq	%rax, %rsi
	movabsq	$.L.str.6, %rdi
	movb	$0, %al
	callq	printf
	movabsq	$.L.str.7, %rdi
	movb	$0, %al
	callq	printf
	cmpl	$2, -4(%rbp)
	jle	.LBB16_15
# %bb.14:                               # %if.then28
                                        #   in Loop: Header=BB16_1 Depth=1
	movq	-16(%rbp), %rax
	movq	Quant_inter_default, %rcx
	movq	%rcx, (%rax)
	movq	Quant_inter_default+8, %rcx
	movq	%rcx, 8(%rax)
	movq	Quant_inter_default+16, %rcx
	movq	%rcx, 16(%rax)
	movq	Quant_inter_default+24, %rcx
	movq	%rcx, 24(%rax)
	jmp	.LBB16_16
.LBB16_15:                              # %if.else
                                        #   in Loop: Header=BB16_1 Depth=1
	movq	-16(%rbp), %rax
	movq	Quant_intra_default, %rcx
	movq	%rcx, (%rax)
	movq	Quant_intra_default+8, %rcx
	movq	%rcx, 8(%rax)
	movq	Quant_intra_default+16, %rcx
	movq	%rcx, 16(%rax)
	movq	Quant_intra_default+24, %rcx
	movq	%rcx, 24(%rax)
.LBB16_16:                              # %if.end29
                                        #   in Loop: Header=BB16_1 Depth=1
	jmp	.LBB16_17
.LBB16_17:                              # %if.end30
                                        #   in Loop: Header=BB16_1 Depth=1
	jmp	.LBB16_22
.LBB16_18:                              # %if.else31
                                        #   in Loop: Header=BB16_1 Depth=1
	movslq	-4(%rbp), %rax
	imulq	$20, %rax, %rax
	movabsq	$MatrixType4x4, %rsi
	addq	%rax, %rsi
	movabsq	$.L.str.8, %rdi
	movb	$0, %al
	callq	printf
	cmpl	$2, -4(%rbp)
	jle	.LBB16_20
# %bb.19:                               # %if.then38
                                        #   in Loop: Header=BB16_1 Depth=1
	movq	-16(%rbp), %rax
	movq	Quant_inter_default, %rcx
	movq	%rcx, (%rax)
	movq	Quant_inter_default+8, %rcx
	movq	%rcx, 8(%rax)
	movq	Quant_inter_default+16, %rcx
	movq	%rcx, 16(%rax)
	movq	Quant_inter_default+24, %rcx
	movq	%rcx, 24(%rax)
	jmp	.LBB16_21
.LBB16_20:                              # %if.else39
                                        #   in Loop: Header=BB16_1 Depth=1
	movq	-16(%rbp), %rax
	movq	Quant_intra_default, %rcx
	movq	%rcx, (%rax)
	movq	Quant_intra_default+8, %rcx
	movq	%rcx, 8(%rax)
	movq	Quant_intra_default+16, %rcx
	movq	%rcx, 16(%rax)
	movq	Quant_intra_default+24, %rcx
	movq	%rcx, 24(%rax)
.LBB16_21:                              # %if.end40
                                        #   in Loop: Header=BB16_1 Depth=1
	jmp	.LBB16_22
.LBB16_22:                              # %if.end41
                                        #   in Loop: Header=BB16_1 Depth=1
	jmp	.LBB16_23
.LBB16_23:                              # %if.end42
                                        #   in Loop: Header=BB16_1 Depth=1
	cmpl	$2, -4(%rbp)
	jge	.LBB16_45
# %bb.24:                               # %land.lhs.true
                                        #   in Loop: Header=BB16_1 Depth=1
	movq	input, %rax
	movl	-4(%rbp), %ecx
	addl	$6, %ecx
	movslq	%ecx, %rcx
	cmpl	$0, 3260(%rax,%rcx,4)
	je	.LBB16_45
# %bb.25:                               # %if.then49
                                        #   in Loop: Header=BB16_1 Depth=1
	movslq	-4(%rbp), %rax
	shlq	$7, %rax
	movabsq	$ScalingList8x8input, %rcx
	addq	%rax, %rcx
	movq	%rcx, -16(%rbp)
	movslq	-4(%rbp), %rax
	cmpl	$0, matrix8x8_check(,%rax,4)
	je	.LBB16_40
# %bb.26:                               # %if.then56
                                        #   in Loop: Header=BB16_1 Depth=1
	movl	$0, -20(%rbp)
	movl	$0, -8(%rbp)
.LBB16_27:                              # %for.cond57
                                        #   Parent Loop BB16_1 Depth=1
                                        # =>  This Inner Loop Header: Depth=2
	cmpl	$64, -8(%rbp)
	jge	.LBB16_33
# %bb.28:                               # %for.body60
                                        #   in Loop: Header=BB16_27 Depth=2
	movq	-16(%rbp), %rax
	movslq	-8(%rbp), %rcx
	movswl	(%rax,%rcx,2), %eax
	cmpl	$0, %eax
	jl	.LBB16_30
# %bb.29:                               # %lor.lhs.false66
                                        #   in Loop: Header=BB16_27 Depth=2
	movq	-16(%rbp), %rax
	movslq	-8(%rbp), %rcx
	movswl	(%rax,%rcx,2), %eax
	cmpl	$255, %eax
	jle	.LBB16_31
.LBB16_30:                              # %if.then72
                                        #   in Loop: Header=BB16_1 Depth=1
	movl	$1, -20(%rbp)
	jmp	.LBB16_34
.LBB16_31:                              # %if.end73
                                        #   in Loop: Header=BB16_27 Depth=2
	jmp	.LBB16_32
.LBB16_32:                              # %for.inc74
                                        #   in Loop: Header=BB16_27 Depth=2
	movl	-8(%rbp), %eax
	addl	$1, %eax
	movl	%eax, -8(%rbp)
	jmp	.LBB16_27
.LBB16_33:                              # %for.end76.loopexit
                                        #   in Loop: Header=BB16_1 Depth=1
	jmp	.LBB16_34
.LBB16_34:                              # %for.end76
                                        #   in Loop: Header=BB16_1 Depth=1
	cmpl	$0, -20(%rbp)
	je	.LBB16_39
# %bb.35:                               # %if.then78
                                        #   in Loop: Header=BB16_1 Depth=1
	movslq	-4(%rbp), %rax
	imulq	$20, %rax, %rax
	movabsq	$MatrixType8x8, %rsi
	addq	%rax, %rsi
	movabsq	$.L.str.6, %rdi
	movb	$0, %al
	callq	printf
	movabsq	$.L.str.7, %rdi
	movb	$0, %al
	callq	printf
	cmpl	$7, -4(%rbp)
	jne	.LBB16_37
# %bb.36:                               # %if.then86
                                        #   in Loop: Header=BB16_1 Depth=1
	movabsq	$Quant8_inter_default, %rsi
	movq	-16(%rbp), %rdi
	movl	$128, %edx
	callq	memcpy
	jmp	.LBB16_38
.LBB16_37:                              # %if.else87
                                        #   in Loop: Header=BB16_1 Depth=1
	movabsq	$Quant8_intra_default, %rsi
	movq	-16(%rbp), %rdi
	movl	$128, %edx
	callq	memcpy
.LBB16_38:                              # %if.end88
                                        #   in Loop: Header=BB16_1 Depth=1
	jmp	.LBB16_39
.LBB16_39:                              # %if.end89
                                        #   in Loop: Header=BB16_1 Depth=1
	jmp	.LBB16_44
.LBB16_40:                              # %if.else90
                                        #   in Loop: Header=BB16_1 Depth=1
	movslq	-4(%rbp), %rax
	imulq	$20, %rax, %rax
	movabsq	$MatrixType8x8, %rsi
	addq	%rax, %rsi
	movabsq	$.L.str.8, %rdi
	movb	$0, %al
	callq	printf
	cmpl	$7, -4(%rbp)
	jne	.LBB16_42
# %bb.41:                               # %if.then97
                                        #   in Loop: Header=BB16_1 Depth=1
	movabsq	$Quant8_inter_default, %rsi
	movq	-16(%rbp), %rdi
	movl	$128, %edx
	callq	memcpy
	jmp	.LBB16_43
.LBB16_42:                              # %if.else98
                                        #   in Loop: Header=BB16_1 Depth=1
	movabsq	$Quant8_intra_default, %rsi
	movq	-16(%rbp), %rdi
	movl	$128, %edx
	callq	memcpy
.LBB16_43:                              # %if.end99
                                        #   in Loop: Header=BB16_1 Depth=1
	jmp	.LBB16_44
.LBB16_44:                              # %if.end100
                                        #   in Loop: Header=BB16_1 Depth=1
	jmp	.LBB16_45
.LBB16_45:                              # %if.end101
                                        #   in Loop: Header=BB16_1 Depth=1
	jmp	.LBB16_46
.LBB16_46:                              # %for.inc102
                                        #   in Loop: Header=BB16_1 Depth=1
	movl	-4(%rbp), %eax
	addl	$1, %eax
	movl	%eax, -4(%rbp)
	jmp	.LBB16_1
.LBB16_47:                              # %for.end104
	cmpl	$1920542920, -24(%rbp)  # imm = 0x727928C8
	jne	.LBB16_49
.LBB16_48:
	addq	$32, %rsp
	popq	%rbp
	.cfi_def_cfa %rsp, 8
	retq
.LBB16_49:                              # %func_exit
	.cfi_def_cfa %rbp, 16
	callq	detect_breach
	jmp	.LBB16_48
.Lfunc_end16:
	.size	PatchMatrix.11, .Lfunc_end16-PatchMatrix.11
	.cfi_endproc
                                        # -- End function
	.globl	ParseMatrix.12          # -- Begin function ParseMatrix.12
	.p2align	4, 0x90
	.type	ParseMatrix.12,@function
ParseMatrix.12:                         # @ParseMatrix.12
	.cfi_startproc
# %bb.0:                                # %entry
	pushq	%rbp
	.cfi_def_cfa_offset 16
	.cfi_offset %rbp, -16
	movq	%rsp, %rbp
	.cfi_def_cfa_register %rbp
	subq	$8096, %rsp             # imm = 0x1FA0
	movl	$641588555, -60(%rbp)   # imm = 0x263DDD4B
	movq	%rdi, -72(%rbp)
	movl	%esi, -52(%rbp)
	movl	$0, -28(%rbp)
	movl	$0, -36(%rbp)
	movl	$0, -20(%rbp)
	movq	-72(%rbp), %rax
	movq	%rax, -16(%rbp)
	movq	-72(%rbp), %rax
	movslq	-52(%rbp), %rcx
	addq	%rcx, %rax
	movq	%rax, -88(%rbp)
.LBB17_1:                               # %while.cond
                                        # =>This Loop Header: Depth=1
                                        #     Child Loop BB17_6 Depth 2
	movq	-16(%rbp), %rax
	cmpq	-88(%rbp), %rax
	jae	.LBB17_25
# %bb.2:                                # %while.body
                                        #   in Loop: Header=BB17_1 Depth=1
	movq	-16(%rbp), %rax
	movsbl	(%rax), %eax
	addl	$-9, %eax
	movl	%eax, %ecx
	subl	$35, %ecx
	ja	.LBB17_21
# %bb.3:                                # %while.body
                                        #   in Loop: Header=BB17_1 Depth=1
	movq	.LJTI17_0(,%rax,8), %rax
	jmpq	*%rax
.LBB17_4:                               # %sw.bb
                                        #   in Loop: Header=BB17_1 Depth=1
	movq	-16(%rbp), %rax
	addq	$1, %rax
	movq	%rax, -16(%rbp)
	jmp	.LBB17_24
.LBB17_5:                               # %sw.bb1
                                        #   in Loop: Header=BB17_1 Depth=1
	movq	-16(%rbp), %rax
	movb	$0, (%rax)
.LBB17_6:                               # %while.cond2
                                        #   Parent Loop BB17_1 Depth=1
                                        # =>  This Inner Loop Header: Depth=2
	xorl	%eax, %eax
	movq	-16(%rbp), %rcx
	movsbl	(%rcx), %ecx
	cmpl	$10, %ecx
	je	.LBB17_8
# %bb.7:                                # %land.rhs
                                        #   in Loop: Header=BB17_6 Depth=2
	movq	-16(%rbp), %rax
	cmpq	-88(%rbp), %rax
	setb	%al
.LBB17_8:                               # %land.end
                                        #   in Loop: Header=BB17_6 Depth=2
	testb	$1, %al
	jne	.LBB17_9
	jmp	.LBB17_10
.LBB17_9:                               # %while.body8
                                        #   in Loop: Header=BB17_6 Depth=2
	movq	-16(%rbp), %rax
	addq	$1, %rax
	movq	%rax, -16(%rbp)
	jmp	.LBB17_6
.LBB17_10:                              # %while.end
                                        #   in Loop: Header=BB17_1 Depth=1
	movl	$0, -36(%rbp)
	movl	$0, -20(%rbp)
	jmp	.LBB17_24
.LBB17_11:                              # %sw.bb10
                                        #   in Loop: Header=BB17_1 Depth=1
	movl	$0, -20(%rbp)
	movl	$0, -36(%rbp)
	movq	-16(%rbp), %rax
	movq	%rax, %rcx
	addq	$1, %rcx
	movq	%rcx, -16(%rbp)
	movb	$0, (%rax)
	jmp	.LBB17_24
.LBB17_12:                              # %sw.bb12
                                        #   in Loop: Header=BB17_1 Depth=1
	cmpl	$0, -36(%rbp)
	je	.LBB17_14
# %bb.13:                               # %if.then
                                        #   in Loop: Header=BB17_1 Depth=1
	movq	-16(%rbp), %rax
	addq	$1, %rax
	movq	%rax, -16(%rbp)
	jmp	.LBB17_15
.LBB17_14:                              # %if.else
                                        #   in Loop: Header=BB17_1 Depth=1
	movq	-16(%rbp), %rax
	movq	%rax, %rcx
	addq	$1, %rcx
	movq	%rcx, -16(%rbp)
	movb	$0, (%rax)
	movl	$0, -20(%rbp)
.LBB17_15:                              # %if.end
                                        #   in Loop: Header=BB17_1 Depth=1
	jmp	.LBB17_24
.LBB17_16:                              # %sw.bb15
                                        #   in Loop: Header=BB17_1 Depth=1
	movq	-16(%rbp), %rax
	movq	%rax, %rcx
	addq	$1, %rcx
	movq	%rcx, -16(%rbp)
	movb	$0, (%rax)
	cmpl	$0, -36(%rbp)
	jne	.LBB17_18
# %bb.17:                               # %if.then18
                                        #   in Loop: Header=BB17_1 Depth=1
	movq	-16(%rbp), %rax
	movl	-28(%rbp), %ecx
	movl	%ecx, %edx
	addl	$1, %edx
	movl	%edx, -28(%rbp)
	movslq	%ecx, %rcx
	movq	%rax, -8096(%rbp,%rcx,8)
	movl	-20(%rbp), %eax
	xorl	$-1, %eax
	movl	%eax, -20(%rbp)
	jmp	.LBB17_19
.LBB17_18:                              # %if.else21
                                        #   in Loop: Header=BB17_1 Depth=1
	movl	$0, -20(%rbp)
.LBB17_19:                              # %if.end22
                                        #   in Loop: Header=BB17_1 Depth=1
	movl	-36(%rbp), %eax
	xorl	$-1, %eax
	movl	%eax, -36(%rbp)
	jmp	.LBB17_24
.LBB17_20:                              # %sw.bb24
                                        #   in Loop: Header=BB17_1 Depth=1
	movq	-16(%rbp), %rax
	addq	$1, %rax
	movq	%rax, -16(%rbp)
	movl	$0, -20(%rbp)
	jmp	.LBB17_24
.LBB17_21:                              # %sw.default
                                        #   in Loop: Header=BB17_1 Depth=1
	cmpl	$0, -20(%rbp)
	jne	.LBB17_23
# %bb.22:                               # %if.then27
                                        #   in Loop: Header=BB17_1 Depth=1
	movq	-16(%rbp), %rax
	movl	-28(%rbp), %ecx
	movl	%ecx, %edx
	addl	$1, %edx
	movl	%edx, -28(%rbp)
	movslq	%ecx, %rcx
	movq	%rax, -8096(%rbp,%rcx,8)
	movl	-20(%rbp), %eax
	xorl	$-1, %eax
	movl	%eax, -20(%rbp)
.LBB17_23:                              # %if.end32
                                        #   in Loop: Header=BB17_1 Depth=1
	movq	-16(%rbp), %rax
	addq	$1, %rax
	movq	%rax, -16(%rbp)
.LBB17_24:                              # %sw.epilog
                                        #   in Loop: Header=BB17_1 Depth=1
	jmp	.LBB17_1
.LBB17_25:                              # %while.end34
	movl	-28(%rbp), %eax
	addl	$-1, %eax
	movl	%eax, -28(%rbp)
	movl	$0, -24(%rbp)
.LBB17_26:                              # %for.cond
                                        # =>This Loop Header: Depth=1
                                        #     Child Loop BB17_35 Depth 2
	movl	-24(%rbp), %eax
	cmpl	-28(%rbp), %eax
	jge	.LBB17_42
# %bb.27:                               # %for.body
                                        #   in Loop: Header=BB17_26 Depth=1
	movl	$0, -4(%rbp)
	movl	-24(%rbp), %eax
	addl	-4(%rbp), %eax
	cltq
	movq	-8096(%rbp,%rax,8), %rdi
	leaq	-48(%rbp), %rsi
	callq	CheckParameterName
	xorl	%ecx, %ecx
	movl	%eax, -40(%rbp)
	cmpl	%eax, %ecx
	jle	.LBB17_29
# %bb.28:                               # %if.then41
                                        #   in Loop: Header=BB17_26 Depth=1
	movl	-24(%rbp), %eax
	addl	-4(%rbp), %eax
	cltq
	movq	-8096(%rbp,%rax,8), %rcx
	movabsq	$errortext, %rdi
	movl	$300, %esi              # imm = 0x12C
	movabsq	$.L.str, %rdx
	movb	$0, %al
	callq	snprintf
	movabsq	$errortext, %rdi
	movl	$300, %esi              # imm = 0x12C
	callq	error
.LBB17_29:                              # %if.end46
                                        #   in Loop: Header=BB17_26 Depth=1
	movl	-4(%rbp), %eax
	addl	$1, %eax
	movl	%eax, -4(%rbp)
	movl	-24(%rbp), %eax
	addl	-4(%rbp), %eax
	cltq
	movq	-8096(%rbp,%rax,8), %rsi
	movl	$.L.str.1, %edi
	callq	strcmp
	cmpl	$0, %eax
	je	.LBB17_31
# %bb.30:                               # %if.then53
                                        #   in Loop: Header=BB17_26 Depth=1
	movabsq	$errortext, %rdi
	movl	$300, %esi              # imm = 0x12C
	movabsq	$.L.str.2, %rdx
	movb	$0, %al
	callq	snprintf
	movabsq	$errortext, %rdi
	movl	$300, %esi              # imm = 0x12C
	callq	error
.LBB17_31:                              # %if.end55
                                        #   in Loop: Header=BB17_26 Depth=1
	movl	-4(%rbp), %eax
	addl	$1, %eax
	movl	%eax, -4(%rbp)
	cmpl	$0, -48(%rbp)
	jne	.LBB17_33
# %bb.32:                               # %if.then58
                                        #   in Loop: Header=BB17_26 Depth=1
	movl	$16, -44(%rbp)
	movslq	-40(%rbp), %rax
	shlq	$5, %rax
	movabsq	$ScalingList4x4input, %rcx
	addq	%rax, %rcx
	movq	%rcx, -80(%rbp)
	movslq	-40(%rbp), %rax
	movl	$1, matrix4x4_check(,%rax,4)
	jmp	.LBB17_34
.LBB17_33:                              # %if.else63
                                        #   in Loop: Header=BB17_26 Depth=1
	movl	$64, -44(%rbp)
	movslq	-40(%rbp), %rax
	shlq	$7, %rax
	movabsq	$ScalingList8x8input, %rcx
	addq	%rax, %rcx
	movq	%rcx, -80(%rbp)
	movslq	-40(%rbp), %rax
	movl	$1, matrix8x8_check(,%rax,4)
.LBB17_34:                              # %if.end69
                                        #   in Loop: Header=BB17_26 Depth=1
	movl	$0, -32(%rbp)
.LBB17_35:                              # %for.cond70
                                        #   Parent Loop BB17_26 Depth=1
                                        # =>  This Inner Loop Header: Depth=2
	movl	-32(%rbp), %eax
	cmpl	-44(%rbp), %eax
	jge	.LBB17_40
# %bb.36:                               # %for.body73
                                        #   in Loop: Header=BB17_35 Depth=2
	movl	-24(%rbp), %eax
	addl	-4(%rbp), %eax
	addl	-32(%rbp), %eax
	cltq
	movq	-8096(%rbp,%rax,8), %rdi
	movabsq	$.L.str.3, %rsi
	leaq	-56(%rbp), %rdx
	movb	$0, %al
	callq	__isoc99_sscanf
	movl	$1, %ecx
	cmpl	%eax, %ecx
	je	.LBB17_38
# %bb.37:                               # %if.then81
                                        #   in Loop: Header=BB17_35 Depth=2
	movslq	-24(%rbp), %rax
	movq	-8096(%rbp,%rax,8), %rcx
	movl	-24(%rbp), %eax
	addl	-4(%rbp), %eax
	addl	-32(%rbp), %eax
	cltq
	movq	-8096(%rbp,%rax,8), %r8
	movabsq	$errortext, %rdi
	movl	$300, %esi              # imm = 0x12C
	movabsq	$.L.str.4, %rdx
	movb	$0, %al
	callq	snprintf
	movabsq	$errortext, %rdi
	movl	$300, %esi              # imm = 0x12C
	callq	error
.LBB17_38:                              # %if.end89
                                        #   in Loop: Header=BB17_35 Depth=2
	movl	-56(%rbp), %eax
	movq	-80(%rbp), %rcx
	movslq	-32(%rbp), %rdx
	movw	%ax, (%rcx,%rdx,2)
# %bb.39:                               # %for.inc
                                        #   in Loop: Header=BB17_35 Depth=2
	movl	-32(%rbp), %eax
	addl	$1, %eax
	movl	%eax, -32(%rbp)
	jmp	.LBB17_35
.LBB17_40:                              # %for.end
                                        #   in Loop: Header=BB17_26 Depth=1
	movl	-32(%rbp), %eax
	addl	-4(%rbp), %eax
	movl	%eax, -4(%rbp)
	movabsq	$.L.str.5, %rdi
	movb	$0, %al
	callq	printf
# %bb.41:                               # %for.inc96
                                        #   in Loop: Header=BB17_26 Depth=1
	movl	-4(%rbp), %eax
	addl	-24(%rbp), %eax
	movl	%eax, -24(%rbp)
	jmp	.LBB17_26
.LBB17_42:                              # %for.end98
	cmpl	$641588555, -60(%rbp)   # imm = 0x263DDD4B
	jne	.LBB17_44
.LBB17_43:
	addq	$8096, %rsp             # imm = 0x1FA0
	popq	%rbp
	.cfi_def_cfa %rsp, 8
	retq
.LBB17_44:                              # %func_exit
	.cfi_def_cfa %rbp, 16
	callq	detect_breach
	jmp	.LBB17_43
.Lfunc_end17:
	.size	ParseMatrix.12, .Lfunc_end17-ParseMatrix.12
	.cfi_endproc
	.section	.rodata,"a",@progbits
	.p2align	3
.LJTI17_0:
	.quad	.LBB17_12
	.quad	.LBB17_11
	.quad	.LBB17_21
	.quad	.LBB17_21
	.quad	.LBB17_4
	.quad	.LBB17_21
	.quad	.LBB17_21
	.quad	.LBB17_21
	.quad	.LBB17_21
	.quad	.LBB17_21
	.quad	.LBB17_21
	.quad	.LBB17_21
	.quad	.LBB17_21
	.quad	.LBB17_21
	.quad	.LBB17_21
	.quad	.LBB17_21
	.quad	.LBB17_21
	.quad	.LBB17_21
	.quad	.LBB17_21
	.quad	.LBB17_21
	.quad	.LBB17_21
	.quad	.LBB17_21
	.quad	.LBB17_21
	.quad	.LBB17_12
	.quad	.LBB17_21
	.quad	.LBB17_16
	.quad	.LBB17_5
	.quad	.LBB17_21
	.quad	.LBB17_21
	.quad	.LBB17_21
	.quad	.LBB17_21
	.quad	.LBB17_21
	.quad	.LBB17_21
	.quad	.LBB17_21
	.quad	.LBB17_21
	.quad	.LBB17_20
                                        # -- End function
	.text
	.globl	ParseMatrix.13          # -- Begin function ParseMatrix.13
	.p2align	4, 0x90
	.type	ParseMatrix.13,@function
ParseMatrix.13:                         # @ParseMatrix.13
	.cfi_startproc
# %bb.0:                                # %entry
	pushq	%rbp
	.cfi_def_cfa_offset 16
	.cfi_offset %rbp, -16
	movq	%rsp, %rbp
	.cfi_def_cfa_register %rbp
	subq	$8096, %rsp             # imm = 0x1FA0
	movl	$879653659, -56(%rbp)   # imm = 0x346E731B
	movq	%rdi, -80(%rbp)
	movl	%esi, -52(%rbp)
	movl	$0, -28(%rbp)
	movl	$0, -36(%rbp)
	movl	$0, -20(%rbp)
	movq	-80(%rbp), %rax
	movq	%rax, -16(%rbp)
	movq	-80(%rbp), %rax
	movslq	-52(%rbp), %rcx
	addq	%rcx, %rax
	movq	%rax, -72(%rbp)
.LBB18_1:                               # %while.cond
                                        # =>This Loop Header: Depth=1
                                        #     Child Loop BB18_6 Depth 2
	movq	-16(%rbp), %rax
	cmpq	-72(%rbp), %rax
	jae	.LBB18_25
# %bb.2:                                # %while.body
                                        #   in Loop: Header=BB18_1 Depth=1
	movq	-16(%rbp), %rax
	movsbl	(%rax), %eax
	addl	$-9, %eax
	movl	%eax, %ecx
	subl	$35, %ecx
	ja	.LBB18_21
# %bb.3:                                # %while.body
                                        #   in Loop: Header=BB18_1 Depth=1
	movq	.LJTI18_0(,%rax,8), %rax
	jmpq	*%rax
.LBB18_4:                               # %sw.bb
                                        #   in Loop: Header=BB18_1 Depth=1
	movq	-16(%rbp), %rax
	addq	$1, %rax
	movq	%rax, -16(%rbp)
	jmp	.LBB18_24
.LBB18_5:                               # %sw.bb1
                                        #   in Loop: Header=BB18_1 Depth=1
	movq	-16(%rbp), %rax
	movb	$0, (%rax)
.LBB18_6:                               # %while.cond2
                                        #   Parent Loop BB18_1 Depth=1
                                        # =>  This Inner Loop Header: Depth=2
	xorl	%eax, %eax
	movq	-16(%rbp), %rcx
	movsbl	(%rcx), %ecx
	cmpl	$10, %ecx
	je	.LBB18_8
# %bb.7:                                # %land.rhs
                                        #   in Loop: Header=BB18_6 Depth=2
	movq	-16(%rbp), %rax
	cmpq	-72(%rbp), %rax
	setb	%al
.LBB18_8:                               # %land.end
                                        #   in Loop: Header=BB18_6 Depth=2
	testb	$1, %al
	jne	.LBB18_9
	jmp	.LBB18_10
.LBB18_9:                               # %while.body8
                                        #   in Loop: Header=BB18_6 Depth=2
	movq	-16(%rbp), %rax
	addq	$1, %rax
	movq	%rax, -16(%rbp)
	jmp	.LBB18_6
.LBB18_10:                              # %while.end
                                        #   in Loop: Header=BB18_1 Depth=1
	movl	$0, -36(%rbp)
	movl	$0, -20(%rbp)
	jmp	.LBB18_24
.LBB18_11:                              # %sw.bb10
                                        #   in Loop: Header=BB18_1 Depth=1
	movl	$0, -20(%rbp)
	movl	$0, -36(%rbp)
	movq	-16(%rbp), %rax
	movq	%rax, %rcx
	addq	$1, %rcx
	movq	%rcx, -16(%rbp)
	movb	$0, (%rax)
	jmp	.LBB18_24
.LBB18_12:                              # %sw.bb12
                                        #   in Loop: Header=BB18_1 Depth=1
	cmpl	$0, -36(%rbp)
	je	.LBB18_14
# %bb.13:                               # %if.then
                                        #   in Loop: Header=BB18_1 Depth=1
	movq	-16(%rbp), %rax
	addq	$1, %rax
	movq	%rax, -16(%rbp)
	jmp	.LBB18_15
.LBB18_14:                              # %if.else
                                        #   in Loop: Header=BB18_1 Depth=1
	movq	-16(%rbp), %rax
	movq	%rax, %rcx
	addq	$1, %rcx
	movq	%rcx, -16(%rbp)
	movb	$0, (%rax)
	movl	$0, -20(%rbp)
.LBB18_15:                              # %if.end
                                        #   in Loop: Header=BB18_1 Depth=1
	jmp	.LBB18_24
.LBB18_16:                              # %sw.bb15
                                        #   in Loop: Header=BB18_1 Depth=1
	movq	-16(%rbp), %rax
	movq	%rax, %rcx
	addq	$1, %rcx
	movq	%rcx, -16(%rbp)
	movb	$0, (%rax)
	cmpl	$0, -36(%rbp)
	jne	.LBB18_18
# %bb.17:                               # %if.then18
                                        #   in Loop: Header=BB18_1 Depth=1
	movq	-16(%rbp), %rax
	movl	-28(%rbp), %ecx
	movl	%ecx, %edx
	addl	$1, %edx
	movl	%edx, -28(%rbp)
	movslq	%ecx, %rcx
	movq	%rax, -8096(%rbp,%rcx,8)
	movl	-20(%rbp), %eax
	xorl	$-1, %eax
	movl	%eax, -20(%rbp)
	jmp	.LBB18_19
.LBB18_18:                              # %if.else21
                                        #   in Loop: Header=BB18_1 Depth=1
	movl	$0, -20(%rbp)
.LBB18_19:                              # %if.end22
                                        #   in Loop: Header=BB18_1 Depth=1
	movl	-36(%rbp), %eax
	xorl	$-1, %eax
	movl	%eax, -36(%rbp)
	jmp	.LBB18_24
.LBB18_20:                              # %sw.bb24
                                        #   in Loop: Header=BB18_1 Depth=1
	movq	-16(%rbp), %rax
	addq	$1, %rax
	movq	%rax, -16(%rbp)
	movl	$0, -20(%rbp)
	jmp	.LBB18_24
.LBB18_21:                              # %sw.default
                                        #   in Loop: Header=BB18_1 Depth=1
	cmpl	$0, -20(%rbp)
	jne	.LBB18_23
# %bb.22:                               # %if.then27
                                        #   in Loop: Header=BB18_1 Depth=1
	movq	-16(%rbp), %rax
	movl	-28(%rbp), %ecx
	movl	%ecx, %edx
	addl	$1, %edx
	movl	%edx, -28(%rbp)
	movslq	%ecx, %rcx
	movq	%rax, -8096(%rbp,%rcx,8)
	movl	-20(%rbp), %eax
	xorl	$-1, %eax
	movl	%eax, -20(%rbp)
.LBB18_23:                              # %if.end32
                                        #   in Loop: Header=BB18_1 Depth=1
	movq	-16(%rbp), %rax
	addq	$1, %rax
	movq	%rax, -16(%rbp)
.LBB18_24:                              # %sw.epilog
                                        #   in Loop: Header=BB18_1 Depth=1
	jmp	.LBB18_1
.LBB18_25:                              # %while.end34
	movl	-28(%rbp), %eax
	addl	$-1, %eax
	movl	%eax, -28(%rbp)
	movl	$0, -24(%rbp)
.LBB18_26:                              # %for.cond
                                        # =>This Loop Header: Depth=1
                                        #     Child Loop BB18_35 Depth 2
	movl	-24(%rbp), %eax
	cmpl	-28(%rbp), %eax
	jge	.LBB18_42
# %bb.27:                               # %for.body
                                        #   in Loop: Header=BB18_26 Depth=1
	movl	$0, -4(%rbp)
	movl	-24(%rbp), %eax
	addl	-4(%rbp), %eax
	cltq
	movq	-8096(%rbp,%rax,8), %rdi
	leaq	-48(%rbp), %rsi
	callq	CheckParameterName
	xorl	%ecx, %ecx
	movl	%eax, -40(%rbp)
	cmpl	%eax, %ecx
	jle	.LBB18_29
# %bb.28:                               # %if.then41
                                        #   in Loop: Header=BB18_26 Depth=1
	movl	-24(%rbp), %eax
	addl	-4(%rbp), %eax
	cltq
	movq	-8096(%rbp,%rax,8), %rcx
	movabsq	$errortext, %rdi
	movl	$300, %esi              # imm = 0x12C
	movabsq	$.L.str, %rdx
	movb	$0, %al
	callq	snprintf
	movabsq	$errortext, %rdi
	movl	$300, %esi              # imm = 0x12C
	callq	error
.LBB18_29:                              # %if.end46
                                        #   in Loop: Header=BB18_26 Depth=1
	movl	-4(%rbp), %eax
	addl	$1, %eax
	movl	%eax, -4(%rbp)
	movl	-24(%rbp), %eax
	addl	-4(%rbp), %eax
	cltq
	movq	-8096(%rbp,%rax,8), %rsi
	movl	$.L.str.1, %edi
	callq	strcmp
	cmpl	$0, %eax
	je	.LBB18_31
# %bb.30:                               # %if.then53
                                        #   in Loop: Header=BB18_26 Depth=1
	movabsq	$errortext, %rdi
	movl	$300, %esi              # imm = 0x12C
	movabsq	$.L.str.2, %rdx
	movb	$0, %al
	callq	snprintf
	movabsq	$errortext, %rdi
	movl	$300, %esi              # imm = 0x12C
	callq	error
.LBB18_31:                              # %if.end55
                                        #   in Loop: Header=BB18_26 Depth=1
	movl	-4(%rbp), %eax
	addl	$1, %eax
	movl	%eax, -4(%rbp)
	cmpl	$0, -48(%rbp)
	jne	.LBB18_33
# %bb.32:                               # %if.then58
                                        #   in Loop: Header=BB18_26 Depth=1
	movl	$16, -44(%rbp)
	movslq	-40(%rbp), %rax
	shlq	$5, %rax
	movabsq	$ScalingList4x4input, %rcx
	addq	%rax, %rcx
	movq	%rcx, -88(%rbp)
	movslq	-40(%rbp), %rax
	movl	$1, matrix4x4_check(,%rax,4)
	jmp	.LBB18_34
.LBB18_33:                              # %if.else63
                                        #   in Loop: Header=BB18_26 Depth=1
	movl	$64, -44(%rbp)
	movslq	-40(%rbp), %rax
	shlq	$7, %rax
	movabsq	$ScalingList8x8input, %rcx
	addq	%rax, %rcx
	movq	%rcx, -88(%rbp)
	movslq	-40(%rbp), %rax
	movl	$1, matrix8x8_check(,%rax,4)
.LBB18_34:                              # %if.end69
                                        #   in Loop: Header=BB18_26 Depth=1
	movl	$0, -32(%rbp)
.LBB18_35:                              # %for.cond70
                                        #   Parent Loop BB18_26 Depth=1
                                        # =>  This Inner Loop Header: Depth=2
	movl	-32(%rbp), %eax
	cmpl	-44(%rbp), %eax
	jge	.LBB18_40
# %bb.36:                               # %for.body73
                                        #   in Loop: Header=BB18_35 Depth=2
	movl	-24(%rbp), %eax
	addl	-4(%rbp), %eax
	addl	-32(%rbp), %eax
	cltq
	movq	-8096(%rbp,%rax,8), %rdi
	movabsq	$.L.str.3, %rsi
	leaq	-60(%rbp), %rdx
	movb	$0, %al
	callq	__isoc99_sscanf
	movl	$1, %ecx
	cmpl	%eax, %ecx
	je	.LBB18_38
# %bb.37:                               # %if.then81
                                        #   in Loop: Header=BB18_35 Depth=2
	movslq	-24(%rbp), %rax
	movq	-8096(%rbp,%rax,8), %rcx
	movl	-24(%rbp), %eax
	addl	-4(%rbp), %eax
	addl	-32(%rbp), %eax
	cltq
	movq	-8096(%rbp,%rax,8), %r8
	movabsq	$errortext, %rdi
	movl	$300, %esi              # imm = 0x12C
	movabsq	$.L.str.4, %rdx
	movb	$0, %al
	callq	snprintf
	movabsq	$errortext, %rdi
	movl	$300, %esi              # imm = 0x12C
	callq	error
.LBB18_38:                              # %if.end89
                                        #   in Loop: Header=BB18_35 Depth=2
	movl	-60(%rbp), %eax
	movq	-88(%rbp), %rcx
	movslq	-32(%rbp), %rdx
	movw	%ax, (%rcx,%rdx,2)
# %bb.39:                               # %for.inc
                                        #   in Loop: Header=BB18_35 Depth=2
	movl	-32(%rbp), %eax
	addl	$1, %eax
	movl	%eax, -32(%rbp)
	jmp	.LBB18_35
.LBB18_40:                              # %for.end
                                        #   in Loop: Header=BB18_26 Depth=1
	movl	-32(%rbp), %eax
	addl	-4(%rbp), %eax
	movl	%eax, -4(%rbp)
	movabsq	$.L.str.5, %rdi
	movb	$0, %al
	callq	printf
# %bb.41:                               # %for.inc96
                                        #   in Loop: Header=BB18_26 Depth=1
	movl	-4(%rbp), %eax
	addl	-24(%rbp), %eax
	movl	%eax, -24(%rbp)
	jmp	.LBB18_26
.LBB18_42:                              # %for.end98
	cmpl	$879653659, -56(%rbp)   # imm = 0x346E731B
	jne	.LBB18_44
.LBB18_43:
	addq	$8096, %rsp             # imm = 0x1FA0
	popq	%rbp
	.cfi_def_cfa %rsp, 8
	retq
.LBB18_44:                              # %func_exit
	.cfi_def_cfa %rbp, 16
	callq	detect_breach
	jmp	.LBB18_43
.Lfunc_end18:
	.size	ParseMatrix.13, .Lfunc_end18-ParseMatrix.13
	.cfi_endproc
	.section	.rodata,"a",@progbits
	.p2align	3
.LJTI18_0:
	.quad	.LBB18_12
	.quad	.LBB18_11
	.quad	.LBB18_21
	.quad	.LBB18_21
	.quad	.LBB18_4
	.quad	.LBB18_21
	.quad	.LBB18_21
	.quad	.LBB18_21
	.quad	.LBB18_21
	.quad	.LBB18_21
	.quad	.LBB18_21
	.quad	.LBB18_21
	.quad	.LBB18_21
	.quad	.LBB18_21
	.quad	.LBB18_21
	.quad	.LBB18_21
	.quad	.LBB18_21
	.quad	.LBB18_21
	.quad	.LBB18_21
	.quad	.LBB18_21
	.quad	.LBB18_21
	.quad	.LBB18_21
	.quad	.LBB18_21
	.quad	.LBB18_12
	.quad	.LBB18_21
	.quad	.LBB18_16
	.quad	.LBB18_5
	.quad	.LBB18_21
	.quad	.LBB18_21
	.quad	.LBB18_21
	.quad	.LBB18_21
	.quad	.LBB18_21
	.quad	.LBB18_21
	.quad	.LBB18_21
	.quad	.LBB18_21
	.quad	.LBB18_20
                                        # -- End function
	.text
	.globl	PatchMatrix.14          # -- Begin function PatchMatrix.14
	.p2align	4, 0x90
	.type	PatchMatrix.14,@function
PatchMatrix.14:                         # @PatchMatrix.14
	.cfi_startproc
# %bb.0:                                # %entry
	pushq	%rbp
	.cfi_def_cfa_offset 16
	.cfi_offset %rbp, -16
	movq	%rsp, %rbp
	.cfi_def_cfa_register %rbp
	subq	$32, %rsp
	movl	$2062320733, -24(%rbp)  # imm = 0x7AEC845D
	movl	$0, -4(%rbp)
.LBB19_1:                               # %for.cond
                                        # =>This Loop Header: Depth=1
                                        #     Child Loop BB19_5 Depth 2
                                        #     Child Loop BB19_27 Depth 2
	cmpl	$6, -4(%rbp)
	jge	.LBB19_47
# %bb.2:                                # %for.body
                                        #   in Loop: Header=BB19_1 Depth=1
	movq	input, %rax
	movslq	-4(%rbp), %rcx
	cmpl	$0, 3260(%rax,%rcx,4)
	je	.LBB19_23
# %bb.3:                                # %if.then
                                        #   in Loop: Header=BB19_1 Depth=1
	movslq	-4(%rbp), %rax
	shlq	$5, %rax
	movabsq	$ScalingList4x4input, %rcx
	addq	%rax, %rcx
	movq	%rcx, -16(%rbp)
	movslq	-4(%rbp), %rax
	cmpl	$0, matrix4x4_check(,%rax,4)
	je	.LBB19_18
# %bb.4:                                # %if.then6
                                        #   in Loop: Header=BB19_1 Depth=1
	movl	$0, -20(%rbp)
	movl	$0, -8(%rbp)
.LBB19_5:                               # %for.cond7
                                        #   Parent Loop BB19_1 Depth=1
                                        # =>  This Inner Loop Header: Depth=2
	cmpl	$16, -8(%rbp)
	jge	.LBB19_11
# %bb.6:                                # %for.body9
                                        #   in Loop: Header=BB19_5 Depth=2
	movq	-16(%rbp), %rax
	movslq	-8(%rbp), %rcx
	movswl	(%rax,%rcx,2), %eax
	cmpl	$0, %eax
	jl	.LBB19_8
# %bb.7:                                # %lor.lhs.false
                                        #   in Loop: Header=BB19_5 Depth=2
	movq	-16(%rbp), %rax
	movslq	-8(%rbp), %rcx
	movswl	(%rax,%rcx,2), %eax
	cmpl	$255, %eax
	jle	.LBB19_9
.LBB19_8:                               # %if.then19
                                        #   in Loop: Header=BB19_1 Depth=1
	movl	$1, -20(%rbp)
	jmp	.LBB19_12
.LBB19_9:                               # %if.end
                                        #   in Loop: Header=BB19_5 Depth=2
	jmp	.LBB19_10
.LBB19_10:                              # %for.inc
                                        #   in Loop: Header=BB19_5 Depth=2
	movl	-8(%rbp), %eax
	addl	$1, %eax
	movl	%eax, -8(%rbp)
	jmp	.LBB19_5
.LBB19_11:                              # %for.end.loopexit
                                        #   in Loop: Header=BB19_1 Depth=1
	jmp	.LBB19_12
.LBB19_12:                              # %for.end
                                        #   in Loop: Header=BB19_1 Depth=1
	cmpl	$0, -20(%rbp)
	je	.LBB19_17
# %bb.13:                               # %if.then21
                                        #   in Loop: Header=BB19_1 Depth=1
	movslq	-4(%rbp), %rax
	imulq	$20, %rax, %rax
	movabsq	$MatrixType4x4, %rsi
	addq	%rax, %rsi
	movabsq	$.L.str.6, %rdi
	movb	$0, %al
	callq	printf
	movabsq	$.L.str.7, %rdi
	movb	$0, %al
	callq	printf
	cmpl	$2, -4(%rbp)
	jle	.LBB19_15
# %bb.14:                               # %if.then28
                                        #   in Loop: Header=BB19_1 Depth=1
	movq	-16(%rbp), %rax
	movq	Quant_inter_default, %rcx
	movq	%rcx, (%rax)
	movq	Quant_inter_default+8, %rcx
	movq	%rcx, 8(%rax)
	movq	Quant_inter_default+16, %rcx
	movq	%rcx, 16(%rax)
	movq	Quant_inter_default+24, %rcx
	movq	%rcx, 24(%rax)
	jmp	.LBB19_16
.LBB19_15:                              # %if.else
                                        #   in Loop: Header=BB19_1 Depth=1
	movq	-16(%rbp), %rax
	movq	Quant_intra_default, %rcx
	movq	%rcx, (%rax)
	movq	Quant_intra_default+8, %rcx
	movq	%rcx, 8(%rax)
	movq	Quant_intra_default+16, %rcx
	movq	%rcx, 16(%rax)
	movq	Quant_intra_default+24, %rcx
	movq	%rcx, 24(%rax)
.LBB19_16:                              # %if.end29
                                        #   in Loop: Header=BB19_1 Depth=1
	jmp	.LBB19_17
.LBB19_17:                              # %if.end30
                                        #   in Loop: Header=BB19_1 Depth=1
	jmp	.LBB19_22
.LBB19_18:                              # %if.else31
                                        #   in Loop: Header=BB19_1 Depth=1
	movslq	-4(%rbp), %rax
	imulq	$20, %rax, %rax
	movabsq	$MatrixType4x4, %rsi
	addq	%rax, %rsi
	movabsq	$.L.str.8, %rdi
	movb	$0, %al
	callq	printf
	cmpl	$2, -4(%rbp)
	jle	.LBB19_20
# %bb.19:                               # %if.then38
                                        #   in Loop: Header=BB19_1 Depth=1
	movq	-16(%rbp), %rax
	movq	Quant_inter_default, %rcx
	movq	%rcx, (%rax)
	movq	Quant_inter_default+8, %rcx
	movq	%rcx, 8(%rax)
	movq	Quant_inter_default+16, %rcx
	movq	%rcx, 16(%rax)
	movq	Quant_inter_default+24, %rcx
	movq	%rcx, 24(%rax)
	jmp	.LBB19_21
.LBB19_20:                              # %if.else39
                                        #   in Loop: Header=BB19_1 Depth=1
	movq	-16(%rbp), %rax
	movq	Quant_intra_default, %rcx
	movq	%rcx, (%rax)
	movq	Quant_intra_default+8, %rcx
	movq	%rcx, 8(%rax)
	movq	Quant_intra_default+16, %rcx
	movq	%rcx, 16(%rax)
	movq	Quant_intra_default+24, %rcx
	movq	%rcx, 24(%rax)
.LBB19_21:                              # %if.end40
                                        #   in Loop: Header=BB19_1 Depth=1
	jmp	.LBB19_22
.LBB19_22:                              # %if.end41
                                        #   in Loop: Header=BB19_1 Depth=1
	jmp	.LBB19_23
.LBB19_23:                              # %if.end42
                                        #   in Loop: Header=BB19_1 Depth=1
	cmpl	$2, -4(%rbp)
	jge	.LBB19_45
# %bb.24:                               # %land.lhs.true
                                        #   in Loop: Header=BB19_1 Depth=1
	movq	input, %rax
	movl	-4(%rbp), %ecx
	addl	$6, %ecx
	movslq	%ecx, %rcx
	cmpl	$0, 3260(%rax,%rcx,4)
	je	.LBB19_45
# %bb.25:                               # %if.then49
                                        #   in Loop: Header=BB19_1 Depth=1
	movslq	-4(%rbp), %rax
	shlq	$7, %rax
	movabsq	$ScalingList8x8input, %rcx
	addq	%rax, %rcx
	movq	%rcx, -16(%rbp)
	movslq	-4(%rbp), %rax
	cmpl	$0, matrix8x8_check(,%rax,4)
	je	.LBB19_40
# %bb.26:                               # %if.then56
                                        #   in Loop: Header=BB19_1 Depth=1
	movl	$0, -20(%rbp)
	movl	$0, -8(%rbp)
.LBB19_27:                              # %for.cond57
                                        #   Parent Loop BB19_1 Depth=1
                                        # =>  This Inner Loop Header: Depth=2
	cmpl	$64, -8(%rbp)
	jge	.LBB19_33
# %bb.28:                               # %for.body60
                                        #   in Loop: Header=BB19_27 Depth=2
	movq	-16(%rbp), %rax
	movslq	-8(%rbp), %rcx
	movswl	(%rax,%rcx,2), %eax
	cmpl	$0, %eax
	jl	.LBB19_30
# %bb.29:                               # %lor.lhs.false66
                                        #   in Loop: Header=BB19_27 Depth=2
	movq	-16(%rbp), %rax
	movslq	-8(%rbp), %rcx
	movswl	(%rax,%rcx,2), %eax
	cmpl	$255, %eax
	jle	.LBB19_31
.LBB19_30:                              # %if.then72
                                        #   in Loop: Header=BB19_1 Depth=1
	movl	$1, -20(%rbp)
	jmp	.LBB19_34
.LBB19_31:                              # %if.end73
                                        #   in Loop: Header=BB19_27 Depth=2
	jmp	.LBB19_32
.LBB19_32:                              # %for.inc74
                                        #   in Loop: Header=BB19_27 Depth=2
	movl	-8(%rbp), %eax
	addl	$1, %eax
	movl	%eax, -8(%rbp)
	jmp	.LBB19_27
.LBB19_33:                              # %for.end76.loopexit
                                        #   in Loop: Header=BB19_1 Depth=1
	jmp	.LBB19_34
.LBB19_34:                              # %for.end76
                                        #   in Loop: Header=BB19_1 Depth=1
	cmpl	$0, -20(%rbp)
	je	.LBB19_39
# %bb.35:                               # %if.then78
                                        #   in Loop: Header=BB19_1 Depth=1
	movslq	-4(%rbp), %rax
	imulq	$20, %rax, %rax
	movabsq	$MatrixType8x8, %rsi
	addq	%rax, %rsi
	movabsq	$.L.str.6, %rdi
	movb	$0, %al
	callq	printf
	movabsq	$.L.str.7, %rdi
	movb	$0, %al
	callq	printf
	cmpl	$7, -4(%rbp)
	jne	.LBB19_37
# %bb.36:                               # %if.then86
                                        #   in Loop: Header=BB19_1 Depth=1
	movabsq	$Quant8_inter_default, %rsi
	movq	-16(%rbp), %rdi
	movl	$128, %edx
	callq	memcpy
	jmp	.LBB19_38
.LBB19_37:                              # %if.else87
                                        #   in Loop: Header=BB19_1 Depth=1
	movabsq	$Quant8_intra_default, %rsi
	movq	-16(%rbp), %rdi
	movl	$128, %edx
	callq	memcpy
.LBB19_38:                              # %if.end88
                                        #   in Loop: Header=BB19_1 Depth=1
	jmp	.LBB19_39
.LBB19_39:                              # %if.end89
                                        #   in Loop: Header=BB19_1 Depth=1
	jmp	.LBB19_44
.LBB19_40:                              # %if.else90
                                        #   in Loop: Header=BB19_1 Depth=1
	movslq	-4(%rbp), %rax
	imulq	$20, %rax, %rax
	movabsq	$MatrixType8x8, %rsi
	addq	%rax, %rsi
	movabsq	$.L.str.8, %rdi
	movb	$0, %al
	callq	printf
	cmpl	$7, -4(%rbp)
	jne	.LBB19_42
# %bb.41:                               # %if.then97
                                        #   in Loop: Header=BB19_1 Depth=1
	movabsq	$Quant8_inter_default, %rsi
	movq	-16(%rbp), %rdi
	movl	$128, %edx
	callq	memcpy
	jmp	.LBB19_43
.LBB19_42:                              # %if.else98
                                        #   in Loop: Header=BB19_1 Depth=1
	movabsq	$Quant8_intra_default, %rsi
	movq	-16(%rbp), %rdi
	movl	$128, %edx
	callq	memcpy
.LBB19_43:                              # %if.end99
                                        #   in Loop: Header=BB19_1 Depth=1
	jmp	.LBB19_44
.LBB19_44:                              # %if.end100
                                        #   in Loop: Header=BB19_1 Depth=1
	jmp	.LBB19_45
.LBB19_45:                              # %if.end101
                                        #   in Loop: Header=BB19_1 Depth=1
	jmp	.LBB19_46
.LBB19_46:                              # %for.inc102
                                        #   in Loop: Header=BB19_1 Depth=1
	movl	-4(%rbp), %eax
	addl	$1, %eax
	movl	%eax, -4(%rbp)
	jmp	.LBB19_1
.LBB19_47:                              # %for.end104
	cmpl	$2062320733, -24(%rbp)  # imm = 0x7AEC845D
	jne	.LBB19_49
.LBB19_48:
	addq	$32, %rsp
	popq	%rbp
	.cfi_def_cfa %rsp, 8
	retq
.LBB19_49:                              # %func_exit
	.cfi_def_cfa %rbp, 16
	callq	detect_breach
	jmp	.LBB19_48
.Lfunc_end19:
	.size	PatchMatrix.14, .Lfunc_end19-PatchMatrix.14
	.cfi_endproc
                                        # -- End function
	.globl	CalculateQuantParam.15  # -- Begin function CalculateQuantParam.15
	.p2align	4, 0x90
	.type	CalculateQuantParam.15,@function
CalculateQuantParam.15:                 # @CalculateQuantParam.15
	.cfi_startproc
# %bb.0:                                # %entry
	pushq	%rbp
	.cfi_def_cfa_offset 16
	.cfi_offset %rbp, -16
	movq	%rsp, %rbp
	.cfi_def_cfa_register %rbp
	pushq	%r15
	pushq	%r14
	pushq	%r12
	pushq	%rbx
	subq	$48, %rsp
	.cfi_offset %rbx, -48
	.cfi_offset %r12, -40
	.cfi_offset %r14, -32
	.cfi_offset %r15, -24
	movl	$347738105, -56(%rbp)   # imm = 0x14BA0FF9
	movl	$0, -52(%rbp)
	movq	active_sps, %rax
	cmpl	$0, 36(%rax)
	jne	.LBB20_3
# %bb.1:                                # %land.lhs.true
	movq	active_pps, %rax
	cmpl	$0, 20(%rax)
	jne	.LBB20_3
# %bb.2:                                # %if.then
	movl	$1, -52(%rbp)
	jmp	.LBB20_20
.LBB20_3:                               # %if.else
	leaq	-80(%rbp), %rdi
	xorl	%esi, %esi
	movl	$24, %edx
	callq	memset
	movq	active_sps, %rax
	cmpl	$0, 36(%rax)
	je	.LBB20_9
# %bb.4:                                # %if.then4
	movl	$0, -36(%rbp)
.LBB20_5:                               # %for.cond
                                        # =>This Inner Loop Header: Depth=1
	cmpl	$6, -36(%rbp)
	jge	.LBB20_8
# %bb.6:                                # %for.body
                                        #   in Loop: Header=BB20_5 Depth=1
	movq	active_sps, %rax
	movslq	-36(%rbp), %rcx
	movl	40(%rax,%rcx,4), %eax
	movslq	-36(%rbp), %rcx
	movl	%eax, -80(%rbp,%rcx,4)
# %bb.7:                                # %for.inc
                                        #   in Loop: Header=BB20_5 Depth=1
	movl	-36(%rbp), %eax
	addl	$1, %eax
	movl	%eax, -36(%rbp)
	jmp	.LBB20_5
.LBB20_8:                               # %for.end
	jmp	.LBB20_9
.LBB20_9:                               # %if.end
	movq	active_pps, %rax
	cmpl	$0, 20(%rax)
	je	.LBB20_19
# %bb.10:                               # %if.then9
	movl	$0, -36(%rbp)
.LBB20_11:                              # %for.cond10
                                        # =>This Inner Loop Header: Depth=1
	cmpl	$6, -36(%rbp)
	jge	.LBB20_18
# %bb.12:                               # %for.body12
                                        #   in Loop: Header=BB20_11 Depth=1
	cmpl	$0, -36(%rbp)
	je	.LBB20_14
# %bb.13:                               # %lor.lhs.false
                                        #   in Loop: Header=BB20_11 Depth=1
	cmpl	$3, -36(%rbp)
	jne	.LBB20_15
.LBB20_14:                              # %if.then15
                                        #   in Loop: Header=BB20_11 Depth=1
	movq	active_pps, %rax
	movslq	-36(%rbp), %rcx
	movl	24(%rax,%rcx,4), %eax
	movslq	-36(%rbp), %rcx
	orl	-80(%rbp,%rcx,4), %eax
	movl	%eax, -80(%rbp,%rcx,4)
	jmp	.LBB20_16
.LBB20_15:                              # %if.else20
                                        #   in Loop: Header=BB20_11 Depth=1
	movq	active_pps, %rax
	movslq	-36(%rbp), %rcx
	movl	24(%rax,%rcx,4), %eax
	movslq	-36(%rbp), %rcx
	movl	%eax, -80(%rbp,%rcx,4)
.LBB20_16:                              # %if.end26
                                        #   in Loop: Header=BB20_11 Depth=1
	jmp	.LBB20_17
.LBB20_17:                              # %for.inc27
                                        #   in Loop: Header=BB20_11 Depth=1
	movl	-36(%rbp), %eax
	addl	$1, %eax
	movl	%eax, -36(%rbp)
	jmp	.LBB20_11
.LBB20_18:                              # %for.end29
	jmp	.LBB20_19
.LBB20_19:                              # %if.end30
	jmp	.LBB20_20
.LBB20_20:                              # %if.end31
	cmpl	$1, -52(%rbp)
	jne	.LBB20_34
# %bb.21:                               # %if.then33
	movl	$0, -44(%rbp)
.LBB20_22:                              # %for.cond34
                                        # =>This Loop Header: Depth=1
                                        #     Child Loop BB20_24 Depth 2
                                        #       Child Loop BB20_26 Depth 3
	cmpl	$6, -44(%rbp)
	jge	.LBB20_33
# %bb.23:                               # %for.body36
                                        #   in Loop: Header=BB20_22 Depth=1
	movl	$0, -40(%rbp)
.LBB20_24:                              # %for.cond37
                                        #   Parent Loop BB20_22 Depth=1
                                        # =>  This Loop Header: Depth=2
                                        #       Child Loop BB20_26 Depth 3
	cmpl	$4, -40(%rbp)
	jge	.LBB20_31
# %bb.25:                               # %for.body39
                                        #   in Loop: Header=BB20_24 Depth=2
	movl	$0, -36(%rbp)
.LBB20_26:                              # %for.cond40
                                        #   Parent Loop BB20_22 Depth=1
                                        #     Parent Loop BB20_24 Depth=2
                                        # =>    This Inner Loop Header: Depth=3
	cmpl	$4, -36(%rbp)
	jge	.LBB20_29
# %bb.27:                               # %for.body42
                                        #   in Loop: Header=BB20_26 Depth=3
	movabsq	$InvLevelScale4x4Chroma_Inter, %r9
	movq	%r9, %r8
	addq	$384, %r8               # imm = 0x180
	movabsq	$LevelScale4x4Chroma_Inter, %r11
	movq	%r11, %r10
	addq	$384, %r10              # imm = 0x180
	movabsq	$InvLevelScale4x4Chroma_Intra, %rdx
	movq	%rdx, %r15
	addq	$384, %r15              # imm = 0x180
	movabsq	$LevelScale4x4Chroma_Intra, %rbx
	movq	%rbx, %rax
	addq	$384, %rax              # imm = 0x180
	movslq	-44(%rbp), %rdi
	shlq	$6, %rdi
	movabsq	$quant_coef, %r14
	movq	%r14, %rsi
	addq	%rdi, %rsi
	movslq	-40(%rbp), %rdi
	shlq	$4, %rdi
	addq	%rdi, %rsi
	movslq	-36(%rbp), %rdi
	movl	(%rsi,%rdi,4), %esi
	movslq	-44(%rbp), %rdi
	shlq	$6, %rdi
	movabsq	$LevelScale4x4Luma_Intra, %rcx
	addq	%rdi, %rcx
	movslq	-40(%rbp), %rdi
	shlq	$4, %rdi
	addq	%rdi, %rcx
	movslq	-36(%rbp), %rdi
	movl	%esi, (%rcx,%rdi,4)
	movslq	-44(%rbp), %rcx
	shlq	$6, %rcx
	movabsq	$dequant_coef, %r12
	movq	%r12, %rsi
	addq	%rcx, %rsi
	movslq	-40(%rbp), %rcx
	shlq	$4, %rcx
	addq	%rcx, %rsi
	movslq	-36(%rbp), %rcx
	movl	(%rsi,%rcx,4), %ecx
	shll	$4, %ecx
	movslq	-44(%rbp), %rsi
	shlq	$6, %rsi
	movabsq	$InvLevelScale4x4Luma_Intra, %rdi
	addq	%rsi, %rdi
	movslq	-40(%rbp), %rsi
	shlq	$4, %rsi
	addq	%rsi, %rdi
	movslq	-36(%rbp), %rsi
	movl	%ecx, (%rdi,%rsi,4)
	movslq	-44(%rbp), %rcx
	shlq	$6, %rcx
	movq	%r14, %rsi
	addq	%rcx, %rsi
	movslq	-40(%rbp), %rcx
	shlq	$4, %rcx
	addq	%rcx, %rsi
	movslq	-36(%rbp), %rcx
	movl	(%rsi,%rcx,4), %ecx
	movslq	-44(%rbp), %rsi
	shlq	$6, %rsi
	addq	%rsi, %rbx
	movslq	-40(%rbp), %rsi
	shlq	$4, %rsi
	addq	%rsi, %rbx
	movslq	-36(%rbp), %rsi
	movl	%ecx, (%rbx,%rsi,4)
	movslq	-44(%rbp), %rcx
	shlq	$6, %rcx
	movq	%r12, %rsi
	addq	%rcx, %rsi
	movslq	-40(%rbp), %rcx
	shlq	$4, %rcx
	addq	%rcx, %rsi
	movslq	-36(%rbp), %rcx
	movl	(%rsi,%rcx,4), %ecx
	shll	$4, %ecx
	movslq	-44(%rbp), %rsi
	shlq	$6, %rsi
	addq	%rsi, %rdx
	movslq	-40(%rbp), %rsi
	shlq	$4, %rsi
	addq	%rsi, %rdx
	movslq	-36(%rbp), %rsi
	movl	%ecx, (%rdx,%rsi,4)
	movslq	-44(%rbp), %rcx
	shlq	$6, %rcx
	movq	%r14, %rdx
	addq	%rcx, %rdx
	movslq	-40(%rbp), %rcx
	shlq	$4, %rcx
	addq	%rcx, %rdx
	movslq	-36(%rbp), %rcx
	movl	(%rdx,%rcx,4), %ecx
	movslq	-44(%rbp), %rdx
	shlq	$6, %rdx
	addq	%rdx, %rax
	movslq	-40(%rbp), %rdx
	shlq	$4, %rdx
	addq	%rdx, %rax
	movslq	-36(%rbp), %rdx
	movl	%ecx, (%rax,%rdx,4)
	movslq	-44(%rbp), %rax
	shlq	$6, %rax
	movq	%r12, %rcx
	addq	%rax, %rcx
	movslq	-40(%rbp), %rax
	shlq	$4, %rax
	addq	%rax, %rcx
	movslq	-36(%rbp), %rax
	movl	(%rcx,%rax,4), %eax
	shll	$4, %eax
	movslq	-44(%rbp), %rcx
	shlq	$6, %rcx
	addq	%rcx, %r15
	movslq	-40(%rbp), %rcx
	shlq	$4, %rcx
	addq	%rcx, %r15
	movslq	-36(%rbp), %rcx
	movl	%eax, (%r15,%rcx,4)
	movslq	-44(%rbp), %rax
	shlq	$6, %rax
	movq	%r14, %rcx
	addq	%rax, %rcx
	movslq	-40(%rbp), %rax
	shlq	$4, %rax
	addq	%rax, %rcx
	movslq	-36(%rbp), %rax
	movl	(%rcx,%rax,4), %eax
	movslq	-44(%rbp), %rcx
	shlq	$6, %rcx
	movabsq	$LevelScale4x4Luma_Inter, %rdx
	addq	%rcx, %rdx
	movslq	-40(%rbp), %rcx
	shlq	$4, %rcx
	addq	%rcx, %rdx
	movslq	-36(%rbp), %rcx
	movl	%eax, (%rdx,%rcx,4)
	movslq	-44(%rbp), %rax
	shlq	$6, %rax
	movq	%r12, %rcx
	addq	%rax, %rcx
	movslq	-40(%rbp), %rax
	shlq	$4, %rax
	addq	%rax, %rcx
	movslq	-36(%rbp), %rax
	movl	(%rcx,%rax,4), %eax
	shll	$4, %eax
	movslq	-44(%rbp), %rcx
	shlq	$6, %rcx
	movabsq	$InvLevelScale4x4Luma_Inter, %rdx
	addq	%rcx, %rdx
	movslq	-40(%rbp), %rcx
	shlq	$4, %rcx
	addq	%rcx, %rdx
	movslq	-36(%rbp), %rcx
	movl	%eax, (%rdx,%rcx,4)
	movslq	-44(%rbp), %rax
	shlq	$6, %rax
	movq	%r14, %rcx
	addq	%rax, %rcx
	movslq	-40(%rbp), %rax
	shlq	$4, %rax
	addq	%rax, %rcx
	movslq	-36(%rbp), %rax
	movl	(%rcx,%rax,4), %eax
	movslq	-44(%rbp), %rcx
	shlq	$6, %rcx
	addq	%rcx, %r11
	movslq	-40(%rbp), %rcx
	shlq	$4, %rcx
	addq	%rcx, %r11
	movslq	-36(%rbp), %rcx
	movl	%eax, (%r11,%rcx,4)
	movslq	-44(%rbp), %rax
	shlq	$6, %rax
	movq	%r12, %rcx
	addq	%rax, %rcx
	movslq	-40(%rbp), %rax
	shlq	$4, %rax
	addq	%rax, %rcx
	movslq	-36(%rbp), %rax
	movl	(%rcx,%rax,4), %eax
	shll	$4, %eax
	movslq	-44(%rbp), %rcx
	shlq	$6, %rcx
	addq	%rcx, %r9
	movslq	-40(%rbp), %rcx
	shlq	$4, %rcx
	addq	%rcx, %r9
	movslq	-36(%rbp), %rcx
	movl	%eax, (%r9,%rcx,4)
	movslq	-44(%rbp), %rax
	shlq	$6, %rax
	addq	%rax, %r14
	movslq	-40(%rbp), %rax
	shlq	$4, %rax
	addq	%rax, %r14
	movslq	-36(%rbp), %rax
	movl	(%r14,%rax,4), %eax
	movslq	-44(%rbp), %rcx
	shlq	$6, %rcx
	addq	%rcx, %r10
	movslq	-40(%rbp), %rcx
	shlq	$4, %rcx
	addq	%rcx, %r10
	movslq	-36(%rbp), %rcx
	movl	%eax, (%r10,%rcx,4)
	movslq	-44(%rbp), %rax
	shlq	$6, %rax
	addq	%rax, %r12
	movslq	-40(%rbp), %rax
	shlq	$4, %rax
	addq	%rax, %r12
	movslq	-36(%rbp), %rax
	movl	(%r12,%rax,4), %eax
	shll	$4, %eax
	movslq	-44(%rbp), %rcx
	shlq	$6, %rcx
	addq	%rcx, %r8
	movslq	-40(%rbp), %rcx
	shlq	$4, %rcx
	addq	%rcx, %r8
	movslq	-36(%rbp), %rcx
	movl	%eax, (%r8,%rcx,4)
# %bb.28:                               # %for.inc192
                                        #   in Loop: Header=BB20_26 Depth=3
	movl	-36(%rbp), %eax
	addl	$1, %eax
	movl	%eax, -36(%rbp)
	jmp	.LBB20_26
.LBB20_29:                              # %for.end194
                                        #   in Loop: Header=BB20_24 Depth=2
	jmp	.LBB20_30
.LBB20_30:                              # %for.inc195
                                        #   in Loop: Header=BB20_24 Depth=2
	movl	-40(%rbp), %eax
	addl	$1, %eax
	movl	%eax, -40(%rbp)
	jmp	.LBB20_24
.LBB20_31:                              # %for.end197
                                        #   in Loop: Header=BB20_22 Depth=1
	jmp	.LBB20_32
.LBB20_32:                              # %for.inc198
                                        #   in Loop: Header=BB20_22 Depth=1
	movl	-44(%rbp), %eax
	addl	$1, %eax
	movl	%eax, -44(%rbp)
	jmp	.LBB20_22
.LBB20_33:                              # %for.end200
	jmp	.LBB20_91
.LBB20_34:                              # %if.else201
	movl	$0, -44(%rbp)
.LBB20_35:                              # %for.cond202
                                        # =>This Loop Header: Depth=1
                                        #     Child Loop BB20_37 Depth 2
                                        #       Child Loop BB20_39 Depth 3
	cmpl	$6, -44(%rbp)
	jge	.LBB20_90
# %bb.36:                               # %for.body204
                                        #   in Loop: Header=BB20_35 Depth=1
	movl	$0, -40(%rbp)
.LBB20_37:                              # %for.cond205
                                        #   Parent Loop BB20_35 Depth=1
                                        # =>  This Loop Header: Depth=2
                                        #       Child Loop BB20_39 Depth 3
	cmpl	$4, -40(%rbp)
	jge	.LBB20_88
# %bb.38:                               # %for.body207
                                        #   in Loop: Header=BB20_37 Depth=2
	movl	$0, -36(%rbp)
.LBB20_39:                              # %for.cond208
                                        #   Parent Loop BB20_35 Depth=1
                                        #     Parent Loop BB20_37 Depth=2
                                        # =>    This Inner Loop Header: Depth=3
	cmpl	$4, -36(%rbp)
	jge	.LBB20_86
# %bb.40:                               # %for.body210
                                        #   in Loop: Header=BB20_39 Depth=3
	movl	-36(%rbp), %eax
	shll	$2, %eax
	addl	-40(%rbp), %eax
	movl	%eax, -48(%rbp)
	cmpl	$0, -80(%rbp)
	je	.LBB20_42
# %bb.41:                               # %lor.lhs.false214
                                        #   in Loop: Header=BB20_39 Depth=3
	movswl	UseDefaultScalingMatrix4x4Flag, %eax
	cmpl	$0, %eax
	je	.LBB20_43
.LBB20_42:                              # %if.then216
                                        #   in Loop: Header=BB20_39 Depth=3
	movslq	-44(%rbp), %rax
	shlq	$6, %rax
	movabsq	$quant_coef, %rcx
	addq	%rax, %rcx
	movslq	-40(%rbp), %rax
	shlq	$4, %rax
	addq	%rax, %rcx
	movslq	-36(%rbp), %rax
	movl	(%rcx,%rax,4), %eax
	shll	$4, %eax
	movslq	-48(%rbp), %rcx
	movswl	Quant_intra_default(,%rcx,2), %ecx
	cltd
	idivl	%ecx
	movslq	-44(%rbp), %rcx
	shlq	$6, %rcx
	movabsq	$LevelScale4x4Luma_Intra, %rdx
	addq	%rcx, %rdx
	movslq	-40(%rbp), %rcx
	shlq	$4, %rcx
	addq	%rcx, %rdx
	movslq	-36(%rbp), %rcx
	movl	%eax, (%rdx,%rcx,4)
	movslq	-44(%rbp), %rax
	shlq	$6, %rax
	movabsq	$dequant_coef, %rcx
	addq	%rax, %rcx
	movslq	-40(%rbp), %rax
	shlq	$4, %rax
	addq	%rax, %rcx
	movslq	-36(%rbp), %rax
	movl	(%rcx,%rax,4), %eax
	movslq	-48(%rbp), %rcx
	movswl	Quant_intra_default(,%rcx,2), %ecx
	imull	%ecx, %eax
	movslq	-44(%rbp), %rcx
	shlq	$6, %rcx
	movabsq	$InvLevelScale4x4Luma_Intra, %rdx
	addq	%rcx, %rdx
	movslq	-40(%rbp), %rcx
	shlq	$4, %rcx
	addq	%rcx, %rdx
	movslq	-36(%rbp), %rcx
	movl	%eax, (%rdx,%rcx,4)
	jmp	.LBB20_44
.LBB20_43:                              # %if.else248
                                        #   in Loop: Header=BB20_39 Depth=3
	movslq	-44(%rbp), %rax
	shlq	$6, %rax
	movabsq	$quant_coef, %rcx
	addq	%rax, %rcx
	movslq	-40(%rbp), %rax
	shlq	$4, %rax
	addq	%rax, %rcx
	movslq	-36(%rbp), %rax
	movl	(%rcx,%rax,4), %eax
	shll	$4, %eax
	movslq	-48(%rbp), %rcx
	movswl	ScalingList4x4(,%rcx,2), %ecx
	cltd
	idivl	%ecx
	movslq	-44(%rbp), %rcx
	shlq	$6, %rcx
	movabsq	$LevelScale4x4Luma_Intra, %rdx
	addq	%rcx, %rdx
	movslq	-40(%rbp), %rcx
	shlq	$4, %rcx
	addq	%rcx, %rdx
	movslq	-36(%rbp), %rcx
	movl	%eax, (%rdx,%rcx,4)
	movslq	-44(%rbp), %rax
	shlq	$6, %rax
	movabsq	$dequant_coef, %rcx
	addq	%rax, %rcx
	movslq	-40(%rbp), %rax
	shlq	$4, %rax
	addq	%rax, %rcx
	movslq	-36(%rbp), %rax
	movl	(%rcx,%rax,4), %eax
	movslq	-48(%rbp), %rcx
	movswl	ScalingList4x4(,%rcx,2), %ecx
	imull	%ecx, %eax
	movslq	-44(%rbp), %rcx
	shlq	$6, %rcx
	movabsq	$InvLevelScale4x4Luma_Intra, %rdx
	addq	%rcx, %rdx
	movslq	-40(%rbp), %rcx
	shlq	$4, %rcx
	addq	%rcx, %rdx
	movslq	-36(%rbp), %rcx
	movl	%eax, (%rdx,%rcx,4)
.LBB20_44:                              # %if.end282
                                        #   in Loop: Header=BB20_39 Depth=3
	cmpl	$0, -76(%rbp)
	jne	.LBB20_46
# %bb.45:                               # %if.then285
                                        #   in Loop: Header=BB20_39 Depth=3
	movslq	-44(%rbp), %rax
	shlq	$6, %rax
	movabsq	$LevelScale4x4Luma_Intra, %rcx
	addq	%rax, %rcx
	movslq	-40(%rbp), %rax
	shlq	$4, %rax
	addq	%rax, %rcx
	movslq	-36(%rbp), %rax
	movl	(%rcx,%rax,4), %eax
	movslq	-44(%rbp), %rcx
	shlq	$6, %rcx
	movabsq	$LevelScale4x4Chroma_Intra, %rdx
	addq	%rcx, %rdx
	movslq	-40(%rbp), %rcx
	shlq	$4, %rcx
	addq	%rcx, %rdx
	movslq	-36(%rbp), %rcx
	movl	%eax, (%rdx,%rcx,4)
	movslq	-44(%rbp), %rax
	shlq	$6, %rax
	movabsq	$InvLevelScale4x4Luma_Intra, %rcx
	addq	%rax, %rcx
	movslq	-40(%rbp), %rax
	shlq	$4, %rax
	addq	%rax, %rcx
	movslq	-36(%rbp), %rax
	movl	(%rcx,%rax,4), %eax
	movslq	-44(%rbp), %rcx
	shlq	$6, %rcx
	movabsq	$InvLevelScale4x4Chroma_Intra, %rdx
	addq	%rcx, %rdx
	movslq	-40(%rbp), %rcx
	shlq	$4, %rcx
	addq	%rcx, %rdx
	movslq	-36(%rbp), %rcx
	movl	%eax, (%rdx,%rcx,4)
	jmp	.LBB20_53
.LBB20_46:                              # %if.else310
                                        #   in Loop: Header=BB20_39 Depth=3
	movslq	-44(%rbp), %rax
	shlq	$6, %rax
	movabsq	$quant_coef, %rcx
	addq	%rax, %rcx
	movslq	-40(%rbp), %rax
	shlq	$4, %rax
	addq	%rax, %rcx
	movslq	-36(%rbp), %rax
	movl	(%rcx,%rax,4), %eax
	shll	$4, %eax
	movswl	UseDefaultScalingMatrix4x4Flag+2, %ecx
	cmpl	$0, %ecx
	je	.LBB20_48
# %bb.47:                               # %cond.true
                                        #   in Loop: Header=BB20_39 Depth=3
	movslq	-48(%rbp), %rcx
	movswl	Quant_intra_default(,%rcx,2), %ecx
	jmp	.LBB20_49
.LBB20_48:                              # %cond.false
                                        #   in Loop: Header=BB20_39 Depth=3
	movslq	-48(%rbp), %rcx
	movswl	ScalingList4x4+32(,%rcx,2), %ecx
.LBB20_49:                              # %cond.end
                                        #   in Loop: Header=BB20_39 Depth=3
	cltd
	idivl	%ecx
	movslq	-44(%rbp), %rcx
	shlq	$6, %rcx
	movabsq	$LevelScale4x4Chroma_Intra, %rdx
	addq	%rcx, %rdx
	movslq	-40(%rbp), %rcx
	shlq	$4, %rcx
	addq	%rcx, %rdx
	movslq	-36(%rbp), %rcx
	movl	%eax, (%rdx,%rcx,4)
	movslq	-44(%rbp), %rax
	shlq	$6, %rax
	movabsq	$dequant_coef, %rcx
	addq	%rax, %rcx
	movslq	-40(%rbp), %rax
	shlq	$4, %rax
	addq	%rax, %rcx
	movslq	-36(%rbp), %rax
	movl	(%rcx,%rax,4), %eax
	movswl	UseDefaultScalingMatrix4x4Flag+2, %ecx
	cmpl	$0, %ecx
	je	.LBB20_51
# %bb.50:                               # %cond.true341
                                        #   in Loop: Header=BB20_39 Depth=3
	movslq	-48(%rbp), %rcx
	movswl	Quant_intra_default(,%rcx,2), %ecx
	jmp	.LBB20_52
.LBB20_51:                              # %cond.false345
                                        #   in Loop: Header=BB20_39 Depth=3
	movslq	-48(%rbp), %rcx
	movswl	ScalingList4x4+32(,%rcx,2), %ecx
.LBB20_52:                              # %cond.end349
                                        #   in Loop: Header=BB20_39 Depth=3
	imull	%ecx, %eax
	movslq	-44(%rbp), %rcx
	shlq	$6, %rcx
	movabsq	$InvLevelScale4x4Chroma_Intra, %rdx
	addq	%rcx, %rdx
	movslq	-40(%rbp), %rcx
	shlq	$4, %rcx
	addq	%rcx, %rdx
	movslq	-36(%rbp), %rcx
	movl	%eax, (%rdx,%rcx,4)
.LBB20_53:                              # %if.end358
                                        #   in Loop: Header=BB20_39 Depth=3
	cmpl	$0, -72(%rbp)
	jne	.LBB20_55
# %bb.54:                               # %if.then361
                                        #   in Loop: Header=BB20_39 Depth=3
	movabsq	$InvLevelScale4x4Chroma_Intra, %rcx
	movq	%rcx, %rax
	addq	$384, %rax              # imm = 0x180
	movabsq	$LevelScale4x4Chroma_Intra, %rdx
	movq	%rdx, %rsi
	addq	$384, %rsi              # imm = 0x180
	movslq	-44(%rbp), %rdi
	shlq	$6, %rdi
	addq	%rdi, %rdx
	movslq	-40(%rbp), %rdi
	shlq	$4, %rdi
	addq	%rdi, %rdx
	movslq	-36(%rbp), %rdi
	movl	(%rdx,%rdi,4), %edx
	movslq	-44(%rbp), %rdi
	shlq	$6, %rdi
	addq	%rdi, %rsi
	movslq	-40(%rbp), %rdi
	shlq	$4, %rdi
	addq	%rdi, %rsi
	movslq	-36(%rbp), %rdi
	movl	%edx, (%rsi,%rdi,4)
	movslq	-44(%rbp), %rdx
	shlq	$6, %rdx
	addq	%rdx, %rcx
	movslq	-40(%rbp), %rdx
	shlq	$4, %rdx
	addq	%rdx, %rcx
	movslq	-36(%rbp), %rdx
	movl	(%rcx,%rdx,4), %ecx
	movslq	-44(%rbp), %rdx
	shlq	$6, %rdx
	addq	%rdx, %rax
	movslq	-40(%rbp), %rdx
	shlq	$4, %rdx
	addq	%rdx, %rax
	movslq	-36(%rbp), %rdx
	movl	%ecx, (%rax,%rdx,4)
	jmp	.LBB20_62
.LBB20_55:                              # %if.else386
                                        #   in Loop: Header=BB20_39 Depth=3
	movslq	-44(%rbp), %rax
	shlq	$6, %rax
	movabsq	$quant_coef, %rcx
	addq	%rax, %rcx
	movslq	-40(%rbp), %rax
	shlq	$4, %rax
	addq	%rax, %rcx
	movslq	-36(%rbp), %rax
	movl	(%rcx,%rax,4), %eax
	shll	$4, %eax
	movswl	UseDefaultScalingMatrix4x4Flag+4, %ecx
	cmpl	$0, %ecx
	je	.LBB20_57
# %bb.56:                               # %cond.true396
                                        #   in Loop: Header=BB20_39 Depth=3
	movslq	-48(%rbp), %rcx
	movswl	Quant_intra_default(,%rcx,2), %ecx
	jmp	.LBB20_58
.LBB20_57:                              # %cond.false400
                                        #   in Loop: Header=BB20_39 Depth=3
	movslq	-48(%rbp), %rcx
	movswl	ScalingList4x4+64(,%rcx,2), %ecx
.LBB20_58:                              # %cond.end404
                                        #   in Loop: Header=BB20_39 Depth=3
	movabsq	$LevelScale4x4Chroma_Intra, %rsi
	addq	$384, %rsi              # imm = 0x180
	cltd
	idivl	%ecx
	movslq	-44(%rbp), %rcx
	shlq	$6, %rcx
	addq	%rcx, %rsi
	movslq	-40(%rbp), %rcx
	shlq	$4, %rcx
	addq	%rcx, %rsi
	movslq	-36(%rbp), %rcx
	movl	%eax, (%rsi,%rcx,4)
	movslq	-44(%rbp), %rax
	shlq	$6, %rax
	movabsq	$dequant_coef, %rcx
	addq	%rax, %rcx
	movslq	-40(%rbp), %rax
	shlq	$4, %rax
	addq	%rax, %rcx
	movslq	-36(%rbp), %rax
	movl	(%rcx,%rax,4), %eax
	movswl	UseDefaultScalingMatrix4x4Flag+4, %ecx
	cmpl	$0, %ecx
	je	.LBB20_60
# %bb.59:                               # %cond.true421
                                        #   in Loop: Header=BB20_39 Depth=3
	movslq	-48(%rbp), %rcx
	movswl	Quant_intra_default(,%rcx,2), %ecx
	jmp	.LBB20_61
.LBB20_60:                              # %cond.false425
                                        #   in Loop: Header=BB20_39 Depth=3
	movslq	-48(%rbp), %rcx
	movswl	ScalingList4x4+64(,%rcx,2), %ecx
.LBB20_61:                              # %cond.end429
                                        #   in Loop: Header=BB20_39 Depth=3
	movabsq	$InvLevelScale4x4Chroma_Intra, %rdx
	addq	$384, %rdx              # imm = 0x180
	imull	%ecx, %eax
	movslq	-44(%rbp), %rcx
	shlq	$6, %rcx
	addq	%rcx, %rdx
	movslq	-40(%rbp), %rcx
	shlq	$4, %rcx
	addq	%rcx, %rdx
	movslq	-36(%rbp), %rcx
	movl	%eax, (%rdx,%rcx,4)
.LBB20_62:                              # %if.end438
                                        #   in Loop: Header=BB20_39 Depth=3
	cmpl	$0, -68(%rbp)
	je	.LBB20_64
# %bb.63:                               # %lor.lhs.false441
                                        #   in Loop: Header=BB20_39 Depth=3
	movswl	UseDefaultScalingMatrix4x4Flag+6, %eax
	cmpl	$0, %eax
	je	.LBB20_65
.LBB20_64:                              # %if.then444
                                        #   in Loop: Header=BB20_39 Depth=3
	movslq	-44(%rbp), %rax
	shlq	$6, %rax
	movabsq	$quant_coef, %rcx
	addq	%rax, %rcx
	movslq	-40(%rbp), %rax
	shlq	$4, %rax
	addq	%rax, %rcx
	movslq	-36(%rbp), %rax
	movl	(%rcx,%rax,4), %eax
	shll	$4, %eax
	movslq	-48(%rbp), %rcx
	movswl	Quant_inter_default(,%rcx,2), %ecx
	cltd
	idivl	%ecx
	movslq	-44(%rbp), %rcx
	shlq	$6, %rcx
	movabsq	$LevelScale4x4Luma_Inter, %rdx
	addq	%rcx, %rdx
	movslq	-40(%rbp), %rcx
	shlq	$4, %rcx
	addq	%rcx, %rdx
	movslq	-36(%rbp), %rcx
	movl	%eax, (%rdx,%rcx,4)
	movslq	-44(%rbp), %rax
	shlq	$6, %rax
	movabsq	$dequant_coef, %rcx
	addq	%rax, %rcx
	movslq	-40(%rbp), %rax
	shlq	$4, %rax
	addq	%rax, %rcx
	movslq	-36(%rbp), %rax
	movl	(%rcx,%rax,4), %eax
	movslq	-48(%rbp), %rcx
	movswl	Quant_inter_default(,%rcx,2), %ecx
	imull	%ecx, %eax
	movslq	-44(%rbp), %rcx
	shlq	$6, %rcx
	movabsq	$InvLevelScale4x4Luma_Inter, %rdx
	addq	%rcx, %rdx
	movslq	-40(%rbp), %rcx
	shlq	$4, %rcx
	addq	%rcx, %rdx
	movslq	-36(%rbp), %rcx
	movl	%eax, (%rdx,%rcx,4)
	jmp	.LBB20_66
.LBB20_65:                              # %if.else478
                                        #   in Loop: Header=BB20_39 Depth=3
	movslq	-44(%rbp), %rax
	shlq	$6, %rax
	movabsq	$quant_coef, %rcx
	addq	%rax, %rcx
	movslq	-40(%rbp), %rax
	shlq	$4, %rax
	addq	%rax, %rcx
	movslq	-36(%rbp), %rax
	movl	(%rcx,%rax,4), %eax
	shll	$4, %eax
	movslq	-48(%rbp), %rcx
	movswl	ScalingList4x4+96(,%rcx,2), %ecx
	cltd
	idivl	%ecx
	movslq	-44(%rbp), %rcx
	shlq	$6, %rcx
	movabsq	$LevelScale4x4Luma_Inter, %rdx
	addq	%rcx, %rdx
	movslq	-40(%rbp), %rcx
	shlq	$4, %rcx
	addq	%rcx, %rdx
	movslq	-36(%rbp), %rcx
	movl	%eax, (%rdx,%rcx,4)
	movslq	-44(%rbp), %rax
	shlq	$6, %rax
	movabsq	$dequant_coef, %rcx
	addq	%rax, %rcx
	movslq	-40(%rbp), %rax
	shlq	$4, %rax
	addq	%rax, %rcx
	movslq	-36(%rbp), %rax
	movl	(%rcx,%rax,4), %eax
	movslq	-48(%rbp), %rcx
	movswl	ScalingList4x4+96(,%rcx,2), %ecx
	imull	%ecx, %eax
	movslq	-44(%rbp), %rcx
	shlq	$6, %rcx
	movabsq	$InvLevelScale4x4Luma_Inter, %rdx
	addq	%rcx, %rdx
	movslq	-40(%rbp), %rcx
	shlq	$4, %rcx
	addq	%rcx, %rdx
	movslq	-36(%rbp), %rcx
	movl	%eax, (%rdx,%rcx,4)
.LBB20_66:                              # %if.end512
                                        #   in Loop: Header=BB20_39 Depth=3
	cmpl	$0, -64(%rbp)
	jne	.LBB20_68
# %bb.67:                               # %if.then515
                                        #   in Loop: Header=BB20_39 Depth=3
	movslq	-44(%rbp), %rax
	shlq	$6, %rax
	movabsq	$LevelScale4x4Luma_Inter, %rcx
	addq	%rax, %rcx
	movslq	-40(%rbp), %rax
	shlq	$4, %rax
	addq	%rax, %rcx
	movslq	-36(%rbp), %rax
	movl	(%rcx,%rax,4), %eax
	movslq	-44(%rbp), %rcx
	shlq	$6, %rcx
	movabsq	$LevelScale4x4Chroma_Inter, %rdx
	addq	%rcx, %rdx
	movslq	-40(%rbp), %rcx
	shlq	$4, %rcx
	addq	%rcx, %rdx
	movslq	-36(%rbp), %rcx
	movl	%eax, (%rdx,%rcx,4)
	movslq	-44(%rbp), %rax
	shlq	$6, %rax
	movabsq	$InvLevelScale4x4Luma_Inter, %rcx
	addq	%rax, %rcx
	movslq	-40(%rbp), %rax
	shlq	$4, %rax
	addq	%rax, %rcx
	movslq	-36(%rbp), %rax
	movl	(%rcx,%rax,4), %eax
	movslq	-44(%rbp), %rcx
	shlq	$6, %rcx
	movabsq	$InvLevelScale4x4Chroma_Inter, %rdx
	addq	%rcx, %rdx
	movslq	-40(%rbp), %rcx
	shlq	$4, %rcx
	addq	%rcx, %rdx
	movslq	-36(%rbp), %rcx
	movl	%eax, (%rdx,%rcx,4)
	jmp	.LBB20_75
.LBB20_68:                              # %if.else540
                                        #   in Loop: Header=BB20_39 Depth=3
	movslq	-44(%rbp), %rax
	shlq	$6, %rax
	movabsq	$quant_coef, %rcx
	addq	%rax, %rcx
	movslq	-40(%rbp), %rax
	shlq	$4, %rax
	addq	%rax, %rcx
	movslq	-36(%rbp), %rax
	movl	(%rcx,%rax,4), %eax
	shll	$4, %eax
	movswl	UseDefaultScalingMatrix4x4Flag+8, %ecx
	cmpl	$0, %ecx
	je	.LBB20_70
# %bb.69:                               # %cond.true550
                                        #   in Loop: Header=BB20_39 Depth=3
	movslq	-48(%rbp), %rcx
	movswl	Quant_inter_default(,%rcx,2), %ecx
	jmp	.LBB20_71
.LBB20_70:                              # %cond.false554
                                        #   in Loop: Header=BB20_39 Depth=3
	movslq	-48(%rbp), %rcx
	movswl	ScalingList4x4+128(,%rcx,2), %ecx
.LBB20_71:                              # %cond.end558
                                        #   in Loop: Header=BB20_39 Depth=3
	cltd
	idivl	%ecx
	movslq	-44(%rbp), %rcx
	shlq	$6, %rcx
	movabsq	$LevelScale4x4Chroma_Inter, %rdx
	addq	%rcx, %rdx
	movslq	-40(%rbp), %rcx
	shlq	$4, %rcx
	addq	%rcx, %rdx
	movslq	-36(%rbp), %rcx
	movl	%eax, (%rdx,%rcx,4)
	movslq	-44(%rbp), %rax
	shlq	$6, %rax
	movabsq	$dequant_coef, %rcx
	addq	%rax, %rcx
	movslq	-40(%rbp), %rax
	shlq	$4, %rax
	addq	%rax, %rcx
	movslq	-36(%rbp), %rax
	movl	(%rcx,%rax,4), %eax
	movswl	UseDefaultScalingMatrix4x4Flag+8, %ecx
	cmpl	$0, %ecx
	je	.LBB20_73
# %bb.72:                               # %cond.true575
                                        #   in Loop: Header=BB20_39 Depth=3
	movslq	-48(%rbp), %rcx
	movswl	Quant_inter_default(,%rcx,2), %ecx
	jmp	.LBB20_74
.LBB20_73:                              # %cond.false579
                                        #   in Loop: Header=BB20_39 Depth=3
	movslq	-48(%rbp), %rcx
	movswl	ScalingList4x4+128(,%rcx,2), %ecx
.LBB20_74:                              # %cond.end583
                                        #   in Loop: Header=BB20_39 Depth=3
	imull	%ecx, %eax
	movslq	-44(%rbp), %rcx
	shlq	$6, %rcx
	movabsq	$InvLevelScale4x4Chroma_Inter, %rdx
	addq	%rcx, %rdx
	movslq	-40(%rbp), %rcx
	shlq	$4, %rcx
	addq	%rcx, %rdx
	movslq	-36(%rbp), %rcx
	movl	%eax, (%rdx,%rcx,4)
.LBB20_75:                              # %if.end592
                                        #   in Loop: Header=BB20_39 Depth=3
	cmpl	$0, -60(%rbp)
	jne	.LBB20_77
# %bb.76:                               # %if.then595
                                        #   in Loop: Header=BB20_39 Depth=3
	movabsq	$InvLevelScale4x4Chroma_Inter, %rcx
	movq	%rcx, %rax
	addq	$384, %rax              # imm = 0x180
	movabsq	$LevelScale4x4Chroma_Inter, %rdx
	movq	%rdx, %rsi
	addq	$384, %rsi              # imm = 0x180
	movslq	-44(%rbp), %rdi
	shlq	$6, %rdi
	addq	%rdi, %rdx
	movslq	-40(%rbp), %rdi
	shlq	$4, %rdi
	addq	%rdi, %rdx
	movslq	-36(%rbp), %rdi
	movl	(%rdx,%rdi,4), %edx
	movslq	-44(%rbp), %rdi
	shlq	$6, %rdi
	addq	%rdi, %rsi
	movslq	-40(%rbp), %rdi
	shlq	$4, %rdi
	addq	%rdi, %rsi
	movslq	-36(%rbp), %rdi
	movl	%edx, (%rsi,%rdi,4)
	movslq	-44(%rbp), %rdx
	shlq	$6, %rdx
	addq	%rdx, %rcx
	movslq	-40(%rbp), %rdx
	shlq	$4, %rdx
	addq	%rdx, %rcx
	movslq	-36(%rbp), %rdx
	movl	(%rcx,%rdx,4), %ecx
	movslq	-44(%rbp), %rdx
	shlq	$6, %rdx
	addq	%rdx, %rax
	movslq	-40(%rbp), %rdx
	shlq	$4, %rdx
	addq	%rdx, %rax
	movslq	-36(%rbp), %rdx
	movl	%ecx, (%rax,%rdx,4)
	jmp	.LBB20_84
.LBB20_77:                              # %if.else620
                                        #   in Loop: Header=BB20_39 Depth=3
	movslq	-44(%rbp), %rax
	shlq	$6, %rax
	movabsq	$quant_coef, %rcx
	addq	%rax, %rcx
	movslq	-40(%rbp), %rax
	shlq	$4, %rax
	addq	%rax, %rcx
	movslq	-36(%rbp), %rax
	movl	(%rcx,%rax,4), %eax
	shll	$4, %eax
	movswl	UseDefaultScalingMatrix4x4Flag+10, %ecx
	cmpl	$0, %ecx
	je	.LBB20_79
# %bb.78:                               # %cond.true630
                                        #   in Loop: Header=BB20_39 Depth=3
	movslq	-48(%rbp), %rcx
	movswl	Quant_inter_default(,%rcx,2), %ecx
	jmp	.LBB20_80
.LBB20_79:                              # %cond.false634
                                        #   in Loop: Header=BB20_39 Depth=3
	movslq	-48(%rbp), %rcx
	movswl	ScalingList4x4+160(,%rcx,2), %ecx
.LBB20_80:                              # %cond.end638
                                        #   in Loop: Header=BB20_39 Depth=3
	movabsq	$LevelScale4x4Chroma_Inter, %rsi
	addq	$384, %rsi              # imm = 0x180
	cltd
	idivl	%ecx
	movslq	-44(%rbp), %rcx
	shlq	$6, %rcx
	addq	%rcx, %rsi
	movslq	-40(%rbp), %rcx
	shlq	$4, %rcx
	addq	%rcx, %rsi
	movslq	-36(%rbp), %rcx
	movl	%eax, (%rsi,%rcx,4)
	movslq	-44(%rbp), %rax
	shlq	$6, %rax
	movabsq	$dequant_coef, %rcx
	addq	%rax, %rcx
	movslq	-40(%rbp), %rax
	shlq	$4, %rax
	addq	%rax, %rcx
	movslq	-36(%rbp), %rax
	movl	(%rcx,%rax,4), %eax
	movswl	UseDefaultScalingMatrix4x4Flag+10, %ecx
	cmpl	$0, %ecx
	je	.LBB20_82
# %bb.81:                               # %cond.true655
                                        #   in Loop: Header=BB20_39 Depth=3
	movslq	-48(%rbp), %rcx
	movswl	Quant_inter_default(,%rcx,2), %ecx
	jmp	.LBB20_83
.LBB20_82:                              # %cond.false659
                                        #   in Loop: Header=BB20_39 Depth=3
	movslq	-48(%rbp), %rcx
	movswl	ScalingList4x4+160(,%rcx,2), %ecx
.LBB20_83:                              # %cond.end663
                                        #   in Loop: Header=BB20_39 Depth=3
	movabsq	$InvLevelScale4x4Chroma_Inter, %rdx
	addq	$384, %rdx              # imm = 0x180
	imull	%ecx, %eax
	movslq	-44(%rbp), %rcx
	shlq	$6, %rcx
	addq	%rcx, %rdx
	movslq	-40(%rbp), %rcx
	shlq	$4, %rcx
	addq	%rcx, %rdx
	movslq	-36(%rbp), %rcx
	movl	%eax, (%rdx,%rcx,4)
.LBB20_84:                              # %if.end672
                                        #   in Loop: Header=BB20_39 Depth=3
	jmp	.LBB20_85
.LBB20_85:                              # %for.inc673
                                        #   in Loop: Header=BB20_39 Depth=3
	movl	-36(%rbp), %eax
	addl	$1, %eax
	movl	%eax, -36(%rbp)
	jmp	.LBB20_39
.LBB20_86:                              # %for.end675
                                        #   in Loop: Header=BB20_37 Depth=2
	jmp	.LBB20_87
.LBB20_87:                              # %for.inc676
                                        #   in Loop: Header=BB20_37 Depth=2
	movl	-40(%rbp), %eax
	addl	$1, %eax
	movl	%eax, -40(%rbp)
	jmp	.LBB20_37
.LBB20_88:                              # %for.end678
                                        #   in Loop: Header=BB20_35 Depth=1
	jmp	.LBB20_89
.LBB20_89:                              # %for.inc679
                                        #   in Loop: Header=BB20_35 Depth=1
	movl	-44(%rbp), %eax
	addl	$1, %eax
	movl	%eax, -44(%rbp)
	jmp	.LBB20_35
.LBB20_90:                              # %for.end681
	jmp	.LBB20_91
.LBB20_91:                              # %if.end682
	cmpl	$347738105, -56(%rbp)   # imm = 0x14BA0FF9
	jne	.LBB20_93
.LBB20_92:
	addq	$48, %rsp
	popq	%rbx
	popq	%r12
	popq	%r14
	popq	%r15
	popq	%rbp
	.cfi_def_cfa %rsp, 8
	retq
.LBB20_93:                              # %func_exit
	.cfi_def_cfa %rbp, 16
	callq	detect_breach
	jmp	.LBB20_92
.Lfunc_end20:
	.size	CalculateQuantParam.15, .Lfunc_end20-CalculateQuantParam.15
	.cfi_endproc
                                        # -- End function
	.globl	ParseMatrix.16          # -- Begin function ParseMatrix.16
	.p2align	4, 0x90
	.type	ParseMatrix.16,@function
ParseMatrix.16:                         # @ParseMatrix.16
	.cfi_startproc
# %bb.0:                                # %entry
	pushq	%rbp
	.cfi_def_cfa_offset 16
	.cfi_offset %rbp, -16
	movq	%rsp, %rbp
	.cfi_def_cfa_register %rbp
	subq	$8096, %rsp             # imm = 0x1FA0
	movl	$700723465, -48(%rbp)   # imm = 0x29C43109
	movq	%rdi, -88(%rbp)
	movl	%esi, -52(%rbp)
	movl	$0, -32(%rbp)
	movl	$0, -36(%rbp)
	movl	$0, -20(%rbp)
	movq	-88(%rbp), %rax
	movq	%rax, -16(%rbp)
	movq	-88(%rbp), %rax
	movslq	-52(%rbp), %rcx
	addq	%rcx, %rax
	movq	%rax, -72(%rbp)
.LBB21_1:                               # %while.cond
                                        # =>This Loop Header: Depth=1
                                        #     Child Loop BB21_6 Depth 2
	movq	-16(%rbp), %rax
	cmpq	-72(%rbp), %rax
	jae	.LBB21_25
# %bb.2:                                # %while.body
                                        #   in Loop: Header=BB21_1 Depth=1
	movq	-16(%rbp), %rax
	movsbl	(%rax), %eax
	addl	$-9, %eax
	movl	%eax, %ecx
	subl	$35, %ecx
	ja	.LBB21_21
# %bb.3:                                # %while.body
                                        #   in Loop: Header=BB21_1 Depth=1
	movq	.LJTI21_0(,%rax,8), %rax
	jmpq	*%rax
.LBB21_4:                               # %sw.bb
                                        #   in Loop: Header=BB21_1 Depth=1
	movq	-16(%rbp), %rax
	addq	$1, %rax
	movq	%rax, -16(%rbp)
	jmp	.LBB21_24
.LBB21_5:                               # %sw.bb1
                                        #   in Loop: Header=BB21_1 Depth=1
	movq	-16(%rbp), %rax
	movb	$0, (%rax)
.LBB21_6:                               # %while.cond2
                                        #   Parent Loop BB21_1 Depth=1
                                        # =>  This Inner Loop Header: Depth=2
	xorl	%eax, %eax
	movq	-16(%rbp), %rcx
	movsbl	(%rcx), %ecx
	cmpl	$10, %ecx
	je	.LBB21_8
# %bb.7:                                # %land.rhs
                                        #   in Loop: Header=BB21_6 Depth=2
	movq	-16(%rbp), %rax
	cmpq	-72(%rbp), %rax
	setb	%al
.LBB21_8:                               # %land.end
                                        #   in Loop: Header=BB21_6 Depth=2
	testb	$1, %al
	jne	.LBB21_9
	jmp	.LBB21_10
.LBB21_9:                               # %while.body8
                                        #   in Loop: Header=BB21_6 Depth=2
	movq	-16(%rbp), %rax
	addq	$1, %rax
	movq	%rax, -16(%rbp)
	jmp	.LBB21_6
.LBB21_10:                              # %while.end
                                        #   in Loop: Header=BB21_1 Depth=1
	movl	$0, -36(%rbp)
	movl	$0, -20(%rbp)
	jmp	.LBB21_24
.LBB21_11:                              # %sw.bb10
                                        #   in Loop: Header=BB21_1 Depth=1
	movl	$0, -20(%rbp)
	movl	$0, -36(%rbp)
	movq	-16(%rbp), %rax
	movq	%rax, %rcx
	addq	$1, %rcx
	movq	%rcx, -16(%rbp)
	movb	$0, (%rax)
	jmp	.LBB21_24
.LBB21_12:                              # %sw.bb12
                                        #   in Loop: Header=BB21_1 Depth=1
	cmpl	$0, -36(%rbp)
	je	.LBB21_14
# %bb.13:                               # %if.then
                                        #   in Loop: Header=BB21_1 Depth=1
	movq	-16(%rbp), %rax
	addq	$1, %rax
	movq	%rax, -16(%rbp)
	jmp	.LBB21_15
.LBB21_14:                              # %if.else
                                        #   in Loop: Header=BB21_1 Depth=1
	movq	-16(%rbp), %rax
	movq	%rax, %rcx
	addq	$1, %rcx
	movq	%rcx, -16(%rbp)
	movb	$0, (%rax)
	movl	$0, -20(%rbp)
.LBB21_15:                              # %if.end
                                        #   in Loop: Header=BB21_1 Depth=1
	jmp	.LBB21_24
.LBB21_16:                              # %sw.bb15
                                        #   in Loop: Header=BB21_1 Depth=1
	movq	-16(%rbp), %rax
	movq	%rax, %rcx
	addq	$1, %rcx
	movq	%rcx, -16(%rbp)
	movb	$0, (%rax)
	cmpl	$0, -36(%rbp)
	jne	.LBB21_18
# %bb.17:                               # %if.then18
                                        #   in Loop: Header=BB21_1 Depth=1
	movq	-16(%rbp), %rax
	movl	-32(%rbp), %ecx
	movl	%ecx, %edx
	addl	$1, %edx
	movl	%edx, -32(%rbp)
	movslq	%ecx, %rcx
	movq	%rax, -8096(%rbp,%rcx,8)
	movl	-20(%rbp), %eax
	xorl	$-1, %eax
	movl	%eax, -20(%rbp)
	jmp	.LBB21_19
.LBB21_18:                              # %if.else21
                                        #   in Loop: Header=BB21_1 Depth=1
	movl	$0, -20(%rbp)
.LBB21_19:                              # %if.end22
                                        #   in Loop: Header=BB21_1 Depth=1
	movl	-36(%rbp), %eax
	xorl	$-1, %eax
	movl	%eax, -36(%rbp)
	jmp	.LBB21_24
.LBB21_20:                              # %sw.bb24
                                        #   in Loop: Header=BB21_1 Depth=1
	movq	-16(%rbp), %rax
	addq	$1, %rax
	movq	%rax, -16(%rbp)
	movl	$0, -20(%rbp)
	jmp	.LBB21_24
.LBB21_21:                              # %sw.default
                                        #   in Loop: Header=BB21_1 Depth=1
	cmpl	$0, -20(%rbp)
	jne	.LBB21_23
# %bb.22:                               # %if.then27
                                        #   in Loop: Header=BB21_1 Depth=1
	movq	-16(%rbp), %rax
	movl	-32(%rbp), %ecx
	movl	%ecx, %edx
	addl	$1, %edx
	movl	%edx, -32(%rbp)
	movslq	%ecx, %rcx
	movq	%rax, -8096(%rbp,%rcx,8)
	movl	-20(%rbp), %eax
	xorl	$-1, %eax
	movl	%eax, -20(%rbp)
.LBB21_23:                              # %if.end32
                                        #   in Loop: Header=BB21_1 Depth=1
	movq	-16(%rbp), %rax
	addq	$1, %rax
	movq	%rax, -16(%rbp)
.LBB21_24:                              # %sw.epilog
                                        #   in Loop: Header=BB21_1 Depth=1
	jmp	.LBB21_1
.LBB21_25:                              # %while.end34
	movl	-32(%rbp), %eax
	addl	$-1, %eax
	movl	%eax, -32(%rbp)
	movl	$0, -24(%rbp)
.LBB21_26:                              # %for.cond
                                        # =>This Loop Header: Depth=1
                                        #     Child Loop BB21_35 Depth 2
	movl	-24(%rbp), %eax
	cmpl	-32(%rbp), %eax
	jge	.LBB21_42
# %bb.27:                               # %for.body
                                        #   in Loop: Header=BB21_26 Depth=1
	movl	$0, -4(%rbp)
	movl	-24(%rbp), %eax
	addl	-4(%rbp), %eax
	cltq
	movq	-8096(%rbp,%rax,8), %rdi
	leaq	-56(%rbp), %rsi
	callq	CheckParameterName
	xorl	%ecx, %ecx
	movl	%eax, -40(%rbp)
	cmpl	%eax, %ecx
	jle	.LBB21_29
# %bb.28:                               # %if.then41
                                        #   in Loop: Header=BB21_26 Depth=1
	movl	-24(%rbp), %eax
	addl	-4(%rbp), %eax
	cltq
	movq	-8096(%rbp,%rax,8), %rcx
	movabsq	$errortext, %rdi
	movl	$300, %esi              # imm = 0x12C
	movabsq	$.L.str, %rdx
	movb	$0, %al
	callq	snprintf
	movabsq	$errortext, %rdi
	movl	$300, %esi              # imm = 0x12C
	callq	error
.LBB21_29:                              # %if.end46
                                        #   in Loop: Header=BB21_26 Depth=1
	movl	-4(%rbp), %eax
	addl	$1, %eax
	movl	%eax, -4(%rbp)
	movl	-24(%rbp), %eax
	addl	-4(%rbp), %eax
	cltq
	movq	-8096(%rbp,%rax,8), %rsi
	movl	$.L.str.1, %edi
	callq	strcmp
	cmpl	$0, %eax
	je	.LBB21_31
# %bb.30:                               # %if.then53
                                        #   in Loop: Header=BB21_26 Depth=1
	movabsq	$errortext, %rdi
	movl	$300, %esi              # imm = 0x12C
	movabsq	$.L.str.2, %rdx
	movb	$0, %al
	callq	snprintf
	movabsq	$errortext, %rdi
	movl	$300, %esi              # imm = 0x12C
	callq	error
.LBB21_31:                              # %if.end55
                                        #   in Loop: Header=BB21_26 Depth=1
	movl	-4(%rbp), %eax
	addl	$1, %eax
	movl	%eax, -4(%rbp)
	cmpl	$0, -56(%rbp)
	jne	.LBB21_33
# %bb.32:                               # %if.then58
                                        #   in Loop: Header=BB21_26 Depth=1
	movl	$16, -44(%rbp)
	movslq	-40(%rbp), %rax
	shlq	$5, %rax
	movabsq	$ScalingList4x4input, %rcx
	addq	%rax, %rcx
	movq	%rcx, -80(%rbp)
	movslq	-40(%rbp), %rax
	movl	$1, matrix4x4_check(,%rax,4)
	jmp	.LBB21_34
.LBB21_33:                              # %if.else63
                                        #   in Loop: Header=BB21_26 Depth=1
	movl	$64, -44(%rbp)
	movslq	-40(%rbp), %rax
	shlq	$7, %rax
	movabsq	$ScalingList8x8input, %rcx
	addq	%rax, %rcx
	movq	%rcx, -80(%rbp)
	movslq	-40(%rbp), %rax
	movl	$1, matrix8x8_check(,%rax,4)
.LBB21_34:                              # %if.end69
                                        #   in Loop: Header=BB21_26 Depth=1
	movl	$0, -28(%rbp)
.LBB21_35:                              # %for.cond70
                                        #   Parent Loop BB21_26 Depth=1
                                        # =>  This Inner Loop Header: Depth=2
	movl	-28(%rbp), %eax
	cmpl	-44(%rbp), %eax
	jge	.LBB21_40
# %bb.36:                               # %for.body73
                                        #   in Loop: Header=BB21_35 Depth=2
	movl	-24(%rbp), %eax
	addl	-4(%rbp), %eax
	addl	-28(%rbp), %eax
	cltq
	movq	-8096(%rbp,%rax,8), %rdi
	movabsq	$.L.str.3, %rsi
	leaq	-60(%rbp), %rdx
	movb	$0, %al
	callq	__isoc99_sscanf
	movl	$1, %ecx
	cmpl	%eax, %ecx
	je	.LBB21_38
# %bb.37:                               # %if.then81
                                        #   in Loop: Header=BB21_35 Depth=2
	movslq	-24(%rbp), %rax
	movq	-8096(%rbp,%rax,8), %rcx
	movl	-24(%rbp), %eax
	addl	-4(%rbp), %eax
	addl	-28(%rbp), %eax
	cltq
	movq	-8096(%rbp,%rax,8), %r8
	movabsq	$errortext, %rdi
	movl	$300, %esi              # imm = 0x12C
	movabsq	$.L.str.4, %rdx
	movb	$0, %al
	callq	snprintf
	movabsq	$errortext, %rdi
	movl	$300, %esi              # imm = 0x12C
	callq	error
.LBB21_38:                              # %if.end89
                                        #   in Loop: Header=BB21_35 Depth=2
	movl	-60(%rbp), %eax
	movq	-80(%rbp), %rcx
	movslq	-28(%rbp), %rdx
	movw	%ax, (%rcx,%rdx,2)
# %bb.39:                               # %for.inc
                                        #   in Loop: Header=BB21_35 Depth=2
	movl	-28(%rbp), %eax
	addl	$1, %eax
	movl	%eax, -28(%rbp)
	jmp	.LBB21_35
.LBB21_40:                              # %for.end
                                        #   in Loop: Header=BB21_26 Depth=1
	movl	-28(%rbp), %eax
	addl	-4(%rbp), %eax
	movl	%eax, -4(%rbp)
	movabsq	$.L.str.5, %rdi
	movb	$0, %al
	callq	printf
# %bb.41:                               # %for.inc96
                                        #   in Loop: Header=BB21_26 Depth=1
	movl	-4(%rbp), %eax
	addl	-24(%rbp), %eax
	movl	%eax, -24(%rbp)
	jmp	.LBB21_26
.LBB21_42:                              # %for.end98
	cmpl	$700723465, -48(%rbp)   # imm = 0x29C43109
	jne	.LBB21_44
.LBB21_43:
	addq	$8096, %rsp             # imm = 0x1FA0
	popq	%rbp
	.cfi_def_cfa %rsp, 8
	retq
.LBB21_44:                              # %func_exit
	.cfi_def_cfa %rbp, 16
	callq	detect_breach
	jmp	.LBB21_43
.Lfunc_end21:
	.size	ParseMatrix.16, .Lfunc_end21-ParseMatrix.16
	.cfi_endproc
	.section	.rodata,"a",@progbits
	.p2align	3
.LJTI21_0:
	.quad	.LBB21_12
	.quad	.LBB21_11
	.quad	.LBB21_21
	.quad	.LBB21_21
	.quad	.LBB21_4
	.quad	.LBB21_21
	.quad	.LBB21_21
	.quad	.LBB21_21
	.quad	.LBB21_21
	.quad	.LBB21_21
	.quad	.LBB21_21
	.quad	.LBB21_21
	.quad	.LBB21_21
	.quad	.LBB21_21
	.quad	.LBB21_21
	.quad	.LBB21_21
	.quad	.LBB21_21
	.quad	.LBB21_21
	.quad	.LBB21_21
	.quad	.LBB21_21
	.quad	.LBB21_21
	.quad	.LBB21_21
	.quad	.LBB21_21
	.quad	.LBB21_12
	.quad	.LBB21_21
	.quad	.LBB21_16
	.quad	.LBB21_5
	.quad	.LBB21_21
	.quad	.LBB21_21
	.quad	.LBB21_21
	.quad	.LBB21_21
	.quad	.LBB21_21
	.quad	.LBB21_21
	.quad	.LBB21_21
	.quad	.LBB21_21
	.quad	.LBB21_20
                                        # -- End function
	.text
	.globl	CalculateQuantParam.17  # -- Begin function CalculateQuantParam.17
	.p2align	4, 0x90
	.type	CalculateQuantParam.17,@function
CalculateQuantParam.17:                 # @CalculateQuantParam.17
	.cfi_startproc
# %bb.0:                                # %entry
	pushq	%rbp
	.cfi_def_cfa_offset 16
	.cfi_offset %rbp, -16
	movq	%rsp, %rbp
	.cfi_def_cfa_register %rbp
	pushq	%r15
	pushq	%r14
	pushq	%r12
	pushq	%rbx
	subq	$48, %rsp
	.cfi_offset %rbx, -48
	.cfi_offset %r12, -40
	.cfi_offset %r14, -32
	.cfi_offset %r15, -24
	movl	$467794102, -56(%rbp)   # imm = 0x1BE1F8B6
	movl	$0, -52(%rbp)
	movq	active_sps, %rax
	cmpl	$0, 36(%rax)
	jne	.LBB22_3
# %bb.1:                                # %land.lhs.true
	movq	active_pps, %rax
	cmpl	$0, 20(%rax)
	jne	.LBB22_3
# %bb.2:                                # %if.then
	movl	$1, -52(%rbp)
	jmp	.LBB22_20
.LBB22_3:                               # %if.else
	leaq	-80(%rbp), %rdi
	xorl	%esi, %esi
	movl	$24, %edx
	callq	memset
	movq	active_sps, %rax
	cmpl	$0, 36(%rax)
	je	.LBB22_9
# %bb.4:                                # %if.then4
	movl	$0, -36(%rbp)
.LBB22_5:                               # %for.cond
                                        # =>This Inner Loop Header: Depth=1
	cmpl	$6, -36(%rbp)
	jge	.LBB22_8
# %bb.6:                                # %for.body
                                        #   in Loop: Header=BB22_5 Depth=1
	movq	active_sps, %rax
	movslq	-36(%rbp), %rcx
	movl	40(%rax,%rcx,4), %eax
	movslq	-36(%rbp), %rcx
	movl	%eax, -80(%rbp,%rcx,4)
# %bb.7:                                # %for.inc
                                        #   in Loop: Header=BB22_5 Depth=1
	movl	-36(%rbp), %eax
	addl	$1, %eax
	movl	%eax, -36(%rbp)
	jmp	.LBB22_5
.LBB22_8:                               # %for.end
	jmp	.LBB22_9
.LBB22_9:                               # %if.end
	movq	active_pps, %rax
	cmpl	$0, 20(%rax)
	je	.LBB22_19
# %bb.10:                               # %if.then9
	movl	$0, -36(%rbp)
.LBB22_11:                              # %for.cond10
                                        # =>This Inner Loop Header: Depth=1
	cmpl	$6, -36(%rbp)
	jge	.LBB22_18
# %bb.12:                               # %for.body12
                                        #   in Loop: Header=BB22_11 Depth=1
	cmpl	$0, -36(%rbp)
	je	.LBB22_14
# %bb.13:                               # %lor.lhs.false
                                        #   in Loop: Header=BB22_11 Depth=1
	cmpl	$3, -36(%rbp)
	jne	.LBB22_15
.LBB22_14:                              # %if.then15
                                        #   in Loop: Header=BB22_11 Depth=1
	movq	active_pps, %rax
	movslq	-36(%rbp), %rcx
	movl	24(%rax,%rcx,4), %eax
	movslq	-36(%rbp), %rcx
	orl	-80(%rbp,%rcx,4), %eax
	movl	%eax, -80(%rbp,%rcx,4)
	jmp	.LBB22_16
.LBB22_15:                              # %if.else20
                                        #   in Loop: Header=BB22_11 Depth=1
	movq	active_pps, %rax
	movslq	-36(%rbp), %rcx
	movl	24(%rax,%rcx,4), %eax
	movslq	-36(%rbp), %rcx
	movl	%eax, -80(%rbp,%rcx,4)
.LBB22_16:                              # %if.end26
                                        #   in Loop: Header=BB22_11 Depth=1
	jmp	.LBB22_17
.LBB22_17:                              # %for.inc27
                                        #   in Loop: Header=BB22_11 Depth=1
	movl	-36(%rbp), %eax
	addl	$1, %eax
	movl	%eax, -36(%rbp)
	jmp	.LBB22_11
.LBB22_18:                              # %for.end29
	jmp	.LBB22_19
.LBB22_19:                              # %if.end30
	jmp	.LBB22_20
.LBB22_20:                              # %if.end31
	cmpl	$1, -52(%rbp)
	jne	.LBB22_34
# %bb.21:                               # %if.then33
	movl	$0, -44(%rbp)
.LBB22_22:                              # %for.cond34
                                        # =>This Loop Header: Depth=1
                                        #     Child Loop BB22_24 Depth 2
                                        #       Child Loop BB22_26 Depth 3
	cmpl	$6, -44(%rbp)
	jge	.LBB22_33
# %bb.23:                               # %for.body36
                                        #   in Loop: Header=BB22_22 Depth=1
	movl	$0, -40(%rbp)
.LBB22_24:                              # %for.cond37
                                        #   Parent Loop BB22_22 Depth=1
                                        # =>  This Loop Header: Depth=2
                                        #       Child Loop BB22_26 Depth 3
	cmpl	$4, -40(%rbp)
	jge	.LBB22_31
# %bb.25:                               # %for.body39
                                        #   in Loop: Header=BB22_24 Depth=2
	movl	$0, -36(%rbp)
.LBB22_26:                              # %for.cond40
                                        #   Parent Loop BB22_22 Depth=1
                                        #     Parent Loop BB22_24 Depth=2
                                        # =>    This Inner Loop Header: Depth=3
	cmpl	$4, -36(%rbp)
	jge	.LBB22_29
# %bb.27:                               # %for.body42
                                        #   in Loop: Header=BB22_26 Depth=3
	movabsq	$InvLevelScale4x4Chroma_Inter, %r9
	movq	%r9, %r8
	addq	$384, %r8               # imm = 0x180
	movabsq	$LevelScale4x4Chroma_Inter, %r11
	movq	%r11, %r10
	addq	$384, %r10              # imm = 0x180
	movabsq	$InvLevelScale4x4Chroma_Intra, %rdx
	movq	%rdx, %r15
	addq	$384, %r15              # imm = 0x180
	movabsq	$LevelScale4x4Chroma_Intra, %rbx
	movq	%rbx, %rax
	addq	$384, %rax              # imm = 0x180
	movslq	-44(%rbp), %rdi
	shlq	$6, %rdi
	movabsq	$quant_coef, %r14
	movq	%r14, %rsi
	addq	%rdi, %rsi
	movslq	-40(%rbp), %rdi
	shlq	$4, %rdi
	addq	%rdi, %rsi
	movslq	-36(%rbp), %rdi
	movl	(%rsi,%rdi,4), %esi
	movslq	-44(%rbp), %rdi
	shlq	$6, %rdi
	movabsq	$LevelScale4x4Luma_Intra, %rcx
	addq	%rdi, %rcx
	movslq	-40(%rbp), %rdi
	shlq	$4, %rdi
	addq	%rdi, %rcx
	movslq	-36(%rbp), %rdi
	movl	%esi, (%rcx,%rdi,4)
	movslq	-44(%rbp), %rcx
	shlq	$6, %rcx
	movabsq	$dequant_coef, %r12
	movq	%r12, %rsi
	addq	%rcx, %rsi
	movslq	-40(%rbp), %rcx
	shlq	$4, %rcx
	addq	%rcx, %rsi
	movslq	-36(%rbp), %rcx
	movl	(%rsi,%rcx,4), %ecx
	shll	$4, %ecx
	movslq	-44(%rbp), %rsi
	shlq	$6, %rsi
	movabsq	$InvLevelScale4x4Luma_Intra, %rdi
	addq	%rsi, %rdi
	movslq	-40(%rbp), %rsi
	shlq	$4, %rsi
	addq	%rsi, %rdi
	movslq	-36(%rbp), %rsi
	movl	%ecx, (%rdi,%rsi,4)
	movslq	-44(%rbp), %rcx
	shlq	$6, %rcx
	movq	%r14, %rsi
	addq	%rcx, %rsi
	movslq	-40(%rbp), %rcx
	shlq	$4, %rcx
	addq	%rcx, %rsi
	movslq	-36(%rbp), %rcx
	movl	(%rsi,%rcx,4), %ecx
	movslq	-44(%rbp), %rsi
	shlq	$6, %rsi
	addq	%rsi, %rbx
	movslq	-40(%rbp), %rsi
	shlq	$4, %rsi
	addq	%rsi, %rbx
	movslq	-36(%rbp), %rsi
	movl	%ecx, (%rbx,%rsi,4)
	movslq	-44(%rbp), %rcx
	shlq	$6, %rcx
	movq	%r12, %rsi
	addq	%rcx, %rsi
	movslq	-40(%rbp), %rcx
	shlq	$4, %rcx
	addq	%rcx, %rsi
	movslq	-36(%rbp), %rcx
	movl	(%rsi,%rcx,4), %ecx
	shll	$4, %ecx
	movslq	-44(%rbp), %rsi
	shlq	$6, %rsi
	addq	%rsi, %rdx
	movslq	-40(%rbp), %rsi
	shlq	$4, %rsi
	addq	%rsi, %rdx
	movslq	-36(%rbp), %rsi
	movl	%ecx, (%rdx,%rsi,4)
	movslq	-44(%rbp), %rcx
	shlq	$6, %rcx
	movq	%r14, %rdx
	addq	%rcx, %rdx
	movslq	-40(%rbp), %rcx
	shlq	$4, %rcx
	addq	%rcx, %rdx
	movslq	-36(%rbp), %rcx
	movl	(%rdx,%rcx,4), %ecx
	movslq	-44(%rbp), %rdx
	shlq	$6, %rdx
	addq	%rdx, %rax
	movslq	-40(%rbp), %rdx
	shlq	$4, %rdx
	addq	%rdx, %rax
	movslq	-36(%rbp), %rdx
	movl	%ecx, (%rax,%rdx,4)
	movslq	-44(%rbp), %rax
	shlq	$6, %rax
	movq	%r12, %rcx
	addq	%rax, %rcx
	movslq	-40(%rbp), %rax
	shlq	$4, %rax
	addq	%rax, %rcx
	movslq	-36(%rbp), %rax
	movl	(%rcx,%rax,4), %eax
	shll	$4, %eax
	movslq	-44(%rbp), %rcx
	shlq	$6, %rcx
	addq	%rcx, %r15
	movslq	-40(%rbp), %rcx
	shlq	$4, %rcx
	addq	%rcx, %r15
	movslq	-36(%rbp), %rcx
	movl	%eax, (%r15,%rcx,4)
	movslq	-44(%rbp), %rax
	shlq	$6, %rax
	movq	%r14, %rcx
	addq	%rax, %rcx
	movslq	-40(%rbp), %rax
	shlq	$4, %rax
	addq	%rax, %rcx
	movslq	-36(%rbp), %rax
	movl	(%rcx,%rax,4), %eax
	movslq	-44(%rbp), %rcx
	shlq	$6, %rcx
	movabsq	$LevelScale4x4Luma_Inter, %rdx
	addq	%rcx, %rdx
	movslq	-40(%rbp), %rcx
	shlq	$4, %rcx
	addq	%rcx, %rdx
	movslq	-36(%rbp), %rcx
	movl	%eax, (%rdx,%rcx,4)
	movslq	-44(%rbp), %rax
	shlq	$6, %rax
	movq	%r12, %rcx
	addq	%rax, %rcx
	movslq	-40(%rbp), %rax
	shlq	$4, %rax
	addq	%rax, %rcx
	movslq	-36(%rbp), %rax
	movl	(%rcx,%rax,4), %eax
	shll	$4, %eax
	movslq	-44(%rbp), %rcx
	shlq	$6, %rcx
	movabsq	$InvLevelScale4x4Luma_Inter, %rdx
	addq	%rcx, %rdx
	movslq	-40(%rbp), %rcx
	shlq	$4, %rcx
	addq	%rcx, %rdx
	movslq	-36(%rbp), %rcx
	movl	%eax, (%rdx,%rcx,4)
	movslq	-44(%rbp), %rax
	shlq	$6, %rax
	movq	%r14, %rcx
	addq	%rax, %rcx
	movslq	-40(%rbp), %rax
	shlq	$4, %rax
	addq	%rax, %rcx
	movslq	-36(%rbp), %rax
	movl	(%rcx,%rax,4), %eax
	movslq	-44(%rbp), %rcx
	shlq	$6, %rcx
	addq	%rcx, %r11
	movslq	-40(%rbp), %rcx
	shlq	$4, %rcx
	addq	%rcx, %r11
	movslq	-36(%rbp), %rcx
	movl	%eax, (%r11,%rcx,4)
	movslq	-44(%rbp), %rax
	shlq	$6, %rax
	movq	%r12, %rcx
	addq	%rax, %rcx
	movslq	-40(%rbp), %rax
	shlq	$4, %rax
	addq	%rax, %rcx
	movslq	-36(%rbp), %rax
	movl	(%rcx,%rax,4), %eax
	shll	$4, %eax
	movslq	-44(%rbp), %rcx
	shlq	$6, %rcx
	addq	%rcx, %r9
	movslq	-40(%rbp), %rcx
	shlq	$4, %rcx
	addq	%rcx, %r9
	movslq	-36(%rbp), %rcx
	movl	%eax, (%r9,%rcx,4)
	movslq	-44(%rbp), %rax
	shlq	$6, %rax
	addq	%rax, %r14
	movslq	-40(%rbp), %rax
	shlq	$4, %rax
	addq	%rax, %r14
	movslq	-36(%rbp), %rax
	movl	(%r14,%rax,4), %eax
	movslq	-44(%rbp), %rcx
	shlq	$6, %rcx
	addq	%rcx, %r10
	movslq	-40(%rbp), %rcx
	shlq	$4, %rcx
	addq	%rcx, %r10
	movslq	-36(%rbp), %rcx
	movl	%eax, (%r10,%rcx,4)
	movslq	-44(%rbp), %rax
	shlq	$6, %rax
	addq	%rax, %r12
	movslq	-40(%rbp), %rax
	shlq	$4, %rax
	addq	%rax, %r12
	movslq	-36(%rbp), %rax
	movl	(%r12,%rax,4), %eax
	shll	$4, %eax
	movslq	-44(%rbp), %rcx
	shlq	$6, %rcx
	addq	%rcx, %r8
	movslq	-40(%rbp), %rcx
	shlq	$4, %rcx
	addq	%rcx, %r8
	movslq	-36(%rbp), %rcx
	movl	%eax, (%r8,%rcx,4)
# %bb.28:                               # %for.inc192
                                        #   in Loop: Header=BB22_26 Depth=3
	movl	-36(%rbp), %eax
	addl	$1, %eax
	movl	%eax, -36(%rbp)
	jmp	.LBB22_26
.LBB22_29:                              # %for.end194
                                        #   in Loop: Header=BB22_24 Depth=2
	jmp	.LBB22_30
.LBB22_30:                              # %for.inc195
                                        #   in Loop: Header=BB22_24 Depth=2
	movl	-40(%rbp), %eax
	addl	$1, %eax
	movl	%eax, -40(%rbp)
	jmp	.LBB22_24
.LBB22_31:                              # %for.end197
                                        #   in Loop: Header=BB22_22 Depth=1
	jmp	.LBB22_32
.LBB22_32:                              # %for.inc198
                                        #   in Loop: Header=BB22_22 Depth=1
	movl	-44(%rbp), %eax
	addl	$1, %eax
	movl	%eax, -44(%rbp)
	jmp	.LBB22_22
.LBB22_33:                              # %for.end200
	jmp	.LBB22_91
.LBB22_34:                              # %if.else201
	movl	$0, -44(%rbp)
.LBB22_35:                              # %for.cond202
                                        # =>This Loop Header: Depth=1
                                        #     Child Loop BB22_37 Depth 2
                                        #       Child Loop BB22_39 Depth 3
	cmpl	$6, -44(%rbp)
	jge	.LBB22_90
# %bb.36:                               # %for.body204
                                        #   in Loop: Header=BB22_35 Depth=1
	movl	$0, -40(%rbp)
.LBB22_37:                              # %for.cond205
                                        #   Parent Loop BB22_35 Depth=1
                                        # =>  This Loop Header: Depth=2
                                        #       Child Loop BB22_39 Depth 3
	cmpl	$4, -40(%rbp)
	jge	.LBB22_88
# %bb.38:                               # %for.body207
                                        #   in Loop: Header=BB22_37 Depth=2
	movl	$0, -36(%rbp)
.LBB22_39:                              # %for.cond208
                                        #   Parent Loop BB22_35 Depth=1
                                        #     Parent Loop BB22_37 Depth=2
                                        # =>    This Inner Loop Header: Depth=3
	cmpl	$4, -36(%rbp)
	jge	.LBB22_86
# %bb.40:                               # %for.body210
                                        #   in Loop: Header=BB22_39 Depth=3
	movl	-36(%rbp), %eax
	shll	$2, %eax
	addl	-40(%rbp), %eax
	movl	%eax, -48(%rbp)
	cmpl	$0, -80(%rbp)
	je	.LBB22_42
# %bb.41:                               # %lor.lhs.false214
                                        #   in Loop: Header=BB22_39 Depth=3
	movswl	UseDefaultScalingMatrix4x4Flag, %eax
	cmpl	$0, %eax
	je	.LBB22_43
.LBB22_42:                              # %if.then216
                                        #   in Loop: Header=BB22_39 Depth=3
	movslq	-44(%rbp), %rax
	shlq	$6, %rax
	movabsq	$quant_coef, %rcx
	addq	%rax, %rcx
	movslq	-40(%rbp), %rax
	shlq	$4, %rax
	addq	%rax, %rcx
	movslq	-36(%rbp), %rax
	movl	(%rcx,%rax,4), %eax
	shll	$4, %eax
	movslq	-48(%rbp), %rcx
	movswl	Quant_intra_default(,%rcx,2), %ecx
	cltd
	idivl	%ecx
	movslq	-44(%rbp), %rcx
	shlq	$6, %rcx
	movabsq	$LevelScale4x4Luma_Intra, %rdx
	addq	%rcx, %rdx
	movslq	-40(%rbp), %rcx
	shlq	$4, %rcx
	addq	%rcx, %rdx
	movslq	-36(%rbp), %rcx
	movl	%eax, (%rdx,%rcx,4)
	movslq	-44(%rbp), %rax
	shlq	$6, %rax
	movabsq	$dequant_coef, %rcx
	addq	%rax, %rcx
	movslq	-40(%rbp), %rax
	shlq	$4, %rax
	addq	%rax, %rcx
	movslq	-36(%rbp), %rax
	movl	(%rcx,%rax,4), %eax
	movslq	-48(%rbp), %rcx
	movswl	Quant_intra_default(,%rcx,2), %ecx
	imull	%ecx, %eax
	movslq	-44(%rbp), %rcx
	shlq	$6, %rcx
	movabsq	$InvLevelScale4x4Luma_Intra, %rdx
	addq	%rcx, %rdx
	movslq	-40(%rbp), %rcx
	shlq	$4, %rcx
	addq	%rcx, %rdx
	movslq	-36(%rbp), %rcx
	movl	%eax, (%rdx,%rcx,4)
	jmp	.LBB22_44
.LBB22_43:                              # %if.else248
                                        #   in Loop: Header=BB22_39 Depth=3
	movslq	-44(%rbp), %rax
	shlq	$6, %rax
	movabsq	$quant_coef, %rcx
	addq	%rax, %rcx
	movslq	-40(%rbp), %rax
	shlq	$4, %rax
	addq	%rax, %rcx
	movslq	-36(%rbp), %rax
	movl	(%rcx,%rax,4), %eax
	shll	$4, %eax
	movslq	-48(%rbp), %rcx
	movswl	ScalingList4x4(,%rcx,2), %ecx
	cltd
	idivl	%ecx
	movslq	-44(%rbp), %rcx
	shlq	$6, %rcx
	movabsq	$LevelScale4x4Luma_Intra, %rdx
	addq	%rcx, %rdx
	movslq	-40(%rbp), %rcx
	shlq	$4, %rcx
	addq	%rcx, %rdx
	movslq	-36(%rbp), %rcx
	movl	%eax, (%rdx,%rcx,4)
	movslq	-44(%rbp), %rax
	shlq	$6, %rax
	movabsq	$dequant_coef, %rcx
	addq	%rax, %rcx
	movslq	-40(%rbp), %rax
	shlq	$4, %rax
	addq	%rax, %rcx
	movslq	-36(%rbp), %rax
	movl	(%rcx,%rax,4), %eax
	movslq	-48(%rbp), %rcx
	movswl	ScalingList4x4(,%rcx,2), %ecx
	imull	%ecx, %eax
	movslq	-44(%rbp), %rcx
	shlq	$6, %rcx
	movabsq	$InvLevelScale4x4Luma_Intra, %rdx
	addq	%rcx, %rdx
	movslq	-40(%rbp), %rcx
	shlq	$4, %rcx
	addq	%rcx, %rdx
	movslq	-36(%rbp), %rcx
	movl	%eax, (%rdx,%rcx,4)
.LBB22_44:                              # %if.end282
                                        #   in Loop: Header=BB22_39 Depth=3
	cmpl	$0, -76(%rbp)
	jne	.LBB22_46
# %bb.45:                               # %if.then285
                                        #   in Loop: Header=BB22_39 Depth=3
	movslq	-44(%rbp), %rax
	shlq	$6, %rax
	movabsq	$LevelScale4x4Luma_Intra, %rcx
	addq	%rax, %rcx
	movslq	-40(%rbp), %rax
	shlq	$4, %rax
	addq	%rax, %rcx
	movslq	-36(%rbp), %rax
	movl	(%rcx,%rax,4), %eax
	movslq	-44(%rbp), %rcx
	shlq	$6, %rcx
	movabsq	$LevelScale4x4Chroma_Intra, %rdx
	addq	%rcx, %rdx
	movslq	-40(%rbp), %rcx
	shlq	$4, %rcx
	addq	%rcx, %rdx
	movslq	-36(%rbp), %rcx
	movl	%eax, (%rdx,%rcx,4)
	movslq	-44(%rbp), %rax
	shlq	$6, %rax
	movabsq	$InvLevelScale4x4Luma_Intra, %rcx
	addq	%rax, %rcx
	movslq	-40(%rbp), %rax
	shlq	$4, %rax
	addq	%rax, %rcx
	movslq	-36(%rbp), %rax
	movl	(%rcx,%rax,4), %eax
	movslq	-44(%rbp), %rcx
	shlq	$6, %rcx
	movabsq	$InvLevelScale4x4Chroma_Intra, %rdx
	addq	%rcx, %rdx
	movslq	-40(%rbp), %rcx
	shlq	$4, %rcx
	addq	%rcx, %rdx
	movslq	-36(%rbp), %rcx
	movl	%eax, (%rdx,%rcx,4)
	jmp	.LBB22_53
.LBB22_46:                              # %if.else310
                                        #   in Loop: Header=BB22_39 Depth=3
	movslq	-44(%rbp), %rax
	shlq	$6, %rax
	movabsq	$quant_coef, %rcx
	addq	%rax, %rcx
	movslq	-40(%rbp), %rax
	shlq	$4, %rax
	addq	%rax, %rcx
	movslq	-36(%rbp), %rax
	movl	(%rcx,%rax,4), %eax
	shll	$4, %eax
	movswl	UseDefaultScalingMatrix4x4Flag+2, %ecx
	cmpl	$0, %ecx
	je	.LBB22_48
# %bb.47:                               # %cond.true
                                        #   in Loop: Header=BB22_39 Depth=3
	movslq	-48(%rbp), %rcx
	movswl	Quant_intra_default(,%rcx,2), %ecx
	jmp	.LBB22_49
.LBB22_48:                              # %cond.false
                                        #   in Loop: Header=BB22_39 Depth=3
	movslq	-48(%rbp), %rcx
	movswl	ScalingList4x4+32(,%rcx,2), %ecx
.LBB22_49:                              # %cond.end
                                        #   in Loop: Header=BB22_39 Depth=3
	cltd
	idivl	%ecx
	movslq	-44(%rbp), %rcx
	shlq	$6, %rcx
	movabsq	$LevelScale4x4Chroma_Intra, %rdx
	addq	%rcx, %rdx
	movslq	-40(%rbp), %rcx
	shlq	$4, %rcx
	addq	%rcx, %rdx
	movslq	-36(%rbp), %rcx
	movl	%eax, (%rdx,%rcx,4)
	movslq	-44(%rbp), %rax
	shlq	$6, %rax
	movabsq	$dequant_coef, %rcx
	addq	%rax, %rcx
	movslq	-40(%rbp), %rax
	shlq	$4, %rax
	addq	%rax, %rcx
	movslq	-36(%rbp), %rax
	movl	(%rcx,%rax,4), %eax
	movswl	UseDefaultScalingMatrix4x4Flag+2, %ecx
	cmpl	$0, %ecx
	je	.LBB22_51
# %bb.50:                               # %cond.true341
                                        #   in Loop: Header=BB22_39 Depth=3
	movslq	-48(%rbp), %rcx
	movswl	Quant_intra_default(,%rcx,2), %ecx
	jmp	.LBB22_52
.LBB22_51:                              # %cond.false345
                                        #   in Loop: Header=BB22_39 Depth=3
	movslq	-48(%rbp), %rcx
	movswl	ScalingList4x4+32(,%rcx,2), %ecx
.LBB22_52:                              # %cond.end349
                                        #   in Loop: Header=BB22_39 Depth=3
	imull	%ecx, %eax
	movslq	-44(%rbp), %rcx
	shlq	$6, %rcx
	movabsq	$InvLevelScale4x4Chroma_Intra, %rdx
	addq	%rcx, %rdx
	movslq	-40(%rbp), %rcx
	shlq	$4, %rcx
	addq	%rcx, %rdx
	movslq	-36(%rbp), %rcx
	movl	%eax, (%rdx,%rcx,4)
.LBB22_53:                              # %if.end358
                                        #   in Loop: Header=BB22_39 Depth=3
	cmpl	$0, -72(%rbp)
	jne	.LBB22_55
# %bb.54:                               # %if.then361
                                        #   in Loop: Header=BB22_39 Depth=3
	movabsq	$InvLevelScale4x4Chroma_Intra, %rcx
	movq	%rcx, %rax
	addq	$384, %rax              # imm = 0x180
	movabsq	$LevelScale4x4Chroma_Intra, %rdx
	movq	%rdx, %rsi
	addq	$384, %rsi              # imm = 0x180
	movslq	-44(%rbp), %rdi
	shlq	$6, %rdi
	addq	%rdi, %rdx
	movslq	-40(%rbp), %rdi
