	.text
	.file	"q_offsets.c"
	.globl	CheckOffsetParameterName # -- Begin function CheckOffsetParameterName
	.p2align	4, 0x90
	.type	CheckOffsetParameterName,@function
CheckOffsetParameterName:               # @CheckOffsetParameterName
	.cfi_startproc
# %bb.0:                                # %entry
	pushq	%rbp
	.cfi_def_cfa_offset 16
	.cfi_offset %rbp, -16
	movq	%rsp, %rbp
	.cfi_def_cfa_register %rbp
	pushq	%rbx
	subq	$24, %rsp
	.cfi_offset %rbx, -24
	movq	%rdi, -32(%rbp)
	movq	%rsi, -24(%rbp)
	movl	$0, -12(%rbp)
	movq	-24(%rbp), %rax
	movl	$0, (%rax)
.LBB0_1:                                # %while.cond
                                        # =>This Inner Loop Header: Depth=1
	xorl	%eax, %eax
	movslq	-12(%rbp), %rcx
	imulq	$24, %rcx, %rcx
	movabsq	$OffsetType4x4, %rdx
	addq	%rcx, %rdx
	cmpq	$0, %rdx
	je	.LBB0_3
# %bb.2:                                # %land.rhs
                                        #   in Loop: Header=BB0_1 Depth=1
	cmpl	$9, -12(%rbp)
	setl	%al
.LBB0_3:                                # %land.end
                                        #   in Loop: Header=BB0_1 Depth=1
	testb	$1, %al
	jne	.LBB0_4
	jmp	.LBB0_8
.LBB0_4:                                # %while.body
                                        #   in Loop: Header=BB0_1 Depth=1
	xorl	%ebx, %ebx
	movslq	-12(%rbp), %rax
	imulq	$24, %rax, %rax
	movabsq	$OffsetType4x4, %rdi
	addq	%rax, %rdi
	movq	-32(%rbp), %rsi
	callq	strcmp
	cmpl	%eax, %ebx
	jne	.LBB0_6
# %bb.5:                                # %if.then
	movl	-12(%rbp), %eax
	movl	%eax, -16(%rbp)
	jmp	.LBB0_17
.LBB0_6:                                # %if.else
                                        #   in Loop: Header=BB0_1 Depth=1
	movl	-12(%rbp), %eax
	addl	$1, %eax
	movl	%eax, -12(%rbp)
# %bb.7:                                # %if.end
                                        #   in Loop: Header=BB0_1 Depth=1
	jmp	.LBB0_1
.LBB0_8:                                # %while.end
	movl	$0, -12(%rbp)
	movq	-24(%rbp), %rax
	movl	$1, (%rax)
.LBB0_9:                                # %while.cond6
                                        # =>This Inner Loop Header: Depth=1
	xorl	%eax, %eax
	movslq	-12(%rbp), %rcx
	imulq	$24, %rcx, %rcx
	movabsq	$OffsetType8x8, %rdx
	addq	%rcx, %rdx
	cmpq	$0, %rdx
	je	.LBB0_11
# %bb.10:                               # %land.rhs11
                                        #   in Loop: Header=BB0_9 Depth=1
	cmpl	$3, -12(%rbp)
	setl	%al
.LBB0_11:                               # %land.end13
                                        #   in Loop: Header=BB0_9 Depth=1
	testb	$1, %al
	jne	.LBB0_12
	jmp	.LBB0_16
.LBB0_12:                               # %while.body14
                                        #   in Loop: Header=BB0_9 Depth=1
	xorl	%ebx, %ebx
	movslq	-12(%rbp), %rax
	imulq	$24, %rax, %rax
	movabsq	$OffsetType8x8, %rdi
	addq	%rax, %rdi
	movq	-32(%rbp), %rsi
	callq	strcmp
	cmpl	%eax, %ebx
	jne	.LBB0_14
# %bb.13:                               # %if.then20
	movl	-12(%rbp), %eax
	movl	%eax, -16(%rbp)
	jmp	.LBB0_17
.LBB0_14:                               # %if.else21
                                        #   in Loop: Header=BB0_9 Depth=1
	movl	-12(%rbp), %eax
	addl	$1, %eax
	movl	%eax, -12(%rbp)
# %bb.15:                               # %if.end23
                                        #   in Loop: Header=BB0_9 Depth=1
	jmp	.LBB0_9
.LBB0_16:                               # %while.end24
	movl	$-1, -16(%rbp)
.LBB0_17:                               # %return
	movl	-16(%rbp), %eax
	addq	$24, %rsp
	popq	%rbx
	popq	%rbp
	.cfi_def_cfa %rsp, 8
	retq
.Lfunc_end0:
	.size	CheckOffsetParameterName, .Lfunc_end0-CheckOffsetParameterName
	.cfi_endproc
                                        # -- End function
	.globl	ParseQOffsetMatrix      # -- Begin function ParseQOffsetMatrix
	.p2align	4, 0x90
	.type	ParseQOffsetMatrix,@function
ParseQOffsetMatrix:                     # @ParseQOffsetMatrix
	.cfi_startproc
# %bb.0:                                # %entry
	pushq	%rbp
	.cfi_def_cfa_offset 16
	.cfi_offset %rbp, -16
	movq	%rsp, %rbp
	.cfi_def_cfa_register %rbp
	subq	$8080, %rsp             # imm = 0x1F90
	movq	%rdi, -80(%rbp)
	movl	%esi, -56(%rbp)
	movl	$0, -32(%rbp)
	movl	$0, -36(%rbp)
	movl	$0, -20(%rbp)
	movq	-80(%rbp), %rax
	movq	%rax, -16(%rbp)
	movq	-80(%rbp), %rax
	movslq	-56(%rbp), %rcx
	addq	%rcx, %rax
	movq	%rax, -72(%rbp)
.LBB1_1:                                # %while.cond
                                        # =>This Loop Header: Depth=1
                                        #     Child Loop BB1_6 Depth 2
	movq	-16(%rbp), %rax
	cmpq	-72(%rbp), %rax
	jae	.LBB1_25
# %bb.2:                                # %while.body
                                        #   in Loop: Header=BB1_1 Depth=1
	movq	-16(%rbp), %rax
	movsbl	(%rax), %eax
	addl	$-9, %eax
	movl	%eax, %ecx
	subl	$35, %ecx
	ja	.LBB1_21
# %bb.3:                                # %while.body
                                        #   in Loop: Header=BB1_1 Depth=1
	movq	.LJTI1_0(,%rax,8), %rax
	jmpq	*%rax
.LBB1_4:                                # %sw.bb
                                        #   in Loop: Header=BB1_1 Depth=1
	movq	-16(%rbp), %rax
	addq	$1, %rax
	movq	%rax, -16(%rbp)
	jmp	.LBB1_24
.LBB1_5:                                # %sw.bb1
                                        #   in Loop: Header=BB1_1 Depth=1
	movq	-16(%rbp), %rax
	movb	$0, (%rax)
.LBB1_6:                                # %while.cond2
                                        #   Parent Loop BB1_1 Depth=1
                                        # =>  This Inner Loop Header: Depth=2
	xorl	%eax, %eax
	movq	-16(%rbp), %rcx
	movsbl	(%rcx), %ecx
	cmpl	$10, %ecx
	je	.LBB1_8
# %bb.7:                                # %land.rhs
                                        #   in Loop: Header=BB1_6 Depth=2
	movq	-16(%rbp), %rax
	cmpq	-72(%rbp), %rax
	setb	%al
.LBB1_8:                                # %land.end
                                        #   in Loop: Header=BB1_6 Depth=2
	testb	$1, %al
	jne	.LBB1_9
	jmp	.LBB1_10
.LBB1_9:                                # %while.body8
                                        #   in Loop: Header=BB1_6 Depth=2
	movq	-16(%rbp), %rax
	addq	$1, %rax
	movq	%rax, -16(%rbp)
	jmp	.LBB1_6
.LBB1_10:                               # %while.end
                                        #   in Loop: Header=BB1_1 Depth=1
	movl	$0, -36(%rbp)
	movl	$0, -20(%rbp)
	jmp	.LBB1_24
.LBB1_11:                               # %sw.bb10
                                        #   in Loop: Header=BB1_1 Depth=1
	movl	$0, -20(%rbp)
	movl	$0, -36(%rbp)
	movq	-16(%rbp), %rax
	movq	%rax, %rcx
	addq	$1, %rcx
	movq	%rcx, -16(%rbp)
	movb	$0, (%rax)
	jmp	.LBB1_24
.LBB1_12:                               # %sw.bb12
                                        #   in Loop: Header=BB1_1 Depth=1
	cmpl	$0, -36(%rbp)
	je	.LBB1_14
# %bb.13:                               # %if.then
                                        #   in Loop: Header=BB1_1 Depth=1
	movq	-16(%rbp), %rax
	addq	$1, %rax
	movq	%rax, -16(%rbp)
	jmp	.LBB1_15
.LBB1_14:                               # %if.else
                                        #   in Loop: Header=BB1_1 Depth=1
	movq	-16(%rbp), %rax
	movq	%rax, %rcx
	addq	$1, %rcx
	movq	%rcx, -16(%rbp)
	movb	$0, (%rax)
	movl	$0, -20(%rbp)
.LBB1_15:                               # %if.end
                                        #   in Loop: Header=BB1_1 Depth=1
	jmp	.LBB1_24
.LBB1_16:                               # %sw.bb15
                                        #   in Loop: Header=BB1_1 Depth=1
	movq	-16(%rbp), %rax
	movq	%rax, %rcx
	addq	$1, %rcx
	movq	%rcx, -16(%rbp)
	movb	$0, (%rax)
	cmpl	$0, -36(%rbp)
	jne	.LBB1_18
# %bb.17:                               # %if.then18
                                        #   in Loop: Header=BB1_1 Depth=1
	movq	-16(%rbp), %rax
	movl	-32(%rbp), %ecx
	movl	%ecx, %edx
	addl	$1, %edx
	movl	%edx, -32(%rbp)
	movslq	%ecx, %rcx
	movq	%rax, -8080(%rbp,%rcx,8)
	movl	-20(%rbp), %eax
	xorl	$-1, %eax
	movl	%eax, -20(%rbp)
	jmp	.LBB1_19
.LBB1_18:                               # %if.else21
                                        #   in Loop: Header=BB1_1 Depth=1
	movl	$0, -20(%rbp)
.LBB1_19:                               # %if.end22
                                        #   in Loop: Header=BB1_1 Depth=1
	movl	-36(%rbp), %eax
	xorl	$-1, %eax
	movl	%eax, -36(%rbp)
	jmp	.LBB1_24
.LBB1_20:                               # %sw.bb24
                                        #   in Loop: Header=BB1_1 Depth=1
	movq	-16(%rbp), %rax
	addq	$1, %rax
	movq	%rax, -16(%rbp)
	movl	$0, -20(%rbp)
	jmp	.LBB1_24
.LBB1_21:                               # %sw.default
                                        #   in Loop: Header=BB1_1 Depth=1
	cmpl	$0, -20(%rbp)
	jne	.LBB1_23
# %bb.22:                               # %if.then27
                                        #   in Loop: Header=BB1_1 Depth=1
	movq	-16(%rbp), %rax
	movl	-32(%rbp), %ecx
	movl	%ecx, %edx
	addl	$1, %edx
	movl	%edx, -32(%rbp)
	movslq	%ecx, %rcx
	movq	%rax, -8080(%rbp,%rcx,8)
	movl	-20(%rbp), %eax
	xorl	$-1, %eax
	movl	%eax, -20(%rbp)
.LBB1_23:                               # %if.end32
                                        #   in Loop: Header=BB1_1 Depth=1
	movq	-16(%rbp), %rax
	addq	$1, %rax
	movq	%rax, -16(%rbp)
.LBB1_24:                               # %sw.epilog
                                        #   in Loop: Header=BB1_1 Depth=1
	jmp	.LBB1_1
.LBB1_25:                               # %while.end34
	movl	-32(%rbp), %eax
	addl	$-1, %eax
	movl	%eax, -32(%rbp)
	movl	$0, -24(%rbp)
.LBB1_26:                               # %for.cond
                                        # =>This Loop Header: Depth=1
                                        #     Child Loop BB1_35 Depth 2
	movl	-24(%rbp), %eax
	cmpl	-32(%rbp), %eax
	jge	.LBB1_42
# %bb.27:                               # %for.body
                                        #   in Loop: Header=BB1_26 Depth=1
	movl	$0, -4(%rbp)
	movl	-24(%rbp), %eax
	addl	-4(%rbp), %eax
	cltq
	movq	-8080(%rbp,%rax,8), %rdi
	leaq	-48(%rbp), %rsi
	callq	CheckOffsetParameterName
	xorl	%ecx, %ecx
	movl	%eax, -40(%rbp)
	cmpl	%eax, %ecx
	jle	.LBB1_29
# %bb.28:                               # %if.then41
                                        #   in Loop: Header=BB1_26 Depth=1
	movl	-24(%rbp), %eax
	addl	-4(%rbp), %eax
	cltq
	movq	-8080(%rbp,%rax,8), %rcx
	movabsq	$errortext, %rdi
	movl	$300, %esi              # imm = 0x12C
	movabsq	$.L.str, %rdx
	movb	$0, %al
	callq	snprintf
	movabsq	$errortext, %rdi
	movl	$300, %esi              # imm = 0x12C
	callq	error
.LBB1_29:                               # %if.end46
                                        #   in Loop: Header=BB1_26 Depth=1
	movl	-4(%rbp), %eax
	addl	$1, %eax
	movl	%eax, -4(%rbp)
	movl	-24(%rbp), %eax
	addl	-4(%rbp), %eax
	cltq
	movq	-8080(%rbp,%rax,8), %rsi
	movl	$.L.str.1, %edi
	callq	strcmp
	cmpl	$0, %eax
	je	.LBB1_31
# %bb.30:                               # %if.then53
                                        #   in Loop: Header=BB1_26 Depth=1
	movabsq	$errortext, %rdi
	movl	$300, %esi              # imm = 0x12C
	movabsq	$.L.str.2, %rdx
	movb	$0, %al
	callq	snprintf
	movabsq	$errortext, %rdi
	movl	$300, %esi              # imm = 0x12C
	callq	error
.LBB1_31:                               # %if.end55
                                        #   in Loop: Header=BB1_26 Depth=1
	movl	-4(%rbp), %eax
	addl	$1, %eax
	movl	%eax, -4(%rbp)
	cmpl	$0, -48(%rbp)
	jne	.LBB1_33
# %bb.32:                               # %if.then58
                                        #   in Loop: Header=BB1_26 Depth=1
	movl	$16, -44(%rbp)
	movslq	-40(%rbp), %rax
	shlq	$5, %rax
	movabsq	$OffsetList4x4input, %rcx
	addq	%rax, %rcx
	movq	%rcx, -64(%rbp)
	movslq	-40(%rbp), %rax
	movl	$1, offset4x4_check(,%rax,4)
	jmp	.LBB1_34
.LBB1_33:                               # %if.else63
                                        #   in Loop: Header=BB1_26 Depth=1
	movl	$64, -44(%rbp)
	movslq	-40(%rbp), %rax
	shlq	$7, %rax
	movabsq	$OffsetList8x8input, %rcx
	addq	%rax, %rcx
	movq	%rcx, -64(%rbp)
	movslq	-40(%rbp), %rax
	movl	$1, offset8x8_check(,%rax,4)
.LBB1_34:                               # %if.end69
                                        #   in Loop: Header=BB1_26 Depth=1
	movl	$0, -28(%rbp)
.LBB1_35:                               # %for.cond70
                                        #   Parent Loop BB1_26 Depth=1
                                        # =>  This Inner Loop Header: Depth=2
	movl	-28(%rbp), %eax
	cmpl	-44(%rbp), %eax
	jge	.LBB1_40
# %bb.36:                               # %for.body73
                                        #   in Loop: Header=BB1_35 Depth=2
	movl	-24(%rbp), %eax
	addl	-4(%rbp), %eax
	addl	-28(%rbp), %eax
	cltq
	movq	-8080(%rbp,%rax,8), %rdi
	movabsq	$.L.str.3, %rsi
	leaq	-52(%rbp), %rdx
	movb	$0, %al
	callq	__isoc99_sscanf
	movl	$1, %ecx
	cmpl	%eax, %ecx
	je	.LBB1_38
# %bb.37:                               # %if.then81
                                        #   in Loop: Header=BB1_35 Depth=2
	movslq	-24(%rbp), %rax
	movq	-8080(%rbp,%rax,8), %rcx
	movl	-24(%rbp), %eax
	addl	-4(%rbp), %eax
	addl	-28(%rbp), %eax
	cltq
	movq	-8080(%rbp,%rax,8), %r8
	movabsq	$errortext, %rdi
	movl	$300, %esi              # imm = 0x12C
	movabsq	$.L.str.4, %rdx
	movb	$0, %al
	callq	snprintf
	movabsq	$errortext, %rdi
	movl	$300, %esi              # imm = 0x12C
	callq	error
.LBB1_38:                               # %if.end89
                                        #   in Loop: Header=BB1_35 Depth=2
	movl	-52(%rbp), %eax
	movq	-64(%rbp), %rcx
	movslq	-28(%rbp), %rdx
	movw	%ax, (%rcx,%rdx,2)
# %bb.39:                               # %for.inc
                                        #   in Loop: Header=BB1_35 Depth=2
	movl	-28(%rbp), %eax
	addl	$1, %eax
	movl	%eax, -28(%rbp)
	jmp	.LBB1_35
.LBB1_40:                               # %for.end
                                        #   in Loop: Header=BB1_26 Depth=1
	movl	-28(%rbp), %eax
	addl	-4(%rbp), %eax
	movl	%eax, -4(%rbp)
	movabsq	$.L.str.5, %rdi
	movb	$0, %al
	callq	printf
# %bb.41:                               # %for.inc96
                                        #   in Loop: Header=BB1_26 Depth=1
	movl	-4(%rbp), %eax
	addl	-24(%rbp), %eax
	movl	%eax, -24(%rbp)
	jmp	.LBB1_26
.LBB1_42:                               # %for.end98
	addq	$8080, %rsp             # imm = 0x1F90
	popq	%rbp
	.cfi_def_cfa %rsp, 8
	retq
.Lfunc_end1:
	.size	ParseQOffsetMatrix, .Lfunc_end1-ParseQOffsetMatrix
	.cfi_endproc
	.section	.rodata,"a",@progbits
	.p2align	3
.LJTI1_0:
	.quad	.LBB1_12
	.quad	.LBB1_11
	.quad	.LBB1_21
	.quad	.LBB1_21
	.quad	.LBB1_4
	.quad	.LBB1_21
	.quad	.LBB1_21
	.quad	.LBB1_21
	.quad	.LBB1_21
	.quad	.LBB1_21
	.quad	.LBB1_21
	.quad	.LBB1_21
	.quad	.LBB1_21
	.quad	.LBB1_21
	.quad	.LBB1_21
	.quad	.LBB1_21
	.quad	.LBB1_21
	.quad	.LBB1_21
	.quad	.LBB1_21
	.quad	.LBB1_21
	.quad	.LBB1_21
	.quad	.LBB1_21
	.quad	.LBB1_21
	.quad	.LBB1_12
	.quad	.LBB1_21
	.quad	.LBB1_16
	.quad	.LBB1_5
	.quad	.LBB1_21
	.quad	.LBB1_21
	.quad	.LBB1_21
	.quad	.LBB1_21
	.quad	.LBB1_21
	.quad	.LBB1_21
	.quad	.LBB1_21
	.quad	.LBB1_21
	.quad	.LBB1_20
                                        # -- End function
	.text
	.globl	Init_QOffsetMatrix      # -- Begin function Init_QOffsetMatrix
	.p2align	4, 0x90
	.type	Init_QOffsetMatrix,@function
Init_QOffsetMatrix:                     # @Init_QOffsetMatrix
	.cfi_startproc
# %bb.0:                                # %entry
	pushq	%rbp
	.cfi_def_cfa_offset 16
	.cfi_offset %rbp, -16
	movq	%rsp, %rbp
	.cfi_def_cfa_register %rbp
	pushq	%rbx
	pushq	%rax
	.cfi_offset %rbx, -24
	movq	input, %rax
	cmpl	$0, 3584(%rax)
	je	.LBB2_5
# %bb.1:                                # %if.then
	movq	input, %rsi
	addq	$3384, %rsi             # imm = 0xD38
	movabsq	$.L.str.6, %rdi
	movb	$0, %al
	callq	printf
	movq	input, %rdi
	addq	$3384, %rdi             # imm = 0xD38
	xorl	%esi, %esi
	callq	GetConfigFileContent
	movq	%rax, -16(%rbp)
	cmpq	$0, -16(%rbp)
	je	.LBB2_3
# %bb.2:                                # %if.then4
	movq	-16(%rbp), %rbx
	movq	-16(%rbp), %rdi
	callq	strlen
	movq	%rbx, %rdi
	movl	%eax, %esi
	callq	ParseQOffsetMatrix
	jmp	.LBB2_4
.LBB2_3:                                # %if.else
	movabsq	$.L.str.7, %rdi
	movabsq	$errortext, %rsi
	movb	$0, %al
	callq	printf
	movq	input, %rax
	movl	$0, 3584(%rax)
.LBB2_4:                                # %if.end
	movabsq	$.L.str.8, %rdi
	movb	$0, %al
	callq	printf
	movq	-16(%rbp), %rdi
	callq	free
.LBB2_5:                                # %if.end9
	addq	$8, %rsp
	popq	%rbx
	popq	%rbp
	.cfi_def_cfa %rsp, 8
	retq
.Lfunc_end2:
	.size	Init_QOffsetMatrix, .Lfunc_end2-Init_QOffsetMatrix
	.cfi_endproc
                                        # -- End function
	.globl	CalculateOffsetParam    # -- Begin function CalculateOffsetParam
	.p2align	4, 0x90
	.type	CalculateOffsetParam,@function
CalculateOffsetParam:                   # @CalculateOffsetParam
	.cfi_startproc
# %bb.0:                                # %entry
	pushq	%rbp
	.cfi_def_cfa_offset 16
	.cfi_offset %rbp, -16
	movq	%rsp, %rbp
	.cfi_def_cfa_register %rbp
	movq	input, %rax
	cmpl	$0, 3584(%rax)
	je	.LBB3_17
# %bb.1:                                # %if.then
	movl	$0, -4(%rbp)
.LBB3_2:                                # %for.cond
                                        # =>This Loop Header: Depth=1
                                        #     Child Loop BB3_4 Depth 2
                                        #       Child Loop BB3_6 Depth 3
	cmpl	$13, -4(%rbp)
	jge	.LBB3_16
# %bb.3:                                # %for.body
                                        #   in Loop: Header=BB3_2 Depth=1
	movl	-4(%rbp), %eax
	addl	$15, %eax
	subl	$10, %eax
	movl	%eax, -16(%rbp)
	movl	$0, -8(%rbp)
.LBB3_4:                                # %for.cond1
                                        #   Parent Loop BB3_2 Depth=1
                                        # =>  This Loop Header: Depth=2
                                        #       Child Loop BB3_6 Depth 3
	cmpl	$4, -8(%rbp)
	jge	.LBB3_14
# %bb.5:                                # %for.body3
                                        #   in Loop: Header=BB3_4 Depth=2
	movl	$0, -12(%rbp)
.LBB3_6:                                # %for.cond4
                                        #   Parent Loop BB3_2 Depth=1
                                        #     Parent Loop BB3_4 Depth=2
                                        # =>    This Inner Loop Header: Depth=3
	cmpl	$4, -12(%rbp)
	jge	.LBB3_12
# %bb.7:                                # %for.body6
                                        #   in Loop: Header=BB3_6 Depth=3
	movl	-12(%rbp), %eax
	shll	$2, %eax
	addl	-8(%rbp), %eax
	movl	%eax, -20(%rbp)
	movq	img, %rax
	cmpl	$2, 24(%rax)
	jne	.LBB3_9
# %bb.8:                                # %if.then9
                                        #   in Loop: Header=BB3_6 Depth=3
	movabsq	$LevelOffset4x4Chroma_Intra, %rdx
	movq	%rdx, %rax
	addq	$832, %rax              # imm = 0x340
	movslq	-20(%rbp), %rcx
	movswl	OffsetList4x4input(,%rcx,2), %esi
	movl	-16(%rbp), %ecx
                                        # kill: def $cl killed $ecx
	shll	%cl, %esi
	movslq	-4(%rbp), %rcx
	shlq	$6, %rcx
	movabsq	$LevelOffset4x4Luma_Intra, %rdi
	addq	%rcx, %rdi
	movslq	-8(%rbp), %rcx
	shlq	$4, %rcx
	addq	%rcx, %rdi
	movslq	-12(%rbp), %rcx
	movl	%esi, (%rdi,%rcx,4)
	movslq	-20(%rbp), %rcx
	movswl	OffsetList4x4input+32(,%rcx,2), %esi
	movl	-16(%rbp), %ecx
                                        # kill: def $cl killed $ecx
	shll	%cl, %esi
	movslq	-4(%rbp), %rcx
	shlq	$6, %rcx
	addq	%rcx, %rdx
	movslq	-8(%rbp), %rcx
	shlq	$4, %rcx
	addq	%rcx, %rdx
	movslq	-12(%rbp), %rcx
	movl	%esi, (%rdx,%rcx,4)
	movslq	-20(%rbp), %rcx
	movswl	OffsetList4x4input+64(,%rcx,2), %edx
	movl	-16(%rbp), %ecx
                                        # kill: def $cl killed $ecx
	shll	%cl, %edx
	movslq	-4(%rbp), %rcx
	shlq	$6, %rcx
	addq	%rcx, %rax
	movslq	-8(%rbp), %rcx
	shlq	$4, %rcx
	addq	%rcx, %rax
	movslq	-12(%rbp), %rcx
	movl	%edx, (%rax,%rcx,4)
	jmp	.LBB3_10
.LBB3_9:                                # %if.else
                                        #   in Loop: Header=BB3_6 Depth=3
	movabsq	$LevelOffset4x4Chroma_Intra, %rdx
	movq	%rdx, %rax
	addq	$832, %rax              # imm = 0x340
	movslq	-20(%rbp), %rcx
	movswl	OffsetList4x4input+96(,%rcx,2), %esi
	movl	-16(%rbp), %ecx
                                        # kill: def $cl killed $ecx
	shll	%cl, %esi
	movslq	-4(%rbp), %rcx
	shlq	$6, %rcx
	movabsq	$LevelOffset4x4Luma_Intra, %rdi
	addq	%rcx, %rdi
	movslq	-8(%rbp), %rcx
	shlq	$4, %rcx
	addq	%rcx, %rdi
	movslq	-12(%rbp), %rcx
	movl	%esi, (%rdi,%rcx,4)
	movslq	-20(%rbp), %rcx
	movswl	OffsetList4x4input+128(,%rcx,2), %esi
	movl	-16(%rbp), %ecx
                                        # kill: def $cl killed $ecx
	shll	%cl, %esi
	movslq	-4(%rbp), %rcx
	shlq	$6, %rcx
	addq	%rcx, %rdx
	movslq	-8(%rbp), %rcx
	shlq	$4, %rcx
	addq	%rcx, %rdx
	movslq	-12(%rbp), %rcx
	movl	%esi, (%rdx,%rcx,4)
	movslq	-20(%rbp), %rcx
	movswl	OffsetList4x4input+160(,%rcx,2), %edx
	movl	-16(%rbp), %ecx
                                        # kill: def $cl killed $ecx
	shll	%cl, %edx
	movslq	-4(%rbp), %rcx
	shlq	$6, %rcx
	addq	%rcx, %rax
	movslq	-8(%rbp), %rcx
	shlq	$4, %rcx
	addq	%rcx, %rax
	movslq	-12(%rbp), %rcx
	movl	%edx, (%rax,%rcx,4)
.LBB3_10:                               # %if.end
                                        #   in Loop: Header=BB3_6 Depth=3
	movabsq	$LevelOffset4x4Chroma_Inter, %rdx
	movq	%rdx, %rax
	addq	$832, %rax              # imm = 0x340
	movslq	-20(%rbp), %rcx
	movswl	OffsetList4x4input+192(,%rcx,2), %esi
	movl	-16(%rbp), %ecx
                                        # kill: def $cl killed $ecx
	shll	%cl, %esi
	movslq	-4(%rbp), %rcx
	shlq	$6, %rcx
	movabsq	$LevelOffset4x4Luma_Inter, %rdi
	addq	%rcx, %rdi
	movslq	-8(%rbp), %rcx
	shlq	$4, %rcx
	addq	%rcx, %rdi
	movslq	-12(%rbp), %rcx
	movl	%esi, (%rdi,%rcx,4)
	movslq	-20(%rbp), %rcx
	movswl	OffsetList4x4input+224(,%rcx,2), %esi
	movl	-16(%rbp), %ecx
                                        # kill: def $cl killed $ecx
	shll	%cl, %esi
	movslq	-4(%rbp), %rcx
	shlq	$6, %rcx
	addq	%rcx, %rdx
	movslq	-8(%rbp), %rcx
	shlq	$4, %rcx
	addq	%rcx, %rdx
	movslq	-12(%rbp), %rcx
	movl	%esi, (%rdx,%rcx,4)
	movslq	-20(%rbp), %rcx
	movswl	OffsetList4x4input+256(,%rcx,2), %edx
	movl	-16(%rbp), %ecx
                                        # kill: def $cl killed $ecx
	shll	%cl, %edx
	movslq	-4(%rbp), %rcx
	shlq	$6, %rcx
	addq	%rcx, %rax
	movslq	-8(%rbp), %rcx
	shlq	$4, %rcx
	addq	%rcx, %rax
	movslq	-12(%rbp), %rcx
	movl	%edx, (%rax,%rcx,4)
# %bb.11:                               # %for.inc
                                        #   in Loop: Header=BB3_6 Depth=3
	movl	-12(%rbp), %eax
	addl	$1, %eax
	movl	%eax, -12(%rbp)
	jmp	.LBB3_6
.LBB3_12:                               # %for.end
                                        #   in Loop: Header=BB3_4 Depth=2
	jmp	.LBB3_13
.LBB3_13:                               # %for.inc97
                                        #   in Loop: Header=BB3_4 Depth=2
	movl	-8(%rbp), %eax
	addl	$1, %eax
	movl	%eax, -8(%rbp)
	jmp	.LBB3_4
.LBB3_14:                               # %for.end99
                                        #   in Loop: Header=BB3_2 Depth=1
	jmp	.LBB3_15
.LBB3_15:                               # %for.inc100
                                        #   in Loop: Header=BB3_2 Depth=1
	movl	-4(%rbp), %eax
	addl	$1, %eax
	movl	%eax, -4(%rbp)
	jmp	.LBB3_2
.LBB3_16:                               # %for.end102
	jmp	.LBB3_33
.LBB3_17:                               # %if.else103
	movl	$0, -4(%rbp)
.LBB3_18:                               # %for.cond104
                                        # =>This Loop Header: Depth=1
                                        #     Child Loop BB3_20 Depth 2
                                        #       Child Loop BB3_22 Depth 3
	cmpl	$13, -4(%rbp)
	jge	.LBB3_32
# %bb.19:                               # %for.body107
                                        #   in Loop: Header=BB3_18 Depth=1
	movl	-4(%rbp), %eax
	addl	$15, %eax
	subl	$10, %eax
	movl	%eax, -16(%rbp)
	movl	$0, -8(%rbp)
.LBB3_20:                               # %for.cond110
                                        #   Parent Loop BB3_18 Depth=1
                                        # =>  This Loop Header: Depth=2
                                        #       Child Loop BB3_22 Depth 3
	cmpl	$4, -8(%rbp)
	jge	.LBB3_30
# %bb.21:                               # %for.body113
                                        #   in Loop: Header=BB3_20 Depth=2
	movl	$0, -12(%rbp)
.LBB3_22:                               # %for.cond114
                                        #   Parent Loop BB3_18 Depth=1
                                        #     Parent Loop BB3_20 Depth=2
                                        # =>    This Inner Loop Header: Depth=3
	cmpl	$4, -12(%rbp)
	jge	.LBB3_28
# %bb.23:                               # %for.body117
                                        #   in Loop: Header=BB3_22 Depth=3
	movl	-12(%rbp), %eax
	shll	$2, %eax
	addl	-8(%rbp), %eax
	movl	%eax, -20(%rbp)
	movq	img, %rax
	cmpl	$2, 24(%rax)
	jne	.LBB3_25
# %bb.24:                               # %if.then123
                                        #   in Loop: Header=BB3_22 Depth=3
	movabsq	$LevelOffset4x4Chroma_Intra, %rdx
	movq	%rdx, %rax
	addq	$832, %rax              # imm = 0x340
	movslq	-20(%rbp), %rcx
	movswl	Offset_intra_default_intra(,%rcx,2), %esi
	movl	-16(%rbp), %ecx
                                        # kill: def $cl killed $ecx
	shll	%cl, %esi
	movslq	-4(%rbp), %rcx
	shlq	$6, %rcx
	movabsq	$LevelOffset4x4Luma_Intra, %rdi
	addq	%rcx, %rdi
	movslq	-8(%rbp), %rcx
	shlq	$4, %rcx
	addq	%rcx, %rdi
	movslq	-12(%rbp), %rcx
	movl	%esi, (%rdi,%rcx,4)
	movslq	-20(%rbp), %rcx
	movswl	Offset_intra_default_intra(,%rcx,2), %esi
	movl	-16(%rbp), %ecx
                                        # kill: def $cl killed $ecx
	shll	%cl, %esi
	movslq	-4(%rbp), %rcx
	shlq	$6, %rcx
	addq	%rcx, %rdx
	movslq	-8(%rbp), %rcx
	shlq	$4, %rcx
	addq	%rcx, %rdx
	movslq	-12(%rbp), %rcx
	movl	%esi, (%rdx,%rcx,4)
	movslq	-20(%rbp), %rcx
	movswl	Offset_intra_default_intra(,%rcx,2), %edx
	movl	-16(%rbp), %ecx
                                        # kill: def $cl killed $ecx
	shll	%cl, %edx
	movslq	-4(%rbp), %rcx
	shlq	$6, %rcx
	addq	%rcx, %rax
	movslq	-8(%rbp), %rcx
	shlq	$4, %rcx
	addq	%rcx, %rax
	movslq	-12(%rbp), %rcx
	movl	%edx, (%rax,%rcx,4)
	jmp	.LBB3_26
.LBB3_25:                               # %if.else154
                                        #   in Loop: Header=BB3_22 Depth=3
	movabsq	$LevelOffset4x4Chroma_Intra, %rdx
	movq	%rdx, %rax
	addq	$832, %rax              # imm = 0x340
	movslq	-20(%rbp), %rcx
	movswl	Offset_intra_default_inter(,%rcx,2), %esi
	movl	-16(%rbp), %ecx
                                        # kill: def $cl killed $ecx
	shll	%cl, %esi
	movslq	-4(%rbp), %rcx
	shlq	$6, %rcx
	movabsq	$LevelOffset4x4Luma_Intra, %rdi
	addq	%rcx, %rdi
	movslq	-8(%rbp), %rcx
	shlq	$4, %rcx
	addq	%rcx, %rdi
	movslq	-12(%rbp), %rcx
	movl	%esi, (%rdi,%rcx,4)
	movslq	-20(%rbp), %rcx
	movswl	Offset_intra_default_inter(,%rcx,2), %esi
	movl	-16(%rbp), %ecx
                                        # kill: def $cl killed $ecx
	shll	%cl, %esi
	movslq	-4(%rbp), %rcx
	shlq	$6, %rcx
	addq	%rcx, %rdx
	movslq	-8(%rbp), %rcx
	shlq	$4, %rcx
	addq	%rcx, %rdx
	movslq	-12(%rbp), %rcx
	movl	%esi, (%rdx,%rcx,4)
	movslq	-20(%rbp), %rcx
	movswl	Offset_intra_default_inter(,%rcx,2), %edx
	movl	-16(%rbp), %ecx
                                        # kill: def $cl killed $ecx
	shll	%cl, %edx
	movslq	-4(%rbp), %rcx
	shlq	$6, %rcx
	addq	%rcx, %rax
	movslq	-8(%rbp), %rcx
	shlq	$4, %rcx
	addq	%rcx, %rax
	movslq	-12(%rbp), %rcx
	movl	%edx, (%rax,%rcx,4)
.LBB3_26:                               # %if.end185
                                        #   in Loop: Header=BB3_22 Depth=3
	movabsq	$LevelOffset4x4Chroma_Inter, %rdx
	movq	%rdx, %rax
	addq	$832, %rax              # imm = 0x340
	movslq	-20(%rbp), %rcx
	movswl	Offset_inter_default(,%rcx,2), %esi
	movl	-16(%rbp), %ecx
                                        # kill: def $cl killed $ecx
	shll	%cl, %esi
	movslq	-4(%rbp), %rcx
	shlq	$6, %rcx
	movabsq	$LevelOffset4x4Luma_Inter, %rdi
	addq	%rcx, %rdi
	movslq	-8(%rbp), %rcx
	shlq	$4, %rcx
	addq	%rcx, %rdi
	movslq	-12(%rbp), %rcx
	movl	%esi, (%rdi,%rcx,4)
	movslq	-20(%rbp), %rcx
	movswl	Offset_inter_default(,%rcx,2), %esi
	movl	-16(%rbp), %ecx
                                        # kill: def $cl killed $ecx
	shll	%cl, %esi
	movslq	-4(%rbp), %rcx
	shlq	$6, %rcx
	addq	%rcx, %rdx
	movslq	-8(%rbp), %rcx
	shlq	$4, %rcx
	addq	%rcx, %rdx
	movslq	-12(%rbp), %rcx
	movl	%esi, (%rdx,%rcx,4)
	movslq	-20(%rbp), %rcx
	movswl	Offset_inter_default(,%rcx,2), %edx
	movl	-16(%rbp), %ecx
                                        # kill: def $cl killed $ecx
	shll	%cl, %edx
	movslq	-4(%rbp), %rcx
	shlq	$6, %rcx
	addq	%rcx, %rax
	movslq	-8(%rbp), %rcx
	shlq	$4, %rcx
	addq	%rcx, %rax
	movslq	-12(%rbp), %rcx
	movl	%edx, (%rax,%rcx,4)
# %bb.27:                               # %for.inc216
                                        #   in Loop: Header=BB3_22 Depth=3
	movl	-12(%rbp), %eax
	addl	$1, %eax
	movl	%eax, -12(%rbp)
	jmp	.LBB3_22
.LBB3_28:                               # %for.end218
                                        #   in Loop: Header=BB3_20 Depth=2
	jmp	.LBB3_29
.LBB3_29:                               # %for.inc219
                                        #   in Loop: Header=BB3_20 Depth=2
	movl	-8(%rbp), %eax
	addl	$1, %eax
	movl	%eax, -8(%rbp)
	jmp	.LBB3_20
.LBB3_30:                               # %for.end221
                                        #   in Loop: Header=BB3_18 Depth=1
	jmp	.LBB3_31
.LBB3_31:                               # %for.inc222
                                        #   in Loop: Header=BB3_18 Depth=1
	movl	-4(%rbp), %eax
	addl	$1, %eax
	movl	%eax, -4(%rbp)
	jmp	.LBB3_18
.LBB3_32:                               # %for.end224
	jmp	.LBB3_33
.LBB3_33:                               # %if.end225
	popq	%rbp
	.cfi_def_cfa %rsp, 8
	retq
.Lfunc_end3:
	.size	CalculateOffsetParam, .Lfunc_end3-CalculateOffsetParam
	.cfi_endproc
                                        # -- End function
	.globl	CalculateOffset8Param   # -- Begin function CalculateOffset8Param
	.p2align	4, 0x90
	.type	CalculateOffset8Param,@function
CalculateOffset8Param:                  # @CalculateOffset8Param
	.cfi_startproc
# %bb.0:                                # %entry
	pushq	%rbp
	.cfi_def_cfa_offset 16
	.cfi_offset %rbp, -16
	movq	%rsp, %rbp
	.cfi_def_cfa_register %rbp
	movq	input, %rax
	cmpl	$0, 3584(%rax)
	je	.LBB4_17
# %bb.1:                                # %if.then
	movl	$0, -4(%rbp)
.LBB4_2:                                # %for.cond
                                        # =>This Loop Header: Depth=1
                                        #     Child Loop BB4_4 Depth 2
                                        #       Child Loop BB4_6 Depth 3
	cmpl	$13, -4(%rbp)
	jge	.LBB4_16
# %bb.3:                                # %for.body
                                        #   in Loop: Header=BB4_2 Depth=1
	movl	-4(%rbp), %eax
	addl	$16, %eax
	subl	$10, %eax
	movl	%eax, -16(%rbp)
	movl	$0, -8(%rbp)
.LBB4_4:                                # %for.cond1
                                        #   Parent Loop BB4_2 Depth=1
                                        # =>  This Loop Header: Depth=2
                                        #       Child Loop BB4_6 Depth 3
	cmpl	$8, -8(%rbp)
	jge	.LBB4_14
# %bb.5:                                # %for.body3
                                        #   in Loop: Header=BB4_4 Depth=2
	movl	$0, -12(%rbp)
.LBB4_6:                                # %for.cond4
                                        #   Parent Loop BB4_2 Depth=1
                                        #     Parent Loop BB4_4 Depth=2
                                        # =>    This Inner Loop Header: Depth=3
	cmpl	$8, -12(%rbp)
	jge	.LBB4_12
# %bb.7:                                # %for.body6
                                        #   in Loop: Header=BB4_6 Depth=3
	movl	-12(%rbp), %eax
	shll	$3, %eax
	addl	-8(%rbp), %eax
	movl	%eax, -20(%rbp)
	movq	img, %rax
	cmpl	$2, 24(%rax)
	jne	.LBB4_9
# %bb.8:                                # %if.then9
                                        #   in Loop: Header=BB4_6 Depth=3
	movslq	-20(%rbp), %rax
	movswl	OffsetList8x8input(,%rax,2), %eax
	movl	-16(%rbp), %ecx
                                        # kill: def $cl killed $ecx
	shll	%cl, %eax
	movslq	-4(%rbp), %rcx
	shlq	$8, %rcx
	movabsq	$LevelOffset8x8Luma_Intra, %rdx
	addq	%rcx, %rdx
	movslq	-8(%rbp), %rcx
	shlq	$5, %rcx
	addq	%rcx, %rdx
	movslq	-12(%rbp), %rcx
	movl	%eax, (%rdx,%rcx,4)
	jmp	.LBB4_10
.LBB4_9:                                # %if.else
                                        #   in Loop: Header=BB4_6 Depth=3
	movslq	-20(%rbp), %rax
	movswl	OffsetList8x8input+128(,%rax,2), %eax
	movl	-16(%rbp), %ecx
                                        # kill: def $cl killed $ecx
	shll	%cl, %eax
	movslq	-4(%rbp), %rcx
	shlq	$8, %rcx
	movabsq	$LevelOffset8x8Luma_Intra, %rdx
	addq	%rcx, %rdx
	movslq	-8(%rbp), %rcx
	shlq	$5, %rcx
	addq	%rcx, %rdx
	movslq	-12(%rbp), %rcx
	movl	%eax, (%rdx,%rcx,4)
.LBB4_10:                               # %if.end
                                        #   in Loop: Header=BB4_6 Depth=3
	movslq	-20(%rbp), %rax
	movswl	OffsetList8x8input+256(,%rax,2), %eax
	movl	-16(%rbp), %ecx
                                        # kill: def $cl killed $ecx
	shll	%cl, %eax
	movslq	-4(%rbp), %rcx
	shlq	$8, %rcx
	movabsq	$LevelOffset8x8Luma_Inter, %rdx
	addq	%rcx, %rdx
	movslq	-8(%rbp), %rcx
	shlq	$5, %rcx
	addq	%rcx, %rdx
	movslq	-12(%rbp), %rcx
	movl	%eax, (%rdx,%rcx,4)
# %bb.11:                               # %for.inc
                                        #   in Loop: Header=BB4_6 Depth=3
	movl	-12(%rbp), %eax
	addl	$1, %eax
	movl	%eax, -12(%rbp)
	jmp	.LBB4_6
.LBB4_12:                               # %for.end
                                        #   in Loop: Header=BB4_4 Depth=2
	jmp	.LBB4_13
.LBB4_13:                               # %for.inc37
                                        #   in Loop: Header=BB4_4 Depth=2
	movl	-8(%rbp), %eax
	addl	$1, %eax
	movl	%eax, -8(%rbp)
	jmp	.LBB4_4
.LBB4_14:                               # %for.end39
                                        #   in Loop: Header=BB4_2 Depth=1
	jmp	.LBB4_15
.LBB4_15:                               # %for.inc40
                                        #   in Loop: Header=BB4_2 Depth=1
	movl	-4(%rbp), %eax
	addl	$1, %eax
	movl	%eax, -4(%rbp)
	jmp	.LBB4_2
.LBB4_16:                               # %for.end42
	jmp	.LBB4_33
.LBB4_17:                               # %if.else43
	movl	$0, -4(%rbp)
.LBB4_18:                               # %for.cond44
                                        # =>This Loop Header: Depth=1
                                        #     Child Loop BB4_20 Depth 2
                                        #       Child Loop BB4_22 Depth 3
	cmpl	$13, -4(%rbp)
	jge	.LBB4_32
# %bb.19:                               # %for.body47
                                        #   in Loop: Header=BB4_18 Depth=1
	movl	-4(%rbp), %eax
	addl	$16, %eax
	subl	$10, %eax
	movl	%eax, -16(%rbp)
	movl	$0, -8(%rbp)
.LBB4_20:                               # %for.cond50
                                        #   Parent Loop BB4_18 Depth=1
                                        # =>  This Loop Header: Depth=2
                                        #       Child Loop BB4_22 Depth 3
	cmpl	$8, -8(%rbp)
	jge	.LBB4_30
# %bb.21:                               # %for.body53
                                        #   in Loop: Header=BB4_20 Depth=2
	movl	$0, -12(%rbp)
.LBB4_22:                               # %for.cond54
                                        #   Parent Loop BB4_18 Depth=1
                                        #     Parent Loop BB4_20 Depth=2
                                        # =>    This Inner Loop Header: Depth=3
	cmpl	$8, -12(%rbp)
	jge	.LBB4_28
# %bb.23:                               # %for.body57
                                        #   in Loop: Header=BB4_22 Depth=3
	movl	-12(%rbp), %eax
	shll	$3, %eax
	addl	-8(%rbp), %eax
	movl	%eax, -20(%rbp)
	movq	img, %rax
	cmpl	$2, 24(%rax)
	jne	.LBB4_25
# %bb.24:                               # %if.then63
                                        #   in Loop: Header=BB4_22 Depth=3
	movslq	-20(%rbp), %rax
	movswl	Offset8_intra_default_intra(,%rax,2), %eax
	movl	-16(%rbp), %ecx
                                        # kill: def $cl killed $ecx
	shll	%cl, %eax
	movslq	-4(%rbp), %rcx
	shlq	$8, %rcx
	movabsq	$LevelOffset8x8Luma_Intra, %rdx
	addq	%rcx, %rdx
	movslq	-8(%rbp), %rcx
	shlq	$5, %rcx
	addq	%rcx, %rdx
	movslq	-12(%rbp), %rcx
	movl	%eax, (%rdx,%rcx,4)
	jmp	.LBB4_26
.LBB4_25:                               # %if.else74
                                        #   in Loop: Header=BB4_22 Depth=3
	movslq	-20(%rbp), %rax
	movswl	Offset8_intra_default_inter(,%rax,2), %eax
	movl	-16(%rbp), %ecx
                                        # kill: def $cl killed $ecx
	shll	%cl, %eax
	movslq	-4(%rbp), %rcx
	shlq	$8, %rcx
	movabsq	$LevelOffset8x8Luma_Intra, %rdx
	addq	%rcx, %rdx
	movslq	-8(%rbp), %rcx
	shlq	$5, %rcx
	addq	%rcx, %rdx
	movslq	-12(%rbp), %rcx
	movl	%eax, (%rdx,%rcx,4)
.LBB4_26:                               # %if.end85
                                        #   in Loop: Header=BB4_22 Depth=3
	movslq	-20(%rbp), %rax
	movswl	Offset8_inter_default(,%rax,2), %eax
	movl	-16(%rbp), %ecx
                                        # kill: def $cl killed $ecx
	shll	%cl, %eax
	movslq	-4(%rbp), %rcx
	shlq	$8, %rcx
	movabsq	$LevelOffset8x8Luma_Inter, %rdx
	addq	%rcx, %rdx
	movslq	-8(%rbp), %rcx
	shlq	$5, %rcx
	addq	%rcx, %rdx
	movslq	-12(%rbp), %rcx
	movl	%eax, (%rdx,%rcx,4)
# %bb.27:                               # %for.inc96
                                        #   in Loop: Header=BB4_22 Depth=3
	movl	-12(%rbp), %eax
	addl	$1, %eax
	movl	%eax, -12(%rbp)
	jmp	.LBB4_22
.LBB4_28:                               # %for.end98
                                        #   in Loop: Header=BB4_20 Depth=2
	jmp	.LBB4_29
.LBB4_29:                               # %for.inc99
                                        #   in Loop: Header=BB4_20 Depth=2
	movl	-8(%rbp), %eax
	addl	$1, %eax
	movl	%eax, -8(%rbp)
	jmp	.LBB4_20
.LBB4_30:                               # %for.end101
                                        #   in Loop: Header=BB4_18 Depth=1
	jmp	.LBB4_31
.LBB4_31:                               # %for.inc102
                                        #   in Loop: Header=BB4_18 Depth=1
	movl	-4(%rbp), %eax
	addl	$1, %eax
	movl	%eax, -4(%rbp)
	jmp	.LBB4_18
.LBB4_32:                               # %for.end104
	jmp	.LBB4_33
.LBB4_33:                               # %if.end105
	popq	%rbp
	.cfi_def_cfa %rsp, 8
	retq
.Lfunc_end4:
	.size	CalculateOffset8Param, .Lfunc_end4-CalculateOffset8Param
	.cfi_endproc
                                        # -- End function
	.type	OffsetType4x4,@object   # @OffsetType4x4
	.section	.rodata,"a",@progbits
	.p2align	4
OffsetType4x4:
	.asciz	"INTRA4X4_LUMA_INTRA\000\000\000\000"
	.asciz	"INTRA4X4_CHROMAU_INTRA\000"
	.asciz	"INTRA4X4_CHROMAV_INTRA\000"
	.asciz	"INTRA4X4_LUMA_INTER\000\000\000\000"
	.asciz	"INTRA4X4_CHROMAU_INTER\000"
	.asciz	"INTRA4X4_CHROMAV_INTER\000"
	.asciz	"INTER4X4_LUMA\000\000\000\000\000\000\000\000\000\000"
	.asciz	"INTER4X4_CHROMAU\000\000\000\000\000\000\000"
	.asciz	"INTER4X4_CHROMAV\000\000\000\000\000\000\000"
	.size	OffsetType4x4, 216

	.type	OffsetType8x8,@object   # @OffsetType8x8
	.p2align	4
OffsetType8x8:
	.asciz	"INTRA8X8_LUMA_INTRA\000\000\000\000"
	.asciz	"INTRA8X8_LUMA_INTER\000\000\000\000"
	.asciz	"INTER8X8_LUMA\000\000\000\000\000\000\000\000\000\000"
	.size	OffsetType8x8, 72

	.type	errortext,@object       # @errortext
	.comm	errortext,300,16
	.type	.L.str,@object          # @.str
	.section	.rodata.str1.1,"aMS",@progbits,1
.L.str:
	.asciz	" Parsing error in config file: Parameter Name '%s' not recognized."
	.size	.L.str, 67

	.type	.L.str.1,@object        # @.str.1
.L.str.1:
	.asciz	"="
	.size	.L.str.1, 2

	.type	.L.str.2,@object        # @.str.2
.L.str.2:
	.asciz	" Parsing error in config file: '=' expected as the second token in each item."
	.size	.L.str.2, 78

	.type	OffsetList4x4input,@object # @OffsetList4x4input
	.comm	OffsetList4x4input,288,16
	.type	offset4x4_check,@object # @offset4x4_check
	.bss
	.globl	offset4x4_check
	.p2align	4
offset4x4_check:
	.zero	24
	.size	offset4x4_check, 24

	.type	OffsetList8x8input,@object # @OffsetList8x8input
	.comm	OffsetList8x8input,384,16
	.type	offset8x8_check,@object # @offset8x8_check
	.globl	offset8x8_check
	.p2align	2
offset8x8_check:
	.zero	8
	.size	offset8x8_check, 8

	.type	.L.str.3,@object        # @.str.3
	.section	.rodata.str1.1,"aMS",@progbits,1
.L.str.3:
	.asciz	"%d"
	.size	.L.str.3, 3

	.type	.L.str.4,@object        # @.str.4
.L.str.4:
	.asciz	" Parsing error: Expected numerical value for Parameter of %s, found '%s'."
	.size	.L.str.4, 74

	.type	.L.str.5,@object        # @.str.5
.L.str.5:
	.asciz	"."
	.size	.L.str.5, 2

	.type	.L.str.6,@object        # @.str.6
.L.str.6:
	.asciz	"Parsing Quantization Offset Matrix file %s "
	.size	.L.str.6, 44

	.type	.L.str.7,@object        # @.str.7
.L.str.7:
	.asciz	"\nError: %s\nProceeding with default values for all matrices."
	.size	.L.str.7, 60

	.type	.L.str.8,@object        # @.str.8
.L.str.8:
	.asciz	"\n"
	.size	.L.str.8, 2

	.type	LevelOffset4x4Luma_Intra,@object # @LevelOffset4x4Luma_Intra
	.comm	LevelOffset4x4Luma_Intra,832,16
	.type	LevelOffset4x4Chroma_Intra,@object # @LevelOffset4x4Chroma_Intra
	.comm	LevelOffset4x4Chroma_Intra,1664,16
	.type	LevelOffset4x4Luma_Inter,@object # @LevelOffset4x4Luma_Inter
	.comm	LevelOffset4x4Luma_Inter,832,16
	.type	LevelOffset4x4Chroma_Inter,@object # @LevelOffset4x4Chroma_Inter
	.comm	LevelOffset4x4Chroma_Inter,1664,16
	.type	Offset_intra_default_intra,@object # @Offset_intra_default_intra
	.section	.rodata,"a",@progbits
	.p2align	4
Offset_intra_default_intra:
	.short	341                     # 0x155
	.short	341                     # 0x155
	.short	341                     # 0x155
	.short	341                     # 0x155
	.short	341                     # 0x155
	.short	341                     # 0x155
	.short	341                     # 0x155
	.short	341                     # 0x155
	.short	341                     # 0x155
	.short	341                     # 0x155
	.short	341                     # 0x155
	.short	341                     # 0x155
	.short	341                     # 0x155
	.short	341                     # 0x155
	.short	341                     # 0x155
	.short	341                     # 0x155
	.size	Offset_intra_default_intra, 32

	.type	Offset_intra_default_inter,@object # @Offset_intra_default_inter
	.p2align	4
Offset_intra_default_inter:
	.short	171                     # 0xab
	.short	171                     # 0xab
	.short	171                     # 0xab
	.short	171                     # 0xab
	.short	171                     # 0xab
	.short	171                     # 0xab
	.short	171                     # 0xab
	.short	171                     # 0xab
	.short	171                     # 0xab
	.short	171                     # 0xab
	.short	171                     # 0xab
	.short	171                     # 0xab
	.short	171                     # 0xab
	.short	171                     # 0xab
	.short	171                     # 0xab
	.short	171                     # 0xab
	.size	Offset_intra_default_inter, 32

	.type	Offset_inter_default,@object # @Offset_inter_default
	.p2align	4
Offset_inter_default:
	.short	171                     # 0xab
	.short	171                     # 0xab
	.short	171                     # 0xab
	.short	171                     # 0xab
	.short	171                     # 0xab
	.short	171                     # 0xab
	.short	171                     # 0xab
	.short	171                     # 0xab
	.short	171                     # 0xab
	.short	171                     # 0xab
	.short	171                     # 0xab
	.short	171                     # 0xab
	.short	171                     # 0xab
	.short	171                     # 0xab
	.short	171                     # 0xab
	.short	171                     # 0xab
	.size	Offset_inter_default, 32

	.type	LevelOffset8x8Luma_Intra,@object # @LevelOffset8x8Luma_Intra
	.comm	LevelOffset8x8Luma_Intra,3328,16
	.type	LevelOffset8x8Luma_Inter,@object # @LevelOffset8x8Luma_Inter
	.comm	LevelOffset8x8Luma_Inter,3328,16
	.type	Offset8_intra_default_intra,@object # @Offset8_intra_default_intra
	.p2align	4
Offset8_intra_default_intra:
	.short	341                     # 0x155
	.short	341                     # 0x155
	.short	341                     # 0x155
	.short	341                     # 0x155
	.short	341                     # 0x155
	.short	341                     # 0x155
	.short	341                     # 0x155
	.short	341                     # 0x155
	.short	341                     # 0x155
	.short	341                     # 0x155
	.short	341                     # 0x155
	.short	341                     # 0x155
	.short	341                     # 0x155
	.short	341                     # 0x155
	.short	341                     # 0x155
	.short	341                     # 0x155
	.short	341                     # 0x155
	.short	341                     # 0x155
	.short	341                     # 0x155
	.short	341                     # 0x155
	.short	341                     # 0x155
	.short	341                     # 0x155
	.short	341                     # 0x155
	.short	341                     # 0x155
	.short	341                     # 0x155
	.short	341                     # 0x155
	.short	341                     # 0x155
	.short	341                     # 0x155
	.short	341                     # 0x155
	.short	341                     # 0x155
	.short	341                     # 0x155
	.short	341                     # 0x155
	.short	341                     # 0x155
	.short	341                     # 0x155
	.short	341                     # 0x155
	.short	341                     # 0x155
	.short	341                     # 0x155
	.short	341                     # 0x155
	.short	341                     # 0x155
	.short	341                     # 0x155
	.short	341                     # 0x155
	.short	341                     # 0x155
	.short	341                     # 0x155
	.short	341                     # 0x155
	.short	341                     # 0x155
	.short	341                     # 0x155
	.short	341                     # 0x155
	.short	341                     # 0x155
	.short	341                     # 0x155
	.short	341                     # 0x155
	.short	341                     # 0x155
	.short	341                     # 0x155
	.short	341                     # 0x155
	.short	341                     # 0x155
	.short	341                     # 0x155
	.short	341                     # 0x155
	.short	341                     # 0x155
	.short	341                     # 0x155
	.short	341                     # 0x155
	.short	341                     # 0x155
	.short	341                     # 0x155
	.short	341                     # 0x155
	.short	341                     # 0x155
	.short	341                     # 0x155
	.size	Offset8_intra_default_intra, 128

	.type	Offset8_intra_default_inter,@object # @Offset8_intra_default_inter
	.p2align	4
Offset8_intra_default_inter:
	.short	171                     # 0xab
	.short	171                     # 0xab
	.short	171                     # 0xab
	.short	171                     # 0xab
	.short	171                     # 0xab
	.short	171                     # 0xab
	.short	171                     # 0xab
	.short	171                     # 0xab
	.short	171                     # 0xab
	.short	171                     # 0xab
	.short	171                     # 0xab
	.short	171                     # 0xab
	.short	171                     # 0xab
	.short	171                     # 0xab
	.short	171                     # 0xab
	.short	171                     # 0xab
	.short	171                     # 0xab
	.short	171                     # 0xab
	.short	171                     # 0xab
	.short	171                     # 0xab
	.short	171                     # 0xab
	.short	171                     # 0xab
	.short	171                     # 0xab
	.short	171                     # 0xab
	.short	171                     # 0xab
	.short	171                     # 0xab
	.short	171                     # 0xab
	.short	171                     # 0xab
	.short	171                     # 0xab
	.short	171                     # 0xab
	.short	171                     # 0xab
	.short	171                     # 0xab
	.short	171                     # 0xab
	.short	171                     # 0xab
	.short	171                     # 0xab
	.short	171                     # 0xab
	.short	171                     # 0xab
	.short	171                     # 0xab
	.short	171                     # 0xab
	.short	171                     # 0xab
	.short	171                     # 0xab
	.short	171                     # 0xab
	.short	171                     # 0xab
	.short	171                     # 0xab
	.short	171                     # 0xab
	.short	171                     # 0xab
	.short	171                     # 0xab
	.short	171                     # 0xab
	.short	171                     # 0xab
	.short	171                     # 0xab
	.short	171                     # 0xab
	.short	171                     # 0xab
	.short	171                     # 0xab
	.short	171                     # 0xab
	.short	171                     # 0xab
	.short	171                     # 0xab
	.short	171                     # 0xab
	.short	171                     # 0xab
	.short	171                     # 0xab
	.short	171                     # 0xab
	.short	171                     # 0xab
	.short	171                     # 0xab
	.short	171                     # 0xab
	.short	171                     # 0xab
	.size	Offset8_intra_default_inter, 128

	.type	Offset8_inter_default,@object # @Offset8_inter_default
	.p2align	4
Offset8_inter_default:
	.short	171                     # 0xab
	.short	171                     # 0xab
	.short	171                     # 0xab
	.short	171                     # 0xab
	.short	171                     # 0xab
	.short	171                     # 0xab
	.short	171                     # 0xab
	.short	171                     # 0xab
	.short	171                     # 0xab
	.short	171                     # 0xab
	.short	171                     # 0xab
	.short	171                     # 0xab
	.short	171                     # 0xab
	.short	171                     # 0xab
	.short	171                     # 0xab
	.short	171                     # 0xab
	.short	171                     # 0xab
	.short	171                     # 0xab
	.short	171                     # 0xab
	.short	171                     # 0xab
	.short	171                     # 0xab
	.short	171                     # 0xab
	.short	171                     # 0xab
	.short	171                     # 0xab
	.short	171                     # 0xab
	.short	171                     # 0xab
	.short	171                     # 0xab
	.short	171                     # 0xab
	.short	171                     # 0xab
	.short	171                     # 0xab
	.short	171                     # 0xab
	.short	171                     # 0xab
	.short	171                     # 0xab
	.short	171                     # 0xab
	.short	171                     # 0xab
	.short	171                     # 0xab
	.short	171                     # 0xab
	.short	171                     # 0xab
	.short	171                     # 0xab
	.short	171                     # 0xab
	.short	171                     # 0xab
	.short	171                     # 0xab
	.short	171                     # 0xab
	.short	171                     # 0xab
	.short	171                     # 0xab
	.short	171                     # 0xab
	.short	171                     # 0xab
	.short	171                     # 0xab
	.short	171                     # 0xab
	.short	171                     # 0xab
	.short	171                     # 0xab
	.short	171                     # 0xab
	.short	171                     # 0xab
	.short	171                     # 0xab
	.short	171                     # 0xab
	.short	171                     # 0xab
	.short	171                     # 0xab
	.short	171                     # 0xab
	.short	171                     # 0xab
	.short	171                     # 0xab
	.short	171                     # 0xab
	.short	171                     # 0xab
	.short	171                     # 0xab
	.short	171                     # 0xab
	.size	Offset8_inter_default, 128

	.type	top_pic,@object         # @top_pic
	.comm	top_pic,8,8
	.type	bottom_pic,@object      # @bottom_pic
	.comm	bottom_pic,8,8
	.type	frame_pic,@object       # @frame_pic
	.comm	frame_pic,8,8
	.type	frame_pic2,@object      # @frame_pic2
	.comm	frame_pic2,8,8
	.type	frame_pic3,@object      # @frame_pic3
	.comm	frame_pic3,8,8
	.type	imgY_org,@object        # @imgY_org
	.comm	imgY_org,8,8
	.type	imgUV_org,@object       # @imgUV_org
	.comm	imgUV_org,8,8
	.type	img4Y_tmp,@object       # @img4Y_tmp
	.comm	img4Y_tmp,8,8
	.type	log2_max_frame_num_minus4,@object # @log2_max_frame_num_minus4
	.comm	log2_max_frame_num_minus4,4,4
	.type	log2_max_pic_order_cnt_lsb_minus4,@object # @log2_max_pic_order_cnt_lsb_minus4
	.comm	log2_max_pic_order_cnt_lsb_minus4,4,4
	.type	me_tot_time,@object     # @me_tot_time
	.comm	me_tot_time,4,4
	.type	me_time,@object         # @me_time
	.comm	me_time,4,4
	.type	active_pps,@object      # @active_pps
	.comm	active_pps,8,8
	.type	active_sps,@object      # @active_sps
	.comm	active_sps,8,8
	.type	mb_adaptive,@object     # @mb_adaptive
	.comm	mb_adaptive,4,4
	.type	MBPairIsField,@object   # @MBPairIsField
	.comm	MBPairIsField,4,4
	.type	wp_weight,@object       # @wp_weight
	.comm	wp_weight,8,8
	.type	wp_offset,@object       # @wp_offset
	.comm	wp_offset,8,8
	.type	wbp_weight,@object      # @wbp_weight
	.comm	wbp_weight,8,8
	.type	luma_log_weight_denom,@object # @luma_log_weight_denom
	.comm	luma_log_weight_denom,4,4
	.type	chroma_log_weight_denom,@object # @chroma_log_weight_denom
	.comm	chroma_log_weight_denom,4,4
	.type	wp_luma_round,@object   # @wp_luma_round
	.comm	wp_luma_round,4,4
	.type	wp_chroma_round,@object # @wp_chroma_round
	.comm	wp_chroma_round,4,4
	.type	imgY_org_top,@object    # @imgY_org_top
	.comm	imgY_org_top,8,8
	.type	imgY_org_bot,@object    # @imgY_org_bot
	.comm	imgY_org_bot,8,8
	.type	imgUV_org_top,@object   # @imgUV_org_top
	.comm	imgUV_org_top,8,8
	.type	imgUV_org_bot,@object   # @imgUV_org_bot
	.comm	imgUV_org_bot,8,8
	.type	imgY_org_frm,@object    # @imgY_org_frm
	.comm	imgY_org_frm,8,8
	.type	imgUV_org_frm,@object   # @imgUV_org_frm
	.comm	imgUV_org_frm,8,8
	.type	imgY_com,@object        # @imgY_com
	.comm	imgY_com,8,8
	.type	imgUV_com,@object       # @imgUV_com
	.comm	imgUV_com,8,8
	.type	direct_ref_idx,@object  # @direct_ref_idx
	.comm	direct_ref_idx,8,8
	.type	direct_pdir,@object     # @direct_pdir
	.comm	direct_pdir,8,8
	.type	pixel_map,@object       # @pixel_map
	.comm	pixel_map,8,8
	.type	refresh_map,@object     # @refresh_map
	.comm	refresh_map,8,8
	.type	intras,@object          # @intras
	.comm	intras,4,4
	.type	Iframe_ctr,@object      # @Iframe_ctr
	.comm	Iframe_ctr,4,4
	.type	Pframe_ctr,@object      # @Pframe_ctr
	.comm	Pframe_ctr,4,4
	.type	Bframe_ctr,@object      # @Bframe_ctr
	.comm	Bframe_ctr,4,4
	.type	frame_no,@object        # @frame_no
	.comm	frame_no,4,4
	.type	nextP_tr_fld,@object    # @nextP_tr_fld
	.comm	nextP_tr_fld,4,4
	.type	nextP_tr_frm,@object    # @nextP_tr_frm
	.comm	nextP_tr_frm,4,4
	.type	tot_time,@object        # @tot_time
	.comm	tot_time,4,4
	.type	resTrans_R,@object      # @resTrans_R
	.comm	resTrans_R,1024,16
	.type	resTrans_G,@object      # @resTrans_G
	.comm	resTrans_G,1024,16
	.type	resTrans_B,@object      # @resTrans_B
	.comm	resTrans_B,1024,16
	.type	rec_resR,@object        # @rec_resR
	.comm	rec_resR,1024,16
	.type	rec_resG,@object        # @rec_resG
	.comm	rec_resG,1024,16
	.type	rec_resB,@object        # @rec_resB
	.comm	rec_resB,1024,16
	.type	mprRGB,@object          # @mprRGB
	.comm	mprRGB,3072,16
	.type	dc_level,@object        # @dc_level
	.comm	dc_level,128,16
	.type	dc_level_temp,@object   # @dc_level_temp
	.comm	dc_level_temp,128,16
	.type	cbp_chroma_block,@object # @cbp_chroma_block
	.comm	cbp_chroma_block,128,16
	.type	cbp_chroma_block_temp,@object # @cbp_chroma_block_temp
	.comm	cbp_chroma_block_temp,128,16
	.type	b8_ipredmode8x8,@object # @b8_ipredmode8x8
	.comm	b8_ipredmode8x8,64,16
	.type	b8_intra_pred_modes8x8,@object # @b8_intra_pred_modes8x8
	.comm	b8_intra_pred_modes8x8,64,16
	.type	gop_structure,@object   # @gop_structure
	.comm	gop_structure,8,8
	.type	rdopt,@object           # @rdopt
	.comm	rdopt,8,8
	.type	rddata_top_frame_mb,@object # @rddata_top_frame_mb
	.comm	rddata_top_frame_mb,3360,8
	.type	rddata_bot_frame_mb,@object # @rddata_bot_frame_mb
	.comm	rddata_bot_frame_mb,3360,8
	.type	rddata_top_field_mb,@object # @rddata_top_field_mb
	.comm	rddata_top_field_mb,3360,8
	.type	rddata_bot_field_mb,@object # @rddata_bot_field_mb
	.comm	rddata_bot_field_mb,3360,8
	.type	p_stat,@object          # @p_stat
	.comm	p_stat,8,8
	.type	p_log,@object           # @p_log
	.comm	p_log,8,8
	.type	p_trace,@object         # @p_trace
	.comm	p_trace,8,8
	.type	p_in,@object            # @p_in
	.comm	p_in,4,4
	.type	p_dec,@object           # @p_dec
	.comm	p_dec,4,4
	.type	glob_remapping_of_pic_nums_idc_l0,@object # @glob_remapping_of_pic_nums_idc_l0
	.comm	glob_remapping_of_pic_nums_idc_l0,80,16
	.type	glob_abs_diff_pic_num_minus1_l0,@object # @glob_abs_diff_pic_num_minus1_l0
	.comm	glob_abs_diff_pic_num_minus1_l0,80,16
	.type	glob_long_term_pic_idx_l0,@object # @glob_long_term_pic_idx_l0
	.comm	glob_long_term_pic_idx_l0,80,16
	.type	glob_remapping_of_pic_nums_idc_l1,@object # @glob_remapping_of_pic_nums_idc_l1
	.comm	glob_remapping_of_pic_nums_idc_l1,80,16
	.type	glob_abs_diff_pic_num_minus1_l1,@object # @glob_abs_diff_pic_num_minus1_l1
	.comm	glob_abs_diff_pic_num_minus1_l1,80,16
	.type	glob_long_term_pic_idx_l1,@object # @glob_long_term_pic_idx_l1
	.comm	glob_long_term_pic_idx_l1,80,16
	.type	Bytes_After_Header,@object # @Bytes_After_Header
	.comm	Bytes_After_Header,4,4
	.type	rpc_bytes_to_go,@object # @rpc_bytes_to_go
	.comm	rpc_bytes_to_go,4,4
	.type	rpc_bits_to_go,@object  # @rpc_bits_to_go
	.comm	rpc_bits_to_go,4,4
	.type	OffsetList4x4,@object   # @OffsetList4x4
	.comm	OffsetList4x4,288,16
	.type	OffsetList8x8,@object   # @OffsetList8x8
	.comm	OffsetList8x8,384,16

	.ident	"clang version 9.0.1 (git@github.com:llvm/llvm-project.git 9b2d207cf4b43cfc1a2b6940b3c06e50a1bd127f)"
	.section	".note.GNU-stack","",@progbits
