	.text
	.file	"q_offsets.c"
	.globl	CheckOffsetParameterName # -- Begin function CheckOffsetParameterName
	.p2align	4, 0x90
	.type	CheckOffsetParameterName,@function
CheckOffsetParameterName:               # @CheckOffsetParameterName
	.cfi_startproc
# %bb.0:                                # %rand_bb
	pushq	%rbp
	.cfi_def_cfa_offset 16
	.cfi_offset %rbp, -16
	movq	%rsp, %rbp
	.cfi_def_cfa_register %rbp
	pushq	%r14
	pushq	%rbx
	.cfi_offset %rbx, -32
	.cfi_offset %r14, -24
	movq	%rsi, %r14
	movq	%rdi, %rbx
	callq	get_rand
	cmpl	$0, %eax
	jne	.LBB0_17
# %bb.1:                                # %func_CheckOffsetParameterName.12
	movq	%rbx, %rdi
	movq	%r14, %rsi
	callq	CheckOffsetParameterName.12
	popq	%rbx
	popq	%r14
	popq	%rbp
	.cfi_def_cfa %rsp, 8
	retq
.LBB0_2:                                # %func_CheckOffsetParameterName.14
	.cfi_def_cfa %rbp, 16
	movq	%rbx, %rdi
	movq	%r14, %rsi
	callq	CheckOffsetParameterName.14
	popq	%rbx
	popq	%r14
	popq	%rbp
	.cfi_def_cfa %rsp, 8
	retq
.LBB0_3:                                # %func_CheckOffsetParameterName.16
	.cfi_def_cfa %rbp, 16
	movq	%rbx, %rdi
	movq	%r14, %rsi
	callq	CheckOffsetParameterName.16
	popq	%rbx
	popq	%r14
	popq	%rbp
	.cfi_def_cfa %rsp, 8
	retq
.LBB0_4:                                # %func_CheckOffsetParameterName.17
	.cfi_def_cfa %rbp, 16
	movq	%rbx, %rdi
	movq	%r14, %rsi
	callq	CheckOffsetParameterName.17
	popq	%rbx
	popq	%r14
	popq	%rbp
	.cfi_def_cfa %rsp, 8
	retq
.LBB0_5:                                # %func_CheckOffsetParameterName.25
	.cfi_def_cfa %rbp, 16
	movq	%rbx, %rdi
	movq	%r14, %rsi
	callq	CheckOffsetParameterName.25
	popq	%rbx
	popq	%r14
	popq	%rbp
	.cfi_def_cfa %rsp, 8
	retq
.LBB0_6:                                # %func_CheckOffsetParameterName.32
	.cfi_def_cfa %rbp, 16
	movq	%rbx, %rdi
	movq	%r14, %rsi
	callq	CheckOffsetParameterName.32
	popq	%rbx
	popq	%r14
	popq	%rbp
	.cfi_def_cfa %rsp, 8
	retq
.LBB0_7:                                # %func_CheckOffsetParameterName.45
	.cfi_def_cfa %rbp, 16
	movq	%rbx, %rdi
	movq	%r14, %rsi
	callq	CheckOffsetParameterName.45
	popq	%rbx
	popq	%r14
	popq	%rbp
	.cfi_def_cfa %rsp, 8
	retq
.LBB0_8:                                # %func_CheckOffsetParameterName.50
	.cfi_def_cfa %rbp, 16
	movq	%rbx, %rdi
	movq	%r14, %rsi
	callq	CheckOffsetParameterName.50
	popq	%rbx
	popq	%r14
	popq	%rbp
	.cfi_def_cfa %rsp, 8
	retq
.LBB0_9:                                # %func_CheckOffsetParameterName.51
	.cfi_def_cfa %rbp, 16
	movq	%rbx, %rdi
	movq	%r14, %rsi
	callq	CheckOffsetParameterName.51
	popq	%rbx
	popq	%r14
	popq	%rbp
	.cfi_def_cfa %rsp, 8
	retq
.LBB0_10:                               # %func_CheckOffsetParameterName.53
	.cfi_def_cfa %rbp, 16
	movq	%rbx, %rdi
	movq	%r14, %rsi
	callq	CheckOffsetParameterName.53
	popq	%rbx
	popq	%r14
	popq	%rbp
	.cfi_def_cfa %rsp, 8
	retq
.LBB0_11:                               # %func_CheckOffsetParameterName.57
	.cfi_def_cfa %rbp, 16
	movq	%rbx, %rdi
	movq	%r14, %rsi
	callq	CheckOffsetParameterName.57
	popq	%rbx
	popq	%r14
	popq	%rbp
	.cfi_def_cfa %rsp, 8
	retq
.LBB0_12:                               # %func_CheckOffsetParameterName.60
	.cfi_def_cfa %rbp, 16
	movq	%rbx, %rdi
	movq	%r14, %rsi
	callq	CheckOffsetParameterName.60
	popq	%rbx
	popq	%r14
	popq	%rbp
	.cfi_def_cfa %rsp, 8
	retq
.LBB0_13:                               # %func_CheckOffsetParameterName.61
	.cfi_def_cfa %rbp, 16
	movq	%rbx, %rdi
	movq	%r14, %rsi
	callq	CheckOffsetParameterName.61
	popq	%rbx
	popq	%r14
	popq	%rbp
	.cfi_def_cfa %rsp, 8
	retq
.LBB0_14:                               # %func_CheckOffsetParameterName.62
	.cfi_def_cfa %rbp, 16
	movq	%rbx, %rdi
	movq	%r14, %rsi
	callq	CheckOffsetParameterName.62
	popq	%rbx
	popq	%r14
	popq	%rbp
	.cfi_def_cfa %rsp, 8
	retq
.LBB0_15:                               # %func_CheckOffsetParameterName.63
	.cfi_def_cfa %rbp, 16
	movq	%rbx, %rdi
	movq	%r14, %rsi
	callq	CheckOffsetParameterName.63
	popq	%rbx
	popq	%r14
	popq	%rbp
	.cfi_def_cfa %rsp, 8
	retq
.LBB0_16:                               # %func_CheckOffsetParameterName.64
	.cfi_def_cfa %rbp, 16
	movq	%rbx, %rdi
	movq	%r14, %rsi
	callq	CheckOffsetParameterName.64
	popq	%rbx
	popq	%r14
	popq	%rbp
	.cfi_def_cfa %rsp, 8
	retq
.LBB0_17:                               # %ctrl0
	.cfi_def_cfa %rbp, 16
	cmpl	$1, %eax
	je	.LBB0_2
# %bb.18:                               # %ctrl1
	cmpl	$2, %eax
	je	.LBB0_3
# %bb.19:                               # %ctrl2
	cmpl	$3, %eax
	je	.LBB0_4
# %bb.20:                               # %ctrl3
	cmpl	$4, %eax
	je	.LBB0_5
# %bb.21:                               # %ctrl4
	cmpl	$5, %eax
	je	.LBB0_6
# %bb.22:                               # %ctrl5
	cmpl	$6, %eax
	je	.LBB0_7
# %bb.23:                               # %ctrl6
	cmpl	$7, %eax
	je	.LBB0_8
# %bb.24:                               # %ctrl7
	cmpl	$8, %eax
	je	.LBB0_9
# %bb.25:                               # %ctrl8
	cmpl	$9, %eax
	je	.LBB0_10
# %bb.26:                               # %ctrl9
	cmpl	$10, %eax
	je	.LBB0_11
# %bb.27:                               # %ctrl10
	cmpl	$11, %eax
	je	.LBB0_12
# %bb.28:                               # %ctrl11
	cmpl	$12, %eax
	je	.LBB0_13
# %bb.29:                               # %ctrl12
	cmpl	$13, %eax
	je	.LBB0_14
# %bb.30:                               # %ctrl13
	cmpl	$14, %eax
	je	.LBB0_15
	jmp	.LBB0_16
.Lfunc_end0:
	.size	CheckOffsetParameterName, .Lfunc_end0-CheckOffsetParameterName
	.cfi_endproc
                                        # -- End function
	.globl	ParseQOffsetMatrix      # -- Begin function ParseQOffsetMatrix
	.p2align	4, 0x90
	.type	ParseQOffsetMatrix,@function
ParseQOffsetMatrix:                     # @ParseQOffsetMatrix
	.cfi_startproc
# %bb.0:                                # %rand_bb
	pushq	%rbp
	.cfi_def_cfa_offset 16
	.cfi_offset %rbp, -16
	movq	%rsp, %rbp
	.cfi_def_cfa_register %rbp
	pushq	%r14
	pushq	%rbx
	.cfi_offset %rbx, -32
	.cfi_offset %r14, -24
	movl	%esi, %r14d
	movq	%rdi, %rbx
	callq	get_rand
	cmpl	$0, %eax
	jne	.LBB1_17
# %bb.1:                                # %func_ParseQOffsetMatrix.6
	movq	%rbx, %rdi
	movl	%r14d, %esi
	callq	ParseQOffsetMatrix.6
	popq	%rbx
	popq	%r14
	popq	%rbp
	.cfi_def_cfa %rsp, 8
	retq
.LBB1_2:                                # %func_ParseQOffsetMatrix.19
	.cfi_def_cfa %rbp, 16
	movq	%rbx, %rdi
	movl	%r14d, %esi
	callq	ParseQOffsetMatrix.19
	popq	%rbx
	popq	%r14
	popq	%rbp
	.cfi_def_cfa %rsp, 8
	retq
.LBB1_3:                                # %func_ParseQOffsetMatrix.20
	.cfi_def_cfa %rbp, 16
	movq	%rbx, %rdi
	movl	%r14d, %esi
	callq	ParseQOffsetMatrix.20
	popq	%rbx
	popq	%r14
	popq	%rbp
	.cfi_def_cfa %rsp, 8
	retq
.LBB1_4:                                # %func_ParseQOffsetMatrix.22
	.cfi_def_cfa %rbp, 16
	movq	%rbx, %rdi
	movl	%r14d, %esi
	callq	ParseQOffsetMatrix.22
	popq	%rbx
	popq	%r14
	popq	%rbp
	.cfi_def_cfa %rsp, 8
	retq
.LBB1_5:                                # %func_ParseQOffsetMatrix.23
	.cfi_def_cfa %rbp, 16
	movq	%rbx, %rdi
	movl	%r14d, %esi
	callq	ParseQOffsetMatrix.23
	popq	%rbx
	popq	%r14
	popq	%rbp
	.cfi_def_cfa %rsp, 8
	retq
.LBB1_6:                                # %func_ParseQOffsetMatrix.33
	.cfi_def_cfa %rbp, 16
	movq	%rbx, %rdi
	movl	%r14d, %esi
	callq	ParseQOffsetMatrix.33
	popq	%rbx
	popq	%r14
	popq	%rbp
	.cfi_def_cfa %rsp, 8
	retq
.LBB1_7:                                # %func_ParseQOffsetMatrix.34
	.cfi_def_cfa %rbp, 16
	movq	%rbx, %rdi
	movl	%r14d, %esi
	callq	ParseQOffsetMatrix.34
	popq	%rbx
	popq	%r14
	popq	%rbp
	.cfi_def_cfa %rsp, 8
	retq
.LBB1_8:                                # %func_ParseQOffsetMatrix.38
	.cfi_def_cfa %rbp, 16
	movq	%rbx, %rdi
	movl	%r14d, %esi
	callq	ParseQOffsetMatrix.38
	popq	%rbx
	popq	%r14
	popq	%rbp
	.cfi_def_cfa %rsp, 8
	retq
.LBB1_9:                                # %func_ParseQOffsetMatrix.40
	.cfi_def_cfa %rbp, 16
	movq	%rbx, %rdi
	movl	%r14d, %esi
	callq	ParseQOffsetMatrix.40
	popq	%rbx
	popq	%r14
	popq	%rbp
	.cfi_def_cfa %rsp, 8
	retq
.LBB1_10:                               # %func_ParseQOffsetMatrix.42
	.cfi_def_cfa %rbp, 16
	movq	%rbx, %rdi
	movl	%r14d, %esi
	callq	ParseQOffsetMatrix.42
	popq	%rbx
	popq	%r14
	popq	%rbp
	.cfi_def_cfa %rsp, 8
	retq
.LBB1_11:                               # %func_ParseQOffsetMatrix.43
	.cfi_def_cfa %rbp, 16
	movq	%rbx, %rdi
	movl	%r14d, %esi
	callq	ParseQOffsetMatrix.43
	popq	%rbx
	popq	%r14
	popq	%rbp
	.cfi_def_cfa %rsp, 8
	retq
.LBB1_12:                               # %func_ParseQOffsetMatrix.44
	.cfi_def_cfa %rbp, 16
	movq	%rbx, %rdi
	movl	%r14d, %esi
	callq	ParseQOffsetMatrix.44
	popq	%rbx
	popq	%r14
	popq	%rbp
	.cfi_def_cfa %rsp, 8
	retq
.LBB1_13:                               # %func_ParseQOffsetMatrix.52
	.cfi_def_cfa %rbp, 16
	movq	%rbx, %rdi
	movl	%r14d, %esi
	callq	ParseQOffsetMatrix.52
	popq	%rbx
	popq	%r14
	popq	%rbp
	.cfi_def_cfa %rsp, 8
	retq
.LBB1_14:                               # %func_ParseQOffsetMatrix.56
	.cfi_def_cfa %rbp, 16
	movq	%rbx, %rdi
	movl	%r14d, %esi
	callq	ParseQOffsetMatrix.56
	popq	%rbx
	popq	%r14
	popq	%rbp
	.cfi_def_cfa %rsp, 8
	retq
.LBB1_15:                               # %func_ParseQOffsetMatrix.58
	.cfi_def_cfa %rbp, 16
	movq	%rbx, %rdi
	movl	%r14d, %esi
	callq	ParseQOffsetMatrix.58
	popq	%rbx
	popq	%r14
	popq	%rbp
	.cfi_def_cfa %rsp, 8
	retq
.LBB1_16:                               # %func_ParseQOffsetMatrix.59
	.cfi_def_cfa %rbp, 16
	movq	%rbx, %rdi
	movl	%r14d, %esi
	callq	ParseQOffsetMatrix.59
	popq	%rbx
	popq	%r14
	popq	%rbp
	.cfi_def_cfa %rsp, 8
	retq
.LBB1_17:                               # %ctrl0
	.cfi_def_cfa %rbp, 16
	cmpl	$1, %eax
	je	.LBB1_2
# %bb.18:                               # %ctrl1
	cmpl	$2, %eax
	je	.LBB1_3
# %bb.19:                               # %ctrl2
	cmpl	$3, %eax
	je	.LBB1_4
# %bb.20:                               # %ctrl3
	cmpl	$4, %eax
	je	.LBB1_5
# %bb.21:                               # %ctrl4
	cmpl	$5, %eax
	je	.LBB1_6
# %bb.22:                               # %ctrl5
	cmpl	$6, %eax
	je	.LBB1_7
# %bb.23:                               # %ctrl6
	cmpl	$7, %eax
	je	.LBB1_8
# %bb.24:                               # %ctrl7
	cmpl	$8, %eax
	je	.LBB1_9
# %bb.25:                               # %ctrl8
	cmpl	$9, %eax
	je	.LBB1_10
# %bb.26:                               # %ctrl9
	cmpl	$10, %eax
	je	.LBB1_11
# %bb.27:                               # %ctrl10
	cmpl	$11, %eax
	je	.LBB1_12
# %bb.28:                               # %ctrl11
	cmpl	$12, %eax
	je	.LBB1_13
# %bb.29:                               # %ctrl12
	cmpl	$13, %eax
	je	.LBB1_14
# %bb.30:                               # %ctrl13
	cmpl	$14, %eax
	je	.LBB1_15
	jmp	.LBB1_16
.Lfunc_end1:
	.size	ParseQOffsetMatrix, .Lfunc_end1-ParseQOffsetMatrix
	.cfi_endproc
                                        # -- End function
	.globl	Init_QOffsetMatrix      # -- Begin function Init_QOffsetMatrix
	.p2align	4, 0x90
	.type	Init_QOffsetMatrix,@function
Init_QOffsetMatrix:                     # @Init_QOffsetMatrix
	.cfi_startproc
# %bb.0:                                # %entry
	pushq	%rbp
	.cfi_def_cfa_offset 16
	.cfi_offset %rbp, -16
	movq	%rsp, %rbp
	.cfi_def_cfa_register %rbp
	pushq	%rbx
	pushq	%rax
	.cfi_offset %rbx, -24
	movq	input, %rax
	cmpl	$0, 3584(%rax)
	je	.LBB2_5
# %bb.1:                                # %if.then
	movq	input, %rsi
	addq	$3384, %rsi             # imm = 0xD38
	movabsq	$.L.str.6, %rdi
	movb	$0, %al
	callq	printf
	movq	input, %rdi
	addq	$3384, %rdi             # imm = 0xD38
	xorl	%esi, %esi
	callq	GetConfigFileContent
	movq	%rax, -16(%rbp)
	cmpq	$0, -16(%rbp)
	je	.LBB2_3
# %bb.2:                                # %if.then4
	movq	-16(%rbp), %rbx
	movq	-16(%rbp), %rdi
	callq	strlen
	movq	%rbx, %rdi
	movl	%eax, %esi
	callq	ParseQOffsetMatrix
	jmp	.LBB2_4
.LBB2_3:                                # %if.else
	movabsq	$.L.str.7, %rdi
	movabsq	$errortext, %rsi
	movb	$0, %al
	callq	printf
	movq	input, %rax
	movl	$0, 3584(%rax)
.LBB2_4:                                # %if.end
	movabsq	$.L.str.8, %rdi
	movb	$0, %al
	callq	printf
	movq	-16(%rbp), %rdi
	callq	free
.LBB2_5:                                # %if.end9
	addq	$8, %rsp
	popq	%rbx
	popq	%rbp
	.cfi_def_cfa %rsp, 8
	retq
.Lfunc_end2:
	.size	Init_QOffsetMatrix, .Lfunc_end2-Init_QOffsetMatrix
	.cfi_endproc
                                        # -- End function
	.globl	CalculateOffsetParam    # -- Begin function CalculateOffsetParam
	.p2align	4, 0x90
	.type	CalculateOffsetParam,@function
CalculateOffsetParam:                   # @CalculateOffsetParam
	.cfi_startproc
# %bb.0:                                # %rand_bb
	pushq	%rbp
	.cfi_def_cfa_offset 16
	.cfi_offset %rbp, -16
	movq	%rsp, %rbp
	.cfi_def_cfa_register %rbp
	callq	get_rand
	cmpl	$0, %eax
	jne	.LBB3_17
# %bb.1:                                # %func_CalculateOffsetParam.1
	callq	CalculateOffsetParam.1
	popq	%rbp
	.cfi_def_cfa %rsp, 8
	retq
.LBB3_2:                                # %func_CalculateOffsetParam.4
	.cfi_def_cfa %rbp, 16
	callq	CalculateOffsetParam.4
	popq	%rbp
	.cfi_def_cfa %rsp, 8
	retq
.LBB3_3:                                # %func_CalculateOffsetParam.5
	.cfi_def_cfa %rbp, 16
	callq	CalculateOffsetParam.5
	popq	%rbp
	.cfi_def_cfa %rsp, 8
	retq
.LBB3_4:                                # %func_CalculateOffsetParam.10
	.cfi_def_cfa %rbp, 16
	callq	CalculateOffsetParam.10
	popq	%rbp
	.cfi_def_cfa %rsp, 8
	retq
.LBB3_5:                                # %func_CalculateOffsetParam.11
	.cfi_def_cfa %rbp, 16
	callq	CalculateOffsetParam.11
	popq	%rbp
	.cfi_def_cfa %rsp, 8
	retq
.LBB3_6:                                # %func_CalculateOffsetParam.13
	.cfi_def_cfa %rbp, 16
	callq	CalculateOffsetParam.13
	popq	%rbp
	.cfi_def_cfa %rsp, 8
	retq
.LBB3_7:                                # %func_CalculateOffsetParam.15
	.cfi_def_cfa %rbp, 16
	callq	CalculateOffsetParam.15
	popq	%rbp
	.cfi_def_cfa %rsp, 8
	retq
.LBB3_8:                                # %func_CalculateOffsetParam.24
	.cfi_def_cfa %rbp, 16
	callq	CalculateOffsetParam.24
	popq	%rbp
	.cfi_def_cfa %rsp, 8
	retq
.LBB3_9:                                # %func_CalculateOffsetParam.26
	.cfi_def_cfa %rbp, 16
	callq	CalculateOffsetParam.26
	popq	%rbp
	.cfi_def_cfa %rsp, 8
	retq
.LBB3_10:                               # %func_CalculateOffsetParam.27
	.cfi_def_cfa %rbp, 16
	callq	CalculateOffsetParam.27
	popq	%rbp
	.cfi_def_cfa %rsp, 8
	retq
.LBB3_11:                               # %func_CalculateOffsetParam.28
	.cfi_def_cfa %rbp, 16
	callq	CalculateOffsetParam.28
	popq	%rbp
	.cfi_def_cfa %rsp, 8
	retq
.LBB3_12:                               # %func_CalculateOffsetParam.29
	.cfi_def_cfa %rbp, 16
	callq	CalculateOffsetParam.29
	popq	%rbp
	.cfi_def_cfa %rsp, 8
	retq
.LBB3_13:                               # %func_CalculateOffsetParam.30
	.cfi_def_cfa %rbp, 16
	callq	CalculateOffsetParam.30
	popq	%rbp
	.cfi_def_cfa %rsp, 8
	retq
.LBB3_14:                               # %func_CalculateOffsetParam.31
	.cfi_def_cfa %rbp, 16
	callq	CalculateOffsetParam.31
	popq	%rbp
	.cfi_def_cfa %rsp, 8
	retq
.LBB3_15:                               # %func_CalculateOffsetParam.35
	.cfi_def_cfa %rbp, 16
	callq	CalculateOffsetParam.35
	popq	%rbp
	.cfi_def_cfa %rsp, 8
	retq
.LBB3_16:                               # %func_CalculateOffsetParam.37
	.cfi_def_cfa %rbp, 16
	callq	CalculateOffsetParam.37
	popq	%rbp
	.cfi_def_cfa %rsp, 8
	retq
.LBB3_17:                               # %ctrl0
	.cfi_def_cfa %rbp, 16
	cmpl	$1, %eax
	je	.LBB3_2
# %bb.18:                               # %ctrl1
	cmpl	$2, %eax
	je	.LBB3_3
# %bb.19:                               # %ctrl2
	cmpl	$3, %eax
	je	.LBB3_4
# %bb.20:                               # %ctrl3
	cmpl	$4, %eax
	je	.LBB3_5
# %bb.21:                               # %ctrl4
	cmpl	$5, %eax
	je	.LBB3_6
# %bb.22:                               # %ctrl5
	cmpl	$6, %eax
	je	.LBB3_7
# %bb.23:                               # %ctrl6
	cmpl	$7, %eax
	je	.LBB3_8
# %bb.24:                               # %ctrl7
	cmpl	$8, %eax
	je	.LBB3_9
# %bb.25:                               # %ctrl8
	cmpl	$9, %eax
	je	.LBB3_10
# %bb.26:                               # %ctrl9
	cmpl	$10, %eax
	je	.LBB3_11
# %bb.27:                               # %ctrl10
	cmpl	$11, %eax
	je	.LBB3_12
# %bb.28:                               # %ctrl11
	cmpl	$12, %eax
	je	.LBB3_13
# %bb.29:                               # %ctrl12
	cmpl	$13, %eax
	je	.LBB3_14
# %bb.30:                               # %ctrl13
	cmpl	$14, %eax
	je	.LBB3_15
	jmp	.LBB3_16
.Lfunc_end3:
	.size	CalculateOffsetParam, .Lfunc_end3-CalculateOffsetParam
	.cfi_endproc
                                        # -- End function
	.globl	CalculateOffset8Param   # -- Begin function CalculateOffset8Param
	.p2align	4, 0x90
	.type	CalculateOffset8Param,@function
CalculateOffset8Param:                  # @CalculateOffset8Param
	.cfi_startproc
# %bb.0:                                # %rand_bb
	pushq	%rbp
	.cfi_def_cfa_offset 16
	.cfi_offset %rbp, -16
	movq	%rsp, %rbp
	.cfi_def_cfa_register %rbp
	callq	get_rand
	cmpl	$0, %eax
	jne	.LBB4_17
# %bb.1:                                # %func_CalculateOffset8Param.2
	callq	CalculateOffset8Param.2
	popq	%rbp
	.cfi_def_cfa %rsp, 8
	retq
.LBB4_2:                                # %func_CalculateOffset8Param.3
	.cfi_def_cfa %rbp, 16
	callq	CalculateOffset8Param.3
	popq	%rbp
	.cfi_def_cfa %rsp, 8
	retq
.LBB4_3:                                # %func_CalculateOffset8Param.7
	.cfi_def_cfa %rbp, 16
	callq	CalculateOffset8Param.7
	popq	%rbp
	.cfi_def_cfa %rsp, 8
	retq
.LBB4_4:                                # %func_CalculateOffset8Param.8
	.cfi_def_cfa %rbp, 16
	callq	CalculateOffset8Param.8
	popq	%rbp
	.cfi_def_cfa %rsp, 8
	retq
.LBB4_5:                                # %func_CalculateOffset8Param.9
	.cfi_def_cfa %rbp, 16
	callq	CalculateOffset8Param.9
	popq	%rbp
	.cfi_def_cfa %rsp, 8
	retq
.LBB4_6:                                # %func_CalculateOffset8Param.18
	.cfi_def_cfa %rbp, 16
	callq	CalculateOffset8Param.18
	popq	%rbp
	.cfi_def_cfa %rsp, 8
	retq
.LBB4_7:                                # %func_CalculateOffset8Param.21
	.cfi_def_cfa %rbp, 16
	callq	CalculateOffset8Param.21
	popq	%rbp
	.cfi_def_cfa %rsp, 8
	retq
.LBB4_8:                                # %func_CalculateOffset8Param.36
	.cfi_def_cfa %rbp, 16
	callq	CalculateOffset8Param.36
	popq	%rbp
	.cfi_def_cfa %rsp, 8
	retq
.LBB4_9:                                # %func_CalculateOffset8Param.39
	.cfi_def_cfa %rbp, 16
	callq	CalculateOffset8Param.39
	popq	%rbp
	.cfi_def_cfa %rsp, 8
	retq
.LBB4_10:                               # %func_CalculateOffset8Param.41
	.cfi_def_cfa %rbp, 16
	callq	CalculateOffset8Param.41
	popq	%rbp
	.cfi_def_cfa %rsp, 8
	retq
.LBB4_11:                               # %func_CalculateOffset8Param.46
	.cfi_def_cfa %rbp, 16
	callq	CalculateOffset8Param.46
	popq	%rbp
	.cfi_def_cfa %rsp, 8
	retq
.LBB4_12:                               # %func_CalculateOffset8Param.47
	.cfi_def_cfa %rbp, 16
	callq	CalculateOffset8Param.47
	popq	%rbp
	.cfi_def_cfa %rsp, 8
	retq
.LBB4_13:                               # %func_CalculateOffset8Param.48
	.cfi_def_cfa %rbp, 16
	callq	CalculateOffset8Param.48
	popq	%rbp
	.cfi_def_cfa %rsp, 8
	retq
.LBB4_14:                               # %func_CalculateOffset8Param.49
	.cfi_def_cfa %rbp, 16
	callq	CalculateOffset8Param.49
	popq	%rbp
	.cfi_def_cfa %rsp, 8
	retq
.LBB4_15:                               # %func_CalculateOffset8Param.54
	.cfi_def_cfa %rbp, 16
	callq	CalculateOffset8Param.54
	popq	%rbp
	.cfi_def_cfa %rsp, 8
	retq
.LBB4_16:                               # %func_CalculateOffset8Param.55
	.cfi_def_cfa %rbp, 16
	callq	CalculateOffset8Param.55
	popq	%rbp
	.cfi_def_cfa %rsp, 8
	retq
.LBB4_17:                               # %ctrl0
	.cfi_def_cfa %rbp, 16
	cmpl	$1, %eax
	je	.LBB4_2
# %bb.18:                               # %ctrl1
	cmpl	$2, %eax
	je	.LBB4_3
# %bb.19:                               # %ctrl2
	cmpl	$3, %eax
	je	.LBB4_4
# %bb.20:                               # %ctrl3
	cmpl	$4, %eax
	je	.LBB4_5
# %bb.21:                               # %ctrl4
	cmpl	$5, %eax
	je	.LBB4_6
# %bb.22:                               # %ctrl5
	cmpl	$6, %eax
	je	.LBB4_7
# %bb.23:                               # %ctrl6
	cmpl	$7, %eax
	je	.LBB4_8
# %bb.24:                               # %ctrl7
	cmpl	$8, %eax
	je	.LBB4_9
# %bb.25:                               # %ctrl8
	cmpl	$9, %eax
	je	.LBB4_10
# %bb.26:                               # %ctrl9
	cmpl	$10, %eax
	je	.LBB4_11
# %bb.27:                               # %ctrl10
	cmpl	$11, %eax
	je	.LBB4_12
# %bb.28:                               # %ctrl11
	cmpl	$12, %eax
	je	.LBB4_13
# %bb.29:                               # %ctrl12
	cmpl	$13, %eax
	je	.LBB4_14
# %bb.30:                               # %ctrl13
	cmpl	$14, %eax
	je	.LBB4_15
	jmp	.LBB4_16
.Lfunc_end4:
	.size	CalculateOffset8Param, .Lfunc_end4-CalculateOffset8Param
	.cfi_endproc
                                        # -- End function
	.globl	CalculateOffsetParam.1  # -- Begin function CalculateOffsetParam.1
	.p2align	4, 0x90
	.type	CalculateOffsetParam.1,@function
CalculateOffsetParam.1:                 # @CalculateOffsetParam.1
	.cfi_startproc
# %bb.0:                                # %entry
	pushq	%rbp
	.cfi_def_cfa_offset 16
	.cfi_offset %rbp, -16
	movq	%rsp, %rbp
	.cfi_def_cfa_register %rbp
	subq	$32, %rsp
	movl	$655132571, -24(%rbp)   # imm = 0x270C879B
	movq	input, %rax
	cmpl	$0, 3584(%rax)
	je	.LBB5_17
# %bb.1:                                # %if.then
	movl	$0, -4(%rbp)
.LBB5_2:                                # %for.cond
                                        # =>This Loop Header: Depth=1
                                        #     Child Loop BB5_4 Depth 2
                                        #       Child Loop BB5_6 Depth 3
	cmpl	$13, -4(%rbp)
	jge	.LBB5_16
# %bb.3:                                # %for.body
                                        #   in Loop: Header=BB5_2 Depth=1
	movl	-4(%rbp), %eax
	addl	$15, %eax
	subl	$10, %eax
	movl	%eax, -20(%rbp)
	movl	$0, -12(%rbp)
.LBB5_4:                                # %for.cond1
                                        #   Parent Loop BB5_2 Depth=1
                                        # =>  This Loop Header: Depth=2
                                        #       Child Loop BB5_6 Depth 3
	cmpl	$4, -12(%rbp)
	jge	.LBB5_14
# %bb.5:                                # %for.body3
                                        #   in Loop: Header=BB5_4 Depth=2
	movl	$0, -8(%rbp)
.LBB5_6:                                # %for.cond4
                                        #   Parent Loop BB5_2 Depth=1
                                        #     Parent Loop BB5_4 Depth=2
                                        # =>    This Inner Loop Header: Depth=3
	cmpl	$4, -8(%rbp)
	jge	.LBB5_12
# %bb.7:                                # %for.body6
                                        #   in Loop: Header=BB5_6 Depth=3
	movl	-8(%rbp), %eax
	shll	$2, %eax
	addl	-12(%rbp), %eax
	movl	%eax, -16(%rbp)
	movq	img, %rax
	cmpl	$2, 24(%rax)
	jne	.LBB5_9
# %bb.8:                                # %if.then9
                                        #   in Loop: Header=BB5_6 Depth=3
	movabsq	$LevelOffset4x4Chroma_Intra, %rdx
	movq	%rdx, %rax
	addq	$832, %rax              # imm = 0x340
	movslq	-16(%rbp), %rcx
	movswl	OffsetList4x4input(,%rcx,2), %esi
	movl	-20(%rbp), %ecx
                                        # kill: def $cl killed $ecx
	shll	%cl, %esi
	movslq	-4(%rbp), %rcx
	shlq	$6, %rcx
	movabsq	$LevelOffset4x4Luma_Intra, %rdi
	addq	%rcx, %rdi
	movslq	-12(%rbp), %rcx
	shlq	$4, %rcx
	addq	%rcx, %rdi
	movslq	-8(%rbp), %rcx
	movl	%esi, (%rdi,%rcx,4)
	movslq	-16(%rbp), %rcx
	movswl	OffsetList4x4input+32(,%rcx,2), %esi
	movl	-20(%rbp), %ecx
                                        # kill: def $cl killed $ecx
	shll	%cl, %esi
	movslq	-4(%rbp), %rcx
	shlq	$6, %rcx
	addq	%rcx, %rdx
	movslq	-12(%rbp), %rcx
	shlq	$4, %rcx
	addq	%rcx, %rdx
	movslq	-8(%rbp), %rcx
	movl	%esi, (%rdx,%rcx,4)
	movslq	-16(%rbp), %rcx
	movswl	OffsetList4x4input+64(,%rcx,2), %edx
	movl	-20(%rbp), %ecx
                                        # kill: def $cl killed $ecx
	shll	%cl, %edx
	movslq	-4(%rbp), %rcx
	shlq	$6, %rcx
	addq	%rcx, %rax
	movslq	-12(%rbp), %rcx
	shlq	$4, %rcx
	addq	%rcx, %rax
	movslq	-8(%rbp), %rcx
	movl	%edx, (%rax,%rcx,4)
	jmp	.LBB5_10
.LBB5_9:                                # %if.else
                                        #   in Loop: Header=BB5_6 Depth=3
	movabsq	$LevelOffset4x4Chroma_Intra, %rdx
	movq	%rdx, %rax
	addq	$832, %rax              # imm = 0x340
	movslq	-16(%rbp), %rcx
	movswl	OffsetList4x4input+96(,%rcx,2), %esi
	movl	-20(%rbp), %ecx
                                        # kill: def $cl killed $ecx
	shll	%cl, %esi
	movslq	-4(%rbp), %rcx
	shlq	$6, %rcx
	movabsq	$LevelOffset4x4Luma_Intra, %rdi
	addq	%rcx, %rdi
	movslq	-12(%rbp), %rcx
	shlq	$4, %rcx
	addq	%rcx, %rdi
	movslq	-8(%rbp), %rcx
	movl	%esi, (%rdi,%rcx,4)
	movslq	-16(%rbp), %rcx
	movswl	OffsetList4x4input+128(,%rcx,2), %esi
	movl	-20(%rbp), %ecx
                                        # kill: def $cl killed $ecx
	shll	%cl, %esi
	movslq	-4(%rbp), %rcx
	shlq	$6, %rcx
	addq	%rcx, %rdx
	movslq	-12(%rbp), %rcx
	shlq	$4, %rcx
	addq	%rcx, %rdx
	movslq	-8(%rbp), %rcx
	movl	%esi, (%rdx,%rcx,4)
	movslq	-16(%rbp), %rcx
	movswl	OffsetList4x4input+160(,%rcx,2), %edx
	movl	-20(%rbp), %ecx
                                        # kill: def $cl killed $ecx
	shll	%cl, %edx
	movslq	-4(%rbp), %rcx
	shlq	$6, %rcx
	addq	%rcx, %rax
	movslq	-12(%rbp), %rcx
	shlq	$4, %rcx
	addq	%rcx, %rax
	movslq	-8(%rbp), %rcx
	movl	%edx, (%rax,%rcx,4)
.LBB5_10:                               # %if.end
                                        #   in Loop: Header=BB5_6 Depth=3
	movabsq	$LevelOffset4x4Chroma_Inter, %rdx
	movq	%rdx, %rax
	addq	$832, %rax              # imm = 0x340
	movslq	-16(%rbp), %rcx
	movswl	OffsetList4x4input+192(,%rcx,2), %esi
	movl	-20(%rbp), %ecx
                                        # kill: def $cl killed $ecx
	shll	%cl, %esi
	movslq	-4(%rbp), %rcx
	shlq	$6, %rcx
	movabsq	$LevelOffset4x4Luma_Inter, %rdi
	addq	%rcx, %rdi
	movslq	-12(%rbp), %rcx
	shlq	$4, %rcx
	addq	%rcx, %rdi
	movslq	-8(%rbp), %rcx
	movl	%esi, (%rdi,%rcx,4)
	movslq	-16(%rbp), %rcx
	movswl	OffsetList4x4input+224(,%rcx,2), %esi
	movl	-20(%rbp), %ecx
                                        # kill: def $cl killed $ecx
	shll	%cl, %esi
	movslq	-4(%rbp), %rcx
	shlq	$6, %rcx
	addq	%rcx, %rdx
	movslq	-12(%rbp), %rcx
	shlq	$4, %rcx
	addq	%rcx, %rdx
	movslq	-8(%rbp), %rcx
	movl	%esi, (%rdx,%rcx,4)
	movslq	-16(%rbp), %rcx
	movswl	OffsetList4x4input+256(,%rcx,2), %edx
	movl	-20(%rbp), %ecx
                                        # kill: def $cl killed $ecx
	shll	%cl, %edx
	movslq	-4(%rbp), %rcx
	shlq	$6, %rcx
	addq	%rcx, %rax
	movslq	-12(%rbp), %rcx
	shlq	$4, %rcx
	addq	%rcx, %rax
	movslq	-8(%rbp), %rcx
	movl	%edx, (%rax,%rcx,4)
# %bb.11:                               # %for.inc
                                        #   in Loop: Header=BB5_6 Depth=3
	movl	-8(%rbp), %eax
	addl	$1, %eax
	movl	%eax, -8(%rbp)
	jmp	.LBB5_6
.LBB5_12:                               # %for.end
                                        #   in Loop: Header=BB5_4 Depth=2
	jmp	.LBB5_13
.LBB5_13:                               # %for.inc97
                                        #   in Loop: Header=BB5_4 Depth=2
	movl	-12(%rbp), %eax
	addl	$1, %eax
	movl	%eax, -12(%rbp)
	jmp	.LBB5_4
.LBB5_14:                               # %for.end99
                                        #   in Loop: Header=BB5_2 Depth=1
	jmp	.LBB5_15
.LBB5_15:                               # %for.inc100
                                        #   in Loop: Header=BB5_2 Depth=1
	movl	-4(%rbp), %eax
	addl	$1, %eax
	movl	%eax, -4(%rbp)
	jmp	.LBB5_2
.LBB5_16:                               # %for.end102
	jmp	.LBB5_33
.LBB5_17:                               # %if.else103
	movl	$0, -4(%rbp)
.LBB5_18:                               # %for.cond104
                                        # =>This Loop Header: Depth=1
                                        #     Child Loop BB5_20 Depth 2
                                        #       Child Loop BB5_22 Depth 3
	cmpl	$13, -4(%rbp)
	jge	.LBB5_32
# %bb.19:                               # %for.body107
                                        #   in Loop: Header=BB5_18 Depth=1
	movl	-4(%rbp), %eax
	addl	$15, %eax
	subl	$10, %eax
	movl	%eax, -20(%rbp)
	movl	$0, -12(%rbp)
.LBB5_20:                               # %for.cond110
                                        #   Parent Loop BB5_18 Depth=1
                                        # =>  This Loop Header: Depth=2
                                        #       Child Loop BB5_22 Depth 3
	cmpl	$4, -12(%rbp)
	jge	.LBB5_30
# %bb.21:                               # %for.body113
                                        #   in Loop: Header=BB5_20 Depth=2
	movl	$0, -8(%rbp)
.LBB5_22:                               # %for.cond114
                                        #   Parent Loop BB5_18 Depth=1
                                        #     Parent Loop BB5_20 Depth=2
                                        # =>    This Inner Loop Header: Depth=3
	cmpl	$4, -8(%rbp)
	jge	.LBB5_28
# %bb.23:                               # %for.body117
                                        #   in Loop: Header=BB5_22 Depth=3
	movl	-8(%rbp), %eax
	shll	$2, %eax
	addl	-12(%rbp), %eax
	movl	%eax, -16(%rbp)
	movq	img, %rax
	cmpl	$2, 24(%rax)
	jne	.LBB5_25
# %bb.24:                               # %if.then123
                                        #   in Loop: Header=BB5_22 Depth=3
	movabsq	$LevelOffset4x4Chroma_Intra, %rdx
	movq	%rdx, %rax
	addq	$832, %rax              # imm = 0x340
	movslq	-16(%rbp), %rcx
	movswl	Offset_intra_default_intra(,%rcx,2), %esi
	movl	-20(%rbp), %ecx
                                        # kill: def $cl killed $ecx
	shll	%cl, %esi
	movslq	-4(%rbp), %rcx
	shlq	$6, %rcx
	movabsq	$LevelOffset4x4Luma_Intra, %rdi
	addq	%rcx, %rdi
	movslq	-12(%rbp), %rcx
	shlq	$4, %rcx
	addq	%rcx, %rdi
	movslq	-8(%rbp), %rcx
	movl	%esi, (%rdi,%rcx,4)
	movslq	-16(%rbp), %rcx
	movswl	Offset_intra_default_intra(,%rcx,2), %esi
	movl	-20(%rbp), %ecx
                                        # kill: def $cl killed $ecx
	shll	%cl, %esi
	movslq	-4(%rbp), %rcx
	shlq	$6, %rcx
	addq	%rcx, %rdx
	movslq	-12(%rbp), %rcx
	shlq	$4, %rcx
	addq	%rcx, %rdx
	movslq	-8(%rbp), %rcx
	movl	%esi, (%rdx,%rcx,4)
	movslq	-16(%rbp), %rcx
	movswl	Offset_intra_default_intra(,%rcx,2), %edx
	movl	-20(%rbp), %ecx
                                        # kill: def $cl killed $ecx
	shll	%cl, %edx
	movslq	-4(%rbp), %rcx
	shlq	$6, %rcx
	addq	%rcx, %rax
	movslq	-12(%rbp), %rcx
	shlq	$4, %rcx
	addq	%rcx, %rax
	movslq	-8(%rbp), %rcx
	movl	%edx, (%rax,%rcx,4)
	jmp	.LBB5_26
.LBB5_25:                               # %if.else154
                                        #   in Loop: Header=BB5_22 Depth=3
	movabsq	$LevelOffset4x4Chroma_Intra, %rdx
	movq	%rdx, %rax
	addq	$832, %rax              # imm = 0x340
	movslq	-16(%rbp), %rcx
	movswl	Offset_intra_default_inter(,%rcx,2), %esi
	movl	-20(%rbp), %ecx
                                        # kill: def $cl killed $ecx
	shll	%cl, %esi
	movslq	-4(%rbp), %rcx
	shlq	$6, %rcx
	movabsq	$LevelOffset4x4Luma_Intra, %rdi
	addq	%rcx, %rdi
	movslq	-12(%rbp), %rcx
	shlq	$4, %rcx
	addq	%rcx, %rdi
	movslq	-8(%rbp), %rcx
	movl	%esi, (%rdi,%rcx,4)
	movslq	-16(%rbp), %rcx
	movswl	Offset_intra_default_inter(,%rcx,2), %esi
	movl	-20(%rbp), %ecx
                                        # kill: def $cl killed $ecx
	shll	%cl, %esi
	movslq	-4(%rbp), %rcx
	shlq	$6, %rcx
	addq	%rcx, %rdx
	movslq	-12(%rbp), %rcx
	shlq	$4, %rcx
	addq	%rcx, %rdx
	movslq	-8(%rbp), %rcx
	movl	%esi, (%rdx,%rcx,4)
	movslq	-16(%rbp), %rcx
	movswl	Offset_intra_default_inter(,%rcx,2), %edx
	movl	-20(%rbp), %ecx
                                        # kill: def $cl killed $ecx
	shll	%cl, %edx
	movslq	-4(%rbp), %rcx
	shlq	$6, %rcx
	addq	%rcx, %rax
	movslq	-12(%rbp), %rcx
	shlq	$4, %rcx
	addq	%rcx, %rax
	movslq	-8(%rbp), %rcx
	movl	%edx, (%rax,%rcx,4)
.LBB5_26:                               # %if.end185
                                        #   in Loop: Header=BB5_22 Depth=3
	movabsq	$LevelOffset4x4Chroma_Inter, %rdx
	movq	%rdx, %rax
	addq	$832, %rax              # imm = 0x340
	movslq	-16(%rbp), %rcx
	movswl	Offset_inter_default(,%rcx,2), %esi
	movl	-20(%rbp), %ecx
                                        # kill: def $cl killed $ecx
	shll	%cl, %esi
	movslq	-4(%rbp), %rcx
	shlq	$6, %rcx
	movabsq	$LevelOffset4x4Luma_Inter, %rdi
	addq	%rcx, %rdi
	movslq	-12(%rbp), %rcx
	shlq	$4, %rcx
	addq	%rcx, %rdi
	movslq	-8(%rbp), %rcx
	movl	%esi, (%rdi,%rcx,4)
	movslq	-16(%rbp), %rcx
	movswl	Offset_inter_default(,%rcx,2), %esi
	movl	-20(%rbp), %ecx
                                        # kill: def $cl killed $ecx
	shll	%cl, %esi
	movslq	-4(%rbp), %rcx
	shlq	$6, %rcx
	addq	%rcx, %rdx
	movslq	-12(%rbp), %rcx
	shlq	$4, %rcx
	addq	%rcx, %rdx
	movslq	-8(%rbp), %rcx
	movl	%esi, (%rdx,%rcx,4)
	movslq	-16(%rbp), %rcx
	movswl	Offset_inter_default(,%rcx,2), %edx
	movl	-20(%rbp), %ecx
                                        # kill: def $cl killed $ecx
	shll	%cl, %edx
	movslq	-4(%rbp), %rcx
	shlq	$6, %rcx
	addq	%rcx, %rax
	movslq	-12(%rbp), %rcx
	shlq	$4, %rcx
	addq	%rcx, %rax
	movslq	-8(%rbp), %rcx
	movl	%edx, (%rax,%rcx,4)
# %bb.27:                               # %for.inc216
                                        #   in Loop: Header=BB5_22 Depth=3
	movl	-8(%rbp), %eax
	addl	$1, %eax
	movl	%eax, -8(%rbp)
	jmp	.LBB5_22
.LBB5_28:                               # %for.end218
                                        #   in Loop: Header=BB5_20 Depth=2
	jmp	.LBB5_29
.LBB5_29:                               # %for.inc219
                                        #   in Loop: Header=BB5_20 Depth=2
	movl	-12(%rbp), %eax
	addl	$1, %eax
	movl	%eax, -12(%rbp)
	jmp	.LBB5_20
.LBB5_30:                               # %for.end221
                                        #   in Loop: Header=BB5_18 Depth=1
	jmp	.LBB5_31
.LBB5_31:                               # %for.inc222
                                        #   in Loop: Header=BB5_18 Depth=1
	movl	-4(%rbp), %eax
	addl	$1, %eax
	movl	%eax, -4(%rbp)
	jmp	.LBB5_18
.LBB5_32:                               # %for.end224
	jmp	.LBB5_33
.LBB5_33:                               # %if.end225
	cmpl	$655132571, -24(%rbp)   # imm = 0x270C879B
	jne	.LBB5_35
.LBB5_34:
	addq	$32, %rsp
	popq	%rbp
	.cfi_def_cfa %rsp, 8
	retq
.LBB5_35:                               # %func_exit
	.cfi_def_cfa %rbp, 16
	callq	detect_breach
	jmp	.LBB5_34
.Lfunc_end5:
	.size	CalculateOffsetParam.1, .Lfunc_end5-CalculateOffsetParam.1
	.cfi_endproc
                                        # -- End function
	.globl	CalculateOffset8Param.2 # -- Begin function CalculateOffset8Param.2
	.p2align	4, 0x90
	.type	CalculateOffset8Param.2,@function
CalculateOffset8Param.2:                # @CalculateOffset8Param.2
	.cfi_startproc
# %bb.0:                                # %entry
	pushq	%rbp
	.cfi_def_cfa_offset 16
	.cfi_offset %rbp, -16
	movq	%rsp, %rbp
	.cfi_def_cfa_register %rbp
	subq	$32, %rsp
	movl	$2069618318, -24(%rbp)  # imm = 0x7B5BDE8E
	movq	input, %rax
	cmpl	$0, 3584(%rax)
	je	.LBB6_17
# %bb.1:                                # %if.then
	movl	$0, -12(%rbp)
.LBB6_2:                                # %for.cond
                                        # =>This Loop Header: Depth=1
                                        #     Child Loop BB6_4 Depth 2
                                        #       Child Loop BB6_6 Depth 3
	cmpl	$13, -12(%rbp)
	jge	.LBB6_16
# %bb.3:                                # %for.body
                                        #   in Loop: Header=BB6_2 Depth=1
	movl	-12(%rbp), %eax
	addl	$16, %eax
	subl	$10, %eax
	movl	%eax, -20(%rbp)
	movl	$0, -8(%rbp)
.LBB6_4:                                # %for.cond1
                                        #   Parent Loop BB6_2 Depth=1
                                        # =>  This Loop Header: Depth=2
                                        #       Child Loop BB6_6 Depth 3
	cmpl	$8, -8(%rbp)
	jge	.LBB6_14
# %bb.5:                                # %for.body3
                                        #   in Loop: Header=BB6_4 Depth=2
	movl	$0, -4(%rbp)
.LBB6_6:                                # %for.cond4
                                        #   Parent Loop BB6_2 Depth=1
                                        #     Parent Loop BB6_4 Depth=2
                                        # =>    This Inner Loop Header: Depth=3
	cmpl	$8, -4(%rbp)
	jge	.LBB6_12
# %bb.7:                                # %for.body6
                                        #   in Loop: Header=BB6_6 Depth=3
	movl	-4(%rbp), %eax
	shll	$3, %eax
	addl	-8(%rbp), %eax
	movl	%eax, -16(%rbp)
	movq	img, %rax
	cmpl	$2, 24(%rax)
	jne	.LBB6_9
# %bb.8:                                # %if.then9
                                        #   in Loop: Header=BB6_6 Depth=3
	movslq	-16(%rbp), %rax
	movswl	OffsetList8x8input(,%rax,2), %eax
	movl	-20(%rbp), %ecx
                                        # kill: def $cl killed $ecx
	shll	%cl, %eax
	movslq	-12(%rbp), %rcx
	shlq	$8, %rcx
	movabsq	$LevelOffset8x8Luma_Intra, %rdx
	addq	%rcx, %rdx
	movslq	-8(%rbp), %rcx
	shlq	$5, %rcx
	addq	%rcx, %rdx
	movslq	-4(%rbp), %rcx
	movl	%eax, (%rdx,%rcx,4)
	jmp	.LBB6_10
.LBB6_9:                                # %if.else
                                        #   in Loop: Header=BB6_6 Depth=3
	movslq	-16(%rbp), %rax
	movswl	OffsetList8x8input+128(,%rax,2), %eax
	movl	-20(%rbp), %ecx
                                        # kill: def $cl killed $ecx
	shll	%cl, %eax
	movslq	-12(%rbp), %rcx
	shlq	$8, %rcx
	movabsq	$LevelOffset8x8Luma_Intra, %rdx
	addq	%rcx, %rdx
	movslq	-8(%rbp), %rcx
	shlq	$5, %rcx
	addq	%rcx, %rdx
	movslq	-4(%rbp), %rcx
	movl	%eax, (%rdx,%rcx,4)
.LBB6_10:                               # %if.end
                                        #   in Loop: Header=BB6_6 Depth=3
	movslq	-16(%rbp), %rax
	movswl	OffsetList8x8input+256(,%rax,2), %eax
	movl	-20(%rbp), %ecx
                                        # kill: def $cl killed $ecx
	shll	%cl, %eax
	movslq	-12(%rbp), %rcx
	shlq	$8, %rcx
	movabsq	$LevelOffset8x8Luma_Inter, %rdx
	addq	%rcx, %rdx
	movslq	-8(%rbp), %rcx
	shlq	$5, %rcx
	addq	%rcx, %rdx
	movslq	-4(%rbp), %rcx
	movl	%eax, (%rdx,%rcx,4)
# %bb.11:                               # %for.inc
                                        #   in Loop: Header=BB6_6 Depth=3
	movl	-4(%rbp), %eax
	addl	$1, %eax
	movl	%eax, -4(%rbp)
	jmp	.LBB6_6
.LBB6_12:                               # %for.end
                                        #   in Loop: Header=BB6_4 Depth=2
	jmp	.LBB6_13
.LBB6_13:                               # %for.inc37
                                        #   in Loop: Header=BB6_4 Depth=2
	movl	-8(%rbp), %eax
	addl	$1, %eax
	movl	%eax, -8(%rbp)
	jmp	.LBB6_4
.LBB6_14:                               # %for.end39
                                        #   in Loop: Header=BB6_2 Depth=1
	jmp	.LBB6_15
.LBB6_15:                               # %for.inc40
                                        #   in Loop: Header=BB6_2 Depth=1
	movl	-12(%rbp), %eax
	addl	$1, %eax
	movl	%eax, -12(%rbp)
	jmp	.LBB6_2
.LBB6_16:                               # %for.end42
	jmp	.LBB6_33
.LBB6_17:                               # %if.else43
	movl	$0, -12(%rbp)
.LBB6_18:                               # %for.cond44
                                        # =>This Loop Header: Depth=1
                                        #     Child Loop BB6_20 Depth 2
                                        #       Child Loop BB6_22 Depth 3
	cmpl	$13, -12(%rbp)
	jge	.LBB6_32
# %bb.19:                               # %for.body47
                                        #   in Loop: Header=BB6_18 Depth=1
	movl	-12(%rbp), %eax
	addl	$16, %eax
	subl	$10, %eax
	movl	%eax, -20(%rbp)
	movl	$0, -8(%rbp)
.LBB6_20:                               # %for.cond50
                                        #   Parent Loop BB6_18 Depth=1
                                        # =>  This Loop Header: Depth=2
                                        #       Child Loop BB6_22 Depth 3
	cmpl	$8, -8(%rbp)
	jge	.LBB6_30
# %bb.21:                               # %for.body53
                                        #   in Loop: Header=BB6_20 Depth=2
	movl	$0, -4(%rbp)
.LBB6_22:                               # %for.cond54
                                        #   Parent Loop BB6_18 Depth=1
                                        #     Parent Loop BB6_20 Depth=2
                                        # =>    This Inner Loop Header: Depth=3
	cmpl	$8, -4(%rbp)
	jge	.LBB6_28
# %bb.23:                               # %for.body57
                                        #   in Loop: Header=BB6_22 Depth=3
	movl	-4(%rbp), %eax
	shll	$3, %eax
	addl	-8(%rbp), %eax
	movl	%eax, -16(%rbp)
	movq	img, %rax
	cmpl	$2, 24(%rax)
	jne	.LBB6_25
# %bb.24:                               # %if.then63
                                        #   in Loop: Header=BB6_22 Depth=3
	movslq	-16(%rbp), %rax
	movswl	Offset8_intra_default_intra(,%rax,2), %eax
	movl	-20(%rbp), %ecx
                                        # kill: def $cl killed $ecx
	shll	%cl, %eax
	movslq	-12(%rbp), %rcx
	shlq	$8, %rcx
	movabsq	$LevelOffset8x8Luma_Intra, %rdx
	addq	%rcx, %rdx
	movslq	-8(%rbp), %rcx
	shlq	$5, %rcx
	addq	%rcx, %rdx
	movslq	-4(%rbp), %rcx
	movl	%eax, (%rdx,%rcx,4)
	jmp	.LBB6_26
.LBB6_25:                               # %if.else74
                                        #   in Loop: Header=BB6_22 Depth=3
	movslq	-16(%rbp), %rax
	movswl	Offset8_intra_default_inter(,%rax,2), %eax
	movl	-20(%rbp), %ecx
                                        # kill: def $cl killed $ecx
	shll	%cl, %eax
	movslq	-12(%rbp), %rcx
	shlq	$8, %rcx
	movabsq	$LevelOffset8x8Luma_Intra, %rdx
	addq	%rcx, %rdx
	movslq	-8(%rbp), %rcx
	shlq	$5, %rcx
	addq	%rcx, %rdx
	movslq	-4(%rbp), %rcx
	movl	%eax, (%rdx,%rcx,4)
.LBB6_26:                               # %if.end85
                                        #   in Loop: Header=BB6_22 Depth=3
	movslq	-16(%rbp), %rax
	movswl	Offset8_inter_default(,%rax,2), %eax
	movl	-20(%rbp), %ecx
                                        # kill: def $cl killed $ecx
	shll	%cl, %eax
	movslq	-12(%rbp), %rcx
	shlq	$8, %rcx
	movabsq	$LevelOffset8x8Luma_Inter, %rdx
	addq	%rcx, %rdx
	movslq	-8(%rbp), %rcx
	shlq	$5, %rcx
	addq	%rcx, %rdx
	movslq	-4(%rbp), %rcx
	movl	%eax, (%rdx,%rcx,4)
# %bb.27:                               # %for.inc96
                                        #   in Loop: Header=BB6_22 Depth=3
	movl	-4(%rbp), %eax
	addl	$1, %eax
	movl	%eax, -4(%rbp)
	jmp	.LBB6_22
.LBB6_28:                               # %for.end98
                                        #   in Loop: Header=BB6_20 Depth=2
	jmp	.LBB6_29
.LBB6_29:                               # %for.inc99
                                        #   in Loop: Header=BB6_20 Depth=2
	movl	-8(%rbp), %eax
	addl	$1, %eax
	movl	%eax, -8(%rbp)
	jmp	.LBB6_20
.LBB6_30:                               # %for.end101
                                        #   in Loop: Header=BB6_18 Depth=1
	jmp	.LBB6_31
.LBB6_31:                               # %for.inc102
                                        #   in Loop: Header=BB6_18 Depth=1
	movl	-12(%rbp), %eax
	addl	$1, %eax
	movl	%eax, -12(%rbp)
	jmp	.LBB6_18
.LBB6_32:                               # %for.end104
	jmp	.LBB6_33
.LBB6_33:                               # %if.end105
	cmpl	$2069618318, -24(%rbp)  # imm = 0x7B5BDE8E
	jne	.LBB6_35
.LBB6_34:
	addq	$32, %rsp
	popq	%rbp
	.cfi_def_cfa %rsp, 8
	retq
.LBB6_35:                               # %func_exit
	.cfi_def_cfa %rbp, 16
	callq	detect_breach
	jmp	.LBB6_34
.Lfunc_end6:
	.size	CalculateOffset8Param.2, .Lfunc_end6-CalculateOffset8Param.2
	.cfi_endproc
                                        # -- End function
	.globl	CalculateOffset8Param.3 # -- Begin function CalculateOffset8Param.3
	.p2align	4, 0x90
	.type	CalculateOffset8Param.3,@function
CalculateOffset8Param.3:                # @CalculateOffset8Param.3
	.cfi_startproc
# %bb.0:                                # %entry
	pushq	%rbp
	.cfi_def_cfa_offset 16
	.cfi_offset %rbp, -16
	movq	%rsp, %rbp
	.cfi_def_cfa_register %rbp
	subq	$32, %rsp
	movl	$355282486, -24(%rbp)   # imm = 0x152D2E36
	movq	input, %rax
	cmpl	$0, 3584(%rax)
	je	.LBB7_17
# %bb.1:                                # %if.then
	movl	$0, -12(%rbp)
.LBB7_2:                                # %for.cond
                                        # =>This Loop Header: Depth=1
                                        #     Child Loop BB7_4 Depth 2
                                        #       Child Loop BB7_6 Depth 3
	cmpl	$13, -12(%rbp)
	jge	.LBB7_16
# %bb.3:                                # %for.body
                                        #   in Loop: Header=BB7_2 Depth=1
	movl	-12(%rbp), %eax
	addl	$16, %eax
	subl	$10, %eax
	movl	%eax, -20(%rbp)
	movl	$0, -4(%rbp)
.LBB7_4:                                # %for.cond1
                                        #   Parent Loop BB7_2 Depth=1
                                        # =>  This Loop Header: Depth=2
                                        #       Child Loop BB7_6 Depth 3
	cmpl	$8, -4(%rbp)
	jge	.LBB7_14
# %bb.5:                                # %for.body3
                                        #   in Loop: Header=BB7_4 Depth=2
	movl	$0, -8(%rbp)
.LBB7_6:                                # %for.cond4
                                        #   Parent Loop BB7_2 Depth=1
                                        #     Parent Loop BB7_4 Depth=2
                                        # =>    This Inner Loop Header: Depth=3
	cmpl	$8, -8(%rbp)
	jge	.LBB7_12
# %bb.7:                                # %for.body6
                                        #   in Loop: Header=BB7_6 Depth=3
	movl	-8(%rbp), %eax
	shll	$3, %eax
	addl	-4(%rbp), %eax
	movl	%eax, -16(%rbp)
	movq	img, %rax
	cmpl	$2, 24(%rax)
	jne	.LBB7_9
# %bb.8:                                # %if.then9
                                        #   in Loop: Header=BB7_6 Depth=3
	movslq	-16(%rbp), %rax
	movswl	OffsetList8x8input(,%rax,2), %eax
	movl	-20(%rbp), %ecx
                                        # kill: def $cl killed $ecx
	shll	%cl, %eax
	movslq	-12(%rbp), %rcx
	shlq	$8, %rcx
	movabsq	$LevelOffset8x8Luma_Intra, %rdx
	addq	%rcx, %rdx
	movslq	-4(%rbp), %rcx
	shlq	$5, %rcx
	addq	%rcx, %rdx
	movslq	-8(%rbp), %rcx
	movl	%eax, (%rdx,%rcx,4)
	jmp	.LBB7_10
.LBB7_9:                                # %if.else
                                        #   in Loop: Header=BB7_6 Depth=3
	movslq	-16(%rbp), %rax
	movswl	OffsetList8x8input+128(,%rax,2), %eax
	movl	-20(%rbp), %ecx
                                        # kill: def $cl killed $ecx
	shll	%cl, %eax
	movslq	-12(%rbp), %rcx
	shlq	$8, %rcx
	movabsq	$LevelOffset8x8Luma_Intra, %rdx
	addq	%rcx, %rdx
	movslq	-4(%rbp), %rcx
	shlq	$5, %rcx
	addq	%rcx, %rdx
	movslq	-8(%rbp), %rcx
	movl	%eax, (%rdx,%rcx,4)
.LBB7_10:                               # %if.end
                                        #   in Loop: Header=BB7_6 Depth=3
	movslq	-16(%rbp), %rax
	movswl	OffsetList8x8input+256(,%rax,2), %eax
	movl	-20(%rbp), %ecx
                                        # kill: def $cl killed $ecx
	shll	%cl, %eax
	movslq	-12(%rbp), %rcx
	shlq	$8, %rcx
	movabsq	$LevelOffset8x8Luma_Inter, %rdx
	addq	%rcx, %rdx
	movslq	-4(%rbp), %rcx
	shlq	$5, %rcx
	addq	%rcx, %rdx
	movslq	-8(%rbp), %rcx
	movl	%eax, (%rdx,%rcx,4)
# %bb.11:                               # %for.inc
                                        #   in Loop: Header=BB7_6 Depth=3
	movl	-8(%rbp), %eax
	addl	$1, %eax
	movl	%eax, -8(%rbp)
	jmp	.LBB7_6
.LBB7_12:                               # %for.end
                                        #   in Loop: Header=BB7_4 Depth=2
	jmp	.LBB7_13
.LBB7_13:                               # %for.inc37
                                        #   in Loop: Header=BB7_4 Depth=2
	movl	-4(%rbp), %eax
	addl	$1, %eax
	movl	%eax, -4(%rbp)
	jmp	.LBB7_4
.LBB7_14:                               # %for.end39
                                        #   in Loop: Header=BB7_2 Depth=1
	jmp	.LBB7_15
.LBB7_15:                               # %for.inc40
                                        #   in Loop: Header=BB7_2 Depth=1
	movl	-12(%rbp), %eax
	addl	$1, %eax
	movl	%eax, -12(%rbp)
	jmp	.LBB7_2
.LBB7_16:                               # %for.end42
	jmp	.LBB7_33
.LBB7_17:                               # %if.else43
	movl	$0, -12(%rbp)
.LBB7_18:                               # %for.cond44
                                        # =>This Loop Header: Depth=1
                                        #     Child Loop BB7_20 Depth 2
                                        #       Child Loop BB7_22 Depth 3
	cmpl	$13, -12(%rbp)
	jge	.LBB7_32
# %bb.19:                               # %for.body47
                                        #   in Loop: Header=BB7_18 Depth=1
	movl	-12(%rbp), %eax
	addl	$16, %eax
	subl	$10, %eax
	movl	%eax, -20(%rbp)
	movl	$0, -4(%rbp)
.LBB7_20:                               # %for.cond50
                                        #   Parent Loop BB7_18 Depth=1
                                        # =>  This Loop Header: Depth=2
                                        #       Child Loop BB7_22 Depth 3
	cmpl	$8, -4(%rbp)
	jge	.LBB7_30
# %bb.21:                               # %for.body53
                                        #   in Loop: Header=BB7_20 Depth=2
	movl	$0, -8(%rbp)
.LBB7_22:                               # %for.cond54
                                        #   Parent Loop BB7_18 Depth=1
                                        #     Parent Loop BB7_20 Depth=2
                                        # =>    This Inner Loop Header: Depth=3
	cmpl	$8, -8(%rbp)
	jge	.LBB7_28
# %bb.23:                               # %for.body57
                                        #   in Loop: Header=BB7_22 Depth=3
	movl	-8(%rbp), %eax
	shll	$3, %eax
	addl	-4(%rbp), %eax
	movl	%eax, -16(%rbp)
	movq	img, %rax
	cmpl	$2, 24(%rax)
	jne	.LBB7_25
# %bb.24:                               # %if.then63
                                        #   in Loop: Header=BB7_22 Depth=3
	movslq	-16(%rbp), %rax
	movswl	Offset8_intra_default_intra(,%rax,2), %eax
	movl	-20(%rbp), %ecx
                                        # kill: def $cl killed $ecx
	shll	%cl, %eax
	movslq	-12(%rbp), %rcx
	shlq	$8, %rcx
	movabsq	$LevelOffset8x8Luma_Intra, %rdx
	addq	%rcx, %rdx
	movslq	-4(%rbp), %rcx
	shlq	$5, %rcx
	addq	%rcx, %rdx
	movslq	-8(%rbp), %rcx
	movl	%eax, (%rdx,%rcx,4)
	jmp	.LBB7_26
.LBB7_25:                               # %if.else74
                                        #   in Loop: Header=BB7_22 Depth=3
	movslq	-16(%rbp), %rax
	movswl	Offset8_intra_default_inter(,%rax,2), %eax
	movl	-20(%rbp), %ecx
                                        # kill: def $cl killed $ecx
	shll	%cl, %eax
	movslq	-12(%rbp), %rcx
	shlq	$8, %rcx
	movabsq	$LevelOffset8x8Luma_Intra, %rdx
	addq	%rcx, %rdx
	movslq	-4(%rbp), %rcx
	shlq	$5, %rcx
	addq	%rcx, %rdx
	movslq	-8(%rbp), %rcx
	movl	%eax, (%rdx,%rcx,4)
.LBB7_26:                               # %if.end85
                                        #   in Loop: Header=BB7_22 Depth=3
	movslq	-16(%rbp), %rax
	movswl	Offset8_inter_default(,%rax,2), %eax
	movl	-20(%rbp), %ecx
                                        # kill: def $cl killed $ecx
	shll	%cl, %eax
	movslq	-12(%rbp), %rcx
	shlq	$8, %rcx
	movabsq	$LevelOffset8x8Luma_Inter, %rdx
	addq	%rcx, %rdx
	movslq	-4(%rbp), %rcx
	shlq	$5, %rcx
	addq	%rcx, %rdx
	movslq	-8(%rbp), %rcx
	movl	%eax, (%rdx,%rcx,4)
# %bb.27:                               # %for.inc96
                                        #   in Loop: Header=BB7_22 Depth=3
	movl	-8(%rbp), %eax
	addl	$1, %eax
	movl	%eax, -8(%rbp)
	jmp	.LBB7_22
.LBB7_28:                               # %for.end98
                                        #   in Loop: Header=BB7_20 Depth=2
	jmp	.LBB7_29
.LBB7_29:                               # %for.inc99
                                        #   in Loop: Header=BB7_20 Depth=2
	movl	-4(%rbp), %eax
	addl	$1, %eax
	movl	%eax, -4(%rbp)
	jmp	.LBB7_20
.LBB7_30:                               # %for.end101
                                        #   in Loop: Header=BB7_18 Depth=1
	jmp	.LBB7_31
.LBB7_31:                               # %for.inc102
                                        #   in Loop: Header=BB7_18 Depth=1
	movl	-12(%rbp), %eax
	addl	$1, %eax
	movl	%eax, -12(%rbp)
	jmp	.LBB7_18
.LBB7_32:                               # %for.end104
	jmp	.LBB7_33
.LBB7_33:                               # %if.end105
	cmpl	$355282486, -24(%rbp)   # imm = 0x152D2E36
	jne	.LBB7_35
.LBB7_34:
	addq	$32, %rsp
	popq	%rbp
	.cfi_def_cfa %rsp, 8
	retq
.LBB7_35:                               # %func_exit
	.cfi_def_cfa %rbp, 16
	callq	detect_breach
	jmp	.LBB7_34
.Lfunc_end7:
	.size	CalculateOffset8Param.3, .Lfunc_end7-CalculateOffset8Param.3
	.cfi_endproc
                                        # -- End function
	.globl	CalculateOffsetParam.4  # -- Begin function CalculateOffsetParam.4
	.p2align	4, 0x90
	.type	CalculateOffsetParam.4,@function
CalculateOffsetParam.4:                 # @CalculateOffsetParam.4
	.cfi_startproc
# %bb.0:                                # %entry
	pushq	%rbp
	.cfi_def_cfa_offset 16
	.cfi_offset %rbp, -16
	movq	%rsp, %rbp
	.cfi_def_cfa_register %rbp
	subq	$32, %rsp
	movl	$2113100698, -24(%rbp)  # imm = 0x7DF35B9A
	movq	input, %rax
	cmpl	$0, 3584(%rax)
	je	.LBB8_17
# %bb.1:                                # %if.then
	movl	$0, -12(%rbp)
.LBB8_2:                                # %for.cond
                                        # =>This Loop Header: Depth=1
                                        #     Child Loop BB8_4 Depth 2
                                        #       Child Loop BB8_6 Depth 3
	cmpl	$13, -12(%rbp)
	jge	.LBB8_16
# %bb.3:                                # %for.body
                                        #   in Loop: Header=BB8_2 Depth=1
	movl	-12(%rbp), %eax
	addl	$15, %eax
	subl	$10, %eax
	movl	%eax, -20(%rbp)
	movl	$0, -4(%rbp)
.LBB8_4:                                # %for.cond1
                                        #   Parent Loop BB8_2 Depth=1
                                        # =>  This Loop Header: Depth=2
                                        #       Child Loop BB8_6 Depth 3
	cmpl	$4, -4(%rbp)
	jge	.LBB8_14
# %bb.5:                                # %for.body3
                                        #   in Loop: Header=BB8_4 Depth=2
	movl	$0, -8(%rbp)
.LBB8_6:                                # %for.cond4
                                        #   Parent Loop BB8_2 Depth=1
                                        #     Parent Loop BB8_4 Depth=2
                                        # =>    This Inner Loop Header: Depth=3
	cmpl	$4, -8(%rbp)
	jge	.LBB8_12
# %bb.7:                                # %for.body6
                                        #   in Loop: Header=BB8_6 Depth=3
	movl	-8(%rbp), %eax
	shll	$2, %eax
	addl	-4(%rbp), %eax
	movl	%eax, -16(%rbp)
	movq	img, %rax
	cmpl	$2, 24(%rax)
	jne	.LBB8_9
# %bb.8:                                # %if.then9
                                        #   in Loop: Header=BB8_6 Depth=3
	movabsq	$LevelOffset4x4Chroma_Intra, %rdx
	movq	%rdx, %rax
	addq	$832, %rax              # imm = 0x340
	movslq	-16(%rbp), %rcx
	movswl	OffsetList4x4input(,%rcx,2), %esi
	movl	-20(%rbp), %ecx
                                        # kill: def $cl killed $ecx
	shll	%cl, %esi
	movslq	-12(%rbp), %rcx
	shlq	$6, %rcx
	movabsq	$LevelOffset4x4Luma_Intra, %rdi
	addq	%rcx, %rdi
	movslq	-4(%rbp), %rcx
	shlq	$4, %rcx
	addq	%rcx, %rdi
	movslq	-8(%rbp), %rcx
	movl	%esi, (%rdi,%rcx,4)
	movslq	-16(%rbp), %rcx
	movswl	OffsetList4x4input+32(,%rcx,2), %esi
	movl	-20(%rbp), %ecx
                                        # kill: def $cl killed $ecx
	shll	%cl, %esi
	movslq	-12(%rbp), %rcx
	shlq	$6, %rcx
	addq	%rcx, %rdx
	movslq	-4(%rbp), %rcx
	shlq	$4, %rcx
	addq	%rcx, %rdx
	movslq	-8(%rbp), %rcx
	movl	%esi, (%rdx,%rcx,4)
	movslq	-16(%rbp), %rcx
	movswl	OffsetList4x4input+64(,%rcx,2), %edx
	movl	-20(%rbp), %ecx
                                        # kill: def $cl killed $ecx
	shll	%cl, %edx
	movslq	-12(%rbp), %rcx
	shlq	$6, %rcx
	addq	%rcx, %rax
	movslq	-4(%rbp), %rcx
	shlq	$4, %rcx
	addq	%rcx, %rax
	movslq	-8(%rbp), %rcx
	movl	%edx, (%rax,%rcx,4)
	jmp	.LBB8_10
.LBB8_9:                                # %if.else
                                        #   in Loop: Header=BB8_6 Depth=3
	movabsq	$LevelOffset4x4Chroma_Intra, %rdx
	movq	%rdx, %rax
	addq	$832, %rax              # imm = 0x340
	movslq	-16(%rbp), %rcx
	movswl	OffsetList4x4input+96(,%rcx,2), %esi
	movl	-20(%rbp), %ecx
                                        # kill: def $cl killed $ecx
	shll	%cl, %esi
	movslq	-12(%rbp), %rcx
	shlq	$6, %rcx
	movabsq	$LevelOffset4x4Luma_Intra, %rdi
	addq	%rcx, %rdi
	movslq	-4(%rbp), %rcx
	shlq	$4, %rcx
	addq	%rcx, %rdi
	movslq	-8(%rbp), %rcx
	movl	%esi, (%rdi,%rcx,4)
	movslq	-16(%rbp), %rcx
	movswl	OffsetList4x4input+128(,%rcx,2), %esi
	movl	-20(%rbp), %ecx
                                        # kill: def $cl killed $ecx
	shll	%cl, %esi
	movslq	-12(%rbp), %rcx
	shlq	$6, %rcx
	addq	%rcx, %rdx
	movslq	-4(%rbp), %rcx
	shlq	$4, %rcx
	addq	%rcx, %rdx
	movslq	-8(%rbp), %rcx
	movl	%esi, (%rdx,%rcx,4)
	movslq	-16(%rbp), %rcx
	movswl	OffsetList4x4input+160(,%rcx,2), %edx
	movl	-20(%rbp), %ecx
                                        # kill: def $cl killed $ecx
	shll	%cl, %edx
	movslq	-12(%rbp), %rcx
	shlq	$6, %rcx
	addq	%rcx, %rax
	movslq	-4(%rbp), %rcx
	shlq	$4, %rcx
	addq	%rcx, %rax
	movslq	-8(%rbp), %rcx
	movl	%edx, (%rax,%rcx,4)
.LBB8_10:                               # %if.end
                                        #   in Loop: Header=BB8_6 Depth=3
	movabsq	$LevelOffset4x4Chroma_Inter, %rdx
	movq	%rdx, %rax
	addq	$832, %rax              # imm = 0x340
	movslq	-16(%rbp), %rcx
	movswl	OffsetList4x4input+192(,%rcx,2), %esi
	movl	-20(%rbp), %ecx
                                        # kill: def $cl killed $ecx
	shll	%cl, %esi
	movslq	-12(%rbp), %rcx
	shlq	$6, %rcx
	movabsq	$LevelOffset4x4Luma_Inter, %rdi
	addq	%rcx, %rdi
	movslq	-4(%rbp), %rcx
	shlq	$4, %rcx
	addq	%rcx, %rdi
	movslq	-8(%rbp), %rcx
	movl	%esi, (%rdi,%rcx,4)
	movslq	-16(%rbp), %rcx
	movswl	OffsetList4x4input+224(,%rcx,2), %esi
	movl	-20(%rbp), %ecx
                                        # kill: def $cl killed $ecx
	shll	%cl, %esi
	movslq	-12(%rbp), %rcx
	shlq	$6, %rcx
	addq	%rcx, %rdx
	movslq	-4(%rbp), %rcx
	shlq	$4, %rcx
	addq	%rcx, %rdx
	movslq	-8(%rbp), %rcx
	movl	%esi, (%rdx,%rcx,4)
	movslq	-16(%rbp), %rcx
	movswl	OffsetList4x4input+256(,%rcx,2), %edx
	movl	-20(%rbp), %ecx
                                        # kill: def $cl killed $ecx
	shll	%cl, %edx
	movslq	-12(%rbp), %rcx
	shlq	$6, %rcx
	addq	%rcx, %rax
	movslq	-4(%rbp), %rcx
	shlq	$4, %rcx
	addq	%rcx, %rax
	movslq	-8(%rbp), %rcx
	movl	%edx, (%rax,%rcx,4)
# %bb.11:                               # %for.inc
                                        #   in Loop: Header=BB8_6 Depth=3
	movl	-8(%rbp), %eax
	addl	$1, %eax
	movl	%eax, -8(%rbp)
	jmp	.LBB8_6
.LBB8_12:                               # %for.end
                                        #   in Loop: Header=BB8_4 Depth=2
	jmp	.LBB8_13
.LBB8_13:                               # %for.inc97
                                        #   in Loop: Header=BB8_4 Depth=2
	movl	-4(%rbp), %eax
	addl	$1, %eax
	movl	%eax, -4(%rbp)
	jmp	.LBB8_4
.LBB8_14:                               # %for.end99
                                        #   in Loop: Header=BB8_2 Depth=1
	jmp	.LBB8_15
.LBB8_15:                               # %for.inc100
                                        #   in Loop: Header=BB8_2 Depth=1
	movl	-12(%rbp), %eax
	addl	$1, %eax
	movl	%eax, -12(%rbp)
	jmp	.LBB8_2
.LBB8_16:                               # %for.end102
	jmp	.LBB8_33
.LBB8_17:                               # %if.else103
	movl	$0, -12(%rbp)
.LBB8_18:                               # %for.cond104
                                        # =>This Loop Header: Depth=1
                                        #     Child Loop BB8_20 Depth 2
                                        #       Child Loop BB8_22 Depth 3
	cmpl	$13, -12(%rbp)
	jge	.LBB8_32
# %bb.19:                               # %for.body107
                                        #   in Loop: Header=BB8_18 Depth=1
	movl	-12(%rbp), %eax
	addl	$15, %eax
	subl	$10, %eax
	movl	%eax, -20(%rbp)
	movl	$0, -4(%rbp)
.LBB8_20:                               # %for.cond110
                                        #   Parent Loop BB8_18 Depth=1
                                        # =>  This Loop Header: Depth=2
                                        #       Child Loop BB8_22 Depth 3
	cmpl	$4, -4(%rbp)
	jge	.LBB8_30
# %bb.21:                               # %for.body113
                                        #   in Loop: Header=BB8_20 Depth=2
	movl	$0, -8(%rbp)
.LBB8_22:                               # %for.cond114
                                        #   Parent Loop BB8_18 Depth=1
                                        #     Parent Loop BB8_20 Depth=2
                                        # =>    This Inner Loop Header: Depth=3
	cmpl	$4, -8(%rbp)
	jge	.LBB8_28
# %bb.23:                               # %for.body117
                                        #   in Loop: Header=BB8_22 Depth=3
	movl	-8(%rbp), %eax
	shll	$2, %eax
	addl	-4(%rbp), %eax
	movl	%eax, -16(%rbp)
	movq	img, %rax
	cmpl	$2, 24(%rax)
	jne	.LBB8_25
# %bb.24:                               # %if.then123
                                        #   in Loop: Header=BB8_22 Depth=3
	movabsq	$LevelOffset4x4Chroma_Intra, %rdx
	movq	%rdx, %rax
	addq	$832, %rax              # imm = 0x340
	movslq	-16(%rbp), %rcx
	movswl	Offset_intra_default_intra(,%rcx,2), %esi
	movl	-20(%rbp), %ecx
                                        # kill: def $cl killed $ecx
	shll	%cl, %esi
	movslq	-12(%rbp), %rcx
	shlq	$6, %rcx
	movabsq	$LevelOffset4x4Luma_Intra, %rdi
	addq	%rcx, %rdi
	movslq	-4(%rbp), %rcx
	shlq	$4, %rcx
	addq	%rcx, %rdi
	movslq	-8(%rbp), %rcx
	movl	%esi, (%rdi,%rcx,4)
	movslq	-16(%rbp), %rcx
	movswl	Offset_intra_default_intra(,%rcx,2), %esi
	movl	-20(%rbp), %ecx
                                        # kill: def $cl killed $ecx
	shll	%cl, %esi
	movslq	-12(%rbp), %rcx
	shlq	$6, %rcx
	addq	%rcx, %rdx
	movslq	-4(%rbp), %rcx
	shlq	$4, %rcx
	addq	%rcx, %rdx
	movslq	-8(%rbp), %rcx
	movl	%esi, (%rdx,%rcx,4)
	movslq	-16(%rbp), %rcx
	movswl	Offset_intra_default_intra(,%rcx,2), %edx
	movl	-20(%rbp), %ecx
                                        # kill: def $cl killed $ecx
	shll	%cl, %edx
	movslq	-12(%rbp), %rcx
	shlq	$6, %rcx
	addq	%rcx, %rax
	movslq	-4(%rbp), %rcx
	shlq	$4, %rcx
	addq	%rcx, %rax
	movslq	-8(%rbp), %rcx
	movl	%edx, (%rax,%rcx,4)
	jmp	.LBB8_26
.LBB8_25:                               # %if.else154
                                        #   in Loop: Header=BB8_22 Depth=3
	movabsq	$LevelOffset4x4Chroma_Intra, %rdx
	movq	%rdx, %rax
	addq	$832, %rax              # imm = 0x340
	movslq	-16(%rbp), %rcx
	movswl	Offset_intra_default_inter(,%rcx,2), %esi
	movl	-20(%rbp), %ecx
                                        # kill: def $cl killed $ecx
	shll	%cl, %esi
	movslq	-12(%rbp), %rcx
	shlq	$6, %rcx
	movabsq	$LevelOffset4x4Luma_Intra, %rdi
	addq	%rcx, %rdi
	movslq	-4(%rbp), %rcx
	shlq	$4, %rcx
	addq	%rcx, %rdi
	movslq	-8(%rbp), %rcx
	movl	%esi, (%rdi,%rcx,4)
	movslq	-16(%rbp), %rcx
	movswl	Offset_intra_default_inter(,%rcx,2), %esi
	movl	-20(%rbp), %ecx
                                        # kill: def $cl killed $ecx
	shll	%cl, %esi
	movslq	-12(%rbp), %rcx
	shlq	$6, %rcx
	addq	%rcx, %rdx
	movslq	-4(%rbp), %rcx
	shlq	$4, %rcx
	addq	%rcx, %rdx
	movslq	-8(%rbp), %rcx
	movl	%esi, (%rdx,%rcx,4)
	movslq	-16(%rbp), %rcx
	movswl	Offset_intra_default_inter(,%rcx,2), %edx
	movl	-20(%rbp), %ecx
                                        # kill: def $cl killed $ecx
	shll	%cl, %edx
	movslq	-12(%rbp), %rcx
	shlq	$6, %rcx
	addq	%rcx, %rax
	movslq	-4(%rbp), %rcx
	shlq	$4, %rcx
	addq	%rcx, %rax
	movslq	-8(%rbp), %rcx
	movl	%edx, (%rax,%rcx,4)
.LBB8_26:                               # %if.end185
                                        #   in Loop: Header=BB8_22 Depth=3
	movabsq	$LevelOffset4x4Chroma_Inter, %rdx
	movq	%rdx, %rax
	addq	$832, %rax              # imm = 0x340
	movslq	-16(%rbp), %rcx
	movswl	Offset_inter_default(,%rcx,2), %esi
	movl	-20(%rbp), %ecx
                                        # kill: def $cl killed $ecx
	shll	%cl, %esi
	movslq	-12(%rbp), %rcx
	shlq	$6, %rcx
	movabsq	$LevelOffset4x4Luma_Inter, %rdi
	addq	%rcx, %rdi
	movslq	-4(%rbp), %rcx
	shlq	$4, %rcx
	addq	%rcx, %rdi
	movslq	-8(%rbp), %rcx
	movl	%esi, (%rdi,%rcx,4)
	movslq	-16(%rbp), %rcx
	movswl	Offset_inter_default(,%rcx,2), %esi
	movl	-20(%rbp), %ecx
                                        # kill: def $cl killed $ecx
	shll	%cl, %esi
	movslq	-12(%rbp), %rcx
	shlq	$6, %rcx
	addq	%rcx, %rdx
	movslq	-4(%rbp), %rcx
	shlq	$4, %rcx
	addq	%rcx, %rdx
	movslq	-8(%rbp), %rcx
	movl	%esi, (%rdx,%rcx,4)
	movslq	-16(%rbp), %rcx
	movswl	Offset_inter_default(,%rcx,2), %edx
	movl	-20(%rbp), %ecx
                                        # kill: def $cl killed $ecx
	shll	%cl, %edx
	movslq	-12(%rbp), %rcx
	shlq	$6, %rcx
	addq	%rcx, %rax
	movslq	-4(%rbp), %rcx
	shlq	$4, %rcx
	addq	%rcx, %rax
	movslq	-8(%rbp), %rcx
	movl	%edx, (%rax,%rcx,4)
# %bb.27:                               # %for.inc216
                                        #   in Loop: Header=BB8_22 Depth=3
	movl	-8(%rbp), %eax
	addl	$1, %eax
	movl	%eax, -8(%rbp)
	jmp	.LBB8_22
.LBB8_28:                               # %for.end218
                                        #   in Loop: Header=BB8_20 Depth=2
	jmp	.LBB8_29
.LBB8_29:                               # %for.inc219
                                        #   in Loop: Header=BB8_20 Depth=2
	movl	-4(%rbp), %eax
	addl	$1, %eax
	movl	%eax, -4(%rbp)
	jmp	.LBB8_20
.LBB8_30:                               # %for.end221
                                        #   in Loop: Header=BB8_18 Depth=1
	jmp	.LBB8_31
.LBB8_31:                               # %for.inc222
                                        #   in Loop: Header=BB8_18 Depth=1
	movl	-12(%rbp), %eax
	addl	$1, %eax
	movl	%eax, -12(%rbp)
	jmp	.LBB8_18
.LBB8_32:                               # %for.end224
	jmp	.LBB8_33
.LBB8_33:                               # %if.end225
	cmpl	$2113100698, -24(%rbp)  # imm = 0x7DF35B9A
	jne	.LBB8_35
.LBB8_34:
	addq	$32, %rsp
	popq	%rbp
	.cfi_def_cfa %rsp, 8
	retq
.LBB8_35:                               # %func_exit
	.cfi_def_cfa %rbp, 16
	callq	detect_breach
	jmp	.LBB8_34
.Lfunc_end8:
	.size	CalculateOffsetParam.4, .Lfunc_end8-CalculateOffsetParam.4
	.cfi_endproc
                                        # -- End function
	.globl	CalculateOffsetParam.5  # -- Begin function CalculateOffsetParam.5
	.p2align	4, 0x90
	.type	CalculateOffsetParam.5,@function
CalculateOffsetParam.5:                 # @CalculateOffsetParam.5
	.cfi_startproc
# %bb.0:                                # %entry
	pushq	%rbp
	.cfi_def_cfa_offset 16
	.cfi_offset %rbp, -16
	movq	%rsp, %rbp
	.cfi_def_cfa_register %rbp
	subq	$32, %rsp
	movl	$1467172483, -24(%rbp)  # imm = 0x57734683
	movq	input, %rax
	cmpl	$0, 3584(%rax)
	je	.LBB9_17
# %bb.1:                                # %if.then
	movl	$0, -12(%rbp)
.LBB9_2:                                # %for.cond
                                        # =>This Loop Header: Depth=1
                                        #     Child Loop BB9_4 Depth 2
                                        #       Child Loop BB9_6 Depth 3
	cmpl	$13, -12(%rbp)
	jge	.LBB9_16
# %bb.3:                                # %for.body
                                        #   in Loop: Header=BB9_2 Depth=1
	movl	-12(%rbp), %eax
	addl	$15, %eax
	subl	$10, %eax
	movl	%eax, -20(%rbp)
	movl	$0, -8(%rbp)
.LBB9_4:                                # %for.cond1
                                        #   Parent Loop BB9_2 Depth=1
                                        # =>  This Loop Header: Depth=2
                                        #       Child Loop BB9_6 Depth 3
	cmpl	$4, -8(%rbp)
	jge	.LBB9_14
# %bb.5:                                # %for.body3
                                        #   in Loop: Header=BB9_4 Depth=2
	movl	$0, -4(%rbp)
.LBB9_6:                                # %for.cond4
                                        #   Parent Loop BB9_2 Depth=1
                                        #     Parent Loop BB9_4 Depth=2
                                        # =>    This Inner Loop Header: Depth=3
	cmpl	$4, -4(%rbp)
	jge	.LBB9_12
# %bb.7:                                # %for.body6
                                        #   in Loop: Header=BB9_6 Depth=3
	movl	-4(%rbp), %eax
	shll	$2, %eax
	addl	-8(%rbp), %eax
	movl	%eax, -16(%rbp)
	movq	img, %rax
	cmpl	$2, 24(%rax)
	jne	.LBB9_9
# %bb.8:                                # %if.then9
                                        #   in Loop: Header=BB9_6 Depth=3
	movabsq	$LevelOffset4x4Chroma_Intra, %rdx
	movq	%rdx, %rax
	addq	$832, %rax              # imm = 0x340
	movslq	-16(%rbp), %rcx
	movswl	OffsetList4x4input(,%rcx,2), %esi
	movl	-20(%rbp), %ecx
                                        # kill: def $cl killed $ecx
	shll	%cl, %esi
	movslq	-12(%rbp), %rcx
	shlq	$6, %rcx
	movabsq	$LevelOffset4x4Luma_Intra, %rdi
	addq	%rcx, %rdi
	movslq	-8(%rbp), %rcx
	shlq	$4, %rcx
	addq	%rcx, %rdi
	movslq	-4(%rbp), %rcx
	movl	%esi, (%rdi,%rcx,4)
	movslq	-16(%rbp), %rcx
	movswl	OffsetList4x4input+32(,%rcx,2), %esi
	movl	-20(%rbp), %ecx
                                        # kill: def $cl killed $ecx
	shll	%cl, %esi
	movslq	-12(%rbp), %rcx
	shlq	$6, %rcx
	addq	%rcx, %rdx
	movslq	-8(%rbp), %rcx
	shlq	$4, %rcx
	addq	%rcx, %rdx
	movslq	-4(%rbp), %rcx
	movl	%esi, (%rdx,%rcx,4)
	movslq	-16(%rbp), %rcx
	movswl	OffsetList4x4input+64(,%rcx,2), %edx
	movl	-20(%rbp), %ecx
                                        # kill: def $cl killed $ecx
	shll	%cl, %edx
	movslq	-12(%rbp), %rcx
	shlq	$6, %rcx
	addq	%rcx, %rax
	movslq	-8(%rbp), %rcx
	shlq	$4, %rcx
	addq	%rcx, %rax
	movslq	-4(%rbp), %rcx
	movl	%edx, (%rax,%rcx,4)
	jmp	.LBB9_10
.LBB9_9:                                # %if.else
                                        #   in Loop: Header=BB9_6 Depth=3
	movabsq	$LevelOffset4x4Chroma_Intra, %rdx
	movq	%rdx, %rax
	addq	$832, %rax              # imm = 0x340
	movslq	-16(%rbp), %rcx
	movswl	OffsetList4x4input+96(,%rcx,2), %esi
	movl	-20(%rbp), %ecx
                                        # kill: def $cl killed $ecx
	shll	%cl, %esi
	movslq	-12(%rbp), %rcx
	shlq	$6, %rcx
	movabsq	$LevelOffset4x4Luma_Intra, %rdi
	addq	%rcx, %rdi
	movslq	-8(%rbp), %rcx
	shlq	$4, %rcx
	addq	%rcx, %rdi
	movslq	-4(%rbp), %rcx
	movl	%esi, (%rdi,%rcx,4)
	movslq	-16(%rbp), %rcx
	movswl	OffsetList4x4input+128(,%rcx,2), %esi
	movl	-20(%rbp), %ecx
                                        # kill: def $cl killed $ecx
	shll	%cl, %esi
	movslq	-12(%rbp), %rcx
	shlq	$6, %rcx
	addq	%rcx, %rdx
	movslq	-8(%rbp), %rcx
	shlq	$4, %rcx
	addq	%rcx, %rdx
	movslq	-4(%rbp), %rcx
	movl	%esi, (%rdx,%rcx,4)
	movslq	-16(%rbp), %rcx
	movswl	OffsetList4x4input+160(,%rcx,2), %edx
	movl	-20(%rbp), %ecx
                                        # kill: def $cl killed $ecx
	shll	%cl, %edx
	movslq	-12(%rbp), %rcx
	shlq	$6, %rcx
	addq	%rcx, %rax
	movslq	-8(%rbp), %rcx
	shlq	$4, %rcx
	addq	%rcx, %rax
	movslq	-4(%rbp), %rcx
	movl	%edx, (%rax,%rcx,4)
.LBB9_10:                               # %if.end
                                        #   in Loop: Header=BB9_6 Depth=3
	movabsq	$LevelOffset4x4Chroma_Inter, %rdx
	movq	%rdx, %rax
	addq	$832, %rax              # imm = 0x340
	movslq	-16(%rbp), %rcx
	movswl	OffsetList4x4input+192(,%rcx,2), %esi
	movl	-20(%rbp), %ecx
                                        # kill: def $cl killed $ecx
	shll	%cl, %esi
	movslq	-12(%rbp), %rcx
	shlq	$6, %rcx
	movabsq	$LevelOffset4x4Luma_Inter, %rdi
	addq	%rcx, %rdi
	movslq	-8(%rbp), %rcx
	shlq	$4, %rcx
	addq	%rcx, %rdi
	movslq	-4(%rbp), %rcx
	movl	%esi, (%rdi,%rcx,4)
	movslq	-16(%rbp), %rcx
	movswl	OffsetList4x4input+224(,%rcx,2), %esi
	movl	-20(%rbp), %ecx
                                        # kill: def $cl killed $ecx
	shll	%cl, %esi
	movslq	-12(%rbp), %rcx
	shlq	$6, %rcx
	addq	%rcx, %rdx
	movslq	-8(%rbp), %rcx
	shlq	$4, %rcx
	addq	%rcx, %rdx
	movslq	-4(%rbp), %rcx
	movl	%esi, (%rdx,%rcx,4)
	movslq	-16(%rbp), %rcx
	movswl	OffsetList4x4input+256(,%rcx,2), %edx
	movl	-20(%rbp), %ecx
                                        # kill: def $cl killed $ecx
	shll	%cl, %edx
	movslq	-12(%rbp), %rcx
	shlq	$6, %rcx
	addq	%rcx, %rax
	movslq	-8(%rbp), %rcx
	shlq	$4, %rcx
	addq	%rcx, %rax
	movslq	-4(%rbp), %rcx
	movl	%edx, (%rax,%rcx,4)
# %bb.11:                               # %for.inc
                                        #   in Loop: Header=BB9_6 Depth=3
	movl	-4(%rbp), %eax
	addl	$1, %eax
	movl	%eax, -4(%rbp)
	jmp	.LBB9_6
.LBB9_12:                               # %for.end
                                        #   in Loop: Header=BB9_4 Depth=2
	jmp	.LBB9_13
.LBB9_13:                               # %for.inc97
                                        #   in Loop: Header=BB9_4 Depth=2
	movl	-8(%rbp), %eax
	addl	$1, %eax
	movl	%eax, -8(%rbp)
	jmp	.LBB9_4
.LBB9_14:                               # %for.end99
                                        #   in Loop: Header=BB9_2 Depth=1
	jmp	.LBB9_15
.LBB9_15:                               # %for.inc100
                                        #   in Loop: Header=BB9_2 Depth=1
	movl	-12(%rbp), %eax
	addl	$1, %eax
	movl	%eax, -12(%rbp)
	jmp	.LBB9_2
.LBB9_16:                               # %for.end102
	jmp	.LBB9_33
.LBB9_17:                               # %if.else103
	movl	$0, -12(%rbp)
.LBB9_18:                               # %for.cond104
                                        # =>This Loop Header: Depth=1
                                        #     Child Loop BB9_20 Depth 2
                                        #       Child Loop BB9_22 Depth 3
	cmpl	$13, -12(%rbp)
	jge	.LBB9_32
# %bb.19:                               # %for.body107
                                        #   in Loop: Header=BB9_18 Depth=1
	movl	-12(%rbp), %eax
	addl	$15, %eax
	subl	$10, %eax
	movl	%eax, -20(%rbp)
	movl	$0, -8(%rbp)
.LBB9_20:                               # %for.cond110
                                        #   Parent Loop BB9_18 Depth=1
                                        # =>  This Loop Header: Depth=2
                                        #       Child Loop BB9_22 Depth 3
	cmpl	$4, -8(%rbp)
	jge	.LBB9_30
# %bb.21:                               # %for.body113
                                        #   in Loop: Header=BB9_20 Depth=2
	movl	$0, -4(%rbp)
.LBB9_22:                               # %for.cond114
                                        #   Parent Loop BB9_18 Depth=1
                                        #     Parent Loop BB9_20 Depth=2
                                        # =>    This Inner Loop Header: Depth=3
	cmpl	$4, -4(%rbp)
	jge	.LBB9_28
# %bb.23:                               # %for.body117
                                        #   in Loop: Header=BB9_22 Depth=3
	movl	-4(%rbp), %eax
	shll	$2, %eax
	addl	-8(%rbp), %eax
	movl	%eax, -16(%rbp)
	movq	img, %rax
	cmpl	$2, 24(%rax)
	jne	.LBB9_25
# %bb.24:                               # %if.then123
                                        #   in Loop: Header=BB9_22 Depth=3
	movabsq	$LevelOffset4x4Chroma_Intra, %rdx
	movq	%rdx, %rax
	addq	$832, %rax              # imm = 0x340
	movslq	-16(%rbp), %rcx
	movswl	Offset_intra_default_intra(,%rcx,2), %esi
	movl	-20(%rbp), %ecx
                                        # kill: def $cl killed $ecx
	shll	%cl, %esi
	movslq	-12(%rbp), %rcx
	shlq	$6, %rcx
	movabsq	$LevelOffset4x4Luma_Intra, %rdi
	addq	%rcx, %rdi
	movslq	-8(%rbp), %rcx
	shlq	$4, %rcx
	addq	%rcx, %rdi
	movslq	-4(%rbp), %rcx
	movl	%esi, (%rdi,%rcx,4)
	movslq	-16(%rbp), %rcx
	movswl	Offset_intra_default_intra(,%rcx,2), %esi
	movl	-20(%rbp), %ecx
                                        # kill: def $cl killed $ecx
	shll	%cl, %esi
	movslq	-12(%rbp), %rcx
	shlq	$6, %rcx
	addq	%rcx, %rdx
	movslq	-8(%rbp), %rcx
	shlq	$4, %rcx
	addq	%rcx, %rdx
	movslq	-4(%rbp), %rcx
	movl	%esi, (%rdx,%rcx,4)
	movslq	-16(%rbp), %rcx
	movswl	Offset_intra_default_intra(,%rcx,2), %edx
	movl	-20(%rbp), %ecx
                                        # kill: def $cl killed $ecx
	shll	%cl, %edx
	movslq	-12(%rbp), %rcx
	shlq	$6, %rcx
	addq	%rcx, %rax
	movslq	-8(%rbp), %rcx
	shlq	$4, %rcx
	addq	%rcx, %rax
	movslq	-4(%rbp), %rcx
	movl	%edx, (%rax,%rcx,4)
	jmp	.LBB9_26
.LBB9_25:                               # %if.else154
                                        #   in Loop: Header=BB9_22 Depth=3
	movabsq	$LevelOffset4x4Chroma_Intra, %rdx
	movq	%rdx, %rax
	addq	$832, %rax              # imm = 0x340
	movslq	-16(%rbp), %rcx
	movswl	Offset_intra_default_inter(,%rcx,2), %esi
	movl	-20(%rbp), %ecx
                                        # kill: def $cl killed $ecx
	shll	%cl, %esi
	movslq	-12(%rbp), %rcx
	shlq	$6, %rcx
	movabsq	$LevelOffset4x4Luma_Intra, %rdi
	addq	%rcx, %rdi
	movslq	-8(%rbp), %rcx
	shlq	$4, %rcx
	addq	%rcx, %rdi
	movslq	-4(%rbp), %rcx
	movl	%esi, (%rdi,%rcx,4)
	movslq	-16(%rbp), %rcx
	movswl	Offset_intra_default_inter(,%rcx,2), %esi
	movl	-20(%rbp), %ecx
                                        # kill: def $cl killed $ecx
	shll	%cl, %esi
	movslq	-12(%rbp), %rcx
	shlq	$6, %rcx
	addq	%rcx, %rdx
	movslq	-8(%rbp), %rcx
	shlq	$4, %rcx
	addq	%rcx, %rdx
	movslq	-4(%rbp), %rcx
	movl	%esi, (%rdx,%rcx,4)
	movslq	-16(%rbp), %rcx
	movswl	Offset_intra_default_inter(,%rcx,2), %edx
	movl	-20(%rbp), %ecx
                                        # kill: def $cl killed $ecx
	shll	%cl, %edx
	movslq	-12(%rbp), %rcx
	shlq	$6, %rcx
	addq	%rcx, %rax
	movslq	-8(%rbp), %rcx
	shlq	$4, %rcx
	addq	%rcx, %rax
	movslq	-4(%rbp), %rcx
	movl	%edx, (%rax,%rcx,4)
.LBB9_26:                               # %if.end185
                                        #   in Loop: Header=BB9_22 Depth=3
	movabsq	$LevelOffset4x4Chroma_Inter, %rdx
	movq	%rdx, %rax
	addq	$832, %rax              # imm = 0x340
	movslq	-16(%rbp), %rcx
	movswl	Offset_inter_default(,%rcx,2), %esi
	movl	-20(%rbp), %ecx
                                        # kill: def $cl killed $ecx
	shll	%cl, %esi
	movslq	-12(%rbp), %rcx
	shlq	$6, %rcx
	movabsq	$LevelOffset4x4Luma_Inter, %rdi
	addq	%rcx, %rdi
	movslq	-8(%rbp), %rcx
	shlq	$4, %rcx
	addq	%rcx, %rdi
	movslq	-4(%rbp), %rcx
	movl	%esi, (%rdi,%rcx,4)
	movslq	-16(%rbp), %rcx
	movswl	Offset_inter_default(,%rcx,2), %esi
	movl	-20(%rbp), %ecx
                                        # kill: def $cl killed $ecx
	shll	%cl, %esi
	movslq	-12(%rbp), %rcx
	shlq	$6, %rcx
	addq	%rcx, %rdx
	movslq	-8(%rbp), %rcx
	shlq	$4, %rcx
	addq	%rcx, %rdx
	movslq	-4(%rbp), %rcx
	movl	%esi, (%rdx,%rcx,4)
	movslq	-16(%rbp), %rcx
	movswl	Offset_inter_default(,%rcx,2), %edx
	movl	-20(%rbp), %ecx
                                        # kill: def $cl killed $ecx
	shll	%cl, %edx
	movslq	-12(%rbp), %rcx
	shlq	$6, %rcx
	addq	%rcx, %rax
	movslq	-8(%rbp), %rcx
	shlq	$4, %rcx
	addq	%rcx, %rax
	movslq	-4(%rbp), %rcx
	movl	%edx, (%rax,%rcx,4)
# %bb.27:                               # %for.inc216
                                        #   in Loop: Header=BB9_22 Depth=3
	movl	-4(%rbp), %eax
	addl	$1, %eax
	movl	%eax, -4(%rbp)
	jmp	.LBB9_22
.LBB9_28:                               # %for.end218
                                        #   in Loop: Header=BB9_20 Depth=2
	jmp	.LBB9_29
.LBB9_29:                               # %for.inc219
                                        #   in Loop: Header=BB9_20 Depth=2
	movl	-8(%rbp), %eax
	addl	$1, %eax
	movl	%eax, -8(%rbp)
	jmp	.LBB9_20
.LBB9_30:                               # %for.end221
                                        #   in Loop: Header=BB9_18 Depth=1
	jmp	.LBB9_31
.LBB9_31:                               # %for.inc222
                                        #   in Loop: Header=BB9_18 Depth=1
	movl	-12(%rbp), %eax
	addl	$1, %eax
	movl	%eax, -12(%rbp)
	jmp	.LBB9_18
.LBB9_32:                               # %for.end224
	jmp	.LBB9_33
.LBB9_33:                               # %if.end225
	cmpl	$1467172483, -24(%rbp)  # imm = 0x57734683
	jne	.LBB9_35
.LBB9_34:
	addq	$32, %rsp
	popq	%rbp
	.cfi_def_cfa %rsp, 8
	retq
.LBB9_35:                               # %func_exit
	.cfi_def_cfa %rbp, 16
	callq	detect_breach
	jmp	.LBB9_34
.Lfunc_end9:
	.size	CalculateOffsetParam.5, .Lfunc_end9-CalculateOffsetParam.5
	.cfi_endproc
                                        # -- End function
	.globl	ParseQOffsetMatrix.6    # -- Begin function ParseQOffsetMatrix.6
	.p2align	4, 0x90
	.type	ParseQOffsetMatrix.6,@function
ParseQOffsetMatrix.6:                   # @ParseQOffsetMatrix.6
	.cfi_startproc
# %bb.0:                                # %entry
	pushq	%rbp
	.cfi_def_cfa_offset 16
	.cfi_offset %rbp, -16
	movq	%rsp, %rbp
	.cfi_def_cfa_register %rbp
	subq	$8096, %rsp             # imm = 0x1FA0
	movl	$2100156460, -56(%rbp)  # imm = 0x7D2DD82C
	movq	%rdi, -88(%rbp)
	movl	%esi, -48(%rbp)
	movl	$0, -28(%rbp)
	movl	$0, -36(%rbp)
	movl	$0, -20(%rbp)
	movq	-88(%rbp), %rax
	movq	%rax, -16(%rbp)
	movq	-88(%rbp), %rax
	movslq	-48(%rbp), %rcx
	addq	%rcx, %rax
	movq	%rax, -80(%rbp)
.LBB10_1:                               # %while.cond
                                        # =>This Loop Header: Depth=1
                                        #     Child Loop BB10_6 Depth 2
	movq	-16(%rbp), %rax
	cmpq	-80(%rbp), %rax
	jae	.LBB10_25
# %bb.2:                                # %while.body
                                        #   in Loop: Header=BB10_1 Depth=1
	movq	-16(%rbp), %rax
	movsbl	(%rax), %eax
	addl	$-9, %eax
	movl	%eax, %ecx
	subl	$35, %ecx
	ja	.LBB10_21
# %bb.3:                                # %while.body
                                        #   in Loop: Header=BB10_1 Depth=1
	movq	.LJTI10_0(,%rax,8), %rax
	jmpq	*%rax
.LBB10_4:                               # %sw.bb
                                        #   in Loop: Header=BB10_1 Depth=1
	movq	-16(%rbp), %rax
	addq	$1, %rax
	movq	%rax, -16(%rbp)
	jmp	.LBB10_24
.LBB10_5:                               # %sw.bb1
                                        #   in Loop: Header=BB10_1 Depth=1
	movq	-16(%rbp), %rax
	movb	$0, (%rax)
.LBB10_6:                               # %while.cond2
                                        #   Parent Loop BB10_1 Depth=1
                                        # =>  This Inner Loop Header: Depth=2
	xorl	%eax, %eax
	movq	-16(%rbp), %rcx
	movsbl	(%rcx), %ecx
	cmpl	$10, %ecx
	je	.LBB10_8
# %bb.7:                                # %land.rhs
                                        #   in Loop: Header=BB10_6 Depth=2
	movq	-16(%rbp), %rax
	cmpq	-80(%rbp), %rax
	setb	%al
.LBB10_8:                               # %land.end
                                        #   in Loop: Header=BB10_6 Depth=2
	testb	$1, %al
	jne	.LBB10_9
	jmp	.LBB10_10
.LBB10_9:                               # %while.body8
                                        #   in Loop: Header=BB10_6 Depth=2
	movq	-16(%rbp), %rax
	addq	$1, %rax
	movq	%rax, -16(%rbp)
	jmp	.LBB10_6
.LBB10_10:                              # %while.end
                                        #   in Loop: Header=BB10_1 Depth=1
	movl	$0, -36(%rbp)
	movl	$0, -20(%rbp)
	jmp	.LBB10_24
.LBB10_11:                              # %sw.bb10
                                        #   in Loop: Header=BB10_1 Depth=1
	movl	$0, -20(%rbp)
	movl	$0, -36(%rbp)
	movq	-16(%rbp), %rax
	movq	%rax, %rcx
	addq	$1, %rcx
	movq	%rcx, -16(%rbp)
	movb	$0, (%rax)
	jmp	.LBB10_24
.LBB10_12:                              # %sw.bb12
                                        #   in Loop: Header=BB10_1 Depth=1
	cmpl	$0, -36(%rbp)
	je	.LBB10_14
# %bb.13:                               # %if.then
                                        #   in Loop: Header=BB10_1 Depth=1
	movq	-16(%rbp), %rax
	addq	$1, %rax
	movq	%rax, -16(%rbp)
	jmp	.LBB10_15
.LBB10_14:                              # %if.else
                                        #   in Loop: Header=BB10_1 Depth=1
	movq	-16(%rbp), %rax
	movq	%rax, %rcx
	addq	$1, %rcx
	movq	%rcx, -16(%rbp)
	movb	$0, (%rax)
	movl	$0, -20(%rbp)
.LBB10_15:                              # %if.end
                                        #   in Loop: Header=BB10_1 Depth=1
	jmp	.LBB10_24
.LBB10_16:                              # %sw.bb15
                                        #   in Loop: Header=BB10_1 Depth=1
	movq	-16(%rbp), %rax
	movq	%rax, %rcx
	addq	$1, %rcx
	movq	%rcx, -16(%rbp)
	movb	$0, (%rax)
	cmpl	$0, -36(%rbp)
	jne	.LBB10_18
# %bb.17:                               # %if.then18
                                        #   in Loop: Header=BB10_1 Depth=1
	movq	-16(%rbp), %rax
	movl	-28(%rbp), %ecx
	movl	%ecx, %edx
	addl	$1, %edx
	movl	%edx, -28(%rbp)
	movslq	%ecx, %rcx
	movq	%rax, -8096(%rbp,%rcx,8)
	movl	-20(%rbp), %eax
	xorl	$-1, %eax
	movl	%eax, -20(%rbp)
	jmp	.LBB10_19
.LBB10_18:                              # %if.else21
                                        #   in Loop: Header=BB10_1 Depth=1
	movl	$0, -20(%rbp)
.LBB10_19:                              # %if.end22
                                        #   in Loop: Header=BB10_1 Depth=1
	movl	-36(%rbp), %eax
	xorl	$-1, %eax
	movl	%eax, -36(%rbp)
	jmp	.LBB10_24
.LBB10_20:                              # %sw.bb24
                                        #   in Loop: Header=BB10_1 Depth=1
	movq	-16(%rbp), %rax
	addq	$1, %rax
	movq	%rax, -16(%rbp)
	movl	$0, -20(%rbp)
	jmp	.LBB10_24
.LBB10_21:                              # %sw.default
                                        #   in Loop: Header=BB10_1 Depth=1
	cmpl	$0, -20(%rbp)
	jne	.LBB10_23
# %bb.22:                               # %if.then27
                                        #   in Loop: Header=BB10_1 Depth=1
	movq	-16(%rbp), %rax
	movl	-28(%rbp), %ecx
	movl	%ecx, %edx
	addl	$1, %edx
	movl	%edx, -28(%rbp)
	movslq	%ecx, %rcx
	movq	%rax, -8096(%rbp,%rcx,8)
	movl	-20(%rbp), %eax
	xorl	$-1, %eax
	movl	%eax, -20(%rbp)
.LBB10_23:                              # %if.end32
                                        #   in Loop: Header=BB10_1 Depth=1
	movq	-16(%rbp), %rax
	addq	$1, %rax
	movq	%rax, -16(%rbp)
.LBB10_24:                              # %sw.epilog
                                        #   in Loop: Header=BB10_1 Depth=1
	jmp	.LBB10_1
.LBB10_25:                              # %while.end34
	movl	-28(%rbp), %eax
	addl	$-1, %eax
	movl	%eax, -28(%rbp)
	movl	$0, -24(%rbp)
.LBB10_26:                              # %for.cond
                                        # =>This Loop Header: Depth=1
                                        #     Child Loop BB10_35 Depth 2
	movl	-24(%rbp), %eax
	cmpl	-28(%rbp), %eax
	jge	.LBB10_42
# %bb.27:                               # %for.body
                                        #   in Loop: Header=BB10_26 Depth=1
	movl	$0, -4(%rbp)
	movl	-24(%rbp), %eax
	addl	-4(%rbp), %eax
	cltq
	movq	-8096(%rbp,%rax,8), %rdi
	leaq	-52(%rbp), %rsi
	callq	CheckOffsetParameterName
	xorl	%ecx, %ecx
	movl	%eax, -40(%rbp)
	cmpl	%eax, %ecx
	jle	.LBB10_29
# %bb.28:                               # %if.then41
                                        #   in Loop: Header=BB10_26 Depth=1
	movl	-24(%rbp), %eax
	addl	-4(%rbp), %eax
	cltq
	movq	-8096(%rbp,%rax,8), %rcx
	movabsq	$errortext, %rdi
	movl	$300, %esi              # imm = 0x12C
	movabsq	$.L.str, %rdx
	movb	$0, %al
	callq	snprintf
	movabsq	$errortext, %rdi
	movl	$300, %esi              # imm = 0x12C
	callq	error
.LBB10_29:                              # %if.end46
                                        #   in Loop: Header=BB10_26 Depth=1
	movl	-4(%rbp), %eax
	addl	$1, %eax
	movl	%eax, -4(%rbp)
	movl	-24(%rbp), %eax
	addl	-4(%rbp), %eax
	cltq
	movq	-8096(%rbp,%rax,8), %rsi
	movl	$.L.str.1, %edi
	callq	strcmp
	cmpl	$0, %eax
	je	.LBB10_31
# %bb.30:                               # %if.then53
                                        #   in Loop: Header=BB10_26 Depth=1
	movabsq	$errortext, %rdi
	movl	$300, %esi              # imm = 0x12C
	movabsq	$.L.str.2, %rdx
	movb	$0, %al
	callq	snprintf
	movabsq	$errortext, %rdi
	movl	$300, %esi              # imm = 0x12C
	callq	error
.LBB10_31:                              # %if.end55
                                        #   in Loop: Header=BB10_26 Depth=1
	movl	-4(%rbp), %eax
	addl	$1, %eax
	movl	%eax, -4(%rbp)
	cmpl	$0, -52(%rbp)
	jne	.LBB10_33
# %bb.32:                               # %if.then58
                                        #   in Loop: Header=BB10_26 Depth=1
	movl	$16, -44(%rbp)
	movslq	-40(%rbp), %rax
	shlq	$5, %rax
	movabsq	$OffsetList4x4input, %rcx
	addq	%rax, %rcx
	movq	%rcx, -72(%rbp)
	movslq	-40(%rbp), %rax
	movl	$1, offset4x4_check(,%rax,4)
	jmp	.LBB10_34
.LBB10_33:                              # %if.else63
                                        #   in Loop: Header=BB10_26 Depth=1
	movl	$64, -44(%rbp)
	movslq	-40(%rbp), %rax
	shlq	$7, %rax
	movabsq	$OffsetList8x8input, %rcx
	addq	%rax, %rcx
	movq	%rcx, -72(%rbp)
	movslq	-40(%rbp), %rax
	movl	$1, offset8x8_check(,%rax,4)
.LBB10_34:                              # %if.end69
                                        #   in Loop: Header=BB10_26 Depth=1
	movl	$0, -32(%rbp)
.LBB10_35:                              # %for.cond70
                                        #   Parent Loop BB10_26 Depth=1
                                        # =>  This Inner Loop Header: Depth=2
	movl	-32(%rbp), %eax
	cmpl	-44(%rbp), %eax
	jge	.LBB10_40
# %bb.36:                               # %for.body73
                                        #   in Loop: Header=BB10_35 Depth=2
	movl	-24(%rbp), %eax
	addl	-4(%rbp), %eax
	addl	-32(%rbp), %eax
	cltq
	movq	-8096(%rbp,%rax,8), %rdi
	movabsq	$.L.str.3, %rsi
	leaq	-60(%rbp), %rdx
	movb	$0, %al
	callq	__isoc99_sscanf
	movl	$1, %ecx
	cmpl	%eax, %ecx
	je	.LBB10_38
# %bb.37:                               # %if.then81
                                        #   in Loop: Header=BB10_35 Depth=2
	movslq	-24(%rbp), %rax
	movq	-8096(%rbp,%rax,8), %rcx
	movl	-24(%rbp), %eax
	addl	-4(%rbp), %eax
	addl	-32(%rbp), %eax
	cltq
	movq	-8096(%rbp,%rax,8), %r8
	movabsq	$errortext, %rdi
	movl	$300, %esi              # imm = 0x12C
	movabsq	$.L.str.4, %rdx
	movb	$0, %al
	callq	snprintf
	movabsq	$errortext, %rdi
	movl	$300, %esi              # imm = 0x12C
	callq	error
.LBB10_38:                              # %if.end89
                                        #   in Loop: Header=BB10_35 Depth=2
	movl	-60(%rbp), %eax
	movq	-72(%rbp), %rcx
	movslq	-32(%rbp), %rdx
	movw	%ax, (%rcx,%rdx,2)
# %bb.39:                               # %for.inc
                                        #   in Loop: Header=BB10_35 Depth=2
	movl	-32(%rbp), %eax
	addl	$1, %eax
	movl	%eax, -32(%rbp)
	jmp	.LBB10_35
.LBB10_40:                              # %for.end
                                        #   in Loop: Header=BB10_26 Depth=1
	movl	-32(%rbp), %eax
	addl	-4(%rbp), %eax
	movl	%eax, -4(%rbp)
	movabsq	$.L.str.5, %rdi
	movb	$0, %al
	callq	printf
# %bb.41:                               # %for.inc96
                                        #   in Loop: Header=BB10_26 Depth=1
	movl	-4(%rbp), %eax
	addl	-24(%rbp), %eax
	movl	%eax, -24(%rbp)
	jmp	.LBB10_26
.LBB10_42:                              # %for.end98
	cmpl	$2100156460, -56(%rbp)  # imm = 0x7D2DD82C
	jne	.LBB10_44
.LBB10_43:
	addq	$8096, %rsp             # imm = 0x1FA0
	popq	%rbp
	.cfi_def_cfa %rsp, 8
	retq
.LBB10_44:                              # %func_exit
	.cfi_def_cfa %rbp, 16
	callq	detect_breach
	jmp	.LBB10_43
.Lfunc_end10:
	.size	ParseQOffsetMatrix.6, .Lfunc_end10-ParseQOffsetMatrix.6
	.cfi_endproc
	.section	.rodata,"a",@progbits
	.p2align	3
.LJTI10_0:
	.quad	.LBB10_12
	.quad	.LBB10_11
	.quad	.LBB10_21
	.quad	.LBB10_21
	.quad	.LBB10_4
	.quad	.LBB10_21
	.quad	.LBB10_21
	.quad	.LBB10_21
	.quad	.LBB10_21
	.quad	.LBB10_21
	.quad	.LBB10_21
	.quad	.LBB10_21
	.quad	.LBB10_21
	.quad	.LBB10_21
	.quad	.LBB10_21
	.quad	.LBB10_21
	.quad	.LBB10_21
	.quad	.LBB10_21
	.quad	.LBB10_21
	.quad	.LBB10_21
	.quad	.LBB10_21
	.quad	.LBB10_21
	.quad	.LBB10_21
	.quad	.LBB10_12
	.quad	.LBB10_21
	.quad	.LBB10_16
	.quad	.LBB10_5
	.quad	.LBB10_21
	.quad	.LBB10_21
	.quad	.LBB10_21
	.quad	.LBB10_21
	.quad	.LBB10_21
	.quad	.LBB10_21
	.quad	.LBB10_21
	.quad	.LBB10_21
	.quad	.LBB10_20
                                        # -- End function
	.text
	.globl	CalculateOffset8Param.7 # -- Begin function CalculateOffset8Param.7
	.p2align	4, 0x90
	.type	CalculateOffset8Param.7,@function
CalculateOffset8Param.7:                # @CalculateOffset8Param.7
	.cfi_startproc
# %bb.0:                                # %entry
	pushq	%rbp
	.cfi_def_cfa_offset 16
	.cfi_offset %rbp, -16
	movq	%rsp, %rbp
	.cfi_def_cfa_register %rbp
	subq	$32, %rsp
	movl	$701157511, -24(%rbp)   # imm = 0x29CAD087
	movq	input, %rax
	cmpl	$0, 3584(%rax)
	je	.LBB11_17
# %bb.1:                                # %if.then
	movl	$0, -12(%rbp)
.LBB11_2:                               # %for.cond
                                        # =>This Loop Header: Depth=1
                                        #     Child Loop BB11_4 Depth 2
                                        #       Child Loop BB11_6 Depth 3
	cmpl	$13, -12(%rbp)
	jge	.LBB11_16
# %bb.3:                                # %for.body
                                        #   in Loop: Header=BB11_2 Depth=1
	movl	-12(%rbp), %eax
	addl	$16, %eax
	subl	$10, %eax
	movl	%eax, -20(%rbp)
	movl	$0, -8(%rbp)
.LBB11_4:                               # %for.cond1
                                        #   Parent Loop BB11_2 Depth=1
                                        # =>  This Loop Header: Depth=2
                                        #       Child Loop BB11_6 Depth 3
	cmpl	$8, -8(%rbp)
	jge	.LBB11_14
# %bb.5:                                # %for.body3
                                        #   in Loop: Header=BB11_4 Depth=2
	movl	$0, -4(%rbp)
.LBB11_6:                               # %for.cond4
                                        #   Parent Loop BB11_2 Depth=1
                                        #     Parent Loop BB11_4 Depth=2
                                        # =>    This Inner Loop Header: Depth=3
	cmpl	$8, -4(%rbp)
	jge	.LBB11_12
# %bb.7:                                # %for.body6
                                        #   in Loop: Header=BB11_6 Depth=3
	movl	-4(%rbp), %eax
	shll	$3, %eax
	addl	-8(%rbp), %eax
	movl	%eax, -16(%rbp)
	movq	img, %rax
	cmpl	$2, 24(%rax)
	jne	.LBB11_9
# %bb.8:                                # %if.then9
                                        #   in Loop: Header=BB11_6 Depth=3
	movslq	-16(%rbp), %rax
	movswl	OffsetList8x8input(,%rax,2), %eax
	movl	-20(%rbp), %ecx
                                        # kill: def $cl killed $ecx
	shll	%cl, %eax
	movslq	-12(%rbp), %rcx
	shlq	$8, %rcx
	movabsq	$LevelOffset8x8Luma_Intra, %rdx
	addq	%rcx, %rdx
	movslq	-8(%rbp), %rcx
	shlq	$5, %rcx
	addq	%rcx, %rdx
	movslq	-4(%rbp), %rcx
	movl	%eax, (%rdx,%rcx,4)
	jmp	.LBB11_10
.LBB11_9:                               # %if.else
                                        #   in Loop: Header=BB11_6 Depth=3
	movslq	-16(%rbp), %rax
	movswl	OffsetList8x8input+128(,%rax,2), %eax
	movl	-20(%rbp), %ecx
                                        # kill: def $cl killed $ecx
	shll	%cl, %eax
	movslq	-12(%rbp), %rcx
	shlq	$8, %rcx
	movabsq	$LevelOffset8x8Luma_Intra, %rdx
	addq	%rcx, %rdx
	movslq	-8(%rbp), %rcx
	shlq	$5, %rcx
	addq	%rcx, %rdx
	movslq	-4(%rbp), %rcx
	movl	%eax, (%rdx,%rcx,4)
.LBB11_10:                              # %if.end
                                        #   in Loop: Header=BB11_6 Depth=3
	movslq	-16(%rbp), %rax
	movswl	OffsetList8x8input+256(,%rax,2), %eax
	movl	-20(%rbp), %ecx
                                        # kill: def $cl killed $ecx
	shll	%cl, %eax
	movslq	-12(%rbp), %rcx
	shlq	$8, %rcx
	movabsq	$LevelOffset8x8Luma_Inter, %rdx
	addq	%rcx, %rdx
	movslq	-8(%rbp), %rcx
	shlq	$5, %rcx
	addq	%rcx, %rdx
	movslq	-4(%rbp), %rcx
	movl	%eax, (%rdx,%rcx,4)
# %bb.11:                               # %for.inc
                                        #   in Loop: Header=BB11_6 Depth=3
	movl	-4(%rbp), %eax
	addl	$1, %eax
	movl	%eax, -4(%rbp)
	jmp	.LBB11_6
.LBB11_12:                              # %for.end
                                        #   in Loop: Header=BB11_4 Depth=2
	jmp	.LBB11_13
.LBB11_13:                              # %for.inc37
                                        #   in Loop: Header=BB11_4 Depth=2
	movl	-8(%rbp), %eax
	addl	$1, %eax
	movl	%eax, -8(%rbp)
	jmp	.LBB11_4
.LBB11_14:                              # %for.end39
                                        #   in Loop: Header=BB11_2 Depth=1
	jmp	.LBB11_15
.LBB11_15:                              # %for.inc40
                                        #   in Loop: Header=BB11_2 Depth=1
	movl	-12(%rbp), %eax
	addl	$1, %eax
	movl	%eax, -12(%rbp)
	jmp	.LBB11_2
.LBB11_16:                              # %for.end42
	jmp	.LBB11_33
.LBB11_17:                              # %if.else43
	movl	$0, -12(%rbp)
.LBB11_18:                              # %for.cond44
                                        # =>This Loop Header: Depth=1
                                        #     Child Loop BB11_20 Depth 2
                                        #       Child Loop BB11_22 Depth 3
	cmpl	$13, -12(%rbp)
	jge	.LBB11_32
# %bb.19:                               # %for.body47
                                        #   in Loop: Header=BB11_18 Depth=1
	movl	-12(%rbp), %eax
	addl	$16, %eax
	subl	$10, %eax
	movl	%eax, -20(%rbp)
	movl	$0, -8(%rbp)
.LBB11_20:                              # %for.cond50
                                        #   Parent Loop BB11_18 Depth=1
                                        # =>  This Loop Header: Depth=2
                                        #       Child Loop BB11_22 Depth 3
	cmpl	$8, -8(%rbp)
	jge	.LBB11_30
# %bb.21:                               # %for.body53
                                        #   in Loop: Header=BB11_20 Depth=2
	movl	$0, -4(%rbp)
.LBB11_22:                              # %for.cond54
                                        #   Parent Loop BB11_18 Depth=1
                                        #     Parent Loop BB11_20 Depth=2
                                        # =>    This Inner Loop Header: Depth=3
	cmpl	$8, -4(%rbp)
	jge	.LBB11_28
# %bb.23:                               # %for.body57
                                        #   in Loop: Header=BB11_22 Depth=3
	movl	-4(%rbp), %eax
	shll	$3, %eax
	addl	-8(%rbp), %eax
	movl	%eax, -16(%rbp)
	movq	img, %rax
	cmpl	$2, 24(%rax)
	jne	.LBB11_25
# %bb.24:                               # %if.then63
                                        #   in Loop: Header=BB11_22 Depth=3
	movslq	-16(%rbp), %rax
	movswl	Offset8_intra_default_intra(,%rax,2), %eax
	movl	-20(%rbp), %ecx
                                        # kill: def $cl killed $ecx
	shll	%cl, %eax
	movslq	-12(%rbp), %rcx
	shlq	$8, %rcx
	movabsq	$LevelOffset8x8Luma_Intra, %rdx
	addq	%rcx, %rdx
	movslq	-8(%rbp), %rcx
	shlq	$5, %rcx
	addq	%rcx, %rdx
	movslq	-4(%rbp), %rcx
	movl	%eax, (%rdx,%rcx,4)
	jmp	.LBB11_26
.LBB11_25:                              # %if.else74
                                        #   in Loop: Header=BB11_22 Depth=3
	movslq	-16(%rbp), %rax
	movswl	Offset8_intra_default_inter(,%rax,2), %eax
	movl	-20(%rbp), %ecx
                                        # kill: def $cl killed $ecx
	shll	%cl, %eax
	movslq	-12(%rbp), %rcx
	shlq	$8, %rcx
	movabsq	$LevelOffset8x8Luma_Intra, %rdx
	addq	%rcx, %rdx
	movslq	-8(%rbp), %rcx
	shlq	$5, %rcx
	addq	%rcx, %rdx
	movslq	-4(%rbp), %rcx
	movl	%eax, (%rdx,%rcx,4)
.LBB11_26:                              # %if.end85
                                        #   in Loop: Header=BB11_22 Depth=3
	movslq	-16(%rbp), %rax
	movswl	Offset8_inter_default(,%rax,2), %eax
	movl	-20(%rbp), %ecx
                                        # kill: def $cl killed $ecx
	shll	%cl, %eax
	movslq	-12(%rbp), %rcx
	shlq	$8, %rcx
	movabsq	$LevelOffset8x8Luma_Inter, %rdx
	addq	%rcx, %rdx
	movslq	-8(%rbp), %rcx
	shlq	$5, %rcx
	addq	%rcx, %rdx
	movslq	-4(%rbp), %rcx
	movl	%eax, (%rdx,%rcx,4)
# %bb.27:                               # %for.inc96
                                        #   in Loop: Header=BB11_22 Depth=3
	movl	-4(%rbp), %eax
	addl	$1, %eax
	movl	%eax, -4(%rbp)
	jmp	.LBB11_22
.LBB11_28:                              # %for.end98
                                        #   in Loop: Header=BB11_20 Depth=2
	jmp	.LBB11_29
.LBB11_29:                              # %for.inc99
                                        #   in Loop: Header=BB11_20 Depth=2
	movl	-8(%rbp), %eax
	addl	$1, %eax
	movl	%eax, -8(%rbp)
	jmp	.LBB11_20
.LBB11_30:                              # %for.end101
                                        #   in Loop: Header=BB11_18 Depth=1
	jmp	.LBB11_31
.LBB11_31:                              # %for.inc102
                                        #   in Loop: Header=BB11_18 Depth=1
	movl	-12(%rbp), %eax
	addl	$1, %eax
	movl	%eax, -12(%rbp)
	jmp	.LBB11_18
.LBB11_32:                              # %for.end104
	jmp	.LBB11_33
.LBB11_33:                              # %if.end105
	cmpl	$701157511, -24(%rbp)   # imm = 0x29CAD087
	jne	.LBB11_35
.LBB11_34:
	addq	$32, %rsp
	popq	%rbp
	.cfi_def_cfa %rsp, 8
	retq
.LBB11_35:                              # %func_exit
	.cfi_def_cfa %rbp, 16
	callq	detect_breach
	jmp	.LBB11_34
.Lfunc_end11:
	.size	CalculateOffset8Param.7, .Lfunc_end11-CalculateOffset8Param.7
	.cfi_endproc
                                        # -- End function
	.globl	CalculateOffset8Param.8 # -- Begin function CalculateOffset8Param.8
	.p2align	4, 0x90
	.type	CalculateOffset8Param.8,@function
CalculateOffset8Param.8:                # @CalculateOffset8Param.8
	.cfi_startproc
# %bb.0:                                # %entry
	pushq	%rbp
	.cfi_def_cfa_offset 16
	.cfi_offset %rbp, -16
	movq	%rsp, %rbp
	.cfi_def_cfa_register %rbp
	subq	$32, %rsp
	movl	$1304297054, -24(%rbp)  # imm = 0x4DBDFE5E
	movq	input, %rax
	cmpl	$0, 3584(%rax)
	je	.LBB12_17
# %bb.1:                                # %if.then
	movl	$0, -4(%rbp)
.LBB12_2:                               # %for.cond
                                        # =>This Loop Header: Depth=1
                                        #     Child Loop BB12_4 Depth 2
                                        #       Child Loop BB12_6 Depth 3
	cmpl	$13, -4(%rbp)
	jge	.LBB12_16
# %bb.3:                                # %for.body
                                        #   in Loop: Header=BB12_2 Depth=1
	movl	-4(%rbp), %eax
	addl	$16, %eax
	subl	$10, %eax
	movl	%eax, -20(%rbp)
	movl	$0, -8(%rbp)
.LBB12_4:                               # %for.cond1
                                        #   Parent Loop BB12_2 Depth=1
                                        # =>  This Loop Header: Depth=2
                                        #       Child Loop BB12_6 Depth 3
	cmpl	$8, -8(%rbp)
	jge	.LBB12_14
# %bb.5:                                # %for.body3
                                        #   in Loop: Header=BB12_4 Depth=2
	movl	$0, -12(%rbp)
.LBB12_6:                               # %for.cond4
                                        #   Parent Loop BB12_2 Depth=1
                                        #     Parent Loop BB12_4 Depth=2
                                        # =>    This Inner Loop Header: Depth=3
	cmpl	$8, -12(%rbp)
	jge	.LBB12_12
# %bb.7:                                # %for.body6
                                        #   in Loop: Header=BB12_6 Depth=3
	movl	-12(%rbp), %eax
	shll	$3, %eax
	addl	-8(%rbp), %eax
	movl	%eax, -16(%rbp)
	movq	img, %rax
	cmpl	$2, 24(%rax)
	jne	.LBB12_9
# %bb.8:                                # %if.then9
                                        #   in Loop: Header=BB12_6 Depth=3
	movslq	-16(%rbp), %rax
	movswl	OffsetList8x8input(,%rax,2), %eax
	movl	-20(%rbp), %ecx
                                        # kill: def $cl killed $ecx
	shll	%cl, %eax
	movslq	-4(%rbp), %rcx
	shlq	$8, %rcx
	movabsq	$LevelOffset8x8Luma_Intra, %rdx
	addq	%rcx, %rdx
	movslq	-8(%rbp), %rcx
	shlq	$5, %rcx
	addq	%rcx, %rdx
	movslq	-12(%rbp), %rcx
	movl	%eax, (%rdx,%rcx,4)
	jmp	.LBB12_10
.LBB12_9:                               # %if.else
                                        #   in Loop: Header=BB12_6 Depth=3
	movslq	-16(%rbp), %rax
	movswl	OffsetList8x8input+128(,%rax,2), %eax
	movl	-20(%rbp), %ecx
                                        # kill: def $cl killed $ecx
	shll	%cl, %eax
	movslq	-4(%rbp), %rcx
	shlq	$8, %rcx
	movabsq	$LevelOffset8x8Luma_Intra, %rdx
	addq	%rcx, %rdx
	movslq	-8(%rbp), %rcx
	shlq	$5, %rcx
	addq	%rcx, %rdx
	movslq	-12(%rbp), %rcx
	movl	%eax, (%rdx,%rcx,4)
.LBB12_10:                              # %if.end
                                        #   in Loop: Header=BB12_6 Depth=3
	movslq	-16(%rbp), %rax
	movswl	OffsetList8x8input+256(,%rax,2), %eax
	movl	-20(%rbp), %ecx
                                        # kill: def $cl killed $ecx
	shll	%cl, %eax
	movslq	-4(%rbp), %rcx
	shlq	$8, %rcx
	movabsq	$LevelOffset8x8Luma_Inter, %rdx
	addq	%rcx, %rdx
	movslq	-8(%rbp), %rcx
	shlq	$5, %rcx
	addq	%rcx, %rdx
	movslq	-12(%rbp), %rcx
	movl	%eax, (%rdx,%rcx,4)
# %bb.11:                               # %for.inc
                                        #   in Loop: Header=BB12_6 Depth=3
	movl	-12(%rbp), %eax
	addl	$1, %eax
	movl	%eax, -12(%rbp)
	jmp	.LBB12_6
.LBB12_12:                              # %for.end
                                        #   in Loop: Header=BB12_4 Depth=2
	jmp	.LBB12_13
.LBB12_13:                              # %for.inc37
                                        #   in Loop: Header=BB12_4 Depth=2
	movl	-8(%rbp), %eax
	addl	$1, %eax
	movl	%eax, -8(%rbp)
	jmp	.LBB12_4
.LBB12_14:                              # %for.end39
                                        #   in Loop: Header=BB12_2 Depth=1
	jmp	.LBB12_15
.LBB12_15:                              # %for.inc40
                                        #   in Loop: Header=BB12_2 Depth=1
	movl	-4(%rbp), %eax
	addl	$1, %eax
	movl	%eax, -4(%rbp)
	jmp	.LBB12_2
.LBB12_16:                              # %for.end42
	jmp	.LBB12_33
.LBB12_17:                              # %if.else43
	movl	$0, -4(%rbp)
.LBB12_18:                              # %for.cond44
                                        # =>This Loop Header: Depth=1
                                        #     Child Loop BB12_20 Depth 2
                                        #       Child Loop BB12_22 Depth 3
	cmpl	$13, -4(%rbp)
	jge	.LBB12_32
# %bb.19:                               # %for.body47
                                        #   in Loop: Header=BB12_18 Depth=1
	movl	-4(%rbp), %eax
	addl	$16, %eax
	subl	$10, %eax
	movl	%eax, -20(%rbp)
	movl	$0, -8(%rbp)
.LBB12_20:                              # %for.cond50
                                        #   Parent Loop BB12_18 Depth=1
                                        # =>  This Loop Header: Depth=2
                                        #       Child Loop BB12_22 Depth 3
	cmpl	$8, -8(%rbp)
	jge	.LBB12_30
# %bb.21:                               # %for.body53
                                        #   in Loop: Header=BB12_20 Depth=2
	movl	$0, -12(%rbp)
.LBB12_22:                              # %for.cond54
                                        #   Parent Loop BB12_18 Depth=1
                                        #     Parent Loop BB12_20 Depth=2
                                        # =>    This Inner Loop Header: Depth=3
	cmpl	$8, -12(%rbp)
	jge	.LBB12_28
# %bb.23:                               # %for.body57
                                        #   in Loop: Header=BB12_22 Depth=3
	movl	-12(%rbp), %eax
	shll	$3, %eax
	addl	-8(%rbp), %eax
	movl	%eax, -16(%rbp)
	movq	img, %rax
	cmpl	$2, 24(%rax)
	jne	.LBB12_25
# %bb.24:                               # %if.then63
                                        #   in Loop: Header=BB12_22 Depth=3
	movslq	-16(%rbp), %rax
	movswl	Offset8_intra_default_intra(,%rax,2), %eax
	movl	-20(%rbp), %ecx
                                        # kill: def $cl killed $ecx
	shll	%cl, %eax
	movslq	-4(%rbp), %rcx
	shlq	$8, %rcx
	movabsq	$LevelOffset8x8Luma_Intra, %rdx
	addq	%rcx, %rdx
	movslq	-8(%rbp), %rcx
	shlq	$5, %rcx
	addq	%rcx, %rdx
	movslq	-12(%rbp), %rcx
	movl	%eax, (%rdx,%rcx,4)
	jmp	.LBB12_26
.LBB12_25:                              # %if.else74
                                        #   in Loop: Header=BB12_22 Depth=3
	movslq	-16(%rbp), %rax
	movswl	Offset8_intra_default_inter(,%rax,2), %eax
	movl	-20(%rbp), %ecx
                                        # kill: def $cl killed $ecx
	shll	%cl, %eax
	movslq	-4(%rbp), %rcx
	shlq	$8, %rcx
	movabsq	$LevelOffset8x8Luma_Intra, %rdx
	addq	%rcx, %rdx
	movslq	-8(%rbp), %rcx
	shlq	$5, %rcx
	addq	%rcx, %rdx
	movslq	-12(%rbp), %rcx
	movl	%eax, (%rdx,%rcx,4)
.LBB12_26:                              # %if.end85
                                        #   in Loop: Header=BB12_22 Depth=3
	movslq	-16(%rbp), %rax
	movswl	Offset8_inter_default(,%rax,2), %eax
	movl	-20(%rbp), %ecx
                                        # kill: def $cl killed $ecx
	shll	%cl, %eax
	movslq	-4(%rbp), %rcx
	shlq	$8, %rcx
	movabsq	$LevelOffset8x8Luma_Inter, %rdx
	addq	%rcx, %rdx
	movslq	-8(%rbp), %rcx
	shlq	$5, %rcx
	addq	%rcx, %rdx
	movslq	-12(%rbp), %rcx
	movl	%eax, (%rdx,%rcx,4)
# %bb.27:                               # %for.inc96
                                        #   in Loop: Header=BB12_22 Depth=3
	movl	-12(%rbp), %eax
	addl	$1, %eax
	movl	%eax, -12(%rbp)
	jmp	.LBB12_22
.LBB12_28:                              # %for.end98
                                        #   in Loop: Header=BB12_20 Depth=2
	jmp	.LBB12_29
.LBB12_29:                              # %for.inc99
                                        #   in Loop: Header=BB12_20 Depth=2
	movl	-8(%rbp), %eax
	addl	$1, %eax
	movl	%eax, -8(%rbp)
	jmp	.LBB12_20
.LBB12_30:                              # %for.end101
                                        #   in Loop: Header=BB12_18 Depth=1
	jmp	.LBB12_31
.LBB12_31:                              # %for.inc102
                                        #   in Loop: Header=BB12_18 Depth=1
	movl	-4(%rbp), %eax
	addl	$1, %eax
	movl	%eax, -4(%rbp)
	jmp	.LBB12_18
.LBB12_32:                              # %for.end104
	jmp	.LBB12_33
.LBB12_33:                              # %if.end105
	cmpl	$1304297054, -24(%rbp)  # imm = 0x4DBDFE5E
	jne	.LBB12_35
.LBB12_34:
	addq	$32, %rsp
	popq	%rbp
	.cfi_def_cfa %rsp, 8
	retq
.LBB12_35:                              # %func_exit
	.cfi_def_cfa %rbp, 16
	callq	detect_breach
	jmp	.LBB12_34
.Lfunc_end12:
	.size	CalculateOffset8Param.8, .Lfunc_end12-CalculateOffset8Param.8
	.cfi_endproc
                                        # -- End function
	.globl	CalculateOffset8Param.9 # -- Begin function CalculateOffset8Param.9
	.p2align	4, 0x90
	.type	CalculateOffset8Param.9,@function
CalculateOffset8Param.9:                # @CalculateOffset8Param.9
	.cfi_startproc
# %bb.0:                                # %entry
	pushq	%rbp
	.cfi_def_cfa_offset 16
	.cfi_offset %rbp, -16
	movq	%rsp, %rbp
	.cfi_def_cfa_register %rbp
	subq	$32, %rsp
	movl	$221965928, -24(%rbp)   # imm = 0xD3AEE68
	movq	input, %rax
	cmpl	$0, 3584(%rax)
	je	.LBB13_17
# %bb.1:                                # %if.then
	movl	$0, -12(%rbp)
.LBB13_2:                               # %for.cond
                                        # =>This Loop Header: Depth=1
                                        #     Child Loop BB13_4 Depth 2
                                        #       Child Loop BB13_6 Depth 3
	cmpl	$13, -12(%rbp)
	jge	.LBB13_16
# %bb.3:                                # %for.body
                                        #   in Loop: Header=BB13_2 Depth=1
	movl	-12(%rbp), %eax
	addl	$16, %eax
	subl	$10, %eax
	movl	%eax, -16(%rbp)
	movl	$0, -8(%rbp)
.LBB13_4:                               # %for.cond1
                                        #   Parent Loop BB13_2 Depth=1
                                        # =>  This Loop Header: Depth=2
                                        #       Child Loop BB13_6 Depth 3
	cmpl	$8, -8(%rbp)
	jge	.LBB13_14
# %bb.5:                                # %for.body3
                                        #   in Loop: Header=BB13_4 Depth=2
	movl	$0, -4(%rbp)
.LBB13_6:                               # %for.cond4
                                        #   Parent Loop BB13_2 Depth=1
                                        #     Parent Loop BB13_4 Depth=2
                                        # =>    This Inner Loop Header: Depth=3
	cmpl	$8, -4(%rbp)
	jge	.LBB13_12
# %bb.7:                                # %for.body6
                                        #   in Loop: Header=BB13_6 Depth=3
	movl	-4(%rbp), %eax
	shll	$3, %eax
	addl	-8(%rbp), %eax
	movl	%eax, -20(%rbp)
	movq	img, %rax
	cmpl	$2, 24(%rax)
	jne	.LBB13_9
# %bb.8:                                # %if.then9
                                        #   in Loop: Header=BB13_6 Depth=3
	movslq	-20(%rbp), %rax
	movswl	OffsetList8x8input(,%rax,2), %eax
	movl	-16(%rbp), %ecx
                                        # kill: def $cl killed $ecx
	shll	%cl, %eax
	movslq	-12(%rbp), %rcx
	shlq	$8, %rcx
	movabsq	$LevelOffset8x8Luma_Intra, %rdx
	addq	%rcx, %rdx
	movslq	-8(%rbp), %rcx
	shlq	$5, %rcx
	addq	%rcx, %rdx
	movslq	-4(%rbp), %rcx
	movl	%eax, (%rdx,%rcx,4)
	jmp	.LBB13_10
.LBB13_9:                               # %if.else
                                        #   in Loop: Header=BB13_6 Depth=3
	movslq	-20(%rbp), %rax
	movswl	OffsetList8x8input+128(,%rax,2), %eax
	movl	-16(%rbp), %ecx
                                        # kill: def $cl killed $ecx
	shll	%cl, %eax
	movslq	-12(%rbp), %rcx
	shlq	$8, %rcx
	movabsq	$LevelOffset8x8Luma_Intra, %rdx
	addq	%rcx, %rdx
	movslq	-8(%rbp), %rcx
	shlq	$5, %rcx
	addq	%rcx, %rdx
	movslq	-4(%rbp), %rcx
	movl	%eax, (%rdx,%rcx,4)
.LBB13_10:                              # %if.end
                                        #   in Loop: Header=BB13_6 Depth=3
	movslq	-20(%rbp), %rax
	movswl	OffsetList8x8input+256(,%rax,2), %eax
	movl	-16(%rbp), %ecx
                                        # kill: def $cl killed $ecx
	shll	%cl, %eax
	movslq	-12(%rbp), %rcx
	shlq	$8, %rcx
	movabsq	$LevelOffset8x8Luma_Inter, %rdx
	addq	%rcx, %rdx
	movslq	-8(%rbp), %rcx
	shlq	$5, %rcx
	addq	%rcx, %rdx
	movslq	-4(%rbp), %rcx
	movl	%eax, (%rdx,%rcx,4)
# %bb.11:                               # %for.inc
                                        #   in Loop: Header=BB13_6 Depth=3
	movl	-4(%rbp), %eax
	addl	$1, %eax
	movl	%eax, -4(%rbp)
	jmp	.LBB13_6
.LBB13_12:                              # %for.end
                                        #   in Loop: Header=BB13_4 Depth=2
	jmp	.LBB13_13
.LBB13_13:                              # %for.inc37
                                        #   in Loop: Header=BB13_4 Depth=2
	movl	-8(%rbp), %eax
	addl	$1, %eax
	movl	%eax, -8(%rbp)
	jmp	.LBB13_4
.LBB13_14:                              # %for.end39
                                        #   in Loop: Header=BB13_2 Depth=1
	jmp	.LBB13_15
.LBB13_15:                              # %for.inc40
                                        #   in Loop: Header=BB13_2 Depth=1
	movl	-12(%rbp), %eax
	addl	$1, %eax
	movl	%eax, -12(%rbp)
	jmp	.LBB13_2
.LBB13_16:                              # %for.end42
	jmp	.LBB13_33
.LBB13_17:                              # %if.else43
	movl	$0, -12(%rbp)
.LBB13_18:                              # %for.cond44
                                        # =>This Loop Header: Depth=1
                                        #     Child Loop BB13_20 Depth 2
                                        #       Child Loop BB13_22 Depth 3
	cmpl	$13, -12(%rbp)
	jge	.LBB13_32
# %bb.19:                               # %for.body47
                                        #   in Loop: Header=BB13_18 Depth=1
	movl	-12(%rbp), %eax
	addl	$16, %eax
	subl	$10, %eax
	movl	%eax, -16(%rbp)
	movl	$0, -8(%rbp)
.LBB13_20:                              # %for.cond50
                                        #   Parent Loop BB13_18 Depth=1
                                        # =>  This Loop Header: Depth=2
                                        #       Child Loop BB13_22 Depth 3
	cmpl	$8, -8(%rbp)
	jge	.LBB13_30
# %bb.21:                               # %for.body53
                                        #   in Loop: Header=BB13_20 Depth=2
	movl	$0, -4(%rbp)
.LBB13_22:                              # %for.cond54
                                        #   Parent Loop BB13_18 Depth=1
                                        #     Parent Loop BB13_20 Depth=2
                                        # =>    This Inner Loop Header: Depth=3
	cmpl	$8, -4(%rbp)
	jge	.LBB13_28
# %bb.23:                               # %for.body57
                                        #   in Loop: Header=BB13_22 Depth=3
	movl	-4(%rbp), %eax
	shll	$3, %eax
	addl	-8(%rbp), %eax
	movl	%eax, -20(%rbp)
	movq	img, %rax
	cmpl	$2, 24(%rax)
	jne	.LBB13_25
# %bb.24:                               # %if.then63
                                        #   in Loop: Header=BB13_22 Depth=3
	movslq	-20(%rbp), %rax
	movswl	Offset8_intra_default_intra(,%rax,2), %eax
	movl	-16(%rbp), %ecx
                                        # kill: def $cl killed $ecx
	shll	%cl, %eax
	movslq	-12(%rbp), %rcx
	shlq	$8, %rcx
	movabsq	$LevelOffset8x8Luma_Intra, %rdx
	addq	%rcx, %rdx
	movslq	-8(%rbp), %rcx
	shlq	$5, %rcx
	addq	%rcx, %rdx
	movslq	-4(%rbp), %rcx
	movl	%eax, (%rdx,%rcx,4)
	jmp	.LBB13_26
.LBB13_25:                              # %if.else74
                                        #   in Loop: Header=BB13_22 Depth=3
	movslq	-20(%rbp), %rax
	movswl	Offset8_intra_default_inter(,%rax,2), %eax
	movl	-16(%rbp), %ecx
                                        # kill: def $cl killed $ecx
	shll	%cl, %eax
	movslq	-12(%rbp), %rcx
	shlq	$8, %rcx
	movabsq	$LevelOffset8x8Luma_Intra, %rdx
	addq	%rcx, %rdx
	movslq	-8(%rbp), %rcx
	shlq	$5, %rcx
	addq	%rcx, %rdx
	movslq	-4(%rbp), %rcx
	movl	%eax, (%rdx,%rcx,4)
.LBB13_26:                              # %if.end85
                                        #   in Loop: Header=BB13_22 Depth=3
	movslq	-20(%rbp), %rax
	movswl	Offset8_inter_default(,%rax,2), %eax
	movl	-16(%rbp), %ecx
                                        # kill: def $cl killed $ecx
	shll	%cl, %eax
	movslq	-12(%rbp), %rcx
	shlq	$8, %rcx
	movabsq	$LevelOffset8x8Luma_Inter, %rdx
	addq	%rcx, %rdx
	movslq	-8(%rbp), %rcx
	shlq	$5, %rcx
	addq	%rcx, %rdx
	movslq	-4(%rbp), %rcx
	movl	%eax, (%rdx,%rcx,4)
# %bb.27:                               # %for.inc96
                                        #   in Loop: Header=BB13_22 Depth=3
	movl	-4(%rbp), %eax
	addl	$1, %eax
	movl	%eax, -4(%rbp)
	jmp	.LBB13_22
.LBB13_28:                              # %for.end98
                                        #   in Loop: Header=BB13_20 Depth=2
	jmp	.LBB13_29
.LBB13_29:                              # %for.inc99
                                        #   in Loop: Header=BB13_20 Depth=2
	movl	-8(%rbp), %eax
	addl	$1, %eax
	movl	%eax, -8(%rbp)
	jmp	.LBB13_20
.LBB13_30:                              # %for.end101
                                        #   in Loop: Header=BB13_18 Depth=1
	jmp	.LBB13_31
.LBB13_31:                              # %for.inc102
                                        #   in Loop: Header=BB13_18 Depth=1
	movl	-12(%rbp), %eax
	addl	$1, %eax
	movl	%eax, -12(%rbp)
	jmp	.LBB13_18
.LBB13_32:                              # %for.end104
	jmp	.LBB13_33
.LBB13_33:                              # %if.end105
	cmpl	$221965928, -24(%rbp)   # imm = 0xD3AEE68
	jne	.LBB13_35
.LBB13_34:
	addq	$32, %rsp
	popq	%rbp
	.cfi_def_cfa %rsp, 8
	retq
.LBB13_35:                              # %func_exit
	.cfi_def_cfa %rbp, 16
	callq	detect_breach
	jmp	.LBB13_34
.Lfunc_end13:
	.size	CalculateOffset8Param.9, .Lfunc_end13-CalculateOffset8Param.9
	.cfi_endproc
                                        # -- End function
	.globl	CalculateOffsetParam.10 # -- Begin function CalculateOffsetParam.10
	.p2align	4, 0x90
	.type	CalculateOffsetParam.10,@function
CalculateOffsetParam.10:                # @CalculateOffsetParam.10
	.cfi_startproc
# %bb.0:                                # %entry
	pushq	%rbp
	.cfi_def_cfa_offset 16
	.cfi_offset %rbp, -16
	movq	%rsp, %rbp
	.cfi_def_cfa_register %rbp
	subq	$32, %rsp
	movl	$1223475084, -24(%rbp)  # imm = 0x48ECBF8C
	movq	input, %rax
	cmpl	$0, 3584(%rax)
	je	.LBB14_17
# %bb.1:                                # %if.then
	movl	$0, -8(%rbp)
.LBB14_2:                               # %for.cond
                                        # =>This Loop Header: Depth=1
                                        #     Child Loop BB14_4 Depth 2
                                        #       Child Loop BB14_6 Depth 3
	cmpl	$13, -8(%rbp)
	jge	.LBB14_16
# %bb.3:                                # %for.body
                                        #   in Loop: Header=BB14_2 Depth=1
	movl	-8(%rbp), %eax
	addl	$15, %eax
	subl	$10, %eax
	movl	%eax, -20(%rbp)
	movl	$0, -12(%rbp)
.LBB14_4:                               # %for.cond1
                                        #   Parent Loop BB14_2 Depth=1
                                        # =>  This Loop Header: Depth=2
                                        #       Child Loop BB14_6 Depth 3
	cmpl	$4, -12(%rbp)
	jge	.LBB14_14
# %bb.5:                                # %for.body3
                                        #   in Loop: Header=BB14_4 Depth=2
	movl	$0, -4(%rbp)
.LBB14_6:                               # %for.cond4
                                        #   Parent Loop BB14_2 Depth=1
                                        #     Parent Loop BB14_4 Depth=2
                                        # =>    This Inner Loop Header: Depth=3
	cmpl	$4, -4(%rbp)
	jge	.LBB14_12
# %bb.7:                                # %for.body6
                                        #   in Loop: Header=BB14_6 Depth=3
	movl	-4(%rbp), %eax
	shll	$2, %eax
	addl	-12(%rbp), %eax
	movl	%eax, -16(%rbp)
	movq	img, %rax
	cmpl	$2, 24(%rax)
	jne	.LBB14_9
# %bb.8:                                # %if.then9
                                        #   in Loop: Header=BB14_6 Depth=3
	movabsq	$LevelOffset4x4Chroma_Intra, %rdx
	movq	%rdx, %rax
	addq	$832, %rax              # imm = 0x340
	movslq	-16(%rbp), %rcx
	movswl	OffsetList4x4input(,%rcx,2), %esi
	movl	-20(%rbp), %ecx
                                        # kill: def $cl killed $ecx
	shll	%cl, %esi
	movslq	-8(%rbp), %rcx
	shlq	$6, %rcx
	movabsq	$LevelOffset4x4Luma_Intra, %rdi
	addq	%rcx, %rdi
	movslq	-12(%rbp), %rcx
	shlq	$4, %rcx
	addq	%rcx, %rdi
	movslq	-4(%rbp), %rcx
	movl	%esi, (%rdi,%rcx,4)
	movslq	-16(%rbp), %rcx
	movswl	OffsetList4x4input+32(,%rcx,2), %esi
	movl	-20(%rbp), %ecx
                                        # kill: def $cl killed $ecx
	shll	%cl, %esi
	movslq	-8(%rbp), %rcx
	shlq	$6, %rcx
	addq	%rcx, %rdx
	movslq	-12(%rbp), %rcx
	shlq	$4, %rcx
	addq	%rcx, %rdx
	movslq	-4(%rbp), %rcx
	movl	%esi, (%rdx,%rcx,4)
	movslq	-16(%rbp), %rcx
	movswl	OffsetList4x4input+64(,%rcx,2), %edx
	movl	-20(%rbp), %ecx
                                        # kill: def $cl killed $ecx
	shll	%cl, %edx
	movslq	-8(%rbp), %rcx
	shlq	$6, %rcx
	addq	%rcx, %rax
	movslq	-12(%rbp), %rcx
	shlq	$4, %rcx
	addq	%rcx, %rax
	movslq	-4(%rbp), %rcx
	movl	%edx, (%rax,%rcx,4)
	jmp	.LBB14_10
.LBB14_9:                               # %if.else
                                        #   in Loop: Header=BB14_6 Depth=3
	movabsq	$LevelOffset4x4Chroma_Intra, %rdx
	movq	%rdx, %rax
	addq	$832, %rax              # imm = 0x340
	movslq	-16(%rbp), %rcx
	movswl	OffsetList4x4input+96(,%rcx,2), %esi
	movl	-20(%rbp), %ecx
                                        # kill: def $cl killed $ecx
	shll	%cl, %esi
	movslq	-8(%rbp), %rcx
	shlq	$6, %rcx
	movabsq	$LevelOffset4x4Luma_Intra, %rdi
	addq	%rcx, %rdi
	movslq	-12(%rbp), %rcx
	shlq	$4, %rcx
	addq	%rcx, %rdi
	movslq	-4(%rbp), %rcx
	movl	%esi, (%rdi,%rcx,4)
	movslq	-16(%rbp), %rcx
	movswl	OffsetList4x4input+128(,%rcx,2), %esi
	movl	-20(%rbp), %ecx
                                        # kill: def $cl killed $ecx
	shll	%cl, %esi
	movslq	-8(%rbp), %rcx
	shlq	$6, %rcx
	addq	%rcx, %rdx
	movslq	-12(%rbp), %rcx
	shlq	$4, %rcx
	addq	%rcx, %rdx
	movslq	-4(%rbp), %rcx
	movl	%esi, (%rdx,%rcx,4)
	movslq	-16(%rbp), %rcx
	movswl	OffsetList4x4input+160(,%rcx,2), %edx
	movl	-20(%rbp), %ecx
                                        # kill: def $cl killed $ecx
	shll	%cl, %edx
	movslq	-8(%rbp), %rcx
	shlq	$6, %rcx
	addq	%rcx, %rax
	movslq	-12(%rbp), %rcx
	shlq	$4, %rcx
	addq	%rcx, %rax
	movslq	-4(%rbp), %rcx
	movl	%edx, (%rax,%rcx,4)
.LBB14_10:                              # %if.end
                                        #   in Loop: Header=BB14_6 Depth=3
	movabsq	$LevelOffset4x4Chroma_Inter, %rdx
	movq	%rdx, %rax
	addq	$832, %rax              # imm = 0x340
	movslq	-16(%rbp), %rcx
	movswl	OffsetList4x4input+192(,%rcx,2), %esi
	movl	-20(%rbp), %ecx
                                        # kill: def $cl killed $ecx
	shll	%cl, %esi
	movslq	-8(%rbp), %rcx
	shlq	$6, %rcx
	movabsq	$LevelOffset4x4Luma_Inter, %rdi
	addq	%rcx, %rdi
	movslq	-12(%rbp), %rcx
	shlq	$4, %rcx
	addq	%rcx, %rdi
	movslq	-4(%rbp), %rcx
	movl	%esi, (%rdi,%rcx,4)
	movslq	-16(%rbp), %rcx
	movswl	OffsetList4x4input+224(,%rcx,2), %esi
	movl	-20(%rbp), %ecx
                                        # kill: def $cl killed $ecx
	shll	%cl, %esi
	movslq	-8(%rbp), %rcx
	shlq	$6, %rcx
	addq	%rcx, %rdx
	movslq	-12(%rbp), %rcx
	shlq	$4, %rcx
	addq	%rcx, %rdx
	movslq	-4(%rbp), %rcx
	movl	%esi, (%rdx,%rcx,4)
	movslq	-16(%rbp), %rcx
	movswl	OffsetList4x4input+256(,%rcx,2), %edx
	movl	-20(%rbp), %ecx
                                        # kill: def $cl killed $ecx
	shll	%cl, %edx
	movslq	-8(%rbp), %rcx
	shlq	$6, %rcx
	addq	%rcx, %rax
	movslq	-12(%rbp), %rcx
	shlq	$4, %rcx
	addq	%rcx, %rax
	movslq	-4(%rbp), %rcx
	movl	%edx, (%rax,%rcx,4)
# %bb.11:                               # %for.inc
                                        #   in Loop: Header=BB14_6 Depth=3
	movl	-4(%rbp), %eax
	addl	$1, %eax
	movl	%eax, -4(%rbp)
	jmp	.LBB14_6
.LBB14_12:                              # %for.end
                                        #   in Loop: Header=BB14_4 Depth=2
	jmp	.LBB14_13
.LBB14_13:                              # %for.inc97
                                        #   in Loop: Header=BB14_4 Depth=2
	movl	-12(%rbp), %eax
	addl	$1, %eax
	movl	%eax, -12(%rbp)
	jmp	.LBB14_4
.LBB14_14:                              # %for.end99
                                        #   in Loop: Header=BB14_2 Depth=1
	jmp	.LBB14_15
.LBB14_15:                              # %for.inc100
                                        #   in Loop: Header=BB14_2 Depth=1
	movl	-8(%rbp), %eax
	addl	$1, %eax
	movl	%eax, -8(%rbp)
	jmp	.LBB14_2
.LBB14_16:                              # %for.end102
	jmp	.LBB14_33
.LBB14_17:                              # %if.else103
	movl	$0, -8(%rbp)
.LBB14_18:                              # %for.cond104
                                        # =>This Loop Header: Depth=1
                                        #     Child Loop BB14_20 Depth 2
                                        #       Child Loop BB14_22 Depth 3
	cmpl	$13, -8(%rbp)
	jge	.LBB14_32
# %bb.19:                               # %for.body107
                                        #   in Loop: Header=BB14_18 Depth=1
	movl	-8(%rbp), %eax
	addl	$15, %eax
	subl	$10, %eax
	movl	%eax, -20(%rbp)
	movl	$0, -12(%rbp)
.LBB14_20:                              # %for.cond110
                                        #   Parent Loop BB14_18 Depth=1
                                        # =>  This Loop Header: Depth=2
                                        #       Child Loop BB14_22 Depth 3
	cmpl	$4, -12(%rbp)
	jge	.LBB14_30
# %bb.21:                               # %for.body113
                                        #   in Loop: Header=BB14_20 Depth=2
	movl	$0, -4(%rbp)
.LBB14_22:                              # %for.cond114
                                        #   Parent Loop BB14_18 Depth=1
                                        #     Parent Loop BB14_20 Depth=2
                                        # =>    This Inner Loop Header: Depth=3
	cmpl	$4, -4(%rbp)
	jge	.LBB14_28
# %bb.23:                               # %for.body117
                                        #   in Loop: Header=BB14_22 Depth=3
	movl	-4(%rbp), %eax
	shll	$2, %eax
	addl	-12(%rbp), %eax
	movl	%eax, -16(%rbp)
	movq	img, %rax
	cmpl	$2, 24(%rax)
	jne	.LBB14_25
# %bb.24:                               # %if.then123
                                        #   in Loop: Header=BB14_22 Depth=3
	movabsq	$LevelOffset4x4Chroma_Intra, %rdx
	movq	%rdx, %rax
	addq	$832, %rax              # imm = 0x340
	movslq	-16(%rbp), %rcx
	movswl	Offset_intra_default_intra(,%rcx,2), %esi
	movl	-20(%rbp), %ecx
                                        # kill: def $cl killed $ecx
	shll	%cl, %esi
	movslq	-8(%rbp), %rcx
	shlq	$6, %rcx
	movabsq	$LevelOffset4x4Luma_Intra, %rdi
	addq	%rcx, %rdi
	movslq	-12(%rbp), %rcx
	shlq	$4, %rcx
	addq	%rcx, %rdi
	movslq	-4(%rbp), %rcx
	movl	%esi, (%rdi,%rcx,4)
	movslq	-16(%rbp), %rcx
	movswl	Offset_intra_default_intra(,%rcx,2), %esi
	movl	-20(%rbp), %ecx
                                        # kill: def $cl killed $ecx
	shll	%cl, %esi
	movslq	-8(%rbp), %rcx
	shlq	$6, %rcx
	addq	%rcx, %rdx
	movslq	-12(%rbp), %rcx
	shlq	$4, %rcx
	addq	%rcx, %rdx
	movslq	-4(%rbp), %rcx
	movl	%esi, (%rdx,%rcx,4)
	movslq	-16(%rbp), %rcx
	movswl	Offset_intra_default_intra(,%rcx,2), %edx
	movl	-20(%rbp), %ecx
                                        # kill: def $cl killed $ecx
	shll	%cl, %edx
	movslq	-8(%rbp), %rcx
	shlq	$6, %rcx
	addq	%rcx, %rax
	movslq	-12(%rbp), %rcx
	shlq	$4, %rcx
	addq	%rcx, %rax
	movslq	-4(%rbp), %rcx
	movl	%edx, (%rax,%rcx,4)
	jmp	.LBB14_26
.LBB14_25:                              # %if.else154
                                        #   in Loop: Header=BB14_22 Depth=3
	movabsq	$LevelOffset4x4Chroma_Intra, %rdx
	movq	%rdx, %rax
	addq	$832, %rax              # imm = 0x340
	movslq	-16(%rbp), %rcx
	movswl	Offset_intra_default_inter(,%rcx,2), %esi
	movl	-20(%rbp), %ecx
                                        # kill: def $cl killed $ecx
	shll	%cl, %esi
	movslq	-8(%rbp), %rcx
	shlq	$6, %rcx
	movabsq	$LevelOffset4x4Luma_Intra, %rdi
	addq	%rcx, %rdi
	movslq	-12(%rbp), %rcx
	shlq	$4, %rcx
	addq	%rcx, %rdi
	movslq	-4(%rbp), %rcx
	movl	%esi, (%rdi,%rcx,4)
	movslq	-16(%rbp), %rcx
	movswl	Offset_intra_default_inter(,%rcx,2), %esi
	movl	-20(%rbp), %ecx
                                        # kill: def $cl killed $ecx
	shll	%cl, %esi
	movslq	-8(%rbp), %rcx
	shlq	$6, %rcx
	addq	%rcx, %rdx
	movslq	-12(%rbp), %rcx
	shlq	$4, %rcx
	addq	%rcx, %rdx
	movslq	-4(%rbp), %rcx
	movl	%esi, (%rdx,%rcx,4)
	movslq	-16(%rbp), %rcx
	movswl	Offset_intra_default_inter(,%rcx,2), %edx
	movl	-20(%rbp), %ecx
                                        # kill: def $cl killed $ecx
	shll	%cl, %edx
	movslq	-8(%rbp), %rcx
	shlq	$6, %rcx
	addq	%rcx, %rax
	movslq	-12(%rbp), %rcx
	shlq	$4, %rcx
	addq	%rcx, %rax
	movslq	-4(%rbp), %rcx
	movl	%edx, (%rax,%rcx,4)
.LBB14_26:                              # %if.end185
                                        #   in Loop: Header=BB14_22 Depth=3
	movabsq	$LevelOffset4x4Chroma_Inter, %rdx
	movq	%rdx, %rax
	addq	$832, %rax              # imm = 0x340
	movslq	-16(%rbp), %rcx
	movswl	Offset_inter_default(,%rcx,2), %esi
	movl	-20(%rbp), %ecx
                                        # kill: def $cl killed $ecx
	shll	%cl, %esi
	movslq	-8(%rbp), %rcx
	shlq	$6, %rcx
	movabsq	$LevelOffset4x4Luma_Inter, %rdi
	addq	%rcx, %rdi
	movslq	-12(%rbp), %rcx
	shlq	$4, %rcx
	addq	%rcx, %rdi
	movslq	-4(%rbp), %rcx
	movl	%esi, (%rdi,%rcx,4)
	movslq	-16(%rbp), %rcx
	movswl	Offset_inter_default(,%rcx,2), %esi
	movl	-20(%rbp), %ecx
                                        # kill: def $cl killed $ecx
	shll	%cl, %esi
	movslq	-8(%rbp), %rcx
	shlq	$6, %rcx
	addq	%rcx, %rdx
	movslq	-12(%rbp), %rcx
	shlq	$4, %rcx
	addq	%rcx, %rdx
	movslq	-4(%rbp), %rcx
	movl	%esi, (%rdx,%rcx,4)
	movslq	-16(%rbp), %rcx
	movswl	Offset_inter_default(,%rcx,2), %edx
	movl	-20(%rbp), %ecx
                                        # kill: def $cl killed $ecx
	shll	%cl, %edx
	movslq	-8(%rbp), %rcx
	shlq	$6, %rcx
	addq	%rcx, %rax
	movslq	-12(%rbp), %rcx
	shlq	$4, %rcx
	addq	%rcx, %rax
	movslq	-4(%rbp), %rcx
	movl	%edx, (%rax,%rcx,4)
# %bb.27:                               # %for.inc216
                                        #   in Loop: Header=BB14_22 Depth=3
	movl	-4(%rbp), %eax
	addl	$1, %eax
	movl	%eax, -4(%rbp)
	jmp	.LBB14_22
.LBB14_28:                              # %for.end218
                                        #   in Loop: Header=BB14_20 Depth=2
	jmp	.LBB14_29
.LBB14_29:                              # %for.inc219
                                        #   in Loop: Header=BB14_20 Depth=2
	movl	-12(%rbp), %eax
	addl	$1, %eax
	movl	%eax, -12(%rbp)
	jmp	.LBB14_20
.LBB14_30:                              # %for.end221
                                        #   in Loop: Header=BB14_18 Depth=1
	jmp	.LBB14_31
.LBB14_31:                              # %for.inc222
                                        #   in Loop: Header=BB14_18 Depth=1
	movl	-8(%rbp), %eax
	addl	$1, %eax
	movl	%eax, -8(%rbp)
	jmp	.LBB14_18
.LBB14_32:                              # %for.end224
	jmp	.LBB14_33
.LBB14_33:                              # %if.end225
	cmpl	$1223475084, -24(%rbp)  # imm = 0x48ECBF8C
	jne	.LBB14_35
.LBB14_34:
	addq	$32, %rsp
	popq	%rbp
	.cfi_def_cfa %rsp, 8
	retq
.LBB14_35:                              # %func_exit
	.cfi_def_cfa %rbp, 16
	callq	detect_breach
	jmp	.LBB14_34
.Lfunc_end14:
	.size	CalculateOffsetParam.10, .Lfunc_end14-CalculateOffsetParam.10
	.cfi_endproc
                                        # -- End function
	.globl	CalculateOffsetParam.11 # -- Begin function CalculateOffsetParam.11
	.p2align	4, 0x90
	.type	CalculateOffsetParam.11,@function
CalculateOffsetParam.11:                # @CalculateOffsetParam.11
	.cfi_startproc
# %bb.0:                                # %entry
	pushq	%rbp
	.cfi_def_cfa_offset 16
	.cfi_offset %rbp, -16
	movq	%rsp, %rbp
	.cfi_def_cfa_register %rbp
	subq	$32, %rsp
	movl	$314698243, -24(%rbp)   # imm = 0x12C1EA03
	movq	input, %rax
	cmpl	$0, 3584(%rax)
	je	.LBB15_17
# %bb.1:                                # %if.then
	movl	$0, -8(%rbp)
.LBB15_2:                               # %for.cond
                                        # =>This Loop Header: Depth=1
                                        #     Child Loop BB15_4 Depth 2
                                        #       Child Loop BB15_6 Depth 3
	cmpl	$13, -8(%rbp)
	jge	.LBB15_16
# %bb.3:                                # %for.body
                                        #   in Loop: Header=BB15_2 Depth=1
	movl	-8(%rbp), %eax
	addl	$15, %eax
	subl	$10, %eax
	movl	%eax, -20(%rbp)
	movl	$0, -4(%rbp)
.LBB15_4:                               # %for.cond1
                                        #   Parent Loop BB15_2 Depth=1
                                        # =>  This Loop Header: Depth=2
                                        #       Child Loop BB15_6 Depth 3
	cmpl	$4, -4(%rbp)
	jge	.LBB15_14
# %bb.5:                                # %for.body3
                                        #   in Loop: Header=BB15_4 Depth=2
	movl	$0, -12(%rbp)
.LBB15_6:                               # %for.cond4
                                        #   Parent Loop BB15_2 Depth=1
                                        #     Parent Loop BB15_4 Depth=2
                                        # =>    This Inner Loop Header: Depth=3
	cmpl	$4, -12(%rbp)
	jge	.LBB15_12
# %bb.7:                                # %for.body6
                                        #   in Loop: Header=BB15_6 Depth=3
	movl	-12(%rbp), %eax
	shll	$2, %eax
	addl	-4(%rbp), %eax
	movl	%eax, -16(%rbp)
	movq	img, %rax
	cmpl	$2, 24(%rax)
	jne	.LBB15_9
# %bb.8:                                # %if.then9
                                        #   in Loop: Header=BB15_6 Depth=3
	movabsq	$LevelOffset4x4Chroma_Intra, %rdx
	movq	%rdx, %rax
	addq	$832, %rax              # imm = 0x340
	movslq	-16(%rbp), %rcx
	movswl	OffsetList4x4input(,%rcx,2), %esi
	movl	-20(%rbp), %ecx
                                        # kill: def $cl killed $ecx
	shll	%cl, %esi
	movslq	-8(%rbp), %rcx
	shlq	$6, %rcx
	movabsq	$LevelOffset4x4Luma_Intra, %rdi
	addq	%rcx, %rdi
	movslq	-4(%rbp), %rcx
	shlq	$4, %rcx
	addq	%rcx, %rdi
	movslq	-12(%rbp), %rcx
	movl	%esi, (%rdi,%rcx,4)
	movslq	-16(%rbp), %rcx
	movswl	OffsetList4x4input+32(,%rcx,2), %esi
	movl	-20(%rbp), %ecx
                                        # kill: def $cl killed $ecx
	shll	%cl, %esi
	movslq	-8(%rbp), %rcx
	shlq	$6, %rcx
	addq	%rcx, %rdx
	movslq	-4(%rbp), %rcx
	shlq	$4, %rcx
	addq	%rcx, %rdx
	movslq	-12(%rbp), %rcx
	movl	%esi, (%rdx,%rcx,4)
	movslq	-16(%rbp), %rcx
	movswl	OffsetList4x4input+64(,%rcx,2), %edx
	movl	-20(%rbp), %ecx
                                        # kill: def $cl killed $ecx
	shll	%cl, %edx
	movslq	-8(%rbp), %rcx
	shlq	$6, %rcx
	addq	%rcx, %rax
	movslq	-4(%rbp), %rcx
	shlq	$4, %rcx
	addq	%rcx, %rax
	movslq	-12(%rbp), %rcx
	movl	%edx, (%rax,%rcx,4)
	jmp	.LBB15_10
.LBB15_9:                               # %if.else
                                        #   in Loop: Header=BB15_6 Depth=3
	movabsq	$LevelOffset4x4Chroma_Intra, %rdx
	movq	%rdx, %rax
	addq	$832, %rax              # imm = 0x340
	movslq	-16(%rbp), %rcx
	movswl	OffsetList4x4input+96(,%rcx,2), %esi
	movl	-20(%rbp), %ecx
                                        # kill: def $cl killed $ecx
	shll	%cl, %esi
	movslq	-8(%rbp), %rcx
	shlq	$6, %rcx
	movabsq	$LevelOffset4x4Luma_Intra, %rdi
	addq	%rcx, %rdi
	movslq	-4(%rbp), %rcx
	shlq	$4, %rcx
	addq	%rcx, %rdi
	movslq	-12(%rbp), %rcx
	movl	%esi, (%rdi,%rcx,4)
	movslq	-16(%rbp), %rcx
	movswl	OffsetList4x4input+128(,%rcx,2), %esi
	movl	-20(%rbp), %ecx
                                        # kill: def $cl killed $ecx
	shll	%cl, %esi
	movslq	-8(%rbp), %rcx
	shlq	$6, %rcx
	addq	%rcx, %rdx
	movslq	-4(%rbp), %rcx
	shlq	$4, %rcx
	addq	%rcx, %rdx
	movslq	-12(%rbp), %rcx
	movl	%esi, (%rdx,%rcx,4)
	movslq	-16(%rbp), %rcx
	movswl	OffsetList4x4input+160(,%rcx,2), %edx
	movl	-20(%rbp), %ecx
                                        # kill: def $cl killed $ecx
	shll	%cl, %edx
	movslq	-8(%rbp), %rcx
	shlq	$6, %rcx
	addq	%rcx, %rax
	movslq	-4(%rbp), %rcx
	shlq	$4, %rcx
	addq	%rcx, %rax
	movslq	-12(%rbp), %rcx
	movl	%edx, (%rax,%rcx,4)
.LBB15_10:                              # %if.end
                                        #   in Loop: Header=BB15_6 Depth=3
	movabsq	$LevelOffset4x4Chroma_Inter, %rdx
	movq	%rdx, %rax
	addq	$832, %rax              # imm = 0x340
	movslq	-16(%rbp), %rcx
	movswl	OffsetList4x4input+192(,%rcx,2), %esi
	movl	-20(%rbp), %ecx
                                        # kill: def $cl killed $ecx
	shll	%cl, %esi
	movslq	-8(%rbp), %rcx
	shlq	$6, %rcx
	movabsq	$LevelOffset4x4Luma_Inter, %rdi
	addq	%rcx, %rdi
	movslq	-4(%rbp), %rcx
	shlq	$4, %rcx
	addq	%rcx, %rdi
	movslq	-12(%rbp), %rcx
	movl	%esi, (%rdi,%rcx,4)
	movslq	-16(%rbp), %rcx
	movswl	OffsetList4x4input+224(,%rcx,2), %esi
	movl	-20(%rbp), %ecx
                                        # kill: def $cl killed $ecx
	shll	%cl, %esi
	movslq	-8(%rbp), %rcx
	shlq	$6, %rcx
	addq	%rcx, %rdx
	movslq	-4(%rbp), %rcx
	shlq	$4, %rcx
	addq	%rcx, %rdx
	movslq	-12(%rbp), %rcx
	movl	%esi, (%rdx,%rcx,4)
	movslq	-16(%rbp), %rcx
	movswl	OffsetList4x4input+256(,%rcx,2), %edx
	movl	-20(%rbp), %ecx
                                        # kill: def $cl killed $ecx
	shll	%cl, %edx
	movslq	-8(%rbp), %rcx
	shlq	$6, %rcx
	addq	%rcx, %rax
	movslq	-4(%rbp), %rcx
	shlq	$4, %rcx
	addq	%rcx, %rax
	movslq	-12(%rbp), %rcx
	movl	%edx, (%rax,%rcx,4)
# %bb.11:                               # %for.inc
                                        #   in Loop: Header=BB15_6 Depth=3
	movl	-12(%rbp), %eax
	addl	$1, %eax
	movl	%eax, -12(%rbp)
	jmp	.LBB15_6
.LBB15_12:                              # %for.end
                                        #   in Loop: Header=BB15_4 Depth=2
	jmp	.LBB15_13
.LBB15_13:                              # %for.inc97
                                        #   in Loop: Header=BB15_4 Depth=2
	movl	-4(%rbp), %eax
	addl	$1, %eax
	movl	%eax, -4(%rbp)
	jmp	.LBB15_4
.LBB15_14:                              # %for.end99
                                        #   in Loop: Header=BB15_2 Depth=1
	jmp	.LBB15_15
.LBB15_15:                              # %for.inc100
                                        #   in Loop: Header=BB15_2 Depth=1
	movl	-8(%rbp), %eax
	addl	$1, %eax
	movl	%eax, -8(%rbp)
	jmp	.LBB15_2
.LBB15_16:                              # %for.end102
	jmp	.LBB15_33
.LBB15_17:                              # %if.else103
	movl	$0, -8(%rbp)
.LBB15_18:                              # %for.cond104
                                        # =>This Loop Header: Depth=1
                                        #     Child Loop BB15_20 Depth 2
                                        #       Child Loop BB15_22 Depth 3
	cmpl	$13, -8(%rbp)
	jge	.LBB15_32
# %bb.19:                               # %for.body107
                                        #   in Loop: Header=BB15_18 Depth=1
	movl	-8(%rbp), %eax
	addl	$15, %eax
	subl	$10, %eax
	movl	%eax, -20(%rbp)
	movl	$0, -4(%rbp)
.LBB15_20:                              # %for.cond110
                                        #   Parent Loop BB15_18 Depth=1
                                        # =>  This Loop Header: Depth=2
                                        #       Child Loop BB15_22 Depth 3
	cmpl	$4, -4(%rbp)
	jge	.LBB15_30
# %bb.21:                               # %for.body113
                                        #   in Loop: Header=BB15_20 Depth=2
	movl	$0, -12(%rbp)
.LBB15_22:                              # %for.cond114
                                        #   Parent Loop BB15_18 Depth=1
                                        #     Parent Loop BB15_20 Depth=2
                                        # =>    This Inner Loop Header: Depth=3
	cmpl	$4, -12(%rbp)
	jge	.LBB15_28
# %bb.23:                               # %for.body117
                                        #   in Loop: Header=BB15_22 Depth=3
	movl	-12(%rbp), %eax
	shll	$2, %eax
	addl	-4(%rbp), %eax
	movl	%eax, -16(%rbp)
	movq	img, %rax
	cmpl	$2, 24(%rax)
	jne	.LBB15_25
# %bb.24:                               # %if.then123
                                        #   in Loop: Header=BB15_22 Depth=3
	movabsq	$LevelOffset4x4Chroma_Intra, %rdx
	movq	%rdx, %rax
	addq	$832, %rax              # imm = 0x340
	movslq	-16(%rbp), %rcx
	movswl	Offset_intra_default_intra(,%rcx,2), %esi
	movl	-20(%rbp), %ecx
                                        # kill: def $cl killed $ecx
	shll	%cl, %esi
	movslq	-8(%rbp), %rcx
	shlq	$6, %rcx
	movabsq	$LevelOffset4x4Luma_Intra, %rdi
	addq	%rcx, %rdi
	movslq	-4(%rbp), %rcx
	shlq	$4, %rcx
	addq	%rcx, %rdi
	movslq	-12(%rbp), %rcx
	movl	%esi, (%rdi,%rcx,4)
	movslq	-16(%rbp), %rcx
	movswl	Offset_intra_default_intra(,%rcx,2), %esi
	movl	-20(%rbp), %ecx
                                        # kill: def $cl killed $ecx
	shll	%cl, %esi
	movslq	-8(%rbp), %rcx
	shlq	$6, %rcx
	addq	%rcx, %rdx
	movslq	-4(%rbp), %rcx
	shlq	$4, %rcx
	addq	%rcx, %rdx
	movslq	-12(%rbp), %rcx
	movl	%esi, (%rdx,%rcx,4)
	movslq	-16(%rbp), %rcx
	movswl	Offset_intra_default_intra(,%rcx,2), %edx
	movl	-20(%rbp), %ecx
                                        # kill: def $cl killed $ecx
	shll	%cl, %edx
	movslq	-8(%rbp), %rcx
	shlq	$6, %rcx
	addq	%rcx, %rax
	movslq	-4(%rbp), %rcx
	shlq	$4, %rcx
	addq	%rcx, %rax
	movslq	-12(%rbp), %rcx
	movl	%edx, (%rax,%rcx,4)
	jmp	.LBB15_26
.LBB15_25:                              # %if.else154
                                        #   in Loop: Header=BB15_22 Depth=3
	movabsq	$LevelOffset4x4Chroma_Intra, %rdx
	movq	%rdx, %rax
	addq	$832, %rax              # imm = 0x340
	movslq	-16(%rbp), %rcx
	movswl	Offset_intra_default_inter(,%rcx,2), %esi
	movl	-20(%rbp), %ecx
                                        # kill: def $cl killed $ecx
	shll	%cl, %esi
	movslq	-8(%rbp), %rcx
	shlq	$6, %rcx
	movabsq	$LevelOffset4x4Luma_Intra, %rdi
	addq	%rcx, %rdi
	movslq	-4(%rbp), %rcx
	shlq	$4, %rcx
	addq	%rcx, %rdi
	movslq	-12(%rbp), %rcx
	movl	%esi, (%rdi,%rcx,4)
	movslq	-16(%rbp), %rcx
	movswl	Offset_intra_default_inter(,%rcx,2), %esi
	movl	-20(%rbp), %ecx
                                        # kill: def $cl killed $ecx
	shll	%cl, %esi
	movslq	-8(%rbp), %rcx
	shlq	$6, %rcx
	addq	%rcx, %rdx
	movslq	-4(%rbp), %rcx
	shlq	$4, %rcx
	addq	%rcx, %rdx
	movslq	-12(%rbp), %rcx
	movl	%esi, (%rdx,%rcx,4)
	movslq	-16(%rbp), %rcx
	movswl	Offset_intra_default_inter(,%rcx,2), %edx
	movl	-20(%rbp), %ecx
                                        # kill: def $cl killed $ecx
	shll	%cl, %edx
	movslq	-8(%rbp), %rcx
	shlq	$6, %rcx
	addq	%rcx, %rax
	movslq	-4(%rbp), %rcx
	shlq	$4, %rcx
	addq	%rcx, %rax
	movslq	-12(%rbp), %rcx
	movl	%edx, (%rax,%rcx,4)
.LBB15_26:                              # %if.end185
                                        #   in Loop: Header=BB15_22 Depth=3
	movabsq	$LevelOffset4x4Chroma_Inter, %rdx
	movq	%rdx, %rax
	addq	$832, %rax              # imm = 0x340
	movslq	-16(%rbp), %rcx
	movswl	Offset_inter_default(,%rcx,2), %esi
	movl	-20(%rbp), %ecx
                                        # kill: def $cl killed $ecx
	shll	%cl, %esi
	movslq	-8(%rbp), %rcx
	shlq	$6, %rcx
	movabsq	$LevelOffset4x4Luma_Inter, %rdi
	addq	%rcx, %rdi
	movslq	-4(%rbp), %rcx
	shlq	$4, %rcx
	addq	%rcx, %rdi
	movslq	-12(%rbp), %rcx
	movl	%esi, (%rdi,%rcx,4)
	movslq	-16(%rbp), %rcx
	movswl	Offset_inter_default(,%rcx,2), %esi
	movl	-20(%rbp), %ecx
                                        # kill: def $cl killed $ecx
	shll	%cl, %esi
	movslq	-8(%rbp), %rcx
	shlq	$6, %rcx
	addq	%rcx, %rdx
	movslq	-4(%rbp), %rcx
	shlq	$4, %rcx
	addq	%rcx, %rdx
	movslq	-12(%rbp), %rcx
	movl	%esi, (%rdx,%rcx,4)
	movslq	-16(%rbp), %rcx
	movswl	Offset_inter_default(,%rcx,2), %edx
	movl	-20(%rbp), %ecx
                                        # kill: def $cl killed $ecx
	shll	%cl, %edx
	movslq	-8(%rbp), %rcx
	shlq	$6, %rcx
	addq	%rcx, %rax
	movslq	-4(%rbp), %rcx
	shlq	$4, %rcx
	addq	%rcx, %rax
	movslq	-12(%rbp), %rcx
	movl	%edx, (%rax,%rcx,4)
# %bb.27:                               # %for.inc216
                                        #   in Loop: Header=BB15_22 Depth=3
	movl	-12(%rbp), %eax
	addl	$1, %eax
	movl	%eax, -12(%rbp)
	jmp	.LBB15_22
.LBB15_28:                              # %for.end218
                                        #   in Loop: Header=BB15_20 Depth=2
	jmp	.LBB15_29
.LBB15_29:                              # %for.inc219
                                        #   in Loop: Header=BB15_20 Depth=2
	movl	-4(%rbp), %eax
	addl	$1, %eax
	movl	%eax, -4(%rbp)
	jmp	.LBB15_20
.LBB15_30:                              # %for.end221
                                        #   in Loop: Header=BB15_18 Depth=1
	jmp	.LBB15_31
.LBB15_31:                              # %for.inc222
                                        #   in Loop: Header=BB15_18 Depth=1
	movl	-8(%rbp), %eax
	addl	$1, %eax
	movl	%eax, -8(%rbp)
	jmp	.LBB15_18
.LBB15_32:                              # %for.end224
	jmp	.LBB15_33
.LBB15_33:                              # %if.end225
	cmpl	$314698243, -24(%rbp)   # imm = 0x12C1EA03
	jne	.LBB15_35
.LBB15_34:
	addq	$32, %rsp
	popq	%rbp
	.cfi_def_cfa %rsp, 8
	retq
.LBB15_35:                              # %func_exit
	.cfi_def_cfa %rbp, 16
	callq	detect_breach
	jmp	.LBB15_34
.Lfunc_end15:
	.size	CalculateOffsetParam.11, .Lfunc_end15-CalculateOffsetParam.11
	.cfi_endproc
                                        # -- End function
	.globl	CheckOffsetParameterName.12 # -- Begin function CheckOffsetParameterName.12
	.p2align	4, 0x90
	.type	CheckOffsetParameterName.12,@function
CheckOffsetParameterName.12:            # @CheckOffsetParameterName.12
	.cfi_startproc
# %bb.0:                                # %entry
	pushq	%rbp
	.cfi_def_cfa_offset 16
	.cfi_offset %rbp, -16
	movq	%rsp, %rbp
	.cfi_def_cfa_register %rbp
	pushq	%rbx
	subq	$40, %rsp
	.cfi_offset %rbx, -24
	movl	$1425686038, -20(%rbp)  # imm = 0x54FA3E16
	movq	%rdi, -32(%rbp)
	movq	%rsi, -40(%rbp)
	movl	$0, -12(%rbp)
	movq	-40(%rbp), %rax
	movl	$0, (%rax)
.LBB16_1:                               # %while.cond
                                        # =>This Inner Loop Header: Depth=1
	xorl	%eax, %eax
	movslq	-12(%rbp), %rcx
	imulq	$24, %rcx, %rcx
	movabsq	$OffsetType4x4, %rdx
	addq	%rcx, %rdx
	cmpq	$0, %rdx
	je	.LBB16_3
# %bb.2:                                # %land.rhs
                                        #   in Loop: Header=BB16_1 Depth=1
	cmpl	$9, -12(%rbp)
	setl	%al
.LBB16_3:                               # %land.end
                                        #   in Loop: Header=BB16_1 Depth=1
	testb	$1, %al
	jne	.LBB16_4
	jmp	.LBB16_8
.LBB16_4:                               # %while.body
                                        #   in Loop: Header=BB16_1 Depth=1
	xorl	%ebx, %ebx
	movslq	-12(%rbp), %rax
	imulq	$24, %rax, %rax
	movabsq	$OffsetType4x4, %rdi
	addq	%rax, %rdi
	movq	-32(%rbp), %rsi
	callq	strcmp
	cmpl	%eax, %ebx
	jne	.LBB16_6
# %bb.5:                                # %if.then
	movl	-12(%rbp), %eax
	movl	%eax, -16(%rbp)
	jmp	.LBB16_17
.LBB16_6:                               # %if.else
                                        #   in Loop: Header=BB16_1 Depth=1
	movl	-12(%rbp), %eax
	addl	$1, %eax
	movl	%eax, -12(%rbp)
# %bb.7:                                # %if.end
                                        #   in Loop: Header=BB16_1 Depth=1
	jmp	.LBB16_1
.LBB16_8:                               # %while.end
	movl	$0, -12(%rbp)
	movq	-40(%rbp), %rax
	movl	$1, (%rax)
.LBB16_9:                               # %while.cond6
                                        # =>This Inner Loop Header: Depth=1
	xorl	%eax, %eax
	movslq	-12(%rbp), %rcx
	imulq	$24, %rcx, %rcx
	movabsq	$OffsetType8x8, %rdx
	addq	%rcx, %rdx
	cmpq	$0, %rdx
	je	.LBB16_11
# %bb.10:                               # %land.rhs11
                                        #   in Loop: Header=BB16_9 Depth=1
	cmpl	$3, -12(%rbp)
	setl	%al
.LBB16_11:                              # %land.end13
                                        #   in Loop: Header=BB16_9 Depth=1
	testb	$1, %al
	jne	.LBB16_12
	jmp	.LBB16_16
.LBB16_12:                              # %while.body14
                                        #   in Loop: Header=BB16_9 Depth=1
	xorl	%ebx, %ebx
	movslq	-12(%rbp), %rax
	imulq	$24, %rax, %rax
	movabsq	$OffsetType8x8, %rdi
	addq	%rax, %rdi
	movq	-32(%rbp), %rsi
	callq	strcmp
	cmpl	%eax, %ebx
	jne	.LBB16_14
# %bb.13:                               # %if.then20
	movl	-12(%rbp), %eax
	movl	%eax, -16(%rbp)
	jmp	.LBB16_17
.LBB16_14:                              # %if.else21
                                        #   in Loop: Header=BB16_9 Depth=1
	movl	-12(%rbp), %eax
	addl	$1, %eax
	movl	%eax, -12(%rbp)
# %bb.15:                               # %if.end23
                                        #   in Loop: Header=BB16_9 Depth=1
	jmp	.LBB16_9
.LBB16_16:                              # %while.end24
	movl	$-1, -16(%rbp)
.LBB16_17:                              # %return
	movl	-16(%rbp), %ebx
	cmpl	$1425686038, -20(%rbp)  # imm = 0x54FA3E16
	jne	.LBB16_19
.LBB16_18:
	movl	%ebx, %eax
	addq	$40, %rsp
	popq	%rbx
	popq	%rbp
	.cfi_def_cfa %rsp, 8
	retq
.LBB16_19:                              # %func_exit
	.cfi_def_cfa %rbp, 16
	callq	detect_breach
	jmp	.LBB16_18
.Lfunc_end16:
	.size	CheckOffsetParameterName.12, .Lfunc_end16-CheckOffsetParameterName.12
	.cfi_endproc
                                        # -- End function
	.globl	CalculateOffsetParam.13 # -- Begin function CalculateOffsetParam.13
	.p2align	4, 0x90
	.type	CalculateOffsetParam.13,@function
CalculateOffsetParam.13:                # @CalculateOffsetParam.13
	.cfi_startproc
# %bb.0:                                # %entry
	pushq	%rbp
	.cfi_def_cfa_offset 16
	.cfi_offset %rbp, -16
	movq	%rsp, %rbp
	.cfi_def_cfa_register %rbp
	subq	$32, %rsp
	movl	$1344096480, -24(%rbp)  # imm = 0x501D48E0
	movq	input, %rax
	cmpl	$0, 3584(%rax)
	je	.LBB17_17
# %bb.1:                                # %if.then
	movl	$0, -12(%rbp)
.LBB17_2:                               # %for.cond
                                        # =>This Loop Header: Depth=1
                                        #     Child Loop BB17_4 Depth 2
                                        #       Child Loop BB17_6 Depth 3
	cmpl	$13, -12(%rbp)
	jge	.LBB17_16
# %bb.3:                                # %for.body
                                        #   in Loop: Header=BB17_2 Depth=1
	movl	-12(%rbp), %eax
	addl	$15, %eax
	subl	$10, %eax
	movl	%eax, -16(%rbp)
	movl	$0, -8(%rbp)
.LBB17_4:                               # %for.cond1
                                        #   Parent Loop BB17_2 Depth=1
                                        # =>  This Loop Header: Depth=2
                                        #       Child Loop BB17_6 Depth 3
	cmpl	$4, -8(%rbp)
	jge	.LBB17_14
# %bb.5:                                # %for.body3
                                        #   in Loop: Header=BB17_4 Depth=2
	movl	$0, -4(%rbp)
.LBB17_6:                               # %for.cond4
                                        #   Parent Loop BB17_2 Depth=1
                                        #     Parent Loop BB17_4 Depth=2
                                        # =>    This Inner Loop Header: Depth=3
	cmpl	$4, -4(%rbp)
	jge	.LBB17_12
# %bb.7:                                # %for.body6
                                        #   in Loop: Header=BB17_6 Depth=3
	movl	-4(%rbp), %eax
	shll	$2, %eax
	addl	-8(%rbp), %eax
	movl	%eax, -20(%rbp)
	movq	img, %rax
	cmpl	$2, 24(%rax)
	jne	.LBB17_9
# %bb.8:                                # %if.then9
                                        #   in Loop: Header=BB17_6 Depth=3
	movabsq	$LevelOffset4x4Chroma_Intra, %rdx
	movq	%rdx, %rax
	addq	$832, %rax              # imm = 0x340
	movslq	-20(%rbp), %rcx
	movswl	OffsetList4x4input(,%rcx,2), %esi
	movl	-16(%rbp), %ecx
                                        # kill: def $cl killed $ecx
	shll	%cl, %esi
	movslq	-12(%rbp), %rcx
	shlq	$6, %rcx
	movabsq	$LevelOffset4x4Luma_Intra, %rdi
	addq	%rcx, %rdi
	movslq	-8(%rbp), %rcx
	shlq	$4, %rcx
	addq	%rcx, %rdi
	movslq	-4(%rbp), %rcx
	movl	%esi, (%rdi,%rcx,4)
	movslq	-20(%rbp), %rcx
	movswl	OffsetList4x4input+32(,%rcx,2), %esi
	movl	-16(%rbp), %ecx
                                        # kill: def $cl killed $ecx
	shll	%cl, %esi
	movslq	-12(%rbp), %rcx
	shlq	$6, %rcx
	addq	%rcx, %rdx
	movslq	-8(%rbp), %rcx
	shlq	$4, %rcx
	addq	%rcx, %rdx
	movslq	-4(%rbp), %rcx
	movl	%esi, (%rdx,%rcx,4)
	movslq	-20(%rbp), %rcx
	movswl	OffsetList4x4input+64(,%rcx,2), %edx
	movl	-16(%rbp), %ecx
                                        # kill: def $cl killed $ecx
	shll	%cl, %edx
	movslq	-12(%rbp), %rcx
	shlq	$6, %rcx
	addq	%rcx, %rax
	movslq	-8(%rbp), %rcx
	shlq	$4, %rcx
	addq	%rcx, %rax
	movslq	-4(%rbp), %rcx
	movl	%edx, (%rax,%rcx,4)
	jmp	.LBB17_10
.LBB17_9:                               # %if.else
                                        #   in Loop: Header=BB17_6 Depth=3
	movabsq	$LevelOffset4x4Chroma_Intra, %rdx
	movq	%rdx, %rax
	addq	$832, %rax              # imm = 0x340
	movslq	-20(%rbp), %rcx
	movswl	OffsetList4x4input+96(,%rcx,2), %esi
	movl	-16(%rbp), %ecx
                                        # kill: def $cl killed $ecx
	shll	%cl, %esi
	movslq	-12(%rbp), %rcx
	shlq	$6, %rcx
	movabsq	$LevelOffset4x4Luma_Intra, %rdi
	addq	%rcx, %rdi
	movslq	-8(%rbp), %rcx
	shlq	$4, %rcx
	addq	%rcx, %rdi
	movslq	-4(%rbp), %rcx
	movl	%esi, (%rdi,%rcx,4)
	movslq	-20(%rbp), %rcx
	movswl	OffsetList4x4input+128(,%rcx,2), %esi
	movl	-16(%rbp), %ecx
                                        # kill: def $cl killed $ecx
	shll	%cl, %esi
	movslq	-12(%rbp), %rcx
	shlq	$6, %rcx
	addq	%rcx, %rdx
	movslq	-8(%rbp), %rcx
	shlq	$4, %rcx
	addq	%rcx, %rdx
	movslq	-4(%rbp), %rcx
	movl	%esi, (%rdx,%rcx,4)
	movslq	-20(%rbp), %rcx
	movswl	OffsetList4x4input+160(,%rcx,2), %edx
	movl	-16(%rbp), %ecx
                                        # kill: def $cl killed $ecx
	shll	%cl, %edx
	movslq	-12(%rbp), %rcx
	shlq	$6, %rcx
	addq	%rcx, %rax
	movslq	-8(%rbp), %rcx
	shlq	$4, %rcx
	addq	%rcx, %rax
	movslq	-4(%rbp), %rcx
	movl	%edx, (%rax,%rcx,4)
.LBB17_10:                              # %if.end
                                        #   in Loop: Header=BB17_6 Depth=3
	movabsq	$LevelOffset4x4Chroma_Inter, %rdx
	movq	%rdx, %rax
	addq	$832, %rax              # imm = 0x340
	movslq	-20(%rbp), %rcx
	movswl	OffsetList4x4input+192(,%rcx,2), %esi
	movl	-16(%rbp), %ecx
                                        # kill: def $cl killed $ecx
	shll	%cl, %esi
	movslq	-12(%rbp), %rcx
	shlq	$6, %rcx
	movabsq	$LevelOffset4x4Luma_Inter, %rdi
	addq	%rcx, %rdi
	movslq	-8(%rbp), %rcx
	shlq	$4, %rcx
	addq	%rcx, %rdi
	movslq	-4(%rbp), %rcx
	movl	%esi, (%rdi,%rcx,4)
	movslq	-20(%rbp), %rcx
	movswl	OffsetList4x4input+224(,%rcx,2), %esi
	movl	-16(%rbp), %ecx
                                        # kill: def $cl killed $ecx
	shll	%cl, %esi
	movslq	-12(%rbp), %rcx
	shlq	$6, %rcx
	addq	%rcx, %rdx
	movslq	-8(%rbp), %rcx
	shlq	$4, %rcx
	addq	%rcx, %rdx
	movslq	-4(%rbp), %rcx
	movl	%esi, (%rdx,%rcx,4)
	movslq	-20(%rbp), %rcx
	movswl	OffsetList4x4input+256(,%rcx,2), %edx
	movl	-16(%rbp), %ecx
                                        # kill: def $cl killed $ecx
	shll	%cl, %edx
	movslq	-12(%rbp), %rcx
	shlq	$6, %rcx
	addq	%rcx, %rax
	movslq	-8(%rbp), %rcx
	shlq	$4, %rcx
	addq	%rcx, %rax
	movslq	-4(%rbp), %rcx
	movl	%edx, (%rax,%rcx,4)
# %bb.11:                               # %for.inc
                                        #   in Loop: Header=BB17_6 Depth=3
	movl	-4(%rbp), %eax
	addl	$1, %eax
	movl	%eax, -4(%rbp)
	jmp	.LBB17_6
.LBB17_12:                              # %for.end
                                        #   in Loop: Header=BB17_4 Depth=2
	jmp	.LBB17_13
.LBB17_13:                              # %for.inc97
                                        #   in Loop: Header=BB17_4 Depth=2
	movl	-8(%rbp), %eax
	addl	$1, %eax
	movl	%eax, -8(%rbp)
	jmp	.LBB17_4
.LBB17_14:                              # %for.end99
                                        #   in Loop: Header=BB17_2 Depth=1
	jmp	.LBB17_15
.LBB17_15:                              # %for.inc100
                                        #   in Loop: Header=BB17_2 Depth=1
	movl	-12(%rbp), %eax
	addl	$1, %eax
	movl	%eax, -12(%rbp)
	jmp	.LBB17_2
.LBB17_16:                              # %for.end102
	jmp	.LBB17_33
.LBB17_17:                              # %if.else103
	movl	$0, -12(%rbp)
.LBB17_18:                              # %for.cond104
                                        # =>This Loop Header: Depth=1
                                        #     Child Loop BB17_20 Depth 2
                                        #       Child Loop BB17_22 Depth 3
	cmpl	$13, -12(%rbp)
	jge	.LBB17_32
# %bb.19:                               # %for.body107
                                        #   in Loop: Header=BB17_18 Depth=1
	movl	-12(%rbp), %eax
	addl	$15, %eax
	subl	$10, %eax
	movl	%eax, -16(%rbp)
	movl	$0, -8(%rbp)
.LBB17_20:                              # %for.cond110
                                        #   Parent Loop BB17_18 Depth=1
                                        # =>  This Loop Header: Depth=2
                                        #       Child Loop BB17_22 Depth 3
	cmpl	$4, -8(%rbp)
	jge	.LBB17_30
# %bb.21:                               # %for.body113
                                        #   in Loop: Header=BB17_20 Depth=2
	movl	$0, -4(%rbp)
.LBB17_22:                              # %for.cond114
                                        #   Parent Loop BB17_18 Depth=1
                                        #     Parent Loop BB17_20 Depth=2
                                        # =>    This Inner Loop Header: Depth=3
	cmpl	$4, -4(%rbp)
	jge	.LBB17_28
# %bb.23:                               # %for.body117
                                        #   in Loop: Header=BB17_22 Depth=3
	movl	-4(%rbp), %eax
	shll	$2, %eax
	addl	-8(%rbp), %eax
	movl	%eax, -20(%rbp)
	movq	img, %rax
	cmpl	$2, 24(%rax)
	jne	.LBB17_25
# %bb.24:                               # %if.then123
                                        #   in Loop: Header=BB17_22 Depth=3
	movabsq	$LevelOffset4x4Chroma_Intra, %rdx
	movq	%rdx, %rax
	addq	$832, %rax              # imm = 0x340
	movslq	-20(%rbp), %rcx
	movswl	Offset_intra_default_intra(,%rcx,2), %esi
	movl	-16(%rbp), %ecx
                                        # kill: def $cl killed $ecx
	shll	%cl, %esi
	movslq	-12(%rbp), %rcx
	shlq	$6, %rcx
	movabsq	$LevelOffset4x4Luma_Intra, %rdi
	addq	%rcx, %rdi
	movslq	-8(%rbp), %rcx
	shlq	$4, %rcx
	addq	%rcx, %rdi
	movslq	-4(%rbp), %rcx
	movl	%esi, (%rdi,%rcx,4)
	movslq	-20(%rbp), %rcx
	movswl	Offset_intra_default_intra(,%rcx,2), %esi
	movl	-16(%rbp), %ecx
                                        # kill: def $cl killed $ecx
	shll	%cl, %esi
	movslq	-12(%rbp), %rcx
	shlq	$6, %rcx
	addq	%rcx, %rdx
	movslq	-8(%rbp), %rcx
	shlq	$4, %rcx
	addq	%rcx, %rdx
	movslq	-4(%rbp), %rcx
	movl	%esi, (%rdx,%rcx,4)
	movslq	-20(%rbp), %rcx
	movswl	Offset_intra_default_intra(,%rcx,2), %edx
	movl	-16(%rbp), %ecx
                                        # kill: def $cl killed $ecx
	shll	%cl, %edx
	movslq	-12(%rbp), %rcx
	shlq	$6, %rcx
	addq	%rcx, %rax
	movslq	-8(%rbp), %rcx
	shlq	$4, %rcx
	addq	%rcx, %rax
	movslq	-4(%rbp), %rcx
	movl	%edx, (%rax,%rcx,4)
	jmp	.LBB17_26
.LBB17_25:                              # %if.else154
                                        #   in Loop: Header=BB17_22 Depth=3
	movabsq	$LevelOffset4x4Chroma_Intra, %rdx
	movq	%rdx, %rax
	addq	$832, %rax              # imm = 0x340
	movslq	-20(%rbp), %rcx
	movswl	Offset_intra_default_inter(,%rcx,2), %esi
	movl	-16(%rbp), %ecx
                                        # kill: def $cl killed $ecx
	shll	%cl, %esi
	movslq	-12(%rbp), %rcx
	shlq	$6, %rcx
	movabsq	$LevelOffset4x4Luma_Intra, %rdi
	addq	%rcx, %rdi
	movslq	-8(%rbp), %rcx
	shlq	$4, %rcx
	addq	%rcx, %rdi
	movslq	-4(%rbp), %rcx
	movl	%esi, (%rdi,%rcx,4)
	movslq	-20(%rbp), %rcx
	movswl	Offset_intra_default_inter(,%rcx,2), %esi
	movl	-16(%rbp), %ecx
                                        # kill: def $cl killed $ecx
	shll	%cl, %esi
	movslq	-12(%rbp), %rcx
	shlq	$6, %rcx
	addq	%rcx, %rdx
	movslq	-8(%rbp), %rcx
	shlq	$4, %rcx
	addq	%rcx, %rdx
	movslq	-4(%rbp), %rcx
	movl	%esi, (%rdx,%rcx,4)
	movslq	-20(%rbp), %rcx
	movswl	Offset_intra_default_inter(,%rcx,2), %edx
	movl	-16(%rbp), %ecx
                                        # kill: def $cl killed $ecx
	shll	%cl, %edx
	movslq	-12(%rbp), %rcx
	shlq	$6, %rcx
	addq	%rcx, %rax
	movslq	-8(%rbp), %rcx
	shlq	$4, %rcx
	addq	%rcx, %rax
	movslq	-4(%rbp), %rcx
	movl	%edx, (%rax,%rcx,4)
.LBB17_26:                              # %if.end185
                                        #   in Loop: Header=BB17_22 Depth=3
	movabsq	$LevelOffset4x4Chroma_Inter, %rdx
	movq	%rdx, %rax
	addq	$832, %rax              # imm = 0x340
	movslq	-20(%rbp), %rcx
	movswl	Offset_inter_default(,%rcx,2), %esi
	movl	-16(%rbp), %ecx
                                        # kill: def $cl killed $ecx
	shll	%cl, %esi
	movslq	-12(%rbp), %rcx
	shlq	$6, %rcx
	movabsq	$LevelOffset4x4Luma_Inter, %rdi
	addq	%rcx, %rdi
	movslq	-8(%rbp), %rcx
	shlq	$4, %rcx
	addq	%rcx, %rdi
	movslq	-4(%rbp), %rcx
	movl	%esi, (%rdi,%rcx,4)
	movslq	-20(%rbp), %rcx
	movswl	Offset_inter_default(,%rcx,2), %esi
	movl	-16(%rbp), %ecx
                                        # kill: def $cl killed $ecx
	shll	%cl, %esi
	movslq	-12(%rbp), %rcx
	shlq	$6, %rcx
	addq	%rcx, %rdx
	movslq	-8(%rbp), %rcx
	shlq	$4, %rcx
	addq	%rcx, %rdx
	movslq	-4(%rbp), %rcx
	movl	%esi, (%rdx,%rcx,4)
	movslq	-20(%rbp), %rcx
	movswl	Offset_inter_default(,%rcx,2), %edx
	movl	-16(%rbp), %ecx
                                        # kill: def $cl killed $ecx
	shll	%cl, %edx
	movslq	-12(%rbp), %rcx
	shlq	$6, %rcx
	addq	%rcx, %rax
	movslq	-8(%rbp), %rcx
	shlq	$4, %rcx
	addq	%rcx, %rax
	movslq	-4(%rbp), %rcx
	movl	%edx, (%rax,%rcx,4)
# %bb.27:                               # %for.inc216
                                        #   in Loop: Header=BB17_22 Depth=3
	movl	-4(%rbp), %eax
	addl	$1, %eax
	movl	%eax, -4(%rbp)
	jmp	.LBB17_22
.LBB17_28:                              # %for.end218
                                        #   in Loop: Header=BB17_20 Depth=2
	jmp	.LBB17_29
.LBB17_29:                              # %for.inc219
                                        #   in Loop: Header=BB17_20 Depth=2
	movl	-8(%rbp), %eax
	addl	$1, %eax
	movl	%eax, -8(%rbp)
	jmp	.LBB17_20
.LBB17_30:                              # %for.end221
                                        #   in Loop: Header=BB17_18 Depth=1
	jmp	.LBB17_31
.LBB17_31:                              # %for.inc222
                                        #   in Loop: Header=BB17_18 Depth=1
	movl	-12(%rbp), %eax
	addl	$1, %eax
	movl	%eax, -12(%rbp)
	jmp	.LBB17_18
.LBB17_32:                              # %for.end224
	jmp	.LBB17_33
.LBB17_33:                              # %if.end225
	cmpl	$1344096480, -24(%rbp)  # imm = 0x501D48E0
	jne	.LBB17_35
.LBB17_34:
	addq	$32, %rsp
	popq	%rbp
	.cfi_def_cfa %rsp, 8
	retq
.LBB17_35:                              # %func_exit
	.cfi_def_cfa %rbp, 16
	callq	detect_breach
	jmp	.LBB17_34
.Lfunc_end17:
	.size	CalculateOffsetParam.13, .Lfunc_end17-CalculateOffsetParam.13
	.cfi_endproc
                                        # -- End function
	.globl	CheckOffsetParameterName.14 # -- Begin function CheckOffsetParameterName.14
	.p2align	4, 0x90
	.type	CheckOffsetParameterName.14,@function
CheckOffsetParameterName.14:            # @CheckOffsetParameterName.14
	.cfi_startproc
# %bb.0:                                # %entry
	pushq	%rbp
	.cfi_def_cfa_offset 16
	.cfi_offset %rbp, -16
	movq	%rsp, %rbp
	.cfi_def_cfa_register %rbp
	pushq	%rbx
	subq	$40, %rsp
	.cfi_offset %rbx, -24
	movl	$2067197113, -20(%rbp)  # imm = 0x7B36ECB9
	movq	%rdi, -32(%rbp)
	movq	%rsi, -40(%rbp)
	movl	$0, -12(%rbp)
	movq	-40(%rbp), %rax
	movl	$0, (%rax)
.LBB18_1:                               # %while.cond
                                        # =>This Inner Loop Header: Depth=1
	xorl	%eax, %eax
	movslq	-12(%rbp), %rcx
	imulq	$24, %rcx, %rcx
	movabsq	$OffsetType4x4, %rdx
	addq	%rcx, %rdx
	cmpq	$0, %rdx
	je	.LBB18_3
# %bb.2:                                # %land.rhs
                                        #   in Loop: Header=BB18_1 Depth=1
	cmpl	$9, -12(%rbp)
	setl	%al
.LBB18_3:                               # %land.end
                                        #   in Loop: Header=BB18_1 Depth=1
	testb	$1, %al
	jne	.LBB18_4
	jmp	.LBB18_8
.LBB18_4:                               # %while.body
                                        #   in Loop: Header=BB18_1 Depth=1
	xorl	%ebx, %ebx
	movslq	-12(%rbp), %rax
	imulq	$24, %rax, %rax
	movabsq	$OffsetType4x4, %rdi
	addq	%rax, %rdi
	movq	-32(%rbp), %rsi
	callq	strcmp
	cmpl	%eax, %ebx
	jne	.LBB18_6
# %bb.5:                                # %if.then
	movl	-12(%rbp), %eax
	movl	%eax, -16(%rbp)
	jmp	.LBB18_17
.LBB18_6:                               # %if.else
                                        #   in Loop: Header=BB18_1 Depth=1
	movl	-12(%rbp), %eax
	addl	$1, %eax
	movl	%eax, -12(%rbp)
# %bb.7:                                # %if.end
                                        #   in Loop: Header=BB18_1 Depth=1
	jmp	.LBB18_1
.LBB18_8:                               # %while.end
	movl	$0, -12(%rbp)
	movq	-40(%rbp), %rax
	movl	$1, (%rax)
.LBB18_9:                               # %while.cond6
                                        # =>This Inner Loop Header: Depth=1
	xorl	%eax, %eax
	movslq	-12(%rbp), %rcx
	imulq	$24, %rcx, %rcx
	movabsq	$OffsetType8x8, %rdx
	addq	%rcx, %rdx
	cmpq	$0, %rdx
	je	.LBB18_11
# %bb.10:                               # %land.rhs11
                                        #   in Loop: Header=BB18_9 Depth=1
	cmpl	$3, -12(%rbp)
	setl	%al
.LBB18_11:                              # %land.end13
                                        #   in Loop: Header=BB18_9 Depth=1
	testb	$1, %al
	jne	.LBB18_12
	jmp	.LBB18_16
.LBB18_12:                              # %while.body14
                                        #   in Loop: Header=BB18_9 Depth=1
	xorl	%ebx, %ebx
	movslq	-12(%rbp), %rax
	imulq	$24, %rax, %rax
	movabsq	$OffsetType8x8, %rdi
	addq	%rax, %rdi
	movq	-32(%rbp), %rsi
	callq	strcmp
	cmpl	%eax, %ebx
	jne	.LBB18_14
# %bb.13:                               # %if.then20
	movl	-12(%rbp), %eax
	movl	%eax, -16(%rbp)
	jmp	.LBB18_17
.LBB18_14:                              # %if.else21
                                        #   in Loop: Header=BB18_9 Depth=1
	movl	-12(%rbp), %eax
	addl	$1, %eax
	movl	%eax, -12(%rbp)
# %bb.15:                               # %if.end23
                                        #   in Loop: Header=BB18_9 Depth=1
	jmp	.LBB18_9
.LBB18_16:                              # %while.end24
	movl	$-1, -16(%rbp)
.LBB18_17:                              # %return
	movl	-16(%rbp), %ebx
	cmpl	$2067197113, -20(%rbp)  # imm = 0x7B36ECB9
	jne	.LBB18_19
.LBB18_18:
	movl	%ebx, %eax
	addq	$40, %rsp
	popq	%rbx
	popq	%rbp
	.cfi_def_cfa %rsp, 8
	retq
.LBB18_19:                              # %func_exit
	.cfi_def_cfa %rbp, 16
	callq	detect_breach
	jmp	.LBB18_18
.Lfunc_end18:
	.size	CheckOffsetParameterName.14, .Lfunc_end18-CheckOffsetParameterName.14
	.cfi_endproc
                                        # -- End function
	.globl	CalculateOffsetParam.15 # -- Begin function CalculateOffsetParam.15
	.p2align	4, 0x90
	.type	CalculateOffsetParam.15,@function
CalculateOffsetParam.15:                # @CalculateOffsetParam.15
	.cfi_startproc
# %bb.0:                                # %entry
	pushq	%rbp
	.cfi_def_cfa_offset 16
	.cfi_offset %rbp, -16
	movq	%rsp, %rbp
	.cfi_def_cfa_register %rbp
	subq	$32, %rsp
	movl	$1537426198, -24(%rbp)  # imm = 0x5BA34316
	movq	input, %rax
	cmpl	$0, 3584(%rax)
	je	.LBB19_17
# %bb.1:                                # %if.then
	movl	$0, -8(%rbp)
.LBB19_2:                               # %for.cond
                                        # =>This Loop Header: Depth=1
                                        #     Child Loop BB19_4 Depth 2
                                        #       Child Loop BB19_6 Depth 3
	cmpl	$13, -8(%rbp)
	jge	.LBB19_16
# %bb.3:                                # %for.body
                                        #   in Loop: Header=BB19_2 Depth=1
	movl	-8(%rbp), %eax
	addl	$15, %eax
	subl	$10, %eax
	movl	%eax, -20(%rbp)
	movl	$0, -4(%rbp)
.LBB19_4:                               # %for.cond1
                                        #   Parent Loop BB19_2 Depth=1
                                        # =>  This Loop Header: Depth=2
                                        #       Child Loop BB19_6 Depth 3
	cmpl	$4, -4(%rbp)
	jge	.LBB19_14
# %bb.5:                                # %for.body3
                                        #   in Loop: Header=BB19_4 Depth=2
	movl	$0, -12(%rbp)
.LBB19_6:                               # %for.cond4
                                        #   Parent Loop BB19_2 Depth=1
                                        #     Parent Loop BB19_4 Depth=2
                                        # =>    This Inner Loop Header: Depth=3
	cmpl	$4, -12(%rbp)
	jge	.LBB19_12
# %bb.7:                                # %for.body6
                                        #   in Loop: Header=BB19_6 Depth=3
	movl	-12(%rbp), %eax
	shll	$2, %eax
	addl	-4(%rbp), %eax
	movl	%eax, -16(%rbp)
	movq	img, %rax
	cmpl	$2, 24(%rax)
	jne	.LBB19_9
# %bb.8:                                # %if.then9
                                        #   in Loop: Header=BB19_6 Depth=3
	movabsq	$LevelOffset4x4Chroma_Intra, %rdx
	movq	%rdx, %rax
	addq	$832, %rax              # imm = 0x340
	movslq	-16(%rbp), %rcx
	movswl	OffsetList4x4input(,%rcx,2), %esi
	movl	-20(%rbp), %ecx
                                        # kill: def $cl killed $ecx
	shll	%cl, %esi
	movslq	-8(%rbp), %rcx
	shlq	$6, %rcx
	movabsq	$LevelOffset4x4Luma_Intra, %rdi
	addq	%rcx, %rdi
	movslq	-4(%rbp), %rcx
	shlq	$4, %rcx
	addq	%rcx, %rdi
	movslq	-12(%rbp), %rcx
	movl	%esi, (%rdi,%rcx,4)
	movslq	-16(%rbp), %rcx
	movswl	OffsetList4x4input+32(,%rcx,2), %esi
	movl	-20(%rbp), %ecx
                                        # kill: def $cl killed $ecx
	shll	%cl, %esi
	movslq	-8(%rbp), %rcx
	shlq	$6, %rcx
	addq	%rcx, %rdx
	movslq	-4(%rbp), %rcx
	shlq	$4, %rcx
	addq	%rcx, %rdx
	movslq	-12(%rbp), %rcx
	movl	%esi, (%rdx,%rcx,4)
	movslq	-16(%rbp), %rcx
	movswl	OffsetList4x4input+64(,%rcx,2), %edx
	movl	-20(%rbp), %ecx
                                        # kill: def $cl killed $ecx
	shll	%cl, %edx
	movslq	-8(%rbp), %rcx
	shlq	$6, %rcx
	addq	%rcx, %rax
	movslq	-4(%rbp), %rcx
	shlq	$4, %rcx
	addq	%rcx, %rax
	movslq	-12(%rbp), %rcx
	movl	%edx, (%rax,%rcx,4)
	jmp	.LBB19_10
.LBB19_9:                               # %if.else
                                        #   in Loop: Header=BB19_6 Depth=3
	movabsq	$LevelOffset4x4Chroma_Intra, %rdx
	movq	%rdx, %rax
	addq	$832, %rax              # imm = 0x340
	movslq	-16(%rbp), %rcx
	movswl	OffsetList4x4input+96(,%rcx,2), %esi
	movl	-20(%rbp), %ecx
                                        # kill: def $cl killed $ecx
	shll	%cl, %esi
	movslq	-8(%rbp), %rcx
	shlq	$6, %rcx
	movabsq	$LevelOffset4x4Luma_Intra, %rdi
	addq	%rcx, %rdi
	movslq	-4(%rbp), %rcx
	shlq	$4, %rcx
	addq	%rcx, %rdi
	movslq	-12(%rbp), %rcx
	movl	%esi, (%rdi,%rcx,4)
	movslq	-16(%rbp), %rcx
	movswl	OffsetList4x4input+128(,%rcx,2), %esi
	movl	-20(%rbp), %ecx
                                        # kill: def $cl killed $ecx
	shll	%cl, %esi
	movslq	-8(%rbp), %rcx
	shlq	$6, %rcx
	addq	%rcx, %rdx
	movslq	-4(%rbp), %rcx
	shlq	$4, %rcx
	addq	%rcx, %rdx
	movslq	-12(%rbp), %rcx
	movl	%esi, (%rdx,%rcx,4)
	movslq	-16(%rbp), %rcx
	movswl	OffsetList4x4input+160(,%rcx,2), %edx
	movl	-20(%rbp), %ecx
                                        # kill: def $cl killed $ecx
	shll	%cl, %edx
	movslq	-8(%rbp), %rcx
	shlq	$6, %rcx
	addq	%rcx, %rax
	movslq	-4(%rbp), %rcx
	shlq	$4, %rcx
	addq	%rcx, %rax
	movslq	-12(%rbp), %rcx
	movl	%edx, (%rax,%rcx,4)
.LBB19_10:                              # %if.end
                                        #   in Loop: Header=BB19_6 Depth=3
	movabsq	$LevelOffset4x4Chroma_Inter, %rdx
	movq	%rdx, %rax
	addq	$832, %rax              # imm = 0x340
	movslq	-16(%rbp), %rcx
	movswl	OffsetList4x4input+192(,%rcx,2), %esi
	movl	-20(%rbp), %ecx
                                        # kill: def $cl killed $ecx
	shll	%cl, %esi
	movslq	-8(%rbp), %rcx
	shlq	$6, %rcx
	movabsq	$LevelOffset4x4Luma_Inter, %rdi
	addq	%rcx, %rdi
	movslq	-4(%rbp), %rcx
	shlq	$4, %rcx
	addq	%rcx, %rdi
	movslq	-12(%rbp), %rcx
	movl	%esi, (%rdi,%rcx,4)
	movslq	-16(%rbp), %rcx
	movswl	OffsetList4x4input+224(,%rcx,2), %esi
	movl	-20(%rbp), %ecx
                                        # kill: def $cl killed $ecx
	shll	%cl, %esi
	movslq	-8(%rbp), %rcx
	shlq	$6, %rcx
	addq	%rcx, %rdx
	movslq	-4(%rbp), %rcx
	shlq	$4, %rcx
	addq	%rcx, %rdx
	movslq	-12(%rbp), %rcx
	movl	%esi, (%rdx,%rcx,4)
	movslq	-16(%rbp), %rcx
	movswl	OffsetList4x4input+256(,%rcx,2), %edx
	movl	-20(%rbp), %ecx
                                        # kill: def $cl killed $ecx
	shll	%cl, %edx
	movslq	-8(%rbp), %rcx
	shlq	$6, %rcx
	addq	%rcx, %rax
	movslq	-4(%rbp), %rcx
	shlq	$4, %rcx
	addq	%rcx, %rax
	movslq	-12(%rbp), %rcx
	movl	%edx, (%rax,%rcx,4)
# %bb.11:                               # %for.inc
                                        #   in Loop: Header=BB19_6 Depth=3
	movl	-12(%rbp), %eax
	addl	$1, %eax
	movl	%eax, -12(%rbp)
	jmp	.LBB19_6
.LBB19_12:                              # %for.end
                                        #   in Loop: Header=BB19_4 Depth=2
	jmp	.LBB19_13
.LBB19_13:                              # %for.inc97
                                        #   in Loop: Header=BB19_4 Depth=2
	movl	-4(%rbp), %eax
	addl	$1, %eax
	movl	%eax, -4(%rbp)
	jmp	.LBB19_4
.LBB19_14:                              # %for.end99
                                        #   in Loop: Header=BB19_2 Depth=1
	jmp	.LBB19_15
.LBB19_15:                              # %for.inc100
                                        #   in Loop: Header=BB19_2 Depth=1
	movl	-8(%rbp), %eax
	addl	$1, %eax
	movl	%eax, -8(%rbp)
	jmp	.LBB19_2
.LBB19_16:                              # %for.end102
	jmp	.LBB19_33
.LBB19_17:                              # %if.else103
	movl	$0, -8(%rbp)
.LBB19_18:                              # %for.cond104
                                        # =>This Loop Header: Depth=1
                                        #     Child Loop BB19_20 Depth 2
                                        #       Child Loop BB19_22 Depth 3
	cmpl	$13, -8(%rbp)
	jge	.LBB19_32
# %bb.19:                               # %for.body107
                                        #   in Loop: Header=BB19_18 Depth=1
	movl	-8(%rbp), %eax
	addl	$15, %eax
	subl	$10, %eax
	movl	%eax, -20(%rbp)
	movl	$0, -4(%rbp)
.LBB19_20:                              # %for.cond110
                                        #   Parent Loop BB19_18 Depth=1
                                        # =>  This Loop Header: Depth=2
                                        #       Child Loop BB19_22 Depth 3
	cmpl	$4, -4(%rbp)
	jge	.LBB19_30
# %bb.21:                               # %for.body113
                                        #   in Loop: Header=BB19_20 Depth=2
	movl	$0, -12(%rbp)
.LBB19_22:                              # %for.cond114
                                        #   Parent Loop BB19_18 Depth=1
                                        #     Parent Loop BB19_20 Depth=2
                                        # =>    This Inner Loop Header: Depth=3
	cmpl	$4, -12(%rbp)
	jge	.LBB19_28
# %bb.23:                               # %for.body117
                                        #   in Loop: Header=BB19_22 Depth=3
	movl	-12(%rbp), %eax
	shll	$2, %eax
	addl	-4(%rbp), %eax
	movl	%eax, -16(%rbp)
	movq	img, %rax
	cmpl	$2, 24(%rax)
	jne	.LBB19_25
# %bb.24:                               # %if.then123
                                        #   in Loop: Header=BB19_22 Depth=3
	movabsq	$LevelOffset4x4Chroma_Intra, %rdx
	movq	%rdx, %rax
	addq	$832, %rax              # imm = 0x340
	movslq	-16(%rbp), %rcx
	movswl	Offset_intra_default_intra(,%rcx,2), %esi
	movl	-20(%rbp), %ecx
                                        # kill: def $cl killed $ecx
	shll	%cl, %esi
	movslq	-8(%rbp), %rcx
	shlq	$6, %rcx
	movabsq	$LevelOffset4x4Luma_Intra, %rdi
	addq	%rcx, %rdi
	movslq	-4(%rbp), %rcx
	shlq	$4, %rcx
	addq	%rcx, %rdi
	movslq	-12(%rbp), %rcx
	movl	%esi, (%rdi,%rcx,4)
	movslq	-16(%rbp), %rcx
	movswl	Offset_intra_default_intra(,%rcx,2), %esi
	movl	-20(%rbp), %ecx
                                        # kill: def $cl killed $ecx
	shll	%cl, %esi
	movslq	-8(%rbp), %rcx
	shlq	$6, %rcx
	addq	%rcx, %rdx
	movslq	-4(%rbp), %rcx
	shlq	$4, %rcx
	addq	%rcx, %rdx
	movslq	-12(%rbp), %rcx
	movl	%esi, (%rdx,%rcx,4)
	movslq	-16(%rbp), %rcx
	movswl	Offset_intra_default_intra(,%rcx,2), %edx
	movl	-20(%rbp), %ecx
                                        # kill: def $cl killed $ecx
	shll	%cl, %edx
	movslq	-8(%rbp), %rcx
	shlq	$6, %rcx
	addq	%rcx, %rax
	movslq	-4(%rbp), %rcx
	shlq	$4, %rcx
	addq	%rcx, %rax
	movslq	-12(%rbp), %rcx
	movl	%edx, (%rax,%rcx,4)
	jmp	.LBB19_26
.LBB19_25:                              # %if.else154
                                        #   in Loop: Header=BB19_22 Depth=3
	movabsq	$LevelOffset4x4Chroma_Intra, %rdx
	movq	%rdx, %rax
	addq	$832, %rax              # imm = 0x340
	movslq	-16(%rbp), %rcx
	movswl	Offset_intra_default_inter(,%rcx,2), %esi
	movl	-20(%rbp), %ecx
                                        # kill: def $cl killed $ecx
	shll	%cl, %esi
	movslq	-8(%rbp), %rcx
	shlq	$6, %rcx
	movabsq	$LevelOffset4x4Luma_Intra, %rdi
	addq	%rcx, %rdi
	movslq	-4(%rbp), %rcx
	shlq	$4, %rcx
	addq	%rcx, %rdi
	movslq	-12(%rbp), %rcx
	movl	%esi, (%rdi,%rcx,4)
	movslq	-16(%rbp), %rcx
	movswl	Offset_intra_default_inter(,%rcx,2), %esi
	movl	-20(%rbp), %ecx
                                        # kill: def $cl killed $ecx
	shll	%cl, %esi
	movslq	-8(%rbp), %rcx
	shlq	$6, %rcx
	addq	%rcx, %rdx
	movslq	-4(%rbp), %rcx
	shlq	$4, %rcx
	addq	%rcx, %rdx
	movslq	-12(%rbp), %rcx
	movl	%esi, (%rdx,%rcx,4)
	movslq	-16(%rbp), %rcx
	movswl	Offset_intra_default_inter(,%rcx,2), %edx
	movl	-20(%rbp), %ecx
                                        # kill: def $cl killed $ecx
	shll	%cl, %edx
	movslq	-8(%rbp), %rcx
	shlq	$6, %rcx
	addq	%rcx, %rax
	movslq	-4(%rbp), %rcx
	shlq	$4, %rcx
	addq	%rcx, %rax
	movslq	-12(%rbp), %rcx
	movl	%edx, (%rax,%rcx,4)
.LBB19_26:                              # %if.end185
                                        #   in Loop: Header=BB19_22 Depth=3
	movabsq	$LevelOffset4x4Chroma_Inter, %rdx
	movq	%rdx, %rax
	addq	$832, %rax              # imm = 0x340
	movslq	-16(%rbp), %rcx
	movswl	Offset_inter_default(,%rcx,2), %esi
	movl	-20(%rbp), %ecx
                                        # kill: def $cl killed $ecx
	shll	%cl, %esi
	movslq	-8(%rbp), %rcx
	shlq	$6, %rcx
	movabsq	$LevelOffset4x4Luma_Inter, %rdi
	addq	%rcx, %rdi
	movslq	-4(%rbp), %rcx
	shlq	$4, %rcx
	addq	%rcx, %rdi
	movslq	-12(%rbp), %rcx
	movl	%esi, (%rdi,%rcx,4)
	movslq	-16(%rbp), %rcx
	movswl	Offset_inter_default(,%rcx,2), %esi
	movl	-20(%rbp), %ecx
                                        # kill: def $cl killed $ecx
	shll	%cl, %esi
	movslq	-8(%rbp), %rcx
	shlq	$6, %rcx
	addq	%rcx, %rdx
	movslq	-4(%rbp), %rcx
	shlq	$4, %rcx
	addq	%rcx, %rdx
	movslq	-12(%rbp), %rcx
	movl	%esi, (%rdx,%rcx,4)
	movslq	-16(%rbp), %rcx
	movswl	Offset_inter_default(,%rcx,2), %edx
	movl	-20(%rbp), %ecx
                                        # kill: def $cl killed $ecx
	shll	%cl, %edx
	movslq	-8(%rbp), %rcx
	shlq	$6, %rcx
	addq	%rcx, %rax
	movslq	-4(%rbp), %rcx
	shlq	$4, %rcx
	addq	%rcx, %rax
	movslq	-12(%rbp), %rcx
	movl	%edx, (%rax,%rcx,4)
# %bb.27:                               # %for.inc216
                                        #   in Loop: Header=BB19_22 Depth=3
	movl	-12(%rbp), %eax
	addl	$1, %eax
	movl	%eax, -12(%rbp)
	jmp	.LBB19_22
.LBB19_28:                              # %for.end218
                                        #   in Loop: Header=BB19_20 Depth=2
	jmp	.LBB19_29
.LBB19_29:                              # %for.inc219
                                        #   in Loop: Header=BB19_20 Depth=2
	movl	-4(%rbp), %eax
	addl	$1, %eax
	movl	%eax, -4(%rbp)
	jmp	.LBB19_20
.LBB19_30:                              # %for.end221
                                        #   in Loop: Header=BB19_18 Depth=1
	jmp	.LBB19_31
.LBB19_31:                              # %for.inc222
                                        #   in Loop: Header=BB19_18 Depth=1
	movl	-8(%rbp), %eax
	addl	$1, %eax
	movl	%eax, -8(%rbp)
	jmp	.LBB19_18
.LBB19_32:                              # %for.end224
	jmp	.LBB19_33
.LBB19_33:                              # %if.end225
	cmpl	$1537426198, -24(%rbp)  # imm = 0x5BA34316
	jne	.LBB19_35
.LBB19_34:
	addq	$32, %rsp
	popq	%rbp
	.cfi_def_cfa %rsp, 8
	retq
.LBB19_35:                              # %func_exit
	.cfi_def_cfa %rbp, 16
	callq	detect_breach
	jmp	.LBB19_34
.Lfunc_end19:
	.size	CalculateOffsetParam.15, .Lfunc_end19-CalculateOffsetParam.15
	.cfi_endproc
                                        # -- End function
	.globl	CheckOffsetParameterName.16 # -- Begin function CheckOffsetParameterName.16
	.p2align	4, 0x90
	.type	CheckOffsetParameterName.16,@function
CheckOffsetParameterName.16:            # @CheckOffsetParameterName.16
	.cfi_startproc
# %bb.0:                                # %entry
	pushq	%rbp
	.cfi_def_cfa_offset 16
	.cfi_offset %rbp, -16
	movq	%rsp, %rbp
	.cfi_def_cfa_register %rbp
	pushq	%rbx
	subq	$40, %rsp
	.cfi_offset %rbx, -24
	movl	$313398781, -20(%rbp)   # imm = 0x12AE15FD
	movq	%rdi, -32(%rbp)
	movq	%rsi, -40(%rbp)
	movl	$0, -12(%rbp)
	movq	-40(%rbp), %rax
	movl	$0, (%rax)
.LBB20_1:                               # %while.cond
                                        # =>This Inner Loop Header: Depth=1
	xorl	%eax, %eax
	movslq	-12(%rbp), %rcx
	imulq	$24, %rcx, %rcx
	movabsq	$OffsetType4x4, %rdx
	addq	%rcx, %rdx
	cmpq	$0, %rdx
	je	.LBB20_3
# %bb.2:                                # %land.rhs
                                        #   in Loop: Header=BB20_1 Depth=1
	cmpl	$9, -12(%rbp)
	setl	%al
.LBB20_3:                               # %land.end
                                        #   in Loop: Header=BB20_1 Depth=1
	testb	$1, %al
	jne	.LBB20_4
	jmp	.LBB20_8
.LBB20_4:                               # %while.body
                                        #   in Loop: Header=BB20_1 Depth=1
	xorl	%ebx, %ebx
	movslq	-12(%rbp), %rax
	imulq	$24, %rax, %rax
	movabsq	$OffsetType4x4, %rdi
	addq	%rax, %rdi
	movq	-32(%rbp), %rsi
	callq	strcmp
	cmpl	%eax, %ebx
	jne	.LBB20_6
# %bb.5:                                # %if.then
	movl	-12(%rbp), %eax
	movl	%eax, -16(%rbp)
	jmp	.LBB20_17
.LBB20_6:                               # %if.else
                                        #   in Loop: Header=BB20_1 Depth=1
	movl	-12(%rbp), %eax
	addl	$1, %eax
	movl	%eax, -12(%rbp)
# %bb.7:                                # %if.end
                                        #   in Loop: Header=BB20_1 Depth=1
	jmp	.LBB20_1
.LBB20_8:                               # %while.end
	movl	$0, -12(%rbp)
	movq	-40(%rbp), %rax
	movl	$1, (%rax)
.LBB20_9:                               # %while.cond6
                                        # =>This Inner Loop Header: Depth=1
	xorl	%eax, %eax
	movslq	-12(%rbp), %rcx
	imulq	$24, %rcx, %rcx
	movabsq	$OffsetType8x8, %rdx
	addq	%rcx, %rdx
	cmpq	$0, %rdx
	je	.LBB20_11
# %bb.10:                               # %land.rhs11
                                        #   in Loop: Header=BB20_9 Depth=1
	cmpl	$3, -12(%rbp)
	setl	%al
.LBB20_11:                              # %land.end13
                                        #   in Loop: Header=BB20_9 Depth=1
	testb	$1, %al
	jne	.LBB20_12
	jmp	.LBB20_16
.LBB20_12:                              # %while.body14
                                        #   in Loop: Header=BB20_9 Depth=1
	xorl	%ebx, %ebx
	movslq	-12(%rbp), %rax
	imulq	$24, %rax, %rax
	movabsq	$OffsetType8x8, %rdi
	addq	%rax, %rdi
	movq	-32(%rbp), %rsi
	callq	strcmp
	cmpl	%eax, %ebx
	jne	.LBB20_14
# %bb.13:                               # %if.then20
	movl	-12(%rbp), %eax
	movl	%eax, -16(%rbp)
	jmp	.LBB20_17
.LBB20_14:                              # %if.else21
                                        #   in Loop: Header=BB20_9 Depth=1
	movl	-12(%rbp), %eax
	addl	$1, %eax
	movl	%eax, -12(%rbp)
# %bb.15:                               # %if.end23
                                        #   in Loop: Header=BB20_9 Depth=1
	jmp	.LBB20_9
.LBB20_16:                              # %while.end24
	movl	$-1, -16(%rbp)
.LBB20_17:                              # %return
	movl	-16(%rbp), %ebx
	cmpl	$313398781, -20(%rbp)   # imm = 0x12AE15FD
	jne	.LBB20_19
.LBB20_18:
	movl	%ebx, %eax
	addq	$40, %rsp
	popq	%rbx
	popq	%rbp
	.cfi_def_cfa %rsp, 8
	retq
.LBB20_19:                              # %func_exit
	.cfi_def_cfa %rbp, 16
	callq	detect_breach
	jmp	.LBB20_18
.Lfunc_end20:
	.size	CheckOffsetParameterName.16, .Lfunc_end20-CheckOffsetParameterName.16
	.cfi_endproc
                                        # -- End function
	.globl	CheckOffsetParameterName.17 # -- Begin function CheckOffsetParameterName.17
	.p2align	4, 0x90
	.type	CheckOffsetParameterName.17,@function
CheckOffsetParameterName.17:            # @CheckOffsetParameterName.17
	.cfi_startproc
# %bb.0:                                # %entry
	pushq	%rbp
	.cfi_def_cfa_offset 16
	.cfi_offset %rbp, -16
	movq	%rsp, %rbp
	.cfi_def_cfa_register %rbp
	pushq	%rbx
	subq	$40, %rsp
	.cfi_offset %rbx, -24
	movl	$484065406, -20(%rbp)   # imm = 0x1CDA407E
	movq	%rdi, -40(%rbp)
	movq	%rsi, -32(%rbp)
	movl	$0, -12(%rbp)
	movq	-32(%rbp), %rax
	movl	$0, (%rax)
.LBB21_1:                               # %while.cond
                                        # =>This Inner Loop Header: Depth=1
	xorl	%eax, %eax
	movslq	-12(%rbp), %rcx
	imulq	$24, %rcx, %rcx
	movabsq	$OffsetType4x4, %rdx
	addq	%rcx, %rdx
	cmpq	$0, %rdx
	je	.LBB21_3
# %bb.2:                                # %land.rhs
                                        #   in Loop: Header=BB21_1 Depth=1
	cmpl	$9, -12(%rbp)
	setl	%al
.LBB21_3:                               # %land.end
                                        #   in Loop: Header=BB21_1 Depth=1
	testb	$1, %al
	jne	.LBB21_4
	jmp	.LBB21_8
.LBB21_4:                               # %while.body
                                        #   in Loop: Header=BB21_1 Depth=1
	xorl	%ebx, %ebx
	movslq	-12(%rbp), %rax
	imulq	$24, %rax, %rax
	movabsq	$OffsetType4x4, %rdi
	addq	%rax, %rdi
	movq	-40(%rbp), %rsi
	callq	strcmp
	cmpl	%eax, %ebx
	jne	.LBB21_6
# %bb.5:                                # %if.then
	movl	-12(%rbp), %eax
	movl	%eax, -16(%rbp)
	jmp	.LBB21_17
.LBB21_6:                               # %if.else
                                        #   in Loop: Header=BB21_1 Depth=1
	movl	-12(%rbp), %eax
	addl	$1, %eax
	movl	%eax, -12(%rbp)
# %bb.7:                                # %if.end
                                        #   in Loop: Header=BB21_1 Depth=1
	jmp	.LBB21_1
.LBB21_8:                               # %while.end
	movl	$0, -12(%rbp)
	movq	-32(%rbp), %rax
	movl	$1, (%rax)
.LBB21_9:                               # %while.cond6
                                        # =>This Inner Loop Header: Depth=1
	xorl	%eax, %eax
	movslq	-12(%rbp), %rcx
	imulq	$24, %rcx, %rcx
	movabsq	$OffsetType8x8, %rdx
	addq	%rcx, %rdx
	cmpq	$0, %rdx
	je	.LBB21_11
# %bb.10:                               # %land.rhs11
                                        #   in Loop: Header=BB21_9 Depth=1
	cmpl	$3, -12(%rbp)
	setl	%al
.LBB21_11:                              # %land.end13
                                        #   in Loop: Header=BB21_9 Depth=1
	testb	$1, %al
	jne	.LBB21_12
	jmp	.LBB21_16
.LBB21_12:                              # %while.body14
                                        #   in Loop: Header=BB21_9 Depth=1
	xorl	%ebx, %ebx
	movslq	-12(%rbp), %rax
	imulq	$24, %rax, %rax
	movabsq	$OffsetType8x8, %rdi
	addq	%rax, %rdi
	movq	-40(%rbp), %rsi
	callq	strcmp
	cmpl	%eax, %ebx
	jne	.LBB21_14
# %bb.13:                               # %if.then20
	movl	-12(%rbp), %eax
	movl	%eax, -16(%rbp)
	jmp	.LBB21_17
.LBB21_14:                              # %if.else21
                                        #   in Loop: Header=BB21_9 Depth=1
	movl	-12(%rbp), %eax
	addl	$1, %eax
	movl	%eax, -12(%rbp)
# %bb.15:                               # %if.end23
                                        #   in Loop: Header=BB21_9 Depth=1
	jmp	.LBB21_9
.LBB21_16:                              # %while.end24
	movl	$-1, -16(%rbp)
.LBB21_17:                              # %return
	movl	-16(%rbp), %ebx
	cmpl	$484065406, -20(%rbp)   # imm = 0x1CDA407E
	jne	.LBB21_19
.LBB21_18:
	movl	%ebx, %eax
	addq	$40, %rsp
	popq	%rbx
	popq	%rbp
	.cfi_def_cfa %rsp, 8
	retq
.LBB21_19:                              # %func_exit
	.cfi_def_cfa %rbp, 16
	callq	detect_breach
	jmp	.LBB21_18
.Lfunc_end21:
	.size	CheckOffsetParameterName.17, .Lfunc_end21-CheckOffsetParameterName.17
	.cfi_endproc
                                        # -- End function
	.globl	CalculateOffset8Param.18 # -- Begin function CalculateOffset8Param.18
	.p2align	4, 0x90
	.type	CalculateOffset8Param.18,@function
CalculateOffset8Param.18:               # @CalculateOffset8Param.18
	.cfi_startproc
# %bb.0:                                # %entry
	pushq	%rbp
	.cfi_def_cfa_offset 16
	.cfi_offset %rbp, -16
	movq	%rsp, %rbp
	.cfi_def_cfa_register %rbp
	subq	$32, %rsp
	movl	$1706484180, -24(%rbp)  # imm = 0x65B6E1D4
	movq	input, %rax
	cmpl	$0, 3584(%rax)
	je	.LBB22_17
# %bb.1:                                # %if.then
	movl	$0, -4(%rbp)
.LBB22_2:                               # %for.cond
                                        # =>This Loop Header: Depth=1
                                        #     Child Loop BB22_4 Depth 2
                                        #       Child Loop BB22_6 Depth 3
	cmpl	$13, -4(%rbp)
	jge	.LBB22_16
# %bb.3:                                # %for.body
                                        #   in Loop: Header=BB22_2 Depth=1
	movl	-4(%rbp), %eax
	addl	$16, %eax
	subl	$10, %eax
	movl	%eax, -16(%rbp)
	movl	$0, -8(%rbp)
.LBB22_4:                               # %for.cond1
                                        #   Parent Loop BB22_2 Depth=1
                                        # =>  This Loop Header: Depth=2
                                        #       Child Loop BB22_6 Depth 3
	cmpl	$8, -8(%rbp)
	jge	.LBB22_14
# %bb.5:                                # %for.body3
                                        #   in Loop: Header=BB22_4 Depth=2
	movl	$0, -12(%rbp)
.LBB22_6:                               # %for.cond4
                                        #   Parent Loop BB22_2 Depth=1
                                        #     Parent Loop BB22_4 Depth=2
                                        # =>    This Inner Loop Header: Depth=3
	cmpl	$8, -12(%rbp)
	jge	.LBB22_12
# %bb.7:                                # %for.body6
                                        #   in Loop: Header=BB22_6 Depth=3
	movl	-12(%rbp), %eax
	shll	$3, %eax
	addl	-8(%rbp), %eax
	movl	%eax, -20(%rbp)
	movq	img, %rax
	cmpl	$2, 24(%rax)
	jne	.LBB22_9
# %bb.8:                                # %if.then9
                                        #   in Loop: Header=BB22_6 Depth=3
	movslq	-20(%rbp), %rax
	movswl	OffsetList8x8input(,%rax,2), %eax
	movl	-16(%rbp), %ecx
                                        # kill: def $cl killed $ecx
	shll	%cl, %eax
	movslq	-4(%rbp), %rcx
	shlq	$8, %rcx
	movabsq	$LevelOffset8x8Luma_Intra, %rdx
	addq	%rcx, %rdx
	movslq	-8(%rbp), %rcx
	shlq	$5, %rcx
	addq	%rcx, %rdx
	movslq	-12(%rbp), %rcx
	movl	%eax, (%rdx,%rcx,4)
	jmp	.LBB22_10
.LBB22_9:                               # %if.else
                                        #   in Loop: Header=BB22_6 Depth=3
	movslq	-20(%rbp), %rax
	movswl	OffsetList8x8input+128(,%rax,2), %eax
	movl	-16(%rbp), %ecx
                                        # kill: def $cl killed $ecx
	shll	%cl, %eax
	movslq	-4(%rbp), %rcx
	shlq	$8, %rcx
	movabsq	$LevelOffset8x8Luma_Intra, %rdx
	addq	%rcx, %rdx
	movslq	-8(%rbp), %rcx
	shlq	$5, %rcx
	addq	%rcx, %rdx
	movslq	-12(%rbp), %rcx
	movl	%eax, (%rdx,%rcx,4)
.LBB22_10:                              # %if.end
                                        #   in Loop: Header=BB22_6 Depth=3
	movslq	-20(%rbp), %rax
	movswl	OffsetList8x8input+256(,%rax,2), %eax
	movl	-16(%rbp), %ecx
                                        # kill: def $cl killed $ecx
	shll	%cl, %eax
	movslq	-4(%rbp), %rcx
	shlq	$8, %rcx
	movabsq	$LevelOffset8x8Luma_Inter, %rdx
	addq	%rcx, %rdx
	movslq	-8(%rbp), %rcx
	shlq	$5, %rcx
	addq	%rcx, %rdx
	movslq	-12(%rbp), %rcx
	movl	%eax, (%rdx,%rcx,4)
# %bb.11:                               # %for.inc
                                        #   in Loop: Header=BB22_6 Depth=3
	movl	-12(%rbp), %eax
	addl	$1, %eax
	movl	%eax, -12(%rbp)
	jmp	.LBB22_6
.LBB22_12:                              # %for.end
                                        #   in Loop: Header=BB22_4 Depth=2
	jmp	.LBB22_13
.LBB22_13:                              # %for.inc37
                                        #   in Loop: Header=BB22_4 Depth=2
	movl	-8(%rbp), %eax
	addl	$1, %eax
	movl	%eax, -8(%rbp)
	jmp	.LBB22_4
.LBB22_14:                              # %for.end39
                                        #   in Loop: Header=BB22_2 Depth=1
	jmp	.LBB22_15
.LBB22_15:                              # %for.inc40
                                        #   in Loop: Header=BB22_2 Depth=1
	movl	-4(%rbp), %eax
	addl	$1, %eax
	movl	%eax, -4(%rbp)
	jmp	.LBB22_2
.LBB22_16:                              # %for.end42
	jmp	.LBB22_33
.LBB22_17:                              # %if.else43
	movl	$0, -4(%rbp)
.LBB22_18:                              # %for.cond44
                                        # =>This Loop Header: Depth=1
                                        #     Child Loop BB22_20 Depth 2
                                        #       Child Loop BB22_22 Depth 3
	cmpl	$13, -4(%rbp)
	jge	.LBB22_32
# %bb.19:                               # %for.body47
                                        #   in Loop: Header=BB22_18 Depth=1
	movl	-4(%rbp), %eax
	addl	$16, %eax
	subl	$10, %eax
	movl	%eax, -16(%rbp)
	movl	$0, -8(%rbp)
.LBB22_20:                              # %for.cond50
                                        #   Parent Loop BB22_18 Depth=1
                                        # =>  This Loop Header: Depth=2
                                        #       Child Loop BB22_22 Depth 3
	cmpl	$8, -8(%rbp)
	jge	.LBB22_30
# %bb.21:                               # %for.body53
                                        #   in Loop: Header=BB22_20 Depth=2
	movl	$0, -12(%rbp)
.LBB22_22:                              # %for.cond54
                                        #   Parent Loop BB22_18 Depth=1
                                        #     Parent Loop BB22_20 Depth=2
                                        # =>    This Inner Loop Header: Depth=3
	cmpl	$8, -12(%rbp)
	jge	.LBB22_28
# %bb.23:                               # %for.body57
                                        #   in Loop: Header=BB22_22 Depth=3
	movl	-12(%rbp), %eax
	shll	$3, %eax
	addl	-8(%rbp), %eax
	movl	%eax, -20(%rbp)
	movq	img, %rax
	cmpl	$2, 24(%rax)
	jne	.LBB22_25
# %bb.24:                               # %if.then63
                                        #   in Loop: Header=BB22_22 Depth=3
	movslq	-20(%rbp), %rax
	movswl	Offset8_intra_default_intra(,%rax,2), %eax
	movl	-16(%rbp), %ecx
                                        # kill: def $cl killed $ecx
	shll	%cl, %eax
	movslq	-4(%rbp), %rcx
	shlq	$8, %rcx
	movabsq	$LevelOffset8x8Luma_Intra, %rdx
	addq	%rcx, %rdx
	movslq	-8(%rbp), %rcx
	shlq	$5, %rcx
	addq	%rcx, %rdx
	movslq	-12(%rbp), %rcx
	movl	%eax, (%rdx,%rcx,4)
	jmp	.LBB22_26
.LBB22_25:                              # %if.else74
                                        #   in Loop: Header=BB22_22 Depth=3
	movslq	-20(%rbp), %rax
	movswl	Offset8_intra_default_inter(,%rax,2), %eax
	movl	-16(%rbp), %ecx
                                        # kill: def $cl killed $ecx
	shll	%cl, %eax
	movslq	-4(%rbp), %rcx
	shlq	$8, %rcx
	movabsq	$LevelOffset8x8Luma_Intra, %rdx
	addq	%rcx, %rdx
	movslq	-8(%rbp), %rcx
	shlq	$5, %rcx
	addq	%rcx, %rdx
	movslq	-12(%rbp), %rcx
	movl	%eax, (%rdx,%rcx,4)
.LBB22_26:                              # %if.end85
                                        #   in Loop: Header=BB22_22 Depth=3
	movslq	-20(%rbp), %rax
	movswl	Offset8_inter_default(,%rax,2), %eax
	movl	-16(%rbp), %ecx
                                        # kill: def $cl killed $ecx
	shll	%cl, %eax
	movslq	-4(%rbp), %rcx
	shlq	$8, %rcx
	movabsq	$LevelOffset8x8Luma_Inter, %rdx
	addq	%rcx, %rdx
	movslq	-8(%rbp), %rcx
	shlq	$5, %rcx
	addq	%rcx, %rdx
	movslq	-12(%rbp), %rcx
	movl	%eax, (%rdx,%rcx,4)
# %bb.27:                               # %for.inc96
                                        #   in Loop: Header=BB22_22 Depth=3
	movl	-12(%rbp), %eax
	addl	$1, %eax
	movl	%eax, -12(%rbp)
	jmp	.LBB22_22
.LBB22_28:                              # %for.end98
                                        #   in Loop: Header=BB22_20 Depth=2
	jmp	.LBB22_29
.LBB22_29:                              # %for.inc99
                                        #   in Loop: Header=BB22_20 Depth=2
	movl	-8(%rbp), %eax
	addl	$1, %eax
	movl	%eax, -8(%rbp)
	jmp	.LBB22_20
.LBB22_30:                              # %for.end101
                                        #   in Loop: Header=BB22_18 Depth=1
	jmp	.LBB22_31
.LBB22_31:                              # %for.inc102
                                        #   in Loop: Header=BB22_18 Depth=1
	movl	-4(%rbp), %eax
	addl	$1, %eax
	movl	%eax, -4(%rbp)
	jmp	.LBB22_18
.LBB22_32:                              # %for.end104
	jmp	.LBB22_33
.LBB22_33:                              # %if.end105
	cmpl	$1706484180, -24(%rbp)  # imm = 0x65B6E1D4
	jne	.LBB22_35
.LBB22_34:
	addq	$32, %rsp
	popq	%rbp
	.cfi_def_cfa %rsp, 8
	retq
.LBB22_35:                              # %func_exit
	.cfi_def_cfa %rbp, 16
	callq	detect_breach
	jmp	.LBB22_34
.Lfunc_end22:
	.size	CalculateOffset8Param.18, .Lfunc_end22-CalculateOffset8Param.18
	.cfi_endproc
                                        # -- End function
	.globl	ParseQOffsetMatrix.19   # -- Begin function ParseQOffsetMatrix.19
	.p2align	4, 0x90
	.type	ParseQOffsetMatrix.19,@function
ParseQOffsetMatrix.19:                  # @ParseQOffsetMatrix.19
	.cfi_startproc
# %bb.0:                                # %entry
	pushq	%rbp
	.cfi_def_cfa_offset 16
	.cfi_offset %rbp, -16
	movq	%rsp, %rbp
	.cfi_def_cfa_register %rbp
	subq	$8096, %rsp             # imm = 0x1FA0
	movl	$665581583, -52(%rbp)   # imm = 0x27ABF80F
	movq	%rdi, -80(%rbp)
	movl	%esi, -48(%rbp)
	movl	$0, -32(%rbp)
	movl	$0, -36(%rbp)
	movl	$0, -20(%rbp)
	movq	-80(%rbp), %rax
	movq	%rax, -16(%rbp)
	movq	-80(%rbp), %rax
	movslq	-48(%rbp), %rcx
	addq	%rcx, %rax
	movq	%rax, -72(%rbp)
.LBB23_1:                               # %while.cond
                                        # =>This Loop Header: Depth=1
                                        #     Child Loop BB23_6 Depth 2
	movq	-16(%rbp), %rax
	cmpq	-72(%rbp), %rax
	jae	.LBB23_25
# %bb.2:                                # %while.body
                                        #   in Loop: Header=BB23_1 Depth=1
	movq	-16(%rbp), %rax
	movsbl	(%rax), %eax
	addl	$-9, %eax
	movl	%eax, %ecx
	subl	$35, %ecx
	ja	.LBB23_21
# %bb.3:                                # %while.body
                                        #   in Loop: Header=BB23_1 Depth=1
	movq	.LJTI23_0(,%rax,8), %rax
	jmpq	*%rax
.LBB23_4:                               # %sw.bb
                                        #   in Loop: Header=BB23_1 Depth=1
	movq	-16(%rbp), %rax
	addq	$1, %rax
	movq	%rax, -16(%rbp)
	jmp	.LBB23_24
.LBB23_5:                               # %sw.bb1
                                        #   in Loop: Header=BB23_1 Depth=1
	movq	-16(%rbp), %rax
	movb	$0, (%rax)
.LBB23_6:                               # %while.cond2
                                        #   Parent Loop BB23_1 Depth=1
                                        # =>  This Inner Loop Header: Depth=2
	xorl	%eax, %eax
	movq	-16(%rbp), %rcx
	movsbl	(%rcx), %ecx
	cmpl	$10, %ecx
	je	.LBB23_8
# %bb.7:                                # %land.rhs
                                        #   in Loop: Header=BB23_6 Depth=2
	movq	-16(%rbp), %rax
	cmpq	-72(%rbp), %rax
	setb	%al
.LBB23_8:                               # %land.end
                                        #   in Loop: Header=BB23_6 Depth=2
	testb	$1, %al
	jne	.LBB23_9
	jmp	.LBB23_10
.LBB23_9:                               # %while.body8
                                        #   in Loop: Header=BB23_6 Depth=2
	movq	-16(%rbp), %rax
	addq	$1, %rax
	movq	%rax, -16(%rbp)
	jmp	.LBB23_6
.LBB23_10:                              # %while.end
                                        #   in Loop: Header=BB23_1 Depth=1
	movl	$0, -36(%rbp)
	movl	$0, -20(%rbp)
	jmp	.LBB23_24
.LBB23_11:                              # %sw.bb10
                                        #   in Loop: Header=BB23_1 Depth=1
	movl	$0, -20(%rbp)
	movl	$0, -36(%rbp)
	movq	-16(%rbp), %rax
	movq	%rax, %rcx
	addq	$1, %rcx
	movq	%rcx, -16(%rbp)
	movb	$0, (%rax)
	jmp	.LBB23_24
.LBB23_12:                              # %sw.bb12
                                        #   in Loop: Header=BB23_1 Depth=1
	cmpl	$0, -36(%rbp)
	je	.LBB23_14
# %bb.13:                               # %if.then
                                        #   in Loop: Header=BB23_1 Depth=1
	movq	-16(%rbp), %rax
	addq	$1, %rax
	movq	%rax, -16(%rbp)
	jmp	.LBB23_15
.LBB23_14:                              # %if.else
                                        #   in Loop: Header=BB23_1 Depth=1
	movq	-16(%rbp), %rax
	movq	%rax, %rcx
	addq	$1, %rcx
	movq	%rcx, -16(%rbp)
	movb	$0, (%rax)
	movl	$0, -20(%rbp)
.LBB23_15:                              # %if.end
                                        #   in Loop: Header=BB23_1 Depth=1
	jmp	.LBB23_24
.LBB23_16:                              # %sw.bb15
                                        #   in Loop: Header=BB23_1 Depth=1
	movq	-16(%rbp), %rax
	movq	%rax, %rcx
	addq	$1, %rcx
	movq	%rcx, -16(%rbp)
	movb	$0, (%rax)
	cmpl	$0, -36(%rbp)
	jne	.LBB23_18
# %bb.17:                               # %if.then18
                                        #   in Loop: Header=BB23_1 Depth=1
	movq	-16(%rbp), %rax
	movl	-32(%rbp), %ecx
	movl	%ecx, %edx
	addl	$1, %edx
	movl	%edx, -32(%rbp)
	movslq	%ecx, %rcx
	movq	%rax, -8096(%rbp,%rcx,8)
	movl	-20(%rbp), %eax
	xorl	$-1, %eax
	movl	%eax, -20(%rbp)
	jmp	.LBB23_19
.LBB23_18:                              # %if.else21
                                        #   in Loop: Header=BB23_1 Depth=1
	movl	$0, -20(%rbp)
.LBB23_19:                              # %if.end22
                                        #   in Loop: Header=BB23_1 Depth=1
	movl	-36(%rbp), %eax
	xorl	$-1, %eax
	movl	%eax, -36(%rbp)
	jmp	.LBB23_24
.LBB23_20:                              # %sw.bb24
                                        #   in Loop: Header=BB23_1 Depth=1
	movq	-16(%rbp), %rax
	addq	$1, %rax
	movq	%rax, -16(%rbp)
	movl	$0, -20(%rbp)
	jmp	.LBB23_24
.LBB23_21:                              # %sw.default
                                        #   in Loop: Header=BB23_1 Depth=1
	cmpl	$0, -20(%rbp)
	jne	.LBB23_23
# %bb.22:                               # %if.then27
                                        #   in Loop: Header=BB23_1 Depth=1
	movq	-16(%rbp), %rax
	movl	-32(%rbp), %ecx
	movl	%ecx, %edx
	addl	$1, %edx
	movl	%edx, -32(%rbp)
	movslq	%ecx, %rcx
	movq	%rax, -8096(%rbp,%rcx,8)
	movl	-20(%rbp), %eax
	xorl	$-1, %eax
	movl	%eax, -20(%rbp)
.LBB23_23:                              # %if.end32
                                        #   in Loop: Header=BB23_1 Depth=1
	movq	-16(%rbp), %rax
	addq	$1, %rax
	movq	%rax, -16(%rbp)
.LBB23_24:                              # %sw.epilog
                                        #   in Loop: Header=BB23_1 Depth=1
	jmp	.LBB23_1
.LBB23_25:                              # %while.end34
	movl	-32(%rbp), %eax
	addl	$-1, %eax
	movl	%eax, -32(%rbp)
	movl	$0, -24(%rbp)
.LBB23_26:                              # %for.cond
                                        # =>This Loop Header: Depth=1
                                        #     Child Loop BB23_35 Depth 2
	movl	-24(%rbp), %eax
	cmpl	-32(%rbp), %eax
	jge	.LBB23_42
# %bb.27:                               # %for.body
                                        #   in Loop: Header=BB23_26 Depth=1
	movl	$0, -4(%rbp)
	movl	-24(%rbp), %eax
	addl	-4(%rbp), %eax
	cltq
	movq	-8096(%rbp,%rax,8), %rdi
	leaq	-60(%rbp), %rsi
	callq	CheckOffsetParameterName
	xorl	%ecx, %ecx
	movl	%eax, -40(%rbp)
	cmpl	%eax, %ecx
	jle	.LBB23_29
# %bb.28:                               # %if.then41
                                        #   in Loop: Header=BB23_26 Depth=1
	movl	-24(%rbp), %eax
	addl	-4(%rbp), %eax
	cltq
	movq	-8096(%rbp,%rax,8), %rcx
	movabsq	$errortext, %rdi
	movl	$300, %esi              # imm = 0x12C
	movabsq	$.L.str, %rdx
	movb	$0, %al
	callq	snprintf
	movabsq	$errortext, %rdi
	movl	$300, %esi              # imm = 0x12C
	callq	error
.LBB23_29:                              # %if.end46
                                        #   in Loop: Header=BB23_26 Depth=1
	movl	-4(%rbp), %eax
	addl	$1, %eax
	movl	%eax, -4(%rbp)
	movl	-24(%rbp), %eax
	addl	-4(%rbp), %eax
	cltq
	movq	-8096(%rbp,%rax,8), %rsi
	movl	$.L.str.1, %edi
	callq	strcmp
	cmpl	$0, %eax
	je	.LBB23_31
# %bb.30:                               # %if.then53
                                        #   in Loop: Header=BB23_26 Depth=1
	movabsq	$errortext, %rdi
	movl	$300, %esi              # imm = 0x12C
	movabsq	$.L.str.2, %rdx
	movb	$0, %al
	callq	snprintf
	movabsq	$errortext, %rdi
	movl	$300, %esi              # imm = 0x12C
	callq	error
.LBB23_31:                              # %if.end55
                                        #   in Loop: Header=BB23_26 Depth=1
	movl	-4(%rbp), %eax
	addl	$1, %eax
	movl	%eax, -4(%rbp)
	cmpl	$0, -60(%rbp)
	jne	.LBB23_33
# %bb.32:                               # %if.then58
                                        #   in Loop: Header=BB23_26 Depth=1
	movl	$16, -44(%rbp)
	movslq	-40(%rbp), %rax
	shlq	$5, %rax
	movabsq	$OffsetList4x4input, %rcx
	addq	%rax, %rcx
	movq	%rcx, -88(%rbp)
	movslq	-40(%rbp), %rax
	movl	$1, offset4x4_check(,%rax,4)
	jmp	.LBB23_34
.LBB23_33:                              # %if.else63
                                        #   in Loop: Header=BB23_26 Depth=1
	movl	$64, -44(%rbp)
	movslq	-40(%rbp), %rax
	shlq	$7, %rax
	movabsq	$OffsetList8x8input, %rcx
	addq	%rax, %rcx
	movq	%rcx, -88(%rbp)
	movslq	-40(%rbp), %rax
	movl	$1, offset8x8_check(,%rax,4)
.LBB23_34:                              # %if.end69
                                        #   in Loop: Header=BB23_26 Depth=1
	movl	$0, -28(%rbp)
.LBB23_35:                              # %for.cond70
                                        #   Parent Loop BB23_26 Depth=1
                                        # =>  This Inner Loop Header: Depth=2
	movl	-28(%rbp), %eax
	cmpl	-44(%rbp), %eax
	jge	.LBB23_40
# %bb.36:                               # %for.body73
                                        #   in Loop: Header=BB23_35 Depth=2
	movl	-24(%rbp), %eax
	addl	-4(%rbp), %eax
	addl	-28(%rbp), %eax
	cltq
	movq	-8096(%rbp,%rax,8), %rdi
	movabsq	$.L.str.3, %rsi
	leaq	-56(%rbp), %rdx
	movb	$0, %al
	callq	__isoc99_sscanf
	movl	$1, %ecx
	cmpl	%eax, %ecx
	je	.LBB23_38
# %bb.37:                               # %if.then81
                                        #   in Loop: Header=BB23_35 Depth=2
	movslq	-24(%rbp), %rax
	movq	-8096(%rbp,%rax,8), %rcx
	movl	-24(%rbp), %eax
	addl	-4(%rbp), %eax
	addl	-28(%rbp), %eax
	cltq
	movq	-8096(%rbp,%rax,8), %r8
	movabsq	$errortext, %rdi
	movl	$300, %esi              # imm = 0x12C
	movabsq	$.L.str.4, %rdx
	movb	$0, %al
	callq	snprintf
	movabsq	$errortext, %rdi
	movl	$300, %esi              # imm = 0x12C
	callq	error
.LBB23_38:                              # %if.end89
                                        #   in Loop: Header=BB23_35 Depth=2
	movl	-56(%rbp), %eax
	movq	-88(%rbp), %rcx
	movslq	-28(%rbp), %rdx
	movw	%ax, (%rcx,%rdx,2)
# %bb.39:                               # %for.inc
                                        #   in Loop: Header=BB23_35 Depth=2
	movl	-28(%rbp), %eax
	addl	$1, %eax
	movl	%eax, -28(%rbp)
	jmp	.LBB23_35
.LBB23_40:                              # %for.end
                                        #   in Loop: Header=BB23_26 Depth=1
	movl	-28(%rbp), %eax
	addl	-4(%rbp), %eax
	movl	%eax, -4(%rbp)
	movabsq	$.L.str.5, %rdi
	movb	$0, %al
	callq	printf
# %bb.41:                               # %for.inc96
                                        #   in Loop: Header=BB23_26 Depth=1
	movl	-4(%rbp), %eax
	addl	-24(%rbp), %eax
	movl	%eax, -24(%rbp)
	jmp	.LBB23_26
.LBB23_42:                              # %for.end98
	cmpl	$665581583, -52(%rbp)   # imm = 0x27ABF80F
	jne	.LBB23_44
.LBB23_43:
	addq	$8096, %rsp             # imm = 0x1FA0
	popq	%rbp
	.cfi_def_cfa %rsp, 8
	retq
.LBB23_44:                              # %func_exit
	.cfi_def_cfa %rbp, 16
	callq	detect_breach
	jmp	.LBB23_43
.Lfunc_end23:
	.size	ParseQOffsetMatrix.19, .Lfunc_end23-ParseQOffsetMatrix.19
	.cfi_endproc
	.section	.rodata,"a",@progbits
	.p2align	3
.LJTI23_0:
	.quad	.LBB23_12
	.quad	.LBB23_11
	.quad	.LBB23_21
	.quad	.LBB23_21
	.quad	.LBB23_4
	.quad	.LBB23_21
	.quad	.LBB23_21
	.quad	.LBB23_21
	.quad	.LBB23_21
	.quad	.LBB23_21
	.quad	.LBB23_21
	.quad	.LBB23_21
	.quad	.LBB23_21
	.quad	.LBB23_21
	.quad	.LBB23_21
	.quad	.LBB23_21
	.quad	.LBB23_21
	.quad	.LBB23_21
	.quad	.LBB23_21
	.quad	.LBB23_21
	.quad	.LBB23_21
	.quad	.LBB23_21
	.quad	.LBB23_21
	.quad	.LBB23_12
	.quad	.LBB23_21
	.quad	.LBB23_16
	.quad	.LBB23_5
	.quad	.LBB23_21
	.quad	.LBB23_21
	.quad	.LBB23_21
	.quad	.LBB23_21
	.quad	.LBB23_21
	.quad	.LBB23_21
	.quad	.LBB23_21
	.quad	.LBB23_21
	.quad	.LBB23_20
                                        # -- End function
	.text
	.globl	ParseQOffsetMatrix.20   # -- Begin function ParseQOffsetMatrix.20
	.p2align	4, 0x90
	.type	ParseQOffsetMatrix.20,@function
ParseQOffsetMatrix.20:                  # @ParseQOffsetMatrix.20
	.cfi_startproc
# %bb.0:                                # %entry
	pushq	%rbp
	.cfi_def_cfa_offset 16
	.cfi_offset %rbp, -16
	movq	%rsp, %rbp
	.cfi_def_cfa_register %rbp
	subq	$8096, %rsp             # imm = 0x1FA0
	movl	$1782384379, -52(%rbp)  # imm = 0x6A3D06FB
	movq	%rdi, -72(%rbp)
	movl	%esi, -60(%rbp)
	movl	$0, -28(%rbp)
	movl	$0, -36(%rbp)
	movl	$0, -20(%rbp)
	movq	-72(%rbp), %rax
	movq	%rax, -16(%rbp)
	movq	-72(%rbp), %rax
	movslq	-60(%rbp), %rcx
	addq	%rcx, %rax
	movq	%rax, -80(%rbp)
.LBB24_1:                               # %while.cond
                                        # =>This Loop Header: Depth=1
                                        #     Child Loop BB24_6 Depth 2
	movq	-16(%rbp), %rax
	cmpq	-80(%rbp), %rax
	jae	.LBB24_25
# %bb.2:                                # %while.body
                                        #   in Loop: Header=BB24_1 Depth=1
	movq	-16(%rbp), %rax
	movsbl	(%rax), %eax
	addl	$-9, %eax
	movl	%eax, %ecx
	subl	$35, %ecx
	ja	.LBB24_21
# %bb.3:                                # %while.body
                                        #   in Loop: Header=BB24_1 Depth=1
	movq	.LJTI24_0(,%rax,8), %rax
	jmpq	*%rax
.LBB24_4:                               # %sw.bb
                                        #   in Loop: Header=BB24_1 Depth=1
	movq	-16(%rbp), %rax
	addq	$1, %rax
	movq	%rax, -16(%rbp)
	jmp	.LBB24_24
.LBB24_5:                               # %sw.bb1
                                        #   in Loop: Header=BB24_1 Depth=1
	movq	-16(%rbp), %rax
	movb	$0, (%rax)
.LBB24_6:                               # %while.cond2
                                        #   Parent Loop BB24_1 Depth=1
                                        # =>  This Inner Loop Header: Depth=2
	xorl	%eax, %eax
	movq	-16(%rbp), %rcx
	movsbl	(%rcx), %ecx
	cmpl	$10, %ecx
	je	.LBB24_8
# %bb.7:                                # %land.rhs
                                        #   in Loop: Header=BB24_6 Depth=2
	movq	-16(%rbp), %rax
	cmpq	-80(%rbp), %rax
	setb	%al
.LBB24_8:                               # %land.end
                                        #   in Loop: Header=BB24_6 Depth=2
	testb	$1, %al
	jne	.LBB24_9
	jmp	.LBB24_10
.LBB24_9:                               # %while.body8
                                        #   in Loop: Header=BB24_6 Depth=2
	movq	-16(%rbp), %rax
	addq	$1, %rax
	movq	%rax, -16(%rbp)
	jmp	.LBB24_6
.LBB24_10:                              # %while.end
                                        #   in Loop: Header=BB24_1 Depth=1
	movl	$0, -36(%rbp)
	movl	$0, -20(%rbp)
	jmp	.LBB24_24
.LBB24_11:                              # %sw.bb10
                                        #   in Loop: Header=BB24_1 Depth=1
	movl	$0, -20(%rbp)
	movl	$0, -36(%rbp)
	movq	-16(%rbp), %rax
	movq	%rax, %rcx
	addq	$1, %rcx
	movq	%rcx, -16(%rbp)
	movb	$0, (%rax)
	jmp	.LBB24_24
.LBB24_12:                              # %sw.bb12
                                        #   in Loop: Header=BB24_1 Depth=1
	cmpl	$0, -36(%rbp)
	je	.LBB24_14
# %bb.13:                               # %if.then
                                        #   in Loop: Header=BB24_1 Depth=1
	movq	-16(%rbp), %rax
	addq	$1, %rax
	movq	%rax, -16(%rbp)
	jmp	.LBB24_15
.LBB24_14:                              # %if.else
                                        #   in Loop: Header=BB24_1 Depth=1
	movq	-16(%rbp), %rax
	movq	%rax, %rcx
	addq	$1, %rcx
	movq	%rcx, -16(%rbp)
	movb	$0, (%rax)
	movl	$0, -20(%rbp)
.LBB24_15:                              # %if.end
                                        #   in Loop: Header=BB24_1 Depth=1
	jmp	.LBB24_24
.LBB24_16:                              # %sw.bb15
                                        #   in Loop: Header=BB24_1 Depth=1
	movq	-16(%rbp), %rax
	movq	%rax, %rcx
	addq	$1, %rcx
	movq	%rcx, -16(%rbp)
	movb	$0, (%rax)
	cmpl	$0, -36(%rbp)
	jne	.LBB24_18
# %bb.17:                               # %if.then18
                                        #   in Loop: Header=BB24_1 Depth=1
	movq	-16(%rbp), %rax
	movl	-28(%rbp), %ecx
	movl	%ecx, %edx
	addl	$1, %edx
	movl	%edx, -28(%rbp)
	movslq	%ecx, %rcx
	movq	%rax, -8096(%rbp,%rcx,8)
	movl	-20(%rbp), %eax
	xorl	$-1, %eax
	movl	%eax, -20(%rbp)
	jmp	.LBB24_19
.LBB24_18:                              # %if.else21
                                        #   in Loop: Header=BB24_1 Depth=1
	movl	$0, -20(%rbp)
.LBB24_19:                              # %if.end22
                                        #   in Loop: Header=BB24_1 Depth=1
	movl	-36(%rbp), %eax
	xorl	$-1, %eax
	movl	%eax, -36(%rbp)
	jmp	.LBB24_24
.LBB24_20:                              # %sw.bb24
                                        #   in Loop: Header=BB24_1 Depth=1
	movq	-16(%rbp), %rax
	addq	$1, %rax
	movq	%rax, -16(%rbp)
	movl	$0, -20(%rbp)
	jmp	.LBB24_24
.LBB24_21:                              # %sw.default
                                        #   in Loop: Header=BB24_1 Depth=1
	cmpl	$0, -20(%rbp)
	jne	.LBB24_23
# %bb.22:                               # %if.then27
                                        #   in Loop: Header=BB24_1 Depth=1
	movq	-16(%rbp), %rax
	movl	-28(%rbp), %ecx
	movl	%ecx, %edx
	addl	$1, %edx
	movl	%edx, -28(%rbp)
	movslq	%ecx, %rcx
	movq	%rax, -8096(%rbp,%rcx,8)
	movl	-20(%rbp), %eax
	xorl	$-1, %eax
	movl	%eax, -20(%rbp)
.LBB24_23:                              # %if.end32
                                        #   in Loop: Header=BB24_1 Depth=1
	movq	-16(%rbp), %rax
	addq	$1, %rax
	movq	%rax, -16(%rbp)
.LBB24_24:                              # %sw.epilog
                                        #   in Loop: Header=BB24_1 Depth=1
	jmp	.LBB24_1
.LBB24_25:                              # %while.end34
	movl	-28(%rbp), %eax
	addl	$-1, %eax
	movl	%eax, -28(%rbp)
	movl	$0, -24(%rbp)
.LBB24_26:                              # %for.cond
                                        # =>This Loop Header: Depth=1
                                        #     Child Loop BB24_35 Depth 2
	movl	-24(%rbp), %eax
	cmpl	-28(%rbp), %eax
	jge	.LBB24_42
# %bb.27:                               # %for.body
                                        #   in Loop: Header=BB24_26 Depth=1
	movl	$0, -4(%rbp)
	movl	-24(%rbp), %eax
	addl	-4(%rbp), %eax
	cltq
	movq	-8096(%rbp,%rax,8), %rdi
	leaq	-56(%rbp), %rsi
	callq	CheckOffsetParameterName
	xorl	%ecx, %ecx
	movl	%eax, -40(%rbp)
	cmpl	%eax, %ecx
	jle	.LBB24_29
# %bb.28:                               # %if.then41
                                        #   in Loop: Header=BB24_26 Depth=1
	movl	-24(%rbp), %eax
	addl	-4(%rbp), %eax
	cltq
	movq	-8096(%rbp,%rax,8), %rcx
	movabsq	$errortext, %rdi
	movl	$300, %esi              # imm = 0x12C
	movabsq	$.L.str, %rdx
	movb	$0, %al
	callq	snprintf
	movabsq	$errortext, %rdi
	movl	$300, %esi              # imm = 0x12C
	callq	error
.LBB24_29:                              # %if.end46
                                        #   in Loop: Header=BB24_26 Depth=1
	movl	-4(%rbp), %eax
	addl	$1, %eax
	movl	%eax, -4(%rbp)
	movl	-24(%rbp), %eax
	addl	-4(%rbp), %eax
	cltq
	movq	-8096(%rbp,%rax,8), %rsi
	movl	$.L.str.1, %edi
	callq	strcmp
	cmpl	$0, %eax
	je	.LBB24_31
# %bb.30:                               # %if.then53
                                        #   in Loop: Header=BB24_26 Depth=1
	movabsq	$errortext, %rdi
	movl	$300, %esi              # imm = 0x12C
	movabsq	$.L.str.2, %rdx
	movb	$0, %al
	callq	snprintf
	movabsq	$errortext, %rdi
	movl	$300, %esi              # imm = 0x12C
	callq	error
.LBB24_31:                              # %if.end55
                                        #   in Loop: Header=BB24_26 Depth=1
	movl	-4(%rbp), %eax
	addl	$1, %eax
	movl	%eax, -4(%rbp)
	cmpl	$0, -56(%rbp)
	jne	.LBB24_33
# %bb.32:                               # %if.then58
                                        #   in Loop: Header=BB24_26 Depth=1
	movl	$16, -44(%rbp)
	movslq	-40(%rbp), %rax
	shlq	$5, %rax
	movabsq	$OffsetList4x4input, %rcx
	addq	%rax, %rcx
	movq	%rcx, -88(%rbp)
	movslq	-40(%rbp), %rax
	movl	$1, offset4x4_check(,%rax,4)
	jmp	.LBB24_34
.LBB24_33:                              # %if.else63
                                        #   in Loop: Header=BB24_26 Depth=1
	movl	$64, -44(%rbp)
	movslq	-40(%rbp), %rax
	shlq	$7, %rax
	movabsq	$OffsetList8x8input, %rcx
	addq	%rax, %rcx
	movq	%rcx, -88(%rbp)
	movslq	-40(%rbp), %rax
	movl	$1, offset8x8_check(,%rax,4)
.LBB24_34:                              # %if.end69
                                        #   in Loop: Header=BB24_26 Depth=1
	movl	$0, -32(%rbp)
.LBB24_35:                              # %for.cond70
                                        #   Parent Loop BB24_26 Depth=1
                                        # =>  This Inner Loop Header: Depth=2
	movl	-32(%rbp), %eax
	cmpl	-44(%rbp), %eax
	jge	.LBB24_40
# %bb.36:                               # %for.body73
                                        #   in Loop: Header=BB24_35 Depth=2
	movl	-24(%rbp), %eax
	addl	-4(%rbp), %eax
	addl	-32(%rbp), %eax
	cltq
	movq	-8096(%rbp,%rax,8), %rdi
	movabsq	$.L.str.3, %rsi
	leaq	-48(%rbp), %rdx
	movb	$0, %al
	callq	__isoc99_sscanf
	movl	$1, %ecx
	cmpl	%eax, %ecx
	je	.LBB24_38
# %bb.37:                               # %if.then81
                                        #   in Loop: Header=BB24_35 Depth=2
	movslq	-24(%rbp), %rax
	movq	-8096(%rbp,%rax,8), %rcx
	movl	-24(%rbp), %eax
	addl	-4(%rbp), %eax
	addl	-32(%rbp), %eax
	cltq
	movq	-8096(%rbp,%rax,8), %r8
	movabsq	$errortext, %rdi
	movl	$300, %esi              # imm = 0x12C
	movabsq	$.L.str.4, %rdx
	movb	$0, %al
	callq	snprintf
	movabsq	$errortext, %rdi
	movl	$300, %esi              # imm = 0x12C
	callq	error
.LBB24_38:                              # %if.end89
                                        #   in Loop: Header=BB24_35 Depth=2
	movl	-48(%rbp), %eax
	movq	-88(%rbp), %rcx
	movslq	-32(%rbp), %rdx
	movw	%ax, (%rcx,%rdx,2)
# %bb.39:                               # %for.inc
                                        #   in Loop: Header=BB24_35 Depth=2
	movl	-32(%rbp), %eax
	addl	$1, %eax
	movl	%eax, -32(%rbp)
	jmp	.LBB24_35
.LBB24_40:                              # %for.end
                                        #   in Loop: Header=BB24_26 Depth=1
	movl	-32(%rbp), %eax
	addl	-4(%rbp), %eax
	movl	%eax, -4(%rbp)
	movabsq	$.L.str.5, %rdi
	movb	$0, %al
	callq	printf
# %bb.41:                               # %for.inc96
                                        #   in Loop: Header=BB24_26 Depth=1
	movl	-4(%rbp), %eax
	addl	-24(%rbp), %eax
	movl	%eax, -24(%rbp)
	jmp	.LBB24_26
.LBB24_42:                              # %for.end98
	cmpl	$1782384379, -52(%rbp)  # imm = 0x6A3D06FB
	jne	.LBB24_44
.LBB24_43:
	addq	$8096, %rsp             # imm = 0x1FA0
	popq	%rbp
	.cfi_def_cfa %rsp, 8
	retq
.LBB24_44:                              # %func_exit
	.cfi_def_cfa %rbp, 16
	callq	detect_breach
	jmp	.LBB24_43
.Lfunc_end24:
	.size	ParseQOffsetMatrix.20, .Lfunc_end24-ParseQOffsetMatrix.20
	.cfi_endproc
	.section	.rodata,"a",@progbits
	.p2align	3
.LJTI24_0:
	.quad	.LBB24_12
	.quad	.LBB24_11
	.quad	.LBB24_21
	.quad	.LBB24_21
	.quad	.LBB24_4
	.quad	.LBB24_21
	.quad	.LBB24_21
	.quad	.LBB24_21
	.quad	.LBB24_21
	.quad	.LBB24_21
	.quad	.LBB24_21
	.quad	.LBB24_21
	.quad	.LBB24_21
	.quad	.LBB24_21
	.quad	.LBB24_21
	.quad	.LBB24_21
	.quad	.LBB24_21
	.quad	.LBB24_21
	.quad	.LBB24_21
	.quad	.LBB24_21
	.quad	.LBB24_21
	.quad	.LBB24_21
	.quad	.LBB24_21
	.quad	.LBB24_12
	.quad	.LBB24_21
	.quad	.LBB24_16
	.quad	.LBB24_5
	.quad	.LBB24_21
	.quad	.LBB24_21
	.quad	.LBB24_21
	.quad	.LBB24_21
	.quad	.LBB24_21
	.quad	.LBB24_21
	.quad	.LBB24_21
	.quad	.LBB24_21
	.quad	.LBB24_20
                                        # -- End function
	.text
	.globl	CalculateOffset8Param.21 # -- Begin function CalculateOffset8Param.21
	.p2align	4, 0x90
	.type	CalculateOffset8Param.21,@function
CalculateOffset8Param.21:               # @CalculateOffset8Param.21
	.cfi_startproc
# %bb.0:                                # %entry
	pushq	%rbp
	.cfi_def_cfa_offset 16
	.cfi_offset %rbp, -16
	movq	%rsp, %rbp
	.cfi_def_cfa_register %rbp
	subq	$32, %rsp
	movl	$1348249327, -24(%rbp)  # imm = 0x505CA6EF
	movq	input, %rax
	cmpl	$0, 3584(%rax)
	je	.LBB25_17
# %bb.1:                                # %if.then
	movl	$0, -8(%rbp)
.LBB25_2:                               # %for.cond
                                        # =>This Loop Header: Depth=1
                                        #     Child Loop BB25_4 Depth 2
                                        #       Child Loop BB25_6 Depth 3
	cmpl	$13, -8(%rbp)
	jge	.LBB25_16
# %bb.3:                                # %for.body
                                        #   in Loop: Header=BB25_2 Depth=1
	movl	-8(%rbp), %eax
	addl	$16, %eax
	subl	$10, %eax
	movl	%eax, -16(%rbp)
	movl	$0, -12(%rbp)
.LBB25_4:                               # %for.cond1
                                        #   Parent Loop BB25_2 Depth=1
                                        # =>  This Loop Header: Depth=2
                                        #       Child Loop BB25_6 Depth 3
	cmpl	$8, -12(%rbp)
	jge	.LBB25_14
# %bb.5:                                # %for.body3
                                        #   in Loop: Header=BB25_4 Depth=2
	movl	$0, -4(%rbp)
.LBB25_6:                               # %for.cond4
                                        #   Parent Loop BB25_2 Depth=1
                                        #     Parent Loop BB25_4 Depth=2
                                        # =>    This Inner Loop Header: Depth=3
	cmpl	$8, -4(%rbp)
	jge	.LBB25_12
# %bb.7:                                # %for.body6
                                        #   in Loop: Header=BB25_6 Depth=3
	movl	-4(%rbp), %eax
	shll	$3, %eax
	addl	-12(%rbp), %eax
	movl	%eax, -20(%rbp)
	movq	img, %rax
	cmpl	$2, 24(%rax)
	jne	.LBB25_9
# %bb.8:                                # %if.then9
                                        #   in Loop: Header=BB25_6 Depth=3
	movslq	-20(%rbp), %rax
	movswl	OffsetList8x8input(,%rax,2), %eax
	movl	-16(%rbp), %ecx
                                        # kill: def $cl killed $ecx
	shll	%cl, %eax
	movslq	-8(%rbp), %rcx
	shlq	$8, %rcx
	movabsq	$LevelOffset8x8Luma_Intra, %rdx
	addq	%rcx, %rdx
	movslq	-12(%rbp), %rcx
	shlq	$5, %rcx
	addq	%rcx, %rdx
	movslq	-4(%rbp), %rcx
	movl	%eax, (%rdx,%rcx,4)
	jmp	.LBB25_10
.LBB25_9:                               # %if.else
                                        #   in Loop: Header=BB25_6 Depth=3
	movslq	-20(%rbp), %rax
	movswl	OffsetList8x8input+128(,%rax,2), %eax
	movl	-16(%rbp), %ecx
                                        # kill: def $cl killed $ecx
	shll	%cl, %eax
	movslq	-8(%rbp), %rcx
	shlq	$8, %rcx
	movabsq	$LevelOffset8x8Luma_Intra, %rdx
	addq	%rcx, %rdx
	movslq	-12(%rbp), %rcx
	shlq	$5, %rcx
	addq	%rcx, %rdx
	movslq	-4(%rbp), %rcx
	movl	%eax, (%rdx,%rcx,4)
.LBB25_10:                              # %if.end
                                        #   in Loop: Header=BB25_6 Depth=3
	movslq	-20(%rbp), %rax
	movswl	OffsetList8x8input+256(,%rax,2), %eax
	movl	-16(%rbp), %ecx
                                        # kill: def $cl killed $ecx
	shll	%cl, %eax
	movslq	-8(%rbp), %rcx
	shlq	$8, %rcx
	movabsq	$LevelOffset8x8Luma_Inter, %rdx
	addq	%rcx, %rdx
	movslq	-12(%rbp), %rcx
	shlq	$5, %rcx
	addq	%rcx, %rdx
	movslq	-4(%rbp), %rcx
	movl	%eax, (%rdx,%rcx,4)
# %bb.11:                               # %for.inc
                                        #   in Loop: Header=BB25_6 Depth=3
	movl	-4(%rbp), %eax
	addl	$1, %eax
	movl	%eax, -4(%rbp)
	jmp	.LBB25_6
.LBB25_12:                              # %for.end
                                        #   in Loop: Header=BB25_4 Depth=2
	jmp	.LBB25_13
.LBB25_13:                              # %for.inc37
                                        #   in Loop: Header=BB25_4 Depth=2
	movl	-12(%rbp), %eax
	addl	$1, %eax
	movl	%eax, -12(%rbp)
	jmp	.LBB25_4
.LBB25_14:                              # %for.end39
                                        #   in Loop: Header=BB25_2 Depth=1
	jmp	.LBB25_15
.LBB25_15:                              # %for.inc40
                                        #   in Loop: Header=BB25_2 Depth=1
	movl	-8(%rbp), %eax
	addl	$1, %eax
	movl	%eax, -8(%rbp)
	jmp	.LBB25_2
.LBB25_16:                              # %for.end42
	jmp	.LBB25_33
.LBB25_17:                              # %if.else43
	movl	$0, -8(%rbp)
.LBB25_18:                              # %for.cond44
                                        # =>This Loop Header: Depth=1
                                        #     Child Loop BB25_20 Depth 2
                                        #       Child Loop BB25_22 Depth 3
	cmpl	$13, -8(%rbp)
	jge	.LBB25_32
# %bb.19:                               # %for.body47
                                        #   in Loop: Header=BB25_18 Depth=1
	movl	-8(%rbp), %eax
	addl	$16, %eax
	subl	$10, %eax
	movl	%eax, -16(%rbp)
	movl	$0, -12(%rbp)
.LBB25_20:                              # %for.cond50
                                        #   Parent Loop BB25_18 Depth=1
                                        # =>  This Loop Header: Depth=2
                                        #       Child Loop BB25_22 Depth 3
	cmpl	$8, -12(%rbp)
	jge	.LBB25_30
# %bb.21:                               # %for.body53
                                        #   in Loop: Header=BB25_20 Depth=2
	movl	$0, -4(%rbp)
.LBB25_22:                              # %for.cond54
                                        #   Parent Loop BB25_18 Depth=1
                                        #     Parent Loop BB25_20 Depth=2
                                        # =>    This Inner Loop Header: Depth=3
	cmpl	$8, -4(%rbp)
	jge	.LBB25_28
# %bb.23:                               # %for.body57
                                        #   in Loop: Header=BB25_22 Depth=3
	movl	-4(%rbp), %eax
	shll	$3, %eax
	addl	-12(%rbp), %eax
	movl	%eax, -20(%rbp)
	movq	img, %rax
	cmpl	$2, 24(%rax)
	jne	.LBB25_25
# %bb.24:                               # %if.then63
                                        #   in Loop: Header=BB25_22 Depth=3
	movslq	-20(%rbp), %rax
	movswl	Offset8_intra_default_intra(,%rax,2), %eax
	movl	-16(%rbp), %ecx
                                        # kill: def $cl killed $ecx
	shll	%cl, %eax
	movslq	-8(%rbp), %rcx
	shlq	$8, %rcx
	movabsq	$LevelOffset8x8Luma_Intra, %rdx
	addq	%rcx, %rdx
	movslq	-12(%rbp), %rcx
	shlq	$5, %rcx
	addq	%rcx, %rdx
	movslq	-4(%rbp), %rcx
	movl	%eax, (%rdx,%rcx,4)
	jmp	.LBB25_26
.LBB25_25:                              # %if.else74
                                        #   in Loop: Header=BB25_22 Depth=3
	movslq	-20(%rbp), %rax
	movswl	Offset8_intra_default_inter(,%rax,2), %eax
	movl	-16(%rbp), %ecx
                                        # kill: def $cl killed $ecx
	shll	%cl, %eax
	movslq	-8(%rbp), %rcx
	shlq	$8, %rcx
	movabsq	$LevelOffset8x8Luma_Intra, %rdx
	addq	%rcx, %rdx
	movslq	-12(%rbp), %rcx
	shlq	$5, %rcx
	addq	%rcx, %rdx
	movslq	-4(%rbp), %rcx
	movl	%eax, (%rdx,%rcx,4)
.LBB25_26:                              # %if.end85
                                        #   in Loop: Header=BB25_22 Depth=3
	movslq	-20(%rbp), %rax
	movswl	Offset8_inter_default(,%rax,2), %eax
	movl	-16(%rbp), %ecx
                                        # kill: def $cl killed $ecx
	shll	%cl, %eax
	movslq	-8(%rbp), %rcx
	shlq	$8, %rcx
	movabsq	$LevelOffset8x8Luma_Inter, %rdx
	addq	%rcx, %rdx
	movslq	-12(%rbp), %rcx
	shlq	$5, %rcx
	addq	%rcx, %rdx
	movslq	-4(%rbp), %rcx
	movl	%eax, (%rdx,%rcx,4)
# %bb.27:                               # %for.inc96
                                        #   in Loop: Header=BB25_22 Depth=3
	movl	-4(%rbp), %eax
	addl	$1, %eax
	movl	%eax, -4(%rbp)
	jmp	.LBB25_22
.LBB25_28:                              # %for.end98
                                        #   in Loop: Header=BB25_20 Depth=2
	jmp	.LBB25_29
.LBB25_29:                              # %for.inc99
                                        #   in Loop: Header=BB25_20 Depth=2
	movl	-12(%rbp), %eax
	addl	$1, %eax
	movl	%eax, -12(%rbp)
	jmp	.LBB25_20
.LBB25_30:                              # %for.end101
                                        #   in Loop: Header=BB25_18 Depth=1
	jmp	.LBB25_31
.LBB25_31:                              # %for.inc102
                                        #   in Loop: Header=BB25_18 Depth=1
	movl	-8(%rbp), %eax
	addl	$1, %eax
	movl	%eax, -8(%rbp)
	jmp	.LBB25_18
.LBB25_32:                              # %for.end104
	jmp	.LBB25_33
.LBB25_33:                              # %if.end105
	cmpl	$1348249327, -24(%rbp)  # imm = 0x505CA6EF
	jne	.LBB25_35
.LBB25_34:
	addq	$32, %rsp
	popq	%rbp
	.cfi_def_cfa %rsp, 8
	retq
.LBB25_35:                              # %func_exit
	.cfi_def_cfa %rbp, 16
	callq	detect_breach
	jmp	.LBB25_34
.Lfunc_end25:
	.size	CalculateOffset8Param.21, .Lfunc_end25-CalculateOffset8Param.21
	.cfi_endproc
                                        # -- End function
	.globl	ParseQOffsetMatrix.22   # -- Begin function ParseQOffsetMatrix.22
	.p2align	4, 0x90
	.type	ParseQOffsetMatrix.22,@function
ParseQOffsetMatrix.22:                  # @ParseQOffsetMatrix.22
	.cfi_startproc
# %bb.0:                                # %entry
	pushq	%rbp
	.cfi_def_cfa_offset 16
	.cfi_offset %rbp, -16
	movq	%rsp, %rbp
	.cfi_def_cfa_register %rbp
	subq	$8096, %rsp             # imm = 0x1FA0
	movl	$1091850231, -48(%rbp)  # imm = 0x41144FF7
	movq	%rdi, -88(%rbp)
	movl	%esi, -56(%rbp)
	movl	$0, -28(%rbp)
	movl	$0, -36(%rbp)
	movl	$0, -20(%rbp)
	movq	-88(%rbp), %rax
	movq	%rax, -16(%rbp)
	movq	-88(%rbp), %rax
	movslq	-56(%rbp), %rcx
	addq	%rcx, %rax
	movq	%rax, -80(%rbp)
.LBB26_1:                               # %while.cond
                                        # =>This Loop Header: Depth=1
                                        #     Child Loop BB26_6 Depth 2
	movq	-16(%rbp), %rax
	cmpq	-80(%rbp), %rax
	jae	.LBB26_25
# %bb.2:                                # %while.body
                                        #   in Loop: Header=BB26_1 Depth=1
	movq	-16(%rbp), %rax
	movsbl	(%rax), %eax
	addl	$-9, %eax
	movl	%eax, %ecx
	subl	$35, %ecx
	ja	.LBB26_21
# %bb.3:                                # %while.body
                                        #   in Loop: Header=BB26_1 Depth=1
	movq	.LJTI26_0(,%rax,8), %rax
	jmpq	*%rax
.LBB26_4:                               # %sw.bb
                                        #   in Loop: Header=BB26_1 Depth=1
	movq	-16(%rbp), %rax
	addq	$1, %rax
	movq	%rax, -16(%rbp)
	jmp	.LBB26_24
.LBB26_5:                               # %sw.bb1
                                        #   in Loop: Header=BB26_1 Depth=1
	movq	-16(%rbp), %rax
	movb	$0, (%rax)
.LBB26_6:                               # %while.cond2
                                        #   Parent Loop BB26_1 Depth=1
                                        # =>  This Inner Loop Header: Depth=2
	xorl	%eax, %eax
	movq	-16(%rbp), %rcx
	movsbl	(%rcx), %ecx
	cmpl	$10, %ecx
	je	.LBB26_8
# %bb.7:                                # %land.rhs
                                        #   in Loop: Header=BB26_6 Depth=2
	movq	-16(%rbp), %rax
	cmpq	-80(%rbp), %rax
	setb	%al
.LBB26_8:                               # %land.end
                                        #   in Loop: Header=BB26_6 Depth=2
	testb	$1, %al
	jne	.LBB26_9
	jmp	.LBB26_10
.LBB26_9:                               # %while.body8
                                        #   in Loop: Header=BB26_6 Depth=2
	movq	-16(%rbp), %rax
	addq	$1, %rax
	movq	%rax, -16(%rbp)
	jmp	.LBB26_6
.LBB26_10:                              # %while.end
                                        #   in Loop: Header=BB26_1 Depth=1
	movl	$0, -36(%rbp)
	movl	$0, -20(%rbp)
	jmp	.LBB26_24
.LBB26_11:                              # %sw.bb10
                                        #   in Loop: Header=BB26_1 Depth=1
	movl	$0, -20(%rbp)
	movl	$0, -36(%rbp)
	movq	-16(%rbp), %rax
	movq	%rax, %rcx
	addq	$1, %rcx
	movq	%rcx, -16(%rbp)
	movb	$0, (%rax)
	jmp	.LBB26_24
.LBB26_12:                              # %sw.bb12
                                        #   in Loop: Header=BB26_1 Depth=1
	cmpl	$0, -36(%rbp)
	je	.LBB26_14
# %bb.13:                               # %if.then
                                        #   in Loop: Header=BB26_1 Depth=1
	movq	-16(%rbp), %rax
	addq	$1, %rax
	movq	%rax, -16(%rbp)
	jmp	.LBB26_15
.LBB26_14:                              # %if.else
                                        #   in Loop: Header=BB26_1 Depth=1
	movq	-16(%rbp), %rax
	movq	%rax, %rcx
	addq	$1, %rcx
	movq	%rcx, -16(%rbp)
	movb	$0, (%rax)
	movl	$0, -20(%rbp)
.LBB26_15:                              # %if.end
                                        #   in Loop: Header=BB26_1 Depth=1
	jmp	.LBB26_24
.LBB26_16:                              # %sw.bb15
                                        #   in Loop: Header=BB26_1 Depth=1
	movq	-16(%rbp), %rax
	movq	%rax, %rcx
	addq	$1, %rcx
	movq	%rcx, -16(%rbp)
	movb	$0, (%rax)
	cmpl	$0, -36(%rbp)
	jne	.LBB26_18
# %bb.17:                               # %if.then18
                                        #   in Loop: Header=BB26_1 Depth=1
	movq	-16(%rbp), %rax
	movl	-28(%rbp), %ecx
	movl	%ecx, %edx
	addl	$1, %edx
	movl	%edx, -28(%rbp)
	movslq	%ecx, %rcx
	movq	%rax, -8096(%rbp,%rcx,8)
	movl	-20(%rbp), %eax
	xorl	$-1, %eax
	movl	%eax, -20(%rbp)
	jmp	.LBB26_19
.LBB26_18:                              # %if.else21
                                        #   in Loop: Header=BB26_1 Depth=1
	movl	$0, -20(%rbp)
.LBB26_19:                              # %if.end22
                                        #   in Loop: Header=BB26_1 Depth=1
	movl	-36(%rbp), %eax
	xorl	$-1, %eax
	movl	%eax, -36(%rbp)
	jmp	.LBB26_24
.LBB26_20:                              # %sw.bb24
                                        #   in Loop: Header=BB26_1 Depth=1
	movq	-16(%rbp), %rax
	addq	$1, %rax
	movq	%rax, -16(%rbp)
	movl	$0, -20(%rbp)
	jmp	.LBB26_24
.LBB26_21:                              # %sw.default
                                        #   in Loop: Header=BB26_1 Depth=1
	cmpl	$0, -20(%rbp)
	jne	.LBB26_23
# %bb.22:                               # %if.then27
                                        #   in Loop: Header=BB26_1 Depth=1
	movq	-16(%rbp), %rax
	movl	-28(%rbp), %ecx
	movl	%ecx, %edx
	addl	$1, %edx
	movl	%edx, -28(%rbp)
	movslq	%ecx, %rcx
	movq	%rax, -8096(%rbp,%rcx,8)
	movl	-20(%rbp), %eax
	xorl	$-1, %eax
	movl	%eax, -20(%rbp)
.LBB26_23:                              # %if.end32
                                        #   in Loop: Header=BB26_1 Depth=1
	movq	-16(%rbp), %rax
	addq	$1, %rax
	movq	%rax, -16(%rbp)
.LBB26_24:                              # %sw.epilog
                                        #   in Loop: Header=BB26_1 Depth=1
	jmp	.LBB26_1
.LBB26_25:                              # %while.end34
	movl	-28(%rbp), %eax
	addl	$-1, %eax
	movl	%eax, -28(%rbp)
	movl	$0, -24(%rbp)
.LBB26_26:                              # %for.cond
                                        # =>This Loop Header: Depth=1
                                        #     Child Loop BB26_35 Depth 2
	movl	-24(%rbp), %eax
	cmpl	-28(%rbp), %eax
	jge	.LBB26_42
# %bb.27:                               # %for.body
                                        #   in Loop: Header=BB26_26 Depth=1
	movl	$0, -4(%rbp)
	movl	-24(%rbp), %eax
	addl	-4(%rbp), %eax
	cltq
	movq	-8096(%rbp,%rax,8), %rdi
	leaq	-52(%rbp), %rsi
	callq	CheckOffsetParameterName
	xorl	%ecx, %ecx
	movl	%eax, -40(%rbp)
	cmpl	%eax, %ecx
	jle	.LBB26_29
# %bb.28:                               # %if.then41
                                        #   in Loop: Header=BB26_26 Depth=1
	movl	-24(%rbp), %eax
	addl	-4(%rbp), %eax
	cltq
	movq	-8096(%rbp,%rax,8), %rcx
	movabsq	$errortext, %rdi
	movl	$300, %esi              # imm = 0x12C
	movabsq	$.L.str, %rdx
	movb	$0, %al
	callq	snprintf
	movabsq	$errortext, %rdi
	movl	$300, %esi              # imm = 0x12C
	callq	error
.LBB26_29:                              # %if.end46
                                        #   in Loop: Header=BB26_26 Depth=1
	movl	-4(%rbp), %eax
	addl	$1, %eax
	movl	%eax, -4(%rbp)
	movl	-24(%rbp), %eax
	addl	-4(%rbp), %eax
	cltq
	movq	-8096(%rbp,%rax,8), %rsi
	movl	$.L.str.1, %edi
	callq	strcmp
	cmpl	$0, %eax
	je	.LBB26_31
# %bb.30:                               # %if.then53
                                        #   in Loop: Header=BB26_26 Depth=1
	movabsq	$errortext, %rdi
	movl	$300, %esi              # imm = 0x12C
	movabsq	$.L.str.2, %rdx
	movb	$0, %al
	callq	snprintf
	movabsq	$errortext, %rdi
	movl	$300, %esi              # imm = 0x12C
	callq	error
.LBB26_31:                              # %if.end55
                                        #   in Loop: Header=BB26_26 Depth=1
	movl	-4(%rbp), %eax
	addl	$1, %eax
	movl	%eax, -4(%rbp)
	cmpl	$0, -52(%rbp)
	jne	.LBB26_33
# %bb.32:                               # %if.then58
                                        #   in Loop: Header=BB26_26 Depth=1
	movl	$16, -44(%rbp)
	movslq	-40(%rbp), %rax
	shlq	$5, %rax
	movabsq	$OffsetList4x4input, %rcx
	addq	%rax, %rcx
	movq	%rcx, -72(%rbp)
	movslq	-40(%rbp), %rax
	movl	$1, offset4x4_check(,%rax,4)
	jmp	.LBB26_34
.LBB26_33:                              # %if.else63
                                        #   in Loop: Header=BB26_26 Depth=1
	movl	$64, -44(%rbp)
	movslq	-40(%rbp), %rax
	shlq	$7, %rax
	movabsq	$OffsetList8x8input, %rcx
	addq	%rax, %rcx
	movq	%rcx, -72(%rbp)
	movslq	-40(%rbp), %rax
	movl	$1, offset8x8_check(,%rax,4)
.LBB26_34:                              # %if.end69
                                        #   in Loop: Header=BB26_26 Depth=1
	movl	$0, -32(%rbp)
.LBB26_35:                              # %for.cond70
                                        #   Parent Loop BB26_26 Depth=1
                                        # =>  This Inner Loop Header: Depth=2
	movl	-32(%rbp), %eax
	cmpl	-44(%rbp), %eax
	jge	.LBB26_40
# %bb.36:                               # %for.body73
                                        #   in Loop: Header=BB26_35 Depth=2
	movl	-24(%rbp), %eax
	addl	-4(%rbp), %eax
	addl	-32(%rbp), %eax
	cltq
	movq	-8096(%rbp,%rax,8), %rdi
	movabsq	$.L.str.3, %rsi
	leaq	-60(%rbp), %rdx
	movb	$0, %al
	callq	__isoc99_sscanf
	movl	$1, %ecx
	cmpl	%eax, %ecx
	je	.LBB26_38
# %bb.37:                               # %if.then81
                                        #   in Loop: Header=BB26_35 Depth=2
	movslq	-24(%rbp), %rax
	movq	-8096(%rbp,%rax,8), %rcx
	movl	-24(%rbp), %eax
	addl	-4(%rbp), %eax
	addl	-32(%rbp), %eax
	cltq
	movq	-8096(%rbp,%rax,8), %r8
	movabsq	$errortext, %rdi
	movl	$300, %esi              # imm = 0x12C
	movabsq	$.L.str.4, %rdx
	movb	$0, %al
	callq	snprintf
	movabsq	$errortext, %rdi
	movl	$300, %esi              # imm = 0x12C
	callq	error
.LBB26_38:                              # %if.end89
                                        #   in Loop: Header=BB26_35 Depth=2
	movl	-60(%rbp), %eax
	movq	-72(%rbp), %rcx
	movslq	-32(%rbp), %rdx
	movw	%ax, (%rcx,%rdx,2)
# %bb.39:                               # %for.inc
                                        #   in Loop: Header=BB26_35 Depth=2
	movl	-32(%rbp), %eax
	addl	$1, %eax
	movl	%eax, -32(%rbp)
	jmp	.LBB26_35
.LBB26_40:                              # %for.end
                                        #   in Loop: Header=BB26_26 Depth=1
	movl	-32(%rbp), %eax
	addl	-4(%rbp), %eax
	movl	%eax, -4(%rbp)
	movabsq	$.L.str.5, %rdi
	movb	$0, %al
	callq	printf
# %bb.41:                               # %for.inc96
                                        #   in Loop: Header=BB26_26 Depth=1
	movl	-4(%rbp), %eax
	addl	-24(%rbp), %eax
	movl	%eax, -24(%rbp)
	jmp	.LBB26_26
.LBB26_42:                              # %for.end98
	cmpl	$1091850231, -48(%rbp)  # imm = 0x41144FF7
	jne	.LBB26_44
.LBB26_43:
	addq	$8096, %rsp             # imm = 0x1FA0
	popq	%rbp
	.cfi_def_cfa %rsp, 8
	retq
.LBB26_44:                              # %func_exit
	.cfi_def_cfa %rbp, 16
	callq	detect_breach
	jmp	.LBB26_43
.Lfunc_end26:
	.size	ParseQOffsetMatrix.22, .Lfunc_end26-ParseQOffsetMatrix.22
	.cfi_endproc
	.section	.rodata,"a",@progbits
	.p2align	3
.LJTI26_0:
	.quad	.LBB26_12
	.quad	.LBB26_11
	.quad	.LBB26_21
	.quad	.LBB26_21
	.quad	.LBB26_4
	.quad	.LBB26_21
	.quad	.LBB26_21
	.quad	.LBB26_21
	.quad	.LBB26_21
	.quad	.LBB26_21
	.quad	.LBB26_21
	.quad	.LBB26_21
	.quad	.LBB26_21
	.quad	.LBB26_21
	.quad	.LBB26_21
	.quad	.LBB26_21
	.quad	.LBB26_21
	.quad	.LBB26_21
	.quad	.LBB26_21
	.quad	.LBB26_21
	.quad	.LBB26_21
	.quad	.LBB26_21
	.quad	.LBB26_21
	.quad	.LBB26_12
	.quad	.LBB26_21
	.quad	.LBB26_16
	.quad	.LBB26_5
	.quad	.LBB26_21
	.quad	.LBB26_21
	.quad	.LBB26_21
	.quad	.LBB26_21
	.quad	.LBB26_21
	.quad	.LBB26_21
	.quad	.LBB26_21
	.quad	.LBB26_21
	.quad	.LBB26_20
                                        # -- End function
	.text
	.globl	ParseQOffsetMatrix.23   # -- Begin function ParseQOffsetMatrix.23
	.p2align	4, 0x90
	.type	ParseQOffsetMatrix.23,@function
ParseQOffsetMatrix.23:                  # @ParseQOffsetMatrix.23
	.cfi_startproc
# %bb.0:                                # %entry
	pushq	%rbp
	.cfi_def_cfa_offset 16
	.cfi_offset %rbp, -16
	movq	%rsp, %rbp
	.cfi_def_cfa_register %rbp
	subq	$8096, %rsp             # imm = 0x1FA0
	movl	$871192378, -56(%rbp)   # imm = 0x33ED573A
	movq	%rdi, -72(%rbp)
	movl	%esi, -60(%rbp)
	movl	$0, -32(%rbp)
	movl	$0, -36(%rbp)
	movl	$0, -20(%rbp)
	movq	-72(%rbp), %rax
	movq	%rax, -16(%rbp)
	movq	-72(%rbp), %rax
	movslq	-60(%rbp), %rcx
	addq	%rcx, %rax
	movq	%rax, -88(%rbp)
.LBB27_1:                               # %while.cond
                                        # =>This Loop Header: Depth=1
                                        #     Child Loop BB27_6 Depth 2
	movq	-16(%rbp), %rax
	cmpq	-88(%rbp), %rax
	jae	.LBB27_25
# %bb.2:                                # %while.body
                                        #   in Loop: Header=BB27_1 Depth=1
	movq	-16(%rbp), %rax
	movsbl	(%rax), %eax
	addl	$-9, %eax
	movl	%eax, %ecx
	subl	$35, %ecx
	ja	.LBB27_21
# %bb.3:                                # %while.body
                                        #   in Loop: Header=BB27_1 Depth=1
	movq	.LJTI27_0(,%rax,8), %rax
	jmpq	*%rax
.LBB27_4:                               # %sw.bb
                                        #   in Loop: Header=BB27_1 Depth=1
	movq	-16(%rbp), %rax
	addq	$1, %rax
	movq	%rax, -16(%rbp)
	jmp	.LBB27_24
.LBB27_5:                               # %sw.bb1
                                        #   in Loop: Header=BB27_1 Depth=1
	movq	-16(%rbp), %rax
	movb	$0, (%rax)
.LBB27_6:                               # %while.cond2
                                        #   Parent Loop BB27_1 Depth=1
                                        # =>  This Inner Loop Header: Depth=2
	xorl	%eax, %eax
	movq	-16(%rbp), %rcx
	movsbl	(%rcx), %ecx
	cmpl	$10, %ecx
	je	.LBB27_8
# %bb.7:                                # %land.rhs
                                        #   in Loop: Header=BB27_6 Depth=2
	movq	-16(%rbp), %rax
	cmpq	-88(%rbp), %rax
	setb	%al
.LBB27_8:                               # %land.end
                                        #   in Loop: Header=BB27_6 Depth=2
	testb	$1, %al
	jne	.LBB27_9
	jmp	.LBB27_10
.LBB27_9:                               # %while.body8
                                        #   in Loop: Header=BB27_6 Depth=2
	movq	-16(%rbp), %rax
	addq	$1, %rax
	movq	%rax, -16(%rbp)
	jmp	.LBB27_6
.LBB27_10:                              # %while.end
                                        #   in Loop: Header=BB27_1 Depth=1
	movl	$0, -36(%rbp)
	movl	$0, -20(%rbp)
	jmp	.LBB27_24
.LBB27_11:                              # %sw.bb10
                                        #   in Loop: Header=BB27_1 Depth=1
	movl	$0, -20(%rbp)
	movl	$0, -36(%rbp)
	movq	-16(%rbp), %rax
	movq	%rax, %rcx
	addq	$1, %rcx
	movq	%rcx, -16(%rbp)
	movb	$0, (%rax)
	jmp	.LBB27_24
.LBB27_12:                              # %sw.bb12
                                        #   in Loop: Header=BB27_1 Depth=1
	cmpl	$0, -36(%rbp)
	je	.LBB27_14
# %bb.13:                               # %if.then
                                        #   in Loop: Header=BB27_1 Depth=1
	movq	-16(%rbp), %rax
	addq	$1, %rax
	movq	%rax, -16(%rbp)
	jmp	.LBB27_15
.LBB27_14:                              # %if.else
                                        #   in Loop: Header=BB27_1 Depth=1
	movq	-16(%rbp), %rax
	movq	%rax, %rcx
	addq	$1, %rcx
	movq	%rcx, -16(%rbp)
	movb	$0, (%rax)
	movl	$0, -20(%rbp)
.LBB27_15:                              # %if.end
                                        #   in Loop: Header=BB27_1 Depth=1
	jmp	.LBB27_24
.LBB27_16:                              # %sw.bb15
                                        #   in Loop: Header=BB27_1 Depth=1
	movq	-16(%rbp), %rax
	movq	%rax, %rcx
	addq	$1, %rcx
	movq	%rcx, -16(%rbp)
	movb	$0, (%rax)
	cmpl	$0, -36(%rbp)
	jne	.LBB27_18
# %bb.17:                               # %if.then18
                                        #   in Loop: Header=BB27_1 Depth=1
	movq	-16(%rbp), %rax
	movl	-32(%rbp), %ecx
	movl	%ecx, %edx
	addl	$1, %edx
	movl	%edx, -32(%rbp)
	movslq	%ecx, %rcx
	movq	%rax, -8096(%rbp,%rcx,8)
	movl	-20(%rbp), %eax
	xorl	$-1, %eax
	movl	%eax, -20(%rbp)
	jmp	.LBB27_19
.LBB27_18:                              # %if.else21
                                        #   in Loop: Header=BB27_1 Depth=1
	movl	$0, -20(%rbp)
.LBB27_19:                              # %if.end22
                                        #   in Loop: Header=BB27_1 Depth=1
	movl	-36(%rbp), %eax
	xorl	$-1, %eax
	movl	%eax, -36(%rbp)
	jmp	.LBB27_24
.LBB27_20:                              # %sw.bb24
                                        #   in Loop: Header=BB27_1 Depth=1
	movq	-16(%rbp), %rax
	addq	$1, %rax
	movq	%rax, -16(%rbp)
	movl	$0, -20(%rbp)
	jmp	.LBB27_24
.LBB27_21:                              # %sw.default
                                        #   in Loop: Header=BB27_1 Depth=1
	cmpl	$0, -20(%rbp)
	jne	.LBB27_23
# %bb.22:                               # %if.then27
                                        #   in Loop: Header=BB27_1 Depth=1
	movq	-16(%rbp), %rax
	movl	-32(%rbp), %ecx
	movl	%ecx, %edx
	addl	$1, %edx
	movl	%edx, -32(%rbp)
	movslq	%ecx, %rcx
	movq	%rax, -8096(%rbp,%rcx,8)
	movl	-20(%rbp), %eax
	xorl	$-1, %eax
	movl	%eax, -20(%rbp)
.LBB27_23:                              # %if.end32
                                        #   in Loop: Header=BB27_1 Depth=1
