	.text
	.file	"q_offsets.c"
	.globl	CheckOffsetParameterName # -- Begin function CheckOffsetParameterName
	.p2align	4, 0x90
	.type	CheckOffsetParameterName,@function
CheckOffsetParameterName:               # @CheckOffsetParameterName
	.cfi_startproc
# %bb.0:                                # %rand_bb
	pushq	%rbp
	.cfi_def_cfa_offset 16
	.cfi_offset %rbp, -16
	movq	%rsp, %rbp
	.cfi_def_cfa_register %rbp
	pushq	%r14
	pushq	%rbx
	.cfi_offset %rbx, -32
	.cfi_offset %r14, -24
	movq	%rsi, %r14
	movq	%rdi, %rbx
	callq	get_rand
	cmpl	$0, %eax
	jne	.LBB0_9
# %bb.1:                                # %func_CheckOffsetParameterName.2
	movq	%rbx, %rdi
	movq	%r14, %rsi
	callq	CheckOffsetParameterName.2
	popq	%rbx
	popq	%r14
	popq	%rbp
	.cfi_def_cfa %rsp, 8
	retq
.LBB0_2:                                # %func_CheckOffsetParameterName.7
	.cfi_def_cfa %rbp, 16
	movq	%rbx, %rdi
	movq	%r14, %rsi
	callq	CheckOffsetParameterName.7
	popq	%rbx
	popq	%r14
	popq	%rbp
	.cfi_def_cfa %rsp, 8
	retq
.LBB0_3:                                # %func_CheckOffsetParameterName.14
	.cfi_def_cfa %rbp, 16
	movq	%rbx, %rdi
	movq	%r14, %rsi
	callq	CheckOffsetParameterName.14
	popq	%rbx
	popq	%r14
	popq	%rbp
	.cfi_def_cfa %rsp, 8
	retq
.LBB0_4:                                # %func_CheckOffsetParameterName.19
	.cfi_def_cfa %rbp, 16
	movq	%rbx, %rdi
	movq	%r14, %rsi
	callq	CheckOffsetParameterName.19
	popq	%rbx
	popq	%r14
	popq	%rbp
	.cfi_def_cfa %rsp, 8
	retq
.LBB0_5:                                # %func_CheckOffsetParameterName.23
	.cfi_def_cfa %rbp, 16
	movq	%rbx, %rdi
	movq	%r14, %rsi
	callq	CheckOffsetParameterName.23
	popq	%rbx
	popq	%r14
	popq	%rbp
	.cfi_def_cfa %rsp, 8
	retq
.LBB0_6:                                # %func_CheckOffsetParameterName.25
	.cfi_def_cfa %rbp, 16
	movq	%rbx, %rdi
	movq	%r14, %rsi
	callq	CheckOffsetParameterName.25
	popq	%rbx
	popq	%r14
	popq	%rbp
	.cfi_def_cfa %rsp, 8
	retq
.LBB0_7:                                # %func_CheckOffsetParameterName.29
	.cfi_def_cfa %rbp, 16
	movq	%rbx, %rdi
	movq	%r14, %rsi
	callq	CheckOffsetParameterName.29
	popq	%rbx
	popq	%r14
	popq	%rbp
	.cfi_def_cfa %rsp, 8
	retq
.LBB0_8:                                # %func_CheckOffsetParameterName.30
	.cfi_def_cfa %rbp, 16
	movq	%rbx, %rdi
	movq	%r14, %rsi
	callq	CheckOffsetParameterName.30
	popq	%rbx
	popq	%r14
	popq	%rbp
	.cfi_def_cfa %rsp, 8
	retq
.LBB0_9:                                # %ctrl0
	.cfi_def_cfa %rbp, 16
	cmpl	$1, %eax
	je	.LBB0_2
# %bb.10:                               # %ctrl1
	cmpl	$2, %eax
	je	.LBB0_3
# %bb.11:                               # %ctrl2
	cmpl	$3, %eax
	je	.LBB0_4
# %bb.12:                               # %ctrl3
	cmpl	$4, %eax
	je	.LBB0_5
# %bb.13:                               # %ctrl4
	cmpl	$5, %eax
	je	.LBB0_6
# %bb.14:                               # %ctrl5
	cmpl	$6, %eax
	je	.LBB0_7
	jmp	.LBB0_8
.Lfunc_end0:
	.size	CheckOffsetParameterName, .Lfunc_end0-CheckOffsetParameterName
	.cfi_endproc
                                        # -- End function
	.globl	ParseQOffsetMatrix      # -- Begin function ParseQOffsetMatrix
	.p2align	4, 0x90
	.type	ParseQOffsetMatrix,@function
ParseQOffsetMatrix:                     # @ParseQOffsetMatrix
	.cfi_startproc
# %bb.0:                                # %rand_bb
	pushq	%rbp
	.cfi_def_cfa_offset 16
	.cfi_offset %rbp, -16
	movq	%rsp, %rbp
	.cfi_def_cfa_register %rbp
	pushq	%r14
	pushq	%rbx
	.cfi_offset %rbx, -32
	.cfi_offset %r14, -24
	movl	%esi, %r14d
	movq	%rdi, %rbx
	callq	get_rand
	cmpl	$0, %eax
	jne	.LBB1_9
# %bb.1:                                # %func_ParseQOffsetMatrix.3
	movq	%rbx, %rdi
	movl	%r14d, %esi
	callq	ParseQOffsetMatrix.3
	popq	%rbx
	popq	%r14
	popq	%rbp
	.cfi_def_cfa %rsp, 8
	retq
.LBB1_2:                                # %func_ParseQOffsetMatrix.8
	.cfi_def_cfa %rbp, 16
	movq	%rbx, %rdi
	movl	%r14d, %esi
	callq	ParseQOffsetMatrix.8
	popq	%rbx
	popq	%r14
	popq	%rbp
	.cfi_def_cfa %rsp, 8
	retq
.LBB1_3:                                # %func_ParseQOffsetMatrix.10
	.cfi_def_cfa %rbp, 16
	movq	%rbx, %rdi
	movl	%r14d, %esi
	callq	ParseQOffsetMatrix.10
	popq	%rbx
	popq	%r14
	popq	%rbp
	.cfi_def_cfa %rsp, 8
	retq
.LBB1_4:                                # %func_ParseQOffsetMatrix.12
	.cfi_def_cfa %rbp, 16
	movq	%rbx, %rdi
	movl	%r14d, %esi
	callq	ParseQOffsetMatrix.12
	popq	%rbx
	popq	%r14
	popq	%rbp
	.cfi_def_cfa %rsp, 8
	retq
.LBB1_5:                                # %func_ParseQOffsetMatrix.15
	.cfi_def_cfa %rbp, 16
	movq	%rbx, %rdi
	movl	%r14d, %esi
	callq	ParseQOffsetMatrix.15
	popq	%rbx
	popq	%r14
	popq	%rbp
	.cfi_def_cfa %rsp, 8
	retq
.LBB1_6:                                # %func_ParseQOffsetMatrix.20
	.cfi_def_cfa %rbp, 16
	movq	%rbx, %rdi
	movl	%r14d, %esi
	callq	ParseQOffsetMatrix.20
	popq	%rbx
	popq	%r14
	popq	%rbp
	.cfi_def_cfa %rsp, 8
	retq
.LBB1_7:                                # %func_ParseQOffsetMatrix.22
	.cfi_def_cfa %rbp, 16
	movq	%rbx, %rdi
	movl	%r14d, %esi
	callq	ParseQOffsetMatrix.22
	popq	%rbx
	popq	%r14
	popq	%rbp
	.cfi_def_cfa %rsp, 8
	retq
.LBB1_8:                                # %func_ParseQOffsetMatrix.27
	.cfi_def_cfa %rbp, 16
	movq	%rbx, %rdi
	movl	%r14d, %esi
	callq	ParseQOffsetMatrix.27
	popq	%rbx
	popq	%r14
	popq	%rbp
	.cfi_def_cfa %rsp, 8
	retq
.LBB1_9:                                # %ctrl0
	.cfi_def_cfa %rbp, 16
	cmpl	$1, %eax
	je	.LBB1_2
# %bb.10:                               # %ctrl1
	cmpl	$2, %eax
	je	.LBB1_3
# %bb.11:                               # %ctrl2
	cmpl	$3, %eax
	je	.LBB1_4
# %bb.12:                               # %ctrl3
	cmpl	$4, %eax
	je	.LBB1_5
# %bb.13:                               # %ctrl4
	cmpl	$5, %eax
	je	.LBB1_6
# %bb.14:                               # %ctrl5
	cmpl	$6, %eax
	je	.LBB1_7
	jmp	.LBB1_8
.Lfunc_end1:
	.size	ParseQOffsetMatrix, .Lfunc_end1-ParseQOffsetMatrix
	.cfi_endproc
                                        # -- End function
	.globl	Init_QOffsetMatrix      # -- Begin function Init_QOffsetMatrix
	.p2align	4, 0x90
	.type	Init_QOffsetMatrix,@function
Init_QOffsetMatrix:                     # @Init_QOffsetMatrix
	.cfi_startproc
# %bb.0:                                # %entry
	pushq	%rbp
	.cfi_def_cfa_offset 16
	.cfi_offset %rbp, -16
	movq	%rsp, %rbp
	.cfi_def_cfa_register %rbp
	pushq	%rbx
	pushq	%rax
	.cfi_offset %rbx, -24
	movq	input, %rax
	cmpl	$0, 3584(%rax)
	je	.LBB2_5
# %bb.1:                                # %if.then
	movq	input, %rsi
	addq	$3384, %rsi             # imm = 0xD38
	movabsq	$.L.str.6, %rdi
	movb	$0, %al
	callq	printf
	movq	input, %rdi
	addq	$3384, %rdi             # imm = 0xD38
	xorl	%esi, %esi
	callq	GetConfigFileContent
	movq	%rax, -16(%rbp)
	cmpq	$0, -16(%rbp)
	je	.LBB2_3
# %bb.2:                                # %if.then4
	movq	-16(%rbp), %rbx
	movq	-16(%rbp), %rdi
	callq	strlen
	movq	%rbx, %rdi
	movl	%eax, %esi
	callq	ParseQOffsetMatrix
	jmp	.LBB2_4
.LBB2_3:                                # %if.else
	movabsq	$.L.str.7, %rdi
	movabsq	$errortext, %rsi
	movb	$0, %al
	callq	printf
	movq	input, %rax
	movl	$0, 3584(%rax)
.LBB2_4:                                # %if.end
	movabsq	$.L.str.8, %rdi
	movb	$0, %al
	callq	printf
	movq	-16(%rbp), %rdi
	callq	free
.LBB2_5:                                # %if.end9
	addq	$8, %rsp
	popq	%rbx
	popq	%rbp
	.cfi_def_cfa %rsp, 8
	retq
.Lfunc_end2:
	.size	Init_QOffsetMatrix, .Lfunc_end2-Init_QOffsetMatrix
	.cfi_endproc
                                        # -- End function
	.globl	CalculateOffsetParam    # -- Begin function CalculateOffsetParam
	.p2align	4, 0x90
	.type	CalculateOffsetParam,@function
CalculateOffsetParam:                   # @CalculateOffsetParam
	.cfi_startproc
# %bb.0:                                # %rand_bb
	pushq	%rbp
	.cfi_def_cfa_offset 16
	.cfi_offset %rbp, -16
	movq	%rsp, %rbp
	.cfi_def_cfa_register %rbp
	callq	get_rand
	cmpl	$0, %eax
	jne	.LBB3_9
# %bb.1:                                # %func_CalculateOffsetParam.4
	callq	CalculateOffsetParam.4
	popq	%rbp
	.cfi_def_cfa %rsp, 8
	retq
.LBB3_2:                                # %func_CalculateOffsetParam.5
	.cfi_def_cfa %rbp, 16
	callq	CalculateOffsetParam.5
	popq	%rbp
	.cfi_def_cfa %rsp, 8
	retq
.LBB3_3:                                # %func_CalculateOffsetParam.6
	.cfi_def_cfa %rbp, 16
	callq	CalculateOffsetParam.6
	popq	%rbp
	.cfi_def_cfa %rsp, 8
	retq
.LBB3_4:                                # %func_CalculateOffsetParam.9
	.cfi_def_cfa %rbp, 16
	callq	CalculateOffsetParam.9
	popq	%rbp
	.cfi_def_cfa %rsp, 8
	retq
.LBB3_5:                                # %func_CalculateOffsetParam.11
	.cfi_def_cfa %rbp, 16
	callq	CalculateOffsetParam.11
	popq	%rbp
	.cfi_def_cfa %rsp, 8
	retq
.LBB3_6:                                # %func_CalculateOffsetParam.13
	.cfi_def_cfa %rbp, 16
	callq	CalculateOffsetParam.13
	popq	%rbp
	.cfi_def_cfa %rsp, 8
	retq
.LBB3_7:                                # %func_CalculateOffsetParam.17
	.cfi_def_cfa %rbp, 16
	callq	CalculateOffsetParam.17
	popq	%rbp
	.cfi_def_cfa %rsp, 8
	retq
.LBB3_8:                                # %func_CalculateOffsetParam.21
	.cfi_def_cfa %rbp, 16
	callq	CalculateOffsetParam.21
	popq	%rbp
	.cfi_def_cfa %rsp, 8
	retq
.LBB3_9:                                # %ctrl0
	.cfi_def_cfa %rbp, 16
	cmpl	$1, %eax
	je	.LBB3_2
# %bb.10:                               # %ctrl1
	cmpl	$2, %eax
	je	.LBB3_3
# %bb.11:                               # %ctrl2
	cmpl	$3, %eax
	je	.LBB3_4
# %bb.12:                               # %ctrl3
	cmpl	$4, %eax
	je	.LBB3_5
# %bb.13:                               # %ctrl4
	cmpl	$5, %eax
	je	.LBB3_6
# %bb.14:                               # %ctrl5
	cmpl	$6, %eax
	je	.LBB3_7
	jmp	.LBB3_8
.Lfunc_end3:
	.size	CalculateOffsetParam, .Lfunc_end3-CalculateOffsetParam
	.cfi_endproc
                                        # -- End function
	.globl	CalculateOffset8Param   # -- Begin function CalculateOffset8Param
	.p2align	4, 0x90
	.type	CalculateOffset8Param,@function
CalculateOffset8Param:                  # @CalculateOffset8Param
	.cfi_startproc
# %bb.0:                                # %rand_bb
	pushq	%rbp
	.cfi_def_cfa_offset 16
	.cfi_offset %rbp, -16
	movq	%rsp, %rbp
	.cfi_def_cfa_register %rbp
	callq	get_rand
	cmpl	$0, %eax
	jne	.LBB4_9
# %bb.1:                                # %func_CalculateOffset8Param.1
	callq	CalculateOffset8Param.1
	popq	%rbp
	.cfi_def_cfa %rsp, 8
	retq
.LBB4_2:                                # %func_CalculateOffset8Param.16
	.cfi_def_cfa %rbp, 16
	callq	CalculateOffset8Param.16
	popq	%rbp
	.cfi_def_cfa %rsp, 8
	retq
.LBB4_3:                                # %func_CalculateOffset8Param.18
	.cfi_def_cfa %rbp, 16
	callq	CalculateOffset8Param.18
	popq	%rbp
	.cfi_def_cfa %rsp, 8
	retq
.LBB4_4:                                # %func_CalculateOffset8Param.24
	.cfi_def_cfa %rbp, 16
	callq	CalculateOffset8Param.24
	popq	%rbp
	.cfi_def_cfa %rsp, 8
	retq
.LBB4_5:                                # %func_CalculateOffset8Param.26
	.cfi_def_cfa %rbp, 16
	callq	CalculateOffset8Param.26
	popq	%rbp
	.cfi_def_cfa %rsp, 8
	retq
.LBB4_6:                                # %func_CalculateOffset8Param.28
	.cfi_def_cfa %rbp, 16
	callq	CalculateOffset8Param.28
	popq	%rbp
	.cfi_def_cfa %rsp, 8
	retq
.LBB4_7:                                # %func_CalculateOffset8Param.31
	.cfi_def_cfa %rbp, 16
	callq	CalculateOffset8Param.31
	popq	%rbp
	.cfi_def_cfa %rsp, 8
	retq
.LBB4_8:                                # %func_CalculateOffset8Param.32
	.cfi_def_cfa %rbp, 16
	callq	CalculateOffset8Param.32
	popq	%rbp
	.cfi_def_cfa %rsp, 8
	retq
.LBB4_9:                                # %ctrl0
	.cfi_def_cfa %rbp, 16
	cmpl	$1, %eax
	je	.LBB4_2
# %bb.10:                               # %ctrl1
	cmpl	$2, %eax
	je	.LBB4_3
# %bb.11:                               # %ctrl2
	cmpl	$3, %eax
	je	.LBB4_4
# %bb.12:                               # %ctrl3
	cmpl	$4, %eax
	je	.LBB4_5
# %bb.13:                               # %ctrl4
	cmpl	$5, %eax
	je	.LBB4_6
# %bb.14:                               # %ctrl5
	cmpl	$6, %eax
	je	.LBB4_7
	jmp	.LBB4_8
.Lfunc_end4:
	.size	CalculateOffset8Param, .Lfunc_end4-CalculateOffset8Param
	.cfi_endproc
                                        # -- End function
	.globl	CalculateOffset8Param.1 # -- Begin function CalculateOffset8Param.1
	.p2align	4, 0x90
	.type	CalculateOffset8Param.1,@function
CalculateOffset8Param.1:                # @CalculateOffset8Param.1
	.cfi_startproc
# %bb.0:                                # %entry
	pushq	%rbp
	.cfi_def_cfa_offset 16
	.cfi_offset %rbp, -16
	movq	%rsp, %rbp
	.cfi_def_cfa_register %rbp
	subq	$32, %rsp
	movl	$462339363, -24(%rbp)   # imm = 0x1B8EBD23
	movq	input, %rax
	cmpl	$0, 3584(%rax)
	je	.LBB5_17
# %bb.1:                                # %if.then
	movl	$0, -4(%rbp)
.LBB5_2:                                # %for.cond
                                        # =>This Loop Header: Depth=1
                                        #     Child Loop BB5_4 Depth 2
                                        #       Child Loop BB5_6 Depth 3
	cmpl	$13, -4(%rbp)
	jge	.LBB5_16
# %bb.3:                                # %for.body
                                        #   in Loop: Header=BB5_2 Depth=1
	movl	-4(%rbp), %eax
	addl	$16, %eax
	subl	$10, %eax
	movl	%eax, -20(%rbp)
	movl	$0, -12(%rbp)
.LBB5_4:                                # %for.cond1
                                        #   Parent Loop BB5_2 Depth=1
                                        # =>  This Loop Header: Depth=2
                                        #       Child Loop BB5_6 Depth 3
	cmpl	$8, -12(%rbp)
	jge	.LBB5_14
# %bb.5:                                # %for.body3
                                        #   in Loop: Header=BB5_4 Depth=2
	movl	$0, -8(%rbp)
.LBB5_6:                                # %for.cond4
                                        #   Parent Loop BB5_2 Depth=1
                                        #     Parent Loop BB5_4 Depth=2
                                        # =>    This Inner Loop Header: Depth=3
	cmpl	$8, -8(%rbp)
	jge	.LBB5_12
# %bb.7:                                # %for.body6
                                        #   in Loop: Header=BB5_6 Depth=3
	movl	-8(%rbp), %eax
	shll	$3, %eax
	addl	-12(%rbp), %eax
	movl	%eax, -16(%rbp)
	movq	img, %rax
	cmpl	$2, 24(%rax)
	jne	.LBB5_9
# %bb.8:                                # %if.then9
                                        #   in Loop: Header=BB5_6 Depth=3
	movslq	-16(%rbp), %rax
	movswl	OffsetList8x8input(,%rax,2), %eax
	movl	-20(%rbp), %ecx
                                        # kill: def $cl killed $ecx
	shll	%cl, %eax
	movslq	-4(%rbp), %rcx
	shlq	$8, %rcx
	movabsq	$LevelOffset8x8Luma_Intra, %rdx
	addq	%rcx, %rdx
	movslq	-12(%rbp), %rcx
	shlq	$5, %rcx
	addq	%rcx, %rdx
	movslq	-8(%rbp), %rcx
	movl	%eax, (%rdx,%rcx,4)
	jmp	.LBB5_10
.LBB5_9:                                # %if.else
                                        #   in Loop: Header=BB5_6 Depth=3
	movslq	-16(%rbp), %rax
	movswl	OffsetList8x8input+128(,%rax,2), %eax
	movl	-20(%rbp), %ecx
                                        # kill: def $cl killed $ecx
	shll	%cl, %eax
	movslq	-4(%rbp), %rcx
	shlq	$8, %rcx
	movabsq	$LevelOffset8x8Luma_Intra, %rdx
	addq	%rcx, %rdx
	movslq	-12(%rbp), %rcx
	shlq	$5, %rcx
	addq	%rcx, %rdx
	movslq	-8(%rbp), %rcx
	movl	%eax, (%rdx,%rcx,4)
.LBB5_10:                               # %if.end
                                        #   in Loop: Header=BB5_6 Depth=3
	movslq	-16(%rbp), %rax
	movswl	OffsetList8x8input+256(,%rax,2), %eax
	movl	-20(%rbp), %ecx
                                        # kill: def $cl killed $ecx
	shll	%cl, %eax
	movslq	-4(%rbp), %rcx
	shlq	$8, %rcx
	movabsq	$LevelOffset8x8Luma_Inter, %rdx
	addq	%rcx, %rdx
	movslq	-12(%rbp), %rcx
	shlq	$5, %rcx
	addq	%rcx, %rdx
	movslq	-8(%rbp), %rcx
	movl	%eax, (%rdx,%rcx,4)
# %bb.11:                               # %for.inc
                                        #   in Loop: Header=BB5_6 Depth=3
	movl	-8(%rbp), %eax
	addl	$1, %eax
	movl	%eax, -8(%rbp)
	jmp	.LBB5_6
.LBB5_12:                               # %for.end
                                        #   in Loop: Header=BB5_4 Depth=2
	jmp	.LBB5_13
.LBB5_13:                               # %for.inc37
                                        #   in Loop: Header=BB5_4 Depth=2
	movl	-12(%rbp), %eax
	addl	$1, %eax
	movl	%eax, -12(%rbp)
	jmp	.LBB5_4
.LBB5_14:                               # %for.end39
                                        #   in Loop: Header=BB5_2 Depth=1
	jmp	.LBB5_15
.LBB5_15:                               # %for.inc40
                                        #   in Loop: Header=BB5_2 Depth=1
	movl	-4(%rbp), %eax
	addl	$1, %eax
	movl	%eax, -4(%rbp)
	jmp	.LBB5_2
.LBB5_16:                               # %for.end42
	jmp	.LBB5_33
.LBB5_17:                               # %if.else43
	movl	$0, -4(%rbp)
.LBB5_18:                               # %for.cond44
                                        # =>This Loop Header: Depth=1
                                        #     Child Loop BB5_20 Depth 2
                                        #       Child Loop BB5_22 Depth 3
	cmpl	$13, -4(%rbp)
	jge	.LBB5_32
# %bb.19:                               # %for.body47
                                        #   in Loop: Header=BB5_18 Depth=1
	movl	-4(%rbp), %eax
	addl	$16, %eax
	subl	$10, %eax
	movl	%eax, -20(%rbp)
	movl	$0, -12(%rbp)
.LBB5_20:                               # %for.cond50
                                        #   Parent Loop BB5_18 Depth=1
                                        # =>  This Loop Header: Depth=2
                                        #       Child Loop BB5_22 Depth 3
	cmpl	$8, -12(%rbp)
	jge	.LBB5_30
# %bb.21:                               # %for.body53
                                        #   in Loop: Header=BB5_20 Depth=2
	movl	$0, -8(%rbp)
.LBB5_22:                               # %for.cond54
                                        #   Parent Loop BB5_18 Depth=1
                                        #     Parent Loop BB5_20 Depth=2
                                        # =>    This Inner Loop Header: Depth=3
	cmpl	$8, -8(%rbp)
	jge	.LBB5_28
# %bb.23:                               # %for.body57
                                        #   in Loop: Header=BB5_22 Depth=3
	movl	-8(%rbp), %eax
	shll	$3, %eax
	addl	-12(%rbp), %eax
	movl	%eax, -16(%rbp)
	movq	img, %rax
	cmpl	$2, 24(%rax)
	jne	.LBB5_25
# %bb.24:                               # %if.then63
                                        #   in Loop: Header=BB5_22 Depth=3
	movslq	-16(%rbp), %rax
	movswl	Offset8_intra_default_intra(,%rax,2), %eax
	movl	-20(%rbp), %ecx
                                        # kill: def $cl killed $ecx
	shll	%cl, %eax
	movslq	-4(%rbp), %rcx
	shlq	$8, %rcx
	movabsq	$LevelOffset8x8Luma_Intra, %rdx
	addq	%rcx, %rdx
	movslq	-12(%rbp), %rcx
	shlq	$5, %rcx
	addq	%rcx, %rdx
	movslq	-8(%rbp), %rcx
	movl	%eax, (%rdx,%rcx,4)
	jmp	.LBB5_26
.LBB5_25:                               # %if.else74
                                        #   in Loop: Header=BB5_22 Depth=3
	movslq	-16(%rbp), %rax
	movswl	Offset8_intra_default_inter(,%rax,2), %eax
	movl	-20(%rbp), %ecx
                                        # kill: def $cl killed $ecx
	shll	%cl, %eax
	movslq	-4(%rbp), %rcx
	shlq	$8, %rcx
	movabsq	$LevelOffset8x8Luma_Intra, %rdx
	addq	%rcx, %rdx
	movslq	-12(%rbp), %rcx
	shlq	$5, %rcx
	addq	%rcx, %rdx
	movslq	-8(%rbp), %rcx
	movl	%eax, (%rdx,%rcx,4)
.LBB5_26:                               # %if.end85
                                        #   in Loop: Header=BB5_22 Depth=3
	movslq	-16(%rbp), %rax
	movswl	Offset8_inter_default(,%rax,2), %eax
	movl	-20(%rbp), %ecx
                                        # kill: def $cl killed $ecx
	shll	%cl, %eax
	movslq	-4(%rbp), %rcx
	shlq	$8, %rcx
	movabsq	$LevelOffset8x8Luma_Inter, %rdx
	addq	%rcx, %rdx
	movslq	-12(%rbp), %rcx
	shlq	$5, %rcx
	addq	%rcx, %rdx
	movslq	-8(%rbp), %rcx
	movl	%eax, (%rdx,%rcx,4)
# %bb.27:                               # %for.inc96
                                        #   in Loop: Header=BB5_22 Depth=3
	movl	-8(%rbp), %eax
	addl	$1, %eax
	movl	%eax, -8(%rbp)
	jmp	.LBB5_22
.LBB5_28:                               # %for.end98
                                        #   in Loop: Header=BB5_20 Depth=2
	jmp	.LBB5_29
.LBB5_29:                               # %for.inc99
                                        #   in Loop: Header=BB5_20 Depth=2
	movl	-12(%rbp), %eax
	addl	$1, %eax
	movl	%eax, -12(%rbp)
	jmp	.LBB5_20
.LBB5_30:                               # %for.end101
                                        #   in Loop: Header=BB5_18 Depth=1
	jmp	.LBB5_31
.LBB5_31:                               # %for.inc102
                                        #   in Loop: Header=BB5_18 Depth=1
	movl	-4(%rbp), %eax
	addl	$1, %eax
	movl	%eax, -4(%rbp)
	jmp	.LBB5_18
.LBB5_32:                               # %for.end104
	jmp	.LBB5_33
.LBB5_33:                               # %if.end105
	cmpl	$462339363, -24(%rbp)   # imm = 0x1B8EBD23
	jne	.LBB5_35
.LBB5_34:
	addq	$32, %rsp
	popq	%rbp
	.cfi_def_cfa %rsp, 8
	retq
.LBB5_35:                               # %func_exit
	.cfi_def_cfa %rbp, 16
	callq	detect_breach
	jmp	.LBB5_34
.Lfunc_end5:
	.size	CalculateOffset8Param.1, .Lfunc_end5-CalculateOffset8Param.1
	.cfi_endproc
                                        # -- End function
	.globl	CheckOffsetParameterName.2 # -- Begin function CheckOffsetParameterName.2
	.p2align	4, 0x90
	.type	CheckOffsetParameterName.2,@function
CheckOffsetParameterName.2:             # @CheckOffsetParameterName.2
	.cfi_startproc
# %bb.0:                                # %entry
	pushq	%rbp
	.cfi_def_cfa_offset 16
	.cfi_offset %rbp, -16
	movq	%rsp, %rbp
	.cfi_def_cfa_register %rbp
	pushq	%rbx
	subq	$40, %rsp
	.cfi_offset %rbx, -24
	movl	$1525445711, -20(%rbp)  # imm = 0x5AEC744F
	movq	%rdi, -32(%rbp)
	movq	%rsi, -40(%rbp)
	movl	$0, -12(%rbp)
	movq	-40(%rbp), %rax
	movl	$0, (%rax)
.LBB6_1:                                # %while.cond
                                        # =>This Inner Loop Header: Depth=1
	xorl	%eax, %eax
	movslq	-12(%rbp), %rcx
	imulq	$24, %rcx, %rcx
	movabsq	$OffsetType4x4, %rdx
	addq	%rcx, %rdx
	cmpq	$0, %rdx
	je	.LBB6_3
# %bb.2:                                # %land.rhs
                                        #   in Loop: Header=BB6_1 Depth=1
	cmpl	$9, -12(%rbp)
	setl	%al
.LBB6_3:                                # %land.end
                                        #   in Loop: Header=BB6_1 Depth=1
	testb	$1, %al
	jne	.LBB6_4
	jmp	.LBB6_8
.LBB6_4:                                # %while.body
                                        #   in Loop: Header=BB6_1 Depth=1
	xorl	%ebx, %ebx
	movslq	-12(%rbp), %rax
	imulq	$24, %rax, %rax
	movabsq	$OffsetType4x4, %rdi
	addq	%rax, %rdi
	movq	-32(%rbp), %rsi
	callq	strcmp
	cmpl	%eax, %ebx
	jne	.LBB6_6
# %bb.5:                                # %if.then
	movl	-12(%rbp), %eax
	movl	%eax, -16(%rbp)
	jmp	.LBB6_17
.LBB6_6:                                # %if.else
                                        #   in Loop: Header=BB6_1 Depth=1
	movl	-12(%rbp), %eax
	addl	$1, %eax
	movl	%eax, -12(%rbp)
# %bb.7:                                # %if.end
                                        #   in Loop: Header=BB6_1 Depth=1
	jmp	.LBB6_1
.LBB6_8:                                # %while.end
	movl	$0, -12(%rbp)
	movq	-40(%rbp), %rax
	movl	$1, (%rax)
.LBB6_9:                                # %while.cond6
                                        # =>This Inner Loop Header: Depth=1
	xorl	%eax, %eax
	movslq	-12(%rbp), %rcx
	imulq	$24, %rcx, %rcx
	movabsq	$OffsetType8x8, %rdx
	addq	%rcx, %rdx
	cmpq	$0, %rdx
	je	.LBB6_11
# %bb.10:                               # %land.rhs11
                                        #   in Loop: Header=BB6_9 Depth=1
	cmpl	$3, -12(%rbp)
	setl	%al
.LBB6_11:                               # %land.end13
                                        #   in Loop: Header=BB6_9 Depth=1
	testb	$1, %al
	jne	.LBB6_12
	jmp	.LBB6_16
.LBB6_12:                               # %while.body14
                                        #   in Loop: Header=BB6_9 Depth=1
	xorl	%ebx, %ebx
	movslq	-12(%rbp), %rax
	imulq	$24, %rax, %rax
	movabsq	$OffsetType8x8, %rdi
	addq	%rax, %rdi
	movq	-32(%rbp), %rsi
	callq	strcmp
	cmpl	%eax, %ebx
	jne	.LBB6_14
# %bb.13:                               # %if.then20
	movl	-12(%rbp), %eax
	movl	%eax, -16(%rbp)
	jmp	.LBB6_17
.LBB6_14:                               # %if.else21
                                        #   in Loop: Header=BB6_9 Depth=1
	movl	-12(%rbp), %eax
	addl	$1, %eax
	movl	%eax, -12(%rbp)
# %bb.15:                               # %if.end23
                                        #   in Loop: Header=BB6_9 Depth=1
	jmp	.LBB6_9
.LBB6_16:                               # %while.end24
	movl	$-1, -16(%rbp)
.LBB6_17:                               # %return
	movl	-16(%rbp), %ebx
	cmpl	$1525445711, -20(%rbp)  # imm = 0x5AEC744F
	jne	.LBB6_19
.LBB6_18:
	movl	%ebx, %eax
	addq	$40, %rsp
	popq	%rbx
	popq	%rbp
	.cfi_def_cfa %rsp, 8
	retq
.LBB6_19:                               # %func_exit
	.cfi_def_cfa %rbp, 16
	callq	detect_breach
	jmp	.LBB6_18
.Lfunc_end6:
	.size	CheckOffsetParameterName.2, .Lfunc_end6-CheckOffsetParameterName.2
	.cfi_endproc
                                        # -- End function
	.globl	ParseQOffsetMatrix.3    # -- Begin function ParseQOffsetMatrix.3
	.p2align	4, 0x90
	.type	ParseQOffsetMatrix.3,@function
ParseQOffsetMatrix.3:                   # @ParseQOffsetMatrix.3
	.cfi_startproc
# %bb.0:                                # %entry
	pushq	%rbp
	.cfi_def_cfa_offset 16
	.cfi_offset %rbp, -16
	movq	%rsp, %rbp
	.cfi_def_cfa_register %rbp
	subq	$8096, %rsp             # imm = 0x1FA0
	movl	$696358914, -52(%rbp)   # imm = 0x29819802
	movq	%rdi, -72(%rbp)
	movl	%esi, -56(%rbp)
	movl	$0, -28(%rbp)
	movl	$0, -36(%rbp)
	movl	$0, -20(%rbp)
	movq	-72(%rbp), %rax
	movq	%rax, -16(%rbp)
	movq	-72(%rbp), %rax
	movslq	-56(%rbp), %rcx
	addq	%rcx, %rax
	movq	%rax, -88(%rbp)
.LBB7_1:                                # %while.cond
                                        # =>This Loop Header: Depth=1
                                        #     Child Loop BB7_6 Depth 2
	movq	-16(%rbp), %rax
	cmpq	-88(%rbp), %rax
	jae	.LBB7_25
# %bb.2:                                # %while.body
                                        #   in Loop: Header=BB7_1 Depth=1
	movq	-16(%rbp), %rax
	movsbl	(%rax), %eax
	addl	$-9, %eax
	movl	%eax, %ecx
	subl	$35, %ecx
	ja	.LBB7_21
# %bb.3:                                # %while.body
                                        #   in Loop: Header=BB7_1 Depth=1
	movq	.LJTI7_0(,%rax,8), %rax
	jmpq	*%rax
.LBB7_4:                                # %sw.bb
                                        #   in Loop: Header=BB7_1 Depth=1
	movq	-16(%rbp), %rax
	addq	$1, %rax
	movq	%rax, -16(%rbp)
	jmp	.LBB7_24
.LBB7_5:                                # %sw.bb1
                                        #   in Loop: Header=BB7_1 Depth=1
	movq	-16(%rbp), %rax
	movb	$0, (%rax)
.LBB7_6:                                # %while.cond2
                                        #   Parent Loop BB7_1 Depth=1
                                        # =>  This Inner Loop Header: Depth=2
	xorl	%eax, %eax
	movq	-16(%rbp), %rcx
	movsbl	(%rcx), %ecx
	cmpl	$10, %ecx
	je	.LBB7_8
# %bb.7:                                # %land.rhs
                                        #   in Loop: Header=BB7_6 Depth=2
	movq	-16(%rbp), %rax
	cmpq	-88(%rbp), %rax
	setb	%al
.LBB7_8:                                # %land.end
                                        #   in Loop: Header=BB7_6 Depth=2
	testb	$1, %al
	jne	.LBB7_9
	jmp	.LBB7_10
.LBB7_9:                                # %while.body8
                                        #   in Loop: Header=BB7_6 Depth=2
	movq	-16(%rbp), %rax
	addq	$1, %rax
	movq	%rax, -16(%rbp)
	jmp	.LBB7_6
.LBB7_10:                               # %while.end
                                        #   in Loop: Header=BB7_1 Depth=1
	movl	$0, -36(%rbp)
	movl	$0, -20(%rbp)
	jmp	.LBB7_24
.LBB7_11:                               # %sw.bb10
                                        #   in Loop: Header=BB7_1 Depth=1
	movl	$0, -20(%rbp)
	movl	$0, -36(%rbp)
	movq	-16(%rbp), %rax
	movq	%rax, %rcx
	addq	$1, %rcx
	movq	%rcx, -16(%rbp)
	movb	$0, (%rax)
	jmp	.LBB7_24
.LBB7_12:                               # %sw.bb12
                                        #   in Loop: Header=BB7_1 Depth=1
	cmpl	$0, -36(%rbp)
	je	.LBB7_14
# %bb.13:                               # %if.then
                                        #   in Loop: Header=BB7_1 Depth=1
	movq	-16(%rbp), %rax
	addq	$1, %rax
	movq	%rax, -16(%rbp)
	jmp	.LBB7_15
.LBB7_14:                               # %if.else
                                        #   in Loop: Header=BB7_1 Depth=1
	movq	-16(%rbp), %rax
	movq	%rax, %rcx
	addq	$1, %rcx
	movq	%rcx, -16(%rbp)
	movb	$0, (%rax)
	movl	$0, -20(%rbp)
.LBB7_15:                               # %if.end
                                        #   in Loop: Header=BB7_1 Depth=1
	jmp	.LBB7_24
.LBB7_16:                               # %sw.bb15
                                        #   in Loop: Header=BB7_1 Depth=1
	movq	-16(%rbp), %rax
	movq	%rax, %rcx
	addq	$1, %rcx
	movq	%rcx, -16(%rbp)
	movb	$0, (%rax)
	cmpl	$0, -36(%rbp)
	jne	.LBB7_18
# %bb.17:                               # %if.then18
                                        #   in Loop: Header=BB7_1 Depth=1
	movq	-16(%rbp), %rax
	movl	-28(%rbp), %ecx
	movl	%ecx, %edx
	addl	$1, %edx
	movl	%edx, -28(%rbp)
	movslq	%ecx, %rcx
	movq	%rax, -8096(%rbp,%rcx,8)
	movl	-20(%rbp), %eax
	xorl	$-1, %eax
	movl	%eax, -20(%rbp)
	jmp	.LBB7_19
.LBB7_18:                               # %if.else21
                                        #   in Loop: Header=BB7_1 Depth=1
	movl	$0, -20(%rbp)
.LBB7_19:                               # %if.end22
                                        #   in Loop: Header=BB7_1 Depth=1
	movl	-36(%rbp), %eax
	xorl	$-1, %eax
	movl	%eax, -36(%rbp)
	jmp	.LBB7_24
.LBB7_20:                               # %sw.bb24
                                        #   in Loop: Header=BB7_1 Depth=1
	movq	-16(%rbp), %rax
	addq	$1, %rax
	movq	%rax, -16(%rbp)
	movl	$0, -20(%rbp)
	jmp	.LBB7_24
.LBB7_21:                               # %sw.default
                                        #   in Loop: Header=BB7_1 Depth=1
	cmpl	$0, -20(%rbp)
	jne	.LBB7_23
# %bb.22:                               # %if.then27
                                        #   in Loop: Header=BB7_1 Depth=1
	movq	-16(%rbp), %rax
	movl	-28(%rbp), %ecx
	movl	%ecx, %edx
	addl	$1, %edx
	movl	%edx, -28(%rbp)
	movslq	%ecx, %rcx
	movq	%rax, -8096(%rbp,%rcx,8)
	movl	-20(%rbp), %eax
	xorl	$-1, %eax
	movl	%eax, -20(%rbp)
.LBB7_23:                               # %if.end32
                                        #   in Loop: Header=BB7_1 Depth=1
	movq	-16(%rbp), %rax
	addq	$1, %rax
	movq	%rax, -16(%rbp)
.LBB7_24:                               # %sw.epilog
                                        #   in Loop: Header=BB7_1 Depth=1
	jmp	.LBB7_1
.LBB7_25:                               # %while.end34
	movl	-28(%rbp), %eax
	addl	$-1, %eax
	movl	%eax, -28(%rbp)
	movl	$0, -24(%rbp)
.LBB7_26:                               # %for.cond
                                        # =>This Loop Header: Depth=1
                                        #     Child Loop BB7_35 Depth 2
	movl	-24(%rbp), %eax
	cmpl	-28(%rbp), %eax
	jge	.LBB7_42
# %bb.27:                               # %for.body
                                        #   in Loop: Header=BB7_26 Depth=1
	movl	$0, -4(%rbp)
	movl	-24(%rbp), %eax
	addl	-4(%rbp), %eax
	cltq
	movq	-8096(%rbp,%rax,8), %rdi
	leaq	-48(%rbp), %rsi
	callq	CheckOffsetParameterName
	xorl	%ecx, %ecx
	movl	%eax, -40(%rbp)
	cmpl	%eax, %ecx
	jle	.LBB7_29
# %bb.28:                               # %if.then41
                                        #   in Loop: Header=BB7_26 Depth=1
	movl	-24(%rbp), %eax
	addl	-4(%rbp), %eax
	cltq
	movq	-8096(%rbp,%rax,8), %rcx
	movabsq	$errortext, %rdi
	movl	$300, %esi              # imm = 0x12C
	movabsq	$.L.str, %rdx
	movb	$0, %al
	callq	snprintf
	movabsq	$errortext, %rdi
	movl	$300, %esi              # imm = 0x12C
	callq	error
.LBB7_29:                               # %if.end46
                                        #   in Loop: Header=BB7_26 Depth=1
	movl	-4(%rbp), %eax
	addl	$1, %eax
	movl	%eax, -4(%rbp)
	movl	-24(%rbp), %eax
	addl	-4(%rbp), %eax
	cltq
	movq	-8096(%rbp,%rax,8), %rsi
	movl	$.L.str.1, %edi
	callq	strcmp
	cmpl	$0, %eax
	je	.LBB7_31
# %bb.30:                               # %if.then53
                                        #   in Loop: Header=BB7_26 Depth=1
	movabsq	$errortext, %rdi
	movl	$300, %esi              # imm = 0x12C
	movabsq	$.L.str.2, %rdx
	movb	$0, %al
	callq	snprintf
	movabsq	$errortext, %rdi
	movl	$300, %esi              # imm = 0x12C
	callq	error
.LBB7_31:                               # %if.end55
                                        #   in Loop: Header=BB7_26 Depth=1
	movl	-4(%rbp), %eax
	addl	$1, %eax
	movl	%eax, -4(%rbp)
	cmpl	$0, -48(%rbp)
	jne	.LBB7_33
# %bb.32:                               # %if.then58
                                        #   in Loop: Header=BB7_26 Depth=1
	movl	$16, -44(%rbp)
	movslq	-40(%rbp), %rax
	shlq	$5, %rax
	movabsq	$OffsetList4x4input, %rcx
	addq	%rax, %rcx
	movq	%rcx, -80(%rbp)
	movslq	-40(%rbp), %rax
	movl	$1, offset4x4_check(,%rax,4)
	jmp	.LBB7_34
.LBB7_33:                               # %if.else63
                                        #   in Loop: Header=BB7_26 Depth=1
	movl	$64, -44(%rbp)
	movslq	-40(%rbp), %rax
	shlq	$7, %rax
	movabsq	$OffsetList8x8input, %rcx
	addq	%rax, %rcx
	movq	%rcx, -80(%rbp)
	movslq	-40(%rbp), %rax
	movl	$1, offset8x8_check(,%rax,4)
.LBB7_34:                               # %if.end69
                                        #   in Loop: Header=BB7_26 Depth=1
	movl	$0, -32(%rbp)
.LBB7_35:                               # %for.cond70
                                        #   Parent Loop BB7_26 Depth=1
                                        # =>  This Inner Loop Header: Depth=2
	movl	-32(%rbp), %eax
	cmpl	-44(%rbp), %eax
	jge	.LBB7_40
# %bb.36:                               # %for.body73
                                        #   in Loop: Header=BB7_35 Depth=2
	movl	-24(%rbp), %eax
	addl	-4(%rbp), %eax
	addl	-32(%rbp), %eax
	cltq
	movq	-8096(%rbp,%rax,8), %rdi
	movabsq	$.L.str.3, %rsi
	leaq	-60(%rbp), %rdx
	movb	$0, %al
	callq	__isoc99_sscanf
	movl	$1, %ecx
	cmpl	%eax, %ecx
	je	.LBB7_38
# %bb.37:                               # %if.then81
                                        #   in Loop: Header=BB7_35 Depth=2
	movslq	-24(%rbp), %rax
	movq	-8096(%rbp,%rax,8), %rcx
	movl	-24(%rbp), %eax
	addl	-4(%rbp), %eax
	addl	-32(%rbp), %eax
	cltq
	movq	-8096(%rbp,%rax,8), %r8
	movabsq	$errortext, %rdi
	movl	$300, %esi              # imm = 0x12C
	movabsq	$.L.str.4, %rdx
	movb	$0, %al
	callq	snprintf
	movabsq	$errortext, %rdi
	movl	$300, %esi              # imm = 0x12C
	callq	error
.LBB7_38:                               # %if.end89
                                        #   in Loop: Header=BB7_35 Depth=2
	movl	-60(%rbp), %eax
	movq	-80(%rbp), %rcx
	movslq	-32(%rbp), %rdx
	movw	%ax, (%rcx,%rdx,2)
# %bb.39:                               # %for.inc
                                        #   in Loop: Header=BB7_35 Depth=2
	movl	-32(%rbp), %eax
	addl	$1, %eax
	movl	%eax, -32(%rbp)
	jmp	.LBB7_35
.LBB7_40:                               # %for.end
                                        #   in Loop: Header=BB7_26 Depth=1
	movl	-32(%rbp), %eax
	addl	-4(%rbp), %eax
	movl	%eax, -4(%rbp)
	movabsq	$.L.str.5, %rdi
	movb	$0, %al
	callq	printf
# %bb.41:                               # %for.inc96
                                        #   in Loop: Header=BB7_26 Depth=1
	movl	-4(%rbp), %eax
	addl	-24(%rbp), %eax
	movl	%eax, -24(%rbp)
	jmp	.LBB7_26
.LBB7_42:                               # %for.end98
	cmpl	$696358914, -52(%rbp)   # imm = 0x29819802
	jne	.LBB7_44
.LBB7_43:
	addq	$8096, %rsp             # imm = 0x1FA0
	popq	%rbp
	.cfi_def_cfa %rsp, 8
	retq
.LBB7_44:                               # %func_exit
	.cfi_def_cfa %rbp, 16
	callq	detect_breach
	jmp	.LBB7_43
.Lfunc_end7:
	.size	ParseQOffsetMatrix.3, .Lfunc_end7-ParseQOffsetMatrix.3
	.cfi_endproc
	.section	.rodata,"a",@progbits
	.p2align	3
.LJTI7_0:
	.quad	.LBB7_12
	.quad	.LBB7_11
	.quad	.LBB7_21
	.quad	.LBB7_21
	.quad	.LBB7_4
	.quad	.LBB7_21
	.quad	.LBB7_21
	.quad	.LBB7_21
	.quad	.LBB7_21
	.quad	.LBB7_21
	.quad	.LBB7_21
	.quad	.LBB7_21
	.quad	.LBB7_21
	.quad	.LBB7_21
	.quad	.LBB7_21
	.quad	.LBB7_21
	.quad	.LBB7_21
	.quad	.LBB7_21
	.quad	.LBB7_21
	.quad	.LBB7_21
	.quad	.LBB7_21
	.quad	.LBB7_21
	.quad	.LBB7_21
	.quad	.LBB7_12
	.quad	.LBB7_21
	.quad	.LBB7_16
	.quad	.LBB7_5
	.quad	.LBB7_21
	.quad	.LBB7_21
	.quad	.LBB7_21
	.quad	.LBB7_21
	.quad	.LBB7_21
	.quad	.LBB7_21
	.quad	.LBB7_21
	.quad	.LBB7_21
	.quad	.LBB7_20
                                        # -- End function
	.text
	.globl	CalculateOffsetParam.4  # -- Begin function CalculateOffsetParam.4
	.p2align	4, 0x90
	.type	CalculateOffsetParam.4,@function
CalculateOffsetParam.4:                 # @CalculateOffsetParam.4
	.cfi_startproc
# %bb.0:                                # %entry
	pushq	%rbp
	.cfi_def_cfa_offset 16
	.cfi_offset %rbp, -16
	movq	%rsp, %rbp
	.cfi_def_cfa_register %rbp
	subq	$32, %rsp
	movl	$1829331701, -24(%rbp)  # imm = 0x6D0962F5
	movq	input, %rax
	cmpl	$0, 3584(%rax)
	je	.LBB8_17
# %bb.1:                                # %if.then
	movl	$0, -12(%rbp)
.LBB8_2:                                # %for.cond
                                        # =>This Loop Header: Depth=1
                                        #     Child Loop BB8_4 Depth 2
                                        #       Child Loop BB8_6 Depth 3
	cmpl	$13, -12(%rbp)
	jge	.LBB8_16
# %bb.3:                                # %for.body
                                        #   in Loop: Header=BB8_2 Depth=1
	movl	-12(%rbp), %eax
	addl	$15, %eax
	subl	$10, %eax
	movl	%eax, -20(%rbp)
	movl	$0, -4(%rbp)
.LBB8_4:                                # %for.cond1
                                        #   Parent Loop BB8_2 Depth=1
                                        # =>  This Loop Header: Depth=2
                                        #       Child Loop BB8_6 Depth 3
	cmpl	$4, -4(%rbp)
	jge	.LBB8_14
# %bb.5:                                # %for.body3
                                        #   in Loop: Header=BB8_4 Depth=2
	movl	$0, -8(%rbp)
.LBB8_6:                                # %for.cond4
                                        #   Parent Loop BB8_2 Depth=1
                                        #     Parent Loop BB8_4 Depth=2
                                        # =>    This Inner Loop Header: Depth=3
	cmpl	$4, -8(%rbp)
	jge	.LBB8_12
# %bb.7:                                # %for.body6
                                        #   in Loop: Header=BB8_6 Depth=3
	movl	-8(%rbp), %eax
	shll	$2, %eax
	addl	-4(%rbp), %eax
	movl	%eax, -16(%rbp)
	movq	img, %rax
	cmpl	$2, 24(%rax)
	jne	.LBB8_9
# %bb.8:                                # %if.then9
                                        #   in Loop: Header=BB8_6 Depth=3
	movabsq	$LevelOffset4x4Chroma_Intra, %rdx
	movq	%rdx, %rax
	addq	$832, %rax              # imm = 0x340
	movslq	-16(%rbp), %rcx
	movswl	OffsetList4x4input(,%rcx,2), %esi
	movl	-20(%rbp), %ecx
                                        # kill: def $cl killed $ecx
	shll	%cl, %esi
	movslq	-12(%rbp), %rcx
	shlq	$6, %rcx
	movabsq	$LevelOffset4x4Luma_Intra, %rdi
	addq	%rcx, %rdi
	movslq	-4(%rbp), %rcx
	shlq	$4, %rcx
	addq	%rcx, %rdi
	movslq	-8(%rbp), %rcx
	movl	%esi, (%rdi,%rcx,4)
	movslq	-16(%rbp), %rcx
	movswl	OffsetList4x4input+32(,%rcx,2), %esi
	movl	-20(%rbp), %ecx
                                        # kill: def $cl killed $ecx
	shll	%cl, %esi
	movslq	-12(%rbp), %rcx
	shlq	$6, %rcx
	addq	%rcx, %rdx
	movslq	-4(%rbp), %rcx
	shlq	$4, %rcx
	addq	%rcx, %rdx
	movslq	-8(%rbp), %rcx
	movl	%esi, (%rdx,%rcx,4)
	movslq	-16(%rbp), %rcx
	movswl	OffsetList4x4input+64(,%rcx,2), %edx
	movl	-20(%rbp), %ecx
                                        # kill: def $cl killed $ecx
	shll	%cl, %edx
	movslq	-12(%rbp), %rcx
	shlq	$6, %rcx
	addq	%rcx, %rax
	movslq	-4(%rbp), %rcx
	shlq	$4, %rcx
	addq	%rcx, %rax
	movslq	-8(%rbp), %rcx
	movl	%edx, (%rax,%rcx,4)
	jmp	.LBB8_10
.LBB8_9:                                # %if.else
                                        #   in Loop: Header=BB8_6 Depth=3
	movabsq	$LevelOffset4x4Chroma_Intra, %rdx
	movq	%rdx, %rax
	addq	$832, %rax              # imm = 0x340
	movslq	-16(%rbp), %rcx
	movswl	OffsetList4x4input+96(,%rcx,2), %esi
	movl	-20(%rbp), %ecx
                                        # kill: def $cl killed $ecx
	shll	%cl, %esi
	movslq	-12(%rbp), %rcx
	shlq	$6, %rcx
	movabsq	$LevelOffset4x4Luma_Intra, %rdi
	addq	%rcx, %rdi
	movslq	-4(%rbp), %rcx
	shlq	$4, %rcx
	addq	%rcx, %rdi
	movslq	-8(%rbp), %rcx
	movl	%esi, (%rdi,%rcx,4)
	movslq	-16(%rbp), %rcx
	movswl	OffsetList4x4input+128(,%rcx,2), %esi
	movl	-20(%rbp), %ecx
                                        # kill: def $cl killed $ecx
	shll	%cl, %esi
	movslq	-12(%rbp), %rcx
	shlq	$6, %rcx
	addq	%rcx, %rdx
	movslq	-4(%rbp), %rcx
	shlq	$4, %rcx
	addq	%rcx, %rdx
	movslq	-8(%rbp), %rcx
	movl	%esi, (%rdx,%rcx,4)
	movslq	-16(%rbp), %rcx
	movswl	OffsetList4x4input+160(,%rcx,2), %edx
	movl	-20(%rbp), %ecx
                                        # kill: def $cl killed $ecx
	shll	%cl, %edx
	movslq	-12(%rbp), %rcx
	shlq	$6, %rcx
	addq	%rcx, %rax
	movslq	-4(%rbp), %rcx
	shlq	$4, %rcx
	addq	%rcx, %rax
	movslq	-8(%rbp), %rcx
	movl	%edx, (%rax,%rcx,4)
.LBB8_10:                               # %if.end
                                        #   in Loop: Header=BB8_6 Depth=3
	movabsq	$LevelOffset4x4Chroma_Inter, %rdx
	movq	%rdx, %rax
	addq	$832, %rax              # imm = 0x340
	movslq	-16(%rbp), %rcx
	movswl	OffsetList4x4input+192(,%rcx,2), %esi
	movl	-20(%rbp), %ecx
                                        # kill: def $cl killed $ecx
	shll	%cl, %esi
	movslq	-12(%rbp), %rcx
	shlq	$6, %rcx
	movabsq	$LevelOffset4x4Luma_Inter, %rdi
	addq	%rcx, %rdi
	movslq	-4(%rbp), %rcx
	shlq	$4, %rcx
	addq	%rcx, %rdi
	movslq	-8(%rbp), %rcx
	movl	%esi, (%rdi,%rcx,4)
	movslq	-16(%rbp), %rcx
	movswl	OffsetList4x4input+224(,%rcx,2), %esi
	movl	-20(%rbp), %ecx
                                        # kill: def $cl killed $ecx
	shll	%cl, %esi
	movslq	-12(%rbp), %rcx
	shlq	$6, %rcx
	addq	%rcx, %rdx
	movslq	-4(%rbp), %rcx
	shlq	$4, %rcx
	addq	%rcx, %rdx
	movslq	-8(%rbp), %rcx
	movl	%esi, (%rdx,%rcx,4)
	movslq	-16(%rbp), %rcx
	movswl	OffsetList4x4input+256(,%rcx,2), %edx
	movl	-20(%rbp), %ecx
                                        # kill: def $cl killed $ecx
	shll	%cl, %edx
	movslq	-12(%rbp), %rcx
	shlq	$6, %rcx
	addq	%rcx, %rax
	movslq	-4(%rbp), %rcx
	shlq	$4, %rcx
	addq	%rcx, %rax
	movslq	-8(%rbp), %rcx
	movl	%edx, (%rax,%rcx,4)
# %bb.11:                               # %for.inc
                                        #   in Loop: Header=BB8_6 Depth=3
	movl	-8(%rbp), %eax
	addl	$1, %eax
	movl	%eax, -8(%rbp)
	jmp	.LBB8_6
.LBB8_12:                               # %for.end
                                        #   in Loop: Header=BB8_4 Depth=2
	jmp	.LBB8_13
.LBB8_13:                               # %for.inc97
                                        #   in Loop: Header=BB8_4 Depth=2
	movl	-4(%rbp), %eax
	addl	$1, %eax
	movl	%eax, -4(%rbp)
	jmp	.LBB8_4
.LBB8_14:                               # %for.end99
                                        #   in Loop: Header=BB8_2 Depth=1
	jmp	.LBB8_15
.LBB8_15:                               # %for.inc100
                                        #   in Loop: Header=BB8_2 Depth=1
	movl	-12(%rbp), %eax
	addl	$1, %eax
	movl	%eax, -12(%rbp)
	jmp	.LBB8_2
.LBB8_16:                               # %for.end102
	jmp	.LBB8_33
.LBB8_17:                               # %if.else103
	movl	$0, -12(%rbp)
.LBB8_18:                               # %for.cond104
                                        # =>This Loop Header: Depth=1
                                        #     Child Loop BB8_20 Depth 2
                                        #       Child Loop BB8_22 Depth 3
	cmpl	$13, -12(%rbp)
	jge	.LBB8_32
# %bb.19:                               # %for.body107
                                        #   in Loop: Header=BB8_18 Depth=1
	movl	-12(%rbp), %eax
	addl	$15, %eax
	subl	$10, %eax
	movl	%eax, -20(%rbp)
	movl	$0, -4(%rbp)
.LBB8_20:                               # %for.cond110
                                        #   Parent Loop BB8_18 Depth=1
                                        # =>  This Loop Header: Depth=2
                                        #       Child Loop BB8_22 Depth 3
	cmpl	$4, -4(%rbp)
	jge	.LBB8_30
# %bb.21:                               # %for.body113
                                        #   in Loop: Header=BB8_20 Depth=2
	movl	$0, -8(%rbp)
.LBB8_22:                               # %for.cond114
                                        #   Parent Loop BB8_18 Depth=1
                                        #     Parent Loop BB8_20 Depth=2
                                        # =>    This Inner Loop Header: Depth=3
	cmpl	$4, -8(%rbp)
	jge	.LBB8_28
# %bb.23:                               # %for.body117
                                        #   in Loop: Header=BB8_22 Depth=3
	movl	-8(%rbp), %eax
	shll	$2, %eax
	addl	-4(%rbp), %eax
	movl	%eax, -16(%rbp)
	movq	img, %rax
	cmpl	$2, 24(%rax)
	jne	.LBB8_25
# %bb.24:                               # %if.then123
                                        #   in Loop: Header=BB8_22 Depth=3
	movabsq	$LevelOffset4x4Chroma_Intra, %rdx
	movq	%rdx, %rax
	addq	$832, %rax              # imm = 0x340
	movslq	-16(%rbp), %rcx
	movswl	Offset_intra_default_intra(,%rcx,2), %esi
	movl	-20(%rbp), %ecx
                                        # kill: def $cl killed $ecx
	shll	%cl, %esi
	movslq	-12(%rbp), %rcx
	shlq	$6, %rcx
	movabsq	$LevelOffset4x4Luma_Intra, %rdi
	addq	%rcx, %rdi
	movslq	-4(%rbp), %rcx
	shlq	$4, %rcx
	addq	%rcx, %rdi
	movslq	-8(%rbp), %rcx
	movl	%esi, (%rdi,%rcx,4)
	movslq	-16(%rbp), %rcx
	movswl	Offset_intra_default_intra(,%rcx,2), %esi
	movl	-20(%rbp), %ecx
                                        # kill: def $cl killed $ecx
	shll	%cl, %esi
	movslq	-12(%rbp), %rcx
	shlq	$6, %rcx
	addq	%rcx, %rdx
	movslq	-4(%rbp), %rcx
	shlq	$4, %rcx
	addq	%rcx, %rdx
	movslq	-8(%rbp), %rcx
	movl	%esi, (%rdx,%rcx,4)
	movslq	-16(%rbp), %rcx
	movswl	Offset_intra_default_intra(,%rcx,2), %edx
	movl	-20(%rbp), %ecx
                                        # kill: def $cl killed $ecx
	shll	%cl, %edx
	movslq	-12(%rbp), %rcx
	shlq	$6, %rcx
	addq	%rcx, %rax
	movslq	-4(%rbp), %rcx
	shlq	$4, %rcx
	addq	%rcx, %rax
	movslq	-8(%rbp), %rcx
	movl	%edx, (%rax,%rcx,4)
	jmp	.LBB8_26
.LBB8_25:                               # %if.else154
                                        #   in Loop: Header=BB8_22 Depth=3
	movabsq	$LevelOffset4x4Chroma_Intra, %rdx
	movq	%rdx, %rax
	addq	$832, %rax              # imm = 0x340
	movslq	-16(%rbp), %rcx
	movswl	Offset_intra_default_inter(,%rcx,2), %esi
	movl	-20(%rbp), %ecx
                                        # kill: def $cl killed $ecx
	shll	%cl, %esi
	movslq	-12(%rbp), %rcx
	shlq	$6, %rcx
	movabsq	$LevelOffset4x4Luma_Intra, %rdi
	addq	%rcx, %rdi
	movslq	-4(%rbp), %rcx
	shlq	$4, %rcx
	addq	%rcx, %rdi
	movslq	-8(%rbp), %rcx
	movl	%esi, (%rdi,%rcx,4)
	movslq	-16(%rbp), %rcx
	movswl	Offset_intra_default_inter(,%rcx,2), %esi
	movl	-20(%rbp), %ecx
                                        # kill: def $cl killed $ecx
	shll	%cl, %esi
	movslq	-12(%rbp), %rcx
	shlq	$6, %rcx
	addq	%rcx, %rdx
	movslq	-4(%rbp), %rcx
	shlq	$4, %rcx
	addq	%rcx, %rdx
	movslq	-8(%rbp), %rcx
	movl	%esi, (%rdx,%rcx,4)
	movslq	-16(%rbp), %rcx
	movswl	Offset_intra_default_inter(,%rcx,2), %edx
	movl	-20(%rbp), %ecx
                                        # kill: def $cl killed $ecx
	shll	%cl, %edx
	movslq	-12(%rbp), %rcx
	shlq	$6, %rcx
	addq	%rcx, %rax
	movslq	-4(%rbp), %rcx
	shlq	$4, %rcx
	addq	%rcx, %rax
	movslq	-8(%rbp), %rcx
	movl	%edx, (%rax,%rcx,4)
.LBB8_26:                               # %if.end185
                                        #   in Loop: Header=BB8_22 Depth=3
	movabsq	$LevelOffset4x4Chroma_Inter, %rdx
	movq	%rdx, %rax
	addq	$832, %rax              # imm = 0x340
	movslq	-16(%rbp), %rcx
	movswl	Offset_inter_default(,%rcx,2), %esi
	movl	-20(%rbp), %ecx
                                        # kill: def $cl killed $ecx
	shll	%cl, %esi
	movslq	-12(%rbp), %rcx
	shlq	$6, %rcx
	movabsq	$LevelOffset4x4Luma_Inter, %rdi
	addq	%rcx, %rdi
	movslq	-4(%rbp), %rcx
	shlq	$4, %rcx
	addq	%rcx, %rdi
	movslq	-8(%rbp), %rcx
	movl	%esi, (%rdi,%rcx,4)
	movslq	-16(%rbp), %rcx
	movswl	Offset_inter_default(,%rcx,2), %esi
	movl	-20(%rbp), %ecx
                                        # kill: def $cl killed $ecx
	shll	%cl, %esi
	movslq	-12(%rbp), %rcx
	shlq	$6, %rcx
	addq	%rcx, %rdx
	movslq	-4(%rbp), %rcx
	shlq	$4, %rcx
	addq	%rcx, %rdx
	movslq	-8(%rbp), %rcx
	movl	%esi, (%rdx,%rcx,4)
	movslq	-16(%rbp), %rcx
	movswl	Offset_inter_default(,%rcx,2), %edx
	movl	-20(%rbp), %ecx
                                        # kill: def $cl killed $ecx
	shll	%cl, %edx
	movslq	-12(%rbp), %rcx
	shlq	$6, %rcx
	addq	%rcx, %rax
	movslq	-4(%rbp), %rcx
	shlq	$4, %rcx
	addq	%rcx, %rax
	movslq	-8(%rbp), %rcx
	movl	%edx, (%rax,%rcx,4)
# %bb.27:                               # %for.inc216
                                        #   in Loop: Header=BB8_22 Depth=3
	movl	-8(%rbp), %eax
	addl	$1, %eax
	movl	%eax, -8(%rbp)
	jmp	.LBB8_22
.LBB8_28:                               # %for.end218
                                        #   in Loop: Header=BB8_20 Depth=2
	jmp	.LBB8_29
.LBB8_29:                               # %for.inc219
                                        #   in Loop: Header=BB8_20 Depth=2
	movl	-4(%rbp), %eax
	addl	$1, %eax
	movl	%eax, -4(%rbp)
	jmp	.LBB8_20
.LBB8_30:                               # %for.end221
                                        #   in Loop: Header=BB8_18 Depth=1
	jmp	.LBB8_31
.LBB8_31:                               # %for.inc222
                                        #   in Loop: Header=BB8_18 Depth=1
	movl	-12(%rbp), %eax
	addl	$1, %eax
	movl	%eax, -12(%rbp)
	jmp	.LBB8_18
.LBB8_32:                               # %for.end224
	jmp	.LBB8_33
.LBB8_33:                               # %if.end225
	cmpl	$1829331701, -24(%rbp)  # imm = 0x6D0962F5
	jne	.LBB8_35
.LBB8_34:
	addq	$32, %rsp
	popq	%rbp
	.cfi_def_cfa %rsp, 8
	retq
.LBB8_35:                               # %func_exit
	.cfi_def_cfa %rbp, 16
	callq	detect_breach
	jmp	.LBB8_34
.Lfunc_end8:
	.size	CalculateOffsetParam.4, .Lfunc_end8-CalculateOffsetParam.4
	.cfi_endproc
                                        # -- End function
	.globl	CalculateOffsetParam.5  # -- Begin function CalculateOffsetParam.5
	.p2align	4, 0x90
	.type	CalculateOffsetParam.5,@function
CalculateOffsetParam.5:                 # @CalculateOffsetParam.5
	.cfi_startproc
# %bb.0:                                # %entry
	pushq	%rbp
	.cfi_def_cfa_offset 16
	.cfi_offset %rbp, -16
	movq	%rsp, %rbp
	.cfi_def_cfa_register %rbp
	subq	$32, %rsp
	movl	$1268146380, -24(%rbp)  # imm = 0x4B9660CC
	movq	input, %rax
	cmpl	$0, 3584(%rax)
	je	.LBB9_17
# %bb.1:                                # %if.then
	movl	$0, -4(%rbp)
.LBB9_2:                                # %for.cond
                                        # =>This Loop Header: Depth=1
                                        #     Child Loop BB9_4 Depth 2
                                        #       Child Loop BB9_6 Depth 3
	cmpl	$13, -4(%rbp)
	jge	.LBB9_16
# %bb.3:                                # %for.body
                                        #   in Loop: Header=BB9_2 Depth=1
	movl	-4(%rbp), %eax
	addl	$15, %eax
	subl	$10, %eax
	movl	%eax, -16(%rbp)
	movl	$0, -12(%rbp)
.LBB9_4:                                # %for.cond1
                                        #   Parent Loop BB9_2 Depth=1
                                        # =>  This Loop Header: Depth=2
                                        #       Child Loop BB9_6 Depth 3
	cmpl	$4, -12(%rbp)
	jge	.LBB9_14
# %bb.5:                                # %for.body3
                                        #   in Loop: Header=BB9_4 Depth=2
	movl	$0, -8(%rbp)
.LBB9_6:                                # %for.cond4
                                        #   Parent Loop BB9_2 Depth=1
                                        #     Parent Loop BB9_4 Depth=2
                                        # =>    This Inner Loop Header: Depth=3
	cmpl	$4, -8(%rbp)
	jge	.LBB9_12
# %bb.7:                                # %for.body6
                                        #   in Loop: Header=BB9_6 Depth=3
	movl	-8(%rbp), %eax
	shll	$2, %eax
	addl	-12(%rbp), %eax
	movl	%eax, -20(%rbp)
	movq	img, %rax
	cmpl	$2, 24(%rax)
	jne	.LBB9_9
# %bb.8:                                # %if.then9
                                        #   in Loop: Header=BB9_6 Depth=3
	movabsq	$LevelOffset4x4Chroma_Intra, %rdx
	movq	%rdx, %rax
	addq	$832, %rax              # imm = 0x340
	movslq	-20(%rbp), %rcx
	movswl	OffsetList4x4input(,%rcx,2), %esi
	movl	-16(%rbp), %ecx
                                        # kill: def $cl killed $ecx
	shll	%cl, %esi
	movslq	-4(%rbp), %rcx
	shlq	$6, %rcx
	movabsq	$LevelOffset4x4Luma_Intra, %rdi
	addq	%rcx, %rdi
	movslq	-12(%rbp), %rcx
	shlq	$4, %rcx
	addq	%rcx, %rdi
	movslq	-8(%rbp), %rcx
	movl	%esi, (%rdi,%rcx,4)
	movslq	-20(%rbp), %rcx
	movswl	OffsetList4x4input+32(,%rcx,2), %esi
	movl	-16(%rbp), %ecx
                                        # kill: def $cl killed $ecx
	shll	%cl, %esi
	movslq	-4(%rbp), %rcx
	shlq	$6, %rcx
	addq	%rcx, %rdx
	movslq	-12(%rbp), %rcx
	shlq	$4, %rcx
	addq	%rcx, %rdx
	movslq	-8(%rbp), %rcx
	movl	%esi, (%rdx,%rcx,4)
	movslq	-20(%rbp), %rcx
	movswl	OffsetList4x4input+64(,%rcx,2), %edx
	movl	-16(%rbp), %ecx
                                        # kill: def $cl killed $ecx
	shll	%cl, %edx
	movslq	-4(%rbp), %rcx
	shlq	$6, %rcx
	addq	%rcx, %rax
	movslq	-12(%rbp), %rcx
	shlq	$4, %rcx
	addq	%rcx, %rax
	movslq	-8(%rbp), %rcx
	movl	%edx, (%rax,%rcx,4)
	jmp	.LBB9_10
.LBB9_9:                                # %if.else
                                        #   in Loop: Header=BB9_6 Depth=3
	movabsq	$LevelOffset4x4Chroma_Intra, %rdx
	movq	%rdx, %rax
	addq	$832, %rax              # imm = 0x340
	movslq	-20(%rbp), %rcx
	movswl	OffsetList4x4input+96(,%rcx,2), %esi
	movl	-16(%rbp), %ecx
                                        # kill: def $cl killed $ecx
	shll	%cl, %esi
	movslq	-4(%rbp), %rcx
	shlq	$6, %rcx
	movabsq	$LevelOffset4x4Luma_Intra, %rdi
	addq	%rcx, %rdi
	movslq	-12(%rbp), %rcx
	shlq	$4, %rcx
	addq	%rcx, %rdi
	movslq	-8(%rbp), %rcx
	movl	%esi, (%rdi,%rcx,4)
	movslq	-20(%rbp), %rcx
	movswl	OffsetList4x4input+128(,%rcx,2), %esi
	movl	-16(%rbp), %ecx
                                        # kill: def $cl killed $ecx
	shll	%cl, %esi
	movslq	-4(%rbp), %rcx
	shlq	$6, %rcx
	addq	%rcx, %rdx
	movslq	-12(%rbp), %rcx
	shlq	$4, %rcx
	addq	%rcx, %rdx
	movslq	-8(%rbp), %rcx
	movl	%esi, (%rdx,%rcx,4)
	movslq	-20(%rbp), %rcx
	movswl	OffsetList4x4input+160(,%rcx,2), %edx
	movl	-16(%rbp), %ecx
                                        # kill: def $cl killed $ecx
	shll	%cl, %edx
	movslq	-4(%rbp), %rcx
	shlq	$6, %rcx
	addq	%rcx, %rax
	movslq	-12(%rbp), %rcx
	shlq	$4, %rcx
	addq	%rcx, %rax
	movslq	-8(%rbp), %rcx
	movl	%edx, (%rax,%rcx,4)
.LBB9_10:                               # %if.end
                                        #   in Loop: Header=BB9_6 Depth=3
	movabsq	$LevelOffset4x4Chroma_Inter, %rdx
	movq	%rdx, %rax
	addq	$832, %rax              # imm = 0x340
	movslq	-20(%rbp), %rcx
	movswl	OffsetList4x4input+192(,%rcx,2), %esi
	movl	-16(%rbp), %ecx
                                        # kill: def $cl killed $ecx
	shll	%cl, %esi
	movslq	-4(%rbp), %rcx
	shlq	$6, %rcx
	movabsq	$LevelOffset4x4Luma_Inter, %rdi
	addq	%rcx, %rdi
	movslq	-12(%rbp), %rcx
	shlq	$4, %rcx
	addq	%rcx, %rdi
	movslq	-8(%rbp), %rcx
	movl	%esi, (%rdi,%rcx,4)
	movslq	-20(%rbp), %rcx
	movswl	OffsetList4x4input+224(,%rcx,2), %esi
	movl	-16(%rbp), %ecx
                                        # kill: def $cl killed $ecx
	shll	%cl, %esi
	movslq	-4(%rbp), %rcx
	shlq	$6, %rcx
	addq	%rcx, %rdx
	movslq	-12(%rbp), %rcx
	shlq	$4, %rcx
	addq	%rcx, %rdx
	movslq	-8(%rbp), %rcx
	movl	%esi, (%rdx,%rcx,4)
	movslq	-20(%rbp), %rcx
	movswl	OffsetList4x4input+256(,%rcx,2), %edx
	movl	-16(%rbp), %ecx
                                        # kill: def $cl killed $ecx
	shll	%cl, %edx
	movslq	-4(%rbp), %rcx
	shlq	$6, %rcx
	addq	%rcx, %rax
	movslq	-12(%rbp), %rcx
	shlq	$4, %rcx
	addq	%rcx, %rax
	movslq	-8(%rbp), %rcx
	movl	%edx, (%rax,%rcx,4)
# %bb.11:                               # %for.inc
                                        #   in Loop: Header=BB9_6 Depth=3
	movl	-8(%rbp), %eax
	addl	$1, %eax
	movl	%eax, -8(%rbp)
	jmp	.LBB9_6
.LBB9_12:                               # %for.end
                                        #   in Loop: Header=BB9_4 Depth=2
	jmp	.LBB9_13
.LBB9_13:                               # %for.inc97
                                        #   in Loop: Header=BB9_4 Depth=2
	movl	-12(%rbp), %eax
	addl	$1, %eax
	movl	%eax, -12(%rbp)
	jmp	.LBB9_4
.LBB9_14:                               # %for.end99
                                        #   in Loop: Header=BB9_2 Depth=1
	jmp	.LBB9_15
.LBB9_15:                               # %for.inc100
                                        #   in Loop: Header=BB9_2 Depth=1
	movl	-4(%rbp), %eax
	addl	$1, %eax
	movl	%eax, -4(%rbp)
	jmp	.LBB9_2
.LBB9_16:                               # %for.end102
	jmp	.LBB9_33
.LBB9_17:                               # %if.else103
	movl	$0, -4(%rbp)
.LBB9_18:                               # %for.cond104
                                        # =>This Loop Header: Depth=1
                                        #     Child Loop BB9_20 Depth 2
                                        #       Child Loop BB9_22 Depth 3
	cmpl	$13, -4(%rbp)
	jge	.LBB9_32
# %bb.19:                               # %for.body107
                                        #   in Loop: Header=BB9_18 Depth=1
	movl	-4(%rbp), %eax
	addl	$15, %eax
	subl	$10, %eax
	movl	%eax, -16(%rbp)
	movl	$0, -12(%rbp)
.LBB9_20:                               # %for.cond110
                                        #   Parent Loop BB9_18 Depth=1
                                        # =>  This Loop Header: Depth=2
                                        #       Child Loop BB9_22 Depth 3
	cmpl	$4, -12(%rbp)
	jge	.LBB9_30
# %bb.21:                               # %for.body113
                                        #   in Loop: Header=BB9_20 Depth=2
	movl	$0, -8(%rbp)
.LBB9_22:                               # %for.cond114
                                        #   Parent Loop BB9_18 Depth=1
                                        #     Parent Loop BB9_20 Depth=2
                                        # =>    This Inner Loop Header: Depth=3
	cmpl	$4, -8(%rbp)
	jge	.LBB9_28
# %bb.23:                               # %for.body117
                                        #   in Loop: Header=BB9_22 Depth=3
	movl	-8(%rbp), %eax
	shll	$2, %eax
	addl	-12(%rbp), %eax
	movl	%eax, -20(%rbp)
	movq	img, %rax
	cmpl	$2, 24(%rax)
	jne	.LBB9_25
# %bb.24:                               # %if.then123
                                        #   in Loop: Header=BB9_22 Depth=3
	movabsq	$LevelOffset4x4Chroma_Intra, %rdx
	movq	%rdx, %rax
	addq	$832, %rax              # imm = 0x340
	movslq	-20(%rbp), %rcx
	movswl	Offset_intra_default_intra(,%rcx,2), %esi
	movl	-16(%rbp), %ecx
                                        # kill: def $cl killed $ecx
	shll	%cl, %esi
	movslq	-4(%rbp), %rcx
	shlq	$6, %rcx
	movabsq	$LevelOffset4x4Luma_Intra, %rdi
	addq	%rcx, %rdi
	movslq	-12(%rbp), %rcx
	shlq	$4, %rcx
	addq	%rcx, %rdi
	movslq	-8(%rbp), %rcx
	movl	%esi, (%rdi,%rcx,4)
	movslq	-20(%rbp), %rcx
	movswl	Offset_intra_default_intra(,%rcx,2), %esi
	movl	-16(%rbp), %ecx
                                        # kill: def $cl killed $ecx
	shll	%cl, %esi
	movslq	-4(%rbp), %rcx
	shlq	$6, %rcx
	addq	%rcx, %rdx
	movslq	-12(%rbp), %rcx
	shlq	$4, %rcx
	addq	%rcx, %rdx
	movslq	-8(%rbp), %rcx
	movl	%esi, (%rdx,%rcx,4)
	movslq	-20(%rbp), %rcx
	movswl	Offset_intra_default_intra(,%rcx,2), %edx
	movl	-16(%rbp), %ecx
                                        # kill: def $cl killed $ecx
	shll	%cl, %edx
	movslq	-4(%rbp), %rcx
	shlq	$6, %rcx
	addq	%rcx, %rax
	movslq	-12(%rbp), %rcx
	shlq	$4, %rcx
	addq	%rcx, %rax
	movslq	-8(%rbp), %rcx
	movl	%edx, (%rax,%rcx,4)
	jmp	.LBB9_26
.LBB9_25:                               # %if.else154
                                        #   in Loop: Header=BB9_22 Depth=3
	movabsq	$LevelOffset4x4Chroma_Intra, %rdx
	movq	%rdx, %rax
	addq	$832, %rax              # imm = 0x340
	movslq	-20(%rbp), %rcx
	movswl	Offset_intra_default_inter(,%rcx,2), %esi
	movl	-16(%rbp), %ecx
                                        # kill: def $cl killed $ecx
	shll	%cl, %esi
	movslq	-4(%rbp), %rcx
	shlq	$6, %rcx
	movabsq	$LevelOffset4x4Luma_Intra, %rdi
	addq	%rcx, %rdi
	movslq	-12(%rbp), %rcx
	shlq	$4, %rcx
	addq	%rcx, %rdi
	movslq	-8(%rbp), %rcx
	movl	%esi, (%rdi,%rcx,4)
	movslq	-20(%rbp), %rcx
	movswl	Offset_intra_default_inter(,%rcx,2), %esi
	movl	-16(%rbp), %ecx
                                        # kill: def $cl killed $ecx
	shll	%cl, %esi
	movslq	-4(%rbp), %rcx
	shlq	$6, %rcx
	addq	%rcx, %rdx
	movslq	-12(%rbp), %rcx
	shlq	$4, %rcx
	addq	%rcx, %rdx
	movslq	-8(%rbp), %rcx
	movl	%esi, (%rdx,%rcx,4)
	movslq	-20(%rbp), %rcx
	movswl	Offset_intra_default_inter(,%rcx,2), %edx
	movl	-16(%rbp), %ecx
                                        # kill: def $cl killed $ecx
	shll	%cl, %edx
	movslq	-4(%rbp), %rcx
	shlq	$6, %rcx
	addq	%rcx, %rax
	movslq	-12(%rbp), %rcx
	shlq	$4, %rcx
	addq	%rcx, %rax
	movslq	-8(%rbp), %rcx
	movl	%edx, (%rax,%rcx,4)
.LBB9_26:                               # %if.end185
                                        #   in Loop: Header=BB9_22 Depth=3
	movabsq	$LevelOffset4x4Chroma_Inter, %rdx
	movq	%rdx, %rax
	addq	$832, %rax              # imm = 0x340
	movslq	-20(%rbp), %rcx
	movswl	Offset_inter_default(,%rcx,2), %esi
	movl	-16(%rbp), %ecx
                                        # kill: def $cl killed $ecx
	shll	%cl, %esi
	movslq	-4(%rbp), %rcx
	shlq	$6, %rcx
	movabsq	$LevelOffset4x4Luma_Inter, %rdi
	addq	%rcx, %rdi
	movslq	-12(%rbp), %rcx
	shlq	$4, %rcx
	addq	%rcx, %rdi
	movslq	-8(%rbp), %rcx
	movl	%esi, (%rdi,%rcx,4)
	movslq	-20(%rbp), %rcx
	movswl	Offset_inter_default(,%rcx,2), %esi
	movl	-16(%rbp), %ecx
                                        # kill: def $cl killed $ecx
	shll	%cl, %esi
	movslq	-4(%rbp), %rcx
	shlq	$6, %rcx
	addq	%rcx, %rdx
	movslq	-12(%rbp), %rcx
	shlq	$4, %rcx
	addq	%rcx, %rdx
	movslq	-8(%rbp), %rcx
	movl	%esi, (%rdx,%rcx,4)
	movslq	-20(%rbp), %rcx
	movswl	Offset_inter_default(,%rcx,2), %edx
	movl	-16(%rbp), %ecx
                                        # kill: def $cl killed $ecx
	shll	%cl, %edx
	movslq	-4(%rbp), %rcx
	shlq	$6, %rcx
	addq	%rcx, %rax
	movslq	-12(%rbp), %rcx
	shlq	$4, %rcx
	addq	%rcx, %rax
	movslq	-8(%rbp), %rcx
	movl	%edx, (%rax,%rcx,4)
# %bb.27:                               # %for.inc216
                                        #   in Loop: Header=BB9_22 Depth=3
	movl	-8(%rbp), %eax
	addl	$1, %eax
	movl	%eax, -8(%rbp)
	jmp	.LBB9_22
.LBB9_28:                               # %for.end218
                                        #   in Loop: Header=BB9_20 Depth=2
	jmp	.LBB9_29
.LBB9_29:                               # %for.inc219
                                        #   in Loop: Header=BB9_20 Depth=2
	movl	-12(%rbp), %eax
	addl	$1, %eax
	movl	%eax, -12(%rbp)
	jmp	.LBB9_20
.LBB9_30:                               # %for.end221
                                        #   in Loop: Header=BB9_18 Depth=1
	jmp	.LBB9_31
.LBB9_31:                               # %for.inc222
                                        #   in Loop: Header=BB9_18 Depth=1
	movl	-4(%rbp), %eax
	addl	$1, %eax
	movl	%eax, -4(%rbp)
	jmp	.LBB9_18
.LBB9_32:                               # %for.end224
	jmp	.LBB9_33
.LBB9_33:                               # %if.end225
	cmpl	$1268146380, -24(%rbp)  # imm = 0x4B9660CC
	jne	.LBB9_35
.LBB9_34:
	addq	$32, %rsp
	popq	%rbp
	.cfi_def_cfa %rsp, 8
	retq
.LBB9_35:                               # %func_exit
	.cfi_def_cfa %rbp, 16
	callq	detect_breach
	jmp	.LBB9_34
.Lfunc_end9:
	.size	CalculateOffsetParam.5, .Lfunc_end9-CalculateOffsetParam.5
	.cfi_endproc
                                        # -- End function
	.globl	CalculateOffsetParam.6  # -- Begin function CalculateOffsetParam.6
	.p2align	4, 0x90
	.type	CalculateOffsetParam.6,@function
CalculateOffsetParam.6:                 # @CalculateOffsetParam.6
	.cfi_startproc
# %bb.0:                                # %entry
	pushq	%rbp
	.cfi_def_cfa_offset 16
	.cfi_offset %rbp, -16
	movq	%rsp, %rbp
	.cfi_def_cfa_register %rbp
	subq	$32, %rsp
	movl	$761952013, -24(%rbp)   # imm = 0x2D6A770D
	movq	input, %rax
	cmpl	$0, 3584(%rax)
	je	.LBB10_17
# %bb.1:                                # %if.then
	movl	$0, -12(%rbp)
.LBB10_2:                               # %for.cond
                                        # =>This Loop Header: Depth=1
                                        #     Child Loop BB10_4 Depth 2
                                        #       Child Loop BB10_6 Depth 3
	cmpl	$13, -12(%rbp)
	jge	.LBB10_16
# %bb.3:                                # %for.body
                                        #   in Loop: Header=BB10_2 Depth=1
	movl	-12(%rbp), %eax
	addl	$15, %eax
	subl	$10, %eax
	movl	%eax, -16(%rbp)
	movl	$0, -8(%rbp)
.LBB10_4:                               # %for.cond1
                                        #   Parent Loop BB10_2 Depth=1
                                        # =>  This Loop Header: Depth=2
                                        #       Child Loop BB10_6 Depth 3
	cmpl	$4, -8(%rbp)
	jge	.LBB10_14
# %bb.5:                                # %for.body3
                                        #   in Loop: Header=BB10_4 Depth=2
	movl	$0, -4(%rbp)
.LBB10_6:                               # %for.cond4
                                        #   Parent Loop BB10_2 Depth=1
                                        #     Parent Loop BB10_4 Depth=2
                                        # =>    This Inner Loop Header: Depth=3
	cmpl	$4, -4(%rbp)
	jge	.LBB10_12
# %bb.7:                                # %for.body6
                                        #   in Loop: Header=BB10_6 Depth=3
	movl	-4(%rbp), %eax
	shll	$2, %eax
	addl	-8(%rbp), %eax
	movl	%eax, -20(%rbp)
	movq	img, %rax
	cmpl	$2, 24(%rax)
	jne	.LBB10_9
# %bb.8:                                # %if.then9
                                        #   in Loop: Header=BB10_6 Depth=3
	movabsq	$LevelOffset4x4Chroma_Intra, %rdx
	movq	%rdx, %rax
	addq	$832, %rax              # imm = 0x340
	movslq	-20(%rbp), %rcx
	movswl	OffsetList4x4input(,%rcx,2), %esi
	movl	-16(%rbp), %ecx
                                        # kill: def $cl killed $ecx
	shll	%cl, %esi
	movslq	-12(%rbp), %rcx
	shlq	$6, %rcx
	movabsq	$LevelOffset4x4Luma_Intra, %rdi
	addq	%rcx, %rdi
	movslq	-8(%rbp), %rcx
	shlq	$4, %rcx
	addq	%rcx, %rdi
	movslq	-4(%rbp), %rcx
	movl	%esi, (%rdi,%rcx,4)
	movslq	-20(%rbp), %rcx
	movswl	OffsetList4x4input+32(,%rcx,2), %esi
	movl	-16(%rbp), %ecx
                                        # kill: def $cl killed $ecx
	shll	%cl, %esi
	movslq	-12(%rbp), %rcx
	shlq	$6, %rcx
	addq	%rcx, %rdx
	movslq	-8(%rbp), %rcx
	shlq	$4, %rcx
	addq	%rcx, %rdx
	movslq	-4(%rbp), %rcx
	movl	%esi, (%rdx,%rcx,4)
	movslq	-20(%rbp), %rcx
	movswl	OffsetList4x4input+64(,%rcx,2), %edx
	movl	-16(%rbp), %ecx
                                        # kill: def $cl killed $ecx
	shll	%cl, %edx
	movslq	-12(%rbp), %rcx
	shlq	$6, %rcx
	addq	%rcx, %rax
	movslq	-8(%rbp), %rcx
	shlq	$4, %rcx
	addq	%rcx, %rax
	movslq	-4(%rbp), %rcx
	movl	%edx, (%rax,%rcx,4)
	jmp	.LBB10_10
.LBB10_9:                               # %if.else
                                        #   in Loop: Header=BB10_6 Depth=3
	movabsq	$LevelOffset4x4Chroma_Intra, %rdx
	movq	%rdx, %rax
	addq	$832, %rax              # imm = 0x340
	movslq	-20(%rbp), %rcx
	movswl	OffsetList4x4input+96(,%rcx,2), %esi
	movl	-16(%rbp), %ecx
                                        # kill: def $cl killed $ecx
	shll	%cl, %esi
	movslq	-12(%rbp), %rcx
	shlq	$6, %rcx
	movabsq	$LevelOffset4x4Luma_Intra, %rdi
	addq	%rcx, %rdi
	movslq	-8(%rbp), %rcx
	shlq	$4, %rcx
	addq	%rcx, %rdi
	movslq	-4(%rbp), %rcx
	movl	%esi, (%rdi,%rcx,4)
	movslq	-20(%rbp), %rcx
	movswl	OffsetList4x4input+128(,%rcx,2), %esi
	movl	-16(%rbp), %ecx
                                        # kill: def $cl killed $ecx
	shll	%cl, %esi
	movslq	-12(%rbp), %rcx
	shlq	$6, %rcx
	addq	%rcx, %rdx
	movslq	-8(%rbp), %rcx
	shlq	$4, %rcx
	addq	%rcx, %rdx
	movslq	-4(%rbp), %rcx
	movl	%esi, (%rdx,%rcx,4)
	movslq	-20(%rbp), %rcx
	movswl	OffsetList4x4input+160(,%rcx,2), %edx
	movl	-16(%rbp), %ecx
                                        # kill: def $cl killed $ecx
	shll	%cl, %edx
	movslq	-12(%rbp), %rcx
	shlq	$6, %rcx
	addq	%rcx, %rax
	movslq	-8(%rbp), %rcx
	shlq	$4, %rcx
	addq	%rcx, %rax
	movslq	-4(%rbp), %rcx
	movl	%edx, (%rax,%rcx,4)
.LBB10_10:                              # %if.end
                                        #   in Loop: Header=BB10_6 Depth=3
	movabsq	$LevelOffset4x4Chroma_Inter, %rdx
	movq	%rdx, %rax
	addq	$832, %rax              # imm = 0x340
	movslq	-20(%rbp), %rcx
	movswl	OffsetList4x4input+192(,%rcx,2), %esi
	movl	-16(%rbp), %ecx
                                        # kill: def $cl killed $ecx
	shll	%cl, %esi
	movslq	-12(%rbp), %rcx
	shlq	$6, %rcx
	movabsq	$LevelOffset4x4Luma_Inter, %rdi
	addq	%rcx, %rdi
	movslq	-8(%rbp), %rcx
	shlq	$4, %rcx
	addq	%rcx, %rdi
	movslq	-4(%rbp), %rcx
	movl	%esi, (%rdi,%rcx,4)
	movslq	-20(%rbp), %rcx
	movswl	OffsetList4x4input+224(,%rcx,2), %esi
	movl	-16(%rbp), %ecx
                                        # kill: def $cl killed $ecx
	shll	%cl, %esi
	movslq	-12(%rbp), %rcx
	shlq	$6, %rcx
	addq	%rcx, %rdx
	movslq	-8(%rbp), %rcx
	shlq	$4, %rcx
	addq	%rcx, %rdx
	movslq	-4(%rbp), %rcx
	movl	%esi, (%rdx,%rcx,4)
	movslq	-20(%rbp), %rcx
	movswl	OffsetList4x4input+256(,%rcx,2), %edx
	movl	-16(%rbp), %ecx
                                        # kill: def $cl killed $ecx
	shll	%cl, %edx
	movslq	-12(%rbp), %rcx
	shlq	$6, %rcx
	addq	%rcx, %rax
	movslq	-8(%rbp), %rcx
	shlq	$4, %rcx
	addq	%rcx, %rax
	movslq	-4(%rbp), %rcx
	movl	%edx, (%rax,%rcx,4)
# %bb.11:                               # %for.inc
                                        #   in Loop: Header=BB10_6 Depth=3
	movl	-4(%rbp), %eax
	addl	$1, %eax
	movl	%eax, -4(%rbp)
	jmp	.LBB10_6
.LBB10_12:                              # %for.end
                                        #   in Loop: Header=BB10_4 Depth=2
	jmp	.LBB10_13
.LBB10_13:                              # %for.inc97
                                        #   in Loop: Header=BB10_4 Depth=2
	movl	-8(%rbp), %eax
	addl	$1, %eax
	movl	%eax, -8(%rbp)
	jmp	.LBB10_4
.LBB10_14:                              # %for.end99
                                        #   in Loop: Header=BB10_2 Depth=1
	jmp	.LBB10_15
.LBB10_15:                              # %for.inc100
                                        #   in Loop: Header=BB10_2 Depth=1
	movl	-12(%rbp), %eax
	addl	$1, %eax
	movl	%eax, -12(%rbp)
	jmp	.LBB10_2
.LBB10_16:                              # %for.end102
	jmp	.LBB10_33
.LBB10_17:                              # %if.else103
	movl	$0, -12(%rbp)
.LBB10_18:                              # %for.cond104
                                        # =>This Loop Header: Depth=1
                                        #     Child Loop BB10_20 Depth 2
                                        #       Child Loop BB10_22 Depth 3
	cmpl	$13, -12(%rbp)
	jge	.LBB10_32
# %bb.19:                               # %for.body107
                                        #   in Loop: Header=BB10_18 Depth=1
	movl	-12(%rbp), %eax
	addl	$15, %eax
	subl	$10, %eax
	movl	%eax, -16(%rbp)
	movl	$0, -8(%rbp)
.LBB10_20:                              # %for.cond110
                                        #   Parent Loop BB10_18 Depth=1
                                        # =>  This Loop Header: Depth=2
                                        #       Child Loop BB10_22 Depth 3
	cmpl	$4, -8(%rbp)
	jge	.LBB10_30
# %bb.21:                               # %for.body113
                                        #   in Loop: Header=BB10_20 Depth=2
	movl	$0, -4(%rbp)
.LBB10_22:                              # %for.cond114
                                        #   Parent Loop BB10_18 Depth=1
                                        #     Parent Loop BB10_20 Depth=2
                                        # =>    This Inner Loop Header: Depth=3
	cmpl	$4, -4(%rbp)
	jge	.LBB10_28
# %bb.23:                               # %for.body117
                                        #   in Loop: Header=BB10_22 Depth=3
	movl	-4(%rbp), %eax
	shll	$2, %eax
	addl	-8(%rbp), %eax
	movl	%eax, -20(%rbp)
	movq	img, %rax
	cmpl	$2, 24(%rax)
	jne	.LBB10_25
# %bb.24:                               # %if.then123
                                        #   in Loop: Header=BB10_22 Depth=3
	movabsq	$LevelOffset4x4Chroma_Intra, %rdx
	movq	%rdx, %rax
	addq	$832, %rax              # imm = 0x340
	movslq	-20(%rbp), %rcx
	movswl	Offset_intra_default_intra(,%rcx,2), %esi
	movl	-16(%rbp), %ecx
                                        # kill: def $cl killed $ecx
	shll	%cl, %esi
	movslq	-12(%rbp), %rcx
	shlq	$6, %rcx
	movabsq	$LevelOffset4x4Luma_Intra, %rdi
	addq	%rcx, %rdi
	movslq	-8(%rbp), %rcx
	shlq	$4, %rcx
	addq	%rcx, %rdi
	movslq	-4(%rbp), %rcx
	movl	%esi, (%rdi,%rcx,4)
	movslq	-20(%rbp), %rcx
	movswl	Offset_intra_default_intra(,%rcx,2), %esi
	movl	-16(%rbp), %ecx
                                        # kill: def $cl killed $ecx
	shll	%cl, %esi
	movslq	-12(%rbp), %rcx
	shlq	$6, %rcx
	addq	%rcx, %rdx
	movslq	-8(%rbp), %rcx
	shlq	$4, %rcx
	addq	%rcx, %rdx
	movslq	-4(%rbp), %rcx
	movl	%esi, (%rdx,%rcx,4)
	movslq	-20(%rbp), %rcx
	movswl	Offset_intra_default_intra(,%rcx,2), %edx
	movl	-16(%rbp), %ecx
                                        # kill: def $cl killed $ecx
	shll	%cl, %edx
	movslq	-12(%rbp), %rcx
	shlq	$6, %rcx
	addq	%rcx, %rax
	movslq	-8(%rbp), %rcx
	shlq	$4, %rcx
	addq	%rcx, %rax
	movslq	-4(%rbp), %rcx
	movl	%edx, (%rax,%rcx,4)
	jmp	.LBB10_26
.LBB10_25:                              # %if.else154
                                        #   in Loop: Header=BB10_22 Depth=3
	movabsq	$LevelOffset4x4Chroma_Intra, %rdx
	movq	%rdx, %rax
	addq	$832, %rax              # imm = 0x340
	movslq	-20(%rbp), %rcx
	movswl	Offset_intra_default_inter(,%rcx,2), %esi
	movl	-16(%rbp), %ecx
                                        # kill: def $cl killed $ecx
	shll	%cl, %esi
	movslq	-12(%rbp), %rcx
	shlq	$6, %rcx
	movabsq	$LevelOffset4x4Luma_Intra, %rdi
	addq	%rcx, %rdi
	movslq	-8(%rbp), %rcx
	shlq	$4, %rcx
	addq	%rcx, %rdi
	movslq	-4(%rbp), %rcx
	movl	%esi, (%rdi,%rcx,4)
	movslq	-20(%rbp), %rcx
	movswl	Offset_intra_default_inter(,%rcx,2), %esi
	movl	-16(%rbp), %ecx
                                        # kill: def $cl killed $ecx
	shll	%cl, %esi
	movslq	-12(%rbp), %rcx
	shlq	$6, %rcx
	addq	%rcx, %rdx
	movslq	-8(%rbp), %rcx
	shlq	$4, %rcx
	addq	%rcx, %rdx
	movslq	-4(%rbp), %rcx
	movl	%esi, (%rdx,%rcx,4)
	movslq	-20(%rbp), %rcx
	movswl	Offset_intra_default_inter(,%rcx,2), %edx
	movl	-16(%rbp), %ecx
                                        # kill: def $cl killed $ecx
	shll	%cl, %edx
	movslq	-12(%rbp), %rcx
	shlq	$6, %rcx
	addq	%rcx, %rax
	movslq	-8(%rbp), %rcx
	shlq	$4, %rcx
	addq	%rcx, %rax
	movslq	-4(%rbp), %rcx
	movl	%edx, (%rax,%rcx,4)
.LBB10_26:                              # %if.end185
                                        #   in Loop: Header=BB10_22 Depth=3
	movabsq	$LevelOffset4x4Chroma_Inter, %rdx
	movq	%rdx, %rax
	addq	$832, %rax              # imm = 0x340
	movslq	-20(%rbp), %rcx
	movswl	Offset_inter_default(,%rcx,2), %esi
	movl	-16(%rbp), %ecx
                                        # kill: def $cl killed $ecx
	shll	%cl, %esi
	movslq	-12(%rbp), %rcx
	shlq	$6, %rcx
	movabsq	$LevelOffset4x4Luma_Inter, %rdi
	addq	%rcx, %rdi
	movslq	-8(%rbp), %rcx
	shlq	$4, %rcx
	addq	%rcx, %rdi
	movslq	-4(%rbp), %rcx
	movl	%esi, (%rdi,%rcx,4)
	movslq	-20(%rbp), %rcx
	movswl	Offset_inter_default(,%rcx,2), %esi
	movl	-16(%rbp), %ecx
                                        # kill: def $cl killed $ecx
	shll	%cl, %esi
	movslq	-12(%rbp), %rcx
	shlq	$6, %rcx
	addq	%rcx, %rdx
	movslq	-8(%rbp), %rcx
	shlq	$4, %rcx
	addq	%rcx, %rdx
	movslq	-4(%rbp), %rcx
	movl	%esi, (%rdx,%rcx,4)
	movslq	-20(%rbp), %rcx
	movswl	Offset_inter_default(,%rcx,2), %edx
	movl	-16(%rbp), %ecx
                                        # kill: def $cl killed $ecx
	shll	%cl, %edx
	movslq	-12(%rbp), %rcx
	shlq	$6, %rcx
	addq	%rcx, %rax
	movslq	-8(%rbp), %rcx
	shlq	$4, %rcx
	addq	%rcx, %rax
	movslq	-4(%rbp), %rcx
	movl	%edx, (%rax,%rcx,4)
# %bb.27:                               # %for.inc216
                                        #   in Loop: Header=BB10_22 Depth=3
	movl	-4(%rbp), %eax
	addl	$1, %eax
	movl	%eax, -4(%rbp)
	jmp	.LBB10_22
.LBB10_28:                              # %for.end218
                                        #   in Loop: Header=BB10_20 Depth=2
	jmp	.LBB10_29
.LBB10_29:                              # %for.inc219
                                        #   in Loop: Header=BB10_20 Depth=2
	movl	-8(%rbp), %eax
	addl	$1, %eax
	movl	%eax, -8(%rbp)
	jmp	.LBB10_20
.LBB10_30:                              # %for.end221
                                        #   in Loop: Header=BB10_18 Depth=1
	jmp	.LBB10_31
.LBB10_31:                              # %for.inc222
                                        #   in Loop: Header=BB10_18 Depth=1
	movl	-12(%rbp), %eax
	addl	$1, %eax
	movl	%eax, -12(%rbp)
	jmp	.LBB10_18
.LBB10_32:                              # %for.end224
	jmp	.LBB10_33
.LBB10_33:                              # %if.end225
	cmpl	$761952013, -24(%rbp)   # imm = 0x2D6A770D
	jne	.LBB10_35
.LBB10_34:
	addq	$32, %rsp
	popq	%rbp
	.cfi_def_cfa %rsp, 8
	retq
.LBB10_35:                              # %func_exit
	.cfi_def_cfa %rbp, 16
	callq	detect_breach
	jmp	.LBB10_34
.Lfunc_end10:
	.size	CalculateOffsetParam.6, .Lfunc_end10-CalculateOffsetParam.6
	.cfi_endproc
                                        # -- End function
	.globl	CheckOffsetParameterName.7 # -- Begin function CheckOffsetParameterName.7
	.p2align	4, 0x90
	.type	CheckOffsetParameterName.7,@function
CheckOffsetParameterName.7:             # @CheckOffsetParameterName.7
	.cfi_startproc
# %bb.0:                                # %entry
	pushq	%rbp
	.cfi_def_cfa_offset 16
	.cfi_offset %rbp, -16
	movq	%rsp, %rbp
	.cfi_def_cfa_register %rbp
	pushq	%rbx
	subq	$40, %rsp
	.cfi_offset %rbx, -24
	movl	$763807365, -20(%rbp)   # imm = 0x2D86C685
	movq	%rdi, -32(%rbp)
	movq	%rsi, -40(%rbp)
	movl	$0, -12(%rbp)
	movq	-40(%rbp), %rax
	movl	$0, (%rax)
.LBB11_1:                               # %while.cond
                                        # =>This Inner Loop Header: Depth=1
	xorl	%eax, %eax
	movslq	-12(%rbp), %rcx
	imulq	$24, %rcx, %rcx
	movabsq	$OffsetType4x4, %rdx
	addq	%rcx, %rdx
	cmpq	$0, %rdx
	je	.LBB11_3
# %bb.2:                                # %land.rhs
                                        #   in Loop: Header=BB11_1 Depth=1
	cmpl	$9, -12(%rbp)
	setl	%al
.LBB11_3:                               # %land.end
                                        #   in Loop: Header=BB11_1 Depth=1
	testb	$1, %al
	jne	.LBB11_4
	jmp	.LBB11_8
.LBB11_4:                               # %while.body
                                        #   in Loop: Header=BB11_1 Depth=1
	xorl	%ebx, %ebx
	movslq	-12(%rbp), %rax
	imulq	$24, %rax, %rax
	movabsq	$OffsetType4x4, %rdi
	addq	%rax, %rdi
	movq	-32(%rbp), %rsi
	callq	strcmp
	cmpl	%eax, %ebx
	jne	.LBB11_6
# %bb.5:                                # %if.then
	movl	-12(%rbp), %eax
	movl	%eax, -16(%rbp)
	jmp	.LBB11_17
.LBB11_6:                               # %if.else
                                        #   in Loop: Header=BB11_1 Depth=1
	movl	-12(%rbp), %eax
	addl	$1, %eax
	movl	%eax, -12(%rbp)
# %bb.7:                                # %if.end
                                        #   in Loop: Header=BB11_1 Depth=1
	jmp	.LBB11_1
.LBB11_8:                               # %while.end
	movl	$0, -12(%rbp)
	movq	-40(%rbp), %rax
	movl	$1, (%rax)
.LBB11_9:                               # %while.cond6
                                        # =>This Inner Loop Header: Depth=1
	xorl	%eax, %eax
	movslq	-12(%rbp), %rcx
	imulq	$24, %rcx, %rcx
	movabsq	$OffsetType8x8, %rdx
	addq	%rcx, %rdx
	cmpq	$0, %rdx
	je	.LBB11_11
# %bb.10:                               # %land.rhs11
                                        #   in Loop: Header=BB11_9 Depth=1
	cmpl	$3, -12(%rbp)
	setl	%al
.LBB11_11:                              # %land.end13
                                        #   in Loop: Header=BB11_9 Depth=1
	testb	$1, %al
	jne	.LBB11_12
	jmp	.LBB11_16
.LBB11_12:                              # %while.body14
                                        #   in Loop: Header=BB11_9 Depth=1
	xorl	%ebx, %ebx
	movslq	-12(%rbp), %rax
	imulq	$24, %rax, %rax
	movabsq	$OffsetType8x8, %rdi
	addq	%rax, %rdi
	movq	-32(%rbp), %rsi
	callq	strcmp
	cmpl	%eax, %ebx
	jne	.LBB11_14
# %bb.13:                               # %if.then20
	movl	-12(%rbp), %eax
	movl	%eax, -16(%rbp)
	jmp	.LBB11_17
.LBB11_14:                              # %if.else21
                                        #   in Loop: Header=BB11_9 Depth=1
	movl	-12(%rbp), %eax
	addl	$1, %eax
	movl	%eax, -12(%rbp)
# %bb.15:                               # %if.end23
                                        #   in Loop: Header=BB11_9 Depth=1
	jmp	.LBB11_9
.LBB11_16:                              # %while.end24
	movl	$-1, -16(%rbp)
.LBB11_17:                              # %return
	movl	-16(%rbp), %ebx
	cmpl	$763807365, -20(%rbp)   # imm = 0x2D86C685
	jne	.LBB11_19
.LBB11_18:
	movl	%ebx, %eax
	addq	$40, %rsp
	popq	%rbx
	popq	%rbp
	.cfi_def_cfa %rsp, 8
	retq
.LBB11_19:                              # %func_exit
	.cfi_def_cfa %rbp, 16
	callq	detect_breach
	jmp	.LBB11_18
.Lfunc_end11:
	.size	CheckOffsetParameterName.7, .Lfunc_end11-CheckOffsetParameterName.7
	.cfi_endproc
                                        # -- End function
	.globl	ParseQOffsetMatrix.8    # -- Begin function ParseQOffsetMatrix.8
	.p2align	4, 0x90
	.type	ParseQOffsetMatrix.8,@function
ParseQOffsetMatrix.8:                   # @ParseQOffsetMatrix.8
	.cfi_startproc
# %bb.0:                                # %entry
	pushq	%rbp
	.cfi_def_cfa_offset 16
	.cfi_offset %rbp, -16
	movq	%rsp, %rbp
	.cfi_def_cfa_register %rbp
	subq	$8096, %rsp             # imm = 0x1FA0
	movl	$1171524959, -60(%rbp)  # imm = 0x45D40D5F
	movq	%rdi, -72(%rbp)
	movl	%esi, -52(%rbp)
	movl	$0, -28(%rbp)
	movl	$0, -36(%rbp)
	movl	$0, -20(%rbp)
	movq	-72(%rbp), %rax
	movq	%rax, -16(%rbp)
	movq	-72(%rbp), %rax
	movslq	-52(%rbp), %rcx
	addq	%rcx, %rax
	movq	%rax, -88(%rbp)
.LBB12_1:                               # %while.cond
                                        # =>This Loop Header: Depth=1
                                        #     Child Loop BB12_6 Depth 2
	movq	-16(%rbp), %rax
	cmpq	-88(%rbp), %rax
	jae	.LBB12_25
# %bb.2:                                # %while.body
                                        #   in Loop: Header=BB12_1 Depth=1
	movq	-16(%rbp), %rax
	movsbl	(%rax), %eax
	addl	$-9, %eax
	movl	%eax, %ecx
	subl	$35, %ecx
	ja	.LBB12_21
# %bb.3:                                # %while.body
                                        #   in Loop: Header=BB12_1 Depth=1
	movq	.LJTI12_0(,%rax,8), %rax
	jmpq	*%rax
.LBB12_4:                               # %sw.bb
                                        #   in Loop: Header=BB12_1 Depth=1
	movq	-16(%rbp), %rax
	addq	$1, %rax
	movq	%rax, -16(%rbp)
	jmp	.LBB12_24
.LBB12_5:                               # %sw.bb1
                                        #   in Loop: Header=BB12_1 Depth=1
	movq	-16(%rbp), %rax
	movb	$0, (%rax)
.LBB12_6:                               # %while.cond2
                                        #   Parent Loop BB12_1 Depth=1
                                        # =>  This Inner Loop Header: Depth=2
	xorl	%eax, %eax
	movq	-16(%rbp), %rcx
	movsbl	(%rcx), %ecx
	cmpl	$10, %ecx
	je	.LBB12_8
# %bb.7:                                # %land.rhs
                                        #   in Loop: Header=BB12_6 Depth=2
	movq	-16(%rbp), %rax
	cmpq	-88(%rbp), %rax
	setb	%al
.LBB12_8:                               # %land.end
                                        #   in Loop: Header=BB12_6 Depth=2
	testb	$1, %al
	jne	.LBB12_9
	jmp	.LBB12_10
.LBB12_9:                               # %while.body8
                                        #   in Loop: Header=BB12_6 Depth=2
	movq	-16(%rbp), %rax
	addq	$1, %rax
	movq	%rax, -16(%rbp)
	jmp	.LBB12_6
.LBB12_10:                              # %while.end
                                        #   in Loop: Header=BB12_1 Depth=1
	movl	$0, -36(%rbp)
	movl	$0, -20(%rbp)
	jmp	.LBB12_24
.LBB12_11:                              # %sw.bb10
                                        #   in Loop: Header=BB12_1 Depth=1
	movl	$0, -20(%rbp)
	movl	$0, -36(%rbp)
	movq	-16(%rbp), %rax
	movq	%rax, %rcx
	addq	$1, %rcx
	movq	%rcx, -16(%rbp)
	movb	$0, (%rax)
	jmp	.LBB12_24
.LBB12_12:                              # %sw.bb12
                                        #   in Loop: Header=BB12_1 Depth=1
	cmpl	$0, -36(%rbp)
	je	.LBB12_14
# %bb.13:                               # %if.then
                                        #   in Loop: Header=BB12_1 Depth=1
	movq	-16(%rbp), %rax
	addq	$1, %rax
	movq	%rax, -16(%rbp)
	jmp	.LBB12_15
.LBB12_14:                              # %if.else
                                        #   in Loop: Header=BB12_1 Depth=1
	movq	-16(%rbp), %rax
	movq	%rax, %rcx
	addq	$1, %rcx
	movq	%rcx, -16(%rbp)
	movb	$0, (%rax)
	movl	$0, -20(%rbp)
.LBB12_15:                              # %if.end
                                        #   in Loop: Header=BB12_1 Depth=1
	jmp	.LBB12_24
.LBB12_16:                              # %sw.bb15
                                        #   in Loop: Header=BB12_1 Depth=1
	movq	-16(%rbp), %rax
	movq	%rax, %rcx
	addq	$1, %rcx
	movq	%rcx, -16(%rbp)
	movb	$0, (%rax)
	cmpl	$0, -36(%rbp)
	jne	.LBB12_18
# %bb.17:                               # %if.then18
                                        #   in Loop: Header=BB12_1 Depth=1
	movq	-16(%rbp), %rax
	movl	-28(%rbp), %ecx
	movl	%ecx, %edx
	addl	$1, %edx
	movl	%edx, -28(%rbp)
	movslq	%ecx, %rcx
	movq	%rax, -8096(%rbp,%rcx,8)
	movl	-20(%rbp), %eax
	xorl	$-1, %eax
	movl	%eax, -20(%rbp)
	jmp	.LBB12_19
.LBB12_18:                              # %if.else21
                                        #   in Loop: Header=BB12_1 Depth=1
	movl	$0, -20(%rbp)
.LBB12_19:                              # %if.end22
                                        #   in Loop: Header=BB12_1 Depth=1
	movl	-36(%rbp), %eax
	xorl	$-1, %eax
	movl	%eax, -36(%rbp)
	jmp	.LBB12_24
.LBB12_20:                              # %sw.bb24
                                        #   in Loop: Header=BB12_1 Depth=1
	movq	-16(%rbp), %rax
	addq	$1, %rax
	movq	%rax, -16(%rbp)
	movl	$0, -20(%rbp)
	jmp	.LBB12_24
.LBB12_21:                              # %sw.default
                                        #   in Loop: Header=BB12_1 Depth=1
	cmpl	$0, -20(%rbp)
	jne	.LBB12_23
# %bb.22:                               # %if.then27
                                        #   in Loop: Header=BB12_1 Depth=1
	movq	-16(%rbp), %rax
	movl	-28(%rbp), %ecx
	movl	%ecx, %edx
	addl	$1, %edx
	movl	%edx, -28(%rbp)
	movslq	%ecx, %rcx
	movq	%rax, -8096(%rbp,%rcx,8)
	movl	-20(%rbp), %eax
	xorl	$-1, %eax
	movl	%eax, -20(%rbp)
.LBB12_23:                              # %if.end32
                                        #   in Loop: Header=BB12_1 Depth=1
	movq	-16(%rbp), %rax
	addq	$1, %rax
	movq	%rax, -16(%rbp)
.LBB12_24:                              # %sw.epilog
                                        #   in Loop: Header=BB12_1 Depth=1
	jmp	.LBB12_1
.LBB12_25:                              # %while.end34
	movl	-28(%rbp), %eax
	addl	$-1, %eax
	movl	%eax, -28(%rbp)
	movl	$0, -24(%rbp)
.LBB12_26:                              # %for.cond
                                        # =>This Loop Header: Depth=1
                                        #     Child Loop BB12_35 Depth 2
	movl	-24(%rbp), %eax
	cmpl	-28(%rbp), %eax
	jge	.LBB12_42
# %bb.27:                               # %for.body
                                        #   in Loop: Header=BB12_26 Depth=1
	movl	$0, -4(%rbp)
	movl	-24(%rbp), %eax
	addl	-4(%rbp), %eax
	cltq
	movq	-8096(%rbp,%rax,8), %rdi
	leaq	-48(%rbp), %rsi
	callq	CheckOffsetParameterName
	xorl	%ecx, %ecx
	movl	%eax, -40(%rbp)
	cmpl	%eax, %ecx
	jle	.LBB12_29
# %bb.28:                               # %if.then41
                                        #   in Loop: Header=BB12_26 Depth=1
	movl	-24(%rbp), %eax
	addl	-4(%rbp), %eax
	cltq
	movq	-8096(%rbp,%rax,8), %rcx
	movabsq	$errortext, %rdi
	movl	$300, %esi              # imm = 0x12C
	movabsq	$.L.str, %rdx
	movb	$0, %al
	callq	snprintf
	movabsq	$errortext, %rdi
	movl	$300, %esi              # imm = 0x12C
	callq	error
.LBB12_29:                              # %if.end46
                                        #   in Loop: Header=BB12_26 Depth=1
	movl	-4(%rbp), %eax
	addl	$1, %eax
	movl	%eax, -4(%rbp)
	movl	-24(%rbp), %eax
	addl	-4(%rbp), %eax
	cltq
	movq	-8096(%rbp,%rax,8), %rsi
	movl	$.L.str.1, %edi
	callq	strcmp
	cmpl	$0, %eax
	je	.LBB12_31
# %bb.30:                               # %if.then53
                                        #   in Loop: Header=BB12_26 Depth=1
	movabsq	$errortext, %rdi
	movl	$300, %esi              # imm = 0x12C
	movabsq	$.L.str.2, %rdx
	movb	$0, %al
	callq	snprintf
	movabsq	$errortext, %rdi
	movl	$300, %esi              # imm = 0x12C
	callq	error
.LBB12_31:                              # %if.end55
                                        #   in Loop: Header=BB12_26 Depth=1
	movl	-4(%rbp), %eax
	addl	$1, %eax
	movl	%eax, -4(%rbp)
	cmpl	$0, -48(%rbp)
	jne	.LBB12_33
# %bb.32:                               # %if.then58
                                        #   in Loop: Header=BB12_26 Depth=1
	movl	$16, -44(%rbp)
	movslq	-40(%rbp), %rax
	shlq	$5, %rax
	movabsq	$OffsetList4x4input, %rcx
	addq	%rax, %rcx
	movq	%rcx, -80(%rbp)
	movslq	-40(%rbp), %rax
	movl	$1, offset4x4_check(,%rax,4)
	jmp	.LBB12_34
.LBB12_33:                              # %if.else63
                                        #   in Loop: Header=BB12_26 Depth=1
	movl	$64, -44(%rbp)
	movslq	-40(%rbp), %rax
	shlq	$7, %rax
	movabsq	$OffsetList8x8input, %rcx
	addq	%rax, %rcx
	movq	%rcx, -80(%rbp)
	movslq	-40(%rbp), %rax
	movl	$1, offset8x8_check(,%rax,4)
.LBB12_34:                              # %if.end69
                                        #   in Loop: Header=BB12_26 Depth=1
	movl	$0, -32(%rbp)
.LBB12_35:                              # %for.cond70
                                        #   Parent Loop BB12_26 Depth=1
                                        # =>  This Inner Loop Header: Depth=2
	movl	-32(%rbp), %eax
	cmpl	-44(%rbp), %eax
	jge	.LBB12_40
# %bb.36:                               # %for.body73
                                        #   in Loop: Header=BB12_35 Depth=2
	movl	-24(%rbp), %eax
	addl	-4(%rbp), %eax
	addl	-32(%rbp), %eax
	cltq
	movq	-8096(%rbp,%rax,8), %rdi
	movabsq	$.L.str.3, %rsi
	leaq	-56(%rbp), %rdx
	movb	$0, %al
	callq	__isoc99_sscanf
	movl	$1, %ecx
	cmpl	%eax, %ecx
	je	.LBB12_38
# %bb.37:                               # %if.then81
                                        #   in Loop: Header=BB12_35 Depth=2
	movslq	-24(%rbp), %rax
	movq	-8096(%rbp,%rax,8), %rcx
	movl	-24(%rbp), %eax
	addl	-4(%rbp), %eax
	addl	-32(%rbp), %eax
	cltq
	movq	-8096(%rbp,%rax,8), %r8
	movabsq	$errortext, %rdi
	movl	$300, %esi              # imm = 0x12C
	movabsq	$.L.str.4, %rdx
	movb	$0, %al
	callq	snprintf
	movabsq	$errortext, %rdi
	movl	$300, %esi              # imm = 0x12C
	callq	error
.LBB12_38:                              # %if.end89
                                        #   in Loop: Header=BB12_35 Depth=2
	movl	-56(%rbp), %eax
	movq	-80(%rbp), %rcx
	movslq	-32(%rbp), %rdx
	movw	%ax, (%rcx,%rdx,2)
# %bb.39:                               # %for.inc
                                        #   in Loop: Header=BB12_35 Depth=2
	movl	-32(%rbp), %eax
	addl	$1, %eax
	movl	%eax, -32(%rbp)
	jmp	.LBB12_35
.LBB12_40:                              # %for.end
                                        #   in Loop: Header=BB12_26 Depth=1
	movl	-32(%rbp), %eax
	addl	-4(%rbp), %eax
	movl	%eax, -4(%rbp)
	movabsq	$.L.str.5, %rdi
	movb	$0, %al
	callq	printf
# %bb.41:                               # %for.inc96
                                        #   in Loop: Header=BB12_26 Depth=1
	movl	-4(%rbp), %eax
	addl	-24(%rbp), %eax
	movl	%eax, -24(%rbp)
	jmp	.LBB12_26
.LBB12_42:                              # %for.end98
	cmpl	$1171524959, -60(%rbp)  # imm = 0x45D40D5F
	jne	.LBB12_44
.LBB12_43:
	addq	$8096, %rsp             # imm = 0x1FA0
	popq	%rbp
	.cfi_def_cfa %rsp, 8
	retq
.LBB12_44:                              # %func_exit
	.cfi_def_cfa %rbp, 16
	callq	detect_breach
	jmp	.LBB12_43
.Lfunc_end12:
	.size	ParseQOffsetMatrix.8, .Lfunc_end12-ParseQOffsetMatrix.8
	.cfi_endproc
	.section	.rodata,"a",@progbits
	.p2align	3
.LJTI12_0:
	.quad	.LBB12_12
	.quad	.LBB12_11
	.quad	.LBB12_21
	.quad	.LBB12_21
	.quad	.LBB12_4
	.quad	.LBB12_21
	.quad	.LBB12_21
	.quad	.LBB12_21
	.quad	.LBB12_21
	.quad	.LBB12_21
	.quad	.LBB12_21
	.quad	.LBB12_21
	.quad	.LBB12_21
	.quad	.LBB12_21
	.quad	.LBB12_21
	.quad	.LBB12_21
	.quad	.LBB12_21
	.quad	.LBB12_21
	.quad	.LBB12_21
	.quad	.LBB12_21
	.quad	.LBB12_21
	.quad	.LBB12_21
	.quad	.LBB12_21
	.quad	.LBB12_12
	.quad	.LBB12_21
	.quad	.LBB12_16
	.quad	.LBB12_5
	.quad	.LBB12_21
	.quad	.LBB12_21
	.quad	.LBB12_21
	.quad	.LBB12_21
	.quad	.LBB12_21
	.quad	.LBB12_21
	.quad	.LBB12_21
	.quad	.LBB12_21
	.quad	.LBB12_20
                                        # -- End function
	.text
	.globl	CalculateOffsetParam.9  # -- Begin function CalculateOffsetParam.9
	.p2align	4, 0x90
	.type	CalculateOffsetParam.9,@function
CalculateOffsetParam.9:                 # @CalculateOffsetParam.9
	.cfi_startproc
# %bb.0:                                # %entry
	pushq	%rbp
	.cfi_def_cfa_offset 16
	.cfi_offset %rbp, -16
	movq	%rsp, %rbp
	.cfi_def_cfa_register %rbp
	subq	$32, %rsp
	movl	$443597130, -24(%rbp)   # imm = 0x1A70C14A
	movq	input, %rax
	cmpl	$0, 3584(%rax)
	je	.LBB13_17
# %bb.1:                                # %if.then
	movl	$0, -12(%rbp)
.LBB13_2:                               # %for.cond
                                        # =>This Loop Header: Depth=1
                                        #     Child Loop BB13_4 Depth 2
                                        #       Child Loop BB13_6 Depth 3
	cmpl	$13, -12(%rbp)
	jge	.LBB13_16
# %bb.3:                                # %for.body
                                        #   in Loop: Header=BB13_2 Depth=1
	movl	-12(%rbp), %eax
	addl	$15, %eax
	subl	$10, %eax
	movl	%eax, -16(%rbp)
	movl	$0, -4(%rbp)
.LBB13_4:                               # %for.cond1
                                        #   Parent Loop BB13_2 Depth=1
                                        # =>  This Loop Header: Depth=2
                                        #       Child Loop BB13_6 Depth 3
	cmpl	$4, -4(%rbp)
	jge	.LBB13_14
# %bb.5:                                # %for.body3
                                        #   in Loop: Header=BB13_4 Depth=2
	movl	$0, -8(%rbp)
.LBB13_6:                               # %for.cond4
                                        #   Parent Loop BB13_2 Depth=1
                                        #     Parent Loop BB13_4 Depth=2
                                        # =>    This Inner Loop Header: Depth=3
	cmpl	$4, -8(%rbp)
	jge	.LBB13_12
# %bb.7:                                # %for.body6
                                        #   in Loop: Header=BB13_6 Depth=3
	movl	-8(%rbp), %eax
	shll	$2, %eax
	addl	-4(%rbp), %eax
	movl	%eax, -20(%rbp)
	movq	img, %rax
	cmpl	$2, 24(%rax)
	jne	.LBB13_9
# %bb.8:                                # %if.then9
                                        #   in Loop: Header=BB13_6 Depth=3
	movabsq	$LevelOffset4x4Chroma_Intra, %rdx
	movq	%rdx, %rax
	addq	$832, %rax              # imm = 0x340
	movslq	-20(%rbp), %rcx
	movswl	OffsetList4x4input(,%rcx,2), %esi
	movl	-16(%rbp), %ecx
                                        # kill: def $cl killed $ecx
	shll	%cl, %esi
	movslq	-12(%rbp), %rcx
	shlq	$6, %rcx
	movabsq	$LevelOffset4x4Luma_Intra, %rdi
	addq	%rcx, %rdi
	movslq	-4(%rbp), %rcx
	shlq	$4, %rcx
	addq	%rcx, %rdi
	movslq	-8(%rbp), %rcx
	movl	%esi, (%rdi,%rcx,4)
	movslq	-20(%rbp), %rcx
	movswl	OffsetList4x4input+32(,%rcx,2), %esi
	movl	-16(%rbp), %ecx
                                        # kill: def $cl killed $ecx
	shll	%cl, %esi
	movslq	-12(%rbp), %rcx
	shlq	$6, %rcx
	addq	%rcx, %rdx
	movslq	-4(%rbp), %rcx
	shlq	$4, %rcx
	addq	%rcx, %rdx
	movslq	-8(%rbp), %rcx
	movl	%esi, (%rdx,%rcx,4)
	movslq	-20(%rbp), %rcx
	movswl	OffsetList4x4input+64(,%rcx,2), %edx
	movl	-16(%rbp), %ecx
                                        # kill: def $cl killed $ecx
	shll	%cl, %edx
	movslq	-12(%rbp), %rcx
	shlq	$6, %rcx
	addq	%rcx, %rax
	movslq	-4(%rbp), %rcx
	shlq	$4, %rcx
	addq	%rcx, %rax
	movslq	-8(%rbp), %rcx
	movl	%edx, (%rax,%rcx,4)
	jmp	.LBB13_10
.LBB13_9:                               # %if.else
                                        #   in Loop: Header=BB13_6 Depth=3
	movabsq	$LevelOffset4x4Chroma_Intra, %rdx
	movq	%rdx, %rax
	addq	$832, %rax              # imm = 0x340
	movslq	-20(%rbp), %rcx
	movswl	OffsetList4x4input+96(,%rcx,2), %esi
	movl	-16(%rbp), %ecx
                                        # kill: def $cl killed $ecx
	shll	%cl, %esi
	movslq	-12(%rbp), %rcx
	shlq	$6, %rcx
	movabsq	$LevelOffset4x4Luma_Intra, %rdi
	addq	%rcx, %rdi
	movslq	-4(%rbp), %rcx
	shlq	$4, %rcx
	addq	%rcx, %rdi
	movslq	-8(%rbp), %rcx
	movl	%esi, (%rdi,%rcx,4)
	movslq	-20(%rbp), %rcx
	movswl	OffsetList4x4input+128(,%rcx,2), %esi
	movl	-16(%rbp), %ecx
                                        # kill: def $cl killed $ecx
	shll	%cl, %esi
	movslq	-12(%rbp), %rcx
	shlq	$6, %rcx
	addq	%rcx, %rdx
	movslq	-4(%rbp), %rcx
	shlq	$4, %rcx
	addq	%rcx, %rdx
	movslq	-8(%rbp), %rcx
	movl	%esi, (%rdx,%rcx,4)
	movslq	-20(%rbp), %rcx
	movswl	OffsetList4x4input+160(,%rcx,2), %edx
	movl	-16(%rbp), %ecx
                                        # kill: def $cl killed $ecx
	shll	%cl, %edx
	movslq	-12(%rbp), %rcx
	shlq	$6, %rcx
	addq	%rcx, %rax
	movslq	-4(%rbp), %rcx
	shlq	$4, %rcx
	addq	%rcx, %rax
	movslq	-8(%rbp), %rcx
	movl	%edx, (%rax,%rcx,4)
.LBB13_10:                              # %if.end
                                        #   in Loop: Header=BB13_6 Depth=3
	movabsq	$LevelOffset4x4Chroma_Inter, %rdx
	movq	%rdx, %rax
	addq	$832, %rax              # imm = 0x340
	movslq	-20(%rbp), %rcx
	movswl	OffsetList4x4input+192(,%rcx,2), %esi
	movl	-16(%rbp), %ecx
                                        # kill: def $cl killed $ecx
	shll	%cl, %esi
	movslq	-12(%rbp), %rcx
	shlq	$6, %rcx
	movabsq	$LevelOffset4x4Luma_Inter, %rdi
	addq	%rcx, %rdi
	movslq	-4(%rbp), %rcx
	shlq	$4, %rcx
	addq	%rcx, %rdi
	movslq	-8(%rbp), %rcx
	movl	%esi, (%rdi,%rcx,4)
	movslq	-20(%rbp), %rcx
	movswl	OffsetList4x4input+224(,%rcx,2), %esi
	movl	-16(%rbp), %ecx
                                        # kill: def $cl killed $ecx
	shll	%cl, %esi
	movslq	-12(%rbp), %rcx
	shlq	$6, %rcx
	addq	%rcx, %rdx
	movslq	-4(%rbp), %rcx
	shlq	$4, %rcx
	addq	%rcx, %rdx
	movslq	-8(%rbp), %rcx
	movl	%esi, (%rdx,%rcx,4)
	movslq	-20(%rbp), %rcx
	movswl	OffsetList4x4input+256(,%rcx,2), %edx
	movl	-16(%rbp), %ecx
                                        # kill: def $cl killed $ecx
	shll	%cl, %edx
	movslq	-12(%rbp), %rcx
	shlq	$6, %rcx
	addq	%rcx, %rax
	movslq	-4(%rbp), %rcx
	shlq	$4, %rcx
	addq	%rcx, %rax
	movslq	-8(%rbp), %rcx
	movl	%edx, (%rax,%rcx,4)
# %bb.11:                               # %for.inc
                                        #   in Loop: Header=BB13_6 Depth=3
	movl	-8(%rbp), %eax
	addl	$1, %eax
	movl	%eax, -8(%rbp)
	jmp	.LBB13_6
.LBB13_12:                              # %for.end
                                        #   in Loop: Header=BB13_4 Depth=2
	jmp	.LBB13_13
.LBB13_13:                              # %for.inc97
                                        #   in Loop: Header=BB13_4 Depth=2
	movl	-4(%rbp), %eax
	addl	$1, %eax
	movl	%eax, -4(%rbp)
	jmp	.LBB13_4
.LBB13_14:                              # %for.end99
                                        #   in Loop: Header=BB13_2 Depth=1
	jmp	.LBB13_15
.LBB13_15:                              # %for.inc100
                                        #   in Loop: Header=BB13_2 Depth=1
	movl	-12(%rbp), %eax
	addl	$1, %eax
	movl	%eax, -12(%rbp)
	jmp	.LBB13_2
.LBB13_16:                              # %for.end102
	jmp	.LBB13_33
.LBB13_17:                              # %if.else103
	movl	$0, -12(%rbp)
.LBB13_18:                              # %for.cond104
                                        # =>This Loop Header: Depth=1
                                        #     Child Loop BB13_20 Depth 2
                                        #       Child Loop BB13_22 Depth 3
	cmpl	$13, -12(%rbp)
	jge	.LBB13_32
# %bb.19:                               # %for.body107
                                        #   in Loop: Header=BB13_18 Depth=1
	movl	-12(%rbp), %eax
	addl	$15, %eax
	subl	$10, %eax
	movl	%eax, -16(%rbp)
	movl	$0, -4(%rbp)
.LBB13_20:                              # %for.cond110
                                        #   Parent Loop BB13_18 Depth=1
                                        # =>  This Loop Header: Depth=2
                                        #       Child Loop BB13_22 Depth 3
	cmpl	$4, -4(%rbp)
	jge	.LBB13_30
# %bb.21:                               # %for.body113
                                        #   in Loop: Header=BB13_20 Depth=2
	movl	$0, -8(%rbp)
.LBB13_22:                              # %for.cond114
                                        #   Parent Loop BB13_18 Depth=1
                                        #     Parent Loop BB13_20 Depth=2
                                        # =>    This Inner Loop Header: Depth=3
	cmpl	$4, -8(%rbp)
	jge	.LBB13_28
# %bb.23:                               # %for.body117
                                        #   in Loop: Header=BB13_22 Depth=3
	movl	-8(%rbp), %eax
	shll	$2, %eax
	addl	-4(%rbp), %eax
	movl	%eax, -20(%rbp)
	movq	img, %rax
	cmpl	$2, 24(%rax)
	jne	.LBB13_25
# %bb.24:                               # %if.then123
                                        #   in Loop: Header=BB13_22 Depth=3
	movabsq	$LevelOffset4x4Chroma_Intra, %rdx
	movq	%rdx, %rax
	addq	$832, %rax              # imm = 0x340
	movslq	-20(%rbp), %rcx
	movswl	Offset_intra_default_intra(,%rcx,2), %esi
	movl	-16(%rbp), %ecx
                                        # kill: def $cl killed $ecx
	shll	%cl, %esi
	movslq	-12(%rbp), %rcx
	shlq	$6, %rcx
	movabsq	$LevelOffset4x4Luma_Intra, %rdi
	addq	%rcx, %rdi
	movslq	-4(%rbp), %rcx
	shlq	$4, %rcx
	addq	%rcx, %rdi
	movslq	-8(%rbp), %rcx
	movl	%esi, (%rdi,%rcx,4)
	movslq	-20(%rbp), %rcx
	movswl	Offset_intra_default_intra(,%rcx,2), %esi
	movl	-16(%rbp), %ecx
                                        # kill: def $cl killed $ecx
	shll	%cl, %esi
	movslq	-12(%rbp), %rcx
	shlq	$6, %rcx
	addq	%rcx, %rdx
	movslq	-4(%rbp), %rcx
	shlq	$4, %rcx
	addq	%rcx, %rdx
	movslq	-8(%rbp), %rcx
	movl	%esi, (%rdx,%rcx,4)
	movslq	-20(%rbp), %rcx
	movswl	Offset_intra_default_intra(,%rcx,2), %edx
	movl	-16(%rbp), %ecx
                                        # kill: def $cl killed $ecx
	shll	%cl, %edx
	movslq	-12(%rbp), %rcx
	shlq	$6, %rcx
	addq	%rcx, %rax
	movslq	-4(%rbp), %rcx
	shlq	$4, %rcx
	addq	%rcx, %rax
	movslq	-8(%rbp), %rcx
	movl	%edx, (%rax,%rcx,4)
	jmp	.LBB13_26
.LBB13_25:                              # %if.else154
                                        #   in Loop: Header=BB13_22 Depth=3
	movabsq	$LevelOffset4x4Chroma_Intra, %rdx
	movq	%rdx, %rax
	addq	$832, %rax              # imm = 0x340
	movslq	-20(%rbp), %rcx
	movswl	Offset_intra_default_inter(,%rcx,2), %esi
	movl	-16(%rbp), %ecx
                                        # kill: def $cl killed $ecx
	shll	%cl, %esi
	movslq	-12(%rbp), %rcx
	shlq	$6, %rcx
	movabsq	$LevelOffset4x4Luma_Intra, %rdi
	addq	%rcx, %rdi
	movslq	-4(%rbp), %rcx
	shlq	$4, %rcx
	addq	%rcx, %rdi
	movslq	-8(%rbp), %rcx
	movl	%esi, (%rdi,%rcx,4)
	movslq	-20(%rbp), %rcx
	movswl	Offset_intra_default_inter(,%rcx,2), %esi
	movl	-16(%rbp), %ecx
                                        # kill: def $cl killed $ecx
	shll	%cl, %esi
	movslq	-12(%rbp), %rcx
	shlq	$6, %rcx
	addq	%rcx, %rdx
	movslq	-4(%rbp), %rcx
	shlq	$4, %rcx
	addq	%rcx, %rdx
	movslq	-8(%rbp), %rcx
	movl	%esi, (%rdx,%rcx,4)
	movslq	-20(%rbp), %rcx
	movswl	Offset_intra_default_inter(,%rcx,2), %edx
	movl	-16(%rbp), %ecx
                                        # kill: def $cl killed $ecx
	shll	%cl, %edx
	movslq	-12(%rbp), %rcx
	shlq	$6, %rcx
	addq	%rcx, %rax
	movslq	-4(%rbp), %rcx
	shlq	$4, %rcx
	addq	%rcx, %rax
	movslq	-8(%rbp), %rcx
	movl	%edx, (%rax,%rcx,4)
.LBB13_26:                              # %if.end185
                                        #   in Loop: Header=BB13_22 Depth=3
	movabsq	$LevelOffset4x4Chroma_Inter, %rdx
	movq	%rdx, %rax
	addq	$832, %rax              # imm = 0x340
	movslq	-20(%rbp), %rcx
	movswl	Offset_inter_default(,%rcx,2), %esi
	movl	-16(%rbp), %ecx
                                        # kill: def $cl killed $ecx
	shll	%cl, %esi
	movslq	-12(%rbp), %rcx
	shlq	$6, %rcx
	movabsq	$LevelOffset4x4Luma_Inter, %rdi
	addq	%rcx, %rdi
	movslq	-4(%rbp), %rcx
	shlq	$4, %rcx
	addq	%rcx, %rdi
	movslq	-8(%rbp), %rcx
	movl	%esi, (%rdi,%rcx,4)
	movslq	-20(%rbp), %rcx
	movswl	Offset_inter_default(,%rcx,2), %esi
	movl	-16(%rbp), %ecx
                                        # kill: def $cl killed $ecx
	shll	%cl, %esi
	movslq	-12(%rbp), %rcx
	shlq	$6, %rcx
	addq	%rcx, %rdx
	movslq	-4(%rbp), %rcx
	shlq	$4, %rcx
	addq	%rcx, %rdx
	movslq	-8(%rbp), %rcx
	movl	%esi, (%rdx,%rcx,4)
	movslq	-20(%rbp), %rcx
	movswl	Offset_inter_default(,%rcx,2), %edx
	movl	-16(%rbp), %ecx
                                        # kill: def $cl killed $ecx
	shll	%cl, %edx
	movslq	-12(%rbp), %rcx
	shlq	$6, %rcx
	addq	%rcx, %rax
	movslq	-4(%rbp), %rcx
	shlq	$4, %rcx
	addq	%rcx, %rax
	movslq	-8(%rbp), %rcx
	movl	%edx, (%rax,%rcx,4)
# %bb.27:                               # %for.inc216
                                        #   in Loop: Header=BB13_22 Depth=3
	movl	-8(%rbp), %eax
	addl	$1, %eax
	movl	%eax, -8(%rbp)
	jmp	.LBB13_22
.LBB13_28:                              # %for.end218
                                        #   in Loop: Header=BB13_20 Depth=2
	jmp	.LBB13_29
.LBB13_29:                              # %for.inc219
                                        #   in Loop: Header=BB13_20 Depth=2
	movl	-4(%rbp), %eax
	addl	$1, %eax
	movl	%eax, -4(%rbp)
	jmp	.LBB13_20
.LBB13_30:                              # %for.end221
                                        #   in Loop: Header=BB13_18 Depth=1
	jmp	.LBB13_31
.LBB13_31:                              # %for.inc222
                                        #   in Loop: Header=BB13_18 Depth=1
	movl	-12(%rbp), %eax
	addl	$1, %eax
	movl	%eax, -12(%rbp)
	jmp	.LBB13_18
.LBB13_32:                              # %for.end224
	jmp	.LBB13_33
.LBB13_33:                              # %if.end225
	cmpl	$443597130, -24(%rbp)   # imm = 0x1A70C14A
	jne	.LBB13_35
.LBB13_34:
	addq	$32, %rsp
	popq	%rbp
	.cfi_def_cfa %rsp, 8
	retq
.LBB13_35:                              # %func_exit
	.cfi_def_cfa %rbp, 16
	callq	detect_breach
	jmp	.LBB13_34
.Lfunc_end13:
	.size	CalculateOffsetParam.9, .Lfunc_end13-CalculateOffsetParam.9
	.cfi_endproc
                                        # -- End function
	.globl	ParseQOffsetMatrix.10   # -- Begin function ParseQOffsetMatrix.10
	.p2align	4, 0x90
	.type	ParseQOffsetMatrix.10,@function
ParseQOffsetMatrix.10:                  # @ParseQOffsetMatrix.10
	.cfi_startproc
# %bb.0:                                # %entry
	pushq	%rbp
	.cfi_def_cfa_offset 16
	.cfi_offset %rbp, -16
	movq	%rsp, %rbp
	.cfi_def_cfa_register %rbp
	subq	$8096, %rsp             # imm = 0x1FA0
	movl	$1221506025, -52(%rbp)  # imm = 0x48CEB3E9
	movq	%rdi, -88(%rbp)
	movl	%esi, -56(%rbp)
	movl	$0, -32(%rbp)
	movl	$0, -36(%rbp)
	movl	$0, -20(%rbp)
	movq	-88(%rbp), %rax
	movq	%rax, -16(%rbp)
	movq	-88(%rbp), %rax
	movslq	-56(%rbp), %rcx
	addq	%rcx, %rax
	movq	%rax, -80(%rbp)
.LBB14_1:                               # %while.cond
                                        # =>This Loop Header: Depth=1
                                        #     Child Loop BB14_6 Depth 2
	movq	-16(%rbp), %rax
	cmpq	-80(%rbp), %rax
	jae	.LBB14_25
# %bb.2:                                # %while.body
                                        #   in Loop: Header=BB14_1 Depth=1
	movq	-16(%rbp), %rax
	movsbl	(%rax), %eax
	addl	$-9, %eax
	movl	%eax, %ecx
	subl	$35, %ecx
	ja	.LBB14_21
# %bb.3:                                # %while.body
                                        #   in Loop: Header=BB14_1 Depth=1
	movq	.LJTI14_0(,%rax,8), %rax
	jmpq	*%rax
.LBB14_4:                               # %sw.bb
                                        #   in Loop: Header=BB14_1 Depth=1
	movq	-16(%rbp), %rax
	addq	$1, %rax
	movq	%rax, -16(%rbp)
	jmp	.LBB14_24
.LBB14_5:                               # %sw.bb1
                                        #   in Loop: Header=BB14_1 Depth=1
	movq	-16(%rbp), %rax
	movb	$0, (%rax)
.LBB14_6:                               # %while.cond2
                                        #   Parent Loop BB14_1 Depth=1
                                        # =>  This Inner Loop Header: Depth=2
	xorl	%eax, %eax
	movq	-16(%rbp), %rcx
	movsbl	(%rcx), %ecx
	cmpl	$10, %ecx
	je	.LBB14_8
# %bb.7:                                # %land.rhs
                                        #   in Loop: Header=BB14_6 Depth=2
	movq	-16(%rbp), %rax
	cmpq	-80(%rbp), %rax
	setb	%al
.LBB14_8:                               # %land.end
                                        #   in Loop: Header=BB14_6 Depth=2
	testb	$1, %al
	jne	.LBB14_9
	jmp	.LBB14_10
.LBB14_9:                               # %while.body8
                                        #   in Loop: Header=BB14_6 Depth=2
	movq	-16(%rbp), %rax
	addq	$1, %rax
	movq	%rax, -16(%rbp)
	jmp	.LBB14_6
.LBB14_10:                              # %while.end
                                        #   in Loop: Header=BB14_1 Depth=1
	movl	$0, -36(%rbp)
	movl	$0, -20(%rbp)
	jmp	.LBB14_24
.LBB14_11:                              # %sw.bb10
                                        #   in Loop: Header=BB14_1 Depth=1
	movl	$0, -20(%rbp)
	movl	$0, -36(%rbp)
	movq	-16(%rbp), %rax
	movq	%rax, %rcx
	addq	$1, %rcx
	movq	%rcx, -16(%rbp)
	movb	$0, (%rax)
	jmp	.LBB14_24
.LBB14_12:                              # %sw.bb12
                                        #   in Loop: Header=BB14_1 Depth=1
	cmpl	$0, -36(%rbp)
	je	.LBB14_14
# %bb.13:                               # %if.then
                                        #   in Loop: Header=BB14_1 Depth=1
	movq	-16(%rbp), %rax
	addq	$1, %rax
	movq	%rax, -16(%rbp)
	jmp	.LBB14_15
.LBB14_14:                              # %if.else
                                        #   in Loop: Header=BB14_1 Depth=1
	movq	-16(%rbp), %rax
	movq	%rax, %rcx
	addq	$1, %rcx
	movq	%rcx, -16(%rbp)
	movb	$0, (%rax)
	movl	$0, -20(%rbp)
.LBB14_15:                              # %if.end
                                        #   in Loop: Header=BB14_1 Depth=1
	jmp	.LBB14_24
.LBB14_16:                              # %sw.bb15
                                        #   in Loop: Header=BB14_1 Depth=1
	movq	-16(%rbp), %rax
	movq	%rax, %rcx
	addq	$1, %rcx
	movq	%rcx, -16(%rbp)
	movb	$0, (%rax)
	cmpl	$0, -36(%rbp)
	jne	.LBB14_18
# %bb.17:                               # %if.then18
                                        #   in Loop: Header=BB14_1 Depth=1
	movq	-16(%rbp), %rax
	movl	-32(%rbp), %ecx
	movl	%ecx, %edx
	addl	$1, %edx
	movl	%edx, -32(%rbp)
	movslq	%ecx, %rcx
	movq	%rax, -8096(%rbp,%rcx,8)
	movl	-20(%rbp), %eax
	xorl	$-1, %eax
	movl	%eax, -20(%rbp)
	jmp	.LBB14_19
.LBB14_18:                              # %if.else21
                                        #   in Loop: Header=BB14_1 Depth=1
	movl	$0, -20(%rbp)
.LBB14_19:                              # %if.end22
                                        #   in Loop: Header=BB14_1 Depth=1
	movl	-36(%rbp), %eax
	xorl	$-1, %eax
	movl	%eax, -36(%rbp)
	jmp	.LBB14_24
.LBB14_20:                              # %sw.bb24
                                        #   in Loop: Header=BB14_1 Depth=1
	movq	-16(%rbp), %rax
	addq	$1, %rax
	movq	%rax, -16(%rbp)
	movl	$0, -20(%rbp)
	jmp	.LBB14_24
.LBB14_21:                              # %sw.default
                                        #   in Loop: Header=BB14_1 Depth=1
	cmpl	$0, -20(%rbp)
	jne	.LBB14_23
# %bb.22:                               # %if.then27
                                        #   in Loop: Header=BB14_1 Depth=1
	movq	-16(%rbp), %rax
	movl	-32(%rbp), %ecx
	movl	%ecx, %edx
	addl	$1, %edx
	movl	%edx, -32(%rbp)
	movslq	%ecx, %rcx
	movq	%rax, -8096(%rbp,%rcx,8)
	movl	-20(%rbp), %eax
	xorl	$-1, %eax
	movl	%eax, -20(%rbp)
.LBB14_23:                              # %if.end32
                                        #   in Loop: Header=BB14_1 Depth=1
	movq	-16(%rbp), %rax
	addq	$1, %rax
	movq	%rax, -16(%rbp)
.LBB14_24:                              # %sw.epilog
                                        #   in Loop: Header=BB14_1 Depth=1
	jmp	.LBB14_1
.LBB14_25:                              # %while.end34
	movl	-32(%rbp), %eax
	addl	$-1, %eax
	movl	%eax, -32(%rbp)
	movl	$0, -24(%rbp)
.LBB14_26:                              # %for.cond
                                        # =>This Loop Header: Depth=1
                                        #     Child Loop BB14_35 Depth 2
	movl	-24(%rbp), %eax
	cmpl	-32(%rbp), %eax
	jge	.LBB14_42
# %bb.27:                               # %for.body
                                        #   in Loop: Header=BB14_26 Depth=1
	movl	$0, -4(%rbp)
	movl	-24(%rbp), %eax
	addl	-4(%rbp), %eax
	cltq
	movq	-8096(%rbp,%rax,8), %rdi
	leaq	-48(%rbp), %rsi
	callq	CheckOffsetParameterName
	xorl	%ecx, %ecx
	movl	%eax, -40(%rbp)
	cmpl	%eax, %ecx
	jle	.LBB14_29
# %bb.28:                               # %if.then41
                                        #   in Loop: Header=BB14_26 Depth=1
	movl	-24(%rbp), %eax
	addl	-4(%rbp), %eax
	cltq
	movq	-8096(%rbp,%rax,8), %rcx
	movabsq	$errortext, %rdi
	movl	$300, %esi              # imm = 0x12C
	movabsq	$.L.str, %rdx
	movb	$0, %al
	callq	snprintf
	movabsq	$errortext, %rdi
	movl	$300, %esi              # imm = 0x12C
	callq	error
.LBB14_29:                              # %if.end46
                                        #   in Loop: Header=BB14_26 Depth=1
	movl	-4(%rbp), %eax
	addl	$1, %eax
	movl	%eax, -4(%rbp)
	movl	-24(%rbp), %eax
	addl	-4(%rbp), %eax
	cltq
	movq	-8096(%rbp,%rax,8), %rsi
	movl	$.L.str.1, %edi
	callq	strcmp
	cmpl	$0, %eax
	je	.LBB14_31
# %bb.30:                               # %if.then53
                                        #   in Loop: Header=BB14_26 Depth=1
	movabsq	$errortext, %rdi
	movl	$300, %esi              # imm = 0x12C
	movabsq	$.L.str.2, %rdx
	movb	$0, %al
	callq	snprintf
	movabsq	$errortext, %rdi
	movl	$300, %esi              # imm = 0x12C
	callq	error
.LBB14_31:                              # %if.end55
                                        #   in Loop: Header=BB14_26 Depth=1
	movl	-4(%rbp), %eax
	addl	$1, %eax
	movl	%eax, -4(%rbp)
	cmpl	$0, -48(%rbp)
	jne	.LBB14_33
# %bb.32:                               # %if.then58
                                        #   in Loop: Header=BB14_26 Depth=1
	movl	$16, -44(%rbp)
	movslq	-40(%rbp), %rax
	shlq	$5, %rax
	movabsq	$OffsetList4x4input, %rcx
	addq	%rax, %rcx
	movq	%rcx, -72(%rbp)
	movslq	-40(%rbp), %rax
	movl	$1, offset4x4_check(,%rax,4)
	jmp	.LBB14_34
.LBB14_33:                              # %if.else63
                                        #   in Loop: Header=BB14_26 Depth=1
	movl	$64, -44(%rbp)
	movslq	-40(%rbp), %rax
	shlq	$7, %rax
	movabsq	$OffsetList8x8input, %rcx
	addq	%rax, %rcx
	movq	%rcx, -72(%rbp)
	movslq	-40(%rbp), %rax
	movl	$1, offset8x8_check(,%rax,4)
.LBB14_34:                              # %if.end69
                                        #   in Loop: Header=BB14_26 Depth=1
	movl	$0, -28(%rbp)
.LBB14_35:                              # %for.cond70
                                        #   Parent Loop BB14_26 Depth=1
                                        # =>  This Inner Loop Header: Depth=2
	movl	-28(%rbp), %eax
	cmpl	-44(%rbp), %eax
	jge	.LBB14_40
# %bb.36:                               # %for.body73
                                        #   in Loop: Header=BB14_35 Depth=2
	movl	-24(%rbp), %eax
	addl	-4(%rbp), %eax
	addl	-28(%rbp), %eax
	cltq
	movq	-8096(%rbp,%rax,8), %rdi
	movabsq	$.L.str.3, %rsi
	leaq	-60(%rbp), %rdx
	movb	$0, %al
	callq	__isoc99_sscanf
	movl	$1, %ecx
	cmpl	%eax, %ecx
	je	.LBB14_38
# %bb.37:                               # %if.then81
                                        #   in Loop: Header=BB14_35 Depth=2
	movslq	-24(%rbp), %rax
	movq	-8096(%rbp,%rax,8), %rcx
	movl	-24(%rbp), %eax
	addl	-4(%rbp), %eax
	addl	-28(%rbp), %eax
	cltq
	movq	-8096(%rbp,%rax,8), %r8
	movabsq	$errortext, %rdi
	movl	$300, %esi              # imm = 0x12C
	movabsq	$.L.str.4, %rdx
	movb	$0, %al
	callq	snprintf
	movabsq	$errortext, %rdi
	movl	$300, %esi              # imm = 0x12C
	callq	error
.LBB14_38:                              # %if.end89
                                        #   in Loop: Header=BB14_35 Depth=2
	movl	-60(%rbp), %eax
	movq	-72(%rbp), %rcx
	movslq	-28(%rbp), %rdx
	movw	%ax, (%rcx,%rdx,2)
# %bb.39:                               # %for.inc
                                        #   in Loop: Header=BB14_35 Depth=2
	movl	-28(%rbp), %eax
	addl	$1, %eax
	movl	%eax, -28(%rbp)
	jmp	.LBB14_35
.LBB14_40:                              # %for.end
                                        #   in Loop: Header=BB14_26 Depth=1
	movl	-28(%rbp), %eax
	addl	-4(%rbp), %eax
	movl	%eax, -4(%rbp)
	movabsq	$.L.str.5, %rdi
	movb	$0, %al
	callq	printf
# %bb.41:                               # %for.inc96
                                        #   in Loop: Header=BB14_26 Depth=1
	movl	-4(%rbp), %eax
	addl	-24(%rbp), %eax
	movl	%eax, -24(%rbp)
	jmp	.LBB14_26
.LBB14_42:                              # %for.end98
	cmpl	$1221506025, -52(%rbp)  # imm = 0x48CEB3E9
	jne	.LBB14_44
.LBB14_43:
	addq	$8096, %rsp             # imm = 0x1FA0
	popq	%rbp
	.cfi_def_cfa %rsp, 8
	retq
.LBB14_44:                              # %func_exit
	.cfi_def_cfa %rbp, 16
	callq	detect_breach
	jmp	.LBB14_43
.Lfunc_end14:
	.size	ParseQOffsetMatrix.10, .Lfunc_end14-ParseQOffsetMatrix.10
	.cfi_endproc
	.section	.rodata,"a",@progbits
	.p2align	3
.LJTI14_0:
	.quad	.LBB14_12
	.quad	.LBB14_11
	.quad	.LBB14_21
	.quad	.LBB14_21
	.quad	.LBB14_4
	.quad	.LBB14_21
	.quad	.LBB14_21
	.quad	.LBB14_21
	.quad	.LBB14_21
	.quad	.LBB14_21
	.quad	.LBB14_21
	.quad	.LBB14_21
	.quad	.LBB14_21
	.quad	.LBB14_21
	.quad	.LBB14_21
	.quad	.LBB14_21
	.quad	.LBB14_21
	.quad	.LBB14_21
	.quad	.LBB14_21
	.quad	.LBB14_21
	.quad	.LBB14_21
	.quad	.LBB14_21
	.quad	.LBB14_21
	.quad	.LBB14_12
	.quad	.LBB14_21
	.quad	.LBB14_16
	.quad	.LBB14_5
	.quad	.LBB14_21
	.quad	.LBB14_21
	.quad	.LBB14_21
	.quad	.LBB14_21
	.quad	.LBB14_21
	.quad	.LBB14_21
	.quad	.LBB14_21
	.quad	.LBB14_21
	.quad	.LBB14_20
                                        # -- End function
	.text
	.globl	CalculateOffsetParam.11 # -- Begin function CalculateOffsetParam.11
	.p2align	4, 0x90
	.type	CalculateOffsetParam.11,@function
CalculateOffsetParam.11:                # @CalculateOffsetParam.11
	.cfi_startproc
# %bb.0:                                # %entry
	pushq	%rbp
	.cfi_def_cfa_offset 16
	.cfi_offset %rbp, -16
	movq	%rsp, %rbp
	.cfi_def_cfa_register %rbp
	subq	$32, %rsp
	movl	$237866238, -24(%rbp)   # imm = 0xE2D8CFE
	movq	input, %rax
	cmpl	$0, 3584(%rax)
	je	.LBB15_17
# %bb.1:                                # %if.then
	movl	$0, -4(%rbp)
.LBB15_2:                               # %for.cond
                                        # =>This Loop Header: Depth=1
                                        #     Child Loop BB15_4 Depth 2
                                        #       Child Loop BB15_6 Depth 3
	cmpl	$13, -4(%rbp)
	jge	.LBB15_16
# %bb.3:                                # %for.body
                                        #   in Loop: Header=BB15_2 Depth=1
	movl	-4(%rbp), %eax
	addl	$15, %eax
	subl	$10, %eax
	movl	%eax, -20(%rbp)
	movl	$0, -12(%rbp)
.LBB15_4:                               # %for.cond1
                                        #   Parent Loop BB15_2 Depth=1
                                        # =>  This Loop Header: Depth=2
                                        #       Child Loop BB15_6 Depth 3
	cmpl	$4, -12(%rbp)
	jge	.LBB15_14
# %bb.5:                                # %for.body3
                                        #   in Loop: Header=BB15_4 Depth=2
	movl	$0, -8(%rbp)
.LBB15_6:                               # %for.cond4
                                        #   Parent Loop BB15_2 Depth=1
                                        #     Parent Loop BB15_4 Depth=2
                                        # =>    This Inner Loop Header: Depth=3
	cmpl	$4, -8(%rbp)
	jge	.LBB15_12
# %bb.7:                                # %for.body6
                                        #   in Loop: Header=BB15_6 Depth=3
	movl	-8(%rbp), %eax
	shll	$2, %eax
	addl	-12(%rbp), %eax
	movl	%eax, -16(%rbp)
	movq	img, %rax
	cmpl	$2, 24(%rax)
	jne	.LBB15_9
# %bb.8:                                # %if.then9
                                        #   in Loop: Header=BB15_6 Depth=3
	movabsq	$LevelOffset4x4Chroma_Intra, %rdx
	movq	%rdx, %rax
	addq	$832, %rax              # imm = 0x340
	movslq	-16(%rbp), %rcx
	movswl	OffsetList4x4input(,%rcx,2), %esi
	movl	-20(%rbp), %ecx
                                        # kill: def $cl killed $ecx
	shll	%cl, %esi
	movslq	-4(%rbp), %rcx
	shlq	$6, %rcx
	movabsq	$LevelOffset4x4Luma_Intra, %rdi
	addq	%rcx, %rdi
	movslq	-12(%rbp), %rcx
	shlq	$4, %rcx
	addq	%rcx, %rdi
	movslq	-8(%rbp), %rcx
	movl	%esi, (%rdi,%rcx,4)
	movslq	-16(%rbp), %rcx
	movswl	OffsetList4x4input+32(,%rcx,2), %esi
	movl	-20(%rbp), %ecx
                                        # kill: def $cl killed $ecx
	shll	%cl, %esi
	movslq	-4(%rbp), %rcx
	shlq	$6, %rcx
	addq	%rcx, %rdx
	movslq	-12(%rbp), %rcx
	shlq	$4, %rcx
	addq	%rcx, %rdx
	movslq	-8(%rbp), %rcx
	movl	%esi, (%rdx,%rcx,4)
	movslq	-16(%rbp), %rcx
	movswl	OffsetList4x4input+64(,%rcx,2), %edx
	movl	-20(%rbp), %ecx
                                        # kill: def $cl killed $ecx
	shll	%cl, %edx
	movslq	-4(%rbp), %rcx
	shlq	$6, %rcx
	addq	%rcx, %rax
	movslq	-12(%rbp), %rcx
	shlq	$4, %rcx
	addq	%rcx, %rax
	movslq	-8(%rbp), %rcx
	movl	%edx, (%rax,%rcx,4)
	jmp	.LBB15_10
.LBB15_9:                               # %if.else
                                        #   in Loop: Header=BB15_6 Depth=3
	movabsq	$LevelOffset4x4Chroma_Intra, %rdx
	movq	%rdx, %rax
	addq	$832, %rax              # imm = 0x340
	movslq	-16(%rbp), %rcx
	movswl	OffsetList4x4input+96(,%rcx,2), %esi
	movl	-20(%rbp), %ecx
                                        # kill: def $cl killed $ecx
	shll	%cl, %esi
	movslq	-4(%rbp), %rcx
	shlq	$6, %rcx
	movabsq	$LevelOffset4x4Luma_Intra, %rdi
	addq	%rcx, %rdi
	movslq	-12(%rbp), %rcx
	shlq	$4, %rcx
	addq	%rcx, %rdi
	movslq	-8(%rbp), %rcx
	movl	%esi, (%rdi,%rcx,4)
	movslq	-16(%rbp), %rcx
	movswl	OffsetList4x4input+128(,%rcx,2), %esi
	movl	-20(%rbp), %ecx
                                        # kill: def $cl killed $ecx
	shll	%cl, %esi
	movslq	-4(%rbp), %rcx
	shlq	$6, %rcx
	addq	%rcx, %rdx
	movslq	-12(%rbp), %rcx
	shlq	$4, %rcx
	addq	%rcx, %rdx
	movslq	-8(%rbp), %rcx
	movl	%esi, (%rdx,%rcx,4)
	movslq	-16(%rbp), %rcx
	movswl	OffsetList4x4input+160(,%rcx,2), %edx
	movl	-20(%rbp), %ecx
                                        # kill: def $cl killed $ecx
	shll	%cl, %edx
	movslq	-4(%rbp), %rcx
	shlq	$6, %rcx
	addq	%rcx, %rax
	movslq	-12(%rbp), %rcx
	shlq	$4, %rcx
	addq	%rcx, %rax
	movslq	-8(%rbp), %rcx
	movl	%edx, (%rax,%rcx,4)
.LBB15_10:                              # %if.end
                                        #   in Loop: Header=BB15_6 Depth=3
	movabsq	$LevelOffset4x4Chroma_Inter, %rdx
	movq	%rdx, %rax
	addq	$832, %rax              # imm = 0x340
	movslq	-16(%rbp), %rcx
	movswl	OffsetList4x4input+192(,%rcx,2), %esi
	movl	-20(%rbp), %ecx
                                        # kill: def $cl killed $ecx
	shll	%cl, %esi
	movslq	-4(%rbp), %rcx
	shlq	$6, %rcx
	movabsq	$LevelOffset4x4Luma_Inter, %rdi
	addq	%rcx, %rdi
	movslq	-12(%rbp), %rcx
	shlq	$4, %rcx
	addq	%rcx, %rdi
	movslq	-8(%rbp), %rcx
	movl	%esi, (%rdi,%rcx,4)
	movslq	-16(%rbp), %rcx
	movswl	OffsetList4x4input+224(,%rcx,2), %esi
	movl	-20(%rbp), %ecx
                                        # kill: def $cl killed $ecx
	shll	%cl, %esi
	movslq	-4(%rbp), %rcx
	shlq	$6, %rcx
	addq	%rcx, %rdx
	movslq	-12(%rbp), %rcx
	shlq	$4, %rcx
	addq	%rcx, %rdx
	movslq	-8(%rbp), %rcx
	movl	%esi, (%rdx,%rcx,4)
	movslq	-16(%rbp), %rcx
	movswl	OffsetList4x4input+256(,%rcx,2), %edx
	movl	-20(%rbp), %ecx
                                        # kill: def $cl killed $ecx
	shll	%cl, %edx
	movslq	-4(%rbp), %rcx
	shlq	$6, %rcx
	addq	%rcx, %rax
	movslq	-12(%rbp), %rcx
	shlq	$4, %rcx
	addq	%rcx, %rax
	movslq	-8(%rbp), %rcx
	movl	%edx, (%rax,%rcx,4)
# %bb.11:                               # %for.inc
                                        #   in Loop: Header=BB15_6 Depth=3
	movl	-8(%rbp), %eax
	addl	$1, %eax
	movl	%eax, -8(%rbp)
	jmp	.LBB15_6
.LBB15_12:                              # %for.end
                                        #   in Loop: Header=BB15_4 Depth=2
	jmp	.LBB15_13
.LBB15_13:                              # %for.inc97
                                        #   in Loop: Header=BB15_4 Depth=2
	movl	-12(%rbp), %eax
	addl	$1, %eax
	movl	%eax, -12(%rbp)
	jmp	.LBB15_4
.LBB15_14:                              # %for.end99
                                        #   in Loop: Header=BB15_2 Depth=1
	jmp	.LBB15_15
.LBB15_15:                              # %for.inc100
                                        #   in Loop: Header=BB15_2 Depth=1
	movl	-4(%rbp), %eax
	addl	$1, %eax
	movl	%eax, -4(%rbp)
	jmp	.LBB15_2
.LBB15_16:                              # %for.end102
	jmp	.LBB15_33
.LBB15_17:                              # %if.else103
	movl	$0, -4(%rbp)
.LBB15_18:                              # %for.cond104
                                        # =>This Loop Header: Depth=1
                                        #     Child Loop BB15_20 Depth 2
                                        #       Child Loop BB15_22 Depth 3
	cmpl	$13, -4(%rbp)
	jge	.LBB15_32
# %bb.19:                               # %for.body107
                                        #   in Loop: Header=BB15_18 Depth=1
	movl	-4(%rbp), %eax
	addl	$15, %eax
	subl	$10, %eax
	movl	%eax, -20(%rbp)
	movl	$0, -12(%rbp)
.LBB15_20:                              # %for.cond110
                                        #   Parent Loop BB15_18 Depth=1
                                        # =>  This Loop Header: Depth=2
                                        #       Child Loop BB15_22 Depth 3
	cmpl	$4, -12(%rbp)
	jge	.LBB15_30
# %bb.21:                               # %for.body113
                                        #   in Loop: Header=BB15_20 Depth=2
	movl	$0, -8(%rbp)
.LBB15_22:                              # %for.cond114
                                        #   Parent Loop BB15_18 Depth=1
                                        #     Parent Loop BB15_20 Depth=2
                                        # =>    This Inner Loop Header: Depth=3
	cmpl	$4, -8(%rbp)
	jge	.LBB15_28
# %bb.23:                               # %for.body117
                                        #   in Loop: Header=BB15_22 Depth=3
	movl	-8(%rbp), %eax
	shll	$2, %eax
	addl	-12(%rbp), %eax
	movl	%eax, -16(%rbp)
	movq	img, %rax
	cmpl	$2, 24(%rax)
	jne	.LBB15_25
# %bb.24:                               # %if.then123
                                        #   in Loop: Header=BB15_22 Depth=3
	movabsq	$LevelOffset4x4Chroma_Intra, %rdx
	movq	%rdx, %rax
	addq	$832, %rax              # imm = 0x340
	movslq	-16(%rbp), %rcx
	movswl	Offset_intra_default_intra(,%rcx,2), %esi
	movl	-20(%rbp), %ecx
                                        # kill: def $cl killed $ecx
	shll	%cl, %esi
	movslq	-4(%rbp), %rcx
	shlq	$6, %rcx
	movabsq	$LevelOffset4x4Luma_Intra, %rdi
	addq	%rcx, %rdi
	movslq	-12(%rbp), %rcx
	shlq	$4, %rcx
	addq	%rcx, %rdi
	movslq	-8(%rbp), %rcx
	movl	%esi, (%rdi,%rcx,4)
	movslq	-16(%rbp), %rcx
	movswl	Offset_intra_default_intra(,%rcx,2), %esi
	movl	-20(%rbp), %ecx
                                        # kill: def $cl killed $ecx
	shll	%cl, %esi
	movslq	-4(%rbp), %rcx
	shlq	$6, %rcx
	addq	%rcx, %rdx
	movslq	-12(%rbp), %rcx
	shlq	$4, %rcx
	addq	%rcx, %rdx
	movslq	-8(%rbp), %rcx
	movl	%esi, (%rdx,%rcx,4)
	movslq	-16(%rbp), %rcx
	movswl	Offset_intra_default_intra(,%rcx,2), %edx
	movl	-20(%rbp), %ecx
                                        # kill: def $cl killed $ecx
	shll	%cl, %edx
	movslq	-4(%rbp), %rcx
	shlq	$6, %rcx
	addq	%rcx, %rax
	movslq	-12(%rbp), %rcx
	shlq	$4, %rcx
	addq	%rcx, %rax
	movslq	-8(%rbp), %rcx
	movl	%edx, (%rax,%rcx,4)
	jmp	.LBB15_26
.LBB15_25:                              # %if.else154
                                        #   in Loop: Header=BB15_22 Depth=3
	movabsq	$LevelOffset4x4Chroma_Intra, %rdx
	movq	%rdx, %rax
	addq	$832, %rax              # imm = 0x340
	movslq	-16(%rbp), %rcx
	movswl	Offset_intra_default_inter(,%rcx,2), %esi
	movl	-20(%rbp), %ecx
                                        # kill: def $cl killed $ecx
	shll	%cl, %esi
	movslq	-4(%rbp), %rcx
	shlq	$6, %rcx
	movabsq	$LevelOffset4x4Luma_Intra, %rdi
	addq	%rcx, %rdi
	movslq	-12(%rbp), %rcx
	shlq	$4, %rcx
	addq	%rcx, %rdi
	movslq	-8(%rbp), %rcx
	movl	%esi, (%rdi,%rcx,4)
	movslq	-16(%rbp), %rcx
	movswl	Offset_intra_default_inter(,%rcx,2), %esi
	movl	-20(%rbp), %ecx
                                        # kill: def $cl killed $ecx
	shll	%cl, %esi
	movslq	-4(%rbp), %rcx
	shlq	$6, %rcx
	addq	%rcx, %rdx
	movslq	-12(%rbp), %rcx
	shlq	$4, %rcx
	addq	%rcx, %rdx
	movslq	-8(%rbp), %rcx
	movl	%esi, (%rdx,%rcx,4)
	movslq	-16(%rbp), %rcx
	movswl	Offset_intra_default_inter(,%rcx,2), %edx
	movl	-20(%rbp), %ecx
                                        # kill: def $cl killed $ecx
	shll	%cl, %edx
	movslq	-4(%rbp), %rcx
	shlq	$6, %rcx
	addq	%rcx, %rax
	movslq	-12(%rbp), %rcx
	shlq	$4, %rcx
	addq	%rcx, %rax
	movslq	-8(%rbp), %rcx
	movl	%edx, (%rax,%rcx,4)
.LBB15_26:                              # %if.end185
                                        #   in Loop: Header=BB15_22 Depth=3
	movabsq	$LevelOffset4x4Chroma_Inter, %rdx
	movq	%rdx, %rax
	addq	$832, %rax              # imm = 0x340
	movslq	-16(%rbp), %rcx
	movswl	Offset_inter_default(,%rcx,2), %esi
	movl	-20(%rbp), %ecx
                                        # kill: def $cl killed $ecx
	shll	%cl, %esi
	movslq	-4(%rbp), %rcx
	shlq	$6, %rcx
	movabsq	$LevelOffset4x4Luma_Inter, %rdi
	addq	%rcx, %rdi
	movslq	-12(%rbp), %rcx
	shlq	$4, %rcx
	addq	%rcx, %rdi
	movslq	-8(%rbp), %rcx
	movl	%esi, (%rdi,%rcx,4)
	movslq	-16(%rbp), %rcx
	movswl	Offset_inter_default(,%rcx,2), %esi
	movl	-20(%rbp), %ecx
                                        # kill: def $cl killed $ecx
	shll	%cl, %esi
	movslq	-4(%rbp), %rcx
	shlq	$6, %rcx
	addq	%rcx, %rdx
	movslq	-12(%rbp), %rcx
	shlq	$4, %rcx
	addq	%rcx, %rdx
	movslq	-8(%rbp), %rcx
	movl	%esi, (%rdx,%rcx,4)
	movslq	-16(%rbp), %rcx
	movswl	Offset_inter_default(,%rcx,2), %edx
	movl	-20(%rbp), %ecx
                                        # kill: def $cl killed $ecx
	shll	%cl, %edx
	movslq	-4(%rbp), %rcx
	shlq	$6, %rcx
	addq	%rcx, %rax
	movslq	-12(%rbp), %rcx
	shlq	$4, %rcx
	addq	%rcx, %rax
	movslq	-8(%rbp), %rcx
	movl	%edx, (%rax,%rcx,4)
# %bb.27:                               # %for.inc216
                                        #   in Loop: Header=BB15_22 Depth=3
	movl	-8(%rbp), %eax
	addl	$1, %eax
	movl	%eax, -8(%rbp)
	jmp	.LBB15_22
.LBB15_28:                              # %for.end218
                                        #   in Loop: Header=BB15_20 Depth=2
	jmp	.LBB15_29
.LBB15_29:                              # %for.inc219
                                        #   in Loop: Header=BB15_20 Depth=2
	movl	-12(%rbp), %eax
	addl	$1, %eax
	movl	%eax, -12(%rbp)
	jmp	.LBB15_20
.LBB15_30:                              # %for.end221
                                        #   in Loop: Header=BB15_18 Depth=1
	jmp	.LBB15_31
.LBB15_31:                              # %for.inc222
                                        #   in Loop: Header=BB15_18 Depth=1
	movl	-4(%rbp), %eax
	addl	$1, %eax
	movl	%eax, -4(%rbp)
	jmp	.LBB15_18
.LBB15_32:                              # %for.end224
	jmp	.LBB15_33
.LBB15_33:                              # %if.end225
	cmpl	$237866238, -24(%rbp)   # imm = 0xE2D8CFE
	jne	.LBB15_35
.LBB15_34:
	addq	$32, %rsp
	popq	%rbp
	.cfi_def_cfa %rsp, 8
	retq
.LBB15_35:                              # %func_exit
	.cfi_def_cfa %rbp, 16
	callq	detect_breach
	jmp	.LBB15_34
.Lfunc_end15:
	.size	CalculateOffsetParam.11, .Lfunc_end15-CalculateOffsetParam.11
	.cfi_endproc
                                        # -- End function
	.globl	ParseQOffsetMatrix.12   # -- Begin function ParseQOffsetMatrix.12
	.p2align	4, 0x90
	.type	ParseQOffsetMatrix.12,@function
ParseQOffsetMatrix.12:                  # @ParseQOffsetMatrix.12
	.cfi_startproc
# %bb.0:                                # %entry
	pushq	%rbp
	.cfi_def_cfa_offset 16
	.cfi_offset %rbp, -16
	movq	%rsp, %rbp
	.cfi_def_cfa_register %rbp
	subq	$8096, %rsp             # imm = 0x1FA0
	movl	$65532717, -52(%rbp)    # imm = 0x3E7F32D
	movq	%rdi, -72(%rbp)
	movl	%esi, -56(%rbp)
	movl	$0, -32(%rbp)
	movl	$0, -36(%rbp)
	movl	$0, -20(%rbp)
	movq	-72(%rbp), %rax
	movq	%rax, -16(%rbp)
	movq	-72(%rbp), %rax
	movslq	-56(%rbp), %rcx
	addq	%rcx, %rax
	movq	%rax, -80(%rbp)
.LBB16_1:                               # %while.cond
                                        # =>This Loop Header: Depth=1
                                        #     Child Loop BB16_6 Depth 2
	movq	-16(%rbp), %rax
	cmpq	-80(%rbp), %rax
	jae	.LBB16_25
# %bb.2:                                # %while.body
                                        #   in Loop: Header=BB16_1 Depth=1
	movq	-16(%rbp), %rax
	movsbl	(%rax), %eax
	addl	$-9, %eax
	movl	%eax, %ecx
	subl	$35, %ecx
	ja	.LBB16_21
# %bb.3:                                # %while.body
                                        #   in Loop: Header=BB16_1 Depth=1
	movq	.LJTI16_0(,%rax,8), %rax
	jmpq	*%rax
.LBB16_4:                               # %sw.bb
                                        #   in Loop: Header=BB16_1 Depth=1
	movq	-16(%rbp), %rax
	addq	$1, %rax
	movq	%rax, -16(%rbp)
	jmp	.LBB16_24
.LBB16_5:                               # %sw.bb1
                                        #   in Loop: Header=BB16_1 Depth=1
	movq	-16(%rbp), %rax
	movb	$0, (%rax)
.LBB16_6:                               # %while.cond2
                                        #   Parent Loop BB16_1 Depth=1
                                        # =>  This Inner Loop Header: Depth=2
	xorl	%eax, %eax
	movq	-16(%rbp), %rcx
	movsbl	(%rcx), %ecx
	cmpl	$10, %ecx
	je	.LBB16_8
# %bb.7:                                # %land.rhs
                                        #   in Loop: Header=BB16_6 Depth=2
	movq	-16(%rbp), %rax
	cmpq	-80(%rbp), %rax
	setb	%al
.LBB16_8:                               # %land.end
                                        #   in Loop: Header=BB16_6 Depth=2
	testb	$1, %al
	jne	.LBB16_9
	jmp	.LBB16_10
.LBB16_9:                               # %while.body8
                                        #   in Loop: Header=BB16_6 Depth=2
	movq	-16(%rbp), %rax
	addq	$1, %rax
	movq	%rax, -16(%rbp)
	jmp	.LBB16_6
.LBB16_10:                              # %while.end
                                        #   in Loop: Header=BB16_1 Depth=1
	movl	$0, -36(%rbp)
	movl	$0, -20(%rbp)
	jmp	.LBB16_24
.LBB16_11:                              # %sw.bb10
                                        #   in Loop: Header=BB16_1 Depth=1
	movl	$0, -20(%rbp)
	movl	$0, -36(%rbp)
	movq	-16(%rbp), %rax
	movq	%rax, %rcx
	addq	$1, %rcx
	movq	%rcx, -16(%rbp)
	movb	$0, (%rax)
	jmp	.LBB16_24
.LBB16_12:                              # %sw.bb12
                                        #   in Loop: Header=BB16_1 Depth=1
	cmpl	$0, -36(%rbp)
	je	.LBB16_14
# %bb.13:                               # %if.then
                                        #   in Loop: Header=BB16_1 Depth=1
	movq	-16(%rbp), %rax
	addq	$1, %rax
	movq	%rax, -16(%rbp)
	jmp	.LBB16_15
.LBB16_14:                              # %if.else
                                        #   in Loop: Header=BB16_1 Depth=1
	movq	-16(%rbp), %rax
	movq	%rax, %rcx
	addq	$1, %rcx
	movq	%rcx, -16(%rbp)
	movb	$0, (%rax)
	movl	$0, -20(%rbp)
.LBB16_15:                              # %if.end
                                        #   in Loop: Header=BB16_1 Depth=1
	jmp	.LBB16_24
.LBB16_16:                              # %sw.bb15
                                        #   in Loop: Header=BB16_1 Depth=1
	movq	-16(%rbp), %rax
	movq	%rax, %rcx
	addq	$1, %rcx
	movq	%rcx, -16(%rbp)
	movb	$0, (%rax)
	cmpl	$0, -36(%rbp)
	jne	.LBB16_18
# %bb.17:                               # %if.then18
                                        #   in Loop: Header=BB16_1 Depth=1
	movq	-16(%rbp), %rax
	movl	-32(%rbp), %ecx
	movl	%ecx, %edx
	addl	$1, %edx
	movl	%edx, -32(%rbp)
	movslq	%ecx, %rcx
	movq	%rax, -8096(%rbp,%rcx,8)
	movl	-20(%rbp), %eax
	xorl	$-1, %eax
	movl	%eax, -20(%rbp)
	jmp	.LBB16_19
.LBB16_18:                              # %if.else21
                                        #   in Loop: Header=BB16_1 Depth=1
	movl	$0, -20(%rbp)
.LBB16_19:                              # %if.end22
                                        #   in Loop: Header=BB16_1 Depth=1
	movl	-36(%rbp), %eax
	xorl	$-1, %eax
	movl	%eax, -36(%rbp)
	jmp	.LBB16_24
.LBB16_20:                              # %sw.bb24
                                        #   in Loop: Header=BB16_1 Depth=1
	movq	-16(%rbp), %rax
	addq	$1, %rax
	movq	%rax, -16(%rbp)
	movl	$0, -20(%rbp)
	jmp	.LBB16_24
.LBB16_21:                              # %sw.default
                                        #   in Loop: Header=BB16_1 Depth=1
	cmpl	$0, -20(%rbp)
	jne	.LBB16_23
# %bb.22:                               # %if.then27
                                        #   in Loop: Header=BB16_1 Depth=1
	movq	-16(%rbp), %rax
	movl	-32(%rbp), %ecx
	movl	%ecx, %edx
	addl	$1, %edx
	movl	%edx, -32(%rbp)
	movslq	%ecx, %rcx
	movq	%rax, -8096(%rbp,%rcx,8)
	movl	-20(%rbp), %eax
	xorl	$-1, %eax
	movl	%eax, -20(%rbp)
.LBB16_23:                              # %if.end32
                                        #   in Loop: Header=BB16_1 Depth=1
	movq	-16(%rbp), %rax
	addq	$1, %rax
	movq	%rax, -16(%rbp)
.LBB16_24:                              # %sw.epilog
                                        #   in Loop: Header=BB16_1 Depth=1
	jmp	.LBB16_1
.LBB16_25:                              # %while.end34
	movl	-32(%rbp), %eax
	addl	$-1, %eax
	movl	%eax, -32(%rbp)
	movl	$0, -24(%rbp)
.LBB16_26:                              # %for.cond
                                        # =>This Loop Header: Depth=1
                                        #     Child Loop BB16_35 Depth 2
	movl	-24(%rbp), %eax
	cmpl	-32(%rbp), %eax
	jge	.LBB16_42
# %bb.27:                               # %for.body
                                        #   in Loop: Header=BB16_26 Depth=1
	movl	$0, -4(%rbp)
	movl	-24(%rbp), %eax
	addl	-4(%rbp), %eax
	cltq
	movq	-8096(%rbp,%rax,8), %rdi
	leaq	-60(%rbp), %rsi
	callq	CheckOffsetParameterName
	xorl	%ecx, %ecx
	movl	%eax, -40(%rbp)
	cmpl	%eax, %ecx
	jle	.LBB16_29
# %bb.28:                               # %if.then41
                                        #   in Loop: Header=BB16_26 Depth=1
	movl	-24(%rbp), %eax
	addl	-4(%rbp), %eax
	cltq
	movq	-8096(%rbp,%rax,8), %rcx
	movabsq	$errortext, %rdi
	movl	$300, %esi              # imm = 0x12C
	movabsq	$.L.str, %rdx
	movb	$0, %al
	callq	snprintf
	movabsq	$errortext, %rdi
	movl	$300, %esi              # imm = 0x12C
	callq	error
.LBB16_29:                              # %if.end46
                                        #   in Loop: Header=BB16_26 Depth=1
	movl	-4(%rbp), %eax
	addl	$1, %eax
	movl	%eax, -4(%rbp)
	movl	-24(%rbp), %eax
	addl	-4(%rbp), %eax
	cltq
	movq	-8096(%rbp,%rax,8), %rsi
	movl	$.L.str.1, %edi
	callq	strcmp
	cmpl	$0, %eax
	je	.LBB16_31
# %bb.30:                               # %if.then53
                                        #   in Loop: Header=BB16_26 Depth=1
	movabsq	$errortext, %rdi
	movl	$300, %esi              # imm = 0x12C
	movabsq	$.L.str.2, %rdx
	movb	$0, %al
	callq	snprintf
	movabsq	$errortext, %rdi
	movl	$300, %esi              # imm = 0x12C
	callq	error
.LBB16_31:                              # %if.end55
                                        #   in Loop: Header=BB16_26 Depth=1
	movl	-4(%rbp), %eax
	addl	$1, %eax
	movl	%eax, -4(%rbp)
	cmpl	$0, -60(%rbp)
	jne	.LBB16_33
# %bb.32:                               # %if.then58
                                        #   in Loop: Header=BB16_26 Depth=1
	movl	$16, -44(%rbp)
	movslq	-40(%rbp), %rax
	shlq	$5, %rax
	movabsq	$OffsetList4x4input, %rcx
	addq	%rax, %rcx
	movq	%rcx, -88(%rbp)
	movslq	-40(%rbp), %rax
	movl	$1, offset4x4_check(,%rax,4)
	jmp	.LBB16_34
.LBB16_33:                              # %if.else63
                                        #   in Loop: Header=BB16_26 Depth=1
	movl	$64, -44(%rbp)
	movslq	-40(%rbp), %rax
	shlq	$7, %rax
	movabsq	$OffsetList8x8input, %rcx
	addq	%rax, %rcx
	movq	%rcx, -88(%rbp)
	movslq	-40(%rbp), %rax
	movl	$1, offset8x8_check(,%rax,4)
.LBB16_34:                              # %if.end69
                                        #   in Loop: Header=BB16_26 Depth=1
	movl	$0, -28(%rbp)
.LBB16_35:                              # %for.cond70
                                        #   Parent Loop BB16_26 Depth=1
                                        # =>  This Inner Loop Header: Depth=2
	movl	-28(%rbp), %eax
	cmpl	-44(%rbp), %eax
	jge	.LBB16_40
# %bb.36:                               # %for.body73
                                        #   in Loop: Header=BB16_35 Depth=2
	movl	-24(%rbp), %eax
	addl	-4(%rbp), %eax
	addl	-28(%rbp), %eax
	cltq
	movq	-8096(%rbp,%rax,8), %rdi
	movabsq	$.L.str.3, %rsi
	leaq	-48(%rbp), %rdx
	movb	$0, %al
	callq	__isoc99_sscanf
	movl	$1, %ecx
	cmpl	%eax, %ecx
	je	.LBB16_38
# %bb.37:                               # %if.then81
                                        #   in Loop: Header=BB16_35 Depth=2
	movslq	-24(%rbp), %rax
	movq	-8096(%rbp,%rax,8), %rcx
	movl	-24(%rbp), %eax
	addl	-4(%rbp), %eax
	addl	-28(%rbp), %eax
	cltq
	movq	-8096(%rbp,%rax,8), %r8
	movabsq	$errortext, %rdi
	movl	$300, %esi              # imm = 0x12C
	movabsq	$.L.str.4, %rdx
	movb	$0, %al
	callq	snprintf
	movabsq	$errortext, %rdi
	movl	$300, %esi              # imm = 0x12C
	callq	error
.LBB16_38:                              # %if.end89
                                        #   in Loop: Header=BB16_35 Depth=2
	movl	-48(%rbp), %eax
	movq	-88(%rbp), %rcx
	movslq	-28(%rbp), %rdx
	movw	%ax, (%rcx,%rdx,2)
# %bb.39:                               # %for.inc
                                        #   in Loop: Header=BB16_35 Depth=2
	movl	-28(%rbp), %eax
	addl	$1, %eax
	movl	%eax, -28(%rbp)
	jmp	.LBB16_35
.LBB16_40:                              # %for.end
                                        #   in Loop: Header=BB16_26 Depth=1
	movl	-28(%rbp), %eax
	addl	-4(%rbp), %eax
	movl	%eax, -4(%rbp)
	movabsq	$.L.str.5, %rdi
	movb	$0, %al
	callq	printf
# %bb.41:                               # %for.inc96
                                        #   in Loop: Header=BB16_26 Depth=1
	movl	-4(%rbp), %eax
	addl	-24(%rbp), %eax
	movl	%eax, -24(%rbp)
	jmp	.LBB16_26
.LBB16_42:                              # %for.end98
	cmpl	$65532717, -52(%rbp)    # imm = 0x3E7F32D
	jne	.LBB16_44
.LBB16_43:
	addq	$8096, %rsp             # imm = 0x1FA0
	popq	%rbp
	.cfi_def_cfa %rsp, 8
	retq
.LBB16_44:                              # %func_exit
	.cfi_def_cfa %rbp, 16
	callq	detect_breach
	jmp	.LBB16_43
.Lfunc_end16:
	.size	ParseQOffsetMatrix.12, .Lfunc_end16-ParseQOffsetMatrix.12
	.cfi_endproc
	.section	.rodata,"a",@progbits
	.p2align	3
.LJTI16_0:
	.quad	.LBB16_12
	.quad	.LBB16_11
	.quad	.LBB16_21
	.quad	.LBB16_21
	.quad	.LBB16_4
	.quad	.LBB16_21
	.quad	.LBB16_21
	.quad	.LBB16_21
	.quad	.LBB16_21
	.quad	.LBB16_21
	.quad	.LBB16_21
	.quad	.LBB16_21
	.quad	.LBB16_21
	.quad	.LBB16_21
	.quad	.LBB16_21
	.quad	.LBB16_21
	.quad	.LBB16_21
	.quad	.LBB16_21
	.quad	.LBB16_21
	.quad	.LBB16_21
	.quad	.LBB16_21
	.quad	.LBB16_21
	.quad	.LBB16_21
	.quad	.LBB16_12
	.quad	.LBB16_21
	.quad	.LBB16_16
	.quad	.LBB16_5
	.quad	.LBB16_21
	.quad	.LBB16_21
	.quad	.LBB16_21
	.quad	.LBB16_21
	.quad	.LBB16_21
	.quad	.LBB16_21
	.quad	.LBB16_21
	.quad	.LBB16_21
	.quad	.LBB16_20
                                        # -- End function
	.text
	.globl	CalculateOffsetParam.13 # -- Begin function CalculateOffsetParam.13
	.p2align	4, 0x90
	.type	CalculateOffsetParam.13,@function
CalculateOffsetParam.13:                # @CalculateOffsetParam.13
	.cfi_startproc
# %bb.0:                                # %entry
	pushq	%rbp
	.cfi_def_cfa_offset 16
	.cfi_offset %rbp, -16
	movq	%rsp, %rbp
	.cfi_def_cfa_register %rbp
	subq	$32, %rsp
	movl	$1847058593, -24(%rbp)  # imm = 0x6E17E0A1
	movq	input, %rax
	cmpl	$0, 3584(%rax)
	je	.LBB17_17
# %bb.1:                                # %if.then
	movl	$0, -4(%rbp)
.LBB17_2:                               # %for.cond
                                        # =>This Loop Header: Depth=1
                                        #     Child Loop BB17_4 Depth 2
                                        #       Child Loop BB17_6 Depth 3
	cmpl	$13, -4(%rbp)
	jge	.LBB17_16
# %bb.3:                                # %for.body
                                        #   in Loop: Header=BB17_2 Depth=1
	movl	-4(%rbp), %eax
	addl	$15, %eax
	subl	$10, %eax
	movl	%eax, -16(%rbp)
	movl	$0, -8(%rbp)
.LBB17_4:                               # %for.cond1
                                        #   Parent Loop BB17_2 Depth=1
                                        # =>  This Loop Header: Depth=2
                                        #       Child Loop BB17_6 Depth 3
	cmpl	$4, -8(%rbp)
	jge	.LBB17_14
# %bb.5:                                # %for.body3
                                        #   in Loop: Header=BB17_4 Depth=2
	movl	$0, -12(%rbp)
.LBB17_6:                               # %for.cond4
                                        #   Parent Loop BB17_2 Depth=1
                                        #     Parent Loop BB17_4 Depth=2
                                        # =>    This Inner Loop Header: Depth=3
	cmpl	$4, -12(%rbp)
	jge	.LBB17_12
# %bb.7:                                # %for.body6
                                        #   in Loop: Header=BB17_6 Depth=3
	movl	-12(%rbp), %eax
	shll	$2, %eax
	addl	-8(%rbp), %eax
	movl	%eax, -20(%rbp)
	movq	img, %rax
	cmpl	$2, 24(%rax)
	jne	.LBB17_9
# %bb.8:                                # %if.then9
                                        #   in Loop: Header=BB17_6 Depth=3
	movabsq	$LevelOffset4x4Chroma_Intra, %rdx
	movq	%rdx, %rax
	addq	$832, %rax              # imm = 0x340
	movslq	-20(%rbp), %rcx
	movswl	OffsetList4x4input(,%rcx,2), %esi
	movl	-16(%rbp), %ecx
                                        # kill: def $cl killed $ecx
	shll	%cl, %esi
	movslq	-4(%rbp), %rcx
	shlq	$6, %rcx
	movabsq	$LevelOffset4x4Luma_Intra, %rdi
	addq	%rcx, %rdi
	movslq	-8(%rbp), %rcx
	shlq	$4, %rcx
	addq	%rcx, %rdi
	movslq	-12(%rbp), %rcx
	movl	%esi, (%rdi,%rcx,4)
	movslq	-20(%rbp), %rcx
	movswl	OffsetList4x4input+32(,%rcx,2), %esi
	movl	-16(%rbp), %ecx
                                        # kill: def $cl killed $ecx
	shll	%cl, %esi
	movslq	-4(%rbp), %rcx
	shlq	$6, %rcx
	addq	%rcx, %rdx
	movslq	-8(%rbp), %rcx
	shlq	$4, %rcx
	addq	%rcx, %rdx
	movslq	-12(%rbp), %rcx
	movl	%esi, (%rdx,%rcx,4)
	movslq	-20(%rbp), %rcx
	movswl	OffsetList4x4input+64(,%rcx,2), %edx
	movl	-16(%rbp), %ecx
                                        # kill: def $cl killed $ecx
	shll	%cl, %edx
	movslq	-4(%rbp), %rcx
	shlq	$6, %rcx
	addq	%rcx, %rax
	movslq	-8(%rbp), %rcx
	shlq	$4, %rcx
	addq	%rcx, %rax
	movslq	-12(%rbp), %rcx
	movl	%edx, (%rax,%rcx,4)
	jmp	.LBB17_10
.LBB17_9:                               # %if.else
                                        #   in Loop: Header=BB17_6 Depth=3
	movabsq	$LevelOffset4x4Chroma_Intra, %rdx
	movq	%rdx, %rax
	addq	$832, %rax              # imm = 0x340
	movslq	-20(%rbp), %rcx
	movswl	OffsetList4x4input+96(,%rcx,2), %esi
	movl	-16(%rbp), %ecx
                                        # kill: def $cl killed $ecx
	shll	%cl, %esi
	movslq	-4(%rbp), %rcx
	shlq	$6, %rcx
	movabsq	$LevelOffset4x4Luma_Intra, %rdi
	addq	%rcx, %rdi
	movslq	-8(%rbp), %rcx
	shlq	$4, %rcx
	addq	%rcx, %rdi
	movslq	-12(%rbp), %rcx
	movl	%esi, (%rdi,%rcx,4)
	movslq	-20(%rbp), %rcx
	movswl	OffsetList4x4input+128(,%rcx,2), %esi
	movl	-16(%rbp), %ecx
                                        # kill: def $cl killed $ecx
	shll	%cl, %esi
	movslq	-4(%rbp), %rcx
	shlq	$6, %rcx
	addq	%rcx, %rdx
	movslq	-8(%rbp), %rcx
	shlq	$4, %rcx
	addq	%rcx, %rdx
	movslq	-12(%rbp), %rcx
	movl	%esi, (%rdx,%rcx,4)
	movslq	-20(%rbp), %rcx
	movswl	OffsetList4x4input+160(,%rcx,2), %edx
	movl	-16(%rbp), %ecx
                                        # kill: def $cl killed $ecx
	shll	%cl, %edx
	movslq	-4(%rbp), %rcx
	shlq	$6, %rcx
	addq	%rcx, %rax
	movslq	-8(%rbp), %rcx
	shlq	$4, %rcx
	addq	%rcx, %rax
	movslq	-12(%rbp), %rcx
	movl	%edx, (%rax,%rcx,4)
.LBB17_10:                              # %if.end
                                        #   in Loop: Header=BB17_6 Depth=3
	movabsq	$LevelOffset4x4Chroma_Inter, %rdx
	movq	%rdx, %rax
	addq	$832, %rax              # imm = 0x340
	movslq	-20(%rbp), %rcx
	movswl	OffsetList4x4input+192(,%rcx,2), %esi
	movl	-16(%rbp), %ecx
                                        # kill: def $cl killed $ecx
	shll	%cl, %esi
	movslq	-4(%rbp), %rcx
	shlq	$6, %rcx
	movabsq	$LevelOffset4x4Luma_Inter, %rdi
	addq	%rcx, %rdi
	movslq	-8(%rbp), %rcx
	shlq	$4, %rcx
	addq	%rcx, %rdi
	movslq	-12(%rbp), %rcx
	movl	%esi, (%rdi,%rcx,4)
	movslq	-20(%rbp), %rcx
	movswl	OffsetList4x4input+224(,%rcx,2), %esi
	movl	-16(%rbp), %ecx
                                        # kill: def $cl killed $ecx
	shll	%cl, %esi
	movslq	-4(%rbp), %rcx
	shlq	$6, %rcx
	addq	%rcx, %rdx
	movslq	-8(%rbp), %rcx
	shlq	$4, %rcx
	addq	%rcx, %rdx
	movslq	-12(%rbp), %rcx
	movl	%esi, (%rdx,%rcx,4)
	movslq	-20(%rbp), %rcx
	movswl	OffsetList4x4input+256(,%rcx,2), %edx
	movl	-16(%rbp), %ecx
                                        # kill: def $cl killed $ecx
	shll	%cl, %edx
	movslq	-4(%rbp), %rcx
	shlq	$6, %rcx
	addq	%rcx, %rax
	movslq	-8(%rbp), %rcx
	shlq	$4, %rcx
	addq	%rcx, %rax
	movslq	-12(%rbp), %rcx
	movl	%edx, (%rax,%rcx,4)
# %bb.11:                               # %for.inc
                                        #   in Loop: Header=BB17_6 Depth=3
	movl	-12(%rbp), %eax
	addl	$1, %eax
	movl	%eax, -12(%rbp)
	jmp	.LBB17_6
.LBB17_12:                              # %for.end
                                        #   in Loop: Header=BB17_4 Depth=2
	jmp	.LBB17_13
.LBB17_13:                              # %for.inc97
                                        #   in Loop: Header=BB17_4 Depth=2
	movl	-8(%rbp), %eax
	addl	$1, %eax
	movl	%eax, -8(%rbp)
	jmp	.LBB17_4
.LBB17_14:                              # %for.end99
                                        #   in Loop: Header=BB17_2 Depth=1
	jmp	.LBB17_15
.LBB17_15:                              # %for.inc100
                                        #   in Loop: Header=BB17_2 Depth=1
	movl	-4(%rbp), %eax
	addl	$1, %eax
	movl	%eax, -4(%rbp)
	jmp	.LBB17_2
.LBB17_16:                              # %for.end102
	jmp	.LBB17_33
.LBB17_17:                              # %if.else103
	movl	$0, -4(%rbp)
.LBB17_18:                              # %for.cond104
                                        # =>This Loop Header: Depth=1
                                        #     Child Loop BB17_20 Depth 2
                                        #       Child Loop BB17_22 Depth 3
	cmpl	$13, -4(%rbp)
	jge	.LBB17_32
# %bb.19:                               # %for.body107
                                        #   in Loop: Header=BB17_18 Depth=1
	movl	-4(%rbp), %eax
	addl	$15, %eax
	subl	$10, %eax
	movl	%eax, -16(%rbp)
	movl	$0, -8(%rbp)
.LBB17_20:                              # %for.cond110
                                        #   Parent Loop BB17_18 Depth=1
                                        # =>  This Loop Header: Depth=2
                                        #       Child Loop BB17_22 Depth 3
	cmpl	$4, -8(%rbp)
	jge	.LBB17_30
# %bb.21:                               # %for.body113
                                        #   in Loop: Header=BB17_20 Depth=2
	movl	$0, -12(%rbp)
.LBB17_22:                              # %for.cond114
                                        #   Parent Loop BB17_18 Depth=1
                                        #     Parent Loop BB17_20 Depth=2
                                        # =>    This Inner Loop Header: Depth=3
	cmpl	$4, -12(%rbp)
	jge	.LBB17_28
# %bb.23:                               # %for.body117
                                        #   in Loop: Header=BB17_22 Depth=3
	movl	-12(%rbp), %eax
	shll	$2, %eax
	addl	-8(%rbp), %eax
	movl	%eax, -20(%rbp)
	movq	img, %rax
	cmpl	$2, 24(%rax)
	jne	.LBB17_25
# %bb.24:                               # %if.then123
                                        #   in Loop: Header=BB17_22 Depth=3
	movabsq	$LevelOffset4x4Chroma_Intra, %rdx
	movq	%rdx, %rax
	addq	$832, %rax              # imm = 0x340
	movslq	-20(%rbp), %rcx
	movswl	Offset_intra_default_intra(,%rcx,2), %esi
	movl	-16(%rbp), %ecx
                                        # kill: def $cl killed $ecx
	shll	%cl, %esi
	movslq	-4(%rbp), %rcx
	shlq	$6, %rcx
	movabsq	$LevelOffset4x4Luma_Intra, %rdi
	addq	%rcx, %rdi
	movslq	-8(%rbp), %rcx
	shlq	$4, %rcx
	addq	%rcx, %rdi
	movslq	-12(%rbp), %rcx
	movl	%esi, (%rdi,%rcx,4)
	movslq	-20(%rbp), %rcx
	movswl	Offset_intra_default_intra(,%rcx,2), %esi
	movl	-16(%rbp), %ecx
                                        # kill: def $cl killed $ecx
	shll	%cl, %esi
	movslq	-4(%rbp), %rcx
	shlq	$6, %rcx
	addq	%rcx, %rdx
	movslq	-8(%rbp), %rcx
	shlq	$4, %rcx
	addq	%rcx, %rdx
	movslq	-12(%rbp), %rcx
	movl	%esi, (%rdx,%rcx,4)
	movslq	-20(%rbp), %rcx
	movswl	Offset_intra_default_intra(,%rcx,2), %edx
	movl	-16(%rbp), %ecx
                                        # kill: def $cl killed $ecx
	shll	%cl, %edx
	movslq	-4(%rbp), %rcx
	shlq	$6, %rcx
	addq	%rcx, %rax
	movslq	-8(%rbp), %rcx
	shlq	$4, %rcx
	addq	%rcx, %rax
	movslq	-12(%rbp), %rcx
	movl	%edx, (%rax,%rcx,4)
	jmp	.LBB17_26
.LBB17_25:                              # %if.else154
                                        #   in Loop: Header=BB17_22 Depth=3
	movabsq	$LevelOffset4x4Chroma_Intra, %rdx
	movq	%rdx, %rax
	addq	$832, %rax              # imm = 0x340
	movslq	-20(%rbp), %rcx
	movswl	Offset_intra_default_inter(,%rcx,2), %esi
	movl	-16(%rbp), %ecx
                                        # kill: def $cl killed $ecx
	shll	%cl, %esi
	movslq	-4(%rbp), %rcx
	shlq	$6, %rcx
	movabsq	$LevelOffset4x4Luma_Intra, %rdi
	addq	%rcx, %rdi
	movslq	-8(%rbp), %rcx
	shlq	$4, %rcx
	addq	%rcx, %rdi
	movslq	-12(%rbp), %rcx
	movl	%esi, (%rdi,%rcx,4)
	movslq	-20(%rbp), %rcx
	movswl	Offset_intra_default_inter(,%rcx,2), %esi
	movl	-16(%rbp), %ecx
                                        # kill: def $cl killed $ecx
	shll	%cl, %esi
	movslq	-4(%rbp), %rcx
	shlq	$6, %rcx
	addq	%rcx, %rdx
	movslq	-8(%rbp), %rcx
	shlq	$4, %rcx
	addq	%rcx, %rdx
	movslq	-12(%rbp), %rcx
	movl	%esi, (%rdx,%rcx,4)
	movslq	-20(%rbp), %rcx
	movswl	Offset_intra_default_inter(,%rcx,2), %edx
	movl	-16(%rbp), %ecx
                                        # kill: def $cl killed $ecx
	shll	%cl, %edx
	movslq	-4(%rbp), %rcx
	shlq	$6, %rcx
	addq	%rcx, %rax
	movslq	-8(%rbp), %rcx
	shlq	$4, %rcx
	addq	%rcx, %rax
	movslq	-12(%rbp), %rcx
	movl	%edx, (%rax,%rcx,4)
.LBB17_26:                              # %if.end185
                                        #   in Loop: Header=BB17_22 Depth=3
	movabsq	$LevelOffset4x4Chroma_Inter, %rdx
	movq	%rdx, %rax
	addq	$832, %rax              # imm = 0x340
	movslq	-20(%rbp), %rcx
	movswl	Offset_inter_default(,%rcx,2), %esi
	movl	-16(%rbp), %ecx
                                        # kill: def $cl killed $ecx
	shll	%cl, %esi
	movslq	-4(%rbp), %rcx
	shlq	$6, %rcx
	movabsq	$LevelOffset4x4Luma_Inter, %rdi
	addq	%rcx, %rdi
	movslq	-8(%rbp), %rcx
	shlq	$4, %rcx
	addq	%rcx, %rdi
	movslq	-12(%rbp), %rcx
	movl	%esi, (%rdi,%rcx,4)
	movslq	-20(%rbp), %rcx
	movswl	Offset_inter_default(,%rcx,2), %esi
	movl	-16(%rbp), %ecx
                                        # kill: def $cl killed $ecx
	shll	%cl, %esi
	movslq	-4(%rbp), %rcx
	shlq	$6, %rcx
	addq	%rcx, %rdx
	movslq	-8(%rbp), %rcx
	shlq	$4, %rcx
	addq	%rcx, %rdx
	movslq	-12(%rbp), %rcx
	movl	%esi, (%rdx,%rcx,4)
	movslq	-20(%rbp), %rcx
	movswl	Offset_inter_default(,%rcx,2), %edx
	movl	-16(%rbp), %ecx
                                        # kill: def $cl killed $ecx
	shll	%cl, %edx
	movslq	-4(%rbp), %rcx
	shlq	$6, %rcx
	addq	%rcx, %rax
	movslq	-8(%rbp), %rcx
	shlq	$4, %rcx
	addq	%rcx, %rax
	movslq	-12(%rbp), %rcx
	movl	%edx, (%rax,%rcx,4)
# %bb.27:                               # %for.inc216
                                        #   in Loop: Header=BB17_22 Depth=3
	movl	-12(%rbp), %eax
	addl	$1, %eax
	movl	%eax, -12(%rbp)
	jmp	.LBB17_22
.LBB17_28:                              # %for.end218
                                        #   in Loop: Header=BB17_20 Depth=2
	jmp	.LBB17_29
.LBB17_29:                              # %for.inc219
                                        #   in Loop: Header=BB17_20 Depth=2
	movl	-8(%rbp), %eax
	addl	$1, %eax
	movl	%eax, -8(%rbp)
	jmp	.LBB17_20
.LBB17_30:                              # %for.end221
                                        #   in Loop: Header=BB17_18 Depth=1
	jmp	.LBB17_31
.LBB17_31:                              # %for.inc222
                                        #   in Loop: Header=BB17_18 Depth=1
	movl	-4(%rbp), %eax
	addl	$1, %eax
	movl	%eax, -4(%rbp)
	jmp	.LBB17_18
.LBB17_32:                              # %for.end224
	jmp	.LBB17_33
.LBB17_33:                              # %if.end225
	cmpl	$1847058593, -24(%rbp)  # imm = 0x6E17E0A1
	jne	.LBB17_35
.LBB17_34:
	addq	$32, %rsp
	popq	%rbp
	.cfi_def_cfa %rsp, 8
	retq
.LBB17_35:                              # %func_exit
	.cfi_def_cfa %rbp, 16
	callq	detect_breach
	jmp	.LBB17_34
.Lfunc_end17:
	.size	CalculateOffsetParam.13, .Lfunc_end17-CalculateOffsetParam.13
	.cfi_endproc
                                        # -- End function
	.globl	CheckOffsetParameterName.14 # -- Begin function CheckOffsetParameterName.14
	.p2align	4, 0x90
	.type	CheckOffsetParameterName.14,@function
CheckOffsetParameterName.14:            # @CheckOffsetParameterName.14
	.cfi_startproc
# %bb.0:                                # %entry
	pushq	%rbp
	.cfi_def_cfa_offset 16
	.cfi_offset %rbp, -16
	movq	%rsp, %rbp
	.cfi_def_cfa_register %rbp
	pushq	%rbx
	subq	$40, %rsp
	.cfi_offset %rbx, -24
	movl	$858950060, -20(%rbp)   # imm = 0x333289AC
	movq	%rdi, -40(%rbp)
	movq	%rsi, -32(%rbp)
	movl	$0, -12(%rbp)
	movq	-32(%rbp), %rax
	movl	$0, (%rax)
.LBB18_1:                               # %while.cond
                                        # =>This Inner Loop Header: Depth=1
	xorl	%eax, %eax
	movslq	-12(%rbp), %rcx
	imulq	$24, %rcx, %rcx
	movabsq	$OffsetType4x4, %rdx
	addq	%rcx, %rdx
	cmpq	$0, %rdx
	je	.LBB18_3
# %bb.2:                                # %land.rhs
                                        #   in Loop: Header=BB18_1 Depth=1
	cmpl	$9, -12(%rbp)
	setl	%al
.LBB18_3:                               # %land.end
                                        #   in Loop: Header=BB18_1 Depth=1
	testb	$1, %al
	jne	.LBB18_4
	jmp	.LBB18_8
.LBB18_4:                               # %while.body
                                        #   in Loop: Header=BB18_1 Depth=1
	xorl	%ebx, %ebx
	movslq	-12(%rbp), %rax
	imulq	$24, %rax, %rax
	movabsq	$OffsetType4x4, %rdi
	addq	%rax, %rdi
	movq	-40(%rbp), %rsi
	callq	strcmp
	cmpl	%eax, %ebx
	jne	.LBB18_6
# %bb.5:                                # %if.then
	movl	-12(%rbp), %eax
	movl	%eax, -16(%rbp)
	jmp	.LBB18_17
.LBB18_6:                               # %if.else
                                        #   in Loop: Header=BB18_1 Depth=1
	movl	-12(%rbp), %eax
	addl	$1, %eax
	movl	%eax, -12(%rbp)
# %bb.7:                                # %if.end
                                        #   in Loop: Header=BB18_1 Depth=1
	jmp	.LBB18_1
.LBB18_8:                               # %while.end
	movl	$0, -12(%rbp)
	movq	-32(%rbp), %rax
	movl	$1, (%rax)
.LBB18_9:                               # %while.cond6
                                        # =>This Inner Loop Header: Depth=1
	xorl	%eax, %eax
	movslq	-12(%rbp), %rcx
	imulq	$24, %rcx, %rcx
	movabsq	$OffsetType8x8, %rdx
	addq	%rcx, %rdx
	cmpq	$0, %rdx
	je	.LBB18_11
# %bb.10:                               # %land.rhs11
                                        #   in Loop: Header=BB18_9 Depth=1
	cmpl	$3, -12(%rbp)
	setl	%al
.LBB18_11:                              # %land.end13
                                        #   in Loop: Header=BB18_9 Depth=1
	testb	$1, %al
	jne	.LBB18_12
	jmp	.LBB18_16
.LBB18_12:                              # %while.body14
                                        #   in Loop: Header=BB18_9 Depth=1
	xorl	%ebx, %ebx
	movslq	-12(%rbp), %rax
	imulq	$24, %rax, %rax
	movabsq	$OffsetType8x8, %rdi
	addq	%rax, %rdi
	movq	-40(%rbp), %rsi
	callq	strcmp
	cmpl	%eax, %ebx
	jne	.LBB18_14
# %bb.13:                               # %if.then20
	movl	-12(%rbp), %eax
	movl	%eax, -16(%rbp)
	jmp	.LBB18_17
.LBB18_14:                              # %if.else21
                                        #   in Loop: Header=BB18_9 Depth=1
	movl	-12(%rbp), %eax
	addl	$1, %eax
	movl	%eax, -12(%rbp)
# %bb.15:                               # %if.end23
                                        #   in Loop: Header=BB18_9 Depth=1
	jmp	.LBB18_9
.LBB18_16:                              # %while.end24
	movl	$-1, -16(%rbp)
.LBB18_17:                              # %return
	movl	-16(%rbp), %ebx
	cmpl	$858950060, -20(%rbp)   # imm = 0x333289AC
	jne	.LBB18_19
.LBB18_18:
	movl	%ebx, %eax
	addq	$40, %rsp
	popq	%rbx
	popq	%rbp
	.cfi_def_cfa %rsp, 8
	retq
.LBB18_19:                              # %func_exit
	.cfi_def_cfa %rbp, 16
	callq	detect_breach
	jmp	.LBB18_18
.Lfunc_end18:
	.size	CheckOffsetParameterName.14, .Lfunc_end18-CheckOffsetParameterName.14
	.cfi_endproc
                                        # -- End function
	.globl	ParseQOffsetMatrix.15   # -- Begin function ParseQOffsetMatrix.15
	.p2align	4, 0x90
	.type	ParseQOffsetMatrix.15,@function
ParseQOffsetMatrix.15:                  # @ParseQOffsetMatrix.15
	.cfi_startproc
# %bb.0:                                # %entry
	pushq	%rbp
	.cfi_def_cfa_offset 16
	.cfi_offset %rbp, -16
	movq	%rsp, %rbp
	.cfi_def_cfa_register %rbp
	subq	$8096, %rsp             # imm = 0x1FA0
	movl	$1446585940, -48(%rbp)  # imm = 0x56392654
	movq	%rdi, -80(%rbp)
	movl	%esi, -60(%rbp)
	movl	$0, -32(%rbp)
	movl	$0, -36(%rbp)
	movl	$0, -20(%rbp)
	movq	-80(%rbp), %rax
	movq	%rax, -16(%rbp)
	movq	-80(%rbp), %rax
	movslq	-60(%rbp), %rcx
	addq	%rcx, %rax
	movq	%rax, -72(%rbp)
.LBB19_1:                               # %while.cond
                                        # =>This Loop Header: Depth=1
                                        #     Child Loop BB19_6 Depth 2
	movq	-16(%rbp), %rax
	cmpq	-72(%rbp), %rax
	jae	.LBB19_25
# %bb.2:                                # %while.body
                                        #   in Loop: Header=BB19_1 Depth=1
	movq	-16(%rbp), %rax
	movsbl	(%rax), %eax
	addl	$-9, %eax
	movl	%eax, %ecx
	subl	$35, %ecx
	ja	.LBB19_21
# %bb.3:                                # %while.body
                                        #   in Loop: Header=BB19_1 Depth=1
	movq	.LJTI19_0(,%rax,8), %rax
	jmpq	*%rax
.LBB19_4:                               # %sw.bb
                                        #   in Loop: Header=BB19_1 Depth=1
	movq	-16(%rbp), %rax
	addq	$1, %rax
	movq	%rax, -16(%rbp)
	jmp	.LBB19_24
.LBB19_5:                               # %sw.bb1
                                        #   in Loop: Header=BB19_1 Depth=1
	movq	-16(%rbp), %rax
	movb	$0, (%rax)
.LBB19_6:                               # %while.cond2
                                        #   Parent Loop BB19_1 Depth=1
                                        # =>  This Inner Loop Header: Depth=2
	xorl	%eax, %eax
	movq	-16(%rbp), %rcx
	movsbl	(%rcx), %ecx
	cmpl	$10, %ecx
	je	.LBB19_8
# %bb.7:                                # %land.rhs
                                        #   in Loop: Header=BB19_6 Depth=2
	movq	-16(%rbp), %rax
	cmpq	-72(%rbp), %rax
	setb	%al
.LBB19_8:                               # %land.end
                                        #   in Loop: Header=BB19_6 Depth=2
	testb	$1, %al
	jne	.LBB19_9
	jmp	.LBB19_10
.LBB19_9:                               # %while.body8
                                        #   in Loop: Header=BB19_6 Depth=2
	movq	-16(%rbp), %rax
	addq	$1, %rax
	movq	%rax, -16(%rbp)
	jmp	.LBB19_6
.LBB19_10:                              # %while.end
                                        #   in Loop: Header=BB19_1 Depth=1
	movl	$0, -36(%rbp)
	movl	$0, -20(%rbp)
	jmp	.LBB19_24
.LBB19_11:                              # %sw.bb10
                                        #   in Loop: Header=BB19_1 Depth=1
	movl	$0, -20(%rbp)
	movl	$0, -36(%rbp)
	movq	-16(%rbp), %rax
	movq	%rax, %rcx
	addq	$1, %rcx
	movq	%rcx, -16(%rbp)
	movb	$0, (%rax)
	jmp	.LBB19_24
.LBB19_12:                              # %sw.bb12
                                        #   in Loop: Header=BB19_1 Depth=1
	cmpl	$0, -36(%rbp)
	je	.LBB19_14
# %bb.13:                               # %if.then
                                        #   in Loop: Header=BB19_1 Depth=1
	movq	-16(%rbp), %rax
	addq	$1, %rax
	movq	%rax, -16(%rbp)
	jmp	.LBB19_15
.LBB19_14:                              # %if.else
                                        #   in Loop: Header=BB19_1 Depth=1
	movq	-16(%rbp), %rax
	movq	%rax, %rcx
	addq	$1, %rcx
	movq	%rcx, -16(%rbp)
	movb	$0, (%rax)
	movl	$0, -20(%rbp)
.LBB19_15:                              # %if.end
                                        #   in Loop: Header=BB19_1 Depth=1
	jmp	.LBB19_24
.LBB19_16:                              # %sw.bb15
                                        #   in Loop: Header=BB19_1 Depth=1
	movq	-16(%rbp), %rax
	movq	%rax, %rcx
	addq	$1, %rcx
	movq	%rcx, -16(%rbp)
	movb	$0, (%rax)
	cmpl	$0, -36(%rbp)
	jne	.LBB19_18
# %bb.17:                               # %if.then18
                                        #   in Loop: Header=BB19_1 Depth=1
	movq	-16(%rbp), %rax
	movl	-32(%rbp), %ecx
	movl	%ecx, %edx
	addl	$1, %edx
	movl	%edx, -32(%rbp)
	movslq	%ecx, %rcx
	movq	%rax, -8096(%rbp,%rcx,8)
	movl	-20(%rbp), %eax
	xorl	$-1, %eax
	movl	%eax, -20(%rbp)
	jmp	.LBB19_19
.LBB19_18:                              # %if.else21
                                        #   in Loop: Header=BB19_1 Depth=1
	movl	$0, -20(%rbp)
.LBB19_19:                              # %if.end22
                                        #   in Loop: Header=BB19_1 Depth=1
	movl	-36(%rbp), %eax
	xorl	$-1, %eax
	movl	%eax, -36(%rbp)
	jmp	.LBB19_24
.LBB19_20:                              # %sw.bb24
                                        #   in Loop: Header=BB19_1 Depth=1
	movq	-16(%rbp), %rax
	addq	$1, %rax
	movq	%rax, -16(%rbp)
	movl	$0, -20(%rbp)
	jmp	.LBB19_24
.LBB19_21:                              # %sw.default
                                        #   in Loop: Header=BB19_1 Depth=1
	cmpl	$0, -20(%rbp)
	jne	.LBB19_23
# %bb.22:                               # %if.then27
                                        #   in Loop: Header=BB19_1 Depth=1
	movq	-16(%rbp), %rax
	movl	-32(%rbp), %ecx
	movl	%ecx, %edx
	addl	$1, %edx
	movl	%edx, -32(%rbp)
	movslq	%ecx, %rcx
	movq	%rax, -8096(%rbp,%rcx,8)
	movl	-20(%rbp), %eax
	xorl	$-1, %eax
	movl	%eax, -20(%rbp)
.LBB19_23:                              # %if.end32
                                        #   in Loop: Header=BB19_1 Depth=1
	movq	-16(%rbp), %rax
	addq	$1, %rax
	movq	%rax, -16(%rbp)
.LBB19_24:                              # %sw.epilog
                                        #   in Loop: Header=BB19_1 Depth=1
	jmp	.LBB19_1
.LBB19_25:                              # %while.end34
	movl	-32(%rbp), %eax
	addl	$-1, %eax
	movl	%eax, -32(%rbp)
	movl	$0, -24(%rbp)
.LBB19_26:                              # %for.cond
                                        # =>This Loop Header: Depth=1
                                        #     Child Loop BB19_35 Depth 2
	movl	-24(%rbp), %eax
	cmpl	-32(%rbp), %eax
	jge	.LBB19_42
# %bb.27:                               # %for.body
                                        #   in Loop: Header=BB19_26 Depth=1
	movl	$0, -4(%rbp)
	movl	-24(%rbp), %eax
	addl	-4(%rbp), %eax
	cltq
	movq	-8096(%rbp,%rax,8), %rdi
	leaq	-52(%rbp), %rsi
	callq	CheckOffsetParameterName
	xorl	%ecx, %ecx
	movl	%eax, -40(%rbp)
	cmpl	%eax, %ecx
	jle	.LBB19_29
# %bb.28:                               # %if.then41
                                        #   in Loop: Header=BB19_26 Depth=1
	movl	-24(%rbp), %eax
	addl	-4(%rbp), %eax
	cltq
	movq	-8096(%rbp,%rax,8), %rcx
	movabsq	$errortext, %rdi
	movl	$300, %esi              # imm = 0x12C
	movabsq	$.L.str, %rdx
	movb	$0, %al
	callq	snprintf
	movabsq	$errortext, %rdi
	movl	$300, %esi              # imm = 0x12C
	callq	error
.LBB19_29:                              # %if.end46
                                        #   in Loop: Header=BB19_26 Depth=1
	movl	-4(%rbp), %eax
	addl	$1, %eax
	movl	%eax, -4(%rbp)
	movl	-24(%rbp), %eax
	addl	-4(%rbp), %eax
	cltq
	movq	-8096(%rbp,%rax,8), %rsi
	movl	$.L.str.1, %edi
	callq	strcmp
	cmpl	$0, %eax
	je	.LBB19_31
# %bb.30:                               # %if.then53
                                        #   in Loop: Header=BB19_26 Depth=1
	movabsq	$errortext, %rdi
	movl	$300, %esi              # imm = 0x12C
	movabsq	$.L.str.2, %rdx
	movb	$0, %al
	callq	snprintf
	movabsq	$errortext, %rdi
	movl	$300, %esi              # imm = 0x12C
	callq	error
.LBB19_31:                              # %if.end55
                                        #   in Loop: Header=BB19_26 Depth=1
	movl	-4(%rbp), %eax
	addl	$1, %eax
	movl	%eax, -4(%rbp)
	cmpl	$0, -52(%rbp)
	jne	.LBB19_33
# %bb.32:                               # %if.then58
                                        #   in Loop: Header=BB19_26 Depth=1
	movl	$16, -44(%rbp)
	movslq	-40(%rbp), %rax
	shlq	$5, %rax
	movabsq	$OffsetList4x4input, %rcx
	addq	%rax, %rcx
	movq	%rcx, -88(%rbp)
	movslq	-40(%rbp), %rax
	movl	$1, offset4x4_check(,%rax,4)
	jmp	.LBB19_34
.LBB19_33:                              # %if.else63
                                        #   in Loop: Header=BB19_26 Depth=1
	movl	$64, -44(%rbp)
	movslq	-40(%rbp), %rax
	shlq	$7, %rax
	movabsq	$OffsetList8x8input, %rcx
	addq	%rax, %rcx
	movq	%rcx, -88(%rbp)
	movslq	-40(%rbp), %rax
	movl	$1, offset8x8_check(,%rax,4)
.LBB19_34:                              # %if.end69
                                        #   in Loop: Header=BB19_26 Depth=1
	movl	$0, -28(%rbp)
.LBB19_35:                              # %for.cond70
                                        #   Parent Loop BB19_26 Depth=1
                                        # =>  This Inner Loop Header: Depth=2
	movl	-28(%rbp), %eax
	cmpl	-44(%rbp), %eax
	jge	.LBB19_40
# %bb.36:                               # %for.body73
                                        #   in Loop: Header=BB19_35 Depth=2
	movl	-24(%rbp), %eax
	addl	-4(%rbp), %eax
	addl	-28(%rbp), %eax
	cltq
	movq	-8096(%rbp,%rax,8), %rdi
	movabsq	$.L.str.3, %rsi
	leaq	-56(%rbp), %rdx
	movb	$0, %al
	callq	__isoc99_sscanf
	movl	$1, %ecx
	cmpl	%eax, %ecx
	je	.LBB19_38
# %bb.37:                               # %if.then81
                                        #   in Loop: Header=BB19_35 Depth=2
	movslq	-24(%rbp), %rax
	movq	-8096(%rbp,%rax,8), %rcx
	movl	-24(%rbp), %eax
	addl	-4(%rbp), %eax
	addl	-28(%rbp), %eax
	cltq
	movq	-8096(%rbp,%rax,8), %r8
	movabsq	$errortext, %rdi
	movl	$300, %esi              # imm = 0x12C
	movabsq	$.L.str.4, %rdx
	movb	$0, %al
	callq	snprintf
	movabsq	$errortext, %rdi
	movl	$300, %esi              # imm = 0x12C
	callq	error
.LBB19_38:                              # %if.end89
                                        #   in Loop: Header=BB19_35 Depth=2
	movl	-56(%rbp), %eax
	movq	-88(%rbp), %rcx
	movslq	-28(%rbp), %rdx
	movw	%ax, (%rcx,%rdx,2)
# %bb.39:                               # %for.inc
                                        #   in Loop: Header=BB19_35 Depth=2
	movl	-28(%rbp), %eax
	addl	$1, %eax
	movl	%eax, -28(%rbp)
	jmp	.LBB19_35
.LBB19_40:                              # %for.end
                                        #   in Loop: Header=BB19_26 Depth=1
	movl	-28(%rbp), %eax
	addl	-4(%rbp), %eax
	movl	%eax, -4(%rbp)
	movabsq	$.L.str.5, %rdi
	movb	$0, %al
	callq	printf
# %bb.41:                               # %for.inc96
                                        #   in Loop: Header=BB19_26 Depth=1
	movl	-4(%rbp), %eax
	addl	-24(%rbp), %eax
	movl	%eax, -24(%rbp)
	jmp	.LBB19_26
.LBB19_42:                              # %for.end98
	cmpl	$1446585940, -48(%rbp)  # imm = 0x56392654
	jne	.LBB19_44
.LBB19_43:
	addq	$8096, %rsp             # imm = 0x1FA0
	popq	%rbp
	.cfi_def_cfa %rsp, 8
	retq
.LBB19_44:                              # %func_exit
	.cfi_def_cfa %rbp, 16
	callq	detect_breach
	jmp	.LBB19_43
.Lfunc_end19:
	.size	ParseQOffsetMatrix.15, .Lfunc_end19-ParseQOffsetMatrix.15
	.cfi_endproc
	.section	.rodata,"a",@progbits
	.p2align	3
.LJTI19_0:
	.quad	.LBB19_12
	.quad	.LBB19_11
	.quad	.LBB19_21
	.quad	.LBB19_21
	.quad	.LBB19_4
	.quad	.LBB19_21
	.quad	.LBB19_21
	.quad	.LBB19_21
	.quad	.LBB19_21
	.quad	.LBB19_21
	.quad	.LBB19_21
	.quad	.LBB19_21
	.quad	.LBB19_21
	.quad	.LBB19_21
	.quad	.LBB19_21
	.quad	.LBB19_21
	.quad	.LBB19_21
	.quad	.LBB19_21
	.quad	.LBB19_21
	.quad	.LBB19_21
	.quad	.LBB19_21
	.quad	.LBB19_21
	.quad	.LBB19_21
	.quad	.LBB19_12
	.quad	.LBB19_21
	.quad	.LBB19_16
	.quad	.LBB19_5
	.quad	.LBB19_21
	.quad	.LBB19_21
	.quad	.LBB19_21
	.quad	.LBB19_21
	.quad	.LBB19_21
	.quad	.LBB19_21
	.quad	.LBB19_21
	.quad	.LBB19_21
	.quad	.LBB19_20
                                        # -- End function
	.text
	.globl	CalculateOffset8Param.16 # -- Begin function CalculateOffset8Param.16
	.p2align	4, 0x90
	.type	CalculateOffset8Param.16,@function
CalculateOffset8Param.16:               # @CalculateOffset8Param.16
	.cfi_startproc
# %bb.0:                                # %entry
	pushq	%rbp
	.cfi_def_cfa_offset 16
	.cfi_offset %rbp, -16
	movq	%rsp, %rbp
	.cfi_def_cfa_register %rbp
	subq	$32, %rsp
	movl	$1378598024, -24(%rbp)  # imm = 0x522BBC88
	movq	input, %rax
	cmpl	$0, 3584(%rax)
	je	.LBB20_17
# %bb.1:                                # %if.then
	movl	$0, -8(%rbp)
.LBB20_2:                               # %for.cond
                                        # =>This Loop Header: Depth=1
                                        #     Child Loop BB20_4 Depth 2
                                        #       Child Loop BB20_6 Depth 3
	cmpl	$13, -8(%rbp)
	jge	.LBB20_16
# %bb.3:                                # %for.body
                                        #   in Loop: Header=BB20_2 Depth=1
	movl	-8(%rbp), %eax
	addl	$16, %eax
	subl	$10, %eax
	movl	%eax, -16(%rbp)
	movl	$0, -12(%rbp)
.LBB20_4:                               # %for.cond1
                                        #   Parent Loop BB20_2 Depth=1
                                        # =>  This Loop Header: Depth=2
                                        #       Child Loop BB20_6 Depth 3
	cmpl	$8, -12(%rbp)
	jge	.LBB20_14
# %bb.5:                                # %for.body3
                                        #   in Loop: Header=BB20_4 Depth=2
	movl	$0, -4(%rbp)
.LBB20_6:                               # %for.cond4
                                        #   Parent Loop BB20_2 Depth=1
                                        #     Parent Loop BB20_4 Depth=2
                                        # =>    This Inner Loop Header: Depth=3
	cmpl	$8, -4(%rbp)
	jge	.LBB20_12
# %bb.7:                                # %for.body6
                                        #   in Loop: Header=BB20_6 Depth=3
	movl	-4(%rbp), %eax
	shll	$3, %eax
	addl	-12(%rbp), %eax
	movl	%eax, -20(%rbp)
	movq	img, %rax
	cmpl	$2, 24(%rax)
	jne	.LBB20_9
# %bb.8:                                # %if.then9
                                        #   in Loop: Header=BB20_6 Depth=3
	movslq	-20(%rbp), %rax
	movswl	OffsetList8x8input(,%rax,2), %eax
	movl	-16(%rbp), %ecx
                                        # kill: def $cl killed $ecx
	shll	%cl, %eax
	movslq	-8(%rbp), %rcx
	shlq	$8, %rcx
	movabsq	$LevelOffset8x8Luma_Intra, %rdx
	addq	%rcx, %rdx
	movslq	-12(%rbp), %rcx
	shlq	$5, %rcx
	addq	%rcx, %rdx
	movslq	-4(%rbp), %rcx
	movl	%eax, (%rdx,%rcx,4)
	jmp	.LBB20_10
.LBB20_9:                               # %if.else
                                        #   in Loop: Header=BB20_6 Depth=3
	movslq	-20(%rbp), %rax
	movswl	OffsetList8x8input+128(,%rax,2), %eax
	movl	-16(%rbp), %ecx
                                        # kill: def $cl killed $ecx
	shll	%cl, %eax
	movslq	-8(%rbp), %rcx
	shlq	$8, %rcx
	movabsq	$LevelOffset8x8Luma_Intra, %rdx
	addq	%rcx, %rdx
	movslq	-12(%rbp), %rcx
	shlq	$5, %rcx
	addq	%rcx, %rdx
	movslq	-4(%rbp), %rcx
	movl	%eax, (%rdx,%rcx,4)
.LBB20_10:                              # %if.end
                                        #   in Loop: Header=BB20_6 Depth=3
	movslq	-20(%rbp), %rax
	movswl	OffsetList8x8input+256(,%rax,2), %eax
	movl	-16(%rbp), %ecx
                                        # kill: def $cl killed $ecx
	shll	%cl, %eax
	movslq	-8(%rbp), %rcx
	shlq	$8, %rcx
	movabsq	$LevelOffset8x8Luma_Inter, %rdx
	addq	%rcx, %rdx
	movslq	-12(%rbp), %rcx
	shlq	$5, %rcx
	addq	%rcx, %rdx
	movslq	-4(%rbp), %rcx
	movl	%eax, (%rdx,%rcx,4)
# %bb.11:                               # %for.inc
                                        #   in Loop: Header=BB20_6 Depth=3
	movl	-4(%rbp), %eax
	addl	$1, %eax
	movl	%eax, -4(%rbp)
	jmp	.LBB20_6
.LBB20_12:                              # %for.end
                                        #   in Loop: Header=BB20_4 Depth=2
	jmp	.LBB20_13
.LBB20_13:                              # %for.inc37
                                        #   in Loop: Header=BB20_4 Depth=2
	movl	-12(%rbp), %eax
	addl	$1, %eax
	movl	%eax, -12(%rbp)
	jmp	.LBB20_4
.LBB20_14:                              # %for.end39
                                        #   in Loop: Header=BB20_2 Depth=1
	jmp	.LBB20_15
.LBB20_15:                              # %for.inc40
                                        #   in Loop: Header=BB20_2 Depth=1
	movl	-8(%rbp), %eax
	addl	$1, %eax
	movl	%eax, -8(%rbp)
	jmp	.LBB20_2
.LBB20_16:                              # %for.end42
	jmp	.LBB20_33
.LBB20_17:                              # %if.else43
	movl	$0, -8(%rbp)
.LBB20_18:                              # %for.cond44
                                        # =>This Loop Header: Depth=1
                                        #     Child Loop BB20_20 Depth 2
                                        #       Child Loop BB20_22 Depth 3
	cmpl	$13, -8(%rbp)
	jge	.LBB20_32
# %bb.19:                               # %for.body47
                                        #   in Loop: Header=BB20_18 Depth=1
	movl	-8(%rbp), %eax
	addl	$16, %eax
	subl	$10, %eax
	movl	%eax, -16(%rbp)
	movl	$0, -12(%rbp)
.LBB20_20:                              # %for.cond50
                                        #   Parent Loop BB20_18 Depth=1
                                        # =>  This Loop Header: Depth=2
                                        #       Child Loop BB20_22 Depth 3
	cmpl	$8, -12(%rbp)
	jge	.LBB20_30
# %bb.21:                               # %for.body53
                                        #   in Loop: Header=BB20_20 Depth=2
	movl	$0, -4(%rbp)
.LBB20_22:                              # %for.cond54
                                        #   Parent Loop BB20_18 Depth=1
                                        #     Parent Loop BB20_20 Depth=2
                                        # =>    This Inner Loop Header: Depth=3
	cmpl	$8, -4(%rbp)
	jge	.LBB20_28
# %bb.23:                               # %for.body57
                                        #   in Loop: Header=BB20_22 Depth=3
	movl	-4(%rbp), %eax
	shll	$3, %eax
	addl	-12(%rbp), %eax
	movl	%eax, -20(%rbp)
	movq	img, %rax
	cmpl	$2, 24(%rax)
	jne	.LBB20_25
# %bb.24:                               # %if.then63
                                        #   in Loop: Header=BB20_22 Depth=3
	movslq	-20(%rbp), %rax
	movswl	Offset8_intra_default_intra(,%rax,2), %eax
	movl	-16(%rbp), %ecx
                                        # kill: def $cl killed $ecx
	shll	%cl, %eax
	movslq	-8(%rbp), %rcx
	shlq	$8, %rcx
	movabsq	$LevelOffset8x8Luma_Intra, %rdx
	addq	%rcx, %rdx
	movslq	-12(%rbp), %rcx
	shlq	$5, %rcx
	addq	%rcx, %rdx
	movslq	-4(%rbp), %rcx
	movl	%eax, (%rdx,%rcx,4)
	jmp	.LBB20_26
.LBB20_25:                              # %if.else74
                                        #   in Loop: Header=BB20_22 Depth=3
	movslq	-20(%rbp), %rax
	movswl	Offset8_intra_default_inter(,%rax,2), %eax
	movl	-16(%rbp), %ecx
                                        # kill: def $cl killed $ecx
	shll	%cl, %eax
	movslq	-8(%rbp), %rcx
	shlq	$8, %rcx
	movabsq	$LevelOffset8x8Luma_Intra, %rdx
	addq	%rcx, %rdx
	movslq	-12(%rbp), %rcx
	shlq	$5, %rcx
	addq	%rcx, %rdx
	movslq	-4(%rbp), %rcx
	movl	%eax, (%rdx,%rcx,4)
.LBB20_26:                              # %if.end85
                                        #   in Loop: Header=BB20_22 Depth=3
	movslq	-20(%rbp), %rax
	movswl	Offset8_inter_default(,%rax,2), %eax
	movl	-16(%rbp), %ecx
                                        # kill: def $cl killed $ecx
	shll	%cl, %eax
	movslq	-8(%rbp), %rcx
	shlq	$8, %rcx
	movabsq	$LevelOffset8x8Luma_Inter, %rdx
	addq	%rcx, %rdx
	movslq	-12(%rbp), %rcx
	shlq	$5, %rcx
	addq	%rcx, %rdx
	movslq	-4(%rbp), %rcx
	movl	%eax, (%rdx,%rcx,4)
# %bb.27:                               # %for.inc96
                                        #   in Loop: Header=BB20_22 Depth=3
	movl	-4(%rbp), %eax
	addl	$1, %eax
	movl	%eax, -4(%rbp)
	jmp	.LBB20_22
.LBB20_28:                              # %for.end98
                                        #   in Loop: Header=BB20_20 Depth=2
	jmp	.LBB20_29
.LBB20_29:                              # %for.inc99
                                        #   in Loop: Header=BB20_20 Depth=2
	movl	-12(%rbp), %eax
	addl	$1, %eax
	movl	%eax, -12(%rbp)
	jmp	.LBB20_20
.LBB20_30:                              # %for.end101
                                        #   in Loop: Header=BB20_18 Depth=1
	jmp	.LBB20_31
.LBB20_31:                              # %for.inc102
                                        #   in Loop: Header=BB20_18 Depth=1
	movl	-8(%rbp), %eax
	addl	$1, %eax
	movl	%eax, -8(%rbp)
	jmp	.LBB20_18
.LBB20_32:                              # %for.end104
	jmp	.LBB20_33
.LBB20_33:                              # %if.end105
	cmpl	$1378598024, -24(%rbp)  # imm = 0x522BBC88
	jne	.LBB20_35
.LBB20_34:
	addq	$32, %rsp
	popq	%rbp
	.cfi_def_cfa %rsp, 8
	retq
.LBB20_35:                              # %func_exit
	.cfi_def_cfa %rbp, 16
	callq	detect_breach
	jmp	.LBB20_34
.Lfunc_end20:
	.size	CalculateOffset8Param.16, .Lfunc_end20-CalculateOffset8Param.16
	.cfi_endproc
                                        # -- End function
	.globl	CalculateOffsetParam.17 # -- Begin function CalculateOffsetParam.17
	.p2align	4, 0x90
	.type	CalculateOffsetParam.17,@function
CalculateOffsetParam.17:                # @CalculateOffsetParam.17
	.cfi_startproc
# %bb.0:                                # %entry
	pushq	%rbp
	.cfi_def_cfa_offset 16
	.cfi_offset %rbp, -16
	movq	%rsp, %rbp
	.cfi_def_cfa_register %rbp
	subq	$32, %rsp
	movl	$575719227, -24(%rbp)   # imm = 0x2250C73B
	movq	input, %rax
	cmpl	$0, 3584(%rax)
	je	.LBB21_17
# %bb.1:                                # %if.then
	movl	$0, -8(%rbp)
.LBB21_2:                               # %for.cond
                                        # =>This Loop Header: Depth=1
                                        #     Child Loop BB21_4 Depth 2
                                        #       Child Loop BB21_6 Depth 3
	cmpl	$13, -8(%rbp)
	jge	.LBB21_16
# %bb.3:                                # %for.body
                                        #   in Loop: Header=BB21_2 Depth=1
	movl	-8(%rbp), %eax
	addl	$15, %eax
	subl	$10, %eax
	movl	%eax, -16(%rbp)
	movl	$0, -4(%rbp)
.LBB21_4:                               # %for.cond1
                                        #   Parent Loop BB21_2 Depth=1
                                        # =>  This Loop Header: Depth=2
                                        #       Child Loop BB21_6 Depth 3
	cmpl	$4, -4(%rbp)
	jge	.LBB21_14
# %bb.5:                                # %for.body3
                                        #   in Loop: Header=BB21_4 Depth=2
	movl	$0, -12(%rbp)
.LBB21_6:                               # %for.cond4
                                        #   Parent Loop BB21_2 Depth=1
                                        #     Parent Loop BB21_4 Depth=2
                                        # =>    This Inner Loop Header: Depth=3
	cmpl	$4, -12(%rbp)
	jge	.LBB21_12
# %bb.7:                                # %for.body6
                                        #   in Loop: Header=BB21_6 Depth=3
	movl	-12(%rbp), %eax
	shll	$2, %eax
	addl	-4(%rbp), %eax
	movl	%eax, -20(%rbp)
	movq	img, %rax
	cmpl	$2, 24(%rax)
	jne	.LBB21_9
# %bb.8:                                # %if.then9
                                        #   in Loop: Header=BB21_6 Depth=3
	movabsq	$LevelOffset4x4Chroma_Intra, %rdx
	movq	%rdx, %rax
	addq	$832, %rax              # imm = 0x340
	movslq	-20(%rbp), %rcx
	movswl	OffsetList4x4input(,%rcx,2), %esi
	movl	-16(%rbp), %ecx
                                        # kill: def $cl killed $ecx
	shll	%cl, %esi
	movslq	-8(%rbp), %rcx
	shlq	$6, %rcx
	movabsq	$LevelOffset4x4Luma_Intra, %rdi
	addq	%rcx, %rdi
	movslq	-4(%rbp), %rcx
	shlq	$4, %rcx
	addq	%rcx, %rdi
	movslq	-12(%rbp), %rcx
	movl	%esi, (%rdi,%rcx,4)
	movslq	-20(%rbp), %rcx
	movswl	OffsetList4x4input+32(,%rcx,2), %esi
	movl	-16(%rbp), %ecx
                                        # kill: def $cl killed $ecx
	shll	%cl, %esi
	movslq	-8(%rbp), %rcx
	shlq	$6, %rcx
	addq	%rcx, %rdx
	movslq	-4(%rbp), %rcx
	shlq	$4, %rcx
	addq	%rcx, %rdx
	movslq	-12(%rbp), %rcx
	movl	%esi, (%rdx,%rcx,4)
	movslq	-20(%rbp), %rcx
	movswl	OffsetList4x4input+64(,%rcx,2), %edx
	movl	-16(%rbp), %ecx
                                        # kill: def $cl killed $ecx
	shll	%cl, %edx
	movslq	-8(%rbp), %rcx
	shlq	$6, %rcx
	addq	%rcx, %rax
	movslq	-4(%rbp), %rcx
	shlq	$4, %rcx
	addq	%rcx, %rax
	movslq	-12(%rbp), %rcx
	movl	%edx, (%rax,%rcx,4)
	jmp	.LBB21_10
.LBB21_9:                               # %if.else
                                        #   in Loop: Header=BB21_6 Depth=3
	movabsq	$LevelOffset4x4Chroma_Intra, %rdx
	movq	%rdx, %rax
	addq	$832, %rax              # imm = 0x340
	movslq	-20(%rbp), %rcx
	movswl	OffsetList4x4input+96(,%rcx,2), %esi
	movl	-16(%rbp), %ecx
                                        # kill: def $cl killed $ecx
	shll	%cl, %esi
	movslq	-8(%rbp), %rcx
	shlq	$6, %rcx
	movabsq	$LevelOffset4x4Luma_Intra, %rdi
	addq	%rcx, %rdi
	movslq	-4(%rbp), %rcx
	shlq	$4, %rcx
	addq	%rcx, %rdi
	movslq	-12(%rbp), %rcx
	movl	%esi, (%rdi,%rcx,4)
	movslq	-20(%rbp), %rcx
	movswl	OffsetList4x4input+128(,%rcx,2), %esi
	movl	-16(%rbp), %ecx
                                        # kill: def $cl killed $ecx
	shll	%cl, %esi
	movslq	-8(%rbp), %rcx
	shlq	$6, %rcx
	addq	%rcx, %rdx
	movslq	-4(%rbp), %rcx
	shlq	$4, %rcx
	addq	%rcx, %rdx
	movslq	-12(%rbp), %rcx
	movl	%esi, (%rdx,%rcx,4)
	movslq	-20(%rbp), %rcx
	movswl	OffsetList4x4input+160(,%rcx,2), %edx
	movl	-16(%rbp), %ecx
                                        # kill: def $cl killed $ecx
	shll	%cl, %edx
	movslq	-8(%rbp), %rcx
	shlq	$6, %rcx
	addq	%rcx, %rax
	movslq	-4(%rbp), %rcx
	shlq	$4, %rcx
	addq	%rcx, %rax
	movslq	-12(%rbp), %rcx
	movl	%edx, (%rax,%rcx,4)
.LBB21_10:                              # %if.end
                                        #   in Loop: Header=BB21_6 Depth=3
	movabsq	$LevelOffset4x4Chroma_Inter, %rdx
	movq	%rdx, %rax
	addq	$832, %rax              # imm = 0x340
	movslq	-20(%rbp), %rcx
	movswl	OffsetList4x4input+192(,%rcx,2), %esi
	movl	-16(%rbp), %ecx
                                        # kill: def $cl killed $ecx
	shll	%cl, %esi
	movslq	-8(%rbp), %rcx
	shlq	$6, %rcx
	movabsq	$LevelOffset4x4Luma_Inter, %rdi
	addq	%rcx, %rdi
	movslq	-4(%rbp), %rcx
	shlq	$4, %rcx
	addq	%rcx, %rdi
	movslq	-12(%rbp), %rcx
	movl	%esi, (%rdi,%rcx,4)
	movslq	-20(%rbp), %rcx
	movswl	OffsetList4x4input+224(,%rcx,2), %esi
	movl	-16(%rbp), %ecx
                                        # kill: def $cl killed $ecx
	shll	%cl, %esi
	movslq	-8(%rbp), %rcx
	shlq	$6, %rcx
	addq	%rcx, %rdx
	movslq	-4(%rbp), %rcx
	shlq	$4, %rcx
	addq	%rcx, %rdx
	movslq	-12(%rbp), %rcx
	movl	%esi, (%rdx,%rcx,4)
	movslq	-20(%rbp), %rcx
	movswl	OffsetList4x4input+256(,%rcx,2), %edx
	movl	-16(%rbp), %ecx
                                        # kill: def $cl killed $ecx
	shll	%cl, %edx
	movslq	-8(%rbp), %rcx
	shlq	$6, %rcx
	addq	%rcx, %rax
	movslq	-4(%rbp), %rcx
	shlq	$4, %rcx
	addq	%rcx, %rax
	movslq	-12(%rbp), %rcx
	movl	%edx, (%rax,%rcx,4)
# %bb.11:                               # %for.inc
                                        #   in Loop: Header=BB21_6 Depth=3
	movl	-12(%rbp), %eax
	addl	$1, %eax
	movl	%eax, -12(%rbp)
	jmp	.LBB21_6
.LBB21_12:                              # %for.end
                                        #   in Loop: Header=BB21_4 Depth=2
	jmp	.LBB21_13
.LBB21_13:                              # %for.inc97
                                        #   in Loop: Header=BB21_4 Depth=2
	movl	-4(%rbp), %eax
	addl	$1, %eax
	movl	%eax, -4(%rbp)
	jmp	.LBB21_4
.LBB21_14:                              # %for.end99
                                        #   in Loop: Header=BB21_2 Depth=1
	jmp	.LBB21_15
.LBB21_15:                              # %for.inc100
                                        #   in Loop: Header=BB21_2 Depth=1
	movl	-8(%rbp), %eax
	addl	$1, %eax
	movl	%eax, -8(%rbp)
	jmp	.LBB21_2
.LBB21_16:                              # %for.end102
	jmp	.LBB21_33
.LBB21_17:                              # %if.else103
	movl	$0, -8(%rbp)
.LBB21_18:                              # %for.cond104
                                        # =>This Loop Header: Depth=1
                                        #     Child Loop BB21_20 Depth 2
                                        #       Child Loop BB21_22 Depth 3
	cmpl	$13, -8(%rbp)
	jge	.LBB21_32
# %bb.19:                               # %for.body107
                                        #   in Loop: Header=BB21_18 Depth=1
	movl	-8(%rbp), %eax
	addl	$15, %eax
	subl	$10, %eax
	movl	%eax, -16(%rbp)
	movl	$0, -4(%rbp)
.LBB21_20:                              # %for.cond110
                                        #   Parent Loop BB21_18 Depth=1
                                        # =>  This Loop Header: Depth=2
                                        #       Child Loop BB21_22 Depth 3
	cmpl	$4, -4(%rbp)
	jge	.LBB21_30
# %bb.21:                               # %for.body113
                                        #   in Loop: Header=BB21_20 Depth=2
	movl	$0, -12(%rbp)
.LBB21_22:                              # %for.cond114
                                        #   Parent Loop BB21_18 Depth=1
                                        #     Parent Loop BB21_20 Depth=2
                                        # =>    This Inner Loop Header: Depth=3
	cmpl	$4, -12(%rbp)
	jge	.LBB21_28
# %bb.23:                               # %for.body117
                                        #   in Loop: Header=BB21_22 Depth=3
	movl	-12(%rbp), %eax
	shll	$2, %eax
	addl	-4(%rbp), %eax
	movl	%eax, -20(%rbp)
	movq	img, %rax
	cmpl	$2, 24(%rax)
	jne	.LBB21_25
# %bb.24:                               # %if.then123
                                        #   in Loop: Header=BB21_22 Depth=3
	movabsq	$LevelOffset4x4Chroma_Intra, %rdx
	movq	%rdx, %rax
	addq	$832, %rax              # imm = 0x340
	movslq	-20(%rbp), %rcx
	movswl	Offset_intra_default_intra(,%rcx,2), %esi
	movl	-16(%rbp), %ecx
                                        # kill: def $cl killed $ecx
	shll	%cl, %esi
	movslq	-8(%rbp), %rcx
	shlq	$6, %rcx
	movabsq	$LevelOffset4x4Luma_Intra, %rdi
	addq	%rcx, %rdi
	movslq	-4(%rbp), %rcx
	shlq	$4, %rcx
	addq	%rcx, %rdi
	movslq	-12(%rbp), %rcx
	movl	%esi, (%rdi,%rcx,4)
	movslq	-20(%rbp), %rcx
	movswl	Offset_intra_default_intra(,%rcx,2), %esi
	movl	-16(%rbp), %ecx
                                        # kill: def $cl killed $ecx
	shll	%cl, %esi
	movslq	-8(%rbp), %rcx
	shlq	$6, %rcx
	addq	%rcx, %rdx
	movslq	-4(%rbp), %rcx
	shlq	$4, %rcx
	addq	%rcx, %rdx
	movslq	-12(%rbp), %rcx
	movl	%esi, (%rdx,%rcx,4)
	movslq	-20(%rbp), %rcx
	movswl	Offset_intra_default_intra(,%rcx,2), %edx
	movl	-16(%rbp), %ecx
                                        # kill: def $cl killed $ecx
	shll	%cl, %edx
	movslq	-8(%rbp), %rcx
	shlq	$6, %rcx
	addq	%rcx, %rax
	movslq	-4(%rbp), %rcx
	shlq	$4, %rcx
	addq	%rcx, %rax
	movslq	-12(%rbp), %rcx
	movl	%edx, (%rax,%rcx,4)
	jmp	.LBB21_26
.LBB21_25:                              # %if.else154
                                        #   in Loop: Header=BB21_22 Depth=3
	movabsq	$LevelOffset4x4Chroma_Intra, %rdx
	movq	%rdx, %rax
	addq	$832, %rax              # imm = 0x340
	movslq	-20(%rbp), %rcx
	movswl	Offset_intra_default_inter(,%rcx,2), %esi
	movl	-16(%rbp), %ecx
                                        # kill: def $cl killed $ecx
	shll	%cl, %esi
	movslq	-8(%rbp), %rcx
	shlq	$6, %rcx
	movabsq	$LevelOffset4x4Luma_Intra, %rdi
	addq	%rcx, %rdi
	movslq	-4(%rbp), %rcx
	shlq	$4, %rcx
	addq	%rcx, %rdi
	movslq	-12(%rbp), %rcx
	movl	%esi, (%rdi,%rcx,4)
	movslq	-20(%rbp), %rcx
	movswl	Offset_intra_default_inter(,%rcx,2), %esi
	movl	-16(%rbp), %ecx
                                        # kill: def $cl killed $ecx
	shll	%cl, %esi
	movslq	-8(%rbp), %rcx
	shlq	$6, %rcx
	addq	%rcx, %rdx
	movslq	-4(%rbp), %rcx
	shlq	$4, %rcx
	addq	%rcx, %rdx
	movslq	-12(%rbp), %rcx
	movl	%esi, (%rdx,%rcx,4)
	movslq	-20(%rbp), %rcx
	movswl	Offset_intra_default_inter(,%rcx,2), %edx
	movl	-16(%rbp), %ecx
                                        # kill: def $cl killed $ecx
	shll	%cl, %edx
	movslq	-8(%rbp), %rcx
	shlq	$6, %rcx
	addq	%rcx, %rax
	movslq	-4(%rbp), %rcx
	shlq	$4, %rcx
	addq	%rcx, %rax
	movslq	-12(%rbp), %rcx
	movl	%edx, (%rax,%rcx,4)
.LBB21_26:                              # %if.end185
                                        #   in Loop: Header=BB21_22 Depth=3
	movabsq	$LevelOffset4x4Chroma_Inter, %rdx
	movq	%rdx, %rax
	addq	$832, %rax              # imm = 0x340
	movslq	-20(%rbp), %rcx
	movswl	Offset_inter_default(,%rcx,2), %esi
	movl	-16(%rbp), %ecx
                                        # kill: def $cl killed $ecx
	shll	%cl, %esi
	movslq	-8(%rbp), %rcx
	shlq	$6, %rcx
	movabsq	$LevelOffset4x4Luma_Inter, %rdi
	addq	%rcx, %rdi
	movslq	-4(%rbp), %rcx
	shlq	$4, %rcx
	addq	%rcx, %rdi
	movslq	-12(%rbp), %rcx
	movl	%esi, (%rdi,%rcx,4)
	movslq	-20(%rbp), %rcx
	movswl	Offset_inter_default(,%rcx,2), %esi
	movl	-16(%rbp), %ecx
                                        # kill: def $cl killed $ecx
	shll	%cl, %esi
	movslq	-8(%rbp), %rcx
	shlq	$6, %rcx
	addq	%rcx, %rdx
	movslq	-4(%rbp), %rcx
	shlq	$4, %rcx
	addq	%rcx, %rdx
	movslq	-12(%rbp), %rcx
	movl	%esi, (%rdx,%rcx,4)
	movslq	-20(%rbp), %rcx
	movswl	Offset_inter_default(,%rcx,2), %edx
	movl	-16(%rbp), %ecx
                                        # kill: def $cl killed $ecx
	shll	%cl, %edx
	movslq	-8(%rbp), %rcx
	shlq	$6, %rcx
	addq	%rcx, %rax
	movslq	-4(%rbp), %rcx
	shlq	$4, %rcx
	addq	%rcx, %rax
	movslq	-12(%rbp), %rcx
	movl	%edx, (%rax,%rcx,4)
# %bb.27:                               # %for.inc216
                                        #   in Loop: Header=BB21_22 Depth=3
	movl	-12(%rbp), %eax
	addl	$1, %eax
	movl	%eax, -12(%rbp)
	jmp	.LBB21_22
.LBB21_28:                              # %for.end218
                                        #   in Loop: Header=BB21_20 Depth=2
	jmp	.LBB21_29
.LBB21_29:                              # %for.inc219
                                        #   in Loop: Header=BB21_20 Depth=2
	movl	-4(%rbp), %eax
	addl	$1, %eax
	movl	%eax, -4(%rbp)
	jmp	.LBB21_20
.LBB21_30:                              # %for.end221
                                        #   in Loop: Header=BB21_18 Depth=1
	jmp	.LBB21_31
.LBB21_31:                              # %for.inc222
                                        #   in Loop: Header=BB21_18 Depth=1
	movl	-8(%rbp), %eax
	addl	$1, %eax
	movl	%eax, -8(%rbp)
	jmp	.LBB21_18
.LBB21_32:                              # %for.end224
	jmp	.LBB21_33
.LBB21_33:                              # %if.end225
	cmpl	$575719227, -24(%rbp)   # imm = 0x2250C73B
	jne	.LBB21_35
.LBB21_34:
	addq	$32, %rsp
	popq	%rbp
	.cfi_def_cfa %rsp, 8
	retq
.LBB21_35:                              # %func_exit
	.cfi_def_cfa %rbp, 16
	callq	detect_breach
	jmp	.LBB21_34
.Lfunc_end21:
	.size	CalculateOffsetParam.17, .Lfunc_end21-CalculateOffsetParam.17
	.cfi_endproc
                                        # -- End function
	.globl	CalculateOffset8Param.18 # -- Begin function CalculateOffset8Param.18
	.p2align	4, 0x90
	.type	CalculateOffset8Param.18,@function
CalculateOffset8Param.18:               # @CalculateOffset8Param.18
	.cfi_startproc
# %bb.0:                                # %entry
	pushq	%rbp
	.cfi_def_cfa_offset 16
	.cfi_offset %rbp, -16
	movq	%rsp, %rbp
	.cfi_def_cfa_register %rbp
	subq	$32, %rsp
	movl	$1632266018, -24(%rbp)  # imm = 0x614A6722
	movq	input, %rax
	cmpl	$0, 3584(%rax)
	je	.LBB22_17
# %bb.1:                                # %if.then
	movl	$0, -4(%rbp)
.LBB22_2:                               # %for.cond
                                        # =>This Loop Header: Depth=1
                                        #     Child Loop BB22_4 Depth 2
                                        #       Child Loop BB22_6 Depth 3
	cmpl	$13, -4(%rbp)
	jge	.LBB22_16
# %bb.3:                                # %for.body
                                        #   in Loop: Header=BB22_2 Depth=1
	movl	-4(%rbp), %eax
	addl	$16, %eax
	subl	$10, %eax
	movl	%eax, -16(%rbp)
	movl	$0, -12(%rbp)
.LBB22_4:                               # %for.cond1
                                        #   Parent Loop BB22_2 Depth=1
                                        # =>  This Loop Header: Depth=2
                                        #       Child Loop BB22_6 Depth 3
	cmpl	$8, -12(%rbp)
	jge	.LBB22_14
# %bb.5:                                # %for.body3
                                        #   in Loop: Header=BB22_4 Depth=2
	movl	$0, -8(%rbp)
.LBB22_6:                               # %for.cond4
                                        #   Parent Loop BB22_2 Depth=1
                                        #     Parent Loop BB22_4 Depth=2
                                        # =>    This Inner Loop Header: Depth=3
	cmpl	$8, -8(%rbp)
	jge	.LBB22_12
# %bb.7:                                # %for.body6
                                        #   in Loop: Header=BB22_6 Depth=3
	movl	-8(%rbp), %eax
	shll	$3, %eax
	addl	-12(%rbp), %eax
	movl	%eax, -20(%rbp)
	movq	img, %rax
	cmpl	$2, 24(%rax)
	jne	.LBB22_9
# %bb.8:                                # %if.then9
                                        #   in Loop: Header=BB22_6 Depth=3
	movslq	-20(%rbp), %rax
	movswl	OffsetList8x8input(,%rax,2), %eax
	movl	-16(%rbp), %ecx
                                        # kill: def $cl killed $ecx
	shll	%cl, %eax
	movslq	-4(%rbp), %rcx
	shlq	$8, %rcx
	movabsq	$LevelOffset8x8Luma_Intra, %rdx
	addq	%rcx, %rdx
	movslq	-12(%rbp), %rcx
	shlq	$5, %rcx
	addq	%rcx, %rdx
	movslq	-8(%rbp), %rcx
	movl	%eax, (%rdx,%rcx,4)
	jmp	.LBB22_10
.LBB22_9:                               # %if.else
                                        #   in Loop: Header=BB22_6 Depth=3
	movslq	-20(%rbp), %rax
	movswl	OffsetList8x8input+128(,%rax,2), %eax
	movl	-16(%rbp), %ecx
                                        # kill: def $cl killed $ecx
	shll	%cl, %eax
	movslq	-4(%rbp), %rcx
	shlq	$8, %rcx
	movabsq	$LevelOffset8x8Luma_Intra, %rdx
	addq	%rcx, %rdx
	movslq	-12(%rbp), %rcx
	shlq	$5, %rcx
	addq	%rcx, %rdx
	movslq	-8(%rbp), %rcx
	movl	%eax, (%rdx,%rcx,4)
.LBB22_10:                              # %if.end
                                        #   in Loop: Header=BB22_6 Depth=3
	movslq	-20(%rbp), %rax
	movswl	OffsetList8x8input+256(,%rax,2), %eax
	movl	-16(%rbp), %ecx
                                        # kill: def $cl killed $ecx
	shll	%cl, %eax
	movslq	-4(%rbp), %rcx
	shlq	$8, %rcx
	movabsq	$LevelOffset8x8Luma_Inter, %rdx
	addq	%rcx, %rdx
	movslq	-12(%rbp), %rcx
	shlq	$5, %rcx
	addq	%rcx, %rdx
	movslq	-8(%rbp), %rcx
	movl	%eax, (%rdx,%rcx,4)
# %bb.11:                               # %for.inc
                                        #   in Loop: Header=BB22_6 Depth=3
	movl	-8(%rbp), %eax
	addl	$1, %eax
	movl	%eax, -8(%rbp)
	jmp	.LBB22_6
.LBB22_12:                              # %for.end
                                        #   in Loop: Header=BB22_4 Depth=2
	jmp	.LBB22_13
.LBB22_13:                              # %for.inc37
                                        #   in Loop: Header=BB22_4 Depth=2
	movl	-12(%rbp), %eax
	addl	$1, %eax
	movl	%eax, -12(%rbp)
	jmp	.LBB22_4
.LBB22_14:                              # %for.end39
                                        #   in Loop: Header=BB22_2 Depth=1
	jmp	.LBB22_15
.LBB22_15:                              # %for.inc40
                                        #   in Loop: Header=BB22_2 Depth=1
	movl	-4(%rbp), %eax
	addl	$1, %eax
	movl	%eax, -4(%rbp)
	jmp	.LBB22_2
.LBB22_16:                              # %for.end42
	jmp	.LBB22_33
.LBB22_17:                              # %if.else43
	movl	$0, -4(%rbp)
.LBB22_18:                              # %for.cond44
                                        # =>This Loop Header: Depth=1
                                        #     Child Loop BB22_20 Depth 2
                                        #       Child Loop BB22_22 Depth 3
	cmpl	$13, -4(%rbp)
	jge	.LBB22_32
# %bb.19:                               # %for.body47
                                        #   in Loop: Header=BB22_18 Depth=1
	movl	-4(%rbp), %eax
	addl	$16, %eax
	subl	$10, %eax
	movl	%eax, -16(%rbp)
	movl	$0, -12(%rbp)
.LBB22_20:                              # %for.cond50
                                        #   Parent Loop BB22_18 Depth=1
                                        # =>  This Loop Header: Depth=2
                                        #       Child Loop BB22_22 Depth 3
	cmpl	$8, -12(%rbp)
	jge	.LBB22_30
# %bb.21:                               # %for.body53
                                        #   in Loop: Header=BB22_20 Depth=2
	movl	$0, -8(%rbp)
.LBB22_22:                              # %for.cond54
                                        #   Parent Loop BB22_18 Depth=1
                                        #     Parent Loop BB22_20 Depth=2
                                        # =>    This Inner Loop Header: Depth=3
	cmpl	$8, -8(%rbp)
	jge	.LBB22_28
# %bb.23:                               # %for.body57
                                        #   in Loop: Header=BB22_22 Depth=3
	movl	-8(%rbp), %eax
	shll	$3, %eax
	addl	-12(%rbp), %eax
	movl	%eax, -20(%rbp)
	movq	img, %rax
	cmpl	$2, 24(%rax)
	jne	.LBB22_25
# %bb.24:                               # %if.then63
                                        #   in Loop: Header=BB22_22 Depth=3
	movslq	-20(%rbp), %rax
	movswl	Offset8_intra_default_intra(,%rax,2), %eax
	movl	-16(%rbp), %ecx
                                        # kill: def $cl killed $ecx
	shll	%cl, %eax
	movslq	-4(%rbp), %rcx
	shlq	$8, %rcx
	movabsq	$LevelOffset8x8Luma_Intra, %rdx
	addq	%rcx, %rdx
	movslq	-12(%rbp), %rcx
	shlq	$5, %rcx
	addq	%rcx, %rdx
	movslq	-8(%rbp), %rcx
	movl	%eax, (%rdx,%rcx,4)
	jmp	.LBB22_26
.LBB22_25:                              # %if.else74
                                        #   in Loop: Header=BB22_22 Depth=3
	movslq	-20(%rbp), %rax
	movswl	Offset8_intra_default_inter(,%rax,2), %eax
	movl	-16(%rbp), %ecx
                                        # kill: def $cl killed $ecx
	shll	%cl, %eax
	movslq	-4(%rbp), %rcx
	shlq	$8, %rcx
	movabsq	$LevelOffset8x8Luma_Intra, %rdx
	addq	%rcx, %rdx
	movslq	-12(%rbp), %rcx
	shlq	$5, %rcx
	addq	%rcx, %rdx
	movslq	-8(%rbp), %rcx
	movl	%eax, (%rdx,%rcx,4)
.LBB22_26:                              # %if.end85
                                        #   in Loop: Header=BB22_22 Depth=3
	movslq	-20(%rbp), %rax
	movswl	Offset8_inter_default(,%rax,2), %eax
	movl	-16(%rbp), %ecx
                                        # kill: def $cl killed $ecx
	shll	%cl, %eax
	movslq	-4(%rbp), %rcx
	shlq	$8, %rcx
	movabsq	$LevelOffset8x8Luma_Inter, %rdx
	addq	%rcx, %rdx
	movslq	-12(%rbp), %rcx
	shlq	$5, %rcx
	addq	%rcx, %rdx
	movslq	-8(%rbp), %rcx
	movl	%eax, (%rdx,%rcx,4)
# %bb.27:                               # %for.inc96
                                        #   in Loop: Header=BB22_22 Depth=3
	movl	-8(%rbp), %eax
	addl	$1, %eax
	movl	%eax, -8(%rbp)
	jmp	.LBB22_22
.LBB22_28:                              # %for.end98
                                        #   in Loop: Header=BB22_20 Depth=2
	jmp	.LBB22_29
.LBB22_29:                              # %for.inc99
                                        #   in Loop: Header=BB22_20 Depth=2
	movl	-12(%rbp), %eax
	addl	$1, %eax
	movl	%eax, -12(%rbp)
	jmp	.LBB22_20
.LBB22_30:                              # %for.end101
                                        #   in Loop: Header=BB22_18 Depth=1
	jmp	.LBB22_31
.LBB22_31:                              # %for.inc102
                                        #   in Loop: Header=BB22_18 Depth=1
	movl	-4(%rbp), %eax
	addl	$1, %eax
	movl	%eax, -4(%rbp)
	jmp	.LBB22_18
.LBB22_32:                              # %for.end104
	jmp	.LBB22_33
.LBB22_33:                              # %if.end105
	cmpl	$1632266018, -24(%rbp)  # imm = 0x614A6722
	jne	.LBB22_35
.LBB22_34:
	addq	$32, %rsp
	popq	%rbp
	.cfi_def_cfa %rsp, 8
	retq
.LBB22_35:                              # %func_exit
	.cfi_def_cfa %rbp, 16
	callq	detect_breach
	jmp	.LBB22_34
.Lfunc_end22:
	.size	CalculateOffset8Param.18, .Lfunc_end22-CalculateOffset8Param.18
	.cfi_endproc
                                        # -- End function
	.globl	CheckOffsetParameterName.19 # -- Begin function CheckOffsetParameterName.19
	.p2align	4, 0x90
	.type	CheckOffsetParameterName.19,@function
CheckOffsetParameterName.19:            # @CheckOffsetParameterName.19
	.cfi_startproc
# %bb.0:                                # %entry
	pushq	%rbp
	.cfi_def_cfa_offset 16
	.cfi_offset %rbp, -16
	movq	%rsp, %rbp
	.cfi_def_cfa_register %rbp
	pushq	%rbx
	subq	$40, %rsp
	.cfi_offset %rbx, -24
	movl	$1449183230, -20(%rbp)  # imm = 0x5660C7FE
	movq	%rdi, -40(%rbp)
	movq	%rsi, -32(%rbp)
	movl	$0, -12(%rbp)
	movq	-32(%rbp), %rax
	movl	$0, (%rax)
.LBB23_1:                               # %while.cond
                                        # =>This Inner Loop Header: Depth=1
	xorl	%eax, %eax
	movslq	-12(%rbp), %rcx
	imulq	$24, %rcx, %rcx
	movabsq	$OffsetType4x4, %rdx
	addq	%rcx, %rdx
	cmpq	$0, %rdx
	je	.LBB23_3
# %bb.2:                                # %land.rhs
                                        #   in Loop: Header=BB23_1 Depth=1
	cmpl	$9, -12(%rbp)
	setl	%al
.LBB23_3:                               # %land.end
                                        #   in Loop: Header=BB23_1 Depth=1
	testb	$1, %al
	jne	.LBB23_4
	jmp	.LBB23_8
.LBB23_4:                               # %while.body
                                        #   in Loop: Header=BB23_1 Depth=1
	xorl	%ebx, %ebx
	movslq	-12(%rbp), %rax
	imulq	$24, %rax, %rax
	movabsq	$OffsetType4x4, %rdi
	addq	%rax, %rdi
	movq	-40(%rbp), %rsi
	callq	strcmp
	cmpl	%eax, %ebx
	jne	.LBB23_6
# %bb.5:                                # %if.then
	movl	-12(%rbp), %eax
	movl	%eax, -16(%rbp)
	jmp	.LBB23_17
.LBB23_6:                               # %if.else
                                        #   in Loop: Header=BB23_1 Depth=1
	movl	-12(%rbp), %eax
	addl	$1, %eax
	movl	%eax, -12(%rbp)
# %bb.7:                                # %if.end
                                        #   in Loop: Header=BB23_1 Depth=1
	jmp	.LBB23_1
.LBB23_8:                               # %while.end
	movl	$0, -12(%rbp)
	movq	-32(%rbp), %rax
	movl	$1, (%rax)
.LBB23_9:                               # %while.cond6
                                        # =>This Inner Loop Header: Depth=1
	xorl	%eax, %eax
	movslq	-12(%rbp), %rcx
	imulq	$24, %rcx, %rcx
	movabsq	$OffsetType8x8, %rdx
	addq	%rcx, %rdx
	cmpq	$0, %rdx
	je	.LBB23_11
# %bb.10:                               # %land.rhs11
                                        #   in Loop: Header=BB23_9 Depth=1
	cmpl	$3, -12(%rbp)
	setl	%al
.LBB23_11:                              # %land.end13
                                        #   in Loop: Header=BB23_9 Depth=1
	testb	$1, %al
	jne	.LBB23_12
	jmp	.LBB23_16
.LBB23_12:                              # %while.body14
                                        #   in Loop: Header=BB23_9 Depth=1
	xorl	%ebx, %ebx
	movslq	-12(%rbp), %rax
	imulq	$24, %rax, %rax
	movabsq	$OffsetType8x8, %rdi
	addq	%rax, %rdi
	movq	-40(%rbp), %rsi
	callq	strcmp
	cmpl	%eax, %ebx
	jne	.LBB23_14
# %bb.13:                               # %if.then20
	movl	-12(%rbp), %eax
	movl	%eax, -16(%rbp)
	jmp	.LBB23_17
.LBB23_14:                              # %if.else21
                                        #   in Loop: Header=BB23_9 Depth=1
	movl	-12(%rbp), %eax
	addl	$1, %eax
	movl	%eax, -12(%rbp)
# %bb.15:                               # %if.end23
                                        #   in Loop: Header=BB23_9 Depth=1
	jmp	.LBB23_9
.LBB23_16:                              # %while.end24
	movl	$-1, -16(%rbp)
.LBB23_17:                              # %return
	movl	-16(%rbp), %ebx
	cmpl	$1449183230, -20(%rbp)  # imm = 0x5660C7FE
	jne	.LBB23_19
.LBB23_18:
	movl	%ebx, %eax
	addq	$40, %rsp
	popq	%rbx
	popq	%rbp
	.cfi_def_cfa %rsp, 8
	retq
.LBB23_19:                              # %func_exit
	.cfi_def_cfa %rbp, 16
	callq	detect_breach
	jmp	.LBB23_18
.Lfunc_end23:
	.size	CheckOffsetParameterName.19, .Lfunc_end23-CheckOffsetParameterName.19
	.cfi_endproc
                                        # -- End function
	.globl	ParseQOffsetMatrix.20   # -- Begin function ParseQOffsetMatrix.20
	.p2align	4, 0x90
	.type	ParseQOffsetMatrix.20,@function
ParseQOffsetMatrix.20:                  # @ParseQOffsetMatrix.20
	.cfi_startproc
# %bb.0:                                # %entry
	pushq	%rbp
	.cfi_def_cfa_offset 16
	.cfi_offset %rbp, -16
	movq	%rsp, %rbp
	.cfi_def_cfa_register %rbp
	subq	$8096, %rsp             # imm = 0x1FA0
	movl	$1026131380, -52(%rbp)  # imm = 0x3D2985B4
	movq	%rdi, -88(%rbp)
	movl	%esi, -48(%rbp)
	movl	$0, -28(%rbp)
	movl	$0, -36(%rbp)
	movl	$0, -20(%rbp)
	movq	-88(%rbp), %rax
	movq	%rax, -16(%rbp)
	movq	-88(%rbp), %rax
	movslq	-48(%rbp), %rcx
	addq	%rcx, %rax
	movq	%rax, -80(%rbp)
.LBB24_1:                               # %while.cond
                                        # =>This Loop Header: Depth=1
                                        #     Child Loop BB24_6 Depth 2
	movq	-16(%rbp), %rax
	cmpq	-80(%rbp), %rax
	jae	.LBB24_25
# %bb.2:                                # %while.body
                                        #   in Loop: Header=BB24_1 Depth=1
	movq	-16(%rbp), %rax
	movsbl	(%rax), %eax
	addl	$-9, %eax
	movl	%eax, %ecx
	subl	$35, %ecx
	ja	.LBB24_21
# %bb.3:                                # %while.body
                                        #   in Loop: Header=BB24_1 Depth=1
	movq	.LJTI24_0(,%rax,8), %rax
	jmpq	*%rax
.LBB24_4:                               # %sw.bb
                                        #   in Loop: Header=BB24_1 Depth=1
	movq	-16(%rbp), %rax
	addq	$1, %rax
	movq	%rax, -16(%rbp)
	jmp	.LBB24_24
.LBB24_5:                               # %sw.bb1
                                        #   in Loop: Header=BB24_1 Depth=1
	movq	-16(%rbp), %rax
	movb	$0, (%rax)
.LBB24_6:                               # %while.cond2
                                        #   Parent Loop BB24_1 Depth=1
                                        # =>  This Inner Loop Header: Depth=2
	xorl	%eax, %eax
	movq	-16(%rbp), %rcx
	movsbl	(%rcx), %ecx
	cmpl	$10, %ecx
	je	.LBB24_8
# %bb.7:                                # %land.rhs
                                        #   in Loop: Header=BB24_6 Depth=2
	movq	-16(%rbp), %rax
	cmpq	-80(%rbp), %rax
	setb	%al
.LBB24_8:                               # %land.end
                                        #   in Loop: Header=BB24_6 Depth=2
	testb	$1, %al
	jne	.LBB24_9
	jmp	.LBB24_10
.LBB24_9:                               # %while.body8
                                        #   in Loop: Header=BB24_6 Depth=2
	movq	-16(%rbp), %rax
	addq	$1, %rax
	movq	%rax, -16(%rbp)
	jmp	.LBB24_6
.LBB24_10:                              # %while.end
                                        #   in Loop: Header=BB24_1 Depth=1
	movl	$0, -36(%rbp)
	movl	$0, -20(%rbp)
	jmp	.LBB24_24
.LBB24_11:                              # %sw.bb10
                                        #   in Loop: Header=BB24_1 Depth=1
	movl	$0, -20(%rbp)
	movl	$0, -36(%rbp)
	movq	-16(%rbp), %rax
	movq	%rax, %rcx
	addq	$1, %rcx
	movq	%rcx, -16(%rbp)
	movb	$0, (%rax)
	jmp	.LBB24_24
.LBB24_12:                              # %sw.bb12
                                        #   in Loop: Header=BB24_1 Depth=1
	cmpl	$0, -36(%rbp)
	je	.LBB24_14
# %bb.13:                               # %if.then
                                        #   in Loop: Header=BB24_1 Depth=1
	movq	-16(%rbp), %rax
	addq	$1, %rax
	movq	%rax, -16(%rbp)
	jmp	.LBB24_15
.LBB24_14:                              # %if.else
                                        #   in Loop: Header=BB24_1 Depth=1
	movq	-16(%rbp), %rax
	movq	%rax, %rcx
	addq	$1, %rcx
	movq	%rcx, -16(%rbp)
	movb	$0, (%rax)
	movl	$0, -20(%rbp)
.LBB24_15:                              # %if.end
                                        #   in Loop: Header=BB24_1 Depth=1
	jmp	.LBB24_24
.LBB24_16:                              # %sw.bb15
                                        #   in Loop: Header=BB24_1 Depth=1
	movq	-16(%rbp), %rax
	movq	%rax, %rcx
	addq	$1, %rcx
	movq	%rcx, -16(%rbp)
	movb	$0, (%rax)
	cmpl	$0, -36(%rbp)
	jne	.LBB24_18
# %bb.17:                               # %if.then18
                                        #   in Loop: Header=BB24_1 Depth=1
	movq	-16(%rbp), %rax
	movl	-28(%rbp), %ecx
	movl	%ecx, %edx
	addl	$1, %edx
	movl	%edx, -28(%rbp)
	movslq	%ecx, %rcx
	movq	%rax, -8096(%rbp,%rcx,8)
	movl	-20(%rbp), %eax
	xorl	$-1, %eax
	movl	%eax, -20(%rbp)
	jmp	.LBB24_19
.LBB24_18:                              # %if.else21
                                        #   in Loop: Header=BB24_1 Depth=1
	movl	$0, -20(%rbp)
.LBB24_19:                              # %if.end22
                                        #   in Loop: Header=BB24_1 Depth=1
	movl	-36(%rbp), %eax
	xorl	$-1, %eax
	movl	%eax, -36(%rbp)
	jmp	.LBB24_24
.LBB24_20:                              # %sw.bb24
                                        #   in Loop: Header=BB24_1 Depth=1
	movq	-16(%rbp), %rax
	addq	$1, %rax
	movq	%rax, -16(%rbp)
	movl	$0, -20(%rbp)
	jmp	.LBB24_24
.LBB24_21:                              # %sw.default
                                        #   in Loop: Header=BB24_1 Depth=1
	cmpl	$0, -20(%rbp)
	jne	.LBB24_23
# %bb.22:                               # %if.then27
                                        #   in Loop: Header=BB24_1 Depth=1
	movq	-16(%rbp), %rax
	movl	-28(%rbp), %ecx
	movl	%ecx, %edx
	addl	$1, %edx
	movl	%edx, -28(%rbp)
	movslq	%ecx, %rcx
	movq	%rax, -8096(%rbp,%rcx,8)
	movl	-20(%rbp), %eax
	xorl	$-1, %eax
	movl	%eax, -20(%rbp)
.LBB24_23:                              # %if.end32
                                        #   in Loop: Header=BB24_1 Depth=1
	movq	-16(%rbp), %rax
	addq	$1, %rax
	movq	%rax, -16(%rbp)
.LBB24_24:                              # %sw.epilog
                                        #   in Loop: Header=BB24_1 Depth=1
	jmp	.LBB24_1
.LBB24_25:                              # %while.end34
	movl	-28(%rbp), %eax
	addl	$-1, %eax
	movl	%eax, -28(%rbp)
	movl	$0, -24(%rbp)
.LBB24_26:                              # %for.cond
                                        # =>This Loop Header: Depth=1
                                        #     Child Loop BB24_35 Depth 2
	movl	-24(%rbp), %eax
	cmpl	-28(%rbp), %eax
	jge	.LBB24_42
# %bb.27:                               # %for.body
                                        #   in Loop: Header=BB24_26 Depth=1
	movl	$0, -4(%rbp)
	movl	-24(%rbp), %eax
	addl	-4(%rbp), %eax
	cltq
	movq	-8096(%rbp,%rax,8), %rdi
	leaq	-60(%rbp), %rsi
	callq	CheckOffsetParameterName
	xorl	%ecx, %ecx
	movl	%eax, -40(%rbp)
	cmpl	%eax, %ecx
	jle	.LBB24_29
# %bb.28:                               # %if.then41
                                        #   in Loop: Header=BB24_26 Depth=1
	movl	-24(%rbp), %eax
	addl	-4(%rbp), %eax
	cltq
	movq	-8096(%rbp,%rax,8), %rcx
	movabsq	$errortext, %rdi
	movl	$300, %esi              # imm = 0x12C
	movabsq	$.L.str, %rdx
	movb	$0, %al
	callq	snprintf
	movabsq	$errortext, %rdi
	movl	$300, %esi              # imm = 0x12C
	callq	error
.LBB24_29:                              # %if.end46
                                        #   in Loop: Header=BB24_26 Depth=1
	movl	-4(%rbp), %eax
	addl	$1, %eax
	movl	%eax, -4(%rbp)
	movl	-24(%rbp), %eax
	addl	-4(%rbp), %eax
	cltq
	movq	-8096(%rbp,%rax,8), %rsi
	movl	$.L.str.1, %edi
	callq	strcmp
	cmpl	$0, %eax
	je	.LBB24_31
# %bb.30:                               # %if.then53
                                        #   in Loop: Header=BB24_26 Depth=1
	movabsq	$errortext, %rdi
	movl	$300, %esi              # imm = 0x12C
	movabsq	$.L.str.2, %rdx
	movb	$0, %al
	callq	snprintf
	movabsq	$errortext, %rdi
	movl	$300, %esi              # imm = 0x12C
	callq	error
.LBB24_31:                              # %if.end55
                                        #   in Loop: Header=BB24_26 Depth=1
	movl	-4(%rbp), %eax
	addl	$1, %eax
	movl	%eax, -4(%rbp)
	cmpl	$0, -60(%rbp)
	jne	.LBB24_33
# %bb.32:                               # %if.then58
                                        #   in Loop: Header=BB24_26 Depth=1
	movl	$16, -44(%rbp)
	movslq	-40(%rbp), %rax
	shlq	$5, %rax
	movabsq	$OffsetList4x4input, %rcx
	addq	%rax, %rcx
	movq	%rcx, -72(%rbp)
	movslq	-40(%rbp), %rax
	movl	$1, offset4x4_check(,%rax,4)
	jmp	.LBB24_34
.LBB24_33:                              # %if.else63
                                        #   in Loop: Header=BB24_26 Depth=1
	movl	$64, -44(%rbp)
	movslq	-40(%rbp), %rax
	shlq	$7, %rax
	movabsq	$OffsetList8x8input, %rcx
	addq	%rax, %rcx
	movq	%rcx, -72(%rbp)
	movslq	-40(%rbp), %rax
	movl	$1, offset8x8_check(,%rax,4)
.LBB24_34:                              # %if.end69
                                        #   in Loop: Header=BB24_26 Depth=1
	movl	$0, -32(%rbp)
.LBB24_35:                              # %for.cond70
                                        #   Parent Loop BB24_26 Depth=1
                                        # =>  This Inner Loop Header: Depth=2
	movl	-32(%rbp), %eax
	cmpl	-44(%rbp), %eax
	jge	.LBB24_40
# %bb.36:                               # %for.body73
                                        #   in Loop: Header=BB24_35 Depth=2
	movl	-24(%rbp), %eax
	addl	-4(%rbp), %eax
	addl	-32(%rbp), %eax
	cltq
	movq	-8096(%rbp,%rax,8), %rdi
	movabsq	$.L.str.3, %rsi
	leaq	-56(%rbp), %rdx
	movb	$0, %al
	callq	__isoc99_sscanf
	movl	$1, %ecx
	cmpl	%eax, %ecx
	je	.LBB24_38
# %bb.37:                               # %if.then81
                                        #   in Loop: Header=BB24_35 Depth=2
	movslq	-24(%rbp), %rax
	movq	-8096(%rbp,%rax,8), %rcx
	movl	-24(%rbp), %eax
	addl	-4(%rbp), %eax
	addl	-32(%rbp), %eax
	cltq
	movq	-8096(%rbp,%rax,8), %r8
	movabsq	$errortext, %rdi
	movl	$300, %esi              # imm = 0x12C
	movabsq	$.L.str.4, %rdx
	movb	$0, %al
	callq	snprintf
	movabsq	$errortext, %rdi
	movl	$300, %esi              # imm = 0x12C
	callq	error
.LBB24_38:                              # %if.end89
                                        #   in Loop: Header=BB24_35 Depth=2
	movl	-56(%rbp), %eax
	movq	-72(%rbp), %rcx
	movslq	-32(%rbp), %rdx
	movw	%ax, (%rcx,%rdx,2)
# %bb.39:                               # %for.inc
                                        #   in Loop: Header=BB24_35 Depth=2
	movl	-32(%rbp), %eax
	addl	$1, %eax
	movl	%eax, -32(%rbp)
	jmp	.LBB24_35
.LBB24_40:                              # %for.end
                                        #   in Loop: Header=BB24_26 Depth=1
	movl	-32(%rbp), %eax
	addl	-4(%rbp), %eax
	movl	%eax, -4(%rbp)
	movabsq	$.L.str.5, %rdi
	movb	$0, %al
	callq	printf
# %bb.41:                               # %for.inc96
                                        #   in Loop: Header=BB24_26 Depth=1
	movl	-4(%rbp), %eax
	addl	-24(%rbp), %eax
	movl	%eax, -24(%rbp)
	jmp	.LBB24_26
.LBB24_42:                              # %for.end98
	cmpl	$1026131380, -52(%rbp)  # imm = 0x3D2985B4
	jne	.LBB24_44
.LBB24_43:
	addq	$8096, %rsp             # imm = 0x1FA0
	popq	%rbp
	.cfi_def_cfa %rsp, 8
	retq
.LBB24_44:                              # %func_exit
	.cfi_def_cfa %rbp, 16
	callq	detect_breach
	jmp	.LBB24_43
.Lfunc_end24:
	.size	ParseQOffsetMatrix.20, .Lfunc_end24-ParseQOffsetMatrix.20
	.cfi_endproc
	.section	.rodata,"a",@progbits
	.p2align	3
.LJTI24_0:
	.quad	.LBB24_12
	.quad	.LBB24_11
	.quad	.LBB24_21
	.quad	.LBB24_21
	.quad	.LBB24_4
	.quad	.LBB24_21
	.quad	.LBB24_21
	.quad	.LBB24_21
	.quad	.LBB24_21
	.quad	.LBB24_21
	.quad	.LBB24_21
	.quad	.LBB24_21
	.quad	.LBB24_21
	.quad	.LBB24_21
	.quad	.LBB24_21
	.quad	.LBB24_21
	.quad	.LBB24_21
	.quad	.LBB24_21
	.quad	.LBB24_21
	.quad	.LBB24_21
	.quad	.LBB24_21
	.quad	.LBB24_21
	.quad	.LBB24_21
	.quad	.LBB24_12
	.quad	.LBB24_21
	.quad	.LBB24_16
	.quad	.LBB24_5
	.quad	.LBB24_21
	.quad	.LBB24_21
	.quad	.LBB24_21
	.quad	.LBB24_21
	.quad	.LBB24_21
	.quad	.LBB24_21
	.quad	.LBB24_21
	.quad	.LBB24_21
	.quad	.LBB24_20
                                        # -- End function
	.text
	.globl	CalculateOffsetParam.21 # -- Begin function CalculateOffsetParam.21
	.p2align	4, 0x90
	.type	CalculateOffsetParam.21,@function
CalculateOffsetParam.21:                # @CalculateOffsetParam.21
	.cfi_startproc
# %bb.0:                                # %entry
	pushq	%rbp
	.cfi_def_cfa_offset 16
	.cfi_offset %rbp, -16
	movq	%rsp, %rbp
	.cfi_def_cfa_register %rbp
	subq	$32, %rsp
	movl	$103776399, -24(%rbp)   # imm = 0x62F808F
	movq	input, %rax
	cmpl	$0, 3584(%rax)
	je	.LBB25_17
# %bb.1:                                # %if.then
	movl	$0, -8(%rbp)
.LBB25_2:                               # %for.cond
                                        # =>This Loop Header: Depth=1
                                        #     Child Loop BB25_4 Depth 2
                                        #       Child Loop BB25_6 Depth 3
	cmpl	$13, -8(%rbp)
	jge	.LBB25_16
# %bb.3:                                # %for.body
                                        #   in Loop: Header=BB25_2 Depth=1
	movl	-8(%rbp), %eax
	addl	$15, %eax
	subl	$10, %eax
	movl	%eax, -16(%rbp)
	movl	$0, -12(%rbp)
.LBB25_4:                               # %for.cond1
                                        #   Parent Loop BB25_2 Depth=1
                                        # =>  This Loop Header: Depth=2
                                        #       Child Loop BB25_6 Depth 3
	cmpl	$4, -12(%rbp)
	jge	.LBB25_14
# %bb.5:                                # %for.body3
                                        #   in Loop: Header=BB25_4 Depth=2
	movl	$0, -4(%rbp)
.LBB25_6:                               # %for.cond4
                                        #   Parent Loop BB25_2 Depth=1
                                        #     Parent Loop BB25_4 Depth=2
                                        # =>    This Inner Loop Header: Depth=3
	cmpl	$4, -4(%rbp)
	jge	.LBB25_12
# %bb.7:                                # %for.body6
                                        #   in Loop: Header=BB25_6 Depth=3
	movl	-4(%rbp), %eax
	shll	$2, %eax
	addl	-12(%rbp), %eax
	movl	%eax, -20(%rbp)
	movq	img, %rax
	cmpl	$2, 24(%rax)
	jne	.LBB25_9
# %bb.8:                                # %if.then9
                                        #   in Loop: Header=BB25_6 Depth=3
	movabsq	$LevelOffset4x4Chroma_Intra, %rdx
	movq	%rdx, %rax
	addq	$832, %rax              # imm = 0x340
	movslq	-20(%rbp), %rcx
	movswl	OffsetList4x4input(,%rcx,2), %esi
	movl	-16(%rbp), %ecx
                                        # kill: def $cl killed $ecx
	shll	%cl, %esi
	movslq	-8(%rbp), %rcx
	shlq	$6, %rcx
	movabsq	$LevelOffset4x4Luma_Intra, %rdi
	addq	%rcx, %rdi
	movslq	-12(%rbp), %rcx
	shlq	$4, %rcx
	addq	%rcx, %rdi
	movslq	-4(%rbp), %rcx
	movl	%esi, (%rdi,%rcx,4)
	movslq	-20(%rbp), %rcx
	movswl	OffsetList4x4input+32(,%rcx,2), %esi
	movl	-16(%rbp), %ecx
                                        # kill: def $cl killed $ecx
	shll	%cl, %esi
	movslq	-8(%rbp), %rcx
	shlq	$6, %rcx
	addq	%rcx, %rdx
	movslq	-12(%rbp), %rcx
	shlq	$4, %rcx
	addq	%rcx, %rdx
	movslq	-4(%rbp), %rcx
	movl	%esi, (%rdx,%rcx,4)
	movslq	-20(%rbp), %rcx
	movswl	OffsetList4x4input+64(,%rcx,2), %edx
	movl	-16(%rbp), %ecx
                                        # kill: def $cl killed $ecx
	shll	%cl, %edx
	movslq	-8(%rbp), %rcx
	shlq	$6, %rcx
	addq	%rcx, %rax
	movslq	-12(%rbp), %rcx
	shlq	$4, %rcx
	addq	%rcx, %rax
	movslq	-4(%rbp), %rcx
	movl	%edx, (%rax,%rcx,4)
	jmp	.LBB25_10
.LBB25_9:                               # %if.else
                                        #   in Loop: Header=BB25_6 Depth=3
	movabsq	$LevelOffset4x4Chroma_Intra, %rdx
	movq	%rdx, %rax
	addq	$832, %rax              # imm = 0x340
	movslq	-20(%rbp), %rcx
	movswl	OffsetList4x4input+96(,%rcx,2), %esi
	movl	-16(%rbp), %ecx
                                        # kill: def $cl killed $ecx
	shll	%cl, %esi
	movslq	-8(%rbp), %rcx
	shlq	$6, %rcx
	movabsq	$LevelOffset4x4Luma_Intra, %rdi
	addq	%rcx, %rdi
	movslq	-12(%rbp), %rcx
	shlq	$4, %rcx
	addq	%rcx, %rdi
	movslq	-4(%rbp), %rcx
	movl	%esi, (%rdi,%rcx,4)
	movslq	-20(%rbp), %rcx
	movswl	OffsetList4x4input+128(,%rcx,2), %esi
	movl	-16(%rbp), %ecx
                                        # kill: def $cl killed $ecx
	shll	%cl, %esi
	movslq	-8(%rbp), %rcx
	shlq	$6, %rcx
	addq	%rcx, %rdx
	movslq	-12(%rbp), %rcx
	shlq	$4, %rcx
	addq	%rcx, %rdx
	movslq	-4(%rbp), %rcx
	movl	%esi, (%rdx,%rcx,4)
	movslq	-20(%rbp), %rcx
	movswl	OffsetList4x4input+160(,%rcx,2), %edx
	movl	-16(%rbp), %ecx
                                        # kill: def $cl killed $ecx
	shll	%cl, %edx
	movslq	-8(%rbp), %rcx
	shlq	$6, %rcx
	addq	%rcx, %rax
	movslq	-12(%rbp), %rcx
	shlq	$4, %rcx
	addq	%rcx, %rax
	movslq	-4(%rbp), %rcx
	movl	%edx, (%rax,%rcx,4)
.LBB25_10:                              # %if.end
                                        #   in Loop: Header=BB25_6 Depth=3
	movabsq	$LevelOffset4x4Chroma_Inter, %rdx
	movq	%rdx, %rax
	addq	$832, %rax              # imm = 0x340
	movslq	-20(%rbp), %rcx
	movswl	OffsetList4x4input+192(,%rcx,2), %esi
	movl	-16(%rbp), %ecx
                                        # kill: def $cl killed $ecx
	shll	%cl, %esi
	movslq	-8(%rbp), %rcx
	shlq	$6, %rcx
	movabsq	$LevelOffset4x4Luma_Inter, %rdi
	addq	%rcx, %rdi
	movslq	-12(%rbp), %rcx
	shlq	$4, %rcx
	addq	%rcx, %rdi
	movslq	-4(%rbp), %rcx
	movl	%esi, (%rdi,%rcx,4)
	movslq	-20(%rbp), %rcx
	movswl	OffsetList4x4input+224(,%rcx,2), %esi
	movl	-16(%rbp), %ecx
                                        # kill: def $cl killed $ecx
	shll	%cl, %esi
	movslq	-8(%rbp), %rcx
	shlq	$6, %rcx
	addq	%rcx, %rdx
	movslq	-12(%rbp), %rcx
	shlq	$4, %rcx
	addq	%rcx, %rdx
	movslq	-4(%rbp), %rcx
	movl	%esi, (%rdx,%rcx,4)
	movslq	-20(%rbp), %rcx
	movswl	OffsetList4x4input+256(,%rcx,2), %edx
	movl	-16(%rbp), %ecx
                                        # kill: def $cl killed $ecx
	shll	%cl, %edx
	movslq	-8(%rbp), %rcx
	shlq	$6, %rcx
	addq	%rcx, %rax
	movslq	-12(%rbp), %rcx
	shlq	$4, %rcx
	addq	%rcx, %rax
	movslq	-4(%rbp), %rcx
	movl	%edx, (%rax,%rcx,4)
# %bb.11:                               # %for.inc
                                        #   in Loop: Header=BB25_6 Depth=3
	movl	-4(%rbp), %eax
	addl	$1, %eax
	movl	%eax, -4(%rbp)
	jmp	.LBB25_6
.LBB25_12:                              # %for.end
                                        #   in Loop: Header=BB25_4 Depth=2
	jmp	.LBB25_13
.LBB25_13:                              # %for.inc97
                                        #   in Loop: Header=BB25_4 Depth=2
	movl	-12(%rbp), %eax
	addl	$1, %eax
	movl	%eax, -12(%rbp)
	jmp	.LBB25_4
.LBB25_14:                              # %for.end99
                                        #   in Loop: Header=BB25_2 Depth=1
	jmp	.LBB25_15
.LBB25_15:                              # %for.inc100
                                        #   in Loop: Header=BB25_2 Depth=1
	movl	-8(%rbp), %eax
	addl	$1, %eax
	movl	%eax, -8(%rbp)
	jmp	.LBB25_2
.LBB25_16:                              # %for.end102
	jmp	.LBB25_33
.LBB25_17:                              # %if.else103
	movl	$0, -8(%rbp)
.LBB25_18:                              # %for.cond104
                                        # =>This Loop Header: Depth=1
                                        #     Child Loop BB25_20 Depth 2
                                        #       Child Loop BB25_22 Depth 3
	cmpl	$13, -8(%rbp)
	jge	.LBB25_32
# %bb.19:                               # %for.body107
                                        #   in Loop: Header=BB25_18 Depth=1
	movl	-8(%rbp), %eax
	addl	$15, %eax
	subl	$10, %eax
	movl	%eax, -16(%rbp)
	movl	$0, -12(%rbp)
.LBB25_20:                              # %for.cond110
                                        #   Parent Loop BB25_18 Depth=1
                                        # =>  This Loop Header: Depth=2
                                        #       Child Loop BB25_22 Depth 3
	cmpl	$4, -12(%rbp)
	jge	.LBB25_30
# %bb.21:                               # %for.body113
                                        #   in Loop: Header=BB25_20 Depth=2
	movl	$0, -4(%rbp)
.LBB25_22:                              # %for.cond114
                                        #   Parent Loop BB25_18 Depth=1
                                        #     Parent Loop BB25_20 Depth=2
                                        # =>    This Inner Loop Header: Depth=3
	cmpl	$4, -4(%rbp)
	jge	.LBB25_28
# %bb.23:                               # %for.body117
                                        #   in Loop: Header=BB25_22 Depth=3
	movl	-4(%rbp), %eax
	shll	$2, %eax
	addl	-12(%rbp), %eax
	movl	%eax, -20(%rbp)
	movq	img, %rax
	cmpl	$2, 24(%rax)
	jne	.LBB25_25
# %bb.24:                               # %if.then123
                                        #   in Loop: Header=BB25_22 Depth=3
	movabsq	$LevelOffset4x4Chroma_Intra, %rdx
	movq	%rdx, %rax
	addq	$832, %rax              # imm = 0x340
	movslq	-20(%rbp), %rcx
	movswl	Offset_intra_default_intra(,%rcx,2), %esi
	movl	-16(%rbp), %ecx
                                        # kill: def $cl killed $ecx
	shll	%cl, %esi
	movslq	-8(%rbp), %rcx
	shlq	$6, %rcx
	movabsq	$LevelOffset4x4Luma_Intra, %rdi
	addq	%rcx, %rdi
	movslq	-12(%rbp), %rcx
	shlq	$4, %rcx
	addq	%rcx, %rdi
	movslq	-4(%rbp), %rcx
	movl	%esi, (%rdi,%rcx,4)
	movslq	-20(%rbp), %rcx
	movswl	Offset_intra_default_intra(,%rcx,2), %esi
	movl	-16(%rbp), %ecx
                                        # kill: def $cl killed $ecx
	shll	%cl, %esi
	movslq	-8(%rbp), %rcx
	shlq	$6, %rcx
	addq	%rcx, %rdx
	movslq	-12(%rbp), %rcx
	shlq	$4, %rcx
	addq	%rcx, %rdx
	movslq	-4(%rbp), %rcx
	movl	%esi, (%rdx,%rcx,4)
	movslq	-20(%rbp), %rcx
	movswl	Offset_intra_default_intra(,%rcx,2), %edx
	movl	-16(%rbp), %ecx
                                        # kill: def $cl killed $ecx
	shll	%cl, %edx
	movslq	-8(%rbp), %rcx
	shlq	$6, %rcx
	addq	%rcx, %rax
	movslq	-12(%rbp), %rcx
	shlq	$4, %rcx
	addq	%rcx, %rax
	movslq	-4(%rbp), %rcx
	movl	%edx, (%rax,%rcx,4)
	jmp	.LBB25_26
.LBB25_25:                              # %if.else154
                                        #   in Loop: Header=BB25_22 Depth=3
	movabsq	$LevelOffset4x4Chroma_Intra, %rdx
	movq	%rdx, %rax
	addq	$832, %rax              # imm = 0x340
	movslq	-20(%rbp), %rcx
	movswl	Offset_intra_default_inter(,%rcx,2), %esi
	movl	-16(%rbp), %ecx
                                        # kill: def $cl killed $ecx
	shll	%cl, %esi
	movslq	-8(%rbp), %rcx
	shlq	$6, %rcx
	movabsq	$LevelOffset4x4Luma_Intra, %rdi
	addq	%rcx, %rdi
	movslq	-12(%rbp), %rcx
	shlq	$4, %rcx
	addq	%rcx, %rdi
	movslq	-4(%rbp), %rcx
	movl	%esi, (%rdi,%rcx,4)
	movslq	-20(%rbp), %rcx
	movswl	Offset_intra_default_inter(,%rcx,2), %esi
	movl	-16(%rbp), %ecx
                                        # kill: def $cl killed $ecx
	shll	%cl, %esi
	movslq	-8(%rbp), %rcx
	shlq	$6, %rcx
	addq	%rcx, %rdx
	movslq	-12(%rbp), %rcx
	shlq	$4, %rcx
	addq	%rcx, %rdx
	movslq	-4(%rbp), %rcx
	movl	%esi, (%rdx,%rcx,4)
	movslq	-20(%rbp), %rcx
	movswl	Offset_intra_default_inter(,%rcx,2), %edx
	movl	-16(%rbp), %ecx
                                        # kill: def $cl killed $ecx
	shll	%cl, %edx
	movslq	-8(%rbp), %rcx
	shlq	$6, %rcx
	addq	%rcx, %rax
	movslq	-12(%rbp), %rcx
	shlq	$4, %rcx
	addq	%rcx, %rax
	movslq	-4(%rbp), %rcx
	movl	%edx, (%rax,%rcx,4)
.LBB25_26:                              # %if.end185
                                        #   in Loop: Header=BB25_22 Depth=3
	movabsq	$LevelOffset4x4Chroma_Inter, %rdx
	movq	%rdx, %rax
	addq	$832, %rax              # imm = 0x340
	movslq	-20(%rbp), %rcx
	movswl	Offset_inter_default(,%rcx,2), %esi
	movl	-16(%rbp), %ecx
                                        # kill: def $cl killed $ecx
	shll	%cl, %esi
	movslq	-8(%rbp), %rcx
	shlq	$6, %rcx
	movabsq	$LevelOffset4x4Luma_Inter, %rdi
	addq	%rcx, %rdi
	movslq	-12(%rbp), %rcx
	shlq	$4, %rcx
	addq	%rcx, %rdi
	movslq	-4(%rbp), %rcx
	movl	%esi, (%rdi,%rcx,4)
	movslq	-20(%rbp), %rcx
	movswl	Offset_inter_default(,%rcx,2), %esi
	movl	-16(%rbp), %ecx
                                        # kill: def $cl killed $ecx
	shll	%cl, %esi
	movslq	-8(%rbp), %rcx
	shlq	$6, %rcx
	addq	%rcx, %rdx
	movslq	-12(%rbp), %rcx
	shlq	$4, %rcx
	addq	%rcx, %rdx
	movslq	-4(%rbp), %rcx
	movl	%esi, (%rdx,%rcx,4)
	movslq	-20(%rbp), %rcx
	movswl	Offset_inter_default(,%rcx,2), %edx
	movl	-16(%rbp), %ecx
                                        # kill: def $cl killed $ecx
	shll	%cl, %edx
	movslq	-8(%rbp), %rcx
	shlq	$6, %rcx
	addq	%rcx, %rax
	movslq	-12(%rbp), %rcx
	shlq	$4, %rcx
	addq	%rcx, %rax
	movslq	-4(%rbp), %rcx
	movl	%edx, (%rax,%rcx,4)
# %bb.27:                               # %for.inc216
                                        #   in Loop: Header=BB25_22 Depth=3
	movl	-4(%rbp), %eax
	addl	$1, %eax
	movl	%eax, -4(%rbp)
	jmp	.LBB25_22
.LBB25_28:                              # %for.end218
                                        #   in Loop: Header=BB25_20 Depth=2
	jmp	.LBB25_29
.LBB25_29:                              # %for.inc219
                                        #   in Loop: Header=BB25_20 Depth=2
	movl	-12(%rbp), %eax
	addl	$1, %eax
	movl	%eax, -12(%rbp)
	jmp	.LBB25_20
.LBB25_30:                              # %for.end221
                                        #   in Loop: Header=BB25_18 Depth=1
	jmp	.LBB25_31
.LBB25_31:                              # %for.inc222
                                        #   in Loop: Header=BB25_18 Depth=1
	movl	-8(%rbp), %eax
	addl	$1, %eax
	movl	%eax, -8(%rbp)
	jmp	.LBB25_18
.LBB25_32:                              # %for.end224
	jmp	.LBB25_33
.LBB25_33:                              # %if.end225
	cmpl	$103776399, -24(%rbp)   # imm = 0x62F808F
	jne	.LBB25_35
.LBB25_34:
	addq	$32, %rsp
	popq	%rbp
	.cfi_def_cfa %rsp, 8
	retq
.LBB25_35:                              # %func_exit
	.cfi_def_cfa %rbp, 16
	callq	detect_breach
	jmp	.LBB25_34
.Lfunc_end25:
	.size	CalculateOffsetParam.21, .Lfunc_end25-CalculateOffsetParam.21
	.cfi_endproc
                                        # -- End function
	.globl	ParseQOffsetMatrix.22   # -- Begin function ParseQOffsetMatrix.22
	.p2align	4, 0x90
	.type	ParseQOffsetMatrix.22,@function
ParseQOffsetMatrix.22:                  # @ParseQOffsetMatrix.22
	.cfi_startproc
# %bb.0:                                # %entry
	pushq	%rbp
	.cfi_def_cfa_offset 16
	.cfi_offset %rbp, -16
	movq	%rsp, %rbp
	.cfi_def_cfa_register %rbp
	subq	$8096, %rsp             # imm = 0x1FA0
	movl	$547266970, -56(%rbp)   # imm = 0x209EA19A
	movq	%rdi, -80(%rbp)
	movl	%esi, -60(%rbp)
	movl	$0, -28(%rbp)
	movl	$0, -36(%rbp)
	movl	$0, -20(%rbp)
	movq	-80(%rbp), %rax
	movq	%rax, -16(%rbp)
	movq	-80(%rbp), %rax
	movslq	-60(%rbp), %rcx
	addq	%rcx, %rax
	movq	%rax, -72(%rbp)
.LBB26_1:                               # %while.cond
                                        # =>This Loop Header: Depth=1
                                        #     Child Loop BB26_6 Depth 2
	movq	-16(%rbp), %rax
	cmpq	-72(%rbp), %rax
	jae	.LBB26_25
# %bb.2:                                # %while.body
                                        #   in Loop: Header=BB26_1 Depth=1
	movq	-16(%rbp), %rax
	movsbl	(%rax), %eax
	addl	$-9, %eax
	movl	%eax, %ecx
	subl	$35, %ecx
	ja	.LBB26_21
# %bb.3:                                # %while.body
                                        #   in Loop: Header=BB26_1 Depth=1
	movq	.LJTI26_0(,%rax,8), %rax
	jmpq	*%rax
.LBB26_4:                               # %sw.bb
                                        #   in Loop: Header=BB26_1 Depth=1
	movq	-16(%rbp), %rax
	addq	$1, %rax
	movq	%rax, -16(%rbp)
	jmp	.LBB26_24
.LBB26_5:                               # %sw.bb1
                                        #   in Loop: Header=BB26_1 Depth=1
	movq	-16(%rbp), %rax
	movb	$0, (%rax)
.LBB26_6:                               # %while.cond2
                                        #   Parent Loop BB26_1 Depth=1
                                        # =>  This Inner Loop Header: Depth=2
	xorl	%eax, %eax
	movq	-16(%rbp), %rcx
	movsbl	(%rcx), %ecx
	cmpl	$10, %ecx
	je	.LBB26_8
# %bb.7:                                # %land.rhs
                                        #   in Loop: Header=BB26_6 Depth=2
	movq	-16(%rbp), %rax
	cmpq	-72(%rbp), %rax
	setb	%al
.LBB26_8:                               # %land.end
                                        #   in Loop: Header=BB26_6 Depth=2
	testb	$1, %al
	jne	.LBB26_9
	jmp	.LBB26_10
.LBB26_9:                               # %while.body8
                                        #   in Loop: Header=BB26_6 Depth=2
	movq	-16(%rbp), %rax
	addq	$1, %rax
	movq	%rax, -16(%rbp)
	jmp	.LBB26_6
.LBB26_10:                              # %while.end
                                        #   in Loop: Header=BB26_1 Depth=1
	movl	$0, -36(%rbp)
	movl	$0, -20(%rbp)
	jmp	.LBB26_24
.LBB26_11:                              # %sw.bb10
                                        #   in Loop: Header=BB26_1 Depth=1
	movl	$0, -20(%rbp)
	movl	$0, -36(%rbp)
	movq	-16(%rbp), %rax
	movq	%rax, %rcx
	addq	$1, %rcx
	movq	%rcx, -16(%rbp)
	movb	$0, (%rax)
	jmp	.LBB26_24
.LBB26_12:                              # %sw.bb12
                                        #   in Loop: Header=BB26_1 Depth=1
	cmpl	$0, -36(%rbp)
	je	.LBB26_14
# %bb.13:                               # %if.then
                                        #   in Loop: Header=BB26_1 Depth=1
	movq	-16(%rbp), %rax
	addq	$1, %rax
	movq	%rax, -16(%rbp)
	jmp	.LBB26_15
.LBB26_14:                              # %if.else
                                        #   in Loop: Header=BB26_1 Depth=1
	movq	-16(%rbp), %rax
	movq	%rax, %rcx
	addq	$1, %rcx
	movq	%rcx, -16(%rbp)
	movb	$0, (%rax)
	movl	$0, -20(%rbp)
.LBB26_15:                              # %if.end
                                        #   in Loop: Header=BB26_1 Depth=1
	jmp	.LBB26_24
.LBB26_16:                              # %sw.bb15
                                        #   in Loop: Header=BB26_1 Depth=1
	movq	-16(%rbp), %rax
	movq	%rax, %rcx
	addq	$1, %rcx
	movq	%rcx, -16(%rbp)
	movb	$0, (%rax)
	cmpl	$0, -36(%rbp)
	jne	.LBB26_18
# %bb.17:                               # %if.then18
                                        #   in Loop: Header=BB26_1 Depth=1
	movq	-16(%rbp), %rax
	movl	-28(%rbp), %ecx
	movl	%ecx, %edx
	addl	$1, %edx
	movl	%edx, -28(%rbp)
	movslq	%ecx, %rcx
	movq	%rax, -8096(%rbp,%rcx,8)
	movl	-20(%rbp), %eax
	xorl	$-1, %eax
	movl	%eax, -20(%rbp)
	jmp	.LBB26_19
.LBB26_18:                              # %if.else21
                                        #   in Loop: Header=BB26_1 Depth=1
	movl	$0, -20(%rbp)
.LBB26_19:                              # %if.end22
                                        #   in Loop: Header=BB26_1 Depth=1
	movl	-36(%rbp), %eax
	xorl	$-1, %eax
	movl	%eax, -36(%rbp)
	jmp	.LBB26_24
.LBB26_20:                              # %sw.bb24
                                        #   in Loop: Header=BB26_1 Depth=1
	movq	-16(%rbp), %rax
	addq	$1, %rax
	movq	%rax, -16(%rbp)
	movl	$0, -20(%rbp)
	jmp	.LBB26_24
.LBB26_21:                              # %sw.default
                                        #   in Loop: Header=BB26_1 Depth=1
	cmpl	$0, -20(%rbp)
	jne	.LBB26_23
# %bb.22:                               # %if.then27
                                        #   in Loop: Header=BB26_1 Depth=1
	movq	-16(%rbp), %rax
	movl	-28(%rbp), %ecx
	movl	%ecx, %edx
	addl	$1, %edx
	movl	%edx, -28(%rbp)
	movslq	%ecx, %rcx
	movq	%rax, -8096(%rbp,%rcx,8)
	movl	-20(%rbp), %eax
	xorl	$-1, %eax
	movl	%eax, -20(%rbp)
.LBB26_23:                              # %if.end32
                                        #   in Loop: Header=BB26_1 Depth=1
	movq	-16(%rbp), %rax
	addq	$1, %rax
	movq	%rax, -16(%rbp)
.LBB26_24:                              # %sw.epilog
                                        #   in Loop: Header=BB26_1 Depth=1
	jmp	.LBB26_1
.LBB26_25:                              # %while.end34
	movl	-28(%rbp), %eax
	addl	$-1, %eax
	movl	%eax, -28(%rbp)
	movl	$0, -24(%rbp)
.LBB26_26:                              # %for.cond
                                        # =>This Loop Header: Depth=1
                                        #     Child Loop BB26_35 Depth 2
	movl	-24(%rbp), %eax
	cmpl	-28(%rbp), %eax
	jge	.LBB26_42
# %bb.27:                               # %for.body
                                        #   in Loop: Header=BB26_26 Depth=1
	movl	$0, -4(%rbp)
	movl	-24(%rbp), %eax
	addl	-4(%rbp), %eax
	cltq
	movq	-8096(%rbp,%rax,8), %rdi
	leaq	-52(%rbp), %rsi
	callq	CheckOffsetParameterName
	xorl	%ecx, %ecx
	movl	%eax, -40(%rbp)
	cmpl	%eax, %ecx
	jle	.LBB26_29
# %bb.28:                               # %if.then41
                                        #   in Loop: Header=BB26_26 Depth=1
	movl	-24(%rbp), %eax
	addl	-4(%rbp), %eax
	cltq
	movq	-8096(%rbp,%rax,8), %rcx
	movabsq	$errortext, %rdi
	movl	$300, %esi              # imm = 0x12C
	movabsq	$.L.str, %rdx
	movb	$0, %al
	callq	snprintf
	movabsq	$errortext, %rdi
	movl	$300, %esi              # imm = 0x12C
	callq	error
.LBB26_29:                              # %if.end46
                                        #   in Loop: Header=BB26_26 Depth=1
	movl	-4(%rbp), %eax
	addl	$1, %eax
	movl	%eax, -4(%rbp)
	movl	-24(%rbp), %eax
	addl	-4(%rbp), %eax
	cltq
	movq	-8096(%rbp,%rax,8), %rsi
	movl	$.L.str.1, %edi
	callq	strcmp
	cmpl	$0, %eax
	je	.LBB26_31
# %bb.30:                               # %if.then53
                                        #   in Loop: Header=BB26_26 Depth=1
	movabsq	$errortext, %rdi
	movl	$300, %esi              # imm = 0x12C
	movabsq	$.L.str.2, %rdx
	movb	$0, %al
	callq	snprintf
	movabsq	$errortext, %rdi
	movl	$300, %esi              # imm = 0x12C
	callq	error
.LBB26_31:                              # %if.end55
                                        #   in Loop: Header=BB26_26 Depth=1
	movl	-4(%rbp), %eax
	addl	$1, %eax
	movl	%eax, -4(%rbp)
	cmpl	$0, -52(%rbp)
	jne	.LBB26_33
# %bb.32:                               # %if.then58
                                        #   in Loop: Header=BB26_26 Depth=1
	movl	$16, -44(%rbp)
	movslq	-40(%rbp), %rax
	shlq	$5, %rax
	movabsq	$OffsetList4x4input, %rcx
	addq	%rax, %rcx
	movq	%rcx, -88(%rbp)
	movslq	-40(%rbp), %rax
	movl	$1, offset4x4_check(,%rax,4)
	jmp	.LBB26_34
.LBB26_33:                              # %if.else63
                                        #   in Loop: Header=BB26_26 Depth=1
	movl	$64, -44(%rbp)
	movslq	-40(%rbp), %rax
	shlq	$7, %rax
	movabsq	$OffsetList8x8input, %rcx
	addq	%rax, %rcx
	movq	%rcx, -88(%rbp)
	movslq	-40(%rbp), %rax
	movl	$1, offset8x8_check(,%rax,4)
.LBB26_34:                              # %if.end69
                                        #   in Loop: Header=BB26_26 Depth=1
	movl	$0, -32(%rbp)
.LBB26_35:                              # %for.cond70
                                        #   Parent Loop BB26_26 Depth=1
                                        # =>  This Inner Loop Header: Depth=2
	movl	-32(%rbp), %eax
	cmpl	-44(%rbp), %eax
	jge	.LBB26_40
# %bb.36:                               # %for.body73
                                        #   in Loop: Header=BB26_35 Depth=2
	movl	-24(%rbp), %eax
	addl	-4(%rbp), %eax
	addl	-32(%rbp), %eax
	cltq
	movq	-8096(%rbp,%rax,8), %rdi
	movabsq	$.L.str.3, %rsi
	leaq	-48(%rbp), %rdx
	movb	$0, %al
	callq	__isoc99_sscanf
	movl	$1, %ecx
	cmpl	%eax, %ecx
	je	.LBB26_38
# %bb.37:                               # %if.then81
                                        #   in Loop: Header=BB26_35 Depth=2
	movslq	-24(%rbp), %rax
	movq	-8096(%rbp,%rax,8), %rcx
	movl	-24(%rbp), %eax
	addl	-4(%rbp), %eax
	addl	-32(%rbp), %eax
	cltq
	movq	-8096(%rbp,%rax,8), %r8
	movabsq	$errortext, %rdi
	movl	$300, %esi              # imm = 0x12C
	movabsq	$.L.str.4, %rdx
	movb	$0, %al
	callq	snprintf
	movabsq	$errortext, %rdi
	movl	$300, %esi              # imm = 0x12C
	callq	error
.LBB26_38:                              # %if.end89
                                        #   in Loop: Header=BB26_35 Depth=2
	movl	-48(%rbp), %eax
	movq	-88(%rbp), %rcx
	movslq	-32(%rbp), %rdx
	movw	%ax, (%rcx,%rdx,2)
# %bb.39:                               # %for.inc
                                        #   in Loop: Header=BB26_35 Depth=2
	movl	-32(%rbp), %eax
	addl	$1, %eax
	movl	%eax, -32(%rbp)
	jmp	.LBB26_35
.LBB26_40:                              # %for.end
                                        #   in Loop: Header=BB26_26 Depth=1
	movl	-32(%rbp), %eax
	addl	-4(%rbp), %eax
	movl	%eax, -4(%rbp)
	movabsq	$.L.str.5, %rdi
	movb	$0, %al
	callq	printf
# %bb.41:                               # %for.inc96
                                        #   in Loop: Header=BB26_26 Depth=1
	movl	-4(%rbp), %eax
	addl	-24(%rbp), %eax
	movl	%eax, -24(%rbp)
	jmp	.LBB26_26
.LBB26_42:                              # %for.end98
	cmpl	$547266970, -56(%rbp)   # imm = 0x209EA19A
	jne	.LBB26_44
.LBB26_43:
	addq	$8096, %rsp             # imm = 0x1FA0
	popq	%rbp
	.cfi_def_cfa %rsp, 8
	retq
.LBB26_44:                              # %func_exit
	.cfi_def_cfa %rbp, 16
	callq	detect_breach
	jmp	.LBB26_43
.Lfunc_end26:
	.size	ParseQOffsetMatrix.22, .Lfunc_end26-ParseQOffsetMatrix.22
	.cfi_endproc
	.section	.rodata,"a",@progbits
	.p2align	3
.LJTI26_0:
	.quad	.LBB26_12
	.quad	.LBB26_11
	.quad	.LBB26_21
	.quad	.LBB26_21
	.quad	.LBB26_4
	.quad	.LBB26_21
	.quad	.LBB26_21
	.quad	.LBB26_21
	.quad	.LBB26_21
	.quad	.LBB26_21
	.quad	.LBB26_21
	.quad	.LBB26_21
	.quad	.LBB26_21
	.quad	.LBB26_21
	.quad	.LBB26_21
	.quad	.LBB26_21
	.quad	.LBB26_21
	.quad	.LBB26_21
	.quad	.LBB26_21
	.quad	.LBB26_21
	.quad	.LBB26_21
	.quad	.LBB26_21
	.quad	.LBB26_21
	.quad	.LBB26_12
	.quad	.LBB26_21
	.quad	.LBB26_16
	.quad	.LBB26_5
	.quad	.LBB26_21
	.quad	.LBB26_21
	.quad	.LBB26_21
	.quad	.LBB26_21
	.quad	.LBB26_21
	.quad	.LBB26_21
	.quad	.LBB26_21
	.quad	.LBB26_21
	.quad	.LBB26_20
                                        # -- End function
	.text
	.globl	CheckOffsetParameterName.23 # -- Begin function CheckOffsetParameterName.23
	.p2align	4, 0x90
	.type	CheckOffsetParameterName.23,@function
CheckOffsetParameterName.23:            # @CheckOffsetParameterName.23
	.cfi_startproc
# %bb.0:                                # %entry
	pushq	%rbp
	.cfi_def_cfa_offset 16
	.cfi_offset %rbp, -16
	movq	%rsp, %rbp
	.cfi_def_cfa_register %rbp
	pushq	%rbx
	subq	$40, %rsp
	.cfi_offset %rbx, -24
	movl	$1140785826, -20(%rbp)  # imm = 0x43FF02A2
	movq	%rdi, -32(%rbp)
	movq	%rsi, -40(%rbp)
	movl	$0, -12(%rbp)
	movq	-40(%rbp), %rax
	movl	$0, (%rax)
.LBB27_1:                               # %while.cond
                                        # =>This Inner Loop Header: Depth=1
	xorl	%eax, %eax
	movslq	-12(%rbp), %rcx
	imulq	$24, %rcx, %rcx
	movabsq	$OffsetType4x4, %rdx
	addq	%rcx, %rdx
	cmpq	$0, %rdx
	je	.LBB27_3
# %bb.2:                                # %land.rhs
                                        #   in Loop: Header=BB27_1 Depth=1
	cmpl	$9, -12(%rbp)
	setl	%al
.LBB27_3:                               # %land.end
                                        #   in Loop: Header=BB27_1 Depth=1
	testb	$1, %al
	jne	.LBB27_4
	jmp	.LBB27_8
.LBB27_4:                               # %while.body
                                        #   in Loop: Header=BB27_1 Depth=1
	xorl	%ebx, %ebx
	movslq	-12(%rbp), %rax
	imulq	$24, %rax, %rax
	movabsq	$OffsetType4x4, %rdi
	addq	%rax, %rdi
	movq	-32(%rbp), %rsi
	callq	strcmp
	cmpl	%eax, %ebx
	jne	.LBB27_6
# %bb.5:                                # %if.then
	movl	-12(%rbp), %eax
	movl	%eax, -16(%rbp)
	jmp	.LBB27_17
.LBB27_6:                               # %if.else
                                        #   in Loop: Header=BB27_1 Depth=1
	movl	-12(%rbp), %eax
	addl	$1, %eax
	movl	%eax, -12(%rbp)
# %bb.7:                                # %if.end
