	.text
	.file	"q_offsets.c"
	.globl	CheckOffsetParameterName # -- Begin function CheckOffsetParameterName
	.p2align	4, 0x90
	.type	CheckOffsetParameterName,@function
CheckOffsetParameterName:               # @CheckOffsetParameterName
	.cfi_startproc
# %bb.0:                                # %rand_bb
	pushq	%rbp
	.cfi_def_cfa_offset 16
	.cfi_offset %rbp, -16
	movq	%rsp, %rbp
	.cfi_def_cfa_register %rbp
	pushq	%r14
	pushq	%rbx
	.cfi_offset %rbx, -32
	.cfi_offset %r14, -24
	movq	%rsi, %r14
	movq	%rdi, %rbx
	callq	get_urand
	cmpl	$0, %eax
	jne	.LBB0_9
# %bb.1:                                # %func_CheckOffsetParameterName.4
	movq	%rbx, %rdi
	movq	%r14, %rsi
	callq	CheckOffsetParameterName.4
	popq	%rbx
	popq	%r14
	popq	%rbp
	.cfi_def_cfa %rsp, 8
	retq
.LBB0_2:                                # %func_CheckOffsetParameterName.6
	.cfi_def_cfa %rbp, 16
	movq	%rbx, %rdi
	movq	%r14, %rsi
	callq	CheckOffsetParameterName.6
	popq	%rbx
	popq	%r14
	popq	%rbp
	.cfi_def_cfa %rsp, 8
	retq
.LBB0_3:                                # %func_CheckOffsetParameterName.9
	.cfi_def_cfa %rbp, 16
	movq	%rbx, %rdi
	movq	%r14, %rsi
	callq	CheckOffsetParameterName.9
	popq	%rbx
	popq	%r14
	popq	%rbp
	.cfi_def_cfa %rsp, 8
	retq
.LBB0_4:                                # %func_CheckOffsetParameterName.12
	.cfi_def_cfa %rbp, 16
	movq	%rbx, %rdi
	movq	%r14, %rsi
	callq	CheckOffsetParameterName.12
	popq	%rbx
	popq	%r14
	popq	%rbp
	.cfi_def_cfa %rsp, 8
	retq
.LBB0_5:                                # %func_CheckOffsetParameterName.25
	.cfi_def_cfa %rbp, 16
	movq	%rbx, %rdi
	movq	%r14, %rsi
	callq	CheckOffsetParameterName.25
	popq	%rbx
	popq	%r14
	popq	%rbp
	.cfi_def_cfa %rsp, 8
	retq
.LBB0_6:                                # %func_CheckOffsetParameterName.26
	.cfi_def_cfa %rbp, 16
	movq	%rbx, %rdi
	movq	%r14, %rsi
	callq	CheckOffsetParameterName.26
	popq	%rbx
	popq	%r14
	popq	%rbp
	.cfi_def_cfa %rsp, 8
	retq
.LBB0_7:                                # %func_CheckOffsetParameterName.27
	.cfi_def_cfa %rbp, 16
	movq	%rbx, %rdi
	movq	%r14, %rsi
	callq	CheckOffsetParameterName.27
	popq	%rbx
	popq	%r14
	popq	%rbp
	.cfi_def_cfa %rsp, 8
	retq
.LBB0_8:                                # %func_CheckOffsetParameterName.28
	.cfi_def_cfa %rbp, 16
	movq	%rbx, %rdi
	movq	%r14, %rsi
	callq	CheckOffsetParameterName.28
	popq	%rbx
	popq	%r14
	popq	%rbp
	.cfi_def_cfa %rsp, 8
	retq
.LBB0_9:                                # %ctrl0
	.cfi_def_cfa %rbp, 16
	cmpl	$1, %eax
	je	.LBB0_2
# %bb.10:                               # %ctrl1
	cmpl	$2, %eax
	je	.LBB0_3
# %bb.11:                               # %ctrl2
	cmpl	$3, %eax
	je	.LBB0_4
# %bb.12:                               # %ctrl3
	cmpl	$4, %eax
	je	.LBB0_5
# %bb.13:                               # %ctrl4
	cmpl	$5, %eax
	je	.LBB0_6
# %bb.14:                               # %ctrl5
	cmpl	$6, %eax
	je	.LBB0_7
	jmp	.LBB0_8
.Lfunc_end0:
	.size	CheckOffsetParameterName, .Lfunc_end0-CheckOffsetParameterName
	.cfi_endproc
                                        # -- End function
	.globl	ParseQOffsetMatrix      # -- Begin function ParseQOffsetMatrix
	.p2align	4, 0x90
	.type	ParseQOffsetMatrix,@function
ParseQOffsetMatrix:                     # @ParseQOffsetMatrix
	.cfi_startproc
# %bb.0:                                # %rand_bb
	pushq	%rbp
	.cfi_def_cfa_offset 16
	.cfi_offset %rbp, -16
	movq	%rsp, %rbp
	.cfi_def_cfa_register %rbp
	pushq	%r14
	pushq	%rbx
	.cfi_offset %rbx, -32
	.cfi_offset %r14, -24
	movl	%esi, %r14d
	movq	%rdi, %rbx
	callq	get_urand
	cmpl	$0, %eax
	jne	.LBB1_9
# %bb.1:                                # %func_ParseQOffsetMatrix.7
	movq	%rbx, %rdi
	movl	%r14d, %esi
	callq	ParseQOffsetMatrix.7
	popq	%rbx
	popq	%r14
	popq	%rbp
	.cfi_def_cfa %rsp, 8
	retq
.LBB1_2:                                # %func_ParseQOffsetMatrix.14
	.cfi_def_cfa %rbp, 16
	movq	%rbx, %rdi
	movl	%r14d, %esi
	callq	ParseQOffsetMatrix.14
	popq	%rbx
	popq	%r14
	popq	%rbp
	.cfi_def_cfa %rsp, 8
	retq
.LBB1_3:                                # %func_ParseQOffsetMatrix.21
	.cfi_def_cfa %rbp, 16
	movq	%rbx, %rdi
	movl	%r14d, %esi
	callq	ParseQOffsetMatrix.21
	popq	%rbx
	popq	%r14
	popq	%rbp
	.cfi_def_cfa %rsp, 8
	retq
.LBB1_4:                                # %func_ParseQOffsetMatrix.23
	.cfi_def_cfa %rbp, 16
	movq	%rbx, %rdi
	movl	%r14d, %esi
	callq	ParseQOffsetMatrix.23
	popq	%rbx
	popq	%r14
	popq	%rbp
	.cfi_def_cfa %rsp, 8
	retq
.LBB1_5:                                # %func_ParseQOffsetMatrix.29
	.cfi_def_cfa %rbp, 16
	movq	%rbx, %rdi
	movl	%r14d, %esi
	callq	ParseQOffsetMatrix.29
	popq	%rbx
	popq	%r14
	popq	%rbp
	.cfi_def_cfa %rsp, 8
	retq
.LBB1_6:                                # %func_ParseQOffsetMatrix.30
	.cfi_def_cfa %rbp, 16
	movq	%rbx, %rdi
	movl	%r14d, %esi
	callq	ParseQOffsetMatrix.30
	popq	%rbx
	popq	%r14
	popq	%rbp
	.cfi_def_cfa %rsp, 8
	retq
.LBB1_7:                                # %func_ParseQOffsetMatrix.31
	.cfi_def_cfa %rbp, 16
	movq	%rbx, %rdi
	movl	%r14d, %esi
	callq	ParseQOffsetMatrix.31
	popq	%rbx
	popq	%r14
	popq	%rbp
	.cfi_def_cfa %rsp, 8
	retq
.LBB1_8:                                # %func_ParseQOffsetMatrix.32
	.cfi_def_cfa %rbp, 16
	movq	%rbx, %rdi
	movl	%r14d, %esi
	callq	ParseQOffsetMatrix.32
	popq	%rbx
	popq	%r14
	popq	%rbp
	.cfi_def_cfa %rsp, 8
	retq
.LBB1_9:                                # %ctrl0
	.cfi_def_cfa %rbp, 16
	cmpl	$1, %eax
	je	.LBB1_2
# %bb.10:                               # %ctrl1
	cmpl	$2, %eax
	je	.LBB1_3
# %bb.11:                               # %ctrl2
	cmpl	$3, %eax
	je	.LBB1_4
# %bb.12:                               # %ctrl3
	cmpl	$4, %eax
	je	.LBB1_5
# %bb.13:                               # %ctrl4
	cmpl	$5, %eax
	je	.LBB1_6
# %bb.14:                               # %ctrl5
	cmpl	$6, %eax
	je	.LBB1_7
	jmp	.LBB1_8
.Lfunc_end1:
	.size	ParseQOffsetMatrix, .Lfunc_end1-ParseQOffsetMatrix
	.cfi_endproc
                                        # -- End function
	.globl	Init_QOffsetMatrix      # -- Begin function Init_QOffsetMatrix
	.p2align	4, 0x90
	.type	Init_QOffsetMatrix,@function
Init_QOffsetMatrix:                     # @Init_QOffsetMatrix
	.cfi_startproc
# %bb.0:                                # %entry
	pushq	%rbp
	.cfi_def_cfa_offset 16
	.cfi_offset %rbp, -16
	movq	%rsp, %rbp
	.cfi_def_cfa_register %rbp
	pushq	%rbx
	pushq	%rax
	.cfi_offset %rbx, -24
	movq	input, %rax
	cmpl	$0, 3584(%rax)
	je	.LBB2_5
# %bb.1:                                # %if.then
	movq	input, %rsi
	addq	$3384, %rsi             # imm = 0xD38
	movabsq	$.L.str.6, %rdi
	movb	$0, %al
	callq	printf
	movq	input, %rdi
	addq	$3384, %rdi             # imm = 0xD38
	xorl	%esi, %esi
	callq	GetConfigFileContent
	movq	%rax, -16(%rbp)
	cmpq	$0, -16(%rbp)
	je	.LBB2_3
# %bb.2:                                # %if.then4
	movq	-16(%rbp), %rbx
	movq	-16(%rbp), %rdi
	callq	strlen
	movq	%rbx, %rdi
	movl	%eax, %esi
	callq	ParseQOffsetMatrix
	jmp	.LBB2_4
.LBB2_3:                                # %if.else
	movabsq	$.L.str.7, %rdi
	movabsq	$errortext, %rsi
	movb	$0, %al
	callq	printf
	movq	input, %rax
	movl	$0, 3584(%rax)
.LBB2_4:                                # %if.end
	movabsq	$.L.str.8, %rdi
	movb	$0, %al
	callq	printf
	movq	-16(%rbp), %rdi
	callq	free
.LBB2_5:                                # %if.end9
	addq	$8, %rsp
	popq	%rbx
	popq	%rbp
	.cfi_def_cfa %rsp, 8
	retq
.Lfunc_end2:
	.size	Init_QOffsetMatrix, .Lfunc_end2-Init_QOffsetMatrix
	.cfi_endproc
                                        # -- End function
	.globl	CalculateOffsetParam    # -- Begin function CalculateOffsetParam
	.p2align	4, 0x90
	.type	CalculateOffsetParam,@function
CalculateOffsetParam:                   # @CalculateOffsetParam
	.cfi_startproc
# %bb.0:                                # %rand_bb
	pushq	%rbp
	.cfi_def_cfa_offset 16
	.cfi_offset %rbp, -16
	movq	%rsp, %rbp
	.cfi_def_cfa_register %rbp
	callq	get_urand
	cmpl	$0, %eax
	jne	.LBB3_9
# %bb.1:                                # %func_CalculateOffsetParam.1
	callq	CalculateOffsetParam.1
	popq	%rbp
	.cfi_def_cfa %rsp, 8
	retq
.LBB3_2:                                # %func_CalculateOffsetParam.5
	.cfi_def_cfa %rbp, 16
	callq	CalculateOffsetParam.5
	popq	%rbp
	.cfi_def_cfa %rsp, 8
	retq
.LBB3_3:                                # %func_CalculateOffsetParam.8
	.cfi_def_cfa %rbp, 16
	callq	CalculateOffsetParam.8
	popq	%rbp
	.cfi_def_cfa %rsp, 8
	retq
.LBB3_4:                                # %func_CalculateOffsetParam.11
	.cfi_def_cfa %rbp, 16
	callq	CalculateOffsetParam.11
	popq	%rbp
	.cfi_def_cfa %rsp, 8
	retq
.LBB3_5:                                # %func_CalculateOffsetParam.17
	.cfi_def_cfa %rbp, 16
	callq	CalculateOffsetParam.17
	popq	%rbp
	.cfi_def_cfa %rsp, 8
	retq
.LBB3_6:                                # %func_CalculateOffsetParam.20
	.cfi_def_cfa %rbp, 16
	callq	CalculateOffsetParam.20
	popq	%rbp
	.cfi_def_cfa %rsp, 8
	retq
.LBB3_7:                                # %func_CalculateOffsetParam.22
	.cfi_def_cfa %rbp, 16
	callq	CalculateOffsetParam.22
	popq	%rbp
	.cfi_def_cfa %rsp, 8
	retq
.LBB3_8:                                # %func_CalculateOffsetParam.24
	.cfi_def_cfa %rbp, 16
	callq	CalculateOffsetParam.24
	popq	%rbp
	.cfi_def_cfa %rsp, 8
	retq
.LBB3_9:                                # %ctrl0
	.cfi_def_cfa %rbp, 16
	cmpl	$1, %eax
	je	.LBB3_2
# %bb.10:                               # %ctrl1
	cmpl	$2, %eax
	je	.LBB3_3
# %bb.11:                               # %ctrl2
	cmpl	$3, %eax
	je	.LBB3_4
# %bb.12:                               # %ctrl3
	cmpl	$4, %eax
	je	.LBB3_5
# %bb.13:                               # %ctrl4
	cmpl	$5, %eax
	je	.LBB3_6
# %bb.14:                               # %ctrl5
	cmpl	$6, %eax
	je	.LBB3_7
	jmp	.LBB3_8
.Lfunc_end3:
	.size	CalculateOffsetParam, .Lfunc_end3-CalculateOffsetParam
	.cfi_endproc
                                        # -- End function
	.globl	CalculateOffset8Param   # -- Begin function CalculateOffset8Param
	.p2align	4, 0x90
	.type	CalculateOffset8Param,@function
CalculateOffset8Param:                  # @CalculateOffset8Param
	.cfi_startproc
# %bb.0:                                # %rand_bb
	pushq	%rbp
	.cfi_def_cfa_offset 16
	.cfi_offset %rbp, -16
	movq	%rsp, %rbp
	.cfi_def_cfa_register %rbp
	callq	get_urand
	cmpl	$0, %eax
	jne	.LBB4_9
# %bb.1:                                # %func_CalculateOffset8Param.2
	callq	CalculateOffset8Param.2
	popq	%rbp
	.cfi_def_cfa %rsp, 8
	retq
.LBB4_2:                                # %func_CalculateOffset8Param.3
	.cfi_def_cfa %rbp, 16
	callq	CalculateOffset8Param.3
	popq	%rbp
	.cfi_def_cfa %rsp, 8
	retq
.LBB4_3:                                # %func_CalculateOffset8Param.10
	.cfi_def_cfa %rbp, 16
	callq	CalculateOffset8Param.10
	popq	%rbp
	.cfi_def_cfa %rsp, 8
	retq
.LBB4_4:                                # %func_CalculateOffset8Param.13
	.cfi_def_cfa %rbp, 16
	callq	CalculateOffset8Param.13
	popq	%rbp
	.cfi_def_cfa %rsp, 8
	retq
.LBB4_5:                                # %func_CalculateOffset8Param.15
	.cfi_def_cfa %rbp, 16
	callq	CalculateOffset8Param.15
	popq	%rbp
	.cfi_def_cfa %rsp, 8
	retq
.LBB4_6:                                # %func_CalculateOffset8Param.16
	.cfi_def_cfa %rbp, 16
	callq	CalculateOffset8Param.16
	popq	%rbp
	.cfi_def_cfa %rsp, 8
	retq
.LBB4_7:                                # %func_CalculateOffset8Param.18
	.cfi_def_cfa %rbp, 16
	callq	CalculateOffset8Param.18
	popq	%rbp
	.cfi_def_cfa %rsp, 8
	retq
.LBB4_8:                                # %func_CalculateOffset8Param.19
	.cfi_def_cfa %rbp, 16
	callq	CalculateOffset8Param.19
	popq	%rbp
	.cfi_def_cfa %rsp, 8
	retq
.LBB4_9:                                # %ctrl0
	.cfi_def_cfa %rbp, 16
	cmpl	$1, %eax
	je	.LBB4_2
# %bb.10:                               # %ctrl1
	cmpl	$2, %eax
	je	.LBB4_3
# %bb.11:                               # %ctrl2
	cmpl	$3, %eax
	je	.LBB4_4
# %bb.12:                               # %ctrl3
	cmpl	$4, %eax
	je	.LBB4_5
# %bb.13:                               # %ctrl4
	cmpl	$5, %eax
	je	.LBB4_6
# %bb.14:                               # %ctrl5
	cmpl	$6, %eax
	je	.LBB4_7
	jmp	.LBB4_8
.Lfunc_end4:
	.size	CalculateOffset8Param, .Lfunc_end4-CalculateOffset8Param
	.cfi_endproc
                                        # -- End function
	.globl	CalculateOffsetParam.1  # -- Begin function CalculateOffsetParam.1
	.p2align	4, 0x90
	.type	CalculateOffsetParam.1,@function
CalculateOffsetParam.1:                 # @CalculateOffsetParam.1
	.cfi_startproc
# %bb.0:                                # %entry
	pushq	%rbp
	.cfi_def_cfa_offset 16
	.cfi_offset %rbp, -16
	movq	%rsp, %rbp
	.cfi_def_cfa_register %rbp
	subq	$32, %rsp
	movl	$2100756765, -24(%rbp)  # imm = 0x7D37011D
	movq	input, %rax
	cmpl	$0, 3584(%rax)
	je	.LBB5_17
# %bb.1:                                # %if.then
	movl	$0, -12(%rbp)
.LBB5_2:                                # %for.cond
                                        # =>This Loop Header: Depth=1
                                        #     Child Loop BB5_4 Depth 2
                                        #       Child Loop BB5_6 Depth 3
	cmpl	$13, -12(%rbp)
	jge	.LBB5_16
# %bb.3:                                # %for.body
                                        #   in Loop: Header=BB5_2 Depth=1
	movl	-12(%rbp), %eax
	addl	$15, %eax
	subl	$10, %eax
	movl	%eax, -20(%rbp)
	movl	$0, -8(%rbp)
.LBB5_4:                                # %for.cond1
                                        #   Parent Loop BB5_2 Depth=1
                                        # =>  This Loop Header: Depth=2
                                        #       Child Loop BB5_6 Depth 3
	cmpl	$4, -8(%rbp)
	jge	.LBB5_14
# %bb.5:                                # %for.body3
                                        #   in Loop: Header=BB5_4 Depth=2
	movl	$0, -4(%rbp)
.LBB5_6:                                # %for.cond4
                                        #   Parent Loop BB5_2 Depth=1
                                        #     Parent Loop BB5_4 Depth=2
                                        # =>    This Inner Loop Header: Depth=3
	cmpl	$4, -4(%rbp)
	jge	.LBB5_12
# %bb.7:                                # %for.body6
                                        #   in Loop: Header=BB5_6 Depth=3
	movl	-4(%rbp), %eax
	shll	$2, %eax
	addl	-8(%rbp), %eax
	movl	%eax, -16(%rbp)
	movq	img, %rax
	cmpl	$2, 24(%rax)
	jne	.LBB5_9
# %bb.8:                                # %if.then9
                                        #   in Loop: Header=BB5_6 Depth=3
	movabsq	$LevelOffset4x4Chroma_Intra, %rdx
	movq	%rdx, %rax
	addq	$832, %rax              # imm = 0x340
	movslq	-16(%rbp), %rcx
	movswl	OffsetList4x4input(,%rcx,2), %esi
	movl	-20(%rbp), %ecx
                                        # kill: def $cl killed $ecx
	shll	%cl, %esi
	movslq	-12(%rbp), %rcx
	shlq	$6, %rcx
	movabsq	$LevelOffset4x4Luma_Intra, %rdi
	addq	%rcx, %rdi
	movslq	-8(%rbp), %rcx
	shlq	$4, %rcx
	addq	%rcx, %rdi
	movslq	-4(%rbp), %rcx
	movl	%esi, (%rdi,%rcx,4)
	movslq	-16(%rbp), %rcx
	movswl	OffsetList4x4input+32(,%rcx,2), %esi
	movl	-20(%rbp), %ecx
                                        # kill: def $cl killed $ecx
	shll	%cl, %esi
	movslq	-12(%rbp), %rcx
	shlq	$6, %rcx
	addq	%rcx, %rdx
	movslq	-8(%rbp), %rcx
	shlq	$4, %rcx
	addq	%rcx, %rdx
	movslq	-4(%rbp), %rcx
	movl	%esi, (%rdx,%rcx,4)
	movslq	-16(%rbp), %rcx
	movswl	OffsetList4x4input+64(,%rcx,2), %edx
	movl	-20(%rbp), %ecx
                                        # kill: def $cl killed $ecx
	shll	%cl, %edx
	movslq	-12(%rbp), %rcx
	shlq	$6, %rcx
	addq	%rcx, %rax
	movslq	-8(%rbp), %rcx
	shlq	$4, %rcx
	addq	%rcx, %rax
	movslq	-4(%rbp), %rcx
	movl	%edx, (%rax,%rcx,4)
	jmp	.LBB5_10
.LBB5_9:                                # %if.else
                                        #   in Loop: Header=BB5_6 Depth=3
	movabsq	$LevelOffset4x4Chroma_Intra, %rdx
	movq	%rdx, %rax
	addq	$832, %rax              # imm = 0x340
	movslq	-16(%rbp), %rcx
	movswl	OffsetList4x4input+96(,%rcx,2), %esi
	movl	-20(%rbp), %ecx
                                        # kill: def $cl killed $ecx
	shll	%cl, %esi
	movslq	-12(%rbp), %rcx
	shlq	$6, %rcx
	movabsq	$LevelOffset4x4Luma_Intra, %rdi
	addq	%rcx, %rdi
	movslq	-8(%rbp), %rcx
	shlq	$4, %rcx
	addq	%rcx, %rdi
	movslq	-4(%rbp), %rcx
	movl	%esi, (%rdi,%rcx,4)
	movslq	-16(%rbp), %rcx
	movswl	OffsetList4x4input+128(,%rcx,2), %esi
	movl	-20(%rbp), %ecx
                                        # kill: def $cl killed $ecx
	shll	%cl, %esi
	movslq	-12(%rbp), %rcx
	shlq	$6, %rcx
	addq	%rcx, %rdx
	movslq	-8(%rbp), %rcx
	shlq	$4, %rcx
	addq	%rcx, %rdx
	movslq	-4(%rbp), %rcx
	movl	%esi, (%rdx,%rcx,4)
	movslq	-16(%rbp), %rcx
	movswl	OffsetList4x4input+160(,%rcx,2), %edx
	movl	-20(%rbp), %ecx
                                        # kill: def $cl killed $ecx
	shll	%cl, %edx
	movslq	-12(%rbp), %rcx
	shlq	$6, %rcx
	addq	%rcx, %rax
	movslq	-8(%rbp), %rcx
	shlq	$4, %rcx
	addq	%rcx, %rax
	movslq	-4(%rbp), %rcx
	movl	%edx, (%rax,%rcx,4)
.LBB5_10:                               # %if.end
                                        #   in Loop: Header=BB5_6 Depth=3
	movabsq	$LevelOffset4x4Chroma_Inter, %rdx
	movq	%rdx, %rax
	addq	$832, %rax              # imm = 0x340
	movslq	-16(%rbp), %rcx
	movswl	OffsetList4x4input+192(,%rcx,2), %esi
	movl	-20(%rbp), %ecx
                                        # kill: def $cl killed $ecx
	shll	%cl, %esi
	movslq	-12(%rbp), %rcx
	shlq	$6, %rcx
	movabsq	$LevelOffset4x4Luma_Inter, %rdi
	addq	%rcx, %rdi
	movslq	-8(%rbp), %rcx
	shlq	$4, %rcx
	addq	%rcx, %rdi
	movslq	-4(%rbp), %rcx
	movl	%esi, (%rdi,%rcx,4)
	movslq	-16(%rbp), %rcx
	movswl	OffsetList4x4input+224(,%rcx,2), %esi
	movl	-20(%rbp), %ecx
                                        # kill: def $cl killed $ecx
	shll	%cl, %esi
	movslq	-12(%rbp), %rcx
	shlq	$6, %rcx
	addq	%rcx, %rdx
	movslq	-8(%rbp), %rcx
	shlq	$4, %rcx
	addq	%rcx, %rdx
	movslq	-4(%rbp), %rcx
	movl	%esi, (%rdx,%rcx,4)
	movslq	-16(%rbp), %rcx
	movswl	OffsetList4x4input+256(,%rcx,2), %edx
	movl	-20(%rbp), %ecx
                                        # kill: def $cl killed $ecx
	shll	%cl, %edx
	movslq	-12(%rbp), %rcx
	shlq	$6, %rcx
	addq	%rcx, %rax
	movslq	-8(%rbp), %rcx
	shlq	$4, %rcx
	addq	%rcx, %rax
	movslq	-4(%rbp), %rcx
	movl	%edx, (%rax,%rcx,4)
# %bb.11:                               # %for.inc
                                        #   in Loop: Header=BB5_6 Depth=3
	movl	-4(%rbp), %eax
	addl	$1, %eax
	movl	%eax, -4(%rbp)
	jmp	.LBB5_6
.LBB5_12:                               # %for.end
                                        #   in Loop: Header=BB5_4 Depth=2
	jmp	.LBB5_13
.LBB5_13:                               # %for.inc97
                                        #   in Loop: Header=BB5_4 Depth=2
	movl	-8(%rbp), %eax
	addl	$1, %eax
	movl	%eax, -8(%rbp)
	jmp	.LBB5_4
.LBB5_14:                               # %for.end99
                                        #   in Loop: Header=BB5_2 Depth=1
	jmp	.LBB5_15
.LBB5_15:                               # %for.inc100
                                        #   in Loop: Header=BB5_2 Depth=1
	movl	-12(%rbp), %eax
	addl	$1, %eax
	movl	%eax, -12(%rbp)
	jmp	.LBB5_2
.LBB5_16:                               # %for.end102
	jmp	.LBB5_33
.LBB5_17:                               # %if.else103
	movl	$0, -12(%rbp)
.LBB5_18:                               # %for.cond104
                                        # =>This Loop Header: Depth=1
                                        #     Child Loop BB5_20 Depth 2
                                        #       Child Loop BB5_22 Depth 3
	cmpl	$13, -12(%rbp)
	jge	.LBB5_32
# %bb.19:                               # %for.body107
                                        #   in Loop: Header=BB5_18 Depth=1
	movl	-12(%rbp), %eax
	addl	$15, %eax
	subl	$10, %eax
	movl	%eax, -20(%rbp)
	movl	$0, -8(%rbp)
.LBB5_20:                               # %for.cond110
                                        #   Parent Loop BB5_18 Depth=1
                                        # =>  This Loop Header: Depth=2
                                        #       Child Loop BB5_22 Depth 3
	cmpl	$4, -8(%rbp)
	jge	.LBB5_30
# %bb.21:                               # %for.body113
                                        #   in Loop: Header=BB5_20 Depth=2
	movl	$0, -4(%rbp)
.LBB5_22:                               # %for.cond114
                                        #   Parent Loop BB5_18 Depth=1
                                        #     Parent Loop BB5_20 Depth=2
                                        # =>    This Inner Loop Header: Depth=3
	cmpl	$4, -4(%rbp)
	jge	.LBB5_28
# %bb.23:                               # %for.body117
                                        #   in Loop: Header=BB5_22 Depth=3
	movl	-4(%rbp), %eax
	shll	$2, %eax
	addl	-8(%rbp), %eax
	movl	%eax, -16(%rbp)
	movq	img, %rax
	cmpl	$2, 24(%rax)
	jne	.LBB5_25
# %bb.24:                               # %if.then123
                                        #   in Loop: Header=BB5_22 Depth=3
	movabsq	$LevelOffset4x4Chroma_Intra, %rdx
	movq	%rdx, %rax
	addq	$832, %rax              # imm = 0x340
	movslq	-16(%rbp), %rcx
	movswl	Offset_intra_default_intra(,%rcx,2), %esi
	movl	-20(%rbp), %ecx
                                        # kill: def $cl killed $ecx
	shll	%cl, %esi
	movslq	-12(%rbp), %rcx
	shlq	$6, %rcx
	movabsq	$LevelOffset4x4Luma_Intra, %rdi
	addq	%rcx, %rdi
	movslq	-8(%rbp), %rcx
	shlq	$4, %rcx
	addq	%rcx, %rdi
	movslq	-4(%rbp), %rcx
	movl	%esi, (%rdi,%rcx,4)
	movslq	-16(%rbp), %rcx
	movswl	Offset_intra_default_intra(,%rcx,2), %esi
	movl	-20(%rbp), %ecx
                                        # kill: def $cl killed $ecx
	shll	%cl, %esi
	movslq	-12(%rbp), %rcx
	shlq	$6, %rcx
	addq	%rcx, %rdx
	movslq	-8(%rbp), %rcx
	shlq	$4, %rcx
	addq	%rcx, %rdx
	movslq	-4(%rbp), %rcx
	movl	%esi, (%rdx,%rcx,4)
	movslq	-16(%rbp), %rcx
	movswl	Offset_intra_default_intra(,%rcx,2), %edx
	movl	-20(%rbp), %ecx
                                        # kill: def $cl killed $ecx
	shll	%cl, %edx
	movslq	-12(%rbp), %rcx
	shlq	$6, %rcx
	addq	%rcx, %rax
	movslq	-8(%rbp), %rcx
	shlq	$4, %rcx
	addq	%rcx, %rax
	movslq	-4(%rbp), %rcx
	movl	%edx, (%rax,%rcx,4)
	jmp	.LBB5_26
.LBB5_25:                               # %if.else154
                                        #   in Loop: Header=BB5_22 Depth=3
	movabsq	$LevelOffset4x4Chroma_Intra, %rdx
	movq	%rdx, %rax
	addq	$832, %rax              # imm = 0x340
	movslq	-16(%rbp), %rcx
	movswl	Offset_intra_default_inter(,%rcx,2), %esi
	movl	-20(%rbp), %ecx
                                        # kill: def $cl killed $ecx
	shll	%cl, %esi
	movslq	-12(%rbp), %rcx
	shlq	$6, %rcx
	movabsq	$LevelOffset4x4Luma_Intra, %rdi
	addq	%rcx, %rdi
	movslq	-8(%rbp), %rcx
	shlq	$4, %rcx
	addq	%rcx, %rdi
	movslq	-4(%rbp), %rcx
	movl	%esi, (%rdi,%rcx,4)
	movslq	-16(%rbp), %rcx
	movswl	Offset_intra_default_inter(,%rcx,2), %esi
	movl	-20(%rbp), %ecx
                                        # kill: def $cl killed $ecx
	shll	%cl, %esi
	movslq	-12(%rbp), %rcx
	shlq	$6, %rcx
	addq	%rcx, %rdx
	movslq	-8(%rbp), %rcx
	shlq	$4, %rcx
	addq	%rcx, %rdx
	movslq	-4(%rbp), %rcx
	movl	%esi, (%rdx,%rcx,4)
	movslq	-16(%rbp), %rcx
	movswl	Offset_intra_default_inter(,%rcx,2), %edx
	movl	-20(%rbp), %ecx
                                        # kill: def $cl killed $ecx
	shll	%cl, %edx
	movslq	-12(%rbp), %rcx
	shlq	$6, %rcx
	addq	%rcx, %rax
	movslq	-8(%rbp), %rcx
	shlq	$4, %rcx
	addq	%rcx, %rax
	movslq	-4(%rbp), %rcx
	movl	%edx, (%rax,%rcx,4)
.LBB5_26:                               # %if.end185
                                        #   in Loop: Header=BB5_22 Depth=3
	movabsq	$LevelOffset4x4Chroma_Inter, %rdx
	movq	%rdx, %rax
	addq	$832, %rax              # imm = 0x340
	movslq	-16(%rbp), %rcx
	movswl	Offset_inter_default(,%rcx,2), %esi
	movl	-20(%rbp), %ecx
                                        # kill: def $cl killed $ecx
	shll	%cl, %esi
	movslq	-12(%rbp), %rcx
	shlq	$6, %rcx
	movabsq	$LevelOffset4x4Luma_Inter, %rdi
	addq	%rcx, %rdi
	movslq	-8(%rbp), %rcx
	shlq	$4, %rcx
	addq	%rcx, %rdi
	movslq	-4(%rbp), %rcx
	movl	%esi, (%rdi,%rcx,4)
	movslq	-16(%rbp), %rcx
	movswl	Offset_inter_default(,%rcx,2), %esi
	movl	-20(%rbp), %ecx
                                        # kill: def $cl killed $ecx
	shll	%cl, %esi
	movslq	-12(%rbp), %rcx
	shlq	$6, %rcx
	addq	%rcx, %rdx
	movslq	-8(%rbp), %rcx
	shlq	$4, %rcx
	addq	%rcx, %rdx
	movslq	-4(%rbp), %rcx
	movl	%esi, (%rdx,%rcx,4)
	movslq	-16(%rbp), %rcx
	movswl	Offset_inter_default(,%rcx,2), %edx
	movl	-20(%rbp), %ecx
                                        # kill: def $cl killed $ecx
	shll	%cl, %edx
	movslq	-12(%rbp), %rcx
	shlq	$6, %rcx
	addq	%rcx, %rax
	movslq	-8(%rbp), %rcx
	shlq	$4, %rcx
	addq	%rcx, %rax
	movslq	-4(%rbp), %rcx
	movl	%edx, (%rax,%rcx,4)
# %bb.27:                               # %for.inc216
                                        #   in Loop: Header=BB5_22 Depth=3
	movl	-4(%rbp), %eax
	addl	$1, %eax
	movl	%eax, -4(%rbp)
	jmp	.LBB5_22
.LBB5_28:                               # %for.end218
                                        #   in Loop: Header=BB5_20 Depth=2
	jmp	.LBB5_29
.LBB5_29:                               # %for.inc219
                                        #   in Loop: Header=BB5_20 Depth=2
	movl	-8(%rbp), %eax
	addl	$1, %eax
	movl	%eax, -8(%rbp)
	jmp	.LBB5_20
.LBB5_30:                               # %for.end221
                                        #   in Loop: Header=BB5_18 Depth=1
	jmp	.LBB5_31
.LBB5_31:                               # %for.inc222
                                        #   in Loop: Header=BB5_18 Depth=1
	movl	-12(%rbp), %eax
	addl	$1, %eax
	movl	%eax, -12(%rbp)
	jmp	.LBB5_18
.LBB5_32:                               # %for.end224
	jmp	.LBB5_33
.LBB5_33:                               # %if.end225
	cmpl	$2100756765, -24(%rbp)  # imm = 0x7D37011D
	jne	.LBB5_35
.LBB5_34:
	addq	$32, %rsp
	popq	%rbp
	.cfi_def_cfa %rsp, 8
	retq
.LBB5_35:                               # %func_exit
	.cfi_def_cfa %rbp, 16
	callq	detect_breach
	jmp	.LBB5_34
.Lfunc_end5:
	.size	CalculateOffsetParam.1, .Lfunc_end5-CalculateOffsetParam.1
	.cfi_endproc
                                        # -- End function
	.globl	CalculateOffset8Param.2 # -- Begin function CalculateOffset8Param.2
	.p2align	4, 0x90
	.type	CalculateOffset8Param.2,@function
CalculateOffset8Param.2:                # @CalculateOffset8Param.2
	.cfi_startproc
# %bb.0:                                # %entry
	pushq	%rbp
	.cfi_def_cfa_offset 16
	.cfi_offset %rbp, -16
	movq	%rsp, %rbp
	.cfi_def_cfa_register %rbp
	subq	$32, %rsp
	movl	$50480737, -24(%rbp)    # imm = 0x3024661
	movq	input, %rax
	cmpl	$0, 3584(%rax)
	je	.LBB6_17
# %bb.1:                                # %if.then
	movl	$0, -12(%rbp)
.LBB6_2:                                # %for.cond
                                        # =>This Loop Header: Depth=1
                                        #     Child Loop BB6_4 Depth 2
                                        #       Child Loop BB6_6 Depth 3
	cmpl	$13, -12(%rbp)
	jge	.LBB6_16
# %bb.3:                                # %for.body
                                        #   in Loop: Header=BB6_2 Depth=1
	movl	-12(%rbp), %eax
	addl	$16, %eax
	subl	$10, %eax
	movl	%eax, -16(%rbp)
	movl	$0, -8(%rbp)
.LBB6_4:                                # %for.cond1
                                        #   Parent Loop BB6_2 Depth=1
                                        # =>  This Loop Header: Depth=2
                                        #       Child Loop BB6_6 Depth 3
	cmpl	$8, -8(%rbp)
	jge	.LBB6_14
# %bb.5:                                # %for.body3
                                        #   in Loop: Header=BB6_4 Depth=2
	movl	$0, -4(%rbp)
.LBB6_6:                                # %for.cond4
                                        #   Parent Loop BB6_2 Depth=1
                                        #     Parent Loop BB6_4 Depth=2
                                        # =>    This Inner Loop Header: Depth=3
	cmpl	$8, -4(%rbp)
	jge	.LBB6_12
# %bb.7:                                # %for.body6
                                        #   in Loop: Header=BB6_6 Depth=3
	movl	-4(%rbp), %eax
	shll	$3, %eax
	addl	-8(%rbp), %eax
	movl	%eax, -20(%rbp)
	movq	img, %rax
	cmpl	$2, 24(%rax)
	jne	.LBB6_9
# %bb.8:                                # %if.then9
                                        #   in Loop: Header=BB6_6 Depth=3
	movslq	-20(%rbp), %rax
	movswl	OffsetList8x8input(,%rax,2), %eax
	movl	-16(%rbp), %ecx
                                        # kill: def $cl killed $ecx
	shll	%cl, %eax
	movslq	-12(%rbp), %rcx
	shlq	$8, %rcx
	movabsq	$LevelOffset8x8Luma_Intra, %rdx
	addq	%rcx, %rdx
	movslq	-8(%rbp), %rcx
	shlq	$5, %rcx
	addq	%rcx, %rdx
	movslq	-4(%rbp), %rcx
	movl	%eax, (%rdx,%rcx,4)
	jmp	.LBB6_10
.LBB6_9:                                # %if.else
                                        #   in Loop: Header=BB6_6 Depth=3
	movslq	-20(%rbp), %rax
	movswl	OffsetList8x8input+128(,%rax,2), %eax
	movl	-16(%rbp), %ecx
                                        # kill: def $cl killed $ecx
	shll	%cl, %eax
	movslq	-12(%rbp), %rcx
	shlq	$8, %rcx
	movabsq	$LevelOffset8x8Luma_Intra, %rdx
	addq	%rcx, %rdx
	movslq	-8(%rbp), %rcx
	shlq	$5, %rcx
	addq	%rcx, %rdx
	movslq	-4(%rbp), %rcx
	movl	%eax, (%rdx,%rcx,4)
.LBB6_10:                               # %if.end
                                        #   in Loop: Header=BB6_6 Depth=3
	movslq	-20(%rbp), %rax
	movswl	OffsetList8x8input+256(,%rax,2), %eax
	movl	-16(%rbp), %ecx
                                        # kill: def $cl killed $ecx
	shll	%cl, %eax
	movslq	-12(%rbp), %rcx
	shlq	$8, %rcx
	movabsq	$LevelOffset8x8Luma_Inter, %rdx
	addq	%rcx, %rdx
	movslq	-8(%rbp), %rcx
	shlq	$5, %rcx
	addq	%rcx, %rdx
	movslq	-4(%rbp), %rcx
	movl	%eax, (%rdx,%rcx,4)
# %bb.11:                               # %for.inc
                                        #   in Loop: Header=BB6_6 Depth=3
	movl	-4(%rbp), %eax
	addl	$1, %eax
	movl	%eax, -4(%rbp)
	jmp	.LBB6_6
.LBB6_12:                               # %for.end
                                        #   in Loop: Header=BB6_4 Depth=2
	jmp	.LBB6_13
.LBB6_13:                               # %for.inc37
                                        #   in Loop: Header=BB6_4 Depth=2
	movl	-8(%rbp), %eax
	addl	$1, %eax
	movl	%eax, -8(%rbp)
	jmp	.LBB6_4
.LBB6_14:                               # %for.end39
                                        #   in Loop: Header=BB6_2 Depth=1
	jmp	.LBB6_15
.LBB6_15:                               # %for.inc40
                                        #   in Loop: Header=BB6_2 Depth=1
	movl	-12(%rbp), %eax
	addl	$1, %eax
	movl	%eax, -12(%rbp)
	jmp	.LBB6_2
.LBB6_16:                               # %for.end42
	jmp	.LBB6_33
.LBB6_17:                               # %if.else43
	movl	$0, -12(%rbp)
.LBB6_18:                               # %for.cond44
                                        # =>This Loop Header: Depth=1
                                        #     Child Loop BB6_20 Depth 2
                                        #       Child Loop BB6_22 Depth 3
	cmpl	$13, -12(%rbp)
	jge	.LBB6_32
# %bb.19:                               # %for.body47
                                        #   in Loop: Header=BB6_18 Depth=1
	movl	-12(%rbp), %eax
	addl	$16, %eax
	subl	$10, %eax
	movl	%eax, -16(%rbp)
	movl	$0, -8(%rbp)
.LBB6_20:                               # %for.cond50
                                        #   Parent Loop BB6_18 Depth=1
                                        # =>  This Loop Header: Depth=2
                                        #       Child Loop BB6_22 Depth 3
	cmpl	$8, -8(%rbp)
	jge	.LBB6_30
# %bb.21:                               # %for.body53
                                        #   in Loop: Header=BB6_20 Depth=2
	movl	$0, -4(%rbp)
.LBB6_22:                               # %for.cond54
                                        #   Parent Loop BB6_18 Depth=1
                                        #     Parent Loop BB6_20 Depth=2
                                        # =>    This Inner Loop Header: Depth=3
	cmpl	$8, -4(%rbp)
	jge	.LBB6_28
# %bb.23:                               # %for.body57
                                        #   in Loop: Header=BB6_22 Depth=3
	movl	-4(%rbp), %eax
	shll	$3, %eax
	addl	-8(%rbp), %eax
	movl	%eax, -20(%rbp)
	movq	img, %rax
	cmpl	$2, 24(%rax)
	jne	.LBB6_25
# %bb.24:                               # %if.then63
                                        #   in Loop: Header=BB6_22 Depth=3
	movslq	-20(%rbp), %rax
	movswl	Offset8_intra_default_intra(,%rax,2), %eax
	movl	-16(%rbp), %ecx
                                        # kill: def $cl killed $ecx
	shll	%cl, %eax
	movslq	-12(%rbp), %rcx
	shlq	$8, %rcx
	movabsq	$LevelOffset8x8Luma_Intra, %rdx
	addq	%rcx, %rdx
	movslq	-8(%rbp), %rcx
	shlq	$5, %rcx
	addq	%rcx, %rdx
	movslq	-4(%rbp), %rcx
	movl	%eax, (%rdx,%rcx,4)
	jmp	.LBB6_26
.LBB6_25:                               # %if.else74
                                        #   in Loop: Header=BB6_22 Depth=3
	movslq	-20(%rbp), %rax
	movswl	Offset8_intra_default_inter(,%rax,2), %eax
	movl	-16(%rbp), %ecx
                                        # kill: def $cl killed $ecx
	shll	%cl, %eax
	movslq	-12(%rbp), %rcx
	shlq	$8, %rcx
	movabsq	$LevelOffset8x8Luma_Intra, %rdx
	addq	%rcx, %rdx
	movslq	-8(%rbp), %rcx
	shlq	$5, %rcx
	addq	%rcx, %rdx
	movslq	-4(%rbp), %rcx
	movl	%eax, (%rdx,%rcx,4)
.LBB6_26:                               # %if.end85
                                        #   in Loop: Header=BB6_22 Depth=3
	movslq	-20(%rbp), %rax
	movswl	Offset8_inter_default(,%rax,2), %eax
	movl	-16(%rbp), %ecx
                                        # kill: def $cl killed $ecx
	shll	%cl, %eax
	movslq	-12(%rbp), %rcx
	shlq	$8, %rcx
	movabsq	$LevelOffset8x8Luma_Inter, %rdx
	addq	%rcx, %rdx
	movslq	-8(%rbp), %rcx
	shlq	$5, %rcx
	addq	%rcx, %rdx
	movslq	-4(%rbp), %rcx
	movl	%eax, (%rdx,%rcx,4)
# %bb.27:                               # %for.inc96
                                        #   in Loop: Header=BB6_22 Depth=3
	movl	-4(%rbp), %eax
	addl	$1, %eax
	movl	%eax, -4(%rbp)
	jmp	.LBB6_22
.LBB6_28:                               # %for.end98
                                        #   in Loop: Header=BB6_20 Depth=2
	jmp	.LBB6_29
.LBB6_29:                               # %for.inc99
                                        #   in Loop: Header=BB6_20 Depth=2
	movl	-8(%rbp), %eax
	addl	$1, %eax
	movl	%eax, -8(%rbp)
	jmp	.LBB6_20
.LBB6_30:                               # %for.end101
                                        #   in Loop: Header=BB6_18 Depth=1
	jmp	.LBB6_31
.LBB6_31:                               # %for.inc102
                                        #   in Loop: Header=BB6_18 Depth=1
	movl	-12(%rbp), %eax
	addl	$1, %eax
	movl	%eax, -12(%rbp)
	jmp	.LBB6_18
.LBB6_32:                               # %for.end104
	jmp	.LBB6_33
.LBB6_33:                               # %if.end105
	cmpl	$50480737, -24(%rbp)    # imm = 0x3024661
	jne	.LBB6_35
.LBB6_34:
	addq	$32, %rsp
	popq	%rbp
	.cfi_def_cfa %rsp, 8
	retq
.LBB6_35:                               # %func_exit
	.cfi_def_cfa %rbp, 16
	callq	detect_breach
	jmp	.LBB6_34
.Lfunc_end6:
	.size	CalculateOffset8Param.2, .Lfunc_end6-CalculateOffset8Param.2
	.cfi_endproc
                                        # -- End function
	.globl	CalculateOffset8Param.3 # -- Begin function CalculateOffset8Param.3
	.p2align	4, 0x90
	.type	CalculateOffset8Param.3,@function
CalculateOffset8Param.3:                # @CalculateOffset8Param.3
	.cfi_startproc
# %bb.0:                                # %entry
	pushq	%rbp
	.cfi_def_cfa_offset 16
	.cfi_offset %rbp, -16
	movq	%rsp, %rbp
	.cfi_def_cfa_register %rbp
	subq	$32, %rsp
	movl	$263630180, -24(%rbp)   # imm = 0xFB6AD64
	movq	input, %rax
	cmpl	$0, 3584(%rax)
	je	.LBB7_17
# %bb.1:                                # %if.then
	movl	$0, -4(%rbp)
.LBB7_2:                                # %for.cond
                                        # =>This Loop Header: Depth=1
                                        #     Child Loop BB7_4 Depth 2
                                        #       Child Loop BB7_6 Depth 3
	cmpl	$13, -4(%rbp)
	jge	.LBB7_16
# %bb.3:                                # %for.body
                                        #   in Loop: Header=BB7_2 Depth=1
	movl	-4(%rbp), %eax
	addl	$16, %eax
	subl	$10, %eax
	movl	%eax, -20(%rbp)
	movl	$0, -12(%rbp)
.LBB7_4:                                # %for.cond1
                                        #   Parent Loop BB7_2 Depth=1
                                        # =>  This Loop Header: Depth=2
                                        #       Child Loop BB7_6 Depth 3
	cmpl	$8, -12(%rbp)
	jge	.LBB7_14
# %bb.5:                                # %for.body3
                                        #   in Loop: Header=BB7_4 Depth=2
	movl	$0, -8(%rbp)
.LBB7_6:                                # %for.cond4
                                        #   Parent Loop BB7_2 Depth=1
                                        #     Parent Loop BB7_4 Depth=2
                                        # =>    This Inner Loop Header: Depth=3
	cmpl	$8, -8(%rbp)
	jge	.LBB7_12
# %bb.7:                                # %for.body6
                                        #   in Loop: Header=BB7_6 Depth=3
	movl	-8(%rbp), %eax
	shll	$3, %eax
	addl	-12(%rbp), %eax
	movl	%eax, -16(%rbp)
	movq	img, %rax
	cmpl	$2, 24(%rax)
	jne	.LBB7_9
# %bb.8:                                # %if.then9
                                        #   in Loop: Header=BB7_6 Depth=3
	movslq	-16(%rbp), %rax
	movswl	OffsetList8x8input(,%rax,2), %eax
	movl	-20(%rbp), %ecx
                                        # kill: def $cl killed $ecx
	shll	%cl, %eax
	movslq	-4(%rbp), %rcx
	shlq	$8, %rcx
	movabsq	$LevelOffset8x8Luma_Intra, %rdx
	addq	%rcx, %rdx
	movslq	-12(%rbp), %rcx
	shlq	$5, %rcx
	addq	%rcx, %rdx
	movslq	-8(%rbp), %rcx
	movl	%eax, (%rdx,%rcx,4)
	jmp	.LBB7_10
.LBB7_9:                                # %if.else
                                        #   in Loop: Header=BB7_6 Depth=3
	movslq	-16(%rbp), %rax
	movswl	OffsetList8x8input+128(,%rax,2), %eax
	movl	-20(%rbp), %ecx
                                        # kill: def $cl killed $ecx
	shll	%cl, %eax
	movslq	-4(%rbp), %rcx
	shlq	$8, %rcx
	movabsq	$LevelOffset8x8Luma_Intra, %rdx
	addq	%rcx, %rdx
	movslq	-12(%rbp), %rcx
	shlq	$5, %rcx
	addq	%rcx, %rdx
	movslq	-8(%rbp), %rcx
	movl	%eax, (%rdx,%rcx,4)
.LBB7_10:                               # %if.end
                                        #   in Loop: Header=BB7_6 Depth=3
	movslq	-16(%rbp), %rax
	movswl	OffsetList8x8input+256(,%rax,2), %eax
	movl	-20(%rbp), %ecx
                                        # kill: def $cl killed $ecx
	shll	%cl, %eax
	movslq	-4(%rbp), %rcx
	shlq	$8, %rcx
	movabsq	$LevelOffset8x8Luma_Inter, %rdx
	addq	%rcx, %rdx
	movslq	-12(%rbp), %rcx
	shlq	$5, %rcx
	addq	%rcx, %rdx
	movslq	-8(%rbp), %rcx
	movl	%eax, (%rdx,%rcx,4)
# %bb.11:                               # %for.inc
                                        #   in Loop: Header=BB7_6 Depth=3
	movl	-8(%rbp), %eax
	addl	$1, %eax
	movl	%eax, -8(%rbp)
	jmp	.LBB7_6
.LBB7_12:                               # %for.end
                                        #   in Loop: Header=BB7_4 Depth=2
	jmp	.LBB7_13
.LBB7_13:                               # %for.inc37
                                        #   in Loop: Header=BB7_4 Depth=2
	movl	-12(%rbp), %eax
	addl	$1, %eax
	movl	%eax, -12(%rbp)
	jmp	.LBB7_4
.LBB7_14:                               # %for.end39
                                        #   in Loop: Header=BB7_2 Depth=1
	jmp	.LBB7_15
.LBB7_15:                               # %for.inc40
                                        #   in Loop: Header=BB7_2 Depth=1
	movl	-4(%rbp), %eax
	addl	$1, %eax
	movl	%eax, -4(%rbp)
	jmp	.LBB7_2
.LBB7_16:                               # %for.end42
	jmp	.LBB7_33
.LBB7_17:                               # %if.else43
	movl	$0, -4(%rbp)
.LBB7_18:                               # %for.cond44
                                        # =>This Loop Header: Depth=1
                                        #     Child Loop BB7_20 Depth 2
                                        #       Child Loop BB7_22 Depth 3
	cmpl	$13, -4(%rbp)
	jge	.LBB7_32
# %bb.19:                               # %for.body47
                                        #   in Loop: Header=BB7_18 Depth=1
	movl	-4(%rbp), %eax
	addl	$16, %eax
	subl	$10, %eax
	movl	%eax, -20(%rbp)
	movl	$0, -12(%rbp)
.LBB7_20:                               # %for.cond50
                                        #   Parent Loop BB7_18 Depth=1
                                        # =>  This Loop Header: Depth=2
                                        #       Child Loop BB7_22 Depth 3
	cmpl	$8, -12(%rbp)
	jge	.LBB7_30
# %bb.21:                               # %for.body53
                                        #   in Loop: Header=BB7_20 Depth=2
	movl	$0, -8(%rbp)
.LBB7_22:                               # %for.cond54
                                        #   Parent Loop BB7_18 Depth=1
                                        #     Parent Loop BB7_20 Depth=2
                                        # =>    This Inner Loop Header: Depth=3
	cmpl	$8, -8(%rbp)
	jge	.LBB7_28
# %bb.23:                               # %for.body57
                                        #   in Loop: Header=BB7_22 Depth=3
	movl	-8(%rbp), %eax
	shll	$3, %eax
	addl	-12(%rbp), %eax
	movl	%eax, -16(%rbp)
	movq	img, %rax
	cmpl	$2, 24(%rax)
	jne	.LBB7_25
# %bb.24:                               # %if.then63
                                        #   in Loop: Header=BB7_22 Depth=3
	movslq	-16(%rbp), %rax
	movswl	Offset8_intra_default_intra(,%rax,2), %eax
	movl	-20(%rbp), %ecx
                                        # kill: def $cl killed $ecx
	shll	%cl, %eax
	movslq	-4(%rbp), %rcx
	shlq	$8, %rcx
	movabsq	$LevelOffset8x8Luma_Intra, %rdx
	addq	%rcx, %rdx
	movslq	-12(%rbp), %rcx
	shlq	$5, %rcx
	addq	%rcx, %rdx
	movslq	-8(%rbp), %rcx
	movl	%eax, (%rdx,%rcx,4)
	jmp	.LBB7_26
.LBB7_25:                               # %if.else74
                                        #   in Loop: Header=BB7_22 Depth=3
	movslq	-16(%rbp), %rax
	movswl	Offset8_intra_default_inter(,%rax,2), %eax
	movl	-20(%rbp), %ecx
                                        # kill: def $cl killed $ecx
	shll	%cl, %eax
	movslq	-4(%rbp), %rcx
	shlq	$8, %rcx
	movabsq	$LevelOffset8x8Luma_Intra, %rdx
	addq	%rcx, %rdx
	movslq	-12(%rbp), %rcx
	shlq	$5, %rcx
	addq	%rcx, %rdx
	movslq	-8(%rbp), %rcx
	movl	%eax, (%rdx,%rcx,4)
.LBB7_26:                               # %if.end85
                                        #   in Loop: Header=BB7_22 Depth=3
	movslq	-16(%rbp), %rax
	movswl	Offset8_inter_default(,%rax,2), %eax
	movl	-20(%rbp), %ecx
                                        # kill: def $cl killed $ecx
	shll	%cl, %eax
	movslq	-4(%rbp), %rcx
	shlq	$8, %rcx
	movabsq	$LevelOffset8x8Luma_Inter, %rdx
	addq	%rcx, %rdx
	movslq	-12(%rbp), %rcx
	shlq	$5, %rcx
	addq	%rcx, %rdx
	movslq	-8(%rbp), %rcx
	movl	%eax, (%rdx,%rcx,4)
# %bb.27:                               # %for.inc96
                                        #   in Loop: Header=BB7_22 Depth=3
	movl	-8(%rbp), %eax
	addl	$1, %eax
	movl	%eax, -8(%rbp)
	jmp	.LBB7_22
.LBB7_28:                               # %for.end98
                                        #   in Loop: Header=BB7_20 Depth=2
	jmp	.LBB7_29
.LBB7_29:                               # %for.inc99
                                        #   in Loop: Header=BB7_20 Depth=2
	movl	-12(%rbp), %eax
	addl	$1, %eax
	movl	%eax, -12(%rbp)
	jmp	.LBB7_20
.LBB7_30:                               # %for.end101
                                        #   in Loop: Header=BB7_18 Depth=1
	jmp	.LBB7_31
.LBB7_31:                               # %for.inc102
                                        #   in Loop: Header=BB7_18 Depth=1
	movl	-4(%rbp), %eax
	addl	$1, %eax
	movl	%eax, -4(%rbp)
	jmp	.LBB7_18
.LBB7_32:                               # %for.end104
	jmp	.LBB7_33
.LBB7_33:                               # %if.end105
	cmpl	$263630180, -24(%rbp)   # imm = 0xFB6AD64
	jne	.LBB7_35
.LBB7_34:
	addq	$32, %rsp
	popq	%rbp
	.cfi_def_cfa %rsp, 8
	retq
.LBB7_35:                               # %func_exit
	.cfi_def_cfa %rbp, 16
	callq	detect_breach
	jmp	.LBB7_34
.Lfunc_end7:
	.size	CalculateOffset8Param.3, .Lfunc_end7-CalculateOffset8Param.3
	.cfi_endproc
                                        # -- End function
	.globl	CheckOffsetParameterName.4 # -- Begin function CheckOffsetParameterName.4
	.p2align	4, 0x90
	.type	CheckOffsetParameterName.4,@function
CheckOffsetParameterName.4:             # @CheckOffsetParameterName.4
	.cfi_startproc
# %bb.0:                                # %entry
	pushq	%rbp
	.cfi_def_cfa_offset 16
	.cfi_offset %rbp, -16
	movq	%rsp, %rbp
	.cfi_def_cfa_register %rbp
	pushq	%rbx
	subq	$40, %rsp
	.cfi_offset %rbx, -24
	movl	$1393863286, -20(%rbp)  # imm = 0x5314AA76
	movq	%rdi, -32(%rbp)
	movq	%rsi, -40(%rbp)
	movl	$0, -12(%rbp)
	movq	-40(%rbp), %rax
	movl	$0, (%rax)
.LBB8_1:                                # %while.cond
                                        # =>This Inner Loop Header: Depth=1
	xorl	%eax, %eax
	movslq	-12(%rbp), %rcx
	imulq	$24, %rcx, %rcx
	movabsq	$OffsetType4x4, %rdx
	addq	%rcx, %rdx
	cmpq	$0, %rdx
	je	.LBB8_3
# %bb.2:                                # %land.rhs
                                        #   in Loop: Header=BB8_1 Depth=1
	cmpl	$9, -12(%rbp)
	setl	%al
.LBB8_3:                                # %land.end
                                        #   in Loop: Header=BB8_1 Depth=1
	testb	$1, %al
	jne	.LBB8_4
	jmp	.LBB8_8
.LBB8_4:                                # %while.body
                                        #   in Loop: Header=BB8_1 Depth=1
	xorl	%ebx, %ebx
	movslq	-12(%rbp), %rax
	imulq	$24, %rax, %rax
	movabsq	$OffsetType4x4, %rdi
	addq	%rax, %rdi
	movq	-32(%rbp), %rsi
	callq	strcmp
	cmpl	%eax, %ebx
	jne	.LBB8_6
# %bb.5:                                # %if.then
	movl	-12(%rbp), %eax
	movl	%eax, -16(%rbp)
	jmp	.LBB8_17
.LBB8_6:                                # %if.else
                                        #   in Loop: Header=BB8_1 Depth=1
	movl	-12(%rbp), %eax
	addl	$1, %eax
	movl	%eax, -12(%rbp)
# %bb.7:                                # %if.end
                                        #   in Loop: Header=BB8_1 Depth=1
	jmp	.LBB8_1
.LBB8_8:                                # %while.end
	movl	$0, -12(%rbp)
	movq	-40(%rbp), %rax
	movl	$1, (%rax)
.LBB8_9:                                # %while.cond6
                                        # =>This Inner Loop Header: Depth=1
	xorl	%eax, %eax
	movslq	-12(%rbp), %rcx
	imulq	$24, %rcx, %rcx
	movabsq	$OffsetType8x8, %rdx
	addq	%rcx, %rdx
	cmpq	$0, %rdx
	je	.LBB8_11
# %bb.10:                               # %land.rhs11
                                        #   in Loop: Header=BB8_9 Depth=1
	cmpl	$3, -12(%rbp)
	setl	%al
.LBB8_11:                               # %land.end13
                                        #   in Loop: Header=BB8_9 Depth=1
	testb	$1, %al
	jne	.LBB8_12
	jmp	.LBB8_16
.LBB8_12:                               # %while.body14
                                        #   in Loop: Header=BB8_9 Depth=1
	xorl	%ebx, %ebx
	movslq	-12(%rbp), %rax
	imulq	$24, %rax, %rax
	movabsq	$OffsetType8x8, %rdi
	addq	%rax, %rdi
	movq	-32(%rbp), %rsi
	callq	strcmp
	cmpl	%eax, %ebx
	jne	.LBB8_14
# %bb.13:                               # %if.then20
	movl	-12(%rbp), %eax
	movl	%eax, -16(%rbp)
	jmp	.LBB8_17
.LBB8_14:                               # %if.else21
                                        #   in Loop: Header=BB8_9 Depth=1
	movl	-12(%rbp), %eax
	addl	$1, %eax
	movl	%eax, -12(%rbp)
# %bb.15:                               # %if.end23
                                        #   in Loop: Header=BB8_9 Depth=1
	jmp	.LBB8_9
.LBB8_16:                               # %while.end24
	movl	$-1, -16(%rbp)
.LBB8_17:                               # %return
	movl	-16(%rbp), %ebx
	cmpl	$1393863286, -20(%rbp)  # imm = 0x5314AA76
	jne	.LBB8_19
.LBB8_18:
	movl	%ebx, %eax
	addq	$40, %rsp
	popq	%rbx
	popq	%rbp
	.cfi_def_cfa %rsp, 8
	retq
.LBB8_19:                               # %func_exit
	.cfi_def_cfa %rbp, 16
	callq	detect_breach
	jmp	.LBB8_18
.Lfunc_end8:
	.size	CheckOffsetParameterName.4, .Lfunc_end8-CheckOffsetParameterName.4
	.cfi_endproc
                                        # -- End function
	.globl	CalculateOffsetParam.5  # -- Begin function CalculateOffsetParam.5
	.p2align	4, 0x90
	.type	CalculateOffsetParam.5,@function
CalculateOffsetParam.5:                 # @CalculateOffsetParam.5
	.cfi_startproc
# %bb.0:                                # %entry
	pushq	%rbp
	.cfi_def_cfa_offset 16
	.cfi_offset %rbp, -16
	movq	%rsp, %rbp
	.cfi_def_cfa_register %rbp
	subq	$32, %rsp
	movl	$766787420, -24(%rbp)   # imm = 0x2DB43F5C
	movq	input, %rax
	cmpl	$0, 3584(%rax)
	je	.LBB9_17
# %bb.1:                                # %if.then
	movl	$0, -4(%rbp)
.LBB9_2:                                # %for.cond
                                        # =>This Loop Header: Depth=1
                                        #     Child Loop BB9_4 Depth 2
                                        #       Child Loop BB9_6 Depth 3
	cmpl	$13, -4(%rbp)
	jge	.LBB9_16
# %bb.3:                                # %for.body
                                        #   in Loop: Header=BB9_2 Depth=1
	movl	-4(%rbp), %eax
	addl	$15, %eax
	subl	$10, %eax
	movl	%eax, -20(%rbp)
	movl	$0, -8(%rbp)
.LBB9_4:                                # %for.cond1
                                        #   Parent Loop BB9_2 Depth=1
                                        # =>  This Loop Header: Depth=2
                                        #       Child Loop BB9_6 Depth 3
	cmpl	$4, -8(%rbp)
	jge	.LBB9_14
# %bb.5:                                # %for.body3
                                        #   in Loop: Header=BB9_4 Depth=2
	movl	$0, -12(%rbp)
.LBB9_6:                                # %for.cond4
                                        #   Parent Loop BB9_2 Depth=1
                                        #     Parent Loop BB9_4 Depth=2
                                        # =>    This Inner Loop Header: Depth=3
	cmpl	$4, -12(%rbp)
	jge	.LBB9_12
# %bb.7:                                # %for.body6
                                        #   in Loop: Header=BB9_6 Depth=3
	movl	-12(%rbp), %eax
	shll	$2, %eax
	addl	-8(%rbp), %eax
	movl	%eax, -16(%rbp)
	movq	img, %rax
	cmpl	$2, 24(%rax)
	jne	.LBB9_9
# %bb.8:                                # %if.then9
                                        #   in Loop: Header=BB9_6 Depth=3
	movabsq	$LevelOffset4x4Chroma_Intra, %rdx
	movq	%rdx, %rax
	addq	$832, %rax              # imm = 0x340
	movslq	-16(%rbp), %rcx
	movswl	OffsetList4x4input(,%rcx,2), %esi
	movl	-20(%rbp), %ecx
                                        # kill: def $cl killed $ecx
	shll	%cl, %esi
	movslq	-4(%rbp), %rcx
	shlq	$6, %rcx
	movabsq	$LevelOffset4x4Luma_Intra, %rdi
	addq	%rcx, %rdi
	movslq	-8(%rbp), %rcx
	shlq	$4, %rcx
	addq	%rcx, %rdi
	movslq	-12(%rbp), %rcx
	movl	%esi, (%rdi,%rcx,4)
	movslq	-16(%rbp), %rcx
	movswl	OffsetList4x4input+32(,%rcx,2), %esi
	movl	-20(%rbp), %ecx
                                        # kill: def $cl killed $ecx
	shll	%cl, %esi
	movslq	-4(%rbp), %rcx
	shlq	$6, %rcx
	addq	%rcx, %rdx
	movslq	-8(%rbp), %rcx
	shlq	$4, %rcx
	addq	%rcx, %rdx
	movslq	-12(%rbp), %rcx
	movl	%esi, (%rdx,%rcx,4)
	movslq	-16(%rbp), %rcx
	movswl	OffsetList4x4input+64(,%rcx,2), %edx
	movl	-20(%rbp), %ecx
                                        # kill: def $cl killed $ecx
	shll	%cl, %edx
	movslq	-4(%rbp), %rcx
	shlq	$6, %rcx
	addq	%rcx, %rax
	movslq	-8(%rbp), %rcx
	shlq	$4, %rcx
	addq	%rcx, %rax
	movslq	-12(%rbp), %rcx
	movl	%edx, (%rax,%rcx,4)
	jmp	.LBB9_10
.LBB9_9:                                # %if.else
                                        #   in Loop: Header=BB9_6 Depth=3
	movabsq	$LevelOffset4x4Chroma_Intra, %rdx
	movq	%rdx, %rax
	addq	$832, %rax              # imm = 0x340
	movslq	-16(%rbp), %rcx
	movswl	OffsetList4x4input+96(,%rcx,2), %esi
	movl	-20(%rbp), %ecx
                                        # kill: def $cl killed $ecx
	shll	%cl, %esi
	movslq	-4(%rbp), %rcx
	shlq	$6, %rcx
	movabsq	$LevelOffset4x4Luma_Intra, %rdi
	addq	%rcx, %rdi
	movslq	-8(%rbp), %rcx
	shlq	$4, %rcx
	addq	%rcx, %rdi
	movslq	-12(%rbp), %rcx
	movl	%esi, (%rdi,%rcx,4)
	movslq	-16(%rbp), %rcx
	movswl	OffsetList4x4input+128(,%rcx,2), %esi
	movl	-20(%rbp), %ecx
                                        # kill: def $cl killed $ecx
	shll	%cl, %esi
	movslq	-4(%rbp), %rcx
	shlq	$6, %rcx
	addq	%rcx, %rdx
	movslq	-8(%rbp), %rcx
	shlq	$4, %rcx
	addq	%rcx, %rdx
	movslq	-12(%rbp), %rcx
	movl	%esi, (%rdx,%rcx,4)
	movslq	-16(%rbp), %rcx
	movswl	OffsetList4x4input+160(,%rcx,2), %edx
	movl	-20(%rbp), %ecx
                                        # kill: def $cl killed $ecx
	shll	%cl, %edx
	movslq	-4(%rbp), %rcx
	shlq	$6, %rcx
	addq	%rcx, %rax
	movslq	-8(%rbp), %rcx
	shlq	$4, %rcx
	addq	%rcx, %rax
	movslq	-12(%rbp), %rcx
	movl	%edx, (%rax,%rcx,4)
.LBB9_10:                               # %if.end
                                        #   in Loop: Header=BB9_6 Depth=3
	movabsq	$LevelOffset4x4Chroma_Inter, %rdx
	movq	%rdx, %rax
	addq	$832, %rax              # imm = 0x340
	movslq	-16(%rbp), %rcx
	movswl	OffsetList4x4input+192(,%rcx,2), %esi
	movl	-20(%rbp), %ecx
                                        # kill: def $cl killed $ecx
	shll	%cl, %esi
	movslq	-4(%rbp), %rcx
	shlq	$6, %rcx
	movabsq	$LevelOffset4x4Luma_Inter, %rdi
	addq	%rcx, %rdi
	movslq	-8(%rbp), %rcx
	shlq	$4, %rcx
	addq	%rcx, %rdi
	movslq	-12(%rbp), %rcx
	movl	%esi, (%rdi,%rcx,4)
	movslq	-16(%rbp), %rcx
	movswl	OffsetList4x4input+224(,%rcx,2), %esi
	movl	-20(%rbp), %ecx
                                        # kill: def $cl killed $ecx
	shll	%cl, %esi
	movslq	-4(%rbp), %rcx
	shlq	$6, %rcx
	addq	%rcx, %rdx
	movslq	-8(%rbp), %rcx
	shlq	$4, %rcx
	addq	%rcx, %rdx
	movslq	-12(%rbp), %rcx
	movl	%esi, (%rdx,%rcx,4)
	movslq	-16(%rbp), %rcx
	movswl	OffsetList4x4input+256(,%rcx,2), %edx
	movl	-20(%rbp), %ecx
                                        # kill: def $cl killed $ecx
	shll	%cl, %edx
	movslq	-4(%rbp), %rcx
	shlq	$6, %rcx
	addq	%rcx, %rax
	movslq	-8(%rbp), %rcx
	shlq	$4, %rcx
	addq	%rcx, %rax
	movslq	-12(%rbp), %rcx
	movl	%edx, (%rax,%rcx,4)
# %bb.11:                               # %for.inc
                                        #   in Loop: Header=BB9_6 Depth=3
	movl	-12(%rbp), %eax
	addl	$1, %eax
	movl	%eax, -12(%rbp)
	jmp	.LBB9_6
.LBB9_12:                               # %for.end
                                        #   in Loop: Header=BB9_4 Depth=2
	jmp	.LBB9_13
.LBB9_13:                               # %for.inc97
                                        #   in Loop: Header=BB9_4 Depth=2
	movl	-8(%rbp), %eax
	addl	$1, %eax
	movl	%eax, -8(%rbp)
	jmp	.LBB9_4
.LBB9_14:                               # %for.end99
                                        #   in Loop: Header=BB9_2 Depth=1
	jmp	.LBB9_15
.LBB9_15:                               # %for.inc100
                                        #   in Loop: Header=BB9_2 Depth=1
	movl	-4(%rbp), %eax
	addl	$1, %eax
	movl	%eax, -4(%rbp)
	jmp	.LBB9_2
.LBB9_16:                               # %for.end102
	jmp	.LBB9_33
.LBB9_17:                               # %if.else103
	movl	$0, -4(%rbp)
.LBB9_18:                               # %for.cond104
                                        # =>This Loop Header: Depth=1
                                        #     Child Loop BB9_20 Depth 2
                                        #       Child Loop BB9_22 Depth 3
	cmpl	$13, -4(%rbp)
	jge	.LBB9_32
# %bb.19:                               # %for.body107
                                        #   in Loop: Header=BB9_18 Depth=1
	movl	-4(%rbp), %eax
	addl	$15, %eax
	subl	$10, %eax
	movl	%eax, -20(%rbp)
	movl	$0, -8(%rbp)
.LBB9_20:                               # %for.cond110
                                        #   Parent Loop BB9_18 Depth=1
                                        # =>  This Loop Header: Depth=2
                                        #       Child Loop BB9_22 Depth 3
	cmpl	$4, -8(%rbp)
	jge	.LBB9_30
# %bb.21:                               # %for.body113
                                        #   in Loop: Header=BB9_20 Depth=2
	movl	$0, -12(%rbp)
.LBB9_22:                               # %for.cond114
                                        #   Parent Loop BB9_18 Depth=1
                                        #     Parent Loop BB9_20 Depth=2
                                        # =>    This Inner Loop Header: Depth=3
	cmpl	$4, -12(%rbp)
	jge	.LBB9_28
# %bb.23:                               # %for.body117
                                        #   in Loop: Header=BB9_22 Depth=3
	movl	-12(%rbp), %eax
	shll	$2, %eax
	addl	-8(%rbp), %eax
	movl	%eax, -16(%rbp)
	movq	img, %rax
	cmpl	$2, 24(%rax)
	jne	.LBB9_25
# %bb.24:                               # %if.then123
                                        #   in Loop: Header=BB9_22 Depth=3
	movabsq	$LevelOffset4x4Chroma_Intra, %rdx
	movq	%rdx, %rax
	addq	$832, %rax              # imm = 0x340
	movslq	-16(%rbp), %rcx
	movswl	Offset_intra_default_intra(,%rcx,2), %esi
	movl	-20(%rbp), %ecx
                                        # kill: def $cl killed $ecx
	shll	%cl, %esi
	movslq	-4(%rbp), %rcx
	shlq	$6, %rcx
	movabsq	$LevelOffset4x4Luma_Intra, %rdi
	addq	%rcx, %rdi
	movslq	-8(%rbp), %rcx
	shlq	$4, %rcx
	addq	%rcx, %rdi
	movslq	-12(%rbp), %rcx
	movl	%esi, (%rdi,%rcx,4)
	movslq	-16(%rbp), %rcx
	movswl	Offset_intra_default_intra(,%rcx,2), %esi
	movl	-20(%rbp), %ecx
                                        # kill: def $cl killed $ecx
	shll	%cl, %esi
	movslq	-4(%rbp), %rcx
	shlq	$6, %rcx
	addq	%rcx, %rdx
	movslq	-8(%rbp), %rcx
	shlq	$4, %rcx
	addq	%rcx, %rdx
	movslq	-12(%rbp), %rcx
	movl	%esi, (%rdx,%rcx,4)
	movslq	-16(%rbp), %rcx
	movswl	Offset_intra_default_intra(,%rcx,2), %edx
	movl	-20(%rbp), %ecx
                                        # kill: def $cl killed $ecx
	shll	%cl, %edx
	movslq	-4(%rbp), %rcx
	shlq	$6, %rcx
	addq	%rcx, %rax
	movslq	-8(%rbp), %rcx
	shlq	$4, %rcx
	addq	%rcx, %rax
	movslq	-12(%rbp), %rcx
	movl	%edx, (%rax,%rcx,4)
	jmp	.LBB9_26
.LBB9_25:                               # %if.else154
                                        #   in Loop: Header=BB9_22 Depth=3
	movabsq	$LevelOffset4x4Chroma_Intra, %rdx
	movq	%rdx, %rax
	addq	$832, %rax              # imm = 0x340
	movslq	-16(%rbp), %rcx
	movswl	Offset_intra_default_inter(,%rcx,2), %esi
	movl	-20(%rbp), %ecx
                                        # kill: def $cl killed $ecx
	shll	%cl, %esi
	movslq	-4(%rbp), %rcx
	shlq	$6, %rcx
	movabsq	$LevelOffset4x4Luma_Intra, %rdi
	addq	%rcx, %rdi
	movslq	-8(%rbp), %rcx
	shlq	$4, %rcx
	addq	%rcx, %rdi
	movslq	-12(%rbp), %rcx
	movl	%esi, (%rdi,%rcx,4)
	movslq	-16(%rbp), %rcx
	movswl	Offset_intra_default_inter(,%rcx,2), %esi
	movl	-20(%rbp), %ecx
                                        # kill: def $cl killed $ecx
	shll	%cl, %esi
	movslq	-4(%rbp), %rcx
	shlq	$6, %rcx
	addq	%rcx, %rdx
	movslq	-8(%rbp), %rcx
	shlq	$4, %rcx
	addq	%rcx, %rdx
	movslq	-12(%rbp), %rcx
	movl	%esi, (%rdx,%rcx,4)
	movslq	-16(%rbp), %rcx
	movswl	Offset_intra_default_inter(,%rcx,2), %edx
	movl	-20(%rbp), %ecx
                                        # kill: def $cl killed $ecx
	shll	%cl, %edx
	movslq	-4(%rbp), %rcx
	shlq	$6, %rcx
	addq	%rcx, %rax
	movslq	-8(%rbp), %rcx
	shlq	$4, %rcx
	addq	%rcx, %rax
	movslq	-12(%rbp), %rcx
	movl	%edx, (%rax,%rcx,4)
.LBB9_26:                               # %if.end185
                                        #   in Loop: Header=BB9_22 Depth=3
	movabsq	$LevelOffset4x4Chroma_Inter, %rdx
	movq	%rdx, %rax
	addq	$832, %rax              # imm = 0x340
	movslq	-16(%rbp), %rcx
	movswl	Offset_inter_default(,%rcx,2), %esi
	movl	-20(%rbp), %ecx
                                        # kill: def $cl killed $ecx
	shll	%cl, %esi
	movslq	-4(%rbp), %rcx
	shlq	$6, %rcx
	movabsq	$LevelOffset4x4Luma_Inter, %rdi
	addq	%rcx, %rdi
	movslq	-8(%rbp), %rcx
	shlq	$4, %rcx
	addq	%rcx, %rdi
	movslq	-12(%rbp), %rcx
	movl	%esi, (%rdi,%rcx,4)
	movslq	-16(%rbp), %rcx
	movswl	Offset_inter_default(,%rcx,2), %esi
	movl	-20(%rbp), %ecx
                                        # kill: def $cl killed $ecx
	shll	%cl, %esi
	movslq	-4(%rbp), %rcx
	shlq	$6, %rcx
	addq	%rcx, %rdx
	movslq	-8(%rbp), %rcx
	shlq	$4, %rcx
	addq	%rcx, %rdx
	movslq	-12(%rbp), %rcx
	movl	%esi, (%rdx,%rcx,4)
	movslq	-16(%rbp), %rcx
	movswl	Offset_inter_default(,%rcx,2), %edx
	movl	-20(%rbp), %ecx
                                        # kill: def $cl killed $ecx
	shll	%cl, %edx
	movslq	-4(%rbp), %rcx
	shlq	$6, %rcx
	addq	%rcx, %rax
	movslq	-8(%rbp), %rcx
	shlq	$4, %rcx
	addq	%rcx, %rax
	movslq	-12(%rbp), %rcx
	movl	%edx, (%rax,%rcx,4)
# %bb.27:                               # %for.inc216
                                        #   in Loop: Header=BB9_22 Depth=3
	movl	-12(%rbp), %eax
	addl	$1, %eax
	movl	%eax, -12(%rbp)
	jmp	.LBB9_22
.LBB9_28:                               # %for.end218
                                        #   in Loop: Header=BB9_20 Depth=2
	jmp	.LBB9_29
.LBB9_29:                               # %for.inc219
                                        #   in Loop: Header=BB9_20 Depth=2
	movl	-8(%rbp), %eax
	addl	$1, %eax
	movl	%eax, -8(%rbp)
	jmp	.LBB9_20
.LBB9_30:                               # %for.end221
                                        #   in Loop: Header=BB9_18 Depth=1
	jmp	.LBB9_31
.LBB9_31:                               # %for.inc222
                                        #   in Loop: Header=BB9_18 Depth=1
	movl	-4(%rbp), %eax
	addl	$1, %eax
	movl	%eax, -4(%rbp)
	jmp	.LBB9_18
.LBB9_32:                               # %for.end224
	jmp	.LBB9_33
.LBB9_33:                               # %if.end225
	cmpl	$766787420, -24(%rbp)   # imm = 0x2DB43F5C
	jne	.LBB9_35
.LBB9_34:
	addq	$32, %rsp
	popq	%rbp
	.cfi_def_cfa %rsp, 8
	retq
.LBB9_35:                               # %func_exit
	.cfi_def_cfa %rbp, 16
	callq	detect_breach
	jmp	.LBB9_34
.Lfunc_end9:
	.size	CalculateOffsetParam.5, .Lfunc_end9-CalculateOffsetParam.5
	.cfi_endproc
                                        # -- End function
	.globl	CheckOffsetParameterName.6 # -- Begin function CheckOffsetParameterName.6
	.p2align	4, 0x90
	.type	CheckOffsetParameterName.6,@function
CheckOffsetParameterName.6:             # @CheckOffsetParameterName.6
	.cfi_startproc
# %bb.0:                                # %entry
	pushq	%rbp
	.cfi_def_cfa_offset 16
	.cfi_offset %rbp, -16
	movq	%rsp, %rbp
	.cfi_def_cfa_register %rbp
	pushq	%rbx
	subq	$40, %rsp
	.cfi_offset %rbx, -24
	movl	$675036573, -20(%rbp)   # imm = 0x283C3D9D
	movq	%rdi, -40(%rbp)
	movq	%rsi, -32(%rbp)
	movl	$0, -12(%rbp)
	movq	-32(%rbp), %rax
	movl	$0, (%rax)
.LBB10_1:                               # %while.cond
                                        # =>This Inner Loop Header: Depth=1
	xorl	%eax, %eax
	movslq	-12(%rbp), %rcx
	imulq	$24, %rcx, %rcx
	movabsq	$OffsetType4x4, %rdx
	addq	%rcx, %rdx
	cmpq	$0, %rdx
	je	.LBB10_3
# %bb.2:                                # %land.rhs
                                        #   in Loop: Header=BB10_1 Depth=1
	cmpl	$9, -12(%rbp)
	setl	%al
.LBB10_3:                               # %land.end
                                        #   in Loop: Header=BB10_1 Depth=1
	testb	$1, %al
	jne	.LBB10_4
	jmp	.LBB10_8
.LBB10_4:                               # %while.body
                                        #   in Loop: Header=BB10_1 Depth=1
	xorl	%ebx, %ebx
	movslq	-12(%rbp), %rax
	imulq	$24, %rax, %rax
	movabsq	$OffsetType4x4, %rdi
	addq	%rax, %rdi
	movq	-40(%rbp), %rsi
	callq	strcmp
	cmpl	%eax, %ebx
	jne	.LBB10_6
# %bb.5:                                # %if.then
	movl	-12(%rbp), %eax
	movl	%eax, -16(%rbp)
	jmp	.LBB10_17
.LBB10_6:                               # %if.else
                                        #   in Loop: Header=BB10_1 Depth=1
	movl	-12(%rbp), %eax
	addl	$1, %eax
	movl	%eax, -12(%rbp)
# %bb.7:                                # %if.end
                                        #   in Loop: Header=BB10_1 Depth=1
	jmp	.LBB10_1
.LBB10_8:                               # %while.end
	movl	$0, -12(%rbp)
	movq	-32(%rbp), %rax
	movl	$1, (%rax)
.LBB10_9:                               # %while.cond6
                                        # =>This Inner Loop Header: Depth=1
	xorl	%eax, %eax
	movslq	-12(%rbp), %rcx
	imulq	$24, %rcx, %rcx
	movabsq	$OffsetType8x8, %rdx
	addq	%rcx, %rdx
	cmpq	$0, %rdx
	je	.LBB10_11
# %bb.10:                               # %land.rhs11
                                        #   in Loop: Header=BB10_9 Depth=1
	cmpl	$3, -12(%rbp)
	setl	%al
.LBB10_11:                              # %land.end13
                                        #   in Loop: Header=BB10_9 Depth=1
	testb	$1, %al
	jne	.LBB10_12
	jmp	.LBB10_16
.LBB10_12:                              # %while.body14
                                        #   in Loop: Header=BB10_9 Depth=1
	xorl	%ebx, %ebx
	movslq	-12(%rbp), %rax
	imulq	$24, %rax, %rax
	movabsq	$OffsetType8x8, %rdi
	addq	%rax, %rdi
	movq	-40(%rbp), %rsi
	callq	strcmp
	cmpl	%eax, %ebx
	jne	.LBB10_14
# %bb.13:                               # %if.then20
	movl	-12(%rbp), %eax
	movl	%eax, -16(%rbp)
	jmp	.LBB10_17
.LBB10_14:                              # %if.else21
                                        #   in Loop: Header=BB10_9 Depth=1
	movl	-12(%rbp), %eax
	addl	$1, %eax
	movl	%eax, -12(%rbp)
# %bb.15:                               # %if.end23
                                        #   in Loop: Header=BB10_9 Depth=1
	jmp	.LBB10_9
.LBB10_16:                              # %while.end24
	movl	$-1, -16(%rbp)
.LBB10_17:                              # %return
	movl	-16(%rbp), %ebx
	cmpl	$675036573, -20(%rbp)   # imm = 0x283C3D9D
	jne	.LBB10_19
.LBB10_18:
	movl	%ebx, %eax
	addq	$40, %rsp
	popq	%rbx
	popq	%rbp
	.cfi_def_cfa %rsp, 8
	retq
.LBB10_19:                              # %func_exit
	.cfi_def_cfa %rbp, 16
	callq	detect_breach
	jmp	.LBB10_18
.Lfunc_end10:
	.size	CheckOffsetParameterName.6, .Lfunc_end10-CheckOffsetParameterName.6
	.cfi_endproc
                                        # -- End function
	.globl	ParseQOffsetMatrix.7    # -- Begin function ParseQOffsetMatrix.7
	.p2align	4, 0x90
	.type	ParseQOffsetMatrix.7,@function
ParseQOffsetMatrix.7:                   # @ParseQOffsetMatrix.7
	.cfi_startproc
# %bb.0:                                # %entry
	pushq	%rbp
	.cfi_def_cfa_offset 16
	.cfi_offset %rbp, -16
	movq	%rsp, %rbp
	.cfi_def_cfa_register %rbp
	subq	$8096, %rsp             # imm = 0x1FA0
	movl	$103500428, -48(%rbp)   # imm = 0x62B4A8C
	movq	%rdi, -80(%rbp)
	movl	%esi, -52(%rbp)
	movl	$0, -28(%rbp)
	movl	$0, -36(%rbp)
	movl	$0, -20(%rbp)
	movq	-80(%rbp), %rax
	movq	%rax, -16(%rbp)
	movq	-80(%rbp), %rax
	movslq	-52(%rbp), %rcx
	addq	%rcx, %rax
	movq	%rax, -72(%rbp)
.LBB11_1:                               # %while.cond
                                        # =>This Loop Header: Depth=1
                                        #     Child Loop BB11_6 Depth 2
	movq	-16(%rbp), %rax
	cmpq	-72(%rbp), %rax
	jae	.LBB11_25
# %bb.2:                                # %while.body
                                        #   in Loop: Header=BB11_1 Depth=1
	movq	-16(%rbp), %rax
	movsbl	(%rax), %eax
	addl	$-9, %eax
	movl	%eax, %ecx
	subl	$35, %ecx
	ja	.LBB11_21
# %bb.3:                                # %while.body
                                        #   in Loop: Header=BB11_1 Depth=1
	movq	.LJTI11_0(,%rax,8), %rax
	jmpq	*%rax
.LBB11_4:                               # %sw.bb
                                        #   in Loop: Header=BB11_1 Depth=1
	movq	-16(%rbp), %rax
	addq	$1, %rax
	movq	%rax, -16(%rbp)
	jmp	.LBB11_24
.LBB11_5:                               # %sw.bb1
                                        #   in Loop: Header=BB11_1 Depth=1
	movq	-16(%rbp), %rax
	movb	$0, (%rax)
.LBB11_6:                               # %while.cond2
                                        #   Parent Loop BB11_1 Depth=1
                                        # =>  This Inner Loop Header: Depth=2
	xorl	%eax, %eax
	movq	-16(%rbp), %rcx
	movsbl	(%rcx), %ecx
	cmpl	$10, %ecx
	je	.LBB11_8
# %bb.7:                                # %land.rhs
                                        #   in Loop: Header=BB11_6 Depth=2
	movq	-16(%rbp), %rax
	cmpq	-72(%rbp), %rax
	setb	%al
.LBB11_8:                               # %land.end
                                        #   in Loop: Header=BB11_6 Depth=2
	testb	$1, %al
	jne	.LBB11_9
	jmp	.LBB11_10
.LBB11_9:                               # %while.body8
                                        #   in Loop: Header=BB11_6 Depth=2
	movq	-16(%rbp), %rax
	addq	$1, %rax
	movq	%rax, -16(%rbp)
	jmp	.LBB11_6
.LBB11_10:                              # %while.end
                                        #   in Loop: Header=BB11_1 Depth=1
	movl	$0, -36(%rbp)
	movl	$0, -20(%rbp)
	jmp	.LBB11_24
.LBB11_11:                              # %sw.bb10
                                        #   in Loop: Header=BB11_1 Depth=1
	movl	$0, -20(%rbp)
	movl	$0, -36(%rbp)
	movq	-16(%rbp), %rax
	movq	%rax, %rcx
	addq	$1, %rcx
	movq	%rcx, -16(%rbp)
	movb	$0, (%rax)
	jmp	.LBB11_24
.LBB11_12:                              # %sw.bb12
                                        #   in Loop: Header=BB11_1 Depth=1
	cmpl	$0, -36(%rbp)
	je	.LBB11_14
# %bb.13:                               # %if.then
                                        #   in Loop: Header=BB11_1 Depth=1
	movq	-16(%rbp), %rax
	addq	$1, %rax
	movq	%rax, -16(%rbp)
	jmp	.LBB11_15
.LBB11_14:                              # %if.else
                                        #   in Loop: Header=BB11_1 Depth=1
	movq	-16(%rbp), %rax
	movq	%rax, %rcx
	addq	$1, %rcx
	movq	%rcx, -16(%rbp)
	movb	$0, (%rax)
	movl	$0, -20(%rbp)
.LBB11_15:                              # %if.end
                                        #   in Loop: Header=BB11_1 Depth=1
	jmp	.LBB11_24
.LBB11_16:                              # %sw.bb15
                                        #   in Loop: Header=BB11_1 Depth=1
	movq	-16(%rbp), %rax
	movq	%rax, %rcx
	addq	$1, %rcx
	movq	%rcx, -16(%rbp)
	movb	$0, (%rax)
	cmpl	$0, -36(%rbp)
	jne	.LBB11_18
# %bb.17:                               # %if.then18
                                        #   in Loop: Header=BB11_1 Depth=1
	movq	-16(%rbp), %rax
	movl	-28(%rbp), %ecx
	movl	%ecx, %edx
	addl	$1, %edx
	movl	%edx, -28(%rbp)
	movslq	%ecx, %rcx
	movq	%rax, -8096(%rbp,%rcx,8)
	movl	-20(%rbp), %eax
	xorl	$-1, %eax
	movl	%eax, -20(%rbp)
	jmp	.LBB11_19
.LBB11_18:                              # %if.else21
                                        #   in Loop: Header=BB11_1 Depth=1
	movl	$0, -20(%rbp)
.LBB11_19:                              # %if.end22
                                        #   in Loop: Header=BB11_1 Depth=1
	movl	-36(%rbp), %eax
	xorl	$-1, %eax
	movl	%eax, -36(%rbp)
	jmp	.LBB11_24
.LBB11_20:                              # %sw.bb24
                                        #   in Loop: Header=BB11_1 Depth=1
	movq	-16(%rbp), %rax
	addq	$1, %rax
	movq	%rax, -16(%rbp)
	movl	$0, -20(%rbp)
	jmp	.LBB11_24
.LBB11_21:                              # %sw.default
                                        #   in Loop: Header=BB11_1 Depth=1
	cmpl	$0, -20(%rbp)
	jne	.LBB11_23
# %bb.22:                               # %if.then27
                                        #   in Loop: Header=BB11_1 Depth=1
	movq	-16(%rbp), %rax
	movl	-28(%rbp), %ecx
	movl	%ecx, %edx
	addl	$1, %edx
	movl	%edx, -28(%rbp)
	movslq	%ecx, %rcx
	movq	%rax, -8096(%rbp,%rcx,8)
	movl	-20(%rbp), %eax
	xorl	$-1, %eax
	movl	%eax, -20(%rbp)
.LBB11_23:                              # %if.end32
                                        #   in Loop: Header=BB11_1 Depth=1
	movq	-16(%rbp), %rax
	addq	$1, %rax
	movq	%rax, -16(%rbp)
.LBB11_24:                              # %sw.epilog
                                        #   in Loop: Header=BB11_1 Depth=1
	jmp	.LBB11_1
.LBB11_25:                              # %while.end34
	movl	-28(%rbp), %eax
	addl	$-1, %eax
	movl	%eax, -28(%rbp)
	movl	$0, -24(%rbp)
.LBB11_26:                              # %for.cond
                                        # =>This Loop Header: Depth=1
                                        #     Child Loop BB11_35 Depth 2
	movl	-24(%rbp), %eax
	cmpl	-28(%rbp), %eax
	jge	.LBB11_42
# %bb.27:                               # %for.body
                                        #   in Loop: Header=BB11_26 Depth=1
	movl	$0, -4(%rbp)
	movl	-24(%rbp), %eax
	addl	-4(%rbp), %eax
	cltq
	movq	-8096(%rbp,%rax,8), %rdi
	leaq	-56(%rbp), %rsi
	callq	CheckOffsetParameterName
	xorl	%ecx, %ecx
	movl	%eax, -40(%rbp)
	cmpl	%eax, %ecx
	jle	.LBB11_29
# %bb.28:                               # %if.then41
                                        #   in Loop: Header=BB11_26 Depth=1
	movl	-24(%rbp), %eax
	addl	-4(%rbp), %eax
	cltq
	movq	-8096(%rbp,%rax,8), %rcx
	movabsq	$errortext, %rdi
	movl	$300, %esi              # imm = 0x12C
	movabsq	$.L.str, %rdx
	movb	$0, %al
	callq	snprintf
	movabsq	$errortext, %rdi
	movl	$300, %esi              # imm = 0x12C
	callq	error
.LBB11_29:                              # %if.end46
                                        #   in Loop: Header=BB11_26 Depth=1
	movl	-4(%rbp), %eax
	addl	$1, %eax
	movl	%eax, -4(%rbp)
	movl	-24(%rbp), %eax
	addl	-4(%rbp), %eax
	cltq
	movq	-8096(%rbp,%rax,8), %rsi
	movl	$.L.str.1, %edi
	callq	strcmp
	cmpl	$0, %eax
	je	.LBB11_31
# %bb.30:                               # %if.then53
                                        #   in Loop: Header=BB11_26 Depth=1
	movabsq	$errortext, %rdi
	movl	$300, %esi              # imm = 0x12C
	movabsq	$.L.str.2, %rdx
	movb	$0, %al
	callq	snprintf
	movabsq	$errortext, %rdi
	movl	$300, %esi              # imm = 0x12C
	callq	error
.LBB11_31:                              # %if.end55
                                        #   in Loop: Header=BB11_26 Depth=1
	movl	-4(%rbp), %eax
	addl	$1, %eax
	movl	%eax, -4(%rbp)
	cmpl	$0, -56(%rbp)
	jne	.LBB11_33
# %bb.32:                               # %if.then58
                                        #   in Loop: Header=BB11_26 Depth=1
	movl	$16, -44(%rbp)
	movslq	-40(%rbp), %rax
	shlq	$5, %rax
	movabsq	$OffsetList4x4input, %rcx
	addq	%rax, %rcx
	movq	%rcx, -88(%rbp)
	movslq	-40(%rbp), %rax
	movl	$1, offset4x4_check(,%rax,4)
	jmp	.LBB11_34
.LBB11_33:                              # %if.else63
                                        #   in Loop: Header=BB11_26 Depth=1
	movl	$64, -44(%rbp)
	movslq	-40(%rbp), %rax
	shlq	$7, %rax
	movabsq	$OffsetList8x8input, %rcx
	addq	%rax, %rcx
	movq	%rcx, -88(%rbp)
	movslq	-40(%rbp), %rax
	movl	$1, offset8x8_check(,%rax,4)
.LBB11_34:                              # %if.end69
                                        #   in Loop: Header=BB11_26 Depth=1
	movl	$0, -32(%rbp)
.LBB11_35:                              # %for.cond70
                                        #   Parent Loop BB11_26 Depth=1
                                        # =>  This Inner Loop Header: Depth=2
	movl	-32(%rbp), %eax
	cmpl	-44(%rbp), %eax
	jge	.LBB11_40
# %bb.36:                               # %for.body73
                                        #   in Loop: Header=BB11_35 Depth=2
	movl	-24(%rbp), %eax
	addl	-4(%rbp), %eax
	addl	-32(%rbp), %eax
	cltq
	movq	-8096(%rbp,%rax,8), %rdi
	movabsq	$.L.str.3, %rsi
	leaq	-60(%rbp), %rdx
	movb	$0, %al
	callq	__isoc99_sscanf
	movl	$1, %ecx
	cmpl	%eax, %ecx
	je	.LBB11_38
# %bb.37:                               # %if.then81
                                        #   in Loop: Header=BB11_35 Depth=2
	movslq	-24(%rbp), %rax
	movq	-8096(%rbp,%rax,8), %rcx
	movl	-24(%rbp), %eax
	addl	-4(%rbp), %eax
	addl	-32(%rbp), %eax
	cltq
	movq	-8096(%rbp,%rax,8), %r8
	movabsq	$errortext, %rdi
	movl	$300, %esi              # imm = 0x12C
	movabsq	$.L.str.4, %rdx
	movb	$0, %al
	callq	snprintf
	movabsq	$errortext, %rdi
	movl	$300, %esi              # imm = 0x12C
	callq	error
.LBB11_38:                              # %if.end89
                                        #   in Loop: Header=BB11_35 Depth=2
	movl	-60(%rbp), %eax
	movq	-88(%rbp), %rcx
	movslq	-32(%rbp), %rdx
	movw	%ax, (%rcx,%rdx,2)
# %bb.39:                               # %for.inc
                                        #   in Loop: Header=BB11_35 Depth=2
	movl	-32(%rbp), %eax
	addl	$1, %eax
	movl	%eax, -32(%rbp)
	jmp	.LBB11_35
.LBB11_40:                              # %for.end
                                        #   in Loop: Header=BB11_26 Depth=1
	movl	-32(%rbp), %eax
	addl	-4(%rbp), %eax
	movl	%eax, -4(%rbp)
	movabsq	$.L.str.5, %rdi
	movb	$0, %al
	callq	printf
# %bb.41:                               # %for.inc96
                                        #   in Loop: Header=BB11_26 Depth=1
	movl	-4(%rbp), %eax
	addl	-24(%rbp), %eax
	movl	%eax, -24(%rbp)
	jmp	.LBB11_26
.LBB11_42:                              # %for.end98
	cmpl	$103500428, -48(%rbp)   # imm = 0x62B4A8C
	jne	.LBB11_44
.LBB11_43:
	addq	$8096, %rsp             # imm = 0x1FA0
	popq	%rbp
	.cfi_def_cfa %rsp, 8
	retq
.LBB11_44:                              # %func_exit
	.cfi_def_cfa %rbp, 16
	callq	detect_breach
	jmp	.LBB11_43
.Lfunc_end11:
	.size	ParseQOffsetMatrix.7, .Lfunc_end11-ParseQOffsetMatrix.7
	.cfi_endproc
	.section	.rodata,"a",@progbits
	.p2align	3
.LJTI11_0:
	.quad	.LBB11_12
	.quad	.LBB11_11
	.quad	.LBB11_21
	.quad	.LBB11_21
	.quad	.LBB11_4
	.quad	.LBB11_21
	.quad	.LBB11_21
	.quad	.LBB11_21
	.quad	.LBB11_21
	.quad	.LBB11_21
	.quad	.LBB11_21
	.quad	.LBB11_21
	.quad	.LBB11_21
	.quad	.LBB11_21
	.quad	.LBB11_21
	.quad	.LBB11_21
	.quad	.LBB11_21
	.quad	.LBB11_21
	.quad	.LBB11_21
	.quad	.LBB11_21
	.quad	.LBB11_21
	.quad	.LBB11_21
	.quad	.LBB11_21
	.quad	.LBB11_12
	.quad	.LBB11_21
	.quad	.LBB11_16
	.quad	.LBB11_5
	.quad	.LBB11_21
	.quad	.LBB11_21
	.quad	.LBB11_21
	.quad	.LBB11_21
	.quad	.LBB11_21
	.quad	.LBB11_21
	.quad	.LBB11_21
	.quad	.LBB11_21
	.quad	.LBB11_20
                                        # -- End function
	.text
	.globl	CalculateOffsetParam.8  # -- Begin function CalculateOffsetParam.8
	.p2align	4, 0x90
	.type	CalculateOffsetParam.8,@function
CalculateOffsetParam.8:                 # @CalculateOffsetParam.8
	.cfi_startproc
# %bb.0:                                # %entry
	pushq	%rbp
	.cfi_def_cfa_offset 16
	.cfi_offset %rbp, -16
	movq	%rsp, %rbp
	.cfi_def_cfa_register %rbp
	subq	$32, %rsp
	movl	$1353361067, -24(%rbp)  # imm = 0x50AAA6AB
	movq	input, %rax
	cmpl	$0, 3584(%rax)
	je	.LBB12_17
# %bb.1:                                # %if.then
	movl	$0, -8(%rbp)
.LBB12_2:                               # %for.cond
                                        # =>This Loop Header: Depth=1
                                        #     Child Loop BB12_4 Depth 2
                                        #       Child Loop BB12_6 Depth 3
	cmpl	$13, -8(%rbp)
	jge	.LBB12_16
# %bb.3:                                # %for.body
                                        #   in Loop: Header=BB12_2 Depth=1
	movl	-8(%rbp), %eax
	addl	$15, %eax
	subl	$10, %eax
	movl	%eax, -16(%rbp)
	movl	$0, -4(%rbp)
.LBB12_4:                               # %for.cond1
                                        #   Parent Loop BB12_2 Depth=1
                                        # =>  This Loop Header: Depth=2
                                        #       Child Loop BB12_6 Depth 3
	cmpl	$4, -4(%rbp)
	jge	.LBB12_14
# %bb.5:                                # %for.body3
                                        #   in Loop: Header=BB12_4 Depth=2
	movl	$0, -12(%rbp)
.LBB12_6:                               # %for.cond4
                                        #   Parent Loop BB12_2 Depth=1
                                        #     Parent Loop BB12_4 Depth=2
                                        # =>    This Inner Loop Header: Depth=3
	cmpl	$4, -12(%rbp)
	jge	.LBB12_12
# %bb.7:                                # %for.body6
                                        #   in Loop: Header=BB12_6 Depth=3
	movl	-12(%rbp), %eax
	shll	$2, %eax
	addl	-4(%rbp), %eax
	movl	%eax, -20(%rbp)
	movq	img, %rax
	cmpl	$2, 24(%rax)
	jne	.LBB12_9
# %bb.8:                                # %if.then9
                                        #   in Loop: Header=BB12_6 Depth=3
	movabsq	$LevelOffset4x4Chroma_Intra, %rdx
	movq	%rdx, %rax
	addq	$832, %rax              # imm = 0x340
	movslq	-20(%rbp), %rcx
	movswl	OffsetList4x4input(,%rcx,2), %esi
	movl	-16(%rbp), %ecx
                                        # kill: def $cl killed $ecx
	shll	%cl, %esi
	movslq	-8(%rbp), %rcx
	shlq	$6, %rcx
	movabsq	$LevelOffset4x4Luma_Intra, %rdi
	addq	%rcx, %rdi
	movslq	-4(%rbp), %rcx
	shlq	$4, %rcx
	addq	%rcx, %rdi
	movslq	-12(%rbp), %rcx
	movl	%esi, (%rdi,%rcx,4)
	movslq	-20(%rbp), %rcx
	movswl	OffsetList4x4input+32(,%rcx,2), %esi
	movl	-16(%rbp), %ecx
                                        # kill: def $cl killed $ecx
	shll	%cl, %esi
	movslq	-8(%rbp), %rcx
	shlq	$6, %rcx
	addq	%rcx, %rdx
	movslq	-4(%rbp), %rcx
	shlq	$4, %rcx
	addq	%rcx, %rdx
	movslq	-12(%rbp), %rcx
	movl	%esi, (%rdx,%rcx,4)
	movslq	-20(%rbp), %rcx
	movswl	OffsetList4x4input+64(,%rcx,2), %edx
	movl	-16(%rbp), %ecx
                                        # kill: def $cl killed $ecx
	shll	%cl, %edx
	movslq	-8(%rbp), %rcx
	shlq	$6, %rcx
	addq	%rcx, %rax
	movslq	-4(%rbp), %rcx
	shlq	$4, %rcx
	addq	%rcx, %rax
	movslq	-12(%rbp), %rcx
	movl	%edx, (%rax,%rcx,4)
	jmp	.LBB12_10
.LBB12_9:                               # %if.else
                                        #   in Loop: Header=BB12_6 Depth=3
	movabsq	$LevelOffset4x4Chroma_Intra, %rdx
	movq	%rdx, %rax
	addq	$832, %rax              # imm = 0x340
	movslq	-20(%rbp), %rcx
	movswl	OffsetList4x4input+96(,%rcx,2), %esi
	movl	-16(%rbp), %ecx
                                        # kill: def $cl killed $ecx
	shll	%cl, %esi
	movslq	-8(%rbp), %rcx
	shlq	$6, %rcx
	movabsq	$LevelOffset4x4Luma_Intra, %rdi
	addq	%rcx, %rdi
	movslq	-4(%rbp), %rcx
	shlq	$4, %rcx
	addq	%rcx, %rdi
	movslq	-12(%rbp), %rcx
	movl	%esi, (%rdi,%rcx,4)
	movslq	-20(%rbp), %rcx
	movswl	OffsetList4x4input+128(,%rcx,2), %esi
	movl	-16(%rbp), %ecx
                                        # kill: def $cl killed $ecx
	shll	%cl, %esi
	movslq	-8(%rbp), %rcx
	shlq	$6, %rcx
	addq	%rcx, %rdx
	movslq	-4(%rbp), %rcx
	shlq	$4, %rcx
	addq	%rcx, %rdx
	movslq	-12(%rbp), %rcx
	movl	%esi, (%rdx,%rcx,4)
	movslq	-20(%rbp), %rcx
	movswl	OffsetList4x4input+160(,%rcx,2), %edx
	movl	-16(%rbp), %ecx
                                        # kill: def $cl killed $ecx
	shll	%cl, %edx
	movslq	-8(%rbp), %rcx
	shlq	$6, %rcx
	addq	%rcx, %rax
	movslq	-4(%rbp), %rcx
	shlq	$4, %rcx
	addq	%rcx, %rax
	movslq	-12(%rbp), %rcx
	movl	%edx, (%rax,%rcx,4)
.LBB12_10:                              # %if.end
                                        #   in Loop: Header=BB12_6 Depth=3
	movabsq	$LevelOffset4x4Chroma_Inter, %rdx
	movq	%rdx, %rax
	addq	$832, %rax              # imm = 0x340
	movslq	-20(%rbp), %rcx
	movswl	OffsetList4x4input+192(,%rcx,2), %esi
	movl	-16(%rbp), %ecx
                                        # kill: def $cl killed $ecx
	shll	%cl, %esi
	movslq	-8(%rbp), %rcx
	shlq	$6, %rcx
	movabsq	$LevelOffset4x4Luma_Inter, %rdi
	addq	%rcx, %rdi
	movslq	-4(%rbp), %rcx
	shlq	$4, %rcx
	addq	%rcx, %rdi
	movslq	-12(%rbp), %rcx
	movl	%esi, (%rdi,%rcx,4)
	movslq	-20(%rbp), %rcx
	movswl	OffsetList4x4input+224(,%rcx,2), %esi
	movl	-16(%rbp), %ecx
                                        # kill: def $cl killed $ecx
	shll	%cl, %esi
	movslq	-8(%rbp), %rcx
	shlq	$6, %rcx
	addq	%rcx, %rdx
	movslq	-4(%rbp), %rcx
	shlq	$4, %rcx
	addq	%rcx, %rdx
	movslq	-12(%rbp), %rcx
	movl	%esi, (%rdx,%rcx,4)
	movslq	-20(%rbp), %rcx
	movswl	OffsetList4x4input+256(,%rcx,2), %edx
	movl	-16(%rbp), %ecx
                                        # kill: def $cl killed $ecx
	shll	%cl, %edx
	movslq	-8(%rbp), %rcx
	shlq	$6, %rcx
	addq	%rcx, %rax
	movslq	-4(%rbp), %rcx
	shlq	$4, %rcx
	addq	%rcx, %rax
	movslq	-12(%rbp), %rcx
	movl	%edx, (%rax,%rcx,4)
# %bb.11:                               # %for.inc
                                        #   in Loop: Header=BB12_6 Depth=3
	movl	-12(%rbp), %eax
	addl	$1, %eax
	movl	%eax, -12(%rbp)
	jmp	.LBB12_6
.LBB12_12:                              # %for.end
                                        #   in Loop: Header=BB12_4 Depth=2
	jmp	.LBB12_13
.LBB12_13:                              # %for.inc97
                                        #   in Loop: Header=BB12_4 Depth=2
	movl	-4(%rbp), %eax
	addl	$1, %eax
	movl	%eax, -4(%rbp)
	jmp	.LBB12_4
.LBB12_14:                              # %for.end99
                                        #   in Loop: Header=BB12_2 Depth=1
	jmp	.LBB12_15
.LBB12_15:                              # %for.inc100
                                        #   in Loop: Header=BB12_2 Depth=1
	movl	-8(%rbp), %eax
	addl	$1, %eax
	movl	%eax, -8(%rbp)
	jmp	.LBB12_2
.LBB12_16:                              # %for.end102
	jmp	.LBB12_33
.LBB12_17:                              # %if.else103
	movl	$0, -8(%rbp)
.LBB12_18:                              # %for.cond104
                                        # =>This Loop Header: Depth=1
                                        #     Child Loop BB12_20 Depth 2
                                        #       Child Loop BB12_22 Depth 3
	cmpl	$13, -8(%rbp)
	jge	.LBB12_32
# %bb.19:                               # %for.body107
                                        #   in Loop: Header=BB12_18 Depth=1
	movl	-8(%rbp), %eax
	addl	$15, %eax
	subl	$10, %eax
	movl	%eax, -16(%rbp)
	movl	$0, -4(%rbp)
.LBB12_20:                              # %for.cond110
                                        #   Parent Loop BB12_18 Depth=1
                                        # =>  This Loop Header: Depth=2
                                        #       Child Loop BB12_22 Depth 3
	cmpl	$4, -4(%rbp)
	jge	.LBB12_30
# %bb.21:                               # %for.body113
                                        #   in Loop: Header=BB12_20 Depth=2
	movl	$0, -12(%rbp)
.LBB12_22:                              # %for.cond114
                                        #   Parent Loop BB12_18 Depth=1
                                        #     Parent Loop BB12_20 Depth=2
                                        # =>    This Inner Loop Header: Depth=3
	cmpl	$4, -12(%rbp)
	jge	.LBB12_28
# %bb.23:                               # %for.body117
                                        #   in Loop: Header=BB12_22 Depth=3
	movl	-12(%rbp), %eax
	shll	$2, %eax
	addl	-4(%rbp), %eax
	movl	%eax, -20(%rbp)
	movq	img, %rax
	cmpl	$2, 24(%rax)
	jne	.LBB12_25
# %bb.24:                               # %if.then123
                                        #   in Loop: Header=BB12_22 Depth=3
	movabsq	$LevelOffset4x4Chroma_Intra, %rdx
	movq	%rdx, %rax
	addq	$832, %rax              # imm = 0x340
	movslq	-20(%rbp), %rcx
	movswl	Offset_intra_default_intra(,%rcx,2), %esi
	movl	-16(%rbp), %ecx
                                        # kill: def $cl killed $ecx
	shll	%cl, %esi
	movslq	-8(%rbp), %rcx
	shlq	$6, %rcx
	movabsq	$LevelOffset4x4Luma_Intra, %rdi
	addq	%rcx, %rdi
	movslq	-4(%rbp), %rcx
	shlq	$4, %rcx
	addq	%rcx, %rdi
	movslq	-12(%rbp), %rcx
	movl	%esi, (%rdi,%rcx,4)
	movslq	-20(%rbp), %rcx
	movswl	Offset_intra_default_intra(,%rcx,2), %esi
	movl	-16(%rbp), %ecx
                                        # kill: def $cl killed $ecx
	shll	%cl, %esi
	movslq	-8(%rbp), %rcx
	shlq	$6, %rcx
	addq	%rcx, %rdx
	movslq	-4(%rbp), %rcx
	shlq	$4, %rcx
	addq	%rcx, %rdx
	movslq	-12(%rbp), %rcx
	movl	%esi, (%rdx,%rcx,4)
	movslq	-20(%rbp), %rcx
	movswl	Offset_intra_default_intra(,%rcx,2), %edx
	movl	-16(%rbp), %ecx
                                        # kill: def $cl killed $ecx
	shll	%cl, %edx
	movslq	-8(%rbp), %rcx
	shlq	$6, %rcx
	addq	%rcx, %rax
	movslq	-4(%rbp), %rcx
	shlq	$4, %rcx
	addq	%rcx, %rax
	movslq	-12(%rbp), %rcx
	movl	%edx, (%rax,%rcx,4)
	jmp	.LBB12_26
.LBB12_25:                              # %if.else154
                                        #   in Loop: Header=BB12_22 Depth=3
	movabsq	$LevelOffset4x4Chroma_Intra, %rdx
	movq	%rdx, %rax
	addq	$832, %rax              # imm = 0x340
	movslq	-20(%rbp), %rcx
	movswl	Offset_intra_default_inter(,%rcx,2), %esi
	movl	-16(%rbp), %ecx
                                        # kill: def $cl killed $ecx
	shll	%cl, %esi
	movslq	-8(%rbp), %rcx
	shlq	$6, %rcx
	movabsq	$LevelOffset4x4Luma_Intra, %rdi
	addq	%rcx, %rdi
	movslq	-4(%rbp), %rcx
	shlq	$4, %rcx
	addq	%rcx, %rdi
	movslq	-12(%rbp), %rcx
	movl	%esi, (%rdi,%rcx,4)
	movslq	-20(%rbp), %rcx
	movswl	Offset_intra_default_inter(,%rcx,2), %esi
	movl	-16(%rbp), %ecx
                                        # kill: def $cl killed $ecx
	shll	%cl, %esi
	movslq	-8(%rbp), %rcx
	shlq	$6, %rcx
	addq	%rcx, %rdx
	movslq	-4(%rbp), %rcx
	shlq	$4, %rcx
	addq	%rcx, %rdx
	movslq	-12(%rbp), %rcx
	movl	%esi, (%rdx,%rcx,4)
	movslq	-20(%rbp), %rcx
	movswl	Offset_intra_default_inter(,%rcx,2), %edx
	movl	-16(%rbp), %ecx
                                        # kill: def $cl killed $ecx
	shll	%cl, %edx
	movslq	-8(%rbp), %rcx
	shlq	$6, %rcx
	addq	%rcx, %rax
	movslq	-4(%rbp), %rcx
	shlq	$4, %rcx
	addq	%rcx, %rax
	movslq	-12(%rbp), %rcx
	movl	%edx, (%rax,%rcx,4)
.LBB12_26:                              # %if.end185
                                        #   in Loop: Header=BB12_22 Depth=3
	movabsq	$LevelOffset4x4Chroma_Inter, %rdx
	movq	%rdx, %rax
	addq	$832, %rax              # imm = 0x340
	movslq	-20(%rbp), %rcx
	movswl	Offset_inter_default(,%rcx,2), %esi
	movl	-16(%rbp), %ecx
                                        # kill: def $cl killed $ecx
	shll	%cl, %esi
	movslq	-8(%rbp), %rcx
	shlq	$6, %rcx
	movabsq	$LevelOffset4x4Luma_Inter, %rdi
	addq	%rcx, %rdi
	movslq	-4(%rbp), %rcx
	shlq	$4, %rcx
	addq	%rcx, %rdi
	movslq	-12(%rbp), %rcx
	movl	%esi, (%rdi,%rcx,4)
	movslq	-20(%rbp), %rcx
	movswl	Offset_inter_default(,%rcx,2), %esi
	movl	-16(%rbp), %ecx
                                        # kill: def $cl killed $ecx
	shll	%cl, %esi
	movslq	-8(%rbp), %rcx
	shlq	$6, %rcx
	addq	%rcx, %rdx
	movslq	-4(%rbp), %rcx
	shlq	$4, %rcx
	addq	%rcx, %rdx
	movslq	-12(%rbp), %rcx
	movl	%esi, (%rdx,%rcx,4)
	movslq	-20(%rbp), %rcx
	movswl	Offset_inter_default(,%rcx,2), %edx
	movl	-16(%rbp), %ecx
                                        # kill: def $cl killed $ecx
	shll	%cl, %edx
	movslq	-8(%rbp), %rcx
	shlq	$6, %rcx
	addq	%rcx, %rax
	movslq	-4(%rbp), %rcx
	shlq	$4, %rcx
	addq	%rcx, %rax
	movslq	-12(%rbp), %rcx
	movl	%edx, (%rax,%rcx,4)
# %bb.27:                               # %for.inc216
                                        #   in Loop: Header=BB12_22 Depth=3
	movl	-12(%rbp), %eax
	addl	$1, %eax
	movl	%eax, -12(%rbp)
	jmp	.LBB12_22
.LBB12_28:                              # %for.end218
                                        #   in Loop: Header=BB12_20 Depth=2
	jmp	.LBB12_29
.LBB12_29:                              # %for.inc219
                                        #   in Loop: Header=BB12_20 Depth=2
	movl	-4(%rbp), %eax
	addl	$1, %eax
	movl	%eax, -4(%rbp)
	jmp	.LBB12_20
.LBB12_30:                              # %for.end221
                                        #   in Loop: Header=BB12_18 Depth=1
	jmp	.LBB12_31
.LBB12_31:                              # %for.inc222
                                        #   in Loop: Header=BB12_18 Depth=1
	movl	-8(%rbp), %eax
	addl	$1, %eax
	movl	%eax, -8(%rbp)
	jmp	.LBB12_18
.LBB12_32:                              # %for.end224
	jmp	.LBB12_33
.LBB12_33:                              # %if.end225
	cmpl	$1353361067, -24(%rbp)  # imm = 0x50AAA6AB
	jne	.LBB12_35
.LBB12_34:
	addq	$32, %rsp
	popq	%rbp
	.cfi_def_cfa %rsp, 8
	retq
.LBB12_35:                              # %func_exit
	.cfi_def_cfa %rbp, 16
	callq	detect_breach
	jmp	.LBB12_34
.Lfunc_end12:
	.size	CalculateOffsetParam.8, .Lfunc_end12-CalculateOffsetParam.8
	.cfi_endproc
                                        # -- End function
	.globl	CheckOffsetParameterName.9 # -- Begin function CheckOffsetParameterName.9
	.p2align	4, 0x90
	.type	CheckOffsetParameterName.9,@function
CheckOffsetParameterName.9:             # @CheckOffsetParameterName.9
	.cfi_startproc
# %bb.0:                                # %entry
	pushq	%rbp
	.cfi_def_cfa_offset 16
	.cfi_offset %rbp, -16
	movq	%rsp, %rbp
	.cfi_def_cfa_register %rbp
	pushq	%rbx
	subq	$40, %rsp
	.cfi_offset %rbx, -24
	movl	$1111946796, -20(%rbp)  # imm = 0x4246F62C
	movq	%rdi, -40(%rbp)
	movq	%rsi, -32(%rbp)
	movl	$0, -12(%rbp)
	movq	-32(%rbp), %rax
	movl	$0, (%rax)
.LBB13_1:                               # %while.cond
                                        # =>This Inner Loop Header: Depth=1
	xorl	%eax, %eax
	movslq	-12(%rbp), %rcx
	imulq	$24, %rcx, %rcx
	movabsq	$OffsetType4x4, %rdx
	addq	%rcx, %rdx
	cmpq	$0, %rdx
	je	.LBB13_3
# %bb.2:                                # %land.rhs
                                        #   in Loop: Header=BB13_1 Depth=1
	cmpl	$9, -12(%rbp)
	setl	%al
.LBB13_3:                               # %land.end
                                        #   in Loop: Header=BB13_1 Depth=1
	testb	$1, %al
	jne	.LBB13_4
	jmp	.LBB13_8
.LBB13_4:                               # %while.body
                                        #   in Loop: Header=BB13_1 Depth=1
	xorl	%ebx, %ebx
	movslq	-12(%rbp), %rax
	imulq	$24, %rax, %rax
	movabsq	$OffsetType4x4, %rdi
	addq	%rax, %rdi
	movq	-40(%rbp), %rsi
	callq	strcmp
	cmpl	%eax, %ebx
	jne	.LBB13_6
# %bb.5:                                # %if.then
	movl	-12(%rbp), %eax
	movl	%eax, -16(%rbp)
	jmp	.LBB13_17
.LBB13_6:                               # %if.else
                                        #   in Loop: Header=BB13_1 Depth=1
	movl	-12(%rbp), %eax
	addl	$1, %eax
	movl	%eax, -12(%rbp)
# %bb.7:                                # %if.end
                                        #   in Loop: Header=BB13_1 Depth=1
	jmp	.LBB13_1
.LBB13_8:                               # %while.end
	movl	$0, -12(%rbp)
	movq	-32(%rbp), %rax
	movl	$1, (%rax)
.LBB13_9:                               # %while.cond6
                                        # =>This Inner Loop Header: Depth=1
	xorl	%eax, %eax
	movslq	-12(%rbp), %rcx
	imulq	$24, %rcx, %rcx
	movabsq	$OffsetType8x8, %rdx
	addq	%rcx, %rdx
	cmpq	$0, %rdx
	je	.LBB13_11
# %bb.10:                               # %land.rhs11
                                        #   in Loop: Header=BB13_9 Depth=1
	cmpl	$3, -12(%rbp)
	setl	%al
.LBB13_11:                              # %land.end13
                                        #   in Loop: Header=BB13_9 Depth=1
	testb	$1, %al
	jne	.LBB13_12
	jmp	.LBB13_16
.LBB13_12:                              # %while.body14
                                        #   in Loop: Header=BB13_9 Depth=1
	xorl	%ebx, %ebx
	movslq	-12(%rbp), %rax
	imulq	$24, %rax, %rax
	movabsq	$OffsetType8x8, %rdi
	addq	%rax, %rdi
	movq	-40(%rbp), %rsi
	callq	strcmp
	cmpl	%eax, %ebx
	jne	.LBB13_14
# %bb.13:                               # %if.then20
	movl	-12(%rbp), %eax
	movl	%eax, -16(%rbp)
	jmp	.LBB13_17
.LBB13_14:                              # %if.else21
                                        #   in Loop: Header=BB13_9 Depth=1
	movl	-12(%rbp), %eax
	addl	$1, %eax
	movl	%eax, -12(%rbp)
# %bb.15:                               # %if.end23
                                        #   in Loop: Header=BB13_9 Depth=1
	jmp	.LBB13_9
.LBB13_16:                              # %while.end24
	movl	$-1, -16(%rbp)
.LBB13_17:                              # %return
	movl	-16(%rbp), %ebx
	cmpl	$1111946796, -20(%rbp)  # imm = 0x4246F62C
	jne	.LBB13_19
.LBB13_18:
	movl	%ebx, %eax
	addq	$40, %rsp
	popq	%rbx
	popq	%rbp
	.cfi_def_cfa %rsp, 8
	retq
.LBB13_19:                              # %func_exit
	.cfi_def_cfa %rbp, 16
	callq	detect_breach
	jmp	.LBB13_18
.Lfunc_end13:
	.size	CheckOffsetParameterName.9, .Lfunc_end13-CheckOffsetParameterName.9
	.cfi_endproc
                                        # -- End function
	.globl	CalculateOffset8Param.10 # -- Begin function CalculateOffset8Param.10
	.p2align	4, 0x90
	.type	CalculateOffset8Param.10,@function
CalculateOffset8Param.10:               # @CalculateOffset8Param.10
	.cfi_startproc
# %bb.0:                                # %entry
	pushq	%rbp
	.cfi_def_cfa_offset 16
	.cfi_offset %rbp, -16
	movq	%rsp, %rbp
	.cfi_def_cfa_register %rbp
	subq	$32, %rsp
	movl	$1199183288, -24(%rbp)  # imm = 0x477A15B8
	movq	input, %rax
	cmpl	$0, 3584(%rax)
	je	.LBB14_17
# %bb.1:                                # %if.then
	movl	$0, -8(%rbp)
.LBB14_2:                               # %for.cond
                                        # =>This Loop Header: Depth=1
                                        #     Child Loop BB14_4 Depth 2
                                        #       Child Loop BB14_6 Depth 3
	cmpl	$13, -8(%rbp)
	jge	.LBB14_16
# %bb.3:                                # %for.body
                                        #   in Loop: Header=BB14_2 Depth=1
	movl	-8(%rbp), %eax
	addl	$16, %eax
	subl	$10, %eax
	movl	%eax, -20(%rbp)
	movl	$0, -12(%rbp)
.LBB14_4:                               # %for.cond1
                                        #   Parent Loop BB14_2 Depth=1
                                        # =>  This Loop Header: Depth=2
                                        #       Child Loop BB14_6 Depth 3
	cmpl	$8, -12(%rbp)
	jge	.LBB14_14
# %bb.5:                                # %for.body3
                                        #   in Loop: Header=BB14_4 Depth=2
	movl	$0, -4(%rbp)
.LBB14_6:                               # %for.cond4
                                        #   Parent Loop BB14_2 Depth=1
                                        #     Parent Loop BB14_4 Depth=2
                                        # =>    This Inner Loop Header: Depth=3
	cmpl	$8, -4(%rbp)
	jge	.LBB14_12
# %bb.7:                                # %for.body6
                                        #   in Loop: Header=BB14_6 Depth=3
	movl	-4(%rbp), %eax
	shll	$3, %eax
	addl	-12(%rbp), %eax
	movl	%eax, -16(%rbp)
	movq	img, %rax
	cmpl	$2, 24(%rax)
	jne	.LBB14_9
# %bb.8:                                # %if.then9
                                        #   in Loop: Header=BB14_6 Depth=3
	movslq	-16(%rbp), %rax
	movswl	OffsetList8x8input(,%rax,2), %eax
	movl	-20(%rbp), %ecx
                                        # kill: def $cl killed $ecx
	shll	%cl, %eax
	movslq	-8(%rbp), %rcx
	shlq	$8, %rcx
	movabsq	$LevelOffset8x8Luma_Intra, %rdx
	addq	%rcx, %rdx
	movslq	-12(%rbp), %rcx
	shlq	$5, %rcx
	addq	%rcx, %rdx
	movslq	-4(%rbp), %rcx
	movl	%eax, (%rdx,%rcx,4)
	jmp	.LBB14_10
.LBB14_9:                               # %if.else
                                        #   in Loop: Header=BB14_6 Depth=3
	movslq	-16(%rbp), %rax
	movswl	OffsetList8x8input+128(,%rax,2), %eax
	movl	-20(%rbp), %ecx
                                        # kill: def $cl killed $ecx
	shll	%cl, %eax
	movslq	-8(%rbp), %rcx
	shlq	$8, %rcx
	movabsq	$LevelOffset8x8Luma_Intra, %rdx
	addq	%rcx, %rdx
	movslq	-12(%rbp), %rcx
	shlq	$5, %rcx
	addq	%rcx, %rdx
	movslq	-4(%rbp), %rcx
	movl	%eax, (%rdx,%rcx,4)
.LBB14_10:                              # %if.end
                                        #   in Loop: Header=BB14_6 Depth=3
	movslq	-16(%rbp), %rax
	movswl	OffsetList8x8input+256(,%rax,2), %eax
	movl	-20(%rbp), %ecx
                                        # kill: def $cl killed $ecx
	shll	%cl, %eax
	movslq	-8(%rbp), %rcx
	shlq	$8, %rcx
	movabsq	$LevelOffset8x8Luma_Inter, %rdx
	addq	%rcx, %rdx
	movslq	-12(%rbp), %rcx
	shlq	$5, %rcx
	addq	%rcx, %rdx
	movslq	-4(%rbp), %rcx
	movl	%eax, (%rdx,%rcx,4)
# %bb.11:                               # %for.inc
                                        #   in Loop: Header=BB14_6 Depth=3
	movl	-4(%rbp), %eax
	addl	$1, %eax
	movl	%eax, -4(%rbp)
	jmp	.LBB14_6
.LBB14_12:                              # %for.end
                                        #   in Loop: Header=BB14_4 Depth=2
	jmp	.LBB14_13
.LBB14_13:                              # %for.inc37
                                        #   in Loop: Header=BB14_4 Depth=2
	movl	-12(%rbp), %eax
	addl	$1, %eax
	movl	%eax, -12(%rbp)
	jmp	.LBB14_4
.LBB14_14:                              # %for.end39
                                        #   in Loop: Header=BB14_2 Depth=1
	jmp	.LBB14_15
.LBB14_15:                              # %for.inc40
                                        #   in Loop: Header=BB14_2 Depth=1
	movl	-8(%rbp), %eax
	addl	$1, %eax
	movl	%eax, -8(%rbp)
	jmp	.LBB14_2
.LBB14_16:                              # %for.end42
	jmp	.LBB14_33
.LBB14_17:                              # %if.else43
	movl	$0, -8(%rbp)
.LBB14_18:                              # %for.cond44
                                        # =>This Loop Header: Depth=1
                                        #     Child Loop BB14_20 Depth 2
                                        #       Child Loop BB14_22 Depth 3
	cmpl	$13, -8(%rbp)
	jge	.LBB14_32
# %bb.19:                               # %for.body47
                                        #   in Loop: Header=BB14_18 Depth=1
	movl	-8(%rbp), %eax
	addl	$16, %eax
	subl	$10, %eax
	movl	%eax, -20(%rbp)
	movl	$0, -12(%rbp)
.LBB14_20:                              # %for.cond50
                                        #   Parent Loop BB14_18 Depth=1
                                        # =>  This Loop Header: Depth=2
                                        #       Child Loop BB14_22 Depth 3
	cmpl	$8, -12(%rbp)
	jge	.LBB14_30
# %bb.21:                               # %for.body53
                                        #   in Loop: Header=BB14_20 Depth=2
	movl	$0, -4(%rbp)
.LBB14_22:                              # %for.cond54
                                        #   Parent Loop BB14_18 Depth=1
                                        #     Parent Loop BB14_20 Depth=2
                                        # =>    This Inner Loop Header: Depth=3
	cmpl	$8, -4(%rbp)
	jge	.LBB14_28
# %bb.23:                               # %for.body57
                                        #   in Loop: Header=BB14_22 Depth=3
	movl	-4(%rbp), %eax
	shll	$3, %eax
	addl	-12(%rbp), %eax
	movl	%eax, -16(%rbp)
	movq	img, %rax
	cmpl	$2, 24(%rax)
	jne	.LBB14_25
# %bb.24:                               # %if.then63
                                        #   in Loop: Header=BB14_22 Depth=3
	movslq	-16(%rbp), %rax
	movswl	Offset8_intra_default_intra(,%rax,2), %eax
	movl	-20(%rbp), %ecx
                                        # kill: def $cl killed $ecx
	shll	%cl, %eax
	movslq	-8(%rbp), %rcx
	shlq	$8, %rcx
	movabsq	$LevelOffset8x8Luma_Intra, %rdx
	addq	%rcx, %rdx
	movslq	-12(%rbp), %rcx
	shlq	$5, %rcx
	addq	%rcx, %rdx
	movslq	-4(%rbp), %rcx
	movl	%eax, (%rdx,%rcx,4)
	jmp	.LBB14_26
.LBB14_25:                              # %if.else74
                                        #   in Loop: Header=BB14_22 Depth=3
	movslq	-16(%rbp), %rax
	movswl	Offset8_intra_default_inter(,%rax,2), %eax
	movl	-20(%rbp), %ecx
                                        # kill: def $cl killed $ecx
	shll	%cl, %eax
	movslq	-8(%rbp), %rcx
	shlq	$8, %rcx
	movabsq	$LevelOffset8x8Luma_Intra, %rdx
	addq	%rcx, %rdx
	movslq	-12(%rbp), %rcx
	shlq	$5, %rcx
	addq	%rcx, %rdx
	movslq	-4(%rbp), %rcx
	movl	%eax, (%rdx,%rcx,4)
.LBB14_26:                              # %if.end85
                                        #   in Loop: Header=BB14_22 Depth=3
	movslq	-16(%rbp), %rax
	movswl	Offset8_inter_default(,%rax,2), %eax
	movl	-20(%rbp), %ecx
                                        # kill: def $cl killed $ecx
	shll	%cl, %eax
	movslq	-8(%rbp), %rcx
	shlq	$8, %rcx
	movabsq	$LevelOffset8x8Luma_Inter, %rdx
	addq	%rcx, %rdx
	movslq	-12(%rbp), %rcx
	shlq	$5, %rcx
	addq	%rcx, %rdx
	movslq	-4(%rbp), %rcx
	movl	%eax, (%rdx,%rcx,4)
# %bb.27:                               # %for.inc96
                                        #   in Loop: Header=BB14_22 Depth=3
	movl	-4(%rbp), %eax
	addl	$1, %eax
	movl	%eax, -4(%rbp)
	jmp	.LBB14_22
.LBB14_28:                              # %for.end98
                                        #   in Loop: Header=BB14_20 Depth=2
	jmp	.LBB14_29
.LBB14_29:                              # %for.inc99
                                        #   in Loop: Header=BB14_20 Depth=2
	movl	-12(%rbp), %eax
	addl	$1, %eax
	movl	%eax, -12(%rbp)
	jmp	.LBB14_20
.LBB14_30:                              # %for.end101
                                        #   in Loop: Header=BB14_18 Depth=1
	jmp	.LBB14_31
.LBB14_31:                              # %for.inc102
                                        #   in Loop: Header=BB14_18 Depth=1
	movl	-8(%rbp), %eax
	addl	$1, %eax
	movl	%eax, -8(%rbp)
	jmp	.LBB14_18
.LBB14_32:                              # %for.end104
	jmp	.LBB14_33
.LBB14_33:                              # %if.end105
	cmpl	$1199183288, -24(%rbp)  # imm = 0x477A15B8
	jne	.LBB14_35
.LBB14_34:
	addq	$32, %rsp
	popq	%rbp
	.cfi_def_cfa %rsp, 8
	retq
.LBB14_35:                              # %func_exit
	.cfi_def_cfa %rbp, 16
	callq	detect_breach
	jmp	.LBB14_34
.Lfunc_end14:
	.size	CalculateOffset8Param.10, .Lfunc_end14-CalculateOffset8Param.10
	.cfi_endproc
                                        # -- End function
	.globl	CalculateOffsetParam.11 # -- Begin function CalculateOffsetParam.11
	.p2align	4, 0x90
	.type	CalculateOffsetParam.11,@function
CalculateOffsetParam.11:                # @CalculateOffsetParam.11
	.cfi_startproc
# %bb.0:                                # %entry
	pushq	%rbp
	.cfi_def_cfa_offset 16
	.cfi_offset %rbp, -16
	movq	%rsp, %rbp
	.cfi_def_cfa_register %rbp
	subq	$32, %rsp
	movl	$1125443749, -24(%rbp)  # imm = 0x4314E8A5
	movq	input, %rax
	cmpl	$0, 3584(%rax)
	je	.LBB15_17
# %bb.1:                                # %if.then
	movl	$0, -8(%rbp)
.LBB15_2:                               # %for.cond
                                        # =>This Loop Header: Depth=1
                                        #     Child Loop BB15_4 Depth 2
                                        #       Child Loop BB15_6 Depth 3
	cmpl	$13, -8(%rbp)
	jge	.LBB15_16
# %bb.3:                                # %for.body
                                        #   in Loop: Header=BB15_2 Depth=1
	movl	-8(%rbp), %eax
	addl	$15, %eax
	subl	$10, %eax
	movl	%eax, -20(%rbp)
	movl	$0, -4(%rbp)
.LBB15_4:                               # %for.cond1
                                        #   Parent Loop BB15_2 Depth=1
                                        # =>  This Loop Header: Depth=2
                                        #       Child Loop BB15_6 Depth 3
	cmpl	$4, -4(%rbp)
	jge	.LBB15_14
# %bb.5:                                # %for.body3
                                        #   in Loop: Header=BB15_4 Depth=2
	movl	$0, -12(%rbp)
.LBB15_6:                               # %for.cond4
                                        #   Parent Loop BB15_2 Depth=1
                                        #     Parent Loop BB15_4 Depth=2
                                        # =>    This Inner Loop Header: Depth=3
	cmpl	$4, -12(%rbp)
	jge	.LBB15_12
# %bb.7:                                # %for.body6
                                        #   in Loop: Header=BB15_6 Depth=3
	movl	-12(%rbp), %eax
	shll	$2, %eax
	addl	-4(%rbp), %eax
	movl	%eax, -16(%rbp)
	movq	img, %rax
	cmpl	$2, 24(%rax)
	jne	.LBB15_9
# %bb.8:                                # %if.then9
                                        #   in Loop: Header=BB15_6 Depth=3
	movabsq	$LevelOffset4x4Chroma_Intra, %rdx
	movq	%rdx, %rax
	addq	$832, %rax              # imm = 0x340
	movslq	-16(%rbp), %rcx
	movswl	OffsetList4x4input(,%rcx,2), %esi
	movl	-20(%rbp), %ecx
                                        # kill: def $cl killed $ecx
	shll	%cl, %esi
	movslq	-8(%rbp), %rcx
	shlq	$6, %rcx
	movabsq	$LevelOffset4x4Luma_Intra, %rdi
	addq	%rcx, %rdi
	movslq	-4(%rbp), %rcx
	shlq	$4, %rcx
	addq	%rcx, %rdi
	movslq	-12(%rbp), %rcx
	movl	%esi, (%rdi,%rcx,4)
	movslq	-16(%rbp), %rcx
	movswl	OffsetList4x4input+32(,%rcx,2), %esi
	movl	-20(%rbp), %ecx
                                        # kill: def $cl killed $ecx
	shll	%cl, %esi
	movslq	-8(%rbp), %rcx
	shlq	$6, %rcx
	addq	%rcx, %rdx
	movslq	-4(%rbp), %rcx
	shlq	$4, %rcx
	addq	%rcx, %rdx
	movslq	-12(%rbp), %rcx
	movl	%esi, (%rdx,%rcx,4)
	movslq	-16(%rbp), %rcx
	movswl	OffsetList4x4input+64(,%rcx,2), %edx
	movl	-20(%rbp), %ecx
                                        # kill: def $cl killed $ecx
	shll	%cl, %edx
	movslq	-8(%rbp), %rcx
	shlq	$6, %rcx
	addq	%rcx, %rax
	movslq	-4(%rbp), %rcx
	shlq	$4, %rcx
	addq	%rcx, %rax
	movslq	-12(%rbp), %rcx
	movl	%edx, (%rax,%rcx,4)
	jmp	.LBB15_10
.LBB15_9:                               # %if.else
                                        #   in Loop: Header=BB15_6 Depth=3
	movabsq	$LevelOffset4x4Chroma_Intra, %rdx
	movq	%rdx, %rax
	addq	$832, %rax              # imm = 0x340
	movslq	-16(%rbp), %rcx
	movswl	OffsetList4x4input+96(,%rcx,2), %esi
	movl	-20(%rbp), %ecx
                                        # kill: def $cl killed $ecx
	shll	%cl, %esi
	movslq	-8(%rbp), %rcx
	shlq	$6, %rcx
	movabsq	$LevelOffset4x4Luma_Intra, %rdi
	addq	%rcx, %rdi
	movslq	-4(%rbp), %rcx
	shlq	$4, %rcx
	addq	%rcx, %rdi
	movslq	-12(%rbp), %rcx
	movl	%esi, (%rdi,%rcx,4)
	movslq	-16(%rbp), %rcx
	movswl	OffsetList4x4input+128(,%rcx,2), %esi
	movl	-20(%rbp), %ecx
                                        # kill: def $cl killed $ecx
	shll	%cl, %esi
	movslq	-8(%rbp), %rcx
	shlq	$6, %rcx
	addq	%rcx, %rdx
	movslq	-4(%rbp), %rcx
	shlq	$4, %rcx
	addq	%rcx, %rdx
	movslq	-12(%rbp), %rcx
	movl	%esi, (%rdx,%rcx,4)
	movslq	-16(%rbp), %rcx
	movswl	OffsetList4x4input+160(,%rcx,2), %edx
	movl	-20(%rbp), %ecx
                                        # kill: def $cl killed $ecx
	shll	%cl, %edx
	movslq	-8(%rbp), %rcx
	shlq	$6, %rcx
	addq	%rcx, %rax
	movslq	-4(%rbp), %rcx
	shlq	$4, %rcx
	addq	%rcx, %rax
	movslq	-12(%rbp), %rcx
	movl	%edx, (%rax,%rcx,4)
.LBB15_10:                              # %if.end
                                        #   in Loop: Header=BB15_6 Depth=3
	movabsq	$LevelOffset4x4Chroma_Inter, %rdx
	movq	%rdx, %rax
	addq	$832, %rax              # imm = 0x340
	movslq	-16(%rbp), %rcx
	movswl	OffsetList4x4input+192(,%rcx,2), %esi
	movl	-20(%rbp), %ecx
                                        # kill: def $cl killed $ecx
	shll	%cl, %esi
	movslq	-8(%rbp), %rcx
	shlq	$6, %rcx
	movabsq	$LevelOffset4x4Luma_Inter, %rdi
	addq	%rcx, %rdi
	movslq	-4(%rbp), %rcx
	shlq	$4, %rcx
	addq	%rcx, %rdi
	movslq	-12(%rbp), %rcx
	movl	%esi, (%rdi,%rcx,4)
	movslq	-16(%rbp), %rcx
	movswl	OffsetList4x4input+224(,%rcx,2), %esi
	movl	-20(%rbp), %ecx
                                        # kill: def $cl killed $ecx
	shll	%cl, %esi
	movslq	-8(%rbp), %rcx
	shlq	$6, %rcx
	addq	%rcx, %rdx
	movslq	-4(%rbp), %rcx
	shlq	$4, %rcx
	addq	%rcx, %rdx
	movslq	-12(%rbp), %rcx
	movl	%esi, (%rdx,%rcx,4)
	movslq	-16(%rbp), %rcx
	movswl	OffsetList4x4input+256(,%rcx,2), %edx
	movl	-20(%rbp), %ecx
                                        # kill: def $cl killed $ecx
	shll	%cl, %edx
	movslq	-8(%rbp), %rcx
	shlq	$6, %rcx
	addq	%rcx, %rax
	movslq	-4(%rbp), %rcx
	shlq	$4, %rcx
	addq	%rcx, %rax
	movslq	-12(%rbp), %rcx
	movl	%edx, (%rax,%rcx,4)
# %bb.11:                               # %for.inc
                                        #   in Loop: Header=BB15_6 Depth=3
	movl	-12(%rbp), %eax
	addl	$1, %eax
	movl	%eax, -12(%rbp)
	jmp	.LBB15_6
.LBB15_12:                              # %for.end
                                        #   in Loop: Header=BB15_4 Depth=2
	jmp	.LBB15_13
.LBB15_13:                              # %for.inc97
                                        #   in Loop: Header=BB15_4 Depth=2
	movl	-4(%rbp), %eax
	addl	$1, %eax
	movl	%eax, -4(%rbp)
	jmp	.LBB15_4
.LBB15_14:                              # %for.end99
                                        #   in Loop: Header=BB15_2 Depth=1
	jmp	.LBB15_15
.LBB15_15:                              # %for.inc100
                                        #   in Loop: Header=BB15_2 Depth=1
	movl	-8(%rbp), %eax
	addl	$1, %eax
	movl	%eax, -8(%rbp)
	jmp	.LBB15_2
.LBB15_16:                              # %for.end102
	jmp	.LBB15_33
.LBB15_17:                              # %if.else103
	movl	$0, -8(%rbp)
.LBB15_18:                              # %for.cond104
                                        # =>This Loop Header: Depth=1
                                        #     Child Loop BB15_20 Depth 2
                                        #       Child Loop BB15_22 Depth 3
	cmpl	$13, -8(%rbp)
	jge	.LBB15_32
# %bb.19:                               # %for.body107
                                        #   in Loop: Header=BB15_18 Depth=1
	movl	-8(%rbp), %eax
	addl	$15, %eax
	subl	$10, %eax
	movl	%eax, -20(%rbp)
	movl	$0, -4(%rbp)
.LBB15_20:                              # %for.cond110
                                        #   Parent Loop BB15_18 Depth=1
                                        # =>  This Loop Header: Depth=2
                                        #       Child Loop BB15_22 Depth 3
	cmpl	$4, -4(%rbp)
	jge	.LBB15_30
# %bb.21:                               # %for.body113
                                        #   in Loop: Header=BB15_20 Depth=2
	movl	$0, -12(%rbp)
.LBB15_22:                              # %for.cond114
                                        #   Parent Loop BB15_18 Depth=1
                                        #     Parent Loop BB15_20 Depth=2
                                        # =>    This Inner Loop Header: Depth=3
	cmpl	$4, -12(%rbp)
	jge	.LBB15_28
# %bb.23:                               # %for.body117
                                        #   in Loop: Header=BB15_22 Depth=3
	movl	-12(%rbp), %eax
	shll	$2, %eax
	addl	-4(%rbp), %eax
	movl	%eax, -16(%rbp)
	movq	img, %rax
	cmpl	$2, 24(%rax)
	jne	.LBB15_25
# %bb.24:                               # %if.then123
                                        #   in Loop: Header=BB15_22 Depth=3
	movabsq	$LevelOffset4x4Chroma_Intra, %rdx
	movq	%rdx, %rax
	addq	$832, %rax              # imm = 0x340
	movslq	-16(%rbp), %rcx
	movswl	Offset_intra_default_intra(,%rcx,2), %esi
	movl	-20(%rbp), %ecx
                                        # kill: def $cl killed $ecx
	shll	%cl, %esi
	movslq	-8(%rbp), %rcx
	shlq	$6, %rcx
	movabsq	$LevelOffset4x4Luma_Intra, %rdi
	addq	%rcx, %rdi
	movslq	-4(%rbp), %rcx
	shlq	$4, %rcx
	addq	%rcx, %rdi
	movslq	-12(%rbp), %rcx
	movl	%esi, (%rdi,%rcx,4)
	movslq	-16(%rbp), %rcx
	movswl	Offset_intra_default_intra(,%rcx,2), %esi
	movl	-20(%rbp), %ecx
                                        # kill: def $cl killed $ecx
	shll	%cl, %esi
	movslq	-8(%rbp), %rcx
	shlq	$6, %rcx
	addq	%rcx, %rdx
	movslq	-4(%rbp), %rcx
	shlq	$4, %rcx
	addq	%rcx, %rdx
	movslq	-12(%rbp), %rcx
	movl	%esi, (%rdx,%rcx,4)
	movslq	-16(%rbp), %rcx
	movswl	Offset_intra_default_intra(,%rcx,2), %edx
	movl	-20(%rbp), %ecx
                                        # kill: def $cl killed $ecx
	shll	%cl, %edx
	movslq	-8(%rbp), %rcx
	shlq	$6, %rcx
	addq	%rcx, %rax
	movslq	-4(%rbp), %rcx
	shlq	$4, %rcx
	addq	%rcx, %rax
	movslq	-12(%rbp), %rcx
	movl	%edx, (%rax,%rcx,4)
	jmp	.LBB15_26
.LBB15_25:                              # %if.else154
                                        #   in Loop: Header=BB15_22 Depth=3
	movabsq	$LevelOffset4x4Chroma_Intra, %rdx
	movq	%rdx, %rax
	addq	$832, %rax              # imm = 0x340
	movslq	-16(%rbp), %rcx
	movswl	Offset_intra_default_inter(,%rcx,2), %esi
	movl	-20(%rbp), %ecx
                                        # kill: def $cl killed $ecx
	shll	%cl, %esi
	movslq	-8(%rbp), %rcx
	shlq	$6, %rcx
	movabsq	$LevelOffset4x4Luma_Intra, %rdi
	addq	%rcx, %rdi
	movslq	-4(%rbp), %rcx
	shlq	$4, %rcx
	addq	%rcx, %rdi
	movslq	-12(%rbp), %rcx
	movl	%esi, (%rdi,%rcx,4)
	movslq	-16(%rbp), %rcx
	movswl	Offset_intra_default_inter(,%rcx,2), %esi
	movl	-20(%rbp), %ecx
                                        # kill: def $cl killed $ecx
	shll	%cl, %esi
	movslq	-8(%rbp), %rcx
	shlq	$6, %rcx
	addq	%rcx, %rdx
	movslq	-4(%rbp), %rcx
	shlq	$4, %rcx
	addq	%rcx, %rdx
	movslq	-12(%rbp), %rcx
	movl	%esi, (%rdx,%rcx,4)
	movslq	-16(%rbp), %rcx
	movswl	Offset_intra_default_inter(,%rcx,2), %edx
	movl	-20(%rbp), %ecx
                                        # kill: def $cl killed $ecx
	shll	%cl, %edx
	movslq	-8(%rbp), %rcx
	shlq	$6, %rcx
	addq	%rcx, %rax
	movslq	-4(%rbp), %rcx
	shlq	$4, %rcx
	addq	%rcx, %rax
	movslq	-12(%rbp), %rcx
	movl	%edx, (%rax,%rcx,4)
.LBB15_26:                              # %if.end185
                                        #   in Loop: Header=BB15_22 Depth=3
	movabsq	$LevelOffset4x4Chroma_Inter, %rdx
	movq	%rdx, %rax
	addq	$832, %rax              # imm = 0x340
	movslq	-16(%rbp), %rcx
	movswl	Offset_inter_default(,%rcx,2), %esi
	movl	-20(%rbp), %ecx
                                        # kill: def $cl killed $ecx
	shll	%cl, %esi
	movslq	-8(%rbp), %rcx
	shlq	$6, %rcx
	movabsq	$LevelOffset4x4Luma_Inter, %rdi
	addq	%rcx, %rdi
	movslq	-4(%rbp), %rcx
	shlq	$4, %rcx
	addq	%rcx, %rdi
	movslq	-12(%rbp), %rcx
	movl	%esi, (%rdi,%rcx,4)
	movslq	-16(%rbp), %rcx
	movswl	Offset_inter_default(,%rcx,2), %esi
	movl	-20(%rbp), %ecx
                                        # kill: def $cl killed $ecx
	shll	%cl, %esi
	movslq	-8(%rbp), %rcx
	shlq	$6, %rcx
	addq	%rcx, %rdx
	movslq	-4(%rbp), %rcx
	shlq	$4, %rcx
	addq	%rcx, %rdx
	movslq	-12(%rbp), %rcx
	movl	%esi, (%rdx,%rcx,4)
	movslq	-16(%rbp), %rcx
	movswl	Offset_inter_default(,%rcx,2), %edx
	movl	-20(%rbp), %ecx
                                        # kill: def $cl killed $ecx
	shll	%cl, %edx
	movslq	-8(%rbp), %rcx
	shlq	$6, %rcx
	addq	%rcx, %rax
	movslq	-4(%rbp), %rcx
	shlq	$4, %rcx
	addq	%rcx, %rax
	movslq	-12(%rbp), %rcx
	movl	%edx, (%rax,%rcx,4)
# %bb.27:                               # %for.inc216
                                        #   in Loop: Header=BB15_22 Depth=3
	movl	-12(%rbp), %eax
	addl	$1, %eax
	movl	%eax, -12(%rbp)
	jmp	.LBB15_22
.LBB15_28:                              # %for.end218
                                        #   in Loop: Header=BB15_20 Depth=2
	jmp	.LBB15_29
.LBB15_29:                              # %for.inc219
                                        #   in Loop: Header=BB15_20 Depth=2
	movl	-4(%rbp), %eax
	addl	$1, %eax
	movl	%eax, -4(%rbp)
	jmp	.LBB15_20
.LBB15_30:                              # %for.end221
                                        #   in Loop: Header=BB15_18 Depth=1
	jmp	.LBB15_31
.LBB15_31:                              # %for.inc222
                                        #   in Loop: Header=BB15_18 Depth=1
	movl	-8(%rbp), %eax
	addl	$1, %eax
	movl	%eax, -8(%rbp)
	jmp	.LBB15_18
.LBB15_32:                              # %for.end224
	jmp	.LBB15_33
.LBB15_33:                              # %if.end225
	cmpl	$1125443749, -24(%rbp)  # imm = 0x4314E8A5
	jne	.LBB15_35
.LBB15_34:
	addq	$32, %rsp
	popq	%rbp
	.cfi_def_cfa %rsp, 8
	retq
.LBB15_35:                              # %func_exit
	.cfi_def_cfa %rbp, 16
	callq	detect_breach
	jmp	.LBB15_34
.Lfunc_end15:
	.size	CalculateOffsetParam.11, .Lfunc_end15-CalculateOffsetParam.11
	.cfi_endproc
                                        # -- End function
	.globl	CheckOffsetParameterName.12 # -- Begin function CheckOffsetParameterName.12
	.p2align	4, 0x90
	.type	CheckOffsetParameterName.12,@function
CheckOffsetParameterName.12:            # @CheckOffsetParameterName.12
	.cfi_startproc
# %bb.0:                                # %entry
	pushq	%rbp
	.cfi_def_cfa_offset 16
	.cfi_offset %rbp, -16
	movq	%rsp, %rbp
	.cfi_def_cfa_register %rbp
	pushq	%rbx
	subq	$40, %rsp
	.cfi_offset %rbx, -24
	movl	$619044168, -20(%rbp)   # imm = 0x24E5DD48
	movq	%rdi, -40(%rbp)
	movq	%rsi, -32(%rbp)
	movl	$0, -12(%rbp)
	movq	-32(%rbp), %rax
	movl	$0, (%rax)
.LBB16_1:                               # %while.cond
                                        # =>This Inner Loop Header: Depth=1
	xorl	%eax, %eax
	movslq	-12(%rbp), %rcx
	imulq	$24, %rcx, %rcx
	movabsq	$OffsetType4x4, %rdx
	addq	%rcx, %rdx
	cmpq	$0, %rdx
	je	.LBB16_3
# %bb.2:                                # %land.rhs
                                        #   in Loop: Header=BB16_1 Depth=1
	cmpl	$9, -12(%rbp)
	setl	%al
.LBB16_3:                               # %land.end
                                        #   in Loop: Header=BB16_1 Depth=1
	testb	$1, %al
	jne	.LBB16_4
	jmp	.LBB16_8
.LBB16_4:                               # %while.body
                                        #   in Loop: Header=BB16_1 Depth=1
	xorl	%ebx, %ebx
	movslq	-12(%rbp), %rax
	imulq	$24, %rax, %rax
	movabsq	$OffsetType4x4, %rdi
	addq	%rax, %rdi
	movq	-40(%rbp), %rsi
	callq	strcmp
	cmpl	%eax, %ebx
	jne	.LBB16_6
# %bb.5:                                # %if.then
	movl	-12(%rbp), %eax
	movl	%eax, -16(%rbp)
	jmp	.LBB16_17
.LBB16_6:                               # %if.else
                                        #   in Loop: Header=BB16_1 Depth=1
	movl	-12(%rbp), %eax
	addl	$1, %eax
	movl	%eax, -12(%rbp)
# %bb.7:                                # %if.end
                                        #   in Loop: Header=BB16_1 Depth=1
	jmp	.LBB16_1
.LBB16_8:                               # %while.end
	movl	$0, -12(%rbp)
	movq	-32(%rbp), %rax
	movl	$1, (%rax)
.LBB16_9:                               # %while.cond6
                                        # =>This Inner Loop Header: Depth=1
	xorl	%eax, %eax
	movslq	-12(%rbp), %rcx
	imulq	$24, %rcx, %rcx
	movabsq	$OffsetType8x8, %rdx
	addq	%rcx, %rdx
	cmpq	$0, %rdx
	je	.LBB16_11
# %bb.10:                               # %land.rhs11
                                        #   in Loop: Header=BB16_9 Depth=1
	cmpl	$3, -12(%rbp)
	setl	%al
.LBB16_11:                              # %land.end13
                                        #   in Loop: Header=BB16_9 Depth=1
	testb	$1, %al
	jne	.LBB16_12
	jmp	.LBB16_16
.LBB16_12:                              # %while.body14
                                        #   in Loop: Header=BB16_9 Depth=1
	xorl	%ebx, %ebx
	movslq	-12(%rbp), %rax
	imulq	$24, %rax, %rax
	movabsq	$OffsetType8x8, %rdi
	addq	%rax, %rdi
	movq	-40(%rbp), %rsi
	callq	strcmp
	cmpl	%eax, %ebx
	jne	.LBB16_14
# %bb.13:                               # %if.then20
	movl	-12(%rbp), %eax
	movl	%eax, -16(%rbp)
	jmp	.LBB16_17
.LBB16_14:                              # %if.else21
                                        #   in Loop: Header=BB16_9 Depth=1
	movl	-12(%rbp), %eax
	addl	$1, %eax
	movl	%eax, -12(%rbp)
# %bb.15:                               # %if.end23
                                        #   in Loop: Header=BB16_9 Depth=1
	jmp	.LBB16_9
.LBB16_16:                              # %while.end24
	movl	$-1, -16(%rbp)
.LBB16_17:                              # %return
	movl	-16(%rbp), %ebx
	cmpl	$619044168, -20(%rbp)   # imm = 0x24E5DD48
	jne	.LBB16_19
.LBB16_18:
	movl	%ebx, %eax
	addq	$40, %rsp
	popq	%rbx
	popq	%rbp
	.cfi_def_cfa %rsp, 8
	retq
.LBB16_19:                              # %func_exit
	.cfi_def_cfa %rbp, 16
	callq	detect_breach
	jmp	.LBB16_18
.Lfunc_end16:
	.size	CheckOffsetParameterName.12, .Lfunc_end16-CheckOffsetParameterName.12
	.cfi_endproc
                                        # -- End function
	.globl	CalculateOffset8Param.13 # -- Begin function CalculateOffset8Param.13
	.p2align	4, 0x90
	.type	CalculateOffset8Param.13,@function
CalculateOffset8Param.13:               # @CalculateOffset8Param.13
	.cfi_startproc
# %bb.0:                                # %entry
	pushq	%rbp
	.cfi_def_cfa_offset 16
	.cfi_offset %rbp, -16
	movq	%rsp, %rbp
	.cfi_def_cfa_register %rbp
	subq	$32, %rsp
	movl	$1512008656, -24(%rbp)  # imm = 0x5A1F6BD0
	movq	input, %rax
	cmpl	$0, 3584(%rax)
	je	.LBB17_17
# %bb.1:                                # %if.then
	movl	$0, -12(%rbp)
.LBB17_2:                               # %for.cond
                                        # =>This Loop Header: Depth=1
                                        #     Child Loop BB17_4 Depth 2
                                        #       Child Loop BB17_6 Depth 3
	cmpl	$13, -12(%rbp)
	jge	.LBB17_16
# %bb.3:                                # %for.body
                                        #   in Loop: Header=BB17_2 Depth=1
	movl	-12(%rbp), %eax
	addl	$16, %eax
	subl	$10, %eax
	movl	%eax, -16(%rbp)
	movl	$0, -8(%rbp)
.LBB17_4:                               # %for.cond1
                                        #   Parent Loop BB17_2 Depth=1
                                        # =>  This Loop Header: Depth=2
                                        #       Child Loop BB17_6 Depth 3
	cmpl	$8, -8(%rbp)
	jge	.LBB17_14
# %bb.5:                                # %for.body3
                                        #   in Loop: Header=BB17_4 Depth=2
	movl	$0, -4(%rbp)
.LBB17_6:                               # %for.cond4
                                        #   Parent Loop BB17_2 Depth=1
                                        #     Parent Loop BB17_4 Depth=2
                                        # =>    This Inner Loop Header: Depth=3
	cmpl	$8, -4(%rbp)
	jge	.LBB17_12
# %bb.7:                                # %for.body6
                                        #   in Loop: Header=BB17_6 Depth=3
	movl	-4(%rbp), %eax
	shll	$3, %eax
	addl	-8(%rbp), %eax
	movl	%eax, -20(%rbp)
	movq	img, %rax
	cmpl	$2, 24(%rax)
	jne	.LBB17_9
# %bb.8:                                # %if.then9
                                        #   in Loop: Header=BB17_6 Depth=3
	movslq	-20(%rbp), %rax
	movswl	OffsetList8x8input(,%rax,2), %eax
	movl	-16(%rbp), %ecx
                                        # kill: def $cl killed $ecx
	shll	%cl, %eax
	movslq	-12(%rbp), %rcx
	shlq	$8, %rcx
	movabsq	$LevelOffset8x8Luma_Intra, %rdx
	addq	%rcx, %rdx
	movslq	-8(%rbp), %rcx
	shlq	$5, %rcx
	addq	%rcx, %rdx
	movslq	-4(%rbp), %rcx
	movl	%eax, (%rdx,%rcx,4)
	jmp	.LBB17_10
.LBB17_9:                               # %if.else
                                        #   in Loop: Header=BB17_6 Depth=3
	movslq	-20(%rbp), %rax
	movswl	OffsetList8x8input+128(,%rax,2), %eax
	movl	-16(%rbp), %ecx
                                        # kill: def $cl killed $ecx
	shll	%cl, %eax
	movslq	-12(%rbp), %rcx
	shlq	$8, %rcx
	movabsq	$LevelOffset8x8Luma_Intra, %rdx
	addq	%rcx, %rdx
	movslq	-8(%rbp), %rcx
	shlq	$5, %rcx
	addq	%rcx, %rdx
	movslq	-4(%rbp), %rcx
	movl	%eax, (%rdx,%rcx,4)
.LBB17_10:                              # %if.end
                                        #   in Loop: Header=BB17_6 Depth=3
	movslq	-20(%rbp), %rax
	movswl	OffsetList8x8input+256(,%rax,2), %eax
	movl	-16(%rbp), %ecx
                                        # kill: def $cl killed $ecx
	shll	%cl, %eax
	movslq	-12(%rbp), %rcx
	shlq	$8, %rcx
	movabsq	$LevelOffset8x8Luma_Inter, %rdx
	addq	%rcx, %rdx
	movslq	-8(%rbp), %rcx
	shlq	$5, %rcx
	addq	%rcx, %rdx
	movslq	-4(%rbp), %rcx
	movl	%eax, (%rdx,%rcx,4)
# %bb.11:                               # %for.inc
                                        #   in Loop: Header=BB17_6 Depth=3
	movl	-4(%rbp), %eax
	addl	$1, %eax
	movl	%eax, -4(%rbp)
	jmp	.LBB17_6
.LBB17_12:                              # %for.end
                                        #   in Loop: Header=BB17_4 Depth=2
	jmp	.LBB17_13
.LBB17_13:                              # %for.inc37
                                        #   in Loop: Header=BB17_4 Depth=2
	movl	-8(%rbp), %eax
	addl	$1, %eax
	movl	%eax, -8(%rbp)
	jmp	.LBB17_4
.LBB17_14:                              # %for.end39
                                        #   in Loop: Header=BB17_2 Depth=1
	jmp	.LBB17_15
.LBB17_15:                              # %for.inc40
                                        #   in Loop: Header=BB17_2 Depth=1
	movl	-12(%rbp), %eax
	addl	$1, %eax
	movl	%eax, -12(%rbp)
	jmp	.LBB17_2
.LBB17_16:                              # %for.end42
	jmp	.LBB17_33
.LBB17_17:                              # %if.else43
	movl	$0, -12(%rbp)
.LBB17_18:                              # %for.cond44
                                        # =>This Loop Header: Depth=1
                                        #     Child Loop BB17_20 Depth 2
                                        #       Child Loop BB17_22 Depth 3
	cmpl	$13, -12(%rbp)
	jge	.LBB17_32
# %bb.19:                               # %for.body47
                                        #   in Loop: Header=BB17_18 Depth=1
	movl	-12(%rbp), %eax
	addl	$16, %eax
	subl	$10, %eax
	movl	%eax, -16(%rbp)
	movl	$0, -8(%rbp)
.LBB17_20:                              # %for.cond50
                                        #   Parent Loop BB17_18 Depth=1
                                        # =>  This Loop Header: Depth=2
                                        #       Child Loop BB17_22 Depth 3
	cmpl	$8, -8(%rbp)
	jge	.LBB17_30
# %bb.21:                               # %for.body53
                                        #   in Loop: Header=BB17_20 Depth=2
	movl	$0, -4(%rbp)
.LBB17_22:                              # %for.cond54
                                        #   Parent Loop BB17_18 Depth=1
                                        #     Parent Loop BB17_20 Depth=2
                                        # =>    This Inner Loop Header: Depth=3
	cmpl	$8, -4(%rbp)
	jge	.LBB17_28
# %bb.23:                               # %for.body57
                                        #   in Loop: Header=BB17_22 Depth=3
	movl	-4(%rbp), %eax
	shll	$3, %eax
	addl	-8(%rbp), %eax
	movl	%eax, -20(%rbp)
	movq	img, %rax
	cmpl	$2, 24(%rax)
	jne	.LBB17_25
# %bb.24:                               # %if.then63
                                        #   in Loop: Header=BB17_22 Depth=3
	movslq	-20(%rbp), %rax
	movswl	Offset8_intra_default_intra(,%rax,2), %eax
	movl	-16(%rbp), %ecx
                                        # kill: def $cl killed $ecx
	shll	%cl, %eax
	movslq	-12(%rbp), %rcx
	shlq	$8, %rcx
	movabsq	$LevelOffset8x8Luma_Intra, %rdx
	addq	%rcx, %rdx
	movslq	-8(%rbp), %rcx
	shlq	$5, %rcx
	addq	%rcx, %rdx
	movslq	-4(%rbp), %rcx
	movl	%eax, (%rdx,%rcx,4)
	jmp	.LBB17_26
.LBB17_25:                              # %if.else74
                                        #   in Loop: Header=BB17_22 Depth=3
	movslq	-20(%rbp), %rax
	movswl	Offset8_intra_default_inter(,%rax,2), %eax
	movl	-16(%rbp), %ecx
                                        # kill: def $cl killed $ecx
	shll	%cl, %eax
	movslq	-12(%rbp), %rcx
	shlq	$8, %rcx
	movabsq	$LevelOffset8x8Luma_Intra, %rdx
	addq	%rcx, %rdx
	movslq	-8(%rbp), %rcx
	shlq	$5, %rcx
	addq	%rcx, %rdx
	movslq	-4(%rbp), %rcx
	movl	%eax, (%rdx,%rcx,4)
.LBB17_26:                              # %if.end85
                                        #   in Loop: Header=BB17_22 Depth=3
	movslq	-20(%rbp), %rax
	movswl	Offset8_inter_default(,%rax,2), %eax
	movl	-16(%rbp), %ecx
                                        # kill: def $cl killed $ecx
	shll	%cl, %eax
	movslq	-12(%rbp), %rcx
	shlq	$8, %rcx
	movabsq	$LevelOffset8x8Luma_Inter, %rdx
	addq	%rcx, %rdx
	movslq	-8(%rbp), %rcx
	shlq	$5, %rcx
	addq	%rcx, %rdx
	movslq	-4(%rbp), %rcx
	movl	%eax, (%rdx,%rcx,4)
# %bb.27:                               # %for.inc96
                                        #   in Loop: Header=BB17_22 Depth=3
	movl	-4(%rbp), %eax
	addl	$1, %eax
	movl	%eax, -4(%rbp)
	jmp	.LBB17_22
.LBB17_28:                              # %for.end98
                                        #   in Loop: Header=BB17_20 Depth=2
	jmp	.LBB17_29
.LBB17_29:                              # %for.inc99
                                        #   in Loop: Header=BB17_20 Depth=2
	movl	-8(%rbp), %eax
	addl	$1, %eax
	movl	%eax, -8(%rbp)
	jmp	.LBB17_20
.LBB17_30:                              # %for.end101
                                        #   in Loop: Header=BB17_18 Depth=1
	jmp	.LBB17_31
.LBB17_31:                              # %for.inc102
                                        #   in Loop: Header=BB17_18 Depth=1
	movl	-12(%rbp), %eax
	addl	$1, %eax
	movl	%eax, -12(%rbp)
	jmp	.LBB17_18
.LBB17_32:                              # %for.end104
	jmp	.LBB17_33
.LBB17_33:                              # %if.end105
	cmpl	$1512008656, -24(%rbp)  # imm = 0x5A1F6BD0
	jne	.LBB17_35
.LBB17_34:
	addq	$32, %rsp
	popq	%rbp
	.cfi_def_cfa %rsp, 8
	retq
.LBB17_35:                              # %func_exit
	.cfi_def_cfa %rbp, 16
	callq	detect_breach
	jmp	.LBB17_34
.Lfunc_end17:
	.size	CalculateOffset8Param.13, .Lfunc_end17-CalculateOffset8Param.13
	.cfi_endproc
                                        # -- End function
	.globl	ParseQOffsetMatrix.14   # -- Begin function ParseQOffsetMatrix.14
	.p2align	4, 0x90
	.type	ParseQOffsetMatrix.14,@function
ParseQOffsetMatrix.14:                  # @ParseQOffsetMatrix.14
	.cfi_startproc
# %bb.0:                                # %entry
	pushq	%rbp
	.cfi_def_cfa_offset 16
	.cfi_offset %rbp, -16
	movq	%rsp, %rbp
	.cfi_def_cfa_register %rbp
	subq	$8096, %rsp             # imm = 0x1FA0
	movl	$1181433153, -48(%rbp)  # imm = 0x466B3D41
	movq	%rdi, -80(%rbp)
	movl	%esi, -52(%rbp)
	movl	$0, -32(%rbp)
	movl	$0, -36(%rbp)
	movl	$0, -20(%rbp)
	movq	-80(%rbp), %rax
	movq	%rax, -16(%rbp)
	movq	-80(%rbp), %rax
	movslq	-52(%rbp), %rcx
	addq	%rcx, %rax
	movq	%rax, -88(%rbp)
.LBB18_1:                               # %while.cond
                                        # =>This Loop Header: Depth=1
                                        #     Child Loop BB18_6 Depth 2
	movq	-16(%rbp), %rax
	cmpq	-88(%rbp), %rax
	jae	.LBB18_25
# %bb.2:                                # %while.body
                                        #   in Loop: Header=BB18_1 Depth=1
	movq	-16(%rbp), %rax
	movsbl	(%rax), %eax
	addl	$-9, %eax
	movl	%eax, %ecx
	subl	$35, %ecx
	ja	.LBB18_21
# %bb.3:                                # %while.body
                                        #   in Loop: Header=BB18_1 Depth=1
	movq	.LJTI18_0(,%rax,8), %rax
	jmpq	*%rax
.LBB18_4:                               # %sw.bb
                                        #   in Loop: Header=BB18_1 Depth=1
	movq	-16(%rbp), %rax
	addq	$1, %rax
	movq	%rax, -16(%rbp)
	jmp	.LBB18_24
.LBB18_5:                               # %sw.bb1
                                        #   in Loop: Header=BB18_1 Depth=1
	movq	-16(%rbp), %rax
	movb	$0, (%rax)
.LBB18_6:                               # %while.cond2
                                        #   Parent Loop BB18_1 Depth=1
                                        # =>  This Inner Loop Header: Depth=2
	xorl	%eax, %eax
	movq	-16(%rbp), %rcx
	movsbl	(%rcx), %ecx
	cmpl	$10, %ecx
	je	.LBB18_8
# %bb.7:                                # %land.rhs
                                        #   in Loop: Header=BB18_6 Depth=2
	movq	-16(%rbp), %rax
	cmpq	-88(%rbp), %rax
	setb	%al
.LBB18_8:                               # %land.end
                                        #   in Loop: Header=BB18_6 Depth=2
	testb	$1, %al
	jne	.LBB18_9
	jmp	.LBB18_10
.LBB18_9:                               # %while.body8
                                        #   in Loop: Header=BB18_6 Depth=2
	movq	-16(%rbp), %rax
	addq	$1, %rax
	movq	%rax, -16(%rbp)
	jmp	.LBB18_6
.LBB18_10:                              # %while.end
                                        #   in Loop: Header=BB18_1 Depth=1
	movl	$0, -36(%rbp)
	movl	$0, -20(%rbp)
	jmp	.LBB18_24
.LBB18_11:                              # %sw.bb10
                                        #   in Loop: Header=BB18_1 Depth=1
	movl	$0, -20(%rbp)
	movl	$0, -36(%rbp)
	movq	-16(%rbp), %rax
	movq	%rax, %rcx
	addq	$1, %rcx
	movq	%rcx, -16(%rbp)
	movb	$0, (%rax)
	jmp	.LBB18_24
.LBB18_12:                              # %sw.bb12
                                        #   in Loop: Header=BB18_1 Depth=1
	cmpl	$0, -36(%rbp)
	je	.LBB18_14
# %bb.13:                               # %if.then
                                        #   in Loop: Header=BB18_1 Depth=1
	movq	-16(%rbp), %rax
	addq	$1, %rax
	movq	%rax, -16(%rbp)
	jmp	.LBB18_15
.LBB18_14:                              # %if.else
                                        #   in Loop: Header=BB18_1 Depth=1
	movq	-16(%rbp), %rax
	movq	%rax, %rcx
	addq	$1, %rcx
	movq	%rcx, -16(%rbp)
	movb	$0, (%rax)
	movl	$0, -20(%rbp)
.LBB18_15:                              # %if.end
                                        #   in Loop: Header=BB18_1 Depth=1
	jmp	.LBB18_24
.LBB18_16:                              # %sw.bb15
                                        #   in Loop: Header=BB18_1 Depth=1
	movq	-16(%rbp), %rax
	movq	%rax, %rcx
	addq	$1, %rcx
	movq	%rcx, -16(%rbp)
	movb	$0, (%rax)
	cmpl	$0, -36(%rbp)
	jne	.LBB18_18
# %bb.17:                               # %if.then18
                                        #   in Loop: Header=BB18_1 Depth=1
	movq	-16(%rbp), %rax
	movl	-32(%rbp), %ecx
	movl	%ecx, %edx
	addl	$1, %edx
	movl	%edx, -32(%rbp)
	movslq	%ecx, %rcx
	movq	%rax, -8096(%rbp,%rcx,8)
	movl	-20(%rbp), %eax
	xorl	$-1, %eax
	movl	%eax, -20(%rbp)
	jmp	.LBB18_19
.LBB18_18:                              # %if.else21
                                        #   in Loop: Header=BB18_1 Depth=1
	movl	$0, -20(%rbp)
.LBB18_19:                              # %if.end22
                                        #   in Loop: Header=BB18_1 Depth=1
	movl	-36(%rbp), %eax
	xorl	$-1, %eax
	movl	%eax, -36(%rbp)
	jmp	.LBB18_24
.LBB18_20:                              # %sw.bb24
                                        #   in Loop: Header=BB18_1 Depth=1
	movq	-16(%rbp), %rax
	addq	$1, %rax
	movq	%rax, -16(%rbp)
	movl	$0, -20(%rbp)
	jmp	.LBB18_24
.LBB18_21:                              # %sw.default
                                        #   in Loop: Header=BB18_1 Depth=1
	cmpl	$0, -20(%rbp)
	jne	.LBB18_23
# %bb.22:                               # %if.then27
                                        #   in Loop: Header=BB18_1 Depth=1
	movq	-16(%rbp), %rax
	movl	-32(%rbp), %ecx
	movl	%ecx, %edx
	addl	$1, %edx
	movl	%edx, -32(%rbp)
	movslq	%ecx, %rcx
	movq	%rax, -8096(%rbp,%rcx,8)
	movl	-20(%rbp), %eax
	xorl	$-1, %eax
	movl	%eax, -20(%rbp)
.LBB18_23:                              # %if.end32
                                        #   in Loop: Header=BB18_1 Depth=1
	movq	-16(%rbp), %rax
	addq	$1, %rax
	movq	%rax, -16(%rbp)
.LBB18_24:                              # %sw.epilog
                                        #   in Loop: Header=BB18_1 Depth=1
	jmp	.LBB18_1
.LBB18_25:                              # %while.end34
	movl	-32(%rbp), %eax
	addl	$-1, %eax
	movl	%eax, -32(%rbp)
	movl	$0, -24(%rbp)
.LBB18_26:                              # %for.cond
                                        # =>This Loop Header: Depth=1
                                        #     Child Loop BB18_35 Depth 2
	movl	-24(%rbp), %eax
	cmpl	-32(%rbp), %eax
	jge	.LBB18_42
# %bb.27:                               # %for.body
                                        #   in Loop: Header=BB18_26 Depth=1
	movl	$0, -4(%rbp)
	movl	-24(%rbp), %eax
	addl	-4(%rbp), %eax
	cltq
	movq	-8096(%rbp,%rax,8), %rdi
	leaq	-60(%rbp), %rsi
	callq	CheckOffsetParameterName
	xorl	%ecx, %ecx
	movl	%eax, -40(%rbp)
	cmpl	%eax, %ecx
	jle	.LBB18_29
# %bb.28:                               # %if.then41
                                        #   in Loop: Header=BB18_26 Depth=1
	movl	-24(%rbp), %eax
	addl	-4(%rbp), %eax
	cltq
	movq	-8096(%rbp,%rax,8), %rcx
	movabsq	$errortext, %rdi
	movl	$300, %esi              # imm = 0x12C
	movabsq	$.L.str, %rdx
	movb	$0, %al
	callq	snprintf
	movabsq	$errortext, %rdi
	movl	$300, %esi              # imm = 0x12C
	callq	error
.LBB18_29:                              # %if.end46
                                        #   in Loop: Header=BB18_26 Depth=1
	movl	-4(%rbp), %eax
	addl	$1, %eax
	movl	%eax, -4(%rbp)
	movl	-24(%rbp), %eax
	addl	-4(%rbp), %eax
	cltq
	movq	-8096(%rbp,%rax,8), %rsi
	movl	$.L.str.1, %edi
	callq	strcmp
	cmpl	$0, %eax
	je	.LBB18_31
# %bb.30:                               # %if.then53
                                        #   in Loop: Header=BB18_26 Depth=1
	movabsq	$errortext, %rdi
	movl	$300, %esi              # imm = 0x12C
	movabsq	$.L.str.2, %rdx
	movb	$0, %al
	callq	snprintf
	movabsq	$errortext, %rdi
	movl	$300, %esi              # imm = 0x12C
	callq	error
.LBB18_31:                              # %if.end55
                                        #   in Loop: Header=BB18_26 Depth=1
	movl	-4(%rbp), %eax
	addl	$1, %eax
	movl	%eax, -4(%rbp)
	cmpl	$0, -60(%rbp)
	jne	.LBB18_33
# %bb.32:                               # %if.then58
                                        #   in Loop: Header=BB18_26 Depth=1
	movl	$16, -44(%rbp)
	movslq	-40(%rbp), %rax
	shlq	$5, %rax
	movabsq	$OffsetList4x4input, %rcx
	addq	%rax, %rcx
	movq	%rcx, -72(%rbp)
	movslq	-40(%rbp), %rax
	movl	$1, offset4x4_check(,%rax,4)
	jmp	.LBB18_34
.LBB18_33:                              # %if.else63
                                        #   in Loop: Header=BB18_26 Depth=1
	movl	$64, -44(%rbp)
	movslq	-40(%rbp), %rax
	shlq	$7, %rax
	movabsq	$OffsetList8x8input, %rcx
	addq	%rax, %rcx
	movq	%rcx, -72(%rbp)
	movslq	-40(%rbp), %rax
	movl	$1, offset8x8_check(,%rax,4)
.LBB18_34:                              # %if.end69
                                        #   in Loop: Header=BB18_26 Depth=1
	movl	$0, -28(%rbp)
.LBB18_35:                              # %for.cond70
                                        #   Parent Loop BB18_26 Depth=1
                                        # =>  This Inner Loop Header: Depth=2
	movl	-28(%rbp), %eax
	cmpl	-44(%rbp), %eax
	jge	.LBB18_40
# %bb.36:                               # %for.body73
                                        #   in Loop: Header=BB18_35 Depth=2
	movl	-24(%rbp), %eax
	addl	-4(%rbp), %eax
	addl	-28(%rbp), %eax
	cltq
	movq	-8096(%rbp,%rax,8), %rdi
	movabsq	$.L.str.3, %rsi
	leaq	-56(%rbp), %rdx
	movb	$0, %al
	callq	__isoc99_sscanf
	movl	$1, %ecx
	cmpl	%eax, %ecx
	je	.LBB18_38
# %bb.37:                               # %if.then81
                                        #   in Loop: Header=BB18_35 Depth=2
	movslq	-24(%rbp), %rax
	movq	-8096(%rbp,%rax,8), %rcx
	movl	-24(%rbp), %eax
	addl	-4(%rbp), %eax
	addl	-28(%rbp), %eax
	cltq
	movq	-8096(%rbp,%rax,8), %r8
	movabsq	$errortext, %rdi
	movl	$300, %esi              # imm = 0x12C
	movabsq	$.L.str.4, %rdx
	movb	$0, %al
	callq	snprintf
	movabsq	$errortext, %rdi
	movl	$300, %esi              # imm = 0x12C
	callq	error
.LBB18_38:                              # %if.end89
                                        #   in Loop: Header=BB18_35 Depth=2
	movl	-56(%rbp), %eax
	movq	-72(%rbp), %rcx
	movslq	-28(%rbp), %rdx
	movw	%ax, (%rcx,%rdx,2)
# %bb.39:                               # %for.inc
                                        #   in Loop: Header=BB18_35 Depth=2
	movl	-28(%rbp), %eax
	addl	$1, %eax
	movl	%eax, -28(%rbp)
	jmp	.LBB18_35
.LBB18_40:                              # %for.end
                                        #   in Loop: Header=BB18_26 Depth=1
	movl	-28(%rbp), %eax
	addl	-4(%rbp), %eax
	movl	%eax, -4(%rbp)
	movabsq	$.L.str.5, %rdi
	movb	$0, %al
	callq	printf
# %bb.41:                               # %for.inc96
                                        #   in Loop: Header=BB18_26 Depth=1
	movl	-4(%rbp), %eax
	addl	-24(%rbp), %eax
	movl	%eax, -24(%rbp)
	jmp	.LBB18_26
.LBB18_42:                              # %for.end98
	cmpl	$1181433153, -48(%rbp)  # imm = 0x466B3D41
	jne	.LBB18_44
.LBB18_43:
	addq	$8096, %rsp             # imm = 0x1FA0
	popq	%rbp
	.cfi_def_cfa %rsp, 8
	retq
.LBB18_44:                              # %func_exit
	.cfi_def_cfa %rbp, 16
	callq	detect_breach
	jmp	.LBB18_43
.Lfunc_end18:
	.size	ParseQOffsetMatrix.14, .Lfunc_end18-ParseQOffsetMatrix.14
	.cfi_endproc
	.section	.rodata,"a",@progbits
	.p2align	3
.LJTI18_0:
	.quad	.LBB18_12
	.quad	.LBB18_11
	.quad	.LBB18_21
	.quad	.LBB18_21
	.quad	.LBB18_4
	.quad	.LBB18_21
	.quad	.LBB18_21
	.quad	.LBB18_21
	.quad	.LBB18_21
	.quad	.LBB18_21
	.quad	.LBB18_21
	.quad	.LBB18_21
	.quad	.LBB18_21
	.quad	.LBB18_21
	.quad	.LBB18_21
	.quad	.LBB18_21
	.quad	.LBB18_21
	.quad	.LBB18_21
	.quad	.LBB18_21
	.quad	.LBB18_21
	.quad	.LBB18_21
	.quad	.LBB18_21
	.quad	.LBB18_21
	.quad	.LBB18_12
	.quad	.LBB18_21
	.quad	.LBB18_16
	.quad	.LBB18_5
	.quad	.LBB18_21
	.quad	.LBB18_21
	.quad	.LBB18_21
	.quad	.LBB18_21
	.quad	.LBB18_21
	.quad	.LBB18_21
	.quad	.LBB18_21
	.quad	.LBB18_21
	.quad	.LBB18_20
                                        # -- End function
	.text
	.globl	CalculateOffset8Param.15 # -- Begin function CalculateOffset8Param.15
	.p2align	4, 0x90
	.type	CalculateOffset8Param.15,@function
CalculateOffset8Param.15:               # @CalculateOffset8Param.15
	.cfi_startproc
# %bb.0:                                # %entry
	pushq	%rbp
	.cfi_def_cfa_offset 16
	.cfi_offset %rbp, -16
	movq	%rsp, %rbp
	.cfi_def_cfa_register %rbp
	subq	$32, %rsp
	movl	$2117728797, -24(%rbp)  # imm = 0x7E39FA1D
	movq	input, %rax
	cmpl	$0, 3584(%rax)
	je	.LBB19_17
# %bb.1:                                # %if.then
	movl	$0, -12(%rbp)
.LBB19_2:                               # %for.cond
                                        # =>This Loop Header: Depth=1
                                        #     Child Loop BB19_4 Depth 2
                                        #       Child Loop BB19_6 Depth 3
	cmpl	$13, -12(%rbp)
	jge	.LBB19_16
# %bb.3:                                # %for.body
                                        #   in Loop: Header=BB19_2 Depth=1
	movl	-12(%rbp), %eax
	addl	$16, %eax
	subl	$10, %eax
	movl	%eax, -16(%rbp)
	movl	$0, -4(%rbp)
.LBB19_4:                               # %for.cond1
                                        #   Parent Loop BB19_2 Depth=1
                                        # =>  This Loop Header: Depth=2
                                        #       Child Loop BB19_6 Depth 3
	cmpl	$8, -4(%rbp)
	jge	.LBB19_14
# %bb.5:                                # %for.body3
                                        #   in Loop: Header=BB19_4 Depth=2
	movl	$0, -8(%rbp)
.LBB19_6:                               # %for.cond4
                                        #   Parent Loop BB19_2 Depth=1
                                        #     Parent Loop BB19_4 Depth=2
                                        # =>    This Inner Loop Header: Depth=3
	cmpl	$8, -8(%rbp)
	jge	.LBB19_12
# %bb.7:                                # %for.body6
                                        #   in Loop: Header=BB19_6 Depth=3
	movl	-8(%rbp), %eax
	shll	$3, %eax
	addl	-4(%rbp), %eax
	movl	%eax, -20(%rbp)
	movq	img, %rax
	cmpl	$2, 24(%rax)
	jne	.LBB19_9
# %bb.8:                                # %if.then9
                                        #   in Loop: Header=BB19_6 Depth=3
	movslq	-20(%rbp), %rax
	movswl	OffsetList8x8input(,%rax,2), %eax
	movl	-16(%rbp), %ecx
                                        # kill: def $cl killed $ecx
	shll	%cl, %eax
	movslq	-12(%rbp), %rcx
	shlq	$8, %rcx
	movabsq	$LevelOffset8x8Luma_Intra, %rdx
	addq	%rcx, %rdx
	movslq	-4(%rbp), %rcx
	shlq	$5, %rcx
	addq	%rcx, %rdx
	movslq	-8(%rbp), %rcx
	movl	%eax, (%rdx,%rcx,4)
	jmp	.LBB19_10
.LBB19_9:                               # %if.else
                                        #   in Loop: Header=BB19_6 Depth=3
	movslq	-20(%rbp), %rax
	movswl	OffsetList8x8input+128(,%rax,2), %eax
	movl	-16(%rbp), %ecx
                                        # kill: def $cl killed $ecx
	shll	%cl, %eax
	movslq	-12(%rbp), %rcx
	shlq	$8, %rcx
	movabsq	$LevelOffset8x8Luma_Intra, %rdx
	addq	%rcx, %rdx
	movslq	-4(%rbp), %rcx
	shlq	$5, %rcx
	addq	%rcx, %rdx
	movslq	-8(%rbp), %rcx
	movl	%eax, (%rdx,%rcx,4)
.LBB19_10:                              # %if.end
                                        #   in Loop: Header=BB19_6 Depth=3
	movslq	-20(%rbp), %rax
	movswl	OffsetList8x8input+256(,%rax,2), %eax
	movl	-16(%rbp), %ecx
                                        # kill: def $cl killed $ecx
	shll	%cl, %eax
	movslq	-12(%rbp), %rcx
	shlq	$8, %rcx
	movabsq	$LevelOffset8x8Luma_Inter, %rdx
	addq	%rcx, %rdx
	movslq	-4(%rbp), %rcx
	shlq	$5, %rcx
	addq	%rcx, %rdx
	movslq	-8(%rbp), %rcx
	movl	%eax, (%rdx,%rcx,4)
# %bb.11:                               # %for.inc
                                        #   in Loop: Header=BB19_6 Depth=3
	movl	-8(%rbp), %eax
	addl	$1, %eax
	movl	%eax, -8(%rbp)
	jmp	.LBB19_6
.LBB19_12:                              # %for.end
                                        #   in Loop: Header=BB19_4 Depth=2
	jmp	.LBB19_13
.LBB19_13:                              # %for.inc37
                                        #   in Loop: Header=BB19_4 Depth=2
	movl	-4(%rbp), %eax
	addl	$1, %eax
	movl	%eax, -4(%rbp)
	jmp	.LBB19_4
.LBB19_14:                              # %for.end39
                                        #   in Loop: Header=BB19_2 Depth=1
	jmp	.LBB19_15
.LBB19_15:                              # %for.inc40
                                        #   in Loop: Header=BB19_2 Depth=1
	movl	-12(%rbp), %eax
	addl	$1, %eax
	movl	%eax, -12(%rbp)
	jmp	.LBB19_2
.LBB19_16:                              # %for.end42
	jmp	.LBB19_33
.LBB19_17:                              # %if.else43
	movl	$0, -12(%rbp)
.LBB19_18:                              # %for.cond44
                                        # =>This Loop Header: Depth=1
                                        #     Child Loop BB19_20 Depth 2
                                        #       Child Loop BB19_22 Depth 3
	cmpl	$13, -12(%rbp)
	jge	.LBB19_32
# %bb.19:                               # %for.body47
                                        #   in Loop: Header=BB19_18 Depth=1
	movl	-12(%rbp), %eax
	addl	$16, %eax
	subl	$10, %eax
	movl	%eax, -16(%rbp)
	movl	$0, -4(%rbp)
.LBB19_20:                              # %for.cond50
                                        #   Parent Loop BB19_18 Depth=1
                                        # =>  This Loop Header: Depth=2
                                        #       Child Loop BB19_22 Depth 3
	cmpl	$8, -4(%rbp)
	jge	.LBB19_30
# %bb.21:                               # %for.body53
                                        #   in Loop: Header=BB19_20 Depth=2
	movl	$0, -8(%rbp)
.LBB19_22:                              # %for.cond54
                                        #   Parent Loop BB19_18 Depth=1
                                        #     Parent Loop BB19_20 Depth=2
                                        # =>    This Inner Loop Header: Depth=3
	cmpl	$8, -8(%rbp)
	jge	.LBB19_28
# %bb.23:                               # %for.body57
                                        #   in Loop: Header=BB19_22 Depth=3
	movl	-8(%rbp), %eax
	shll	$3, %eax
	addl	-4(%rbp), %eax
	movl	%eax, -20(%rbp)
	movq	img, %rax
	cmpl	$2, 24(%rax)
	jne	.LBB19_25
# %bb.24:                               # %if.then63
                                        #   in Loop: Header=BB19_22 Depth=3
	movslq	-20(%rbp), %rax
	movswl	Offset8_intra_default_intra(,%rax,2), %eax
	movl	-16(%rbp), %ecx
                                        # kill: def $cl killed $ecx
	shll	%cl, %eax
	movslq	-12(%rbp), %rcx
	shlq	$8, %rcx
	movabsq	$LevelOffset8x8Luma_Intra, %rdx
	addq	%rcx, %rdx
	movslq	-4(%rbp), %rcx
	shlq	$5, %rcx
	addq	%rcx, %rdx
	movslq	-8(%rbp), %rcx
	movl	%eax, (%rdx,%rcx,4)
	jmp	.LBB19_26
.LBB19_25:                              # %if.else74
                                        #   in Loop: Header=BB19_22 Depth=3
	movslq	-20(%rbp), %rax
	movswl	Offset8_intra_default_inter(,%rax,2), %eax
	movl	-16(%rbp), %ecx
                                        # kill: def $cl killed $ecx
	shll	%cl, %eax
	movslq	-12(%rbp), %rcx
	shlq	$8, %rcx
	movabsq	$LevelOffset8x8Luma_Intra, %rdx
	addq	%rcx, %rdx
	movslq	-4(%rbp), %rcx
	shlq	$5, %rcx
	addq	%rcx, %rdx
	movslq	-8(%rbp), %rcx
	movl	%eax, (%rdx,%rcx,4)
.LBB19_26:                              # %if.end85
                                        #   in Loop: Header=BB19_22 Depth=3
	movslq	-20(%rbp), %rax
	movswl	Offset8_inter_default(,%rax,2), %eax
	movl	-16(%rbp), %ecx
                                        # kill: def $cl killed $ecx
	shll	%cl, %eax
	movslq	-12(%rbp), %rcx
	shlq	$8, %rcx
	movabsq	$LevelOffset8x8Luma_Inter, %rdx
	addq	%rcx, %rdx
	movslq	-4(%rbp), %rcx
	shlq	$5, %rcx
	addq	%rcx, %rdx
	movslq	-8(%rbp), %rcx
	movl	%eax, (%rdx,%rcx,4)
# %bb.27:                               # %for.inc96
                                        #   in Loop: Header=BB19_22 Depth=3
	movl	-8(%rbp), %eax
	addl	$1, %eax
	movl	%eax, -8(%rbp)
	jmp	.LBB19_22
.LBB19_28:                              # %for.end98
                                        #   in Loop: Header=BB19_20 Depth=2
	jmp	.LBB19_29
.LBB19_29:                              # %for.inc99
                                        #   in Loop: Header=BB19_20 Depth=2
	movl	-4(%rbp), %eax
	addl	$1, %eax
	movl	%eax, -4(%rbp)
	jmp	.LBB19_20
.LBB19_30:                              # %for.end101
                                        #   in Loop: Header=BB19_18 Depth=1
	jmp	.LBB19_31
.LBB19_31:                              # %for.inc102
                                        #   in Loop: Header=BB19_18 Depth=1
	movl	-12(%rbp), %eax
	addl	$1, %eax
	movl	%eax, -12(%rbp)
	jmp	.LBB19_18
.LBB19_32:                              # %for.end104
	jmp	.LBB19_33
.LBB19_33:                              # %if.end105
	cmpl	$2117728797, -24(%rbp)  # imm = 0x7E39FA1D
	jne	.LBB19_35
.LBB19_34:
	addq	$32, %rsp
	popq	%rbp
	.cfi_def_cfa %rsp, 8
	retq
.LBB19_35:                              # %func_exit
	.cfi_def_cfa %rbp, 16
	callq	detect_breach
	jmp	.LBB19_34
.Lfunc_end19:
	.size	CalculateOffset8Param.15, .Lfunc_end19-CalculateOffset8Param.15
	.cfi_endproc
                                        # -- End function
	.globl	CalculateOffset8Param.16 # -- Begin function CalculateOffset8Param.16
	.p2align	4, 0x90
	.type	CalculateOffset8Param.16,@function
CalculateOffset8Param.16:               # @CalculateOffset8Param.16
	.cfi_startproc
# %bb.0:                                # %entry
	pushq	%rbp
	.cfi_def_cfa_offset 16
	.cfi_offset %rbp, -16
	movq	%rsp, %rbp
	.cfi_def_cfa_register %rbp
	subq	$32, %rsp
	movl	$70152540, -24(%rbp)    # imm = 0x42E715C
	movq	input, %rax
	cmpl	$0, 3584(%rax)
	je	.LBB20_17
# %bb.1:                                # %if.then
	movl	$0, -8(%rbp)
.LBB20_2:                               # %for.cond
                                        # =>This Loop Header: Depth=1
                                        #     Child Loop BB20_4 Depth 2
                                        #       Child Loop BB20_6 Depth 3
	cmpl	$13, -8(%rbp)
	jge	.LBB20_16
# %bb.3:                                # %for.body
                                        #   in Loop: Header=BB20_2 Depth=1
	movl	-8(%rbp), %eax
	addl	$16, %eax
	subl	$10, %eax
	movl	%eax, -20(%rbp)
	movl	$0, -12(%rbp)
.LBB20_4:                               # %for.cond1
                                        #   Parent Loop BB20_2 Depth=1
                                        # =>  This Loop Header: Depth=2
                                        #       Child Loop BB20_6 Depth 3
	cmpl	$8, -12(%rbp)
	jge	.LBB20_14
# %bb.5:                                # %for.body3
                                        #   in Loop: Header=BB20_4 Depth=2
	movl	$0, -4(%rbp)
.LBB20_6:                               # %for.cond4
                                        #   Parent Loop BB20_2 Depth=1
                                        #     Parent Loop BB20_4 Depth=2
                                        # =>    This Inner Loop Header: Depth=3
	cmpl	$8, -4(%rbp)
	jge	.LBB20_12
# %bb.7:                                # %for.body6
                                        #   in Loop: Header=BB20_6 Depth=3
	movl	-4(%rbp), %eax
	shll	$3, %eax
	addl	-12(%rbp), %eax
	movl	%eax, -16(%rbp)
	movq	img, %rax
	cmpl	$2, 24(%rax)
	jne	.LBB20_9
# %bb.8:                                # %if.then9
                                        #   in Loop: Header=BB20_6 Depth=3
	movslq	-16(%rbp), %rax
	movswl	OffsetList8x8input(,%rax,2), %eax
	movl	-20(%rbp), %ecx
                                        # kill: def $cl killed $ecx
	shll	%cl, %eax
	movslq	-8(%rbp), %rcx
	shlq	$8, %rcx
	movabsq	$LevelOffset8x8Luma_Intra, %rdx
	addq	%rcx, %rdx
	movslq	-12(%rbp), %rcx
	shlq	$5, %rcx
	addq	%rcx, %rdx
	movslq	-4(%rbp), %rcx
	movl	%eax, (%rdx,%rcx,4)
	jmp	.LBB20_10
.LBB20_9:                               # %if.else
                                        #   in Loop: Header=BB20_6 Depth=3
	movslq	-16(%rbp), %rax
	movswl	OffsetList8x8input+128(,%rax,2), %eax
	movl	-20(%rbp), %ecx
                                        # kill: def $cl killed $ecx
	shll	%cl, %eax
	movslq	-8(%rbp), %rcx
	shlq	$8, %rcx
	movabsq	$LevelOffset8x8Luma_Intra, %rdx
	addq	%rcx, %rdx
	movslq	-12(%rbp), %rcx
	shlq	$5, %rcx
	addq	%rcx, %rdx
	movslq	-4(%rbp), %rcx
	movl	%eax, (%rdx,%rcx,4)
.LBB20_10:                              # %if.end
                                        #   in Loop: Header=BB20_6 Depth=3
	movslq	-16(%rbp), %rax
	movswl	OffsetList8x8input+256(,%rax,2), %eax
	movl	-20(%rbp), %ecx
                                        # kill: def $cl killed $ecx
	shll	%cl, %eax
	movslq	-8(%rbp), %rcx
	shlq	$8, %rcx
	movabsq	$LevelOffset8x8Luma_Inter, %rdx
	addq	%rcx, %rdx
	movslq	-12(%rbp), %rcx
	shlq	$5, %rcx
	addq	%rcx, %rdx
	movslq	-4(%rbp), %rcx
	movl	%eax, (%rdx,%rcx,4)
# %bb.11:                               # %for.inc
                                        #   in Loop: Header=BB20_6 Depth=3
	movl	-4(%rbp), %eax
	addl	$1, %eax
	movl	%eax, -4(%rbp)
	jmp	.LBB20_6
.LBB20_12:                              # %for.end
                                        #   in Loop: Header=BB20_4 Depth=2
	jmp	.LBB20_13
.LBB20_13:                              # %for.inc37
                                        #   in Loop: Header=BB20_4 Depth=2
	movl	-12(%rbp), %eax
	addl	$1, %eax
	movl	%eax, -12(%rbp)
	jmp	.LBB20_4
.LBB20_14:                              # %for.end39
                                        #   in Loop: Header=BB20_2 Depth=1
	jmp	.LBB20_15
.LBB20_15:                              # %for.inc40
                                        #   in Loop: Header=BB20_2 Depth=1
	movl	-8(%rbp), %eax
	addl	$1, %eax
	movl	%eax, -8(%rbp)
	jmp	.LBB20_2
.LBB20_16:                              # %for.end42
	jmp	.LBB20_33
.LBB20_17:                              # %if.else43
	movl	$0, -8(%rbp)
.LBB20_18:                              # %for.cond44
                                        # =>This Loop Header: Depth=1
                                        #     Child Loop BB20_20 Depth 2
                                        #       Child Loop BB20_22 Depth 3
	cmpl	$13, -8(%rbp)
	jge	.LBB20_32
# %bb.19:                               # %for.body47
                                        #   in Loop: Header=BB20_18 Depth=1
	movl	-8(%rbp), %eax
	addl	$16, %eax
	subl	$10, %eax
	movl	%eax, -20(%rbp)
	movl	$0, -12(%rbp)
.LBB20_20:                              # %for.cond50
                                        #   Parent Loop BB20_18 Depth=1
                                        # =>  This Loop Header: Depth=2
                                        #       Child Loop BB20_22 Depth 3
	cmpl	$8, -12(%rbp)
	jge	.LBB20_30
# %bb.21:                               # %for.body53
                                        #   in Loop: Header=BB20_20 Depth=2
	movl	$0, -4(%rbp)
.LBB20_22:                              # %for.cond54
                                        #   Parent Loop BB20_18 Depth=1
                                        #     Parent Loop BB20_20 Depth=2
                                        # =>    This Inner Loop Header: Depth=3
	cmpl	$8, -4(%rbp)
	jge	.LBB20_28
# %bb.23:                               # %for.body57
                                        #   in Loop: Header=BB20_22 Depth=3
	movl	-4(%rbp), %eax
	shll	$3, %eax
	addl	-12(%rbp), %eax
	movl	%eax, -16(%rbp)
	movq	img, %rax
	cmpl	$2, 24(%rax)
	jne	.LBB20_25
# %bb.24:                               # %if.then63
                                        #   in Loop: Header=BB20_22 Depth=3
	movslq	-16(%rbp), %rax
	movswl	Offset8_intra_default_intra(,%rax,2), %eax
	movl	-20(%rbp), %ecx
                                        # kill: def $cl killed $ecx
	shll	%cl, %eax
	movslq	-8(%rbp), %rcx
	shlq	$8, %rcx
	movabsq	$LevelOffset8x8Luma_Intra, %rdx
	addq	%rcx, %rdx
	movslq	-12(%rbp), %rcx
	shlq	$5, %rcx
	addq	%rcx, %rdx
	movslq	-4(%rbp), %rcx
	movl	%eax, (%rdx,%rcx,4)
	jmp	.LBB20_26
.LBB20_25:                              # %if.else74
                                        #   in Loop: Header=BB20_22 Depth=3
	movslq	-16(%rbp), %rax
	movswl	Offset8_intra_default_inter(,%rax,2), %eax
	movl	-20(%rbp), %ecx
                                        # kill: def $cl killed $ecx
	shll	%cl, %eax
	movslq	-8(%rbp), %rcx
	shlq	$8, %rcx
	movabsq	$LevelOffset8x8Luma_Intra, %rdx
	addq	%rcx, %rdx
	movslq	-12(%rbp), %rcx
	shlq	$5, %rcx
	addq	%rcx, %rdx
	movslq	-4(%rbp), %rcx
	movl	%eax, (%rdx,%rcx,4)
.LBB20_26:                              # %if.end85
                                        #   in Loop: Header=BB20_22 Depth=3
	movslq	-16(%rbp), %rax
	movswl	Offset8_inter_default(,%rax,2), %eax
	movl	-20(%rbp), %ecx
                                        # kill: def $cl killed $ecx
	shll	%cl, %eax
	movslq	-8(%rbp), %rcx
	shlq	$8, %rcx
	movabsq	$LevelOffset8x8Luma_Inter, %rdx
	addq	%rcx, %rdx
	movslq	-12(%rbp), %rcx
	shlq	$5, %rcx
	addq	%rcx, %rdx
	movslq	-4(%rbp), %rcx
	movl	%eax, (%rdx,%rcx,4)
# %bb.27:                               # %for.inc96
                                        #   in Loop: Header=BB20_22 Depth=3
	movl	-4(%rbp), %eax
	addl	$1, %eax
	movl	%eax, -4(%rbp)
	jmp	.LBB20_22
.LBB20_28:                              # %for.end98
                                        #   in Loop: Header=BB20_20 Depth=2
	jmp	.LBB20_29
.LBB20_29:                              # %for.inc99
                                        #   in Loop: Header=BB20_20 Depth=2
	movl	-12(%rbp), %eax
	addl	$1, %eax
	movl	%eax, -12(%rbp)
	jmp	.LBB20_20
.LBB20_30:                              # %for.end101
                                        #   in Loop: Header=BB20_18 Depth=1
	jmp	.LBB20_31
.LBB20_31:                              # %for.inc102
                                        #   in Loop: Header=BB20_18 Depth=1
	movl	-8(%rbp), %eax
	addl	$1, %eax
	movl	%eax, -8(%rbp)
	jmp	.LBB20_18
.LBB20_32:                              # %for.end104
	jmp	.LBB20_33
.LBB20_33:                              # %if.end105
	cmpl	$70152540, -24(%rbp)    # imm = 0x42E715C
	jne	.LBB20_35
.LBB20_34:
	addq	$32, %rsp
	popq	%rbp
	.cfi_def_cfa %rsp, 8
	retq
.LBB20_35:                              # %func_exit
	.cfi_def_cfa %rbp, 16
	callq	detect_breach
	jmp	.LBB20_34
.Lfunc_end20:
	.size	CalculateOffset8Param.16, .Lfunc_end20-CalculateOffset8Param.16
	.cfi_endproc
                                        # -- End function
	.globl	CalculateOffsetParam.17 # -- Begin function CalculateOffsetParam.17
	.p2align	4, 0x90
	.type	CalculateOffsetParam.17,@function
CalculateOffsetParam.17:                # @CalculateOffsetParam.17
	.cfi_startproc
# %bb.0:                                # %entry
	pushq	%rbp
	.cfi_def_cfa_offset 16
	.cfi_offset %rbp, -16
	movq	%rsp, %rbp
	.cfi_def_cfa_register %rbp
	subq	$32, %rsp
	movl	$202565629, -24(%rbp)   # imm = 0xC12E7FD
	movq	input, %rax
	cmpl	$0, 3584(%rax)
	je	.LBB21_17
# %bb.1:                                # %if.then
	movl	$0, -8(%rbp)
.LBB21_2:                               # %for.cond
                                        # =>This Loop Header: Depth=1
                                        #     Child Loop BB21_4 Depth 2
                                        #       Child Loop BB21_6 Depth 3
	cmpl	$13, -8(%rbp)
	jge	.LBB21_16
# %bb.3:                                # %for.body
                                        #   in Loop: Header=BB21_2 Depth=1
	movl	-8(%rbp), %eax
	addl	$15, %eax
	subl	$10, %eax
	movl	%eax, -16(%rbp)
	movl	$0, -12(%rbp)
.LBB21_4:                               # %for.cond1
                                        #   Parent Loop BB21_2 Depth=1
                                        # =>  This Loop Header: Depth=2
                                        #       Child Loop BB21_6 Depth 3
	cmpl	$4, -12(%rbp)
	jge	.LBB21_14
# %bb.5:                                # %for.body3
                                        #   in Loop: Header=BB21_4 Depth=2
	movl	$0, -4(%rbp)
.LBB21_6:                               # %for.cond4
                                        #   Parent Loop BB21_2 Depth=1
                                        #     Parent Loop BB21_4 Depth=2
                                        # =>    This Inner Loop Header: Depth=3
	cmpl	$4, -4(%rbp)
	jge	.LBB21_12
# %bb.7:                                # %for.body6
                                        #   in Loop: Header=BB21_6 Depth=3
	movl	-4(%rbp), %eax
	shll	$2, %eax
	addl	-12(%rbp), %eax
	movl	%eax, -20(%rbp)
	movq	img, %rax
	cmpl	$2, 24(%rax)
	jne	.LBB21_9
# %bb.8:                                # %if.then9
                                        #   in Loop: Header=BB21_6 Depth=3
	movabsq	$LevelOffset4x4Chroma_Intra, %rdx
	movq	%rdx, %rax
	addq	$832, %rax              # imm = 0x340
	movslq	-20(%rbp), %rcx
	movswl	OffsetList4x4input(,%rcx,2), %esi
	movl	-16(%rbp), %ecx
                                        # kill: def $cl killed $ecx
	shll	%cl, %esi
	movslq	-8(%rbp), %rcx
	shlq	$6, %rcx
	movabsq	$LevelOffset4x4Luma_Intra, %rdi
	addq	%rcx, %rdi
	movslq	-12(%rbp), %rcx
	shlq	$4, %rcx
	addq	%rcx, %rdi
	movslq	-4(%rbp), %rcx
	movl	%esi, (%rdi,%rcx,4)
	movslq	-20(%rbp), %rcx
	movswl	OffsetList4x4input+32(,%rcx,2), %esi
	movl	-16(%rbp), %ecx
                                        # kill: def $cl killed $ecx
	shll	%cl, %esi
	movslq	-8(%rbp), %rcx
	shlq	$6, %rcx
	addq	%rcx, %rdx
	movslq	-12(%rbp), %rcx
	shlq	$4, %rcx
	addq	%rcx, %rdx
	movslq	-4(%rbp), %rcx
	movl	%esi, (%rdx,%rcx,4)
	movslq	-20(%rbp), %rcx
	movswl	OffsetList4x4input+64(,%rcx,2), %edx
	movl	-16(%rbp), %ecx
                                        # kill: def $cl killed $ecx
	shll	%cl, %edx
	movslq	-8(%rbp), %rcx
	shlq	$6, %rcx
	addq	%rcx, %rax
	movslq	-12(%rbp), %rcx
	shlq	$4, %rcx
	addq	%rcx, %rax
	movslq	-4(%rbp), %rcx
	movl	%edx, (%rax,%rcx,4)
	jmp	.LBB21_10
.LBB21_9:                               # %if.else
                                        #   in Loop: Header=BB21_6 Depth=3
	movabsq	$LevelOffset4x4Chroma_Intra, %rdx
	movq	%rdx, %rax
	addq	$832, %rax              # imm = 0x340
	movslq	-20(%rbp), %rcx
	movswl	OffsetList4x4input+96(,%rcx,2), %esi
	movl	-16(%rbp), %ecx
                                        # kill: def $cl killed $ecx
	shll	%cl, %esi
	movslq	-8(%rbp), %rcx
	shlq	$6, %rcx
	movabsq	$LevelOffset4x4Luma_Intra, %rdi
	addq	%rcx, %rdi
	movslq	-12(%rbp), %rcx
	shlq	$4, %rcx
	addq	%rcx, %rdi
	movslq	-4(%rbp), %rcx
	movl	%esi, (%rdi,%rcx,4)
	movslq	-20(%rbp), %rcx
	movswl	OffsetList4x4input+128(,%rcx,2), %esi
	movl	-16(%rbp), %ecx
                                        # kill: def $cl killed $ecx
	shll	%cl, %esi
	movslq	-8(%rbp), %rcx
	shlq	$6, %rcx
	addq	%rcx, %rdx
	movslq	-12(%rbp), %rcx
	shlq	$4, %rcx
	addq	%rcx, %rdx
	movslq	-4(%rbp), %rcx
	movl	%esi, (%rdx,%rcx,4)
	movslq	-20(%rbp), %rcx
	movswl	OffsetList4x4input+160(,%rcx,2), %edx
	movl	-16(%rbp), %ecx
                                        # kill: def $cl killed $ecx
	shll	%cl, %edx
	movslq	-8(%rbp), %rcx
	shlq	$6, %rcx
	addq	%rcx, %rax
	movslq	-12(%rbp), %rcx
	shlq	$4, %rcx
	addq	%rcx, %rax
	movslq	-4(%rbp), %rcx
	movl	%edx, (%rax,%rcx,4)
.LBB21_10:                              # %if.end
                                        #   in Loop: Header=BB21_6 Depth=3
	movabsq	$LevelOffset4x4Chroma_Inter, %rdx
	movq	%rdx, %rax
	addq	$832, %rax              # imm = 0x340
	movslq	-20(%rbp), %rcx
	movswl	OffsetList4x4input+192(,%rcx,2), %esi
	movl	-16(%rbp), %ecx
                                        # kill: def $cl killed $ecx
	shll	%cl, %esi
	movslq	-8(%rbp), %rcx
	shlq	$6, %rcx
	movabsq	$LevelOffset4x4Luma_Inter, %rdi
	addq	%rcx, %rdi
	movslq	-12(%rbp), %rcx
	shlq	$4, %rcx
	addq	%rcx, %rdi
	movslq	-4(%rbp), %rcx
	movl	%esi, (%rdi,%rcx,4)
	movslq	-20(%rbp), %rcx
	movswl	OffsetList4x4input+224(,%rcx,2), %esi
	movl	-16(%rbp), %ecx
                                        # kill: def $cl killed $ecx
	shll	%cl, %esi
	movslq	-8(%rbp), %rcx
	shlq	$6, %rcx
	addq	%rcx, %rdx
	movslq	-12(%rbp), %rcx
	shlq	$4, %rcx
	addq	%rcx, %rdx
	movslq	-4(%rbp), %rcx
	movl	%esi, (%rdx,%rcx,4)
	movslq	-20(%rbp), %rcx
	movswl	OffsetList4x4input+256(,%rcx,2), %edx
	movl	-16(%rbp), %ecx
                                        # kill: def $cl killed $ecx
	shll	%cl, %edx
	movslq	-8(%rbp), %rcx
	shlq	$6, %rcx
	addq	%rcx, %rax
	movslq	-12(%rbp), %rcx
	shlq	$4, %rcx
	addq	%rcx, %rax
	movslq	-4(%rbp), %rcx
	movl	%edx, (%rax,%rcx,4)
# %bb.11:                               # %for.inc
                                        #   in Loop: Header=BB21_6 Depth=3
	movl	-4(%rbp), %eax
	addl	$1, %eax
	movl	%eax, -4(%rbp)
	jmp	.LBB21_6
.LBB21_12:                              # %for.end
                                        #   in Loop: Header=BB21_4 Depth=2
	jmp	.LBB21_13
.LBB21_13:                              # %for.inc97
                                        #   in Loop: Header=BB21_4 Depth=2
	movl	-12(%rbp), %eax
	addl	$1, %eax
	movl	%eax, -12(%rbp)
	jmp	.LBB21_4
.LBB21_14:                              # %for.end99
                                        #   in Loop: Header=BB21_2 Depth=1
	jmp	.LBB21_15
.LBB21_15:                              # %for.inc100
                                        #   in Loop: Header=BB21_2 Depth=1
	movl	-8(%rbp), %eax
	addl	$1, %eax
	movl	%eax, -8(%rbp)
	jmp	.LBB21_2
.LBB21_16:                              # %for.end102
	jmp	.LBB21_33
.LBB21_17:                              # %if.else103
	movl	$0, -8(%rbp)
.LBB21_18:                              # %for.cond104
                                        # =>This Loop Header: Depth=1
                                        #     Child Loop BB21_20 Depth 2
                                        #       Child Loop BB21_22 Depth 3
	cmpl	$13, -8(%rbp)
	jge	.LBB21_32
# %bb.19:                               # %for.body107
                                        #   in Loop: Header=BB21_18 Depth=1
	movl	-8(%rbp), %eax
	addl	$15, %eax
	subl	$10, %eax
	movl	%eax, -16(%rbp)
	movl	$0, -12(%rbp)
.LBB21_20:                              # %for.cond110
                                        #   Parent Loop BB21_18 Depth=1
                                        # =>  This Loop Header: Depth=2
                                        #       Child Loop BB21_22 Depth 3
	cmpl	$4, -12(%rbp)
	jge	.LBB21_30
# %bb.21:                               # %for.body113
                                        #   in Loop: Header=BB21_20 Depth=2
	movl	$0, -4(%rbp)
.LBB21_22:                              # %for.cond114
                                        #   Parent Loop BB21_18 Depth=1
                                        #     Parent Loop BB21_20 Depth=2
                                        # =>    This Inner Loop Header: Depth=3
	cmpl	$4, -4(%rbp)
	jge	.LBB21_28
# %bb.23:                               # %for.body117
                                        #   in Loop: Header=BB21_22 Depth=3
	movl	-4(%rbp), %eax
	shll	$2, %eax
	addl	-12(%rbp), %eax
	movl	%eax, -20(%rbp)
	movq	img, %rax
	cmpl	$2, 24(%rax)
	jne	.LBB21_25
# %bb.24:                               # %if.then123
                                        #   in Loop: Header=BB21_22 Depth=3
	movabsq	$LevelOffset4x4Chroma_Intra, %rdx
	movq	%rdx, %rax
	addq	$832, %rax              # imm = 0x340
	movslq	-20(%rbp), %rcx
	movswl	Offset_intra_default_intra(,%rcx,2), %esi
	movl	-16(%rbp), %ecx
                                        # kill: def $cl killed $ecx
	shll	%cl, %esi
	movslq	-8(%rbp), %rcx
	shlq	$6, %rcx
	movabsq	$LevelOffset4x4Luma_Intra, %rdi
	addq	%rcx, %rdi
	movslq	-12(%rbp), %rcx
	shlq	$4, %rcx
	addq	%rcx, %rdi
	movslq	-4(%rbp), %rcx
	movl	%esi, (%rdi,%rcx,4)
	movslq	-20(%rbp), %rcx
	movswl	Offset_intra_default_intra(,%rcx,2), %esi
	movl	-16(%rbp), %ecx
                                        # kill: def $cl killed $ecx
	shll	%cl, %esi
	movslq	-8(%rbp), %rcx
	shlq	$6, %rcx
	addq	%rcx, %rdx
	movslq	-12(%rbp), %rcx
	shlq	$4, %rcx
	addq	%rcx, %rdx
	movslq	-4(%rbp), %rcx
	movl	%esi, (%rdx,%rcx,4)
	movslq	-20(%rbp), %rcx
	movswl	Offset_intra_default_intra(,%rcx,2), %edx
	movl	-16(%rbp), %ecx
                                        # kill: def $cl killed $ecx
	shll	%cl, %edx
	movslq	-8(%rbp), %rcx
	shlq	$6, %rcx
	addq	%rcx, %rax
	movslq	-12(%rbp), %rcx
	shlq	$4, %rcx
	addq	%rcx, %rax
	movslq	-4(%rbp), %rcx
	movl	%edx, (%rax,%rcx,4)
	jmp	.LBB21_26
.LBB21_25:                              # %if.else154
                                        #   in Loop: Header=BB21_22 Depth=3
	movabsq	$LevelOffset4x4Chroma_Intra, %rdx
	movq	%rdx, %rax
	addq	$832, %rax              # imm = 0x340
	movslq	-20(%rbp), %rcx
	movswl	Offset_intra_default_inter(,%rcx,2), %esi
	movl	-16(%rbp), %ecx
                                        # kill: def $cl killed $ecx
	shll	%cl, %esi
	movslq	-8(%rbp), %rcx
	shlq	$6, %rcx
	movabsq	$LevelOffset4x4Luma_Intra, %rdi
	addq	%rcx, %rdi
	movslq	-12(%rbp), %rcx
	shlq	$4, %rcx
	addq	%rcx, %rdi
	movslq	-4(%rbp), %rcx
	movl	%esi, (%rdi,%rcx,4)
	movslq	-20(%rbp), %rcx
	movswl	Offset_intra_default_inter(,%rcx,2), %esi
	movl	-16(%rbp), %ecx
                                        # kill: def $cl killed $ecx
	shll	%cl, %esi
	movslq	-8(%rbp), %rcx
	shlq	$6, %rcx
	addq	%rcx, %rdx
	movslq	-12(%rbp), %rcx
	shlq	$4, %rcx
	addq	%rcx, %rdx
	movslq	-4(%rbp), %rcx
	movl	%esi, (%rdx,%rcx,4)
	movslq	-20(%rbp), %rcx
	movswl	Offset_intra_default_inter(,%rcx,2), %edx
	movl	-16(%rbp), %ecx
                                        # kill: def $cl killed $ecx
	shll	%cl, %edx
	movslq	-8(%rbp), %rcx
	shlq	$6, %rcx
	addq	%rcx, %rax
	movslq	-12(%rbp), %rcx
	shlq	$4, %rcx
	addq	%rcx, %rax
	movslq	-4(%rbp), %rcx
	movl	%edx, (%rax,%rcx,4)
.LBB21_26:                              # %if.end185
                                        #   in Loop: Header=BB21_22 Depth=3
	movabsq	$LevelOffset4x4Chroma_Inter, %rdx
	movq	%rdx, %rax
	addq	$832, %rax              # imm = 0x340
	movslq	-20(%rbp), %rcx
	movswl	Offset_inter_default(,%rcx,2), %esi
	movl	-16(%rbp), %ecx
                                        # kill: def $cl killed $ecx
	shll	%cl, %esi
	movslq	-8(%rbp), %rcx
	shlq	$6, %rcx
	movabsq	$LevelOffset4x4Luma_Inter, %rdi
	addq	%rcx, %rdi
	movslq	-12(%rbp), %rcx
	shlq	$4, %rcx
	addq	%rcx, %rdi
	movslq	-4(%rbp), %rcx
	movl	%esi, (%rdi,%rcx,4)
	movslq	-20(%rbp), %rcx
	movswl	Offset_inter_default(,%rcx,2), %esi
	movl	-16(%rbp), %ecx
                                        # kill: def $cl killed $ecx
	shll	%cl, %esi
	movslq	-8(%rbp), %rcx
	shlq	$6, %rcx
	addq	%rcx, %rdx
	movslq	-12(%rbp), %rcx
	shlq	$4, %rcx
	addq	%rcx, %rdx
	movslq	-4(%rbp), %rcx
	movl	%esi, (%rdx,%rcx,4)
	movslq	-20(%rbp), %rcx
	movswl	Offset_inter_default(,%rcx,2), %edx
	movl	-16(%rbp), %ecx
                                        # kill: def $cl killed $ecx
	shll	%cl, %edx
	movslq	-8(%rbp), %rcx
	shlq	$6, %rcx
	addq	%rcx, %rax
	movslq	-12(%rbp), %rcx
	shlq	$4, %rcx
	addq	%rcx, %rax
	movslq	-4(%rbp), %rcx
	movl	%edx, (%rax,%rcx,4)
# %bb.27:                               # %for.inc216
                                        #   in Loop: Header=BB21_22 Depth=3
	movl	-4(%rbp), %eax
	addl	$1, %eax
	movl	%eax, -4(%rbp)
	jmp	.LBB21_22
.LBB21_28:                              # %for.end218
                                        #   in Loop: Header=BB21_20 Depth=2
	jmp	.LBB21_29
.LBB21_29:                              # %for.inc219
                                        #   in Loop: Header=BB21_20 Depth=2
	movl	-12(%rbp), %eax
	addl	$1, %eax
	movl	%eax, -12(%rbp)
	jmp	.LBB21_20
.LBB21_30:                              # %for.end221
                                        #   in Loop: Header=BB21_18 Depth=1
	jmp	.LBB21_31
.LBB21_31:                              # %for.inc222
                                        #   in Loop: Header=BB21_18 Depth=1
	movl	-8(%rbp), %eax
	addl	$1, %eax
	movl	%eax, -8(%rbp)
	jmp	.LBB21_18
.LBB21_32:                              # %for.end224
	jmp	.LBB21_33
.LBB21_33:                              # %if.end225
	cmpl	$202565629, -24(%rbp)   # imm = 0xC12E7FD
	jne	.LBB21_35
.LBB21_34:
	addq	$32, %rsp
	popq	%rbp
	.cfi_def_cfa %rsp, 8
	retq
.LBB21_35:                              # %func_exit
	.cfi_def_cfa %rbp, 16
	callq	detect_breach
	jmp	.LBB21_34
.Lfunc_end21:
	.size	CalculateOffsetParam.17, .Lfunc_end21-CalculateOffsetParam.17
	.cfi_endproc
                                        # -- End function
	.globl	CalculateOffset8Param.18 # -- Begin function CalculateOffset8Param.18
	.p2align	4, 0x90
	.type	CalculateOffset8Param.18,@function
CalculateOffset8Param.18:               # @CalculateOffset8Param.18
	.cfi_startproc
# %bb.0:                                # %entry
	pushq	%rbp
	.cfi_def_cfa_offset 16
	.cfi_offset %rbp, -16
	movq	%rsp, %rbp
	.cfi_def_cfa_register %rbp
	subq	$32, %rsp
	movl	$732502583, -24(%rbp)   # imm = 0x2BA91A37
	movq	input, %rax
	cmpl	$0, 3584(%rax)
	je	.LBB22_17
# %bb.1:                                # %if.then
	movl	$0, -8(%rbp)
.LBB22_2:                               # %for.cond
                                        # =>This Loop Header: Depth=1
                                        #     Child Loop BB22_4 Depth 2
                                        #       Child Loop BB22_6 Depth 3
	cmpl	$13, -8(%rbp)
	jge	.LBB22_16
# %bb.3:                                # %for.body
                                        #   in Loop: Header=BB22_2 Depth=1
	movl	-8(%rbp), %eax
	addl	$16, %eax
	subl	$10, %eax
	movl	%eax, -20(%rbp)
	movl	$0, -4(%rbp)
.LBB22_4:                               # %for.cond1
                                        #   Parent Loop BB22_2 Depth=1
                                        # =>  This Loop Header: Depth=2
                                        #       Child Loop BB22_6 Depth 3
	cmpl	$8, -4(%rbp)
	jge	.LBB22_14
# %bb.5:                                # %for.body3
                                        #   in Loop: Header=BB22_4 Depth=2
	movl	$0, -12(%rbp)
.LBB22_6:                               # %for.cond4
                                        #   Parent Loop BB22_2 Depth=1
                                        #     Parent Loop BB22_4 Depth=2
                                        # =>    This Inner Loop Header: Depth=3
	cmpl	$8, -12(%rbp)
	jge	.LBB22_12
# %bb.7:                                # %for.body6
                                        #   in Loop: Header=BB22_6 Depth=3
	movl	-12(%rbp), %eax
	shll	$3, %eax
	addl	-4(%rbp), %eax
	movl	%eax, -16(%rbp)
	movq	img, %rax
	cmpl	$2, 24(%rax)
	jne	.LBB22_9
# %bb.8:                                # %if.then9
                                        #   in Loop: Header=BB22_6 Depth=3
	movslq	-16(%rbp), %rax
	movswl	OffsetList8x8input(,%rax,2), %eax
	movl	-20(%rbp), %ecx
                                        # kill: def $cl killed $ecx
	shll	%cl, %eax
	movslq	-8(%rbp), %rcx
	shlq	$8, %rcx
	movabsq	$LevelOffset8x8Luma_Intra, %rdx
	addq	%rcx, %rdx
	movslq	-4(%rbp), %rcx
	shlq	$5, %rcx
	addq	%rcx, %rdx
	movslq	-12(%rbp), %rcx
	movl	%eax, (%rdx,%rcx,4)
	jmp	.LBB22_10
.LBB22_9:                               # %if.else
                                        #   in Loop: Header=BB22_6 Depth=3
	movslq	-16(%rbp), %rax
	movswl	OffsetList8x8input+128(,%rax,2), %eax
	movl	-20(%rbp), %ecx
                                        # kill: def $cl killed $ecx
	shll	%cl, %eax
	movslq	-8(%rbp), %rcx
	shlq	$8, %rcx
	movabsq	$LevelOffset8x8Luma_Intra, %rdx
	addq	%rcx, %rdx
	movslq	-4(%rbp), %rcx
	shlq	$5, %rcx
	addq	%rcx, %rdx
	movslq	-12(%rbp), %rcx
	movl	%eax, (%rdx,%rcx,4)
.LBB22_10:                              # %if.end
                                        #   in Loop: Header=BB22_6 Depth=3
	movslq	-16(%rbp), %rax
	movswl	OffsetList8x8input+256(,%rax,2), %eax
	movl	-20(%rbp), %ecx
                                        # kill: def $cl killed $ecx
	shll	%cl, %eax
	movslq	-8(%rbp), %rcx
	shlq	$8, %rcx
	movabsq	$LevelOffset8x8Luma_Inter, %rdx
	addq	%rcx, %rdx
	movslq	-4(%rbp), %rcx
	shlq	$5, %rcx
	addq	%rcx, %rdx
	movslq	-12(%rbp), %rcx
	movl	%eax, (%rdx,%rcx,4)
# %bb.11:                               # %for.inc
                                        #   in Loop: Header=BB22_6 Depth=3
	movl	-12(%rbp), %eax
	addl	$1, %eax
	movl	%eax, -12(%rbp)
	jmp	.LBB22_6
.LBB22_12:                              # %for.end
                                        #   in Loop: Header=BB22_4 Depth=2
	jmp	.LBB22_13
.LBB22_13:                              # %for.inc37
                                        #   in Loop: Header=BB22_4 Depth=2
	movl	-4(%rbp), %eax
	addl	$1, %eax
	movl	%eax, -4(%rbp)
	jmp	.LBB22_4
.LBB22_14:                              # %for.end39
                                        #   in Loop: Header=BB22_2 Depth=1
	jmp	.LBB22_15
.LBB22_15:                              # %for.inc40
                                        #   in Loop: Header=BB22_2 Depth=1
	movl	-8(%rbp), %eax
	addl	$1, %eax
	movl	%eax, -8(%rbp)
	jmp	.LBB22_2
.LBB22_16:                              # %for.end42
	jmp	.LBB22_33
.LBB22_17:                              # %if.else43
	movl	$0, -8(%rbp)
.LBB22_18:                              # %for.cond44
                                        # =>This Loop Header: Depth=1
                                        #     Child Loop BB22_20 Depth 2
                                        #       Child Loop BB22_22 Depth 3
	cmpl	$13, -8(%rbp)
	jge	.LBB22_32
# %bb.19:                               # %for.body47
                                        #   in Loop: Header=BB22_18 Depth=1
	movl	-8(%rbp), %eax
	addl	$16, %eax
	subl	$10, %eax
	movl	%eax, -20(%rbp)
	movl	$0, -4(%rbp)
.LBB22_20:                              # %for.cond50
                                        #   Parent Loop BB22_18 Depth=1
                                        # =>  This Loop Header: Depth=2
                                        #       Child Loop BB22_22 Depth 3
	cmpl	$8, -4(%rbp)
	jge	.LBB22_30
# %bb.21:                               # %for.body53
                                        #   in Loop: Header=BB22_20 Depth=2
	movl	$0, -12(%rbp)
.LBB22_22:                              # %for.cond54
                                        #   Parent Loop BB22_18 Depth=1
                                        #     Parent Loop BB22_20 Depth=2
                                        # =>    This Inner Loop Header: Depth=3
	cmpl	$8, -12(%rbp)
	jge	.LBB22_28
# %bb.23:                               # %for.body57
                                        #   in Loop: Header=BB22_22 Depth=3
	movl	-12(%rbp), %eax
	shll	$3, %eax
	addl	-4(%rbp), %eax
	movl	%eax, -16(%rbp)
	movq	img, %rax
	cmpl	$2, 24(%rax)
	jne	.LBB22_25
# %bb.24:                               # %if.then63
                                        #   in Loop: Header=BB22_22 Depth=3
	movslq	-16(%rbp), %rax
	movswl	Offset8_intra_default_intra(,%rax,2), %eax
	movl	-20(%rbp), %ecx
                                        # kill: def $cl killed $ecx
	shll	%cl, %eax
	movslq	-8(%rbp), %rcx
	shlq	$8, %rcx
	movabsq	$LevelOffset8x8Luma_Intra, %rdx
	addq	%rcx, %rdx
	movslq	-4(%rbp), %rcx
	shlq	$5, %rcx
	addq	%rcx, %rdx
	movslq	-12(%rbp), %rcx
	movl	%eax, (%rdx,%rcx,4)
	jmp	.LBB22_26
.LBB22_25:                              # %if.else74
                                        #   in Loop: Header=BB22_22 Depth=3
	movslq	-16(%rbp), %rax
	movswl	Offset8_intra_default_inter(,%rax,2), %eax
	movl	-20(%rbp), %ecx
                                        # kill: def $cl killed $ecx
	shll	%cl, %eax
	movslq	-8(%rbp), %rcx
	shlq	$8, %rcx
	movabsq	$LevelOffset8x8Luma_Intra, %rdx
	addq	%rcx, %rdx
	movslq	-4(%rbp), %rcx
	shlq	$5, %rcx
	addq	%rcx, %rdx
	movslq	-12(%rbp), %rcx
	movl	%eax, (%rdx,%rcx,4)
.LBB22_26:                              # %if.end85
                                        #   in Loop: Header=BB22_22 Depth=3
	movslq	-16(%rbp), %rax
	movswl	Offset8_inter_default(,%rax,2), %eax
	movl	-20(%rbp), %ecx
                                        # kill: def $cl killed $ecx
	shll	%cl, %eax
	movslq	-8(%rbp), %rcx
	shlq	$8, %rcx
	movabsq	$LevelOffset8x8Luma_Inter, %rdx
	addq	%rcx, %rdx
	movslq	-4(%rbp), %rcx
	shlq	$5, %rcx
	addq	%rcx, %rdx
	movslq	-12(%rbp), %rcx
	movl	%eax, (%rdx,%rcx,4)
# %bb.27:                               # %for.inc96
                                        #   in Loop: Header=BB22_22 Depth=3
	movl	-12(%rbp), %eax
	addl	$1, %eax
	movl	%eax, -12(%rbp)
	jmp	.LBB22_22
.LBB22_28:                              # %for.end98
                                        #   in Loop: Header=BB22_20 Depth=2
	jmp	.LBB22_29
.LBB22_29:                              # %for.inc99
                                        #   in Loop: Header=BB22_20 Depth=2
	movl	-4(%rbp), %eax
	addl	$1, %eax
	movl	%eax, -4(%rbp)
	jmp	.LBB22_20
.LBB22_30:                              # %for.end101
                                        #   in Loop: Header=BB22_18 Depth=1
	jmp	.LBB22_31
.LBB22_31:                              # %for.inc102
                                        #   in Loop: Header=BB22_18 Depth=1
	movl	-8(%rbp), %eax
	addl	$1, %eax
	movl	%eax, -8(%rbp)
	jmp	.LBB22_18
.LBB22_32:                              # %for.end104
	jmp	.LBB22_33
.LBB22_33:                              # %if.end105
	cmpl	$732502583, -24(%rbp)   # imm = 0x2BA91A37
	jne	.LBB22_35
.LBB22_34:
	addq	$32, %rsp
	popq	%rbp
	.cfi_def_cfa %rsp, 8
	retq
.LBB22_35:                              # %func_exit
	.cfi_def_cfa %rbp, 16
	callq	detect_breach
	jmp	.LBB22_34
.Lfunc_end22:
	.size	CalculateOffset8Param.18, .Lfunc_end22-CalculateOffset8Param.18
	.cfi_endproc
                                        # -- End function
	.globl	CalculateOffset8Param.19 # -- Begin function CalculateOffset8Param.19
	.p2align	4, 0x90
	.type	CalculateOffset8Param.19,@function
CalculateOffset8Param.19:               # @CalculateOffset8Param.19
	.cfi_startproc
# %bb.0:                                # %entry
	pushq	%rbp
	.cfi_def_cfa_offset 16
	.cfi_offset %rbp, -16
	movq	%rsp, %rbp
	.cfi_def_cfa_register %rbp
	subq	$32, %rsp
	movl	$434133064, -24(%rbp)   # imm = 0x19E05848
	movq	input, %rax
	cmpl	$0, 3584(%rax)
	je	.LBB23_17
# %bb.1:                                # %if.then
	movl	$0, -12(%rbp)
.LBB23_2:                               # %for.cond
                                        # =>This Loop Header: Depth=1
                                        #     Child Loop BB23_4 Depth 2
                                        #       Child Loop BB23_6 Depth 3
	cmpl	$13, -12(%rbp)
	jge	.LBB23_16
# %bb.3:                                # %for.body
                                        #   in Loop: Header=BB23_2 Depth=1
	movl	-12(%rbp), %eax
	addl	$16, %eax
	subl	$10, %eax
	movl	%eax, -20(%rbp)
	movl	$0, -8(%rbp)
.LBB23_4:                               # %for.cond1
                                        #   Parent Loop BB23_2 Depth=1
                                        # =>  This Loop Header: Depth=2
                                        #       Child Loop BB23_6 Depth 3
	cmpl	$8, -8(%rbp)
	jge	.LBB23_14
# %bb.5:                                # %for.body3
                                        #   in Loop: Header=BB23_4 Depth=2
	movl	$0, -4(%rbp)
.LBB23_6:                               # %for.cond4
                                        #   Parent Loop BB23_2 Depth=1
                                        #     Parent Loop BB23_4 Depth=2
                                        # =>    This Inner Loop Header: Depth=3
	cmpl	$8, -4(%rbp)
	jge	.LBB23_12
# %bb.7:                                # %for.body6
                                        #   in Loop: Header=BB23_6 Depth=3
	movl	-4(%rbp), %eax
	shll	$3, %eax
	addl	-8(%rbp), %eax
	movl	%eax, -16(%rbp)
	movq	img, %rax
	cmpl	$2, 24(%rax)
	jne	.LBB23_9
# %bb.8:                                # %if.then9
                                        #   in Loop: Header=BB23_6 Depth=3
	movslq	-16(%rbp), %rax
	movswl	OffsetList8x8input(,%rax,2), %eax
	movl	-20(%rbp), %ecx
                                        # kill: def $cl killed $ecx
	shll	%cl, %eax
	movslq	-12(%rbp), %rcx
	shlq	$8, %rcx
	movabsq	$LevelOffset8x8Luma_Intra, %rdx
	addq	%rcx, %rdx
	movslq	-8(%rbp), %rcx
	shlq	$5, %rcx
	addq	%rcx, %rdx
	movslq	-4(%rbp), %rcx
	movl	%eax, (%rdx,%rcx,4)
	jmp	.LBB23_10
.LBB23_9:                               # %if.else
                                        #   in Loop: Header=BB23_6 Depth=3
	movslq	-16(%rbp), %rax
	movswl	OffsetList8x8input+128(,%rax,2), %eax
	movl	-20(%rbp), %ecx
                                        # kill: def $cl killed $ecx
	shll	%cl, %eax
	movslq	-12(%rbp), %rcx
	shlq	$8, %rcx
	movabsq	$LevelOffset8x8Luma_Intra, %rdx
	addq	%rcx, %rdx
	movslq	-8(%rbp), %rcx
	shlq	$5, %rcx
	addq	%rcx, %rdx
	movslq	-4(%rbp), %rcx
	movl	%eax, (%rdx,%rcx,4)
.LBB23_10:                              # %if.end
                                        #   in Loop: Header=BB23_6 Depth=3
	movslq	-16(%rbp), %rax
	movswl	OffsetList8x8input+256(,%rax,2), %eax
	movl	-20(%rbp), %ecx
                                        # kill: def $cl killed $ecx
	shll	%cl, %eax
	movslq	-12(%rbp), %rcx
	shlq	$8, %rcx
	movabsq	$LevelOffset8x8Luma_Inter, %rdx
	addq	%rcx, %rdx
	movslq	-8(%rbp), %rcx
	shlq	$5, %rcx
	addq	%rcx, %rdx
	movslq	-4(%rbp), %rcx
	movl	%eax, (%rdx,%rcx,4)
# %bb.11:                               # %for.inc
                                        #   in Loop: Header=BB23_6 Depth=3
	movl	-4(%rbp), %eax
	addl	$1, %eax
	movl	%eax, -4(%rbp)
	jmp	.LBB23_6
.LBB23_12:                              # %for.end
                                        #   in Loop: Header=BB23_4 Depth=2
	jmp	.LBB23_13
.LBB23_13:                              # %for.inc37
                                        #   in Loop: Header=BB23_4 Depth=2
	movl	-8(%rbp), %eax
	addl	$1, %eax
	movl	%eax, -8(%rbp)
	jmp	.LBB23_4
.LBB23_14:                              # %for.end39
                                        #   in Loop: Header=BB23_2 Depth=1
	jmp	.LBB23_15
.LBB23_15:                              # %for.inc40
                                        #   in Loop: Header=BB23_2 Depth=1
	movl	-12(%rbp), %eax
	addl	$1, %eax
	movl	%eax, -12(%rbp)
	jmp	.LBB23_2
.LBB23_16:                              # %for.end42
	jmp	.LBB23_33
.LBB23_17:                              # %if.else43
	movl	$0, -12(%rbp)
.LBB23_18:                              # %for.cond44
                                        # =>This Loop Header: Depth=1
                                        #     Child Loop BB23_20 Depth 2
                                        #       Child Loop BB23_22 Depth 3
	cmpl	$13, -12(%rbp)
	jge	.LBB23_32
# %bb.19:                               # %for.body47
                                        #   in Loop: Header=BB23_18 Depth=1
	movl	-12(%rbp), %eax
	addl	$16, %eax
	subl	$10, %eax
	movl	%eax, -20(%rbp)
	movl	$0, -8(%rbp)
.LBB23_20:                              # %for.cond50
                                        #   Parent Loop BB23_18 Depth=1
                                        # =>  This Loop Header: Depth=2
                                        #       Child Loop BB23_22 Depth 3
	cmpl	$8, -8(%rbp)
	jge	.LBB23_30
# %bb.21:                               # %for.body53
                                        #   in Loop: Header=BB23_20 Depth=2
	movl	$0, -4(%rbp)
.LBB23_22:                              # %for.cond54
                                        #   Parent Loop BB23_18 Depth=1
                                        #     Parent Loop BB23_20 Depth=2
                                        # =>    This Inner Loop Header: Depth=3
	cmpl	$8, -4(%rbp)
	jge	.LBB23_28
# %bb.23:                               # %for.body57
                                        #   in Loop: Header=BB23_22 Depth=3
	movl	-4(%rbp), %eax
	shll	$3, %eax
	addl	-8(%rbp), %eax
	movl	%eax, -16(%rbp)
	movq	img, %rax
	cmpl	$2, 24(%rax)
	jne	.LBB23_25
# %bb.24:                               # %if.then63
                                        #   in Loop: Header=BB23_22 Depth=3
	movslq	-16(%rbp), %rax
	movswl	Offset8_intra_default_intra(,%rax,2), %eax
	movl	-20(%rbp), %ecx
                                        # kill: def $cl killed $ecx
	shll	%cl, %eax
	movslq	-12(%rbp), %rcx
	shlq	$8, %rcx
	movabsq	$LevelOffset8x8Luma_Intra, %rdx
	addq	%rcx, %rdx
	movslq	-8(%rbp), %rcx
	shlq	$5, %rcx
	addq	%rcx, %rdx
	movslq	-4(%rbp), %rcx
	movl	%eax, (%rdx,%rcx,4)
	jmp	.LBB23_26
.LBB23_25:                              # %if.else74
                                        #   in Loop: Header=BB23_22 Depth=3
	movslq	-16(%rbp), %rax
	movswl	Offset8_intra_default_inter(,%rax,2), %eax
	movl	-20(%rbp), %ecx
                                        # kill: def $cl killed $ecx
	shll	%cl, %eax
	movslq	-12(%rbp), %rcx
	shlq	$8, %rcx
	movabsq	$LevelOffset8x8Luma_Intra, %rdx
	addq	%rcx, %rdx
	movslq	-8(%rbp), %rcx
	shlq	$5, %rcx
	addq	%rcx, %rdx
	movslq	-4(%rbp), %rcx
	movl	%eax, (%rdx,%rcx,4)
.LBB23_26:                              # %if.end85
                                        #   in Loop: Header=BB23_22 Depth=3
	movslq	-16(%rbp), %rax
	movswl	Offset8_inter_default(,%rax,2), %eax
	movl	-20(%rbp), %ecx
                                        # kill: def $cl killed $ecx
	shll	%cl, %eax
	movslq	-12(%rbp), %rcx
	shlq	$8, %rcx
	movabsq	$LevelOffset8x8Luma_Inter, %rdx
	addq	%rcx, %rdx
	movslq	-8(%rbp), %rcx
	shlq	$5, %rcx
	addq	%rcx, %rdx
	movslq	-4(%rbp), %rcx
	movl	%eax, (%rdx,%rcx,4)
# %bb.27:                               # %for.inc96
                                        #   in Loop: Header=BB23_22 Depth=3
	movl	-4(%rbp), %eax
	addl	$1, %eax
	movl	%eax, -4(%rbp)
	jmp	.LBB23_22
.LBB23_28:                              # %for.end98
                                        #   in Loop: Header=BB23_20 Depth=2
	jmp	.LBB23_29
.LBB23_29:                              # %for.inc99
                                        #   in Loop: Header=BB23_20 Depth=2
	movl	-8(%rbp), %eax
	addl	$1, %eax
	movl	%eax, -8(%rbp)
	jmp	.LBB23_20
.LBB23_30:                              # %for.end101
                                        #   in Loop: Header=BB23_18 Depth=1
	jmp	.LBB23_31
.LBB23_31:                              # %for.inc102
                                        #   in Loop: Header=BB23_18 Depth=1
	movl	-12(%rbp), %eax
	addl	$1, %eax
	movl	%eax, -12(%rbp)
	jmp	.LBB23_18
.LBB23_32:                              # %for.end104
	jmp	.LBB23_33
.LBB23_33:                              # %if.end105
	cmpl	$434133064, -24(%rbp)   # imm = 0x19E05848
	jne	.LBB23_35
.LBB23_34:
	addq	$32, %rsp
	popq	%rbp
	.cfi_def_cfa %rsp, 8
	retq
.LBB23_35:                              # %func_exit
	.cfi_def_cfa %rbp, 16
	callq	detect_breach
	jmp	.LBB23_34
.Lfunc_end23:
	.size	CalculateOffset8Param.19, .Lfunc_end23-CalculateOffset8Param.19
	.cfi_endproc
                                        # -- End function
	.globl	CalculateOffsetParam.20 # -- Begin function CalculateOffsetParam.20
	.p2align	4, 0x90
	.type	CalculateOffsetParam.20,@function
CalculateOffsetParam.20:                # @CalculateOffsetParam.20
	.cfi_startproc
# %bb.0:                                # %entry
	pushq	%rbp
	.cfi_def_cfa_offset 16
	.cfi_offset %rbp, -16
	movq	%rsp, %rbp
	.cfi_def_cfa_register %rbp
	subq	$32, %rsp
	movl	$605036110, -24(%rbp)   # imm = 0x24101E4E
	movq	input, %rax
	cmpl	$0, 3584(%rax)
	je	.LBB24_17
# %bb.1:                                # %if.then
	movl	$0, -4(%rbp)
.LBB24_2:                               # %for.cond
                                        # =>This Loop Header: Depth=1
                                        #     Child Loop BB24_4 Depth 2
                                        #       Child Loop BB24_6 Depth 3
	cmpl	$13, -4(%rbp)
	jge	.LBB24_16
# %bb.3:                                # %for.body
                                        #   in Loop: Header=BB24_2 Depth=1
	movl	-4(%rbp), %eax
	addl	$15, %eax
	subl	$10, %eax
	movl	%eax, -20(%rbp)
	movl	$0, -8(%rbp)
.LBB24_4:                               # %for.cond1
                                        #   Parent Loop BB24_2 Depth=1
                                        # =>  This Loop Header: Depth=2
                                        #       Child Loop BB24_6 Depth 3
	cmpl	$4, -8(%rbp)
	jge	.LBB24_14
# %bb.5:                                # %for.body3
                                        #   in Loop: Header=BB24_4 Depth=2
	movl	$0, -12(%rbp)
.LBB24_6:                               # %for.cond4
                                        #   Parent Loop BB24_2 Depth=1
                                        #     Parent Loop BB24_4 Depth=2
                                        # =>    This Inner Loop Header: Depth=3
	cmpl	$4, -12(%rbp)
	jge	.LBB24_12
# %bb.7:                                # %for.body6
                                        #   in Loop: Header=BB24_6 Depth=3
	movl	-12(%rbp), %eax
	shll	$2, %eax
	addl	-8(%rbp), %eax
	movl	%eax, -16(%rbp)
	movq	img, %rax
	cmpl	$2, 24(%rax)
	jne	.LBB24_9
# %bb.8:                                # %if.then9
                                        #   in Loop: Header=BB24_6 Depth=3
	movabsq	$LevelOffset4x4Chroma_Intra, %rdx
	movq	%rdx, %rax
	addq	$832, %rax              # imm = 0x340
	movslq	-16(%rbp), %rcx
	movswl	OffsetList4x4input(,%rcx,2), %esi
	movl	-20(%rbp), %ecx
                                        # kill: def $cl killed $ecx
	shll	%cl, %esi
	movslq	-4(%rbp), %rcx
	shlq	$6, %rcx
	movabsq	$LevelOffset4x4Luma_Intra, %rdi
	addq	%rcx, %rdi
	movslq	-8(%rbp), %rcx
	shlq	$4, %rcx
	addq	%rcx, %rdi
	movslq	-12(%rbp), %rcx
	movl	%esi, (%rdi,%rcx,4)
	movslq	-16(%rbp), %rcx
	movswl	OffsetList4x4input+32(,%rcx,2), %esi
	movl	-20(%rbp), %ecx
                                        # kill: def $cl killed $ecx
	shll	%cl, %esi
	movslq	-4(%rbp), %rcx
	shlq	$6, %rcx
	addq	%rcx, %rdx
	movslq	-8(%rbp), %rcx
	shlq	$4, %rcx
	addq	%rcx, %rdx
	movslq	-12(%rbp), %rcx
	movl	%esi, (%rdx,%rcx,4)
	movslq	-16(%rbp), %rcx
	movswl	OffsetList4x4input+64(,%rcx,2), %edx
	movl	-20(%rbp), %ecx
                                        # kill: def $cl killed $ecx
	shll	%cl, %edx
	movslq	-4(%rbp), %rcx
	shlq	$6, %rcx
	addq	%rcx, %rax
	movslq	-8(%rbp), %rcx
	shlq	$4, %rcx
	addq	%rcx, %rax
	movslq	-12(%rbp), %rcx
	movl	%edx, (%rax,%rcx,4)
	jmp	.LBB24_10
.LBB24_9:                               # %if.else
                                        #   in Loop: Header=BB24_6 Depth=3
	movabsq	$LevelOffset4x4Chroma_Intra, %rdx
	movq	%rdx, %rax
	addq	$832, %rax              # imm = 0x340
	movslq	-16(%rbp), %rcx
	movswl	OffsetList4x4input+96(,%rcx,2), %esi
	movl	-20(%rbp), %ecx
                                        # kill: def $cl killed $ecx
	shll	%cl, %esi
	movslq	-4(%rbp), %rcx
	shlq	$6, %rcx
	movabsq	$LevelOffset4x4Luma_Intra, %rdi
	addq	%rcx, %rdi
	movslq	-8(%rbp), %rcx
	shlq	$4, %rcx
	addq	%rcx, %rdi
	movslq	-12(%rbp), %rcx
	movl	%esi, (%rdi,%rcx,4)
	movslq	-16(%rbp), %rcx
	movswl	OffsetList4x4input+128(,%rcx,2), %esi
	movl	-20(%rbp), %ecx
                                        # kill: def $cl killed $ecx
	shll	%cl, %esi
	movslq	-4(%rbp), %rcx
	shlq	$6, %rcx
	addq	%rcx, %rdx
	movslq	-8(%rbp), %rcx
	shlq	$4, %rcx
	addq	%rcx, %rdx
	movslq	-12(%rbp), %rcx
	movl	%esi, (%rdx,%rcx,4)
	movslq	-16(%rbp), %rcx
	movswl	OffsetList4x4input+160(,%rcx,2), %edx
	movl	-20(%rbp), %ecx
                                        # kill: def $cl killed $ecx
	shll	%cl, %edx
	movslq	-4(%rbp), %rcx
	shlq	$6, %rcx
	addq	%rcx, %rax
	movslq	-8(%rbp), %rcx
	shlq	$4, %rcx
	addq	%rcx, %rax
	movslq	-12(%rbp), %rcx
	movl	%edx, (%rax,%rcx,4)
.LBB24_10:                              # %if.end
                                        #   in Loop: Header=BB24_6 Depth=3
	movabsq	$LevelOffset4x4Chroma_Inter, %rdx
	movq	%rdx, %rax
	addq	$832, %rax              # imm = 0x340
	movslq	-16(%rbp), %rcx
	movswl	OffsetList4x4input+192(,%rcx,2), %esi
	movl	-20(%rbp), %ecx
                                        # kill: def $cl killed $ecx
	shll	%cl, %esi
	movslq	-4(%rbp), %rcx
	shlq	$6, %rcx
	movabsq	$LevelOffset4x4Luma_Inter, %rdi
	addq	%rcx, %rdi
	movslq	-8(%rbp), %rcx
	shlq	$4, %rcx
	addq	%rcx, %rdi
	movslq	-12(%rbp), %rcx
	movl	%esi, (%rdi,%rcx,4)
	movslq	-16(%rbp), %rcx
	movswl	OffsetList4x4input+224(,%rcx,2), %esi
	movl	-20(%rbp), %ecx
                                        # kill: def $cl killed $ecx
	shll	%cl, %esi
	movslq	-4(%rbp), %rcx
	shlq	$6, %rcx
	addq	%rcx, %rdx
	movslq	-8(%rbp), %rcx
	shlq	$4, %rcx
	addq	%rcx, %rdx
	movslq	-12(%rbp), %rcx
	movl	%esi, (%rdx,%rcx,4)
	movslq	-16(%rbp), %rcx
	movswl	OffsetList4x4input+256(,%rcx,2), %edx
	movl	-20(%rbp), %ecx
                                        # kill: def $cl killed $ecx
	shll	%cl, %edx
	movslq	-4(%rbp), %rcx
	shlq	$6, %rcx
	addq	%rcx, %rax
	movslq	-8(%rbp), %rcx
	shlq	$4, %rcx
	addq	%rcx, %rax
	movslq	-12(%rbp), %rcx
	movl	%edx, (%rax,%rcx,4)
# %bb.11:                               # %for.inc
                                        #   in Loop: Header=BB24_6 Depth=3
	movl	-12(%rbp), %eax
	addl	$1, %eax
	movl	%eax, -12(%rbp)
	jmp	.LBB24_6
.LBB24_12:                              # %for.end
                                        #   in Loop: Header=BB24_4 Depth=2
	jmp	.LBB24_13
.LBB24_13:                              # %for.inc97
                                        #   in Loop: Header=BB24_4 Depth=2
	movl	-8(%rbp), %eax
	addl	$1, %eax
	movl	%eax, -8(%rbp)
	jmp	.LBB24_4
.LBB24_14:                              # %for.end99
                                        #   in Loop: Header=BB24_2 Depth=1
	jmp	.LBB24_15
.LBB24_15:                              # %for.inc100
                                        #   in Loop: Header=BB24_2 Depth=1
	movl	-4(%rbp), %eax
	addl	$1, %eax
	movl	%eax, -4(%rbp)
	jmp	.LBB24_2
.LBB24_16:                              # %for.end102
	jmp	.LBB24_33
.LBB24_17:                              # %if.else103
	movl	$0, -4(%rbp)
.LBB24_18:                              # %for.cond104
                                        # =>This Loop Header: Depth=1
                                        #     Child Loop BB24_20 Depth 2
                                        #       Child Loop BB24_22 Depth 3
	cmpl	$13, -4(%rbp)
	jge	.LBB24_32
# %bb.19:                               # %for.body107
                                        #   in Loop: Header=BB24_18 Depth=1
	movl	-4(%rbp), %eax
	addl	$15, %eax
	subl	$10, %eax
	movl	%eax, -20(%rbp)
	movl	$0, -8(%rbp)
.LBB24_20:                              # %for.cond110
                                        #   Parent Loop BB24_18 Depth=1
                                        # =>  This Loop Header: Depth=2
                                        #       Child Loop BB24_22 Depth 3
	cmpl	$4, -8(%rbp)
	jge	.LBB24_30
# %bb.21:                               # %for.body113
                                        #   in Loop: Header=BB24_20 Depth=2
	movl	$0, -12(%rbp)
.LBB24_22:                              # %for.cond114
                                        #   Parent Loop BB24_18 Depth=1
                                        #     Parent Loop BB24_20 Depth=2
                                        # =>    This Inner Loop Header: Depth=3
	cmpl	$4, -12(%rbp)
	jge	.LBB24_28
# %bb.23:                               # %for.body117
                                        #   in Loop: Header=BB24_22 Depth=3
	movl	-12(%rbp), %eax
	shll	$2, %eax
	addl	-8(%rbp), %eax
	movl	%eax, -16(%rbp)
	movq	img, %rax
	cmpl	$2, 24(%rax)
	jne	.LBB24_25
# %bb.24:                               # %if.then123
                                        #   in Loop: Header=BB24_22 Depth=3
	movabsq	$LevelOffset4x4Chroma_Intra, %rdx
	movq	%rdx, %rax
	addq	$832, %rax              # imm = 0x340
	movslq	-16(%rbp), %rcx
	movswl	Offset_intra_default_intra(,%rcx,2), %esi
	movl	-20(%rbp), %ecx
                                        # kill: def $cl killed $ecx
	shll	%cl, %esi
	movslq	-4(%rbp), %rcx
	shlq	$6, %rcx
	movabsq	$LevelOffset4x4Luma_Intra, %rdi
	addq	%rcx, %rdi
	movslq	-8(%rbp), %rcx
	shlq	$4, %rcx
	addq	%rcx, %rdi
	movslq	-12(%rbp), %rcx
	movl	%esi, (%rdi,%rcx,4)
	movslq	-16(%rbp), %rcx
	movswl	Offset_intra_default_intra(,%rcx,2), %esi
	movl	-20(%rbp), %ecx
                                        # kill: def $cl killed $ecx
	shll	%cl, %esi
	movslq	-4(%rbp), %rcx
	shlq	$6, %rcx
	addq	%rcx, %rdx
	movslq	-8(%rbp), %rcx
	shlq	$4, %rcx
	addq	%rcx, %rdx
	movslq	-12(%rbp), %rcx
	movl	%esi, (%rdx,%rcx,4)
	movslq	-16(%rbp), %rcx
	movswl	Offset_intra_default_intra(,%rcx,2), %edx
	movl	-20(%rbp), %ecx
                                        # kill: def $cl killed $ecx
	shll	%cl, %edx
	movslq	-4(%rbp), %rcx
	shlq	$6, %rcx
	addq	%rcx, %rax
	movslq	-8(%rbp), %rcx
	shlq	$4, %rcx
	addq	%rcx, %rax
	movslq	-12(%rbp), %rcx
	movl	%edx, (%rax,%rcx,4)
	jmp	.LBB24_26
.LBB24_25:                              # %if.else154
                                        #   in Loop: Header=BB24_22 Depth=3
	movabsq	$LevelOffset4x4Chroma_Intra, %rdx
	movq	%rdx, %rax
	addq	$832, %rax              # imm = 0x340
	movslq	-16(%rbp), %rcx
	movswl	Offset_intra_default_inter(,%rcx,2), %esi
	movl	-20(%rbp), %ecx
                                        # kill: def $cl killed $ecx
	shll	%cl, %esi
	movslq	-4(%rbp), %rcx
	shlq	$6, %rcx
	movabsq	$LevelOffset4x4Luma_Intra, %rdi
	addq	%rcx, %rdi
	movslq	-8(%rbp), %rcx
	shlq	$4, %rcx
	addq	%rcx, %rdi
	movslq	-12(%rbp), %rcx
	movl	%esi, (%rdi,%rcx,4)
	movslq	-16(%rbp), %rcx
	movswl	Offset_intra_default_inter(,%rcx,2), %esi
	movl	-20(%rbp), %ecx
                                        # kill: def $cl killed $ecx
	shll	%cl, %esi
	movslq	-4(%rbp), %rcx
	shlq	$6, %rcx
	addq	%rcx, %rdx
	movslq	-8(%rbp), %rcx
	shlq	$4, %rcx
	addq	%rcx, %rdx
	movslq	-12(%rbp), %rcx
	movl	%esi, (%rdx,%rcx,4)
	movslq	-16(%rbp), %rcx
	movswl	Offset_intra_default_inter(,%rcx,2), %edx
	movl	-20(%rbp), %ecx
                                        # kill: def $cl killed $ecx
	shll	%cl, %edx
	movslq	-4(%rbp), %rcx
	shlq	$6, %rcx
	addq	%rcx, %rax
	movslq	-8(%rbp), %rcx
	shlq	$4, %rcx
	addq	%rcx, %rax
	movslq	-12(%rbp), %rcx
	movl	%edx, (%rax,%rcx,4)
.LBB24_26:                              # %if.end185
                                        #   in Loop: Header=BB24_22 Depth=3
	movabsq	$LevelOffset4x4Chroma_Inter, %rdx
	movq	%rdx, %rax
	addq	$832, %rax              # imm = 0x340
	movslq	-16(%rbp), %rcx
	movswl	Offset_inter_default(,%rcx,2), %esi
	movl	-20(%rbp), %ecx
                                        # kill: def $cl killed $ecx
	shll	%cl, %esi
	movslq	-4(%rbp), %rcx
	shlq	$6, %rcx
	movabsq	$LevelOffset4x4Luma_Inter, %rdi
	addq	%rcx, %rdi
	movslq	-8(%rbp), %rcx
	shlq	$4, %rcx
	addq	%rcx, %rdi
	movslq	-12(%rbp), %rcx
	movl	%esi, (%rdi,%rcx,4)
	movslq	-16(%rbp), %rcx
	movswl	Offset_inter_default(,%rcx,2), %esi
	movl	-20(%rbp), %ecx
                                        # kill: def $cl killed $ecx
	shll	%cl, %esi
	movslq	-4(%rbp), %rcx
	shlq	$6, %rcx
	addq	%rcx, %rdx
	movslq	-8(%rbp), %rcx
	shlq	$4, %rcx
	addq	%rcx, %rdx
	movslq	-12(%rbp), %rcx
	movl	%esi, (%rdx,%rcx,4)
	movslq	-16(%rbp), %rcx
	movswl	Offset_inter_default(,%rcx,2), %edx
	movl	-20(%rbp), %ecx
                                        # kill: def $cl killed $ecx
	shll	%cl, %edx
	movslq	-4(%rbp), %rcx
	shlq	$6, %rcx
	addq	%rcx, %rax
	movslq	-8(%rbp), %rcx
	shlq	$4, %rcx
	addq	%rcx, %rax
	movslq	-12(%rbp), %rcx
	movl	%edx, (%rax,%rcx,4)
# %bb.27:                               # %for.inc216
                                        #   in Loop: Header=BB24_22 Depth=3
	movl	-12(%rbp), %eax
	addl	$1, %eax
	movl	%eax, -12(%rbp)
	jmp	.LBB24_22
.LBB24_28:                              # %for.end218
                                        #   in Loop: Header=BB24_20 Depth=2
	jmp	.LBB24_29
.LBB24_29:                              # %for.inc219
                                        #   in Loop: Header=BB24_20 Depth=2
	movl	-8(%rbp), %eax
	addl	$1, %eax
	movl	%eax, -8(%rbp)
	jmp	.LBB24_20
.LBB24_30:                              # %for.end221
                                        #   in Loop: Header=BB24_18 Depth=1
	jmp	.LBB24_31
.LBB24_31:                              # %for.inc222
                                        #   in Loop: Header=BB24_18 Depth=1
	movl	-4(%rbp), %eax
	addl	$1, %eax
	movl	%eax, -4(%rbp)
	jmp	.LBB24_18
.LBB24_32:                              # %for.end224
	jmp	.LBB24_33
.LBB24_33:                              # %if.end225
	cmpl	$605036110, -24(%rbp)   # imm = 0x24101E4E
	jne	.LBB24_35
.LBB24_34:
	addq	$32, %rsp
	popq	%rbp
	.cfi_def_cfa %rsp, 8
	retq
.LBB24_35:                              # %func_exit
	.cfi_def_cfa %rbp, 16
	callq	detect_breach
	jmp	.LBB24_34
.Lfunc_end24:
	.size	CalculateOffsetParam.20, .Lfunc_end24-CalculateOffsetParam.20
	.cfi_endproc
                                        # -- End function
	.globl	ParseQOffsetMatrix.21   # -- Begin function ParseQOffsetMatrix.21
	.p2align	4, 0x90
	.type	ParseQOffsetMatrix.21,@function
ParseQOffsetMatrix.21:                  # @ParseQOffsetMatrix.21
	.cfi_startproc
# %bb.0:                                # %entry
	pushq	%rbp
	.cfi_def_cfa_offset 16
	.cfi_offset %rbp, -16
	movq	%rsp, %rbp
	.cfi_def_cfa_register %rbp
	subq	$8096, %rsp             # imm = 0x1FA0
	movl	$1706543197, -60(%rbp)  # imm = 0x65B7C85D
	movq	%rdi, -80(%rbp)
	movl	%esi, -52(%rbp)
	movl	$0, -28(%rbp)
	movl	$0, -36(%rbp)
	movl	$0, -20(%rbp)
	movq	-80(%rbp), %rax
	movq	%rax, -16(%rbp)
	movq	-80(%rbp), %rax
	movslq	-52(%rbp), %rcx
	addq	%rcx, %rax
	movq	%rax, -72(%rbp)
.LBB25_1:                               # %while.cond
                                        # =>This Loop Header: Depth=1
                                        #     Child Loop BB25_6 Depth 2
	movq	-16(%rbp), %rax
	cmpq	-72(%rbp), %rax
	jae	.LBB25_25
# %bb.2:                                # %while.body
                                        #   in Loop: Header=BB25_1 Depth=1
	movq	-16(%rbp), %rax
	movsbl	(%rax), %eax
	addl	$-9, %eax
	movl	%eax, %ecx
	subl	$35, %ecx
	ja	.LBB25_21
# %bb.3:                                # %while.body
                                        #   in Loop: Header=BB25_1 Depth=1
	movq	.LJTI25_0(,%rax,8), %rax
	jmpq	*%rax
.LBB25_4:                               # %sw.bb
                                        #   in Loop: Header=BB25_1 Depth=1
	movq	-16(%rbp), %rax
	addq	$1, %rax
	movq	%rax, -16(%rbp)
	jmp	.LBB25_24
.LBB25_5:                               # %sw.bb1
                                        #   in Loop: Header=BB25_1 Depth=1
	movq	-16(%rbp), %rax
	movb	$0, (%rax)
.LBB25_6:                               # %while.cond2
                                        #   Parent Loop BB25_1 Depth=1
                                        # =>  This Inner Loop Header: Depth=2
	xorl	%eax, %eax
	movq	-16(%rbp), %rcx
	movsbl	(%rcx), %ecx
	cmpl	$10, %ecx
	je	.LBB25_8
# %bb.7:                                # %land.rhs
                                        #   in Loop: Header=BB25_6 Depth=2
	movq	-16(%rbp), %rax
	cmpq	-72(%rbp), %rax
	setb	%al
.LBB25_8:                               # %land.end
                                        #   in Loop: Header=BB25_6 Depth=2
	testb	$1, %al
	jne	.LBB25_9
	jmp	.LBB25_10
.LBB25_9:                               # %while.body8
                                        #   in Loop: Header=BB25_6 Depth=2
	movq	-16(%rbp), %rax
	addq	$1, %rax
	movq	%rax, -16(%rbp)
	jmp	.LBB25_6
.LBB25_10:                              # %while.end
                                        #   in Loop: Header=BB25_1 Depth=1
	movl	$0, -36(%rbp)
	movl	$0, -20(%rbp)
	jmp	.LBB25_24
.LBB25_11:                              # %sw.bb10
                                        #   in Loop: Header=BB25_1 Depth=1
	movl	$0, -20(%rbp)
	movl	$0, -36(%rbp)
	movq	-16(%rbp), %rax
	movq	%rax, %rcx
	addq	$1, %rcx
	movq	%rcx, -16(%rbp)
	movb	$0, (%rax)
	jmp	.LBB25_24
.LBB25_12:                              # %sw.bb12
                                        #   in Loop: Header=BB25_1 Depth=1
	cmpl	$0, -36(%rbp)
	je	.LBB25_14
# %bb.13:                               # %if.then
                                        #   in Loop: Header=BB25_1 Depth=1
	movq	-16(%rbp), %rax
	addq	$1, %rax
	movq	%rax, -16(%rbp)
	jmp	.LBB25_15
.LBB25_14:                              # %if.else
                                        #   in Loop: Header=BB25_1 Depth=1
	movq	-16(%rbp), %rax
	movq	%rax, %rcx
	addq	$1, %rcx
	movq	%rcx, -16(%rbp)
	movb	$0, (%rax)
	movl	$0, -20(%rbp)
.LBB25_15:                              # %if.end
                                        #   in Loop: Header=BB25_1 Depth=1
	jmp	.LBB25_24
.LBB25_16:                              # %sw.bb15
                                        #   in Loop: Header=BB25_1 Depth=1
	movq	-16(%rbp), %rax
	movq	%rax, %rcx
	addq	$1, %rcx
	movq	%rcx, -16(%rbp)
	movb	$0, (%rax)
	cmpl	$0, -36(%rbp)
	jne	.LBB25_18
# %bb.17:                               # %if.then18
                                        #   in Loop: Header=BB25_1 Depth=1
	movq	-16(%rbp), %rax
	movl	-28(%rbp), %ecx
	movl	%ecx, %edx
	addl	$1, %edx
	movl	%edx, -28(%rbp)
	movslq	%ecx, %rcx
	movq	%rax, -8096(%rbp,%rcx,8)
	movl	-20(%rbp), %eax
	xorl	$-1, %eax
	movl	%eax, -20(%rbp)
	jmp	.LBB25_19
.LBB25_18:                              # %if.else21
                                        #   in Loop: Header=BB25_1 Depth=1
	movl	$0, -20(%rbp)
.LBB25_19:                              # %if.end22
                                        #   in Loop: Header=BB25_1 Depth=1
	movl	-36(%rbp), %eax
	xorl	$-1, %eax
	movl	%eax, -36(%rbp)
	jmp	.LBB25_24
.LBB25_20:                              # %sw.bb24
                                        #   in Loop: Header=BB25_1 Depth=1
	movq	-16(%rbp), %rax
	addq	$1, %rax
	movq	%rax, -16(%rbp)
	movl	$0, -20(%rbp)
	jmp	.LBB25_24
.LBB25_21:                              # %sw.default
                                        #   in Loop: Header=BB25_1 Depth=1
	cmpl	$0, -20(%rbp)
	jne	.LBB25_23
# %bb.22:                               # %if.then27
                                        #   in Loop: Header=BB25_1 Depth=1
	movq	-16(%rbp), %rax
	movl	-28(%rbp), %ecx
	movl	%ecx, %edx
	addl	$1, %edx
	movl	%edx, -28(%rbp)
	movslq	%ecx, %rcx
	movq	%rax, -8096(%rbp,%rcx,8)
	movl	-20(%rbp), %eax
	xorl	$-1, %eax
	movl	%eax, -20(%rbp)
.LBB25_23:                              # %if.end32
                                        #   in Loop: Header=BB25_1 Depth=1
	movq	-16(%rbp), %rax
	addq	$1, %rax
	movq	%rax, -16(%rbp)
.LBB25_24:                              # %sw.epilog
                                        #   in Loop: Header=BB25_1 Depth=1
	jmp	.LBB25_1
.LBB25_25:                              # %while.end34
	movl	-28(%rbp), %eax
	addl	$-1, %eax
	movl	%eax, -28(%rbp)
	movl	$0, -24(%rbp)
.LBB25_26:                              # %for.cond
                                        # =>This Loop Header: Depth=1
                                        #     Child Loop BB25_35 Depth 2
	movl	-24(%rbp), %eax
	cmpl	-28(%rbp), %eax
	jge	.LBB25_42
# %bb.27:                               # %for.body
                                        #   in Loop: Header=BB25_26 Depth=1
	movl	$0, -4(%rbp)
	movl	-24(%rbp), %eax
	addl	-4(%rbp), %eax
	cltq
	movq	-8096(%rbp,%rax,8), %rdi
	leaq	-48(%rbp), %rsi
	callq	CheckOffsetParameterName
	xorl	%ecx, %ecx
	movl	%eax, -40(%rbp)
	cmpl	%eax, %ecx
	jle	.LBB25_29
# %bb.28:                               # %if.then41
                                        #   in Loop: Header=BB25_26 Depth=1
	movl	-24(%rbp), %eax
	addl	-4(%rbp), %eax
	cltq
	movq	-8096(%rbp,%rax,8), %rcx
	movabsq	$errortext, %rdi
	movl	$300, %esi              # imm = 0x12C
	movabsq	$.L.str, %rdx
	movb	$0, %al
	callq	snprintf
	movabsq	$errortext, %rdi
	movl	$300, %esi              # imm = 0x12C
	callq	error
.LBB25_29:                              # %if.end46
                                        #   in Loop: Header=BB25_26 Depth=1
	movl	-4(%rbp), %eax
	addl	$1, %eax
	movl	%eax, -4(%rbp)
	movl	-24(%rbp), %eax
	addl	-4(%rbp), %eax
	cltq
	movq	-8096(%rbp,%rax,8), %rsi
	movl	$.L.str.1, %edi
	callq	strcmp
	cmpl	$0, %eax
	je	.LBB25_31
# %bb.30:                               # %if.then53
                                        #   in Loop: Header=BB25_26 Depth=1
	movabsq	$errortext, %rdi
	movl	$300, %esi              # imm = 0x12C
	movabsq	$.L.str.2, %rdx
	movb	$0, %al
	callq	snprintf
	movabsq	$errortext, %rdi
	movl	$300, %esi              # imm = 0x12C
	callq	error
.LBB25_31:                              # %if.end55
                                        #   in Loop: Header=BB25_26 Depth=1
	movl	-4(%rbp), %eax
	addl	$1, %eax
	movl	%eax, -4(%rbp)
	cmpl	$0, -48(%rbp)
	jne	.LBB25_33
# %bb.32:                               # %if.then58
                                        #   in Loop: Header=BB25_26 Depth=1
	movl	$16, -44(%rbp)
	movslq	-40(%rbp), %rax
	shlq	$5, %rax
	movabsq	$OffsetList4x4input, %rcx
	addq	%rax, %rcx
	movq	%rcx, -88(%rbp)
	movslq	-40(%rbp), %rax
	movl	$1, offset4x4_check(,%rax,4)
	jmp	.LBB25_34
.LBB25_33:                              # %if.else63
                                        #   in Loop: Header=BB25_26 Depth=1
	movl	$64, -44(%rbp)
	movslq	-40(%rbp), %rax
	shlq	$7, %rax
	movabsq	$OffsetList8x8input, %rcx
	addq	%rax, %rcx
	movq	%rcx, -88(%rbp)
	movslq	-40(%rbp), %rax
	movl	$1, offset8x8_check(,%rax,4)
.LBB25_34:                              # %if.end69
                                        #   in Loop: Header=BB25_26 Depth=1
	movl	$0, -32(%rbp)
.LBB25_35:                              # %for.cond70
                                        #   Parent Loop BB25_26 Depth=1
                                        # =>  This Inner Loop Header: Depth=2
	movl	-32(%rbp), %eax
	cmpl	-44(%rbp), %eax
	jge	.LBB25_40
# %bb.36:                               # %for.body73
                                        #   in Loop: Header=BB25_35 Depth=2
	movl	-24(%rbp), %eax
	addl	-4(%rbp), %eax
	addl	-32(%rbp), %eax
	cltq
	movq	-8096(%rbp,%rax,8), %rdi
	movabsq	$.L.str.3, %rsi
	leaq	-56(%rbp), %rdx
	movb	$0, %al
	callq	__isoc99_sscanf
	movl	$1, %ecx
	cmpl	%eax, %ecx
	je	.LBB25_38
# %bb.37:                               # %if.then81
                                        #   in Loop: Header=BB25_35 Depth=2
	movslq	-24(%rbp), %rax
	movq	-8096(%rbp,%rax,8), %rcx
	movl	-24(%rbp), %eax
	addl	-4(%rbp), %eax
	addl	-32(%rbp), %eax
	cltq
	movq	-8096(%rbp,%rax,8), %r8
	movabsq	$errortext, %rdi
	movl	$300, %esi              # imm = 0x12C
	movabsq	$.L.str.4, %rdx
	movb	$0, %al
	callq	snprintf
	movabsq	$errortext, %rdi
	movl	$300, %esi              # imm = 0x12C
	callq	error
.LBB25_38:                              # %if.end89
                                        #   in Loop: Header=BB25_35 Depth=2
	movl	-56(%rbp), %eax
	movq	-88(%rbp), %rcx
	movslq	-32(%rbp), %rdx
	movw	%ax, (%rcx,%rdx,2)
# %bb.39:                               # %for.inc
                                        #   in Loop: Header=BB25_35 Depth=2
	movl	-32(%rbp), %eax
	addl	$1, %eax
	movl	%eax, -32(%rbp)
	jmp	.LBB25_35
.LBB25_40:                              # %for.end
                                        #   in Loop: Header=BB25_26 Depth=1
	movl	-32(%rbp), %eax
	addl	-4(%rbp), %eax
	movl	%eax, -4(%rbp)
	movabsq	$.L.str.5, %rdi
	movb	$0, %al
	callq	printf
# %bb.41:                               # %for.inc96
                                        #   in Loop: Header=BB25_26 Depth=1
	movl	-4(%rbp), %eax
	addl	-24(%rbp), %eax
	movl	%eax, -24(%rbp)
	jmp	.LBB25_26
.LBB25_42:                              # %for.end98
	cmpl	$1706543197, -60(%rbp)  # imm = 0x65B7C85D
	jne	.LBB25_44
.LBB25_43:
	addq	$8096, %rsp             # imm = 0x1FA0
	popq	%rbp
	.cfi_def_cfa %rsp, 8
	retq
.LBB25_44:                              # %func_exit
	.cfi_def_cfa %rbp, 16
	callq	detect_breach
	jmp	.LBB25_43
.Lfunc_end25:
	.size	ParseQOffsetMatrix.21, .Lfunc_end25-ParseQOffsetMatrix.21
	.cfi_endproc
	.section	.rodata,"a",@progbits
	.p2align	3
.LJTI25_0:
	.quad	.LBB25_12
	.quad	.LBB25_11
	.quad	.LBB25_21
	.quad	.LBB25_21
	.quad	.LBB25_4
	.quad	.LBB25_21
	.quad	.LBB25_21
	.quad	.LBB25_21
	.quad	.LBB25_21
	.quad	.LBB25_21
	.quad	.LBB25_21
	.quad	.LBB25_21
	.quad	.LBB25_21
	.quad	.LBB25_21
	.quad	.LBB25_21
	.quad	.LBB25_21
	.quad	.LBB25_21
	.quad	.LBB25_21
	.quad	.LBB25_21
	.quad	.LBB25_21
	.quad	.LBB25_21
	.quad	.LBB25_21
	.quad	.LBB25_21
	.quad	.LBB25_12
	.quad	.LBB25_21
	.quad	.LBB25_16
	.quad	.LBB25_5
	.quad	.LBB25_21
	.quad	.LBB25_21
	.quad	.LBB25_21
	.quad	.LBB25_21
	.quad	.LBB25_21
	.quad	.LBB25_21
	.quad	.LBB25_21
	.quad	.LBB25_21
	.quad	.LBB25_20
                                        # -- End function
	.text
	.globl	CalculateOffsetParam.22 # -- Begin function CalculateOffsetParam.22
	.p2align	4, 0x90
	.type	CalculateOffsetParam.22,@function
CalculateOffsetParam.22:                # @CalculateOffsetParam.22
	.cfi_startproc
# %bb.0:                                # %entry
	pushq	%rbp
	.cfi_def_cfa_offset 16
	.cfi_offset %rbp, -16
	movq	%rsp, %rbp
	.cfi_def_cfa_register %rbp
	subq	$32, %rsp
	movl	$438209036, -24(%rbp)   # imm = 0x1A1E8A0C
	movq	input, %rax
	cmpl	$0, 3584(%rax)
	je	.LBB26_17
# %bb.1:                                # %if.then
	movl	$0, -4(%rbp)
.LBB26_2:                               # %for.cond
                                        # =>This Loop Header: Depth=1
                                        #     Child Loop BB26_4 Depth 2
                                        #       Child Loop BB26_6 Depth 3
	cmpl	$13, -4(%rbp)
	jge	.LBB26_16
# %bb.3:                                # %for.body
                                        #   in Loop: Header=BB26_2 Depth=1
	movl	-4(%rbp), %eax
	addl	$15, %eax
	subl	$10, %eax
	movl	%eax, -16(%rbp)
	movl	$0, -8(%rbp)
.LBB26_4:                               # %for.cond1
                                        #   Parent Loop BB26_2 Depth=1
                                        # =>  This Loop Header: Depth=2
                                        #       Child Loop BB26_6 Depth 3
	cmpl	$4, -8(%rbp)
	jge	.LBB26_14
# %bb.5:                                # %for.body3
                                        #   in Loop: Header=BB26_4 Depth=2
	movl	$0, -12(%rbp)
.LBB26_6:                               # %for.cond4
                                        #   Parent Loop BB26_2 Depth=1
                                        #     Parent Loop BB26_4 Depth=2
                                        # =>    This Inner Loop Header: Depth=3
	cmpl	$4, -12(%rbp)
	jge	.LBB26_12
# %bb.7:                                # %for.body6
                                        #   in Loop: Header=BB26_6 Depth=3
	movl	-12(%rbp), %eax
	shll	$2, %eax
	addl	-8(%rbp), %eax
	movl	%eax, -20(%rbp)
	movq	img, %rax
	cmpl	$2, 24(%rax)
	jne	.LBB26_9
# %bb.8:                                # %if.then9
                                        #   in Loop: Header=BB26_6 Depth=3
	movabsq	$LevelOffset4x4Chroma_Intra, %rdx
	movq	%rdx, %rax
	addq	$832, %rax              # imm = 0x340
	movslq	-20(%rbp), %rcx
	movswl	OffsetList4x4input(,%rcx,2), %esi
	movl	-16(%rbp), %ecx
                                        # kill: def $cl killed $ecx
	shll	%cl, %esi
	movslq	-4(%rbp), %rcx
	shlq	$6, %rcx
	movabsq	$LevelOffset4x4Luma_Intra, %rdi
	addq	%rcx, %rdi
	movslq	-8(%rbp), %rcx
	shlq	$4, %rcx
	addq	%rcx, %rdi
	movslq	-12(%rbp), %rcx
	movl	%esi, (%rdi,%rcx,4)
	movslq	-20(%rbp), %rcx
	movswl	OffsetList4x4input+32(,%rcx,2), %esi
	movl	-16(%rbp), %ecx
                                        # kill: def $cl killed $ecx
	shll	%cl, %esi
	movslq	-4(%rbp), %rcx
	shlq	$6, %rcx
	addq	%rcx, %rdx
	movslq	-8(%rbp), %rcx
	shlq	$4, %rcx
	addq	%rcx, %rdx
	movslq	-12(%rbp), %rcx
	movl	%esi, (%rdx,%rcx,4)
	movslq	-20(%rbp), %rcx
	movswl	OffsetList4x4input+64(,%rcx,2), %edx
	movl	-16(%rbp), %ecx
                                        # kill: def $cl killed $ecx
	shll	%cl, %edx
	movslq	-4(%rbp), %rcx
	shlq	$6, %rcx
	addq	%rcx, %rax
	movslq	-8(%rbp), %rcx
	shlq	$4, %rcx
	addq	%rcx, %rax
	movslq	-12(%rbp), %rcx
	movl	%edx, (%rax,%rcx,4)
	jmp	.LBB26_10
.LBB26_9:                               # %if.else
                                        #   in Loop: Header=BB26_6 Depth=3
	movabsq	$LevelOffset4x4Chroma_Intra, %rdx
	movq	%rdx, %rax
	addq	$832, %rax              # imm = 0x340
	movslq	-20(%rbp), %rcx
	movswl	OffsetList4x4input+96(,%rcx,2), %esi
	movl	-16(%rbp), %ecx
                                        # kill: def $cl killed $ecx
	shll	%cl, %esi
	movslq	-4(%rbp), %rcx
	shlq	$6, %rcx
	movabsq	$LevelOffset4x4Luma_Intra, %rdi
	addq	%rcx, %rdi
	movslq	-8(%rbp), %rcx
	shlq	$4, %rcx
	addq	%rcx, %rdi
	movslq	-12(%rbp), %rcx
	movl	%esi, (%rdi,%rcx,4)
	movslq	-20(%rbp), %rcx
	movswl	OffsetList4x4input+128(,%rcx,2), %esi
	movl	-16(%rbp), %ecx
                                        # kill: def $cl killed $ecx
	shll	%cl, %esi
	movslq	-4(%rbp), %rcx
	shlq	$6, %rcx
	addq	%rcx, %rdx
	movslq	-8(%rbp), %rcx
	shlq	$4, %rcx
	addq	%rcx, %rdx
	movslq	-12(%rbp), %rcx
	movl	%esi, (%rdx,%rcx,4)
	movslq	-20(%rbp), %rcx
	movswl	OffsetList4x4input+160(,%rcx,2), %edx
	movl	-16(%rbp), %ecx
                                        # kill: def $cl killed $ecx
	shll	%cl, %edx
	movslq	-4(%rbp), %rcx
	shlq	$6, %rcx
	addq	%rcx, %rax
	movslq	-8(%rbp), %rcx
	shlq	$4, %rcx
	addq	%rcx, %rax
	movslq	-12(%rbp), %rcx
	movl	%edx, (%rax,%rcx,4)
.LBB26_10:                              # %if.end
                                        #   in Loop: Header=BB26_6 Depth=3
	movabsq	$LevelOffset4x4Chroma_Inter, %rdx
	movq	%rdx, %rax
	addq	$832, %rax              # imm = 0x340
	movslq	-20(%rbp), %rcx
	movswl	OffsetList4x4input+192(,%rcx,2), %esi
	movl	-16(%rbp), %ecx
                                        # kill: def $cl killed $ecx
	shll	%cl, %esi
	movslq	-4(%rbp), %rcx
	shlq	$6, %rcx
	movabsq	$LevelOffset4x4Luma_Inter, %rdi
	addq	%rcx, %rdi
	movslq	-8(%rbp), %rcx
	shlq	$4, %rcx
	addq	%rcx, %rdi
	movslq	-12(%rbp), %rcx
	movl	%esi, (%rdi,%rcx,4)
	movslq	-20(%rbp), %rcx
	movswl	OffsetList4x4input+224(,%rcx,2), %esi
	movl	-16(%rbp), %ecx
                                        # kill: def $cl killed $ecx
	shll	%cl, %esi
	movslq	-4(%rbp), %rcx
	shlq	$6, %rcx
	addq	%rcx, %rdx
	movslq	-8(%rbp), %rcx
	shlq	$4, %rcx
	addq	%rcx, %rdx
	movslq	-12(%rbp), %rcx
	movl	%esi, (%rdx,%rcx,4)
	movslq	-20(%rbp), %rcx
	movswl	OffsetList4x4input+256(,%rcx,2), %edx
	movl	-16(%rbp), %ecx
                                        # kill: def $cl killed $ecx
	shll	%cl, %edx
	movslq	-4(%rbp), %rcx
	shlq	$6, %rcx
	addq	%rcx, %rax
	movslq	-8(%rbp), %rcx
	shlq	$4, %rcx
	addq	%rcx, %rax
	movslq	-12(%rbp), %rcx
	movl	%edx, (%rax,%rcx,4)
# %bb.11:                               # %for.inc
                                        #   in Loop: Header=BB26_6 Depth=3
	movl	-12(%rbp), %eax
	addl	$1, %eax
	movl	%eax, -12(%rbp)
	jmp	.LBB26_6
.LBB26_12:                              # %for.end
                                        #   in Loop: Header=BB26_4 Depth=2
	jmp	.LBB26_13
.LBB26_13:                              # %for.inc97
                                        #   in Loop: Header=BB26_4 Depth=2
	movl	-8(%rbp), %eax
	addl	$1, %eax
	movl	%eax, -8(%rbp)
	jmp	.LBB26_4
.LBB26_14:                              # %for.end99
                                        #   in Loop: Header=BB26_2 Depth=1
	jmp	.LBB26_15
.LBB26_15:                              # %for.inc100
                                        #   in Loop: Header=BB26_2 Depth=1
	movl	-4(%rbp), %eax
	addl	$1, %eax
	movl	%eax, -4(%rbp)
	jmp	.LBB26_2
.LBB26_16:                              # %for.end102
	jmp	.LBB26_33
.LBB26_17:                              # %if.else103
	movl	$0, -4(%rbp)
.LBB26_18:                              # %for.cond104
                                        # =>This Loop Header: Depth=1
                                        #     Child Loop BB26_20 Depth 2
                                        #       Child Loop BB26_22 Depth 3
	cmpl	$13, -4(%rbp)
	jge	.LBB26_32
# %bb.19:                               # %for.body107
                                        #   in Loop: Header=BB26_18 Depth=1
	movl	-4(%rbp), %eax
	addl	$15, %eax
	subl	$10, %eax
	movl	%eax, -16(%rbp)
	movl	$0, -8(%rbp)
.LBB26_20:                              # %for.cond110
                                        #   Parent Loop BB26_18 Depth=1
                                        # =>  This Loop Header: Depth=2
                                        #       Child Loop BB26_22 Depth 3
	cmpl	$4, -8(%rbp)
	jge	.LBB26_30
# %bb.21:                               # %for.body113
                                        #   in Loop: Header=BB26_20 Depth=2
	movl	$0, -12(%rbp)
.LBB26_22:                              # %for.cond114
                                        #   Parent Loop BB26_18 Depth=1
                                        #     Parent Loop BB26_20 Depth=2
                                        # =>    This Inner Loop Header: Depth=3
	cmpl	$4, -12(%rbp)
	jge	.LBB26_28
# %bb.23:                               # %for.body117
                                        #   in Loop: Header=BB26_22 Depth=3
	movl	-12(%rbp), %eax
	shll	$2, %eax
	addl	-8(%rbp), %eax
	movl	%eax, -20(%rbp)
	movq	img, %rax
	cmpl	$2, 24(%rax)
	jne	.LBB26_25
# %bb.24:                               # %if.then123
                                        #   in Loop: Header=BB26_22 Depth=3
	movabsq	$LevelOffset4x4Chroma_Intra, %rdx
	movq	%rdx, %rax
	addq	$832, %rax              # imm = 0x340
	movslq	-20(%rbp), %rcx
	movswl	Offset_intra_default_intra(,%rcx,2), %esi
	movl	-16(%rbp), %ecx
                                        # kill: def $cl killed $ecx
	shll	%cl, %esi
	movslq	-4(%rbp), %rcx
	shlq	$6, %rcx
	movabsq	$LevelOffset4x4Luma_Intra, %rdi
	addq	%rcx, %rdi
	movslq	-8(%rbp), %rcx
	shlq	$4, %rcx
	addq	%rcx, %rdi
	movslq	-12(%rbp), %rcx
	movl	%esi, (%rdi,%rcx,4)
	movslq	-20(%rbp), %rcx
	movswl	Offset_intra_default_intra(,%rcx,2), %esi
	movl	-16(%rbp), %ecx
                                        # kill: def $cl killed $ecx
	shll	%cl, %esi
	movslq	-4(%rbp), %rcx
	shlq	$6, %rcx
	addq	%rcx, %rdx
	movslq	-8(%rbp), %rcx
	shlq	$4, %rcx
	addq	%rcx, %rdx
	movslq	-12(%rbp), %rcx
	movl	%esi, (%rdx,%rcx,4)
	movslq	-20(%rbp), %rcx
	movswl	Offset_intra_default_intra(,%rcx,2), %edx
	movl	-16(%rbp), %ecx
                                        # kill: def $cl killed $ecx
	shll	%cl, %edx
	movslq	-4(%rbp), %rcx
	shlq	$6, %rcx
	addq	%rcx, %rax
	movslq	-8(%rbp), %rcx
	shlq	$4, %rcx
	addq	%rcx, %rax
	movslq	-12(%rbp), %rcx
	movl	%edx, (%rax,%rcx,4)
	jmp	.LBB26_26
.LBB26_25:                              # %if.else154
                                        #   in Loop: Header=BB26_22 Depth=3
	movabsq	$LevelOffset4x4Chroma_Intra, %rdx
	movq	%rdx, %rax
	addq	$832, %rax              # imm = 0x340
	movslq	-20(%rbp), %rcx
	movswl	Offset_intra_default_inter(,%rcx,2), %esi
	movl	-16(%rbp), %ecx
                                        # kill: def $cl killed $ecx
	shll	%cl, %esi
	movslq	-4(%rbp), %rcx
	shlq	$6, %rcx
	movabsq	$LevelOffset4x4Luma_Intra, %rdi
	addq	%rcx, %rdi
	movslq	-8(%rbp), %rcx
	shlq	$4, %rcx
	addq	%rcx, %rdi
	movslq	-12(%rbp), %rcx
	movl	%esi, (%rdi,%rcx,4)
	movslq	-20(%rbp), %rcx
	movswl	Offset_intra_default_inter(,%rcx,2), %esi
	movl	-16(%rbp), %ecx
                                        # kill: def $cl killed $ecx
	shll	%cl, %esi
	movslq	-4(%rbp), %rcx
	shlq	$6, %rcx
	addq	%rcx, %rdx
	movslq	-8(%rbp), %rcx
	shlq	$4, %rcx
	addq	%rcx, %rdx
	movslq	-12(%rbp), %rcx
	movl	%esi, (%rdx,%rcx,4)
	movslq	-20(%rbp), %rcx
	movswl	Offset_intra_default_inter(,%rcx,2), %edx
	movl	-16(%rbp), %ecx
                                        # kill: def $cl killed $ecx
	shll	%cl, %edx
	movslq	-4(%rbp), %rcx
	shlq	$6, %rcx
	addq	%rcx, %rax
	movslq	-8(%rbp), %rcx
	shlq	$4, %rcx
	addq	%rcx, %rax
	movslq	-12(%rbp), %rcx
	movl	%edx, (%rax,%rcx,4)
.LBB26_26:                              # %if.end185
                                        #   in Loop: Header=BB26_22 Depth=3
	movabsq	$LevelOffset4x4Chroma_Inter, %rdx
	movq	%rdx, %rax
	addq	$832, %rax              # imm = 0x340
	movslq	-20(%rbp), %rcx
	movswl	Offset_inter_default(,%rcx,2), %esi
	movl	-16(%rbp), %ecx
                                        # kill: def $cl killed $ecx
	shll	%cl, %esi
	movslq	-4(%rbp), %rcx
	shlq	$6, %rcx
	movabsq	$LevelOffset4x4Luma_Inter, %rdi
	addq	%rcx, %rdi
	movslq	-8(%rbp), %rcx
	shlq	$4, %rcx
	addq	%rcx, %rdi
	movslq	-12(%rbp), %rcx
	movl	%esi, (%rdi,%rcx,4)
	movslq	-20(%rbp), %rcx
	movswl	Offset_inter_default(,%rcx,2), %esi
	movl	-16(%rbp), %ecx
                                        # kill: def $cl killed $ecx
	shll	%cl, %esi
	movslq	-4(%rbp), %rcx
	shlq	$6, %rcx
	addq	%rcx, %rdx
	movslq	-8(%rbp), %rcx
	shlq	$4, %rcx
	addq	%rcx, %rdx
	movslq	-12(%rbp), %rcx
	movl	%esi, (%rdx,%rcx,4)
	movslq	-20(%rbp), %rcx
	movswl	Offset_inter_default(,%rcx,2), %edx
	movl	-16(%rbp), %ecx
                                        # kill: def $cl killed $ecx
	shll	%cl, %edx
	movslq	-4(%rbp), %rcx
	shlq	$6, %rcx
	addq	%rcx, %rax
	movslq	-8(%rbp), %rcx
	shlq	$4, %rcx
	addq	%rcx, %rax
	movslq	-12(%rbp), %rcx
	movl	%edx, (%rax,%rcx,4)
# %bb.27:                               # %for.inc216
                                        #   in Loop: Header=BB26_22 Depth=3
	movl	-12(%rbp), %eax
	addl	$1, %eax
	movl	%eax, -12(%rbp)
	jmp	.LBB26_22
.LBB26_28:                              # %for.end218
                                        #   in Loop: Header=BB26_20 Depth=2
	jmp	.LBB26_29
.LBB26_29:                              # %for.inc219
                                        #   in Loop: Header=BB26_20 Depth=2
	movl	-8(%rbp), %eax
	addl	$1, %eax
	movl	%eax, -8(%rbp)
	jmp	.LBB26_20
.LBB26_30:                              # %for.end221
                                        #   in Loop: Header=BB26_18 Depth=1
	jmp	.LBB26_31
.LBB26_31:                              # %for.inc222
                                        #   in Loop: Header=BB26_18 Depth=1
	movl	-4(%rbp), %eax
	addl	$1, %eax
	movl	%eax, -4(%rbp)
	jmp	.LBB26_18
.LBB26_32:                              # %for.end224
	jmp	.LBB26_33
.LBB26_33:                              # %if.end225
	cmpl	$438209036, -24(%rbp)   # imm = 0x1A1E8A0C
	jne	.LBB26_35
.LBB26_34:
	addq	$32, %rsp
	popq	%rbp
	.cfi_def_cfa %rsp, 8
	retq
.LBB26_35:                              # %func_exit
	.cfi_def_cfa %rbp, 16
	callq	detect_breach
	jmp	.LBB26_34
.Lfunc_end26:
	.size	CalculateOffsetParam.22, .Lfunc_end26-CalculateOffsetParam.22
	.cfi_endproc
                                        # -- End function
	.globl	ParseQOffsetMatrix.23   # -- Begin function ParseQOffsetMatrix.23
	.p2align	4, 0x90
	.type	ParseQOffsetMatrix.23,@function
ParseQOffsetMatrix.23:                  # @ParseQOffsetMatrix.23
	.cfi_startproc
# %bb.0:                                # %entry
	pushq	%rbp
	.cfi_def_cfa_offset 16
	.cfi_offset %rbp, -16
	movq	%rsp, %rbp
	.cfi_def_cfa_register %rbp
	subq	$8096, %rsp             # imm = 0x1FA0
	movl	$353235183, -56(%rbp)   # imm = 0x150DF0EF
	movq	%rdi, -80(%rbp)
	movl	%esi, -48(%rbp)
	movl	$0, -32(%rbp)
	movl	$0, -36(%rbp)
	movl	$0, -20(%rbp)
	movq	-80(%rbp), %rax
	movq	%rax, -16(%rbp)
	movq	-80(%rbp), %rax
	movslq	-48(%rbp), %rcx
	addq	%rcx, %rax
	movq	%rax, -88(%rbp)
.LBB27_1:                               # %while.cond
                                        # =>This Loop Header: Depth=1
                                        #     Child Loop BB27_6 Depth 2
	movq	-16(%rbp), %rax
	cmpq	-88(%rbp), %rax
	jae	.LBB27_25
# %bb.2:                                # %while.body
                                        #   in Loop: Header=BB27_1 Depth=1
	movq	-16(%rbp), %rax
	movsbl	(%rax), %eax
	addl	$-9, %eax
	movl	%eax, %ecx
	subl	$35, %ecx
	ja	.LBB27_21
# %bb.3:                                # %while.body
                                        #   in Loop: Header=BB27_1 Depth=1
	movq	.LJTI27_0(,%rax,8), %rax
	jmpq	*%rax
.LBB27_4:                               # %sw.bb
                                        #   in Loop: Header=BB27_1 Depth=1
	movq	-16(%rbp), %rax
	addq	$1, %rax
	movq	%rax, -16(%rbp)
	jmp	.LBB27_24
.LBB27_5:                               # %sw.bb1
                                        #   in Loop: Header=BB27_1 Depth=1
	movq	-16(%rbp), %rax
	movb	$0, (%rax)
.LBB27_6:                               # %while.cond2
                                        #   Parent Loop BB27_1 Depth=1
                                        # =>  This Inner Loop Header: Depth=2
	xorl	%eax, %eax
	movq	-16(%rbp), %rcx
	movsbl	(%rcx), %ecx
	cmpl	$10, %ecx
	je	.LBB27_8
# %bb.7:                                # %land.rhs
                                        #   in Loop: Header=BB27_6 Depth=2
	movq	-16(%rbp), %rax
	cmpq	-88(%rbp), %rax
	setb	%al
.LBB27_8:                               # %land.end
                                        #   in Loop: Header=BB27_6 Depth=2
	testb	$1, %al
	jne	.LBB27_9
	jmp	.LBB27_10
.LBB27_9:                               # %while.body8
                                        #   in Loop: Header=BB27_6 Depth=2
	movq	-16(%rbp), %rax
	addq	$1, %rax
	movq	%rax, -16(%rbp)
	jmp	.LBB27_6
.LBB27_10:                              # %while.end
                                        #   in Loop: Header=BB27_1 Depth=1
	movl	$0, -36(%rbp)
	movl	$0, -20(%rbp)
	jmp	.LBB27_24
.LBB27_11:                              # %sw.bb10
                                        #   in Loop: Header=BB27_1 Depth=1
	movl	$0, -20(%rbp)
	movl	$0, -36(%rbp)
	movq	-16(%rbp), %rax
	movq	%rax, %rcx
	addq	$1, %rcx
	movq	%rcx, -16(%rbp)
	movb	$0, (%rax)
	jmp	.LBB27_24
.LBB27_12:                              # %sw.bb12
                                        #   in Loop: Header=BB27_1 Depth=1
	cmpl	$0, -36(%rbp)
	je	.LBB27_14
# %bb.13:                               # %if.then
                                        #   in Loop: Header=BB27_1 Depth=1
	movq	-16(%rbp), %rax
	addq	$1, %rax
	movq	%rax, -16(%rbp)
	jmp	.LBB27_15
.LBB27_14:                              # %if.else
                                        #   in Loop: Header=BB27_1 Depth=1
	movq	-16(%rbp), %rax
	movq	%rax, %rcx
	addq	$1, %rcx
	movq	%rcx, -16(%rbp)
	movb	$0, (%rax)
	movl	$0, -20(%rbp)
.LBB27_15:                              # %if.end
                                        #   in Loop: Header=BB27_1 Depth=1
	jmp	.LBB27_24
.LBB27_16:                              # %sw.bb15
                                        #   in Loop: Header=BB27_1 Depth=1
	movq	-16(%rbp), %rax
	movq	%rax, %rcx
	addq	$1, %rcx
	movq	%rcx, -16(%rbp)
	movb	$0, (%rax)
	cmpl	$0, -36(%rbp)
	jne	.LBB27_18
# %bb.17:                               # %if.then18
                                        #   in Loop: Header=BB27_1 Depth=1
	movq	-16(%rbp), %rax
	movl	-32(%rbp), %ecx
	movl	%ecx, %edx
	addl	$1, %edx
	movl	%edx, -32(%rbp)
	movslq	%ecx, %rcx
	movq	%rax, -8096(%rbp,%rcx,8)
	movl	-20(%rbp), %eax
	xorl	$-1, %eax
	movl	%eax, -20(%rbp)
	jmp	.LBB27_19
.LBB27_18:                              # %if.else21
                                        #   in Loop: Header=BB27_1 Depth=1
	movl	$0, -20(%rbp)
.LBB27_19:                              # %if.end22
                                        #   in Loop: Header=BB27_1 Depth=1
	movl	-36(%rbp), %eax
	xorl	$-1, %eax
	movl	%eax, -36(%rbp)
	jmp	.LBB27_24
.LBB27_20:                              # %sw.bb24
                                        #   in Loop: Header=BB27_1 Depth=1
	movq	-16(%rbp), %rax
	addq	$1, %rax
	movq	%rax, -16(%rbp)
	movl	$0, -20(%rbp)
	jmp	.LBB27_24
.LBB27_21:                              # %sw.default
                                        #   in Loop: Header=BB27_1 Depth=1
	cmpl	$0, -20(%rbp)
	jne	.LBB27_23
# %bb.22:                               # %if.then27
                                        #   in Loop: Header=BB27_1 Depth=1
	movq	-16(%rbp), %rax
	movl	-32(%rbp), %ecx
	movl	%ecx, %edx
	addl	$1, %edx
	movl	%edx, -32(%rbp)
	movslq	%ecx, %rcx
	movq	%rax, -8096(%rbp,%rcx,8)
	movl	-20(%rbp), %eax
	xorl	$-1, %eax
	movl	%eax, -20(%rbp)
.LBB27_23:                              # %if.end32
                                        #   in Loop: Header=BB27_1 Depth=1
	movq	-16(%rbp), %rax
	addq	$1, %rax
	movq	%rax, -16(%rbp)
.LBB27_24:                              # %sw.epilog
                                        #   in Loop: Header=BB27_1 Depth=1
	jmp	.LBB27_1
.LBB27_25:                              # %while.end34
	movl	-32(%rbp), %eax
	addl	$-1, %eax
	movl	%eax, -32(%rbp)
	movl	$0, -24(%rbp)
.LBB27_26:                              # %for.cond
                                        # =>This Loop Header: Depth=1
                                        #     Child Loop BB27_35 Depth 2
	movl	-24(%rbp), %eax
	cmpl	-32(%rbp), %eax
	jge	.LBB27_42
# %bb.27:                               # %for.body
                                        #   in Loop: Header=BB27_26 Depth=1
	movl	$0, -4(%rbp)
	movl	-24(%rbp), %eax
	addl	-4(%rbp), %eax
	cltq
	movq	-8096(%rbp,%rax,8), %rdi
	leaq	-52(%rbp), %rsi
	callq	CheckOffsetParameterName
	xorl	%ecx, %ecx
	movl	%eax, -40(%rbp)
	cmpl	%eax, %ecx
	jle	.LBB27_29
# %bb.28:                               # %if.then41
                                        #   in Loop: Header=BB27_26 Depth=1
	movl	-24(%rbp), %eax
	addl	-4(%rbp), %eax
	cltq
	movq	-8096(%rbp,%rax,8), %rcx
	movabsq	$errortext, %rdi
	movl	$300, %esi              # imm = 0x12C
	movabsq	$.L.str, %rdx
	movb	$0, %al
	callq	snprintf
	movabsq	$errortext, %rdi
	movl	$300, %esi              # imm = 0x12C
	callq	error
.LBB27_29:                              # %if.end46
                                        #   in Loop: Header=BB27_26 Depth=1
	movl	-4(%rbp), %eax
	addl	$1, %eax
	movl	%eax, -4(%rbp)
	movl	-24(%rbp), %eax
	addl	-4(%rbp), %eax
	cltq
	movq	-8096(%rbp,%rax,8), %rsi
	movl	$.L.str.1, %edi
	callq	strcmp
	cmpl	$0, %eax
	je	.LBB27_31
# %bb.30:                               # %if.then53
                                        #   in Loop: Header=BB27_26 Depth=1
	movabsq	$errortext, %rdi
	movl	$300, %esi              # imm = 0x12C
	movabsq	$.L.str.2, %rdx
	movb	$0, %al
	callq	snprintf
	movabsq	$errortext, %rdi
	movl	$300, %esi              # imm = 0x12C
	callq	error
.LBB27_31:                              # %if.end55
                                        #   in Loop: Header=BB27_26 Depth=1
	movl	-4(%rbp), %eax
	addl	$1, %eax
	movl	%eax, -4(%rbp)
	cmpl	$0, -52(%rbp)
	jne	.LBB27_33
# %bb.32:                               # %if.then58
                                        #   in Loop: Header=BB27_26 Depth=1
	movl	$16, -44(%rbp)
	movslq	-40(%rbp), %rax
	shlq	$5, %rax
	movabsq	$OffsetList4x4input, %rcx
	addq	%rax, %rcx
	movq	%rcx, -72(%rbp)
	movslq	-40(%rbp), %rax
	movl	$1, offset4x4_check(,%rax,4)
	jmp	.LBB27_34
.LBB27_33:                              # %if.else63
                                        #   in Loop: Header=BB27_26 Depth=1
	movl	$64, -44(%rbp)
	movslq	-40(%rbp), %rax
	shlq	$7, %rax
	movabsq	$OffsetList8x8input, %rcx
	addq	%rax, %rcx
	movq	%rcx, -72(%rbp)
	movslq	-40(%rbp), %rax
	movl	$1, offset8x8_check(,%rax,4)
.LBB27_34:                              # %if.end69
                                        #   in Loop: Header=BB27_26 Depth=1
	movl	$0, -28(%rbp)
.LBB27_35:                              # %for.cond70
                                        #   Parent Loop BB27_26 Depth=1
                                        # =>  This Inner Loop Header: Depth=2
	movl	-28(%rbp), %eax
	cmpl	-44(%rbp), %eax
	jge	.LBB27_40
# %bb.36:                               # %for.body73
                                        #   in Loop: Header=BB27_35 Depth=2
	movl	-24(%rbp), %eax
	addl	-4(%rbp), %eax
	addl	-28(%rbp), %eax
	cltq
	movq	-8096(%rbp,%rax,8), %rdi
	movabsq	$.L.str.3, %rsi
	leaq	-60(%rbp), %rdx
	movb	$0, %al
	callq	__isoc99_sscanf
	movl	$1, %ecx
	cmpl	%eax, %ecx
	je	.LBB27_38
# %bb.37:                               # %if.then81
                                        #   in Loop: Header=BB27_35 Depth=2
	movslq	-24(%rbp), %rax
	movq	-8096(%rbp,%rax,8), %rcx
	movl	-24(%rbp), %eax
	addl	-4(%rbp), %eax
	addl	-28(%rbp), %eax
	cltq
	movq	-8096(%rbp,%rax,8), %r8
	movabsq	$errortext, %rdi
	movl	$300, %esi              # imm = 0x12C
	movabsq	$.L.str.4, %rdx
	movb	$0, %al
	callq	snprintf
	movabsq	$errortext, %rdi
	movl	$300, %esi              # imm = 0x12C
	callq	error
.LBB27_38:                              # %if.end89
                                        #   in Loop: Header=BB27_35 Depth=2
	movl	-60(%rbp), %eax
	movq	-72(%rbp), %rcx
	movslq	-28(%rbp), %rdx
	movw	%ax, (%rcx,%rdx,2)
# %bb.39:                               # %for.inc
                                        #   in Loop: Header=BB27_35 Depth=2
	movl	-28(%rbp), %eax
	addl	$1, %eax
	movl	%eax, -28(%rbp)
	jmp	.LBB27_35
.LBB27_40:                              # %for.end
                                        #   in Loop: Header=BB27_26 Depth=1
	movl	-28(%rbp), %eax
	addl	-4(%rbp), %eax
	movl	%eax, -4(%rbp)
	movabsq	$.L.str.5, %rdi
	movb	$0, %al
	callq	printf
# %bb.41:                               # %for.inc96
                                        #   in Loop: Header=BB27_26 Depth=1
	movl	-4(%rbp), %eax
	addl	-24(%rbp), %eax
	movl	%eax, -24(%rbp)
	jmp	.LBB27_26
.LBB27_42:                              # %for.end98
	cmpl	$353235183, -56(%rbp)   # imm = 0x150DF0EF
	jne	.LBB27_44
.LBB27_43:
	addq	$8096, %rsp             # imm = 0x1FA0
	popq	%rbp
	.cfi_def_cfa %rsp, 8
	retq
.LBB27_44:                              # %func_exit
	.cfi_def_cfa %rbp, 16
	callq	detect_breach
	jmp	.LBB27_43
.Lfunc_end27:
	.size	ParseQOffsetMatrix.23, .Lfunc_end27-ParseQOffsetMatrix.23
	.cfi_endproc
	.section	.rodata,"a",@progbits
	.p2align	3
.LJTI27_0:
	.quad	.LBB27_12
	.quad	.LBB27_11
	.quad	.LBB27_21
	.quad	.LBB27_21
	.quad	.LBB27_4
	.quad	.LBB27_21
	.quad	.LBB27_21
	.quad	.LBB27_21
	.quad	.LBB27_21
	.quad	.LBB27_21
	.quad	.LBB27_21
	.quad	.LBB27_21
	.quad	.LBB27_21
	.quad	.LBB27_21
	.quad	.LBB27_21
	.quad	.LBB27_21
	.quad	.LBB27_21
	.quad	.LBB27_21
	.quad	.LBB27_21
	.quad	.LBB27_21
	.quad	.LBB27_21
	.quad	.LBB27_21
	.quad	.LBB27_21
	.quad	.LBB27_12
	.quad	.LBB27_21
	.quad	.LBB27_16
	.quad	.LBB27_5
	.quad	.LBB27_21
	.quad	.LBB27_21
	.quad	.LBB27_21
	.quad	.LBB27_21
	.quad	.LBB27_21
	.quad	.LBB27_21
	.quad	.LBB27_21
	.quad	.LBB27_21
	.quad	.LBB27_20
                                        # -- End function
	.text
	.globl	CalculateOffsetParam.24 # -- Begin function CalculateOffsetParam.24
	.p2align	4, 0x90
	.type	CalculateOffsetParam.24,@function
CalculateOffsetParam.24:                # @CalculateOffsetParam.24
	.cfi_startproc
# %bb.0:                                # %entry
	pushq	%rbp
	.cfi_def_cfa_offset 16
	.cfi_offset %rbp, -16
	movq	%rsp, %rbp
	.cfi_def_cfa_register %rbp
	subq	$32, %rsp
	movl	$656033822, -24(%rbp)   # imm = 0x271A481E
	movq	input, %rax
	cmpl	$0, 3584(%rax)
	je	.LBB28_17
# %bb.1:                                # %if.then
	movl	$0, -12(%rbp)
.LBB28_2:                               # %for.cond
                                        # =>This Loop Header: Depth=1
                                        #     Child Loop BB28_4 Depth 2
                                        #       Child Loop BB28_6 Depth 3
	cmpl	$13, -12(%rbp)
	jge	.LBB28_16
# %bb.3:                                # %for.body
                                        #   in Loop: Header=BB28_2 Depth=1
	movl	-12(%rbp), %eax
	addl	$15, %eax
	subl	$10, %eax
	movl	%eax, -16(%rbp)
	movl	$0, -8(%rbp)
.LBB28_4:                               # %for.cond1
                                        #   Parent Loop BB28_2 Depth=1
                                        # =>  This Loop Header: Depth=2
                                        #       Child Loop BB28_6 Depth 3
	cmpl	$4, -8(%rbp)
	jge	.LBB28_14
# %bb.5:                                # %for.body3
                                        #   in Loop: Header=BB28_4 Depth=2
	movl	$0, -4(%rbp)
.LBB28_6:                               # %for.cond4
                                        #   Parent Loop BB28_2 Depth=1
                                        #     Parent Loop BB28_4 Depth=2
                                        # =>    This Inner Loop Header: Depth=3
	cmpl	$4, -4(%rbp)
	jge	.LBB28_12
# %bb.7:                                # %for.body6
                                        #   in Loop: Header=BB28_6 Depth=3
	movl	-4(%rbp), %eax
	shll	$2, %eax
	addl	-8(%rbp), %eax
	movl	%eax, -20(%rbp)
	movq	img, %rax
	cmpl	$2, 24(%rax)
	jne	.LBB28_9
# %bb.8:                                # %if.then9
                                        #   in Loop: Header=BB28_6 Depth=3
	movabsq	$LevelOffset4x4Chroma_Intra, %rdx
	movq	%rdx, %rax
	addq	$832, %rax              # imm = 0x340
	movslq	-20(%rbp), %rcx
	movswl	OffsetList4x4input(,%rcx,2), %esi
	movl	-16(%rbp), %ecx
                                        # kill: def $cl killed $ecx
	shll	%cl, %esi
	movslq	-12(%rbp), %rcx
	shlq	$6, %rcx
	movabsq	$LevelOffset4x4Luma_Intra, %rdi
	addq	%rcx, %rdi
	movslq	-8(%rbp), %rcx
	shlq	$4, %rcx
	addq	%rcx, %rdi
	movslq	-4(%rbp), %rcx
	movl	%esi, (%rdi,%rcx,4)
	movslq	-20(%rbp), %rcx
	movswl	OffsetList4x4input+32(,%rcx,2), %esi
	movl	-16(%rbp), %ecx
                                        # kill: def $cl killed $ecx
	shll	%cl, %esi
	movslq	-12(%rbp), %rcx
	shlq	$6, %rcx
	addq	%rcx, %rdx
	movslq	-8(%rbp), %rcx
	shlq	$4, %rcx
	addq	%rcx, %rdx
	movslq	-4(%rbp), %rcx
	movl	%esi, (%rdx,%rcx,4)
	movslq	-20(%rbp), %rcx
	movswl	OffsetList4x4input+64(,%rcx,2), %edx
	movl	-16(%rbp), %ecx
                                        # kill: def $cl killed $ecx
	shll	%cl, %edx
	movslq	-12(%rbp), %rcx
	shlq	$6, %rcx
	addq	%rcx, %rax
	movslq	-8(%rbp), %rcx
	shlq	$4, %rcx
	addq	%rcx, %rax
	movslq	-4(%rbp), %rcx
	movl	%edx, (%rax,%rcx,4)
	jmp	.LBB28_10
.LBB28_9:                               # %if.else
                                        #   in Loop: Header=BB28_6 Depth=3
	movabsq	$LevelOffset4x4Chroma_Intra, %rdx
	movq	%rdx, %rax
	addq	$832, %rax              # imm = 0x340
	movslq	-20(%rbp), %rcx
	movswl	OffsetList4x4input+96(,%rcx,2), %esi
	movl	-16(%rbp), %ecx
                                        # kill: def $cl killed $ecx
	shll	%cl, %esi
	movslq	-12(%rbp), %rcx
	shlq	$6, %rcx
	movabsq	$LevelOffset4x4Luma_Intra, %rdi
	addq	%rcx, %rdi
	movslq	-8(%rbp), %rcx
	shlq	$4, %rcx
	addq	%rcx, %rdi
	movslq	-4(%rbp), %rcx
	movl	%esi, (%rdi,%rcx,4)
	movslq	-20(%rbp), %rcx
	movswl	OffsetList4x4input+128(,%rcx,2), %esi
	movl	-16(%rbp), %ecx
                                        # kill: def $cl killed $ecx
	shll	%cl, %esi
	movslq	-12(%rbp), %rcx
	shlq	$6, %rcx
	addq	%rcx, %rdx
	movslq	-8(%rbp), %rcx
	shlq	$4, %rcx
	addq	%rcx, %rdx
	movslq	-4(%rbp), %rcx
	movl	%esi, (%rdx,%rcx,4)
	movslq	-20(%rbp), %rcx
	movswl	OffsetList4x4input+160(,%rcx,2), %edx
	movl	-16(%rbp), %ecx
                                        # kill: def $cl killed $ecx
	shll	%cl, %edx
	movslq	-12(%rbp), %rcx
	shlq	$6, %rcx
	addq	%rcx, %rax
	movslq	-8(%rbp), %rcx
	shlq	$4, %rcx
	addq	%rcx, %rax
	movslq	-4(%rbp), %rcx
	movl	%edx, (%rax,%rcx,4)
.LBB28_10:                              # %if.end
                                        #   in Loop: Header=BB28_6 Depth=3
	movabsq	$LevelOffset4x4Chroma_Inter, %rdx
	movq	%rdx, %rax
	addq	$832, %rax              # imm = 0x340
	movslq	-20(%rbp), %rcx
	movswl	OffsetList4x4input+192(,%rcx,2), %esi
	movl	-16(%rbp), %ecx
                                        # kill: def $cl killed $ecx
	shll	%cl, %esi
