	.text
	.file	"q_offsets.c"
	.globl	CheckOffsetParameterName # -- Begin function CheckOffsetParameterName
	.p2align	4, 0x90
	.type	CheckOffsetParameterName,@function
CheckOffsetParameterName:               # @CheckOffsetParameterName
	.cfi_startproc
# %bb.0:                                # %rand_bb
	pushq	%rbp
	.cfi_def_cfa_offset 16
	.cfi_offset %rbp, -16
	movq	%rsp, %rbp
	.cfi_def_cfa_register %rbp
	pushq	%r14
	pushq	%rbx
	.cfi_offset %rbx, -32
	.cfi_offset %r14, -24
	movq	%rsi, %r14
	movq	%rdi, %rbx
	callq	get_urand
	cmpl	$0, %eax
	jne	.LBB0_17
# %bb.1:                                # %func_CheckOffsetParameterName.8
	movq	%rbx, %rdi
	movq	%r14, %rsi
	callq	CheckOffsetParameterName.8
	popq	%rbx
	popq	%r14
	popq	%rbp
	.cfi_def_cfa %rsp, 8
	retq
.LBB0_2:                                # %func_CheckOffsetParameterName.15
	.cfi_def_cfa %rbp, 16
	movq	%rbx, %rdi
	movq	%r14, %rsi
	callq	CheckOffsetParameterName.15
	popq	%rbx
	popq	%r14
	popq	%rbp
	.cfi_def_cfa %rsp, 8
	retq
.LBB0_3:                                # %func_CheckOffsetParameterName.17
	.cfi_def_cfa %rbp, 16
	movq	%rbx, %rdi
	movq	%r14, %rsi
	callq	CheckOffsetParameterName.17
	popq	%rbx
	popq	%r14
	popq	%rbp
	.cfi_def_cfa %rsp, 8
	retq
.LBB0_4:                                # %func_CheckOffsetParameterName.19
	.cfi_def_cfa %rbp, 16
	movq	%rbx, %rdi
	movq	%r14, %rsi
	callq	CheckOffsetParameterName.19
	popq	%rbx
	popq	%r14
	popq	%rbp
	.cfi_def_cfa %rsp, 8
	retq
.LBB0_5:                                # %func_CheckOffsetParameterName.20
	.cfi_def_cfa %rbp, 16
	movq	%rbx, %rdi
	movq	%r14, %rsi
	callq	CheckOffsetParameterName.20
	popq	%rbx
	popq	%r14
	popq	%rbp
	.cfi_def_cfa %rsp, 8
	retq
.LBB0_6:                                # %func_CheckOffsetParameterName.22
	.cfi_def_cfa %rbp, 16
	movq	%rbx, %rdi
	movq	%r14, %rsi
	callq	CheckOffsetParameterName.22
	popq	%rbx
	popq	%r14
	popq	%rbp
	.cfi_def_cfa %rsp, 8
	retq
.LBB0_7:                                # %func_CheckOffsetParameterName.23
	.cfi_def_cfa %rbp, 16
	movq	%rbx, %rdi
	movq	%r14, %rsi
	callq	CheckOffsetParameterName.23
	popq	%rbx
	popq	%r14
	popq	%rbp
	.cfi_def_cfa %rsp, 8
	retq
.LBB0_8:                                # %func_CheckOffsetParameterName.26
	.cfi_def_cfa %rbp, 16
	movq	%rbx, %rdi
	movq	%r14, %rsi
	callq	CheckOffsetParameterName.26
	popq	%rbx
	popq	%r14
	popq	%rbp
	.cfi_def_cfa %rsp, 8
	retq
.LBB0_9:                                # %func_CheckOffsetParameterName.29
	.cfi_def_cfa %rbp, 16
	movq	%rbx, %rdi
	movq	%r14, %rsi
	callq	CheckOffsetParameterName.29
	popq	%rbx
	popq	%r14
	popq	%rbp
	.cfi_def_cfa %rsp, 8
	retq
.LBB0_10:                               # %func_CheckOffsetParameterName.34
	.cfi_def_cfa %rbp, 16
	movq	%rbx, %rdi
	movq	%r14, %rsi
	callq	CheckOffsetParameterName.34
	popq	%rbx
	popq	%r14
	popq	%rbp
	.cfi_def_cfa %rsp, 8
	retq
.LBB0_11:                               # %func_CheckOffsetParameterName.41
	.cfi_def_cfa %rbp, 16
	movq	%rbx, %rdi
	movq	%r14, %rsi
	callq	CheckOffsetParameterName.41
	popq	%rbx
	popq	%r14
	popq	%rbp
	.cfi_def_cfa %rsp, 8
	retq
.LBB0_12:                               # %func_CheckOffsetParameterName.44
	.cfi_def_cfa %rbp, 16
	movq	%rbx, %rdi
	movq	%r14, %rsi
	callq	CheckOffsetParameterName.44
	popq	%rbx
	popq	%r14
	popq	%rbp
	.cfi_def_cfa %rsp, 8
	retq
.LBB0_13:                               # %func_CheckOffsetParameterName.45
	.cfi_def_cfa %rbp, 16
	movq	%rbx, %rdi
	movq	%r14, %rsi
	callq	CheckOffsetParameterName.45
	popq	%rbx
	popq	%r14
	popq	%rbp
	.cfi_def_cfa %rsp, 8
	retq
.LBB0_14:                               # %func_CheckOffsetParameterName.48
	.cfi_def_cfa %rbp, 16
	movq	%rbx, %rdi
	movq	%r14, %rsi
	callq	CheckOffsetParameterName.48
	popq	%rbx
	popq	%r14
	popq	%rbp
	.cfi_def_cfa %rsp, 8
	retq
.LBB0_15:                               # %func_CheckOffsetParameterName.51
	.cfi_def_cfa %rbp, 16
	movq	%rbx, %rdi
	movq	%r14, %rsi
	callq	CheckOffsetParameterName.51
	popq	%rbx
	popq	%r14
	popq	%rbp
	.cfi_def_cfa %rsp, 8
	retq
.LBB0_16:                               # %func_CheckOffsetParameterName.52
	.cfi_def_cfa %rbp, 16
	movq	%rbx, %rdi
	movq	%r14, %rsi
	callq	CheckOffsetParameterName.52
	popq	%rbx
	popq	%r14
	popq	%rbp
	.cfi_def_cfa %rsp, 8
	retq
.LBB0_17:                               # %ctrl0
	.cfi_def_cfa %rbp, 16
	cmpl	$1, %eax
	je	.LBB0_2
# %bb.18:                               # %ctrl1
	cmpl	$2, %eax
	je	.LBB0_3
# %bb.19:                               # %ctrl2
	cmpl	$3, %eax
	je	.LBB0_4
# %bb.20:                               # %ctrl3
	cmpl	$4, %eax
	je	.LBB0_5
# %bb.21:                               # %ctrl4
	cmpl	$5, %eax
	je	.LBB0_6
# %bb.22:                               # %ctrl5
	cmpl	$6, %eax
	je	.LBB0_7
# %bb.23:                               # %ctrl6
	cmpl	$7, %eax
	je	.LBB0_8
# %bb.24:                               # %ctrl7
	cmpl	$8, %eax
	je	.LBB0_9
# %bb.25:                               # %ctrl8
	cmpl	$9, %eax
	je	.LBB0_10
# %bb.26:                               # %ctrl9
	cmpl	$10, %eax
	je	.LBB0_11
# %bb.27:                               # %ctrl10
	cmpl	$11, %eax
	je	.LBB0_12
# %bb.28:                               # %ctrl11
	cmpl	$12, %eax
	je	.LBB0_13
# %bb.29:                               # %ctrl12
	cmpl	$13, %eax
	je	.LBB0_14
# %bb.30:                               # %ctrl13
	cmpl	$14, %eax
	je	.LBB0_15
	jmp	.LBB0_16
.Lfunc_end0:
	.size	CheckOffsetParameterName, .Lfunc_end0-CheckOffsetParameterName
	.cfi_endproc
                                        # -- End function
	.globl	ParseQOffsetMatrix      # -- Begin function ParseQOffsetMatrix
	.p2align	4, 0x90
	.type	ParseQOffsetMatrix,@function
ParseQOffsetMatrix:                     # @ParseQOffsetMatrix
	.cfi_startproc
# %bb.0:                                # %rand_bb
	pushq	%rbp
	.cfi_def_cfa_offset 16
	.cfi_offset %rbp, -16
	movq	%rsp, %rbp
	.cfi_def_cfa_register %rbp
	pushq	%r14
	pushq	%rbx
	.cfi_offset %rbx, -32
	.cfi_offset %r14, -24
	movl	%esi, %r14d
	movq	%rdi, %rbx
	callq	get_urand
	cmpl	$0, %eax
	jne	.LBB1_17
# %bb.1:                                # %func_ParseQOffsetMatrix.5
	movq	%rbx, %rdi
	movl	%r14d, %esi
	callq	ParseQOffsetMatrix.5
	popq	%rbx
	popq	%r14
	popq	%rbp
	.cfi_def_cfa %rsp, 8
	retq
.LBB1_2:                                # %func_ParseQOffsetMatrix.16
	.cfi_def_cfa %rbp, 16
	movq	%rbx, %rdi
	movl	%r14d, %esi
	callq	ParseQOffsetMatrix.16
	popq	%rbx
	popq	%r14
	popq	%rbp
	.cfi_def_cfa %rsp, 8
	retq
.LBB1_3:                                # %func_ParseQOffsetMatrix.18
	.cfi_def_cfa %rbp, 16
	movq	%rbx, %rdi
	movl	%r14d, %esi
	callq	ParseQOffsetMatrix.18
	popq	%rbx
	popq	%r14
	popq	%rbp
	.cfi_def_cfa %rsp, 8
	retq
.LBB1_4:                                # %func_ParseQOffsetMatrix.21
	.cfi_def_cfa %rbp, 16
	movq	%rbx, %rdi
	movl	%r14d, %esi
	callq	ParseQOffsetMatrix.21
	popq	%rbx
	popq	%r14
	popq	%rbp
	.cfi_def_cfa %rsp, 8
	retq
.LBB1_5:                                # %func_ParseQOffsetMatrix.25
	.cfi_def_cfa %rbp, 16
	movq	%rbx, %rdi
	movl	%r14d, %esi
	callq	ParseQOffsetMatrix.25
	popq	%rbx
	popq	%r14
	popq	%rbp
	.cfi_def_cfa %rsp, 8
	retq
.LBB1_6:                                # %func_ParseQOffsetMatrix.33
	.cfi_def_cfa %rbp, 16
	movq	%rbx, %rdi
	movl	%r14d, %esi
	callq	ParseQOffsetMatrix.33
	popq	%rbx
	popq	%r14
	popq	%rbp
	.cfi_def_cfa %rsp, 8
	retq
.LBB1_7:                                # %func_ParseQOffsetMatrix.38
	.cfi_def_cfa %rbp, 16
	movq	%rbx, %rdi
	movl	%r14d, %esi
	callq	ParseQOffsetMatrix.38
	popq	%rbx
	popq	%r14
	popq	%rbp
	.cfi_def_cfa %rsp, 8
	retq
.LBB1_8:                                # %func_ParseQOffsetMatrix.42
	.cfi_def_cfa %rbp, 16
	movq	%rbx, %rdi
	movl	%r14d, %esi
	callq	ParseQOffsetMatrix.42
	popq	%rbx
	popq	%r14
	popq	%rbp
	.cfi_def_cfa %rsp, 8
	retq
.LBB1_9:                                # %func_ParseQOffsetMatrix.43
	.cfi_def_cfa %rbp, 16
	movq	%rbx, %rdi
	movl	%r14d, %esi
	callq	ParseQOffsetMatrix.43
	popq	%rbx
	popq	%r14
	popq	%rbp
	.cfi_def_cfa %rsp, 8
	retq
.LBB1_10:                               # %func_ParseQOffsetMatrix.47
	.cfi_def_cfa %rbp, 16
	movq	%rbx, %rdi
	movl	%r14d, %esi
	callq	ParseQOffsetMatrix.47
	popq	%rbx
	popq	%r14
	popq	%rbp
	.cfi_def_cfa %rsp, 8
	retq
.LBB1_11:                               # %func_ParseQOffsetMatrix.56
	.cfi_def_cfa %rbp, 16
	movq	%rbx, %rdi
	movl	%r14d, %esi
	callq	ParseQOffsetMatrix.56
	popq	%rbx
	popq	%r14
	popq	%rbp
	.cfi_def_cfa %rsp, 8
	retq
.LBB1_12:                               # %func_ParseQOffsetMatrix.57
	.cfi_def_cfa %rbp, 16
	movq	%rbx, %rdi
	movl	%r14d, %esi
	callq	ParseQOffsetMatrix.57
	popq	%rbx
	popq	%r14
	popq	%rbp
	.cfi_def_cfa %rsp, 8
	retq
.LBB1_13:                               # %func_ParseQOffsetMatrix.58
	.cfi_def_cfa %rbp, 16
	movq	%rbx, %rdi
	movl	%r14d, %esi
	callq	ParseQOffsetMatrix.58
	popq	%rbx
	popq	%r14
	popq	%rbp
	.cfi_def_cfa %rsp, 8
	retq
.LBB1_14:                               # %func_ParseQOffsetMatrix.59
	.cfi_def_cfa %rbp, 16
	movq	%rbx, %rdi
	movl	%r14d, %esi
	callq	ParseQOffsetMatrix.59
	popq	%rbx
	popq	%r14
	popq	%rbp
	.cfi_def_cfa %rsp, 8
	retq
.LBB1_15:                               # %func_ParseQOffsetMatrix.63
	.cfi_def_cfa %rbp, 16
	movq	%rbx, %rdi
	movl	%r14d, %esi
	callq	ParseQOffsetMatrix.63
	popq	%rbx
	popq	%r14
	popq	%rbp
	.cfi_def_cfa %rsp, 8
	retq
.LBB1_16:                               # %func_ParseQOffsetMatrix.64
	.cfi_def_cfa %rbp, 16
	movq	%rbx, %rdi
	movl	%r14d, %esi
	callq	ParseQOffsetMatrix.64
	popq	%rbx
	popq	%r14
	popq	%rbp
	.cfi_def_cfa %rsp, 8
	retq
.LBB1_17:                               # %ctrl0
	.cfi_def_cfa %rbp, 16
	cmpl	$1, %eax
	je	.LBB1_2
# %bb.18:                               # %ctrl1
	cmpl	$2, %eax
	je	.LBB1_3
# %bb.19:                               # %ctrl2
	cmpl	$3, %eax
	je	.LBB1_4
# %bb.20:                               # %ctrl3
	cmpl	$4, %eax
	je	.LBB1_5
# %bb.21:                               # %ctrl4
	cmpl	$5, %eax
	je	.LBB1_6
# %bb.22:                               # %ctrl5
	cmpl	$6, %eax
	je	.LBB1_7
# %bb.23:                               # %ctrl6
	cmpl	$7, %eax
	je	.LBB1_8
# %bb.24:                               # %ctrl7
	cmpl	$8, %eax
	je	.LBB1_9
# %bb.25:                               # %ctrl8
	cmpl	$9, %eax
	je	.LBB1_10
# %bb.26:                               # %ctrl9
	cmpl	$10, %eax
	je	.LBB1_11
# %bb.27:                               # %ctrl10
	cmpl	$11, %eax
	je	.LBB1_12
# %bb.28:                               # %ctrl11
	cmpl	$12, %eax
	je	.LBB1_13
# %bb.29:                               # %ctrl12
	cmpl	$13, %eax
	je	.LBB1_14
# %bb.30:                               # %ctrl13
	cmpl	$14, %eax
	je	.LBB1_15
	jmp	.LBB1_16
.Lfunc_end1:
	.size	ParseQOffsetMatrix, .Lfunc_end1-ParseQOffsetMatrix
	.cfi_endproc
                                        # -- End function
	.globl	Init_QOffsetMatrix      # -- Begin function Init_QOffsetMatrix
	.p2align	4, 0x90
	.type	Init_QOffsetMatrix,@function
Init_QOffsetMatrix:                     # @Init_QOffsetMatrix
	.cfi_startproc
# %bb.0:                                # %entry
	pushq	%rbp
	.cfi_def_cfa_offset 16
	.cfi_offset %rbp, -16
	movq	%rsp, %rbp
	.cfi_def_cfa_register %rbp
	pushq	%rbx
	pushq	%rax
	.cfi_offset %rbx, -24
	movq	input, %rax
	cmpl	$0, 3584(%rax)
	je	.LBB2_5
# %bb.1:                                # %if.then
	movq	input, %rsi
	addq	$3384, %rsi             # imm = 0xD38
	movabsq	$.L.str.6, %rdi
	movb	$0, %al
	callq	printf
	movq	input, %rdi
	addq	$3384, %rdi             # imm = 0xD38
	xorl	%esi, %esi
	callq	GetConfigFileContent
	movq	%rax, -16(%rbp)
	cmpq	$0, -16(%rbp)
	je	.LBB2_3
# %bb.2:                                # %if.then4
	movq	-16(%rbp), %rbx
	movq	-16(%rbp), %rdi
	callq	strlen
	movq	%rbx, %rdi
	movl	%eax, %esi
	callq	ParseQOffsetMatrix
	jmp	.LBB2_4
.LBB2_3:                                # %if.else
	movabsq	$.L.str.7, %rdi
	movabsq	$errortext, %rsi
	movb	$0, %al
	callq	printf
	movq	input, %rax
	movl	$0, 3584(%rax)
.LBB2_4:                                # %if.end
	movabsq	$.L.str.8, %rdi
	movb	$0, %al
	callq	printf
	movq	-16(%rbp), %rdi
	callq	free
.LBB2_5:                                # %if.end9
	addq	$8, %rsp
	popq	%rbx
	popq	%rbp
	.cfi_def_cfa %rsp, 8
	retq
.Lfunc_end2:
	.size	Init_QOffsetMatrix, .Lfunc_end2-Init_QOffsetMatrix
	.cfi_endproc
                                        # -- End function
	.globl	CalculateOffsetParam    # -- Begin function CalculateOffsetParam
	.p2align	4, 0x90
	.type	CalculateOffsetParam,@function
CalculateOffsetParam:                   # @CalculateOffsetParam
	.cfi_startproc
# %bb.0:                                # %rand_bb
	pushq	%rbp
	.cfi_def_cfa_offset 16
	.cfi_offset %rbp, -16
	movq	%rsp, %rbp
	.cfi_def_cfa_register %rbp
	callq	get_urand
	cmpl	$0, %eax
	jne	.LBB3_17
# %bb.1:                                # %func_CalculateOffsetParam.1
	callq	CalculateOffsetParam.1
	popq	%rbp
	.cfi_def_cfa %rsp, 8
	retq
.LBB3_2:                                # %func_CalculateOffsetParam.3
	.cfi_def_cfa %rbp, 16
	callq	CalculateOffsetParam.3
	popq	%rbp
	.cfi_def_cfa %rsp, 8
	retq
.LBB3_3:                                # %func_CalculateOffsetParam.24
	.cfi_def_cfa %rbp, 16
	callq	CalculateOffsetParam.24
	popq	%rbp
	.cfi_def_cfa %rsp, 8
	retq
.LBB3_4:                                # %func_CalculateOffsetParam.27
	.cfi_def_cfa %rbp, 16
	callq	CalculateOffsetParam.27
	popq	%rbp
	.cfi_def_cfa %rsp, 8
	retq
.LBB3_5:                                # %func_CalculateOffsetParam.28
	.cfi_def_cfa %rbp, 16
	callq	CalculateOffsetParam.28
	popq	%rbp
	.cfi_def_cfa %rsp, 8
	retq
.LBB3_6:                                # %func_CalculateOffsetParam.30
	.cfi_def_cfa %rbp, 16
	callq	CalculateOffsetParam.30
	popq	%rbp
	.cfi_def_cfa %rsp, 8
	retq
.LBB3_7:                                # %func_CalculateOffsetParam.31
	.cfi_def_cfa %rbp, 16
	callq	CalculateOffsetParam.31
	popq	%rbp
	.cfi_def_cfa %rsp, 8
	retq
.LBB3_8:                                # %func_CalculateOffsetParam.35
	.cfi_def_cfa %rbp, 16
	callq	CalculateOffsetParam.35
	popq	%rbp
	.cfi_def_cfa %rsp, 8
	retq
.LBB3_9:                                # %func_CalculateOffsetParam.36
	.cfi_def_cfa %rbp, 16
	callq	CalculateOffsetParam.36
	popq	%rbp
	.cfi_def_cfa %rsp, 8
	retq
.LBB3_10:                               # %func_CalculateOffsetParam.39
	.cfi_def_cfa %rbp, 16
	callq	CalculateOffsetParam.39
	popq	%rbp
	.cfi_def_cfa %rsp, 8
	retq
.LBB3_11:                               # %func_CalculateOffsetParam.40
	.cfi_def_cfa %rbp, 16
	callq	CalculateOffsetParam.40
	popq	%rbp
	.cfi_def_cfa %rsp, 8
	retq
.LBB3_12:                               # %func_CalculateOffsetParam.46
	.cfi_def_cfa %rbp, 16
	callq	CalculateOffsetParam.46
	popq	%rbp
	.cfi_def_cfa %rsp, 8
	retq
.LBB3_13:                               # %func_CalculateOffsetParam.50
	.cfi_def_cfa %rbp, 16
	callq	CalculateOffsetParam.50
	popq	%rbp
	.cfi_def_cfa %rsp, 8
	retq
.LBB3_14:                               # %func_CalculateOffsetParam.53
	.cfi_def_cfa %rbp, 16
	callq	CalculateOffsetParam.53
	popq	%rbp
	.cfi_def_cfa %rsp, 8
	retq
.LBB3_15:                               # %func_CalculateOffsetParam.61
	.cfi_def_cfa %rbp, 16
	callq	CalculateOffsetParam.61
	popq	%rbp
	.cfi_def_cfa %rsp, 8
	retq
.LBB3_16:                               # %func_CalculateOffsetParam.62
	.cfi_def_cfa %rbp, 16
	callq	CalculateOffsetParam.62
	popq	%rbp
	.cfi_def_cfa %rsp, 8
	retq
.LBB3_17:                               # %ctrl0
	.cfi_def_cfa %rbp, 16
	cmpl	$1, %eax
	je	.LBB3_2
# %bb.18:                               # %ctrl1
	cmpl	$2, %eax
	je	.LBB3_3
# %bb.19:                               # %ctrl2
	cmpl	$3, %eax
	je	.LBB3_4
# %bb.20:                               # %ctrl3
	cmpl	$4, %eax
	je	.LBB3_5
# %bb.21:                               # %ctrl4
	cmpl	$5, %eax
	je	.LBB3_6
# %bb.22:                               # %ctrl5
	cmpl	$6, %eax
	je	.LBB3_7
# %bb.23:                               # %ctrl6
	cmpl	$7, %eax
	je	.LBB3_8
# %bb.24:                               # %ctrl7
	cmpl	$8, %eax
	je	.LBB3_9
# %bb.25:                               # %ctrl8
	cmpl	$9, %eax
	je	.LBB3_10
# %bb.26:                               # %ctrl9
	cmpl	$10, %eax
	je	.LBB3_11
# %bb.27:                               # %ctrl10
	cmpl	$11, %eax
	je	.LBB3_12
# %bb.28:                               # %ctrl11
	cmpl	$12, %eax
	je	.LBB3_13
# %bb.29:                               # %ctrl12
	cmpl	$13, %eax
	je	.LBB3_14
# %bb.30:                               # %ctrl13
	cmpl	$14, %eax
	je	.LBB3_15
	jmp	.LBB3_16
.Lfunc_end3:
	.size	CalculateOffsetParam, .Lfunc_end3-CalculateOffsetParam
	.cfi_endproc
                                        # -- End function
	.globl	CalculateOffset8Param   # -- Begin function CalculateOffset8Param
	.p2align	4, 0x90
	.type	CalculateOffset8Param,@function
CalculateOffset8Param:                  # @CalculateOffset8Param
	.cfi_startproc
# %bb.0:                                # %rand_bb
	pushq	%rbp
	.cfi_def_cfa_offset 16
	.cfi_offset %rbp, -16
	movq	%rsp, %rbp
	.cfi_def_cfa_register %rbp
	callq	get_urand
	cmpl	$0, %eax
	jne	.LBB4_17
# %bb.1:                                # %func_CalculateOffset8Param.2
	callq	CalculateOffset8Param.2
	popq	%rbp
	.cfi_def_cfa %rsp, 8
	retq
.LBB4_2:                                # %func_CalculateOffset8Param.4
	.cfi_def_cfa %rbp, 16
	callq	CalculateOffset8Param.4
	popq	%rbp
	.cfi_def_cfa %rsp, 8
	retq
.LBB4_3:                                # %func_CalculateOffset8Param.6
	.cfi_def_cfa %rbp, 16
	callq	CalculateOffset8Param.6
	popq	%rbp
	.cfi_def_cfa %rsp, 8
	retq
.LBB4_4:                                # %func_CalculateOffset8Param.7
	.cfi_def_cfa %rbp, 16
	callq	CalculateOffset8Param.7
	popq	%rbp
	.cfi_def_cfa %rsp, 8
	retq
.LBB4_5:                                # %func_CalculateOffset8Param.9
	.cfi_def_cfa %rbp, 16
	callq	CalculateOffset8Param.9
	popq	%rbp
	.cfi_def_cfa %rsp, 8
	retq
.LBB4_6:                                # %func_CalculateOffset8Param.10
	.cfi_def_cfa %rbp, 16
	callq	CalculateOffset8Param.10
	popq	%rbp
	.cfi_def_cfa %rsp, 8
	retq
.LBB4_7:                                # %func_CalculateOffset8Param.11
	.cfi_def_cfa %rbp, 16
	callq	CalculateOffset8Param.11
	popq	%rbp
	.cfi_def_cfa %rsp, 8
	retq
.LBB4_8:                                # %func_CalculateOffset8Param.12
	.cfi_def_cfa %rbp, 16
	callq	CalculateOffset8Param.12
	popq	%rbp
	.cfi_def_cfa %rsp, 8
	retq
.LBB4_9:                                # %func_CalculateOffset8Param.13
	.cfi_def_cfa %rbp, 16
	callq	CalculateOffset8Param.13
	popq	%rbp
	.cfi_def_cfa %rsp, 8
	retq
.LBB4_10:                               # %func_CalculateOffset8Param.14
	.cfi_def_cfa %rbp, 16
	callq	CalculateOffset8Param.14
	popq	%rbp
	.cfi_def_cfa %rsp, 8
	retq
.LBB4_11:                               # %func_CalculateOffset8Param.32
	.cfi_def_cfa %rbp, 16
	callq	CalculateOffset8Param.32
	popq	%rbp
	.cfi_def_cfa %rsp, 8
	retq
.LBB4_12:                               # %func_CalculateOffset8Param.37
	.cfi_def_cfa %rbp, 16
	callq	CalculateOffset8Param.37
	popq	%rbp
	.cfi_def_cfa %rsp, 8
	retq
.LBB4_13:                               # %func_CalculateOffset8Param.49
	.cfi_def_cfa %rbp, 16
	callq	CalculateOffset8Param.49
	popq	%rbp
	.cfi_def_cfa %rsp, 8
	retq
.LBB4_14:                               # %func_CalculateOffset8Param.54
	.cfi_def_cfa %rbp, 16
	callq	CalculateOffset8Param.54
	popq	%rbp
	.cfi_def_cfa %rsp, 8
	retq
.LBB4_15:                               # %func_CalculateOffset8Param.55
	.cfi_def_cfa %rbp, 16
	callq	CalculateOffset8Param.55
	popq	%rbp
	.cfi_def_cfa %rsp, 8
	retq
.LBB4_16:                               # %func_CalculateOffset8Param.60
	.cfi_def_cfa %rbp, 16
	callq	CalculateOffset8Param.60
	popq	%rbp
	.cfi_def_cfa %rsp, 8
	retq
.LBB4_17:                               # %ctrl0
	.cfi_def_cfa %rbp, 16
	cmpl	$1, %eax
	je	.LBB4_2
# %bb.18:                               # %ctrl1
	cmpl	$2, %eax
	je	.LBB4_3
# %bb.19:                               # %ctrl2
	cmpl	$3, %eax
	je	.LBB4_4
# %bb.20:                               # %ctrl3
	cmpl	$4, %eax
	je	.LBB4_5
# %bb.21:                               # %ctrl4
	cmpl	$5, %eax
	je	.LBB4_6
# %bb.22:                               # %ctrl5
	cmpl	$6, %eax
	je	.LBB4_7
# %bb.23:                               # %ctrl6
	cmpl	$7, %eax
	je	.LBB4_8
# %bb.24:                               # %ctrl7
	cmpl	$8, %eax
	je	.LBB4_9
# %bb.25:                               # %ctrl8
	cmpl	$9, %eax
	je	.LBB4_10
# %bb.26:                               # %ctrl9
	cmpl	$10, %eax
	je	.LBB4_11
# %bb.27:                               # %ctrl10
	cmpl	$11, %eax
	je	.LBB4_12
# %bb.28:                               # %ctrl11
	cmpl	$12, %eax
	je	.LBB4_13
# %bb.29:                               # %ctrl12
	cmpl	$13, %eax
	je	.LBB4_14
# %bb.30:                               # %ctrl13
	cmpl	$14, %eax
	je	.LBB4_15
	jmp	.LBB4_16
.Lfunc_end4:
	.size	CalculateOffset8Param, .Lfunc_end4-CalculateOffset8Param
	.cfi_endproc
                                        # -- End function
	.globl	CalculateOffsetParam.1  # -- Begin function CalculateOffsetParam.1
	.p2align	4, 0x90
	.type	CalculateOffsetParam.1,@function
CalculateOffsetParam.1:                 # @CalculateOffsetParam.1
	.cfi_startproc
# %bb.0:                                # %entry
	pushq	%rbp
	.cfi_def_cfa_offset 16
	.cfi_offset %rbp, -16
	movq	%rsp, %rbp
	.cfi_def_cfa_register %rbp
	subq	$32, %rsp
	movl	$255402329, -24(%rbp)   # imm = 0xF392159
	movq	input, %rax
	cmpl	$0, 3584(%rax)
	je	.LBB5_17
# %bb.1:                                # %if.then
	movl	$0, -12(%rbp)
.LBB5_2:                                # %for.cond
                                        # =>This Loop Header: Depth=1
                                        #     Child Loop BB5_4 Depth 2
                                        #       Child Loop BB5_6 Depth 3
	cmpl	$13, -12(%rbp)
	jge	.LBB5_16
# %bb.3:                                # %for.body
                                        #   in Loop: Header=BB5_2 Depth=1
	movl	-12(%rbp), %eax
	addl	$15, %eax
	subl	$10, %eax
	movl	%eax, -16(%rbp)
	movl	$0, -8(%rbp)
.LBB5_4:                                # %for.cond1
                                        #   Parent Loop BB5_2 Depth=1
                                        # =>  This Loop Header: Depth=2
                                        #       Child Loop BB5_6 Depth 3
	cmpl	$4, -8(%rbp)
	jge	.LBB5_14
# %bb.5:                                # %for.body3
                                        #   in Loop: Header=BB5_4 Depth=2
	movl	$0, -4(%rbp)
.LBB5_6:                                # %for.cond4
                                        #   Parent Loop BB5_2 Depth=1
                                        #     Parent Loop BB5_4 Depth=2
                                        # =>    This Inner Loop Header: Depth=3
	cmpl	$4, -4(%rbp)
	jge	.LBB5_12
# %bb.7:                                # %for.body6
                                        #   in Loop: Header=BB5_6 Depth=3
	movl	-4(%rbp), %eax
	shll	$2, %eax
	addl	-8(%rbp), %eax
	movl	%eax, -20(%rbp)
	movq	img, %rax
	cmpl	$2, 24(%rax)
	jne	.LBB5_9
# %bb.8:                                # %if.then9
                                        #   in Loop: Header=BB5_6 Depth=3
	movabsq	$LevelOffset4x4Chroma_Intra, %rdx
	movq	%rdx, %rax
	addq	$832, %rax              # imm = 0x340
	movslq	-20(%rbp), %rcx
	movswl	OffsetList4x4input(,%rcx,2), %esi
	movl	-16(%rbp), %ecx
                                        # kill: def $cl killed $ecx
	shll	%cl, %esi
	movslq	-12(%rbp), %rcx
	shlq	$6, %rcx
	movabsq	$LevelOffset4x4Luma_Intra, %rdi
	addq	%rcx, %rdi
	movslq	-8(%rbp), %rcx
	shlq	$4, %rcx
	addq	%rcx, %rdi
	movslq	-4(%rbp), %rcx
	movl	%esi, (%rdi,%rcx,4)
	movslq	-20(%rbp), %rcx
	movswl	OffsetList4x4input+32(,%rcx,2), %esi
	movl	-16(%rbp), %ecx
                                        # kill: def $cl killed $ecx
	shll	%cl, %esi
	movslq	-12(%rbp), %rcx
	shlq	$6, %rcx
	addq	%rcx, %rdx
	movslq	-8(%rbp), %rcx
	shlq	$4, %rcx
	addq	%rcx, %rdx
	movslq	-4(%rbp), %rcx
	movl	%esi, (%rdx,%rcx,4)
	movslq	-20(%rbp), %rcx
	movswl	OffsetList4x4input+64(,%rcx,2), %edx
	movl	-16(%rbp), %ecx
                                        # kill: def $cl killed $ecx
	shll	%cl, %edx
	movslq	-12(%rbp), %rcx
	shlq	$6, %rcx
	addq	%rcx, %rax
	movslq	-8(%rbp), %rcx
	shlq	$4, %rcx
	addq	%rcx, %rax
	movslq	-4(%rbp), %rcx
	movl	%edx, (%rax,%rcx,4)
	jmp	.LBB5_10
.LBB5_9:                                # %if.else
                                        #   in Loop: Header=BB5_6 Depth=3
	movabsq	$LevelOffset4x4Chroma_Intra, %rdx
	movq	%rdx, %rax
	addq	$832, %rax              # imm = 0x340
	movslq	-20(%rbp), %rcx
	movswl	OffsetList4x4input+96(,%rcx,2), %esi
	movl	-16(%rbp), %ecx
                                        # kill: def $cl killed $ecx
	shll	%cl, %esi
	movslq	-12(%rbp), %rcx
	shlq	$6, %rcx
	movabsq	$LevelOffset4x4Luma_Intra, %rdi
	addq	%rcx, %rdi
	movslq	-8(%rbp), %rcx
	shlq	$4, %rcx
	addq	%rcx, %rdi
	movslq	-4(%rbp), %rcx
	movl	%esi, (%rdi,%rcx,4)
	movslq	-20(%rbp), %rcx
	movswl	OffsetList4x4input+128(,%rcx,2), %esi
	movl	-16(%rbp), %ecx
                                        # kill: def $cl killed $ecx
	shll	%cl, %esi
	movslq	-12(%rbp), %rcx
	shlq	$6, %rcx
	addq	%rcx, %rdx
	movslq	-8(%rbp), %rcx
	shlq	$4, %rcx
	addq	%rcx, %rdx
	movslq	-4(%rbp), %rcx
	movl	%esi, (%rdx,%rcx,4)
	movslq	-20(%rbp), %rcx
	movswl	OffsetList4x4input+160(,%rcx,2), %edx
	movl	-16(%rbp), %ecx
                                        # kill: def $cl killed $ecx
	shll	%cl, %edx
	movslq	-12(%rbp), %rcx
	shlq	$6, %rcx
	addq	%rcx, %rax
	movslq	-8(%rbp), %rcx
	shlq	$4, %rcx
	addq	%rcx, %rax
	movslq	-4(%rbp), %rcx
	movl	%edx, (%rax,%rcx,4)
.LBB5_10:                               # %if.end
                                        #   in Loop: Header=BB5_6 Depth=3
	movabsq	$LevelOffset4x4Chroma_Inter, %rdx
	movq	%rdx, %rax
	addq	$832, %rax              # imm = 0x340
	movslq	-20(%rbp), %rcx
	movswl	OffsetList4x4input+192(,%rcx,2), %esi
	movl	-16(%rbp), %ecx
                                        # kill: def $cl killed $ecx
	shll	%cl, %esi
	movslq	-12(%rbp), %rcx
	shlq	$6, %rcx
	movabsq	$LevelOffset4x4Luma_Inter, %rdi
	addq	%rcx, %rdi
	movslq	-8(%rbp), %rcx
	shlq	$4, %rcx
	addq	%rcx, %rdi
	movslq	-4(%rbp), %rcx
	movl	%esi, (%rdi,%rcx,4)
	movslq	-20(%rbp), %rcx
	movswl	OffsetList4x4input+224(,%rcx,2), %esi
	movl	-16(%rbp), %ecx
                                        # kill: def $cl killed $ecx
	shll	%cl, %esi
	movslq	-12(%rbp), %rcx
	shlq	$6, %rcx
	addq	%rcx, %rdx
	movslq	-8(%rbp), %rcx
	shlq	$4, %rcx
	addq	%rcx, %rdx
	movslq	-4(%rbp), %rcx
	movl	%esi, (%rdx,%rcx,4)
	movslq	-20(%rbp), %rcx
	movswl	OffsetList4x4input+256(,%rcx,2), %edx
	movl	-16(%rbp), %ecx
                                        # kill: def $cl killed $ecx
	shll	%cl, %edx
	movslq	-12(%rbp), %rcx
	shlq	$6, %rcx
	addq	%rcx, %rax
	movslq	-8(%rbp), %rcx
	shlq	$4, %rcx
	addq	%rcx, %rax
	movslq	-4(%rbp), %rcx
	movl	%edx, (%rax,%rcx,4)
# %bb.11:                               # %for.inc
                                        #   in Loop: Header=BB5_6 Depth=3
	movl	-4(%rbp), %eax
	addl	$1, %eax
	movl	%eax, -4(%rbp)
	jmp	.LBB5_6
.LBB5_12:                               # %for.end
                                        #   in Loop: Header=BB5_4 Depth=2
	jmp	.LBB5_13
.LBB5_13:                               # %for.inc97
                                        #   in Loop: Header=BB5_4 Depth=2
	movl	-8(%rbp), %eax
	addl	$1, %eax
	movl	%eax, -8(%rbp)
	jmp	.LBB5_4
.LBB5_14:                               # %for.end99
                                        #   in Loop: Header=BB5_2 Depth=1
	jmp	.LBB5_15
.LBB5_15:                               # %for.inc100
                                        #   in Loop: Header=BB5_2 Depth=1
	movl	-12(%rbp), %eax
	addl	$1, %eax
	movl	%eax, -12(%rbp)
	jmp	.LBB5_2
.LBB5_16:                               # %for.end102
	jmp	.LBB5_33
.LBB5_17:                               # %if.else103
	movl	$0, -12(%rbp)
.LBB5_18:                               # %for.cond104
                                        # =>This Loop Header: Depth=1
                                        #     Child Loop BB5_20 Depth 2
                                        #       Child Loop BB5_22 Depth 3
	cmpl	$13, -12(%rbp)
	jge	.LBB5_32
# %bb.19:                               # %for.body107
                                        #   in Loop: Header=BB5_18 Depth=1
	movl	-12(%rbp), %eax
	addl	$15, %eax
	subl	$10, %eax
	movl	%eax, -16(%rbp)
	movl	$0, -8(%rbp)
.LBB5_20:                               # %for.cond110
                                        #   Parent Loop BB5_18 Depth=1
                                        # =>  This Loop Header: Depth=2
                                        #       Child Loop BB5_22 Depth 3
	cmpl	$4, -8(%rbp)
	jge	.LBB5_30
# %bb.21:                               # %for.body113
                                        #   in Loop: Header=BB5_20 Depth=2
	movl	$0, -4(%rbp)
.LBB5_22:                               # %for.cond114
                                        #   Parent Loop BB5_18 Depth=1
                                        #     Parent Loop BB5_20 Depth=2
                                        # =>    This Inner Loop Header: Depth=3
	cmpl	$4, -4(%rbp)
	jge	.LBB5_28
# %bb.23:                               # %for.body117
                                        #   in Loop: Header=BB5_22 Depth=3
	movl	-4(%rbp), %eax
	shll	$2, %eax
	addl	-8(%rbp), %eax
	movl	%eax, -20(%rbp)
	movq	img, %rax
	cmpl	$2, 24(%rax)
	jne	.LBB5_25
# %bb.24:                               # %if.then123
                                        #   in Loop: Header=BB5_22 Depth=3
	movabsq	$LevelOffset4x4Chroma_Intra, %rdx
	movq	%rdx, %rax
	addq	$832, %rax              # imm = 0x340
	movslq	-20(%rbp), %rcx
	movswl	Offset_intra_default_intra(,%rcx,2), %esi
	movl	-16(%rbp), %ecx
                                        # kill: def $cl killed $ecx
	shll	%cl, %esi
	movslq	-12(%rbp), %rcx
	shlq	$6, %rcx
	movabsq	$LevelOffset4x4Luma_Intra, %rdi
	addq	%rcx, %rdi
	movslq	-8(%rbp), %rcx
	shlq	$4, %rcx
	addq	%rcx, %rdi
	movslq	-4(%rbp), %rcx
	movl	%esi, (%rdi,%rcx,4)
	movslq	-20(%rbp), %rcx
	movswl	Offset_intra_default_intra(,%rcx,2), %esi
	movl	-16(%rbp), %ecx
                                        # kill: def $cl killed $ecx
	shll	%cl, %esi
	movslq	-12(%rbp), %rcx
	shlq	$6, %rcx
	addq	%rcx, %rdx
	movslq	-8(%rbp), %rcx
	shlq	$4, %rcx
	addq	%rcx, %rdx
	movslq	-4(%rbp), %rcx
	movl	%esi, (%rdx,%rcx,4)
	movslq	-20(%rbp), %rcx
	movswl	Offset_intra_default_intra(,%rcx,2), %edx
	movl	-16(%rbp), %ecx
                                        # kill: def $cl killed $ecx
	shll	%cl, %edx
	movslq	-12(%rbp), %rcx
	shlq	$6, %rcx
	addq	%rcx, %rax
	movslq	-8(%rbp), %rcx
	shlq	$4, %rcx
	addq	%rcx, %rax
	movslq	-4(%rbp), %rcx
	movl	%edx, (%rax,%rcx,4)
	jmp	.LBB5_26
.LBB5_25:                               # %if.else154
                                        #   in Loop: Header=BB5_22 Depth=3
	movabsq	$LevelOffset4x4Chroma_Intra, %rdx
	movq	%rdx, %rax
	addq	$832, %rax              # imm = 0x340
	movslq	-20(%rbp), %rcx
	movswl	Offset_intra_default_inter(,%rcx,2), %esi
	movl	-16(%rbp), %ecx
                                        # kill: def $cl killed $ecx
	shll	%cl, %esi
	movslq	-12(%rbp), %rcx
	shlq	$6, %rcx
	movabsq	$LevelOffset4x4Luma_Intra, %rdi
	addq	%rcx, %rdi
	movslq	-8(%rbp), %rcx
	shlq	$4, %rcx
	addq	%rcx, %rdi
	movslq	-4(%rbp), %rcx
	movl	%esi, (%rdi,%rcx,4)
	movslq	-20(%rbp), %rcx
	movswl	Offset_intra_default_inter(,%rcx,2), %esi
	movl	-16(%rbp), %ecx
                                        # kill: def $cl killed $ecx
	shll	%cl, %esi
	movslq	-12(%rbp), %rcx
	shlq	$6, %rcx
	addq	%rcx, %rdx
	movslq	-8(%rbp), %rcx
	shlq	$4, %rcx
	addq	%rcx, %rdx
	movslq	-4(%rbp), %rcx
	movl	%esi, (%rdx,%rcx,4)
	movslq	-20(%rbp), %rcx
	movswl	Offset_intra_default_inter(,%rcx,2), %edx
	movl	-16(%rbp), %ecx
                                        # kill: def $cl killed $ecx
	shll	%cl, %edx
	movslq	-12(%rbp), %rcx
	shlq	$6, %rcx
	addq	%rcx, %rax
	movslq	-8(%rbp), %rcx
	shlq	$4, %rcx
	addq	%rcx, %rax
	movslq	-4(%rbp), %rcx
	movl	%edx, (%rax,%rcx,4)
.LBB5_26:                               # %if.end185
                                        #   in Loop: Header=BB5_22 Depth=3
	movabsq	$LevelOffset4x4Chroma_Inter, %rdx
	movq	%rdx, %rax
	addq	$832, %rax              # imm = 0x340
	movslq	-20(%rbp), %rcx
	movswl	Offset_inter_default(,%rcx,2), %esi
	movl	-16(%rbp), %ecx
                                        # kill: def $cl killed $ecx
	shll	%cl, %esi
	movslq	-12(%rbp), %rcx
	shlq	$6, %rcx
	movabsq	$LevelOffset4x4Luma_Inter, %rdi
	addq	%rcx, %rdi
	movslq	-8(%rbp), %rcx
	shlq	$4, %rcx
	addq	%rcx, %rdi
	movslq	-4(%rbp), %rcx
	movl	%esi, (%rdi,%rcx,4)
	movslq	-20(%rbp), %rcx
	movswl	Offset_inter_default(,%rcx,2), %esi
	movl	-16(%rbp), %ecx
                                        # kill: def $cl killed $ecx
	shll	%cl, %esi
	movslq	-12(%rbp), %rcx
	shlq	$6, %rcx
	addq	%rcx, %rdx
	movslq	-8(%rbp), %rcx
	shlq	$4, %rcx
	addq	%rcx, %rdx
	movslq	-4(%rbp), %rcx
	movl	%esi, (%rdx,%rcx,4)
	movslq	-20(%rbp), %rcx
	movswl	Offset_inter_default(,%rcx,2), %edx
	movl	-16(%rbp), %ecx
                                        # kill: def $cl killed $ecx
	shll	%cl, %edx
	movslq	-12(%rbp), %rcx
	shlq	$6, %rcx
	addq	%rcx, %rax
	movslq	-8(%rbp), %rcx
	shlq	$4, %rcx
	addq	%rcx, %rax
	movslq	-4(%rbp), %rcx
	movl	%edx, (%rax,%rcx,4)
# %bb.27:                               # %for.inc216
                                        #   in Loop: Header=BB5_22 Depth=3
	movl	-4(%rbp), %eax
	addl	$1, %eax
	movl	%eax, -4(%rbp)
	jmp	.LBB5_22
.LBB5_28:                               # %for.end218
                                        #   in Loop: Header=BB5_20 Depth=2
	jmp	.LBB5_29
.LBB5_29:                               # %for.inc219
                                        #   in Loop: Header=BB5_20 Depth=2
	movl	-8(%rbp), %eax
	addl	$1, %eax
	movl	%eax, -8(%rbp)
	jmp	.LBB5_20
.LBB5_30:                               # %for.end221
                                        #   in Loop: Header=BB5_18 Depth=1
	jmp	.LBB5_31
.LBB5_31:                               # %for.inc222
                                        #   in Loop: Header=BB5_18 Depth=1
	movl	-12(%rbp), %eax
	addl	$1, %eax
	movl	%eax, -12(%rbp)
	jmp	.LBB5_18
.LBB5_32:                               # %for.end224
	jmp	.LBB5_33
.LBB5_33:                               # %if.end225
	cmpl	$255402329, -24(%rbp)   # imm = 0xF392159
	jne	.LBB5_35
.LBB5_34:
	addq	$32, %rsp
	popq	%rbp
	.cfi_def_cfa %rsp, 8
	retq
.LBB5_35:                               # %func_exit
	.cfi_def_cfa %rbp, 16
	callq	detect_breach
	jmp	.LBB5_34
.Lfunc_end5:
	.size	CalculateOffsetParam.1, .Lfunc_end5-CalculateOffsetParam.1
	.cfi_endproc
                                        # -- End function
	.globl	CalculateOffset8Param.2 # -- Begin function CalculateOffset8Param.2
	.p2align	4, 0x90
	.type	CalculateOffset8Param.2,@function
CalculateOffset8Param.2:                # @CalculateOffset8Param.2
	.cfi_startproc
# %bb.0:                                # %entry
	pushq	%rbp
	.cfi_def_cfa_offset 16
	.cfi_offset %rbp, -16
	movq	%rsp, %rbp
	.cfi_def_cfa_register %rbp
	subq	$32, %rsp
	movl	$502033294, -24(%rbp)   # imm = 0x1DEC6B8E
	movq	input, %rax
	cmpl	$0, 3584(%rax)
	je	.LBB6_17
# %bb.1:                                # %if.then
	movl	$0, -4(%rbp)
.LBB6_2:                                # %for.cond
                                        # =>This Loop Header: Depth=1
                                        #     Child Loop BB6_4 Depth 2
                                        #       Child Loop BB6_6 Depth 3
	cmpl	$13, -4(%rbp)
	jge	.LBB6_16
# %bb.3:                                # %for.body
                                        #   in Loop: Header=BB6_2 Depth=1
	movl	-4(%rbp), %eax
	addl	$16, %eax
	subl	$10, %eax
	movl	%eax, -20(%rbp)
	movl	$0, -12(%rbp)
.LBB6_4:                                # %for.cond1
                                        #   Parent Loop BB6_2 Depth=1
                                        # =>  This Loop Header: Depth=2
                                        #       Child Loop BB6_6 Depth 3
	cmpl	$8, -12(%rbp)
	jge	.LBB6_14
# %bb.5:                                # %for.body3
                                        #   in Loop: Header=BB6_4 Depth=2
	movl	$0, -8(%rbp)
.LBB6_6:                                # %for.cond4
                                        #   Parent Loop BB6_2 Depth=1
                                        #     Parent Loop BB6_4 Depth=2
                                        # =>    This Inner Loop Header: Depth=3
	cmpl	$8, -8(%rbp)
	jge	.LBB6_12
# %bb.7:                                # %for.body6
                                        #   in Loop: Header=BB6_6 Depth=3
	movl	-8(%rbp), %eax
	shll	$3, %eax
	addl	-12(%rbp), %eax
	movl	%eax, -16(%rbp)
	movq	img, %rax
	cmpl	$2, 24(%rax)
	jne	.LBB6_9
# %bb.8:                                # %if.then9
                                        #   in Loop: Header=BB6_6 Depth=3
	movslq	-16(%rbp), %rax
	movswl	OffsetList8x8input(,%rax,2), %eax
	movl	-20(%rbp), %ecx
                                        # kill: def $cl killed $ecx
	shll	%cl, %eax
	movslq	-4(%rbp), %rcx
	shlq	$8, %rcx
	movabsq	$LevelOffset8x8Luma_Intra, %rdx
	addq	%rcx, %rdx
	movslq	-12(%rbp), %rcx
	shlq	$5, %rcx
	addq	%rcx, %rdx
	movslq	-8(%rbp), %rcx
	movl	%eax, (%rdx,%rcx,4)
	jmp	.LBB6_10
.LBB6_9:                                # %if.else
                                        #   in Loop: Header=BB6_6 Depth=3
	movslq	-16(%rbp), %rax
	movswl	OffsetList8x8input+128(,%rax,2), %eax
	movl	-20(%rbp), %ecx
                                        # kill: def $cl killed $ecx
	shll	%cl, %eax
	movslq	-4(%rbp), %rcx
	shlq	$8, %rcx
	movabsq	$LevelOffset8x8Luma_Intra, %rdx
	addq	%rcx, %rdx
	movslq	-12(%rbp), %rcx
	shlq	$5, %rcx
	addq	%rcx, %rdx
	movslq	-8(%rbp), %rcx
	movl	%eax, (%rdx,%rcx,4)
.LBB6_10:                               # %if.end
                                        #   in Loop: Header=BB6_6 Depth=3
	movslq	-16(%rbp), %rax
	movswl	OffsetList8x8input+256(,%rax,2), %eax
	movl	-20(%rbp), %ecx
                                        # kill: def $cl killed $ecx
	shll	%cl, %eax
	movslq	-4(%rbp), %rcx
	shlq	$8, %rcx
	movabsq	$LevelOffset8x8Luma_Inter, %rdx
	addq	%rcx, %rdx
	movslq	-12(%rbp), %rcx
	shlq	$5, %rcx
	addq	%rcx, %rdx
	movslq	-8(%rbp), %rcx
	movl	%eax, (%rdx,%rcx,4)
# %bb.11:                               # %for.inc
                                        #   in Loop: Header=BB6_6 Depth=3
	movl	-8(%rbp), %eax
	addl	$1, %eax
	movl	%eax, -8(%rbp)
	jmp	.LBB6_6
.LBB6_12:                               # %for.end
                                        #   in Loop: Header=BB6_4 Depth=2
	jmp	.LBB6_13
.LBB6_13:                               # %for.inc37
                                        #   in Loop: Header=BB6_4 Depth=2
	movl	-12(%rbp), %eax
	addl	$1, %eax
	movl	%eax, -12(%rbp)
	jmp	.LBB6_4
.LBB6_14:                               # %for.end39
                                        #   in Loop: Header=BB6_2 Depth=1
	jmp	.LBB6_15
.LBB6_15:                               # %for.inc40
                                        #   in Loop: Header=BB6_2 Depth=1
	movl	-4(%rbp), %eax
	addl	$1, %eax
	movl	%eax, -4(%rbp)
	jmp	.LBB6_2
.LBB6_16:                               # %for.end42
	jmp	.LBB6_33
.LBB6_17:                               # %if.else43
	movl	$0, -4(%rbp)
.LBB6_18:                               # %for.cond44
                                        # =>This Loop Header: Depth=1
                                        #     Child Loop BB6_20 Depth 2
                                        #       Child Loop BB6_22 Depth 3
	cmpl	$13, -4(%rbp)
	jge	.LBB6_32
# %bb.19:                               # %for.body47
                                        #   in Loop: Header=BB6_18 Depth=1
	movl	-4(%rbp), %eax
	addl	$16, %eax
	subl	$10, %eax
	movl	%eax, -20(%rbp)
	movl	$0, -12(%rbp)
.LBB6_20:                               # %for.cond50
                                        #   Parent Loop BB6_18 Depth=1
                                        # =>  This Loop Header: Depth=2
                                        #       Child Loop BB6_22 Depth 3
	cmpl	$8, -12(%rbp)
	jge	.LBB6_30
# %bb.21:                               # %for.body53
                                        #   in Loop: Header=BB6_20 Depth=2
	movl	$0, -8(%rbp)
.LBB6_22:                               # %for.cond54
                                        #   Parent Loop BB6_18 Depth=1
                                        #     Parent Loop BB6_20 Depth=2
                                        # =>    This Inner Loop Header: Depth=3
	cmpl	$8, -8(%rbp)
	jge	.LBB6_28
# %bb.23:                               # %for.body57
                                        #   in Loop: Header=BB6_22 Depth=3
	movl	-8(%rbp), %eax
	shll	$3, %eax
	addl	-12(%rbp), %eax
	movl	%eax, -16(%rbp)
	movq	img, %rax
	cmpl	$2, 24(%rax)
	jne	.LBB6_25
# %bb.24:                               # %if.then63
                                        #   in Loop: Header=BB6_22 Depth=3
	movslq	-16(%rbp), %rax
	movswl	Offset8_intra_default_intra(,%rax,2), %eax
	movl	-20(%rbp), %ecx
                                        # kill: def $cl killed $ecx
	shll	%cl, %eax
	movslq	-4(%rbp), %rcx
	shlq	$8, %rcx
	movabsq	$LevelOffset8x8Luma_Intra, %rdx
	addq	%rcx, %rdx
	movslq	-12(%rbp), %rcx
	shlq	$5, %rcx
	addq	%rcx, %rdx
	movslq	-8(%rbp), %rcx
	movl	%eax, (%rdx,%rcx,4)
	jmp	.LBB6_26
.LBB6_25:                               # %if.else74
                                        #   in Loop: Header=BB6_22 Depth=3
	movslq	-16(%rbp), %rax
	movswl	Offset8_intra_default_inter(,%rax,2), %eax
	movl	-20(%rbp), %ecx
                                        # kill: def $cl killed $ecx
	shll	%cl, %eax
	movslq	-4(%rbp), %rcx
	shlq	$8, %rcx
	movabsq	$LevelOffset8x8Luma_Intra, %rdx
	addq	%rcx, %rdx
	movslq	-12(%rbp), %rcx
	shlq	$5, %rcx
	addq	%rcx, %rdx
	movslq	-8(%rbp), %rcx
	movl	%eax, (%rdx,%rcx,4)
.LBB6_26:                               # %if.end85
                                        #   in Loop: Header=BB6_22 Depth=3
	movslq	-16(%rbp), %rax
	movswl	Offset8_inter_default(,%rax,2), %eax
	movl	-20(%rbp), %ecx
                                        # kill: def $cl killed $ecx
	shll	%cl, %eax
	movslq	-4(%rbp), %rcx
	shlq	$8, %rcx
	movabsq	$LevelOffset8x8Luma_Inter, %rdx
	addq	%rcx, %rdx
	movslq	-12(%rbp), %rcx
	shlq	$5, %rcx
	addq	%rcx, %rdx
	movslq	-8(%rbp), %rcx
	movl	%eax, (%rdx,%rcx,4)
# %bb.27:                               # %for.inc96
                                        #   in Loop: Header=BB6_22 Depth=3
	movl	-8(%rbp), %eax
	addl	$1, %eax
	movl	%eax, -8(%rbp)
	jmp	.LBB6_22
.LBB6_28:                               # %for.end98
                                        #   in Loop: Header=BB6_20 Depth=2
	jmp	.LBB6_29
.LBB6_29:                               # %for.inc99
                                        #   in Loop: Header=BB6_20 Depth=2
	movl	-12(%rbp), %eax
	addl	$1, %eax
	movl	%eax, -12(%rbp)
	jmp	.LBB6_20
.LBB6_30:                               # %for.end101
                                        #   in Loop: Header=BB6_18 Depth=1
	jmp	.LBB6_31
.LBB6_31:                               # %for.inc102
                                        #   in Loop: Header=BB6_18 Depth=1
	movl	-4(%rbp), %eax
	addl	$1, %eax
	movl	%eax, -4(%rbp)
	jmp	.LBB6_18
.LBB6_32:                               # %for.end104
	jmp	.LBB6_33
.LBB6_33:                               # %if.end105
	cmpl	$502033294, -24(%rbp)   # imm = 0x1DEC6B8E
	jne	.LBB6_35
.LBB6_34:
	addq	$32, %rsp
	popq	%rbp
	.cfi_def_cfa %rsp, 8
	retq
.LBB6_35:                               # %func_exit
	.cfi_def_cfa %rbp, 16
	callq	detect_breach
	jmp	.LBB6_34
.Lfunc_end6:
	.size	CalculateOffset8Param.2, .Lfunc_end6-CalculateOffset8Param.2
	.cfi_endproc
                                        # -- End function
	.globl	CalculateOffsetParam.3  # -- Begin function CalculateOffsetParam.3
	.p2align	4, 0x90
	.type	CalculateOffsetParam.3,@function
CalculateOffsetParam.3:                 # @CalculateOffsetParam.3
	.cfi_startproc
# %bb.0:                                # %entry
	pushq	%rbp
	.cfi_def_cfa_offset 16
	.cfi_offset %rbp, -16
	movq	%rsp, %rbp
	.cfi_def_cfa_register %rbp
	subq	$32, %rsp
	movl	$1416519573, -24(%rbp)  # imm = 0x546E5F95
	movq	input, %rax
	cmpl	$0, 3584(%rax)
	je	.LBB7_17
# %bb.1:                                # %if.then
	movl	$0, -8(%rbp)
.LBB7_2:                                # %for.cond
                                        # =>This Loop Header: Depth=1
                                        #     Child Loop BB7_4 Depth 2
                                        #       Child Loop BB7_6 Depth 3
	cmpl	$13, -8(%rbp)
	jge	.LBB7_16
# %bb.3:                                # %for.body
                                        #   in Loop: Header=BB7_2 Depth=1
	movl	-8(%rbp), %eax
	addl	$15, %eax
	subl	$10, %eax
	movl	%eax, -20(%rbp)
	movl	$0, -4(%rbp)
.LBB7_4:                                # %for.cond1
                                        #   Parent Loop BB7_2 Depth=1
                                        # =>  This Loop Header: Depth=2
                                        #       Child Loop BB7_6 Depth 3
	cmpl	$4, -4(%rbp)
	jge	.LBB7_14
# %bb.5:                                # %for.body3
                                        #   in Loop: Header=BB7_4 Depth=2
	movl	$0, -12(%rbp)
.LBB7_6:                                # %for.cond4
                                        #   Parent Loop BB7_2 Depth=1
                                        #     Parent Loop BB7_4 Depth=2
                                        # =>    This Inner Loop Header: Depth=3
	cmpl	$4, -12(%rbp)
	jge	.LBB7_12
# %bb.7:                                # %for.body6
                                        #   in Loop: Header=BB7_6 Depth=3
	movl	-12(%rbp), %eax
	shll	$2, %eax
	addl	-4(%rbp), %eax
	movl	%eax, -16(%rbp)
	movq	img, %rax
	cmpl	$2, 24(%rax)
	jne	.LBB7_9
# %bb.8:                                # %if.then9
                                        #   in Loop: Header=BB7_6 Depth=3
	movabsq	$LevelOffset4x4Chroma_Intra, %rdx
	movq	%rdx, %rax
	addq	$832, %rax              # imm = 0x340
	movslq	-16(%rbp), %rcx
	movswl	OffsetList4x4input(,%rcx,2), %esi
	movl	-20(%rbp), %ecx
                                        # kill: def $cl killed $ecx
	shll	%cl, %esi
	movslq	-8(%rbp), %rcx
	shlq	$6, %rcx
	movabsq	$LevelOffset4x4Luma_Intra, %rdi
	addq	%rcx, %rdi
	movslq	-4(%rbp), %rcx
	shlq	$4, %rcx
	addq	%rcx, %rdi
	movslq	-12(%rbp), %rcx
	movl	%esi, (%rdi,%rcx,4)
	movslq	-16(%rbp), %rcx
	movswl	OffsetList4x4input+32(,%rcx,2), %esi
	movl	-20(%rbp), %ecx
                                        # kill: def $cl killed $ecx
	shll	%cl, %esi
	movslq	-8(%rbp), %rcx
	shlq	$6, %rcx
	addq	%rcx, %rdx
	movslq	-4(%rbp), %rcx
	shlq	$4, %rcx
	addq	%rcx, %rdx
	movslq	-12(%rbp), %rcx
	movl	%esi, (%rdx,%rcx,4)
	movslq	-16(%rbp), %rcx
	movswl	OffsetList4x4input+64(,%rcx,2), %edx
	movl	-20(%rbp), %ecx
                                        # kill: def $cl killed $ecx
	shll	%cl, %edx
	movslq	-8(%rbp), %rcx
	shlq	$6, %rcx
	addq	%rcx, %rax
	movslq	-4(%rbp), %rcx
	shlq	$4, %rcx
	addq	%rcx, %rax
	movslq	-12(%rbp), %rcx
	movl	%edx, (%rax,%rcx,4)
	jmp	.LBB7_10
.LBB7_9:                                # %if.else
                                        #   in Loop: Header=BB7_6 Depth=3
	movabsq	$LevelOffset4x4Chroma_Intra, %rdx
	movq	%rdx, %rax
	addq	$832, %rax              # imm = 0x340
	movslq	-16(%rbp), %rcx
	movswl	OffsetList4x4input+96(,%rcx,2), %esi
	movl	-20(%rbp), %ecx
                                        # kill: def $cl killed $ecx
	shll	%cl, %esi
	movslq	-8(%rbp), %rcx
	shlq	$6, %rcx
	movabsq	$LevelOffset4x4Luma_Intra, %rdi
	addq	%rcx, %rdi
	movslq	-4(%rbp), %rcx
	shlq	$4, %rcx
	addq	%rcx, %rdi
	movslq	-12(%rbp), %rcx
	movl	%esi, (%rdi,%rcx,4)
	movslq	-16(%rbp), %rcx
	movswl	OffsetList4x4input+128(,%rcx,2), %esi
	movl	-20(%rbp), %ecx
                                        # kill: def $cl killed $ecx
	shll	%cl, %esi
	movslq	-8(%rbp), %rcx
	shlq	$6, %rcx
	addq	%rcx, %rdx
	movslq	-4(%rbp), %rcx
	shlq	$4, %rcx
	addq	%rcx, %rdx
	movslq	-12(%rbp), %rcx
	movl	%esi, (%rdx,%rcx,4)
	movslq	-16(%rbp), %rcx
	movswl	OffsetList4x4input+160(,%rcx,2), %edx
	movl	-20(%rbp), %ecx
                                        # kill: def $cl killed $ecx
	shll	%cl, %edx
	movslq	-8(%rbp), %rcx
	shlq	$6, %rcx
	addq	%rcx, %rax
	movslq	-4(%rbp), %rcx
	shlq	$4, %rcx
	addq	%rcx, %rax
	movslq	-12(%rbp), %rcx
	movl	%edx, (%rax,%rcx,4)
.LBB7_10:                               # %if.end
                                        #   in Loop: Header=BB7_6 Depth=3
	movabsq	$LevelOffset4x4Chroma_Inter, %rdx
	movq	%rdx, %rax
	addq	$832, %rax              # imm = 0x340
	movslq	-16(%rbp), %rcx
	movswl	OffsetList4x4input+192(,%rcx,2), %esi
	movl	-20(%rbp), %ecx
                                        # kill: def $cl killed $ecx
	shll	%cl, %esi
	movslq	-8(%rbp), %rcx
	shlq	$6, %rcx
	movabsq	$LevelOffset4x4Luma_Inter, %rdi
	addq	%rcx, %rdi
	movslq	-4(%rbp), %rcx
	shlq	$4, %rcx
	addq	%rcx, %rdi
	movslq	-12(%rbp), %rcx
	movl	%esi, (%rdi,%rcx,4)
	movslq	-16(%rbp), %rcx
	movswl	OffsetList4x4input+224(,%rcx,2), %esi
	movl	-20(%rbp), %ecx
                                        # kill: def $cl killed $ecx
	shll	%cl, %esi
	movslq	-8(%rbp), %rcx
	shlq	$6, %rcx
	addq	%rcx, %rdx
	movslq	-4(%rbp), %rcx
	shlq	$4, %rcx
	addq	%rcx, %rdx
	movslq	-12(%rbp), %rcx
	movl	%esi, (%rdx,%rcx,4)
	movslq	-16(%rbp), %rcx
	movswl	OffsetList4x4input+256(,%rcx,2), %edx
	movl	-20(%rbp), %ecx
                                        # kill: def $cl killed $ecx
	shll	%cl, %edx
	movslq	-8(%rbp), %rcx
	shlq	$6, %rcx
	addq	%rcx, %rax
	movslq	-4(%rbp), %rcx
	shlq	$4, %rcx
	addq	%rcx, %rax
	movslq	-12(%rbp), %rcx
	movl	%edx, (%rax,%rcx,4)
# %bb.11:                               # %for.inc
                                        #   in Loop: Header=BB7_6 Depth=3
	movl	-12(%rbp), %eax
	addl	$1, %eax
	movl	%eax, -12(%rbp)
	jmp	.LBB7_6
.LBB7_12:                               # %for.end
                                        #   in Loop: Header=BB7_4 Depth=2
	jmp	.LBB7_13
.LBB7_13:                               # %for.inc97
                                        #   in Loop: Header=BB7_4 Depth=2
	movl	-4(%rbp), %eax
	addl	$1, %eax
	movl	%eax, -4(%rbp)
	jmp	.LBB7_4
.LBB7_14:                               # %for.end99
                                        #   in Loop: Header=BB7_2 Depth=1
	jmp	.LBB7_15
.LBB7_15:                               # %for.inc100
                                        #   in Loop: Header=BB7_2 Depth=1
	movl	-8(%rbp), %eax
	addl	$1, %eax
	movl	%eax, -8(%rbp)
	jmp	.LBB7_2
.LBB7_16:                               # %for.end102
	jmp	.LBB7_33
.LBB7_17:                               # %if.else103
	movl	$0, -8(%rbp)
.LBB7_18:                               # %for.cond104
                                        # =>This Loop Header: Depth=1
                                        #     Child Loop BB7_20 Depth 2
                                        #       Child Loop BB7_22 Depth 3
	cmpl	$13, -8(%rbp)
	jge	.LBB7_32
# %bb.19:                               # %for.body107
                                        #   in Loop: Header=BB7_18 Depth=1
	movl	-8(%rbp), %eax
	addl	$15, %eax
	subl	$10, %eax
	movl	%eax, -20(%rbp)
	movl	$0, -4(%rbp)
.LBB7_20:                               # %for.cond110
                                        #   Parent Loop BB7_18 Depth=1
                                        # =>  This Loop Header: Depth=2
                                        #       Child Loop BB7_22 Depth 3
	cmpl	$4, -4(%rbp)
	jge	.LBB7_30
# %bb.21:                               # %for.body113
                                        #   in Loop: Header=BB7_20 Depth=2
	movl	$0, -12(%rbp)
.LBB7_22:                               # %for.cond114
                                        #   Parent Loop BB7_18 Depth=1
                                        #     Parent Loop BB7_20 Depth=2
                                        # =>    This Inner Loop Header: Depth=3
	cmpl	$4, -12(%rbp)
	jge	.LBB7_28
# %bb.23:                               # %for.body117
                                        #   in Loop: Header=BB7_22 Depth=3
	movl	-12(%rbp), %eax
	shll	$2, %eax
	addl	-4(%rbp), %eax
	movl	%eax, -16(%rbp)
	movq	img, %rax
	cmpl	$2, 24(%rax)
	jne	.LBB7_25
# %bb.24:                               # %if.then123
                                        #   in Loop: Header=BB7_22 Depth=3
	movabsq	$LevelOffset4x4Chroma_Intra, %rdx
	movq	%rdx, %rax
	addq	$832, %rax              # imm = 0x340
	movslq	-16(%rbp), %rcx
	movswl	Offset_intra_default_intra(,%rcx,2), %esi
	movl	-20(%rbp), %ecx
                                        # kill: def $cl killed $ecx
	shll	%cl, %esi
	movslq	-8(%rbp), %rcx
	shlq	$6, %rcx
	movabsq	$LevelOffset4x4Luma_Intra, %rdi
	addq	%rcx, %rdi
	movslq	-4(%rbp), %rcx
	shlq	$4, %rcx
	addq	%rcx, %rdi
	movslq	-12(%rbp), %rcx
	movl	%esi, (%rdi,%rcx,4)
	movslq	-16(%rbp), %rcx
	movswl	Offset_intra_default_intra(,%rcx,2), %esi
	movl	-20(%rbp), %ecx
                                        # kill: def $cl killed $ecx
	shll	%cl, %esi
	movslq	-8(%rbp), %rcx
	shlq	$6, %rcx
	addq	%rcx, %rdx
	movslq	-4(%rbp), %rcx
	shlq	$4, %rcx
	addq	%rcx, %rdx
	movslq	-12(%rbp), %rcx
	movl	%esi, (%rdx,%rcx,4)
	movslq	-16(%rbp), %rcx
	movswl	Offset_intra_default_intra(,%rcx,2), %edx
	movl	-20(%rbp), %ecx
                                        # kill: def $cl killed $ecx
	shll	%cl, %edx
	movslq	-8(%rbp), %rcx
	shlq	$6, %rcx
	addq	%rcx, %rax
	movslq	-4(%rbp), %rcx
	shlq	$4, %rcx
	addq	%rcx, %rax
	movslq	-12(%rbp), %rcx
	movl	%edx, (%rax,%rcx,4)
	jmp	.LBB7_26
.LBB7_25:                               # %if.else154
                                        #   in Loop: Header=BB7_22 Depth=3
	movabsq	$LevelOffset4x4Chroma_Intra, %rdx
	movq	%rdx, %rax
	addq	$832, %rax              # imm = 0x340
	movslq	-16(%rbp), %rcx
	movswl	Offset_intra_default_inter(,%rcx,2), %esi
	movl	-20(%rbp), %ecx
                                        # kill: def $cl killed $ecx
	shll	%cl, %esi
	movslq	-8(%rbp), %rcx
	shlq	$6, %rcx
	movabsq	$LevelOffset4x4Luma_Intra, %rdi
	addq	%rcx, %rdi
	movslq	-4(%rbp), %rcx
	shlq	$4, %rcx
	addq	%rcx, %rdi
	movslq	-12(%rbp), %rcx
	movl	%esi, (%rdi,%rcx,4)
	movslq	-16(%rbp), %rcx
	movswl	Offset_intra_default_inter(,%rcx,2), %esi
	movl	-20(%rbp), %ecx
                                        # kill: def $cl killed $ecx
	shll	%cl, %esi
	movslq	-8(%rbp), %rcx
	shlq	$6, %rcx
	addq	%rcx, %rdx
	movslq	-4(%rbp), %rcx
	shlq	$4, %rcx
	addq	%rcx, %rdx
	movslq	-12(%rbp), %rcx
	movl	%esi, (%rdx,%rcx,4)
	movslq	-16(%rbp), %rcx
	movswl	Offset_intra_default_inter(,%rcx,2), %edx
	movl	-20(%rbp), %ecx
                                        # kill: def $cl killed $ecx
	shll	%cl, %edx
	movslq	-8(%rbp), %rcx
	shlq	$6, %rcx
	addq	%rcx, %rax
	movslq	-4(%rbp), %rcx
	shlq	$4, %rcx
	addq	%rcx, %rax
	movslq	-12(%rbp), %rcx
	movl	%edx, (%rax,%rcx,4)
.LBB7_26:                               # %if.end185
                                        #   in Loop: Header=BB7_22 Depth=3
	movabsq	$LevelOffset4x4Chroma_Inter, %rdx
	movq	%rdx, %rax
	addq	$832, %rax              # imm = 0x340
	movslq	-16(%rbp), %rcx
	movswl	Offset_inter_default(,%rcx,2), %esi
	movl	-20(%rbp), %ecx
                                        # kill: def $cl killed $ecx
	shll	%cl, %esi
	movslq	-8(%rbp), %rcx
	shlq	$6, %rcx
	movabsq	$LevelOffset4x4Luma_Inter, %rdi
	addq	%rcx, %rdi
	movslq	-4(%rbp), %rcx
	shlq	$4, %rcx
	addq	%rcx, %rdi
	movslq	-12(%rbp), %rcx
	movl	%esi, (%rdi,%rcx,4)
	movslq	-16(%rbp), %rcx
	movswl	Offset_inter_default(,%rcx,2), %esi
	movl	-20(%rbp), %ecx
                                        # kill: def $cl killed $ecx
	shll	%cl, %esi
	movslq	-8(%rbp), %rcx
	shlq	$6, %rcx
	addq	%rcx, %rdx
	movslq	-4(%rbp), %rcx
	shlq	$4, %rcx
	addq	%rcx, %rdx
	movslq	-12(%rbp), %rcx
	movl	%esi, (%rdx,%rcx,4)
	movslq	-16(%rbp), %rcx
	movswl	Offset_inter_default(,%rcx,2), %edx
	movl	-20(%rbp), %ecx
                                        # kill: def $cl killed $ecx
	shll	%cl, %edx
	movslq	-8(%rbp), %rcx
	shlq	$6, %rcx
	addq	%rcx, %rax
	movslq	-4(%rbp), %rcx
	shlq	$4, %rcx
	addq	%rcx, %rax
	movslq	-12(%rbp), %rcx
	movl	%edx, (%rax,%rcx,4)
# %bb.27:                               # %for.inc216
                                        #   in Loop: Header=BB7_22 Depth=3
	movl	-12(%rbp), %eax
	addl	$1, %eax
	movl	%eax, -12(%rbp)
	jmp	.LBB7_22
.LBB7_28:                               # %for.end218
                                        #   in Loop: Header=BB7_20 Depth=2
	jmp	.LBB7_29
.LBB7_29:                               # %for.inc219
                                        #   in Loop: Header=BB7_20 Depth=2
	movl	-4(%rbp), %eax
	addl	$1, %eax
	movl	%eax, -4(%rbp)
	jmp	.LBB7_20
.LBB7_30:                               # %for.end221
                                        #   in Loop: Header=BB7_18 Depth=1
	jmp	.LBB7_31
.LBB7_31:                               # %for.inc222
                                        #   in Loop: Header=BB7_18 Depth=1
	movl	-8(%rbp), %eax
	addl	$1, %eax
	movl	%eax, -8(%rbp)
	jmp	.LBB7_18
.LBB7_32:                               # %for.end224
	jmp	.LBB7_33
.LBB7_33:                               # %if.end225
	cmpl	$1416519573, -24(%rbp)  # imm = 0x546E5F95
	jne	.LBB7_35
.LBB7_34:
	addq	$32, %rsp
	popq	%rbp
	.cfi_def_cfa %rsp, 8
	retq
.LBB7_35:                               # %func_exit
	.cfi_def_cfa %rbp, 16
	callq	detect_breach
	jmp	.LBB7_34
.Lfunc_end7:
	.size	CalculateOffsetParam.3, .Lfunc_end7-CalculateOffsetParam.3
	.cfi_endproc
                                        # -- End function
	.globl	CalculateOffset8Param.4 # -- Begin function CalculateOffset8Param.4
	.p2align	4, 0x90
	.type	CalculateOffset8Param.4,@function
CalculateOffset8Param.4:                # @CalculateOffset8Param.4
	.cfi_startproc
# %bb.0:                                # %entry
	pushq	%rbp
	.cfi_def_cfa_offset 16
	.cfi_offset %rbp, -16
	movq	%rsp, %rbp
	.cfi_def_cfa_register %rbp
	subq	$32, %rsp
	movl	$279848908, -24(%rbp)   # imm = 0x10AE27CC
	movq	input, %rax
	cmpl	$0, 3584(%rax)
	je	.LBB8_17
# %bb.1:                                # %if.then
	movl	$0, -8(%rbp)
.LBB8_2:                                # %for.cond
                                        # =>This Loop Header: Depth=1
                                        #     Child Loop BB8_4 Depth 2
                                        #       Child Loop BB8_6 Depth 3
	cmpl	$13, -8(%rbp)
	jge	.LBB8_16
# %bb.3:                                # %for.body
                                        #   in Loop: Header=BB8_2 Depth=1
	movl	-8(%rbp), %eax
	addl	$16, %eax
	subl	$10, %eax
	movl	%eax, -20(%rbp)
	movl	$0, -4(%rbp)
.LBB8_4:                                # %for.cond1
                                        #   Parent Loop BB8_2 Depth=1
                                        # =>  This Loop Header: Depth=2
                                        #       Child Loop BB8_6 Depth 3
	cmpl	$8, -4(%rbp)
	jge	.LBB8_14
# %bb.5:                                # %for.body3
                                        #   in Loop: Header=BB8_4 Depth=2
	movl	$0, -12(%rbp)
.LBB8_6:                                # %for.cond4
                                        #   Parent Loop BB8_2 Depth=1
                                        #     Parent Loop BB8_4 Depth=2
                                        # =>    This Inner Loop Header: Depth=3
	cmpl	$8, -12(%rbp)
	jge	.LBB8_12
# %bb.7:                                # %for.body6
                                        #   in Loop: Header=BB8_6 Depth=3
	movl	-12(%rbp), %eax
	shll	$3, %eax
	addl	-4(%rbp), %eax
	movl	%eax, -16(%rbp)
	movq	img, %rax
	cmpl	$2, 24(%rax)
	jne	.LBB8_9
# %bb.8:                                # %if.then9
                                        #   in Loop: Header=BB8_6 Depth=3
	movslq	-16(%rbp), %rax
	movswl	OffsetList8x8input(,%rax,2), %eax
	movl	-20(%rbp), %ecx
                                        # kill: def $cl killed $ecx
	shll	%cl, %eax
	movslq	-8(%rbp), %rcx
	shlq	$8, %rcx
	movabsq	$LevelOffset8x8Luma_Intra, %rdx
	addq	%rcx, %rdx
	movslq	-4(%rbp), %rcx
	shlq	$5, %rcx
	addq	%rcx, %rdx
	movslq	-12(%rbp), %rcx
	movl	%eax, (%rdx,%rcx,4)
	jmp	.LBB8_10
.LBB8_9:                                # %if.else
                                        #   in Loop: Header=BB8_6 Depth=3
	movslq	-16(%rbp), %rax
	movswl	OffsetList8x8input+128(,%rax,2), %eax
	movl	-20(%rbp), %ecx
                                        # kill: def $cl killed $ecx
	shll	%cl, %eax
	movslq	-8(%rbp), %rcx
	shlq	$8, %rcx
	movabsq	$LevelOffset8x8Luma_Intra, %rdx
	addq	%rcx, %rdx
	movslq	-4(%rbp), %rcx
	shlq	$5, %rcx
	addq	%rcx, %rdx
	movslq	-12(%rbp), %rcx
	movl	%eax, (%rdx,%rcx,4)
.LBB8_10:                               # %if.end
                                        #   in Loop: Header=BB8_6 Depth=3
	movslq	-16(%rbp), %rax
	movswl	OffsetList8x8input+256(,%rax,2), %eax
	movl	-20(%rbp), %ecx
                                        # kill: def $cl killed $ecx
	shll	%cl, %eax
	movslq	-8(%rbp), %rcx
	shlq	$8, %rcx
	movabsq	$LevelOffset8x8Luma_Inter, %rdx
	addq	%rcx, %rdx
	movslq	-4(%rbp), %rcx
	shlq	$5, %rcx
	addq	%rcx, %rdx
	movslq	-12(%rbp), %rcx
	movl	%eax, (%rdx,%rcx,4)
# %bb.11:                               # %for.inc
                                        #   in Loop: Header=BB8_6 Depth=3
	movl	-12(%rbp), %eax
	addl	$1, %eax
	movl	%eax, -12(%rbp)
	jmp	.LBB8_6
.LBB8_12:                               # %for.end
                                        #   in Loop: Header=BB8_4 Depth=2
	jmp	.LBB8_13
.LBB8_13:                               # %for.inc37
                                        #   in Loop: Header=BB8_4 Depth=2
	movl	-4(%rbp), %eax
	addl	$1, %eax
	movl	%eax, -4(%rbp)
	jmp	.LBB8_4
.LBB8_14:                               # %for.end39
                                        #   in Loop: Header=BB8_2 Depth=1
	jmp	.LBB8_15
.LBB8_15:                               # %for.inc40
                                        #   in Loop: Header=BB8_2 Depth=1
	movl	-8(%rbp), %eax
	addl	$1, %eax
	movl	%eax, -8(%rbp)
	jmp	.LBB8_2
.LBB8_16:                               # %for.end42
	jmp	.LBB8_33
.LBB8_17:                               # %if.else43
	movl	$0, -8(%rbp)
.LBB8_18:                               # %for.cond44
                                        # =>This Loop Header: Depth=1
                                        #     Child Loop BB8_20 Depth 2
                                        #       Child Loop BB8_22 Depth 3
	cmpl	$13, -8(%rbp)
	jge	.LBB8_32
# %bb.19:                               # %for.body47
                                        #   in Loop: Header=BB8_18 Depth=1
	movl	-8(%rbp), %eax
	addl	$16, %eax
	subl	$10, %eax
	movl	%eax, -20(%rbp)
	movl	$0, -4(%rbp)
.LBB8_20:                               # %for.cond50
                                        #   Parent Loop BB8_18 Depth=1
                                        # =>  This Loop Header: Depth=2
                                        #       Child Loop BB8_22 Depth 3
	cmpl	$8, -4(%rbp)
	jge	.LBB8_30
# %bb.21:                               # %for.body53
                                        #   in Loop: Header=BB8_20 Depth=2
	movl	$0, -12(%rbp)
.LBB8_22:                               # %for.cond54
                                        #   Parent Loop BB8_18 Depth=1
                                        #     Parent Loop BB8_20 Depth=2
                                        # =>    This Inner Loop Header: Depth=3
	cmpl	$8, -12(%rbp)
	jge	.LBB8_28
# %bb.23:                               # %for.body57
                                        #   in Loop: Header=BB8_22 Depth=3
	movl	-12(%rbp), %eax
	shll	$3, %eax
	addl	-4(%rbp), %eax
	movl	%eax, -16(%rbp)
	movq	img, %rax
	cmpl	$2, 24(%rax)
	jne	.LBB8_25
# %bb.24:                               # %if.then63
                                        #   in Loop: Header=BB8_22 Depth=3
	movslq	-16(%rbp), %rax
	movswl	Offset8_intra_default_intra(,%rax,2), %eax
	movl	-20(%rbp), %ecx
                                        # kill: def $cl killed $ecx
	shll	%cl, %eax
	movslq	-8(%rbp), %rcx
	shlq	$8, %rcx
	movabsq	$LevelOffset8x8Luma_Intra, %rdx
	addq	%rcx, %rdx
	movslq	-4(%rbp), %rcx
	shlq	$5, %rcx
	addq	%rcx, %rdx
	movslq	-12(%rbp), %rcx
	movl	%eax, (%rdx,%rcx,4)
	jmp	.LBB8_26
.LBB8_25:                               # %if.else74
                                        #   in Loop: Header=BB8_22 Depth=3
	movslq	-16(%rbp), %rax
	movswl	Offset8_intra_default_inter(,%rax,2), %eax
	movl	-20(%rbp), %ecx
                                        # kill: def $cl killed $ecx
	shll	%cl, %eax
	movslq	-8(%rbp), %rcx
	shlq	$8, %rcx
	movabsq	$LevelOffset8x8Luma_Intra, %rdx
	addq	%rcx, %rdx
	movslq	-4(%rbp), %rcx
	shlq	$5, %rcx
	addq	%rcx, %rdx
	movslq	-12(%rbp), %rcx
	movl	%eax, (%rdx,%rcx,4)
.LBB8_26:                               # %if.end85
                                        #   in Loop: Header=BB8_22 Depth=3
	movslq	-16(%rbp), %rax
	movswl	Offset8_inter_default(,%rax,2), %eax
	movl	-20(%rbp), %ecx
                                        # kill: def $cl killed $ecx
	shll	%cl, %eax
	movslq	-8(%rbp), %rcx
	shlq	$8, %rcx
	movabsq	$LevelOffset8x8Luma_Inter, %rdx
	addq	%rcx, %rdx
	movslq	-4(%rbp), %rcx
	shlq	$5, %rcx
	addq	%rcx, %rdx
	movslq	-12(%rbp), %rcx
	movl	%eax, (%rdx,%rcx,4)
# %bb.27:                               # %for.inc96
                                        #   in Loop: Header=BB8_22 Depth=3
	movl	-12(%rbp), %eax
	addl	$1, %eax
	movl	%eax, -12(%rbp)
	jmp	.LBB8_22
.LBB8_28:                               # %for.end98
                                        #   in Loop: Header=BB8_20 Depth=2
	jmp	.LBB8_29
.LBB8_29:                               # %for.inc99
                                        #   in Loop: Header=BB8_20 Depth=2
	movl	-4(%rbp), %eax
	addl	$1, %eax
	movl	%eax, -4(%rbp)
	jmp	.LBB8_20
.LBB8_30:                               # %for.end101
                                        #   in Loop: Header=BB8_18 Depth=1
	jmp	.LBB8_31
.LBB8_31:                               # %for.inc102
                                        #   in Loop: Header=BB8_18 Depth=1
	movl	-8(%rbp), %eax
	addl	$1, %eax
	movl	%eax, -8(%rbp)
	jmp	.LBB8_18
.LBB8_32:                               # %for.end104
	jmp	.LBB8_33
.LBB8_33:                               # %if.end105
	cmpl	$279848908, -24(%rbp)   # imm = 0x10AE27CC
	jne	.LBB8_35
.LBB8_34:
	addq	$32, %rsp
	popq	%rbp
	.cfi_def_cfa %rsp, 8
	retq
.LBB8_35:                               # %func_exit
	.cfi_def_cfa %rbp, 16
	callq	detect_breach
	jmp	.LBB8_34
.Lfunc_end8:
	.size	CalculateOffset8Param.4, .Lfunc_end8-CalculateOffset8Param.4
	.cfi_endproc
                                        # -- End function
	.globl	ParseQOffsetMatrix.5    # -- Begin function ParseQOffsetMatrix.5
	.p2align	4, 0x90
	.type	ParseQOffsetMatrix.5,@function
ParseQOffsetMatrix.5:                   # @ParseQOffsetMatrix.5
	.cfi_startproc
# %bb.0:                                # %entry
	pushq	%rbp
	.cfi_def_cfa_offset 16
	.cfi_offset %rbp, -16
	movq	%rsp, %rbp
	.cfi_def_cfa_register %rbp
	subq	$8096, %rsp             # imm = 0x1FA0
	movl	$1685433035, -48(%rbp)  # imm = 0x6475AACB
	movq	%rdi, -72(%rbp)
	movl	%esi, -60(%rbp)
	movl	$0, -28(%rbp)
	movl	$0, -36(%rbp)
	movl	$0, -20(%rbp)
	movq	-72(%rbp), %rax
	movq	%rax, -16(%rbp)
	movq	-72(%rbp), %rax
	movslq	-60(%rbp), %rcx
	addq	%rcx, %rax
	movq	%rax, -80(%rbp)
.LBB9_1:                                # %while.cond
                                        # =>This Loop Header: Depth=1
                                        #     Child Loop BB9_6 Depth 2
	movq	-16(%rbp), %rax
	cmpq	-80(%rbp), %rax
	jae	.LBB9_25
# %bb.2:                                # %while.body
                                        #   in Loop: Header=BB9_1 Depth=1
	movq	-16(%rbp), %rax
	movsbl	(%rax), %eax
	addl	$-9, %eax
	movl	%eax, %ecx
	subl	$35, %ecx
	ja	.LBB9_21
# %bb.3:                                # %while.body
                                        #   in Loop: Header=BB9_1 Depth=1
	movq	.LJTI9_0(,%rax,8), %rax
	jmpq	*%rax
.LBB9_4:                                # %sw.bb
                                        #   in Loop: Header=BB9_1 Depth=1
	movq	-16(%rbp), %rax
	addq	$1, %rax
	movq	%rax, -16(%rbp)
	jmp	.LBB9_24
.LBB9_5:                                # %sw.bb1
                                        #   in Loop: Header=BB9_1 Depth=1
	movq	-16(%rbp), %rax
	movb	$0, (%rax)
.LBB9_6:                                # %while.cond2
                                        #   Parent Loop BB9_1 Depth=1
                                        # =>  This Inner Loop Header: Depth=2
	xorl	%eax, %eax
	movq	-16(%rbp), %rcx
	movsbl	(%rcx), %ecx
	cmpl	$10, %ecx
	je	.LBB9_8
# %bb.7:                                # %land.rhs
                                        #   in Loop: Header=BB9_6 Depth=2
	movq	-16(%rbp), %rax
	cmpq	-80(%rbp), %rax
	setb	%al
.LBB9_8:                                # %land.end
                                        #   in Loop: Header=BB9_6 Depth=2
	testb	$1, %al
	jne	.LBB9_9
	jmp	.LBB9_10
.LBB9_9:                                # %while.body8
                                        #   in Loop: Header=BB9_6 Depth=2
	movq	-16(%rbp), %rax
	addq	$1, %rax
	movq	%rax, -16(%rbp)
	jmp	.LBB9_6
.LBB9_10:                               # %while.end
                                        #   in Loop: Header=BB9_1 Depth=1
	movl	$0, -36(%rbp)
	movl	$0, -20(%rbp)
	jmp	.LBB9_24
.LBB9_11:                               # %sw.bb10
                                        #   in Loop: Header=BB9_1 Depth=1
	movl	$0, -20(%rbp)
	movl	$0, -36(%rbp)
	movq	-16(%rbp), %rax
	movq	%rax, %rcx
	addq	$1, %rcx
	movq	%rcx, -16(%rbp)
	movb	$0, (%rax)
	jmp	.LBB9_24
.LBB9_12:                               # %sw.bb12
                                        #   in Loop: Header=BB9_1 Depth=1
	cmpl	$0, -36(%rbp)
	je	.LBB9_14
# %bb.13:                               # %if.then
                                        #   in Loop: Header=BB9_1 Depth=1
	movq	-16(%rbp), %rax
	addq	$1, %rax
	movq	%rax, -16(%rbp)
	jmp	.LBB9_15
.LBB9_14:                               # %if.else
                                        #   in Loop: Header=BB9_1 Depth=1
	movq	-16(%rbp), %rax
	movq	%rax, %rcx
	addq	$1, %rcx
	movq	%rcx, -16(%rbp)
	movb	$0, (%rax)
	movl	$0, -20(%rbp)
.LBB9_15:                               # %if.end
                                        #   in Loop: Header=BB9_1 Depth=1
	jmp	.LBB9_24
.LBB9_16:                               # %sw.bb15
                                        #   in Loop: Header=BB9_1 Depth=1
	movq	-16(%rbp), %rax
	movq	%rax, %rcx
	addq	$1, %rcx
	movq	%rcx, -16(%rbp)
	movb	$0, (%rax)
	cmpl	$0, -36(%rbp)
	jne	.LBB9_18
# %bb.17:                               # %if.then18
                                        #   in Loop: Header=BB9_1 Depth=1
	movq	-16(%rbp), %rax
	movl	-28(%rbp), %ecx
	movl	%ecx, %edx
	addl	$1, %edx
	movl	%edx, -28(%rbp)
	movslq	%ecx, %rcx
	movq	%rax, -8096(%rbp,%rcx,8)
	movl	-20(%rbp), %eax
	xorl	$-1, %eax
	movl	%eax, -20(%rbp)
	jmp	.LBB9_19
.LBB9_18:                               # %if.else21
                                        #   in Loop: Header=BB9_1 Depth=1
	movl	$0, -20(%rbp)
.LBB9_19:                               # %if.end22
                                        #   in Loop: Header=BB9_1 Depth=1
	movl	-36(%rbp), %eax
	xorl	$-1, %eax
	movl	%eax, -36(%rbp)
	jmp	.LBB9_24
.LBB9_20:                               # %sw.bb24
                                        #   in Loop: Header=BB9_1 Depth=1
	movq	-16(%rbp), %rax
	addq	$1, %rax
	movq	%rax, -16(%rbp)
	movl	$0, -20(%rbp)
	jmp	.LBB9_24
.LBB9_21:                               # %sw.default
                                        #   in Loop: Header=BB9_1 Depth=1
	cmpl	$0, -20(%rbp)
	jne	.LBB9_23
# %bb.22:                               # %if.then27
                                        #   in Loop: Header=BB9_1 Depth=1
	movq	-16(%rbp), %rax
	movl	-28(%rbp), %ecx
	movl	%ecx, %edx
	addl	$1, %edx
	movl	%edx, -28(%rbp)
	movslq	%ecx, %rcx
	movq	%rax, -8096(%rbp,%rcx,8)
	movl	-20(%rbp), %eax
	xorl	$-1, %eax
	movl	%eax, -20(%rbp)
.LBB9_23:                               # %if.end32
                                        #   in Loop: Header=BB9_1 Depth=1
	movq	-16(%rbp), %rax
	addq	$1, %rax
	movq	%rax, -16(%rbp)
.LBB9_24:                               # %sw.epilog
                                        #   in Loop: Header=BB9_1 Depth=1
	jmp	.LBB9_1
.LBB9_25:                               # %while.end34
	movl	-28(%rbp), %eax
	addl	$-1, %eax
	movl	%eax, -28(%rbp)
	movl	$0, -24(%rbp)
.LBB9_26:                               # %for.cond
                                        # =>This Loop Header: Depth=1
                                        #     Child Loop BB9_35 Depth 2
	movl	-24(%rbp), %eax
	cmpl	-28(%rbp), %eax
	jge	.LBB9_42
# %bb.27:                               # %for.body
                                        #   in Loop: Header=BB9_26 Depth=1
	movl	$0, -4(%rbp)
	movl	-24(%rbp), %eax
	addl	-4(%rbp), %eax
	cltq
	movq	-8096(%rbp,%rax,8), %rdi
	leaq	-52(%rbp), %rsi
	callq	CheckOffsetParameterName
	xorl	%ecx, %ecx
	movl	%eax, -40(%rbp)
	cmpl	%eax, %ecx
	jle	.LBB9_29
# %bb.28:                               # %if.then41
                                        #   in Loop: Header=BB9_26 Depth=1
	movl	-24(%rbp), %eax
	addl	-4(%rbp), %eax
	cltq
	movq	-8096(%rbp,%rax,8), %rcx
	movabsq	$errortext, %rdi
	movl	$300, %esi              # imm = 0x12C
	movabsq	$.L.str, %rdx
	movb	$0, %al
	callq	snprintf
	movabsq	$errortext, %rdi
	movl	$300, %esi              # imm = 0x12C
	callq	error
.LBB9_29:                               # %if.end46
                                        #   in Loop: Header=BB9_26 Depth=1
	movl	-4(%rbp), %eax
	addl	$1, %eax
	movl	%eax, -4(%rbp)
	movl	-24(%rbp), %eax
	addl	-4(%rbp), %eax
	cltq
	movq	-8096(%rbp,%rax,8), %rsi
	movl	$.L.str.1, %edi
	callq	strcmp
	cmpl	$0, %eax
	je	.LBB9_31
# %bb.30:                               # %if.then53
                                        #   in Loop: Header=BB9_26 Depth=1
	movabsq	$errortext, %rdi
	movl	$300, %esi              # imm = 0x12C
	movabsq	$.L.str.2, %rdx
	movb	$0, %al
	callq	snprintf
	movabsq	$errortext, %rdi
	movl	$300, %esi              # imm = 0x12C
	callq	error
.LBB9_31:                               # %if.end55
                                        #   in Loop: Header=BB9_26 Depth=1
	movl	-4(%rbp), %eax
	addl	$1, %eax
	movl	%eax, -4(%rbp)
	cmpl	$0, -52(%rbp)
	jne	.LBB9_33
# %bb.32:                               # %if.then58
                                        #   in Loop: Header=BB9_26 Depth=1
	movl	$16, -44(%rbp)
	movslq	-40(%rbp), %rax
	shlq	$5, %rax
	movabsq	$OffsetList4x4input, %rcx
	addq	%rax, %rcx
	movq	%rcx, -88(%rbp)
	movslq	-40(%rbp), %rax
	movl	$1, offset4x4_check(,%rax,4)
	jmp	.LBB9_34
.LBB9_33:                               # %if.else63
                                        #   in Loop: Header=BB9_26 Depth=1
	movl	$64, -44(%rbp)
	movslq	-40(%rbp), %rax
	shlq	$7, %rax
	movabsq	$OffsetList8x8input, %rcx
	addq	%rax, %rcx
	movq	%rcx, -88(%rbp)
	movslq	-40(%rbp), %rax
	movl	$1, offset8x8_check(,%rax,4)
.LBB9_34:                               # %if.end69
                                        #   in Loop: Header=BB9_26 Depth=1
	movl	$0, -32(%rbp)
.LBB9_35:                               # %for.cond70
                                        #   Parent Loop BB9_26 Depth=1
                                        # =>  This Inner Loop Header: Depth=2
	movl	-32(%rbp), %eax
	cmpl	-44(%rbp), %eax
	jge	.LBB9_40
# %bb.36:                               # %for.body73
                                        #   in Loop: Header=BB9_35 Depth=2
	movl	-24(%rbp), %eax
	addl	-4(%rbp), %eax
	addl	-32(%rbp), %eax
	cltq
	movq	-8096(%rbp,%rax,8), %rdi
	movabsq	$.L.str.3, %rsi
	leaq	-56(%rbp), %rdx
	movb	$0, %al
	callq	__isoc99_sscanf
	movl	$1, %ecx
	cmpl	%eax, %ecx
	je	.LBB9_38
# %bb.37:                               # %if.then81
                                        #   in Loop: Header=BB9_35 Depth=2
	movslq	-24(%rbp), %rax
	movq	-8096(%rbp,%rax,8), %rcx
	movl	-24(%rbp), %eax
	addl	-4(%rbp), %eax
	addl	-32(%rbp), %eax
	cltq
	movq	-8096(%rbp,%rax,8), %r8
	movabsq	$errortext, %rdi
	movl	$300, %esi              # imm = 0x12C
	movabsq	$.L.str.4, %rdx
	movb	$0, %al
	callq	snprintf
	movabsq	$errortext, %rdi
	movl	$300, %esi              # imm = 0x12C
	callq	error
.LBB9_38:                               # %if.end89
                                        #   in Loop: Header=BB9_35 Depth=2
	movl	-56(%rbp), %eax
	movq	-88(%rbp), %rcx
	movslq	-32(%rbp), %rdx
	movw	%ax, (%rcx,%rdx,2)
# %bb.39:                               # %for.inc
                                        #   in Loop: Header=BB9_35 Depth=2
	movl	-32(%rbp), %eax
	addl	$1, %eax
	movl	%eax, -32(%rbp)
	jmp	.LBB9_35
.LBB9_40:                               # %for.end
                                        #   in Loop: Header=BB9_26 Depth=1
	movl	-32(%rbp), %eax
	addl	-4(%rbp), %eax
	movl	%eax, -4(%rbp)
	movabsq	$.L.str.5, %rdi
	movb	$0, %al
	callq	printf
# %bb.41:                               # %for.inc96
                                        #   in Loop: Header=BB9_26 Depth=1
	movl	-4(%rbp), %eax
	addl	-24(%rbp), %eax
	movl	%eax, -24(%rbp)
	jmp	.LBB9_26
.LBB9_42:                               # %for.end98
	cmpl	$1685433035, -48(%rbp)  # imm = 0x6475AACB
	jne	.LBB9_44
.LBB9_43:
	addq	$8096, %rsp             # imm = 0x1FA0
	popq	%rbp
	.cfi_def_cfa %rsp, 8
	retq
.LBB9_44:                               # %func_exit
	.cfi_def_cfa %rbp, 16
	callq	detect_breach
	jmp	.LBB9_43
.Lfunc_end9:
	.size	ParseQOffsetMatrix.5, .Lfunc_end9-ParseQOffsetMatrix.5
	.cfi_endproc
	.section	.rodata,"a",@progbits
	.p2align	3
.LJTI9_0:
	.quad	.LBB9_12
	.quad	.LBB9_11
	.quad	.LBB9_21
	.quad	.LBB9_21
	.quad	.LBB9_4
	.quad	.LBB9_21
	.quad	.LBB9_21
	.quad	.LBB9_21
	.quad	.LBB9_21
	.quad	.LBB9_21
	.quad	.LBB9_21
	.quad	.LBB9_21
	.quad	.LBB9_21
	.quad	.LBB9_21
	.quad	.LBB9_21
	.quad	.LBB9_21
	.quad	.LBB9_21
	.quad	.LBB9_21
	.quad	.LBB9_21
	.quad	.LBB9_21
	.quad	.LBB9_21
	.quad	.LBB9_21
	.quad	.LBB9_21
	.quad	.LBB9_12
	.quad	.LBB9_21
	.quad	.LBB9_16
	.quad	.LBB9_5
	.quad	.LBB9_21
	.quad	.LBB9_21
	.quad	.LBB9_21
	.quad	.LBB9_21
	.quad	.LBB9_21
	.quad	.LBB9_21
	.quad	.LBB9_21
	.quad	.LBB9_21
	.quad	.LBB9_20
                                        # -- End function
	.text
	.globl	CalculateOffset8Param.6 # -- Begin function CalculateOffset8Param.6
	.p2align	4, 0x90
	.type	CalculateOffset8Param.6,@function
CalculateOffset8Param.6:                # @CalculateOffset8Param.6
	.cfi_startproc
# %bb.0:                                # %entry
	pushq	%rbp
	.cfi_def_cfa_offset 16
	.cfi_offset %rbp, -16
	movq	%rsp, %rbp
	.cfi_def_cfa_register %rbp
	subq	$32, %rsp
	movl	$1406408286, -24(%rbp)  # imm = 0x53D4165E
	movq	input, %rax
	cmpl	$0, 3584(%rax)
	je	.LBB10_17
# %bb.1:                                # %if.then
	movl	$0, -12(%rbp)
.LBB10_2:                               # %for.cond
                                        # =>This Loop Header: Depth=1
                                        #     Child Loop BB10_4 Depth 2
                                        #       Child Loop BB10_6 Depth 3
	cmpl	$13, -12(%rbp)
	jge	.LBB10_16
# %bb.3:                                # %for.body
                                        #   in Loop: Header=BB10_2 Depth=1
	movl	-12(%rbp), %eax
	addl	$16, %eax
	subl	$10, %eax
	movl	%eax, -20(%rbp)
	movl	$0, -8(%rbp)
.LBB10_4:                               # %for.cond1
                                        #   Parent Loop BB10_2 Depth=1
                                        # =>  This Loop Header: Depth=2
                                        #       Child Loop BB10_6 Depth 3
	cmpl	$8, -8(%rbp)
	jge	.LBB10_14
# %bb.5:                                # %for.body3
                                        #   in Loop: Header=BB10_4 Depth=2
	movl	$0, -4(%rbp)
.LBB10_6:                               # %for.cond4
                                        #   Parent Loop BB10_2 Depth=1
                                        #     Parent Loop BB10_4 Depth=2
                                        # =>    This Inner Loop Header: Depth=3
	cmpl	$8, -4(%rbp)
	jge	.LBB10_12
# %bb.7:                                # %for.body6
                                        #   in Loop: Header=BB10_6 Depth=3
	movl	-4(%rbp), %eax
	shll	$3, %eax
	addl	-8(%rbp), %eax
	movl	%eax, -16(%rbp)
	movq	img, %rax
	cmpl	$2, 24(%rax)
	jne	.LBB10_9
# %bb.8:                                # %if.then9
                                        #   in Loop: Header=BB10_6 Depth=3
	movslq	-16(%rbp), %rax
	movswl	OffsetList8x8input(,%rax,2), %eax
	movl	-20(%rbp), %ecx
                                        # kill: def $cl killed $ecx
	shll	%cl, %eax
	movslq	-12(%rbp), %rcx
	shlq	$8, %rcx
	movabsq	$LevelOffset8x8Luma_Intra, %rdx
	addq	%rcx, %rdx
	movslq	-8(%rbp), %rcx
	shlq	$5, %rcx
	addq	%rcx, %rdx
	movslq	-4(%rbp), %rcx
	movl	%eax, (%rdx,%rcx,4)
	jmp	.LBB10_10
.LBB10_9:                               # %if.else
                                        #   in Loop: Header=BB10_6 Depth=3
	movslq	-16(%rbp), %rax
	movswl	OffsetList8x8input+128(,%rax,2), %eax
	movl	-20(%rbp), %ecx
                                        # kill: def $cl killed $ecx
	shll	%cl, %eax
	movslq	-12(%rbp), %rcx
	shlq	$8, %rcx
	movabsq	$LevelOffset8x8Luma_Intra, %rdx
	addq	%rcx, %rdx
	movslq	-8(%rbp), %rcx
	shlq	$5, %rcx
	addq	%rcx, %rdx
	movslq	-4(%rbp), %rcx
	movl	%eax, (%rdx,%rcx,4)
.LBB10_10:                              # %if.end
                                        #   in Loop: Header=BB10_6 Depth=3
	movslq	-16(%rbp), %rax
	movswl	OffsetList8x8input+256(,%rax,2), %eax
	movl	-20(%rbp), %ecx
                                        # kill: def $cl killed $ecx
	shll	%cl, %eax
	movslq	-12(%rbp), %rcx
	shlq	$8, %rcx
	movabsq	$LevelOffset8x8Luma_Inter, %rdx
	addq	%rcx, %rdx
	movslq	-8(%rbp), %rcx
	shlq	$5, %rcx
	addq	%rcx, %rdx
	movslq	-4(%rbp), %rcx
	movl	%eax, (%rdx,%rcx,4)
# %bb.11:                               # %for.inc
                                        #   in Loop: Header=BB10_6 Depth=3
	movl	-4(%rbp), %eax
	addl	$1, %eax
	movl	%eax, -4(%rbp)
	jmp	.LBB10_6
.LBB10_12:                              # %for.end
                                        #   in Loop: Header=BB10_4 Depth=2
	jmp	.LBB10_13
.LBB10_13:                              # %for.inc37
                                        #   in Loop: Header=BB10_4 Depth=2
	movl	-8(%rbp), %eax
	addl	$1, %eax
	movl	%eax, -8(%rbp)
	jmp	.LBB10_4
.LBB10_14:                              # %for.end39
                                        #   in Loop: Header=BB10_2 Depth=1
	jmp	.LBB10_15
.LBB10_15:                              # %for.inc40
                                        #   in Loop: Header=BB10_2 Depth=1
	movl	-12(%rbp), %eax
	addl	$1, %eax
	movl	%eax, -12(%rbp)
	jmp	.LBB10_2
.LBB10_16:                              # %for.end42
	jmp	.LBB10_33
.LBB10_17:                              # %if.else43
	movl	$0, -12(%rbp)
.LBB10_18:                              # %for.cond44
                                        # =>This Loop Header: Depth=1
                                        #     Child Loop BB10_20 Depth 2
                                        #       Child Loop BB10_22 Depth 3
	cmpl	$13, -12(%rbp)
	jge	.LBB10_32
# %bb.19:                               # %for.body47
                                        #   in Loop: Header=BB10_18 Depth=1
	movl	-12(%rbp), %eax
	addl	$16, %eax
	subl	$10, %eax
	movl	%eax, -20(%rbp)
	movl	$0, -8(%rbp)
.LBB10_20:                              # %for.cond50
                                        #   Parent Loop BB10_18 Depth=1
                                        # =>  This Loop Header: Depth=2
                                        #       Child Loop BB10_22 Depth 3
	cmpl	$8, -8(%rbp)
	jge	.LBB10_30
# %bb.21:                               # %for.body53
                                        #   in Loop: Header=BB10_20 Depth=2
	movl	$0, -4(%rbp)
.LBB10_22:                              # %for.cond54
                                        #   Parent Loop BB10_18 Depth=1
                                        #     Parent Loop BB10_20 Depth=2
                                        # =>    This Inner Loop Header: Depth=3
	cmpl	$8, -4(%rbp)
	jge	.LBB10_28
# %bb.23:                               # %for.body57
                                        #   in Loop: Header=BB10_22 Depth=3
	movl	-4(%rbp), %eax
	shll	$3, %eax
	addl	-8(%rbp), %eax
	movl	%eax, -16(%rbp)
	movq	img, %rax
	cmpl	$2, 24(%rax)
	jne	.LBB10_25
# %bb.24:                               # %if.then63
                                        #   in Loop: Header=BB10_22 Depth=3
	movslq	-16(%rbp), %rax
	movswl	Offset8_intra_default_intra(,%rax,2), %eax
	movl	-20(%rbp), %ecx
                                        # kill: def $cl killed $ecx
	shll	%cl, %eax
	movslq	-12(%rbp), %rcx
	shlq	$8, %rcx
	movabsq	$LevelOffset8x8Luma_Intra, %rdx
	addq	%rcx, %rdx
	movslq	-8(%rbp), %rcx
	shlq	$5, %rcx
	addq	%rcx, %rdx
	movslq	-4(%rbp), %rcx
	movl	%eax, (%rdx,%rcx,4)
	jmp	.LBB10_26
.LBB10_25:                              # %if.else74
                                        #   in Loop: Header=BB10_22 Depth=3
	movslq	-16(%rbp), %rax
	movswl	Offset8_intra_default_inter(,%rax,2), %eax
	movl	-20(%rbp), %ecx
                                        # kill: def $cl killed $ecx
	shll	%cl, %eax
	movslq	-12(%rbp), %rcx
	shlq	$8, %rcx
	movabsq	$LevelOffset8x8Luma_Intra, %rdx
	addq	%rcx, %rdx
	movslq	-8(%rbp), %rcx
	shlq	$5, %rcx
	addq	%rcx, %rdx
	movslq	-4(%rbp), %rcx
	movl	%eax, (%rdx,%rcx,4)
.LBB10_26:                              # %if.end85
                                        #   in Loop: Header=BB10_22 Depth=3
	movslq	-16(%rbp), %rax
	movswl	Offset8_inter_default(,%rax,2), %eax
	movl	-20(%rbp), %ecx
                                        # kill: def $cl killed $ecx
	shll	%cl, %eax
	movslq	-12(%rbp), %rcx
	shlq	$8, %rcx
	movabsq	$LevelOffset8x8Luma_Inter, %rdx
	addq	%rcx, %rdx
	movslq	-8(%rbp), %rcx
	shlq	$5, %rcx
	addq	%rcx, %rdx
	movslq	-4(%rbp), %rcx
	movl	%eax, (%rdx,%rcx,4)
# %bb.27:                               # %for.inc96
                                        #   in Loop: Header=BB10_22 Depth=3
	movl	-4(%rbp), %eax
	addl	$1, %eax
	movl	%eax, -4(%rbp)
	jmp	.LBB10_22
.LBB10_28:                              # %for.end98
                                        #   in Loop: Header=BB10_20 Depth=2
	jmp	.LBB10_29
.LBB10_29:                              # %for.inc99
                                        #   in Loop: Header=BB10_20 Depth=2
	movl	-8(%rbp), %eax
	addl	$1, %eax
	movl	%eax, -8(%rbp)
	jmp	.LBB10_20
.LBB10_30:                              # %for.end101
                                        #   in Loop: Header=BB10_18 Depth=1
	jmp	.LBB10_31
.LBB10_31:                              # %for.inc102
                                        #   in Loop: Header=BB10_18 Depth=1
	movl	-12(%rbp), %eax
	addl	$1, %eax
	movl	%eax, -12(%rbp)
	jmp	.LBB10_18
.LBB10_32:                              # %for.end104
	jmp	.LBB10_33
.LBB10_33:                              # %if.end105
	cmpl	$1406408286, -24(%rbp)  # imm = 0x53D4165E
	jne	.LBB10_35
.LBB10_34:
	addq	$32, %rsp
	popq	%rbp
	.cfi_def_cfa %rsp, 8
	retq
.LBB10_35:                              # %func_exit
	.cfi_def_cfa %rbp, 16
	callq	detect_breach
	jmp	.LBB10_34
.Lfunc_end10:
	.size	CalculateOffset8Param.6, .Lfunc_end10-CalculateOffset8Param.6
	.cfi_endproc
                                        # -- End function
	.globl	CalculateOffset8Param.7 # -- Begin function CalculateOffset8Param.7
	.p2align	4, 0x90
	.type	CalculateOffset8Param.7,@function
CalculateOffset8Param.7:                # @CalculateOffset8Param.7
	.cfi_startproc
# %bb.0:                                # %entry
	pushq	%rbp
	.cfi_def_cfa_offset 16
	.cfi_offset %rbp, -16
	movq	%rsp, %rbp
	.cfi_def_cfa_register %rbp
	subq	$32, %rsp
	movl	$1499247681, -24(%rbp)  # imm = 0x595CB441
	movq	input, %rax
	cmpl	$0, 3584(%rax)
	je	.LBB11_17
# %bb.1:                                # %if.then
	movl	$0, -12(%rbp)
.LBB11_2:                               # %for.cond
                                        # =>This Loop Header: Depth=1
                                        #     Child Loop BB11_4 Depth 2
                                        #       Child Loop BB11_6 Depth 3
	cmpl	$13, -12(%rbp)
	jge	.LBB11_16
# %bb.3:                                # %for.body
                                        #   in Loop: Header=BB11_2 Depth=1
	movl	-12(%rbp), %eax
	addl	$16, %eax
	subl	$10, %eax
	movl	%eax, -16(%rbp)
	movl	$0, -8(%rbp)
.LBB11_4:                               # %for.cond1
                                        #   Parent Loop BB11_2 Depth=1
                                        # =>  This Loop Header: Depth=2
                                        #       Child Loop BB11_6 Depth 3
	cmpl	$8, -8(%rbp)
	jge	.LBB11_14
# %bb.5:                                # %for.body3
                                        #   in Loop: Header=BB11_4 Depth=2
	movl	$0, -4(%rbp)
.LBB11_6:                               # %for.cond4
                                        #   Parent Loop BB11_2 Depth=1
                                        #     Parent Loop BB11_4 Depth=2
                                        # =>    This Inner Loop Header: Depth=3
	cmpl	$8, -4(%rbp)
	jge	.LBB11_12
# %bb.7:                                # %for.body6
                                        #   in Loop: Header=BB11_6 Depth=3
	movl	-4(%rbp), %eax
	shll	$3, %eax
	addl	-8(%rbp), %eax
	movl	%eax, -20(%rbp)
	movq	img, %rax
	cmpl	$2, 24(%rax)
	jne	.LBB11_9
# %bb.8:                                # %if.then9
                                        #   in Loop: Header=BB11_6 Depth=3
	movslq	-20(%rbp), %rax
	movswl	OffsetList8x8input(,%rax,2), %eax
	movl	-16(%rbp), %ecx
                                        # kill: def $cl killed $ecx
	shll	%cl, %eax
	movslq	-12(%rbp), %rcx
	shlq	$8, %rcx
	movabsq	$LevelOffset8x8Luma_Intra, %rdx
	addq	%rcx, %rdx
	movslq	-8(%rbp), %rcx
	shlq	$5, %rcx
	addq	%rcx, %rdx
	movslq	-4(%rbp), %rcx
	movl	%eax, (%rdx,%rcx,4)
	jmp	.LBB11_10
.LBB11_9:                               # %if.else
                                        #   in Loop: Header=BB11_6 Depth=3
	movslq	-20(%rbp), %rax
	movswl	OffsetList8x8input+128(,%rax,2), %eax
	movl	-16(%rbp), %ecx
                                        # kill: def $cl killed $ecx
	shll	%cl, %eax
	movslq	-12(%rbp), %rcx
	shlq	$8, %rcx
	movabsq	$LevelOffset8x8Luma_Intra, %rdx
	addq	%rcx, %rdx
	movslq	-8(%rbp), %rcx
	shlq	$5, %rcx
	addq	%rcx, %rdx
	movslq	-4(%rbp), %rcx
	movl	%eax, (%rdx,%rcx,4)
.LBB11_10:                              # %if.end
                                        #   in Loop: Header=BB11_6 Depth=3
	movslq	-20(%rbp), %rax
	movswl	OffsetList8x8input+256(,%rax,2), %eax
	movl	-16(%rbp), %ecx
                                        # kill: def $cl killed $ecx
	shll	%cl, %eax
	movslq	-12(%rbp), %rcx
	shlq	$8, %rcx
	movabsq	$LevelOffset8x8Luma_Inter, %rdx
	addq	%rcx, %rdx
	movslq	-8(%rbp), %rcx
	shlq	$5, %rcx
	addq	%rcx, %rdx
	movslq	-4(%rbp), %rcx
	movl	%eax, (%rdx,%rcx,4)
# %bb.11:                               # %for.inc
                                        #   in Loop: Header=BB11_6 Depth=3
	movl	-4(%rbp), %eax
	addl	$1, %eax
	movl	%eax, -4(%rbp)
	jmp	.LBB11_6
.LBB11_12:                              # %for.end
                                        #   in Loop: Header=BB11_4 Depth=2
	jmp	.LBB11_13
.LBB11_13:                              # %for.inc37
                                        #   in Loop: Header=BB11_4 Depth=2
	movl	-8(%rbp), %eax
	addl	$1, %eax
	movl	%eax, -8(%rbp)
	jmp	.LBB11_4
.LBB11_14:                              # %for.end39
                                        #   in Loop: Header=BB11_2 Depth=1
	jmp	.LBB11_15
.LBB11_15:                              # %for.inc40
                                        #   in Loop: Header=BB11_2 Depth=1
	movl	-12(%rbp), %eax
	addl	$1, %eax
	movl	%eax, -12(%rbp)
	jmp	.LBB11_2
.LBB11_16:                              # %for.end42
	jmp	.LBB11_33
.LBB11_17:                              # %if.else43
	movl	$0, -12(%rbp)
.LBB11_18:                              # %for.cond44
                                        # =>This Loop Header: Depth=1
                                        #     Child Loop BB11_20 Depth 2
                                        #       Child Loop BB11_22 Depth 3
	cmpl	$13, -12(%rbp)
	jge	.LBB11_32
# %bb.19:                               # %for.body47
                                        #   in Loop: Header=BB11_18 Depth=1
	movl	-12(%rbp), %eax
	addl	$16, %eax
	subl	$10, %eax
	movl	%eax, -16(%rbp)
	movl	$0, -8(%rbp)
.LBB11_20:                              # %for.cond50
                                        #   Parent Loop BB11_18 Depth=1
                                        # =>  This Loop Header: Depth=2
                                        #       Child Loop BB11_22 Depth 3
	cmpl	$8, -8(%rbp)
	jge	.LBB11_30
# %bb.21:                               # %for.body53
                                        #   in Loop: Header=BB11_20 Depth=2
	movl	$0, -4(%rbp)
.LBB11_22:                              # %for.cond54
                                        #   Parent Loop BB11_18 Depth=1
                                        #     Parent Loop BB11_20 Depth=2
                                        # =>    This Inner Loop Header: Depth=3
	cmpl	$8, -4(%rbp)
	jge	.LBB11_28
# %bb.23:                               # %for.body57
                                        #   in Loop: Header=BB11_22 Depth=3
	movl	-4(%rbp), %eax
	shll	$3, %eax
	addl	-8(%rbp), %eax
	movl	%eax, -20(%rbp)
	movq	img, %rax
	cmpl	$2, 24(%rax)
	jne	.LBB11_25
# %bb.24:                               # %if.then63
                                        #   in Loop: Header=BB11_22 Depth=3
	movslq	-20(%rbp), %rax
	movswl	Offset8_intra_default_intra(,%rax,2), %eax
	movl	-16(%rbp), %ecx
                                        # kill: def $cl killed $ecx
	shll	%cl, %eax
	movslq	-12(%rbp), %rcx
	shlq	$8, %rcx
	movabsq	$LevelOffset8x8Luma_Intra, %rdx
	addq	%rcx, %rdx
	movslq	-8(%rbp), %rcx
	shlq	$5, %rcx
	addq	%rcx, %rdx
	movslq	-4(%rbp), %rcx
	movl	%eax, (%rdx,%rcx,4)
	jmp	.LBB11_26
.LBB11_25:                              # %if.else74
                                        #   in Loop: Header=BB11_22 Depth=3
	movslq	-20(%rbp), %rax
	movswl	Offset8_intra_default_inter(,%rax,2), %eax
	movl	-16(%rbp), %ecx
                                        # kill: def $cl killed $ecx
	shll	%cl, %eax
	movslq	-12(%rbp), %rcx
	shlq	$8, %rcx
	movabsq	$LevelOffset8x8Luma_Intra, %rdx
	addq	%rcx, %rdx
	movslq	-8(%rbp), %rcx
	shlq	$5, %rcx
	addq	%rcx, %rdx
	movslq	-4(%rbp), %rcx
	movl	%eax, (%rdx,%rcx,4)
.LBB11_26:                              # %if.end85
                                        #   in Loop: Header=BB11_22 Depth=3
	movslq	-20(%rbp), %rax
	movswl	Offset8_inter_default(,%rax,2), %eax
	movl	-16(%rbp), %ecx
                                        # kill: def $cl killed $ecx
	shll	%cl, %eax
	movslq	-12(%rbp), %rcx
	shlq	$8, %rcx
	movabsq	$LevelOffset8x8Luma_Inter, %rdx
	addq	%rcx, %rdx
	movslq	-8(%rbp), %rcx
	shlq	$5, %rcx
	addq	%rcx, %rdx
	movslq	-4(%rbp), %rcx
	movl	%eax, (%rdx,%rcx,4)
# %bb.27:                               # %for.inc96
                                        #   in Loop: Header=BB11_22 Depth=3
	movl	-4(%rbp), %eax
	addl	$1, %eax
	movl	%eax, -4(%rbp)
	jmp	.LBB11_22
.LBB11_28:                              # %for.end98
                                        #   in Loop: Header=BB11_20 Depth=2
	jmp	.LBB11_29
.LBB11_29:                              # %for.inc99
                                        #   in Loop: Header=BB11_20 Depth=2
	movl	-8(%rbp), %eax
	addl	$1, %eax
	movl	%eax, -8(%rbp)
	jmp	.LBB11_20
.LBB11_30:                              # %for.end101
                                        #   in Loop: Header=BB11_18 Depth=1
	jmp	.LBB11_31
.LBB11_31:                              # %for.inc102
                                        #   in Loop: Header=BB11_18 Depth=1
	movl	-12(%rbp), %eax
	addl	$1, %eax
	movl	%eax, -12(%rbp)
	jmp	.LBB11_18
.LBB11_32:                              # %for.end104
	jmp	.LBB11_33
.LBB11_33:                              # %if.end105
	cmpl	$1499247681, -24(%rbp)  # imm = 0x595CB441
	jne	.LBB11_35
.LBB11_34:
	addq	$32, %rsp
	popq	%rbp
	.cfi_def_cfa %rsp, 8
	retq
.LBB11_35:                              # %func_exit
	.cfi_def_cfa %rbp, 16
	callq	detect_breach
	jmp	.LBB11_34
.Lfunc_end11:
	.size	CalculateOffset8Param.7, .Lfunc_end11-CalculateOffset8Param.7
	.cfi_endproc
                                        # -- End function
	.globl	CheckOffsetParameterName.8 # -- Begin function CheckOffsetParameterName.8
	.p2align	4, 0x90
	.type	CheckOffsetParameterName.8,@function
CheckOffsetParameterName.8:             # @CheckOffsetParameterName.8
	.cfi_startproc
# %bb.0:                                # %entry
	pushq	%rbp
	.cfi_def_cfa_offset 16
	.cfi_offset %rbp, -16
	movq	%rsp, %rbp
	.cfi_def_cfa_register %rbp
	pushq	%rbx
	subq	$40, %rsp
	.cfi_offset %rbx, -24
	movl	$1508832689, -20(%rbp)  # imm = 0x59EEF5B1
	movq	%rdi, -32(%rbp)
	movq	%rsi, -40(%rbp)
	movl	$0, -12(%rbp)
	movq	-40(%rbp), %rax
	movl	$0, (%rax)
.LBB12_1:                               # %while.cond
                                        # =>This Inner Loop Header: Depth=1
	xorl	%eax, %eax
	movslq	-12(%rbp), %rcx
	imulq	$24, %rcx, %rcx
	movabsq	$OffsetType4x4, %rdx
	addq	%rcx, %rdx
	cmpq	$0, %rdx
	je	.LBB12_3
# %bb.2:                                # %land.rhs
                                        #   in Loop: Header=BB12_1 Depth=1
	cmpl	$9, -12(%rbp)
	setl	%al
.LBB12_3:                               # %land.end
                                        #   in Loop: Header=BB12_1 Depth=1
	testb	$1, %al
	jne	.LBB12_4
	jmp	.LBB12_8
.LBB12_4:                               # %while.body
                                        #   in Loop: Header=BB12_1 Depth=1
	xorl	%ebx, %ebx
	movslq	-12(%rbp), %rax
	imulq	$24, %rax, %rax
	movabsq	$OffsetType4x4, %rdi
	addq	%rax, %rdi
	movq	-32(%rbp), %rsi
	callq	strcmp
	cmpl	%eax, %ebx
	jne	.LBB12_6
# %bb.5:                                # %if.then
	movl	-12(%rbp), %eax
	movl	%eax, -16(%rbp)
	jmp	.LBB12_17
.LBB12_6:                               # %if.else
                                        #   in Loop: Header=BB12_1 Depth=1
	movl	-12(%rbp), %eax
	addl	$1, %eax
	movl	%eax, -12(%rbp)
# %bb.7:                                # %if.end
                                        #   in Loop: Header=BB12_1 Depth=1
	jmp	.LBB12_1
.LBB12_8:                               # %while.end
	movl	$0, -12(%rbp)
	movq	-40(%rbp), %rax
	movl	$1, (%rax)
.LBB12_9:                               # %while.cond6
                                        # =>This Inner Loop Header: Depth=1
	xorl	%eax, %eax
	movslq	-12(%rbp), %rcx
	imulq	$24, %rcx, %rcx
	movabsq	$OffsetType8x8, %rdx
	addq	%rcx, %rdx
	cmpq	$0, %rdx
	je	.LBB12_11
# %bb.10:                               # %land.rhs11
                                        #   in Loop: Header=BB12_9 Depth=1
	cmpl	$3, -12(%rbp)
	setl	%al
.LBB12_11:                              # %land.end13
                                        #   in Loop: Header=BB12_9 Depth=1
	testb	$1, %al
	jne	.LBB12_12
	jmp	.LBB12_16
.LBB12_12:                              # %while.body14
                                        #   in Loop: Header=BB12_9 Depth=1
	xorl	%ebx, %ebx
	movslq	-12(%rbp), %rax
	imulq	$24, %rax, %rax
	movabsq	$OffsetType8x8, %rdi
	addq	%rax, %rdi
	movq	-32(%rbp), %rsi
	callq	strcmp
	cmpl	%eax, %ebx
	jne	.LBB12_14
# %bb.13:                               # %if.then20
	movl	-12(%rbp), %eax
	movl	%eax, -16(%rbp)
	jmp	.LBB12_17
.LBB12_14:                              # %if.else21
                                        #   in Loop: Header=BB12_9 Depth=1
	movl	-12(%rbp), %eax
	addl	$1, %eax
	movl	%eax, -12(%rbp)
# %bb.15:                               # %if.end23
                                        #   in Loop: Header=BB12_9 Depth=1
	jmp	.LBB12_9
.LBB12_16:                              # %while.end24
	movl	$-1, -16(%rbp)
.LBB12_17:                              # %return
	movl	-16(%rbp), %ebx
	cmpl	$1508832689, -20(%rbp)  # imm = 0x59EEF5B1
	jne	.LBB12_19
.LBB12_18:
	movl	%ebx, %eax
	addq	$40, %rsp
	popq	%rbx
	popq	%rbp
	.cfi_def_cfa %rsp, 8
	retq
.LBB12_19:                              # %func_exit
	.cfi_def_cfa %rbp, 16
	callq	detect_breach
	jmp	.LBB12_18
.Lfunc_end12:
	.size	CheckOffsetParameterName.8, .Lfunc_end12-CheckOffsetParameterName.8
	.cfi_endproc
                                        # -- End function
	.globl	CalculateOffset8Param.9 # -- Begin function CalculateOffset8Param.9
	.p2align	4, 0x90
	.type	CalculateOffset8Param.9,@function
CalculateOffset8Param.9:                # @CalculateOffset8Param.9
	.cfi_startproc
# %bb.0:                                # %entry
	pushq	%rbp
	.cfi_def_cfa_offset 16
	.cfi_offset %rbp, -16
	movq	%rsp, %rbp
	.cfi_def_cfa_register %rbp
	subq	$32, %rsp
	movl	$1976134049, -24(%rbp)  # imm = 0x75C969A1
	movq	input, %rax
	cmpl	$0, 3584(%rax)
	je	.LBB13_17
# %bb.1:                                # %if.then
	movl	$0, -8(%rbp)
.LBB13_2:                               # %for.cond
                                        # =>This Loop Header: Depth=1
                                        #     Child Loop BB13_4 Depth 2
                                        #       Child Loop BB13_6 Depth 3
	cmpl	$13, -8(%rbp)
	jge	.LBB13_16
# %bb.3:                                # %for.body
                                        #   in Loop: Header=BB13_2 Depth=1
	movl	-8(%rbp), %eax
	addl	$16, %eax
	subl	$10, %eax
	movl	%eax, -20(%rbp)
	movl	$0, -12(%rbp)
.LBB13_4:                               # %for.cond1
                                        #   Parent Loop BB13_2 Depth=1
                                        # =>  This Loop Header: Depth=2
                                        #       Child Loop BB13_6 Depth 3
	cmpl	$8, -12(%rbp)
	jge	.LBB13_14
# %bb.5:                                # %for.body3
                                        #   in Loop: Header=BB13_4 Depth=2
	movl	$0, -4(%rbp)
.LBB13_6:                               # %for.cond4
                                        #   Parent Loop BB13_2 Depth=1
                                        #     Parent Loop BB13_4 Depth=2
                                        # =>    This Inner Loop Header: Depth=3
	cmpl	$8, -4(%rbp)
	jge	.LBB13_12
# %bb.7:                                # %for.body6
                                        #   in Loop: Header=BB13_6 Depth=3
	movl	-4(%rbp), %eax
	shll	$3, %eax
	addl	-12(%rbp), %eax
	movl	%eax, -16(%rbp)
	movq	img, %rax
	cmpl	$2, 24(%rax)
	jne	.LBB13_9
# %bb.8:                                # %if.then9
                                        #   in Loop: Header=BB13_6 Depth=3
	movslq	-16(%rbp), %rax
	movswl	OffsetList8x8input(,%rax,2), %eax
	movl	-20(%rbp), %ecx
                                        # kill: def $cl killed $ecx
	shll	%cl, %eax
	movslq	-8(%rbp), %rcx
	shlq	$8, %rcx
	movabsq	$LevelOffset8x8Luma_Intra, %rdx
	addq	%rcx, %rdx
	movslq	-12(%rbp), %rcx
	shlq	$5, %rcx
	addq	%rcx, %rdx
	movslq	-4(%rbp), %rcx
	movl	%eax, (%rdx,%rcx,4)
	jmp	.LBB13_10
.LBB13_9:                               # %if.else
                                        #   in Loop: Header=BB13_6 Depth=3
	movslq	-16(%rbp), %rax
	movswl	OffsetList8x8input+128(,%rax,2), %eax
	movl	-20(%rbp), %ecx
                                        # kill: def $cl killed $ecx
	shll	%cl, %eax
	movslq	-8(%rbp), %rcx
	shlq	$8, %rcx
	movabsq	$LevelOffset8x8Luma_Intra, %rdx
	addq	%rcx, %rdx
	movslq	-12(%rbp), %rcx
	shlq	$5, %rcx
	addq	%rcx, %rdx
	movslq	-4(%rbp), %rcx
	movl	%eax, (%rdx,%rcx,4)
.LBB13_10:                              # %if.end
                                        #   in Loop: Header=BB13_6 Depth=3
	movslq	-16(%rbp), %rax
	movswl	OffsetList8x8input+256(,%rax,2), %eax
	movl	-20(%rbp), %ecx
                                        # kill: def $cl killed $ecx
	shll	%cl, %eax
	movslq	-8(%rbp), %rcx
	shlq	$8, %rcx
	movabsq	$LevelOffset8x8Luma_Inter, %rdx
	addq	%rcx, %rdx
	movslq	-12(%rbp), %rcx
	shlq	$5, %rcx
	addq	%rcx, %rdx
	movslq	-4(%rbp), %rcx
	movl	%eax, (%rdx,%rcx,4)
# %bb.11:                               # %for.inc
                                        #   in Loop: Header=BB13_6 Depth=3
	movl	-4(%rbp), %eax
	addl	$1, %eax
	movl	%eax, -4(%rbp)
	jmp	.LBB13_6
.LBB13_12:                              # %for.end
                                        #   in Loop: Header=BB13_4 Depth=2
	jmp	.LBB13_13
.LBB13_13:                              # %for.inc37
                                        #   in Loop: Header=BB13_4 Depth=2
	movl	-12(%rbp), %eax
	addl	$1, %eax
	movl	%eax, -12(%rbp)
	jmp	.LBB13_4
.LBB13_14:                              # %for.end39
                                        #   in Loop: Header=BB13_2 Depth=1
	jmp	.LBB13_15
.LBB13_15:                              # %for.inc40
                                        #   in Loop: Header=BB13_2 Depth=1
	movl	-8(%rbp), %eax
	addl	$1, %eax
	movl	%eax, -8(%rbp)
	jmp	.LBB13_2
.LBB13_16:                              # %for.end42
	jmp	.LBB13_33
.LBB13_17:                              # %if.else43
	movl	$0, -8(%rbp)
.LBB13_18:                              # %for.cond44
                                        # =>This Loop Header: Depth=1
                                        #     Child Loop BB13_20 Depth 2
                                        #       Child Loop BB13_22 Depth 3
	cmpl	$13, -8(%rbp)
	jge	.LBB13_32
# %bb.19:                               # %for.body47
                                        #   in Loop: Header=BB13_18 Depth=1
	movl	-8(%rbp), %eax
	addl	$16, %eax
	subl	$10, %eax
	movl	%eax, -20(%rbp)
	movl	$0, -12(%rbp)
.LBB13_20:                              # %for.cond50
                                        #   Parent Loop BB13_18 Depth=1
                                        # =>  This Loop Header: Depth=2
                                        #       Child Loop BB13_22 Depth 3
	cmpl	$8, -12(%rbp)
	jge	.LBB13_30
# %bb.21:                               # %for.body53
                                        #   in Loop: Header=BB13_20 Depth=2
	movl	$0, -4(%rbp)
.LBB13_22:                              # %for.cond54
                                        #   Parent Loop BB13_18 Depth=1
                                        #     Parent Loop BB13_20 Depth=2
                                        # =>    This Inner Loop Header: Depth=3
	cmpl	$8, -4(%rbp)
	jge	.LBB13_28
# %bb.23:                               # %for.body57
                                        #   in Loop: Header=BB13_22 Depth=3
	movl	-4(%rbp), %eax
	shll	$3, %eax
	addl	-12(%rbp), %eax
	movl	%eax, -16(%rbp)
	movq	img, %rax
	cmpl	$2, 24(%rax)
	jne	.LBB13_25
# %bb.24:                               # %if.then63
                                        #   in Loop: Header=BB13_22 Depth=3
	movslq	-16(%rbp), %rax
	movswl	Offset8_intra_default_intra(,%rax,2), %eax
	movl	-20(%rbp), %ecx
                                        # kill: def $cl killed $ecx
	shll	%cl, %eax
	movslq	-8(%rbp), %rcx
	shlq	$8, %rcx
	movabsq	$LevelOffset8x8Luma_Intra, %rdx
	addq	%rcx, %rdx
	movslq	-12(%rbp), %rcx
	shlq	$5, %rcx
	addq	%rcx, %rdx
	movslq	-4(%rbp), %rcx
	movl	%eax, (%rdx,%rcx,4)
	jmp	.LBB13_26
.LBB13_25:                              # %if.else74
                                        #   in Loop: Header=BB13_22 Depth=3
	movslq	-16(%rbp), %rax
	movswl	Offset8_intra_default_inter(,%rax,2), %eax
	movl	-20(%rbp), %ecx
                                        # kill: def $cl killed $ecx
	shll	%cl, %eax
	movslq	-8(%rbp), %rcx
	shlq	$8, %rcx
	movabsq	$LevelOffset8x8Luma_Intra, %rdx
	addq	%rcx, %rdx
	movslq	-12(%rbp), %rcx
	shlq	$5, %rcx
	addq	%rcx, %rdx
	movslq	-4(%rbp), %rcx
	movl	%eax, (%rdx,%rcx,4)
.LBB13_26:                              # %if.end85
                                        #   in Loop: Header=BB13_22 Depth=3
	movslq	-16(%rbp), %rax
	movswl	Offset8_inter_default(,%rax,2), %eax
	movl	-20(%rbp), %ecx
                                        # kill: def $cl killed $ecx
	shll	%cl, %eax
	movslq	-8(%rbp), %rcx
	shlq	$8, %rcx
	movabsq	$LevelOffset8x8Luma_Inter, %rdx
	addq	%rcx, %rdx
	movslq	-12(%rbp), %rcx
	shlq	$5, %rcx
	addq	%rcx, %rdx
	movslq	-4(%rbp), %rcx
	movl	%eax, (%rdx,%rcx,4)
# %bb.27:                               # %for.inc96
                                        #   in Loop: Header=BB13_22 Depth=3
	movl	-4(%rbp), %eax
	addl	$1, %eax
	movl	%eax, -4(%rbp)
	jmp	.LBB13_22
.LBB13_28:                              # %for.end98
                                        #   in Loop: Header=BB13_20 Depth=2
	jmp	.LBB13_29
.LBB13_29:                              # %for.inc99
                                        #   in Loop: Header=BB13_20 Depth=2
	movl	-12(%rbp), %eax
	addl	$1, %eax
	movl	%eax, -12(%rbp)
	jmp	.LBB13_20
.LBB13_30:                              # %for.end101
                                        #   in Loop: Header=BB13_18 Depth=1
	jmp	.LBB13_31
.LBB13_31:                              # %for.inc102
                                        #   in Loop: Header=BB13_18 Depth=1
	movl	-8(%rbp), %eax
	addl	$1, %eax
	movl	%eax, -8(%rbp)
	jmp	.LBB13_18
.LBB13_32:                              # %for.end104
	jmp	.LBB13_33
.LBB13_33:                              # %if.end105
	cmpl	$1976134049, -24(%rbp)  # imm = 0x75C969A1
	jne	.LBB13_35
.LBB13_34:
	addq	$32, %rsp
	popq	%rbp
	.cfi_def_cfa %rsp, 8
	retq
.LBB13_35:                              # %func_exit
	.cfi_def_cfa %rbp, 16
	callq	detect_breach
	jmp	.LBB13_34
.Lfunc_end13:
	.size	CalculateOffset8Param.9, .Lfunc_end13-CalculateOffset8Param.9
	.cfi_endproc
                                        # -- End function
	.globl	CalculateOffset8Param.10 # -- Begin function CalculateOffset8Param.10
	.p2align	4, 0x90
	.type	CalculateOffset8Param.10,@function
CalculateOffset8Param.10:               # @CalculateOffset8Param.10
	.cfi_startproc
# %bb.0:                                # %entry
	pushq	%rbp
	.cfi_def_cfa_offset 16
	.cfi_offset %rbp, -16
	movq	%rsp, %rbp
	.cfi_def_cfa_register %rbp
	subq	$32, %rsp
	movl	$774894669, -24(%rbp)   # imm = 0x2E2FF44D
	movq	input, %rax
	cmpl	$0, 3584(%rax)
	je	.LBB14_17
# %bb.1:                                # %if.then
	movl	$0, -4(%rbp)
.LBB14_2:                               # %for.cond
                                        # =>This Loop Header: Depth=1
                                        #     Child Loop BB14_4 Depth 2
                                        #       Child Loop BB14_6 Depth 3
	cmpl	$13, -4(%rbp)
	jge	.LBB14_16
# %bb.3:                                # %for.body
                                        #   in Loop: Header=BB14_2 Depth=1
	movl	-4(%rbp), %eax
	addl	$16, %eax
	subl	$10, %eax
	movl	%eax, -20(%rbp)
	movl	$0, -12(%rbp)
.LBB14_4:                               # %for.cond1
                                        #   Parent Loop BB14_2 Depth=1
                                        # =>  This Loop Header: Depth=2
                                        #       Child Loop BB14_6 Depth 3
	cmpl	$8, -12(%rbp)
	jge	.LBB14_14
# %bb.5:                                # %for.body3
                                        #   in Loop: Header=BB14_4 Depth=2
	movl	$0, -8(%rbp)
.LBB14_6:                               # %for.cond4
                                        #   Parent Loop BB14_2 Depth=1
                                        #     Parent Loop BB14_4 Depth=2
                                        # =>    This Inner Loop Header: Depth=3
	cmpl	$8, -8(%rbp)
	jge	.LBB14_12
# %bb.7:                                # %for.body6
                                        #   in Loop: Header=BB14_6 Depth=3
	movl	-8(%rbp), %eax
	shll	$3, %eax
	addl	-12(%rbp), %eax
	movl	%eax, -16(%rbp)
	movq	img, %rax
	cmpl	$2, 24(%rax)
	jne	.LBB14_9
# %bb.8:                                # %if.then9
                                        #   in Loop: Header=BB14_6 Depth=3
	movslq	-16(%rbp), %rax
	movswl	OffsetList8x8input(,%rax,2), %eax
	movl	-20(%rbp), %ecx
                                        # kill: def $cl killed $ecx
	shll	%cl, %eax
	movslq	-4(%rbp), %rcx
	shlq	$8, %rcx
	movabsq	$LevelOffset8x8Luma_Intra, %rdx
	addq	%rcx, %rdx
	movslq	-12(%rbp), %rcx
	shlq	$5, %rcx
	addq	%rcx, %rdx
	movslq	-8(%rbp), %rcx
	movl	%eax, (%rdx,%rcx,4)
	jmp	.LBB14_10
.LBB14_9:                               # %if.else
                                        #   in Loop: Header=BB14_6 Depth=3
	movslq	-16(%rbp), %rax
	movswl	OffsetList8x8input+128(,%rax,2), %eax
	movl	-20(%rbp), %ecx
                                        # kill: def $cl killed $ecx
	shll	%cl, %eax
	movslq	-4(%rbp), %rcx
	shlq	$8, %rcx
	movabsq	$LevelOffset8x8Luma_Intra, %rdx
	addq	%rcx, %rdx
	movslq	-12(%rbp), %rcx
	shlq	$5, %rcx
	addq	%rcx, %rdx
	movslq	-8(%rbp), %rcx
	movl	%eax, (%rdx,%rcx,4)
.LBB14_10:                              # %if.end
                                        #   in Loop: Header=BB14_6 Depth=3
	movslq	-16(%rbp), %rax
	movswl	OffsetList8x8input+256(,%rax,2), %eax
	movl	-20(%rbp), %ecx
                                        # kill: def $cl killed $ecx
	shll	%cl, %eax
	movslq	-4(%rbp), %rcx
	shlq	$8, %rcx
	movabsq	$LevelOffset8x8Luma_Inter, %rdx
	addq	%rcx, %rdx
	movslq	-12(%rbp), %rcx
	shlq	$5, %rcx
	addq	%rcx, %rdx
	movslq	-8(%rbp), %rcx
	movl	%eax, (%rdx,%rcx,4)
# %bb.11:                               # %for.inc
                                        #   in Loop: Header=BB14_6 Depth=3
	movl	-8(%rbp), %eax
	addl	$1, %eax
	movl	%eax, -8(%rbp)
	jmp	.LBB14_6
.LBB14_12:                              # %for.end
                                        #   in Loop: Header=BB14_4 Depth=2
	jmp	.LBB14_13
.LBB14_13:                              # %for.inc37
                                        #   in Loop: Header=BB14_4 Depth=2
	movl	-12(%rbp), %eax
	addl	$1, %eax
	movl	%eax, -12(%rbp)
	jmp	.LBB14_4
.LBB14_14:                              # %for.end39
                                        #   in Loop: Header=BB14_2 Depth=1
	jmp	.LBB14_15
.LBB14_15:                              # %for.inc40
                                        #   in Loop: Header=BB14_2 Depth=1
	movl	-4(%rbp), %eax
	addl	$1, %eax
	movl	%eax, -4(%rbp)
	jmp	.LBB14_2
.LBB14_16:                              # %for.end42
	jmp	.LBB14_33
.LBB14_17:                              # %if.else43
	movl	$0, -4(%rbp)
.LBB14_18:                              # %for.cond44
                                        # =>This Loop Header: Depth=1
                                        #     Child Loop BB14_20 Depth 2
                                        #       Child Loop BB14_22 Depth 3
	cmpl	$13, -4(%rbp)
	jge	.LBB14_32
# %bb.19:                               # %for.body47
                                        #   in Loop: Header=BB14_18 Depth=1
	movl	-4(%rbp), %eax
	addl	$16, %eax
	subl	$10, %eax
	movl	%eax, -20(%rbp)
	movl	$0, -12(%rbp)
.LBB14_20:                              # %for.cond50
                                        #   Parent Loop BB14_18 Depth=1
                                        # =>  This Loop Header: Depth=2
                                        #       Child Loop BB14_22 Depth 3
	cmpl	$8, -12(%rbp)
	jge	.LBB14_30
# %bb.21:                               # %for.body53
                                        #   in Loop: Header=BB14_20 Depth=2
	movl	$0, -8(%rbp)
.LBB14_22:                              # %for.cond54
                                        #   Parent Loop BB14_18 Depth=1
                                        #     Parent Loop BB14_20 Depth=2
                                        # =>    This Inner Loop Header: Depth=3
	cmpl	$8, -8(%rbp)
	jge	.LBB14_28
# %bb.23:                               # %for.body57
                                        #   in Loop: Header=BB14_22 Depth=3
	movl	-8(%rbp), %eax
	shll	$3, %eax
	addl	-12(%rbp), %eax
	movl	%eax, -16(%rbp)
	movq	img, %rax
	cmpl	$2, 24(%rax)
	jne	.LBB14_25
# %bb.24:                               # %if.then63
                                        #   in Loop: Header=BB14_22 Depth=3
	movslq	-16(%rbp), %rax
	movswl	Offset8_intra_default_intra(,%rax,2), %eax
	movl	-20(%rbp), %ecx
                                        # kill: def $cl killed $ecx
	shll	%cl, %eax
	movslq	-4(%rbp), %rcx
	shlq	$8, %rcx
	movabsq	$LevelOffset8x8Luma_Intra, %rdx
	addq	%rcx, %rdx
	movslq	-12(%rbp), %rcx
	shlq	$5, %rcx
	addq	%rcx, %rdx
	movslq	-8(%rbp), %rcx
	movl	%eax, (%rdx,%rcx,4)
	jmp	.LBB14_26
.LBB14_25:                              # %if.else74
                                        #   in Loop: Header=BB14_22 Depth=3
	movslq	-16(%rbp), %rax
	movswl	Offset8_intra_default_inter(,%rax,2), %eax
	movl	-20(%rbp), %ecx
                                        # kill: def $cl killed $ecx
	shll	%cl, %eax
	movslq	-4(%rbp), %rcx
	shlq	$8, %rcx
	movabsq	$LevelOffset8x8Luma_Intra, %rdx
	addq	%rcx, %rdx
	movslq	-12(%rbp), %rcx
	shlq	$5, %rcx
	addq	%rcx, %rdx
	movslq	-8(%rbp), %rcx
	movl	%eax, (%rdx,%rcx,4)
.LBB14_26:                              # %if.end85
                                        #   in Loop: Header=BB14_22 Depth=3
	movslq	-16(%rbp), %rax
	movswl	Offset8_inter_default(,%rax,2), %eax
	movl	-20(%rbp), %ecx
                                        # kill: def $cl killed $ecx
	shll	%cl, %eax
	movslq	-4(%rbp), %rcx
	shlq	$8, %rcx
	movabsq	$LevelOffset8x8Luma_Inter, %rdx
	addq	%rcx, %rdx
	movslq	-12(%rbp), %rcx
	shlq	$5, %rcx
	addq	%rcx, %rdx
	movslq	-8(%rbp), %rcx
	movl	%eax, (%rdx,%rcx,4)
# %bb.27:                               # %for.inc96
                                        #   in Loop: Header=BB14_22 Depth=3
	movl	-8(%rbp), %eax
	addl	$1, %eax
	movl	%eax, -8(%rbp)
	jmp	.LBB14_22
.LBB14_28:                              # %for.end98
                                        #   in Loop: Header=BB14_20 Depth=2
	jmp	.LBB14_29
.LBB14_29:                              # %for.inc99
                                        #   in Loop: Header=BB14_20 Depth=2
	movl	-12(%rbp), %eax
	addl	$1, %eax
	movl	%eax, -12(%rbp)
	jmp	.LBB14_20
.LBB14_30:                              # %for.end101
                                        #   in Loop: Header=BB14_18 Depth=1
	jmp	.LBB14_31
.LBB14_31:                              # %for.inc102
                                        #   in Loop: Header=BB14_18 Depth=1
	movl	-4(%rbp), %eax
	addl	$1, %eax
	movl	%eax, -4(%rbp)
	jmp	.LBB14_18
.LBB14_32:                              # %for.end104
	jmp	.LBB14_33
.LBB14_33:                              # %if.end105
	cmpl	$774894669, -24(%rbp)   # imm = 0x2E2FF44D
	jne	.LBB14_35
.LBB14_34:
	addq	$32, %rsp
	popq	%rbp
	.cfi_def_cfa %rsp, 8
	retq
.LBB14_35:                              # %func_exit
	.cfi_def_cfa %rbp, 16
	callq	detect_breach
	jmp	.LBB14_34
.Lfunc_end14:
	.size	CalculateOffset8Param.10, .Lfunc_end14-CalculateOffset8Param.10
	.cfi_endproc
                                        # -- End function
	.globl	CalculateOffset8Param.11 # -- Begin function CalculateOffset8Param.11
	.p2align	4, 0x90
	.type	CalculateOffset8Param.11,@function
CalculateOffset8Param.11:               # @CalculateOffset8Param.11
	.cfi_startproc
# %bb.0:                                # %entry
	pushq	%rbp
	.cfi_def_cfa_offset 16
	.cfi_offset %rbp, -16
	movq	%rsp, %rbp
	.cfi_def_cfa_register %rbp
	subq	$32, %rsp
	movl	$1721216937, -24(%rbp)  # imm = 0x6697AFA9
	movq	input, %rax
	cmpl	$0, 3584(%rax)
	je	.LBB15_17
# %bb.1:                                # %if.then
	movl	$0, -12(%rbp)
.LBB15_2:                               # %for.cond
                                        # =>This Loop Header: Depth=1
                                        #     Child Loop BB15_4 Depth 2
                                        #       Child Loop BB15_6 Depth 3
	cmpl	$13, -12(%rbp)
	jge	.LBB15_16
# %bb.3:                                # %for.body
                                        #   in Loop: Header=BB15_2 Depth=1
	movl	-12(%rbp), %eax
	addl	$16, %eax
	subl	$10, %eax
	movl	%eax, -16(%rbp)
	movl	$0, -8(%rbp)
.LBB15_4:                               # %for.cond1
                                        #   Parent Loop BB15_2 Depth=1
                                        # =>  This Loop Header: Depth=2
                                        #       Child Loop BB15_6 Depth 3
	cmpl	$8, -8(%rbp)
	jge	.LBB15_14
# %bb.5:                                # %for.body3
                                        #   in Loop: Header=BB15_4 Depth=2
	movl	$0, -4(%rbp)
.LBB15_6:                               # %for.cond4
                                        #   Parent Loop BB15_2 Depth=1
                                        #     Parent Loop BB15_4 Depth=2
                                        # =>    This Inner Loop Header: Depth=3
	cmpl	$8, -4(%rbp)
	jge	.LBB15_12
# %bb.7:                                # %for.body6
                                        #   in Loop: Header=BB15_6 Depth=3
	movl	-4(%rbp), %eax
	shll	$3, %eax
	addl	-8(%rbp), %eax
	movl	%eax, -20(%rbp)
	movq	img, %rax
	cmpl	$2, 24(%rax)
	jne	.LBB15_9
# %bb.8:                                # %if.then9
                                        #   in Loop: Header=BB15_6 Depth=3
	movslq	-20(%rbp), %rax
	movswl	OffsetList8x8input(,%rax,2), %eax
	movl	-16(%rbp), %ecx
                                        # kill: def $cl killed $ecx
	shll	%cl, %eax
	movslq	-12(%rbp), %rcx
	shlq	$8, %rcx
	movabsq	$LevelOffset8x8Luma_Intra, %rdx
	addq	%rcx, %rdx
	movslq	-8(%rbp), %rcx
	shlq	$5, %rcx
	addq	%rcx, %rdx
	movslq	-4(%rbp), %rcx
	movl	%eax, (%rdx,%rcx,4)
	jmp	.LBB15_10
.LBB15_9:                               # %if.else
                                        #   in Loop: Header=BB15_6 Depth=3
	movslq	-20(%rbp), %rax
	movswl	OffsetList8x8input+128(,%rax,2), %eax
	movl	-16(%rbp), %ecx
                                        # kill: def $cl killed $ecx
	shll	%cl, %eax
	movslq	-12(%rbp), %rcx
	shlq	$8, %rcx
	movabsq	$LevelOffset8x8Luma_Intra, %rdx
	addq	%rcx, %rdx
	movslq	-8(%rbp), %rcx
	shlq	$5, %rcx
	addq	%rcx, %rdx
	movslq	-4(%rbp), %rcx
	movl	%eax, (%rdx,%rcx,4)
.LBB15_10:                              # %if.end
                                        #   in Loop: Header=BB15_6 Depth=3
	movslq	-20(%rbp), %rax
	movswl	OffsetList8x8input+256(,%rax,2), %eax
	movl	-16(%rbp), %ecx
                                        # kill: def $cl killed $ecx
	shll	%cl, %eax
	movslq	-12(%rbp), %rcx
	shlq	$8, %rcx
	movabsq	$LevelOffset8x8Luma_Inter, %rdx
	addq	%rcx, %rdx
	movslq	-8(%rbp), %rcx
	shlq	$5, %rcx
	addq	%rcx, %rdx
	movslq	-4(%rbp), %rcx
	movl	%eax, (%rdx,%rcx,4)
# %bb.11:                               # %for.inc
                                        #   in Loop: Header=BB15_6 Depth=3
	movl	-4(%rbp), %eax
	addl	$1, %eax
	movl	%eax, -4(%rbp)
	jmp	.LBB15_6
.LBB15_12:                              # %for.end
                                        #   in Loop: Header=BB15_4 Depth=2
	jmp	.LBB15_13
.LBB15_13:                              # %for.inc37
                                        #   in Loop: Header=BB15_4 Depth=2
	movl	-8(%rbp), %eax
	addl	$1, %eax
	movl	%eax, -8(%rbp)
	jmp	.LBB15_4
.LBB15_14:                              # %for.end39
                                        #   in Loop: Header=BB15_2 Depth=1
	jmp	.LBB15_15
.LBB15_15:                              # %for.inc40
                                        #   in Loop: Header=BB15_2 Depth=1
	movl	-12(%rbp), %eax
	addl	$1, %eax
	movl	%eax, -12(%rbp)
	jmp	.LBB15_2
.LBB15_16:                              # %for.end42
	jmp	.LBB15_33
.LBB15_17:                              # %if.else43
	movl	$0, -12(%rbp)
.LBB15_18:                              # %for.cond44
                                        # =>This Loop Header: Depth=1
                                        #     Child Loop BB15_20 Depth 2
                                        #       Child Loop BB15_22 Depth 3
	cmpl	$13, -12(%rbp)
	jge	.LBB15_32
# %bb.19:                               # %for.body47
                                        #   in Loop: Header=BB15_18 Depth=1
	movl	-12(%rbp), %eax
	addl	$16, %eax
	subl	$10, %eax
	movl	%eax, -16(%rbp)
	movl	$0, -8(%rbp)
.LBB15_20:                              # %for.cond50
                                        #   Parent Loop BB15_18 Depth=1
                                        # =>  This Loop Header: Depth=2
                                        #       Child Loop BB15_22 Depth 3
	cmpl	$8, -8(%rbp)
	jge	.LBB15_30
# %bb.21:                               # %for.body53
                                        #   in Loop: Header=BB15_20 Depth=2
	movl	$0, -4(%rbp)
.LBB15_22:                              # %for.cond54
                                        #   Parent Loop BB15_18 Depth=1
                                        #     Parent Loop BB15_20 Depth=2
                                        # =>    This Inner Loop Header: Depth=3
	cmpl	$8, -4(%rbp)
	jge	.LBB15_28
# %bb.23:                               # %for.body57
                                        #   in Loop: Header=BB15_22 Depth=3
	movl	-4(%rbp), %eax
	shll	$3, %eax
	addl	-8(%rbp), %eax
	movl	%eax, -20(%rbp)
	movq	img, %rax
	cmpl	$2, 24(%rax)
	jne	.LBB15_25
# %bb.24:                               # %if.then63
                                        #   in Loop: Header=BB15_22 Depth=3
	movslq	-20(%rbp), %rax
	movswl	Offset8_intra_default_intra(,%rax,2), %eax
	movl	-16(%rbp), %ecx
                                        # kill: def $cl killed $ecx
	shll	%cl, %eax
	movslq	-12(%rbp), %rcx
	shlq	$8, %rcx
	movabsq	$LevelOffset8x8Luma_Intra, %rdx
	addq	%rcx, %rdx
	movslq	-8(%rbp), %rcx
	shlq	$5, %rcx
	addq	%rcx, %rdx
	movslq	-4(%rbp), %rcx
	movl	%eax, (%rdx,%rcx,4)
	jmp	.LBB15_26
.LBB15_25:                              # %if.else74
                                        #   in Loop: Header=BB15_22 Depth=3
	movslq	-20(%rbp), %rax
	movswl	Offset8_intra_default_inter(,%rax,2), %eax
	movl	-16(%rbp), %ecx
                                        # kill: def $cl killed $ecx
	shll	%cl, %eax
	movslq	-12(%rbp), %rcx
	shlq	$8, %rcx
	movabsq	$LevelOffset8x8Luma_Intra, %rdx
	addq	%rcx, %rdx
	movslq	-8(%rbp), %rcx
	shlq	$5, %rcx
	addq	%rcx, %rdx
	movslq	-4(%rbp), %rcx
	movl	%eax, (%rdx,%rcx,4)
.LBB15_26:                              # %if.end85
                                        #   in Loop: Header=BB15_22 Depth=3
	movslq	-20(%rbp), %rax
	movswl	Offset8_inter_default(,%rax,2), %eax
	movl	-16(%rbp), %ecx
                                        # kill: def $cl killed $ecx
	shll	%cl, %eax
	movslq	-12(%rbp), %rcx
	shlq	$8, %rcx
	movabsq	$LevelOffset8x8Luma_Inter, %rdx
	addq	%rcx, %rdx
	movslq	-8(%rbp), %rcx
	shlq	$5, %rcx
	addq	%rcx, %rdx
	movslq	-4(%rbp), %rcx
	movl	%eax, (%rdx,%rcx,4)
# %bb.27:                               # %for.inc96
                                        #   in Loop: Header=BB15_22 Depth=3
	movl	-4(%rbp), %eax
	addl	$1, %eax
	movl	%eax, -4(%rbp)
	jmp	.LBB15_22
.LBB15_28:                              # %for.end98
                                        #   in Loop: Header=BB15_20 Depth=2
	jmp	.LBB15_29
.LBB15_29:                              # %for.inc99
                                        #   in Loop: Header=BB15_20 Depth=2
	movl	-8(%rbp), %eax
	addl	$1, %eax
	movl	%eax, -8(%rbp)
	jmp	.LBB15_20
.LBB15_30:                              # %for.end101
                                        #   in Loop: Header=BB15_18 Depth=1
	jmp	.LBB15_31
.LBB15_31:                              # %for.inc102
                                        #   in Loop: Header=BB15_18 Depth=1
	movl	-12(%rbp), %eax
	addl	$1, %eax
	movl	%eax, -12(%rbp)
	jmp	.LBB15_18
.LBB15_32:                              # %for.end104
	jmp	.LBB15_33
.LBB15_33:                              # %if.end105
	cmpl	$1721216937, -24(%rbp)  # imm = 0x6697AFA9
	jne	.LBB15_35
.LBB15_34:
	addq	$32, %rsp
	popq	%rbp
	.cfi_def_cfa %rsp, 8
	retq
.LBB15_35:                              # %func_exit
	.cfi_def_cfa %rbp, 16
	callq	detect_breach
	jmp	.LBB15_34
.Lfunc_end15:
	.size	CalculateOffset8Param.11, .Lfunc_end15-CalculateOffset8Param.11
	.cfi_endproc
                                        # -- End function
	.globl	CalculateOffset8Param.12 # -- Begin function CalculateOffset8Param.12
	.p2align	4, 0x90
	.type	CalculateOffset8Param.12,@function
CalculateOffset8Param.12:               # @CalculateOffset8Param.12
	.cfi_startproc
# %bb.0:                                # %entry
	pushq	%rbp
	.cfi_def_cfa_offset 16
	.cfi_offset %rbp, -16
	movq	%rsp, %rbp
	.cfi_def_cfa_register %rbp
	subq	$32, %rsp
	movl	$1598584648, -24(%rbp)  # imm = 0x5F487748
	movq	input, %rax
	cmpl	$0, 3584(%rax)
	je	.LBB16_17
# %bb.1:                                # %if.then
	movl	$0, -12(%rbp)
.LBB16_2:                               # %for.cond
                                        # =>This Loop Header: Depth=1
                                        #     Child Loop BB16_4 Depth 2
                                        #       Child Loop BB16_6 Depth 3
	cmpl	$13, -12(%rbp)
	jge	.LBB16_16
# %bb.3:                                # %for.body
                                        #   in Loop: Header=BB16_2 Depth=1
	movl	-12(%rbp), %eax
	addl	$16, %eax
	subl	$10, %eax
	movl	%eax, -20(%rbp)
	movl	$0, -4(%rbp)
.LBB16_4:                               # %for.cond1
                                        #   Parent Loop BB16_2 Depth=1
                                        # =>  This Loop Header: Depth=2
                                        #       Child Loop BB16_6 Depth 3
	cmpl	$8, -4(%rbp)
	jge	.LBB16_14
# %bb.5:                                # %for.body3
                                        #   in Loop: Header=BB16_4 Depth=2
	movl	$0, -8(%rbp)
.LBB16_6:                               # %for.cond4
                                        #   Parent Loop BB16_2 Depth=1
                                        #     Parent Loop BB16_4 Depth=2
                                        # =>    This Inner Loop Header: Depth=3
	cmpl	$8, -8(%rbp)
	jge	.LBB16_12
# %bb.7:                                # %for.body6
                                        #   in Loop: Header=BB16_6 Depth=3
	movl	-8(%rbp), %eax
	shll	$3, %eax
	addl	-4(%rbp), %eax
	movl	%eax, -16(%rbp)
	movq	img, %rax
	cmpl	$2, 24(%rax)
	jne	.LBB16_9
# %bb.8:                                # %if.then9
                                        #   in Loop: Header=BB16_6 Depth=3
	movslq	-16(%rbp), %rax
	movswl	OffsetList8x8input(,%rax,2), %eax
	movl	-20(%rbp), %ecx
                                        # kill: def $cl killed $ecx
	shll	%cl, %eax
	movslq	-12(%rbp), %rcx
	shlq	$8, %rcx
	movabsq	$LevelOffset8x8Luma_Intra, %rdx
	addq	%rcx, %rdx
	movslq	-4(%rbp), %rcx
	shlq	$5, %rcx
	addq	%rcx, %rdx
	movslq	-8(%rbp), %rcx
	movl	%eax, (%rdx,%rcx,4)
	jmp	.LBB16_10
.LBB16_9:                               # %if.else
                                        #   in Loop: Header=BB16_6 Depth=3
	movslq	-16(%rbp), %rax
	movswl	OffsetList8x8input+128(,%rax,2), %eax
	movl	-20(%rbp), %ecx
                                        # kill: def $cl killed $ecx
	shll	%cl, %eax
	movslq	-12(%rbp), %rcx
	shlq	$8, %rcx
	movabsq	$LevelOffset8x8Luma_Intra, %rdx
	addq	%rcx, %rdx
	movslq	-4(%rbp), %rcx
	shlq	$5, %rcx
	addq	%rcx, %rdx
	movslq	-8(%rbp), %rcx
	movl	%eax, (%rdx,%rcx,4)
.LBB16_10:                              # %if.end
                                        #   in Loop: Header=BB16_6 Depth=3
	movslq	-16(%rbp), %rax
	movswl	OffsetList8x8input+256(,%rax,2), %eax
	movl	-20(%rbp), %ecx
                                        # kill: def $cl killed $ecx
	shll	%cl, %eax
	movslq	-12(%rbp), %rcx
	shlq	$8, %rcx
	movabsq	$LevelOffset8x8Luma_Inter, %rdx
	addq	%rcx, %rdx
	movslq	-4(%rbp), %rcx
	shlq	$5, %rcx
	addq	%rcx, %rdx
	movslq	-8(%rbp), %rcx
	movl	%eax, (%rdx,%rcx,4)
# %bb.11:                               # %for.inc
                                        #   in Loop: Header=BB16_6 Depth=3
	movl	-8(%rbp), %eax
	addl	$1, %eax
	movl	%eax, -8(%rbp)
	jmp	.LBB16_6
.LBB16_12:                              # %for.end
                                        #   in Loop: Header=BB16_4 Depth=2
	jmp	.LBB16_13
.LBB16_13:                              # %for.inc37
                                        #   in Loop: Header=BB16_4 Depth=2
	movl	-4(%rbp), %eax
	addl	$1, %eax
	movl	%eax, -4(%rbp)
	jmp	.LBB16_4
.LBB16_14:                              # %for.end39
                                        #   in Loop: Header=BB16_2 Depth=1
	jmp	.LBB16_15
.LBB16_15:                              # %for.inc40
                                        #   in Loop: Header=BB16_2 Depth=1
	movl	-12(%rbp), %eax
	addl	$1, %eax
	movl	%eax, -12(%rbp)
	jmp	.LBB16_2
.LBB16_16:                              # %for.end42
	jmp	.LBB16_33
.LBB16_17:                              # %if.else43
	movl	$0, -12(%rbp)
.LBB16_18:                              # %for.cond44
                                        # =>This Loop Header: Depth=1
                                        #     Child Loop BB16_20 Depth 2
                                        #       Child Loop BB16_22 Depth 3
	cmpl	$13, -12(%rbp)
	jge	.LBB16_32
# %bb.19:                               # %for.body47
                                        #   in Loop: Header=BB16_18 Depth=1
	movl	-12(%rbp), %eax
	addl	$16, %eax
	subl	$10, %eax
	movl	%eax, -20(%rbp)
	movl	$0, -4(%rbp)
.LBB16_20:                              # %for.cond50
                                        #   Parent Loop BB16_18 Depth=1
                                        # =>  This Loop Header: Depth=2
                                        #       Child Loop BB16_22 Depth 3
	cmpl	$8, -4(%rbp)
	jge	.LBB16_30
# %bb.21:                               # %for.body53
                                        #   in Loop: Header=BB16_20 Depth=2
	movl	$0, -8(%rbp)
.LBB16_22:                              # %for.cond54
                                        #   Parent Loop BB16_18 Depth=1
                                        #     Parent Loop BB16_20 Depth=2
                                        # =>    This Inner Loop Header: Depth=3
	cmpl	$8, -8(%rbp)
	jge	.LBB16_28
# %bb.23:                               # %for.body57
                                        #   in Loop: Header=BB16_22 Depth=3
	movl	-8(%rbp), %eax
	shll	$3, %eax
	addl	-4(%rbp), %eax
	movl	%eax, -16(%rbp)
	movq	img, %rax
	cmpl	$2, 24(%rax)
	jne	.LBB16_25
# %bb.24:                               # %if.then63
                                        #   in Loop: Header=BB16_22 Depth=3
	movslq	-16(%rbp), %rax
	movswl	Offset8_intra_default_intra(,%rax,2), %eax
	movl	-20(%rbp), %ecx
                                        # kill: def $cl killed $ecx
	shll	%cl, %eax
	movslq	-12(%rbp), %rcx
	shlq	$8, %rcx
	movabsq	$LevelOffset8x8Luma_Intra, %rdx
	addq	%rcx, %rdx
	movslq	-4(%rbp), %rcx
	shlq	$5, %rcx
	addq	%rcx, %rdx
	movslq	-8(%rbp), %rcx
	movl	%eax, (%rdx,%rcx,4)
	jmp	.LBB16_26
.LBB16_25:                              # %if.else74
                                        #   in Loop: Header=BB16_22 Depth=3
	movslq	-16(%rbp), %rax
	movswl	Offset8_intra_default_inter(,%rax,2), %eax
	movl	-20(%rbp), %ecx
                                        # kill: def $cl killed $ecx
	shll	%cl, %eax
	movslq	-12(%rbp), %rcx
	shlq	$8, %rcx
	movabsq	$LevelOffset8x8Luma_Intra, %rdx
	addq	%rcx, %rdx
	movslq	-4(%rbp), %rcx
	shlq	$5, %rcx
	addq	%rcx, %rdx
	movslq	-8(%rbp), %rcx
	movl	%eax, (%rdx,%rcx,4)
.LBB16_26:                              # %if.end85
                                        #   in Loop: Header=BB16_22 Depth=3
	movslq	-16(%rbp), %rax
	movswl	Offset8_inter_default(,%rax,2), %eax
	movl	-20(%rbp), %ecx
                                        # kill: def $cl killed $ecx
	shll	%cl, %eax
	movslq	-12(%rbp), %rcx
	shlq	$8, %rcx
	movabsq	$LevelOffset8x8Luma_Inter, %rdx
	addq	%rcx, %rdx
	movslq	-4(%rbp), %rcx
	shlq	$5, %rcx
	addq	%rcx, %rdx
	movslq	-8(%rbp), %rcx
	movl	%eax, (%rdx,%rcx,4)
# %bb.27:                               # %for.inc96
                                        #   in Loop: Header=BB16_22 Depth=3
	movl	-8(%rbp), %eax
	addl	$1, %eax
	movl	%eax, -8(%rbp)
	jmp	.LBB16_22
.LBB16_28:                              # %for.end98
                                        #   in Loop: Header=BB16_20 Depth=2
	jmp	.LBB16_29
.LBB16_29:                              # %for.inc99
                                        #   in Loop: Header=BB16_20 Depth=2
	movl	-4(%rbp), %eax
	addl	$1, %eax
	movl	%eax, -4(%rbp)
	jmp	.LBB16_20
.LBB16_30:                              # %for.end101
                                        #   in Loop: Header=BB16_18 Depth=1
	jmp	.LBB16_31
.LBB16_31:                              # %for.inc102
                                        #   in Loop: Header=BB16_18 Depth=1
	movl	-12(%rbp), %eax
	addl	$1, %eax
	movl	%eax, -12(%rbp)
	jmp	.LBB16_18
.LBB16_32:                              # %for.end104
	jmp	.LBB16_33
.LBB16_33:                              # %if.end105
	cmpl	$1598584648, -24(%rbp)  # imm = 0x5F487748
	jne	.LBB16_35
.LBB16_34:
	addq	$32, %rsp
	popq	%rbp
	.cfi_def_cfa %rsp, 8
	retq
.LBB16_35:                              # %func_exit
	.cfi_def_cfa %rbp, 16
	callq	detect_breach
	jmp	.LBB16_34
.Lfunc_end16:
	.size	CalculateOffset8Param.12, .Lfunc_end16-CalculateOffset8Param.12
	.cfi_endproc
                                        # -- End function
	.globl	CalculateOffset8Param.13 # -- Begin function CalculateOffset8Param.13
	.p2align	4, 0x90
	.type	CalculateOffset8Param.13,@function
CalculateOffset8Param.13:               # @CalculateOffset8Param.13
	.cfi_startproc
# %bb.0:                                # %entry
	pushq	%rbp
	.cfi_def_cfa_offset 16
	.cfi_offset %rbp, -16
	movq	%rsp, %rbp
	.cfi_def_cfa_register %rbp
	subq	$32, %rsp
	movl	$1800334730, -24(%rbp)  # imm = 0x6B4EED8A
	movq	input, %rax
	cmpl	$0, 3584(%rax)
	je	.LBB17_17
# %bb.1:                                # %if.then
	movl	$0, -12(%rbp)
.LBB17_2:                               # %for.cond
                                        # =>This Loop Header: Depth=1
                                        #     Child Loop BB17_4 Depth 2
                                        #       Child Loop BB17_6 Depth 3
	cmpl	$13, -12(%rbp)
	jge	.LBB17_16
# %bb.3:                                # %for.body
                                        #   in Loop: Header=BB17_2 Depth=1
	movl	-12(%rbp), %eax
	addl	$16, %eax
	subl	$10, %eax
	movl	%eax, -20(%rbp)
	movl	$0, -8(%rbp)
.LBB17_4:                               # %for.cond1
                                        #   Parent Loop BB17_2 Depth=1
                                        # =>  This Loop Header: Depth=2
                                        #       Child Loop BB17_6 Depth 3
	cmpl	$8, -8(%rbp)
	jge	.LBB17_14
# %bb.5:                                # %for.body3
                                        #   in Loop: Header=BB17_4 Depth=2
	movl	$0, -4(%rbp)
.LBB17_6:                               # %for.cond4
                                        #   Parent Loop BB17_2 Depth=1
                                        #     Parent Loop BB17_4 Depth=2
                                        # =>    This Inner Loop Header: Depth=3
	cmpl	$8, -4(%rbp)
	jge	.LBB17_12
# %bb.7:                                # %for.body6
                                        #   in Loop: Header=BB17_6 Depth=3
	movl	-4(%rbp), %eax
	shll	$3, %eax
	addl	-8(%rbp), %eax
	movl	%eax, -16(%rbp)
	movq	img, %rax
	cmpl	$2, 24(%rax)
	jne	.LBB17_9
# %bb.8:                                # %if.then9
                                        #   in Loop: Header=BB17_6 Depth=3
	movslq	-16(%rbp), %rax
	movswl	OffsetList8x8input(,%rax,2), %eax
	movl	-20(%rbp), %ecx
                                        # kill: def $cl killed $ecx
	shll	%cl, %eax
	movslq	-12(%rbp), %rcx
	shlq	$8, %rcx
	movabsq	$LevelOffset8x8Luma_Intra, %rdx
	addq	%rcx, %rdx
	movslq	-8(%rbp), %rcx
	shlq	$5, %rcx
	addq	%rcx, %rdx
	movslq	-4(%rbp), %rcx
	movl	%eax, (%rdx,%rcx,4)
	jmp	.LBB17_10
.LBB17_9:                               # %if.else
                                        #   in Loop: Header=BB17_6 Depth=3
	movslq	-16(%rbp), %rax
	movswl	OffsetList8x8input+128(,%rax,2), %eax
	movl	-20(%rbp), %ecx
                                        # kill: def $cl killed $ecx
	shll	%cl, %eax
	movslq	-12(%rbp), %rcx
	shlq	$8, %rcx
	movabsq	$LevelOffset8x8Luma_Intra, %rdx
	addq	%rcx, %rdx
	movslq	-8(%rbp), %rcx
	shlq	$5, %rcx
	addq	%rcx, %rdx
	movslq	-4(%rbp), %rcx
	movl	%eax, (%rdx,%rcx,4)
.LBB17_10:                              # %if.end
                                        #   in Loop: Header=BB17_6 Depth=3
	movslq	-16(%rbp), %rax
	movswl	OffsetList8x8input+256(,%rax,2), %eax
	movl	-20(%rbp), %ecx
                                        # kill: def $cl killed $ecx
	shll	%cl, %eax
	movslq	-12(%rbp), %rcx
	shlq	$8, %rcx
	movabsq	$LevelOffset8x8Luma_Inter, %rdx
	addq	%rcx, %rdx
	movslq	-8(%rbp), %rcx
	shlq	$5, %rcx
	addq	%rcx, %rdx
	movslq	-4(%rbp), %rcx
	movl	%eax, (%rdx,%rcx,4)
# %bb.11:                               # %for.inc
                                        #   in Loop: Header=BB17_6 Depth=3
	movl	-4(%rbp), %eax
	addl	$1, %eax
	movl	%eax, -4(%rbp)
	jmp	.LBB17_6
.LBB17_12:                              # %for.end
                                        #   in Loop: Header=BB17_4 Depth=2
	jmp	.LBB17_13
.LBB17_13:                              # %for.inc37
                                        #   in Loop: Header=BB17_4 Depth=2
	movl	-8(%rbp), %eax
	addl	$1, %eax
	movl	%eax, -8(%rbp)
	jmp	.LBB17_4
.LBB17_14:                              # %for.end39
                                        #   in Loop: Header=BB17_2 Depth=1
	jmp	.LBB17_15
.LBB17_15:                              # %for.inc40
                                        #   in Loop: Header=BB17_2 Depth=1
	movl	-12(%rbp), %eax
	addl	$1, %eax
	movl	%eax, -12(%rbp)
	jmp	.LBB17_2
.LBB17_16:                              # %for.end42
	jmp	.LBB17_33
.LBB17_17:                              # %if.else43
	movl	$0, -12(%rbp)
.LBB17_18:                              # %for.cond44
                                        # =>This Loop Header: Depth=1
                                        #     Child Loop BB17_20 Depth 2
                                        #       Child Loop BB17_22 Depth 3
	cmpl	$13, -12(%rbp)
	jge	.LBB17_32
# %bb.19:                               # %for.body47
                                        #   in Loop: Header=BB17_18 Depth=1
	movl	-12(%rbp), %eax
	addl	$16, %eax
	subl	$10, %eax
	movl	%eax, -20(%rbp)
	movl	$0, -8(%rbp)
.LBB17_20:                              # %for.cond50
                                        #   Parent Loop BB17_18 Depth=1
                                        # =>  This Loop Header: Depth=2
                                        #       Child Loop BB17_22 Depth 3
	cmpl	$8, -8(%rbp)
	jge	.LBB17_30
# %bb.21:                               # %for.body53
                                        #   in Loop: Header=BB17_20 Depth=2
	movl	$0, -4(%rbp)
.LBB17_22:                              # %for.cond54
                                        #   Parent Loop BB17_18 Depth=1
                                        #     Parent Loop BB17_20 Depth=2
                                        # =>    This Inner Loop Header: Depth=3
	cmpl	$8, -4(%rbp)
	jge	.LBB17_28
# %bb.23:                               # %for.body57
                                        #   in Loop: Header=BB17_22 Depth=3
	movl	-4(%rbp), %eax
	shll	$3, %eax
	addl	-8(%rbp), %eax
	movl	%eax, -16(%rbp)
	movq	img, %rax
	cmpl	$2, 24(%rax)
	jne	.LBB17_25
# %bb.24:                               # %if.then63
                                        #   in Loop: Header=BB17_22 Depth=3
	movslq	-16(%rbp), %rax
	movswl	Offset8_intra_default_intra(,%rax,2), %eax
	movl	-20(%rbp), %ecx
                                        # kill: def $cl killed $ecx
	shll	%cl, %eax
	movslq	-12(%rbp), %rcx
	shlq	$8, %rcx
	movabsq	$LevelOffset8x8Luma_Intra, %rdx
	addq	%rcx, %rdx
	movslq	-8(%rbp), %rcx
	shlq	$5, %rcx
	addq	%rcx, %rdx
	movslq	-4(%rbp), %rcx
	movl	%eax, (%rdx,%rcx,4)
	jmp	.LBB17_26
.LBB17_25:                              # %if.else74
                                        #   in Loop: Header=BB17_22 Depth=3
	movslq	-16(%rbp), %rax
	movswl	Offset8_intra_default_inter(,%rax,2), %eax
	movl	-20(%rbp), %ecx
                                        # kill: def $cl killed $ecx
	shll	%cl, %eax
	movslq	-12(%rbp), %rcx
	shlq	$8, %rcx
	movabsq	$LevelOffset8x8Luma_Intra, %rdx
	addq	%rcx, %rdx
	movslq	-8(%rbp), %rcx
	shlq	$5, %rcx
	addq	%rcx, %rdx
	movslq	-4(%rbp), %rcx
	movl	%eax, (%rdx,%rcx,4)
.LBB17_26:                              # %if.end85
                                        #   in Loop: Header=BB17_22 Depth=3
	movslq	-16(%rbp), %rax
	movswl	Offset8_inter_default(,%rax,2), %eax
	movl	-20(%rbp), %ecx
                                        # kill: def $cl killed $ecx
	shll	%cl, %eax
	movslq	-12(%rbp), %rcx
	shlq	$8, %rcx
	movabsq	$LevelOffset8x8Luma_Inter, %rdx
	addq	%rcx, %rdx
	movslq	-8(%rbp), %rcx
	shlq	$5, %rcx
	addq	%rcx, %rdx
	movslq	-4(%rbp), %rcx
	movl	%eax, (%rdx,%rcx,4)
# %bb.27:                               # %for.inc96
                                        #   in Loop: Header=BB17_22 Depth=3
	movl	-4(%rbp), %eax
	addl	$1, %eax
	movl	%eax, -4(%rbp)
	jmp	.LBB17_22
.LBB17_28:                              # %for.end98
                                        #   in Loop: Header=BB17_20 Depth=2
	jmp	.LBB17_29
.LBB17_29:                              # %for.inc99
                                        #   in Loop: Header=BB17_20 Depth=2
	movl	-8(%rbp), %eax
	addl	$1, %eax
	movl	%eax, -8(%rbp)
	jmp	.LBB17_20
.LBB17_30:                              # %for.end101
                                        #   in Loop: Header=BB17_18 Depth=1
	jmp	.LBB17_31
.LBB17_31:                              # %for.inc102
                                        #   in Loop: Header=BB17_18 Depth=1
	movl	-12(%rbp), %eax
	addl	$1, %eax
	movl	%eax, -12(%rbp)
	jmp	.LBB17_18
.LBB17_32:                              # %for.end104
	jmp	.LBB17_33
.LBB17_33:                              # %if.end105
	cmpl	$1800334730, -24(%rbp)  # imm = 0x6B4EED8A
	jne	.LBB17_35
.LBB17_34:
	addq	$32, %rsp
	popq	%rbp
	.cfi_def_cfa %rsp, 8
	retq
.LBB17_35:                              # %func_exit
	.cfi_def_cfa %rbp, 16
	callq	detect_breach
	jmp	.LBB17_34
.Lfunc_end17:
	.size	CalculateOffset8Param.13, .Lfunc_end17-CalculateOffset8Param.13
	.cfi_endproc
                                        # -- End function
	.globl	CalculateOffset8Param.14 # -- Begin function CalculateOffset8Param.14
	.p2align	4, 0x90
	.type	CalculateOffset8Param.14,@function
CalculateOffset8Param.14:               # @CalculateOffset8Param.14
	.cfi_startproc
# %bb.0:                                # %entry
	pushq	%rbp
	.cfi_def_cfa_offset 16
	.cfi_offset %rbp, -16
	movq	%rsp, %rbp
	.cfi_def_cfa_register %rbp
	subq	$32, %rsp
	movl	$1871080512, -24(%rbp)  # imm = 0x6F866C40
	movq	input, %rax
	cmpl	$0, 3584(%rax)
	je	.LBB18_17
# %bb.1:                                # %if.then
	movl	$0, -8(%rbp)
.LBB18_2:                               # %for.cond
                                        # =>This Loop Header: Depth=1
                                        #     Child Loop BB18_4 Depth 2
                                        #       Child Loop BB18_6 Depth 3
	cmpl	$13, -8(%rbp)
	jge	.LBB18_16
# %bb.3:                                # %for.body
                                        #   in Loop: Header=BB18_2 Depth=1
	movl	-8(%rbp), %eax
	addl	$16, %eax
	subl	$10, %eax
	movl	%eax, -16(%rbp)
	movl	$0, -4(%rbp)
.LBB18_4:                               # %for.cond1
                                        #   Parent Loop BB18_2 Depth=1
                                        # =>  This Loop Header: Depth=2
                                        #       Child Loop BB18_6 Depth 3
	cmpl	$8, -4(%rbp)
	jge	.LBB18_14
# %bb.5:                                # %for.body3
                                        #   in Loop: Header=BB18_4 Depth=2
	movl	$0, -12(%rbp)
.LBB18_6:                               # %for.cond4
                                        #   Parent Loop BB18_2 Depth=1
                                        #     Parent Loop BB18_4 Depth=2
                                        # =>    This Inner Loop Header: Depth=3
	cmpl	$8, -12(%rbp)
	jge	.LBB18_12
# %bb.7:                                # %for.body6
                                        #   in Loop: Header=BB18_6 Depth=3
	movl	-12(%rbp), %eax
	shll	$3, %eax
	addl	-4(%rbp), %eax
	movl	%eax, -20(%rbp)
	movq	img, %rax
	cmpl	$2, 24(%rax)
	jne	.LBB18_9
# %bb.8:                                # %if.then9
                                        #   in Loop: Header=BB18_6 Depth=3
	movslq	-20(%rbp), %rax
	movswl	OffsetList8x8input(,%rax,2), %eax
	movl	-16(%rbp), %ecx
                                        # kill: def $cl killed $ecx
	shll	%cl, %eax
	movslq	-8(%rbp), %rcx
	shlq	$8, %rcx
	movabsq	$LevelOffset8x8Luma_Intra, %rdx
	addq	%rcx, %rdx
	movslq	-4(%rbp), %rcx
	shlq	$5, %rcx
	addq	%rcx, %rdx
	movslq	-12(%rbp), %rcx
	movl	%eax, (%rdx,%rcx,4)
	jmp	.LBB18_10
.LBB18_9:                               # %if.else
                                        #   in Loop: Header=BB18_6 Depth=3
	movslq	-20(%rbp), %rax
	movswl	OffsetList8x8input+128(,%rax,2), %eax
	movl	-16(%rbp), %ecx
                                        # kill: def $cl killed $ecx
	shll	%cl, %eax
	movslq	-8(%rbp), %rcx
	shlq	$8, %rcx
	movabsq	$LevelOffset8x8Luma_Intra, %rdx
	addq	%rcx, %rdx
	movslq	-4(%rbp), %rcx
	shlq	$5, %rcx
	addq	%rcx, %rdx
	movslq	-12(%rbp), %rcx
	movl	%eax, (%rdx,%rcx,4)
.LBB18_10:                              # %if.end
                                        #   in Loop: Header=BB18_6 Depth=3
	movslq	-20(%rbp), %rax
	movswl	OffsetList8x8input+256(,%rax,2), %eax
	movl	-16(%rbp), %ecx
                                        # kill: def $cl killed $ecx
	shll	%cl, %eax
	movslq	-8(%rbp), %rcx
	shlq	$8, %rcx
	movabsq	$LevelOffset8x8Luma_Inter, %rdx
	addq	%rcx, %rdx
	movslq	-4(%rbp), %rcx
	shlq	$5, %rcx
	addq	%rcx, %rdx
	movslq	-12(%rbp), %rcx
	movl	%eax, (%rdx,%rcx,4)
# %bb.11:                               # %for.inc
                                        #   in Loop: Header=BB18_6 Depth=3
	movl	-12(%rbp), %eax
	addl	$1, %eax
	movl	%eax, -12(%rbp)
	jmp	.LBB18_6
.LBB18_12:                              # %for.end
                                        #   in Loop: Header=BB18_4 Depth=2
	jmp	.LBB18_13
.LBB18_13:                              # %for.inc37
                                        #   in Loop: Header=BB18_4 Depth=2
	movl	-4(%rbp), %eax
	addl	$1, %eax
	movl	%eax, -4(%rbp)
	jmp	.LBB18_4
.LBB18_14:                              # %for.end39
                                        #   in Loop: Header=BB18_2 Depth=1
	jmp	.LBB18_15
.LBB18_15:                              # %for.inc40
                                        #   in Loop: Header=BB18_2 Depth=1
	movl	-8(%rbp), %eax
	addl	$1, %eax
	movl	%eax, -8(%rbp)
	jmp	.LBB18_2
.LBB18_16:                              # %for.end42
	jmp	.LBB18_33
.LBB18_17:                              # %if.else43
	movl	$0, -8(%rbp)
.LBB18_18:                              # %for.cond44
                                        # =>This Loop Header: Depth=1
                                        #     Child Loop BB18_20 Depth 2
                                        #       Child Loop BB18_22 Depth 3
	cmpl	$13, -8(%rbp)
	jge	.LBB18_32
# %bb.19:                               # %for.body47
                                        #   in Loop: Header=BB18_18 Depth=1
	movl	-8(%rbp), %eax
	addl	$16, %eax
	subl	$10, %eax
	movl	%eax, -16(%rbp)
	movl	$0, -4(%rbp)
.LBB18_20:                              # %for.cond50
                                        #   Parent Loop BB18_18 Depth=1
                                        # =>  This Loop Header: Depth=2
                                        #       Child Loop BB18_22 Depth 3
	cmpl	$8, -4(%rbp)
	jge	.LBB18_30
# %bb.21:                               # %for.body53
                                        #   in Loop: Header=BB18_20 Depth=2
	movl	$0, -12(%rbp)
.LBB18_22:                              # %for.cond54
                                        #   Parent Loop BB18_18 Depth=1
                                        #     Parent Loop BB18_20 Depth=2
                                        # =>    This Inner Loop Header: Depth=3
	cmpl	$8, -12(%rbp)
	jge	.LBB18_28
# %bb.23:                               # %for.body57
                                        #   in Loop: Header=BB18_22 Depth=3
	movl	-12(%rbp), %eax
	shll	$3, %eax
	addl	-4(%rbp), %eax
	movl	%eax, -20(%rbp)
	movq	img, %rax
	cmpl	$2, 24(%rax)
	jne	.LBB18_25
# %bb.24:                               # %if.then63
                                        #   in Loop: Header=BB18_22 Depth=3
	movslq	-20(%rbp), %rax
	movswl	Offset8_intra_default_intra(,%rax,2), %eax
	movl	-16(%rbp), %ecx
                                        # kill: def $cl killed $ecx
	shll	%cl, %eax
	movslq	-8(%rbp), %rcx
	shlq	$8, %rcx
	movabsq	$LevelOffset8x8Luma_Intra, %rdx
	addq	%rcx, %rdx
	movslq	-4(%rbp), %rcx
	shlq	$5, %rcx
	addq	%rcx, %rdx
	movslq	-12(%rbp), %rcx
	movl	%eax, (%rdx,%rcx,4)
	jmp	.LBB18_26
.LBB18_25:                              # %if.else74
                                        #   in Loop: Header=BB18_22 Depth=3
	movslq	-20(%rbp), %rax
	movswl	Offset8_intra_default_inter(,%rax,2), %eax
	movl	-16(%rbp), %ecx
                                        # kill: def $cl killed $ecx
	shll	%cl, %eax
	movslq	-8(%rbp), %rcx
	shlq	$8, %rcx
	movabsq	$LevelOffset8x8Luma_Intra, %rdx
	addq	%rcx, %rdx
	movslq	-4(%rbp), %rcx
	shlq	$5, %rcx
	addq	%rcx, %rdx
	movslq	-12(%rbp), %rcx
	movl	%eax, (%rdx,%rcx,4)
.LBB18_26:                              # %if.end85
                                        #   in Loop: Header=BB18_22 Depth=3
	movslq	-20(%rbp), %rax
	movswl	Offset8_inter_default(,%rax,2), %eax
	movl	-16(%rbp), %ecx
                                        # kill: def $cl killed $ecx
	shll	%cl, %eax
	movslq	-8(%rbp), %rcx
	shlq	$8, %rcx
	movabsq	$LevelOffset8x8Luma_Inter, %rdx
	addq	%rcx, %rdx
	movslq	-4(%rbp), %rcx
	shlq	$5, %rcx
	addq	%rcx, %rdx
	movslq	-12(%rbp), %rcx
	movl	%eax, (%rdx,%rcx,4)
# %bb.27:                               # %for.inc96
                                        #   in Loop: Header=BB18_22 Depth=3
	movl	-12(%rbp), %eax
	addl	$1, %eax
	movl	%eax, -12(%rbp)
	jmp	.LBB18_22
.LBB18_28:                              # %for.end98
                                        #   in Loop: Header=BB18_20 Depth=2
	jmp	.LBB18_29
.LBB18_29:                              # %for.inc99
                                        #   in Loop: Header=BB18_20 Depth=2
	movl	-4(%rbp), %eax
	addl	$1, %eax
	movl	%eax, -4(%rbp)
	jmp	.LBB18_20
.LBB18_30:                              # %for.end101
                                        #   in Loop: Header=BB18_18 Depth=1
	jmp	.LBB18_31
.LBB18_31:                              # %for.inc102
                                        #   in Loop: Header=BB18_18 Depth=1
	movl	-8(%rbp), %eax
	addl	$1, %eax
	movl	%eax, -8(%rbp)
	jmp	.LBB18_18
.LBB18_32:                              # %for.end104
	jmp	.LBB18_33
.LBB18_33:                              # %if.end105
	cmpl	$1871080512, -24(%rbp)  # imm = 0x6F866C40
	jne	.LBB18_35
.LBB18_34:
	addq	$32, %rsp
	popq	%rbp
	.cfi_def_cfa %rsp, 8
	retq
.LBB18_35:                              # %func_exit
	.cfi_def_cfa %rbp, 16
	callq	detect_breach
	jmp	.LBB18_34
.Lfunc_end18:
	.size	CalculateOffset8Param.14, .Lfunc_end18-CalculateOffset8Param.14
	.cfi_endproc
                                        # -- End function
	.globl	CheckOffsetParameterName.15 # -- Begin function CheckOffsetParameterName.15
	.p2align	4, 0x90
	.type	CheckOffsetParameterName.15,@function
CheckOffsetParameterName.15:            # @CheckOffsetParameterName.15
	.cfi_startproc
# %bb.0:                                # %entry
	pushq	%rbp
	.cfi_def_cfa_offset 16
	.cfi_offset %rbp, -16
	movq	%rsp, %rbp
	.cfi_def_cfa_register %rbp
	pushq	%rbx
	subq	$40, %rsp
	.cfi_offset %rbx, -24
	movl	$84774482, -20(%rbp)    # imm = 0x50D8E52
	movq	%rdi, -32(%rbp)
	movq	%rsi, -40(%rbp)
	movl	$0, -12(%rbp)
	movq	-40(%rbp), %rax
	movl	$0, (%rax)
.LBB19_1:                               # %while.cond
                                        # =>This Inner Loop Header: Depth=1
	xorl	%eax, %eax
	movslq	-12(%rbp), %rcx
	imulq	$24, %rcx, %rcx
	movabsq	$OffsetType4x4, %rdx
	addq	%rcx, %rdx
	cmpq	$0, %rdx
	je	.LBB19_3
# %bb.2:                                # %land.rhs
                                        #   in Loop: Header=BB19_1 Depth=1
	cmpl	$9, -12(%rbp)
	setl	%al
.LBB19_3:                               # %land.end
                                        #   in Loop: Header=BB19_1 Depth=1
	testb	$1, %al
	jne	.LBB19_4
	jmp	.LBB19_8
.LBB19_4:                               # %while.body
                                        #   in Loop: Header=BB19_1 Depth=1
	xorl	%ebx, %ebx
	movslq	-12(%rbp), %rax
	imulq	$24, %rax, %rax
	movabsq	$OffsetType4x4, %rdi
	addq	%rax, %rdi
	movq	-32(%rbp), %rsi
	callq	strcmp
	cmpl	%eax, %ebx
	jne	.LBB19_6
# %bb.5:                                # %if.then
	movl	-12(%rbp), %eax
	movl	%eax, -16(%rbp)
	jmp	.LBB19_17
.LBB19_6:                               # %if.else
                                        #   in Loop: Header=BB19_1 Depth=1
	movl	-12(%rbp), %eax
	addl	$1, %eax
	movl	%eax, -12(%rbp)
# %bb.7:                                # %if.end
                                        #   in Loop: Header=BB19_1 Depth=1
	jmp	.LBB19_1
.LBB19_8:                               # %while.end
	movl	$0, -12(%rbp)
	movq	-40(%rbp), %rax
	movl	$1, (%rax)
.LBB19_9:                               # %while.cond6
                                        # =>This Inner Loop Header: Depth=1
	xorl	%eax, %eax
	movslq	-12(%rbp), %rcx
	imulq	$24, %rcx, %rcx
	movabsq	$OffsetType8x8, %rdx
	addq	%rcx, %rdx
	cmpq	$0, %rdx
	je	.LBB19_11
# %bb.10:                               # %land.rhs11
                                        #   in Loop: Header=BB19_9 Depth=1
	cmpl	$3, -12(%rbp)
	setl	%al
.LBB19_11:                              # %land.end13
                                        #   in Loop: Header=BB19_9 Depth=1
	testb	$1, %al
	jne	.LBB19_12
	jmp	.LBB19_16
.LBB19_12:                              # %while.body14
                                        #   in Loop: Header=BB19_9 Depth=1
	xorl	%ebx, %ebx
	movslq	-12(%rbp), %rax
	imulq	$24, %rax, %rax
	movabsq	$OffsetType8x8, %rdi
	addq	%rax, %rdi
	movq	-32(%rbp), %rsi
	callq	strcmp
	cmpl	%eax, %ebx
	jne	.LBB19_14
# %bb.13:                               # %if.then20
	movl	-12(%rbp), %eax
	movl	%eax, -16(%rbp)
	jmp	.LBB19_17
.LBB19_14:                              # %if.else21
                                        #   in Loop: Header=BB19_9 Depth=1
	movl	-12(%rbp), %eax
	addl	$1, %eax
	movl	%eax, -12(%rbp)
# %bb.15:                               # %if.end23
                                        #   in Loop: Header=BB19_9 Depth=1
	jmp	.LBB19_9
.LBB19_16:                              # %while.end24
	movl	$-1, -16(%rbp)
.LBB19_17:                              # %return
	movl	-16(%rbp), %ebx
	cmpl	$84774482, -20(%rbp)    # imm = 0x50D8E52
	jne	.LBB19_19
.LBB19_18:
	movl	%ebx, %eax
	addq	$40, %rsp
	popq	%rbx
	popq	%rbp
	.cfi_def_cfa %rsp, 8
	retq
.LBB19_19:                              # %func_exit
	.cfi_def_cfa %rbp, 16
	callq	detect_breach
	jmp	.LBB19_18
.Lfunc_end19:
	.size	CheckOffsetParameterName.15, .Lfunc_end19-CheckOffsetParameterName.15
	.cfi_endproc
                                        # -- End function
	.globl	ParseQOffsetMatrix.16   # -- Begin function ParseQOffsetMatrix.16
	.p2align	4, 0x90
	.type	ParseQOffsetMatrix.16,@function
ParseQOffsetMatrix.16:                  # @ParseQOffsetMatrix.16
	.cfi_startproc
# %bb.0:                                # %entry
	pushq	%rbp
	.cfi_def_cfa_offset 16
	.cfi_offset %rbp, -16
	movq	%rsp, %rbp
	.cfi_def_cfa_register %rbp
	subq	$8096, %rsp             # imm = 0x1FA0
	movl	$27392012, -52(%rbp)    # imm = 0x1A1F80C
	movq	%rdi, -80(%rbp)
	movl	%esi, -60(%rbp)
	movl	$0, -28(%rbp)
	movl	$0, -36(%rbp)
	movl	$0, -20(%rbp)
	movq	-80(%rbp), %rax
	movq	%rax, -16(%rbp)
	movq	-80(%rbp), %rax
	movslq	-60(%rbp), %rcx
	addq	%rcx, %rax
	movq	%rax, -88(%rbp)
.LBB20_1:                               # %while.cond
                                        # =>This Loop Header: Depth=1
                                        #     Child Loop BB20_6 Depth 2
	movq	-16(%rbp), %rax
	cmpq	-88(%rbp), %rax
	jae	.LBB20_25
# %bb.2:                                # %while.body
                                        #   in Loop: Header=BB20_1 Depth=1
	movq	-16(%rbp), %rax
	movsbl	(%rax), %eax
	addl	$-9, %eax
	movl	%eax, %ecx
	subl	$35, %ecx
	ja	.LBB20_21
# %bb.3:                                # %while.body
                                        #   in Loop: Header=BB20_1 Depth=1
	movq	.LJTI20_0(,%rax,8), %rax
	jmpq	*%rax
.LBB20_4:                               # %sw.bb
                                        #   in Loop: Header=BB20_1 Depth=1
	movq	-16(%rbp), %rax
	addq	$1, %rax
	movq	%rax, -16(%rbp)
	jmp	.LBB20_24
.LBB20_5:                               # %sw.bb1
                                        #   in Loop: Header=BB20_1 Depth=1
	movq	-16(%rbp), %rax
	movb	$0, (%rax)
.LBB20_6:                               # %while.cond2
                                        #   Parent Loop BB20_1 Depth=1
                                        # =>  This Inner Loop Header: Depth=2
	xorl	%eax, %eax
	movq	-16(%rbp), %rcx
	movsbl	(%rcx), %ecx
	cmpl	$10, %ecx
	je	.LBB20_8
# %bb.7:                                # %land.rhs
                                        #   in Loop: Header=BB20_6 Depth=2
	movq	-16(%rbp), %rax
	cmpq	-88(%rbp), %rax
	setb	%al
.LBB20_8:                               # %land.end
                                        #   in Loop: Header=BB20_6 Depth=2
	testb	$1, %al
	jne	.LBB20_9
	jmp	.LBB20_10
.LBB20_9:                               # %while.body8
                                        #   in Loop: Header=BB20_6 Depth=2
	movq	-16(%rbp), %rax
	addq	$1, %rax
	movq	%rax, -16(%rbp)
	jmp	.LBB20_6
.LBB20_10:                              # %while.end
                                        #   in Loop: Header=BB20_1 Depth=1
	movl	$0, -36(%rbp)
	movl	$0, -20(%rbp)
	jmp	.LBB20_24
.LBB20_11:                              # %sw.bb10
                                        #   in Loop: Header=BB20_1 Depth=1
	movl	$0, -20(%rbp)
	movl	$0, -36(%rbp)
	movq	-16(%rbp), %rax
	movq	%rax, %rcx
	addq	$1, %rcx
	movq	%rcx, -16(%rbp)
	movb	$0, (%rax)
	jmp	.LBB20_24
.LBB20_12:                              # %sw.bb12
                                        #   in Loop: Header=BB20_1 Depth=1
	cmpl	$0, -36(%rbp)
	je	.LBB20_14
# %bb.13:                               # %if.then
                                        #   in Loop: Header=BB20_1 Depth=1
	movq	-16(%rbp), %rax
	addq	$1, %rax
	movq	%rax, -16(%rbp)
	jmp	.LBB20_15
.LBB20_14:                              # %if.else
                                        #   in Loop: Header=BB20_1 Depth=1
	movq	-16(%rbp), %rax
	movq	%rax, %rcx
	addq	$1, %rcx
	movq	%rcx, -16(%rbp)
	movb	$0, (%rax)
	movl	$0, -20(%rbp)
.LBB20_15:                              # %if.end
                                        #   in Loop: Header=BB20_1 Depth=1
	jmp	.LBB20_24
.LBB20_16:                              # %sw.bb15
                                        #   in Loop: Header=BB20_1 Depth=1
	movq	-16(%rbp), %rax
	movq	%rax, %rcx
	addq	$1, %rcx
	movq	%rcx, -16(%rbp)
	movb	$0, (%rax)
	cmpl	$0, -36(%rbp)
	jne	.LBB20_18
# %bb.17:                               # %if.then18
                                        #   in Loop: Header=BB20_1 Depth=1
	movq	-16(%rbp), %rax
	movl	-28(%rbp), %ecx
	movl	%ecx, %edx
	addl	$1, %edx
	movl	%edx, -28(%rbp)
	movslq	%ecx, %rcx
	movq	%rax, -8096(%rbp,%rcx,8)
	movl	-20(%rbp), %eax
	xorl	$-1, %eax
	movl	%eax, -20(%rbp)
	jmp	.LBB20_19
.LBB20_18:                              # %if.else21
                                        #   in Loop: Header=BB20_1 Depth=1
	movl	$0, -20(%rbp)
.LBB20_19:                              # %if.end22
                                        #   in Loop: Header=BB20_1 Depth=1
	movl	-36(%rbp), %eax
	xorl	$-1, %eax
	movl	%eax, -36(%rbp)
	jmp	.LBB20_24
.LBB20_20:                              # %sw.bb24
                                        #   in Loop: Header=BB20_1 Depth=1
	movq	-16(%rbp), %rax
	addq	$1, %rax
	movq	%rax, -16(%rbp)
	movl	$0, -20(%rbp)
	jmp	.LBB20_24
.LBB20_21:                              # %sw.default
                                        #   in Loop: Header=BB20_1 Depth=1
	cmpl	$0, -20(%rbp)
	jne	.LBB20_23
# %bb.22:                               # %if.then27
                                        #   in Loop: Header=BB20_1 Depth=1
	movq	-16(%rbp), %rax
	movl	-28(%rbp), %ecx
	movl	%ecx, %edx
	addl	$1, %edx
	movl	%edx, -28(%rbp)
	movslq	%ecx, %rcx
	movq	%rax, -8096(%rbp,%rcx,8)
	movl	-20(%rbp), %eax
	xorl	$-1, %eax
	movl	%eax, -20(%rbp)
.LBB20_23:                              # %if.end32
                                        #   in Loop: Header=BB20_1 Depth=1
	movq	-16(%rbp), %rax
	addq	$1, %rax
	movq	%rax, -16(%rbp)
.LBB20_24:                              # %sw.epilog
                                        #   in Loop: Header=BB20_1 Depth=1
	jmp	.LBB20_1
.LBB20_25:                              # %while.end34
	movl	-28(%rbp), %eax
	addl	$-1, %eax
	movl	%eax, -28(%rbp)
	movl	$0, -24(%rbp)
.LBB20_26:                              # %for.cond
                                        # =>This Loop Header: Depth=1
                                        #     Child Loop BB20_35 Depth 2
	movl	-24(%rbp), %eax
	cmpl	-28(%rbp), %eax
	jge	.LBB20_42
# %bb.27:                               # %for.body
                                        #   in Loop: Header=BB20_26 Depth=1
	movl	$0, -4(%rbp)
	movl	-24(%rbp), %eax
	addl	-4(%rbp), %eax
	cltq
	movq	-8096(%rbp,%rax,8), %rdi
	leaq	-56(%rbp), %rsi
	callq	CheckOffsetParameterName
	xorl	%ecx, %ecx
	movl	%eax, -40(%rbp)
	cmpl	%eax, %ecx
	jle	.LBB20_29
# %bb.28:                               # %if.then41
                                        #   in Loop: Header=BB20_26 Depth=1
	movl	-24(%rbp), %eax
	addl	-4(%rbp), %eax
	cltq
	movq	-8096(%rbp,%rax,8), %rcx
	movabsq	$errortext, %rdi
	movl	$300, %esi              # imm = 0x12C
	movabsq	$.L.str, %rdx
	movb	$0, %al
	callq	snprintf
	movabsq	$errortext, %rdi
	movl	$300, %esi              # imm = 0x12C
	callq	error
.LBB20_29:                              # %if.end46
                                        #   in Loop: Header=BB20_26 Depth=1
	movl	-4(%rbp), %eax
	addl	$1, %eax
	movl	%eax, -4(%rbp)
	movl	-24(%rbp), %eax
	addl	-4(%rbp), %eax
	cltq
	movq	-8096(%rbp,%rax,8), %rsi
	movl	$.L.str.1, %edi
	callq	strcmp
	cmpl	$0, %eax
	je	.LBB20_31
# %bb.30:                               # %if.then53
                                        #   in Loop: Header=BB20_26 Depth=1
	movabsq	$errortext, %rdi
	movl	$300, %esi              # imm = 0x12C
	movabsq	$.L.str.2, %rdx
	movb	$0, %al
	callq	snprintf
	movabsq	$errortext, %rdi
	movl	$300, %esi              # imm = 0x12C
	callq	error
.LBB20_31:                              # %if.end55
                                        #   in Loop: Header=BB20_26 Depth=1
	movl	-4(%rbp), %eax
	addl	$1, %eax
	movl	%eax, -4(%rbp)
	cmpl	$0, -56(%rbp)
	jne	.LBB20_33
# %bb.32:                               # %if.then58
                                        #   in Loop: Header=BB20_26 Depth=1
	movl	$16, -44(%rbp)
	movslq	-40(%rbp), %rax
	shlq	$5, %rax
	movabsq	$OffsetList4x4input, %rcx
	addq	%rax, %rcx
	movq	%rcx, -72(%rbp)
	movslq	-40(%rbp), %rax
	movl	$1, offset4x4_check(,%rax,4)
	jmp	.LBB20_34
.LBB20_33:                              # %if.else63
                                        #   in Loop: Header=BB20_26 Depth=1
	movl	$64, -44(%rbp)
	movslq	-40(%rbp), %rax
	shlq	$7, %rax
	movabsq	$OffsetList8x8input, %rcx
	addq	%rax, %rcx
	movq	%rcx, -72(%rbp)
	movslq	-40(%rbp), %rax
	movl	$1, offset8x8_check(,%rax,4)
.LBB20_34:                              # %if.end69
                                        #   in Loop: Header=BB20_26 Depth=1
	movl	$0, -32(%rbp)
.LBB20_35:                              # %for.cond70
                                        #   Parent Loop BB20_26 Depth=1
                                        # =>  This Inner Loop Header: Depth=2
	movl	-32(%rbp), %eax
	cmpl	-44(%rbp), %eax
	jge	.LBB20_40
# %bb.36:                               # %for.body73
                                        #   in Loop: Header=BB20_35 Depth=2
	movl	-24(%rbp), %eax
	addl	-4(%rbp), %eax
	addl	-32(%rbp), %eax
	cltq
	movq	-8096(%rbp,%rax,8), %rdi
	movabsq	$.L.str.3, %rsi
	leaq	-48(%rbp), %rdx
	movb	$0, %al
	callq	__isoc99_sscanf
	movl	$1, %ecx
	cmpl	%eax, %ecx
	je	.LBB20_38
# %bb.37:                               # %if.then81
                                        #   in Loop: Header=BB20_35 Depth=2
	movslq	-24(%rbp), %rax
	movq	-8096(%rbp,%rax,8), %rcx
	movl	-24(%rbp), %eax
	addl	-4(%rbp), %eax
	addl	-32(%rbp), %eax
	cltq
	movq	-8096(%rbp,%rax,8), %r8
	movabsq	$errortext, %rdi
	movl	$300, %esi              # imm = 0x12C
	movabsq	$.L.str.4, %rdx
	movb	$0, %al
	callq	snprintf
	movabsq	$errortext, %rdi
	movl	$300, %esi              # imm = 0x12C
	callq	error
.LBB20_38:                              # %if.end89
                                        #   in Loop: Header=BB20_35 Depth=2
	movl	-48(%rbp), %eax
	movq	-72(%rbp), %rcx
	movslq	-32(%rbp), %rdx
	movw	%ax, (%rcx,%rdx,2)
# %bb.39:                               # %for.inc
                                        #   in Loop: Header=BB20_35 Depth=2
	movl	-32(%rbp), %eax
	addl	$1, %eax
	movl	%eax, -32(%rbp)
	jmp	.LBB20_35
.LBB20_40:                              # %for.end
                                        #   in Loop: Header=BB20_26 Depth=1
	movl	-32(%rbp), %eax
	addl	-4(%rbp), %eax
	movl	%eax, -4(%rbp)
	movabsq	$.L.str.5, %rdi
	movb	$0, %al
	callq	printf
# %bb.41:                               # %for.inc96
                                        #   in Loop: Header=BB20_26 Depth=1
	movl	-4(%rbp), %eax
	addl	-24(%rbp), %eax
	movl	%eax, -24(%rbp)
	jmp	.LBB20_26
.LBB20_42:                              # %for.end98
	cmpl	$27392012, -52(%rbp)    # imm = 0x1A1F80C
	jne	.LBB20_44
.LBB20_43:
	addq	$8096, %rsp             # imm = 0x1FA0
	popq	%rbp
	.cfi_def_cfa %rsp, 8
	retq
.LBB20_44:                              # %func_exit
	.cfi_def_cfa %rbp, 16
	callq	detect_breach
	jmp	.LBB20_43
.Lfunc_end20:
	.size	ParseQOffsetMatrix.16, .Lfunc_end20-ParseQOffsetMatrix.16
	.cfi_endproc
	.section	.rodata,"a",@progbits
	.p2align	3
.LJTI20_0:
	.quad	.LBB20_12
	.quad	.LBB20_11
	.quad	.LBB20_21
	.quad	.LBB20_21
	.quad	.LBB20_4
	.quad	.LBB20_21
	.quad	.LBB20_21
	.quad	.LBB20_21
	.quad	.LBB20_21
	.quad	.LBB20_21
	.quad	.LBB20_21
	.quad	.LBB20_21
	.quad	.LBB20_21
	.quad	.LBB20_21
	.quad	.LBB20_21
	.quad	.LBB20_21
	.quad	.LBB20_21
	.quad	.LBB20_21
	.quad	.LBB20_21
	.quad	.LBB20_21
	.quad	.LBB20_21
	.quad	.LBB20_21
	.quad	.LBB20_21
	.quad	.LBB20_12
	.quad	.LBB20_21
	.quad	.LBB20_16
	.quad	.LBB20_5
	.quad	.LBB20_21
	.quad	.LBB20_21
	.quad	.LBB20_21
	.quad	.LBB20_21
	.quad	.LBB20_21
	.quad	.LBB20_21
	.quad	.LBB20_21
	.quad	.LBB20_21
	.quad	.LBB20_20
                                        # -- End function
	.text
	.globl	CheckOffsetParameterName.17 # -- Begin function CheckOffsetParameterName.17
	.p2align	4, 0x90
	.type	CheckOffsetParameterName.17,@function
CheckOffsetParameterName.17:            # @CheckOffsetParameterName.17
	.cfi_startproc
# %bb.0:                                # %entry
	pushq	%rbp
	.cfi_def_cfa_offset 16
	.cfi_offset %rbp, -16
	movq	%rsp, %rbp
	.cfi_def_cfa_register %rbp
	pushq	%rbx
	subq	$40, %rsp
	.cfi_offset %rbx, -24
	movl	$1050916768, -20(%rbp)  # imm = 0x3EA3B7A0
	movq	%rdi, -32(%rbp)
	movq	%rsi, -40(%rbp)
	movl	$0, -12(%rbp)
	movq	-40(%rbp), %rax
	movl	$0, (%rax)
.LBB21_1:                               # %while.cond
                                        # =>This Inner Loop Header: Depth=1
	xorl	%eax, %eax
	movslq	-12(%rbp), %rcx
	imulq	$24, %rcx, %rcx
	movabsq	$OffsetType4x4, %rdx
	addq	%rcx, %rdx
	cmpq	$0, %rdx
	je	.LBB21_3
# %bb.2:                                # %land.rhs
                                        #   in Loop: Header=BB21_1 Depth=1
	cmpl	$9, -12(%rbp)
	setl	%al
.LBB21_3:                               # %land.end
                                        #   in Loop: Header=BB21_1 Depth=1
	testb	$1, %al
	jne	.LBB21_4
	jmp	.LBB21_8
.LBB21_4:                               # %while.body
                                        #   in Loop: Header=BB21_1 Depth=1
	xorl	%ebx, %ebx
	movslq	-12(%rbp), %rax
	imulq	$24, %rax, %rax
	movabsq	$OffsetType4x4, %rdi
	addq	%rax, %rdi
	movq	-32(%rbp), %rsi
	callq	strcmp
	cmpl	%eax, %ebx
	jne	.LBB21_6
# %bb.5:                                # %if.then
	movl	-12(%rbp), %eax
	movl	%eax, -16(%rbp)
	jmp	.LBB21_17
.LBB21_6:                               # %if.else
                                        #   in Loop: Header=BB21_1 Depth=1
	movl	-12(%rbp), %eax
	addl	$1, %eax
	movl	%eax, -12(%rbp)
# %bb.7:                                # %if.end
                                        #   in Loop: Header=BB21_1 Depth=1
	jmp	.LBB21_1
.LBB21_8:                               # %while.end
	movl	$0, -12(%rbp)
	movq	-40(%rbp), %rax
	movl	$1, (%rax)
.LBB21_9:                               # %while.cond6
                                        # =>This Inner Loop Header: Depth=1
	xorl	%eax, %eax
	movslq	-12(%rbp), %rcx
	imulq	$24, %rcx, %rcx
	movabsq	$OffsetType8x8, %rdx
	addq	%rcx, %rdx
	cmpq	$0, %rdx
	je	.LBB21_11
# %bb.10:                               # %land.rhs11
                                        #   in Loop: Header=BB21_9 Depth=1
	cmpl	$3, -12(%rbp)
	setl	%al
.LBB21_11:                              # %land.end13
                                        #   in Loop: Header=BB21_9 Depth=1
	testb	$1, %al
	jne	.LBB21_12
	jmp	.LBB21_16
.LBB21_12:                              # %while.body14
                                        #   in Loop: Header=BB21_9 Depth=1
	xorl	%ebx, %ebx
	movslq	-12(%rbp), %rax
	imulq	$24, %rax, %rax
	movabsq	$OffsetType8x8, %rdi
	addq	%rax, %rdi
	movq	-32(%rbp), %rsi
	callq	strcmp
	cmpl	%eax, %ebx
	jne	.LBB21_14
# %bb.13:                               # %if.then20
	movl	-12(%rbp), %eax
	movl	%eax, -16(%rbp)
	jmp	.LBB21_17
.LBB21_14:                              # %if.else21
                                        #   in Loop: Header=BB21_9 Depth=1
	movl	-12(%rbp), %eax
	addl	$1, %eax
	movl	%eax, -12(%rbp)
# %bb.15:                               # %if.end23
                                        #   in Loop: Header=BB21_9 Depth=1
	jmp	.LBB21_9
.LBB21_16:                              # %while.end24
	movl	$-1, -16(%rbp)
.LBB21_17:                              # %return
	movl	-16(%rbp), %ebx
	cmpl	$1050916768, -20(%rbp)  # imm = 0x3EA3B7A0
	jne	.LBB21_19
.LBB21_18:
	movl	%ebx, %eax
	addq	$40, %rsp
	popq	%rbx
	popq	%rbp
	.cfi_def_cfa %rsp, 8
	retq
.LBB21_19:                              # %func_exit
	.cfi_def_cfa %rbp, 16
	callq	detect_breach
	jmp	.LBB21_18
.Lfunc_end21:
	.size	CheckOffsetParameterName.17, .Lfunc_end21-CheckOffsetParameterName.17
	.cfi_endproc
                                        # -- End function
	.globl	ParseQOffsetMatrix.18   # -- Begin function ParseQOffsetMatrix.18
	.p2align	4, 0x90
	.type	ParseQOffsetMatrix.18,@function
ParseQOffsetMatrix.18:                  # @ParseQOffsetMatrix.18
	.cfi_startproc
# %bb.0:                                # %entry
	pushq	%rbp
	.cfi_def_cfa_offset 16
	.cfi_offset %rbp, -16
	movq	%rsp, %rbp
	.cfi_def_cfa_register %rbp
	subq	$8096, %rsp             # imm = 0x1FA0
	movl	$635886407, -52(%rbp)   # imm = 0x25E6DB47
	movq	%rdi, -88(%rbp)
	movl	%esi, -48(%rbp)
	movl	$0, -32(%rbp)
	movl	$0, -36(%rbp)
	movl	$0, -20(%rbp)
	movq	-88(%rbp), %rax
	movq	%rax, -16(%rbp)
	movq	-88(%rbp), %rax
	movslq	-48(%rbp), %rcx
	addq	%rcx, %rax
	movq	%rax, -72(%rbp)
.LBB22_1:                               # %while.cond
                                        # =>This Loop Header: Depth=1
                                        #     Child Loop BB22_6 Depth 2
	movq	-16(%rbp), %rax
	cmpq	-72(%rbp), %rax
	jae	.LBB22_25
# %bb.2:                                # %while.body
                                        #   in Loop: Header=BB22_1 Depth=1
	movq	-16(%rbp), %rax
	movsbl	(%rax), %eax
	addl	$-9, %eax
	movl	%eax, %ecx
	subl	$35, %ecx
	ja	.LBB22_21
# %bb.3:                                # %while.body
                                        #   in Loop: Header=BB22_1 Depth=1
	movq	.LJTI22_0(,%rax,8), %rax
	jmpq	*%rax
.LBB22_4:                               # %sw.bb
                                        #   in Loop: Header=BB22_1 Depth=1
	movq	-16(%rbp), %rax
	addq	$1, %rax
	movq	%rax, -16(%rbp)
	jmp	.LBB22_24
.LBB22_5:                               # %sw.bb1
                                        #   in Loop: Header=BB22_1 Depth=1
	movq	-16(%rbp), %rax
	movb	$0, (%rax)
.LBB22_6:                               # %while.cond2
                                        #   Parent Loop BB22_1 Depth=1
                                        # =>  This Inner Loop Header: Depth=2
	xorl	%eax, %eax
	movq	-16(%rbp), %rcx
	movsbl	(%rcx), %ecx
	cmpl	$10, %ecx
	je	.LBB22_8
# %bb.7:                                # %land.rhs
                                        #   in Loop: Header=BB22_6 Depth=2
	movq	-16(%rbp), %rax
	cmpq	-72(%rbp), %rax
	setb	%al
.LBB22_8:                               # %land.end
                                        #   in Loop: Header=BB22_6 Depth=2
	testb	$1, %al
	jne	.LBB22_9
	jmp	.LBB22_10
.LBB22_9:                               # %while.body8
                                        #   in Loop: Header=BB22_6 Depth=2
	movq	-16(%rbp), %rax
	addq	$1, %rax
	movq	%rax, -16(%rbp)
	jmp	.LBB22_6
.LBB22_10:                              # %while.end
                                        #   in Loop: Header=BB22_1 Depth=1
	movl	$0, -36(%rbp)
	movl	$0, -20(%rbp)
	jmp	.LBB22_24
.LBB22_11:                              # %sw.bb10
                                        #   in Loop: Header=BB22_1 Depth=1
	movl	$0, -20(%rbp)
	movl	$0, -36(%rbp)
	movq	-16(%rbp), %rax
	movq	%rax, %rcx
	addq	$1, %rcx
	movq	%rcx, -16(%rbp)
	movb	$0, (%rax)
	jmp	.LBB22_24
.LBB22_12:                              # %sw.bb12
                                        #   in Loop: Header=BB22_1 Depth=1
	cmpl	$0, -36(%rbp)
	je	.LBB22_14
# %bb.13:                               # %if.then
                                        #   in Loop: Header=BB22_1 Depth=1
	movq	-16(%rbp), %rax
	addq	$1, %rax
	movq	%rax, -16(%rbp)
	jmp	.LBB22_15
.LBB22_14:                              # %if.else
                                        #   in Loop: Header=BB22_1 Depth=1
	movq	-16(%rbp), %rax
	movq	%rax, %rcx
	addq	$1, %rcx
	movq	%rcx, -16(%rbp)
	movb	$0, (%rax)
	movl	$0, -20(%rbp)
.LBB22_15:                              # %if.end
                                        #   in Loop: Header=BB22_1 Depth=1
	jmp	.LBB22_24
.LBB22_16:                              # %sw.bb15
                                        #   in Loop: Header=BB22_1 Depth=1
	movq	-16(%rbp), %rax
	movq	%rax, %rcx
	addq	$1, %rcx
	movq	%rcx, -16(%rbp)
	movb	$0, (%rax)
	cmpl	$0, -36(%rbp)
	jne	.LBB22_18
# %bb.17:                               # %if.then18
                                        #   in Loop: Header=BB22_1 Depth=1
	movq	-16(%rbp), %rax
	movl	-32(%rbp), %ecx
	movl	%ecx, %edx
	addl	$1, %edx
	movl	%edx, -32(%rbp)
	movslq	%ecx, %rcx
	movq	%rax, -8096(%rbp,%rcx,8)
	movl	-20(%rbp), %eax
	xorl	$-1, %eax
	movl	%eax, -20(%rbp)
	jmp	.LBB22_19
.LBB22_18:                              # %if.else21
                                        #   in Loop: Header=BB22_1 Depth=1
	movl	$0, -20(%rbp)
.LBB22_19:                              # %if.end22
                                        #   in Loop: Header=BB22_1 Depth=1
	movl	-36(%rbp), %eax
	xorl	$-1, %eax
	movl	%eax, -36(%rbp)
	jmp	.LBB22_24
.LBB22_20:                              # %sw.bb24
                                        #   in Loop: Header=BB22_1 Depth=1
	movq	-16(%rbp), %rax
	addq	$1, %rax
	movq	%rax, -16(%rbp)
	movl	$0, -20(%rbp)
	jmp	.LBB22_24
.LBB22_21:                              # %sw.default
                                        #   in Loop: Header=BB22_1 Depth=1
	cmpl	$0, -20(%rbp)
	jne	.LBB22_23
# %bb.22:                               # %if.then27
                                        #   in Loop: Header=BB22_1 Depth=1
	movq	-16(%rbp), %rax
	movl	-32(%rbp), %ecx
	movl	%ecx, %edx
	addl	$1, %edx
	movl	%edx, -32(%rbp)
	movslq	%ecx, %rcx
	movq	%rax, -8096(%rbp,%rcx,8)
	movl	-20(%rbp), %eax
	xorl	$-1, %eax
	movl	%eax, -20(%rbp)
.LBB22_23:                              # %if.end32
                                        #   in Loop: Header=BB22_1 Depth=1
	movq	-16(%rbp), %rax
	addq	$1, %rax
	movq	%rax, -16(%rbp)
.LBB22_24:                              # %sw.epilog
                                        #   in Loop: Header=BB22_1 Depth=1
	jmp	.LBB22_1
.LBB22_25:                              # %while.end34
	movl	-32(%rbp), %eax
	addl	$-1, %eax
	movl	%eax, -32(%rbp)
	movl	$0, -24(%rbp)
.LBB22_26:                              # %for.cond
                                        # =>This Loop Header: Depth=1
                                        #     Child Loop BB22_35 Depth 2
	movl	-24(%rbp), %eax
	cmpl	-32(%rbp), %eax
	jge	.LBB22_42
# %bb.27:                               # %for.body
                                        #   in Loop: Header=BB22_26 Depth=1
	movl	$0, -4(%rbp)
	movl	-24(%rbp), %eax
	addl	-4(%rbp), %eax
	cltq
	movq	-8096(%rbp,%rax,8), %rdi
	leaq	-56(%rbp), %rsi
	callq	CheckOffsetParameterName
	xorl	%ecx, %ecx
	movl	%eax, -40(%rbp)
	cmpl	%eax, %ecx
	jle	.LBB22_29
# %bb.28:                               # %if.then41
                                        #   in Loop: Header=BB22_26 Depth=1
	movl	-24(%rbp), %eax
	addl	-4(%rbp), %eax
	cltq
	movq	-8096(%rbp,%rax,8), %rcx
	movabsq	$errortext, %rdi
	movl	$300, %esi              # imm = 0x12C
	movabsq	$.L.str, %rdx
	movb	$0, %al
	callq	snprintf
	movabsq	$errortext, %rdi
	movl	$300, %esi              # imm = 0x12C
	callq	error
.LBB22_29:                              # %if.end46
                                        #   in Loop: Header=BB22_26 Depth=1
	movl	-4(%rbp), %eax
	addl	$1, %eax
	movl	%eax, -4(%rbp)
	movl	-24(%rbp), %eax
	addl	-4(%rbp), %eax
	cltq
	movq	-8096(%rbp,%rax,8), %rsi
	movl	$.L.str.1, %edi
	callq	strcmp
	cmpl	$0, %eax
	je	.LBB22_31
# %bb.30:                               # %if.then53
                                        #   in Loop: Header=BB22_26 Depth=1
	movabsq	$errortext, %rdi
	movl	$300, %esi              # imm = 0x12C
	movabsq	$.L.str.2, %rdx
	movb	$0, %al
	callq	snprintf
	movabsq	$errortext, %rdi
	movl	$300, %esi              # imm = 0x12C
	callq	error
.LBB22_31:                              # %if.end55
                                        #   in Loop: Header=BB22_26 Depth=1
	movl	-4(%rbp), %eax
	addl	$1, %eax
	movl	%eax, -4(%rbp)
	cmpl	$0, -56(%rbp)
	jne	.LBB22_33
# %bb.32:                               # %if.then58
                                        #   in Loop: Header=BB22_26 Depth=1
	movl	$16, -44(%rbp)
	movslq	-40(%rbp), %rax
	shlq	$5, %rax
	movabsq	$OffsetList4x4input, %rcx
	addq	%rax, %rcx
	movq	%rcx, -80(%rbp)
	movslq	-40(%rbp), %rax
	movl	$1, offset4x4_check(,%rax,4)
	jmp	.LBB22_34
.LBB22_33:                              # %if.else63
                                        #   in Loop: Header=BB22_26 Depth=1
	movl	$64, -44(%rbp)
	movslq	-40(%rbp), %rax
	shlq	$7, %rax
	movabsq	$OffsetList8x8input, %rcx
	addq	%rax, %rcx
	movq	%rcx, -80(%rbp)
	movslq	-40(%rbp), %rax
	movl	$1, offset8x8_check(,%rax,4)
.LBB22_34:                              # %if.end69
                                        #   in Loop: Header=BB22_26 Depth=1
	movl	$0, -28(%rbp)
.LBB22_35:                              # %for.cond70
                                        #   Parent Loop BB22_26 Depth=1
                                        # =>  This Inner Loop Header: Depth=2
	movl	-28(%rbp), %eax
	cmpl	-44(%rbp), %eax
	jge	.LBB22_40
# %bb.36:                               # %for.body73
                                        #   in Loop: Header=BB22_35 Depth=2
	movl	-24(%rbp), %eax
	addl	-4(%rbp), %eax
	addl	-28(%rbp), %eax
	cltq
	movq	-8096(%rbp,%rax,8), %rdi
	movabsq	$.L.str.3, %rsi
	leaq	-60(%rbp), %rdx
	movb	$0, %al
	callq	__isoc99_sscanf
	movl	$1, %ecx
	cmpl	%eax, %ecx
	je	.LBB22_38
# %bb.37:                               # %if.then81
                                        #   in Loop: Header=BB22_35 Depth=2
	movslq	-24(%rbp), %rax
	movq	-8096(%rbp,%rax,8), %rcx
	movl	-24(%rbp), %eax
	addl	-4(%rbp), %eax
	addl	-28(%rbp), %eax
	cltq
	movq	-8096(%rbp,%rax,8), %r8
	movabsq	$errortext, %rdi
	movl	$300, %esi              # imm = 0x12C
	movabsq	$.L.str.4, %rdx
	movb	$0, %al
	callq	snprintf
	movabsq	$errortext, %rdi
	movl	$300, %esi              # imm = 0x12C
	callq	error
.LBB22_38:                              # %if.end89
                                        #   in Loop: Header=BB22_35 Depth=2
	movl	-60(%rbp), %eax
	movq	-80(%rbp), %rcx
	movslq	-28(%rbp), %rdx
	movw	%ax, (%rcx,%rdx,2)
# %bb.39:                               # %for.inc
                                        #   in Loop: Header=BB22_35 Depth=2
	movl	-28(%rbp), %eax
	addl	$1, %eax
	movl	%eax, -28(%rbp)
	jmp	.LBB22_35
.LBB22_40:                              # %for.end
                                        #   in Loop: Header=BB22_26 Depth=1
	movl	-28(%rbp), %eax
	addl	-4(%rbp), %eax
	movl	%eax, -4(%rbp)
	movabsq	$.L.str.5, %rdi
	movb	$0, %al
	callq	printf
# %bb.41:                               # %for.inc96
                                        #   in Loop: Header=BB22_26 Depth=1
	movl	-4(%rbp), %eax
	addl	-24(%rbp), %eax
	movl	%eax, -24(%rbp)
	jmp	.LBB22_26
.LBB22_42:                              # %for.end98
	cmpl	$635886407, -52(%rbp)   # imm = 0x25E6DB47
	jne	.LBB22_44
.LBB22_43:
	addq	$8096, %rsp             # imm = 0x1FA0
	popq	%rbp
	.cfi_def_cfa %rsp, 8
	retq
.LBB22_44:                              # %func_exit
	.cfi_def_cfa %rbp, 16
	callq	detect_breach
	jmp	.LBB22_43
.Lfunc_end22:
	.size	ParseQOffsetMatrix.18, .Lfunc_end22-ParseQOffsetMatrix.18
	.cfi_endproc
	.section	.rodata,"a",@progbits
	.p2align	3
.LJTI22_0:
	.quad	.LBB22_12
	.quad	.LBB22_11
	.quad	.LBB22_21
	.quad	.LBB22_21
	.quad	.LBB22_4
	.quad	.LBB22_21
	.quad	.LBB22_21
	.quad	.LBB22_21
	.quad	.LBB22_21
	.quad	.LBB22_21
	.quad	.LBB22_21
	.quad	.LBB22_21
	.quad	.LBB22_21
	.quad	.LBB22_21
	.quad	.LBB22_21
	.quad	.LBB22_21
	.quad	.LBB22_21
	.quad	.LBB22_21
	.quad	.LBB22_21
	.quad	.LBB22_21
	.quad	.LBB22_21
	.quad	.LBB22_21
	.quad	.LBB22_21
	.quad	.LBB22_12
	.quad	.LBB22_21
	.quad	.LBB22_16
	.quad	.LBB22_5
	.quad	.LBB22_21
	.quad	.LBB22_21
	.quad	.LBB22_21
	.quad	.LBB22_21
	.quad	.LBB22_21
	.quad	.LBB22_21
	.quad	.LBB22_21
	.quad	.LBB22_21
	.quad	.LBB22_20
                                        # -- End function
	.text
	.globl	CheckOffsetParameterName.19 # -- Begin function CheckOffsetParameterName.19
	.p2align	4, 0x90
	.type	CheckOffsetParameterName.19,@function
CheckOffsetParameterName.19:            # @CheckOffsetParameterName.19
	.cfi_startproc
# %bb.0:                                # %entry
	pushq	%rbp
	.cfi_def_cfa_offset 16
	.cfi_offset %rbp, -16
	movq	%rsp, %rbp
	.cfi_def_cfa_register %rbp
	pushq	%rbx
	subq	$40, %rsp
	.cfi_offset %rbx, -24
	movl	$1636016129, -20(%rbp)  # imm = 0x6183A001
	movq	%rdi, -32(%rbp)
	movq	%rsi, -40(%rbp)
	movl	$0, -12(%rbp)
	movq	-40(%rbp), %rax
	movl	$0, (%rax)
.LBB23_1:                               # %while.cond
                                        # =>This Inner Loop Header: Depth=1
	xorl	%eax, %eax
	movslq	-12(%rbp), %rcx
	imulq	$24, %rcx, %rcx
	movabsq	$OffsetType4x4, %rdx
	addq	%rcx, %rdx
	cmpq	$0, %rdx
	je	.LBB23_3
# %bb.2:                                # %land.rhs
                                        #   in Loop: Header=BB23_1 Depth=1
	cmpl	$9, -12(%rbp)
	setl	%al
.LBB23_3:                               # %land.end
                                        #   in Loop: Header=BB23_1 Depth=1
	testb	$1, %al
	jne	.LBB23_4
	jmp	.LBB23_8
.LBB23_4:                               # %while.body
                                        #   in Loop: Header=BB23_1 Depth=1
	xorl	%ebx, %ebx
	movslq	-12(%rbp), %rax
	imulq	$24, %rax, %rax
	movabsq	$OffsetType4x4, %rdi
	addq	%rax, %rdi
	movq	-32(%rbp), %rsi
	callq	strcmp
	cmpl	%eax, %ebx
	jne	.LBB23_6
# %bb.5:                                # %if.then
	movl	-12(%rbp), %eax
	movl	%eax, -16(%rbp)
	jmp	.LBB23_17
.LBB23_6:                               # %if.else
                                        #   in Loop: Header=BB23_1 Depth=1
	movl	-12(%rbp), %eax
	addl	$1, %eax
	movl	%eax, -12(%rbp)
# %bb.7:                                # %if.end
                                        #   in Loop: Header=BB23_1 Depth=1
	jmp	.LBB23_1
.LBB23_8:                               # %while.end
	movl	$0, -12(%rbp)
	movq	-40(%rbp), %rax
	movl	$1, (%rax)
.LBB23_9:                               # %while.cond6
                                        # =>This Inner Loop Header: Depth=1
	xorl	%eax, %eax
	movslq	-12(%rbp), %rcx
	imulq	$24, %rcx, %rcx
	movabsq	$OffsetType8x8, %rdx
	addq	%rcx, %rdx
	cmpq	$0, %rdx
	je	.LBB23_11
# %bb.10:                               # %land.rhs11
                                        #   in Loop: Header=BB23_9 Depth=1
	cmpl	$3, -12(%rbp)
	setl	%al
.LBB23_11:                              # %land.end13
                                        #   in Loop: Header=BB23_9 Depth=1
	testb	$1, %al
	jne	.LBB23_12
	jmp	.LBB23_16
.LBB23_12:                              # %while.body14
                                        #   in Loop: Header=BB23_9 Depth=1
	xorl	%ebx, %ebx
	movslq	-12(%rbp), %rax
	imulq	$24, %rax, %rax
	movabsq	$OffsetType8x8, %rdi
	addq	%rax, %rdi
	movq	-32(%rbp), %rsi
	callq	strcmp
	cmpl	%eax, %ebx
	jne	.LBB23_14
# %bb.13:                               # %if.then20
	movl	-12(%rbp), %eax
	movl	%eax, -16(%rbp)
	jmp	.LBB23_17
.LBB23_14:                              # %if.else21
                                        #   in Loop: Header=BB23_9 Depth=1
	movl	-12(%rbp), %eax
	addl	$1, %eax
	movl	%eax, -12(%rbp)
# %bb.15:                               # %if.end23
                                        #   in Loop: Header=BB23_9 Depth=1
	jmp	.LBB23_9
.LBB23_16:                              # %while.end24
	movl	$-1, -16(%rbp)
.LBB23_17:                              # %return
	movl	-16(%rbp), %ebx
	cmpl	$1636016129, -20(%rbp)  # imm = 0x6183A001
	jne	.LBB23_19
.LBB23_18:
	movl	%ebx, %eax
	addq	$40, %rsp
	popq	%rbx
	popq	%rbp
	.cfi_def_cfa %rsp, 8
	retq
.LBB23_19:                              # %func_exit
	.cfi_def_cfa %rbp, 16
	callq	detect_breach
	jmp	.LBB23_18
.Lfunc_end23:
	.size	CheckOffsetParameterName.19, .Lfunc_end23-CheckOffsetParameterName.19
	.cfi_endproc
                                        # -- End function
	.globl	CheckOffsetParameterName.20 # -- Begin function CheckOffsetParameterName.20
	.p2align	4, 0x90
	.type	CheckOffsetParameterName.20,@function
CheckOffsetParameterName.20:            # @CheckOffsetParameterName.20
	.cfi_startproc
# %bb.0:                                # %entry
	pushq	%rbp
	.cfi_def_cfa_offset 16
	.cfi_offset %rbp, -16
	movq	%rsp, %rbp
	.cfi_def_cfa_register %rbp
	pushq	%rbx
	subq	$40, %rsp
	.cfi_offset %rbx, -24
	movl	$71125875, -20(%rbp)    # imm = 0x43D4B73
	movq	%rdi, -40(%rbp)
	movq	%rsi, -32(%rbp)
	movl	$0, -12(%rbp)
	movq	-32(%rbp), %rax
	movl	$0, (%rax)
.LBB24_1:                               # %while.cond
                                        # =>This Inner Loop Header: Depth=1
	xorl	%eax, %eax
	movslq	-12(%rbp), %rcx
	imulq	$24, %rcx, %rcx
	movabsq	$OffsetType4x4, %rdx
	addq	%rcx, %rdx
	cmpq	$0, %rdx
	je	.LBB24_3
# %bb.2:                                # %land.rhs
                                        #   in Loop: Header=BB24_1 Depth=1
	cmpl	$9, -12(%rbp)
	setl	%al
.LBB24_3:                               # %land.end
                                        #   in Loop: Header=BB24_1 Depth=1
	testb	$1, %al
	jne	.LBB24_4
	jmp	.LBB24_8
.LBB24_4:                               # %while.body
                                        #   in Loop: Header=BB24_1 Depth=1
	xorl	%ebx, %ebx
	movslq	-12(%rbp), %rax
	imulq	$24, %rax, %rax
	movabsq	$OffsetType4x4, %rdi
	addq	%rax, %rdi
	movq	-40(%rbp), %rsi
	callq	strcmp
	cmpl	%eax, %ebx
	jne	.LBB24_6
# %bb.5:                                # %if.then
	movl	-12(%rbp), %eax
	movl	%eax, -16(%rbp)
	jmp	.LBB24_17
.LBB24_6:                               # %if.else
                                        #   in Loop: Header=BB24_1 Depth=1
	movl	-12(%rbp), %eax
	addl	$1, %eax
	movl	%eax, -12(%rbp)
# %bb.7:                                # %if.end
                                        #   in Loop: Header=BB24_1 Depth=1
	jmp	.LBB24_1
.LBB24_8:                               # %while.end
	movl	$0, -12(%rbp)
	movq	-32(%rbp), %rax
	movl	$1, (%rax)
.LBB24_9:                               # %while.cond6
                                        # =>This Inner Loop Header: Depth=1
	xorl	%eax, %eax
	movslq	-12(%rbp), %rcx
	imulq	$24, %rcx, %rcx
	movabsq	$OffsetType8x8, %rdx
	addq	%rcx, %rdx
	cmpq	$0, %rdx
	je	.LBB24_11
# %bb.10:                               # %land.rhs11
                                        #   in Loop: Header=BB24_9 Depth=1
	cmpl	$3, -12(%rbp)
	setl	%al
.LBB24_11:                              # %land.end13
                                        #   in Loop: Header=BB24_9 Depth=1
	testb	$1, %al
	jne	.LBB24_12
	jmp	.LBB24_16
.LBB24_12:                              # %while.body14
                                        #   in Loop: Header=BB24_9 Depth=1
	xorl	%ebx, %ebx
	movslq	-12(%rbp), %rax
	imulq	$24, %rax, %rax
	movabsq	$OffsetType8x8, %rdi
	addq	%rax, %rdi
	movq	-40(%rbp), %rsi
	callq	strcmp
	cmpl	%eax, %ebx
	jne	.LBB24_14
# %bb.13:                               # %if.then20
	movl	-12(%rbp), %eax
	movl	%eax, -16(%rbp)
	jmp	.LBB24_17
.LBB24_14:                              # %if.else21
                                        #   in Loop: Header=BB24_9 Depth=1
	movl	-12(%rbp), %eax
	addl	$1, %eax
	movl	%eax, -12(%rbp)
# %bb.15:                               # %if.end23
                                        #   in Loop: Header=BB24_9 Depth=1
	jmp	.LBB24_9
.LBB24_16:                              # %while.end24
	movl	$-1, -16(%rbp)
.LBB24_17:                              # %return
	movl	-16(%rbp), %ebx
	cmpl	$71125875, -20(%rbp)    # imm = 0x43D4B73
	jne	.LBB24_19
.LBB24_18:
	movl	%ebx, %eax
	addq	$40, %rsp
	popq	%rbx
	popq	%rbp
	.cfi_def_cfa %rsp, 8
	retq
.LBB24_19:                              # %func_exit
	.cfi_def_cfa %rbp, 16
	callq	detect_breach
	jmp	.LBB24_18
.Lfunc_end24:
	.size	CheckOffsetParameterName.20, .Lfunc_end24-CheckOffsetParameterName.20
	.cfi_endproc
                                        # -- End function
	.globl	ParseQOffsetMatrix.21   # -- Begin function ParseQOffsetMatrix.21
	.p2align	4, 0x90
	.type	ParseQOffsetMatrix.21,@function
ParseQOffsetMatrix.21:                  # @ParseQOffsetMatrix.21
	.cfi_startproc
# %bb.0:                                # %entry
	pushq	%rbp
	.cfi_def_cfa_offset 16
	.cfi_offset %rbp, -16
	movq	%rsp, %rbp
	.cfi_def_cfa_register %rbp
	subq	$8096, %rsp             # imm = 0x1FA0
	movl	$1889227652, -52(%rbp)  # imm = 0x709B5384
	movq	%rdi, -72(%rbp)
	movl	%esi, -48(%rbp)
	movl	$0, -32(%rbp)
	movl	$0, -36(%rbp)
	movl	$0, -20(%rbp)
	movq	-72(%rbp), %rax
	movq	%rax, -16(%rbp)
	movq	-72(%rbp), %rax
	movslq	-48(%rbp), %rcx
	addq	%rcx, %rax
	movq	%rax, -80(%rbp)
.LBB25_1:                               # %while.cond
                                        # =>This Loop Header: Depth=1
                                        #     Child Loop BB25_6 Depth 2
	movq	-16(%rbp), %rax
	cmpq	-80(%rbp), %rax
	jae	.LBB25_25
# %bb.2:                                # %while.body
                                        #   in Loop: Header=BB25_1 Depth=1
	movq	-16(%rbp), %rax
	movsbl	(%rax), %eax
	addl	$-9, %eax
	movl	%eax, %ecx
	subl	$35, %ecx
	ja	.LBB25_21
# %bb.3:                                # %while.body
                                        #   in Loop: Header=BB25_1 Depth=1
	movq	.LJTI25_0(,%rax,8), %rax
	jmpq	*%rax
.LBB25_4:                               # %sw.bb
                                        #   in Loop: Header=BB25_1 Depth=1
	movq	-16(%rbp), %rax
	addq	$1, %rax
	movq	%rax, -16(%rbp)
	jmp	.LBB25_24
.LBB25_5:                               # %sw.bb1
                                        #   in Loop: Header=BB25_1 Depth=1
	movq	-16(%rbp), %rax
	movb	$0, (%rax)
.LBB25_6:                               # %while.cond2
                                        #   Parent Loop BB25_1 Depth=1
                                        # =>  This Inner Loop Header: Depth=2
	xorl	%eax, %eax
	movq	-16(%rbp), %rcx
	movsbl	(%rcx), %ecx
	cmpl	$10, %ecx
	je	.LBB25_8
# %bb.7:                                # %land.rhs
                                        #   in Loop: Header=BB25_6 Depth=2
	movq	-16(%rbp), %rax
	cmpq	-80(%rbp), %rax
	setb	%al
.LBB25_8:                               # %land.end
                                        #   in Loop: Header=BB25_6 Depth=2
	testb	$1, %al
	jne	.LBB25_9
	jmp	.LBB25_10
.LBB25_9:                               # %while.body8
                                        #   in Loop: Header=BB25_6 Depth=2
	movq	-16(%rbp), %rax
	addq	$1, %rax
	movq	%rax, -16(%rbp)
	jmp	.LBB25_6
.LBB25_10:                              # %while.end
                                        #   in Loop: Header=BB25_1 Depth=1
	movl	$0, -36(%rbp)
	movl	$0, -20(%rbp)
	jmp	.LBB25_24
.LBB25_11:                              # %sw.bb10
                                        #   in Loop: Header=BB25_1 Depth=1
	movl	$0, -20(%rbp)
	movl	$0, -36(%rbp)
	movq	-16(%rbp), %rax
	movq	%rax, %rcx
	addq	$1, %rcx
	movq	%rcx, -16(%rbp)
	movb	$0, (%rax)
	jmp	.LBB25_24
.LBB25_12:                              # %sw.bb12
                                        #   in Loop: Header=BB25_1 Depth=1
	cmpl	$0, -36(%rbp)
	je	.LBB25_14
# %bb.13:                               # %if.then
                                        #   in Loop: Header=BB25_1 Depth=1
	movq	-16(%rbp), %rax
	addq	$1, %rax
	movq	%rax, -16(%rbp)
	jmp	.LBB25_15
.LBB25_14:                              # %if.else
                                        #   in Loop: Header=BB25_1 Depth=1
	movq	-16(%rbp), %rax
	movq	%rax, %rcx
	addq	$1, %rcx
	movq	%rcx, -16(%rbp)
	movb	$0, (%rax)
	movl	$0, -20(%rbp)
.LBB25_15:                              # %if.end
                                        #   in Loop: Header=BB25_1 Depth=1
	jmp	.LBB25_24
.LBB25_16:                              # %sw.bb15
                                        #   in Loop: Header=BB25_1 Depth=1
	movq	-16(%rbp), %rax
	movq	%rax, %rcx
	addq	$1, %rcx
	movq	%rcx, -16(%rbp)
	movb	$0, (%rax)
	cmpl	$0, -36(%rbp)
	jne	.LBB25_18
# %bb.17:                               # %if.then18
                                        #   in Loop: Header=BB25_1 Depth=1
	movq	-16(%rbp), %rax
	movl	-32(%rbp), %ecx
	movl	%ecx, %edx
	addl	$1, %edx
	movl	%edx, -32(%rbp)
	movslq	%ecx, %rcx
	movq	%rax, -8096(%rbp,%rcx,8)
	movl	-20(%rbp), %eax
	xorl	$-1, %eax
	movl	%eax, -20(%rbp)
	jmp	.LBB25_19
.LBB25_18:                              # %if.else21
                                        #   in Loop: Header=BB25_1 Depth=1
	movl	$0, -20(%rbp)
.LBB25_19:                              # %if.end22
                                        #   in Loop: Header=BB25_1 Depth=1
	movl	-36(%rbp), %eax
	xorl	$-1, %eax
	movl	%eax, -36(%rbp)
	jmp	.LBB25_24
.LBB25_20:                              # %sw.bb24
                                        #   in Loop: Header=BB25_1 Depth=1
	movq	-16(%rbp), %rax
	addq	$1, %rax
	movq	%rax, -16(%rbp)
	movl	$0, -20(%rbp)
	jmp	.LBB25_24
.LBB25_21:                              # %sw.default
                                        #   in Loop: Header=BB25_1 Depth=1
	cmpl	$0, -20(%rbp)
	jne	.LBB25_23
# %bb.22:                               # %if.then27
                                        #   in Loop: Header=BB25_1 Depth=1
	movq	-16(%rbp), %rax
	movl	-32(%rbp), %ecx
	movl	%ecx, %edx
	addl	$1, %edx
	movl	%edx, -32(%rbp)
	movslq	%ecx, %rcx
	movq	%rax, -8096(%rbp,%rcx,8)
	movl	-20(%rbp), %eax
	xorl	$-1, %eax
	movl	%eax, -20(%rbp)
.LBB25_23:                              # %if.end32
                                        #   in Loop: Header=BB25_1 Depth=1
	movq	-16(%rbp), %rax
	addq	$1, %rax
	movq	%rax, -16(%rbp)
.LBB25_24:                              # %sw.epilog
                                        #   in Loop: Header=BB25_1 Depth=1
	jmp	.LBB25_1
.LBB25_25:                              # %while.end34
	movl	-32(%rbp), %eax
	addl	$-1, %eax
	movl	%eax, -32(%rbp)
	movl	$0, -24(%rbp)
.LBB25_26:                              # %for.cond
                                        # =>This Loop Header: Depth=1
                                        #     Child Loop BB25_35 Depth 2
	movl	-24(%rbp), %eax
	cmpl	-32(%rbp), %eax
	jge	.LBB25_42
# %bb.27:                               # %for.body
                                        #   in Loop: Header=BB25_26 Depth=1
	movl	$0, -4(%rbp)
	movl	-24(%rbp), %eax
	addl	-4(%rbp), %eax
	cltq
	movq	-8096(%rbp,%rax,8), %rdi
	leaq	-60(%rbp), %rsi
	callq	CheckOffsetParameterName
	xorl	%ecx, %ecx
	movl	%eax, -40(%rbp)
	cmpl	%eax, %ecx
	jle	.LBB25_29
# %bb.28:                               # %if.then41
                                        #   in Loop: Header=BB25_26 Depth=1
	movl	-24(%rbp), %eax
	addl	-4(%rbp), %eax
	cltq
	movq	-8096(%rbp,%rax,8), %rcx
	movabsq	$errortext, %rdi
	movl	$300, %esi              # imm = 0x12C
	movabsq	$.L.str, %rdx
	movb	$0, %al
	callq	snprintf
	movabsq	$errortext, %rdi
	movl	$300, %esi              # imm = 0x12C
	callq	error
.LBB25_29:                              # %if.end46
                                        #   in Loop: Header=BB25_26 Depth=1
	movl	-4(%rbp), %eax
	addl	$1, %eax
	movl	%eax, -4(%rbp)
	movl	-24(%rbp), %eax
	addl	-4(%rbp), %eax
	cltq
	movq	-8096(%rbp,%rax,8), %rsi
	movl	$.L.str.1, %edi
	callq	strcmp
	cmpl	$0, %eax
	je	.LBB25_31
# %bb.30:                               # %if.then53
                                        #   in Loop: Header=BB25_26 Depth=1
	movabsq	$errortext, %rdi
	movl	$300, %esi              # imm = 0x12C
	movabsq	$.L.str.2, %rdx
	movb	$0, %al
	callq	snprintf
	movabsq	$errortext, %rdi
	movl	$300, %esi              # imm = 0x12C
	callq	error
.LBB25_31:                              # %if.end55
                                        #   in Loop: Header=BB25_26 Depth=1
	movl	-4(%rbp), %eax
	addl	$1, %eax
	movl	%eax, -4(%rbp)
	cmpl	$0, -60(%rbp)
	jne	.LBB25_33
# %bb.32:                               # %if.then58
                                        #   in Loop: Header=BB25_26 Depth=1
	movl	$16, -44(%rbp)
	movslq	-40(%rbp), %rax
	shlq	$5, %rax
	movabsq	$OffsetList4x4input, %rcx
	addq	%rax, %rcx
	movq	%rcx, -88(%rbp)
	movslq	-40(%rbp), %rax
	movl	$1, offset4x4_check(,%rax,4)
	jmp	.LBB25_34
.LBB25_33:                              # %if.else63
                                        #   in Loop: Header=BB25_26 Depth=1
	movl	$64, -44(%rbp)
	movslq	-40(%rbp), %rax
	shlq	$7, %rax
	movabsq	$OffsetList8x8input, %rcx
	addq	%rax, %rcx
	movq	%rcx, -88(%rbp)
	movslq	-40(%rbp), %rax
	movl	$1, offset8x8_check(,%rax,4)
.LBB25_34:                              # %if.end69
                                        #   in Loop: Header=BB25_26 Depth=1
	movl	$0, -28(%rbp)
.LBB25_35:                              # %for.cond70
                                        #   Parent Loop BB25_26 Depth=1
                                        # =>  This Inner Loop Header: Depth=2
	movl	-28(%rbp), %eax
	cmpl	-44(%rbp), %eax
	jge	.LBB25_40
# %bb.36:                               # %for.body73
                                        #   in Loop: Header=BB25_35 Depth=2
	movl	-24(%rbp), %eax
	addl	-4(%rbp), %eax
	addl	-28(%rbp), %eax
	cltq
	movq	-8096(%rbp,%rax,8), %rdi
	movabsq	$.L.str.3, %rsi
	leaq	-56(%rbp), %rdx
	movb	$0, %al
	callq	__isoc99_sscanf
	movl	$1, %ecx
	cmpl	%eax, %ecx
	je	.LBB25_38
# %bb.37:                               # %if.then81
                                        #   in Loop: Header=BB25_35 Depth=2
	movslq	-24(%rbp), %rax
	movq	-8096(%rbp,%rax,8), %rcx
	movl	-24(%rbp), %eax
	addl	-4(%rbp), %eax
	addl	-28(%rbp), %eax
	cltq
	movq	-8096(%rbp,%rax,8), %r8
	movabsq	$errortext, %rdi
	movl	$300, %esi              # imm = 0x12C
	movabsq	$.L.str.4, %rdx
	movb	$0, %al
	callq	snprintf
	movabsq	$errortext, %rdi
	movl	$300, %esi              # imm = 0x12C
	callq	error
.LBB25_38:                              # %if.end89
                                        #   in Loop: Header=BB25_35 Depth=2
	movl	-56(%rbp), %eax
	movq	-88(%rbp), %rcx
	movslq	-28(%rbp), %rdx
	movw	%ax, (%rcx,%rdx,2)
# %bb.39:                               # %for.inc
                                        #   in Loop: Header=BB25_35 Depth=2
	movl	-28(%rbp), %eax
	addl	$1, %eax
	movl	%eax, -28(%rbp)
	jmp	.LBB25_35
.LBB25_40:                              # %for.end
                                        #   in Loop: Header=BB25_26 Depth=1
	movl	-28(%rbp), %eax
	addl	-4(%rbp), %eax
	movl	%eax, -4(%rbp)
	movabsq	$.L.str.5, %rdi
	movb	$0, %al
	callq	printf
# %bb.41:                               # %for.inc96
                                        #   in Loop: Header=BB25_26 Depth=1
	movl	-4(%rbp), %eax
	addl	-24(%rbp), %eax
	movl	%eax, -24(%rbp)
	jmp	.LBB25_26
.LBB25_42:                              # %for.end98
	cmpl	$1889227652, -52(%rbp)  # imm = 0x709B5384
	jne	.LBB25_44
.LBB25_43:
	addq	$8096, %rsp             # imm = 0x1FA0
	popq	%rbp
	.cfi_def_cfa %rsp, 8
	retq
.LBB25_44:                              # %func_exit
	.cfi_def_cfa %rbp, 16
	callq	detect_breach
	jmp	.LBB25_43
.Lfunc_end25:
	.size	ParseQOffsetMatrix.21, .Lfunc_end25-ParseQOffsetMatrix.21
	.cfi_endproc
	.section	.rodata,"a",@progbits
	.p2align	3
.LJTI25_0:
	.quad	.LBB25_12
	.quad	.LBB25_11
	.quad	.LBB25_21
	.quad	.LBB25_21
	.quad	.LBB25_4
	.quad	.LBB25_21
	.quad	.LBB25_21
	.quad	.LBB25_21
	.quad	.LBB25_21
	.quad	.LBB25_21
	.quad	.LBB25_21
	.quad	.LBB25_21
	.quad	.LBB25_21
	.quad	.LBB25_21
	.quad	.LBB25_21
	.quad	.LBB25_21
	.quad	.LBB25_21
	.quad	.LBB25_21
	.quad	.LBB25_21
	.quad	.LBB25_21
	.quad	.LBB25_21
	.quad	.LBB25_21
	.quad	.LBB25_21
	.quad	.LBB25_12
	.quad	.LBB25_21
	.quad	.LBB25_16
	.quad	.LBB25_5
	.quad	.LBB25_21
	.quad	.LBB25_21
	.quad	.LBB25_21
	.quad	.LBB25_21
	.quad	.LBB25_21
	.quad	.LBB25_21
	.quad	.LBB25_21
	.quad	.LBB25_21
	.quad	.LBB25_20
                                        # -- End function
	.text
	.globl	CheckOffsetParameterName.22 # -- Begin function CheckOffsetParameterName.22
	.p2align	4, 0x90
	.type	CheckOffsetParameterName.22,@function
CheckOffsetParameterName.22:            # @CheckOffsetParameterName.22
	.cfi_startproc
# %bb.0:                                # %entry
	pushq	%rbp
	.cfi_def_cfa_offset 16
	.cfi_offset %rbp, -16
	movq	%rsp, %rbp
	.cfi_def_cfa_register %rbp
	pushq	%rbx
	subq	$40, %rsp
	.cfi_offset %rbx, -24
	movl	$706326424, -20(%rbp)   # imm = 0x2A19AF98
	movq	%rdi, -40(%rbp)
	movq	%rsi, -32(%rbp)
	movl	$0, -12(%rbp)
	movq	-32(%rbp), %rax
	movl	$0, (%rax)
.LBB26_1:                               # %while.cond
                                        # =>This Inner Loop Header: Depth=1
	xorl	%eax, %eax
	movslq	-12(%rbp), %rcx
	imulq	$24, %rcx, %rcx
	movabsq	$OffsetType4x4, %rdx
	addq	%rcx, %rdx
	cmpq	$0, %rdx
	je	.LBB26_3
# %bb.2:                                # %land.rhs
                                        #   in Loop: Header=BB26_1 Depth=1
	cmpl	$9, -12(%rbp)
	setl	%al
.LBB26_3:                               # %land.end
                                        #   in Loop: Header=BB26_1 Depth=1
	testb	$1, %al
	jne	.LBB26_4
	jmp	.LBB26_8
.LBB26_4:                               # %while.body
                                        #   in Loop: Header=BB26_1 Depth=1
	xorl	%ebx, %ebx
	movslq	-12(%rbp), %rax
	imulq	$24, %rax, %rax
	movabsq	$OffsetType4x4, %rdi
	addq	%rax, %rdi
	movq	-40(%rbp), %rsi
	callq	strcmp
	cmpl	%eax, %ebx
	jne	.LBB26_6
# %bb.5:                                # %if.then
	movl	-12(%rbp), %eax
	movl	%eax, -16(%rbp)
	jmp	.LBB26_17
.LBB26_6:                               # %if.else
                                        #   in Loop: Header=BB26_1 Depth=1
	movl	-12(%rbp), %eax
	addl	$1, %eax
	movl	%eax, -12(%rbp)
# %bb.7:                                # %if.end
                                        #   in Loop: Header=BB26_1 Depth=1
	jmp	.LBB26_1
.LBB26_8:                               # %while.end
	movl	$0, -12(%rbp)
	movq	-32(%rbp), %rax
	movl	$1, (%rax)
.LBB26_9:                               # %while.cond6
                                        # =>This Inner Loop Header: Depth=1
	xorl	%eax, %eax
	movslq	-12(%rbp), %rcx
	imulq	$24, %rcx, %rcx
	movabsq	$OffsetType8x8, %rdx
	addq	%rcx, %rdx
	cmpq	$0, %rdx
	je	.LBB26_11
# %bb.10:                               # %land.rhs11
                                        #   in Loop: Header=BB26_9 Depth=1
	cmpl	$3, -12(%rbp)
	setl	%al
.LBB26_11:                              # %land.end13
                                        #   in Loop: Header=BB26_9 Depth=1
	testb	$1, %al
	jne	.LBB26_12
	jmp	.LBB26_16
.LBB26_12:                              # %while.body14
                                        #   in Loop: Header=BB26_9 Depth=1
	xorl	%ebx, %ebx
	movslq	-12(%rbp), %rax
	imulq	$24, %rax, %rax
	movabsq	$OffsetType8x8, %rdi
	addq	%rax, %rdi
	movq	-40(%rbp), %rsi
	callq	strcmp
	cmpl	%eax, %ebx
	jne	.LBB26_14
# %bb.13:                               # %if.then20
	movl	-12(%rbp), %eax
	movl	%eax, -16(%rbp)
	jmp	.LBB26_17
.LBB26_14:                              # %if.else21
                                        #   in Loop: Header=BB26_9 Depth=1
	movl	-12(%rbp), %eax
	addl	$1, %eax
	movl	%eax, -12(%rbp)
# %bb.15:                               # %if.end23
                                        #   in Loop: Header=BB26_9 Depth=1
	jmp	.LBB26_9
.LBB26_16:                              # %while.end24
	movl	$-1, -16(%rbp)
.LBB26_17:                              # %return
	movl	-16(%rbp), %ebx
	cmpl	$706326424, -20(%rbp)   # imm = 0x2A19AF98
	jne	.LBB26_19
.LBB26_18:
	movl	%ebx, %eax
	addq	$40, %rsp
	popq	%rbx
	popq	%rbp
	.cfi_def_cfa %rsp, 8
	retq
.LBB26_19:                              # %func_exit
	.cfi_def_cfa %rbp, 16
	callq	detect_breach
	jmp	.LBB26_18
.Lfunc_end26:
	.size	CheckOffsetParameterName.22, .Lfunc_end26-CheckOffsetParameterName.22
	.cfi_endproc
                                        # -- End function
	.globl	CheckOffsetParameterName.23 # -- Begin function CheckOffsetParameterName.23
	.p2align	4, 0x90
	.type	CheckOffsetParameterName.23,@function
CheckOffsetParameterName.23:            # @CheckOffsetParameterName.23
	.cfi_startproc
# %bb.0:                                # %entry
	pushq	%rbp
	.cfi_def_cfa_offset 16
	.cfi_offset %rbp, -16
	movq	%rsp, %rbp
	.cfi_def_cfa_register %rbp
	pushq	%rbx
	subq	$40, %rsp
	.cfi_offset %rbx, -24
	movl	$624370304, -20(%rbp)   # imm = 0x25372280
	movq	%rdi, -40(%rbp)
	movq	%rsi, -32(%rbp)
	movl	$0, -12(%rbp)
	movq	-32(%rbp), %rax
	movl	$0, (%rax)
.LBB27_1:                               # %while.cond
                                        # =>This Inner Loop Header: Depth=1
	xorl	%eax, %eax
	movslq	-12(%rbp), %rcx
	imulq	$24, %rcx, %rcx
	movabsq	$OffsetType4x4, %rdx
	addq	%rcx, %rdx
	cmpq	$0, %rdx
	je	.LBB27_3
# %bb.2:                                # %land.rhs
                                        #   in Loop: Header=BB27_1 Depth=1
	cmpl	$9, -12(%rbp)
	setl	%al
.LBB27_3:                               # %land.end
                                        #   in Loop: Header=BB27_1 Depth=1
	testb	$1, %al
	jne	.LBB27_4
	jmp	.LBB27_8
.LBB27_4:                               # %while.body
                                        #   in Loop: Header=BB27_1 Depth=1
	xorl	%ebx, %ebx
	movslq	-12(%rbp), %rax
	imulq	$24, %rax, %rax
	movabsq	$OffsetType4x4, %rdi
	addq	%rax, %rdi
	movq	-40(%rbp), %rsi
	callq	strcmp
	cmpl	%eax, %ebx
	jne	.LBB27_6
# %bb.5:                                # %if.then
	movl	-12(%rbp), %eax
	movl	%eax, -16(%rbp)
	jmp	.LBB27_17
.LBB27_6:                               # %if.else
                                        #   in Loop: Header=BB27_1 Depth=1
	movl	-12(%rbp), %eax
	addl	$1, %eax
	movl	%eax, -12(%rbp)
# %bb.7:                                # %if.end
                                        #   in Loop: Header=BB27_1 Depth=1
	jmp	.LBB27_1
.LBB27_8:                               # %while.end
	movl	$0, -12(%rbp)
	movq	-32(%rbp), %rax
	movl	$1, (%rax)
.LBB27_9:                               # %while.cond6
                                        # =>This Inner Loop Header: Depth=1
	xorl	%eax, %eax
	movslq	-12(%rbp), %rcx
	imulq	$24, %rcx, %rcx
	movabsq	$OffsetType8x8, %rdx
	addq	%rcx, %rdx
	cmpq	$0, %rdx
	je	.LBB27_11
# %bb.10:                               # %land.rhs11
                                        #   in Loop: Header=BB27_9 Depth=1
	cmpl	$3, -12(%rbp)
	setl	%al
.LBB27_11:                              # %land.end13
                                        #   in Loop: Header=BB27_9 Depth=1
	testb	$1, %al
	jne	.LBB27_12
	jmp	.LBB27_16
.LBB27_12:                              # %while.body14
                                        #   in Loop: Header=BB27_9 Depth=1
	xorl	%ebx, %ebx
	movslq	-12(%rbp), %rax
	imulq	$24, %rax, %rax
	movabsq	$OffsetType8x8, %rdi
	addq	%rax, %rdi
	movq	-40(%rbp), %rsi
	callq	strcmp
	cmpl	%eax, %ebx
	jne	.LBB27_14
# %bb.13:                               # %if.then20
	movl	-12(%rbp), %eax
	movl	%eax, -16(%rbp)
	jmp	.LBB27_17
.LBB27_14:                              # %if.else21
                                        #   in Loop: Header=BB27_9 Depth=1
	movl	-12(%rbp), %eax
	addl	$1, %eax
	movl	%eax, -12(%rbp)
# %bb.15:                               # %if.end23
                                        #   in Loop: Header=BB27_9 Depth=1
	jmp	.LBB27_9
.LBB27_16:                              # %while.end24
	movl	$-1, -16(%rbp)
.LBB27_17:                              # %return
	movl	-16(%rbp), %ebx
	cmpl	$624370304, -20(%rbp)   # imm = 0x25372280
	jne	.LBB27_19
.LBB27_18:
	movl	%ebx, %eax
	addq	$40, %rsp
	popq	%rbx
	popq	%rbp
	.cfi_def_cfa %rsp, 8
	retq
.LBB27_19:                              # %func_exit
	.cfi_def_cfa %rbp, 16
	callq	detect_breach
	jmp	.LBB27_18
.Lfunc_end27:
	.size	CheckOffsetParameterName.23, .Lfunc_end27-CheckOffsetParameterName.23
	.cfi_endproc
                                        # -- End function
	.globl	CalculateOffsetParam.24 # -- Begin function CalculateOffsetParam.24
	.p2align	4, 0x90
	.type	CalculateOffsetParam.24,@function
CalculateOffsetParam.24:                # @CalculateOffsetParam.24
	.cfi_startproc
# %bb.0:                                # %entry
	pushq	%rbp
	.cfi_def_cfa_offset 16
	.cfi_offset %rbp, -16
	movq	%rsp, %rbp
	.cfi_def_cfa_register %rbp
	subq	$32, %rsp
	movl	$686603454, -24(%rbp)   # imm = 0x28ECBCBE
	movq	input, %rax
	cmpl	$0, 3584(%rax)
	je	.LBB28_17
# %bb.1:                                # %if.then
	movl	$0, -4(%rbp)
.LBB28_2:                               # %for.cond
                                        # =>This Loop Header: Depth=1
                                        #     Child Loop BB28_4 Depth 2
                                        #       Child Loop BB28_6 Depth 3
	cmpl	$13, -4(%rbp)
	jge	.LBB28_16
# %bb.3:                                # %for.body
                                        #   in Loop: Header=BB28_2 Depth=1
	movl	-4(%rbp), %eax
	addl	$15, %eax
	subl	$10, %eax
	movl	%eax, -20(%rbp)
	movl	$0, -8(%rbp)
.LBB28_4:                               # %for.cond1
                                        #   Parent Loop BB28_2 Depth=1
                                        # =>  This Loop Header: Depth=2
                                        #       Child Loop BB28_6 Depth 3
	cmpl	$4, -8(%rbp)
	jge	.LBB28_14
# %bb.5:                                # %for.body3
                                        #   in Loop: Header=BB28_4 Depth=2
	movl	$0, -12(%rbp)
.LBB28_6:                               # %for.cond4
                                        #   Parent Loop BB28_2 Depth=1
                                        #     Parent Loop BB28_4 Depth=2
                                        # =>    This Inner Loop Header: Depth=3
	cmpl	$4, -12(%rbp)
	jge	.LBB28_12
# %bb.7:                                # %for.body6
                                        #   in Loop: Header=BB28_6 Depth=3
	movl	-12(%rbp), %eax
	shll	$2, %eax
	addl	-8(%rbp), %eax
	movl	%eax, -16(%rbp)
	movq	img, %rax
	cmpl	$2, 24(%rax)
	jne	.LBB28_9
# %bb.8:                                # %if.then9
                                        #   in Loop: Header=BB28_6 Depth=3
	movabsq	$LevelOffset4x4Chroma_Intra, %rdx
	movq	%rdx, %rax
	addq	$832, %rax              # imm = 0x340
	movslq	-16(%rbp), %rcx
	movswl	OffsetList4x4input(,%rcx,2), %esi
	movl	-20(%rbp), %ecx
                                        # kill: def $cl killed $ecx
	shll	%cl, %esi
	movslq	-4(%rbp), %rcx
	shlq	$6, %rcx
	movabsq	$LevelOffset4x4Luma_Intra, %rdi
	addq	%rcx, %rdi
	movslq	-8(%rbp), %rcx
	shlq	$4, %rcx
	addq	%rcx, %rdi
	movslq	-12(%rbp), %rcx
	movl	%esi, (%rdi,%rcx,4)
	movslq	-16(%rbp), %rcx
	movswl	OffsetList4x4input+32(,%rcx,2), %esi
	movl	-20(%rbp), %ecx
                                        # kill: def $cl killed $ecx
	shll	%cl, %esi
	movslq	-4(%rbp), %rcx
	shlq	$6, %rcx
	addq	%rcx, %rdx
	movslq	-8(%rbp), %rcx
	shlq	$4, %rcx
	addq	%rcx, %rdx
	movslq	-12(%rbp), %rcx
	movl	%esi, (%rdx,%rcx,4)
	movslq	-16(%rbp), %rcx
	movswl	OffsetList4x4input+64(,%rcx,2), %edx
	movl	-20(%rbp), %ecx
                                        # kill: def $cl killed $ecx
	shll	%cl, %edx
	movslq	-4(%rbp), %rcx
	shlq	$6, %rcx
	addq	%rcx, %rax
	movslq	-8(%rbp), %rcx
	shlq	$4, %rcx
	addq	%rcx, %rax
	movslq	-12(%rbp), %rcx
	movl	%edx, (%rax,%rcx,4)
	jmp	.LBB28_10
.LBB28_9:                               # %if.else
                                        #   in Loop: Header=BB28_6 Depth=3
	movabsq	$LevelOffset4x4Chroma_Intra, %rdx
	movq	%rdx, %rax
	addq	$832, %rax              # imm = 0x340
	movslq	-16(%rbp), %rcx
	movswl	OffsetList4x4input+96(,%rcx,2), %esi
	movl	-20(%rbp), %ecx
                                        # kill: def $cl killed $ecx
	shll	%cl, %esi
	movslq	-4(%rbp), %rcx
	shlq	$6, %rcx
	movabsq	$LevelOffset4x4Luma_Intra, %rdi
	addq	%rcx, %rdi
	movslq	-8(%rbp), %rcx
	shlq	$4, %rcx
	addq	%rcx, %rdi
	movslq	-12(%rbp), %rcx
	movl	%esi, (%rdi,%rcx,4)
	movslq	-16(%rbp), %rcx
	movswl	OffsetList4x4input+128(,%rcx,2), %esi
	movl	-20(%rbp), %ecx
                                        # kill: def $cl killed $ecx
	shll	%cl, %esi
	movslq	-4(%rbp), %rcx
	shlq	$6, %rcx
	addq	%rcx, %rdx
	movslq	-8(%rbp), %rcx
	shlq	$4, %rcx
	addq	%rcx, %rdx
	movslq	-12(%rbp), %rcx
	movl	%esi, (%rdx,%rcx,4)
	movslq	-16(%rbp), %rcx
	movswl	OffsetList4x4input+160(,%rcx,2), %edx
	movl	-20(%rbp), %ecx
                                        # kill: def $cl killed $ecx
	shll	%cl, %edx
	movslq	-4(%rbp), %rcx
	shlq	$6, %rcx
	addq	%rcx, %rax
	movslq	-8(%rbp), %rcx
	shlq	$4, %rcx
	addq	%rcx, %rax
	movslq	-12(%rbp), %rcx
	movl	%edx, (%rax,%rcx,4)
.LBB28_10:                              # %if.end
                                        #   in Loop: Header=BB28_6 Depth=3
	movabsq	$LevelOffset4x4Chroma_Inter, %rdx
	movq	%rdx, %rax
	addq	$832, %rax              # imm = 0x340
	movslq	-16(%rbp), %rcx
	movswl	OffsetList4x4input+192(,%rcx,2), %esi
	movl	-20(%rbp), %ecx
                                        # kill: def $cl killed $ecx
	shll	%cl, %esi
	movslq	-4(%rbp), %rcx
	shlq	$6, %rcx
	movabsq	$LevelOffset4x4Luma_Inter, %rdi
	addq	%rcx, %rdi
	movslq	-8(%rbp), %rcx
	shlq	$4, %rcx
	addq	%rcx, %rdi
	movslq	-12(%rbp), %rcx
	movl	%esi, (%rdi,%rcx,4)
	movslq	-16(%rbp), %rcx
	movswl	OffsetList4x4input+224(,%rcx,2), %esi
	movl	-20(%rbp), %ecx
                                        # kill: def $cl killed $ecx
	shll	%cl, %esi
	movslq	-4(%rbp), %rcx
	shlq	$6, %rcx
	addq	%rcx, %rdx
	movslq	-8(%rbp), %rcx
	shlq	$4, %rcx
	addq	%rcx, %rdx
	movslq	-12(%rbp), %rcx
	movl	%esi, (%rdx,%rcx,4)
	movslq	-16(%rbp), %rcx
	movswl	OffsetList4x4input+256(,%rcx,2), %edx
	movl	-20(%rbp), %ecx
                                        # kill: def $cl killed $ecx
	shll	%cl, %edx
	movslq	-4(%rbp), %rcx
	shlq	$6, %rcx
	addq	%rcx, %rax
	movslq	-8(%rbp), %rcx
	shlq	$4, %rcx
	addq	%rcx, %rax
	movslq	-12(%rbp), %rcx
	movl	%edx, (%rax,%rcx,4)
# %bb.11:                               # %for.inc
                                        #   in Loop: Header=BB28_6 Depth=3
	movl	-12(%rbp), %eax
	addl	$1, %eax
	movl	%eax, -12(%rbp)
	jmp	.LBB28_6
.LBB28_12:                              # %for.end
                                        #   in Loop: Header=BB28_4 Depth=2
	jmp	.LBB28_13
.LBB28_13:                              # %for.inc97
                                        #   in Loop: Header=BB28_4 Depth=2
	movl	-8(%rbp), %eax
	addl	$1, %eax
	movl	%eax, -8(%rbp)
	jmp	.LBB28_4
.LBB28_14:                              # %for.end99
                                        #   in Loop: Header=BB28_2 Depth=1
	jmp	.LBB28_15
.LBB28_15:                              # %for.inc100
                                        #   in Loop: Header=BB28_2 Depth=1
	movl	-4(%rbp), %eax
	addl	$1, %eax
	movl	%eax, -4(%rbp)
	jmp	.LBB28_2
.LBB28_16:                              # %for.end102
	jmp	.LBB28_33
.LBB28_17:                              # %if.else103
	movl	$0, -4(%rbp)
.LBB28_18:                              # %for.cond104
                                        # =>This Loop Header: Depth=1
                                        #     Child Loop BB28_20 Depth 2
                                        #       Child Loop BB28_22 Depth 3
	cmpl	$13, -4(%rbp)
	jge	.LBB28_32
# %bb.19:                               # %for.body107
                                        #   in Loop: Header=BB28_18 Depth=1
	movl	-4(%rbp), %eax
	addl	$15, %eax
	subl	$10, %eax
	movl	%eax, -20(%rbp)
	movl	$0, -8(%rbp)
.LBB28_20:                              # %for.cond110
                                        #   Parent Loop BB28_18 Depth=1
                                        # =>  This Loop Header: Depth=2
                                        #       Child Loop BB28_22 Depth 3
	cmpl	$4, -8(%rbp)
	jge	.LBB28_30
# %bb.21:                               # %for.body113
                                        #   in Loop: Header=BB28_20 Depth=2
	movl	$0, -12(%rbp)
.LBB28_22:                              # %for.cond114
                                        #   Parent Loop BB28_18 Depth=1
                                        #     Parent Loop BB28_20 Depth=2
                                        # =>    This Inner Loop Header: Depth=3
	cmpl	$4, -12(%rbp)
	jge	.LBB28_28
# %bb.23:                               # %for.body117
                                        #   in Loop: Header=BB28_22 Depth=3
	movl	-12(%rbp), %eax
	shll	$2, %eax
	addl	-8(%rbp), %eax
	movl	%eax, -16(%rbp)
	movq	img, %rax
	cmpl	$2, 24(%rax)
	jne	.LBB28_25
# %bb.24:                               # %if.then123
                                        #   in Loop: Header=BB28_22 Depth=3
	movabsq	$LevelOffset4x4Chroma_Intra, %rdx
	movq	%rdx, %rax
	addq	$832, %rax              # imm = 0x340
	movslq	-16(%rbp), %rcx
	movswl	Offset_intra_default_intra(,%rcx,2), %esi
	movl	-20(%rbp), %ecx
                                        # kill: def $cl killed $ecx
	shll	%cl, %esi
	movslq	-4(%rbp), %rcx
	shlq	$6, %rcx
	movabsq	$LevelOffset4x4Luma_Intra, %rdi
	addq	%rcx, %rdi
	movslq	-8(%rbp), %rcx
	shlq	$4, %rcx
	addq	%rcx, %rdi
	movslq	-12(%rbp), %rcx
	movl	%esi, (%rdi,%rcx,4)
	movslq	-16(%rbp), %rcx
	movswl	Offset_intra_default_intra(,%rcx,2), %esi
	movl	-20(%rbp), %ecx
                                        # kill: def $cl killed $ecx
	shll	%cl, %esi
	movslq	-4(%rbp), %rcx
	shlq	$6, %rcx
	addq	%rcx, %rdx
	movslq	-8(%rbp), %rcx
	shlq	$4, %rcx
	addq	%rcx, %rdx
	movslq	-12(%rbp), %rcx
	movl	%esi, (%rdx,%rcx,4)
	movslq	-16(%rbp), %rcx
	movswl	Offset_intra_default_intra(,%rcx,2), %edx
	movl	-20(%rbp), %ecx
                                        # kill: def $cl killed $ecx
	shll	%cl, %edx
	movslq	-4(%rbp), %rcx
	shlq	$6, %rcx
	addq	%rcx, %rax
	movslq	-8(%rbp), %rcx
	shlq	$4, %rcx
	addq	%rcx, %rax
	movslq	-12(%rbp), %rcx
	movl	%edx, (%rax,%rcx,4)
	jmp	.LBB28_26
.LBB28_25:                              # %if.else154
                                        #   in Loop: Header=BB28_22 Depth=3
	movabsq	$LevelOffset4x4Chroma_Intra, %rdx
	movq	%rdx, %rax
	addq	$832, %rax              # imm = 0x340
	movslq	-16(%rbp), %rcx
	movswl	Offset_intra_default_inter(,%rcx,2), %esi
	movl	-20(%rbp), %ecx
                                        # kill: def $cl killed $ecx
	shll	%cl, %esi
	movslq	-4(%rbp), %rcx
	shlq	$6, %rcx
	movabsq	$LevelOffset4x4Luma_Intra, %rdi
	addq	%rcx, %rdi
	movslq	-8(%rbp), %rcx
	shlq	$4, %rcx
	addq	%rcx, %rdi
	movslq	-12(%rbp), %rcx
	movl	%esi, (%rdi,%rcx,4)
	movslq	-16(%rbp), %rcx
	movswl	Offset_intra_default_inter(,%rcx,2), %esi
	movl	-20(%rbp), %ecx
                                        # kill: def $cl killed $ecx
	shll	%cl, %esi
	movslq	-4(%rbp), %rcx
	shlq	$6, %rcx
	addq	%rcx, %rdx
	movslq	-8(%rbp), %rcx
	shlq	$4, %rcx
	addq	%rcx, %rdx
	movslq	-12(%rbp), %rcx
	movl	%esi, (%rdx,%rcx,4)
	movslq	-16(%rbp), %rcx
	movswl	Offset_intra_default_inter(,%rcx,2), %edx
	movl	-20(%rbp), %ecx
                                        # kill: def $cl killed $ecx
	shll	%cl, %edx
	movslq	-4(%rbp), %rcx
	shlq	$6, %rcx
	addq	%rcx, %rax
	movslq	-8(%rbp), %rcx
	shlq	$4, %rcx
	addq	%rcx, %rax
	movslq	-12(%rbp), %rcx
	movl	%edx, (%rax,%rcx,4)
.LBB28_26:                              # %if.end185
                                        #   in Loop: Header=BB28_22 Depth=3
	movabsq	$LevelOffset4x4Chroma_Inter, %rdx
	movq	%rdx, %rax
	addq	$832, %rax              # imm = 0x340
	movslq	-16(%rbp), %rcx
	movswl	Offset_inter_default(,%rcx,2), %esi
	movl	-20(%rbp), %ecx
                                        # kill: def $cl killed $ecx
	shll	%cl, %esi
	movslq	-4(%rbp), %rcx
	shlq	$6, %rcx
	movabsq	$LevelOffset4x4Luma_Inter, %rdi
	addq	%rcx, %rdi
	movslq	-8(%rbp), %rcx
	shlq	$4, %rcx
	addq	%rcx, %rdi
	movslq	-12(%rbp), %rcx
	movl	%esi, (%rdi,%rcx,4)
	movslq	-16(%rbp), %rcx
	movswl	Offset_inter_default(,%rcx,2), %esi
	movl	-20(%rbp), %ecx
                                        # kill: def $cl killed $ecx
	shll	%cl, %esi
	movslq	-4(%rbp), %rcx
	shlq	$6, %rcx
	addq	%rcx, %rdx
	movslq	-8(%rbp), %rcx
	shlq	$4, %rcx
	addq	%rcx, %rdx
	movslq	-12(%rbp), %rcx
	movl	%esi, (%rdx,%rcx,4)
	movslq	-16(%rbp), %rcx
	movswl	Offset_inter_default(,%rcx,2), %edx
	movl	-20(%rbp), %ecx
                                        # kill: def $cl killed $ecx
	shll	%cl, %edx
	movslq	-4(%rbp), %rcx
	shlq	$6, %rcx
	addq	%rcx, %rax
	movslq	-8(%rbp), %rcx
	shlq	$4, %rcx
	addq	%rcx, %rax
	movslq	-12(%rbp), %rcx
	movl	%edx, (%rax,%rcx,4)
# %bb.27:                               # %for.inc216
                                        #   in Loop: Header=BB28_22 Depth=3
	movl	-12(%rbp), %eax
	addl	$1, %eax
	movl	%eax, -12(%rbp)
	jmp	.LBB28_22
.LBB28_28:                              # %for.end218
                                        #   in Loop: Header=BB28_20 Depth=2
	jmp	.LBB28_29
.LBB28_29:                              # %for.inc219
                                        #   in Loop: Header=BB28_20 Depth=2
	movl	-8(%rbp), %eax
	addl	$1, %eax
	movl	%eax, -8(%rbp)
	jmp	.LBB28_20
.LBB28_30:                              # %for.end221
                                        #   in Loop: Header=BB28_18 Depth=1
	jmp	.LBB28_31
.LBB28_31:                              # %for.inc222
                                        #   in Loop: Header=BB28_18 Depth=1
	movl	-4(%rbp), %eax
	addl	$1, %eax
	movl	%eax, -4(%rbp)
	jmp	.LBB28_18
.LBB28_32:                              # %for.end224
	jmp	.LBB28_33
.LBB28_33:                              # %if.end225
	cmpl	$686603454, -24(%rbp)   # imm = 0x28ECBCBE
	jne	.LBB28_35
.LBB28_34:
	addq	$32, %rsp
	popq	%rbp
	.cfi_def_cfa %rsp, 8
	retq
.LBB28_35:                              # %func_exit
	.cfi_def_cfa %rbp, 16
	callq	detect_breach
	jmp	.LBB28_34
.Lfunc_end28:
	.size	CalculateOffsetParam.24, .Lfunc_end28-CalculateOffsetParam.24
	.cfi_endproc
                                        # -- End function
	.globl	ParseQOffsetMatrix.25   # -- Begin function ParseQOffsetMatrix.25
	.p2align	4, 0x90
	.type	ParseQOffsetMatrix.25,@function
ParseQOffsetMatrix.25:                  # @ParseQOffsetMatrix.25
	.cfi_startproc
# %bb.0:                                # %entry
	pushq	%rbp
	.cfi_def_cfa_offset 16
	.cfi_offset %rbp, -16
	movq	%rsp, %rbp
	.cfi_def_cfa_register %rbp
	subq	$8096, %rsp             # imm = 0x1FA0
	movl	$732667028, -48(%rbp)   # imm = 0x2BAB9C94
	movq	%rdi, -88(%rbp)
	movl	%esi, -56(%rbp)
	movl	$0, -28(%rbp)
	movl	$0, -36(%rbp)
	movl	$0, -20(%rbp)
	movq	-88(%rbp), %rax
	movq	%rax, -16(%rbp)
	movq	-88(%rbp), %rax
	movslq	-56(%rbp), %rcx
	addq	%rcx, %rax
	movq	%rax, -80(%rbp)
.LBB29_1:                               # %while.cond
                                        # =>This Loop Header: Depth=1
                                        #     Child Loop BB29_6 Depth 2
	movq	-16(%rbp), %rax
	cmpq	-80(%rbp), %rax
	jae	.LBB29_25
# %bb.2:                                # %while.body
                                        #   in Loop: Header=BB29_1 Depth=1
	movq	-16(%rbp), %rax
	movsbl	(%rax), %eax
	addl	$-9, %eax
	movl	%eax, %ecx
	subl	$35, %ecx
	ja	.LBB29_21
# %bb.3:                                # %while.body
                                        #   in Loop: Header=BB29_1 Depth=1
	movq	.LJTI29_0(,%rax,8), %rax
	jmpq	*%rax
.LBB29_4:                               # %sw.bb
                                        #   in Loop: Header=BB29_1 Depth=1
	movq	-16(%rbp), %rax
	addq	$1, %rax
	movq	%rax, -16(%rbp)
	jmp	.LBB29_24
.LBB29_5:                               # %sw.bb1
                                        #   in Loop: Header=BB29_1 Depth=1
	movq	-16(%rbp), %rax
	movb	$0, (%rax)
.LBB29_6:                               # %while.cond2
                                        #   Parent Loop BB29_1 Depth=1
                                        # =>  This Inner Loop Header: Depth=2
	xorl	%eax, %eax
	movq	-16(%rbp), %rcx
	movsbl	(%rcx), %ecx
	cmpl	$10, %ecx
	je	.LBB29_8
# %bb.7:                                # %land.rhs
                                        #   in Loop: Header=BB29_6 Depth=2
	movq	-16(%rbp), %rax
	cmpq	-80(%rbp), %rax
	setb	%al
.LBB29_8:                               # %land.end
                                        #   in Loop: Header=BB29_6 Depth=2
	testb	$1, %al
	jne	.LBB29_9
	jmp	.LBB29_10
.LBB29_9:                               # %while.body8
                                        #   in Loop: Header=BB29_6 Depth=2
	movq	-16(%rbp), %rax
	addq	$1, %rax
	movq	%rax, -16(%rbp)
	jmp	.LBB29_6
.LBB29_10:                              # %while.end
                                        #   in Loop: Header=BB29_1 Depth=1
	movl	$0, -36(%rbp)
	movl	$0, -20(%rbp)
	jmp	.LBB29_24
.LBB29_11:                              # %sw.bb10
                                        #   in Loop: Header=BB29_1 Depth=1
	movl	$0, -20(%rbp)
	movl	$0, -36(%rbp)
	movq	-16(%rbp), %rax
	movq	%rax, %rcx
	addq	$1, %rcx
	movq	%rcx, -16(%rbp)
	movb	$0, (%rax)
	jmp	.LBB29_24
.LBB29_12:                              # %sw.bb12
                                        #   in Loop: Header=BB29_1 Depth=1
	cmpl	$0, -36(%rbp)
	je	.LBB29_14
# %bb.13:                               # %if.then
                                        #   in Loop: Header=BB29_1 Depth=1
	movq	-16(%rbp), %rax
	addq	$1, %rax
	movq	%rax, -16(%rbp)
	jmp	.LBB29_15
.LBB29_14:                              # %if.else
                                        #   in Loop: Header=BB29_1 Depth=1
	movq	-16(%rbp), %rax
	movq	%rax, %rcx
	addq	$1, %rcx
	movq	%rcx, -16(%rbp)
	movb	$0, (%rax)
	movl	$0, -20(%rbp)
.LBB29_15:                              # %if.end
                                        #   in Loop: Header=BB29_1 Depth=1
	jmp	.LBB29_24
.LBB29_16:                              # %sw.bb15
                                        #   in Loop: Header=BB29_1 Depth=1
	movq	-16(%rbp), %rax
	movq	%rax, %rcx
	addq	$1, %rcx
	movq	%rcx, -16(%rbp)
	movb	$0, (%rax)
	cmpl	$0, -36(%rbp)
	jne	.LBB29_18
# %bb.17:                               # %if.then18
                                        #   in Loop: Header=BB29_1 Depth=1
	movq	-16(%rbp), %rax
	movl	-28(%rbp), %ecx
	movl	%ecx, %edx
	addl	$1, %edx
	movl	%edx, -28(%rbp)
	movslq	%ecx, %rcx
	movq	%rax, -8096(%rbp,%rcx,8)
	movl	-20(%rbp), %eax
	xorl	$-1, %eax
	movl	%eax, -20(%rbp)
	jmp	.LBB29_19
.LBB29_18:                              # %if.else21
                                        #   in Loop: Header=BB29_1 Depth=1
	movl	$0, -20(%rbp)
.LBB29_19:                              # %if.end22
                                        #   in Loop: Header=BB29_1 Depth=1
	movl	-36(%rbp), %eax
	xorl	$-1, %eax
	movl	%eax, -36(%rbp)
	jmp	.LBB29_24
.LBB29_20:                              # %sw.bb24
                                        #   in Loop: Header=BB29_1 Depth=1
	movq	-16(%rbp), %rax
	addq	$1, %rax
	movq	%rax, -16(%rbp)
	movl	$0, -20(%rbp)
	jmp	.LBB29_24
.LBB29_21:                              # %sw.default
                                        #   in Loop: Header=BB29_1 Depth=1
	cmpl	$0, -20(%rbp)
	jne	.LBB29_23
# %bb.22:                               # %if.then27
                                        #   in Loop: Header=BB29_1 Depth=1
	movq	-16(%rbp), %rax
	movl	-28(%rbp), %ecx
	movl	%ecx, %edx
	addl	$1, %edx
	movl	%edx, -28(%rbp)
	movslq	%ecx, %rcx
	movq	%rax, -8096(%rbp,%rcx,8)
	movl	-20(%rbp), %eax
	xorl	$-1, %eax
	movl	%eax, -20(%rbp)
.LBB29_23:                              # %if.end32
                                        #   in Loop: Header=BB29_1 Depth=1
	movq	-16(%rbp), %rax
	addq	$1, %rax
	movq	%rax, -16(%rbp)
.LBB29_24:                              # %sw.epilog
                                        #   in Loop: Header=BB29_1 Depth=1
	jmp	.LBB29_1
.LBB29_25:                              # %while.end34
	movl	-28(%rbp), %eax
	addl	$-1, %eax
	movl	%eax, -28(%rbp)
	movl	$0, -24(%rbp)
.LBB29_26:                              # %for.cond
                                        # =>This Loop Header: Depth=1
                                        #     Child Loop BB29_35 Depth 2
	movl	-24(%rbp), %eax
	cmpl	-28(%rbp), %eax
	jge	.LBB29_42
# %bb.27:                               # %for.body
                                        #   in Loop: Header=BB29_26 Depth=1
	movl	$0, -4(%rbp)
	movl	-24(%rbp), %eax
	addl	-4(%rbp), %eax
	cltq
	movq	-8096(%rbp,%rax,8), %rdi
	leaq	-60(%rbp), %rsi
	callq	CheckOffsetParameterName
	xorl	%ecx, %ecx
	movl	%eax, -40(%rbp)
	cmpl	%eax, %ecx
	jle	.LBB29_29
# %bb.28:                               # %if.then41
                                        #   in Loop: Header=BB29_26 Depth=1
	movl	-24(%rbp), %eax
	addl	-4(%rbp), %eax
	cltq
	movq	-8096(%rbp,%rax,8), %rcx
	movabsq	$errortext, %rdi
	movl	$300, %esi              # imm = 0x12C
	movabsq	$.L.str, %rdx
	movb	$0, %al
	callq	snprintf
	movabsq	$errortext, %rdi
	movl	$300, %esi              # imm = 0x12C
	callq	error
.LBB29_29:                              # %if.end46
                                        #   in Loop: Header=BB29_26 Depth=1
	movl	-4(%rbp), %eax
	addl	$1, %eax
	movl	%eax, -4(%rbp)
	movl	-24(%rbp), %eax
	addl	-4(%rbp), %eax
	cltq
	movq	-8096(%rbp,%rax,8), %rsi
	movl	$.L.str.1, %edi
	callq	strcmp
	cmpl	$0, %eax
	je	.LBB29_31
# %bb.30:                               # %if.then53
                                        #   in Loop: Header=BB29_26 Depth=1
	movabsq	$errortext, %rdi
	movl	$300, %esi              # imm = 0x12C
	movabsq	$.L.str.2, %rdx
	movb	$0, %al
	callq	snprintf
	movabsq	$errortext, %rdi
	movl	$300, %esi              # imm = 0x12C
	callq	error
.LBB29_31:                              # %if.end55
                                        #   in Loop: Header=BB29_26 Depth=1
	movl	-4(%rbp), %eax
	addl	$1, %eax
	movl	%eax, -4(%rbp)
	cmpl	$0, -60(%rbp)
	jne	.LBB29_33
# %bb.32:                               # %if.then58
                                        #   in Loop: Header=BB29_26 Depth=1
	movl	$16, -44(%rbp)
	movslq	-40(%rbp), %rax
	shlq	$5, %rax
	movabsq	$OffsetList4x4input, %rcx
	addq	%rax, %rcx
	movq	%rcx, -72(%rbp)
	movslq	-40(%rbp), %rax
	movl	$1, offset4x4_check(,%rax,4)
	jmp	.LBB29_34
.LBB29_33:                              # %if.else63
                                        #   in Loop: Header=BB29_26 Depth=1
	movl	$64, -44(%rbp)
	movslq	-40(%rbp), %rax
	shlq	$7, %rax
	movabsq	$OffsetList8x8input, %rcx
	addq	%rax, %rcx
	movq	%rcx, -72(%rbp)
	movslq	-40(%rbp), %rax
	movl	$1, offset8x8_check(,%rax,4)
.LBB29_34:                              # %if.end69
                                        #   in Loop: Header=BB29_26 Depth=1
	movl	$0, -32(%rbp)
.LBB29_35:                              # %for.cond70
                                        #   Parent Loop BB29_26 Depth=1
                                        # =>  This Inner Loop Header: Depth=2
	movl	-32(%rbp), %eax
	cmpl	-44(%rbp), %eax
	jge	.LBB29_40
# %bb.36:                               # %for.body73
                                        #   in Loop: Header=BB29_35 Depth=2
	movl	-24(%rbp), %eax
	addl	-4(%rbp), %eax
	addl	-32(%rbp), %eax
	cltq
	movq	-8096(%rbp,%rax,8), %rdi
	movabsq	$.L.str.3, %rsi
	leaq	-52(%rbp), %rdx
	movb	$0, %al
	callq	__isoc99_sscanf
	movl	$1, %ecx
	cmpl	%eax, %ecx
	je	.LBB29_38
# %bb.37:                               # %if.then81
                                        #   in Loop: Header=BB29_35 Depth=2
	movslq	-24(%rbp), %rax
	movq	-8096(%rbp,%rax,8), %rcx
	movl	-24(%rbp), %eax
	addl	-4(%rbp), %eax
	addl	-32(%rbp), %eax
	cltq
	movq	-8096(%rbp,%rax,8), %r8
	movabsq	$errortext, %rdi
	movl	$300, %esi              # imm = 0x12C
	movabsq	$.L.str.4, %rdx
	movb	$0, %al
	callq	snprintf
	movabsq	$errortext, %rdi
	movl	$300, %esi              # imm = 0x12C
	callq	error
.LBB29_38:                              # %if.end89
                                        #   in Loop: Header=BB29_35 Depth=2
	movl	-52(%rbp), %eax
	movq	-72(%rbp), %rcx
	movslq	-32(%rbp), %rdx
	movw	%ax, (%rcx,%rdx,2)
# %bb.39:                               # %for.inc
                                        #   in Loop: Header=BB29_35 Depth=2
	movl	-32(%rbp), %eax
	addl	$1, %eax
	movl	%eax, -32(%rbp)
	jmp	.LBB29_35
.LBB29_40:                              # %for.end
                                        #   in Loop: Header=BB29_26 Depth=1
	movl	-32(%rbp), %eax
	addl	-4(%rbp), %eax
	movl	%eax, -4(%rbp)
	movabsq	$.L.str.5, %rdi
	movb	$0, %al
	callq	printf
# %bb.41:                               # %for.inc96
                                        #   in Loop: Header=BB29_26 Depth=1
	movl	-4(%rbp), %eax
	addl	-24(%rbp), %eax
	movl	%eax, -24(%rbp)
	jmp	.LBB29_26
.LBB29_42:                              # %for.end98
	cmpl	$732667028, -48(%rbp)   # imm = 0x2BAB9C94
	jne	.LBB29_44
.LBB29_43:
	addq	$8096, %rsp             # imm = 0x1FA0
	popq	%rbp
	.cfi_def_cfa %rsp, 8
	retq
.LBB29_44:                              # %func_exit
	.cfi_def_cfa %rbp, 16
	callq	detect_breach
	jmp	.LBB29_43
.Lfunc_end29:
	.size	ParseQOffsetMatrix.25, .Lfunc_end29-ParseQOffsetMatrix.25
	.cfi_endproc
	.section	.rodata,"a",@progbits
	.p2align	3
.LJTI29_0:
	.quad	.LBB29_12
	.quad	.LBB29_11
	.quad	.LBB29_21
	.quad	.LBB29_21
	.quad	.LBB29_4
	.quad	.LBB29_21
	.quad	.LBB29_21
	.quad	.LBB29_21
	.quad	.LBB29_21
	.quad	.LBB29_21
	.quad	.LBB29_21
	.quad	.LBB29_21
	.quad	.LBB29_21
	.quad	.LBB29_21
	.quad	.LBB29_21
	.quad	.LBB29_21
	.quad	.LBB29_21
	.quad	.LBB29_21
	.quad	.LBB29_21
	.quad	.LBB29_21
	.quad	.LBB29_21
	.quad	.LBB29_21
	.quad	.LBB29_21
	.quad	.LBB29_12
	.quad	.LBB29_21
	.quad	.LBB29_16
	.quad	.LBB29_5
	.quad	.LBB29_21
	.quad	.LBB29_21
	.quad	.LBB29_21
	.quad	.LBB29_21
	.quad	.LBB29_21
	.quad	.LBB29_21
	.quad	.LBB29_21
	.quad	.LBB29_21
	.quad	.LBB29_20
                                        # -- End function
	.text
	.globl	CheckOffsetParameterName.26 # -- Begin function CheckOffsetParameterName.26
	.p2align	4, 0x90
	.type	CheckOffsetParameterName.26,@function
CheckOffsetParameterName.26:            # @CheckOffsetParameterName.26
	.cfi_startproc
# %bb.0:                                # %entry
	pushq	%rbp
	.cfi_def_cfa_offset 16
	.cfi_offset %rbp, -16
	movq	%rsp, %rbp
	.cfi_def_cfa_register %rbp
	pushq	%rbx
	subq	$40, %rsp
	.cfi_offset %rbx, -24
	movl	$122986218, -20(%rbp)   # imm = 0x7549EEA
	movq	%rdi, -32(%rbp)
	movq	%rsi, -40(%rbp)
	movl	$0, -12(%rbp)
	movq	-40(%rbp), %rax
	movl	$0, (%rax)
.LBB30_1:                               # %while.cond
                                        # =>This Inner Loop Header: Depth=1
	xorl	%eax, %eax
	movslq	-12(%rbp), %rcx
	imulq	$24, %rcx, %rcx
	movabsq	$OffsetType4x4, %rdx
	addq	%rcx, %rdx
	cmpq	$0, %rdx
	je	.LBB30_3
# %bb.2:                                # %land.rhs
                                        #   in Loop: Header=BB30_1 Depth=1
	cmpl	$9, -12(%rbp)
	setl	%al
.LBB30_3:                               # %land.end
                                        #   in Loop: Header=BB30_1 Depth=1
	testb	$1, %al
	jne	.LBB30_4
	jmp	.LBB30_8
.LBB30_4:                               # %while.body
                                        #   in Loop: Header=BB30_1 Depth=1
	xorl	%ebx, %ebx
	movslq	-12(%rbp), %rax
	imulq	$24, %rax, %rax
	movabsq	$OffsetType4x4, %rdi
	addq	%rax, %rdi
	movq	-32(%rbp), %rsi
	callq	strcmp
	cmpl	%eax, %ebx
	jne	.LBB30_6
# %bb.5:                                # %if.then
	movl	-12(%rbp), %eax
	movl	%eax, -16(%rbp)
	jmp	.LBB30_17
.LBB30_6:                               # %if.else
                                        #   in Loop: Header=BB30_1 Depth=1
	movl	-12(%rbp), %eax
	addl	$1, %eax
	movl	%eax, -12(%rbp)
# %bb.7:                                # %if.end
                                        #   in Loop: Header=BB30_1 Depth=1
	jmp	.LBB30_1
.LBB30_8:                               # %while.end
	movl	$0, -12(%rbp)
	movq	-40(%rbp), %rax
	movl	$1, (%rax)
.LBB30_9:                               # %while.cond6
                                        # =>This Inner Loop Header: Depth=1
	xorl	%eax, %eax
	movslq	-12(%rbp), %rcx
	imulq	$24, %rcx, %rcx
	movabsq	$OffsetType8x8, %rdx
	addq	%rcx, %rdx
	cmpq	$0, %rdx
	je	.LBB30_11
# %bb.10:                               # %land.rhs11
                                        #   in Loop: Header=BB30_9 Depth=1
	cmpl	$3, -12(%rbp)
	setl	%al
.LBB30_11:                              # %land.end13
                                        #   in Loop: Header=BB30_9 Depth=1
	testb	$1, %al
	jne	.LBB30_12
	jmp	.LBB30_16
.LBB30_12:                              # %while.body14
                                        #   in Loop: Header=BB30_9 Depth=1
	xorl	%ebx, %ebx
	movslq	-12(%rbp), %rax
	imulq	$24, %rax, %rax
	movabsq	$OffsetType8x8, %rdi
	addq	%rax, %rdi
	movq	-32(%rbp), %rsi
	callq	strcmp
	cmpl	%eax, %ebx
	jne	.LBB30_14
# %bb.13:                               # %if.then20
	movl	-12(%rbp), %eax
	movl	%eax, -16(%rbp)
	jmp	.LBB30_17
.LBB30_14:                              # %if.else21
                                        #   in Loop: Header=BB30_9 Depth=1
	movl	-12(%rbp), %eax
	addl	$1, %eax
	movl	%eax, -12(%rbp)
# %bb.15:                               # %if.end23
                                        #   in Loop: Header=BB30_9 Depth=1
	jmp	.LBB30_9
.LBB30_16:                              # %while.end24
	movl	$-1, -16(%rbp)
.LBB30_17:                              # %return
	movl	-16(%rbp), %ebx
	cmpl	$122986218, -20(%rbp)   # imm = 0x7549EEA
	jne	.LBB30_19
.LBB30_18:
	movl	%ebx, %eax
	addq	$40, %rsp
	popq	%rbx
	popq	%rbp
	.cfi_def_cfa %rsp, 8
	retq
.LBB30_19:                              # %func_exit
	.cfi_def_cfa %rbp, 16
	callq	detect_breach
	jmp	.LBB30_18
.Lfunc_end30:
	.size	CheckOffsetParameterName.26, .Lfunc_end30-CheckOffsetParameterName.26
	.cfi_endproc
                                        # -- End function
	.globl	CalculateOffsetParam.27 # -- Begin function CalculateOffsetParam.27
	.p2align	4, 0x90
	.type	CalculateOffsetParam.27,@function
CalculateOffsetParam.27:                # @CalculateOffsetParam.27
	.cfi_startproc
# %bb.0:                                # %entry
	pushq	%rbp
	.cfi_def_cfa_offset 16
	.cfi_offset %rbp, -16
	movq	%rsp, %rbp
	.cfi_def_cfa_register %rbp
	subq	$32, %rsp
	movl	$1784741682, -24(%rbp)  # imm = 0x6A60FF32
	movq	input, %rax
	cmpl	$0, 3584(%rax)
	je	.LBB31_17
# %bb.1:                                # %if.then
	movl	$0, -4(%rbp)
.LBB31_2:                               # %for.cond
                                        # =>This Loop Header: Depth=1
                                        #     Child Loop BB31_4 Depth 2
                                        #       Child Loop BB31_6 Depth 3
	cmpl	$13, -4(%rbp)
	jge	.LBB31_16
# %bb.3:                                # %for.body
                                        #   in Loop: Header=BB31_2 Depth=1
	movl	-4(%rbp), %eax
	addl	$15, %eax
	subl	$10, %eax
	movl	%eax, -20(%rbp)
	movl	$0, -12(%rbp)
.LBB31_4:                               # %for.cond1
                                        #   Parent Loop BB31_2 Depth=1
                                        # =>  This Loop Header: Depth=2
                                        #       Child Loop BB31_6 Depth 3
	cmpl	$4, -12(%rbp)
	jge	.LBB31_14
# %bb.5:                                # %for.body3
                                        #   in Loop: Header=BB31_4 Depth=2
	movl	$0, -8(%rbp)
.LBB31_6:                               # %for.cond4
                                        #   Parent Loop BB31_2 Depth=1
                                        #     Parent Loop BB31_4 Depth=2
                                        # =>    This Inner Loop Header: Depth=3
	cmpl	$4, -8(%rbp)
	jge	.LBB31_12
# %bb.7:                                # %for.body6
                                        #   in Loop: Header=BB31_6 Depth=3
	movl	-8(%rbp), %eax
	shll	$2, %eax
	addl	-12(%rbp), %eax
	movl	%eax, -16(%rbp)
	movq	img, %rax
	cmpl	$2, 24(%rax)
	jne	.LBB31_9
# %bb.8:                                # %if.then9
                                        #   in Loop: Header=BB31_6 Depth=3
	movabsq	$LevelOffset4x4Chroma_Intra, %rdx
	movq	%rdx, %rax
	addq	$832, %rax              # imm = 0x340
	movslq	-16(%rbp), %rcx
	movswl	OffsetList4x4input(,%rcx,2), %esi
	movl	-20(%rbp), %ecx
                                        # kill: def $cl killed $ecx
	shll	%cl, %esi
	movslq	-4(%rbp), %rcx
	shlq	$6, %rcx
	movabsq	$LevelOffset4x4Luma_Intra, %rdi
	addq	%rcx, %rdi
	movslq	-12(%rbp), %rcx
	shlq	$4, %rcx
	addq	%rcx, %rdi
	movslq	-8(%rbp), %rcx
	movl	%esi, (%rdi,%rcx,4)
	movslq	-16(%rbp), %rcx
	movswl	OffsetList4x4input+32(,%rcx,2), %esi
	movl	-20(%rbp), %ecx
                                        # kill: def $cl killed $ecx
	shll	%cl, %esi
	movslq	-4(%rbp), %rcx
	shlq	$6, %rcx
	addq	%rcx, %rdx
	movslq	-12(%rbp), %rcx
	shlq	$4, %rcx
	addq	%rcx, %rdx
	movslq	-8(%rbp), %rcx
	movl	%esi, (%rdx,%rcx,4)
	movslq	-16(%rbp), %rcx
	movswl	OffsetList4x4input+64(,%rcx,2), %edx
	movl	-20(%rbp), %ecx
                                        # kill: def $cl killed $ecx
	shll	%cl, %edx
	movslq	-4(%rbp), %rcx
	shlq	$6, %rcx
	addq	%rcx, %rax
	movslq	-12(%rbp), %rcx
	shlq	$4, %rcx
	addq	%rcx, %rax
	movslq	-8(%rbp), %rcx
	movl	%edx, (%rax,%rcx,4)
	jmp	.LBB31_10
.LBB31_9:                               # %if.else
                                        #   in Loop: Header=BB31_6 Depth=3
	movabsq	$LevelOffset4x4Chroma_Intra, %rdx
	movq	%rdx, %rax
	addq	$832, %rax              # imm = 0x340
	movslq	-16(%rbp), %rcx
	movswl	OffsetList4x4input+96(,%rcx,2), %esi
	movl	-20(%rbp), %ecx
                                        # kill: def $cl killed $ecx
	shll	%cl, %esi
	movslq	-4(%rbp), %rcx
	shlq	$6, %rcx
	movabsq	$LevelOffset4x4Luma_Intra, %rdi
	addq	%rcx, %rdi
	movslq	-12(%rbp), %rcx
	shlq	$4, %rcx
	addq	%rcx, %rdi
	movslq	-8(%rbp), %rcx
	movl	%esi, (%rdi,%rcx,4)
	movslq	-16(%rbp), %rcx
	movswl	OffsetList4x4input+128(,%rcx,2), %esi
	movl	-20(%rbp), %ecx
                                        # kill: def $cl killed $ecx
	shll	%cl, %esi
	movslq	-4(%rbp), %rcx
	shlq	$6, %rcx
	addq	%rcx, %rdx
	movslq	-12(%rbp), %rcx
	shlq	$4, %rcx
	addq	%rcx, %rdx
	movslq	-8(%rbp), %rcx
	movl	%esi, (%rdx,%rcx,4)
	movslq	-16(%rbp), %rcx
	movswl	OffsetList4x4input+160(,%rcx,2), %edx
	movl	-20(%rbp), %ecx
                                        # kill: def $cl killed $ecx
	shll	%cl, %edx
	movslq	-4(%rbp), %rcx
	shlq	$6, %rcx
	addq	%rcx, %rax
	movslq	-12(%rbp), %rcx
	shlq	$4, %rcx
	addq	%rcx, %rax
	movslq	-8(%rbp), %rcx
	movl	%edx, (%rax,%rcx,4)
.LBB31_10:                              # %if.end
                                        #   in Loop: Header=BB31_6 Depth=3
	movabsq	$LevelOffset4x4Chroma_Inter, %rdx
	movq	%rdx, %rax
	addq	$832, %rax              # imm = 0x340
	movslq	-16(%rbp), %rcx
	movswl	OffsetList4x4input+192(,%rcx,2), %esi
	movl	-20(%rbp), %ecx
                                        # kill: def $cl killed $ecx
	shll	%cl, %esi
	movslq	-4(%rbp), %rcx
	shlq	$6, %rcx
	movabsq	$LevelOffset4x4Luma_Inter, %rdi
	addq	%rcx, %rdi
	movslq	-12(%rbp), %rcx
	shlq	$4, %rcx
	addq	%rcx, %rdi
	movslq	-8(%rbp), %rcx
	movl	%esi, (%rdi,%rcx,4)
	movslq	-16(%rbp), %rcx
	movswl	OffsetList4x4input+224(,%rcx,2), %esi
	movl	-20(%rbp), %ecx
                                        # kill: def $cl killed $ecx
	shll	%cl, %esi
	movslq	-4(%rbp), %rcx
	shlq	$6, %rcx
	addq	%rcx, %rdx
	movslq	-12(%rbp), %rcx
	shlq	$4, %rcx
	addq	%rcx, %rdx
	movslq	-8(%rbp), %rcx
	movl	%esi, (%rdx,%rcx,4)
	movslq	-16(%rbp), %rcx
	movswl	OffsetList4x4input+256(,%rcx,2), %edx
	movl	-20(%rbp), %ecx
                                        # kill: def $cl killed $ecx
	shll	%cl, %edx
	movslq	-4(%rbp), %rcx
