	.text
	.file	"ratectl.c"
	.globl	rc_alloc                # -- Begin function rc_alloc
	.p2align	4, 0x90
	.type	rc_alloc,@function
rc_alloc:                               # @rc_alloc
	.cfi_startproc
# %bb.0:                                # %entry
	pushq	%rbp
	.cfi_def_cfa_offset 16
	.cfi_offset %rbp, -16
	movq	%rsp, %rbp
	.cfi_def_cfa_register %rbp
	movq	img, %rax
	movl	72488(%rax), %edi
	movl	$8, %esi
	callq	calloc
	xorl	%ecx, %ecx
	movq	img, %rdx
	movq	%rax, 72584(%rdx)
	movq	img, %rax
	cmpq	72584(%rax), %rcx
	jne	.LBB0_2
# %bb.1:                                # %if.then
	movabsq	$.L.str, %rdi
	callq	no_mem_exit
.LBB0_2:                                # %if.end
	movq	img, %rax
	movl	72488(%rax), %eax
	movq	input, %rcx
	xorl	%edx, %edx
	divl	3248(%rcx)
	movl	%eax, %edi
	movl	$8, %esi
	callq	calloc
	xorl	%ecx, %ecx
	movq	%rax, BUPFMAD
	cmpq	BUPFMAD, %rcx
	jne	.LBB0_4
# %bb.3:                                # %if.then8
	movabsq	$.L.str.1, %rdi
	callq	no_mem_exit
.LBB0_4:                                # %if.end9
	movq	img, %rax
	movl	72488(%rax), %eax
	movq	input, %rcx
	xorl	%edx, %edx
	divl	3248(%rcx)
	movl	%eax, %edi
	movl	$8, %esi
	callq	calloc
	xorl	%ecx, %ecx
	movq	%rax, BUCFMAD
	cmpq	BUCFMAD, %rcx
	jne	.LBB0_6
# %bb.5:                                # %if.then17
	movabsq	$.L.str.2, %rdi
	callq	no_mem_exit
.LBB0_6:                                # %if.end18
	movq	img, %rax
	movl	72488(%rax), %eax
	movq	input, %rcx
	xorl	%edx, %edx
	divl	3248(%rcx)
	movl	%eax, %edi
	movl	$8, %esi
	callq	calloc
	xorl	%ecx, %ecx
	movq	%rax, FCBUCFMAD
	cmpq	FCBUCFMAD, %rcx
	jne	.LBB0_8
# %bb.7:                                # %if.then26
	movabsq	$.L.str.3, %rdi
	callq	no_mem_exit
.LBB0_8:                                # %if.end27
	movq	img, %rax
	movl	72488(%rax), %eax
	movq	input, %rcx
	xorl	%edx, %edx
	divl	3248(%rcx)
	movl	%eax, %edi
	movl	$8, %esi
	callq	calloc
	xorl	%ecx, %ecx
	movq	%rax, FCBUPFMAD
	cmpq	FCBUPFMAD, %rcx
	jne	.LBB0_10
# %bb.9:                                # %if.then35
	movabsq	$.L.str.4, %rdi
	callq	no_mem_exit
.LBB0_10:                               # %if.end36
	popq	%rbp
	.cfi_def_cfa %rsp, 8
	retq
.Lfunc_end0:
	.size	rc_alloc, .Lfunc_end0-rc_alloc
	.cfi_endproc
                                        # -- End function
	.globl	rc_free                 # -- Begin function rc_free
	.p2align	4, 0x90
	.type	rc_free,@function
rc_free:                                # @rc_free
	.cfi_startproc
# %bb.0:                                # %entry
	pushq	%rbp
	.cfi_def_cfa_offset 16
	.cfi_offset %rbp, -16
	movq	%rsp, %rbp
	.cfi_def_cfa_register %rbp
	xorl	%eax, %eax
	movq	img, %rcx
	cmpq	72584(%rcx), %rax
	je	.LBB1_2
# %bb.1:                                # %if.then
	movq	img, %rax
	movq	72584(%rax), %rdi
	callq	free
	movq	img, %rax
	movq	$0, 72584(%rax)
.LBB1_2:                                # %if.end
	xorl	%eax, %eax
	cmpq	BUPFMAD, %rax
	je	.LBB1_4
# %bb.3:                                # %if.then4
	movq	BUPFMAD, %rdi
	callq	free
	movq	$0, BUPFMAD
.LBB1_4:                                # %if.end5
	xorl	%eax, %eax
	cmpq	BUCFMAD, %rax
	je	.LBB1_6
# %bb.5:                                # %if.then7
	movq	BUCFMAD, %rdi
	callq	free
	movq	$0, BUCFMAD
.LBB1_6:                                # %if.end8
	xorl	%eax, %eax
	cmpq	FCBUCFMAD, %rax
	je	.LBB1_8
# %bb.7:                                # %if.then10
	movq	FCBUCFMAD, %rdi
	callq	free
	movq	$0, FCBUCFMAD
.LBB1_8:                                # %if.end11
	xorl	%eax, %eax
	cmpq	FCBUPFMAD, %rax
	je	.LBB1_10
# %bb.9:                                # %if.then13
	movq	FCBUPFMAD, %rdi
	callq	free
	movq	$0, FCBUPFMAD
.LBB1_10:                               # %if.end14
	popq	%rbp
	.cfi_def_cfa %rsp, 8
	retq
.Lfunc_end1:
	.size	rc_free, .Lfunc_end1-rc_free
	.cfi_endproc
                                        # -- End function
	.globl	rc_init_seq             # -- Begin function rc_init_seq
	.p2align	4, 0x90
	.type	rc_init_seq,@function
rc_init_seq:                            # @rc_init_seq
	.cfi_startproc
# %bb.0:                                # %rand_bb
	pushq	%rbp
	.cfi_def_cfa_offset 16
	.cfi_offset %rbp, -16
	movq	%rsp, %rbp
	.cfi_def_cfa_register %rbp
	callq	get_rand
	cmpl	$0, %eax
	jne	.LBB2_5
# %bb.1:                                # %func_rc_init_seq.10
	callq	rc_init_seq.10
	popq	%rbp
	.cfi_def_cfa %rsp, 8
	retq
.LBB2_2:                                # %func_rc_init_seq.37
	.cfi_def_cfa %rbp, 16
	callq	rc_init_seq.37
	popq	%rbp
	.cfi_def_cfa %rsp, 8
	retq
.LBB2_3:                                # %func_rc_init_seq.49
	.cfi_def_cfa %rbp, 16
	callq	rc_init_seq.49
	popq	%rbp
	.cfi_def_cfa %rsp, 8
	retq
.LBB2_4:                                # %func_rc_init_seq.50
	.cfi_def_cfa %rbp, 16
	callq	rc_init_seq.50
	popq	%rbp
	.cfi_def_cfa %rsp, 8
	retq
.LBB2_5:                                # %ctrl0
	.cfi_def_cfa %rbp, 16
	cmpl	$1, %eax
	je	.LBB2_2
# %bb.6:                                # %ctrl1
	cmpl	$2, %eax
	je	.LBB2_3
	jmp	.LBB2_4
.Lfunc_end2:
	.size	rc_init_seq, .Lfunc_end2-rc_init_seq
	.cfi_endproc
                                        # -- End function
	.globl	rc_init_GOP             # -- Begin function rc_init_GOP
	.p2align	4, 0x90
	.type	rc_init_GOP,@function
rc_init_GOP:                            # @rc_init_GOP
	.cfi_startproc
# %bb.0:                                # %rand_bb
	pushq	%rbp
	.cfi_def_cfa_offset 16
	.cfi_offset %rbp, -16
	movq	%rsp, %rbp
	.cfi_def_cfa_register %rbp
	pushq	%r14
	pushq	%rbx
	.cfi_offset %rbx, -32
	.cfi_offset %r14, -24
	movl	%esi, %r14d
	movl	%edi, %ebx
	callq	get_rand
	cmpl	$0, %eax
	jne	.LBB3_5
# %bb.1:                                # %func_rc_init_GOP.17
	movl	%ebx, %edi
	movl	%r14d, %esi
	callq	rc_init_GOP.17
	popq	%rbx
	popq	%r14
	popq	%rbp
	.cfi_def_cfa %rsp, 8
	retq
.LBB3_2:                                # %func_rc_init_GOP.32
	.cfi_def_cfa %rbp, 16
	movl	%ebx, %edi
	movl	%r14d, %esi
	callq	rc_init_GOP.32
	popq	%rbx
	popq	%r14
	popq	%rbp
	.cfi_def_cfa %rsp, 8
	retq
.LBB3_3:                                # %func_rc_init_GOP.33
	.cfi_def_cfa %rbp, 16
	movl	%ebx, %edi
	movl	%r14d, %esi
	callq	rc_init_GOP.33
	popq	%rbx
	popq	%r14
	popq	%rbp
	.cfi_def_cfa %rsp, 8
	retq
.LBB3_4:                                # %func_rc_init_GOP.39
	.cfi_def_cfa %rbp, 16
	movl	%ebx, %edi
	movl	%r14d, %esi
	callq	rc_init_GOP.39
	popq	%rbx
	popq	%r14
	popq	%rbp
	.cfi_def_cfa %rsp, 8
	retq
.LBB3_5:                                # %ctrl0
	.cfi_def_cfa %rbp, 16
	cmpl	$1, %eax
	je	.LBB3_2
# %bb.6:                                # %ctrl1
	cmpl	$2, %eax
	je	.LBB3_3
	jmp	.LBB3_4
.Lfunc_end3:
	.size	rc_init_GOP, .Lfunc_end3-rc_init_GOP
	.cfi_endproc
                                        # -- End function
	.globl	rc_init_pict            # -- Begin function rc_init_pict
	.p2align	4, 0x90
	.type	rc_init_pict,@function
rc_init_pict:                           # @rc_init_pict
	.cfi_startproc
# %bb.0:                                # %rand_bb
	pushq	%rbp
	.cfi_def_cfa_offset 16
	.cfi_offset %rbp, -16
	movq	%rsp, %rbp
	.cfi_def_cfa_register %rbp
	pushq	%r15
	pushq	%r14
	pushq	%rbx
	pushq	%rax
	.cfi_offset %rbx, -40
	.cfi_offset %r14, -32
	.cfi_offset %r15, -24
	movl	%edx, %r14d
	movl	%esi, %r15d
	movl	%edi, %ebx
	callq	get_rand
	cmpl	$0, %eax
	jne	.LBB4_5
# %bb.1:                                # %func_rc_init_pict.1
	movl	%ebx, %edi
	movl	%r15d, %esi
	movl	%r14d, %edx
	callq	rc_init_pict.1
	addq	$8, %rsp
	popq	%rbx
	popq	%r14
	popq	%r15
	popq	%rbp
	.cfi_def_cfa %rsp, 8
	retq
.LBB4_2:                                # %func_rc_init_pict.6
	.cfi_def_cfa %rbp, 16
	movl	%ebx, %edi
	movl	%r15d, %esi
	movl	%r14d, %edx
	callq	rc_init_pict.6
	addq	$8, %rsp
	popq	%rbx
	popq	%r14
	popq	%r15
	popq	%rbp
	.cfi_def_cfa %rsp, 8
	retq
.LBB4_3:                                # %func_rc_init_pict.7
	.cfi_def_cfa %rbp, 16
	movl	%ebx, %edi
	movl	%r15d, %esi
	movl	%r14d, %edx
	callq	rc_init_pict.7
	addq	$8, %rsp
	popq	%rbx
	popq	%r14
	popq	%r15
	popq	%rbp
	.cfi_def_cfa %rsp, 8
	retq
.LBB4_4:                                # %func_rc_init_pict.19
	.cfi_def_cfa %rbp, 16
	movl	%ebx, %edi
	movl	%r15d, %esi
	movl	%r14d, %edx
	callq	rc_init_pict.19
	addq	$8, %rsp
	popq	%rbx
	popq	%r14
	popq	%r15
	popq	%rbp
	.cfi_def_cfa %rsp, 8
	retq
.LBB4_5:                                # %ctrl0
	.cfi_def_cfa %rbp, 16
	cmpl	$1, %eax
	je	.LBB4_2
# %bb.6:                                # %ctrl1
	cmpl	$2, %eax
	je	.LBB4_3
	jmp	.LBB4_4
.Lfunc_end4:
	.size	rc_init_pict, .Lfunc_end4-rc_init_pict
	.cfi_endproc
                                        # -- End function
	.globl	calc_MAD                # -- Begin function calc_MAD
	.p2align	4, 0x90
	.type	calc_MAD,@function
calc_MAD:                               # @calc_MAD
	.cfi_startproc
# %bb.0:                                # %rand_bb
	pushq	%rbp
	.cfi_def_cfa_offset 16
	.cfi_offset %rbp, -16
	movq	%rsp, %rbp
	.cfi_def_cfa_register %rbp
	callq	get_rand
	cmpl	$0, %eax
	jne	.LBB5_5
# %bb.1:                                # %func_calc_MAD.3
	callq	calc_MAD.3
	popq	%rbp
	.cfi_def_cfa %rsp, 8
	retq
.LBB5_2:                                # %func_calc_MAD.18
	.cfi_def_cfa %rbp, 16
	callq	calc_MAD.18
	popq	%rbp
	.cfi_def_cfa %rsp, 8
	retq
.LBB5_3:                                # %func_calc_MAD.23
	.cfi_def_cfa %rbp, 16
	callq	calc_MAD.23
	popq	%rbp
	.cfi_def_cfa %rsp, 8
	retq
.LBB5_4:                                # %func_calc_MAD.26
	.cfi_def_cfa %rbp, 16
	callq	calc_MAD.26
	popq	%rbp
	.cfi_def_cfa %rsp, 8
	retq
.LBB5_5:                                # %ctrl0
	.cfi_def_cfa %rbp, 16
	cmpl	$1, %eax
	je	.LBB5_2
# %bb.6:                                # %ctrl1
	cmpl	$2, %eax
	je	.LBB5_3
	jmp	.LBB5_4
.Lfunc_end5:
	.size	calc_MAD, .Lfunc_end5-calc_MAD
	.cfi_endproc
                                        # -- End function
	.section	.rodata.cst8,"aM",@progbits,8
	.p2align	3               # -- Begin function rc_update_pict
.LCPI6_0:
	.quad	4606281698874543309     # double 0.90000000000000002
	.text
	.globl	rc_update_pict
	.p2align	4, 0x90
	.type	rc_update_pict,@function
rc_update_pict:                         # @rc_update_pict
	.cfi_startproc
# %bb.0:                                # %entry
	pushq	%rbp
	.cfi_def_cfa_offset 16
	.cfi_offset %rbp, -16
	movq	%rsp, %rbp
	.cfi_def_cfa_register %rbp
	vmovsd	.LCPI6_0(%rip), %xmm0   # xmm0 = mem[0],zero
	movl	%edi, -4(%rbp)
	movl	-4(%rbp), %eax
	movl	R, %ecx
	subl	%eax, %ecx
	movl	%ecx, R
	vcvtsi2sdl	-4(%rbp), %xmm0, %xmm1
	vmovsd	bit_rate, %xmm2         # xmm2 = mem[0],zero
	vdivsd	frame_rate, %xmm2, %xmm2
	vsubsd	%xmm2, %xmm1, %xmm1
	vaddsd	CurrentBufferFullness, %xmm1, %xmm1
	vmovsd	%xmm1, CurrentBufferFullness
	vmovsd	bit_rate, %xmm1         # xmm1 = mem[0],zero
	vdivsd	frame_rate, %xmm1, %xmm1
	vcvtsi2sdl	-4(%rbp), %xmm0, %xmm2
	vsubsd	%xmm2, %xmm1, %xmm1
	vcvttsd2si	%xmm1, %rax
	addq	LowerBound, %rax
	movq	%rax, LowerBound
	vmovsd	bit_rate, %xmm1         # xmm1 = mem[0],zero
	vdivsd	frame_rate, %xmm1, %xmm1
	vcvtsi2sdl	-4(%rbp), %xmm0, %xmm2
	vsubsd	%xmm2, %xmm1, %xmm1
	vcvttsd2si	%xmm1, %rax
	addq	UpperBound1, %rax
	movq	%rax, UpperBound1
	vcvtsi2sdq	UpperBound1, %xmm0, %xmm1
	vmulsd	%xmm1, %xmm0, %xmm0
	vcvttsd2si	%xmm0, %rax
	movq	%rax, UpperBound2
	popq	%rbp
	.cfi_def_cfa %rsp, 8
	retq
.Lfunc_end6:
	.size	rc_update_pict, .Lfunc_end6-rc_update_pict
	.cfi_endproc
                                        # -- End function
	.globl	rc_update_pict_frame    # -- Begin function rc_update_pict_frame
	.p2align	4, 0x90
	.type	rc_update_pict_frame,@function
rc_update_pict_frame:                   # @rc_update_pict_frame
	.cfi_startproc
# %bb.0:                                # %rand_bb
	pushq	%rbp
	.cfi_def_cfa_offset 16
	.cfi_offset %rbp, -16
	movq	%rsp, %rbp
	.cfi_def_cfa_register %rbp
	pushq	%rbx
	pushq	%rax
	.cfi_offset %rbx, -24
	movl	%edi, %ebx
	callq	get_rand
	cmpl	$0, %eax
	jne	.LBB7_5
# %bb.1:                                # %func_rc_update_pict_frame.9
	movl	%ebx, %edi
	callq	rc_update_pict_frame.9
	addq	$8, %rsp
	popq	%rbx
	popq	%rbp
	.cfi_def_cfa %rsp, 8
	retq
.LBB7_2:                                # %func_rc_update_pict_frame.15
	.cfi_def_cfa %rbp, 16
	movl	%ebx, %edi
	callq	rc_update_pict_frame.15
	addq	$8, %rsp
	popq	%rbx
	popq	%rbp
	.cfi_def_cfa %rsp, 8
	retq
.LBB7_3:                                # %func_rc_update_pict_frame.21
	.cfi_def_cfa %rbp, 16
	movl	%ebx, %edi
	callq	rc_update_pict_frame.21
	addq	$8, %rsp
	popq	%rbx
	popq	%rbp
	.cfi_def_cfa %rsp, 8
	retq
.LBB7_4:                                # %func_rc_update_pict_frame.30
	.cfi_def_cfa %rbp, 16
	movl	%ebx, %edi
	callq	rc_update_pict_frame.30
	addq	$8, %rsp
	popq	%rbx
	popq	%rbp
	.cfi_def_cfa %rsp, 8
	retq
.LBB7_5:                                # %ctrl0
	.cfi_def_cfa %rbp, 16
	cmpl	$1, %eax
	je	.LBB7_2
# %bb.6:                                # %ctrl1
	cmpl	$2, %eax
	je	.LBB7_3
	jmp	.LBB7_4
.Lfunc_end7:
	.size	rc_update_pict_frame, .Lfunc_end7-rc_update_pict_frame
	.cfi_endproc
                                        # -- End function
	.globl	setbitscount            # -- Begin function setbitscount
	.p2align	4, 0x90
	.type	setbitscount,@function
setbitscount:                           # @setbitscount
	.cfi_startproc
# %bb.0:                                # %entry
	pushq	%rbp
	.cfi_def_cfa_offset 16
	.cfi_offset %rbp, -16
	movq	%rsp, %rbp
	.cfi_def_cfa_register %rbp
	movl	%edi, -4(%rbp)
	movl	-4(%rbp), %eax
	movl	%eax, bits_topfield
	popq	%rbp
	.cfi_def_cfa %rsp, 8
	retq
.Lfunc_end8:
	.size	setbitscount, .Lfunc_end8-setbitscount
	.cfi_endproc
                                        # -- End function
	.globl	updateQuantizationParameter # -- Begin function updateQuantizationParameter
	.p2align	4, 0x90
	.type	updateQuantizationParameter,@function
updateQuantizationParameter:            # @updateQuantizationParameter
	.cfi_startproc
# %bb.0:                                # %rand_bb
	pushq	%rbp
	.cfi_def_cfa_offset 16
	.cfi_offset %rbp, -16
	movq	%rsp, %rbp
	.cfi_def_cfa_register %rbp
	pushq	%rbx
	pushq	%rax
	.cfi_offset %rbx, -24
	movl	%edi, %ebx
	callq	get_rand
	cmpl	$0, %eax
	jne	.LBB9_5
# %bb.1:                                # %func_updateQuantizationParameter.20
	movl	%ebx, %edi
	callq	updateQuantizationParameter.20
	addq	$8, %rsp
	popq	%rbx
	popq	%rbp
	.cfi_def_cfa %rsp, 8
	retq
.LBB9_2:                                # %func_updateQuantizationParameter.34
	.cfi_def_cfa %rbp, 16
	movl	%ebx, %edi
	callq	updateQuantizationParameter.34
	addq	$8, %rsp
	popq	%rbx
	popq	%rbp
	.cfi_def_cfa %rsp, 8
	retq
.LBB9_3:                                # %func_updateQuantizationParameter.35
	.cfi_def_cfa %rbp, 16
	movl	%ebx, %edi
	callq	updateQuantizationParameter.35
	addq	$8, %rsp
	popq	%rbx
	popq	%rbp
	.cfi_def_cfa %rsp, 8
	retq
.LBB9_4:                                # %func_updateQuantizationParameter.43
	.cfi_def_cfa %rbp, 16
	movl	%ebx, %edi
	callq	updateQuantizationParameter.43
	addq	$8, %rsp
	popq	%rbx
	popq	%rbp
	.cfi_def_cfa %rsp, 8
	retq
.LBB9_5:                                # %ctrl0
	.cfi_def_cfa %rbp, 16
	cmpl	$1, %eax
	je	.LBB9_2
# %bb.6:                                # %ctrl1
	cmpl	$2, %eax
	je	.LBB9_3
	jmp	.LBB9_4
.Lfunc_end9:
	.size	updateQuantizationParameter, .Lfunc_end9-updateQuantizationParameter
	.cfi_endproc
                                        # -- End function
	.globl	Qstep2QP                # -- Begin function Qstep2QP
	.p2align	4, 0x90
	.type	Qstep2QP,@function
Qstep2QP:                               # @Qstep2QP
	.cfi_startproc
# %bb.0:                                # %rand_bb
	pushq	%rbp
	.cfi_def_cfa_offset 16
	.cfi_offset %rbp, -16
	movq	%rsp, %rbp
	.cfi_def_cfa_register %rbp
	subq	$16, %rsp
	vmovsd	%xmm0, -8(%rbp)         # 8-byte Spill
	callq	get_rand
	cmpl	$0, %eax
	jne	.LBB10_5
# %bb.1:                                # %func_Qstep2QP.2
	vmovsd	-8(%rbp), %xmm0         # 8-byte Reload
                                        # xmm0 = mem[0],zero
	callq	Qstep2QP.2
	addq	$16, %rsp
	popq	%rbp
	.cfi_def_cfa %rsp, 8
	retq
.LBB10_2:                               # %func_Qstep2QP.8
	.cfi_def_cfa %rbp, 16
	callq	Qstep2QP.8
	addq	$16, %rsp
	popq	%rbp
	.cfi_def_cfa %rsp, 8
	retq
.LBB10_3:                               # %func_Qstep2QP.29
	.cfi_def_cfa %rbp, 16
	callq	Qstep2QP.29
	addq	$16, %rsp
	popq	%rbp
	.cfi_def_cfa %rsp, 8
	retq
.LBB10_4:                               # %func_Qstep2QP.36
	.cfi_def_cfa %rbp, 16
	callq	Qstep2QP.36
	addq	$16, %rsp
	popq	%rbp
	.cfi_def_cfa %rsp, 8
	retq
.LBB10_5:                               # %ctrl0
	.cfi_def_cfa %rbp, 16
	vmovsd	-8(%rbp), %xmm0         # 8-byte Reload
                                        # xmm0 = mem[0],zero
	cmpl	$1, %eax
	je	.LBB10_2
# %bb.6:                                # %ctrl1
	cmpl	$2, %eax
	je	.LBB10_3
	jmp	.LBB10_4
.Lfunc_end10:
	.size	Qstep2QP, .Lfunc_end10-Qstep2QP
	.cfi_endproc
                                        # -- End function
	.globl	updateRCModel           # -- Begin function updateRCModel
	.p2align	4, 0x90
	.type	updateRCModel,@function
updateRCModel:                          # @updateRCModel
	.cfi_startproc
# %bb.0:                                # %rand_bb
	pushq	%rbp
	.cfi_def_cfa_offset 16
	.cfi_offset %rbp, -16
	movq	%rsp, %rbp
	.cfi_def_cfa_register %rbp
	callq	get_rand
	cmpl	$0, %eax
	jne	.LBB11_5
# %bb.1:                                # %func_updateRCModel.4
	callq	updateRCModel.4
	popq	%rbp
	.cfi_def_cfa %rsp, 8
	retq
.LBB11_2:                               # %func_updateRCModel.11
	.cfi_def_cfa %rbp, 16
	callq	updateRCModel.11
	popq	%rbp
	.cfi_def_cfa %rsp, 8
	retq
.LBB11_3:                               # %func_updateRCModel.12
	.cfi_def_cfa %rbp, 16
	callq	updateRCModel.12
	popq	%rbp
	.cfi_def_cfa %rsp, 8
	retq
.LBB11_4:                               # %func_updateRCModel.14
	.cfi_def_cfa %rbp, 16
	callq	updateRCModel.14
	popq	%rbp
	.cfi_def_cfa %rsp, 8
	retq
.LBB11_5:                               # %ctrl0
	.cfi_def_cfa %rbp, 16
	cmpl	$1, %eax
	je	.LBB11_2
# %bb.6:                                # %ctrl1
	cmpl	$2, %eax
	je	.LBB11_3
	jmp	.LBB11_4
.Lfunc_end11:
	.size	updateRCModel, .Lfunc_end11-updateRCModel
	.cfi_endproc
                                        # -- End function
	.globl	QP2Qstep                # -- Begin function QP2Qstep
	.p2align	4, 0x90
	.type	QP2Qstep,@function
QP2Qstep:                               # @QP2Qstep
	.cfi_startproc
# %bb.0:                                # %rand_bb
	pushq	%rbp
	.cfi_def_cfa_offset 16
	.cfi_offset %rbp, -16
	movq	%rsp, %rbp
	.cfi_def_cfa_register %rbp
	pushq	%rbx
	pushq	%rax
	.cfi_offset %rbx, -24
	movl	%edi, %ebx
	callq	get_rand
	cmpl	$0, %eax
	jne	.LBB12_5
# %bb.1:                                # %func_QP2Qstep.25
	movl	%ebx, %edi
	callq	QP2Qstep.25
	addq	$8, %rsp
	popq	%rbx
	popq	%rbp
	.cfi_def_cfa %rsp, 8
	retq
.LBB12_2:                               # %func_QP2Qstep.38
	.cfi_def_cfa %rbp, 16
	movl	%ebx, %edi
	callq	QP2Qstep.38
	addq	$8, %rsp
	popq	%rbx
	popq	%rbp
	.cfi_def_cfa %rsp, 8
	retq
.LBB12_3:                               # %func_QP2Qstep.42
	.cfi_def_cfa %rbp, 16
	movl	%ebx, %edi
	callq	QP2Qstep.42
	addq	$8, %rsp
	popq	%rbx
	popq	%rbp
	.cfi_def_cfa %rsp, 8
	retq
.LBB12_4:                               # %func_QP2Qstep.47
	.cfi_def_cfa %rbp, 16
	movl	%ebx, %edi
	callq	QP2Qstep.47
	addq	$8, %rsp
	popq	%rbx
	popq	%rbp
	.cfi_def_cfa %rsp, 8
	retq
.LBB12_5:                               # %ctrl0
	.cfi_def_cfa %rbp, 16
	cmpl	$1, %eax
	je	.LBB12_2
# %bb.6:                                # %ctrl1
	cmpl	$2, %eax
	je	.LBB12_3
	jmp	.LBB12_4
.Lfunc_end12:
	.size	QP2Qstep, .Lfunc_end12-QP2Qstep
	.cfi_endproc
                                        # -- End function
	.globl	RCModelEstimator        # -- Begin function RCModelEstimator
	.p2align	4, 0x90
	.type	RCModelEstimator,@function
RCModelEstimator:                       # @RCModelEstimator
	.cfi_startproc
# %bb.0:                                # %rand_bb
	pushq	%rbp
	.cfi_def_cfa_offset 16
	.cfi_offset %rbp, -16
	movq	%rsp, %rbp
	.cfi_def_cfa_register %rbp
	pushq	%rbx
	pushq	%rax
	.cfi_offset %rbx, -24
	movl	%edi, %ebx
	callq	get_rand
	cmpl	$0, %eax
	jne	.LBB13_5
# %bb.1:                                # %func_RCModelEstimator.22
	movl	%ebx, %edi
	callq	RCModelEstimator.22
	addq	$8, %rsp
	popq	%rbx
	popq	%rbp
	.cfi_def_cfa %rsp, 8
	retq
.LBB13_2:                               # %func_RCModelEstimator.28
	.cfi_def_cfa %rbp, 16
	movl	%ebx, %edi
	callq	RCModelEstimator.28
	addq	$8, %rsp
	popq	%rbx
	popq	%rbp
	.cfi_def_cfa %rsp, 8
	retq
.LBB13_3:                               # %func_RCModelEstimator.41
	.cfi_def_cfa %rbp, 16
	movl	%ebx, %edi
	callq	RCModelEstimator.41
	addq	$8, %rsp
	popq	%rbx
	popq	%rbp
	.cfi_def_cfa %rsp, 8
	retq
.LBB13_4:                               # %func_RCModelEstimator.44
	.cfi_def_cfa %rbp, 16
	movl	%ebx, %edi
	callq	RCModelEstimator.44
	addq	$8, %rsp
	popq	%rbx
	popq	%rbp
	.cfi_def_cfa %rsp, 8
	retq
.LBB13_5:                               # %ctrl0
	.cfi_def_cfa %rbp, 16
	cmpl	$1, %eax
	je	.LBB13_2
# %bb.6:                                # %ctrl1
	cmpl	$2, %eax
	je	.LBB13_3
	jmp	.LBB13_4
.Lfunc_end13:
	.size	RCModelEstimator, .Lfunc_end13-RCModelEstimator
	.cfi_endproc
                                        # -- End function
	.globl	ComputeFrameMAD         # -- Begin function ComputeFrameMAD
	.p2align	4, 0x90
	.type	ComputeFrameMAD,@function
ComputeFrameMAD:                        # @ComputeFrameMAD
	.cfi_startproc
# %bb.0:                                # %rand_bb
	pushq	%rbp
	.cfi_def_cfa_offset 16
	.cfi_offset %rbp, -16
	movq	%rsp, %rbp
	.cfi_def_cfa_register %rbp
	callq	get_rand
	cmpl	$0, %eax
	jne	.LBB14_2
# %bb.1:                                # %func_ComputeFrameMAD.5
	callq	ComputeFrameMAD.5
	popq	%rbp
	.cfi_def_cfa %rsp, 8
	retq
.LBB14_2:                               # %func_ComputeFrameMAD.31
	.cfi_def_cfa %rbp, 16
	callq	ComputeFrameMAD.31
	popq	%rbp
	.cfi_def_cfa %rsp, 8
	retq
.Lfunc_end14:
	.size	ComputeFrameMAD, .Lfunc_end14-ComputeFrameMAD
	.cfi_endproc
                                        # -- End function
	.globl	updateMADModel          # -- Begin function updateMADModel
	.p2align	4, 0x90
	.type	updateMADModel,@function
updateMADModel:                         # @updateMADModel
	.cfi_startproc
# %bb.0:                                # %rand_bb
	pushq	%rbp
	.cfi_def_cfa_offset 16
	.cfi_offset %rbp, -16
	movq	%rsp, %rbp
	.cfi_def_cfa_register %rbp
	callq	get_rand
	cmpl	$0, %eax
	jne	.LBB15_5
# %bb.1:                                # %func_updateMADModel.13
	callq	updateMADModel.13
	popq	%rbp
	.cfi_def_cfa %rsp, 8
	retq
.LBB15_2:                               # %func_updateMADModel.40
	.cfi_def_cfa %rbp, 16
	callq	updateMADModel.40
	popq	%rbp
	.cfi_def_cfa %rsp, 8
	retq
.LBB15_3:                               # %func_updateMADModel.45
	.cfi_def_cfa %rbp, 16
	callq	updateMADModel.45
	popq	%rbp
	.cfi_def_cfa %rsp, 8
	retq
.LBB15_4:                               # %func_updateMADModel.46
	.cfi_def_cfa %rbp, 16
	callq	updateMADModel.46
	popq	%rbp
	.cfi_def_cfa %rsp, 8
	retq
.LBB15_5:                               # %ctrl0
	.cfi_def_cfa %rbp, 16
	cmpl	$1, %eax
	je	.LBB15_2
# %bb.6:                                # %ctrl1
	cmpl	$2, %eax
	je	.LBB15_3
	jmp	.LBB15_4
.Lfunc_end15:
	.size	updateMADModel, .Lfunc_end15-updateMADModel
	.cfi_endproc
                                        # -- End function
	.globl	MADModelEstimator       # -- Begin function MADModelEstimator
	.p2align	4, 0x90
	.type	MADModelEstimator,@function
MADModelEstimator:                      # @MADModelEstimator
	.cfi_startproc
# %bb.0:                                # %rand_bb
	pushq	%rbp
	.cfi_def_cfa_offset 16
	.cfi_offset %rbp, -16
	movq	%rsp, %rbp
	.cfi_def_cfa_register %rbp
	pushq	%rbx
	pushq	%rax
	.cfi_offset %rbx, -24
	movl	%edi, %ebx
	callq	get_rand
	cmpl	$0, %eax
	jne	.LBB16_5
# %bb.1:                                # %func_MADModelEstimator.16
	movl	%ebx, %edi
	callq	MADModelEstimator.16
	addq	$8, %rsp
	popq	%rbx
	popq	%rbp
	.cfi_def_cfa %rsp, 8
	retq
.LBB16_2:                               # %func_MADModelEstimator.24
	.cfi_def_cfa %rbp, 16
	movl	%ebx, %edi
	callq	MADModelEstimator.24
	addq	$8, %rsp
	popq	%rbx
	popq	%rbp
	.cfi_def_cfa %rsp, 8
	retq
.LBB16_3:                               # %func_MADModelEstimator.27
	.cfi_def_cfa %rbp, 16
	movl	%ebx, %edi
	callq	MADModelEstimator.27
	addq	$8, %rsp
	popq	%rbx
	popq	%rbp
	.cfi_def_cfa %rsp, 8
	retq
.LBB16_4:                               # %func_MADModelEstimator.48
	.cfi_def_cfa %rbp, 16
	movl	%ebx, %edi
	callq	MADModelEstimator.48
	addq	$8, %rsp
	popq	%rbx
	popq	%rbp
	.cfi_def_cfa %rsp, 8
	retq
.LBB16_5:                               # %ctrl0
	.cfi_def_cfa %rbp, 16
	cmpl	$1, %eax
	je	.LBB16_2
# %bb.6:                                # %ctrl1
	cmpl	$2, %eax
	je	.LBB16_3
	jmp	.LBB16_4
.Lfunc_end16:
	.size	MADModelEstimator, .Lfunc_end16-MADModelEstimator
	.cfi_endproc
                                        # -- End function
	.section	.rodata.cst8,"aM",@progbits,8
	.p2align	3               # -- Begin function rc_init_pict.1
.LCPI17_0:
	.quad	4609434218613702656     # double 1.5
.LCPI17_1:
	.quad	4602678819172646912     # double 0.5
.LCPI17_2:
	.quad	4620693217682128896     # double 8
.LCPI17_3:
	.quad	4619567317775286272     # double 7
.LCPI17_4:
	.quad	4607182418800017408     # double 1
.LCPI17_5:
	.quad	4603579539098121011     # double 0.59999999999999998
	.text
	.globl	rc_init_pict.1
	.p2align	4, 0x90
	.type	rc_init_pict.1,@function
rc_init_pict.1:                         # @rc_init_pict.1
	.cfi_startproc
# %bb.0:                                # %entry
	pushq	%rbp
	.cfi_def_cfa_offset 16
	.cfi_offset %rbp, -16
	movq	%rsp, %rbp
	.cfi_def_cfa_register %rbp
	subq	$32, %rsp
	movl	$1098298269, -16(%rbp)  # imm = 0x4176B39D
	movl	%edi, -12(%rbp)
	movl	%esi, -8(%rbp)
	movl	%edx, -20(%rbp)
	movq	input, %rax
	cmpl	$0, 2884(%rax)
	je	.LBB17_2
# %bb.1:                                # %if.then
	movq	img, %rax
	movl	72608(%rax), %eax
	movq	img, %rcx
	cltd
	idivl	72620(%rcx)
	movl	%eax, TotalNumberofBasicUnit
.LBB17_2:                               # %if.end
	movq	img, %rax
	movl	$0, 72616(%rax)
	movq	input, %rax
	cmpl	$1, 3252(%rax)
	jne	.LBB17_9
# %bb.3:                                # %if.then1
	movq	img, %rax
	cmpl	$58, 72564(%rax)
	jne	.LBB17_5
# %bb.4:                                # %if.then3
	vmovsd	.LCPI17_0(%rip), %xmm0  # xmm0 = mem[0],zero
	vmulsd	bit_rate, %xmm0, %xmm0
	vmovsd	%xmm0, bit_rate
	jmp	.LBB17_8
.LBB17_5:                               # %if.else
	movq	img, %rax
	cmpl	$59, 72564(%rax)
	jne	.LBB17_7
# %bb.6:                                # %if.then6
	vmovsd	bit_rate, %xmm0         # xmm0 = mem[0],zero
	vmovsd	%xmm0, PreviousBit_Rate
.LBB17_7:                               # %if.end7
	jmp	.LBB17_8
.LBB17_8:                               # %if.end8
	jmp	.LBB17_9
.LBB17_9:                               # %if.end9
	cmpl	$0, -12(%rbp)
	jne	.LBB17_11
# %bb.10:                               # %lor.lhs.false
	cmpl	$0, -8(%rbp)
	je	.LBB17_111
.LBB17_11:                              # %land.lhs.true
	cmpl	$0, -20(%rbp)
	je	.LBB17_111
# %bb.12:                               # %if.then13
	movq	img(%rip), %rax
	movl	24(%rax), %eax
	testl	%eax, %eax
	je	.LBB17_14
	jmp	.LBB17_13
.LBB17_13:                              # %if.then13
	subl	$1, %eax
	je	.LBB17_65
	jmp	.LBB17_77
.LBB17_14:                              # %sw.bb
	vmovsd	PreviousBit_Rate, %xmm0 # xmm0 = mem[0],zero
	vucomisd	bit_rate, %xmm0
	jne	.LBB17_15
	jp	.LBB17_15
	jmp	.LBB17_16
.LBB17_15:                              # %if.then15
	vmovsd	.LCPI17_1(%rip), %xmm0  # xmm0 = mem[0],zero
	vmovsd	bit_rate, %xmm1         # xmm1 = mem[0],zero
	vsubsd	PreviousBit_Rate, %xmm1, %xmm1
	movl	Np, %eax
	addl	Nb, %eax
	vcvtsi2sd	%eax, %xmm0, %xmm2
	vmulsd	%xmm2, %xmm1, %xmm1
	vdivsd	frame_rate, %xmm1, %xmm1
	vaddsd	%xmm0, %xmm1, %xmm0
	vroundsd	$9, %xmm0, %xmm0, %xmm0
	vcvttsd2si	%xmm0, %eax
	addl	R, %eax
	movl	%eax, R
.LBB17_16:                              # %if.end21
	movq	img, %rax
	movl	72620(%rax), %eax
	movq	img, %rcx
	cmpl	72608(%rcx), %eax
	jne	.LBB17_23
# %bb.17:                               # %if.then26
	movq	img, %rax
	cmpl	$1, 72576(%rax)
	jne	.LBB17_19
# %bb.18:                               # %if.then29
	vmovsd	CurrentBufferFullness, %xmm0 # xmm0 = mem[0],zero
	vmovsd	%xmm0, TargetBufferLevel
	vmovsd	CurrentBufferFullness, %xmm0 # xmm0 = mem[0],zero
	vsubsd	GOPTargetBufferLevel, %xmm0, %xmm0
	movl	TotalPFrame, %eax
	subl	$1, %eax
	vcvtsi2sd	%eax, %xmm0, %xmm1
	vdivsd	%xmm1, %xmm0, %xmm0
	vmovsd	%xmm0, DeltaP
	vmovsd	DeltaP, %xmm0           # xmm0 = mem[0],zero
	vmovsd	TargetBufferLevel, %xmm1 # xmm1 = mem[0],zero
	vsubsd	%xmm0, %xmm1, %xmm0
	vmovsd	%xmm0, TargetBufferLevel
	jmp	.LBB17_22
.LBB17_19:                              # %if.else35
	movq	img, %rax
	cmpl	$1, 72576(%rax)
	jle	.LBB17_21
# %bb.20:                               # %if.then39
	vmovsd	DeltaP, %xmm0           # xmm0 = mem[0],zero
	vmovsd	TargetBufferLevel, %xmm1 # xmm1 = mem[0],zero
	vsubsd	%xmm0, %xmm1, %xmm0
	vmovsd	%xmm0, TargetBufferLevel
.LBB17_21:                              # %if.end41
	jmp	.LBB17_22
.LBB17_22:                              # %if.end42
	jmp	.LBB17_54
.LBB17_23:                              # %if.else43
	movq	img, %rax
	cmpl	$0, 72564(%rax)
	jle	.LBB17_38
# %bb.24:                               # %if.then47
	movq	input, %rax
	cmpl	$2, 2880(%rax)
	je	.LBB17_26
# %bb.25:                               # %lor.lhs.false50
	movq	input, %rax
	cmpl	$0, 2884(%rax)
	je	.LBB17_32
.LBB17_26:                              # %land.lhs.true53
	movq	img, %rax
	cmpl	$1, 72600(%rax)
	jne	.LBB17_32
# %bb.27:                               # %if.then56
	movl	$0, -4(%rbp)
.LBB17_28:                              # %for.cond
                                        # =>This Inner Loop Header: Depth=1
	movl	-4(%rbp), %eax
	cmpl	TotalNumberofBasicUnit, %eax
	jge	.LBB17_31
# %bb.29:                               # %for.body
                                        #   in Loop: Header=BB17_28 Depth=1
	movq	FCBUCFMAD, %rax
	movslq	-4(%rbp), %rcx
	vmovsd	(%rax,%rcx,8), %xmm0    # xmm0 = mem[0],zero
	movq	FCBUPFMAD, %rax
	movslq	-4(%rbp), %rcx
	vmovsd	%xmm0, (%rax,%rcx,8)
# %bb.30:                               # %for.inc
                                        #   in Loop: Header=BB17_28 Depth=1
	movl	-4(%rbp), %eax
	addl	$1, %eax
	movl	%eax, -4(%rbp)
	jmp	.LBB17_28
.LBB17_31:                              # %for.end
	jmp	.LBB17_37
.LBB17_32:                              # %if.else61
	movl	$0, -4(%rbp)
.LBB17_33:                              # %for.cond62
                                        # =>This Inner Loop Header: Depth=1
	movl	-4(%rbp), %eax
	cmpl	TotalNumberofBasicUnit, %eax
	jge	.LBB17_36
# %bb.34:                               # %for.body65
                                        #   in Loop: Header=BB17_33 Depth=1
	movq	BUCFMAD, %rax
	movslq	-4(%rbp), %rcx
	vmovsd	(%rax,%rcx,8), %xmm0    # xmm0 = mem[0],zero
	movq	BUPFMAD, %rax
	movslq	-4(%rbp), %rcx
	vmovsd	%xmm0, (%rax,%rcx,8)
# %bb.35:                               # %for.inc70
                                        #   in Loop: Header=BB17_33 Depth=1
	movl	-4(%rbp), %eax
	addl	$1, %eax
	movl	%eax, -4(%rbp)
	jmp	.LBB17_33
.LBB17_36:                              # %for.end72
	jmp	.LBB17_37
.LBB17_37:                              # %if.end73
	jmp	.LBB17_38
.LBB17_38:                              # %if.end74
	movq	img, %rax
	cmpl	$1, 72568(%rax)
	jne	.LBB17_45
# %bb.39:                               # %if.then77
	movq	img, %rax
	cmpl	$1, 72576(%rax)
	jne	.LBB17_41
# %bb.40:                               # %if.then81
	vmovsd	CurrentBufferFullness, %xmm0 # xmm0 = mem[0],zero
	vmovsd	%xmm0, TargetBufferLevel
	vmovsd	CurrentBufferFullness, %xmm0 # xmm0 = mem[0],zero
	vsubsd	GOPTargetBufferLevel, %xmm0, %xmm0
	movl	TotalPFrame, %eax
	subl	$1, %eax
	vcvtsi2sd	%eax, %xmm0, %xmm1
	vdivsd	%xmm1, %xmm0, %xmm0
	vmovsd	%xmm0, DeltaP
	vmovsd	DeltaP, %xmm0           # xmm0 = mem[0],zero
	vmovsd	TargetBufferLevel, %xmm1 # xmm1 = mem[0],zero
	vsubsd	%xmm0, %xmm1, %xmm0
	vmovsd	%xmm0, TargetBufferLevel
	jmp	.LBB17_44
.LBB17_41:                              # %if.else87
	movq	img, %rax
	cmpl	$1, 72576(%rax)
	jle	.LBB17_43
# %bb.42:                               # %if.then91
	vmovsd	DeltaP, %xmm0           # xmm0 = mem[0],zero
	vmovsd	TargetBufferLevel, %xmm1 # xmm1 = mem[0],zero
	vsubsd	%xmm0, %xmm1, %xmm0
	vmovsd	%xmm0, TargetBufferLevel
.LBB17_43:                              # %if.end93
	jmp	.LBB17_44
.LBB17_44:                              # %if.end94
	jmp	.LBB17_53
.LBB17_45:                              # %if.else95
	movq	img, %rax
	cmpl	$1, 72568(%rax)
	jle	.LBB17_52
# %bb.46:                               # %if.then99
	movq	img, %rax
	cmpl	$0, 72576(%rax)
	jne	.LBB17_48
# %bb.47:                               # %if.then103
	vmovsd	CurrentBufferFullness, %xmm0 # xmm0 = mem[0],zero
	vmovsd	%xmm0, TargetBufferLevel
	vmovsd	CurrentBufferFullness, %xmm0 # xmm0 = mem[0],zero
	vsubsd	GOPTargetBufferLevel, %xmm0, %xmm0
	vcvtsi2sdl	TotalPFrame, %xmm0, %xmm1
	vdivsd	%xmm1, %xmm0, %xmm0
	vmovsd	%xmm0, DeltaP
	vmovsd	DeltaP, %xmm0           # xmm0 = mem[0],zero
	vmovsd	TargetBufferLevel, %xmm1 # xmm1 = mem[0],zero
	vsubsd	%xmm0, %xmm1, %xmm0
	vmovsd	%xmm0, TargetBufferLevel
	jmp	.LBB17_51
.LBB17_48:                              # %if.else108
	movq	img, %rax
	cmpl	$0, 72576(%rax)
	jle	.LBB17_50
# %bb.49:                               # %if.then112
	vmovsd	DeltaP, %xmm0           # xmm0 = mem[0],zero
	vmovsd	TargetBufferLevel, %xmm1 # xmm1 = mem[0],zero
	vsubsd	%xmm0, %xmm1, %xmm0
	vmovsd	%xmm0, TargetBufferLevel
.LBB17_50:                              # %if.end114
	jmp	.LBB17_51
.LBB17_51:                              # %if.end115
	jmp	.LBB17_52
.LBB17_52:                              # %if.end116
	jmp	.LBB17_53
.LBB17_53:                              # %if.end117
	jmp	.LBB17_54
.LBB17_54:                              # %if.end118
	movq	img, %rax
	cmpl	$1, 72564(%rax)
	jne	.LBB17_56
# %bb.55:                               # %if.then122
	vmovsd	Wp, %xmm0               # xmm0 = mem[0],zero
	vmovsd	%xmm0, AWp
.LBB17_56:                              # %if.end123
	movq	img, %rax
	cmpl	$8, 72564(%rax)
	jge	.LBB17_59
# %bb.57:                               # %land.lhs.true127
	movq	img, %rax
	cmpl	$1, 72564(%rax)
	jle	.LBB17_59
# %bb.58:                               # %if.then131
	vmovsd	Wp, %xmm0               # xmm0 = mem[0],zero
	movq	img, %rax
	movl	72564(%rax), %eax
	subl	$1, %eax
	vcvtsi2sd	%eax, %xmm0, %xmm1
	vmulsd	%xmm1, %xmm0, %xmm0
	movq	img, %rax
	vcvtsi2sdl	72564(%rax), %xmm0, %xmm1
	vdivsd	%xmm1, %xmm0, %xmm0
	vmovsd	AWp, %xmm1              # xmm1 = mem[0],zero
	movq	img, %rax
	vcvtsi2sdl	72564(%rax), %xmm0, %xmm2
	vdivsd	%xmm2, %xmm1, %xmm1
	vaddsd	%xmm1, %xmm0, %xmm0
	vmovsd	%xmm0, AWp
	jmp	.LBB17_62
.LBB17_59:                              # %if.else143
	movq	img, %rax
	cmpl	$1, 72564(%rax)
	jle	.LBB17_61
# %bb.60:                               # %if.then147
	vmovsd	.LCPI17_2(%rip), %xmm0  # xmm0 = mem[0],zero
	vmovsd	.LCPI17_3(%rip), %xmm1  # xmm1 = mem[0],zero
	vmovsd	Wp, %xmm2               # xmm2 = mem[0],zero
	vdivsd	%xmm0, %xmm2, %xmm2
	vmulsd	AWp, %xmm1, %xmm1
	vdivsd	%xmm0, %xmm1, %xmm0
	vaddsd	%xmm0, %xmm2, %xmm0
	vmovsd	%xmm0, AWp
.LBB17_61:                              # %if.end152
	jmp	.LBB17_62
.LBB17_62:                              # %if.end153
	movq	input, %rax
	cmpl	$0, 1236(%rax)
	jle	.LBB17_64
# %bb.63:                               # %if.then156
	vmovsd	AWp, %xmm0              # xmm0 = mem[0],zero
	movq	input, %rax
	movl	1236(%rax), %eax
	addl	$1, %eax
	vcvtsi2sd	%eax, %xmm0, %xmm1
	vmulsd	%xmm1, %xmm0, %xmm0
	vmulsd	bit_rate, %xmm0, %xmm0
	vmovsd	frame_rate, %xmm1       # xmm1 = mem[0],zero
	vmovsd	AWp, %xmm2              # xmm2 = mem[0],zero
	vmovsd	AWb, %xmm3              # xmm3 = mem[0],zero
	movq	input, %rax
	vcvtsi2sdl	1236(%rax), %xmm0, %xmm4
	vmulsd	%xmm4, %xmm3, %xmm3
	vaddsd	%xmm3, %xmm2, %xmm2
	vmulsd	%xmm2, %xmm1, %xmm1
	vdivsd	%xmm1, %xmm0, %xmm0
	vmovsd	bit_rate, %xmm1         # xmm1 = mem[0],zero
	vdivsd	frame_rate, %xmm1, %xmm1
	vsubsd	%xmm1, %xmm0, %xmm0
	vaddsd	TargetBufferLevel, %xmm0, %xmm0
	vmovsd	%xmm0, TargetBufferLevel
.LBB17_64:                              # %if.end171
	jmp	.LBB17_77
.LBB17_65:                              # %sw.bb172
	vmovsd	PreviousBit_Rate, %xmm0 # xmm0 = mem[0],zero
	vucomisd	bit_rate, %xmm0
	jne	.LBB17_66
	jp	.LBB17_66
	jmp	.LBB17_67
.LBB17_66:                              # %if.then175
	vmovsd	.LCPI17_1(%rip), %xmm0  # xmm0 = mem[0],zero
	vmovsd	bit_rate, %xmm1         # xmm1 = mem[0],zero
	vsubsd	PreviousBit_Rate, %xmm1, %xmm1
	movl	Np, %eax
	addl	Nb, %eax
	vcvtsi2sd	%eax, %xmm0, %xmm2
	vmulsd	%xmm2, %xmm1, %xmm1
	vdivsd	frame_rate, %xmm1, %xmm1
	vaddsd	%xmm0, %xmm1, %xmm0
	vroundsd	$9, %xmm0, %xmm0, %xmm0
	vcvttsd2si	%xmm0, %eax
	addl	R, %eax
	movl	%eax, R
.LBB17_67:                              # %if.end184
	movq	img, %rax
	cmpl	$1, 72564(%rax)
	jne	.LBB17_70
# %bb.68:                               # %land.lhs.true188
	movq	img, %rax
	cmpl	$1, 72560(%rax)
	jne	.LBB17_70
# %bb.69:                               # %if.then191
	vmovsd	Wp, %xmm0               # xmm0 = mem[0],zero
	vmovsd	%xmm0, AWp
	vmovsd	Wb, %xmm0               # xmm0 = mem[0],zero
	vmovsd	%xmm0, AWb
	jmp	.LBB17_76
.LBB17_70:                              # %if.else192
	movq	img, %rax
	cmpl	$1, 72560(%rax)
	jle	.LBB17_75
# %bb.71:                               # %if.then196
	movq	img, %rax
	cmpl	$8, 72560(%rax)
	jge	.LBB17_73
# %bb.72:                               # %if.then200
	vmovsd	Wb, %xmm0               # xmm0 = mem[0],zero
	movq	img, %rax
	movl	72560(%rax), %eax
	subl	$1, %eax
	vcvtsi2sd	%eax, %xmm0, %xmm1
	vmulsd	%xmm1, %xmm0, %xmm0
	movq	img, %rax
	vcvtsi2sdl	72560(%rax), %xmm0, %xmm1
	vdivsd	%xmm1, %xmm0, %xmm0
	vmovsd	AWb, %xmm1              # xmm1 = mem[0],zero
	movq	img, %rax
	vcvtsi2sdl	72560(%rax), %xmm0, %xmm2
	vdivsd	%xmm2, %xmm1, %xmm1
	vaddsd	%xmm1, %xmm0, %xmm0
	vmovsd	%xmm0, AWb
	jmp	.LBB17_74
.LBB17_73:                              # %if.else212
	vmovsd	.LCPI17_2(%rip), %xmm0  # xmm0 = mem[0],zero
	vmovsd	.LCPI17_3(%rip), %xmm1  # xmm1 = mem[0],zero
	vmovsd	Wb, %xmm2               # xmm2 = mem[0],zero
	vdivsd	%xmm0, %xmm2, %xmm2
	vmulsd	AWb, %xmm1, %xmm1
	vdivsd	%xmm0, %xmm1, %xmm0
	vaddsd	%xmm0, %xmm2, %xmm0
	vmovsd	%xmm0, AWb
.LBB17_74:                              # %if.end217
	jmp	.LBB17_75
.LBB17_75:                              # %if.end218
	jmp	.LBB17_76
.LBB17_76:                              # %if.end219
	jmp	.LBB17_77
.LBB17_77:                              # %sw.epilog
	movq	img, %rax
	cmpl	$0, 24(%rax)
	jne	.LBB17_110
# %bb.78:                               # %if.then223
	movq	img, %rax
	movl	72620(%rax), %eax
	movq	img, %rcx
	cmpl	72608(%rcx), %eax
	jne	.LBB17_85
# %bb.79:                               # %if.then228
	movq	img, %rax
	cmpl	$0, 72564(%rax)
	jle	.LBB17_84
# %bb.80:                               # %if.then232
	xorl	%eax, %eax
	vmovsd	.LCPI17_1(%rip), %xmm0  # xmm0 = mem[0],zero
	vmovsd	Wp, %xmm1               # xmm1 = mem[0],zero
	vcvtsi2sdl	R, %xmm0, %xmm2
	vmulsd	%xmm2, %xmm1, %xmm1
	vcvtsi2sdl	Np, %xmm0, %xmm2
	vmulsd	Wp, %xmm2, %xmm2
	vcvtsi2sdl	Nb, %xmm0, %xmm3
	vmulsd	Wb, %xmm3, %xmm3
	vaddsd	%xmm3, %xmm2, %xmm2
	vdivsd	%xmm2, %xmm1, %xmm1
	vaddsd	%xmm0, %xmm1, %xmm1
	vroundsd	$9, %xmm1, %xmm0, %xmm1
	vcvttsd2si	%xmm1, %rcx
	movq	%rcx, T
	vmovsd	bit_rate, %xmm1         # xmm1 = mem[0],zero
	vdivsd	frame_rate, %xmm1, %xmm1
	vmovsd	GAMMAP, %xmm2           # xmm2 = mem[0],zero
	vmovsd	CurrentBufferFullness, %xmm3 # xmm3 = mem[0],zero
	vsubsd	TargetBufferLevel, %xmm3, %xmm3
	vmulsd	%xmm3, %xmm2, %xmm2
	vsubsd	%xmm2, %xmm1, %xmm1
	vaddsd	%xmm0, %xmm1, %xmm0
	vroundsd	$9, %xmm0, %xmm0, %xmm0
	vcvttsd2si	%xmm0, %rcx
	movq	%rcx, T1
	cmpq	T1, %rax
	jge	.LBB17_82
# %bb.81:                               # %cond.true
	movq	T1, %rax
	jmp	.LBB17_83
.LBB17_82:                              # %cond.false
	xorl	%eax, %eax
	jmp	.LBB17_83
.LBB17_83:                              # %cond.end
	vmovsd	.LCPI17_1(%rip), %xmm0  # xmm0 = mem[0],zero
	vmovsd	.LCPI17_4(%rip), %xmm1  # xmm1 = mem[0],zero
	movq	%rax, T1
	vmovsd	BETAP, %xmm2            # xmm2 = mem[0],zero
	vcvtsi2sdq	T, %xmm0, %xmm3
	vmulsd	%xmm3, %xmm2, %xmm2
	vsubsd	BETAP, %xmm1, %xmm1
	vcvtsi2sdq	T1, %xmm0, %xmm3
	vmulsd	%xmm3, %xmm1, %xmm1
	vaddsd	%xmm1, %xmm2, %xmm1
	vaddsd	%xmm0, %xmm1, %xmm0
	vroundsd	$9, %xmm0, %xmm0, %xmm0
	vcvttsd2si	%xmm0, %rax
	movq	%rax, T
.LBB17_84:                              # %if.end259
	jmp	.LBB17_98
.LBB17_85:                              # %if.else260
	movq	img, %rax
	cmpl	$1, 72568(%rax)
	jne	.LBB17_91
# %bb.86:                               # %land.lhs.true264
	movq	img, %rax
	cmpl	$0, 72564(%rax)
	jle	.LBB17_91
# %bb.87:                               # %if.then268
	xorl	%eax, %eax
	vmovsd	.LCPI17_1(%rip), %xmm0  # xmm0 = mem[0],zero
	vmovsd	Wp, %xmm1               # xmm1 = mem[0],zero
	vcvtsi2sdl	R, %xmm0, %xmm2
	vmulsd	%xmm2, %xmm1, %xmm1
	vcvtsi2sdl	Np, %xmm0, %xmm2
	vmulsd	Wp, %xmm2, %xmm2
	vcvtsi2sdl	Nb, %xmm0, %xmm3
	vmulsd	Wb, %xmm3, %xmm3
	vaddsd	%xmm3, %xmm2, %xmm2
	vdivsd	%xmm2, %xmm1, %xmm1
	vaddsd	%xmm0, %xmm1, %xmm1
	vroundsd	$9, %xmm1, %xmm0, %xmm1
	vcvttsd2si	%xmm1, %ecx
	movslq	%ecx, %rcx
	movq	%rcx, T
	vmovsd	bit_rate, %xmm1         # xmm1 = mem[0],zero
	vdivsd	frame_rate, %xmm1, %xmm1
	vmovsd	GAMMAP, %xmm2           # xmm2 = mem[0],zero
	vmovsd	CurrentBufferFullness, %xmm3 # xmm3 = mem[0],zero
	vsubsd	TargetBufferLevel, %xmm3, %xmm3
	vmulsd	%xmm3, %xmm2, %xmm2
	vsubsd	%xmm2, %xmm1, %xmm1
	vaddsd	%xmm0, %xmm1, %xmm0
	vroundsd	$9, %xmm0, %xmm0, %xmm0
	vcvttsd2si	%xmm0, %ecx
	movslq	%ecx, %rcx
	movq	%rcx, T1
	cmpq	T1, %rax
	jge	.LBB17_89
# %bb.88:                               # %cond.true289
	movq	T1, %rax
	jmp	.LBB17_90
.LBB17_89:                              # %cond.false290
	xorl	%eax, %eax
	jmp	.LBB17_90
.LBB17_90:                              # %cond.end291
	vmovsd	.LCPI17_1(%rip), %xmm0  # xmm0 = mem[0],zero
	vmovsd	.LCPI17_4(%rip), %xmm1  # xmm1 = mem[0],zero
	movq	%rax, T1
	vmovsd	BETAP, %xmm2            # xmm2 = mem[0],zero
	vcvtsi2sdq	T, %xmm0, %xmm3
	vmulsd	%xmm3, %xmm2, %xmm2
	vsubsd	BETAP, %xmm1, %xmm1
	vcvtsi2sdq	T1, %xmm0, %xmm3
	vmulsd	%xmm3, %xmm1, %xmm1
	vaddsd	%xmm1, %xmm2, %xmm1
	vaddsd	%xmm0, %xmm1, %xmm0
	vroundsd	$9, %xmm0, %xmm0, %xmm0
	vcvttsd2si	%xmm0, %eax
	cltq
	movq	%rax, T
	jmp	.LBB17_97
.LBB17_91:                              # %if.else302
	movq	img, %rax
	cmpl	$1, 72568(%rax)
	jle	.LBB17_96
# %bb.92:                               # %if.then306
	xorl	%eax, %eax
	vmovsd	.LCPI17_1(%rip), %xmm0  # xmm0 = mem[0],zero
	vmovsd	Wp, %xmm1               # xmm1 = mem[0],zero
	vcvtsi2sdl	R, %xmm0, %xmm2
	vmulsd	%xmm2, %xmm1, %xmm1
	vcvtsi2sdl	Np, %xmm0, %xmm2
	vmulsd	Wp, %xmm2, %xmm2
	vcvtsi2sdl	Nb, %xmm0, %xmm3
	vmulsd	Wb, %xmm3, %xmm3
	vaddsd	%xmm3, %xmm2, %xmm2
	vdivsd	%xmm2, %xmm1, %xmm1
	vaddsd	%xmm0, %xmm1, %xmm1
	vroundsd	$9, %xmm1, %xmm0, %xmm1
	vcvttsd2si	%xmm1, %rcx
	movq	%rcx, T
	vmovsd	bit_rate, %xmm1         # xmm1 = mem[0],zero
	vdivsd	frame_rate, %xmm1, %xmm1
	vmovsd	GAMMAP, %xmm2           # xmm2 = mem[0],zero
	vmovsd	CurrentBufferFullness, %xmm3 # xmm3 = mem[0],zero
	vsubsd	TargetBufferLevel, %xmm3, %xmm3
	vmulsd	%xmm3, %xmm2, %xmm2
	vsubsd	%xmm2, %xmm1, %xmm1
	vaddsd	%xmm0, %xmm1, %xmm0
	vroundsd	$9, %xmm0, %xmm0, %xmm0
	vcvttsd2si	%xmm0, %rcx
	movq	%rcx, T1
	cmpq	T1, %rax
	jge	.LBB17_94
# %bb.93:                               # %cond.true325
	movq	T1, %rax
	jmp	.LBB17_95
.LBB17_94:                              # %cond.false326
	xorl	%eax, %eax
	jmp	.LBB17_95
.LBB17_95:                              # %cond.end327
	vmovsd	.LCPI17_1(%rip), %xmm0  # xmm0 = mem[0],zero
	vmovsd	.LCPI17_4(%rip), %xmm1  # xmm1 = mem[0],zero
	movq	%rax, T1
	vmovsd	BETAP, %xmm2            # xmm2 = mem[0],zero
	vcvtsi2sdq	T, %xmm0, %xmm3
	vmulsd	%xmm3, %xmm2, %xmm2
	vsubsd	BETAP, %xmm1, %xmm1
	vcvtsi2sdq	T1, %xmm0, %xmm3
	vmulsd	%xmm3, %xmm1, %xmm1
	vaddsd	%xmm1, %xmm2, %xmm1
	vaddsd	%xmm0, %xmm1, %xmm0
	vroundsd	$9, %xmm0, %xmm0, %xmm0
	vcvttsd2si	%xmm0, %rax
	movq	%rax, T
.LBB17_96:                              # %if.end337
	jmp	.LBB17_97
.LBB17_97:                              # %if.end338
	jmp	.LBB17_98
.LBB17_98:                              # %if.end339
	vmovsd	.LCPI17_4(%rip), %xmm0  # xmm0 = mem[0],zero
	movq	input, %rax
	vcvtsi2sdl	1236(%rax), %xmm0, %xmm1
	vxorps	%xmm2, %xmm2, %xmm2
	vmulsd	%xmm1, %xmm2, %xmm1
	vsubsd	%xmm1, %xmm0, %xmm0
	vcvtsi2sdq	T, %xmm0, %xmm1
	vmulsd	%xmm1, %xmm0, %xmm0
	vcvttsd2si	%xmm0, %rax
	movq	%rax, T
	movq	T, %rax
	cmpq	LowerBound, %rax
	jge	.LBB17_100
# %bb.99:                               # %cond.true349
	movq	LowerBound, %rax
	jmp	.LBB17_101
.LBB17_100:                             # %cond.false350
	movq	T, %rax
.LBB17_101:                             # %cond.end351
	movq	%rax, T
	movq	T, %rax
	cmpq	UpperBound2, %rax
	jge	.LBB17_103
# %bb.102:                              # %cond.true355
	movq	T, %rax
	jmp	.LBB17_104
.LBB17_103:                             # %cond.false356
	movq	UpperBound2, %rax
.LBB17_104:                             # %cond.end357
	movq	%rax, T
	cmpl	$0, -8(%rbp)
	jne	.LBB17_108
# %bb.105:                              # %lor.lhs.false360
	cmpl	$0, -12(%rbp)
	je	.LBB17_109
# %bb.106:                              # %land.lhs.true362
	movq	input, %rax
	cmpl	$2, 2880(%rax)
	je	.LBB17_108
# %bb.107:                              # %lor.lhs.false366
	movq	input, %rax
	cmpl	$0, 2884(%rax)
	je	.LBB17_109
.LBB17_108:                             # %if.then369
	movq	T, %rax
	movl	%eax, T_field
.LBB17_109:                             # %if.end371
	jmp	.LBB17_110
.LBB17_110:                             # %if.end372
	jmp	.LBB17_111
.LBB17_111:                             # %if.end373
	cmpl	$0, -12(%rbp)
	jne	.LBB17_113
# %bb.112:                              # %lor.lhs.false375
	cmpl	$0, -8(%rbp)
	je	.LBB17_119
.LBB17_113:                             # %if.then377
	movq	img, %rax
	movl	$0, 72524(%rax)
	movq	img, %rax
	movl	$0, 72528(%rax)
	movq	img, %rax
	movl	72620(%rax), %eax
	movq	img, %rcx
	cmpl	72608(%rcx), %eax
	jge	.LBB17_118
# %bb.114:                              # %if.then382
	movl	$0, TotalFrameQP
	movq	img, %rax
	movl	$0, 72532(%rax)
	movq	img, %rax
	movl	$0, 72536(%rax)
	movq	img, %rax
	vxorps	%xmm0, %xmm0, %xmm0
	vmovsd	%xmm0, 72544(%rax)
	movq	img, %rax
	cmpl	$0, 72600(%rax)
	jne	.LBB17_116
# %bb.115:                              # %if.then386
	movl	TotalNumberofBasicUnit, %eax
	movl	%eax, NumberofBasicUnit
	jmp	.LBB17_117
.LBB17_116:                             # %if.else387
	movl	TotalNumberofBasicUnit, %eax
	cltd
	movl	$2, %ecx
	idivl	%ecx
	movl	%eax, NumberofBasicUnit
.LBB17_117:                             # %if.end389
	jmp	.LBB17_118
.LBB17_118:                             # %if.end390
	jmp	.LBB17_119
.LBB17_119:                             # %if.end391
	movq	img, %rax
	cmpl	$0, 24(%rax)
	jne	.LBB17_126
# %bb.120:                              # %land.lhs.true395
	movq	img, %rax
	movl	72620(%rax), %eax
	movq	img, %rcx
	cmpl	72608(%rcx), %eax
	jge	.LBB17_126
# %bb.121:                              # %land.lhs.true400
	movq	img, %rax
	cmpl	$1, 72600(%rax)
	jne	.LBB17_126
# %bb.122:                              # %if.then404
	cmpl	$0, -8(%rbp)
	je	.LBB17_124
# %bb.123:                              # %if.then406
	vmovsd	.LCPI17_5(%rip), %xmm0  # xmm0 = mem[0],zero
	movl	$0, bits_topfield
	vcvtsi2sdl	T_field, %xmm0, %xmm1
	vmulsd	%xmm0, %xmm1, %xmm0
	vcvttsd2si	%xmm0, %rax
	movq	%rax, T
	jmp	.LBB17_125
.LBB17_124:                             # %if.else410
	movl	T_field, %eax
	subl	bits_topfield, %eax
	cltq
	movq	%rax, T
	movq	img, %rax
	movl	$0, 72532(%rax)
	movq	img, %rax
	movl	$0, 72536(%rax)
	movq	img, %rax
	vxorps	%xmm0, %xmm0, %xmm0
	vmovsd	%xmm0, 72544(%rax)
	movl	TotalNumberofBasicUnit, %eax
	cltd
	movl	$2, %ecx
	idivl	%ecx
	movl	%eax, NumberofBasicUnit
.LBB17_125:                             # %if.end417
	jmp	.LBB17_126
.LBB17_126:                             # %if.end418
	cmpl	$1098298269, -16(%rbp)  # imm = 0x4176B39D
	jne	.LBB17_128
.LBB17_127:
	addq	$32, %rsp
	popq	%rbp
	.cfi_def_cfa %rsp, 8
	retq
.LBB17_128:                             # %func_exit
	.cfi_def_cfa %rbp, 16
	callq	detect_breach
	jmp	.LBB17_127
.Lfunc_end17:
	.size	rc_init_pict.1, .Lfunc_end17-rc_init_pict.1
	.cfi_endproc
                                        # -- End function
	.section	.rodata.cst8,"aM",@progbits,8
	.p2align	3               # -- Begin function Qstep2QP.2
.LCPI18_0:
	.quad	4604086194056200192     # double 0.65625
.LCPI18_1:
	.quad	4604930618986332160     # double 0.75
.LCPI18_2:
	.quad	4605775043916464128     # double 0.84375
.LCPI18_3:
	.quad	4606619468846596096     # double 0.9375
.LCPI18_4:
	.quad	4607463893776728064     # double 1.0625
.LCPI18_5:
	.quad	4607745368753438720     # double 1.125
.LCPI18_6:
	.quad	4607182418800017408     # double 1
.LCPI18_7:
	.quad	4606056518893174784     # double 0.875
.LCPI18_8:
	.quad	4605493568939753472     # double 0.8125
.LCPI18_9:
	.quad	4604367669032910848     # double 0.6875
.LCPI18_10:
	.quad	4603804719079489536     # double 0.625
.LCPI18_11:
	.quad	4611686018427387904     # double 2
	.text
	.globl	Qstep2QP.2
	.p2align	4, 0x90
	.type	Qstep2QP.2,@function
Qstep2QP.2:                             # @Qstep2QP.2
	.cfi_startproc
# %bb.0:                                # %entry
	pushq	%rbp
	.cfi_def_cfa_offset 16
	.cfi_offset %rbp, -16
	movq	%rsp, %rbp
	.cfi_def_cfa_register %rbp
	pushq	%rbx
	subq	$56, %rsp
	.cfi_offset %rbx, -24
	movl	$2071662536, -32(%rbp)  # imm = 0x7B7B0FC8
	vmovsd	%xmm0, -16(%rbp)
	movl	$0, -28(%rbp)
	movl	$0, -20(%rbp)
	vmovsd	-16(%rbp), %xmm0        # xmm0 = mem[0],zero
	vmovsd	%xmm0, -40(%rbp)        # 8-byte Spill
	xorl	%edi, %edi
	callq	QP2Qstep
	vucomisd	-40(%rbp), %xmm0 # 8-byte Folded Reload
	jbe	.LBB18_2
# %bb.1:                                # %if.then
	movl	$0, -24(%rbp)
	jmp	.LBB18_24
.LBB18_2:                               # %if.else
	vmovsd	-16(%rbp), %xmm0        # xmm0 = mem[0],zero
	vmovsd	%xmm0, -56(%rbp)        # 8-byte Spill
	movl	$51, %edi
	callq	QP2Qstep
	vmovsd	-56(%rbp), %xmm1        # 8-byte Reload
                                        # xmm1 = mem[0],zero
	vucomisd	%xmm0, %xmm1
	jbe	.LBB18_4
# %bb.3:                                # %if.then3
	movl	$51, -24(%rbp)
	jmp	.LBB18_24
.LBB18_4:                               # %if.end
	jmp	.LBB18_5
.LBB18_5:                               # %if.end4
	jmp	.LBB18_6
.LBB18_6:                               # %while.cond
                                        # =>This Inner Loop Header: Depth=1
	vmovsd	-16(%rbp), %xmm0        # xmm0 = mem[0],zero
	vmovsd	%xmm0, -48(%rbp)        # 8-byte Spill
	movl	$5, %edi
	callq	QP2Qstep
	vmovsd	-48(%rbp), %xmm1        # 8-byte Reload
                                        # xmm1 = mem[0],zero
	vucomisd	%xmm0, %xmm1
	jbe	.LBB18_8
# %bb.7:                                # %while.body
                                        #   in Loop: Header=BB18_6 Depth=1
	vmovsd	.LCPI18_11(%rip), %xmm0 # xmm0 = mem[0],zero
	vmovsd	-16(%rbp), %xmm1        # xmm1 = mem[0],zero
	vdivsd	%xmm0, %xmm1, %xmm0
	vmovsd	%xmm0, -16(%rbp)
	movl	-28(%rbp), %eax
	addl	$1, %eax
	movl	%eax, -28(%rbp)
	jmp	.LBB18_6
.LBB18_8:                               # %while.end
	vmovsd	.LCPI18_0(%rip), %xmm0  # xmm0 = mem[0],zero
	vucomisd	-16(%rbp), %xmm0
	jb	.LBB18_10
# %bb.9:                                # %if.then8
	vmovsd	.LCPI18_10(%rip), %xmm0 # xmm0 = mem[0],zero
	vmovsd	%xmm0, -16(%rbp)
	movl	$0, -20(%rbp)
	jmp	.LBB18_23
.LBB18_10:                              # %if.else9
	vmovsd	.LCPI18_1(%rip), %xmm0  # xmm0 = mem[0],zero
	vucomisd	-16(%rbp), %xmm0
	jb	.LBB18_12
# %bb.11:                               # %if.then11
	vmovsd	.LCPI18_9(%rip), %xmm0  # xmm0 = mem[0],zero
	vmovsd	%xmm0, -16(%rbp)
	movl	$1, -20(%rbp)
	jmp	.LBB18_22
.LBB18_12:                              # %if.else12
	vmovsd	.LCPI18_2(%rip), %xmm0  # xmm0 = mem[0],zero
	vucomisd	-16(%rbp), %xmm0
	jb	.LBB18_14
# %bb.13:                               # %if.then14
	vmovsd	.LCPI18_8(%rip), %xmm0  # xmm0 = mem[0],zero
	vmovsd	%xmm0, -16(%rbp)
	movl	$2, -20(%rbp)
	jmp	.LBB18_21
.LBB18_14:                              # %if.else15
	vmovsd	.LCPI18_3(%rip), %xmm0  # xmm0 = mem[0],zero
	vucomisd	-16(%rbp), %xmm0
	jb	.LBB18_16
# %bb.15:                               # %if.then17
	vmovsd	.LCPI18_7(%rip), %xmm0  # xmm0 = mem[0],zero
	vmovsd	%xmm0, -16(%rbp)
	movl	$3, -20(%rbp)
	jmp	.LBB18_20
.LBB18_16:                              # %if.else18
	vmovsd	.LCPI18_4(%rip), %xmm0  # xmm0 = mem[0],zero
	vucomisd	-16(%rbp), %xmm0
	jb	.LBB18_18
# %bb.17:                               # %if.then20
	vmovsd	.LCPI18_6(%rip), %xmm0  # xmm0 = mem[0],zero
	vmovsd	%xmm0, -16(%rbp)
	movl	$4, -20(%rbp)
	jmp	.LBB18_19
.LBB18_18:                              # %if.else21
	vmovsd	.LCPI18_5(%rip), %xmm0  # xmm0 = mem[0],zero
	vmovsd	%xmm0, -16(%rbp)
	movl	$5, -20(%rbp)
.LBB18_19:                              # %if.end22
	jmp	.LBB18_20
.LBB18_20:                              # %if.end23
	jmp	.LBB18_21
.LBB18_21:                              # %if.end24
	jmp	.LBB18_22
.LBB18_22:                              # %if.end25
	jmp	.LBB18_23
.LBB18_23:                              # %if.end26
	imull	$6, -28(%rbp), %eax
	addl	-20(%rbp), %eax
	movl	%eax, -24(%rbp)
.LBB18_24:                              # %return
	movl	-24(%rbp), %ebx
	cmpl	$2071662536, -32(%rbp)  # imm = 0x7B7B0FC8
	jne	.LBB18_26
.LBB18_25:
	movl	%ebx, %eax
	addq	$56, %rsp
	popq	%rbx
	popq	%rbp
	.cfi_def_cfa %rsp, 8
	retq
.LBB18_26:                              # %func_exit
	.cfi_def_cfa %rbp, 16
	callq	detect_breach
	jmp	.LBB18_25
.Lfunc_end18:
	.size	Qstep2QP.2, .Lfunc_end18-Qstep2QP.2
	.cfi_endproc
                                        # -- End function
	.section	.rodata.cst8,"aM",@progbits,8
	.p2align	3               # -- Begin function calc_MAD.3
.LCPI19_0:
	.quad	4643211215818981376     # double 256
.LCPI19_1:
	.quad	4607182418800017408     # double 1
	.text
	.globl	calc_MAD.3
	.p2align	4, 0x90
	.type	calc_MAD.3,@function
calc_MAD.3:                             # @calc_MAD.3
	.cfi_startproc
# %bb.0:                                # %entry
	pushq	%rbp
	.cfi_def_cfa_offset 16
	.cfi_offset %rbp, -16
	movq	%rsp, %rbp
	.cfi_def_cfa_register %rbp
	subq	$32, %rsp
	movl	$1217090153, -16(%rbp)  # imm = 0x488B5269
	movl	$0, -12(%rbp)
	movl	$0, -4(%rbp)
.LBB19_1:                               # %for.cond
                                        # =>This Loop Header: Depth=1
                                        #     Child Loop BB19_3 Depth 2
	cmpl	$16, -4(%rbp)
	jge	.LBB19_8
# %bb.2:                                # %for.body
                                        #   in Loop: Header=BB19_1 Depth=1
	movl	$0, -8(%rbp)
.LBB19_3:                               # %for.cond1
                                        #   Parent Loop BB19_1 Depth=1
                                        # =>  This Inner Loop Header: Depth=2
	cmpl	$16, -8(%rbp)
	jge	.LBB19_6
# %bb.4:                                # %for.body3
                                        #   in Loop: Header=BB19_3 Depth=2
	movslq	-4(%rbp), %rax
	shlq	$6, %rax
	movabsq	$diffy, %rcx
	addq	%rax, %rcx
	movslq	-8(%rbp), %rax
	movl	(%rcx,%rax,4), %edi
	callq	abs
	addl	-12(%rbp), %eax
	movl	%eax, -12(%rbp)
# %bb.5:                                # %for.inc
                                        #   in Loop: Header=BB19_3 Depth=2
	movl	-8(%rbp), %eax
	addl	$1, %eax
	movl	%eax, -8(%rbp)
	jmp	.LBB19_3
.LBB19_6:                               # %for.end
                                        #   in Loop: Header=BB19_1 Depth=1
	jmp	.LBB19_7
.LBB19_7:                               # %for.inc6
                                        #   in Loop: Header=BB19_1 Depth=1
	movl	-4(%rbp), %eax
	addl	$1, %eax
	movl	%eax, -4(%rbp)
	jmp	.LBB19_1
.LBB19_8:                               # %for.end8
	vmovsd	.LCPI19_0(%rip), %xmm0  # xmm0 = mem[0],zero
	vmovsd	.LCPI19_1(%rip), %xmm1  # xmm1 = mem[0],zero
	vcvtsi2sdl	-12(%rbp), %xmm0, %xmm2
	vmulsd	%xmm1, %xmm2, %xmm1
	vdivsd	%xmm0, %xmm1, %xmm0
	vmovsd	%xmm0, -32(%rbp)
	vmovsd	-32(%rbp), %xmm0        # xmm0 = mem[0],zero
	cmpl	$1217090153, -16(%rbp)  # imm = 0x488B5269
	jne	.LBB19_10
.LBB19_9:
	addq	$32, %rsp
	popq	%rbp
	.cfi_def_cfa %rsp, 8
	retq
.LBB19_10:                              # %func_exit
	.cfi_def_cfa %rbp, 16
	vmovsd	%xmm0, -24(%rbp)        # 8-byte Spill
	callq	detect_breach
	vmovsd	-24(%rbp), %xmm0        # 8-byte Reload
                                        # xmm0 = mem[0],zero
	jmp	.LBB19_9
.Lfunc_end19:
	.size	calc_MAD.3, .Lfunc_end19-calc_MAD.3
	.cfi_endproc
                                        # -- End function
	.section	.rodata.cst8,"aM",@progbits,8
	.p2align	3               # -- Begin function updateRCModel.4
.LCPI20_0:
	.quad	4611686018427387904     # double 2
.LCPI20_1:
	.quad	4602678819172646912     # double 0.5
.LCPI20_2:
	.quad	4607182418800017408     # double 1
.LCPI20_3:
	.quad	4626322717216342016     # double 20
	.section	.rodata.cst16,"aM",@progbits,16
	.p2align	4
.LCPI20_4:
	.quad	9223372036854775807     # double NaN
	.quad	9223372036854775807     # double NaN
	.text
	.globl	updateRCModel.4
	.p2align	4, 0x90
	.type	updateRCModel.4,@function
updateRCModel.4:                        # @updateRCModel.4
	.cfi_startproc
# %bb.0:                                # %entry
	pushq	%rbp
	.cfi_def_cfa_offset 16
	.cfi_offset %rbp, -16
	movq	%rsp, %rbp
	.cfi_def_cfa_register %rbp
	subq	$208, %rsp
	movl	$1714064355, -28(%rbp)  # imm = 0x662A8BE3
	vxorps	%xmm0, %xmm0, %xmm0
	vmovsd	%xmm0, -24(%rbp)
	movl	$0, -16(%rbp)
	movq	img, %rax
	cmpl	$0, 24(%rax)
	jne	.LBB20_68
# %bb.1:                                # %if.then
	movq	img, %rax
	movl	72620(%rax), %eax
	movq	img, %rcx
	cmpl	72608(%rcx), %eax
	jne	.LBB20_3
# %bb.2:                                # %if.then2
	callq	ComputeFrameMAD
	vmovsd	%xmm0, CurrentFrameMAD
	movq	img, %rax
	movl	72564(%rax), %eax
	movl	%eax, -12(%rbp)
	jmp	.LBB20_21
.LBB20_3:                               # %if.else
	movq	input, %rax
	cmpl	$0, 2884(%rax)
	je	.LBB20_6
# %bb.4:                                # %land.lhs.true
	movq	img, %rax
	cmpl	$0, 72600(%rax)
	jne	.LBB20_6
# %bb.5:                                # %if.then4
	vmovsd	.LCPI20_0(%rip), %xmm0  # xmm0 = mem[0],zero
	movq	img, %rax
	vmovsd	72544(%rax), %xmm1      # xmm1 = mem[0],zero
	movq	img, %rax
	vcvtsi2sdl	72620(%rax), %xmm0, %xmm2
	vdivsd	%xmm2, %xmm1, %xmm1
	vdivsd	%xmm0, %xmm1, %xmm0
	vmovsd	%xmm0, CurrentFrameMAD
	jmp	.LBB20_7
.LBB20_6:                               # %if.else7
	movq	img, %rax
	vmovsd	72544(%rax), %xmm0      # xmm0 = mem[0],zero
	movq	img, %rax
	vcvtsi2sdl	72620(%rax), %xmm0, %xmm1
	vdivsd	%xmm1, %xmm0, %xmm0
	vmovsd	%xmm0, CurrentFrameMAD
.LBB20_7:                               # %if.end
	movq	img, %rax
	vxorps	%xmm0, %xmm0, %xmm0
	vmovsd	%xmm0, 72544(%rax)
	movl	TotalNumberofBasicUnit, %eax
	subl	NumberofBasicUnit, %eax
	movl	%eax, CodedBasicUnit
	cmpl	$0, CodedBasicUnit
	jle	.LBB20_12
# %bb.8:                                # %if.then15
	vmovsd	.LCPI20_1(%rip), %xmm0  # xmm0 = mem[0],zero
	vmovsd	.LCPI20_2(%rip), %xmm1  # xmm1 = mem[0],zero
	movl	PAveHeaderBits1, %eax
	movl	CodedBasicUnit, %ecx
	subl	$1, %ecx
	imull	%ecx, %eax
	movq	img, %rcx
	addl	72532(%rcx), %eax
	vcvtsi2sd	%eax, %xmm0, %xmm2
	vmulsd	%xmm2, %xmm1, %xmm1
	vcvtsi2sdl	CodedBasicUnit, %xmm0, %xmm2
	vdivsd	%xmm2, %xmm1, %xmm1
	vaddsd	%xmm0, %xmm1, %xmm0
	vcvttsd2si	%xmm0, %eax
	movl	%eax, PAveHeaderBits1
	cmpl	$0, PAveHeaderBits3
	jne	.LBB20_10
# %bb.9:                                # %if.then25
	movl	PAveHeaderBits1, %eax
	movl	%eax, PAveHeaderBits2
	jmp	.LBB20_11
.LBB20_10:                              # %if.else26
	vmovsd	.LCPI20_1(%rip), %xmm0  # xmm0 = mem[0],zero
	vmovsd	.LCPI20_2(%rip), %xmm1  # xmm1 = mem[0],zero
	movl	PAveHeaderBits1, %eax
	imull	CodedBasicUnit, %eax
	movl	PAveHeaderBits3, %ecx
	imull	NumberofBasicUnit, %ecx
	addl	%ecx, %eax
	vcvtsi2sd	%eax, %xmm0, %xmm2
	vmulsd	%xmm2, %xmm1, %xmm1
	vcvtsi2sdl	TotalNumberofBasicUnit, %xmm0, %xmm2
	vdivsd	%xmm2, %xmm1, %xmm1
	vaddsd	%xmm0, %xmm1, %xmm0
	vcvttsd2si	%xmm0, %eax
	movl	%eax, PAveHeaderBits2
.LBB20_11:                              # %if.end36
	jmp	.LBB20_12
.LBB20_12:                              # %if.end37
	movq	input, %rax
	cmpl	$2, 2880(%rax)
	je	.LBB20_14
# %bb.13:                               # %lor.lhs.false
	movq	input, %rax
	cmpl	$0, 2884(%rax)
	je	.LBB20_16
.LBB20_14:                              # %land.lhs.true42
	movq	img, %rax
	cmpl	$1, 72600(%rax)
	jne	.LBB20_16
# %bb.15:                               # %if.then46
	vmovsd	CurrentFrameMAD, %xmm0  # xmm0 = mem[0],zero
	movq	FCBUCFMAD, %rax
	movl	TotalNumberofBasicUnit, %ecx
	subl	$1, %ecx
	subl	NumberofBasicUnit, %ecx
	movslq	%ecx, %rcx
	vmovsd	%xmm0, (%rax,%rcx,8)
	jmp	.LBB20_17
.LBB20_16:                              # %if.else49
	vmovsd	CurrentFrameMAD, %xmm0  # xmm0 = mem[0],zero
	movq	BUCFMAD, %rax
	movl	TotalNumberofBasicUnit, %ecx
	subl	$1, %ecx
	subl	NumberofBasicUnit, %ecx
	movslq	%ecx, %rcx
	vmovsd	%xmm0, (%rax,%rcx,8)
.LBB20_17:                              # %if.end54
	cmpl	$0, NumberofBasicUnit
	je	.LBB20_19
# %bb.18:                               # %if.then57
	movq	img, %rax
	movl	72564(%rax), %eax
	imull	TotalNumberofBasicUnit, %eax
	addl	CodedBasicUnit, %eax
	movl	%eax, -12(%rbp)
	jmp	.LBB20_20
.LBB20_19:                              # %if.else61
	movq	img, %rax
	movl	72564(%rax), %eax
	subl	$1, %eax
	imull	TotalNumberofBasicUnit, %eax
	addl	CodedBasicUnit, %eax
	movl	%eax, -12(%rbp)
.LBB20_20:                              # %if.end66
	jmp	.LBB20_21
.LBB20_21:                              # %if.end67
	cmpl	$1, -12(%rbp)
	jle	.LBB20_23
# %bb.22:                               # %if.then70
	movl	$1, -16(%rbp)
.LBB20_23:                              # %if.end71
	movq	img, %rax
	movl	72524(%rax), %eax
	movl	%eax, PPreHeader
	movl	$19, -4(%rbp)
.LBB20_24:                              # %for.cond
                                        # =>This Inner Loop Header: Depth=1
	cmpl	$0, -4(%rbp)
	jle	.LBB20_27
# %bb.25:                               # %for.body
                                        #   in Loop: Header=BB20_24 Depth=1
	movl	-4(%rbp), %eax
	subl	$1, %eax
	cltq
	vmovsd	Pm_rgQp(,%rax,8), %xmm0 # xmm0 = mem[0],zero
	movslq	-4(%rbp), %rax
	vmovsd	%xmm0, Pm_rgQp(,%rax,8)
	movslq	-4(%rbp), %rax
	vmovsd	Pm_rgQp(,%rax,8), %xmm0 # xmm0 = mem[0],zero
	movslq	-4(%rbp), %rax
	vmovsd	%xmm0, m_rgQp(,%rax,8)
	movl	-4(%rbp), %eax
	subl	$1, %eax
	cltq
	vmovsd	Pm_rgRp(,%rax,8), %xmm0 # xmm0 = mem[0],zero
	movslq	-4(%rbp), %rax
	vmovsd	%xmm0, Pm_rgRp(,%rax,8)
	movslq	-4(%rbp), %rax
	vmovsd	Pm_rgRp(,%rax,8), %xmm0 # xmm0 = mem[0],zero
	movslq	-4(%rbp), %rax
	vmovsd	%xmm0, m_rgRp(,%rax,8)
# %bb.26:                               # %for.inc
                                        #   in Loop: Header=BB20_24 Depth=1
	movl	-4(%rbp), %eax
	addl	$-1, %eax
	movl	%eax, -4(%rbp)
	jmp	.LBB20_24
.LBB20_27:                              # %for.end
	movl	m_Qc, %edi
	callq	QP2Qstep
	vmovsd	%xmm0, Pm_rgQp
	movq	img, %rax
	movl	72620(%rax), %eax
	movq	img, %rcx
	cmpl	72608(%rcx), %eax
	jne	.LBB20_29
# %bb.28:                               # %if.then97
	vmovsd	.LCPI20_2(%rip), %xmm0  # xmm0 = mem[0],zero
	movq	img, %rax
	vcvtsi2sdl	72528(%rax), %xmm0, %xmm1
	vmulsd	%xmm0, %xmm1, %xmm0
	vdivsd	CurrentFrameMAD, %xmm0, %xmm0
	vmovsd	%xmm0, Pm_rgRp
	jmp	.LBB20_30
.LBB20_29:                              # %if.else101
	vmovsd	.LCPI20_2(%rip), %xmm0  # xmm0 = mem[0],zero
	movq	img, %rax
	vcvtsi2sdl	72536(%rax), %xmm0, %xmm1
	vmulsd	%xmm0, %xmm1, %xmm0
	vdivsd	CurrentFrameMAD, %xmm0, %xmm0
	vmovsd	%xmm0, Pm_rgRp
.LBB20_30:                              # %if.end105
	vmovsd	Pm_rgQp, %xmm0          # xmm0 = mem[0],zero
	vmovsd	%xmm0, m_rgQp
	vmovsd	Pm_rgRp, %xmm0          # xmm0 = mem[0],zero
	vmovsd	%xmm0, m_rgRp
	vmovsd	Pm_X1, %xmm0            # xmm0 = mem[0],zero
	vmovsd	%xmm0, m_X1
	vmovsd	Pm_X2, %xmm0            # xmm0 = mem[0],zero
	vmovsd	%xmm0, m_X2
	vmovsd	CurrentFrameMAD, %xmm0  # xmm0 = mem[0],zero
	vucomisd	PreviousFrameMAD, %xmm0
	jbe	.LBB20_32
# %bb.31:                               # %cond.true
	vmovsd	.LCPI20_3(%rip), %xmm0  # xmm0 = mem[0],zero
	vmovsd	PreviousFrameMAD, %xmm1 # xmm1 = mem[0],zero
	vdivsd	CurrentFrameMAD, %xmm1, %xmm1
	vmulsd	%xmm0, %xmm1, %xmm0
	vcvttsd2si	%xmm0, %eax
	jmp	.LBB20_33
.LBB20_32:                              # %cond.false
	vmovsd	.LCPI20_3(%rip), %xmm0  # xmm0 = mem[0],zero
	vmovsd	CurrentFrameMAD, %xmm1  # xmm1 = mem[0],zero
	vdivsd	PreviousFrameMAD, %xmm1, %xmm1
	vmulsd	%xmm0, %xmm1, %xmm0
	vcvttsd2si	%xmm0, %eax
.LBB20_33:                              # %cond.end
	movl	%eax, -8(%rbp)
	cmpl	$1, -8(%rbp)
	jge	.LBB20_35
# %bb.34:                               # %cond.true116
	movl	$1, %eax
	jmp	.LBB20_36
.LBB20_35:                              # %cond.false117
	movl	-8(%rbp), %eax
.LBB20_36:                              # %cond.end118
	movl	%eax, -8(%rbp)
	movl	-8(%rbp), %eax
	cmpl	-12(%rbp), %eax
	jge	.LBB20_38
# %bb.37:                               # %cond.true122
	movl	-8(%rbp), %eax
	jmp	.LBB20_39
.LBB20_38:                              # %cond.false123
	movl	-12(%rbp), %eax
.LBB20_39:                              # %cond.end124
	movl	%eax, -8(%rbp)
	movl	-8(%rbp), %eax
	movl	m_windowSize, %ecx
	addl	$1, %ecx
	cmpl	%ecx, %eax
	jge	.LBB20_41
# %bb.40:                               # %cond.true129
	movl	-8(%rbp), %eax
	jmp	.LBB20_42
.LBB20_41:                              # %cond.false130
	movl	m_windowSize, %eax
	addl	$1, %eax
.LBB20_42:                              # %cond.end132
	movl	%eax, -8(%rbp)
	cmpl	$20, -8(%rbp)
	jge	.LBB20_44
# %bb.43:                               # %cond.true136
	movl	-8(%rbp), %eax
	jmp	.LBB20_45
.LBB20_44:                              # %cond.false137
	movl	$20, %eax
	jmp	.LBB20_45
.LBB20_45:                              # %cond.end138
	movl	%eax, -8(%rbp)
	movl	-8(%rbp), %eax
	movl	%eax, m_windowSize
	movl	$0, -4(%rbp)
.LBB20_46:                              # %for.cond140
                                        # =>This Inner Loop Header: Depth=1
	cmpl	$20, -4(%rbp)
	jge	.LBB20_49
# %bb.47:                               # %for.body143
                                        #   in Loop: Header=BB20_46 Depth=1
	movslq	-4(%rbp), %rax
	movl	$0, m_rgRejected(,%rax,4)
# %bb.48:                               # %for.inc146
                                        #   in Loop: Header=BB20_46 Depth=1
	movl	-4(%rbp), %eax
	addl	$1, %eax
	movl	%eax, -4(%rbp)
	jmp	.LBB20_46
.LBB20_49:                              # %for.end147
	movl	-8(%rbp), %edi
	callq	RCModelEstimator
	movl	m_windowSize, %eax
	movl	%eax, -8(%rbp)
	movl	$0, -4(%rbp)
.LBB20_50:                              # %for.cond148
                                        # =>This Inner Loop Header: Depth=1
	movl	-4(%rbp), %eax
	cmpl	-8(%rbp), %eax
	jge	.LBB20_53
# %bb.51:                               # %for.body151
                                        #   in Loop: Header=BB20_50 Depth=1
	vmovsd	m_X1, %xmm0             # xmm0 = mem[0],zero
	movslq	-4(%rbp), %rax
	vdivsd	m_rgQp(,%rax,8), %xmm0, %xmm0
	vmovsd	m_X2, %xmm1             # xmm1 = mem[0],zero
	movslq	-4(%rbp), %rax
	vmovsd	m_rgQp(,%rax,8), %xmm2  # xmm2 = mem[0],zero
	movslq	-4(%rbp), %rax
	vmulsd	m_rgQp(,%rax,8), %xmm2, %xmm2
	vdivsd	%xmm2, %xmm1, %xmm1
	vaddsd	%xmm1, %xmm0, %xmm0
	movslq	-4(%rbp), %rax
	vsubsd	m_rgRp(,%rax,8), %xmm0, %xmm0
	movslq	-4(%rbp), %rax
	vmovsd	%xmm0, -208(%rbp,%rax,8)
	movslq	-4(%rbp), %rax
	vmovsd	-208(%rbp,%rax,8), %xmm0 # xmm0 = mem[0],zero
	movslq	-4(%rbp), %rax
	vmulsd	-208(%rbp,%rax,8), %xmm0, %xmm0
	vaddsd	-24(%rbp), %xmm0, %xmm0
	vmovsd	%xmm0, -24(%rbp)
# %bb.52:                               # %for.inc173
                                        #   in Loop: Header=BB20_50 Depth=1
	movl	-4(%rbp), %eax
	addl	$1, %eax
	movl	%eax, -4(%rbp)
	jmp	.LBB20_50
.LBB20_53:                              # %for.end175
	cmpl	$2, -8(%rbp)
	jne	.LBB20_55
# %bb.54:                               # %cond.true178
	vxorps	%xmm0, %xmm0, %xmm0
	jmp	.LBB20_56
.LBB20_55:                              # %cond.false179
	vmovsd	-24(%rbp), %xmm0        # xmm0 = mem[0],zero
	vcvtsi2sdl	-8(%rbp), %xmm0, %xmm1
	vdivsd	%xmm1, %xmm0, %xmm0
	callq	sqrt
.LBB20_56:                              # %cond.end183
	vmovsd	%xmm0, -40(%rbp)
	movl	$0, -4(%rbp)
.LBB20_57:                              # %for.cond185
                                        # =>This Inner Loop Header: Depth=1
	movl	-4(%rbp), %eax
	cmpl	-8(%rbp), %eax
	jge	.LBB20_62
# %bb.58:                               # %for.body188
                                        #   in Loop: Header=BB20_57 Depth=1
	movslq	-4(%rbp), %rax
	vmovsd	-208(%rbp,%rax,8), %xmm0 # xmm0 = mem[0],zero
	vmovdqa	.LCPI20_4(%rip), %xmm1  # xmm1 = [NaN,NaN]
	vpand	%xmm1, %xmm0, %xmm0
	vucomisd	-40(%rbp), %xmm0
	jbe	.LBB20_60
# %bb.59:                               # %if.then193
                                        #   in Loop: Header=BB20_57 Depth=1
	movslq	-4(%rbp), %rax
	movl	$1, m_rgRejected(,%rax,4)
.LBB20_60:                              # %if.end196
                                        #   in Loop: Header=BB20_57 Depth=1
	jmp	.LBB20_61
.LBB20_61:                              # %for.inc197
                                        #   in Loop: Header=BB20_57 Depth=1
	movl	-4(%rbp), %eax
	addl	$1, %eax
	movl	%eax, -4(%rbp)
	jmp	.LBB20_57
.LBB20_62:                              # %for.end199
	movl	$0, m_rgRejected
	movl	-8(%rbp), %edi
	callq	RCModelEstimator
	cmpl	$0, -16(%rbp)
	je	.LBB20_64
# %bb.63:                               # %if.then201
	callq	updateMADModel
	jmp	.LBB20_67
.LBB20_64:                              # %if.else202
	movq	img, %rax
	cmpl	$0, 24(%rax)
	jne	.LBB20_66
# %bb.65:                               # %if.then206
	vmovsd	CurrentFrameMAD, %xmm0  # xmm0 = mem[0],zero
	vmovsd	%xmm0, PPictureMAD
.LBB20_66:                              # %if.end207
	jmp	.LBB20_67
.LBB20_67:                              # %if.end208
	jmp	.LBB20_68
.LBB20_68:                              # %if.end209
	cmpl	$1714064355, -28(%rbp)  # imm = 0x662A8BE3
	jne	.LBB20_70
.LBB20_69:
	addq	$208, %rsp
	popq	%rbp
	.cfi_def_cfa %rsp, 8
	retq
.LBB20_70:                              # %func_exit
	.cfi_def_cfa %rbp, 16
	callq	detect_breach
	jmp	.LBB20_69
.Lfunc_end20:
	.size	updateRCModel.4, .Lfunc_end20-updateRCModel.4
	.cfi_endproc
                                        # -- End function
	.globl	ComputeFrameMAD.5       # -- Begin function ComputeFrameMAD.5
	.p2align	4, 0x90
	.type	ComputeFrameMAD.5,@function
ComputeFrameMAD.5:                      # @ComputeFrameMAD.5
	.cfi_startproc
# %bb.0:                                # %entry
	pushq	%rbp
	.cfi_def_cfa_offset 16
	.cfi_offset %rbp, -16
	movq	%rsp, %rbp
	.cfi_def_cfa_register %rbp
	subq	$32, %rsp
	movl	$1423020474, -20(%rbp)  # imm = 0x54D191BA
	vxorps	%xmm0, %xmm0, %xmm0
	vmovsd	%xmm0, -16(%rbp)
	movl	$0, -4(%rbp)
.LBB21_1:                               # %for.cond
                                        # =>This Inner Loop Header: Depth=1
	movl	-4(%rbp), %eax
	movq	img, %rcx
	cmpl	72608(%rcx), %eax
	jge	.LBB21_4
# %bb.2:                                # %for.body
                                        #   in Loop: Header=BB21_1 Depth=1
	movq	img, %rax
	movq	72584(%rax), %rax
	movslq	-4(%rbp), %rcx
	vmovsd	(%rax,%rcx,8), %xmm0    # xmm0 = mem[0],zero
	vaddsd	-16(%rbp), %xmm0, %xmm0
	vmovsd	%xmm0, -16(%rbp)
# %bb.3:                                # %for.inc
                                        #   in Loop: Header=BB21_1 Depth=1
	movl	-4(%rbp), %eax
	addl	$1, %eax
	movl	%eax, -4(%rbp)
	jmp	.LBB21_1
.LBB21_4:                               # %for.end
	movq	img, %rax
	vcvtsi2sdl	72608(%rax), %xmm0, %xmm0
	vmovsd	-16(%rbp), %xmm1        # xmm1 = mem[0],zero
	vdivsd	%xmm0, %xmm1, %xmm0
	vmovsd	%xmm0, -16(%rbp)
	vmovsd	-16(%rbp), %xmm0        # xmm0 = mem[0],zero
	cmpl	$1423020474, -20(%rbp)  # imm = 0x54D191BA
	jne	.LBB21_6
.LBB21_5:
	addq	$32, %rsp
	popq	%rbp
	.cfi_def_cfa %rsp, 8
	retq
.LBB21_6:                               # %func_exit
	.cfi_def_cfa %rbp, 16
	vmovsd	%xmm0, -32(%rbp)        # 8-byte Spill
	callq	detect_breach
	vmovsd	-32(%rbp), %xmm0        # 8-byte Reload
                                        # xmm0 = mem[0],zero
	jmp	.LBB21_5
.Lfunc_end21:
	.size	ComputeFrameMAD.5, .Lfunc_end21-ComputeFrameMAD.5
	.cfi_endproc
                                        # -- End function
	.section	.rodata.cst8,"aM",@progbits,8
	.p2align	3               # -- Begin function rc_init_pict.6
.LCPI22_0:
	.quad	4609434218613702656     # double 1.5
.LCPI22_1:
	.quad	4602678819172646912     # double 0.5
.LCPI22_2:
	.quad	4620693217682128896     # double 8
.LCPI22_3:
	.quad	4619567317775286272     # double 7
.LCPI22_4:
	.quad	4607182418800017408     # double 1
.LCPI22_5:
	.quad	4603579539098121011     # double 0.59999999999999998
	.text
	.globl	rc_init_pict.6
	.p2align	4, 0x90
	.type	rc_init_pict.6,@function
rc_init_pict.6:                         # @rc_init_pict.6
	.cfi_startproc
# %bb.0:                                # %entry
	pushq	%rbp
	.cfi_def_cfa_offset 16
	.cfi_offset %rbp, -16
	movq	%rsp, %rbp
	.cfi_def_cfa_register %rbp
	subq	$32, %rsp
	movl	$945490515, -20(%rbp)   # imm = 0x385B0A53
	movl	%edi, -12(%rbp)
	movl	%esi, -8(%rbp)
	movl	%edx, -16(%rbp)
	movq	input, %rax
	cmpl	$0, 2884(%rax)
	je	.LBB22_2
# %bb.1:                                # %if.then
	movq	img, %rax
	movl	72608(%rax), %eax
	movq	img, %rcx
	cltd
	idivl	72620(%rcx)
	movl	%eax, TotalNumberofBasicUnit
.LBB22_2:                               # %if.end
	movq	img, %rax
	movl	$0, 72616(%rax)
	movq	input, %rax
	cmpl	$1, 3252(%rax)
	jne	.LBB22_9
# %bb.3:                                # %if.then1
	movq	img, %rax
	cmpl	$58, 72564(%rax)
	jne	.LBB22_5
# %bb.4:                                # %if.then3
	vmovsd	.LCPI22_0(%rip), %xmm0  # xmm0 = mem[0],zero
	vmulsd	bit_rate, %xmm0, %xmm0
	vmovsd	%xmm0, bit_rate
	jmp	.LBB22_8
.LBB22_5:                               # %if.else
	movq	img, %rax
	cmpl	$59, 72564(%rax)
	jne	.LBB22_7
# %bb.6:                                # %if.then6
	vmovsd	bit_rate, %xmm0         # xmm0 = mem[0],zero
	vmovsd	%xmm0, PreviousBit_Rate
.LBB22_7:                               # %if.end7
	jmp	.LBB22_8
.LBB22_8:                               # %if.end8
	jmp	.LBB22_9
.LBB22_9:                               # %if.end9
	cmpl	$0, -12(%rbp)
	jne	.LBB22_11
# %bb.10:                               # %lor.lhs.false
	cmpl	$0, -8(%rbp)
	je	.LBB22_111
.LBB22_11:                              # %land.lhs.true
	cmpl	$0, -16(%rbp)
	je	.LBB22_111
# %bb.12:                               # %if.then13
	movq	img(%rip), %rax
	movl	24(%rax), %eax
	testl	%eax, %eax
	je	.LBB22_14
	jmp	.LBB22_13
.LBB22_13:                              # %if.then13
	subl	$1, %eax
	je	.LBB22_65
	jmp	.LBB22_77
.LBB22_14:                              # %sw.bb
	vmovsd	PreviousBit_Rate, %xmm0 # xmm0 = mem[0],zero
	vucomisd	bit_rate, %xmm0
	jne	.LBB22_15
	jp	.LBB22_15
	jmp	.LBB22_16
.LBB22_15:                              # %if.then15
	vmovsd	.LCPI22_1(%rip), %xmm0  # xmm0 = mem[0],zero
	vmovsd	bit_rate, %xmm1         # xmm1 = mem[0],zero
	vsubsd	PreviousBit_Rate, %xmm1, %xmm1
	movl	Np, %eax
	addl	Nb, %eax
	vcvtsi2sd	%eax, %xmm0, %xmm2
	vmulsd	%xmm2, %xmm1, %xmm1
	vdivsd	frame_rate, %xmm1, %xmm1
	vaddsd	%xmm0, %xmm1, %xmm0
	vroundsd	$9, %xmm0, %xmm0, %xmm0
	vcvttsd2si	%xmm0, %eax
	addl	R, %eax
	movl	%eax, R
.LBB22_16:                              # %if.end21
	movq	img, %rax
	movl	72620(%rax), %eax
	movq	img, %rcx
	cmpl	72608(%rcx), %eax
	jne	.LBB22_23
# %bb.17:                               # %if.then26
	movq	img, %rax
	cmpl	$1, 72576(%rax)
	jne	.LBB22_19
# %bb.18:                               # %if.then29
	vmovsd	CurrentBufferFullness, %xmm0 # xmm0 = mem[0],zero
	vmovsd	%xmm0, TargetBufferLevel
	vmovsd	CurrentBufferFullness, %xmm0 # xmm0 = mem[0],zero
	vsubsd	GOPTargetBufferLevel, %xmm0, %xmm0
	movl	TotalPFrame, %eax
	subl	$1, %eax
	vcvtsi2sd	%eax, %xmm0, %xmm1
	vdivsd	%xmm1, %xmm0, %xmm0
	vmovsd	%xmm0, DeltaP
	vmovsd	DeltaP, %xmm0           # xmm0 = mem[0],zero
	vmovsd	TargetBufferLevel, %xmm1 # xmm1 = mem[0],zero
	vsubsd	%xmm0, %xmm1, %xmm0
	vmovsd	%xmm0, TargetBufferLevel
	jmp	.LBB22_22
.LBB22_19:                              # %if.else35
	movq	img, %rax
	cmpl	$1, 72576(%rax)
	jle	.LBB22_21
# %bb.20:                               # %if.then39
	vmovsd	DeltaP, %xmm0           # xmm0 = mem[0],zero
	vmovsd	TargetBufferLevel, %xmm1 # xmm1 = mem[0],zero
	vsubsd	%xmm0, %xmm1, %xmm0
	vmovsd	%xmm0, TargetBufferLevel
.LBB22_21:                              # %if.end41
	jmp	.LBB22_22
.LBB22_22:                              # %if.end42
	jmp	.LBB22_54
.LBB22_23:                              # %if.else43
	movq	img, %rax
	cmpl	$0, 72564(%rax)
	jle	.LBB22_38
# %bb.24:                               # %if.then47
	movq	input, %rax
	cmpl	$2, 2880(%rax)
	je	.LBB22_26
# %bb.25:                               # %lor.lhs.false50
	movq	input, %rax
	cmpl	$0, 2884(%rax)
	je	.LBB22_32
.LBB22_26:                              # %land.lhs.true53
	movq	img, %rax
	cmpl	$1, 72600(%rax)
	jne	.LBB22_32
# %bb.27:                               # %if.then56
	movl	$0, -4(%rbp)
.LBB22_28:                              # %for.cond
                                        # =>This Inner Loop Header: Depth=1
	movl	-4(%rbp), %eax
	cmpl	TotalNumberofBasicUnit, %eax
	jge	.LBB22_31
# %bb.29:                               # %for.body
                                        #   in Loop: Header=BB22_28 Depth=1
	movq	FCBUCFMAD, %rax
	movslq	-4(%rbp), %rcx
	vmovsd	(%rax,%rcx,8), %xmm0    # xmm0 = mem[0],zero
	movq	FCBUPFMAD, %rax
	movslq	-4(%rbp), %rcx
	vmovsd	%xmm0, (%rax,%rcx,8)
# %bb.30:                               # %for.inc
                                        #   in Loop: Header=BB22_28 Depth=1
	movl	-4(%rbp), %eax
	addl	$1, %eax
	movl	%eax, -4(%rbp)
	jmp	.LBB22_28
.LBB22_31:                              # %for.end
	jmp	.LBB22_37
.LBB22_32:                              # %if.else61
	movl	$0, -4(%rbp)
.LBB22_33:                              # %for.cond62
                                        # =>This Inner Loop Header: Depth=1
	movl	-4(%rbp), %eax
	cmpl	TotalNumberofBasicUnit, %eax
	jge	.LBB22_36
# %bb.34:                               # %for.body65
                                        #   in Loop: Header=BB22_33 Depth=1
	movq	BUCFMAD, %rax
	movslq	-4(%rbp), %rcx
	vmovsd	(%rax,%rcx,8), %xmm0    # xmm0 = mem[0],zero
	movq	BUPFMAD, %rax
	movslq	-4(%rbp), %rcx
	vmovsd	%xmm0, (%rax,%rcx,8)
# %bb.35:                               # %for.inc70
                                        #   in Loop: Header=BB22_33 Depth=1
	movl	-4(%rbp), %eax
	addl	$1, %eax
	movl	%eax, -4(%rbp)
	jmp	.LBB22_33
.LBB22_36:                              # %for.end72
	jmp	.LBB22_37
.LBB22_37:                              # %if.end73
	jmp	.LBB22_38
.LBB22_38:                              # %if.end74
	movq	img, %rax
	cmpl	$1, 72568(%rax)
	jne	.LBB22_45
# %bb.39:                               # %if.then77
	movq	img, %rax
	cmpl	$1, 72576(%rax)
	jne	.LBB22_41
# %bb.40:                               # %if.then81
	vmovsd	CurrentBufferFullness, %xmm0 # xmm0 = mem[0],zero
	vmovsd	%xmm0, TargetBufferLevel
	vmovsd	CurrentBufferFullness, %xmm0 # xmm0 = mem[0],zero
	vsubsd	GOPTargetBufferLevel, %xmm0, %xmm0
	movl	TotalPFrame, %eax
	subl	$1, %eax
	vcvtsi2sd	%eax, %xmm0, %xmm1
	vdivsd	%xmm1, %xmm0, %xmm0
	vmovsd	%xmm0, DeltaP
	vmovsd	DeltaP, %xmm0           # xmm0 = mem[0],zero
	vmovsd	TargetBufferLevel, %xmm1 # xmm1 = mem[0],zero
	vsubsd	%xmm0, %xmm1, %xmm0
	vmovsd	%xmm0, TargetBufferLevel
	jmp	.LBB22_44
.LBB22_41:                              # %if.else87
	movq	img, %rax
	cmpl	$1, 72576(%rax)
	jle	.LBB22_43
# %bb.42:                               # %if.then91
	vmovsd	DeltaP, %xmm0           # xmm0 = mem[0],zero
	vmovsd	TargetBufferLevel, %xmm1 # xmm1 = mem[0],zero
	vsubsd	%xmm0, %xmm1, %xmm0
	vmovsd	%xmm0, TargetBufferLevel
.LBB22_43:                              # %if.end93
	jmp	.LBB22_44
.LBB22_44:                              # %if.end94
	jmp	.LBB22_53
.LBB22_45:                              # %if.else95
	movq	img, %rax
	cmpl	$1, 72568(%rax)
	jle	.LBB22_52
# %bb.46:                               # %if.then99
	movq	img, %rax
	cmpl	$0, 72576(%rax)
	jne	.LBB22_48
# %bb.47:                               # %if.then103
	vmovsd	CurrentBufferFullness, %xmm0 # xmm0 = mem[0],zero
	vmovsd	%xmm0, TargetBufferLevel
	vmovsd	CurrentBufferFullness, %xmm0 # xmm0 = mem[0],zero
	vsubsd	GOPTargetBufferLevel, %xmm0, %xmm0
	vcvtsi2sdl	TotalPFrame, %xmm0, %xmm1
	vdivsd	%xmm1, %xmm0, %xmm0
	vmovsd	%xmm0, DeltaP
	vmovsd	DeltaP, %xmm0           # xmm0 = mem[0],zero
	vmovsd	TargetBufferLevel, %xmm1 # xmm1 = mem[0],zero
	vsubsd	%xmm0, %xmm1, %xmm0
	vmovsd	%xmm0, TargetBufferLevel
	jmp	.LBB22_51
.LBB22_48:                              # %if.else108
	movq	img, %rax
	cmpl	$0, 72576(%rax)
	jle	.LBB22_50
# %bb.49:                               # %if.then112
	vmovsd	DeltaP, %xmm0           # xmm0 = mem[0],zero
	vmovsd	TargetBufferLevel, %xmm1 # xmm1 = mem[0],zero
	vsubsd	%xmm0, %xmm1, %xmm0
	vmovsd	%xmm0, TargetBufferLevel
.LBB22_50:                              # %if.end114
	jmp	.LBB22_51
.LBB22_51:                              # %if.end115
	jmp	.LBB22_52
.LBB22_52:                              # %if.end116
	jmp	.LBB22_53
.LBB22_53:                              # %if.end117
	jmp	.LBB22_54
.LBB22_54:                              # %if.end118
	movq	img, %rax
	cmpl	$1, 72564(%rax)
	jne	.LBB22_56
# %bb.55:                               # %if.then122
	vmovsd	Wp, %xmm0               # xmm0 = mem[0],zero
	vmovsd	%xmm0, AWp
.LBB22_56:                              # %if.end123
	movq	img, %rax
	cmpl	$8, 72564(%rax)
	jge	.LBB22_59
# %bb.57:                               # %land.lhs.true127
	movq	img, %rax
	cmpl	$1, 72564(%rax)
	jle	.LBB22_59
# %bb.58:                               # %if.then131
	vmovsd	Wp, %xmm0               # xmm0 = mem[0],zero
	movq	img, %rax
	movl	72564(%rax), %eax
	subl	$1, %eax
	vcvtsi2sd	%eax, %xmm0, %xmm1
	vmulsd	%xmm1, %xmm0, %xmm0
	movq	img, %rax
	vcvtsi2sdl	72564(%rax), %xmm0, %xmm1
	vdivsd	%xmm1, %xmm0, %xmm0
	vmovsd	AWp, %xmm1              # xmm1 = mem[0],zero
	movq	img, %rax
	vcvtsi2sdl	72564(%rax), %xmm0, %xmm2
	vdivsd	%xmm2, %xmm1, %xmm1
	vaddsd	%xmm1, %xmm0, %xmm0
	vmovsd	%xmm0, AWp
	jmp	.LBB22_62
.LBB22_59:                              # %if.else143
	movq	img, %rax
	cmpl	$1, 72564(%rax)
	jle	.LBB22_61
# %bb.60:                               # %if.then147
	vmovsd	.LCPI22_2(%rip), %xmm0  # xmm0 = mem[0],zero
	vmovsd	.LCPI22_3(%rip), %xmm1  # xmm1 = mem[0],zero
	vmovsd	Wp, %xmm2               # xmm2 = mem[0],zero
	vdivsd	%xmm0, %xmm2, %xmm2
	vmulsd	AWp, %xmm1, %xmm1
	vdivsd	%xmm0, %xmm1, %xmm0
	vaddsd	%xmm0, %xmm2, %xmm0
	vmovsd	%xmm0, AWp
.LBB22_61:                              # %if.end152
	jmp	.LBB22_62
.LBB22_62:                              # %if.end153
	movq	input, %rax
	cmpl	$0, 1236(%rax)
	jle	.LBB22_64
# %bb.63:                               # %if.then156
	vmovsd	AWp, %xmm0              # xmm0 = mem[0],zero
	movq	input, %rax
	movl	1236(%rax), %eax
	addl	$1, %eax
	vcvtsi2sd	%eax, %xmm0, %xmm1
	vmulsd	%xmm1, %xmm0, %xmm0
	vmulsd	bit_rate, %xmm0, %xmm0
	vmovsd	frame_rate, %xmm1       # xmm1 = mem[0],zero
	vmovsd	AWp, %xmm2              # xmm2 = mem[0],zero
	vmovsd	AWb, %xmm3              # xmm3 = mem[0],zero
	movq	input, %rax
	vcvtsi2sdl	1236(%rax), %xmm0, %xmm4
	vmulsd	%xmm4, %xmm3, %xmm3
	vaddsd	%xmm3, %xmm2, %xmm2
	vmulsd	%xmm2, %xmm1, %xmm1
	vdivsd	%xmm1, %xmm0, %xmm0
	vmovsd	bit_rate, %xmm1         # xmm1 = mem[0],zero
	vdivsd	frame_rate, %xmm1, %xmm1
	vsubsd	%xmm1, %xmm0, %xmm0
	vaddsd	TargetBufferLevel, %xmm0, %xmm0
	vmovsd	%xmm0, TargetBufferLevel
.LBB22_64:                              # %if.end171
	jmp	.LBB22_77
.LBB22_65:                              # %sw.bb172
	vmovsd	PreviousBit_Rate, %xmm0 # xmm0 = mem[0],zero
	vucomisd	bit_rate, %xmm0
	jne	.LBB22_66
	jp	.LBB22_66
	jmp	.LBB22_67
.LBB22_66:                              # %if.then175
	vmovsd	.LCPI22_1(%rip), %xmm0  # xmm0 = mem[0],zero
	vmovsd	bit_rate, %xmm1         # xmm1 = mem[0],zero
	vsubsd	PreviousBit_Rate, %xmm1, %xmm1
	movl	Np, %eax
	addl	Nb, %eax
	vcvtsi2sd	%eax, %xmm0, %xmm2
	vmulsd	%xmm2, %xmm1, %xmm1
	vdivsd	frame_rate, %xmm1, %xmm1
	vaddsd	%xmm0, %xmm1, %xmm0
	vroundsd	$9, %xmm0, %xmm0, %xmm0
	vcvttsd2si	%xmm0, %eax
	addl	R, %eax
	movl	%eax, R
.LBB22_67:                              # %if.end184
	movq	img, %rax
	cmpl	$1, 72564(%rax)
	jne	.LBB22_70
# %bb.68:                               # %land.lhs.true188
	movq	img, %rax
	cmpl	$1, 72560(%rax)
	jne	.LBB22_70
# %bb.69:                               # %if.then191
	vmovsd	Wp, %xmm0               # xmm0 = mem[0],zero
	vmovsd	%xmm0, AWp
	vmovsd	Wb, %xmm0               # xmm0 = mem[0],zero
	vmovsd	%xmm0, AWb
	jmp	.LBB22_76
.LBB22_70:                              # %if.else192
	movq	img, %rax
	cmpl	$1, 72560(%rax)
	jle	.LBB22_75
# %bb.71:                               # %if.then196
	movq	img, %rax
	cmpl	$8, 72560(%rax)
	jge	.LBB22_73
# %bb.72:                               # %if.then200
	vmovsd	Wb, %xmm0               # xmm0 = mem[0],zero
	movq	img, %rax
	movl	72560(%rax), %eax
	subl	$1, %eax
	vcvtsi2sd	%eax, %xmm0, %xmm1
	vmulsd	%xmm1, %xmm0, %xmm0
	movq	img, %rax
	vcvtsi2sdl	72560(%rax), %xmm0, %xmm1
	vdivsd	%xmm1, %xmm0, %xmm0
	vmovsd	AWb, %xmm1              # xmm1 = mem[0],zero
	movq	img, %rax
	vcvtsi2sdl	72560(%rax), %xmm0, %xmm2
	vdivsd	%xmm2, %xmm1, %xmm1
	vaddsd	%xmm1, %xmm0, %xmm0
	vmovsd	%xmm0, AWb
	jmp	.LBB22_74
.LBB22_73:                              # %if.else212
	vmovsd	.LCPI22_2(%rip), %xmm0  # xmm0 = mem[0],zero
	vmovsd	.LCPI22_3(%rip), %xmm1  # xmm1 = mem[0],zero
	vmovsd	Wb, %xmm2               # xmm2 = mem[0],zero
	vdivsd	%xmm0, %xmm2, %xmm2
	vmulsd	AWb, %xmm1, %xmm1
	vdivsd	%xmm0, %xmm1, %xmm0
	vaddsd	%xmm0, %xmm2, %xmm0
	vmovsd	%xmm0, AWb
.LBB22_74:                              # %if.end217
	jmp	.LBB22_75
.LBB22_75:                              # %if.end218
	jmp	.LBB22_76
.LBB22_76:                              # %if.end219
	jmp	.LBB22_77
.LBB22_77:                              # %sw.epilog
	movq	img, %rax
	cmpl	$0, 24(%rax)
	jne	.LBB22_110
# %bb.78:                               # %if.then223
	movq	img, %rax
	movl	72620(%rax), %eax
	movq	img, %rcx
	cmpl	72608(%rcx), %eax
	jne	.LBB22_85
# %bb.79:                               # %if.then228
	movq	img, %rax
	cmpl	$0, 72564(%rax)
	jle	.LBB22_84
# %bb.80:                               # %if.then232
	xorl	%eax, %eax
	vmovsd	.LCPI22_1(%rip), %xmm0  # xmm0 = mem[0],zero
	vmovsd	Wp, %xmm1               # xmm1 = mem[0],zero
	vcvtsi2sdl	R, %xmm0, %xmm2
	vmulsd	%xmm2, %xmm1, %xmm1
	vcvtsi2sdl	Np, %xmm0, %xmm2
	vmulsd	Wp, %xmm2, %xmm2
	vcvtsi2sdl	Nb, %xmm0, %xmm3
	vmulsd	Wb, %xmm3, %xmm3
	vaddsd	%xmm3, %xmm2, %xmm2
	vdivsd	%xmm2, %xmm1, %xmm1
	vaddsd	%xmm0, %xmm1, %xmm1
	vroundsd	$9, %xmm1, %xmm0, %xmm1
	vcvttsd2si	%xmm1, %rcx
	movq	%rcx, T
	vmovsd	bit_rate, %xmm1         # xmm1 = mem[0],zero
	vdivsd	frame_rate, %xmm1, %xmm1
	vmovsd	GAMMAP, %xmm2           # xmm2 = mem[0],zero
	vmovsd	CurrentBufferFullness, %xmm3 # xmm3 = mem[0],zero
	vsubsd	TargetBufferLevel, %xmm3, %xmm3
	vmulsd	%xmm3, %xmm2, %xmm2
	vsubsd	%xmm2, %xmm1, %xmm1
	vaddsd	%xmm0, %xmm1, %xmm0
	vroundsd	$9, %xmm0, %xmm0, %xmm0
	vcvttsd2si	%xmm0, %rcx
	movq	%rcx, T1
	cmpq	T1, %rax
	jge	.LBB22_82
# %bb.81:                               # %cond.true
	movq	T1, %rax
	jmp	.LBB22_83
.LBB22_82:                              # %cond.false
	xorl	%eax, %eax
	jmp	.LBB22_83
.LBB22_83:                              # %cond.end
	vmovsd	.LCPI22_1(%rip), %xmm0  # xmm0 = mem[0],zero
	vmovsd	.LCPI22_4(%rip), %xmm1  # xmm1 = mem[0],zero
	movq	%rax, T1
	vmovsd	BETAP, %xmm2            # xmm2 = mem[0],zero
	vcvtsi2sdq	T, %xmm0, %xmm3
	vmulsd	%xmm3, %xmm2, %xmm2
	vsubsd	BETAP, %xmm1, %xmm1
	vcvtsi2sdq	T1, %xmm0, %xmm3
	vmulsd	%xmm3, %xmm1, %xmm1
	vaddsd	%xmm1, %xmm2, %xmm1
	vaddsd	%xmm0, %xmm1, %xmm0
	vroundsd	$9, %xmm0, %xmm0, %xmm0
	vcvttsd2si	%xmm0, %rax
	movq	%rax, T
.LBB22_84:                              # %if.end259
	jmp	.LBB22_98
.LBB22_85:                              # %if.else260
	movq	img, %rax
	cmpl	$1, 72568(%rax)
	jne	.LBB22_91
# %bb.86:                               # %land.lhs.true264
	movq	img, %rax
	cmpl	$0, 72564(%rax)
	jle	.LBB22_91
# %bb.87:                               # %if.then268
	xorl	%eax, %eax
	vmovsd	.LCPI22_1(%rip), %xmm0  # xmm0 = mem[0],zero
	vmovsd	Wp, %xmm1               # xmm1 = mem[0],zero
	vcvtsi2sdl	R, %xmm0, %xmm2
	vmulsd	%xmm2, %xmm1, %xmm1
	vcvtsi2sdl	Np, %xmm0, %xmm2
	vmulsd	Wp, %xmm2, %xmm2
	vcvtsi2sdl	Nb, %xmm0, %xmm3
	vmulsd	Wb, %xmm3, %xmm3
	vaddsd	%xmm3, %xmm2, %xmm2
	vdivsd	%xmm2, %xmm1, %xmm1
	vaddsd	%xmm0, %xmm1, %xmm1
	vroundsd	$9, %xmm1, %xmm0, %xmm1
	vcvttsd2si	%xmm1, %ecx
	movslq	%ecx, %rcx
	movq	%rcx, T
	vmovsd	bit_rate, %xmm1         # xmm1 = mem[0],zero
	vdivsd	frame_rate, %xmm1, %xmm1
	vmovsd	GAMMAP, %xmm2           # xmm2 = mem[0],zero
	vmovsd	CurrentBufferFullness, %xmm3 # xmm3 = mem[0],zero
	vsubsd	TargetBufferLevel, %xmm3, %xmm3
	vmulsd	%xmm3, %xmm2, %xmm2
	vsubsd	%xmm2, %xmm1, %xmm1
	vaddsd	%xmm0, %xmm1, %xmm0
	vroundsd	$9, %xmm0, %xmm0, %xmm0
	vcvttsd2si	%xmm0, %ecx
	movslq	%ecx, %rcx
	movq	%rcx, T1
	cmpq	T1, %rax
	jge	.LBB22_89
# %bb.88:                               # %cond.true289
	movq	T1, %rax
	jmp	.LBB22_90
.LBB22_89:                              # %cond.false290
	xorl	%eax, %eax
	jmp	.LBB22_90
.LBB22_90:                              # %cond.end291
	vmovsd	.LCPI22_1(%rip), %xmm0  # xmm0 = mem[0],zero
	vmovsd	.LCPI22_4(%rip), %xmm1  # xmm1 = mem[0],zero
	movq	%rax, T1
	vmovsd	BETAP, %xmm2            # xmm2 = mem[0],zero
	vcvtsi2sdq	T, %xmm0, %xmm3
	vmulsd	%xmm3, %xmm2, %xmm2
	vsubsd	BETAP, %xmm1, %xmm1
	vcvtsi2sdq	T1, %xmm0, %xmm3
	vmulsd	%xmm3, %xmm1, %xmm1
	vaddsd	%xmm1, %xmm2, %xmm1
	vaddsd	%xmm0, %xmm1, %xmm0
	vroundsd	$9, %xmm0, %xmm0, %xmm0
	vcvttsd2si	%xmm0, %eax
	cltq
	movq	%rax, T
	jmp	.LBB22_97
.LBB22_91:                              # %if.else302
	movq	img, %rax
	cmpl	$1, 72568(%rax)
	jle	.LBB22_96
# %bb.92:                               # %if.then306
	xorl	%eax, %eax
	vmovsd	.LCPI22_1(%rip), %xmm0  # xmm0 = mem[0],zero
	vmovsd	Wp, %xmm1               # xmm1 = mem[0],zero
	vcvtsi2sdl	R, %xmm0, %xmm2
	vmulsd	%xmm2, %xmm1, %xmm1
	vcvtsi2sdl	Np, %xmm0, %xmm2
	vmulsd	Wp, %xmm2, %xmm2
	vcvtsi2sdl	Nb, %xmm0, %xmm3
	vmulsd	Wb, %xmm3, %xmm3
	vaddsd	%xmm3, %xmm2, %xmm2
	vdivsd	%xmm2, %xmm1, %xmm1
	vaddsd	%xmm0, %xmm1, %xmm1
	vroundsd	$9, %xmm1, %xmm0, %xmm1
	vcvttsd2si	%xmm1, %rcx
	movq	%rcx, T
	vmovsd	bit_rate, %xmm1         # xmm1 = mem[0],zero
	vdivsd	frame_rate, %xmm1, %xmm1
	vmovsd	GAMMAP, %xmm2           # xmm2 = mem[0],zero
	vmovsd	CurrentBufferFullness, %xmm3 # xmm3 = mem[0],zero
	vsubsd	TargetBufferLevel, %xmm3, %xmm3
	vmulsd	%xmm3, %xmm2, %xmm2
	vsubsd	%xmm2, %xmm1, %xmm1
	vaddsd	%xmm0, %xmm1, %xmm0
	vroundsd	$9, %xmm0, %xmm0, %xmm0
	vcvttsd2si	%xmm0, %rcx
	movq	%rcx, T1
	cmpq	T1, %rax
	jge	.LBB22_94
# %bb.93:                               # %cond.true325
	movq	T1, %rax
	jmp	.LBB22_95
.LBB22_94:                              # %cond.false326
	xorl	%eax, %eax
	jmp	.LBB22_95
.LBB22_95:                              # %cond.end327
	vmovsd	.LCPI22_1(%rip), %xmm0  # xmm0 = mem[0],zero
	vmovsd	.LCPI22_4(%rip), %xmm1  # xmm1 = mem[0],zero
	movq	%rax, T1
	vmovsd	BETAP, %xmm2            # xmm2 = mem[0],zero
	vcvtsi2sdq	T, %xmm0, %xmm3
	vmulsd	%xmm3, %xmm2, %xmm2
	vsubsd	BETAP, %xmm1, %xmm1
	vcvtsi2sdq	T1, %xmm0, %xmm3
	vmulsd	%xmm3, %xmm1, %xmm1
	vaddsd	%xmm1, %xmm2, %xmm1
	vaddsd	%xmm0, %xmm1, %xmm0
	vroundsd	$9, %xmm0, %xmm0, %xmm0
	vcvttsd2si	%xmm0, %rax
	movq	%rax, T
.LBB22_96:                              # %if.end337
	jmp	.LBB22_97
.LBB22_97:                              # %if.end338
	jmp	.LBB22_98
.LBB22_98:                              # %if.end339
	vmovsd	.LCPI22_4(%rip), %xmm0  # xmm0 = mem[0],zero
	movq	input, %rax
	vcvtsi2sdl	1236(%rax), %xmm0, %xmm1
	vxorps	%xmm2, %xmm2, %xmm2
	vmulsd	%xmm1, %xmm2, %xmm1
	vsubsd	%xmm1, %xmm0, %xmm0
	vcvtsi2sdq	T, %xmm0, %xmm1
	vmulsd	%xmm1, %xmm0, %xmm0
	vcvttsd2si	%xmm0, %rax
	movq	%rax, T
	movq	T, %rax
	cmpq	LowerBound, %rax
	jge	.LBB22_100
# %bb.99:                               # %cond.true349
	movq	LowerBound, %rax
	jmp	.LBB22_101
.LBB22_100:                             # %cond.false350
	movq	T, %rax
.LBB22_101:                             # %cond.end351
	movq	%rax, T
	movq	T, %rax
	cmpq	UpperBound2, %rax
	jge	.LBB22_103
# %bb.102:                              # %cond.true355
	movq	T, %rax
	jmp	.LBB22_104
.LBB22_103:                             # %cond.false356
	movq	UpperBound2, %rax
.LBB22_104:                             # %cond.end357
	movq	%rax, T
	cmpl	$0, -8(%rbp)
	jne	.LBB22_108
# %bb.105:                              # %lor.lhs.false360
	cmpl	$0, -12(%rbp)
	je	.LBB22_109
# %bb.106:                              # %land.lhs.true362
	movq	input, %rax
	cmpl	$2, 2880(%rax)
	je	.LBB22_108
# %bb.107:                              # %lor.lhs.false366
	movq	input, %rax
	cmpl	$0, 2884(%rax)
	je	.LBB22_109
.LBB22_108:                             # %if.then369
	movq	T, %rax
	movl	%eax, T_field
.LBB22_109:                             # %if.end371
	jmp	.LBB22_110
.LBB22_110:                             # %if.end372
	jmp	.LBB22_111
.LBB22_111:                             # %if.end373
	cmpl	$0, -12(%rbp)
	jne	.LBB22_113
# %bb.112:                              # %lor.lhs.false375
	cmpl	$0, -8(%rbp)
	je	.LBB22_119
.LBB22_113:                             # %if.then377
	movq	img, %rax
	movl	$0, 72524(%rax)
	movq	img, %rax
	movl	$0, 72528(%rax)
	movq	img, %rax
	movl	72620(%rax), %eax
	movq	img, %rcx
	cmpl	72608(%rcx), %eax
	jge	.LBB22_118
# %bb.114:                              # %if.then382
	movl	$0, TotalFrameQP
	movq	img, %rax
	movl	$0, 72532(%rax)
	movq	img, %rax
	movl	$0, 72536(%rax)
	movq	img, %rax
	vxorps	%xmm0, %xmm0, %xmm0
	vmovsd	%xmm0, 72544(%rax)
	movq	img, %rax
	cmpl	$0, 72600(%rax)
	jne	.LBB22_116
# %bb.115:                              # %if.then386
	movl	TotalNumberofBasicUnit, %eax
	movl	%eax, NumberofBasicUnit
	jmp	.LBB22_117
.LBB22_116:                             # %if.else387
	movl	TotalNumberofBasicUnit, %eax
	cltd
	movl	$2, %ecx
	idivl	%ecx
	movl	%eax, NumberofBasicUnit
.LBB22_117:                             # %if.end389
	jmp	.LBB22_118
.LBB22_118:                             # %if.end390
	jmp	.LBB22_119
.LBB22_119:                             # %if.end391
	movq	img, %rax
	cmpl	$0, 24(%rax)
	jne	.LBB22_126
# %bb.120:                              # %land.lhs.true395
	movq	img, %rax
	movl	72620(%rax), %eax
	movq	img, %rcx
	cmpl	72608(%rcx), %eax
	jge	.LBB22_126
# %bb.121:                              # %land.lhs.true400
	movq	img, %rax
	cmpl	$1, 72600(%rax)
	jne	.LBB22_126
# %bb.122:                              # %if.then404
	cmpl	$0, -8(%rbp)
	je	.LBB22_124
# %bb.123:                              # %if.then406
	vmovsd	.LCPI22_5(%rip), %xmm0  # xmm0 = mem[0],zero
	movl	$0, bits_topfield
	vcvtsi2sdl	T_field, %xmm0, %xmm1
	vmulsd	%xmm0, %xmm1, %xmm0
	vcvttsd2si	%xmm0, %rax
	movq	%rax, T
	jmp	.LBB22_125
.LBB22_124:                             # %if.else410
	movl	T_field, %eax
	subl	bits_topfield, %eax
	cltq
	movq	%rax, T
	movq	img, %rax
	movl	$0, 72532(%rax)
	movq	img, %rax
	movl	$0, 72536(%rax)
	movq	img, %rax
	vxorps	%xmm0, %xmm0, %xmm0
	vmovsd	%xmm0, 72544(%rax)
	movl	TotalNumberofBasicUnit, %eax
	cltd
	movl	$2, %ecx
	idivl	%ecx
	movl	%eax, NumberofBasicUnit
.LBB22_125:                             # %if.end417
	jmp	.LBB22_126
.LBB22_126:                             # %if.end418
	cmpl	$945490515, -20(%rbp)   # imm = 0x385B0A53
	jne	.LBB22_128
.LBB22_127:
	addq	$32, %rsp
	popq	%rbp
	.cfi_def_cfa %rsp, 8
	retq
.LBB22_128:                             # %func_exit
	.cfi_def_cfa %rbp, 16
	callq	detect_breach
	jmp	.LBB22_127
.Lfunc_end22:
	.size	rc_init_pict.6, .Lfunc_end22-rc_init_pict.6
	.cfi_endproc
                                        # -- End function
	.section	.rodata.cst8,"aM",@progbits,8
	.p2align	3               # -- Begin function rc_init_pict.7
.LCPI23_0:
	.quad	4609434218613702656     # double 1.5
.LCPI23_1:
	.quad	4602678819172646912     # double 0.5
.LCPI23_2:
	.quad	4620693217682128896     # double 8
.LCPI23_3:
	.quad	4619567317775286272     # double 7
.LCPI23_4:
	.quad	4607182418800017408     # double 1
.LCPI23_5:
	.quad	4603579539098121011     # double 0.59999999999999998
	.text
	.globl	rc_init_pict.7
	.p2align	4, 0x90
	.type	rc_init_pict.7,@function
rc_init_pict.7:                         # @rc_init_pict.7
	.cfi_startproc
# %bb.0:                                # %entry
	pushq	%rbp
	.cfi_def_cfa_offset 16
	.cfi_offset %rbp, -16
	movq	%rsp, %rbp
	.cfi_def_cfa_register %rbp
	subq	$32, %rsp
	movl	$1540043883, -20(%rbp)  # imm = 0x5BCB346B
	movl	%edi, -12(%rbp)
	movl	%esi, -8(%rbp)
	movl	%edx, -16(%rbp)
	movq	input, %rax
	cmpl	$0, 2884(%rax)
	je	.LBB23_2
# %bb.1:                                # %if.then
	movq	img, %rax
	movl	72608(%rax), %eax
	movq	img, %rcx
	cltd
	idivl	72620(%rcx)
	movl	%eax, TotalNumberofBasicUnit
.LBB23_2:                               # %if.end
	movq	img, %rax
	movl	$0, 72616(%rax)
	movq	input, %rax
	cmpl	$1, 3252(%rax)
	jne	.LBB23_9
# %bb.3:                                # %if.then1
	movq	img, %rax
	cmpl	$58, 72564(%rax)
	jne	.LBB23_5
# %bb.4:                                # %if.then3
	vmovsd	.LCPI23_0(%rip), %xmm0  # xmm0 = mem[0],zero
	vmulsd	bit_rate, %xmm0, %xmm0
	vmovsd	%xmm0, bit_rate
	jmp	.LBB23_8
.LBB23_5:                               # %if.else
	movq	img, %rax
	cmpl	$59, 72564(%rax)
	jne	.LBB23_7
# %bb.6:                                # %if.then6
	vmovsd	bit_rate, %xmm0         # xmm0 = mem[0],zero
	vmovsd	%xmm0, PreviousBit_Rate
.LBB23_7:                               # %if.end7
	jmp	.LBB23_8
.LBB23_8:                               # %if.end8
	jmp	.LBB23_9
.LBB23_9:                               # %if.end9
	cmpl	$0, -12(%rbp)
	jne	.LBB23_11
# %bb.10:                               # %lor.lhs.false
	cmpl	$0, -8(%rbp)
	je	.LBB23_111
.LBB23_11:                              # %land.lhs.true
	cmpl	$0, -16(%rbp)
	je	.LBB23_111
# %bb.12:                               # %if.then13
	movq	img(%rip), %rax
	movl	24(%rax), %eax
	testl	%eax, %eax
	je	.LBB23_14
	jmp	.LBB23_13
.LBB23_13:                              # %if.then13
	subl	$1, %eax
	je	.LBB23_65
	jmp	.LBB23_77
.LBB23_14:                              # %sw.bb
	vmovsd	PreviousBit_Rate, %xmm0 # xmm0 = mem[0],zero
	vucomisd	bit_rate, %xmm0
	jne	.LBB23_15
	jp	.LBB23_15
	jmp	.LBB23_16
.LBB23_15:                              # %if.then15
	vmovsd	.LCPI23_1(%rip), %xmm0  # xmm0 = mem[0],zero
	vmovsd	bit_rate, %xmm1         # xmm1 = mem[0],zero
	vsubsd	PreviousBit_Rate, %xmm1, %xmm1
	movl	Np, %eax
	addl	Nb, %eax
	vcvtsi2sd	%eax, %xmm0, %xmm2
	vmulsd	%xmm2, %xmm1, %xmm1
	vdivsd	frame_rate, %xmm1, %xmm1
	vaddsd	%xmm0, %xmm1, %xmm0
	vroundsd	$9, %xmm0, %xmm0, %xmm0
	vcvttsd2si	%xmm0, %eax
	addl	R, %eax
	movl	%eax, R
.LBB23_16:                              # %if.end21
	movq	img, %rax
	movl	72620(%rax), %eax
	movq	img, %rcx
	cmpl	72608(%rcx), %eax
	jne	.LBB23_23
# %bb.17:                               # %if.then26
	movq	img, %rax
	cmpl	$1, 72576(%rax)
	jne	.LBB23_19
# %bb.18:                               # %if.then29
	vmovsd	CurrentBufferFullness, %xmm0 # xmm0 = mem[0],zero
	vmovsd	%xmm0, TargetBufferLevel
	vmovsd	CurrentBufferFullness, %xmm0 # xmm0 = mem[0],zero
	vsubsd	GOPTargetBufferLevel, %xmm0, %xmm0
	movl	TotalPFrame, %eax
	subl	$1, %eax
	vcvtsi2sd	%eax, %xmm0, %xmm1
	vdivsd	%xmm1, %xmm0, %xmm0
	vmovsd	%xmm0, DeltaP
	vmovsd	DeltaP, %xmm0           # xmm0 = mem[0],zero
	vmovsd	TargetBufferLevel, %xmm1 # xmm1 = mem[0],zero
	vsubsd	%xmm0, %xmm1, %xmm0
	vmovsd	%xmm0, TargetBufferLevel
	jmp	.LBB23_22
.LBB23_19:                              # %if.else35
	movq	img, %rax
	cmpl	$1, 72576(%rax)
	jle	.LBB23_21
# %bb.20:                               # %if.then39
	vmovsd	DeltaP, %xmm0           # xmm0 = mem[0],zero
	vmovsd	TargetBufferLevel, %xmm1 # xmm1 = mem[0],zero
	vsubsd	%xmm0, %xmm1, %xmm0
	vmovsd	%xmm0, TargetBufferLevel
.LBB23_21:                              # %if.end41
	jmp	.LBB23_22
.LBB23_22:                              # %if.end42
	jmp	.LBB23_54
.LBB23_23:                              # %if.else43
	movq	img, %rax
	cmpl	$0, 72564(%rax)
	jle	.LBB23_38
# %bb.24:                               # %if.then47
	movq	input, %rax
	cmpl	$2, 2880(%rax)
	je	.LBB23_26
# %bb.25:                               # %lor.lhs.false50
	movq	input, %rax
	cmpl	$0, 2884(%rax)
	je	.LBB23_32
.LBB23_26:                              # %land.lhs.true53
	movq	img, %rax
	cmpl	$1, 72600(%rax)
	jne	.LBB23_32
# %bb.27:                               # %if.then56
	movl	$0, -4(%rbp)
.LBB23_28:                              # %for.cond
                                        # =>This Inner Loop Header: Depth=1
	movl	-4(%rbp), %eax
	cmpl	TotalNumberofBasicUnit, %eax
	jge	.LBB23_31
# %bb.29:                               # %for.body
                                        #   in Loop: Header=BB23_28 Depth=1
	movq	FCBUCFMAD, %rax
	movslq	-4(%rbp), %rcx
	vmovsd	(%rax,%rcx,8), %xmm0    # xmm0 = mem[0],zero
	movq	FCBUPFMAD, %rax
	movslq	-4(%rbp), %rcx
	vmovsd	%xmm0, (%rax,%rcx,8)
# %bb.30:                               # %for.inc
                                        #   in Loop: Header=BB23_28 Depth=1
	movl	-4(%rbp), %eax
	addl	$1, %eax
	movl	%eax, -4(%rbp)
	jmp	.LBB23_28
.LBB23_31:                              # %for.end
	jmp	.LBB23_37
.LBB23_32:                              # %if.else61
	movl	$0, -4(%rbp)
.LBB23_33:                              # %for.cond62
                                        # =>This Inner Loop Header: Depth=1
	movl	-4(%rbp), %eax
	cmpl	TotalNumberofBasicUnit, %eax
	jge	.LBB23_36
# %bb.34:                               # %for.body65
                                        #   in Loop: Header=BB23_33 Depth=1
	movq	BUCFMAD, %rax
	movslq	-4(%rbp), %rcx
	vmovsd	(%rax,%rcx,8), %xmm0    # xmm0 = mem[0],zero
	movq	BUPFMAD, %rax
	movslq	-4(%rbp), %rcx
	vmovsd	%xmm0, (%rax,%rcx,8)
# %bb.35:                               # %for.inc70
                                        #   in Loop: Header=BB23_33 Depth=1
	movl	-4(%rbp), %eax
	addl	$1, %eax
	movl	%eax, -4(%rbp)
	jmp	.LBB23_33
.LBB23_36:                              # %for.end72
	jmp	.LBB23_37
.LBB23_37:                              # %if.end73
	jmp	.LBB23_38
.LBB23_38:                              # %if.end74
	movq	img, %rax
	cmpl	$1, 72568(%rax)
	jne	.LBB23_45
# %bb.39:                               # %if.then77
	movq	img, %rax
	cmpl	$1, 72576(%rax)
	jne	.LBB23_41
# %bb.40:                               # %if.then81
	vmovsd	CurrentBufferFullness, %xmm0 # xmm0 = mem[0],zero
	vmovsd	%xmm0, TargetBufferLevel
	vmovsd	CurrentBufferFullness, %xmm0 # xmm0 = mem[0],zero
	vsubsd	GOPTargetBufferLevel, %xmm0, %xmm0
	movl	TotalPFrame, %eax
	subl	$1, %eax
	vcvtsi2sd	%eax, %xmm0, %xmm1
	vdivsd	%xmm1, %xmm0, %xmm0
	vmovsd	%xmm0, DeltaP
	vmovsd	DeltaP, %xmm0           # xmm0 = mem[0],zero
	vmovsd	TargetBufferLevel, %xmm1 # xmm1 = mem[0],zero
	vsubsd	%xmm0, %xmm1, %xmm0
	vmovsd	%xmm0, TargetBufferLevel
	jmp	.LBB23_44
.LBB23_41:                              # %if.else87
	movq	img, %rax
	cmpl	$1, 72576(%rax)
	jle	.LBB23_43
# %bb.42:                               # %if.then91
	vmovsd	DeltaP, %xmm0           # xmm0 = mem[0],zero
	vmovsd	TargetBufferLevel, %xmm1 # xmm1 = mem[0],zero
	vsubsd	%xmm0, %xmm1, %xmm0
	vmovsd	%xmm0, TargetBufferLevel
.LBB23_43:                              # %if.end93
	jmp	.LBB23_44
.LBB23_44:                              # %if.end94
	jmp	.LBB23_53
.LBB23_45:                              # %if.else95
	movq	img, %rax
	cmpl	$1, 72568(%rax)
	jle	.LBB23_52
# %bb.46:                               # %if.then99
	movq	img, %rax
	cmpl	$0, 72576(%rax)
	jne	.LBB23_48
# %bb.47:                               # %if.then103
	vmovsd	CurrentBufferFullness, %xmm0 # xmm0 = mem[0],zero
	vmovsd	%xmm0, TargetBufferLevel
	vmovsd	CurrentBufferFullness, %xmm0 # xmm0 = mem[0],zero
	vsubsd	GOPTargetBufferLevel, %xmm0, %xmm0
	vcvtsi2sdl	TotalPFrame, %xmm0, %xmm1
	vdivsd	%xmm1, %xmm0, %xmm0
	vmovsd	%xmm0, DeltaP
	vmovsd	DeltaP, %xmm0           # xmm0 = mem[0],zero
	vmovsd	TargetBufferLevel, %xmm1 # xmm1 = mem[0],zero
	vsubsd	%xmm0, %xmm1, %xmm0
	vmovsd	%xmm0, TargetBufferLevel
	jmp	.LBB23_51
.LBB23_48:                              # %if.else108
	movq	img, %rax
	cmpl	$0, 72576(%rax)
	jle	.LBB23_50
# %bb.49:                               # %if.then112
	vmovsd	DeltaP, %xmm0           # xmm0 = mem[0],zero
	vmovsd	TargetBufferLevel, %xmm1 # xmm1 = mem[0],zero
	vsubsd	%xmm0, %xmm1, %xmm0
	vmovsd	%xmm0, TargetBufferLevel
.LBB23_50:                              # %if.end114
	jmp	.LBB23_51
.LBB23_51:                              # %if.end115
	jmp	.LBB23_52
.LBB23_52:                              # %if.end116
	jmp	.LBB23_53
.LBB23_53:                              # %if.end117
	jmp	.LBB23_54
.LBB23_54:                              # %if.end118
	movq	img, %rax
	cmpl	$1, 72564(%rax)
	jne	.LBB23_56
# %bb.55:                               # %if.then122
	vmovsd	Wp, %xmm0               # xmm0 = mem[0],zero
	vmovsd	%xmm0, AWp
.LBB23_56:                              # %if.end123
	movq	img, %rax
	cmpl	$8, 72564(%rax)
	jge	.LBB23_59
# %bb.57:                               # %land.lhs.true127
	movq	img, %rax
	cmpl	$1, 72564(%rax)
	jle	.LBB23_59
# %bb.58:                               # %if.then131
	vmovsd	Wp, %xmm0               # xmm0 = mem[0],zero
	movq	img, %rax
	movl	72564(%rax), %eax
	subl	$1, %eax
	vcvtsi2sd	%eax, %xmm0, %xmm1
	vmulsd	%xmm1, %xmm0, %xmm0
	movq	img, %rax
	vcvtsi2sdl	72564(%rax), %xmm0, %xmm1
	vdivsd	%xmm1, %xmm0, %xmm0
	vmovsd	AWp, %xmm1              # xmm1 = mem[0],zero
	movq	img, %rax
	vcvtsi2sdl	72564(%rax), %xmm0, %xmm2
	vdivsd	%xmm2, %xmm1, %xmm1
	vaddsd	%xmm1, %xmm0, %xmm0
	vmovsd	%xmm0, AWp
	jmp	.LBB23_62
.LBB23_59:                              # %if.else143
	movq	img, %rax
	cmpl	$1, 72564(%rax)
	jle	.LBB23_61
# %bb.60:                               # %if.then147
	vmovsd	.LCPI23_2(%rip), %xmm0  # xmm0 = mem[0],zero
	vmovsd	.LCPI23_3(%rip), %xmm1  # xmm1 = mem[0],zero
	vmovsd	Wp, %xmm2               # xmm2 = mem[0],zero
	vdivsd	%xmm0, %xmm2, %xmm2
	vmulsd	AWp, %xmm1, %xmm1
	vdivsd	%xmm0, %xmm1, %xmm0
	vaddsd	%xmm0, %xmm2, %xmm0
	vmovsd	%xmm0, AWp
.LBB23_61:                              # %if.end152
	jmp	.LBB23_62
.LBB23_62:                              # %if.end153
	movq	input, %rax
	cmpl	$0, 1236(%rax)
	jle	.LBB23_64
# %bb.63:                               # %if.then156
	vmovsd	AWp, %xmm0              # xmm0 = mem[0],zero
	movq	input, %rax
	movl	1236(%rax), %eax
	addl	$1, %eax
	vcvtsi2sd	%eax, %xmm0, %xmm1
	vmulsd	%xmm1, %xmm0, %xmm0
	vmulsd	bit_rate, %xmm0, %xmm0
	vmovsd	frame_rate, %xmm1       # xmm1 = mem[0],zero
	vmovsd	AWp, %xmm2              # xmm2 = mem[0],zero
	vmovsd	AWb, %xmm3              # xmm3 = mem[0],zero
	movq	input, %rax
	vcvtsi2sdl	1236(%rax), %xmm0, %xmm4
	vmulsd	%xmm4, %xmm3, %xmm3
	vaddsd	%xmm3, %xmm2, %xmm2
	vmulsd	%xmm2, %xmm1, %xmm1
	vdivsd	%xmm1, %xmm0, %xmm0
	vmovsd	bit_rate, %xmm1         # xmm1 = mem[0],zero
	vdivsd	frame_rate, %xmm1, %xmm1
	vsubsd	%xmm1, %xmm0, %xmm0
	vaddsd	TargetBufferLevel, %xmm0, %xmm0
	vmovsd	%xmm0, TargetBufferLevel
.LBB23_64:                              # %if.end171
	jmp	.LBB23_77
.LBB23_65:                              # %sw.bb172
	vmovsd	PreviousBit_Rate, %xmm0 # xmm0 = mem[0],zero
	vucomisd	bit_rate, %xmm0
	jne	.LBB23_66
	jp	.LBB23_66
	jmp	.LBB23_67
.LBB23_66:                              # %if.then175
	vmovsd	.LCPI23_1(%rip), %xmm0  # xmm0 = mem[0],zero
	vmovsd	bit_rate, %xmm1         # xmm1 = mem[0],zero
	vsubsd	PreviousBit_Rate, %xmm1, %xmm1
	movl	Np, %eax
	addl	Nb, %eax
	vcvtsi2sd	%eax, %xmm0, %xmm2
	vmulsd	%xmm2, %xmm1, %xmm1
	vdivsd	frame_rate, %xmm1, %xmm1
	vaddsd	%xmm0, %xmm1, %xmm0
	vroundsd	$9, %xmm0, %xmm0, %xmm0
	vcvttsd2si	%xmm0, %eax
	addl	R, %eax
	movl	%eax, R
.LBB23_67:                              # %if.end184
	movq	img, %rax
	cmpl	$1, 72564(%rax)
	jne	.LBB23_70
# %bb.68:                               # %land.lhs.true188
	movq	img, %rax
	cmpl	$1, 72560(%rax)
	jne	.LBB23_70
# %bb.69:                               # %if.then191
	vmovsd	Wp, %xmm0               # xmm0 = mem[0],zero
	vmovsd	%xmm0, AWp
	vmovsd	Wb, %xmm0               # xmm0 = mem[0],zero
	vmovsd	%xmm0, AWb
	jmp	.LBB23_76
.LBB23_70:                              # %if.else192
	movq	img, %rax
	cmpl	$1, 72560(%rax)
	jle	.LBB23_75
# %bb.71:                               # %if.then196
	movq	img, %rax
	cmpl	$8, 72560(%rax)
	jge	.LBB23_73
# %bb.72:                               # %if.then200
	vmovsd	Wb, %xmm0               # xmm0 = mem[0],zero
	movq	img, %rax
	movl	72560(%rax), %eax
	subl	$1, %eax
	vcvtsi2sd	%eax, %xmm0, %xmm1
	vmulsd	%xmm1, %xmm0, %xmm0
	movq	img, %rax
	vcvtsi2sdl	72560(%rax), %xmm0, %xmm1
	vdivsd	%xmm1, %xmm0, %xmm0
	vmovsd	AWb, %xmm1              # xmm1 = mem[0],zero
	movq	img, %rax
	vcvtsi2sdl	72560(%rax), %xmm0, %xmm2
	vdivsd	%xmm2, %xmm1, %xmm1
	vaddsd	%xmm1, %xmm0, %xmm0
	vmovsd	%xmm0, AWb
	jmp	.LBB23_74
.LBB23_73:                              # %if.else212
	vmovsd	.LCPI23_2(%rip), %xmm0  # xmm0 = mem[0],zero
	vmovsd	.LCPI23_3(%rip), %xmm1  # xmm1 = mem[0],zero
	vmovsd	Wb, %xmm2               # xmm2 = mem[0],zero
	vdivsd	%xmm0, %xmm2, %xmm2
	vmulsd	AWb, %xmm1, %xmm1
	vdivsd	%xmm0, %xmm1, %xmm0
	vaddsd	%xmm0, %xmm2, %xmm0
	vmovsd	%xmm0, AWb
.LBB23_74:                              # %if.end217
	jmp	.LBB23_75
.LBB23_75:                              # %if.end218
	jmp	.LBB23_76
.LBB23_76:                              # %if.end219
	jmp	.LBB23_77
.LBB23_77:                              # %sw.epilog
	movq	img, %rax
	cmpl	$0, 24(%rax)
	jne	.LBB23_110
# %bb.78:                               # %if.then223
	movq	img, %rax
	movl	72620(%rax), %eax
	movq	img, %rcx
	cmpl	72608(%rcx), %eax
	jne	.LBB23_85
# %bb.79:                               # %if.then228
	movq	img, %rax
	cmpl	$0, 72564(%rax)
	jle	.LBB23_84
# %bb.80:                               # %if.then232
	xorl	%eax, %eax
	vmovsd	.LCPI23_1(%rip), %xmm0  # xmm0 = mem[0],zero
	vmovsd	Wp, %xmm1               # xmm1 = mem[0],zero
	vcvtsi2sdl	R, %xmm0, %xmm2
	vmulsd	%xmm2, %xmm1, %xmm1
	vcvtsi2sdl	Np, %xmm0, %xmm2
	vmulsd	Wp, %xmm2, %xmm2
	vcvtsi2sdl	Nb, %xmm0, %xmm3
	vmulsd	Wb, %xmm3, %xmm3
	vaddsd	%xmm3, %xmm2, %xmm2
	vdivsd	%xmm2, %xmm1, %xmm1
	vaddsd	%xmm0, %xmm1, %xmm1
	vroundsd	$9, %xmm1, %xmm0, %xmm1
	vcvttsd2si	%xmm1, %rcx
	movq	%rcx, T
	vmovsd	bit_rate, %xmm1         # xmm1 = mem[0],zero
	vdivsd	frame_rate, %xmm1, %xmm1
	vmovsd	GAMMAP, %xmm2           # xmm2 = mem[0],zero
	vmovsd	CurrentBufferFullness, %xmm3 # xmm3 = mem[0],zero
	vsubsd	TargetBufferLevel, %xmm3, %xmm3
	vmulsd	%xmm3, %xmm2, %xmm2
	vsubsd	%xmm2, %xmm1, %xmm1
	vaddsd	%xmm0, %xmm1, %xmm0
	vroundsd	$9, %xmm0, %xmm0, %xmm0
	vcvttsd2si	%xmm0, %rcx
	movq	%rcx, T1
	cmpq	T1, %rax
	jge	.LBB23_82
# %bb.81:                               # %cond.true
	movq	T1, %rax
	jmp	.LBB23_83
.LBB23_82:                              # %cond.false
	xorl	%eax, %eax
	jmp	.LBB23_83
.LBB23_83:                              # %cond.end
	vmovsd	.LCPI23_1(%rip), %xmm0  # xmm0 = mem[0],zero
	vmovsd	.LCPI23_4(%rip), %xmm1  # xmm1 = mem[0],zero
	movq	%rax, T1
	vmovsd	BETAP, %xmm2            # xmm2 = mem[0],zero
	vcvtsi2sdq	T, %xmm0, %xmm3
	vmulsd	%xmm3, %xmm2, %xmm2
	vsubsd	BETAP, %xmm1, %xmm1
	vcvtsi2sdq	T1, %xmm0, %xmm3
	vmulsd	%xmm3, %xmm1, %xmm1
	vaddsd	%xmm1, %xmm2, %xmm1
	vaddsd	%xmm0, %xmm1, %xmm0
	vroundsd	$9, %xmm0, %xmm0, %xmm0
	vcvttsd2si	%xmm0, %rax
	movq	%rax, T
.LBB23_84:                              # %if.end259
	jmp	.LBB23_98
.LBB23_85:                              # %if.else260
	movq	img, %rax
	cmpl	$1, 72568(%rax)
	jne	.LBB23_91
# %bb.86:                               # %land.lhs.true264
	movq	img, %rax
	cmpl	$0, 72564(%rax)
	jle	.LBB23_91
# %bb.87:                               # %if.then268
	xorl	%eax, %eax
	vmovsd	.LCPI23_1(%rip), %xmm0  # xmm0 = mem[0],zero
	vmovsd	Wp, %xmm1               # xmm1 = mem[0],zero
	vcvtsi2sdl	R, %xmm0, %xmm2
	vmulsd	%xmm2, %xmm1, %xmm1
	vcvtsi2sdl	Np, %xmm0, %xmm2
	vmulsd	Wp, %xmm2, %xmm2
	vcvtsi2sdl	Nb, %xmm0, %xmm3
	vmulsd	Wb, %xmm3, %xmm3
	vaddsd	%xmm3, %xmm2, %xmm2
	vdivsd	%xmm2, %xmm1, %xmm1
	vaddsd	%xmm0, %xmm1, %xmm1
	vroundsd	$9, %xmm1, %xmm0, %xmm1
	vcvttsd2si	%xmm1, %ecx
	movslq	%ecx, %rcx
	movq	%rcx, T
	vmovsd	bit_rate, %xmm1         # xmm1 = mem[0],zero
	vdivsd	frame_rate, %xmm1, %xmm1
	vmovsd	GAMMAP, %xmm2           # xmm2 = mem[0],zero
	vmovsd	CurrentBufferFullness, %xmm3 # xmm3 = mem[0],zero
	vsubsd	TargetBufferLevel, %xmm3, %xmm3
	vmulsd	%xmm3, %xmm2, %xmm2
	vsubsd	%xmm2, %xmm1, %xmm1
	vaddsd	%xmm0, %xmm1, %xmm0
	vroundsd	$9, %xmm0, %xmm0, %xmm0
	vcvttsd2si	%xmm0, %ecx
	movslq	%ecx, %rcx
	movq	%rcx, T1
	cmpq	T1, %rax
	jge	.LBB23_89
# %bb.88:                               # %cond.true289
	movq	T1, %rax
	jmp	.LBB23_90
.LBB23_89:                              # %cond.false290
	xorl	%eax, %eax
	jmp	.LBB23_90
.LBB23_90:                              # %cond.end291
	vmovsd	.LCPI23_1(%rip), %xmm0  # xmm0 = mem[0],zero
	vmovsd	.LCPI23_4(%rip), %xmm1  # xmm1 = mem[0],zero
	movq	%rax, T1
	vmovsd	BETAP, %xmm2            # xmm2 = mem[0],zero
	vcvtsi2sdq	T, %xmm0, %xmm3
	vmulsd	%xmm3, %xmm2, %xmm2
	vsubsd	BETAP, %xmm1, %xmm1
	vcvtsi2sdq	T1, %xmm0, %xmm3
	vmulsd	%xmm3, %xmm1, %xmm1
	vaddsd	%xmm1, %xmm2, %xmm1
	vaddsd	%xmm0, %xmm1, %xmm0
	vroundsd	$9, %xmm0, %xmm0, %xmm0
	vcvttsd2si	%xmm0, %eax
	cltq
	movq	%rax, T
	jmp	.LBB23_97
.LBB23_91:                              # %if.else302
	movq	img, %rax
	cmpl	$1, 72568(%rax)
	jle	.LBB23_96
# %bb.92:                               # %if.then306
	xorl	%eax, %eax
	vmovsd	.LCPI23_1(%rip), %xmm0  # xmm0 = mem[0],zero
	vmovsd	Wp, %xmm1               # xmm1 = mem[0],zero
	vcvtsi2sdl	R, %xmm0, %xmm2
	vmulsd	%xmm2, %xmm1, %xmm1
	vcvtsi2sdl	Np, %xmm0, %xmm2
	vmulsd	Wp, %xmm2, %xmm2
	vcvtsi2sdl	Nb, %xmm0, %xmm3
	vmulsd	Wb, %xmm3, %xmm3
	vaddsd	%xmm3, %xmm2, %xmm2
	vdivsd	%xmm2, %xmm1, %xmm1
	vaddsd	%xmm0, %xmm1, %xmm1
	vroundsd	$9, %xmm1, %xmm0, %xmm1
	vcvttsd2si	%xmm1, %rcx
	movq	%rcx, T
	vmovsd	bit_rate, %xmm1         # xmm1 = mem[0],zero
	vdivsd	frame_rate, %xmm1, %xmm1
	vmovsd	GAMMAP, %xmm2           # xmm2 = mem[0],zero
	vmovsd	CurrentBufferFullness, %xmm3 # xmm3 = mem[0],zero
	vsubsd	TargetBufferLevel, %xmm3, %xmm3
	vmulsd	%xmm3, %xmm2, %xmm2
	vsubsd	%xmm2, %xmm1, %xmm1
	vaddsd	%xmm0, %xmm1, %xmm0
	vroundsd	$9, %xmm0, %xmm0, %xmm0
	vcvttsd2si	%xmm0, %rcx
	movq	%rcx, T1
	cmpq	T1, %rax
	jge	.LBB23_94
# %bb.93:                               # %cond.true325
	movq	T1, %rax
	jmp	.LBB23_95
.LBB23_94:                              # %cond.false326
	xorl	%eax, %eax
	jmp	.LBB23_95
.LBB23_95:                              # %cond.end327
	vmovsd	.LCPI23_1(%rip), %xmm0  # xmm0 = mem[0],zero
	vmovsd	.LCPI23_4(%rip), %xmm1  # xmm1 = mem[0],zero
	movq	%rax, T1
	vmovsd	BETAP, %xmm2            # xmm2 = mem[0],zero
	vcvtsi2sdq	T, %xmm0, %xmm3
	vmulsd	%xmm3, %xmm2, %xmm2
	vsubsd	BETAP, %xmm1, %xmm1
	vcvtsi2sdq	T1, %xmm0, %xmm3
	vmulsd	%xmm3, %xmm1, %xmm1
	vaddsd	%xmm1, %xmm2, %xmm1
	vaddsd	%xmm0, %xmm1, %xmm0
	vroundsd	$9, %xmm0, %xmm0, %xmm0
	vcvttsd2si	%xmm0, %rax
	movq	%rax, T
.LBB23_96:                              # %if.end337
	jmp	.LBB23_97
.LBB23_97:                              # %if.end338
	jmp	.LBB23_98
.LBB23_98:                              # %if.end339
	vmovsd	.LCPI23_4(%rip), %xmm0  # xmm0 = mem[0],zero
	movq	input, %rax
	vcvtsi2sdl	1236(%rax), %xmm0, %xmm1
	vxorps	%xmm2, %xmm2, %xmm2
	vmulsd	%xmm1, %xmm2, %xmm1
	vsubsd	%xmm1, %xmm0, %xmm0
	vcvtsi2sdq	T, %xmm0, %xmm1
	vmulsd	%xmm1, %xmm0, %xmm0
	vcvttsd2si	%xmm0, %rax
	movq	%rax, T
	movq	T, %rax
	cmpq	LowerBound, %rax
	jge	.LBB23_100
# %bb.99:                               # %cond.true349
	movq	LowerBound, %rax
	jmp	.LBB23_101
.LBB23_100:                             # %cond.false350
	movq	T, %rax
.LBB23_101:                             # %cond.end351
	movq	%rax, T
	movq	T, %rax
	cmpq	UpperBound2, %rax
	jge	.LBB23_103
# %bb.102:                              # %cond.true355
	movq	T, %rax
	jmp	.LBB23_104
.LBB23_103:                             # %cond.false356
	movq	UpperBound2, %rax
.LBB23_104:                             # %cond.end357
	movq	%rax, T
	cmpl	$0, -8(%rbp)
	jne	.LBB23_108
# %bb.105:                              # %lor.lhs.false360
	cmpl	$0, -12(%rbp)
	je	.LBB23_109
# %bb.106:                              # %land.lhs.true362
	movq	input, %rax
	cmpl	$2, 2880(%rax)
	je	.LBB23_108
# %bb.107:                              # %lor.lhs.false366
	movq	input, %rax
	cmpl	$0, 2884(%rax)
	je	.LBB23_109
.LBB23_108:                             # %if.then369
	movq	T, %rax
	movl	%eax, T_field
.LBB23_109:                             # %if.end371
	jmp	.LBB23_110
.LBB23_110:                             # %if.end372
	jmp	.LBB23_111
.LBB23_111:                             # %if.end373
	cmpl	$0, -12(%rbp)
	jne	.LBB23_113
# %bb.112:                              # %lor.lhs.false375
	cmpl	$0, -8(%rbp)
	je	.LBB23_119
.LBB23_113:                             # %if.then377
	movq	img, %rax
	movl	$0, 72524(%rax)
	movq	img, %rax
	movl	$0, 72528(%rax)
	movq	img, %rax
	movl	72620(%rax), %eax
	movq	img, %rcx
	cmpl	72608(%rcx), %eax
	jge	.LBB23_118
# %bb.114:                              # %if.then382
	movl	$0, TotalFrameQP
	movq	img, %rax
	movl	$0, 72532(%rax)
	movq	img, %rax
	movl	$0, 72536(%rax)
	movq	img, %rax
	vxorps	%xmm0, %xmm0, %xmm0
	vmovsd	%xmm0, 72544(%rax)
	movq	img, %rax
	cmpl	$0, 72600(%rax)
	jne	.LBB23_116
# %bb.115:                              # %if.then386
	movl	TotalNumberofBasicUnit, %eax
	movl	%eax, NumberofBasicUnit
	jmp	.LBB23_117
.LBB23_116:                             # %if.else387
	movl	TotalNumberofBasicUnit, %eax
	cltd
	movl	$2, %ecx
	idivl	%ecx
	movl	%eax, NumberofBasicUnit
.LBB23_117:                             # %if.end389
	jmp	.LBB23_118
.LBB23_118:                             # %if.end390
	jmp	.LBB23_119
.LBB23_119:                             # %if.end391
	movq	img, %rax
	cmpl	$0, 24(%rax)
	jne	.LBB23_126
# %bb.120:                              # %land.lhs.true395
	movq	img, %rax
	movl	72620(%rax), %eax
	movq	img, %rcx
	cmpl	72608(%rcx), %eax
	jge	.LBB23_126
# %bb.121:                              # %land.lhs.true400
	movq	img, %rax
	cmpl	$1, 72600(%rax)
	jne	.LBB23_126
# %bb.122:                              # %if.then404
	cmpl	$0, -8(%rbp)
	je	.LBB23_124
# %bb.123:                              # %if.then406
	vmovsd	.LCPI23_5(%rip), %xmm0  # xmm0 = mem[0],zero
	movl	$0, bits_topfield
	vcvtsi2sdl	T_field, %xmm0, %xmm1
	vmulsd	%xmm0, %xmm1, %xmm0
	vcvttsd2si	%xmm0, %rax
	movq	%rax, T
	jmp	.LBB23_125
.LBB23_124:                             # %if.else410
	movl	T_field, %eax
	subl	bits_topfield, %eax
	cltq
	movq	%rax, T
	movq	img, %rax
	movl	$0, 72532(%rax)
	movq	img, %rax
	movl	$0, 72536(%rax)
	movq	img, %rax
	vxorps	%xmm0, %xmm0, %xmm0
	vmovsd	%xmm0, 72544(%rax)
	movl	TotalNumberofBasicUnit, %eax
	cltd
	movl	$2, %ecx
	idivl	%ecx
	movl	%eax, NumberofBasicUnit
.LBB23_125:                             # %if.end417
	jmp	.LBB23_126
.LBB23_126:                             # %if.end418
	cmpl	$1540043883, -20(%rbp)  # imm = 0x5BCB346B
	jne	.LBB23_128
.LBB23_127:
	addq	$32, %rsp
	popq	%rbp
	.cfi_def_cfa %rsp, 8
	retq
.LBB23_128:                             # %func_exit
	.cfi_def_cfa %rbp, 16
	callq	detect_breach
	jmp	.LBB23_127
.Lfunc_end23:
	.size	rc_init_pict.7, .Lfunc_end23-rc_init_pict.7
	.cfi_endproc
                                        # -- End function
	.section	.rodata.cst8,"aM",@progbits,8
	.p2align	3               # -- Begin function Qstep2QP.8
.LCPI24_0:
	.quad	4604086194056200192     # double 0.65625
.LCPI24_1:
	.quad	4604930618986332160     # double 0.75
.LCPI24_2:
	.quad	4605775043916464128     # double 0.84375
.LCPI24_3:
	.quad	4606619468846596096     # double 0.9375
.LCPI24_4:
	.quad	4607463893776728064     # double 1.0625
.LCPI24_5:
	.quad	4607745368753438720     # double 1.125
.LCPI24_6:
	.quad	4607182418800017408     # double 1
.LCPI24_7:
	.quad	4606056518893174784     # double 0.875
.LCPI24_8:
	.quad	4605493568939753472     # double 0.8125
.LCPI24_9:
	.quad	4604367669032910848     # double 0.6875
.LCPI24_10:
	.quad	4603804719079489536     # double 0.625
.LCPI24_11:
	.quad	4611686018427387904     # double 2
	.text
	.globl	Qstep2QP.8
	.p2align	4, 0x90
	.type	Qstep2QP.8,@function
Qstep2QP.8:                             # @Qstep2QP.8
	.cfi_startproc
# %bb.0:                                # %entry
	pushq	%rbp
	.cfi_def_cfa_offset 16
	.cfi_offset %rbp, -16
	movq	%rsp, %rbp
	.cfi_def_cfa_register %rbp
	pushq	%rbx
	subq	$56, %rsp
	.cfi_offset %rbx, -24
	movl	$684106023, -32(%rbp)   # imm = 0x28C6A127
	vmovsd	%xmm0, -16(%rbp)
	movl	$0, -24(%rbp)
	movl	$0, -20(%rbp)
	vmovsd	-16(%rbp), %xmm0        # xmm0 = mem[0],zero
	vmovsd	%xmm0, -40(%rbp)        # 8-byte Spill
	xorl	%edi, %edi
	callq	QP2Qstep
	vucomisd	-40(%rbp), %xmm0 # 8-byte Folded Reload
	jbe	.LBB24_2
# %bb.1:                                # %if.then
	movl	$0, -28(%rbp)
	jmp	.LBB24_24
.LBB24_2:                               # %if.else
	vmovsd	-16(%rbp), %xmm0        # xmm0 = mem[0],zero
	vmovsd	%xmm0, -56(%rbp)        # 8-byte Spill
	movl	$51, %edi
	callq	QP2Qstep
	vmovsd	-56(%rbp), %xmm1        # 8-byte Reload
                                        # xmm1 = mem[0],zero
	vucomisd	%xmm0, %xmm1
	jbe	.LBB24_4
# %bb.3:                                # %if.then3
	movl	$51, -28(%rbp)
	jmp	.LBB24_24
.LBB24_4:                               # %if.end
	jmp	.LBB24_5
.LBB24_5:                               # %if.end4
	jmp	.LBB24_6
.LBB24_6:                               # %while.cond
                                        # =>This Inner Loop Header: Depth=1
	vmovsd	-16(%rbp), %xmm0        # xmm0 = mem[0],zero
	vmovsd	%xmm0, -48(%rbp)        # 8-byte Spill
	movl	$5, %edi
	callq	QP2Qstep
	vmovsd	-48(%rbp), %xmm1        # 8-byte Reload
                                        # xmm1 = mem[0],zero
	vucomisd	%xmm0, %xmm1
	jbe	.LBB24_8
# %bb.7:                                # %while.body
                                        #   in Loop: Header=BB24_6 Depth=1
	vmovsd	.LCPI24_11(%rip), %xmm0 # xmm0 = mem[0],zero
	vmovsd	-16(%rbp), %xmm1        # xmm1 = mem[0],zero
	vdivsd	%xmm0, %xmm1, %xmm0
	vmovsd	%xmm0, -16(%rbp)
	movl	-24(%rbp), %eax
	addl	$1, %eax
	movl	%eax, -24(%rbp)
	jmp	.LBB24_6
.LBB24_8:                               # %while.end
	vmovsd	.LCPI24_0(%rip), %xmm0  # xmm0 = mem[0],zero
	vucomisd	-16(%rbp), %xmm0
	jb	.LBB24_10
# %bb.9:                                # %if.then8
	vmovsd	.LCPI24_10(%rip), %xmm0 # xmm0 = mem[0],zero
	vmovsd	%xmm0, -16(%rbp)
	movl	$0, -20(%rbp)
	jmp	.LBB24_23
.LBB24_10:                              # %if.else9
	vmovsd	.LCPI24_1(%rip), %xmm0  # xmm0 = mem[0],zero
	vucomisd	-16(%rbp), %xmm0
	jb	.LBB24_12
# %bb.11:                               # %if.then11
	vmovsd	.LCPI24_9(%rip), %xmm0  # xmm0 = mem[0],zero
	vmovsd	%xmm0, -16(%rbp)
	movl	$1, -20(%rbp)
	jmp	.LBB24_22
.LBB24_12:                              # %if.else12
	vmovsd	.LCPI24_2(%rip), %xmm0  # xmm0 = mem[0],zero
	vucomisd	-16(%rbp), %xmm0
	jb	.LBB24_14
# %bb.13:                               # %if.then14
	vmovsd	.LCPI24_8(%rip), %xmm0  # xmm0 = mem[0],zero
	vmovsd	%xmm0, -16(%rbp)
	movl	$2, -20(%rbp)
	jmp	.LBB24_21
.LBB24_14:                              # %if.else15
	vmovsd	.LCPI24_3(%rip), %xmm0  # xmm0 = mem[0],zero
	vucomisd	-16(%rbp), %xmm0
	jb	.LBB24_16
# %bb.15:                               # %if.then17
	vmovsd	.LCPI24_7(%rip), %xmm0  # xmm0 = mem[0],zero
	vmovsd	%xmm0, -16(%rbp)
	movl	$3, -20(%rbp)
	jmp	.LBB24_20
.LBB24_16:                              # %if.else18
	vmovsd	.LCPI24_4(%rip), %xmm0  # xmm0 = mem[0],zero
	vucomisd	-16(%rbp), %xmm0
	jb	.LBB24_18
# %bb.17:                               # %if.then20
	vmovsd	.LCPI24_6(%rip), %xmm0  # xmm0 = mem[0],zero
	vmovsd	%xmm0, -16(%rbp)
	movl	$4, -20(%rbp)
	jmp	.LBB24_19
.LBB24_18:                              # %if.else21
	vmovsd	.LCPI24_5(%rip), %xmm0  # xmm0 = mem[0],zero
	vmovsd	%xmm0, -16(%rbp)
	movl	$5, -20(%rbp)
.LBB24_19:                              # %if.end22
	jmp	.LBB24_20
.LBB24_20:                              # %if.end23
	jmp	.LBB24_21
.LBB24_21:                              # %if.end24
	jmp	.LBB24_22
.LBB24_22:                              # %if.end25
	jmp	.LBB24_23
.LBB24_23:                              # %if.end26
	imull	$6, -24(%rbp), %eax
	addl	-20(%rbp), %eax
	movl	%eax, -28(%rbp)
.LBB24_24:                              # %return
	movl	-28(%rbp), %ebx
	cmpl	$684106023, -32(%rbp)   # imm = 0x28C6A127
	jne	.LBB24_26
.LBB24_25:
	movl	%ebx, %eax
	addq	$56, %rsp
	popq	%rbx
	popq	%rbp
	.cfi_def_cfa %rsp, 8
	retq
.LBB24_26:                              # %func_exit
	.cfi_def_cfa %rbp, 16
	callq	detect_breach
	jmp	.LBB24_25
.Lfunc_end24:
	.size	Qstep2QP.8, .Lfunc_end24-Qstep2QP.8
	.cfi_endproc
                                        # -- End function
	.section	.rodata.cst8,"aM",@progbits,8
	.p2align	3               # -- Begin function rc_update_pict_frame.9
.LCPI25_0:
	.quad	4602678819172646912     # double 0.5
.LCPI25_1:
	.quad	4608819927624529320     # double 1.3635999999999999
	.text
	.globl	rc_update_pict_frame.9
	.p2align	4, 0x90
	.type	rc_update_pict_frame.9,@function
rc_update_pict_frame.9:                 # @rc_update_pict_frame.9
	.cfi_startproc
# %bb.0:                                # %entry
	pushq	%rbp
	.cfi_def_cfa_offset 16
	.cfi_offset %rbp, -16
	movq	%rsp, %rbp
	.cfi_def_cfa_register %rbp
	subq	$16, %rsp
	movl	$978939902, -12(%rbp)   # imm = 0x3A596FFE
	movl	%edi, -8(%rbp)
	movl	$0, -4(%rbp)
	movq	img, %rax
	movl	72620(%rax), %eax
	movq	img, %rcx
	cmpl	72608(%rcx), %eax
	jne	.LBB25_2
# %bb.1:                                # %if.then
	vmovsd	.LCPI25_0(%rip), %xmm0  # xmm0 = mem[0],zero
	movl	-8(%rbp), %eax
	imull	m_Qc, %eax
	vcvtsi2sd	%eax, %xmm0, %xmm1
	vaddsd	%xmm0, %xmm1, %xmm0
	vroundsd	$9, %xmm0, %xmm0, %xmm0
	vcvttsd2si	%xmm0, %eax
	movl	%eax, -4(%rbp)
	jmp	.LBB25_12
.LBB25_2:                               # %if.else
	movq	img, %rax
	cmpl	$0, 24(%rax)
	jne	.LBB25_8
# %bb.3:                                # %if.then4
	movq	img, %rax
	cmpl	$0, 72612(%rax)
	jne	.LBB25_5
# %bb.4:                                # %land.lhs.true
	movq	img, %rax
	cmpl	$1, 72600(%rax)
	je	.LBB25_6
.LBB25_5:                               # %lor.lhs.false
	movq	img, %rax
	cmpl	$0, 72600(%rax)
	jne	.LBB25_7
.LBB25_6:                               # %if.then12
	vmovsd	.LCPI25_0(%rip), %xmm0  # xmm0 = mem[0],zero
	movl	TotalFrameQP, %eax
	cltd
	idivl	TotalNumberofBasicUnit
	movl	%eax, -16(%rbp)
	movl	-8(%rbp), %eax
	imull	-16(%rbp), %eax
	vcvtsi2sd	%eax, %xmm0, %xmm1
	vaddsd	%xmm0, %xmm1, %xmm0
	vroundsd	$9, %xmm0, %xmm0, %xmm0
	vcvttsd2si	%xmm0, %eax
	movl	%eax, -4(%rbp)
.LBB25_7:                               # %if.end
	jmp	.LBB25_11
.LBB25_8:                               # %if.else17
	movq	img, %rax
	cmpl	$1, 24(%rax)
	jne	.LBB25_10
# %bb.9:                                # %if.then21
	vmovsd	.LCPI25_0(%rip), %xmm0  # xmm0 = mem[0],zero
	movl	-8(%rbp), %eax
	imull	m_Qc, %eax
	vcvtsi2sd	%eax, %xmm0, %xmm1
	vaddsd	%xmm0, %xmm1, %xmm0
	vroundsd	$9, %xmm0, %xmm0, %xmm0
	vcvttsd2si	%xmm0, %eax
	movl	%eax, -4(%rbp)
.LBB25_10:                              # %if.end26
	jmp	.LBB25_11
.LBB25_11:                              # %if.end27
	jmp	.LBB25_12
.LBB25_12:                              # %if.end28
	movq	img(%rip), %rax
	movl	24(%rax), %eax
	testl	%eax, %eax
	je	.LBB25_14
	jmp	.LBB25_13
.LBB25_13:                              # %if.end28
	subl	$1, %eax
	je	.LBB25_23
	jmp	.LBB25_24
.LBB25_14:                              # %sw.bb
	movq	img, %rax
	cmpl	$0, 72612(%rax)
	jne	.LBB25_16
# %bb.15:                               # %land.lhs.true33
	movq	img, %rax
	cmpl	$1, 72600(%rax)
	je	.LBB25_17
.LBB25_16:                              # %lor.lhs.false37
	movq	img, %rax
	cmpl	$0, 72600(%rax)
	jne	.LBB25_18
.LBB25_17:                              # %if.then41
	movl	-4(%rbp), %eax
	movl	%eax, Xp
	movl	Np, %eax
	addl	$-1, %eax
	movl	%eax, Np
	vcvtsi2sdl	Xp, %xmm0, %xmm0
	vmovsd	%xmm0, Wp
	movq	img, %rax
	movl	72524(%rax), %eax
	movl	%eax, Pm_Hp
	movq	img, %rax
	movl	72564(%rax), %ecx
	addl	$1, %ecx
	movl	%ecx, 72564(%rax)
	movq	img, %rax
	movl	72576(%rax), %ecx
	addl	$1, %ecx
	movl	%ecx, 72576(%rax)
	jmp	.LBB25_22
.LBB25_18:                              # %if.else44
	movq	img, %rax
	cmpl	$0, 72612(%rax)
	je	.LBB25_21
# %bb.19:                               # %land.lhs.true48
	movq	img, %rax
	cmpl	$1, 72600(%rax)
	jne	.LBB25_21
# %bb.20:                               # %if.then52
	movq	img, %rax
	movl	$0, 72612(%rax)
.LBB25_21:                              # %if.end54
	jmp	.LBB25_22
.LBB25_22:                              # %if.end55
	jmp	.LBB25_24
.LBB25_23:                              # %sw.bb56
	vmovsd	.LCPI25_1(%rip), %xmm0  # xmm0 = mem[0],zero
	movl	-4(%rbp), %eax
	movl	%eax, Xb
	movl	Nb, %eax
	addl	$-1, %eax
	movl	%eax, Nb
	vcvtsi2sdl	Xb, %xmm0, %xmm1
	vdivsd	%xmm0, %xmm1, %xmm0
	vmovsd	%xmm0, Wb
	movq	img, %rax
	movl	72560(%rax), %ecx
	addl	$1, %ecx
	movl	%ecx, 72560(%rax)
	movl	NumberofBFrames, %eax
	addl	$1, %eax
	movl	%eax, NumberofBFrames
.LBB25_24:                              # %sw.epilog
	cmpl	$978939902, -12(%rbp)   # imm = 0x3A596FFE
	jne	.LBB25_26
.LBB25_25:
	addq	$16, %rsp
	popq	%rbp
	.cfi_def_cfa %rsp, 8
	retq
.LBB25_26:                              # %func_exit
	.cfi_def_cfa %rbp, 16
	callq	detect_breach
	jmp	.LBB25_25
.Lfunc_end25:
	.size	rc_update_pict_frame.9, .Lfunc_end25-rc_update_pict_frame.9
	.cfi_endproc
                                        # -- End function
	.section	.rodata.cst8,"aM",@progbits,8
	.p2align	3               # -- Begin function rc_init_seq.10
.LCPI26_0:
	.quad	4605380978949069210     # double 0.80000000000000004
.LCPI26_1:
	.quad	4612947026323051643     # double 2.5600000000000001
.LCPI26_2:
	.quad	4616189618054758400     # double 4
.LCPI26_3:
	.quad	4602678819172646912     # double 0.5
.LCPI26_4:
	.quad	4606281698874543309     # double 0.90000000000000002
.LCPI26_5:
	.quad	4598175219545276416     # double 0.25
.LCPI26_6:
	.quad	4607182418800017408     # double 1
.LCPI26_7:
	.quad	4612586738352862003     # double 2.3999999999999999
.LCPI26_8:
	.quad	4608983858650965606     # double 1.3999999999999999
.LCPI26_9:
	.quad	4603579539098121011     # double 0.59999999999999998
.LCPI26_10:
	.quad	4608083138725491507     # double 1.2
.LCPI26_11:
	.quad	4596373779694328218     # double 0.20000000000000001
.LCPI26_12:
	.quad	4599075939470750515     # double 0.29999999999999999
.LCPI26_13:
	.quad	4591870180066957722     # double 0.10000000000000001
	.text
	.globl	rc_init_seq.10
	.p2align	4, 0x90
	.type	rc_init_seq.10,@function
rc_init_seq.10:                         # @rc_init_seq.10
	.cfi_startproc
# %bb.0:                                # %entry
	pushq	%rbp
	.cfi_def_cfa_offset 16
	.cfi_offset %rbp, -16
	movq	%rsp, %rbp
	.cfi_def_cfa_register %rbp
	subq	$48, %rsp
	movl	$1513968720, -44(%rbp)  # imm = 0x5A3D5450
	movl	$0, Xp
	movl	$0, Xb
	movq	input, %rax
	vcvtsi2sdl	3240(%rax), %xmm0, %xmm0
	vmovsd	%xmm0, bit_rate
	movq	img, %rax
	vmovss	48(%rax), %xmm0         # xmm0 = mem[0],zero,zero,zero
	movq	input, %rax
	movl	1236(%rax), %eax
	addl	$1, %eax
	vcvtsi2ss	%eax, %xmm0, %xmm1
	vmulss	%xmm1, %xmm0, %xmm0
	movq	input, %rax
	movl	20(%rax), %eax
	addl	$1, %eax
	vcvtsi2ss	%eax, %xmm0, %xmm1
	vdivss	%xmm1, %xmm0, %xmm0
	vcvtss2sd	%xmm0, %xmm0, %xmm0
	vmovsd	%xmm0, frame_rate
	vmovsd	bit_rate, %xmm0         # xmm0 = mem[0],zero
	vmovsd	%xmm0, PreviousBit_Rate
	movq	img, %rax
	movl	60(%rax), %eax
	movq	img, %rcx
	imull	52(%rcx), %eax
	cltd
	movl	$256, %ecx              # imm = 0x100
	idivl	%ecx
	movq	img, %rcx
	movl	%eax, 72608(%rcx)
	movq	input, %rax
	movl	3248(%rax), %eax
	movq	img, %rcx
	cmpl	72608(%rcx), %eax
	jle	.LBB26_2
# %bb.1:                                # %if.then
	movq	img, %rax
	movl	72608(%rax), %eax
	movq	input, %rcx
	movl	%eax, 3248(%rcx)
.LBB26_2:                               # %if.end
	movq	input, %rax
	movl	3248(%rax), %eax
	movq	img, %rcx
	cmpl	72608(%rcx), %eax
	jge	.LBB26_4
# %bb.3:                                # %if.then15
	movq	img, %rax
	movl	72608(%rax), %eax
	movq	input, %rcx
	cltd
	idivl	3248(%rcx)
	movl	%eax, TotalNumberofBasicUnit
.LBB26_4:                               # %if.end19
	vmovsd	.LCPI26_0(%rip), %xmm0  # xmm0 = mem[0],zero
	vmovsd	.LCPI26_1(%rip), %xmm1  # xmm1 = mem[0],zero
	vmovsd	.LCPI26_2(%rip), %xmm2  # xmm2 = mem[0],zero
	vmovsd	%xmm2, MINVALUE
	vmulsd	bit_rate, %xmm1, %xmm1
	vmovsd	%xmm1, BufferSize
	vxorps	%xmm1, %xmm1, %xmm1
	vmovsd	%xmm1, CurrentBufferFullness
	vmovsd	CurrentBufferFullness, %xmm1 # xmm1 = mem[0],zero
	vmovsd	%xmm1, GOPTargetBufferLevel
	vmulsd	BufferSize, %xmm0, %xmm0
	vmovsd	%xmm0, InitialDelayOffset
	movl	$0, m_windowSize
	movl	$0, MADm_windowSize
	movq	img, %rax
	movl	$0, 72560(%rax)
	movq	img, %rax
	movl	$0, 72564(%rax)
	movq	img, %rax
	movl	$0, 72568(%rax)
	movl	$0, R
	movq	input, %rax
	cmpl	$0, 1236(%rax)
	jle	.LBB26_6
# %bb.5:                                # %if.then25
	vmovsd	.LCPI26_4(%rip), %xmm0  # xmm0 = mem[0],zero
	vmovsd	.LCPI26_5(%rip), %xmm1  # xmm1 = mem[0],zero
	vmovsd	%xmm1, GAMMAP
	vmovsd	%xmm0, BETAP
	jmp	.LBB26_7
.LBB26_6:                               # %if.else
	vmovsd	.LCPI26_3(%rip), %xmm0  # xmm0 = mem[0],zero
	vmovsd	%xmm0, GAMMAP
	vmovsd	%xmm0, BETAP
.LBB26_7:                               # %if.end26
	vmovsd	.LCPI26_6(%rip), %xmm0  # xmm0 = mem[0],zero
	movl	$0, PPreHeader
	vmulsd	bit_rate, %xmm0, %xmm1
	vmovsd	%xmm1, Pm_X1
	vxorps	%xmm1, %xmm1, %xmm1
	vmovsd	%xmm1, Pm_X2
	vmovsd	%xmm0, PMADPictureC1
	vmovsd	%xmm1, PMADPictureC2
	movl	$0, -4(%rbp)
.LBB26_8:                               # %for.cond
                                        # =>This Inner Loop Header: Depth=1
	cmpl	$20, -4(%rbp)
	jge	.LBB26_11
# %bb.9:                                # %for.body
                                        #   in Loop: Header=BB26_8 Depth=1
	movslq	-4(%rbp), %rax
	vxorps	%xmm0, %xmm0, %xmm0
	vmovsd	%xmm0, Pm_rgQp(,%rax,8)
	movslq	-4(%rbp), %rax
	vmovsd	%xmm0, Pm_rgRp(,%rax,8)
	movslq	-4(%rbp), %rax
	vmovsd	%xmm0, PPictureMAD(,%rax,8)
# %bb.10:                               # %for.inc
                                        #   in Loop: Header=BB26_8 Depth=1
	movl	-4(%rbp), %eax
	addl	$1, %eax
	movl	%eax, -4(%rbp)
	jmp	.LBB26_8
.LBB26_11:                              # %for.end
	vxorps	%xmm0, %xmm0, %xmm0
	vmovsd	%xmm0, PPictureMAD+160
	movl	$2, PDuantQp
	movl	$0, PAveHeaderBits1
	movl	$0, PAveHeaderBits3
	cmpl	$9, TotalNumberofBasicUnit
	jl	.LBB26_13
# %bb.12:                               # %if.then36
	movl	$1, DDquant
	jmp	.LBB26_14
.LBB26_13:                              # %if.else37
	movl	$2, DDquant
.LBB26_14:                              # %if.end38
	vmovsd	.LCPI26_6(%rip), %xmm0  # xmm0 = mem[0],zero
	movq	img, %rax
	movl	52(%rax), %eax
	cltd
	movl	$16, %ecx
	idivl	%ecx
	movl	%eax, MBPerRow
	movq	img, %rax
	movl	$0, 72600(%rax)
	movl	$51, RC_MAX_QUANT
	movl	$0, RC_MIN_QUANT
	vmulsd	bit_rate, %xmm0, %xmm0
	vmovsd	frame_rate, %xmm1       # xmm1 = mem[0],zero
	movq	img, %rax
	vcvtsi2sdl	52(%rax), %xmm0, %xmm2
	vmulsd	%xmm2, %xmm1, %xmm1
	movq	img, %rax
	vcvtsi2sdl	60(%rax), %xmm0, %xmm2
	vmulsd	%xmm2, %xmm1, %xmm1
	vdivsd	%xmm1, %xmm0, %xmm0
	vmovsd	%xmm0, -40(%rbp)
	movq	img, %rax
	cmpl	$176, 52(%rax)
	jne	.LBB26_16
# %bb.15:                               # %if.then52
	vmovsd	.LCPI26_9(%rip), %xmm0  # xmm0 = mem[0],zero
	vmovsd	.LCPI26_12(%rip), %xmm1 # xmm1 = mem[0],zero
	vmovsd	.LCPI26_13(%rip), %xmm2 # xmm2 = mem[0],zero
	vmovsd	%xmm2, -16(%rbp)
	vmovsd	%xmm1, -32(%rbp)
	vmovsd	%xmm0, -24(%rbp)
	jmp	.LBB26_20
.LBB26_16:                              # %if.else53
	movq	img, %rax
	cmpl	$352, 52(%rax)          # imm = 0x160
	jne	.LBB26_18
# %bb.17:                               # %if.then57
	vmovsd	.LCPI26_10(%rip), %xmm0 # xmm0 = mem[0],zero
	vmovsd	.LCPI26_9(%rip), %xmm1  # xmm1 = mem[0],zero
	vmovsd	.LCPI26_11(%rip), %xmm2 # xmm2 = mem[0],zero
	vmovsd	%xmm2, -16(%rbp)
	vmovsd	%xmm1, -32(%rbp)
	vmovsd	%xmm0, -24(%rbp)
	jmp	.LBB26_19
.LBB26_18:                              # %if.else58
	vmovsd	.LCPI26_7(%rip), %xmm0  # xmm0 = mem[0],zero
	vmovsd	.LCPI26_8(%rip), %xmm1  # xmm1 = mem[0],zero
	vmovsd	.LCPI26_9(%rip), %xmm2  # xmm2 = mem[0],zero
	vmovsd	%xmm2, -16(%rbp)
	vmovsd	%xmm1, -32(%rbp)
	vmovsd	%xmm0, -24(%rbp)
.LBB26_19:                              # %if.end59
	jmp	.LBB26_20
.LBB26_20:                              # %if.end60
	movq	input, %rax
	cmpl	$0, 3244(%rax)
	jne	.LBB26_31
# %bb.21:                               # %if.then63
	vmovsd	-40(%rbp), %xmm0        # xmm0 = mem[0],zero
	vmovsd	-16(%rbp), %xmm1        # xmm1 = mem[0],zero
	vucomisd	%xmm0, %xmm1
	jb	.LBB26_23
# %bb.22:                               # %if.then66
	movl	$35, -8(%rbp)
	jmp	.LBB26_30
.LBB26_23:                              # %if.else67
	vmovsd	-40(%rbp), %xmm0        # xmm0 = mem[0],zero
	vmovsd	-32(%rbp), %xmm1        # xmm1 = mem[0],zero
	vucomisd	%xmm0, %xmm1
	jb	.LBB26_25
# %bb.24:                               # %if.then70
	movl	$25, -8(%rbp)
	jmp	.LBB26_29
.LBB26_25:                              # %if.else71
	vmovsd	-40(%rbp), %xmm0        # xmm0 = mem[0],zero
	vmovsd	-24(%rbp), %xmm1        # xmm1 = mem[0],zero
	vucomisd	%xmm0, %xmm1
	jb	.LBB26_27
# %bb.26:                               # %if.then74
	movl	$20, -8(%rbp)
	jmp	.LBB26_28
.LBB26_27:                              # %if.else75
	movl	$10, -8(%rbp)
.LBB26_28:                              # %if.end76
	jmp	.LBB26_29
.LBB26_29:                              # %if.end77
	jmp	.LBB26_30
.LBB26_30:                              # %if.end78
	movl	-8(%rbp), %eax
	movq	input, %rcx
	movl	%eax, 3244(%rcx)
.LBB26_31:                              # %if.end80
	cmpl	$1513968720, -44(%rbp)  # imm = 0x5A3D5450
	jne	.LBB26_33
.LBB26_32:
	addq	$48, %rsp
	popq	%rbp
	.cfi_def_cfa %rsp, 8
	retq
.LBB26_33:                              # %func_exit
	.cfi_def_cfa %rbp, 16
	callq	detect_breach
	jmp	.LBB26_32
.Lfunc_end26:
	.size	rc_init_seq.10, .Lfunc_end26-rc_init_seq.10
	.cfi_endproc
                                        # -- End function
	.section	.rodata.cst8,"aM",@progbits,8
	.p2align	3               # -- Begin function updateRCModel.11
.LCPI27_0:
	.quad	4611686018427387904     # double 2
.LCPI27_1:
	.quad	4602678819172646912     # double 0.5
.LCPI27_2:
	.quad	4607182418800017408     # double 1
.LCPI27_3:
	.quad	4626322717216342016     # double 20
	.section	.rodata.cst16,"aM",@progbits,16
	.p2align	4
.LCPI27_4:
	.quad	9223372036854775807     # double NaN
	.quad	9223372036854775807     # double NaN
	.text
	.globl	updateRCModel.11
	.p2align	4, 0x90
	.type	updateRCModel.11,@function
updateRCModel.11:                       # @updateRCModel.11
	.cfi_startproc
# %bb.0:                                # %entry
	pushq	%rbp
	.cfi_def_cfa_offset 16
	.cfi_offset %rbp, -16
	movq	%rsp, %rbp
	.cfi_def_cfa_register %rbp
	subq	$208, %rsp
	movl	$1522590758, -28(%rbp)  # imm = 0x5AC0E426
	vxorps	%xmm0, %xmm0, %xmm0
	vmovsd	%xmm0, -24(%rbp)
	movl	$0, -16(%rbp)
	movq	img, %rax
	cmpl	$0, 24(%rax)
	jne	.LBB27_68
# %bb.1:                                # %if.then
	movq	img, %rax
	movl	72620(%rax), %eax
	movq	img, %rcx
	cmpl	72608(%rcx), %eax
	jne	.LBB27_3
# %bb.2:                                # %if.then2
	callq	ComputeFrameMAD
	vmovsd	%xmm0, CurrentFrameMAD
	movq	img, %rax
	movl	72564(%rax), %eax
	movl	%eax, -12(%rbp)
	jmp	.LBB27_21
.LBB27_3:                               # %if.else
	movq	input, %rax
	cmpl	$0, 2884(%rax)
	je	.LBB27_6
# %bb.4:                                # %land.lhs.true
	movq	img, %rax
	cmpl	$0, 72600(%rax)
	jne	.LBB27_6
# %bb.5:                                # %if.then4
	vmovsd	.LCPI27_0(%rip), %xmm0  # xmm0 = mem[0],zero
	movq	img, %rax
	vmovsd	72544(%rax), %xmm1      # xmm1 = mem[0],zero
	movq	img, %rax
	vcvtsi2sdl	72620(%rax), %xmm0, %xmm2
	vdivsd	%xmm2, %xmm1, %xmm1
	vdivsd	%xmm0, %xmm1, %xmm0
	vmovsd	%xmm0, CurrentFrameMAD
	jmp	.LBB27_7
.LBB27_6:                               # %if.else7
	movq	img, %rax
	vmovsd	72544(%rax), %xmm0      # xmm0 = mem[0],zero
	movq	img, %rax
	vcvtsi2sdl	72620(%rax), %xmm0, %xmm1
	vdivsd	%xmm1, %xmm0, %xmm0
	vmovsd	%xmm0, CurrentFrameMAD
.LBB27_7:                               # %if.end
	movq	img, %rax
	vxorps	%xmm0, %xmm0, %xmm0
	vmovsd	%xmm0, 72544(%rax)
	movl	TotalNumberofBasicUnit, %eax
	subl	NumberofBasicUnit, %eax
	movl	%eax, CodedBasicUnit
	cmpl	$0, CodedBasicUnit
	jle	.LBB27_12
# %bb.8:                                # %if.then15
	vmovsd	.LCPI27_1(%rip), %xmm0  # xmm0 = mem[0],zero
	vmovsd	.LCPI27_2(%rip), %xmm1  # xmm1 = mem[0],zero
	movl	PAveHeaderBits1, %eax
	movl	CodedBasicUnit, %ecx
	subl	$1, %ecx
	imull	%ecx, %eax
	movq	img, %rcx
	addl	72532(%rcx), %eax
	vcvtsi2sd	%eax, %xmm0, %xmm2
	vmulsd	%xmm2, %xmm1, %xmm1
	vcvtsi2sdl	CodedBasicUnit, %xmm0, %xmm2
	vdivsd	%xmm2, %xmm1, %xmm1
	vaddsd	%xmm0, %xmm1, %xmm0
	vcvttsd2si	%xmm0, %eax
	movl	%eax, PAveHeaderBits1
	cmpl	$0, PAveHeaderBits3
	jne	.LBB27_10
# %bb.9:                                # %if.then25
	movl	PAveHeaderBits1, %eax
	movl	%eax, PAveHeaderBits2
	jmp	.LBB27_11
.LBB27_10:                              # %if.else26
	vmovsd	.LCPI27_1(%rip), %xmm0  # xmm0 = mem[0],zero
	vmovsd	.LCPI27_2(%rip), %xmm1  # xmm1 = mem[0],zero
	movl	PAveHeaderBits1, %eax
	imull	CodedBasicUnit, %eax
	movl	PAveHeaderBits3, %ecx
	imull	NumberofBasicUnit, %ecx
	addl	%ecx, %eax
	vcvtsi2sd	%eax, %xmm0, %xmm2
	vmulsd	%xmm2, %xmm1, %xmm1
	vcvtsi2sdl	TotalNumberofBasicUnit, %xmm0, %xmm2
	vdivsd	%xmm2, %xmm1, %xmm1
	vaddsd	%xmm0, %xmm1, %xmm0
	vcvttsd2si	%xmm0, %eax
	movl	%eax, PAveHeaderBits2
.LBB27_11:                              # %if.end36
	jmp	.LBB27_12
.LBB27_12:                              # %if.end37
	movq	input, %rax
	cmpl	$2, 2880(%rax)
	je	.LBB27_14
# %bb.13:                               # %lor.lhs.false
	movq	input, %rax
	cmpl	$0, 2884(%rax)
	je	.LBB27_16
.LBB27_14:                              # %land.lhs.true42
	movq	img, %rax
	cmpl	$1, 72600(%rax)
	jne	.LBB27_16
# %bb.15:                               # %if.then46
	vmovsd	CurrentFrameMAD, %xmm0  # xmm0 = mem[0],zero
	movq	FCBUCFMAD, %rax
	movl	TotalNumberofBasicUnit, %ecx
	subl	$1, %ecx
	subl	NumberofBasicUnit, %ecx
	movslq	%ecx, %rcx
	vmovsd	%xmm0, (%rax,%rcx,8)
	jmp	.LBB27_17
.LBB27_16:                              # %if.else49
	vmovsd	CurrentFrameMAD, %xmm0  # xmm0 = mem[0],zero
	movq	BUCFMAD, %rax
	movl	TotalNumberofBasicUnit, %ecx
	subl	$1, %ecx
	subl	NumberofBasicUnit, %ecx
	movslq	%ecx, %rcx
	vmovsd	%xmm0, (%rax,%rcx,8)
.LBB27_17:                              # %if.end54
	cmpl	$0, NumberofBasicUnit
	je	.LBB27_19
# %bb.18:                               # %if.then57
	movq	img, %rax
	movl	72564(%rax), %eax
	imull	TotalNumberofBasicUnit, %eax
	addl	CodedBasicUnit, %eax
	movl	%eax, -12(%rbp)
	jmp	.LBB27_20
.LBB27_19:                              # %if.else61
	movq	img, %rax
	movl	72564(%rax), %eax
	subl	$1, %eax
	imull	TotalNumberofBasicUnit, %eax
	addl	CodedBasicUnit, %eax
	movl	%eax, -12(%rbp)
.LBB27_20:                              # %if.end66
	jmp	.LBB27_21
.LBB27_21:                              # %if.end67
	cmpl	$1, -12(%rbp)
	jle	.LBB27_23
# %bb.22:                               # %if.then70
	movl	$1, -16(%rbp)
.LBB27_23:                              # %if.end71
	movq	img, %rax
	movl	72524(%rax), %eax
	movl	%eax, PPreHeader
	movl	$19, -4(%rbp)
.LBB27_24:                              # %for.cond
                                        # =>This Inner Loop Header: Depth=1
	cmpl	$0, -4(%rbp)
	jle	.LBB27_27
# %bb.25:                               # %for.body
                                        #   in Loop: Header=BB27_24 Depth=1
	movl	-4(%rbp), %eax
	subl	$1, %eax
	cltq
	vmovsd	Pm_rgQp(,%rax,8), %xmm0 # xmm0 = mem[0],zero
	movslq	-4(%rbp), %rax
	vmovsd	%xmm0, Pm_rgQp(,%rax,8)
	movslq	-4(%rbp), %rax
	vmovsd	Pm_rgQp(,%rax,8), %xmm0 # xmm0 = mem[0],zero
	movslq	-4(%rbp), %rax
	vmovsd	%xmm0, m_rgQp(,%rax,8)
	movl	-4(%rbp), %eax
	subl	$1, %eax
	cltq
	vmovsd	Pm_rgRp(,%rax,8), %xmm0 # xmm0 = mem[0],zero
	movslq	-4(%rbp), %rax
	vmovsd	%xmm0, Pm_rgRp(,%rax,8)
	movslq	-4(%rbp), %rax
	vmovsd	Pm_rgRp(,%rax,8), %xmm0 # xmm0 = mem[0],zero
	movslq	-4(%rbp), %rax
	vmovsd	%xmm0, m_rgRp(,%rax,8)
# %bb.26:                               # %for.inc
                                        #   in Loop: Header=BB27_24 Depth=1
	movl	-4(%rbp), %eax
	addl	$-1, %eax
	movl	%eax, -4(%rbp)
	jmp	.LBB27_24
.LBB27_27:                              # %for.end
	movl	m_Qc, %edi
	callq	QP2Qstep
	vmovsd	%xmm0, Pm_rgQp
	movq	img, %rax
	movl	72620(%rax), %eax
	movq	img, %rcx
	cmpl	72608(%rcx), %eax
	jne	.LBB27_29
# %bb.28:                               # %if.then97
	vmovsd	.LCPI27_2(%rip), %xmm0  # xmm0 = mem[0],zero
	movq	img, %rax
	vcvtsi2sdl	72528(%rax), %xmm0, %xmm1
	vmulsd	%xmm0, %xmm1, %xmm0
	vdivsd	CurrentFrameMAD, %xmm0, %xmm0
	vmovsd	%xmm0, Pm_rgRp
	jmp	.LBB27_30
.LBB27_29:                              # %if.else101
	vmovsd	.LCPI27_2(%rip), %xmm0  # xmm0 = mem[0],zero
	movq	img, %rax
	vcvtsi2sdl	72536(%rax), %xmm0, %xmm1
	vmulsd	%xmm0, %xmm1, %xmm0
	vdivsd	CurrentFrameMAD, %xmm0, %xmm0
	vmovsd	%xmm0, Pm_rgRp
.LBB27_30:                              # %if.end105
	vmovsd	Pm_rgQp, %xmm0          # xmm0 = mem[0],zero
	vmovsd	%xmm0, m_rgQp
	vmovsd	Pm_rgRp, %xmm0          # xmm0 = mem[0],zero
	vmovsd	%xmm0, m_rgRp
	vmovsd	Pm_X1, %xmm0            # xmm0 = mem[0],zero
	vmovsd	%xmm0, m_X1
	vmovsd	Pm_X2, %xmm0            # xmm0 = mem[0],zero
	vmovsd	%xmm0, m_X2
	vmovsd	CurrentFrameMAD, %xmm0  # xmm0 = mem[0],zero
	vucomisd	PreviousFrameMAD, %xmm0
	jbe	.LBB27_32
# %bb.31:                               # %cond.true
	vmovsd	.LCPI27_3(%rip), %xmm0  # xmm0 = mem[0],zero
	vmovsd	PreviousFrameMAD, %xmm1 # xmm1 = mem[0],zero
	vdivsd	CurrentFrameMAD, %xmm1, %xmm1
	vmulsd	%xmm0, %xmm1, %xmm0
	vcvttsd2si	%xmm0, %eax
	jmp	.LBB27_33
.LBB27_32:                              # %cond.false
	vmovsd	.LCPI27_3(%rip), %xmm0  # xmm0 = mem[0],zero
	vmovsd	CurrentFrameMAD, %xmm1  # xmm1 = mem[0],zero
	vdivsd	PreviousFrameMAD, %xmm1, %xmm1
	vmulsd	%xmm0, %xmm1, %xmm0
	vcvttsd2si	%xmm0, %eax
.LBB27_33:                              # %cond.end
	movl	%eax, -8(%rbp)
	cmpl	$1, -8(%rbp)
	jge	.LBB27_35
# %bb.34:                               # %cond.true116
	movl	$1, %eax
	jmp	.LBB27_36
.LBB27_35:                              # %cond.false117
	movl	-8(%rbp), %eax
.LBB27_36:                              # %cond.end118
	movl	%eax, -8(%rbp)
	movl	-8(%rbp), %eax
	cmpl	-12(%rbp), %eax
	jge	.LBB27_38
# %bb.37:                               # %cond.true122
	movl	-8(%rbp), %eax
	jmp	.LBB27_39
.LBB27_38:                              # %cond.false123
	movl	-12(%rbp), %eax
.LBB27_39:                              # %cond.end124
	movl	%eax, -8(%rbp)
	movl	-8(%rbp), %eax
	movl	m_windowSize, %ecx
	addl	$1, %ecx
	cmpl	%ecx, %eax
	jge	.LBB27_41
# %bb.40:                               # %cond.true129
	movl	-8(%rbp), %eax
	jmp	.LBB27_42
.LBB27_41:                              # %cond.false130
	movl	m_windowSize, %eax
	addl	$1, %eax
.LBB27_42:                              # %cond.end132
	movl	%eax, -8(%rbp)
	cmpl	$20, -8(%rbp)
	jge	.LBB27_44
# %bb.43:                               # %cond.true136
	movl	-8(%rbp), %eax
	jmp	.LBB27_45
.LBB27_44:                              # %cond.false137
	movl	$20, %eax
	jmp	.LBB27_45
.LBB27_45:                              # %cond.end138
	movl	%eax, -8(%rbp)
	movl	-8(%rbp), %eax
	movl	%eax, m_windowSize
	movl	$0, -4(%rbp)
.LBB27_46:                              # %for.cond140
                                        # =>This Inner Loop Header: Depth=1
	cmpl	$20, -4(%rbp)
	jge	.LBB27_49
# %bb.47:                               # %for.body143
                                        #   in Loop: Header=BB27_46 Depth=1
	movslq	-4(%rbp), %rax
	movl	$0, m_rgRejected(,%rax,4)
# %bb.48:                               # %for.inc146
                                        #   in Loop: Header=BB27_46 Depth=1
	movl	-4(%rbp), %eax
	addl	$1, %eax
	movl	%eax, -4(%rbp)
	jmp	.LBB27_46
.LBB27_49:                              # %for.end147
	movl	-8(%rbp), %edi
	callq	RCModelEstimator
	movl	m_windowSize, %eax
	movl	%eax, -8(%rbp)
	movl	$0, -4(%rbp)
.LBB27_50:                              # %for.cond148
                                        # =>This Inner Loop Header: Depth=1
	movl	-4(%rbp), %eax
	cmpl	-8(%rbp), %eax
	jge	.LBB27_53
# %bb.51:                               # %for.body151
                                        #   in Loop: Header=BB27_50 Depth=1
	vmovsd	m_X1, %xmm0             # xmm0 = mem[0],zero
	movslq	-4(%rbp), %rax
	vdivsd	m_rgQp(,%rax,8), %xmm0, %xmm0
	vmovsd	m_X2, %xmm1             # xmm1 = mem[0],zero
	movslq	-4(%rbp), %rax
	vmovsd	m_rgQp(,%rax,8), %xmm2  # xmm2 = mem[0],zero
	movslq	-4(%rbp), %rax
	vmulsd	m_rgQp(,%rax,8), %xmm2, %xmm2
	vdivsd	%xmm2, %xmm1, %xmm1
	vaddsd	%xmm1, %xmm0, %xmm0
	movslq	-4(%rbp), %rax
	vsubsd	m_rgRp(,%rax,8), %xmm0, %xmm0
	movslq	-4(%rbp), %rax
	vmovsd	%xmm0, -208(%rbp,%rax,8)
	movslq	-4(%rbp), %rax
	vmovsd	-208(%rbp,%rax,8), %xmm0 # xmm0 = mem[0],zero
	movslq	-4(%rbp), %rax
	vmulsd	-208(%rbp,%rax,8), %xmm0, %xmm0
	vaddsd	-24(%rbp), %xmm0, %xmm0
	vmovsd	%xmm0, -24(%rbp)
# %bb.52:                               # %for.inc173
                                        #   in Loop: Header=BB27_50 Depth=1
	movl	-4(%rbp), %eax
	addl	$1, %eax
	movl	%eax, -4(%rbp)
	jmp	.LBB27_50
.LBB27_53:                              # %for.end175
	cmpl	$2, -8(%rbp)
	jne	.LBB27_55
# %bb.54:                               # %cond.true178
	vxorps	%xmm0, %xmm0, %xmm0
	jmp	.LBB27_56
.LBB27_55:                              # %cond.false179
	vmovsd	-24(%rbp), %xmm0        # xmm0 = mem[0],zero
	vcvtsi2sdl	-8(%rbp), %xmm0, %xmm1
	vdivsd	%xmm1, %xmm0, %xmm0
	callq	sqrt
.LBB27_56:                              # %cond.end183
	vmovsd	%xmm0, -40(%rbp)
	movl	$0, -4(%rbp)
.LBB27_57:                              # %for.cond185
                                        # =>This Inner Loop Header: Depth=1
	movl	-4(%rbp), %eax
	cmpl	-8(%rbp), %eax
	jge	.LBB27_62
# %bb.58:                               # %for.body188
                                        #   in Loop: Header=BB27_57 Depth=1
	movslq	-4(%rbp), %rax
	vmovsd	-208(%rbp,%rax,8), %xmm0 # xmm0 = mem[0],zero
	vmovdqa	.LCPI27_4(%rip), %xmm1  # xmm1 = [NaN,NaN]
	vpand	%xmm1, %xmm0, %xmm0
	vucomisd	-40(%rbp), %xmm0
	jbe	.LBB27_60
# %bb.59:                               # %if.then193
                                        #   in Loop: Header=BB27_57 Depth=1
	movslq	-4(%rbp), %rax
	movl	$1, m_rgRejected(,%rax,4)
.LBB27_60:                              # %if.end196
                                        #   in Loop: Header=BB27_57 Depth=1
	jmp	.LBB27_61
.LBB27_61:                              # %for.inc197
                                        #   in Loop: Header=BB27_57 Depth=1
	movl	-4(%rbp), %eax
	addl	$1, %eax
	movl	%eax, -4(%rbp)
	jmp	.LBB27_57
.LBB27_62:                              # %for.end199
	movl	$0, m_rgRejected
	movl	-8(%rbp), %edi
	callq	RCModelEstimator
	cmpl	$0, -16(%rbp)
	je	.LBB27_64
# %bb.63:                               # %if.then201
	callq	updateMADModel
	jmp	.LBB27_67
.LBB27_64:                              # %if.else202
	movq	img, %rax
	cmpl	$0, 24(%rax)
	jne	.LBB27_66
# %bb.65:                               # %if.then206
	vmovsd	CurrentFrameMAD, %xmm0  # xmm0 = mem[0],zero
	vmovsd	%xmm0, PPictureMAD
.LBB27_66:                              # %if.end207
	jmp	.LBB27_67
.LBB27_67:                              # %if.end208
	jmp	.LBB27_68
.LBB27_68:                              # %if.end209
	cmpl	$1522590758, -28(%rbp)  # imm = 0x5AC0E426
	jne	.LBB27_70
.LBB27_69:
	addq	$208, %rsp
	popq	%rbp
	.cfi_def_cfa %rsp, 8
	retq
.LBB27_70:                              # %func_exit
	.cfi_def_cfa %rbp, 16
	callq	detect_breach
	jmp	.LBB27_69
.Lfunc_end27:
	.size	updateRCModel.11, .Lfunc_end27-updateRCModel.11
	.cfi_endproc
                                        # -- End function
	.section	.rodata.cst8,"aM",@progbits,8
	.p2align	3               # -- Begin function updateRCModel.12
.LCPI28_0:
	.quad	4611686018427387904     # double 2
.LCPI28_1:
	.quad	4602678819172646912     # double 0.5
.LCPI28_2:
	.quad	4607182418800017408     # double 1
.LCPI28_3:
	.quad	4626322717216342016     # double 20
	.section	.rodata.cst16,"aM",@progbits,16
	.p2align	4
.LCPI28_4:
	.quad	9223372036854775807     # double NaN
	.quad	9223372036854775807     # double NaN
	.text
	.globl	updateRCModel.12
	.p2align	4, 0x90
	.type	updateRCModel.12,@function
updateRCModel.12:                       # @updateRCModel.12
	.cfi_startproc
# %bb.0:                                # %entry
	pushq	%rbp
	.cfi_def_cfa_offset 16
	.cfi_offset %rbp, -16
	movq	%rsp, %rbp
	.cfi_def_cfa_register %rbp
	subq	$208, %rsp
	movl	$682748789, -28(%rbp)   # imm = 0x28B1EB75
	vxorps	%xmm0, %xmm0, %xmm0
	vmovsd	%xmm0, -24(%rbp)
	movl	$0, -16(%rbp)
	movq	img, %rax
	cmpl	$0, 24(%rax)
	jne	.LBB28_68
# %bb.1:                                # %if.then
	movq	img, %rax
	movl	72620(%rax), %eax
	movq	img, %rcx
	cmpl	72608(%rcx), %eax
	jne	.LBB28_3
# %bb.2:                                # %if.then2
	callq	ComputeFrameMAD
	vmovsd	%xmm0, CurrentFrameMAD
	movq	img, %rax
	movl	72564(%rax), %eax
	movl	%eax, -12(%rbp)
	jmp	.LBB28_21
.LBB28_3:                               # %if.else
	movq	input, %rax
	cmpl	$0, 2884(%rax)
	je	.LBB28_6
# %bb.4:                                # %land.lhs.true
	movq	img, %rax
	cmpl	$0, 72600(%rax)
	jne	.LBB28_6
# %bb.5:                                # %if.then4
	vmovsd	.LCPI28_0(%rip), %xmm0  # xmm0 = mem[0],zero
	movq	img, %rax
	vmovsd	72544(%rax), %xmm1      # xmm1 = mem[0],zero
	movq	img, %rax
	vcvtsi2sdl	72620(%rax), %xmm0, %xmm2
	vdivsd	%xmm2, %xmm1, %xmm1
	vdivsd	%xmm0, %xmm1, %xmm0
	vmovsd	%xmm0, CurrentFrameMAD
	jmp	.LBB28_7
.LBB28_6:                               # %if.else7
	movq	img, %rax
	vmovsd	72544(%rax), %xmm0      # xmm0 = mem[0],zero
	movq	img, %rax
	vcvtsi2sdl	72620(%rax), %xmm0, %xmm1
	vdivsd	%xmm1, %xmm0, %xmm0
	vmovsd	%xmm0, CurrentFrameMAD
.LBB28_7:                               # %if.end
	movq	img, %rax
	vxorps	%xmm0, %xmm0, %xmm0
	vmovsd	%xmm0, 72544(%rax)
	movl	TotalNumberofBasicUnit, %eax
	subl	NumberofBasicUnit, %eax
	movl	%eax, CodedBasicUnit
	cmpl	$0, CodedBasicUnit
	jle	.LBB28_12
# %bb.8:                                # %if.then15
	vmovsd	.LCPI28_1(%rip), %xmm0  # xmm0 = mem[0],zero
	vmovsd	.LCPI28_2(%rip), %xmm1  # xmm1 = mem[0],zero
	movl	PAveHeaderBits1, %eax
	movl	CodedBasicUnit, %ecx
	subl	$1, %ecx
	imull	%ecx, %eax
	movq	img, %rcx
	addl	72532(%rcx), %eax
	vcvtsi2sd	%eax, %xmm0, %xmm2
	vmulsd	%xmm2, %xmm1, %xmm1
	vcvtsi2sdl	CodedBasicUnit, %xmm0, %xmm2
	vdivsd	%xmm2, %xmm1, %xmm1
	vaddsd	%xmm0, %xmm1, %xmm0
	vcvttsd2si	%xmm0, %eax
	movl	%eax, PAveHeaderBits1
	cmpl	$0, PAveHeaderBits3
	jne	.LBB28_10
# %bb.9:                                # %if.then25
	movl	PAveHeaderBits1, %eax
	movl	%eax, PAveHeaderBits2
	jmp	.LBB28_11
.LBB28_10:                              # %if.else26
	vmovsd	.LCPI28_1(%rip), %xmm0  # xmm0 = mem[0],zero
	vmovsd	.LCPI28_2(%rip), %xmm1  # xmm1 = mem[0],zero
	movl	PAveHeaderBits1, %eax
	imull	CodedBasicUnit, %eax
	movl	PAveHeaderBits3, %ecx
	imull	NumberofBasicUnit, %ecx
	addl	%ecx, %eax
	vcvtsi2sd	%eax, %xmm0, %xmm2
	vmulsd	%xmm2, %xmm1, %xmm1
	vcvtsi2sdl	TotalNumberofBasicUnit, %xmm0, %xmm2
	vdivsd	%xmm2, %xmm1, %xmm1
	vaddsd	%xmm0, %xmm1, %xmm0
	vcvttsd2si	%xmm0, %eax
	movl	%eax, PAveHeaderBits2
.LBB28_11:                              # %if.end36
	jmp	.LBB28_12
.LBB28_12:                              # %if.end37
	movq	input, %rax
	cmpl	$2, 2880(%rax)
	je	.LBB28_14
# %bb.13:                               # %lor.lhs.false
	movq	input, %rax
	cmpl	$0, 2884(%rax)
	je	.LBB28_16
.LBB28_14:                              # %land.lhs.true42
	movq	img, %rax
	cmpl	$1, 72600(%rax)
	jne	.LBB28_16
# %bb.15:                               # %if.then46
	vmovsd	CurrentFrameMAD, %xmm0  # xmm0 = mem[0],zero
	movq	FCBUCFMAD, %rax
	movl	TotalNumberofBasicUnit, %ecx
	subl	$1, %ecx
	subl	NumberofBasicUnit, %ecx
	movslq	%ecx, %rcx
	vmovsd	%xmm0, (%rax,%rcx,8)
	jmp	.LBB28_17
.LBB28_16:                              # %if.else49
	vmovsd	CurrentFrameMAD, %xmm0  # xmm0 = mem[0],zero
	movq	BUCFMAD, %rax
	movl	TotalNumberofBasicUnit, %ecx
	subl	$1, %ecx
	subl	NumberofBasicUnit, %ecx
	movslq	%ecx, %rcx
	vmovsd	%xmm0, (%rax,%rcx,8)
.LBB28_17:                              # %if.end54
	cmpl	$0, NumberofBasicUnit
	je	.LBB28_19
# %bb.18:                               # %if.then57
	movq	img, %rax
	movl	72564(%rax), %eax
	imull	TotalNumberofBasicUnit, %eax
	addl	CodedBasicUnit, %eax
	movl	%eax, -12(%rbp)
	jmp	.LBB28_20
.LBB28_19:                              # %if.else61
	movq	img, %rax
	movl	72564(%rax), %eax
	subl	$1, %eax
	imull	TotalNumberofBasicUnit, %eax
	addl	CodedBasicUnit, %eax
	movl	%eax, -12(%rbp)
.LBB28_20:                              # %if.end66
	jmp	.LBB28_21
.LBB28_21:                              # %if.end67
	cmpl	$1, -12(%rbp)
	jle	.LBB28_23
# %bb.22:                               # %if.then70
	movl	$1, -16(%rbp)
.LBB28_23:                              # %if.end71
	movq	img, %rax
	movl	72524(%rax), %eax
	movl	%eax, PPreHeader
	movl	$19, -4(%rbp)
.LBB28_24:                              # %for.cond
                                        # =>This Inner Loop Header: Depth=1
	cmpl	$0, -4(%rbp)
	jle	.LBB28_27
# %bb.25:                               # %for.body
                                        #   in Loop: Header=BB28_24 Depth=1
	movl	-4(%rbp), %eax
	subl	$1, %eax
	cltq
	vmovsd	Pm_rgQp(,%rax,8), %xmm0 # xmm0 = mem[0],zero
	movslq	-4(%rbp), %rax
	vmovsd	%xmm0, Pm_rgQp(,%rax,8)
	movslq	-4(%rbp), %rax
	vmovsd	Pm_rgQp(,%rax,8), %xmm0 # xmm0 = mem[0],zero
	movslq	-4(%rbp), %rax
	vmovsd	%xmm0, m_rgQp(,%rax,8)
	movl	-4(%rbp), %eax
	subl	$1, %eax
	cltq
	vmovsd	Pm_rgRp(,%rax,8), %xmm0 # xmm0 = mem[0],zero
	movslq	-4(%rbp), %rax
	vmovsd	%xmm0, Pm_rgRp(,%rax,8)
	movslq	-4(%rbp), %rax
	vmovsd	Pm_rgRp(,%rax,8), %xmm0 # xmm0 = mem[0],zero
	movslq	-4(%rbp), %rax
	vmovsd	%xmm0, m_rgRp(,%rax,8)
# %bb.26:                               # %for.inc
                                        #   in Loop: Header=BB28_24 Depth=1
	movl	-4(%rbp), %eax
	addl	$-1, %eax
	movl	%eax, -4(%rbp)
	jmp	.LBB28_24
.LBB28_27:                              # %for.end
	movl	m_Qc, %edi
	callq	QP2Qstep
	vmovsd	%xmm0, Pm_rgQp
	movq	img, %rax
	movl	72620(%rax), %eax
	movq	img, %rcx
	cmpl	72608(%rcx), %eax
	jne	.LBB28_29
# %bb.28:                               # %if.then97
	vmovsd	.LCPI28_2(%rip), %xmm0  # xmm0 = mem[0],zero
	movq	img, %rax
	vcvtsi2sdl	72528(%rax), %xmm0, %xmm1
	vmulsd	%xmm0, %xmm1, %xmm0
	vdivsd	CurrentFrameMAD, %xmm0, %xmm0
	vmovsd	%xmm0, Pm_rgRp
	jmp	.LBB28_30
.LBB28_29:                              # %if.else101
	vmovsd	.LCPI28_2(%rip), %xmm0  # xmm0 = mem[0],zero
	movq	img, %rax
	vcvtsi2sdl	72536(%rax), %xmm0, %xmm1
	vmulsd	%xmm0, %xmm1, %xmm0
	vdivsd	CurrentFrameMAD, %xmm0, %xmm0
	vmovsd	%xmm0, Pm_rgRp
.LBB28_30:                              # %if.end105
	vmovsd	Pm_rgQp, %xmm0          # xmm0 = mem[0],zero
	vmovsd	%xmm0, m_rgQp
	vmovsd	Pm_rgRp, %xmm0          # xmm0 = mem[0],zero
	vmovsd	%xmm0, m_rgRp
	vmovsd	Pm_X1, %xmm0            # xmm0 = mem[0],zero
	vmovsd	%xmm0, m_X1
	vmovsd	Pm_X2, %xmm0            # xmm0 = mem[0],zero
	vmovsd	%xmm0, m_X2
	vmovsd	CurrentFrameMAD, %xmm0  # xmm0 = mem[0],zero
	vucomisd	PreviousFrameMAD, %xmm0
	jbe	.LBB28_32
# %bb.31:                               # %cond.true
	vmovsd	.LCPI28_3(%rip), %xmm0  # xmm0 = mem[0],zero
	vmovsd	PreviousFrameMAD, %xmm1 # xmm1 = mem[0],zero
	vdivsd	CurrentFrameMAD, %xmm1, %xmm1
	vmulsd	%xmm0, %xmm1, %xmm0
	vcvttsd2si	%xmm0, %eax
	jmp	.LBB28_33
.LBB28_32:                              # %cond.false
	vmovsd	.LCPI28_3(%rip), %xmm0  # xmm0 = mem[0],zero
	vmovsd	CurrentFrameMAD, %xmm1  # xmm1 = mem[0],zero
	vdivsd	PreviousFrameMAD, %xmm1, %xmm1
	vmulsd	%xmm0, %xmm1, %xmm0
	vcvttsd2si	%xmm0, %eax
.LBB28_33:                              # %cond.end
	movl	%eax, -8(%rbp)
	cmpl	$1, -8(%rbp)
	jge	.LBB28_35
# %bb.34:                               # %cond.true116
	movl	$1, %eax
	jmp	.LBB28_36
.LBB28_35:                              # %cond.false117
	movl	-8(%rbp), %eax
.LBB28_36:                              # %cond.end118
	movl	%eax, -8(%rbp)
	movl	-8(%rbp), %eax
	cmpl	-12(%rbp), %eax
	jge	.LBB28_38
# %bb.37:                               # %cond.true122
	movl	-8(%rbp), %eax
	jmp	.LBB28_39
.LBB28_38:                              # %cond.false123
	movl	-12(%rbp), %eax
.LBB28_39:                              # %cond.end124
	movl	%eax, -8(%rbp)
	movl	-8(%rbp), %eax
	movl	m_windowSize, %ecx
	addl	$1, %ecx
	cmpl	%ecx, %eax
	jge	.LBB28_41
# %bb.40:                               # %cond.true129
	movl	-8(%rbp), %eax
	jmp	.LBB28_42
.LBB28_41:                              # %cond.false130
	movl	m_windowSize, %eax
	addl	$1, %eax
.LBB28_42:                              # %cond.end132
	movl	%eax, -8(%rbp)
	cmpl	$20, -8(%rbp)
	jge	.LBB28_44
# %bb.43:                               # %cond.true136
	movl	-8(%rbp), %eax
	jmp	.LBB28_45
.LBB28_44:                              # %cond.false137
	movl	$20, %eax
	jmp	.LBB28_45
.LBB28_45:                              # %cond.end138
	movl	%eax, -8(%rbp)
	movl	-8(%rbp), %eax
	movl	%eax, m_windowSize
	movl	$0, -4(%rbp)
.LBB28_46:                              # %for.cond140
                                        # =>This Inner Loop Header: Depth=1
	cmpl	$20, -4(%rbp)
	jge	.LBB28_49
# %bb.47:                               # %for.body143
                                        #   in Loop: Header=BB28_46 Depth=1
	movslq	-4(%rbp), %rax
	movl	$0, m_rgRejected(,%rax,4)
# %bb.48:                               # %for.inc146
                                        #   in Loop: Header=BB28_46 Depth=1
	movl	-4(%rbp), %eax
	addl	$1, %eax
	movl	%eax, -4(%rbp)
	jmp	.LBB28_46
.LBB28_49:                              # %for.end147
	movl	-8(%rbp), %edi
	callq	RCModelEstimator
	movl	m_windowSize, %eax
	movl	%eax, -8(%rbp)
	movl	$0, -4(%rbp)
.LBB28_50:                              # %for.cond148
                                        # =>This Inner Loop Header: Depth=1
	movl	-4(%rbp), %eax
	cmpl	-8(%rbp), %eax
	jge	.LBB28_53
# %bb.51:                               # %for.body151
                                        #   in Loop: Header=BB28_50 Depth=1
	vmovsd	m_X1, %xmm0             # xmm0 = mem[0],zero
	movslq	-4(%rbp), %rax
	vdivsd	m_rgQp(,%rax,8), %xmm0, %xmm0
	vmovsd	m_X2, %xmm1             # xmm1 = mem[0],zero
	movslq	-4(%rbp), %rax
	vmovsd	m_rgQp(,%rax,8), %xmm2  # xmm2 = mem[0],zero
	movslq	-4(%rbp), %rax
	vmulsd	m_rgQp(,%rax,8), %xmm2, %xmm2
	vdivsd	%xmm2, %xmm1, %xmm1
	vaddsd	%xmm1, %xmm0, %xmm0
	movslq	-4(%rbp), %rax
	vsubsd	m_rgRp(,%rax,8), %xmm0, %xmm0
	movslq	-4(%rbp), %rax
	vmovsd	%xmm0, -208(%rbp,%rax,8)
	movslq	-4(%rbp), %rax
	vmovsd	-208(%rbp,%rax,8), %xmm0 # xmm0 = mem[0],zero
	movslq	-4(%rbp), %rax
	vmulsd	-208(%rbp,%rax,8), %xmm0, %xmm0
	vaddsd	-24(%rbp), %xmm0, %xmm0
	vmovsd	%xmm0, -24(%rbp)
# %bb.52:                               # %for.inc173
                                        #   in Loop: Header=BB28_50 Depth=1
	movl	-4(%rbp), %eax
	addl	$1, %eax
	movl	%eax, -4(%rbp)
	jmp	.LBB28_50
.LBB28_53:                              # %for.end175
	cmpl	$2, -8(%rbp)
	jne	.LBB28_55
# %bb.54:                               # %cond.true178
	vxorps	%xmm0, %xmm0, %xmm0
	jmp	.LBB28_56
.LBB28_55:                              # %cond.false179
	vmovsd	-24(%rbp), %xmm0        # xmm0 = mem[0],zero
	vcvtsi2sdl	-8(%rbp), %xmm0, %xmm1
	vdivsd	%xmm1, %xmm0, %xmm0
	callq	sqrt
.LBB28_56:                              # %cond.end183
	vmovsd	%xmm0, -40(%rbp)
	movl	$0, -4(%rbp)
.LBB28_57:                              # %for.cond185
                                        # =>This Inner Loop Header: Depth=1
	movl	-4(%rbp), %eax
	cmpl	-8(%rbp), %eax
	jge	.LBB28_62
# %bb.58:                               # %for.body188
                                        #   in Loop: Header=BB28_57 Depth=1
	movslq	-4(%rbp), %rax
	vmovsd	-208(%rbp,%rax,8), %xmm0 # xmm0 = mem[0],zero
	vmovdqa	.LCPI28_4(%rip), %xmm1  # xmm1 = [NaN,NaN]
	vpand	%xmm1, %xmm0, %xmm0
	vucomisd	-40(%rbp), %xmm0
	jbe	.LBB28_60
# %bb.59:                               # %if.then193
                                        #   in Loop: Header=BB28_57 Depth=1
	movslq	-4(%rbp), %rax
	movl	$1, m_rgRejected(,%rax,4)
.LBB28_60:                              # %if.end196
                                        #   in Loop: Header=BB28_57 Depth=1
	jmp	.LBB28_61
.LBB28_61:                              # %for.inc197
                                        #   in Loop: Header=BB28_57 Depth=1
	movl	-4(%rbp), %eax
	addl	$1, %eax
	movl	%eax, -4(%rbp)
	jmp	.LBB28_57
.LBB28_62:                              # %for.end199
	movl	$0, m_rgRejected
	movl	-8(%rbp), %edi
	callq	RCModelEstimator
	cmpl	$0, -16(%rbp)
	je	.LBB28_64
# %bb.63:                               # %if.then201
	callq	updateMADModel
	jmp	.LBB28_67
.LBB28_64:                              # %if.else202
	movq	img, %rax
	cmpl	$0, 24(%rax)
	jne	.LBB28_66
# %bb.65:                               # %if.then206
	vmovsd	CurrentFrameMAD, %xmm0  # xmm0 = mem[0],zero
	vmovsd	%xmm0, PPictureMAD
.LBB28_66:                              # %if.end207
	jmp	.LBB28_67
.LBB28_67:                              # %if.end208
	jmp	.LBB28_68
.LBB28_68:                              # %if.end209
	cmpl	$682748789, -28(%rbp)   # imm = 0x28B1EB75
	jne	.LBB28_70
.LBB28_69:
	addq	$208, %rsp
	popq	%rbp
	.cfi_def_cfa %rsp, 8
	retq
.LBB28_70:                              # %func_exit
	.cfi_def_cfa %rbp, 16
	callq	detect_breach
	jmp	.LBB28_69
.Lfunc_end28:
	.size	updateRCModel.12, .Lfunc_end28-updateRCModel.12
	.cfi_endproc
                                        # -- End function
	.section	.rodata.cst8,"aM",@progbits,8
	.p2align	3               # -- Begin function updateMADModel.13
.LCPI29_0:
	.quad	4626322717216342016     # double 20
	.section	.rodata.cst16,"aM",@progbits,16
	.p2align	4
.LCPI29_1:
	.quad	9223372036854775807     # double NaN
	.quad	9223372036854775807     # double NaN
	.text
	.globl	updateMADModel.13
	.p2align	4, 0x90
	.type	updateMADModel.13,@function
updateMADModel.13:                      # @updateMADModel.13
	.cfi_startproc
# %bb.0:                                # %entry
	pushq	%rbp
	.cfi_def_cfa_offset 16
	.cfi_offset %rbp, -16
	movq	%rsp, %rbp
	.cfi_def_cfa_register %rbp
	subq	$208, %rsp
	movl	$2017665095, -28(%rbp)  # imm = 0x78432047
	vxorps	%xmm0, %xmm0, %xmm0
	vmovsd	%xmm0, -24(%rbp)
	movq	img, %rax
	cmpl	$0, 72564(%rax)
	jle	.LBB29_51
# %bb.1:                                # %if.then
	movq	img, %rax
	movl	72620(%rax), %eax
	movq	img, %rcx
	cmpl	72608(%rcx), %eax
	jne	.LBB29_3
# %bb.2:                                # %if.then2
	movq	img, %rax
	movl	72564(%rax), %eax
	movl	%eax, -12(%rbp)
	jmp	.LBB29_4
.LBB29_3:                               # %if.else
	movq	img, %rax
	movl	72564(%rax), %eax
	imull	TotalNumberofBasicUnit, %eax
	addl	CodedBasicUnit, %eax
	movl	%eax, -12(%rbp)
.LBB29_4:                               # %if.end
	movl	$19, -4(%rbp)
.LBB29_5:                               # %for.cond
                                        # =>This Inner Loop Header: Depth=1
	cmpl	$0, -4(%rbp)
	jle	.LBB29_8
# %bb.6:                                # %for.body
                                        #   in Loop: Header=BB29_5 Depth=1
	movl	-4(%rbp), %eax
	subl	$1, %eax
	cltq
	vmovsd	PPictureMAD(,%rax,8), %xmm0 # xmm0 = mem[0],zero
	movslq	-4(%rbp), %rax
	vmovsd	%xmm0, PPictureMAD(,%rax,8)
	movslq	-4(%rbp), %rax
	vmovsd	PPictureMAD(,%rax,8), %xmm0 # xmm0 = mem[0],zero
	movslq	-4(%rbp), %rax
	vmovsd	%xmm0, PictureMAD(,%rax,8)
	movl	-4(%rbp), %eax
	subl	$1, %eax
	cltq
	vmovsd	ReferenceMAD(,%rax,8), %xmm0 # xmm0 = mem[0],zero
	movslq	-4(%rbp), %rax
	vmovsd	%xmm0, ReferenceMAD(,%rax,8)
# %bb.7:                                # %for.inc
                                        #   in Loop: Header=BB29_5 Depth=1
	movl	-4(%rbp), %eax
	addl	$-1, %eax
	movl	%eax, -4(%rbp)
	jmp	.LBB29_5
.LBB29_8:                               # %for.end
	vmovsd	CurrentFrameMAD, %xmm0  # xmm0 = mem[0],zero
	vmovsd	%xmm0, PPictureMAD
	vmovsd	PPictureMAD, %xmm0      # xmm0 = mem[0],zero
	vmovsd	%xmm0, PictureMAD
	movq	img, %rax
	movl	72620(%rax), %eax
	movq	img, %rcx
	cmpl	72608(%rcx), %eax
	jne	.LBB29_10
# %bb.9:                                # %if.then20
	vmovsd	PictureMAD+8, %xmm0     # xmm0 = mem[0],zero
	vmovsd	%xmm0, ReferenceMAD
	jmp	.LBB29_16
.LBB29_10:                              # %if.else21
	movq	input, %rax
	cmpl	$2, 2880(%rax)
	je	.LBB29_12
# %bb.11:                               # %lor.lhs.false
	movq	input, %rax
	cmpl	$0, 2884(%rax)
	je	.LBB29_14
.LBB29_12:                              # %land.lhs.true
	movq	img, %rax
	cmpl	$1, 72600(%rax)
	jne	.LBB29_14
# %bb.13:                               # %if.then24
	movq	FCBUPFMAD, %rax
	movl	TotalNumberofBasicUnit, %ecx
	subl	$1, %ecx
	subl	NumberofBasicUnit, %ecx
	movslq	%ecx, %rcx
	vmovsd	(%rax,%rcx,8), %xmm0    # xmm0 = mem[0],zero
	vmovsd	%xmm0, ReferenceMAD
	jmp	.LBB29_15
.LBB29_14:                              # %if.else29
	movq	BUPFMAD, %rax
	movl	TotalNumberofBasicUnit, %ecx
	subl	$1, %ecx
	subl	NumberofBasicUnit, %ecx
	movslq	%ecx, %rcx
	vmovsd	(%rax,%rcx,8), %xmm0    # xmm0 = mem[0],zero
	vmovsd	%xmm0, ReferenceMAD
.LBB29_15:                              # %if.end34
	jmp	.LBB29_16
.LBB29_16:                              # %if.end35
	vmovsd	PMADPictureC1, %xmm0    # xmm0 = mem[0],zero
	vmovsd	%xmm0, MADPictureC1
	vmovsd	PMADPictureC2, %xmm0    # xmm0 = mem[0],zero
	vmovsd	%xmm0, MADPictureC2
	vmovsd	CurrentFrameMAD, %xmm0  # xmm0 = mem[0],zero
	vucomisd	PreviousFrameMAD, %xmm0
	jbe	.LBB29_18
# %bb.17:                               # %cond.true
	vmovsd	.LCPI29_0(%rip), %xmm0  # xmm0 = mem[0],zero
	vmovsd	PreviousFrameMAD, %xmm1 # xmm1 = mem[0],zero
	vdivsd	CurrentFrameMAD, %xmm1, %xmm1
	vmulsd	%xmm0, %xmm1, %xmm0
	vcvttsd2si	%xmm0, %eax
	jmp	.LBB29_19
.LBB29_18:                              # %cond.false
	vmovsd	.LCPI29_0(%rip), %xmm0  # xmm0 = mem[0],zero
	vmovsd	CurrentFrameMAD, %xmm1  # xmm1 = mem[0],zero
	vdivsd	PreviousFrameMAD, %xmm1, %xmm1
	vmulsd	%xmm0, %xmm1, %xmm0
	vcvttsd2si	%xmm0, %eax
.LBB29_19:                              # %cond.end
	movl	%eax, -8(%rbp)
	movl	-8(%rbp), %eax
	movl	-12(%rbp), %ecx
	subl	$1, %ecx
	cmpl	%ecx, %eax
	jge	.LBB29_21
# %bb.20:                               # %cond.true44
	movl	-8(%rbp), %eax
	jmp	.LBB29_22
.LBB29_21:                              # %cond.false45
	movl	-12(%rbp), %eax
	subl	$1, %eax
.LBB29_22:                              # %cond.end47
	movl	%eax, -8(%rbp)
	cmpl	$1, -8(%rbp)
	jge	.LBB29_24
# %bb.23:                               # %cond.true51
	movl	$1, %eax
	jmp	.LBB29_25
.LBB29_24:                              # %cond.false52
	movl	-8(%rbp), %eax
.LBB29_25:                              # %cond.end53
	movl	%eax, -8(%rbp)
	movl	-8(%rbp), %eax
	movl	MADm_windowSize, %ecx
	addl	$1, %ecx
	cmpl	%ecx, %eax
	jge	.LBB29_27
# %bb.26:                               # %cond.true58
	movl	-8(%rbp), %eax
	jmp	.LBB29_28
.LBB29_27:                              # %cond.false59
	movl	MADm_windowSize, %eax
	addl	$1, %eax
.LBB29_28:                              # %cond.end61
	movl	%eax, -8(%rbp)
	movl	$20, %eax
	cmpl	-8(%rbp), %eax
	jge	.LBB29_30
# %bb.29:                               # %cond.true65
	movl	$20, %eax
	jmp	.LBB29_31
.LBB29_30:                              # %cond.false66
	movl	-8(%rbp), %eax
.LBB29_31:                              # %cond.end67
	movl	%eax, -8(%rbp)
	movl	-8(%rbp), %eax
	movl	%eax, MADm_windowSize
	movl	$0, -4(%rbp)
.LBB29_32:                              # %for.cond69
                                        # =>This Inner Loop Header: Depth=1
	cmpl	$20, -4(%rbp)
	jge	.LBB29_35
# %bb.33:                               # %for.body72
                                        #   in Loop: Header=BB29_32 Depth=1
	movslq	-4(%rbp), %rax
	movl	$0, PictureRejected(,%rax,4)
# %bb.34:                               # %for.inc75
                                        #   in Loop: Header=BB29_32 Depth=1
	movl	-4(%rbp), %eax
	addl	$1, %eax
	movl	%eax, -4(%rbp)
	jmp	.LBB29_32
.LBB29_35:                              # %for.end76
	movq	img, %rax
	cmpl	$0, 24(%rax)
	jne	.LBB29_37
# %bb.36:                               # %if.then79
	vmovsd	CurrentFrameMAD, %xmm0  # xmm0 = mem[0],zero
	vmovsd	%xmm0, PreviousFrameMAD
.LBB29_37:                              # %if.end80
	movl	-8(%rbp), %edi
	callq	MADModelEstimator
	movl	$0, -4(%rbp)
.LBB29_38:                              # %for.cond81
                                        # =>This Inner Loop Header: Depth=1
	movl	-4(%rbp), %eax
	cmpl	-8(%rbp), %eax
	jge	.LBB29_41
# %bb.39:                               # %for.body84
                                        #   in Loop: Header=BB29_38 Depth=1
	vmovsd	MADPictureC1, %xmm0     # xmm0 = mem[0],zero
	movslq	-4(%rbp), %rax
	vmulsd	ReferenceMAD(,%rax,8), %xmm0, %xmm0
	vaddsd	MADPictureC2, %xmm0, %xmm0
	movslq	-4(%rbp), %rax
	vsubsd	PictureMAD(,%rax,8), %xmm0, %xmm0
	movslq	-4(%rbp), %rax
	vmovsd	%xmm0, -208(%rbp,%rax,8)
	movslq	-4(%rbp), %rax
	vmovsd	-208(%rbp,%rax,8), %xmm0 # xmm0 = mem[0],zero
	movslq	-4(%rbp), %rax
	vmulsd	-208(%rbp,%rax,8), %xmm0, %xmm0
	vaddsd	-24(%rbp), %xmm0, %xmm0
	vmovsd	%xmm0, -24(%rbp)
# %bb.40:                               # %for.inc100
                                        #   in Loop: Header=BB29_38 Depth=1
	movl	-4(%rbp), %eax
	addl	$1, %eax
	movl	%eax, -4(%rbp)
	jmp	.LBB29_38
.LBB29_41:                              # %for.end102
	cmpl	$2, -8(%rbp)
	jne	.LBB29_43
# %bb.42:                               # %cond.true105
	vxorps	%xmm0, %xmm0, %xmm0
	jmp	.LBB29_44
.LBB29_43:                              # %cond.false106
	vmovsd	-24(%rbp), %xmm0        # xmm0 = mem[0],zero
	vcvtsi2sdl	-8(%rbp), %xmm0, %xmm1
	vdivsd	%xmm1, %xmm0, %xmm0
	callq	sqrt
.LBB29_44:                              # %cond.end109
	vmovsd	%xmm0, -40(%rbp)
	movl	$0, -4(%rbp)
.LBB29_45:                              # %for.cond111
                                        # =>This Inner Loop Header: Depth=1
	movl	-4(%rbp), %eax
	cmpl	-8(%rbp), %eax
	jge	.LBB29_50
# %bb.46:                               # %for.body114
                                        #   in Loop: Header=BB29_45 Depth=1
	movslq	-4(%rbp), %rax
	vmovsd	-208(%rbp,%rax,8), %xmm0 # xmm0 = mem[0],zero
	vmovdqa	.LCPI29_1(%rip), %xmm1  # xmm1 = [NaN,NaN]
	vpand	%xmm1, %xmm0, %xmm0
	vucomisd	-40(%rbp), %xmm0
	jbe	.LBB29_48
# %bb.47:                               # %if.then119
                                        #   in Loop: Header=BB29_45 Depth=1
	movslq	-4(%rbp), %rax
	movl	$1, PictureRejected(,%rax,4)
.LBB29_48:                              # %if.end122
                                        #   in Loop: Header=BB29_45 Depth=1
	jmp	.LBB29_49
.LBB29_49:                              # %for.inc123
                                        #   in Loop: Header=BB29_45 Depth=1
	movl	-4(%rbp), %eax
	addl	$1, %eax
	movl	%eax, -4(%rbp)
	jmp	.LBB29_45
.LBB29_50:                              # %for.end125
	movl	$0, PictureRejected
	movl	-8(%rbp), %edi
	callq	MADModelEstimator
.LBB29_51:                              # %if.end126
	cmpl	$2017665095, -28(%rbp)  # imm = 0x78432047
	jne	.LBB29_53
.LBB29_52:
	addq	$208, %rsp
	popq	%rbp
	.cfi_def_cfa %rsp, 8
	retq
.LBB29_53:                              # %func_exit
	.cfi_def_cfa %rbp, 16
	callq	detect_breach
	jmp	.LBB29_52
.Lfunc_end29:
	.size	updateMADModel.13, .Lfunc_end29-updateMADModel.13
	.cfi_endproc
                                        # -- End function
	.section	.rodata.cst8,"aM",@progbits,8
	.p2align	3               # -- Begin function updateRCModel.14
.LCPI30_0:
	.quad	4611686018427387904     # double 2
.LCPI30_1:
	.quad	4602678819172646912     # double 0.5
.LCPI30_2:
	.quad	4607182418800017408     # double 1
.LCPI30_3:
	.quad	4626322717216342016     # double 20
	.section	.rodata.cst16,"aM",@progbits,16
	.p2align	4
.LCPI30_4:
	.quad	9223372036854775807     # double NaN
	.quad	9223372036854775807     # double NaN
	.text
	.globl	updateRCModel.14
	.p2align	4, 0x90
	.type	updateRCModel.14,@function
updateRCModel.14:                       # @updateRCModel.14
	.cfi_startproc
# %bb.0:                                # %entry
	pushq	%rbp
	.cfi_def_cfa_offset 16
	.cfi_offset %rbp, -16
	movq	%rsp, %rbp
	.cfi_def_cfa_register %rbp
	subq	$208, %rsp
	movl	$1004912376, -28(%rbp)  # imm = 0x3BE5BEF8
	vxorps	%xmm0, %xmm0, %xmm0
	vmovsd	%xmm0, -24(%rbp)
	movl	$0, -16(%rbp)
	movq	img, %rax
	cmpl	$0, 24(%rax)
	jne	.LBB30_68
# %bb.1:                                # %if.then
	movq	img, %rax
	movl	72620(%rax), %eax
	movq	img, %rcx
	cmpl	72608(%rcx), %eax
	jne	.LBB30_3
# %bb.2:                                # %if.then2
	callq	ComputeFrameMAD
	vmovsd	%xmm0, CurrentFrameMAD
	movq	img, %rax
	movl	72564(%rax), %eax
	movl	%eax, -12(%rbp)
	jmp	.LBB30_21
.LBB30_3:                               # %if.else
	movq	input, %rax
	cmpl	$0, 2884(%rax)
	je	.LBB30_6
# %bb.4:                                # %land.lhs.true
	movq	img, %rax
	cmpl	$0, 72600(%rax)
	jne	.LBB30_6
# %bb.5:                                # %if.then4
	vmovsd	.LCPI30_0(%rip), %xmm0  # xmm0 = mem[0],zero
	movq	img, %rax
	vmovsd	72544(%rax), %xmm1      # xmm1 = mem[0],zero
	movq	img, %rax
	vcvtsi2sdl	72620(%rax), %xmm0, %xmm2
	vdivsd	%xmm2, %xmm1, %xmm1
	vdivsd	%xmm0, %xmm1, %xmm0
	vmovsd	%xmm0, CurrentFrameMAD
	jmp	.LBB30_7
.LBB30_6:                               # %if.else7
	movq	img, %rax
	vmovsd	72544(%rax), %xmm0      # xmm0 = mem[0],zero
	movq	img, %rax
	vcvtsi2sdl	72620(%rax), %xmm0, %xmm1
	vdivsd	%xmm1, %xmm0, %xmm0
	vmovsd	%xmm0, CurrentFrameMAD
.LBB30_7:                               # %if.end
	movq	img, %rax
	vxorps	%xmm0, %xmm0, %xmm0
	vmovsd	%xmm0, 72544(%rax)
	movl	TotalNumberofBasicUnit, %eax
	subl	NumberofBasicUnit, %eax
	movl	%eax, CodedBasicUnit
	cmpl	$0, CodedBasicUnit
	jle	.LBB30_12
# %bb.8:                                # %if.then15
	vmovsd	.LCPI30_1(%rip), %xmm0  # xmm0 = mem[0],zero
	vmovsd	.LCPI30_2(%rip), %xmm1  # xmm1 = mem[0],zero
	movl	PAveHeaderBits1, %eax
	movl	CodedBasicUnit, %ecx
	subl	$1, %ecx
	imull	%ecx, %eax
	movq	img, %rcx
	addl	72532(%rcx), %eax
	vcvtsi2sd	%eax, %xmm0, %xmm2
	vmulsd	%xmm2, %xmm1, %xmm1
	vcvtsi2sdl	CodedBasicUnit, %xmm0, %xmm2
	vdivsd	%xmm2, %xmm1, %xmm1
	vaddsd	%xmm0, %xmm1, %xmm0
	vcvttsd2si	%xmm0, %eax
	movl	%eax, PAveHeaderBits1
	cmpl	$0, PAveHeaderBits3
	jne	.LBB30_10
# %bb.9:                                # %if.then25
	movl	PAveHeaderBits1, %eax
	movl	%eax, PAveHeaderBits2
	jmp	.LBB30_11
.LBB30_10:                              # %if.else26
	vmovsd	.LCPI30_1(%rip), %xmm0  # xmm0 = mem[0],zero
	vmovsd	.LCPI30_2(%rip), %xmm1  # xmm1 = mem[0],zero
	movl	PAveHeaderBits1, %eax
	imull	CodedBasicUnit, %eax
	movl	PAveHeaderBits3, %ecx
	imull	NumberofBasicUnit, %ecx
	addl	%ecx, %eax
	vcvtsi2sd	%eax, %xmm0, %xmm2
	vmulsd	%xmm2, %xmm1, %xmm1
	vcvtsi2sdl	TotalNumberofBasicUnit, %xmm0, %xmm2
	vdivsd	%xmm2, %xmm1, %xmm1
	vaddsd	%xmm0, %xmm1, %xmm0
	vcvttsd2si	%xmm0, %eax
	movl	%eax, PAveHeaderBits2
.LBB30_11:                              # %if.end36
	jmp	.LBB30_12
.LBB30_12:                              # %if.end37
	movq	input, %rax
	cmpl	$2, 2880(%rax)
	je	.LBB30_14
# %bb.13:                               # %lor.lhs.false
	movq	input, %rax
	cmpl	$0, 2884(%rax)
	je	.LBB30_16
.LBB30_14:                              # %land.lhs.true42
	movq	img, %rax
	cmpl	$1, 72600(%rax)
	jne	.LBB30_16
# %bb.15:                               # %if.then46
	vmovsd	CurrentFrameMAD, %xmm0  # xmm0 = mem[0],zero
	movq	FCBUCFMAD, %rax
	movl	TotalNumberofBasicUnit, %ecx
	subl	$1, %ecx
	subl	NumberofBasicUnit, %ecx
	movslq	%ecx, %rcx
	vmovsd	%xmm0, (%rax,%rcx,8)
	jmp	.LBB30_17
.LBB30_16:                              # %if.else49
	vmovsd	CurrentFrameMAD, %xmm0  # xmm0 = mem[0],zero
	movq	BUCFMAD, %rax
	movl	TotalNumberofBasicUnit, %ecx
	subl	$1, %ecx
	subl	NumberofBasicUnit, %ecx
	movslq	%ecx, %rcx
	vmovsd	%xmm0, (%rax,%rcx,8)
.LBB30_17:                              # %if.end54
	cmpl	$0, NumberofBasicUnit
	je	.LBB30_19
# %bb.18:                               # %if.then57
	movq	img, %rax
	movl	72564(%rax), %eax
	imull	TotalNumberofBasicUnit, %eax
	addl	CodedBasicUnit, %eax
	movl	%eax, -12(%rbp)
	jmp	.LBB30_20
.LBB30_19:                              # %if.else61
	movq	img, %rax
	movl	72564(%rax), %eax
	subl	$1, %eax
	imull	TotalNumberofBasicUnit, %eax
	addl	CodedBasicUnit, %eax
	movl	%eax, -12(%rbp)
.LBB30_20:                              # %if.end66
	jmp	.LBB30_21
.LBB30_21:                              # %if.end67
	cmpl	$1, -12(%rbp)
	jle	.LBB30_23
# %bb.22:                               # %if.then70
	movl	$1, -16(%rbp)
.LBB30_23:                              # %if.end71
	movq	img, %rax
	movl	72524(%rax), %eax
	movl	%eax, PPreHeader
	movl	$19, -4(%rbp)
.LBB30_24:                              # %for.cond
                                        # =>This Inner Loop Header: Depth=1
	cmpl	$0, -4(%rbp)
	jle	.LBB30_27
# %bb.25:                               # %for.body
                                        #   in Loop: Header=BB30_24 Depth=1
	movl	-4(%rbp), %eax
	subl	$1, %eax
	cltq
	vmovsd	Pm_rgQp(,%rax,8), %xmm0 # xmm0 = mem[0],zero
	movslq	-4(%rbp), %rax
	vmovsd	%xmm0, Pm_rgQp(,%rax,8)
	movslq	-4(%rbp), %rax
	vmovsd	Pm_rgQp(,%rax,8), %xmm0 # xmm0 = mem[0],zero
	movslq	-4(%rbp), %rax
	vmovsd	%xmm0, m_rgQp(,%rax,8)
	movl	-4(%rbp), %eax
	subl	$1, %eax
	cltq
	vmovsd	Pm_rgRp(,%rax,8), %xmm0 # xmm0 = mem[0],zero
	movslq	-4(%rbp), %rax
	vmovsd	%xmm0, Pm_rgRp(,%rax,8)
	movslq	-4(%rbp), %rax
	vmovsd	Pm_rgRp(,%rax,8), %xmm0 # xmm0 = mem[0],zero
	movslq	-4(%rbp), %rax
	vmovsd	%xmm0, m_rgRp(,%rax,8)
# %bb.26:                               # %for.inc
                                        #   in Loop: Header=BB30_24 Depth=1
	movl	-4(%rbp), %eax
	addl	$-1, %eax
	movl	%eax, -4(%rbp)
	jmp	.LBB30_24
.LBB30_27:                              # %for.end
	movl	m_Qc, %edi
	callq	QP2Qstep
	vmovsd	%xmm0, Pm_rgQp
	movq	img, %rax
	movl	72620(%rax), %eax
	movq	img, %rcx
	cmpl	72608(%rcx), %eax
	jne	.LBB30_29
# %bb.28:                               # %if.then97
	vmovsd	.LCPI30_2(%rip), %xmm0  # xmm0 = mem[0],zero
	movq	img, %rax
	vcvtsi2sdl	72528(%rax), %xmm0, %xmm1
	vmulsd	%xmm0, %xmm1, %xmm0
	vdivsd	CurrentFrameMAD, %xmm0, %xmm0
	vmovsd	%xmm0, Pm_rgRp
	jmp	.LBB30_30
.LBB30_29:                              # %if.else101
	vmovsd	.LCPI30_2(%rip), %xmm0  # xmm0 = mem[0],zero
	movq	img, %rax
	vcvtsi2sdl	72536(%rax), %xmm0, %xmm1
	vmulsd	%xmm0, %xmm1, %xmm0
	vdivsd	CurrentFrameMAD, %xmm0, %xmm0
	vmovsd	%xmm0, Pm_rgRp
.LBB30_30:                              # %if.end105
	vmovsd	Pm_rgQp, %xmm0          # xmm0 = mem[0],zero
	vmovsd	%xmm0, m_rgQp
	vmovsd	Pm_rgRp, %xmm0          # xmm0 = mem[0],zero
	vmovsd	%xmm0, m_rgRp
	vmovsd	Pm_X1, %xmm0            # xmm0 = mem[0],zero
	vmovsd	%xmm0, m_X1
	vmovsd	Pm_X2, %xmm0            # xmm0 = mem[0],zero
	vmovsd	%xmm0, m_X2
	vmovsd	CurrentFrameMAD, %xmm0  # xmm0 = mem[0],zero
	vucomisd	PreviousFrameMAD, %xmm0
	jbe	.LBB30_32
# %bb.31:                               # %cond.true
	vmovsd	.LCPI30_3(%rip), %xmm0  # xmm0 = mem[0],zero
	vmovsd	PreviousFrameMAD, %xmm1 # xmm1 = mem[0],zero
	vdivsd	CurrentFrameMAD, %xmm1, %xmm1
	vmulsd	%xmm0, %xmm1, %xmm0
	vcvttsd2si	%xmm0, %eax
	jmp	.LBB30_33
.LBB30_32:                              # %cond.false
	vmovsd	.LCPI30_3(%rip), %xmm0  # xmm0 = mem[0],zero
	vmovsd	CurrentFrameMAD, %xmm1  # xmm1 = mem[0],zero
	vdivsd	PreviousFrameMAD, %xmm1, %xmm1
	vmulsd	%xmm0, %xmm1, %xmm0
	vcvttsd2si	%xmm0, %eax
.LBB30_33:                              # %cond.end
	movl	%eax, -8(%rbp)
	cmpl	$1, -8(%rbp)
	jge	.LBB30_35
# %bb.34:                               # %cond.true116
	movl	$1, %eax
	jmp	.LBB30_36
.LBB30_35:                              # %cond.false117
	movl	-8(%rbp), %eax
.LBB30_36:                              # %cond.end118
	movl	%eax, -8(%rbp)
	movl	-8(%rbp), %eax
	cmpl	-12(%rbp), %eax
	jge	.LBB30_38
# %bb.37:                               # %cond.true122
	movl	-8(%rbp), %eax
	jmp	.LBB30_39
.LBB30_38:                              # %cond.false123
	movl	-12(%rbp), %eax
.LBB30_39:                              # %cond.end124
	movl	%eax, -8(%rbp)
	movl	-8(%rbp), %eax
	movl	m_windowSize, %ecx
	addl	$1, %ecx
	cmpl	%ecx, %eax
	jge	.LBB30_41
# %bb.40:                               # %cond.true129
	movl	-8(%rbp), %eax
	jmp	.LBB30_42
.LBB30_41:                              # %cond.false130
	movl	m_windowSize, %eax
	addl	$1, %eax
.LBB30_42:                              # %cond.end132
	movl	%eax, -8(%rbp)
	cmpl	$20, -8(%rbp)
	jge	.LBB30_44
# %bb.43:                               # %cond.true136
	movl	-8(%rbp), %eax
	jmp	.LBB30_45
.LBB30_44:                              # %cond.false137
	movl	$20, %eax
	jmp	.LBB30_45
.LBB30_45:                              # %cond.end138
	movl	%eax, -8(%rbp)
	movl	-8(%rbp), %eax
	movl	%eax, m_windowSize
	movl	$0, -4(%rbp)
.LBB30_46:                              # %for.cond140
                                        # =>This Inner Loop Header: Depth=1
	cmpl	$20, -4(%rbp)
	jge	.LBB30_49
# %bb.47:                               # %for.body143
                                        #   in Loop: Header=BB30_46 Depth=1
	movslq	-4(%rbp), %rax
	movl	$0, m_rgRejected(,%rax,4)
# %bb.48:                               # %for.inc146
                                        #   in Loop: Header=BB30_46 Depth=1
	movl	-4(%rbp), %eax
	addl	$1, %eax
	movl	%eax, -4(%rbp)
	jmp	.LBB30_46
.LBB30_49:                              # %for.end147
	movl	-8(%rbp), %edi
	callq	RCModelEstimator
	movl	m_windowSize, %eax
	movl	%eax, -8(%rbp)
	movl	$0, -4(%rbp)
.LBB30_50:                              # %for.cond148
                                        # =>This Inner Loop Header: Depth=1
	movl	-4(%rbp), %eax
	cmpl	-8(%rbp), %eax
	jge	.LBB30_53
# %bb.51:                               # %for.body151
                                        #   in Loop: Header=BB30_50 Depth=1
	vmovsd	m_X1, %xmm0             # xmm0 = mem[0],zero
	movslq	-4(%rbp), %rax
	vdivsd	m_rgQp(,%rax,8), %xmm0, %xmm0
	vmovsd	m_X2, %xmm1             # xmm1 = mem[0],zero
	movslq	-4(%rbp), %rax
	vmovsd	m_rgQp(,%rax,8), %xmm2  # xmm2 = mem[0],zero
	movslq	-4(%rbp), %rax
	vmulsd	m_rgQp(,%rax,8), %xmm2, %xmm2
	vdivsd	%xmm2, %xmm1, %xmm1
	vaddsd	%xmm1, %xmm0, %xmm0
	movslq	-4(%rbp), %rax
	vsubsd	m_rgRp(,%rax,8), %xmm0, %xmm0
	movslq	-4(%rbp), %rax
	vmovsd	%xmm0, -208(%rbp,%rax,8)
	movslq	-4(%rbp), %rax
	vmovsd	-208(%rbp,%rax,8), %xmm0 # xmm0 = mem[0],zero
	movslq	-4(%rbp), %rax
	vmulsd	-208(%rbp,%rax,8), %xmm0, %xmm0
	vaddsd	-24(%rbp), %xmm0, %xmm0
	vmovsd	%xmm0, -24(%rbp)
# %bb.52:                               # %for.inc173
                                        #   in Loop: Header=BB30_50 Depth=1
	movl	-4(%rbp), %eax
	addl	$1, %eax
	movl	%eax, -4(%rbp)
	jmp	.LBB30_50
.LBB30_53:                              # %for.end175
	cmpl	$2, -8(%rbp)
	jne	.LBB30_55
# %bb.54:                               # %cond.true178
	vxorps	%xmm0, %xmm0, %xmm0
	jmp	.LBB30_56
.LBB30_55:                              # %cond.false179
	vmovsd	-24(%rbp), %xmm0        # xmm0 = mem[0],zero
	vcvtsi2sdl	-8(%rbp), %xmm0, %xmm1
	vdivsd	%xmm1, %xmm0, %xmm0
	callq	sqrt
.LBB30_56:                              # %cond.end183
	vmovsd	%xmm0, -40(%rbp)
	movl	$0, -4(%rbp)
.LBB30_57:                              # %for.cond185
                                        # =>This Inner Loop Header: Depth=1
	movl	-4(%rbp), %eax
	cmpl	-8(%rbp), %eax
	jge	.LBB30_62
# %bb.58:                               # %for.body188
                                        #   in Loop: Header=BB30_57 Depth=1
	movslq	-4(%rbp), %rax
	vmovsd	-208(%rbp,%rax,8), %xmm0 # xmm0 = mem[0],zero
	vmovdqa	.LCPI30_4(%rip), %xmm1  # xmm1 = [NaN,NaN]
	vpand	%xmm1, %xmm0, %xmm0
	vucomisd	-40(%rbp), %xmm0
	jbe	.LBB30_60
# %bb.59:                               # %if.then193
                                        #   in Loop: Header=BB30_57 Depth=1
	movslq	-4(%rbp), %rax
	movl	$1, m_rgRejected(,%rax,4)
.LBB30_60:                              # %if.end196
                                        #   in Loop: Header=BB30_57 Depth=1
	jmp	.LBB30_61
.LBB30_61:                              # %for.inc197
                                        #   in Loop: Header=BB30_57 Depth=1
	movl	-4(%rbp), %eax
	addl	$1, %eax
	movl	%eax, -4(%rbp)
	jmp	.LBB30_57
.LBB30_62:                              # %for.end199
	movl	$0, m_rgRejected
	movl	-8(%rbp), %edi
	callq	RCModelEstimator
	cmpl	$0, -16(%rbp)
	je	.LBB30_64
# %bb.63:                               # %if.then201
	callq	updateMADModel
	jmp	.LBB30_67
.LBB30_64:                              # %if.else202
	movq	img, %rax
	cmpl	$0, 24(%rax)
	jne	.LBB30_66
# %bb.65:                               # %if.then206
	vmovsd	CurrentFrameMAD, %xmm0  # xmm0 = mem[0],zero
	vmovsd	%xmm0, PPictureMAD
.LBB30_66:                              # %if.end207
	jmp	.LBB30_67
.LBB30_67:                              # %if.end208
	jmp	.LBB30_68
.LBB30_68:                              # %if.end209
	cmpl	$1004912376, -28(%rbp)  # imm = 0x3BE5BEF8
	jne	.LBB30_70
.LBB30_69:
	addq	$208, %rsp
	popq	%rbp
	.cfi_def_cfa %rsp, 8
	retq
.LBB30_70:                              # %func_exit
	.cfi_def_cfa %rbp, 16
	callq	detect_breach
	jmp	.LBB30_69
.Lfunc_end30:
	.size	updateRCModel.14, .Lfunc_end30-updateRCModel.14
	.cfi_endproc
                                        # -- End function
	.section	.rodata.cst8,"aM",@progbits,8
	.p2align	3               # -- Begin function rc_update_pict_frame.15
.LCPI31_0:
	.quad	4602678819172646912     # double 0.5
.LCPI31_1:
	.quad	4608819927624529320     # double 1.3635999999999999
	.text
	.globl	rc_update_pict_frame.15
	.p2align	4, 0x90
	.type	rc_update_pict_frame.15,@function
rc_update_pict_frame.15:                # @rc_update_pict_frame.15
	.cfi_startproc
# %bb.0:                                # %entry
	pushq	%rbp
	.cfi_def_cfa_offset 16
	.cfi_offset %rbp, -16
	movq	%rsp, %rbp
	.cfi_def_cfa_register %rbp
	subq	$16, %rsp
	movl	$1939927798, -12(%rbp)  # imm = 0x73A0F2F6
	movl	%edi, -8(%rbp)
	movl	$0, -4(%rbp)
	movq	img, %rax
	movl	72620(%rax), %eax
	movq	img, %rcx
	cmpl	72608(%rcx), %eax
	jne	.LBB31_2
# %bb.1:                                # %if.then
	vmovsd	.LCPI31_0(%rip), %xmm0  # xmm0 = mem[0],zero
	movl	-8(%rbp), %eax
	imull	m_Qc, %eax
	vcvtsi2sd	%eax, %xmm0, %xmm1
	vaddsd	%xmm0, %xmm1, %xmm0
	vroundsd	$9, %xmm0, %xmm0, %xmm0
	vcvttsd2si	%xmm0, %eax
	movl	%eax, -4(%rbp)
	jmp	.LBB31_12
.LBB31_2:                               # %if.else
	movq	img, %rax
	cmpl	$0, 24(%rax)
	jne	.LBB31_8
# %bb.3:                                # %if.then4
	movq	img, %rax
	cmpl	$0, 72612(%rax)
	jne	.LBB31_5
# %bb.4:                                # %land.lhs.true
	movq	img, %rax
	cmpl	$1, 72600(%rax)
	je	.LBB31_6
.LBB31_5:                               # %lor.lhs.false
	movq	img, %rax
	cmpl	$0, 72600(%rax)
	jne	.LBB31_7
.LBB31_6:                               # %if.then12
	vmovsd	.LCPI31_0(%rip), %xmm0  # xmm0 = mem[0],zero
	movl	TotalFrameQP, %eax
	cltd
	idivl	TotalNumberofBasicUnit
	movl	%eax, -16(%rbp)
	movl	-8(%rbp), %eax
	imull	-16(%rbp), %eax
	vcvtsi2sd	%eax, %xmm0, %xmm1
	vaddsd	%xmm0, %xmm1, %xmm0
	vroundsd	$9, %xmm0, %xmm0, %xmm0
	vcvttsd2si	%xmm0, %eax
	movl	%eax, -4(%rbp)
.LBB31_7:                               # %if.end
	jmp	.LBB31_11
.LBB31_8:                               # %if.else17
	movq	img, %rax
	cmpl	$1, 24(%rax)
	jne	.LBB31_10
# %bb.9:                                # %if.then21
	vmovsd	.LCPI31_0(%rip), %xmm0  # xmm0 = mem[0],zero
	movl	-8(%rbp), %eax
	imull	m_Qc, %eax
	vcvtsi2sd	%eax, %xmm0, %xmm1
	vaddsd	%xmm0, %xmm1, %xmm0
	vroundsd	$9, %xmm0, %xmm0, %xmm0
	vcvttsd2si	%xmm0, %eax
	movl	%eax, -4(%rbp)
.LBB31_10:                              # %if.end26
	jmp	.LBB31_11
.LBB31_11:                              # %if.end27
	jmp	.LBB31_12
.LBB31_12:                              # %if.end28
	movq	img(%rip), %rax
	movl	24(%rax), %eax
	testl	%eax, %eax
	je	.LBB31_14
	jmp	.LBB31_13
.LBB31_13:                              # %if.end28
	subl	$1, %eax
	je	.LBB31_23
	jmp	.LBB31_24
.LBB31_14:                              # %sw.bb
	movq	img, %rax
	cmpl	$0, 72612(%rax)
	jne	.LBB31_16
# %bb.15:                               # %land.lhs.true33
	movq	img, %rax
	cmpl	$1, 72600(%rax)
	je	.LBB31_17
.LBB31_16:                              # %lor.lhs.false37
	movq	img, %rax
	cmpl	$0, 72600(%rax)
	jne	.LBB31_18
.LBB31_17:                              # %if.then41
	movl	-4(%rbp), %eax
	movl	%eax, Xp
	movl	Np, %eax
	addl	$-1, %eax
	movl	%eax, Np
	vcvtsi2sdl	Xp, %xmm0, %xmm0
	vmovsd	%xmm0, Wp
	movq	img, %rax
	movl	72524(%rax), %eax
	movl	%eax, Pm_Hp
	movq	img, %rax
	movl	72564(%rax), %ecx
	addl	$1, %ecx
	movl	%ecx, 72564(%rax)
	movq	img, %rax
	movl	72576(%rax), %ecx
	addl	$1, %ecx
	movl	%ecx, 72576(%rax)
	jmp	.LBB31_22
.LBB31_18:                              # %if.else44
	movq	img, %rax
	cmpl	$0, 72612(%rax)
	je	.LBB31_21
# %bb.19:                               # %land.lhs.true48
	movq	img, %rax
	cmpl	$1, 72600(%rax)
	jne	.LBB31_21
# %bb.20:                               # %if.then52
	movq	img, %rax
	movl	$0, 72612(%rax)
.LBB31_21:                              # %if.end54
	jmp	.LBB31_22
.LBB31_22:                              # %if.end55
	jmp	.LBB31_24
.LBB31_23:                              # %sw.bb56
	vmovsd	.LCPI31_1(%rip), %xmm0  # xmm0 = mem[0],zero
	movl	-4(%rbp), %eax
	movl	%eax, Xb
	movl	Nb, %eax
	addl	$-1, %eax
	movl	%eax, Nb
	vcvtsi2sdl	Xb, %xmm0, %xmm1
	vdivsd	%xmm0, %xmm1, %xmm0
	vmovsd	%xmm0, Wb
	movq	img, %rax
	movl	72560(%rax), %ecx
	addl	$1, %ecx
	movl	%ecx, 72560(%rax)
	movl	NumberofBFrames, %eax
	addl	$1, %eax
	movl	%eax, NumberofBFrames
.LBB31_24:                              # %sw.epilog
	cmpl	$1939927798, -12(%rbp)  # imm = 0x73A0F2F6
	jne	.LBB31_26
.LBB31_25:
	addq	$16, %rsp
	popq	%rbp
	.cfi_def_cfa %rsp, 8
	retq
.LBB31_26:                              # %func_exit
	.cfi_def_cfa %rbp, 16
	callq	detect_breach
	jmp	.LBB31_25
.Lfunc_end31:
	.size	rc_update_pict_frame.15, .Lfunc_end31-rc_update_pict_frame.15
	.cfi_endproc
                                        # -- End function
	.section	.rodata.cst8,"aM",@progbits,8
	.p2align	3               # -- Begin function MADModelEstimator.16
.LCPI32_0:
	.quad	4517329193108106637     # double 9.9999999999999995E-7
.LCPI32_2:
	.quad	4607182418800017408     # double 1
	.section	.rodata.cst16,"aM",@progbits,16
	.p2align	4
.LCPI32_1:
	.quad	9223372036854775807     # double NaN
	.quad	9223372036854775807     # double NaN
	.text
	.globl	MADModelEstimator.16
	.p2align	4, 0x90
	.type	MADModelEstimator.16,@function
MADModelEstimator.16:                   # @MADModelEstimator.16
	.cfi_startproc
# %bb.0:                                # %entry
	pushq	%rbp
	.cfi_def_cfa_offset 16
	.cfi_offset %rbp, -16
	movq	%rsp, %rbp
	.cfi_def_cfa_register %rbp
	subq	$96, %rsp
	movl	$593072164, -84(%rbp)   # imm = 0x23599024
	movl	%edi, -8(%rbp)
	movl	-8(%rbp), %eax
	movl	%eax, -12(%rbp)
	vxorps	%xmm0, %xmm0, %xmm0
	vmovsd	%xmm0, -64(%rbp)
	vmovsd	%xmm0, -24(%rbp)
	vmovsd	%xmm0, -80(%rbp)
	vmovsd	%xmm0, -48(%rbp)
	vmovsd	%xmm0, -32(%rbp)
	vmovsd	%xmm0, -56(%rbp)
	movl	$0, -36(%rbp)
	movl	$0, -4(%rbp)
.LBB32_1:                               # %for.cond
                                        # =>This Inner Loop Header: Depth=1
	movl	-4(%rbp), %eax
	cmpl	-8(%rbp), %eax
	jge	.LBB32_6
# %bb.2:                                # %for.body
                                        #   in Loop: Header=BB32_1 Depth=1
	movslq	-4(%rbp), %rax
	cmpl	$0, PictureRejected(,%rax,4)
	je	.LBB32_4
# %bb.3:                                # %if.then
                                        #   in Loop: Header=BB32_1 Depth=1
	movl	-12(%rbp), %eax
	addl	$-1, %eax
	movl	%eax, -12(%rbp)
.LBB32_4:                               # %if.end
                                        #   in Loop: Header=BB32_1 Depth=1
	jmp	.LBB32_5
.LBB32_5:                               # %for.inc
                                        #   in Loop: Header=BB32_1 Depth=1
	movl	-4(%rbp), %eax
	addl	$1, %eax
	movl	%eax, -4(%rbp)
	jmp	.LBB32_1
.LBB32_6:                               # %for.end
	vxorps	%xmm0, %xmm0, %xmm0
	vmovsd	%xmm0, MADPictureC2
	vmovsd	%xmm0, MADPictureC1
	movl	$0, -4(%rbp)
.LBB32_7:                               # %for.cond1
                                        # =>This Inner Loop Header: Depth=1
	movl	-4(%rbp), %eax
	cmpl	-8(%rbp), %eax
	jge	.LBB32_12
# %bb.8:                                # %for.body3
                                        #   in Loop: Header=BB32_7 Depth=1
	movslq	-4(%rbp), %rax
	cmpl	$0, PictureRejected(,%rax,4)
	jne	.LBB32_10
# %bb.9:                                # %if.then7
                                        #   in Loop: Header=BB32_7 Depth=1
	movslq	-4(%rbp), %rax
	vmovsd	PictureMAD(,%rax,8), %xmm0 # xmm0 = mem[0],zero
	vmovsd	%xmm0, -96(%rbp)
.LBB32_10:                              # %if.end10
                                        #   in Loop: Header=BB32_7 Depth=1
	jmp	.LBB32_11
.LBB32_11:                              # %for.inc11
                                        #   in Loop: Header=BB32_7 Depth=1
	movl	-4(%rbp), %eax
	addl	$1, %eax
	movl	%eax, -4(%rbp)
	jmp	.LBB32_7
.LBB32_12:                              # %for.end13
	movl	$0, -4(%rbp)
.LBB32_13:                              # %for.cond14
                                        # =>This Inner Loop Header: Depth=1
	movl	-4(%rbp), %eax
	cmpl	-8(%rbp), %eax
	jge	.LBB32_21
# %bb.14:                               # %for.body16
                                        #   in Loop: Header=BB32_13 Depth=1
	movslq	-4(%rbp), %rax
	vmovsd	PictureMAD(,%rax,8), %xmm0 # xmm0 = mem[0],zero
	vucomisd	-96(%rbp), %xmm0
	jne	.LBB32_15
	jp	.LBB32_15
	jmp	.LBB32_17
.LBB32_15:                              # %land.lhs.true
                                        #   in Loop: Header=BB32_13 Depth=1
	movslq	-4(%rbp), %rax
	cmpl	$0, PictureRejected(,%rax,4)
	jne	.LBB32_17
# %bb.16:                               # %if.then23
                                        #   in Loop: Header=BB32_13 Depth=1
	movl	$1, -36(%rbp)
.LBB32_17:                              # %if.end24
                                        #   in Loop: Header=BB32_13 Depth=1
	movslq	-4(%rbp), %rax
	cmpl	$0, PictureRejected(,%rax,4)
	jne	.LBB32_19
# %bb.18:                               # %if.then28
                                        #   in Loop: Header=BB32_13 Depth=1
	movslq	-4(%rbp), %rax
	vmovsd	PictureMAD(,%rax,8), %xmm0 # xmm0 = mem[0],zero
	movslq	-4(%rbp), %rax
	vmovsd	ReferenceMAD(,%rax,8), %xmm1 # xmm1 = mem[0],zero
	vcvtsi2sdl	-12(%rbp), %xmm0, %xmm2
	vmulsd	%xmm2, %xmm1, %xmm1
	vdivsd	%xmm1, %xmm0, %xmm0
	vaddsd	MADPictureC1, %xmm0, %xmm0
	vmovsd	%xmm0, MADPictureC1
.LBB32_19:                              # %if.end33
                                        #   in Loop: Header=BB32_13 Depth=1
	jmp	.LBB32_20
.LBB32_20:                              # %for.inc34
                                        #   in Loop: Header=BB32_13 Depth=1
	movl	-4(%rbp), %eax
	addl	$1, %eax
	movl	%eax, -4(%rbp)
	jmp	.LBB32_13
.LBB32_21:                              # %for.end36
	cmpl	$1, -12(%rbp)
	jl	.LBB32_33
# %bb.22:                               # %land.lhs.true39
	cmpl	$0, -36(%rbp)
	je	.LBB32_33
# %bb.23:                               # %if.then41
	movl	$0, -4(%rbp)
.LBB32_24:                              # %for.cond42
                                        # =>This Inner Loop Header: Depth=1
	movl	-4(%rbp), %eax
	cmpl	-8(%rbp), %eax
	jge	.LBB32_29
# %bb.25:                               # %for.body45
                                        #   in Loop: Header=BB32_24 Depth=1
	movslq	-4(%rbp), %rax
	cmpl	$0, PictureRejected(,%rax,4)
	jne	.LBB32_27
# %bb.26:                               # %if.then49
                                        #   in Loop: Header=BB32_24 Depth=1
	vmovsd	.LCPI32_2(%rip), %xmm0  # xmm0 = mem[0],zero
	vaddsd	-64(%rbp), %xmm0, %xmm0
	vmovsd	%xmm0, -64(%rbp)
	movslq	-4(%rbp), %rax
	vmovsd	ReferenceMAD(,%rax,8), %xmm0 # xmm0 = mem[0],zero
	vaddsd	-24(%rbp), %xmm0, %xmm0
	vmovsd	%xmm0, -24(%rbp)
	vmovsd	-24(%rbp), %xmm0        # xmm0 = mem[0],zero
	vmovsd	%xmm0, -80(%rbp)
	movslq	-4(%rbp), %rax
	vmovsd	ReferenceMAD(,%rax,8), %xmm0 # xmm0 = mem[0],zero
	movslq	-4(%rbp), %rax
	vmulsd	ReferenceMAD(,%rax,8), %xmm0, %xmm0
	vaddsd	-48(%rbp), %xmm0, %xmm0
	vmovsd	%xmm0, -48(%rbp)
	movslq	-4(%rbp), %rax
	vmovsd	PictureMAD(,%rax,8), %xmm0 # xmm0 = mem[0],zero
	vaddsd	-32(%rbp), %xmm0, %xmm0
	vmovsd	%xmm0, -32(%rbp)
	movslq	-4(%rbp), %rax
	vmovsd	PictureMAD(,%rax,8), %xmm0 # xmm0 = mem[0],zero
	movslq	-4(%rbp), %rax
	vmulsd	ReferenceMAD(,%rax,8), %xmm0, %xmm0
	vaddsd	-56(%rbp), %xmm0, %xmm0
	vmovsd	%xmm0, -56(%rbp)
.LBB32_27:                              # %if.end69
                                        #   in Loop: Header=BB32_24 Depth=1
	jmp	.LBB32_28
.LBB32_28:                              # %for.inc70
                                        #   in Loop: Header=BB32_24 Depth=1
	movl	-4(%rbp), %eax
	addl	$1, %eax
	movl	%eax, -4(%rbp)
	jmp	.LBB32_24
.LBB32_29:                              # %for.end72
	vmovsd	.LCPI32_0(%rip), %xmm0  # xmm0 = mem[0],zero
	vmovsd	-64(%rbp), %xmm1        # xmm1 = mem[0],zero
	vmulsd	-48(%rbp), %xmm1, %xmm1
	vmovsd	-24(%rbp), %xmm2        # xmm2 = mem[0],zero
	vmulsd	-80(%rbp), %xmm2, %xmm2
	vsubsd	%xmm2, %xmm1, %xmm1
	vmovsd	%xmm1, -72(%rbp)
	vmovsd	-72(%rbp), %xmm1        # xmm1 = mem[0],zero
	vmovdqa	.LCPI32_1(%rip), %xmm2  # xmm2 = [NaN,NaN]
	vpand	%xmm2, %xmm1, %xmm1
	vucomisd	%xmm0, %xmm1
	jbe	.LBB32_31
# %bb.30:                               # %if.then77
	vmovsd	-32(%rbp), %xmm0        # xmm0 = mem[0],zero
	vmulsd	-48(%rbp), %xmm0, %xmm0
	vmovsd	-56(%rbp), %xmm1        # xmm1 = mem[0],zero
	vmulsd	-24(%rbp), %xmm1, %xmm1
	vsubsd	%xmm1, %xmm0, %xmm0
	vdivsd	-72(%rbp), %xmm0, %xmm0
	vmovsd	%xmm0, MADPictureC2
	vmovsd	-56(%rbp), %xmm0        # xmm0 = mem[0],zero
	vmulsd	-64(%rbp), %xmm0, %xmm0
	vmovsd	-32(%rbp), %xmm1        # xmm1 = mem[0],zero
	vmulsd	-80(%rbp), %xmm1, %xmm1
	vsubsd	%xmm1, %xmm0, %xmm0
	vdivsd	-72(%rbp), %xmm0, %xmm0
	vmovsd	%xmm0, MADPictureC1
	jmp	.LBB32_32
.LBB32_31:                              # %if.else
	vmovsd	-32(%rbp), %xmm0        # xmm0 = mem[0],zero
	vdivsd	-24(%rbp), %xmm0, %xmm0
	vmovsd	%xmm0, MADPictureC1
	vxorps	%xmm0, %xmm0, %xmm0
	vmovsd	%xmm0, MADPictureC2
.LBB32_32:                              # %if.end87
	jmp	.LBB32_33
.LBB32_33:                              # %if.end88
	movq	img, %rax
	cmpl	$0, 24(%rax)
	jne	.LBB32_35
# %bb.34:                               # %if.then91
	vmovsd	MADPictureC1, %xmm0     # xmm0 = mem[0],zero
	vmovsd	%xmm0, PMADPictureC1
	vmovsd	MADPictureC2, %xmm0     # xmm0 = mem[0],zero
	vmovsd	%xmm0, PMADPictureC2
.LBB32_35:                              # %if.end92
	cmpl	$593072164, -84(%rbp)   # imm = 0x23599024
	jne	.LBB32_37
.LBB32_36:
	addq	$96, %rsp
	popq	%rbp
	.cfi_def_cfa %rsp, 8
	retq
.LBB32_37:                              # %func_exit
	.cfi_def_cfa %rbp, 16
	callq	detect_breach
	jmp	.LBB32_36
.Lfunc_end32:
	.size	MADModelEstimator.16, .Lfunc_end32-MADModelEstimator.16
	.cfi_endproc
                                        # -- End function
	.section	.rodata.cst8,"aM",@progbits,8
	.p2align	3               # -- Begin function rc_init_GOP.17
.LCPI33_0:
	.quad	4602678819172646912     # double 0.5
.LCPI33_1:
	.quad	4624633867356078080     # double 15
.LCPI33_2:
	.quad	4607182418800017408     # double 1
	.text
	.globl	rc_init_GOP.17
	.p2align	4, 0x90
	.type	rc_init_GOP.17,@function
rc_init_GOP.17:                         # @rc_init_GOP.17
	.cfi_startproc
# %bb.0:                                # %entry
	pushq	%rbp
	.cfi_def_cfa_offset 16
	.cfi_offset %rbp, -16
	movq	%rsp, %rbp
	.cfi_def_cfa_register %rbp
	subq	$32, %rsp
	movl	$117895424, -24(%rbp)   # imm = 0x706F100
	movl	%edi, -4(%rbp)
	movl	%esi, -8(%rbp)
	movl	$0, -20(%rbp)
	cmpl	$0, R
	jge	.LBB33_2
# %bb.1:                                # %if.then
	movl	$1, -20(%rbp)
.LBB33_2:                               # %if.end
	vmovsd	.LCPI33_0(%rip), %xmm0  # xmm0 = mem[0],zero
	xorl	%eax, %eax
	subl	R, %eax
	movl	%eax, -28(%rbp)
	vcvtsi2sdl	R, %xmm0, %xmm1
	vmovsd	bit_rate, %xmm2         # xmm2 = mem[0],zero
	vdivsd	frame_rate, %xmm2, %xmm2
	vaddsd	%xmm2, %xmm1, %xmm1
	vcvttsd2si	%xmm1, %rax
	movq	%rax, LowerBound
	vcvtsi2sdl	R, %xmm0, %xmm1
	vaddsd	InitialDelayOffset, %xmm1, %xmm1
	vcvttsd2si	%xmm1, %rax
	movq	%rax, UpperBound1
	movl	-4(%rbp), %eax
	addl	$1, %eax
	addl	-8(%rbp), %eax
	vcvtsi2sd	%eax, %xmm0, %xmm1
	vmulsd	bit_rate, %xmm1, %xmm1
	vdivsd	frame_rate, %xmm1, %xmm1
	vaddsd	%xmm0, %xmm1, %xmm1
	vroundsd	$9, %xmm1, %xmm0, %xmm1
	vcvttsd2si	%xmm1, %eax
	movl	%eax, -16(%rbp)
	movl	-16(%rbp), %eax
	addl	R, %eax
	movl	%eax, R
	movl	-4(%rbp), %eax
	movl	%eax, Np
	movl	-8(%rbp), %eax
	movl	%eax, Nb
	movl	-28(%rbp), %eax
	shll	$3, %eax
	cltd
	idivl	-16(%rbp)
	vcvtsi2sd	%eax, %xmm0, %xmm1
	vaddsd	%xmm0, %xmm1, %xmm0
	vcvttsd2si	%xmm0, %eax
	movl	%eax, -32(%rbp)
	movl	$0, GOPOverdue
	movq	img, %rax
	movl	$1, 72612(%rax)
	movl	-4(%rbp), %eax
	movl	%eax, TotalPFrame
	movq	img, %rax
	movl	72568(%rax), %ecx
	addl	$1, %ecx
	movl	%ecx, 72568(%rax)
	movq	img, %rax
	cmpl	$1, 72568(%rax)
	jne	.LBB33_4
# %bb.3:                                # %if.then20
	movq	input, %rax
	movl	3244(%rax), %eax
	movl	%eax, MyInitialQp
	movl	MyInitialQp, %eax
	subl	$1, %eax
	movl	%eax, PreviousQp2
	movl	MyInitialQp, %eax
	movl	%eax, QPLastGOP
	jmp	.LBB33_27
.LBB33_4:                               # %if.else
	movq	input, %rax
	cmpl	$2, 2880(%rax)
	je	.LBB33_6
# %bb.5:                                # %lor.lhs.false
	movq	input, %rax
	cmpl	$0, 2884(%rax)
	je	.LBB33_10
.LBB33_6:                               # %if.then24
	movq	img, %rax
	cmpl	$1, 72604(%rax)
	jne	.LBB33_8
# %bb.7:                                # %if.then27
	movl	FrameQPBuffer, %eax
	movq	img, %rcx
	addl	72572(%rcx), %eax
	movl	%eax, 72572(%rcx)
	movl	FrameQPBuffer, %eax
	movl	%eax, QPLastPFrame
	jmp	.LBB33_9
.LBB33_8:                               # %if.else29
	movl	FieldQPBuffer, %eax
	movq	img, %rcx
	addl	72572(%rcx), %eax
	movl	%eax, 72572(%rcx)
	movl	FieldQPBuffer, %eax
	movl	%eax, QPLastPFrame
.LBB33_9:                               # %if.end32
	jmp	.LBB33_10
.LBB33_10:                              # %if.end33
	vmovsd	.LCPI33_0(%rip), %xmm0  # xmm0 = mem[0],zero
	vmovsd	.LCPI33_1(%rip), %xmm1  # xmm1 = mem[0],zero
	vmovsd	.LCPI33_2(%rip), %xmm2  # xmm2 = mem[0],zero
	movq	img, %rax
	vcvtsi2sdl	72572(%rax), %xmm0, %xmm3
	vmulsd	%xmm3, %xmm2, %xmm3
	movq	img, %rax
	vcvtsi2sdl	72576(%rax), %xmm0, %xmm4
	vdivsd	%xmm4, %xmm3, %xmm3
	vaddsd	%xmm0, %xmm3, %xmm3
	vcvttsd2si	%xmm3, %eax
	movl	%eax, PAverageQp
	movl	-4(%rbp), %eax
	addl	-8(%rbp), %eax
	addl	$1, %eax
	vcvtsi2sd	%eax, %xmm0, %xmm3
	vmulsd	%xmm3, %xmm2, %xmm2
	vdivsd	%xmm1, %xmm2, %xmm1
	vaddsd	%xmm1, %xmm0, %xmm0
	vcvttsd2si	%xmm0, %eax
	movl	%eax, -12(%rbp)
	cmpl	$2, -12(%rbp)
	jle	.LBB33_12
# %bb.11:                               # %if.then50
	movl	$2, -12(%rbp)
.LBB33_12:                              # %if.end51
	movl	-12(%rbp), %eax
	movl	PAverageQp, %ecx
	subl	%eax, %ecx
	movl	%ecx, PAverageQp
	movl	PAverageQp, %eax
	movl	QPLastPFrame, %ecx
	subl	$2, %ecx
	cmpl	%ecx, %eax
	jle	.LBB33_14
# %bb.13:                               # %if.then56
	movl	PAverageQp, %eax
	addl	$-1, %eax
	movl	%eax, PAverageQp
.LBB33_14:                              # %if.end57
	movl	QPLastGOP, %eax
	subl	$2, %eax
	cmpl	PAverageQp, %eax
	jge	.LBB33_16
# %bb.15:                               # %cond.true
	movl	PAverageQp, %eax
	jmp	.LBB33_17
.LBB33_16:                              # %cond.false
	movl	QPLastGOP, %eax
	subl	$2, %eax
.LBB33_17:                              # %cond.end
	movl	%eax, PAverageQp
	movl	QPLastGOP, %eax
	addl	$2, %eax
	cmpl	PAverageQp, %eax
	jge	.LBB33_19
# %bb.18:                               # %cond.true65
	movl	QPLastGOP, %eax
	addl	$2, %eax
	jmp	.LBB33_20
.LBB33_19:                              # %cond.false67
	movl	PAverageQp, %eax
.LBB33_20:                              # %cond.end68
	movl	%eax, PAverageQp
	movl	RC_MAX_QUANT, %eax
	cmpl	PAverageQp, %eax
	jge	.LBB33_22
# %bb.21:                               # %cond.true72
	movl	RC_MAX_QUANT, %eax
	jmp	.LBB33_23
.LBB33_22:                              # %cond.false73
	movl	PAverageQp, %eax
.LBB33_23:                              # %cond.end74
	movl	%eax, PAverageQp
	movl	RC_MIN_QUANT, %eax
	cmpl	PAverageQp, %eax
	jge	.LBB33_25
# %bb.24:                               # %cond.true78
	movl	PAverageQp, %eax
	jmp	.LBB33_26
.LBB33_25:                              # %cond.false79
	movl	RC_MIN_QUANT, %eax
.LBB33_26:                              # %cond.end80
	movl	%eax, PAverageQp
	movl	PAverageQp, %eax
	movl	%eax, MyInitialQp
	movl	MyInitialQp, %eax
	movl	%eax, QPLastGOP
	movl	PAverageQp, %eax
	movl	%eax, Pm_Qp
	movl	PAverageQp, %eax
	movl	%eax, PAveFrameQP
	movl	PreviousQp2, %eax
	movl	%eax, PreviousQp1
	movl	MyInitialQp, %eax
	subl	$1, %eax
	movl	%eax, PreviousQp2
.LBB33_27:                              # %if.end83
	movq	img, %rax
	movl	$0, 72572(%rax)
	movq	img, %rax
	movl	$0, 72576(%rax)
	movl	$0, NumberofBFrames
	cmpl	$117895424, -24(%rbp)   # imm = 0x706F100
	jne	.LBB33_29
.LBB33_28:
	addq	$32, %rsp
	popq	%rbp
	.cfi_def_cfa %rsp, 8
	retq
.LBB33_29:                              # %func_exit
	.cfi_def_cfa %rbp, 16
	callq	detect_breach
	jmp	.LBB33_28
.Lfunc_end33:
	.size	rc_init_GOP.17, .Lfunc_end33-rc_init_GOP.17
	.cfi_endproc
                                        # -- End function
	.section	.rodata.cst8,"aM",@progbits,8
	.p2align	3               # -- Begin function calc_MAD.18
.LCPI34_0:
	.quad	4643211215818981376     # double 256
.LCPI34_1:
	.quad	4607182418800017408     # double 1
	.text
	.globl	calc_MAD.18
	.p2align	4, 0x90
	.type	calc_MAD.18,@function
calc_MAD.18:                            # @calc_MAD.18
	.cfi_startproc
# %bb.0:                                # %entry
	pushq	%rbp
	.cfi_def_cfa_offset 16
	.cfi_offset %rbp, -16
	movq	%rsp, %rbp
	.cfi_def_cfa_register %rbp
	subq	$32, %rsp
	movl	$1184883928, -16(%rbp)  # imm = 0x469FE4D8
	movl	$0, -12(%rbp)
	movl	$0, -8(%rbp)
.LBB34_1:                               # %for.cond
                                        # =>This Loop Header: Depth=1
                                        #     Child Loop BB34_3 Depth 2
	cmpl	$16, -8(%rbp)
	jge	.LBB34_8
# %bb.2:                                # %for.body
                                        #   in Loop: Header=BB34_1 Depth=1
	movl	$0, -4(%rbp)
.LBB34_3:                               # %for.cond1
                                        #   Parent Loop BB34_1 Depth=1
                                        # =>  This Inner Loop Header: Depth=2
	cmpl	$16, -4(%rbp)
	jge	.LBB34_6
# %bb.4:                                # %for.body3
                                        #   in Loop: Header=BB34_3 Depth=2
	movslq	-8(%rbp), %rax
	shlq	$6, %rax
	movabsq	$diffy, %rcx
	addq	%rax, %rcx
	movslq	-4(%rbp), %rax
	movl	(%rcx,%rax,4), %edi
	callq	abs
	addl	-12(%rbp), %eax
	movl	%eax, -12(%rbp)
# %bb.5:                                # %for.inc
                                        #   in Loop: Header=BB34_3 Depth=2
	movl	-4(%rbp), %eax
	addl	$1, %eax
	movl	%eax, -4(%rbp)
	jmp	.LBB34_3
.LBB34_6:                               # %for.end
                                        #   in Loop: Header=BB34_1 Depth=1
	jmp	.LBB34_7
.LBB34_7:                               # %for.inc6
                                        #   in Loop: Header=BB34_1 Depth=1
	movl	-8(%rbp), %eax
	addl	$1, %eax
	movl	%eax, -8(%rbp)
	jmp	.LBB34_1
.LBB34_8:                               # %for.end8
	vmovsd	.LCPI34_0(%rip), %xmm0  # xmm0 = mem[0],zero
	vmovsd	.LCPI34_1(%rip), %xmm1  # xmm1 = mem[0],zero
	vcvtsi2sdl	-12(%rbp), %xmm0, %xmm2
	vmulsd	%xmm1, %xmm2, %xmm1
	vdivsd	%xmm0, %xmm1, %xmm0
	vmovsd	%xmm0, -32(%rbp)
	vmovsd	-32(%rbp), %xmm0        # xmm0 = mem[0],zero
	cmpl	$1184883928, -16(%rbp)  # imm = 0x469FE4D8
	jne	.LBB34_10
.LBB34_9:
	addq	$32, %rsp
	popq	%rbp
	.cfi_def_cfa %rsp, 8
	retq
.LBB34_10:                              # %func_exit
	.cfi_def_cfa %rbp, 16
	vmovsd	%xmm0, -24(%rbp)        # 8-byte Spill
	callq	detect_breach
	vmovsd	-24(%rbp), %xmm0        # 8-byte Reload
                                        # xmm0 = mem[0],zero
	jmp	.LBB34_9
.Lfunc_end34:
	.size	calc_MAD.18, .Lfunc_end34-calc_MAD.18
	.cfi_endproc
                                        # -- End function
	.section	.rodata.cst8,"aM",@progbits,8
	.p2align	3               # -- Begin function rc_init_pict.19
.LCPI35_0:
	.quad	4609434218613702656     # double 1.5
.LCPI35_1:
	.quad	4602678819172646912     # double 0.5
.LCPI35_2:
	.quad	4620693217682128896     # double 8
.LCPI35_3:
	.quad	4619567317775286272     # double 7
.LCPI35_4:
	.quad	4607182418800017408     # double 1
.LCPI35_5:
	.quad	4603579539098121011     # double 0.59999999999999998
	.text
	.globl	rc_init_pict.19
	.p2align	4, 0x90
	.type	rc_init_pict.19,@function
rc_init_pict.19:                        # @rc_init_pict.19
	.cfi_startproc
# %bb.0:                                # %entry
	pushq	%rbp
	.cfi_def_cfa_offset 16
	.cfi_offset %rbp, -16
	movq	%rsp, %rbp
	.cfi_def_cfa_register %rbp
	subq	$32, %rsp
	movl	$2025846787, -20(%rbp)  # imm = 0x78BFF803
	movl	%edi, -12(%rbp)
	movl	%esi, -8(%rbp)
	movl	%edx, -16(%rbp)
	movq	input, %rax
	cmpl	$0, 2884(%rax)
	je	.LBB35_2
# %bb.1:                                # %if.then
	movq	img, %rax
	movl	72608(%rax), %eax
	movq	img, %rcx
	cltd
	idivl	72620(%rcx)
	movl	%eax, TotalNumberofBasicUnit
.LBB35_2:                               # %if.end
	movq	img, %rax
	movl	$0, 72616(%rax)
	movq	input, %rax
	cmpl	$1, 3252(%rax)
	jne	.LBB35_9
# %bb.3:                                # %if.then1
	movq	img, %rax
	cmpl	$58, 72564(%rax)
	jne	.LBB35_5
# %bb.4:                                # %if.then3
	vmovsd	.LCPI35_0(%rip), %xmm0  # xmm0 = mem[0],zero
	vmulsd	bit_rate, %xmm0, %xmm0
	vmovsd	%xmm0, bit_rate
	jmp	.LBB35_8
.LBB35_5:                               # %if.else
	movq	img, %rax
	cmpl	$59, 72564(%rax)
	jne	.LBB35_7
# %bb.6:                                # %if.then6
	vmovsd	bit_rate, %xmm0         # xmm0 = mem[0],zero
	vmovsd	%xmm0, PreviousBit_Rate
.LBB35_7:                               # %if.end7
	jmp	.LBB35_8
.LBB35_8:                               # %if.end8
	jmp	.LBB35_9
.LBB35_9:                               # %if.end9
	cmpl	$0, -12(%rbp)
	jne	.LBB35_11
# %bb.10:                               # %lor.lhs.false
	cmpl	$0, -8(%rbp)
	je	.LBB35_111
.LBB35_11:                              # %land.lhs.true
	cmpl	$0, -16(%rbp)
	je	.LBB35_111
# %bb.12:                               # %if.then13
	movq	img(%rip), %rax
	movl	24(%rax), %eax
	testl	%eax, %eax
	je	.LBB35_14
	jmp	.LBB35_13
.LBB35_13:                              # %if.then13
	subl	$1, %eax
	je	.LBB35_65
	jmp	.LBB35_77
.LBB35_14:                              # %sw.bb
	vmovsd	PreviousBit_Rate, %xmm0 # xmm0 = mem[0],zero
	vucomisd	bit_rate, %xmm0
	jne	.LBB35_15
	jp	.LBB35_15
	jmp	.LBB35_16
.LBB35_15:                              # %if.then15
	vmovsd	.LCPI35_1(%rip), %xmm0  # xmm0 = mem[0],zero
	vmovsd	bit_rate, %xmm1         # xmm1 = mem[0],zero
	vsubsd	PreviousBit_Rate, %xmm1, %xmm1
	movl	Np, %eax
	addl	Nb, %eax
	vcvtsi2sd	%eax, %xmm0, %xmm2
	vmulsd	%xmm2, %xmm1, %xmm1
	vdivsd	frame_rate, %xmm1, %xmm1
	vaddsd	%xmm0, %xmm1, %xmm0
	vroundsd	$9, %xmm0, %xmm0, %xmm0
	vcvttsd2si	%xmm0, %eax
	addl	R, %eax
	movl	%eax, R
.LBB35_16:                              # %if.end21
	movq	img, %rax
	movl	72620(%rax), %eax
	movq	img, %rcx
	cmpl	72608(%rcx), %eax
	jne	.LBB35_23
# %bb.17:                               # %if.then26
	movq	img, %rax
	cmpl	$1, 72576(%rax)
	jne	.LBB35_19
# %bb.18:                               # %if.then29
	vmovsd	CurrentBufferFullness, %xmm0 # xmm0 = mem[0],zero
	vmovsd	%xmm0, TargetBufferLevel
	vmovsd	CurrentBufferFullness, %xmm0 # xmm0 = mem[0],zero
	vsubsd	GOPTargetBufferLevel, %xmm0, %xmm0
	movl	TotalPFrame, %eax
	subl	$1, %eax
	vcvtsi2sd	%eax, %xmm0, %xmm1
	vdivsd	%xmm1, %xmm0, %xmm0
	vmovsd	%xmm0, DeltaP
	vmovsd	DeltaP, %xmm0           # xmm0 = mem[0],zero
	vmovsd	TargetBufferLevel, %xmm1 # xmm1 = mem[0],zero
	vsubsd	%xmm0, %xmm1, %xmm0
	vmovsd	%xmm0, TargetBufferLevel
	jmp	.LBB35_22
.LBB35_19:                              # %if.else35
	movq	img, %rax
	cmpl	$1, 72576(%rax)
	jle	.LBB35_21
# %bb.20:                               # %if.then39
	vmovsd	DeltaP, %xmm0           # xmm0 = mem[0],zero
	vmovsd	TargetBufferLevel, %xmm1 # xmm1 = mem[0],zero
	vsubsd	%xmm0, %xmm1, %xmm0
	vmovsd	%xmm0, TargetBufferLevel
.LBB35_21:                              # %if.end41
	jmp	.LBB35_22
.LBB35_22:                              # %if.end42
	jmp	.LBB35_54
.LBB35_23:                              # %if.else43
	movq	img, %rax
	cmpl	$0, 72564(%rax)
	jle	.LBB35_38
# %bb.24:                               # %if.then47
	movq	input, %rax
	cmpl	$2, 2880(%rax)
	je	.LBB35_26
# %bb.25:                               # %lor.lhs.false50
	movq	input, %rax
	cmpl	$0, 2884(%rax)
	je	.LBB35_32
.LBB35_26:                              # %land.lhs.true53
	movq	img, %rax
	cmpl	$1, 72600(%rax)
	jne	.LBB35_32
# %bb.27:                               # %if.then56
	movl	$0, -4(%rbp)
.LBB35_28:                              # %for.cond
                                        # =>This Inner Loop Header: Depth=1
	movl	-4(%rbp), %eax
	cmpl	TotalNumberofBasicUnit, %eax
	jge	.LBB35_31
# %bb.29:                               # %for.body
                                        #   in Loop: Header=BB35_28 Depth=1
	movq	FCBUCFMAD, %rax
	movslq	-4(%rbp), %rcx
	vmovsd	(%rax,%rcx,8), %xmm0    # xmm0 = mem[0],zero
	movq	FCBUPFMAD, %rax
	movslq	-4(%rbp), %rcx
	vmovsd	%xmm0, (%rax,%rcx,8)
# %bb.30:                               # %for.inc
                                        #   in Loop: Header=BB35_28 Depth=1
	movl	-4(%rbp), %eax
	addl	$1, %eax
	movl	%eax, -4(%rbp)
	jmp	.LBB35_28
.LBB35_31:                              # %for.end
	jmp	.LBB35_37
.LBB35_32:                              # %if.else61
	movl	$0, -4(%rbp)
.LBB35_33:                              # %for.cond62
                                        # =>This Inner Loop Header: Depth=1
	movl	-4(%rbp), %eax
	cmpl	TotalNumberofBasicUnit, %eax
	jge	.LBB35_36
# %bb.34:                               # %for.body65
                                        #   in Loop: Header=BB35_33 Depth=1
	movq	BUCFMAD, %rax
	movslq	-4(%rbp), %rcx
	vmovsd	(%rax,%rcx,8), %xmm0    # xmm0 = mem[0],zero
	movq	BUPFMAD, %rax
	movslq	-4(%rbp), %rcx
	vmovsd	%xmm0, (%rax,%rcx,8)
# %bb.35:                               # %for.inc70
                                        #   in Loop: Header=BB35_33 Depth=1
	movl	-4(%rbp), %eax
	addl	$1, %eax
	movl	%eax, -4(%rbp)
	jmp	.LBB35_33
.LBB35_36:                              # %for.end72
	jmp	.LBB35_37
.LBB35_37:                              # %if.end73
	jmp	.LBB35_38
.LBB35_38:                              # %if.end74
	movq	img, %rax
	cmpl	$1, 72568(%rax)
	jne	.LBB35_45
# %bb.39:                               # %if.then77
	movq	img, %rax
	cmpl	$1, 72576(%rax)
	jne	.LBB35_41
# %bb.40:                               # %if.then81
	vmovsd	CurrentBufferFullness, %xmm0 # xmm0 = mem[0],zero
	vmovsd	%xmm0, TargetBufferLevel
	vmovsd	CurrentBufferFullness, %xmm0 # xmm0 = mem[0],zero
	vsubsd	GOPTargetBufferLevel, %xmm0, %xmm0
	movl	TotalPFrame, %eax
	subl	$1, %eax
	vcvtsi2sd	%eax, %xmm0, %xmm1
	vdivsd	%xmm1, %xmm0, %xmm0
	vmovsd	%xmm0, DeltaP
	vmovsd	DeltaP, %xmm0           # xmm0 = mem[0],zero
	vmovsd	TargetBufferLevel, %xmm1 # xmm1 = mem[0],zero
	vsubsd	%xmm0, %xmm1, %xmm0
	vmovsd	%xmm0, TargetBufferLevel
	jmp	.LBB35_44
.LBB35_41:                              # %if.else87
	movq	img, %rax
	cmpl	$1, 72576(%rax)
	jle	.LBB35_43
# %bb.42:                               # %if.then91
	vmovsd	DeltaP, %xmm0           # xmm0 = mem[0],zero
	vmovsd	TargetBufferLevel, %xmm1 # xmm1 = mem[0],zero
	vsubsd	%xmm0, %xmm1, %xmm0
	vmovsd	%xmm0, TargetBufferLevel
.LBB35_43:                              # %if.end93
	jmp	.LBB35_44
.LBB35_44:                              # %if.end94
	jmp	.LBB35_53
.LBB35_45:                              # %if.else95
	movq	img, %rax
	cmpl	$1, 72568(%rax)
	jle	.LBB35_52
# %bb.46:                               # %if.then99
	movq	img, %rax
	cmpl	$0, 72576(%rax)
	jne	.LBB35_48
# %bb.47:                               # %if.then103
	vmovsd	CurrentBufferFullness, %xmm0 # xmm0 = mem[0],zero
	vmovsd	%xmm0, TargetBufferLevel
	vmovsd	CurrentBufferFullness, %xmm0 # xmm0 = mem[0],zero
	vsubsd	GOPTargetBufferLevel, %xmm0, %xmm0
	vcvtsi2sdl	TotalPFrame, %xmm0, %xmm1
	vdivsd	%xmm1, %xmm0, %xmm0
	vmovsd	%xmm0, DeltaP
	vmovsd	DeltaP, %xmm0           # xmm0 = mem[0],zero
	vmovsd	TargetBufferLevel, %xmm1 # xmm1 = mem[0],zero
	vsubsd	%xmm0, %xmm1, %xmm0
	vmovsd	%xmm0, TargetBufferLevel
	jmp	.LBB35_51
.LBB35_48:                              # %if.else108
	movq	img, %rax
	cmpl	$0, 72576(%rax)
	jle	.LBB35_50
# %bb.49:                               # %if.then112
	vmovsd	DeltaP, %xmm0           # xmm0 = mem[0],zero
	vmovsd	TargetBufferLevel, %xmm1 # xmm1 = mem[0],zero
	vsubsd	%xmm0, %xmm1, %xmm0
	vmovsd	%xmm0, TargetBufferLevel
.LBB35_50:                              # %if.end114
	jmp	.LBB35_51
.LBB35_51:                              # %if.end115
	jmp	.LBB35_52
.LBB35_52:                              # %if.end116
	jmp	.LBB35_53
.LBB35_53:                              # %if.end117
	jmp	.LBB35_54
.LBB35_54:                              # %if.end118
	movq	img, %rax
	cmpl	$1, 72564(%rax)
	jne	.LBB35_56
# %bb.55:                               # %if.then122
	vmovsd	Wp, %xmm0               # xmm0 = mem[0],zero
	vmovsd	%xmm0, AWp
.LBB35_56:                              # %if.end123
	movq	img, %rax
	cmpl	$8, 72564(%rax)
	jge	.LBB35_59
# %bb.57:                               # %land.lhs.true127
	movq	img, %rax
	cmpl	$1, 72564(%rax)
	jle	.LBB35_59
# %bb.58:                               # %if.then131
	vmovsd	Wp, %xmm0               # xmm0 = mem[0],zero
	movq	img, %rax
	movl	72564(%rax), %eax
	subl	$1, %eax
	vcvtsi2sd	%eax, %xmm0, %xmm1
	vmulsd	%xmm1, %xmm0, %xmm0
	movq	img, %rax
	vcvtsi2sdl	72564(%rax), %xmm0, %xmm1
	vdivsd	%xmm1, %xmm0, %xmm0
	vmovsd	AWp, %xmm1              # xmm1 = mem[0],zero
	movq	img, %rax
	vcvtsi2sdl	72564(%rax), %xmm0, %xmm2
	vdivsd	%xmm2, %xmm1, %xmm1
	vaddsd	%xmm1, %xmm0, %xmm0
	vmovsd	%xmm0, AWp
	jmp	.LBB35_62
.LBB35_59:                              # %if.else143
	movq	img, %rax
	cmpl	$1, 72564(%rax)
	jle	.LBB35_61
# %bb.60:                               # %if.then147
	vmovsd	.LCPI35_2(%rip), %xmm0  # xmm0 = mem[0],zero
	vmovsd	.LCPI35_3(%rip), %xmm1  # xmm1 = mem[0],zero
	vmovsd	Wp, %xmm2               # xmm2 = mem[0],zero
	vdivsd	%xmm0, %xmm2, %xmm2
	vmulsd	AWp, %xmm1, %xmm1
	vdivsd	%xmm0, %xmm1, %xmm0
	vaddsd	%xmm0, %xmm2, %xmm0
	vmovsd	%xmm0, AWp
.LBB35_61:                              # %if.end152
	jmp	.LBB35_62
.LBB35_62:                              # %if.end153
	movq	input, %rax
	cmpl	$0, 1236(%rax)
	jle	.LBB35_64
# %bb.63:                               # %if.then156
	vmovsd	AWp, %xmm0              # xmm0 = mem[0],zero
	movq	input, %rax
	movl	1236(%rax), %eax
	addl	$1, %eax
	vcvtsi2sd	%eax, %xmm0, %xmm1
	vmulsd	%xmm1, %xmm0, %xmm0
	vmulsd	bit_rate, %xmm0, %xmm0
	vmovsd	frame_rate, %xmm1       # xmm1 = mem[0],zero
	vmovsd	AWp, %xmm2              # xmm2 = mem[0],zero
	vmovsd	AWb, %xmm3              # xmm3 = mem[0],zero
	movq	input, %rax
	vcvtsi2sdl	1236(%rax), %xmm0, %xmm4
	vmulsd	%xmm4, %xmm3, %xmm3
	vaddsd	%xmm3, %xmm2, %xmm2
	vmulsd	%xmm2, %xmm1, %xmm1
	vdivsd	%xmm1, %xmm0, %xmm0
	vmovsd	bit_rate, %xmm1         # xmm1 = mem[0],zero
	vdivsd	frame_rate, %xmm1, %xmm1
	vsubsd	%xmm1, %xmm0, %xmm0
	vaddsd	TargetBufferLevel, %xmm0, %xmm0
	vmovsd	%xmm0, TargetBufferLevel
.LBB35_64:                              # %if.end171
	jmp	.LBB35_77
.LBB35_65:                              # %sw.bb172
	vmovsd	PreviousBit_Rate, %xmm0 # xmm0 = mem[0],zero
	vucomisd	bit_rate, %xmm0
	jne	.LBB35_66
	jp	.LBB35_66
	jmp	.LBB35_67
.LBB35_66:                              # %if.then175
	vmovsd	.LCPI35_1(%rip), %xmm0  # xmm0 = mem[0],zero
	vmovsd	bit_rate, %xmm1         # xmm1 = mem[0],zero
	vsubsd	PreviousBit_Rate, %xmm1, %xmm1
	movl	Np, %eax
	addl	Nb, %eax
	vcvtsi2sd	%eax, %xmm0, %xmm2
	vmulsd	%xmm2, %xmm1, %xmm1
	vdivsd	frame_rate, %xmm1, %xmm1
	vaddsd	%xmm0, %xmm1, %xmm0
	vroundsd	$9, %xmm0, %xmm0, %xmm0
	vcvttsd2si	%xmm0, %eax
	addl	R, %eax
	movl	%eax, R
.LBB35_67:                              # %if.end184
	movq	img, %rax
	cmpl	$1, 72564(%rax)
	jne	.LBB35_70
# %bb.68:                               # %land.lhs.true188
	movq	img, %rax
	cmpl	$1, 72560(%rax)
	jne	.LBB35_70
# %bb.69:                               # %if.then191
	vmovsd	Wp, %xmm0               # xmm0 = mem[0],zero
	vmovsd	%xmm0, AWp
	vmovsd	Wb, %xmm0               # xmm0 = mem[0],zero
	vmovsd	%xmm0, AWb
	jmp	.LBB35_76
.LBB35_70:                              # %if.else192
	movq	img, %rax
	cmpl	$1, 72560(%rax)
	jle	.LBB35_75
# %bb.71:                               # %if.then196
	movq	img, %rax
	cmpl	$8, 72560(%rax)
	jge	.LBB35_73
# %bb.72:                               # %if.then200
	vmovsd	Wb, %xmm0               # xmm0 = mem[0],zero
	movq	img, %rax
	movl	72560(%rax), %eax
	subl	$1, %eax
	vcvtsi2sd	%eax, %xmm0, %xmm1
	vmulsd	%xmm1, %xmm0, %xmm0
	movq	img, %rax
	vcvtsi2sdl	72560(%rax), %xmm0, %xmm1
	vdivsd	%xmm1, %xmm0, %xmm0
	vmovsd	AWb, %xmm1              # xmm1 = mem[0],zero
	movq	img, %rax
	vcvtsi2sdl	72560(%rax), %xmm0, %xmm2
	vdivsd	%xmm2, %xmm1, %xmm1
	vaddsd	%xmm1, %xmm0, %xmm0
	vmovsd	%xmm0, AWb
	jmp	.LBB35_74
.LBB35_73:                              # %if.else212
	vmovsd	.LCPI35_2(%rip), %xmm0  # xmm0 = mem[0],zero
	vmovsd	.LCPI35_3(%rip), %xmm1  # xmm1 = mem[0],zero
	vmovsd	Wb, %xmm2               # xmm2 = mem[0],zero
	vdivsd	%xmm0, %xmm2, %xmm2
	vmulsd	AWb, %xmm1, %xmm1
	vdivsd	%xmm0, %xmm1, %xmm0
	vaddsd	%xmm0, %xmm2, %xmm0
	vmovsd	%xmm0, AWb
.LBB35_74:                              # %if.end217
	jmp	.LBB35_75
.LBB35_75:                              # %if.end218
	jmp	.LBB35_76
.LBB35_76:                              # %if.end219
	jmp	.LBB35_77
.LBB35_77:                              # %sw.epilog
	movq	img, %rax
	cmpl	$0, 24(%rax)
	jne	.LBB35_110
# %bb.78:                               # %if.then223
	movq	img, %rax
	movl	72620(%rax), %eax
	movq	img, %rcx
	cmpl	72608(%rcx), %eax
	jne	.LBB35_85
# %bb.79:                               # %if.then228
	movq	img, %rax
	cmpl	$0, 72564(%rax)
	jle	.LBB35_84
# %bb.80:                               # %if.then232
	xorl	%eax, %eax
	vmovsd	.LCPI35_1(%rip), %xmm0  # xmm0 = mem[0],zero
	vmovsd	Wp, %xmm1               # xmm1 = mem[0],zero
	vcvtsi2sdl	R, %xmm0, %xmm2
	vmulsd	%xmm2, %xmm1, %xmm1
	vcvtsi2sdl	Np, %xmm0, %xmm2
	vmulsd	Wp, %xmm2, %xmm2
	vcvtsi2sdl	Nb, %xmm0, %xmm3
	vmulsd	Wb, %xmm3, %xmm3
	vaddsd	%xmm3, %xmm2, %xmm2
	vdivsd	%xmm2, %xmm1, %xmm1
	vaddsd	%xmm0, %xmm1, %xmm1
	vroundsd	$9, %xmm1, %xmm0, %xmm1
	vcvttsd2si	%xmm1, %rcx
	movq	%rcx, T
	vmovsd	bit_rate, %xmm1         # xmm1 = mem[0],zero
	vdivsd	frame_rate, %xmm1, %xmm1
	vmovsd	GAMMAP, %xmm2           # xmm2 = mem[0],zero
	vmovsd	CurrentBufferFullness, %xmm3 # xmm3 = mem[0],zero
	vsubsd	TargetBufferLevel, %xmm3, %xmm3
	vmulsd	%xmm3, %xmm2, %xmm2
	vsubsd	%xmm2, %xmm1, %xmm1
	vaddsd	%xmm0, %xmm1, %xmm0
	vroundsd	$9, %xmm0, %xmm0, %xmm0
	vcvttsd2si	%xmm0, %rcx
	movq	%rcx, T1
	cmpq	T1, %rax
	jge	.LBB35_82
# %bb.81:                               # %cond.true
	movq	T1, %rax
	jmp	.LBB35_83
.LBB35_82:                              # %cond.false
	xorl	%eax, %eax
	jmp	.LBB35_83
.LBB35_83:                              # %cond.end
	vmovsd	.LCPI35_1(%rip), %xmm0  # xmm0 = mem[0],zero
	vmovsd	.LCPI35_4(%rip), %xmm1  # xmm1 = mem[0],zero
	movq	%rax, T1
	vmovsd	BETAP, %xmm2            # xmm2 = mem[0],zero
	vcvtsi2sdq	T, %xmm0, %xmm3
	vmulsd	%xmm3, %xmm2, %xmm2
	vsubsd	BETAP, %xmm1, %xmm1
	vcvtsi2sdq	T1, %xmm0, %xmm3
	vmulsd	%xmm3, %xmm1, %xmm1
	vaddsd	%xmm1, %xmm2, %xmm1
	vaddsd	%xmm0, %xmm1, %xmm0
	vroundsd	$9, %xmm0, %xmm0, %xmm0
	vcvttsd2si	%xmm0, %rax
	movq	%rax, T
.LBB35_84:                              # %if.end259
	jmp	.LBB35_98
.LBB35_85:                              # %if.else260
	movq	img, %rax
	cmpl	$1, 72568(%rax)
	jne	.LBB35_91
# %bb.86:                               # %land.lhs.true264
	movq	img, %rax
	cmpl	$0, 72564(%rax)
	jle	.LBB35_91
# %bb.87:                               # %if.then268
	xorl	%eax, %eax
	vmovsd	.LCPI35_1(%rip), %xmm0  # xmm0 = mem[0],zero
	vmovsd	Wp, %xmm1               # xmm1 = mem[0],zero
	vcvtsi2sdl	R, %xmm0, %xmm2
	vmulsd	%xmm2, %xmm1, %xmm1
	vcvtsi2sdl	Np, %xmm0, %xmm2
	vmulsd	Wp, %xmm2, %xmm2
	vcvtsi2sdl	Nb, %xmm0, %xmm3
	vmulsd	Wb, %xmm3, %xmm3
	vaddsd	%xmm3, %xmm2, %xmm2
	vdivsd	%xmm2, %xmm1, %xmm1
	vaddsd	%xmm0, %xmm1, %xmm1
	vroundsd	$9, %xmm1, %xmm0, %xmm1
	vcvttsd2si	%xmm1, %ecx
	movslq	%ecx, %rcx
	movq	%rcx, T
	vmovsd	bit_rate, %xmm1         # xmm1 = mem[0],zero
	vdivsd	frame_rate, %xmm1, %xmm1
	vmovsd	GAMMAP, %xmm2           # xmm2 = mem[0],zero
	vmovsd	CurrentBufferFullness, %xmm3 # xmm3 = mem[0],zero
	vsubsd	TargetBufferLevel, %xmm3, %xmm3
	vmulsd	%xmm3, %xmm2, %xmm2
	vsubsd	%xmm2, %xmm1, %xmm1
	vaddsd	%xmm0, %xmm1, %xmm0
	vroundsd	$9, %xmm0, %xmm0, %xmm0
	vcvttsd2si	%xmm0, %ecx
	movslq	%ecx, %rcx
	movq	%rcx, T1
	cmpq	T1, %rax
	jge	.LBB35_89
# %bb.88:                               # %cond.true289
	movq	T1, %rax
	jmp	.LBB35_90
.LBB35_89:                              # %cond.false290
	xorl	%eax, %eax
	jmp	.LBB35_90
.LBB35_90:                              # %cond.end291
	vmovsd	.LCPI35_1(%rip), %xmm0  # xmm0 = mem[0],zero
	vmovsd	.LCPI35_4(%rip), %xmm1  # xmm1 = mem[0],zero
	movq	%rax, T1
	vmovsd	BETAP, %xmm2            # xmm2 = mem[0],zero
	vcvtsi2sdq	T, %xmm0, %xmm3
	vmulsd	%xmm3, %xmm2, %xmm2
	vsubsd	BETAP, %xmm1, %xmm1
	vcvtsi2sdq	T1, %xmm0, %xmm3
	vmulsd	%xmm3, %xmm1, %xmm1
	vaddsd	%xmm1, %xmm2, %xmm1
	vaddsd	%xmm0, %xmm1, %xmm0
	vroundsd	$9, %xmm0, %xmm0, %xmm0
	vcvttsd2si	%xmm0, %eax
	cltq
	movq	%rax, T
	jmp	.LBB35_97
.LBB35_91:                              # %if.else302
	movq	img, %rax
	cmpl	$1, 72568(%rax)
	jle	.LBB35_96
# %bb.92:                               # %if.then306
	xorl	%eax, %eax
	vmovsd	.LCPI35_1(%rip), %xmm0  # xmm0 = mem[0],zero
	vmovsd	Wp, %xmm1               # xmm1 = mem[0],zero
	vcvtsi2sdl	R, %xmm0, %xmm2
	vmulsd	%xmm2, %xmm1, %xmm1
	vcvtsi2sdl	Np, %xmm0, %xmm2
	vmulsd	Wp, %xmm2, %xmm2
	vcvtsi2sdl	Nb, %xmm0, %xmm3
	vmulsd	Wb, %xmm3, %xmm3
	vaddsd	%xmm3, %xmm2, %xmm2
	vdivsd	%xmm2, %xmm1, %xmm1
	vaddsd	%xmm0, %xmm1, %xmm1
	vroundsd	$9, %xmm1, %xmm0, %xmm1
	vcvttsd2si	%xmm1, %rcx
	movq	%rcx, T
	vmovsd	bit_rate, %xmm1         # xmm1 = mem[0],zero
	vdivsd	frame_rate, %xmm1, %xmm1
	vmovsd	GAMMAP, %xmm2           # xmm2 = mem[0],zero
	vmovsd	CurrentBufferFullness, %xmm3 # xmm3 = mem[0],zero
	vsubsd	TargetBufferLevel, %xmm3, %xmm3
	vmulsd	%xmm3, %xmm2, %xmm2
	vsubsd	%xmm2, %xmm1, %xmm1
	vaddsd	%xmm0, %xmm1, %xmm0
	vroundsd	$9, %xmm0, %xmm0, %xmm0
	vcvttsd2si	%xmm0, %rcx
	movq	%rcx, T1
	cmpq	T1, %rax
	jge	.LBB35_94
# %bb.93:                               # %cond.true325
	movq	T1, %rax
	jmp	.LBB35_95
.LBB35_94:                              # %cond.false326
	xorl	%eax, %eax
	jmp	.LBB35_95
.LBB35_95:                              # %cond.end327
	vmovsd	.LCPI35_1(%rip), %xmm0  # xmm0 = mem[0],zero
	vmovsd	.LCPI35_4(%rip), %xmm1  # xmm1 = mem[0],zero
	movq	%rax, T1
	vmovsd	BETAP, %xmm2            # xmm2 = mem[0],zero
	vcvtsi2sdq	T, %xmm0, %xmm3
	vmulsd	%xmm3, %xmm2, %xmm2
	vsubsd	BETAP, %xmm1, %xmm1
	vcvtsi2sdq	T1, %xmm0, %xmm3
	vmulsd	%xmm3, %xmm1, %xmm1
	vaddsd	%xmm1, %xmm2, %xmm1
	vaddsd	%xmm0, %xmm1, %xmm0
	vroundsd	$9, %xmm0, %xmm0, %xmm0
	vcvttsd2si	%xmm0, %rax
	movq	%rax, T
.LBB35_96:                              # %if.end337
	jmp	.LBB35_97
.LBB35_97:                              # %if.end338
	jmp	.LBB35_98
.LBB35_98:                              # %if.end339
	vmovsd	.LCPI35_4(%rip), %xmm0  # xmm0 = mem[0],zero
	movq	input, %rax
	vcvtsi2sdl	1236(%rax), %xmm0, %xmm1
	vxorps	%xmm2, %xmm2, %xmm2
	vmulsd	%xmm1, %xmm2, %xmm1
	vsubsd	%xmm1, %xmm0, %xmm0
	vcvtsi2sdq	T, %xmm0, %xmm1
	vmulsd	%xmm1, %xmm0, %xmm0
	vcvttsd2si	%xmm0, %rax
	movq	%rax, T
	movq	T, %rax
	cmpq	LowerBound, %rax
	jge	.LBB35_100
# %bb.99:                               # %cond.true349
	movq	LowerBound, %rax
	jmp	.LBB35_101
.LBB35_100:                             # %cond.false350
	movq	T, %rax
.LBB35_101:                             # %cond.end351
	movq	%rax, T
	movq	T, %rax
	cmpq	UpperBound2, %rax
	jge	.LBB35_103
# %bb.102:                              # %cond.true355
	movq	T, %rax
	jmp	.LBB35_104
.LBB35_103:                             # %cond.false356
	movq	UpperBound2, %rax
.LBB35_104:                             # %cond.end357
	movq	%rax, T
	cmpl	$0, -8(%rbp)
	jne	.LBB35_108
# %bb.105:                              # %lor.lhs.false360
	cmpl	$0, -12(%rbp)
	je	.LBB35_109
# %bb.106:                              # %land.lhs.true362
	movq	input, %rax
	cmpl	$2, 2880(%rax)
	je	.LBB35_108
# %bb.107:                              # %lor.lhs.false366
	movq	input, %rax
	cmpl	$0, 2884(%rax)
	je	.LBB35_109
.LBB35_108:                             # %if.then369
	movq	T, %rax
	movl	%eax, T_field
.LBB35_109:                             # %if.end371
	jmp	.LBB35_110
.LBB35_110:                             # %if.end372
	jmp	.LBB35_111
.LBB35_111:                             # %if.end373
	cmpl	$0, -12(%rbp)
	jne	.LBB35_113
# %bb.112:                              # %lor.lhs.false375
	cmpl	$0, -8(%rbp)
	je	.LBB35_119
.LBB35_113:                             # %if.then377
	movq	img, %rax
	movl	$0, 72524(%rax)
	movq	img, %rax
	movl	$0, 72528(%rax)
	movq	img, %rax
	movl	72620(%rax), %eax
	movq	img, %rcx
	cmpl	72608(%rcx), %eax
	jge	.LBB35_118
# %bb.114:                              # %if.then382
	movl	$0, TotalFrameQP
	movq	img, %rax
	movl	$0, 72532(%rax)
	movq	img, %rax
	movl	$0, 72536(%rax)
	movq	img, %rax
	vxorps	%xmm0, %xmm0, %xmm0
	vmovsd	%xmm0, 72544(%rax)
	movq	img, %rax
	cmpl	$0, 72600(%rax)
	jne	.LBB35_116
# %bb.115:                              # %if.then386
	movl	TotalNumberofBasicUnit, %eax
	movl	%eax, NumberofBasicUnit
	jmp	.LBB35_117
.LBB35_116:                             # %if.else387
	movl	TotalNumberofBasicUnit, %eax
	cltd
	movl	$2, %ecx
	idivl	%ecx
	movl	%eax, NumberofBasicUnit
.LBB35_117:                             # %if.end389
	jmp	.LBB35_118
.LBB35_118:                             # %if.end390
	jmp	.LBB35_119
.LBB35_119:                             # %if.end391
	movq	img, %rax
	cmpl	$0, 24(%rax)
	jne	.LBB35_126
# %bb.120:                              # %land.lhs.true395
	movq	img, %rax
	movl	72620(%rax), %eax
	movq	img, %rcx
	cmpl	72608(%rcx), %eax
	jge	.LBB35_126
# %bb.121:                              # %land.lhs.true400
	movq	img, %rax
	cmpl	$1, 72600(%rax)
	jne	.LBB35_126
# %bb.122:                              # %if.then404
	cmpl	$0, -8(%rbp)
	je	.LBB35_124
# %bb.123:                              # %if.then406
	vmovsd	.LCPI35_5(%rip), %xmm0  # xmm0 = mem[0],zero
	movl	$0, bits_topfield
	vcvtsi2sdl	T_field, %xmm0, %xmm1
	vmulsd	%xmm0, %xmm1, %xmm0
	vcvttsd2si	%xmm0, %rax
	movq	%rax, T
	jmp	.LBB35_125
.LBB35_124:                             # %if.else410
	movl	T_field, %eax
	subl	bits_topfield, %eax
	cltq
	movq	%rax, T
	movq	img, %rax
	movl	$0, 72532(%rax)
	movq	img, %rax
	movl	$0, 72536(%rax)
	movq	img, %rax
	vxorps	%xmm0, %xmm0, %xmm0
	vmovsd	%xmm0, 72544(%rax)
	movl	TotalNumberofBasicUnit, %eax
	cltd
	movl	$2, %ecx
	idivl	%ecx
	movl	%eax, NumberofBasicUnit
.LBB35_125:                             # %if.end417
	jmp	.LBB35_126
.LBB35_126:                             # %if.end418
	cmpl	$2025846787, -20(%rbp)  # imm = 0x78BFF803
	jne	.LBB35_128
.LBB35_127:
	addq	$32, %rsp
	popq	%rbp
	.cfi_def_cfa %rsp, 8
	retq
.LBB35_128:                             # %func_exit
	.cfi_def_cfa %rbp, 16
	callq	detect_breach
	jmp	.LBB35_127
.Lfunc_end35:
	.size	rc_init_pict.19, .Lfunc_end35-rc_init_pict.19
	.cfi_endproc
                                        # -- End function
	.section	.rodata.cst8,"aM",@progbits,8
	.p2align	3               # -- Begin function updateQuantizationParameter.20
.LCPI36_0:
	.quad	4616189618054758400     # double 4
.LCPI36_1:
	.quad	4611686018427387904     # double 2
.LCPI36_2:
	.quad	4602678819172646912     # double 0.5
.LCPI36_3:
	.quad	4607182418800017408     # double 1
	.text
	.globl	updateQuantizationParameter.20
	.p2align	4, 0x90
	.type	updateQuantizationParameter.20,@function
updateQuantizationParameter.20:         # @updateQuantizationParameter.20
	.cfi_startproc
# %bb.0:                                # %entry
	pushq	%rbp
	.cfi_def_cfa_offset 16
	.cfi_offset %rbp, -16
	movq	%rsp, %rbp
	.cfi_def_cfa_register %rbp
	pushq	%rbx
	subq	$72, %rsp
	.cfi_offset %rbx, -24
	movl	$1371807097, -56(%rbp)  # imm = 0x51C41D79
	movl	%edi, -36(%rbp)
	movq	img, %rax
	movl	72620(%rax), %eax
	movq	img, %rcx
	cmpl	72608(%rcx), %eax
	jne	.LBB36_123
# %bb.1:                                # %if.then
	cmpl	$0, -36(%rbp)
	jne	.LBB36_3
# %bb.2:                                # %lor.lhs.false
	movq	img, %rax
	cmpl	$0, 72600(%rax)
	jne	.LBB36_116
.LBB36_3:                               # %if.then2
	movq	img, %rax
	cmpl	$2, 24(%rax)
	jne	.LBB36_5
# %bb.4:                                # %if.then4
	movl	MyInitialQp, %eax
	movl	%eax, m_Qc
	movl	m_Qc, %eax
	movl	%eax, -20(%rbp)
	jmp	.LBB36_363
.LBB36_5:                               # %if.else
	movq	img, %rax
	cmpl	$1, 24(%rax)
	jne	.LBB36_69
# %bb.6:                                # %if.then7
	movq	input, %rax
	cmpl	$1, 1236(%rax)
	jne	.LBB36_25
# %bb.7:                                # %if.then9
	movq	input, %rax
	cmpl	$2, 2880(%rax)
	je	.LBB36_9
# %bb.8:                                # %lor.lhs.false11
	movq	input, %rax
	cmpl	$0, 2884(%rax)
	je	.LBB36_15
.LBB36_9:                               # %if.then13
	movq	img, %rax
	cmpl	$0, 72600(%rax)
	jne	.LBB36_14
# %bb.10:                               # %if.then16
	movq	img, %rax
	cmpl	$1, 72604(%rax)
	jne	.LBB36_12
# %bb.11:                               # %if.then18
	movl	PreviousQp2, %eax
	movl	%eax, PreviousQp1
	movl	FrameQPBuffer, %eax
	movl	%eax, PreviousQp2
	jmp	.LBB36_13
.LBB36_12:                              # %if.else19
	movl	PreviousQp2, %eax
	movl	%eax, PreviousQp1
	movl	FieldQPBuffer, %eax
	movl	%eax, PreviousQp2
.LBB36_13:                              # %if.end
	jmp	.LBB36_14
.LBB36_14:                              # %if.end20
	jmp	.LBB36_15
.LBB36_15:                              # %if.end21
	movl	PreviousQp1, %eax
	cmpl	PreviousQp2, %eax
	jne	.LBB36_17
# %bb.16:                               # %if.then23
	movl	PreviousQp1, %eax
	addl	$2, %eax
	movl	%eax, m_Qc
	jmp	.LBB36_18
.LBB36_17:                              # %if.else24
	movl	PreviousQp1, %eax
	addl	PreviousQp2, %eax
	cltd
	movl	$2, %ecx
	idivl	%ecx
	addl	$1, %eax
	movl	%eax, m_Qc
.LBB36_18:                              # %if.end27
	movl	m_Qc, %eax
	cmpl	RC_MAX_QUANT, %eax
	jge	.LBB36_20
# %bb.19:                               # %cond.true
	movl	m_Qc, %eax
	jmp	.LBB36_21
.LBB36_20:                              # %cond.false
	movl	RC_MAX_QUANT, %eax
.LBB36_21:                              # %cond.end
	movl	%eax, m_Qc
	movl	RC_MIN_QUANT, %eax
	cmpl	m_Qc, %eax
	jge	.LBB36_23
# %bb.22:                               # %cond.true30
	movl	m_Qc, %eax
	jmp	.LBB36_24
.LBB36_23:                              # %cond.false31
	movl	RC_MIN_QUANT, %eax
.LBB36_24:                              # %cond.end32
	movl	%eax, m_Qc
	jmp	.LBB36_68
.LBB36_25:                              # %if.else34
	movl	NumberofBFrames, %eax
	addl	$1, %eax
	movq	input, %rcx
	cltd
	idivl	1236(%rcx)
	movl	%edx, -12(%rbp)
	cmpl	$0, -12(%rbp)
	jne	.LBB36_27
# %bb.26:                               # %if.then38
	movq	input, %rax
	movl	1236(%rax), %eax
	movl	%eax, -12(%rbp)
.LBB36_27:                              # %if.end40
	cmpl	$1, -12(%rbp)
	jne	.LBB36_37
# %bb.28:                               # %if.then42
	movq	input, %rax
	cmpl	$2, 2880(%rax)
	je	.LBB36_30
# %bb.29:                               # %lor.lhs.false45
	movq	input, %rax
	cmpl	$0, 2884(%rax)
	je	.LBB36_36
.LBB36_30:                              # %if.then48
	movq	img, %rax
	cmpl	$0, 72600(%rax)
	jne	.LBB36_35
# %bb.31:                               # %if.then51
	movq	img, %rax
	cmpl	$1, 72604(%rax)
	jne	.LBB36_33
# %bb.32:                               # %if.then54
	movl	PreviousQp2, %eax
	movl	%eax, PreviousQp1
	movl	FrameQPBuffer, %eax
	movl	%eax, PreviousQp2
	jmp	.LBB36_34
.LBB36_33:                              # %if.else55
	movl	PreviousQp2, %eax
	movl	%eax, PreviousQp1
	movl	FieldQPBuffer, %eax
	movl	%eax, PreviousQp2
.LBB36_34:                              # %if.end56
	jmp	.LBB36_35
.LBB36_35:                              # %if.end57
	jmp	.LBB36_36
.LBB36_36:                              # %if.end58
	jmp	.LBB36_37
.LBB36_37:                              # %if.end59
	movl	PreviousQp2, %eax
	subl	PreviousQp1, %eax
	movq	input, %rcx
	imull	$4294967294, 1236(%rcx), %ecx # imm = 0xFFFFFFFE
	subl	$3, %ecx
	cmpl	%ecx, %eax
	jg	.LBB36_39
# %bb.38:                               # %if.then63
	movl	$-3, -28(%rbp)
	jmp	.LBB36_52
.LBB36_39:                              # %if.else64
	movl	PreviousQp2, %eax
	subl	PreviousQp1, %eax
	movq	input, %rcx
	imull	$4294967294, 1236(%rcx), %ecx # imm = 0xFFFFFFFE
	subl	$2, %ecx
	cmpl	%ecx, %eax
	jne	.LBB36_41
# %bb.40:                               # %if.then70
	movl	$-2, -28(%rbp)
	jmp	.LBB36_51
.LBB36_41:                              # %if.else71
	movl	PreviousQp2, %eax
	subl	PreviousQp1, %eax
	movq	input, %rcx
	imull	$4294967294, 1236(%rcx), %ecx # imm = 0xFFFFFFFE
	subl	$1, %ecx
	cmpl	%ecx, %eax
	jne	.LBB36_43
# %bb.42:                               # %if.then77
	movl	$-1, -28(%rbp)
	jmp	.LBB36_50
.LBB36_43:                              # %if.else78
	movl	PreviousQp2, %eax
	subl	PreviousQp1, %eax
	movq	input, %rcx
	imull	$4294967294, 1236(%rcx), %ecx # imm = 0xFFFFFFFE
	cmpl	%ecx, %eax
	jne	.LBB36_45
# %bb.44:                               # %if.then83
	movl	$0, -28(%rbp)
	jmp	.LBB36_49
.LBB36_45:                              # %if.else84
	movl	PreviousQp2, %eax
	subl	PreviousQp1, %eax
	movq	input, %rcx
	imull	$4294967294, 1236(%rcx), %ecx # imm = 0xFFFFFFFE
	addl	$1, %ecx
	cmpl	%ecx, %eax
	jne	.LBB36_47
# %bb.46:                               # %if.then90
	movl	$1, -28(%rbp)
	jmp	.LBB36_48
.LBB36_47:                              # %if.else91
	movl	$2, -28(%rbp)
.LBB36_48:                              # %if.end92
	jmp	.LBB36_49
.LBB36_49:                              # %if.end93
	jmp	.LBB36_50
.LBB36_50:                              # %if.end94
	jmp	.LBB36_51
.LBB36_51:                              # %if.end95
	jmp	.LBB36_52
.LBB36_52:                              # %if.end96
	movl	PreviousQp1, %eax
	addl	-28(%rbp), %eax
	movl	%eax, m_Qc
	movl	-12(%rbp), %ecx
	subl	$1, %ecx
	shll	$1, %ecx
	movl	-12(%rbp), %eax
	subl	$1, %eax
	imull	$4294967294, %eax, %esi # imm = 0xFFFFFFFE
	movl	-12(%rbp), %eax
	subl	$1, %eax
	movl	PreviousQp2, %edx
	subl	PreviousQp1, %edx
	imull	%edx, %eax
	movq	input, %rdx
	movl	1236(%rdx), %edi
	subl	$1, %edi
	cltd
	idivl	%edi
	cmpl	%eax, %esi
	jge	.LBB36_54
# %bb.53:                               # %cond.true109
	movl	-12(%rbp), %eax
	subl	$1, %eax
	movl	PreviousQp2, %edx
	subl	PreviousQp1, %edx
	imull	%edx, %eax
	movq	input, %rdx
	movl	1236(%rdx), %esi
	subl	$1, %esi
	cltd
	idivl	%esi
	jmp	.LBB36_55
.LBB36_54:                              # %cond.false116
	movl	-12(%rbp), %eax
	subl	$1, %eax
	imull	$4294967294, %eax, %eax # imm = 0xFFFFFFFE
.LBB36_55:                              # %cond.end119
	cmpl	%eax, %ecx
	jge	.LBB36_57
# %bb.56:                               # %cond.true122
	movl	-12(%rbp), %eax
	subl	$1, %eax
	shll	$1, %eax
	jmp	.LBB36_61
.LBB36_57:                              # %cond.false125
	movl	-12(%rbp), %eax
	subl	$1, %eax
	imull	$4294967294, %eax, %ecx # imm = 0xFFFFFFFE
	movl	-12(%rbp), %eax
	subl	$1, %eax
	movl	PreviousQp2, %edx
	subl	PreviousQp1, %edx
	imull	%edx, %eax
	movq	input, %rdx
	movl	1236(%rdx), %esi
	subl	$1, %esi
	cltd
	idivl	%esi
	cmpl	%eax, %ecx
	jge	.LBB36_59
# %bb.58:                               # %cond.true135
	movl	-12(%rbp), %eax
	subl	$1, %eax
	movl	PreviousQp2, %ecx
	subl	PreviousQp1, %ecx
	imull	%ecx, %eax
	movq	input, %rcx
	movl	1236(%rcx), %ecx
	subl	$1, %ecx
	cltd
	idivl	%ecx
	jmp	.LBB36_60
.LBB36_59:                              # %cond.false142
	movl	-12(%rbp), %eax
	subl	$1, %eax
	imull	$4294967294, %eax, %eax # imm = 0xFFFFFFFE
.LBB36_60:                              # %cond.end145
.LBB36_61:                              # %cond.end147
	addl	m_Qc, %eax
	movl	%eax, m_Qc
	movl	m_Qc, %eax
	cmpl	RC_MAX_QUANT, %eax
	jge	.LBB36_63
# %bb.62:                               # %cond.true151
	movl	m_Qc, %eax
	jmp	.LBB36_64
.LBB36_63:                              # %cond.false152
	movl	RC_MAX_QUANT, %eax
.LBB36_64:                              # %cond.end153
	movl	%eax, m_Qc
	movl	RC_MIN_QUANT, %eax
	cmpl	m_Qc, %eax
	jge	.LBB36_66
# %bb.65:                               # %cond.true156
	movl	m_Qc, %eax
	jmp	.LBB36_67
.LBB36_66:                              # %cond.false157
	movl	RC_MIN_QUANT, %eax
.LBB36_67:                              # %cond.end158
	movl	%eax, m_Qc
.LBB36_68:                              # %if.end160
	movl	m_Qc, %eax
	movl	%eax, -20(%rbp)
	jmp	.LBB36_363
.LBB36_69:                              # %if.else161
	movq	img, %rax
	cmpl	$0, 24(%rax)
	jne	.LBB36_77
# %bb.70:                               # %land.lhs.true
	movq	img, %rax
	cmpl	$0, 72576(%rax)
	jne	.LBB36_77
# %bb.71:                               # %if.then165
	movl	MyInitialQp, %eax
	movl	%eax, m_Qc
	movq	img, %rax
	cmpl	$0, 72600(%rax)
	jne	.LBB36_76
# %bb.72:                               # %if.then168
	movq	active_sps, %rax
	cmpl	$0, 1148(%rax)
	je	.LBB36_74
# %bb.73:                               # %if.then170
	movl	m_Qc, %eax
	movq	img, %rcx
	addl	72572(%rcx), %eax
	movl	%eax, 72572(%rcx)
	movl	PreviousQp2, %eax
	movl	%eax, PreviousQp1
	movl	m_Qc, %eax
	movl	%eax, PreviousQp2
	movl	m_Qc, %eax
	movl	%eax, Pm_Qp
	jmp	.LBB36_75
.LBB36_74:                              # %if.else172
	movl	m_Qc, %eax
	movl	%eax, FrameQPBuffer
.LBB36_75:                              # %if.end173
	jmp	.LBB36_76
.LBB36_76:                              # %if.end174
	movl	m_Qc, %eax
	movl	%eax, -20(%rbp)
	jmp	.LBB36_363
.LBB36_77:                              # %if.else175
	movq	input, %rax
	cmpl	$2, 2880(%rax)
	je	.LBB36_79
# %bb.78:                               # %lor.lhs.false178
	movq	input, %rax
	cmpl	$0, 2884(%rax)
	je	.LBB36_84
.LBB36_79:                              # %land.lhs.true181
	movq	img, %rax
	cmpl	$0, 72600(%rax)
	jne	.LBB36_84
# %bb.80:                               # %if.then184
	movq	img, %rax
	cmpl	$1, 72604(%rax)
	jne	.LBB36_82
# %bb.81:                               # %if.then187
	movl	FrameQPBuffer, %eax
	movq	img, %rcx
	addl	72572(%rcx), %eax
	movl	%eax, 72572(%rcx)
	movl	FrameQPBuffer, %eax
	movl	%eax, Pm_Qp
	jmp	.LBB36_83
.LBB36_82:                              # %if.else190
	movl	FieldQPBuffer, %eax
	movq	img, %rcx
	addl	72572(%rcx), %eax
	movl	%eax, 72572(%rcx)
	movl	FieldQPBuffer, %eax
	movl	%eax, Pm_Qp
.LBB36_83:                              # %if.end193
	jmp	.LBB36_84
.LBB36_84:                              # %if.end194
	vmovsd	Pm_X1, %xmm0            # xmm0 = mem[0],zero
	vmovsd	%xmm0, m_X1
	vmovsd	Pm_X2, %xmm0            # xmm0 = mem[0],zero
	vmovsd	%xmm0, m_X2
	movl	PPreHeader, %eax
	movl	%eax, m_Hp
	movl	Pm_Qp, %eax
	movl	%eax, m_Qp
	movl	PDuantQp, %eax
	movl	%eax, DuantQp
	vmovsd	PMADPictureC1, %xmm0    # xmm0 = mem[0],zero
	vmovsd	%xmm0, MADPictureC1
	vmovsd	PMADPictureC2, %xmm0    # xmm0 = mem[0],zero
	vmovsd	%xmm0, MADPictureC2
	vmovsd	PPictureMAD, %xmm0      # xmm0 = mem[0],zero
	vmovsd	%xmm0, PreviousPictureMAD
	vmovsd	MADPictureC1, %xmm0     # xmm0 = mem[0],zero
	vmulsd	PreviousPictureMAD, %xmm0, %xmm0
	vaddsd	MADPictureC2, %xmm0, %xmm0
	vmovsd	%xmm0, CurrentFrameMAD
	cmpq	$0, T
	jge	.LBB36_89
# %bb.85:                               # %if.then198
	movl	m_Qp, %eax
	addl	DuantQp, %eax
	movl	%eax, m_Qc
	movl	m_Qc, %eax
	cmpl	RC_MAX_QUANT, %eax
	jge	.LBB36_87
# %bb.86:                               # %cond.true201
	movl	m_Qc, %eax
	jmp	.LBB36_88
.LBB36_87:                              # %cond.false202
	movl	RC_MAX_QUANT, %eax
.LBB36_88:                              # %cond.end203
	movl	%eax, m_Qc
	jmp	.LBB36_110
.LBB36_89:                              # %if.else205
	movq	T, %rax
	movslq	m_Hp, %rcx
	subq	%rcx, %rax
	movl	%eax, -24(%rbp)
	movl	-24(%rbp), %eax
	vmovsd	bit_rate, %xmm0         # xmm0 = mem[0],zero
	vmovsd	MINVALUE, %xmm1         # xmm1 = mem[0],zero
	vmulsd	frame_rate, %xmm1, %xmm1
	vdivsd	%xmm1, %xmm0, %xmm0
	vcvttsd2si	%xmm0, %ecx
	cmpl	%ecx, %eax
	jge	.LBB36_91
# %bb.90:                               # %cond.true213
	vmovsd	bit_rate, %xmm0         # xmm0 = mem[0],zero
	vmovsd	MINVALUE, %xmm1         # xmm1 = mem[0],zero
	vmulsd	frame_rate, %xmm1, %xmm1
	vdivsd	%xmm1, %xmm0, %xmm0
	vcvttsd2si	%xmm0, %eax
	jmp	.LBB36_92
.LBB36_91:                              # %cond.false217
	movl	-24(%rbp), %eax
.LBB36_92:                              # %cond.end218
	vmovsd	.LCPI36_0(%rip), %xmm0  # xmm0 = mem[0],zero
	movl	%eax, -24(%rbp)
	vmovsd	CurrentFrameMAD, %xmm1  # xmm1 = mem[0],zero
	vmulsd	m_X1, %xmm1, %xmm1
