	.text
	.file	"ratectl.c"
	.globl	rc_alloc                # -- Begin function rc_alloc
	.p2align	4, 0x90
	.type	rc_alloc,@function
rc_alloc:                               # @rc_alloc
	.cfi_startproc
# %bb.0:                                # %entry
	pushq	%rbp
	.cfi_def_cfa_offset 16
	.cfi_offset %rbp, -16
	movq	%rsp, %rbp
	.cfi_def_cfa_register %rbp
	movq	img, %rax
	movl	72488(%rax), %edi
	movl	$8, %esi
	callq	calloc
	xorl	%ecx, %ecx
	movq	img, %rdx
	movq	%rax, 72584(%rdx)
	movq	img, %rax
	cmpq	72584(%rax), %rcx
	jne	.LBB0_2
# %bb.1:                                # %if.then
	movabsq	$.L.str, %rdi
	callq	no_mem_exit
.LBB0_2:                                # %if.end
	movq	img, %rax
	movl	72488(%rax), %eax
	movq	input, %rcx
	xorl	%edx, %edx
	divl	3248(%rcx)
	movl	%eax, %edi
	movl	$8, %esi
	callq	calloc
	xorl	%ecx, %ecx
	movq	%rax, BUPFMAD
	cmpq	BUPFMAD, %rcx
	jne	.LBB0_4
# %bb.3:                                # %if.then8
	movabsq	$.L.str.1, %rdi
	callq	no_mem_exit
.LBB0_4:                                # %if.end9
	movq	img, %rax
	movl	72488(%rax), %eax
	movq	input, %rcx
	xorl	%edx, %edx
	divl	3248(%rcx)
	movl	%eax, %edi
	movl	$8, %esi
	callq	calloc
	xorl	%ecx, %ecx
	movq	%rax, BUCFMAD
	cmpq	BUCFMAD, %rcx
	jne	.LBB0_6
# %bb.5:                                # %if.then17
	movabsq	$.L.str.2, %rdi
	callq	no_mem_exit
.LBB0_6:                                # %if.end18
	movq	img, %rax
	movl	72488(%rax), %eax
	movq	input, %rcx
	xorl	%edx, %edx
	divl	3248(%rcx)
	movl	%eax, %edi
	movl	$8, %esi
	callq	calloc
	xorl	%ecx, %ecx
	movq	%rax, FCBUCFMAD
	cmpq	FCBUCFMAD, %rcx
	jne	.LBB0_8
# %bb.7:                                # %if.then26
	movabsq	$.L.str.3, %rdi
	callq	no_mem_exit
.LBB0_8:                                # %if.end27
	movq	img, %rax
	movl	72488(%rax), %eax
	movq	input, %rcx
	xorl	%edx, %edx
	divl	3248(%rcx)
	movl	%eax, %edi
	movl	$8, %esi
	callq	calloc
	xorl	%ecx, %ecx
	movq	%rax, FCBUPFMAD
	cmpq	FCBUPFMAD, %rcx
	jne	.LBB0_10
# %bb.9:                                # %if.then35
	movabsq	$.L.str.4, %rdi
	callq	no_mem_exit
.LBB0_10:                               # %if.end36
	popq	%rbp
	.cfi_def_cfa %rsp, 8
	retq
.Lfunc_end0:
	.size	rc_alloc, .Lfunc_end0-rc_alloc
	.cfi_endproc
                                        # -- End function
	.globl	rc_free                 # -- Begin function rc_free
	.p2align	4, 0x90
	.type	rc_free,@function
rc_free:                                # @rc_free
	.cfi_startproc
# %bb.0:                                # %entry
	pushq	%rbp
	.cfi_def_cfa_offset 16
	.cfi_offset %rbp, -16
	movq	%rsp, %rbp
	.cfi_def_cfa_register %rbp
	xorl	%eax, %eax
	movq	img, %rcx
	cmpq	72584(%rcx), %rax
	je	.LBB1_2
# %bb.1:                                # %if.then
	movq	img, %rax
	movq	72584(%rax), %rdi
	callq	free
	movq	img, %rax
	movq	$0, 72584(%rax)
.LBB1_2:                                # %if.end
	xorl	%eax, %eax
	cmpq	BUPFMAD, %rax
	je	.LBB1_4
# %bb.3:                                # %if.then4
	movq	BUPFMAD, %rdi
	callq	free
	movq	$0, BUPFMAD
.LBB1_4:                                # %if.end5
	xorl	%eax, %eax
	cmpq	BUCFMAD, %rax
	je	.LBB1_6
# %bb.5:                                # %if.then7
	movq	BUCFMAD, %rdi
	callq	free
	movq	$0, BUCFMAD
.LBB1_6:                                # %if.end8
	xorl	%eax, %eax
	cmpq	FCBUCFMAD, %rax
	je	.LBB1_8
# %bb.7:                                # %if.then10
	movq	FCBUCFMAD, %rdi
	callq	free
	movq	$0, FCBUCFMAD
.LBB1_8:                                # %if.end11
	xorl	%eax, %eax
	cmpq	FCBUPFMAD, %rax
	je	.LBB1_10
# %bb.9:                                # %if.then13
	movq	FCBUPFMAD, %rdi
	callq	free
	movq	$0, FCBUPFMAD
.LBB1_10:                               # %if.end14
	popq	%rbp
	.cfi_def_cfa %rsp, 8
	retq
.Lfunc_end1:
	.size	rc_free, .Lfunc_end1-rc_free
	.cfi_endproc
                                        # -- End function
	.globl	rc_init_seq             # -- Begin function rc_init_seq
	.p2align	4, 0x90
	.type	rc_init_seq,@function
rc_init_seq:                            # @rc_init_seq
	.cfi_startproc
# %bb.0:                                # %rand_bb
	pushq	%rbp
	.cfi_def_cfa_offset 16
	.cfi_offset %rbp, -16
	movq	%rsp, %rbp
	.cfi_def_cfa_register %rbp
	callq	get_urand
	cmpl	$0, %eax
	jne	.LBB2_9
# %bb.1:                                # %func_rc_init_seq.14
	callq	rc_init_seq.14
	popq	%rbp
	.cfi_def_cfa %rsp, 8
	retq
.LBB2_2:                                # %func_rc_init_seq.33
	.cfi_def_cfa %rbp, 16
	callq	rc_init_seq.33
	popq	%rbp
	.cfi_def_cfa %rsp, 8
	retq
.LBB2_3:                                # %func_rc_init_seq.54
	.cfi_def_cfa %rbp, 16
	callq	rc_init_seq.54
	popq	%rbp
	.cfi_def_cfa %rsp, 8
	retq
.LBB2_4:                                # %func_rc_init_seq.68
	.cfi_def_cfa %rbp, 16
	callq	rc_init_seq.68
	popq	%rbp
	.cfi_def_cfa %rsp, 8
	retq
.LBB2_5:                                # %func_rc_init_seq.70
	.cfi_def_cfa %rbp, 16
	callq	rc_init_seq.70
	popq	%rbp
	.cfi_def_cfa %rsp, 8
	retq
.LBB2_6:                                # %func_rc_init_seq.81
	.cfi_def_cfa %rbp, 16
	callq	rc_init_seq.81
	popq	%rbp
	.cfi_def_cfa %rsp, 8
	retq
.LBB2_7:                                # %func_rc_init_seq.84
	.cfi_def_cfa %rbp, 16
	callq	rc_init_seq.84
	popq	%rbp
	.cfi_def_cfa %rsp, 8
	retq
.LBB2_8:                                # %func_rc_init_seq.91
	.cfi_def_cfa %rbp, 16
	callq	rc_init_seq.91
	popq	%rbp
	.cfi_def_cfa %rsp, 8
	retq
.LBB2_9:                                # %ctrl0
	.cfi_def_cfa %rbp, 16
	cmpl	$1, %eax
	je	.LBB2_2
# %bb.10:                               # %ctrl1
	cmpl	$2, %eax
	je	.LBB2_3
# %bb.11:                               # %ctrl2
	cmpl	$3, %eax
	je	.LBB2_4
# %bb.12:                               # %ctrl3
	cmpl	$4, %eax
	je	.LBB2_5
# %bb.13:                               # %ctrl4
	cmpl	$5, %eax
	je	.LBB2_6
# %bb.14:                               # %ctrl5
	cmpl	$6, %eax
	je	.LBB2_7
	jmp	.LBB2_8
.Lfunc_end2:
	.size	rc_init_seq, .Lfunc_end2-rc_init_seq
	.cfi_endproc
                                        # -- End function
	.globl	rc_init_GOP             # -- Begin function rc_init_GOP
	.p2align	4, 0x90
	.type	rc_init_GOP,@function
rc_init_GOP:                            # @rc_init_GOP
	.cfi_startproc
# %bb.0:                                # %rand_bb
	pushq	%rbp
	.cfi_def_cfa_offset 16
	.cfi_offset %rbp, -16
	movq	%rsp, %rbp
	.cfi_def_cfa_register %rbp
	pushq	%r14
	pushq	%rbx
	.cfi_offset %rbx, -32
	.cfi_offset %r14, -24
	movl	%esi, %r14d
	movl	%edi, %ebx
	callq	get_urand
	cmpl	$0, %eax
	jne	.LBB3_9
# %bb.1:                                # %func_rc_init_GOP.1
	movl	%ebx, %edi
	movl	%r14d, %esi
	callq	rc_init_GOP.1
	popq	%rbx
	popq	%r14
	popq	%rbp
	.cfi_def_cfa %rsp, 8
	retq
.LBB3_2:                                # %func_rc_init_GOP.39
	.cfi_def_cfa %rbp, 16
	movl	%ebx, %edi
	movl	%r14d, %esi
	callq	rc_init_GOP.39
	popq	%rbx
	popq	%r14
	popq	%rbp
	.cfi_def_cfa %rsp, 8
	retq
.LBB3_3:                                # %func_rc_init_GOP.42
	.cfi_def_cfa %rbp, 16
	movl	%ebx, %edi
	movl	%r14d, %esi
	callq	rc_init_GOP.42
	popq	%rbx
	popq	%r14
	popq	%rbp
	.cfi_def_cfa %rsp, 8
	retq
.LBB3_4:                                # %func_rc_init_GOP.53
	.cfi_def_cfa %rbp, 16
	movl	%ebx, %edi
	movl	%r14d, %esi
	callq	rc_init_GOP.53
	popq	%rbx
	popq	%r14
	popq	%rbp
	.cfi_def_cfa %rsp, 8
	retq
.LBB3_5:                                # %func_rc_init_GOP.60
	.cfi_def_cfa %rbp, 16
	movl	%ebx, %edi
	movl	%r14d, %esi
	callq	rc_init_GOP.60
	popq	%rbx
	popq	%r14
	popq	%rbp
	.cfi_def_cfa %rsp, 8
	retq
.LBB3_6:                                # %func_rc_init_GOP.72
	.cfi_def_cfa %rbp, 16
	movl	%ebx, %edi
	movl	%r14d, %esi
	callq	rc_init_GOP.72
	popq	%rbx
	popq	%r14
	popq	%rbp
	.cfi_def_cfa %rsp, 8
	retq
.LBB3_7:                                # %func_rc_init_GOP.75
	.cfi_def_cfa %rbp, 16
	movl	%ebx, %edi
	movl	%r14d, %esi
	callq	rc_init_GOP.75
	popq	%rbx
	popq	%r14
	popq	%rbp
	.cfi_def_cfa %rsp, 8
	retq
.LBB3_8:                                # %func_rc_init_GOP.76
	.cfi_def_cfa %rbp, 16
	movl	%ebx, %edi
	movl	%r14d, %esi
	callq	rc_init_GOP.76
	popq	%rbx
	popq	%r14
	popq	%rbp
	.cfi_def_cfa %rsp, 8
	retq
.LBB3_9:                                # %ctrl0
	.cfi_def_cfa %rbp, 16
	cmpl	$1, %eax
	je	.LBB3_2
# %bb.10:                               # %ctrl1
	cmpl	$2, %eax
	je	.LBB3_3
# %bb.11:                               # %ctrl2
	cmpl	$3, %eax
	je	.LBB3_4
# %bb.12:                               # %ctrl3
	cmpl	$4, %eax
	je	.LBB3_5
# %bb.13:                               # %ctrl4
	cmpl	$5, %eax
	je	.LBB3_6
# %bb.14:                               # %ctrl5
	cmpl	$6, %eax
	je	.LBB3_7
	jmp	.LBB3_8
.Lfunc_end3:
	.size	rc_init_GOP, .Lfunc_end3-rc_init_GOP
	.cfi_endproc
                                        # -- End function
	.globl	rc_init_pict            # -- Begin function rc_init_pict
	.p2align	4, 0x90
	.type	rc_init_pict,@function
rc_init_pict:                           # @rc_init_pict
	.cfi_startproc
# %bb.0:                                # %rand_bb
	pushq	%rbp
	.cfi_def_cfa_offset 16
	.cfi_offset %rbp, -16
	movq	%rsp, %rbp
	.cfi_def_cfa_register %rbp
	pushq	%r15
	pushq	%r14
	pushq	%rbx
	pushq	%rax
	.cfi_offset %rbx, -40
	.cfi_offset %r14, -32
	.cfi_offset %r15, -24
	movl	%edx, %r14d
	movl	%esi, %r15d
	movl	%edi, %ebx
	callq	get_urand
	cmpl	$0, %eax
	jne	.LBB4_9
# %bb.1:                                # %func_rc_init_pict.21
	movl	%ebx, %edi
	movl	%r15d, %esi
	movl	%r14d, %edx
	callq	rc_init_pict.21
	addq	$8, %rsp
	popq	%rbx
	popq	%r14
	popq	%r15
	popq	%rbp
	.cfi_def_cfa %rsp, 8
	retq
.LBB4_2:                                # %func_rc_init_pict.25
	.cfi_def_cfa %rbp, 16
	movl	%ebx, %edi
	movl	%r15d, %esi
	movl	%r14d, %edx
	callq	rc_init_pict.25
	addq	$8, %rsp
	popq	%rbx
	popq	%r14
	popq	%r15
	popq	%rbp
	.cfi_def_cfa %rsp, 8
	retq
.LBB4_3:                                # %func_rc_init_pict.35
	.cfi_def_cfa %rbp, 16
	movl	%ebx, %edi
	movl	%r15d, %esi
	movl	%r14d, %edx
	callq	rc_init_pict.35
	addq	$8, %rsp
	popq	%rbx
	popq	%r14
	popq	%r15
	popq	%rbp
	.cfi_def_cfa %rsp, 8
	retq
.LBB4_4:                                # %func_rc_init_pict.48
	.cfi_def_cfa %rbp, 16
	movl	%ebx, %edi
	movl	%r15d, %esi
	movl	%r14d, %edx
	callq	rc_init_pict.48
	addq	$8, %rsp
	popq	%rbx
	popq	%r14
	popq	%r15
	popq	%rbp
	.cfi_def_cfa %rsp, 8
	retq
.LBB4_5:                                # %func_rc_init_pict.51
	.cfi_def_cfa %rbp, 16
	movl	%ebx, %edi
	movl	%r15d, %esi
	movl	%r14d, %edx
	callq	rc_init_pict.51
	addq	$8, %rsp
	popq	%rbx
	popq	%r14
	popq	%r15
	popq	%rbp
	.cfi_def_cfa %rsp, 8
	retq
.LBB4_6:                                # %func_rc_init_pict.83
	.cfi_def_cfa %rbp, 16
	movl	%ebx, %edi
	movl	%r15d, %esi
	movl	%r14d, %edx
	callq	rc_init_pict.83
	addq	$8, %rsp
	popq	%rbx
	popq	%r14
	popq	%r15
	popq	%rbp
	.cfi_def_cfa %rsp, 8
	retq
.LBB4_7:                                # %func_rc_init_pict.88
	.cfi_def_cfa %rbp, 16
	movl	%ebx, %edi
	movl	%r15d, %esi
	movl	%r14d, %edx
	callq	rc_init_pict.88
	addq	$8, %rsp
	popq	%rbx
	popq	%r14
	popq	%r15
	popq	%rbp
	.cfi_def_cfa %rsp, 8
	retq
.LBB4_8:                                # %func_rc_init_pict.94
	.cfi_def_cfa %rbp, 16
	movl	%ebx, %edi
	movl	%r15d, %esi
	movl	%r14d, %edx
	callq	rc_init_pict.94
	addq	$8, %rsp
	popq	%rbx
	popq	%r14
	popq	%r15
	popq	%rbp
	.cfi_def_cfa %rsp, 8
	retq
.LBB4_9:                                # %ctrl0
	.cfi_def_cfa %rbp, 16
	cmpl	$1, %eax
	je	.LBB4_2
# %bb.10:                               # %ctrl1
	cmpl	$2, %eax
	je	.LBB4_3
# %bb.11:                               # %ctrl2
	cmpl	$3, %eax
	je	.LBB4_4
# %bb.12:                               # %ctrl3
	cmpl	$4, %eax
	je	.LBB4_5
# %bb.13:                               # %ctrl4
	cmpl	$5, %eax
	je	.LBB4_6
# %bb.14:                               # %ctrl5
	cmpl	$6, %eax
	je	.LBB4_7
	jmp	.LBB4_8
.Lfunc_end4:
	.size	rc_init_pict, .Lfunc_end4-rc_init_pict
	.cfi_endproc
                                        # -- End function
	.globl	calc_MAD                # -- Begin function calc_MAD
	.p2align	4, 0x90
	.type	calc_MAD,@function
calc_MAD:                               # @calc_MAD
	.cfi_startproc
# %bb.0:                                # %rand_bb
	pushq	%rbp
	.cfi_def_cfa_offset 16
	.cfi_offset %rbp, -16
	movq	%rsp, %rbp
	.cfi_def_cfa_register %rbp
	callq	get_urand
	cmpl	$0, %eax
	jne	.LBB5_9
# %bb.1:                                # %func_calc_MAD.4
	callq	calc_MAD.4
	popq	%rbp
	.cfi_def_cfa %rsp, 8
	retq
.LBB5_2:                                # %func_calc_MAD.13
	.cfi_def_cfa %rbp, 16
	callq	calc_MAD.13
	popq	%rbp
	.cfi_def_cfa %rsp, 8
	retq
.LBB5_3:                                # %func_calc_MAD.23
	.cfi_def_cfa %rbp, 16
	callq	calc_MAD.23
	popq	%rbp
	.cfi_def_cfa %rsp, 8
	retq
.LBB5_4:                                # %func_calc_MAD.29
	.cfi_def_cfa %rbp, 16
	callq	calc_MAD.29
	popq	%rbp
	.cfi_def_cfa %rsp, 8
	retq
.LBB5_5:                                # %func_calc_MAD.45
	.cfi_def_cfa %rbp, 16
	callq	calc_MAD.45
	popq	%rbp
	.cfi_def_cfa %rsp, 8
	retq
.LBB5_6:                                # %func_calc_MAD.52
	.cfi_def_cfa %rbp, 16
	callq	calc_MAD.52
	popq	%rbp
	.cfi_def_cfa %rsp, 8
	retq
.LBB5_7:                                # %func_calc_MAD.66
	.cfi_def_cfa %rbp, 16
	callq	calc_MAD.66
	popq	%rbp
	.cfi_def_cfa %rsp, 8
	retq
.LBB5_8:                                # %func_calc_MAD.67
	.cfi_def_cfa %rbp, 16
	callq	calc_MAD.67
	popq	%rbp
	.cfi_def_cfa %rsp, 8
	retq
.LBB5_9:                                # %ctrl0
	.cfi_def_cfa %rbp, 16
	cmpl	$1, %eax
	je	.LBB5_2
# %bb.10:                               # %ctrl1
	cmpl	$2, %eax
	je	.LBB5_3
# %bb.11:                               # %ctrl2
	cmpl	$3, %eax
	je	.LBB5_4
# %bb.12:                               # %ctrl3
	cmpl	$4, %eax
	je	.LBB5_5
# %bb.13:                               # %ctrl4
	cmpl	$5, %eax
	je	.LBB5_6
# %bb.14:                               # %ctrl5
	cmpl	$6, %eax
	je	.LBB5_7
	jmp	.LBB5_8
.Lfunc_end5:
	.size	calc_MAD, .Lfunc_end5-calc_MAD
	.cfi_endproc
                                        # -- End function
	.section	.rodata.cst8,"aM",@progbits,8
	.p2align	3               # -- Begin function rc_update_pict
.LCPI6_0:
	.quad	4606281698874543309     # double 0.90000000000000002
	.text
	.globl	rc_update_pict
	.p2align	4, 0x90
	.type	rc_update_pict,@function
rc_update_pict:                         # @rc_update_pict
	.cfi_startproc
# %bb.0:                                # %entry
	pushq	%rbp
	.cfi_def_cfa_offset 16
	.cfi_offset %rbp, -16
	movq	%rsp, %rbp
	.cfi_def_cfa_register %rbp
	vmovsd	.LCPI6_0(%rip), %xmm0   # xmm0 = mem[0],zero
	movl	%edi, -4(%rbp)
	movl	-4(%rbp), %eax
	movl	R, %ecx
	subl	%eax, %ecx
	movl	%ecx, R
	vcvtsi2sdl	-4(%rbp), %xmm0, %xmm1
	vmovsd	bit_rate, %xmm2         # xmm2 = mem[0],zero
	vdivsd	frame_rate, %xmm2, %xmm2
	vsubsd	%xmm2, %xmm1, %xmm1
	vaddsd	CurrentBufferFullness, %xmm1, %xmm1
	vmovsd	%xmm1, CurrentBufferFullness
	vmovsd	bit_rate, %xmm1         # xmm1 = mem[0],zero
	vdivsd	frame_rate, %xmm1, %xmm1
	vcvtsi2sdl	-4(%rbp), %xmm0, %xmm2
	vsubsd	%xmm2, %xmm1, %xmm1
	vcvttsd2si	%xmm1, %rax
	addq	LowerBound, %rax
	movq	%rax, LowerBound
	vmovsd	bit_rate, %xmm1         # xmm1 = mem[0],zero
	vdivsd	frame_rate, %xmm1, %xmm1
	vcvtsi2sdl	-4(%rbp), %xmm0, %xmm2
	vsubsd	%xmm2, %xmm1, %xmm1
	vcvttsd2si	%xmm1, %rax
	addq	UpperBound1, %rax
	movq	%rax, UpperBound1
	vcvtsi2sdq	UpperBound1, %xmm0, %xmm1
	vmulsd	%xmm1, %xmm0, %xmm0
	vcvttsd2si	%xmm0, %rax
	movq	%rax, UpperBound2
	popq	%rbp
	.cfi_def_cfa %rsp, 8
	retq
.Lfunc_end6:
	.size	rc_update_pict, .Lfunc_end6-rc_update_pict
	.cfi_endproc
                                        # -- End function
	.globl	rc_update_pict_frame    # -- Begin function rc_update_pict_frame
	.p2align	4, 0x90
	.type	rc_update_pict_frame,@function
rc_update_pict_frame:                   # @rc_update_pict_frame
	.cfi_startproc
# %bb.0:                                # %rand_bb
	pushq	%rbp
	.cfi_def_cfa_offset 16
	.cfi_offset %rbp, -16
	movq	%rsp, %rbp
	.cfi_def_cfa_register %rbp
	pushq	%rbx
	pushq	%rax
	.cfi_offset %rbx, -24
	movl	%edi, %ebx
	callq	get_urand
	cmpl	$0, %eax
	jne	.LBB7_7
# %bb.1:                                # %func_rc_update_pict_frame.10
	movl	%ebx, %edi
	callq	rc_update_pict_frame.10
	addq	$8, %rsp
	popq	%rbx
	popq	%rbp
	.cfi_def_cfa %rsp, 8
	retq
.LBB7_2:                                # %func_rc_update_pict_frame.30
	.cfi_def_cfa %rbp, 16
	movl	%ebx, %edi
	callq	rc_update_pict_frame.30
	addq	$8, %rsp
	popq	%rbx
	popq	%rbp
	.cfi_def_cfa %rsp, 8
	retq
.LBB7_3:                                # %func_rc_update_pict_frame.31
	.cfi_def_cfa %rbp, 16
	movl	%ebx, %edi
	callq	rc_update_pict_frame.31
	addq	$8, %rsp
	popq	%rbx
	popq	%rbp
	.cfi_def_cfa %rsp, 8
	retq
.LBB7_4:                                # %func_rc_update_pict_frame.32
	.cfi_def_cfa %rbp, 16
	movl	%ebx, %edi
	callq	rc_update_pict_frame.32
	addq	$8, %rsp
	popq	%rbx
	popq	%rbp
	.cfi_def_cfa %rsp, 8
	retq
.LBB7_5:                                # %func_rc_update_pict_frame.36
	.cfi_def_cfa %rbp, 16
	movl	%ebx, %edi
	callq	rc_update_pict_frame.36
	addq	$8, %rsp
	popq	%rbx
	popq	%rbp
	.cfi_def_cfa %rsp, 8
	retq
.LBB7_6:                                # %func_rc_update_pict_frame.47
	.cfi_def_cfa %rbp, 16
	movl	%ebx, %edi
	callq	rc_update_pict_frame.47
	addq	$8, %rsp
	popq	%rbx
	popq	%rbp
	.cfi_def_cfa %rsp, 8
	retq
.LBB7_7:                                # %ctrl0
	.cfi_def_cfa %rbp, 16
	cmpl	$1, %eax
	je	.LBB7_2
# %bb.8:                                # %ctrl1
	cmpl	$2, %eax
	je	.LBB7_3
# %bb.9:                                # %ctrl2
	cmpl	$3, %eax
	je	.LBB7_4
# %bb.10:                               # %ctrl3
	cmpl	$4, %eax
	je	.LBB7_5
	jmp	.LBB7_6
.Lfunc_end7:
	.size	rc_update_pict_frame, .Lfunc_end7-rc_update_pict_frame
	.cfi_endproc
                                        # -- End function
	.globl	setbitscount            # -- Begin function setbitscount
	.p2align	4, 0x90
	.type	setbitscount,@function
setbitscount:                           # @setbitscount
	.cfi_startproc
# %bb.0:                                # %entry
	pushq	%rbp
	.cfi_def_cfa_offset 16
	.cfi_offset %rbp, -16
	movq	%rsp, %rbp
	.cfi_def_cfa_register %rbp
	movl	%edi, -4(%rbp)
	movl	-4(%rbp), %eax
	movl	%eax, bits_topfield
	popq	%rbp
	.cfi_def_cfa %rsp, 8
	retq
.Lfunc_end8:
	.size	setbitscount, .Lfunc_end8-setbitscount
	.cfi_endproc
                                        # -- End function
	.globl	updateQuantizationParameter # -- Begin function updateQuantizationParameter
	.p2align	4, 0x90
	.type	updateQuantizationParameter,@function
updateQuantizationParameter:            # @updateQuantizationParameter
	.cfi_startproc
# %bb.0:                                # %rand_bb
	pushq	%rbp
	.cfi_def_cfa_offset 16
	.cfi_offset %rbp, -16
	movq	%rsp, %rbp
	.cfi_def_cfa_register %rbp
	pushq	%rbx
	pushq	%rax
	.cfi_offset %rbx, -24
	movl	%edi, %ebx
	callq	get_urand
	cmpl	$0, %eax
	jne	.LBB9_9
# %bb.1:                                # %func_updateQuantizationParameter.7
	movl	%ebx, %edi
	callq	updateQuantizationParameter.7
	addq	$8, %rsp
	popq	%rbx
	popq	%rbp
	.cfi_def_cfa %rsp, 8
	retq
.LBB9_2:                                # %func_updateQuantizationParameter.15
	.cfi_def_cfa %rbp, 16
	movl	%ebx, %edi
	callq	updateQuantizationParameter.15
	addq	$8, %rsp
	popq	%rbx
	popq	%rbp
	.cfi_def_cfa %rsp, 8
	retq
.LBB9_3:                                # %func_updateQuantizationParameter.16
	.cfi_def_cfa %rbp, 16
	movl	%ebx, %edi
	callq	updateQuantizationParameter.16
	addq	$8, %rsp
	popq	%rbx
	popq	%rbp
	.cfi_def_cfa %rsp, 8
	retq
.LBB9_4:                                # %func_updateQuantizationParameter.44
	.cfi_def_cfa %rbp, 16
	movl	%ebx, %edi
	callq	updateQuantizationParameter.44
	addq	$8, %rsp
	popq	%rbx
	popq	%rbp
	.cfi_def_cfa %rsp, 8
	retq
.LBB9_5:                                # %func_updateQuantizationParameter.56
	.cfi_def_cfa %rbp, 16
	movl	%ebx, %edi
	callq	updateQuantizationParameter.56
	addq	$8, %rsp
	popq	%rbx
	popq	%rbp
	.cfi_def_cfa %rsp, 8
	retq
.LBB9_6:                                # %func_updateQuantizationParameter.59
	.cfi_def_cfa %rbp, 16
	movl	%ebx, %edi
	callq	updateQuantizationParameter.59
	addq	$8, %rsp
	popq	%rbx
	popq	%rbp
	.cfi_def_cfa %rsp, 8
	retq
.LBB9_7:                                # %func_updateQuantizationParameter.64
	.cfi_def_cfa %rbp, 16
	movl	%ebx, %edi
	callq	updateQuantizationParameter.64
	addq	$8, %rsp
	popq	%rbx
	popq	%rbp
	.cfi_def_cfa %rsp, 8
	retq
.LBB9_8:                                # %func_updateQuantizationParameter.71
	.cfi_def_cfa %rbp, 16
	movl	%ebx, %edi
	callq	updateQuantizationParameter.71
	addq	$8, %rsp
	popq	%rbx
	popq	%rbp
	.cfi_def_cfa %rsp, 8
	retq
.LBB9_9:                                # %ctrl0
	.cfi_def_cfa %rbp, 16
	cmpl	$1, %eax
	je	.LBB9_2
# %bb.10:                               # %ctrl1
	cmpl	$2, %eax
	je	.LBB9_3
# %bb.11:                               # %ctrl2
	cmpl	$3, %eax
	je	.LBB9_4
# %bb.12:                               # %ctrl3
	cmpl	$4, %eax
	je	.LBB9_5
# %bb.13:                               # %ctrl4
	cmpl	$5, %eax
	je	.LBB9_6
# %bb.14:                               # %ctrl5
	cmpl	$6, %eax
	je	.LBB9_7
	jmp	.LBB9_8
.Lfunc_end9:
	.size	updateQuantizationParameter, .Lfunc_end9-updateQuantizationParameter
	.cfi_endproc
                                        # -- End function
	.globl	Qstep2QP                # -- Begin function Qstep2QP
	.p2align	4, 0x90
	.type	Qstep2QP,@function
Qstep2QP:                               # @Qstep2QP
	.cfi_startproc
# %bb.0:                                # %rand_bb
	pushq	%rbp
	.cfi_def_cfa_offset 16
	.cfi_offset %rbp, -16
	movq	%rsp, %rbp
	.cfi_def_cfa_register %rbp
	subq	$16, %rsp
	vmovsd	%xmm0, -8(%rbp)         # 8-byte Spill
	callq	get_urand
	cmpl	$0, %eax
	jne	.LBB10_9
# %bb.1:                                # %func_Qstep2QP.3
	vmovsd	-8(%rbp), %xmm0         # 8-byte Reload
                                        # xmm0 = mem[0],zero
	callq	Qstep2QP.3
	addq	$16, %rsp
	popq	%rbp
	.cfi_def_cfa %rsp, 8
	retq
.LBB10_2:                               # %func_Qstep2QP.22
	.cfi_def_cfa %rbp, 16
	callq	Qstep2QP.22
	addq	$16, %rsp
	popq	%rbp
	.cfi_def_cfa %rsp, 8
	retq
.LBB10_3:                               # %func_Qstep2QP.24
	.cfi_def_cfa %rbp, 16
	callq	Qstep2QP.24
	addq	$16, %rsp
	popq	%rbp
	.cfi_def_cfa %rsp, 8
	retq
.LBB10_4:                               # %func_Qstep2QP.38
	.cfi_def_cfa %rbp, 16
	callq	Qstep2QP.38
	addq	$16, %rsp
	popq	%rbp
	.cfi_def_cfa %rsp, 8
	retq
.LBB10_5:                               # %func_Qstep2QP.40
	.cfi_def_cfa %rbp, 16
	callq	Qstep2QP.40
	addq	$16, %rsp
	popq	%rbp
	.cfi_def_cfa %rsp, 8
	retq
.LBB10_6:                               # %func_Qstep2QP.69
	.cfi_def_cfa %rbp, 16
	callq	Qstep2QP.69
	addq	$16, %rsp
	popq	%rbp
	.cfi_def_cfa %rsp, 8
	retq
.LBB10_7:                               # %func_Qstep2QP.78
	.cfi_def_cfa %rbp, 16
	callq	Qstep2QP.78
	addq	$16, %rsp
	popq	%rbp
	.cfi_def_cfa %rsp, 8
	retq
.LBB10_8:                               # %func_Qstep2QP.80
	.cfi_def_cfa %rbp, 16
	callq	Qstep2QP.80
	addq	$16, %rsp
	popq	%rbp
	.cfi_def_cfa %rsp, 8
	retq
.LBB10_9:                               # %ctrl0
	.cfi_def_cfa %rbp, 16
	vmovsd	-8(%rbp), %xmm0         # 8-byte Reload
                                        # xmm0 = mem[0],zero
	cmpl	$1, %eax
	je	.LBB10_2
# %bb.10:                               # %ctrl1
	cmpl	$2, %eax
	je	.LBB10_3
# %bb.11:                               # %ctrl2
	cmpl	$3, %eax
	je	.LBB10_4
# %bb.12:                               # %ctrl3
	cmpl	$4, %eax
	je	.LBB10_5
# %bb.13:                               # %ctrl4
	cmpl	$5, %eax
	je	.LBB10_6
# %bb.14:                               # %ctrl5
	cmpl	$6, %eax
	je	.LBB10_7
	jmp	.LBB10_8
.Lfunc_end10:
	.size	Qstep2QP, .Lfunc_end10-Qstep2QP
	.cfi_endproc
                                        # -- End function
	.globl	updateRCModel           # -- Begin function updateRCModel
	.p2align	4, 0x90
	.type	updateRCModel,@function
updateRCModel:                          # @updateRCModel
	.cfi_startproc
# %bb.0:                                # %rand_bb
	pushq	%rbp
	.cfi_def_cfa_offset 16
	.cfi_offset %rbp, -16
	movq	%rsp, %rbp
	.cfi_def_cfa_register %rbp
	callq	get_urand
	cmpl	$0, %eax
	jne	.LBB11_9
# %bb.1:                                # %func_updateRCModel.2
	callq	updateRCModel.2
	popq	%rbp
	.cfi_def_cfa %rsp, 8
	retq
.LBB11_2:                               # %func_updateRCModel.5
	.cfi_def_cfa %rbp, 16
	callq	updateRCModel.5
	popq	%rbp
	.cfi_def_cfa %rsp, 8
	retq
.LBB11_3:                               # %func_updateRCModel.8
	.cfi_def_cfa %rbp, 16
	callq	updateRCModel.8
	popq	%rbp
	.cfi_def_cfa %rsp, 8
	retq
.LBB11_4:                               # %func_updateRCModel.11
	.cfi_def_cfa %rbp, 16
	callq	updateRCModel.11
	popq	%rbp
	.cfi_def_cfa %rsp, 8
	retq
.LBB11_5:                               # %func_updateRCModel.18
	.cfi_def_cfa %rbp, 16
	callq	updateRCModel.18
	popq	%rbp
	.cfi_def_cfa %rsp, 8
	retq
.LBB11_6:                               # %func_updateRCModel.27
	.cfi_def_cfa %rbp, 16
	callq	updateRCModel.27
	popq	%rbp
	.cfi_def_cfa %rsp, 8
	retq
.LBB11_7:                               # %func_updateRCModel.46
	.cfi_def_cfa %rbp, 16
	callq	updateRCModel.46
	popq	%rbp
	.cfi_def_cfa %rsp, 8
	retq
.LBB11_8:                               # %func_updateRCModel.50
	.cfi_def_cfa %rbp, 16
	callq	updateRCModel.50
	popq	%rbp
	.cfi_def_cfa %rsp, 8
	retq
.LBB11_9:                               # %ctrl0
	.cfi_def_cfa %rbp, 16
	cmpl	$1, %eax
	je	.LBB11_2
# %bb.10:                               # %ctrl1
	cmpl	$2, %eax
	je	.LBB11_3
# %bb.11:                               # %ctrl2
	cmpl	$3, %eax
	je	.LBB11_4
# %bb.12:                               # %ctrl3
	cmpl	$4, %eax
	je	.LBB11_5
# %bb.13:                               # %ctrl4
	cmpl	$5, %eax
	je	.LBB11_6
# %bb.14:                               # %ctrl5
	cmpl	$6, %eax
	je	.LBB11_7
	jmp	.LBB11_8
.Lfunc_end11:
	.size	updateRCModel, .Lfunc_end11-updateRCModel
	.cfi_endproc
                                        # -- End function
	.globl	QP2Qstep                # -- Begin function QP2Qstep
	.p2align	4, 0x90
	.type	QP2Qstep,@function
QP2Qstep:                               # @QP2Qstep
	.cfi_startproc
# %bb.0:                                # %rand_bb
	pushq	%rbp
	.cfi_def_cfa_offset 16
	.cfi_offset %rbp, -16
	movq	%rsp, %rbp
	.cfi_def_cfa_register %rbp
	pushq	%rbx
	pushq	%rax
	.cfi_offset %rbx, -24
	movl	%edi, %ebx
	callq	get_urand
	cmpl	$0, %eax
	jne	.LBB12_7
# %bb.1:                                # %func_QP2Qstep.12
	movl	%ebx, %edi
	callq	QP2Qstep.12
	addq	$8, %rsp
	popq	%rbx
	popq	%rbp
	.cfi_def_cfa %rsp, 8
	retq
.LBB12_2:                               # %func_QP2Qstep.26
	.cfi_def_cfa %rbp, 16
	movl	%ebx, %edi
	callq	QP2Qstep.26
	addq	$8, %rsp
	popq	%rbx
	popq	%rbp
	.cfi_def_cfa %rsp, 8
	retq
.LBB12_3:                               # %func_QP2Qstep.37
	.cfi_def_cfa %rbp, 16
	movl	%ebx, %edi
	callq	QP2Qstep.37
	addq	$8, %rsp
	popq	%rbx
	popq	%rbp
	.cfi_def_cfa %rsp, 8
	retq
.LBB12_4:                               # %func_QP2Qstep.55
	.cfi_def_cfa %rbp, 16
	movl	%ebx, %edi
	callq	QP2Qstep.55
	addq	$8, %rsp
	popq	%rbx
	popq	%rbp
	.cfi_def_cfa %rsp, 8
	retq
.LBB12_5:                               # %func_QP2Qstep.58
	.cfi_def_cfa %rbp, 16
	movl	%ebx, %edi
	callq	QP2Qstep.58
	addq	$8, %rsp
	popq	%rbx
	popq	%rbp
	.cfi_def_cfa %rsp, 8
	retq
.LBB12_6:                               # %func_QP2Qstep.65
	.cfi_def_cfa %rbp, 16
	movl	%ebx, %edi
	callq	QP2Qstep.65
	addq	$8, %rsp
	popq	%rbx
	popq	%rbp
	.cfi_def_cfa %rsp, 8
	retq
.LBB12_7:                               # %ctrl0
	.cfi_def_cfa %rbp, 16
	cmpl	$1, %eax
	je	.LBB12_2
# %bb.8:                                # %ctrl1
	cmpl	$2, %eax
	je	.LBB12_3
# %bb.9:                                # %ctrl2
	cmpl	$3, %eax
	je	.LBB12_4
# %bb.10:                               # %ctrl3
	cmpl	$4, %eax
	je	.LBB12_5
	jmp	.LBB12_6
.Lfunc_end12:
	.size	QP2Qstep, .Lfunc_end12-QP2Qstep
	.cfi_endproc
                                        # -- End function
	.globl	RCModelEstimator        # -- Begin function RCModelEstimator
	.p2align	4, 0x90
	.type	RCModelEstimator,@function
RCModelEstimator:                       # @RCModelEstimator
	.cfi_startproc
# %bb.0:                                # %rand_bb
	pushq	%rbp
	.cfi_def_cfa_offset 16
	.cfi_offset %rbp, -16
	movq	%rsp, %rbp
	.cfi_def_cfa_register %rbp
	pushq	%rbx
	pushq	%rax
	.cfi_offset %rbx, -24
	movl	%edi, %ebx
	callq	get_urand
	cmpl	$0, %eax
	jne	.LBB13_9
# %bb.1:                                # %func_RCModelEstimator.9
	movl	%ebx, %edi
	callq	RCModelEstimator.9
	addq	$8, %rsp
	popq	%rbx
	popq	%rbp
	.cfi_def_cfa %rsp, 8
	retq
.LBB13_2:                               # %func_RCModelEstimator.28
	.cfi_def_cfa %rbp, 16
	movl	%ebx, %edi
	callq	RCModelEstimator.28
	addq	$8, %rsp
	popq	%rbx
	popq	%rbp
	.cfi_def_cfa %rsp, 8
	retq
.LBB13_3:                               # %func_RCModelEstimator.34
	.cfi_def_cfa %rbp, 16
	movl	%ebx, %edi
	callq	RCModelEstimator.34
	addq	$8, %rsp
	popq	%rbx
	popq	%rbp
	.cfi_def_cfa %rsp, 8
	retq
.LBB13_4:                               # %func_RCModelEstimator.73
	.cfi_def_cfa %rbp, 16
	movl	%ebx, %edi
	callq	RCModelEstimator.73
	addq	$8, %rsp
	popq	%rbx
	popq	%rbp
	.cfi_def_cfa %rsp, 8
	retq
.LBB13_5:                               # %func_RCModelEstimator.74
	.cfi_def_cfa %rbp, 16
	movl	%ebx, %edi
	callq	RCModelEstimator.74
	addq	$8, %rsp
	popq	%rbx
	popq	%rbp
	.cfi_def_cfa %rsp, 8
	retq
.LBB13_6:                               # %func_RCModelEstimator.77
	.cfi_def_cfa %rbp, 16
	movl	%ebx, %edi
	callq	RCModelEstimator.77
	addq	$8, %rsp
	popq	%rbx
	popq	%rbp
	.cfi_def_cfa %rsp, 8
	retq
.LBB13_7:                               # %func_RCModelEstimator.87
	.cfi_def_cfa %rbp, 16
	movl	%ebx, %edi
	callq	RCModelEstimator.87
	addq	$8, %rsp
	popq	%rbx
	popq	%rbp
	.cfi_def_cfa %rsp, 8
	retq
.LBB13_8:                               # %func_RCModelEstimator.92
	.cfi_def_cfa %rbp, 16
	movl	%ebx, %edi
	callq	RCModelEstimator.92
	addq	$8, %rsp
	popq	%rbx
	popq	%rbp
	.cfi_def_cfa %rsp, 8
	retq
.LBB13_9:                               # %ctrl0
	.cfi_def_cfa %rbp, 16
	cmpl	$1, %eax
	je	.LBB13_2
# %bb.10:                               # %ctrl1
	cmpl	$2, %eax
	je	.LBB13_3
# %bb.11:                               # %ctrl2
	cmpl	$3, %eax
	je	.LBB13_4
# %bb.12:                               # %ctrl3
	cmpl	$4, %eax
	je	.LBB13_5
# %bb.13:                               # %ctrl4
	cmpl	$5, %eax
	je	.LBB13_6
# %bb.14:                               # %ctrl5
	cmpl	$6, %eax
	je	.LBB13_7
	jmp	.LBB13_8
.Lfunc_end13:
	.size	RCModelEstimator, .Lfunc_end13-RCModelEstimator
	.cfi_endproc
                                        # -- End function
	.globl	ComputeFrameMAD         # -- Begin function ComputeFrameMAD
	.p2align	4, 0x90
	.type	ComputeFrameMAD,@function
ComputeFrameMAD:                        # @ComputeFrameMAD
	.cfi_startproc
# %bb.0:                                # %rand_bb
	pushq	%rbp
	.cfi_def_cfa_offset 16
	.cfi_offset %rbp, -16
	movq	%rsp, %rbp
	.cfi_def_cfa_register %rbp
	callq	get_urand
	cmpl	$0, %eax
	jne	.LBB14_2
# %bb.1:                                # %func_ComputeFrameMAD.6
	callq	ComputeFrameMAD.6
	popq	%rbp
	.cfi_def_cfa %rsp, 8
	retq
.LBB14_2:                               # %func_ComputeFrameMAD.19
	.cfi_def_cfa %rbp, 16
	callq	ComputeFrameMAD.19
	popq	%rbp
	.cfi_def_cfa %rsp, 8
	retq
.Lfunc_end14:
	.size	ComputeFrameMAD, .Lfunc_end14-ComputeFrameMAD
	.cfi_endproc
                                        # -- End function
	.globl	updateMADModel          # -- Begin function updateMADModel
	.p2align	4, 0x90
	.type	updateMADModel,@function
updateMADModel:                         # @updateMADModel
	.cfi_startproc
# %bb.0:                                # %rand_bb
	pushq	%rbp
	.cfi_def_cfa_offset 16
	.cfi_offset %rbp, -16
	movq	%rsp, %rbp
	.cfi_def_cfa_register %rbp
	callq	get_urand
	cmpl	$0, %eax
	jne	.LBB15_9
# %bb.1:                                # %func_updateMADModel.41
	callq	updateMADModel.41
	popq	%rbp
	.cfi_def_cfa %rsp, 8
	retq
.LBB15_2:                               # %func_updateMADModel.43
	.cfi_def_cfa %rbp, 16
	callq	updateMADModel.43
	popq	%rbp
	.cfi_def_cfa %rsp, 8
	retq
.LBB15_3:                               # %func_updateMADModel.62
	.cfi_def_cfa %rbp, 16
	callq	updateMADModel.62
	popq	%rbp
	.cfi_def_cfa %rsp, 8
	retq
.LBB15_4:                               # %func_updateMADModel.82
	.cfi_def_cfa %rbp, 16
	callq	updateMADModel.82
	popq	%rbp
	.cfi_def_cfa %rsp, 8
	retq
.LBB15_5:                               # %func_updateMADModel.85
	.cfi_def_cfa %rbp, 16
	callq	updateMADModel.85
	popq	%rbp
	.cfi_def_cfa %rsp, 8
	retq
.LBB15_6:                               # %func_updateMADModel.89
	.cfi_def_cfa %rbp, 16
	callq	updateMADModel.89
	popq	%rbp
	.cfi_def_cfa %rsp, 8
	retq
.LBB15_7:                               # %func_updateMADModel.90
	.cfi_def_cfa %rbp, 16
	callq	updateMADModel.90
	popq	%rbp
	.cfi_def_cfa %rsp, 8
	retq
.LBB15_8:                               # %func_updateMADModel.93
	.cfi_def_cfa %rbp, 16
	callq	updateMADModel.93
	popq	%rbp
	.cfi_def_cfa %rsp, 8
	retq
.LBB15_9:                               # %ctrl0
	.cfi_def_cfa %rbp, 16
	cmpl	$1, %eax
	je	.LBB15_2
# %bb.10:                               # %ctrl1
	cmpl	$2, %eax
	je	.LBB15_3
# %bb.11:                               # %ctrl2
	cmpl	$3, %eax
	je	.LBB15_4
# %bb.12:                               # %ctrl3
	cmpl	$4, %eax
	je	.LBB15_5
# %bb.13:                               # %ctrl4
	cmpl	$5, %eax
	je	.LBB15_6
# %bb.14:                               # %ctrl5
	cmpl	$6, %eax
	je	.LBB15_7
	jmp	.LBB15_8
.Lfunc_end15:
	.size	updateMADModel, .Lfunc_end15-updateMADModel
	.cfi_endproc
                                        # -- End function
	.globl	MADModelEstimator       # -- Begin function MADModelEstimator
	.p2align	4, 0x90
	.type	MADModelEstimator,@function
MADModelEstimator:                      # @MADModelEstimator
	.cfi_startproc
# %bb.0:                                # %rand_bb
	pushq	%rbp
	.cfi_def_cfa_offset 16
	.cfi_offset %rbp, -16
	movq	%rsp, %rbp
	.cfi_def_cfa_register %rbp
	pushq	%rbx
	pushq	%rax
	.cfi_offset %rbx, -24
	movl	%edi, %ebx
	callq	get_urand
	cmpl	$0, %eax
	jne	.LBB16_9
# %bb.1:                                # %func_MADModelEstimator.17
	movl	%ebx, %edi
	callq	MADModelEstimator.17
	addq	$8, %rsp
	popq	%rbx
	popq	%rbp
	.cfi_def_cfa %rsp, 8
	retq
.LBB16_2:                               # %func_MADModelEstimator.20
	.cfi_def_cfa %rbp, 16
	movl	%ebx, %edi
	callq	MADModelEstimator.20
	addq	$8, %rsp
	popq	%rbx
	popq	%rbp
	.cfi_def_cfa %rsp, 8
	retq
.LBB16_3:                               # %func_MADModelEstimator.49
	.cfi_def_cfa %rbp, 16
	movl	%ebx, %edi
	callq	MADModelEstimator.49
	addq	$8, %rsp
	popq	%rbx
	popq	%rbp
	.cfi_def_cfa %rsp, 8
	retq
.LBB16_4:                               # %func_MADModelEstimator.57
	.cfi_def_cfa %rbp, 16
	movl	%ebx, %edi
	callq	MADModelEstimator.57
	addq	$8, %rsp
	popq	%rbx
	popq	%rbp
	.cfi_def_cfa %rsp, 8
	retq
.LBB16_5:                               # %func_MADModelEstimator.61
	.cfi_def_cfa %rbp, 16
	movl	%ebx, %edi
	callq	MADModelEstimator.61
	addq	$8, %rsp
	popq	%rbx
	popq	%rbp
	.cfi_def_cfa %rsp, 8
	retq
.LBB16_6:                               # %func_MADModelEstimator.63
	.cfi_def_cfa %rbp, 16
	movl	%ebx, %edi
	callq	MADModelEstimator.63
	addq	$8, %rsp
	popq	%rbx
	popq	%rbp
	.cfi_def_cfa %rsp, 8
	retq
.LBB16_7:                               # %func_MADModelEstimator.79
	.cfi_def_cfa %rbp, 16
	movl	%ebx, %edi
	callq	MADModelEstimator.79
	addq	$8, %rsp
	popq	%rbx
	popq	%rbp
	.cfi_def_cfa %rsp, 8
	retq
.LBB16_8:                               # %func_MADModelEstimator.86
	.cfi_def_cfa %rbp, 16
	movl	%ebx, %edi
	callq	MADModelEstimator.86
	addq	$8, %rsp
	popq	%rbx
	popq	%rbp
	.cfi_def_cfa %rsp, 8
	retq
.LBB16_9:                               # %ctrl0
	.cfi_def_cfa %rbp, 16
	cmpl	$1, %eax
	je	.LBB16_2
# %bb.10:                               # %ctrl1
	cmpl	$2, %eax
	je	.LBB16_3
# %bb.11:                               # %ctrl2
	cmpl	$3, %eax
	je	.LBB16_4
# %bb.12:                               # %ctrl3
	cmpl	$4, %eax
	je	.LBB16_5
# %bb.13:                               # %ctrl4
	cmpl	$5, %eax
	je	.LBB16_6
# %bb.14:                               # %ctrl5
	cmpl	$6, %eax
	je	.LBB16_7
	jmp	.LBB16_8
.Lfunc_end16:
	.size	MADModelEstimator, .Lfunc_end16-MADModelEstimator
	.cfi_endproc
                                        # -- End function
	.section	.rodata.cst8,"aM",@progbits,8
	.p2align	3               # -- Begin function rc_init_GOP.1
.LCPI17_0:
	.quad	4602678819172646912     # double 0.5
.LCPI17_1:
	.quad	4624633867356078080     # double 15
.LCPI17_2:
	.quad	4607182418800017408     # double 1
	.text
	.globl	rc_init_GOP.1
	.p2align	4, 0x90
	.type	rc_init_GOP.1,@function
rc_init_GOP.1:                          # @rc_init_GOP.1
	.cfi_startproc
# %bb.0:                                # %entry
	pushq	%rbp
	.cfi_def_cfa_offset 16
	.cfi_offset %rbp, -16
	movq	%rsp, %rbp
	.cfi_def_cfa_register %rbp
	subq	$32, %rsp
	movl	$1176894738, -20(%rbp)  # imm = 0x4625FD12
	movl	%edi, -4(%rbp)
	movl	%esi, -8(%rbp)
	movl	$0, -24(%rbp)
	cmpl	$0, R
	jge	.LBB17_2
# %bb.1:                                # %if.then
	movl	$1, -24(%rbp)
.LBB17_2:                               # %if.end
	vmovsd	.LCPI17_0(%rip), %xmm0  # xmm0 = mem[0],zero
	xorl	%eax, %eax
	subl	R, %eax
	movl	%eax, -28(%rbp)
	vcvtsi2sdl	R, %xmm0, %xmm1
	vmovsd	bit_rate, %xmm2         # xmm2 = mem[0],zero
	vdivsd	frame_rate, %xmm2, %xmm2
	vaddsd	%xmm2, %xmm1, %xmm1
	vcvttsd2si	%xmm1, %rax
	movq	%rax, LowerBound
	vcvtsi2sdl	R, %xmm0, %xmm1
	vaddsd	InitialDelayOffset, %xmm1, %xmm1
	vcvttsd2si	%xmm1, %rax
	movq	%rax, UpperBound1
	movl	-4(%rbp), %eax
	addl	$1, %eax
	addl	-8(%rbp), %eax
	vcvtsi2sd	%eax, %xmm0, %xmm1
	vmulsd	bit_rate, %xmm1, %xmm1
	vdivsd	frame_rate, %xmm1, %xmm1
	vaddsd	%xmm0, %xmm1, %xmm1
	vroundsd	$9, %xmm1, %xmm0, %xmm1
	vcvttsd2si	%xmm1, %eax
	movl	%eax, -16(%rbp)
	movl	-16(%rbp), %eax
	addl	R, %eax
	movl	%eax, R
	movl	-4(%rbp), %eax
	movl	%eax, Np
	movl	-8(%rbp), %eax
	movl	%eax, Nb
	movl	-28(%rbp), %eax
	shll	$3, %eax
	cltd
	idivl	-16(%rbp)
	vcvtsi2sd	%eax, %xmm0, %xmm1
	vaddsd	%xmm0, %xmm1, %xmm0
	vcvttsd2si	%xmm0, %eax
	movl	%eax, -32(%rbp)
	movl	$0, GOPOverdue
	movq	img, %rax
	movl	$1, 72612(%rax)
	movl	-4(%rbp), %eax
	movl	%eax, TotalPFrame
	movq	img, %rax
	movl	72568(%rax), %ecx
	addl	$1, %ecx
	movl	%ecx, 72568(%rax)
	movq	img, %rax
	cmpl	$1, 72568(%rax)
	jne	.LBB17_4
# %bb.3:                                # %if.then20
	movq	input, %rax
	movl	3244(%rax), %eax
	movl	%eax, MyInitialQp
	movl	MyInitialQp, %eax
	subl	$1, %eax
	movl	%eax, PreviousQp2
	movl	MyInitialQp, %eax
	movl	%eax, QPLastGOP
	jmp	.LBB17_27
.LBB17_4:                               # %if.else
	movq	input, %rax
	cmpl	$2, 2880(%rax)
	je	.LBB17_6
# %bb.5:                                # %lor.lhs.false
	movq	input, %rax
	cmpl	$0, 2884(%rax)
	je	.LBB17_10
.LBB17_6:                               # %if.then24
	movq	img, %rax
	cmpl	$1, 72604(%rax)
	jne	.LBB17_8
# %bb.7:                                # %if.then27
	movl	FrameQPBuffer, %eax
	movq	img, %rcx
	addl	72572(%rcx), %eax
	movl	%eax, 72572(%rcx)
	movl	FrameQPBuffer, %eax
	movl	%eax, QPLastPFrame
	jmp	.LBB17_9
.LBB17_8:                               # %if.else29
	movl	FieldQPBuffer, %eax
	movq	img, %rcx
	addl	72572(%rcx), %eax
	movl	%eax, 72572(%rcx)
	movl	FieldQPBuffer, %eax
	movl	%eax, QPLastPFrame
.LBB17_9:                               # %if.end32
	jmp	.LBB17_10
.LBB17_10:                              # %if.end33
	vmovsd	.LCPI17_0(%rip), %xmm0  # xmm0 = mem[0],zero
	vmovsd	.LCPI17_1(%rip), %xmm1  # xmm1 = mem[0],zero
	vmovsd	.LCPI17_2(%rip), %xmm2  # xmm2 = mem[0],zero
	movq	img, %rax
	vcvtsi2sdl	72572(%rax), %xmm0, %xmm3
	vmulsd	%xmm3, %xmm2, %xmm3
	movq	img, %rax
	vcvtsi2sdl	72576(%rax), %xmm0, %xmm4
	vdivsd	%xmm4, %xmm3, %xmm3
	vaddsd	%xmm0, %xmm3, %xmm3
	vcvttsd2si	%xmm3, %eax
	movl	%eax, PAverageQp
	movl	-4(%rbp), %eax
	addl	-8(%rbp), %eax
	addl	$1, %eax
	vcvtsi2sd	%eax, %xmm0, %xmm3
	vmulsd	%xmm3, %xmm2, %xmm2
	vdivsd	%xmm1, %xmm2, %xmm1
	vaddsd	%xmm1, %xmm0, %xmm0
	vcvttsd2si	%xmm0, %eax
	movl	%eax, -12(%rbp)
	cmpl	$2, -12(%rbp)
	jle	.LBB17_12
# %bb.11:                               # %if.then50
	movl	$2, -12(%rbp)
.LBB17_12:                              # %if.end51
	movl	-12(%rbp), %eax
	movl	PAverageQp, %ecx
	subl	%eax, %ecx
	movl	%ecx, PAverageQp
	movl	PAverageQp, %eax
	movl	QPLastPFrame, %ecx
	subl	$2, %ecx
	cmpl	%ecx, %eax
	jle	.LBB17_14
# %bb.13:                               # %if.then56
	movl	PAverageQp, %eax
	addl	$-1, %eax
	movl	%eax, PAverageQp
.LBB17_14:                              # %if.end57
	movl	QPLastGOP, %eax
	subl	$2, %eax
	cmpl	PAverageQp, %eax
	jge	.LBB17_16
# %bb.15:                               # %cond.true
	movl	PAverageQp, %eax
	jmp	.LBB17_17
.LBB17_16:                              # %cond.false
	movl	QPLastGOP, %eax
	subl	$2, %eax
.LBB17_17:                              # %cond.end
	movl	%eax, PAverageQp
	movl	QPLastGOP, %eax
	addl	$2, %eax
	cmpl	PAverageQp, %eax
	jge	.LBB17_19
# %bb.18:                               # %cond.true65
	movl	QPLastGOP, %eax
	addl	$2, %eax
	jmp	.LBB17_20
.LBB17_19:                              # %cond.false67
	movl	PAverageQp, %eax
.LBB17_20:                              # %cond.end68
	movl	%eax, PAverageQp
	movl	RC_MAX_QUANT, %eax
	cmpl	PAverageQp, %eax
	jge	.LBB17_22
# %bb.21:                               # %cond.true72
	movl	RC_MAX_QUANT, %eax
	jmp	.LBB17_23
.LBB17_22:                              # %cond.false73
	movl	PAverageQp, %eax
.LBB17_23:                              # %cond.end74
	movl	%eax, PAverageQp
	movl	RC_MIN_QUANT, %eax
	cmpl	PAverageQp, %eax
	jge	.LBB17_25
# %bb.24:                               # %cond.true78
	movl	PAverageQp, %eax
	jmp	.LBB17_26
.LBB17_25:                              # %cond.false79
	movl	RC_MIN_QUANT, %eax
.LBB17_26:                              # %cond.end80
	movl	%eax, PAverageQp
	movl	PAverageQp, %eax
	movl	%eax, MyInitialQp
	movl	MyInitialQp, %eax
	movl	%eax, QPLastGOP
	movl	PAverageQp, %eax
	movl	%eax, Pm_Qp
	movl	PAverageQp, %eax
	movl	%eax, PAveFrameQP
	movl	PreviousQp2, %eax
	movl	%eax, PreviousQp1
	movl	MyInitialQp, %eax
	subl	$1, %eax
	movl	%eax, PreviousQp2
.LBB17_27:                              # %if.end83
	movq	img, %rax
	movl	$0, 72572(%rax)
	movq	img, %rax
	movl	$0, 72576(%rax)
	movl	$0, NumberofBFrames
	cmpl	$1176894738, -20(%rbp)  # imm = 0x4625FD12
	jne	.LBB17_29
.LBB17_28:
	addq	$32, %rsp
	popq	%rbp
	.cfi_def_cfa %rsp, 8
	retq
.LBB17_29:                              # %func_exit
	.cfi_def_cfa %rbp, 16
	callq	detect_breach
	jmp	.LBB17_28
.Lfunc_end17:
	.size	rc_init_GOP.1, .Lfunc_end17-rc_init_GOP.1
	.cfi_endproc
                                        # -- End function
	.section	.rodata.cst8,"aM",@progbits,8
	.p2align	3               # -- Begin function updateRCModel.2
.LCPI18_0:
	.quad	4611686018427387904     # double 2
.LCPI18_1:
	.quad	4602678819172646912     # double 0.5
.LCPI18_2:
	.quad	4607182418800017408     # double 1
.LCPI18_3:
	.quad	4626322717216342016     # double 20
	.section	.rodata.cst16,"aM",@progbits,16
	.p2align	4
.LCPI18_4:
	.quad	9223372036854775807     # double NaN
	.quad	9223372036854775807     # double NaN
	.text
	.globl	updateRCModel.2
	.p2align	4, 0x90
	.type	updateRCModel.2,@function
updateRCModel.2:                        # @updateRCModel.2
	.cfi_startproc
# %bb.0:                                # %entry
	pushq	%rbp
	.cfi_def_cfa_offset 16
	.cfi_offset %rbp, -16
	movq	%rsp, %rbp
	.cfi_def_cfa_register %rbp
	subq	$208, %rsp
	movl	$631158749, -28(%rbp)   # imm = 0x259EB7DD
	vxorps	%xmm0, %xmm0, %xmm0
	vmovsd	%xmm0, -24(%rbp)
	movl	$0, -16(%rbp)
	movq	img, %rax
	cmpl	$0, 24(%rax)
	jne	.LBB18_68
# %bb.1:                                # %if.then
	movq	img, %rax
	movl	72620(%rax), %eax
	movq	img, %rcx
	cmpl	72608(%rcx), %eax
	jne	.LBB18_3
# %bb.2:                                # %if.then2
	callq	ComputeFrameMAD
	vmovsd	%xmm0, CurrentFrameMAD
	movq	img, %rax
	movl	72564(%rax), %eax
	movl	%eax, -12(%rbp)
	jmp	.LBB18_21
.LBB18_3:                               # %if.else
	movq	input, %rax
	cmpl	$0, 2884(%rax)
	je	.LBB18_6
# %bb.4:                                # %land.lhs.true
	movq	img, %rax
	cmpl	$0, 72600(%rax)
	jne	.LBB18_6
# %bb.5:                                # %if.then4
	vmovsd	.LCPI18_0(%rip), %xmm0  # xmm0 = mem[0],zero
	movq	img, %rax
	vmovsd	72544(%rax), %xmm1      # xmm1 = mem[0],zero
	movq	img, %rax
	vcvtsi2sdl	72620(%rax), %xmm0, %xmm2
	vdivsd	%xmm2, %xmm1, %xmm1
	vdivsd	%xmm0, %xmm1, %xmm0
	vmovsd	%xmm0, CurrentFrameMAD
	jmp	.LBB18_7
.LBB18_6:                               # %if.else7
	movq	img, %rax
	vmovsd	72544(%rax), %xmm0      # xmm0 = mem[0],zero
	movq	img, %rax
	vcvtsi2sdl	72620(%rax), %xmm0, %xmm1
	vdivsd	%xmm1, %xmm0, %xmm0
	vmovsd	%xmm0, CurrentFrameMAD
.LBB18_7:                               # %if.end
	movq	img, %rax
	vxorps	%xmm0, %xmm0, %xmm0
	vmovsd	%xmm0, 72544(%rax)
	movl	TotalNumberofBasicUnit, %eax
	subl	NumberofBasicUnit, %eax
	movl	%eax, CodedBasicUnit
	cmpl	$0, CodedBasicUnit
	jle	.LBB18_12
# %bb.8:                                # %if.then15
	vmovsd	.LCPI18_1(%rip), %xmm0  # xmm0 = mem[0],zero
	vmovsd	.LCPI18_2(%rip), %xmm1  # xmm1 = mem[0],zero
	movl	PAveHeaderBits1, %eax
	movl	CodedBasicUnit, %ecx
	subl	$1, %ecx
	imull	%ecx, %eax
	movq	img, %rcx
	addl	72532(%rcx), %eax
	vcvtsi2sd	%eax, %xmm0, %xmm2
	vmulsd	%xmm2, %xmm1, %xmm1
	vcvtsi2sdl	CodedBasicUnit, %xmm0, %xmm2
	vdivsd	%xmm2, %xmm1, %xmm1
	vaddsd	%xmm0, %xmm1, %xmm0
	vcvttsd2si	%xmm0, %eax
	movl	%eax, PAveHeaderBits1
	cmpl	$0, PAveHeaderBits3
	jne	.LBB18_10
# %bb.9:                                # %if.then25
	movl	PAveHeaderBits1, %eax
	movl	%eax, PAveHeaderBits2
	jmp	.LBB18_11
.LBB18_10:                              # %if.else26
	vmovsd	.LCPI18_1(%rip), %xmm0  # xmm0 = mem[0],zero
	vmovsd	.LCPI18_2(%rip), %xmm1  # xmm1 = mem[0],zero
	movl	PAveHeaderBits1, %eax
	imull	CodedBasicUnit, %eax
	movl	PAveHeaderBits3, %ecx
	imull	NumberofBasicUnit, %ecx
	addl	%ecx, %eax
	vcvtsi2sd	%eax, %xmm0, %xmm2
	vmulsd	%xmm2, %xmm1, %xmm1
	vcvtsi2sdl	TotalNumberofBasicUnit, %xmm0, %xmm2
	vdivsd	%xmm2, %xmm1, %xmm1
	vaddsd	%xmm0, %xmm1, %xmm0
	vcvttsd2si	%xmm0, %eax
	movl	%eax, PAveHeaderBits2
.LBB18_11:                              # %if.end36
	jmp	.LBB18_12
.LBB18_12:                              # %if.end37
	movq	input, %rax
	cmpl	$2, 2880(%rax)
	je	.LBB18_14
# %bb.13:                               # %lor.lhs.false
	movq	input, %rax
	cmpl	$0, 2884(%rax)
	je	.LBB18_16
.LBB18_14:                              # %land.lhs.true42
	movq	img, %rax
	cmpl	$1, 72600(%rax)
	jne	.LBB18_16
# %bb.15:                               # %if.then46
	vmovsd	CurrentFrameMAD, %xmm0  # xmm0 = mem[0],zero
	movq	FCBUCFMAD, %rax
	movl	TotalNumberofBasicUnit, %ecx
	subl	$1, %ecx
	subl	NumberofBasicUnit, %ecx
	movslq	%ecx, %rcx
	vmovsd	%xmm0, (%rax,%rcx,8)
	jmp	.LBB18_17
.LBB18_16:                              # %if.else49
	vmovsd	CurrentFrameMAD, %xmm0  # xmm0 = mem[0],zero
	movq	BUCFMAD, %rax
	movl	TotalNumberofBasicUnit, %ecx
	subl	$1, %ecx
	subl	NumberofBasicUnit, %ecx
	movslq	%ecx, %rcx
	vmovsd	%xmm0, (%rax,%rcx,8)
.LBB18_17:                              # %if.end54
	cmpl	$0, NumberofBasicUnit
	je	.LBB18_19
# %bb.18:                               # %if.then57
	movq	img, %rax
	movl	72564(%rax), %eax
	imull	TotalNumberofBasicUnit, %eax
	addl	CodedBasicUnit, %eax
	movl	%eax, -12(%rbp)
	jmp	.LBB18_20
.LBB18_19:                              # %if.else61
	movq	img, %rax
	movl	72564(%rax), %eax
	subl	$1, %eax
	imull	TotalNumberofBasicUnit, %eax
	addl	CodedBasicUnit, %eax
	movl	%eax, -12(%rbp)
.LBB18_20:                              # %if.end66
	jmp	.LBB18_21
.LBB18_21:                              # %if.end67
	cmpl	$1, -12(%rbp)
	jle	.LBB18_23
# %bb.22:                               # %if.then70
	movl	$1, -16(%rbp)
.LBB18_23:                              # %if.end71
	movq	img, %rax
	movl	72524(%rax), %eax
	movl	%eax, PPreHeader
	movl	$19, -4(%rbp)
.LBB18_24:                              # %for.cond
                                        # =>This Inner Loop Header: Depth=1
	cmpl	$0, -4(%rbp)
	jle	.LBB18_27
# %bb.25:                               # %for.body
                                        #   in Loop: Header=BB18_24 Depth=1
	movl	-4(%rbp), %eax
	subl	$1, %eax
	cltq
	vmovsd	Pm_rgQp(,%rax,8), %xmm0 # xmm0 = mem[0],zero
	movslq	-4(%rbp), %rax
	vmovsd	%xmm0, Pm_rgQp(,%rax,8)
	movslq	-4(%rbp), %rax
	vmovsd	Pm_rgQp(,%rax,8), %xmm0 # xmm0 = mem[0],zero
	movslq	-4(%rbp), %rax
	vmovsd	%xmm0, m_rgQp(,%rax,8)
	movl	-4(%rbp), %eax
	subl	$1, %eax
	cltq
	vmovsd	Pm_rgRp(,%rax,8), %xmm0 # xmm0 = mem[0],zero
	movslq	-4(%rbp), %rax
	vmovsd	%xmm0, Pm_rgRp(,%rax,8)
	movslq	-4(%rbp), %rax
	vmovsd	Pm_rgRp(,%rax,8), %xmm0 # xmm0 = mem[0],zero
	movslq	-4(%rbp), %rax
	vmovsd	%xmm0, m_rgRp(,%rax,8)
# %bb.26:                               # %for.inc
                                        #   in Loop: Header=BB18_24 Depth=1
	movl	-4(%rbp), %eax
	addl	$-1, %eax
	movl	%eax, -4(%rbp)
	jmp	.LBB18_24
.LBB18_27:                              # %for.end
	movl	m_Qc, %edi
	callq	QP2Qstep
	vmovsd	%xmm0, Pm_rgQp
	movq	img, %rax
	movl	72620(%rax), %eax
	movq	img, %rcx
	cmpl	72608(%rcx), %eax
	jne	.LBB18_29
# %bb.28:                               # %if.then97
	vmovsd	.LCPI18_2(%rip), %xmm0  # xmm0 = mem[0],zero
	movq	img, %rax
	vcvtsi2sdl	72528(%rax), %xmm0, %xmm1
	vmulsd	%xmm0, %xmm1, %xmm0
	vdivsd	CurrentFrameMAD, %xmm0, %xmm0
	vmovsd	%xmm0, Pm_rgRp
	jmp	.LBB18_30
.LBB18_29:                              # %if.else101
	vmovsd	.LCPI18_2(%rip), %xmm0  # xmm0 = mem[0],zero
	movq	img, %rax
	vcvtsi2sdl	72536(%rax), %xmm0, %xmm1
	vmulsd	%xmm0, %xmm1, %xmm0
	vdivsd	CurrentFrameMAD, %xmm0, %xmm0
	vmovsd	%xmm0, Pm_rgRp
.LBB18_30:                              # %if.end105
	vmovsd	Pm_rgQp, %xmm0          # xmm0 = mem[0],zero
	vmovsd	%xmm0, m_rgQp
	vmovsd	Pm_rgRp, %xmm0          # xmm0 = mem[0],zero
	vmovsd	%xmm0, m_rgRp
	vmovsd	Pm_X1, %xmm0            # xmm0 = mem[0],zero
	vmovsd	%xmm0, m_X1
	vmovsd	Pm_X2, %xmm0            # xmm0 = mem[0],zero
	vmovsd	%xmm0, m_X2
	vmovsd	CurrentFrameMAD, %xmm0  # xmm0 = mem[0],zero
	vucomisd	PreviousFrameMAD, %xmm0
	jbe	.LBB18_32
# %bb.31:                               # %cond.true
	vmovsd	.LCPI18_3(%rip), %xmm0  # xmm0 = mem[0],zero
	vmovsd	PreviousFrameMAD, %xmm1 # xmm1 = mem[0],zero
	vdivsd	CurrentFrameMAD, %xmm1, %xmm1
	vmulsd	%xmm0, %xmm1, %xmm0
	vcvttsd2si	%xmm0, %eax
	jmp	.LBB18_33
.LBB18_32:                              # %cond.false
	vmovsd	.LCPI18_3(%rip), %xmm0  # xmm0 = mem[0],zero
	vmovsd	CurrentFrameMAD, %xmm1  # xmm1 = mem[0],zero
	vdivsd	PreviousFrameMAD, %xmm1, %xmm1
	vmulsd	%xmm0, %xmm1, %xmm0
	vcvttsd2si	%xmm0, %eax
.LBB18_33:                              # %cond.end
	movl	%eax, -8(%rbp)
	cmpl	$1, -8(%rbp)
	jge	.LBB18_35
# %bb.34:                               # %cond.true116
	movl	$1, %eax
	jmp	.LBB18_36
.LBB18_35:                              # %cond.false117
	movl	-8(%rbp), %eax
.LBB18_36:                              # %cond.end118
	movl	%eax, -8(%rbp)
	movl	-8(%rbp), %eax
	cmpl	-12(%rbp), %eax
	jge	.LBB18_38
# %bb.37:                               # %cond.true122
	movl	-8(%rbp), %eax
	jmp	.LBB18_39
.LBB18_38:                              # %cond.false123
	movl	-12(%rbp), %eax
.LBB18_39:                              # %cond.end124
	movl	%eax, -8(%rbp)
	movl	-8(%rbp), %eax
	movl	m_windowSize, %ecx
	addl	$1, %ecx
	cmpl	%ecx, %eax
	jge	.LBB18_41
# %bb.40:                               # %cond.true129
	movl	-8(%rbp), %eax
	jmp	.LBB18_42
.LBB18_41:                              # %cond.false130
	movl	m_windowSize, %eax
	addl	$1, %eax
.LBB18_42:                              # %cond.end132
	movl	%eax, -8(%rbp)
	cmpl	$20, -8(%rbp)
	jge	.LBB18_44
# %bb.43:                               # %cond.true136
	movl	-8(%rbp), %eax
	jmp	.LBB18_45
.LBB18_44:                              # %cond.false137
	movl	$20, %eax
	jmp	.LBB18_45
.LBB18_45:                              # %cond.end138
	movl	%eax, -8(%rbp)
	movl	-8(%rbp), %eax
	movl	%eax, m_windowSize
	movl	$0, -4(%rbp)
.LBB18_46:                              # %for.cond140
                                        # =>This Inner Loop Header: Depth=1
	cmpl	$20, -4(%rbp)
	jge	.LBB18_49
# %bb.47:                               # %for.body143
                                        #   in Loop: Header=BB18_46 Depth=1
	movslq	-4(%rbp), %rax
	movl	$0, m_rgRejected(,%rax,4)
# %bb.48:                               # %for.inc146
                                        #   in Loop: Header=BB18_46 Depth=1
	movl	-4(%rbp), %eax
	addl	$1, %eax
	movl	%eax, -4(%rbp)
	jmp	.LBB18_46
.LBB18_49:                              # %for.end147
	movl	-8(%rbp), %edi
	callq	RCModelEstimator
	movl	m_windowSize, %eax
	movl	%eax, -8(%rbp)
	movl	$0, -4(%rbp)
.LBB18_50:                              # %for.cond148
                                        # =>This Inner Loop Header: Depth=1
	movl	-4(%rbp), %eax
	cmpl	-8(%rbp), %eax
	jge	.LBB18_53
# %bb.51:                               # %for.body151
                                        #   in Loop: Header=BB18_50 Depth=1
	vmovsd	m_X1, %xmm0             # xmm0 = mem[0],zero
	movslq	-4(%rbp), %rax
	vdivsd	m_rgQp(,%rax,8), %xmm0, %xmm0
	vmovsd	m_X2, %xmm1             # xmm1 = mem[0],zero
	movslq	-4(%rbp), %rax
	vmovsd	m_rgQp(,%rax,8), %xmm2  # xmm2 = mem[0],zero
	movslq	-4(%rbp), %rax
	vmulsd	m_rgQp(,%rax,8), %xmm2, %xmm2
	vdivsd	%xmm2, %xmm1, %xmm1
	vaddsd	%xmm1, %xmm0, %xmm0
	movslq	-4(%rbp), %rax
	vsubsd	m_rgRp(,%rax,8), %xmm0, %xmm0
	movslq	-4(%rbp), %rax
	vmovsd	%xmm0, -208(%rbp,%rax,8)
	movslq	-4(%rbp), %rax
	vmovsd	-208(%rbp,%rax,8), %xmm0 # xmm0 = mem[0],zero
	movslq	-4(%rbp), %rax
	vmulsd	-208(%rbp,%rax,8), %xmm0, %xmm0
	vaddsd	-24(%rbp), %xmm0, %xmm0
	vmovsd	%xmm0, -24(%rbp)
# %bb.52:                               # %for.inc173
                                        #   in Loop: Header=BB18_50 Depth=1
	movl	-4(%rbp), %eax
	addl	$1, %eax
	movl	%eax, -4(%rbp)
	jmp	.LBB18_50
.LBB18_53:                              # %for.end175
	cmpl	$2, -8(%rbp)
	jne	.LBB18_55
# %bb.54:                               # %cond.true178
	vxorps	%xmm0, %xmm0, %xmm0
	jmp	.LBB18_56
.LBB18_55:                              # %cond.false179
	vmovsd	-24(%rbp), %xmm0        # xmm0 = mem[0],zero
	vcvtsi2sdl	-8(%rbp), %xmm0, %xmm1
	vdivsd	%xmm1, %xmm0, %xmm0
	callq	sqrt
.LBB18_56:                              # %cond.end183
	vmovsd	%xmm0, -40(%rbp)
	movl	$0, -4(%rbp)
.LBB18_57:                              # %for.cond185
                                        # =>This Inner Loop Header: Depth=1
	movl	-4(%rbp), %eax
	cmpl	-8(%rbp), %eax
	jge	.LBB18_62
# %bb.58:                               # %for.body188
                                        #   in Loop: Header=BB18_57 Depth=1
	movslq	-4(%rbp), %rax
	vmovsd	-208(%rbp,%rax,8), %xmm0 # xmm0 = mem[0],zero
	vmovdqa	.LCPI18_4(%rip), %xmm1  # xmm1 = [NaN,NaN]
	vpand	%xmm1, %xmm0, %xmm0
	vucomisd	-40(%rbp), %xmm0
	jbe	.LBB18_60
# %bb.59:                               # %if.then193
                                        #   in Loop: Header=BB18_57 Depth=1
	movslq	-4(%rbp), %rax
	movl	$1, m_rgRejected(,%rax,4)
.LBB18_60:                              # %if.end196
                                        #   in Loop: Header=BB18_57 Depth=1
	jmp	.LBB18_61
.LBB18_61:                              # %for.inc197
                                        #   in Loop: Header=BB18_57 Depth=1
	movl	-4(%rbp), %eax
	addl	$1, %eax
	movl	%eax, -4(%rbp)
	jmp	.LBB18_57
.LBB18_62:                              # %for.end199
	movl	$0, m_rgRejected
	movl	-8(%rbp), %edi
	callq	RCModelEstimator
	cmpl	$0, -16(%rbp)
	je	.LBB18_64
# %bb.63:                               # %if.then201
	callq	updateMADModel
	jmp	.LBB18_67
.LBB18_64:                              # %if.else202
	movq	img, %rax
	cmpl	$0, 24(%rax)
	jne	.LBB18_66
# %bb.65:                               # %if.then206
	vmovsd	CurrentFrameMAD, %xmm0  # xmm0 = mem[0],zero
	vmovsd	%xmm0, PPictureMAD
.LBB18_66:                              # %if.end207
	jmp	.LBB18_67
.LBB18_67:                              # %if.end208
	jmp	.LBB18_68
.LBB18_68:                              # %if.end209
	cmpl	$631158749, -28(%rbp)   # imm = 0x259EB7DD
	jne	.LBB18_70
.LBB18_69:
	addq	$208, %rsp
	popq	%rbp
	.cfi_def_cfa %rsp, 8
	retq
.LBB18_70:                              # %func_exit
	.cfi_def_cfa %rbp, 16
	callq	detect_breach
	jmp	.LBB18_69
.Lfunc_end18:
	.size	updateRCModel.2, .Lfunc_end18-updateRCModel.2
	.cfi_endproc
                                        # -- End function
	.section	.rodata.cst8,"aM",@progbits,8
	.p2align	3               # -- Begin function Qstep2QP.3
.LCPI19_0:
	.quad	4604086194056200192     # double 0.65625
.LCPI19_1:
	.quad	4604930618986332160     # double 0.75
.LCPI19_2:
	.quad	4605775043916464128     # double 0.84375
.LCPI19_3:
	.quad	4606619468846596096     # double 0.9375
.LCPI19_4:
	.quad	4607463893776728064     # double 1.0625
.LCPI19_5:
	.quad	4607745368753438720     # double 1.125
.LCPI19_6:
	.quad	4607182418800017408     # double 1
.LCPI19_7:
	.quad	4606056518893174784     # double 0.875
.LCPI19_8:
	.quad	4605493568939753472     # double 0.8125
.LCPI19_9:
	.quad	4604367669032910848     # double 0.6875
.LCPI19_10:
	.quad	4603804719079489536     # double 0.625
.LCPI19_11:
	.quad	4611686018427387904     # double 2
	.text
	.globl	Qstep2QP.3
	.p2align	4, 0x90
	.type	Qstep2QP.3,@function
Qstep2QP.3:                             # @Qstep2QP.3
	.cfi_startproc
# %bb.0:                                # %entry
	pushq	%rbp
	.cfi_def_cfa_offset 16
	.cfi_offset %rbp, -16
	movq	%rsp, %rbp
	.cfi_def_cfa_register %rbp
	pushq	%rbx
	subq	$56, %rsp
	.cfi_offset %rbx, -24
	movl	$1289698867, -32(%rbp)  # imm = 0x4CDF3E33
	vmovsd	%xmm0, -16(%rbp)
	movl	$0, -24(%rbp)
	movl	$0, -20(%rbp)
	vmovsd	-16(%rbp), %xmm0        # xmm0 = mem[0],zero
	vmovsd	%xmm0, -40(%rbp)        # 8-byte Spill
	xorl	%edi, %edi
	callq	QP2Qstep
	vucomisd	-40(%rbp), %xmm0 # 8-byte Folded Reload
	jbe	.LBB19_2
# %bb.1:                                # %if.then
	movl	$0, -28(%rbp)
	jmp	.LBB19_24
.LBB19_2:                               # %if.else
	vmovsd	-16(%rbp), %xmm0        # xmm0 = mem[0],zero
	vmovsd	%xmm0, -56(%rbp)        # 8-byte Spill
	movl	$51, %edi
	callq	QP2Qstep
	vmovsd	-56(%rbp), %xmm1        # 8-byte Reload
                                        # xmm1 = mem[0],zero
	vucomisd	%xmm0, %xmm1
	jbe	.LBB19_4
# %bb.3:                                # %if.then3
	movl	$51, -28(%rbp)
	jmp	.LBB19_24
.LBB19_4:                               # %if.end
	jmp	.LBB19_5
.LBB19_5:                               # %if.end4
	jmp	.LBB19_6
.LBB19_6:                               # %while.cond
                                        # =>This Inner Loop Header: Depth=1
	vmovsd	-16(%rbp), %xmm0        # xmm0 = mem[0],zero
	vmovsd	%xmm0, -48(%rbp)        # 8-byte Spill
	movl	$5, %edi
	callq	QP2Qstep
	vmovsd	-48(%rbp), %xmm1        # 8-byte Reload
                                        # xmm1 = mem[0],zero
	vucomisd	%xmm0, %xmm1
	jbe	.LBB19_8
# %bb.7:                                # %while.body
                                        #   in Loop: Header=BB19_6 Depth=1
	vmovsd	.LCPI19_11(%rip), %xmm0 # xmm0 = mem[0],zero
	vmovsd	-16(%rbp), %xmm1        # xmm1 = mem[0],zero
	vdivsd	%xmm0, %xmm1, %xmm0
	vmovsd	%xmm0, -16(%rbp)
	movl	-24(%rbp), %eax
	addl	$1, %eax
	movl	%eax, -24(%rbp)
	jmp	.LBB19_6
.LBB19_8:                               # %while.end
	vmovsd	.LCPI19_0(%rip), %xmm0  # xmm0 = mem[0],zero
	vucomisd	-16(%rbp), %xmm0
	jb	.LBB19_10
# %bb.9:                                # %if.then8
	vmovsd	.LCPI19_10(%rip), %xmm0 # xmm0 = mem[0],zero
	vmovsd	%xmm0, -16(%rbp)
	movl	$0, -20(%rbp)
	jmp	.LBB19_23
.LBB19_10:                              # %if.else9
	vmovsd	.LCPI19_1(%rip), %xmm0  # xmm0 = mem[0],zero
	vucomisd	-16(%rbp), %xmm0
	jb	.LBB19_12
# %bb.11:                               # %if.then11
	vmovsd	.LCPI19_9(%rip), %xmm0  # xmm0 = mem[0],zero
	vmovsd	%xmm0, -16(%rbp)
	movl	$1, -20(%rbp)
	jmp	.LBB19_22
.LBB19_12:                              # %if.else12
	vmovsd	.LCPI19_2(%rip), %xmm0  # xmm0 = mem[0],zero
	vucomisd	-16(%rbp), %xmm0
	jb	.LBB19_14
# %bb.13:                               # %if.then14
	vmovsd	.LCPI19_8(%rip), %xmm0  # xmm0 = mem[0],zero
	vmovsd	%xmm0, -16(%rbp)
	movl	$2, -20(%rbp)
	jmp	.LBB19_21
.LBB19_14:                              # %if.else15
	vmovsd	.LCPI19_3(%rip), %xmm0  # xmm0 = mem[0],zero
	vucomisd	-16(%rbp), %xmm0
	jb	.LBB19_16
# %bb.15:                               # %if.then17
	vmovsd	.LCPI19_7(%rip), %xmm0  # xmm0 = mem[0],zero
	vmovsd	%xmm0, -16(%rbp)
	movl	$3, -20(%rbp)
	jmp	.LBB19_20
.LBB19_16:                              # %if.else18
	vmovsd	.LCPI19_4(%rip), %xmm0  # xmm0 = mem[0],zero
	vucomisd	-16(%rbp), %xmm0
	jb	.LBB19_18
# %bb.17:                               # %if.then20
	vmovsd	.LCPI19_6(%rip), %xmm0  # xmm0 = mem[0],zero
	vmovsd	%xmm0, -16(%rbp)
	movl	$4, -20(%rbp)
	jmp	.LBB19_19
.LBB19_18:                              # %if.else21
	vmovsd	.LCPI19_5(%rip), %xmm0  # xmm0 = mem[0],zero
	vmovsd	%xmm0, -16(%rbp)
	movl	$5, -20(%rbp)
.LBB19_19:                              # %if.end22
	jmp	.LBB19_20
.LBB19_20:                              # %if.end23
	jmp	.LBB19_21
.LBB19_21:                              # %if.end24
	jmp	.LBB19_22
.LBB19_22:                              # %if.end25
	jmp	.LBB19_23
.LBB19_23:                              # %if.end26
	imull	$6, -24(%rbp), %eax
	addl	-20(%rbp), %eax
	movl	%eax, -28(%rbp)
.LBB19_24:                              # %return
	movl	-28(%rbp), %ebx
	cmpl	$1289698867, -32(%rbp)  # imm = 0x4CDF3E33
	jne	.LBB19_26
.LBB19_25:
	movl	%ebx, %eax
	addq	$56, %rsp
	popq	%rbx
	popq	%rbp
	.cfi_def_cfa %rsp, 8
	retq
.LBB19_26:                              # %func_exit
	.cfi_def_cfa %rbp, 16
	callq	detect_breach
	jmp	.LBB19_25
.Lfunc_end19:
	.size	Qstep2QP.3, .Lfunc_end19-Qstep2QP.3
	.cfi_endproc
                                        # -- End function
	.section	.rodata.cst8,"aM",@progbits,8
	.p2align	3               # -- Begin function calc_MAD.4
.LCPI20_0:
	.quad	4643211215818981376     # double 256
.LCPI20_1:
	.quad	4607182418800017408     # double 1
	.text
	.globl	calc_MAD.4
	.p2align	4, 0x90
	.type	calc_MAD.4,@function
calc_MAD.4:                             # @calc_MAD.4
	.cfi_startproc
# %bb.0:                                # %entry
	pushq	%rbp
	.cfi_def_cfa_offset 16
	.cfi_offset %rbp, -16
	movq	%rsp, %rbp
	.cfi_def_cfa_register %rbp
	subq	$32, %rsp
	movl	$1577706821, -16(%rbp)  # imm = 0x5E09E545
	movl	$0, -12(%rbp)
	movl	$0, -4(%rbp)
.LBB20_1:                               # %for.cond
                                        # =>This Loop Header: Depth=1
                                        #     Child Loop BB20_3 Depth 2
	cmpl	$16, -4(%rbp)
	jge	.LBB20_8
# %bb.2:                                # %for.body
                                        #   in Loop: Header=BB20_1 Depth=1
	movl	$0, -8(%rbp)
.LBB20_3:                               # %for.cond1
                                        #   Parent Loop BB20_1 Depth=1
                                        # =>  This Inner Loop Header: Depth=2
	cmpl	$16, -8(%rbp)
	jge	.LBB20_6
# %bb.4:                                # %for.body3
                                        #   in Loop: Header=BB20_3 Depth=2
	movslq	-4(%rbp), %rax
	shlq	$6, %rax
	movabsq	$diffy, %rcx
	addq	%rax, %rcx
	movslq	-8(%rbp), %rax
	movl	(%rcx,%rax,4), %edi
	callq	abs
	addl	-12(%rbp), %eax
	movl	%eax, -12(%rbp)
# %bb.5:                                # %for.inc
                                        #   in Loop: Header=BB20_3 Depth=2
	movl	-8(%rbp), %eax
	addl	$1, %eax
	movl	%eax, -8(%rbp)
	jmp	.LBB20_3
.LBB20_6:                               # %for.end
                                        #   in Loop: Header=BB20_1 Depth=1
	jmp	.LBB20_7
.LBB20_7:                               # %for.inc6
                                        #   in Loop: Header=BB20_1 Depth=1
	movl	-4(%rbp), %eax
	addl	$1, %eax
	movl	%eax, -4(%rbp)
	jmp	.LBB20_1
.LBB20_8:                               # %for.end8
	vmovsd	.LCPI20_0(%rip), %xmm0  # xmm0 = mem[0],zero
	vmovsd	.LCPI20_1(%rip), %xmm1  # xmm1 = mem[0],zero
	vcvtsi2sdl	-12(%rbp), %xmm0, %xmm2
	vmulsd	%xmm1, %xmm2, %xmm1
	vdivsd	%xmm0, %xmm1, %xmm0
	vmovsd	%xmm0, -32(%rbp)
	vmovsd	-32(%rbp), %xmm0        # xmm0 = mem[0],zero
	cmpl	$1577706821, -16(%rbp)  # imm = 0x5E09E545
	jne	.LBB20_10
.LBB20_9:
	addq	$32, %rsp
	popq	%rbp
	.cfi_def_cfa %rsp, 8
	retq
.LBB20_10:                              # %func_exit
	.cfi_def_cfa %rbp, 16
	vmovsd	%xmm0, -24(%rbp)        # 8-byte Spill
	callq	detect_breach
	vmovsd	-24(%rbp), %xmm0        # 8-byte Reload
                                        # xmm0 = mem[0],zero
	jmp	.LBB20_9
.Lfunc_end20:
	.size	calc_MAD.4, .Lfunc_end20-calc_MAD.4
	.cfi_endproc
                                        # -- End function
	.section	.rodata.cst8,"aM",@progbits,8
	.p2align	3               # -- Begin function updateRCModel.5
.LCPI21_0:
	.quad	4611686018427387904     # double 2
.LCPI21_1:
	.quad	4602678819172646912     # double 0.5
.LCPI21_2:
	.quad	4607182418800017408     # double 1
.LCPI21_3:
	.quad	4626322717216342016     # double 20
	.section	.rodata.cst16,"aM",@progbits,16
	.p2align	4
.LCPI21_4:
	.quad	9223372036854775807     # double NaN
	.quad	9223372036854775807     # double NaN
	.text
	.globl	updateRCModel.5
	.p2align	4, 0x90
	.type	updateRCModel.5,@function
updateRCModel.5:                        # @updateRCModel.5
	.cfi_startproc
# %bb.0:                                # %entry
	pushq	%rbp
	.cfi_def_cfa_offset 16
	.cfi_offset %rbp, -16
	movq	%rsp, %rbp
	.cfi_def_cfa_register %rbp
	subq	$208, %rsp
	movl	$285797134, -28(%rbp)   # imm = 0x1108EB0E
	vxorps	%xmm0, %xmm0, %xmm0
	vmovsd	%xmm0, -24(%rbp)
	movl	$0, -16(%rbp)
	movq	img, %rax
	cmpl	$0, 24(%rax)
	jne	.LBB21_68
# %bb.1:                                # %if.then
	movq	img, %rax
	movl	72620(%rax), %eax
	movq	img, %rcx
	cmpl	72608(%rcx), %eax
	jne	.LBB21_3
# %bb.2:                                # %if.then2
	callq	ComputeFrameMAD
	vmovsd	%xmm0, CurrentFrameMAD
	movq	img, %rax
	movl	72564(%rax), %eax
	movl	%eax, -12(%rbp)
	jmp	.LBB21_21
.LBB21_3:                               # %if.else
	movq	input, %rax
	cmpl	$0, 2884(%rax)
	je	.LBB21_6
# %bb.4:                                # %land.lhs.true
	movq	img, %rax
	cmpl	$0, 72600(%rax)
	jne	.LBB21_6
# %bb.5:                                # %if.then4
	vmovsd	.LCPI21_0(%rip), %xmm0  # xmm0 = mem[0],zero
	movq	img, %rax
	vmovsd	72544(%rax), %xmm1      # xmm1 = mem[0],zero
	movq	img, %rax
	vcvtsi2sdl	72620(%rax), %xmm0, %xmm2
	vdivsd	%xmm2, %xmm1, %xmm1
	vdivsd	%xmm0, %xmm1, %xmm0
	vmovsd	%xmm0, CurrentFrameMAD
	jmp	.LBB21_7
.LBB21_6:                               # %if.else7
	movq	img, %rax
	vmovsd	72544(%rax), %xmm0      # xmm0 = mem[0],zero
	movq	img, %rax
	vcvtsi2sdl	72620(%rax), %xmm0, %xmm1
	vdivsd	%xmm1, %xmm0, %xmm0
	vmovsd	%xmm0, CurrentFrameMAD
.LBB21_7:                               # %if.end
	movq	img, %rax
	vxorps	%xmm0, %xmm0, %xmm0
	vmovsd	%xmm0, 72544(%rax)
	movl	TotalNumberofBasicUnit, %eax
	subl	NumberofBasicUnit, %eax
	movl	%eax, CodedBasicUnit
	cmpl	$0, CodedBasicUnit
	jle	.LBB21_12
# %bb.8:                                # %if.then15
	vmovsd	.LCPI21_1(%rip), %xmm0  # xmm0 = mem[0],zero
	vmovsd	.LCPI21_2(%rip), %xmm1  # xmm1 = mem[0],zero
	movl	PAveHeaderBits1, %eax
	movl	CodedBasicUnit, %ecx
	subl	$1, %ecx
	imull	%ecx, %eax
	movq	img, %rcx
	addl	72532(%rcx), %eax
	vcvtsi2sd	%eax, %xmm0, %xmm2
	vmulsd	%xmm2, %xmm1, %xmm1
	vcvtsi2sdl	CodedBasicUnit, %xmm0, %xmm2
	vdivsd	%xmm2, %xmm1, %xmm1
	vaddsd	%xmm0, %xmm1, %xmm0
	vcvttsd2si	%xmm0, %eax
	movl	%eax, PAveHeaderBits1
	cmpl	$0, PAveHeaderBits3
	jne	.LBB21_10
# %bb.9:                                # %if.then25
	movl	PAveHeaderBits1, %eax
	movl	%eax, PAveHeaderBits2
	jmp	.LBB21_11
.LBB21_10:                              # %if.else26
	vmovsd	.LCPI21_1(%rip), %xmm0  # xmm0 = mem[0],zero
	vmovsd	.LCPI21_2(%rip), %xmm1  # xmm1 = mem[0],zero
	movl	PAveHeaderBits1, %eax
	imull	CodedBasicUnit, %eax
	movl	PAveHeaderBits3, %ecx
	imull	NumberofBasicUnit, %ecx
	addl	%ecx, %eax
	vcvtsi2sd	%eax, %xmm0, %xmm2
	vmulsd	%xmm2, %xmm1, %xmm1
	vcvtsi2sdl	TotalNumberofBasicUnit, %xmm0, %xmm2
	vdivsd	%xmm2, %xmm1, %xmm1
	vaddsd	%xmm0, %xmm1, %xmm0
	vcvttsd2si	%xmm0, %eax
	movl	%eax, PAveHeaderBits2
.LBB21_11:                              # %if.end36
	jmp	.LBB21_12
.LBB21_12:                              # %if.end37
	movq	input, %rax
	cmpl	$2, 2880(%rax)
	je	.LBB21_14
# %bb.13:                               # %lor.lhs.false
	movq	input, %rax
	cmpl	$0, 2884(%rax)
	je	.LBB21_16
.LBB21_14:                              # %land.lhs.true42
	movq	img, %rax
	cmpl	$1, 72600(%rax)
	jne	.LBB21_16
# %bb.15:                               # %if.then46
	vmovsd	CurrentFrameMAD, %xmm0  # xmm0 = mem[0],zero
	movq	FCBUCFMAD, %rax
	movl	TotalNumberofBasicUnit, %ecx
	subl	$1, %ecx
	subl	NumberofBasicUnit, %ecx
	movslq	%ecx, %rcx
	vmovsd	%xmm0, (%rax,%rcx,8)
	jmp	.LBB21_17
.LBB21_16:                              # %if.else49
	vmovsd	CurrentFrameMAD, %xmm0  # xmm0 = mem[0],zero
	movq	BUCFMAD, %rax
	movl	TotalNumberofBasicUnit, %ecx
	subl	$1, %ecx
	subl	NumberofBasicUnit, %ecx
	movslq	%ecx, %rcx
	vmovsd	%xmm0, (%rax,%rcx,8)
.LBB21_17:                              # %if.end54
	cmpl	$0, NumberofBasicUnit
	je	.LBB21_19
# %bb.18:                               # %if.then57
	movq	img, %rax
	movl	72564(%rax), %eax
	imull	TotalNumberofBasicUnit, %eax
	addl	CodedBasicUnit, %eax
	movl	%eax, -12(%rbp)
	jmp	.LBB21_20
.LBB21_19:                              # %if.else61
	movq	img, %rax
	movl	72564(%rax), %eax
	subl	$1, %eax
	imull	TotalNumberofBasicUnit, %eax
	addl	CodedBasicUnit, %eax
	movl	%eax, -12(%rbp)
.LBB21_20:                              # %if.end66
	jmp	.LBB21_21
.LBB21_21:                              # %if.end67
	cmpl	$1, -12(%rbp)
	jle	.LBB21_23
# %bb.22:                               # %if.then70
	movl	$1, -16(%rbp)
.LBB21_23:                              # %if.end71
	movq	img, %rax
	movl	72524(%rax), %eax
	movl	%eax, PPreHeader
	movl	$19, -4(%rbp)
.LBB21_24:                              # %for.cond
                                        # =>This Inner Loop Header: Depth=1
	cmpl	$0, -4(%rbp)
	jle	.LBB21_27
# %bb.25:                               # %for.body
                                        #   in Loop: Header=BB21_24 Depth=1
	movl	-4(%rbp), %eax
	subl	$1, %eax
	cltq
	vmovsd	Pm_rgQp(,%rax,8), %xmm0 # xmm0 = mem[0],zero
	movslq	-4(%rbp), %rax
	vmovsd	%xmm0, Pm_rgQp(,%rax,8)
	movslq	-4(%rbp), %rax
	vmovsd	Pm_rgQp(,%rax,8), %xmm0 # xmm0 = mem[0],zero
	movslq	-4(%rbp), %rax
	vmovsd	%xmm0, m_rgQp(,%rax,8)
	movl	-4(%rbp), %eax
	subl	$1, %eax
	cltq
	vmovsd	Pm_rgRp(,%rax,8), %xmm0 # xmm0 = mem[0],zero
	movslq	-4(%rbp), %rax
	vmovsd	%xmm0, Pm_rgRp(,%rax,8)
	movslq	-4(%rbp), %rax
	vmovsd	Pm_rgRp(,%rax,8), %xmm0 # xmm0 = mem[0],zero
	movslq	-4(%rbp), %rax
	vmovsd	%xmm0, m_rgRp(,%rax,8)
# %bb.26:                               # %for.inc
                                        #   in Loop: Header=BB21_24 Depth=1
	movl	-4(%rbp), %eax
	addl	$-1, %eax
	movl	%eax, -4(%rbp)
	jmp	.LBB21_24
.LBB21_27:                              # %for.end
	movl	m_Qc, %edi
	callq	QP2Qstep
	vmovsd	%xmm0, Pm_rgQp
	movq	img, %rax
	movl	72620(%rax), %eax
	movq	img, %rcx
	cmpl	72608(%rcx), %eax
	jne	.LBB21_29
# %bb.28:                               # %if.then97
	vmovsd	.LCPI21_2(%rip), %xmm0  # xmm0 = mem[0],zero
	movq	img, %rax
	vcvtsi2sdl	72528(%rax), %xmm0, %xmm1
	vmulsd	%xmm0, %xmm1, %xmm0
	vdivsd	CurrentFrameMAD, %xmm0, %xmm0
	vmovsd	%xmm0, Pm_rgRp
	jmp	.LBB21_30
.LBB21_29:                              # %if.else101
	vmovsd	.LCPI21_2(%rip), %xmm0  # xmm0 = mem[0],zero
	movq	img, %rax
	vcvtsi2sdl	72536(%rax), %xmm0, %xmm1
	vmulsd	%xmm0, %xmm1, %xmm0
	vdivsd	CurrentFrameMAD, %xmm0, %xmm0
	vmovsd	%xmm0, Pm_rgRp
.LBB21_30:                              # %if.end105
	vmovsd	Pm_rgQp, %xmm0          # xmm0 = mem[0],zero
	vmovsd	%xmm0, m_rgQp
	vmovsd	Pm_rgRp, %xmm0          # xmm0 = mem[0],zero
	vmovsd	%xmm0, m_rgRp
	vmovsd	Pm_X1, %xmm0            # xmm0 = mem[0],zero
	vmovsd	%xmm0, m_X1
	vmovsd	Pm_X2, %xmm0            # xmm0 = mem[0],zero
	vmovsd	%xmm0, m_X2
	vmovsd	CurrentFrameMAD, %xmm0  # xmm0 = mem[0],zero
	vucomisd	PreviousFrameMAD, %xmm0
	jbe	.LBB21_32
# %bb.31:                               # %cond.true
	vmovsd	.LCPI21_3(%rip), %xmm0  # xmm0 = mem[0],zero
	vmovsd	PreviousFrameMAD, %xmm1 # xmm1 = mem[0],zero
	vdivsd	CurrentFrameMAD, %xmm1, %xmm1
	vmulsd	%xmm0, %xmm1, %xmm0
	vcvttsd2si	%xmm0, %eax
	jmp	.LBB21_33
.LBB21_32:                              # %cond.false
	vmovsd	.LCPI21_3(%rip), %xmm0  # xmm0 = mem[0],zero
	vmovsd	CurrentFrameMAD, %xmm1  # xmm1 = mem[0],zero
	vdivsd	PreviousFrameMAD, %xmm1, %xmm1
	vmulsd	%xmm0, %xmm1, %xmm0
	vcvttsd2si	%xmm0, %eax
.LBB21_33:                              # %cond.end
	movl	%eax, -8(%rbp)
	cmpl	$1, -8(%rbp)
	jge	.LBB21_35
# %bb.34:                               # %cond.true116
	movl	$1, %eax
	jmp	.LBB21_36
.LBB21_35:                              # %cond.false117
	movl	-8(%rbp), %eax
.LBB21_36:                              # %cond.end118
	movl	%eax, -8(%rbp)
	movl	-8(%rbp), %eax
	cmpl	-12(%rbp), %eax
	jge	.LBB21_38
# %bb.37:                               # %cond.true122
	movl	-8(%rbp), %eax
	jmp	.LBB21_39
.LBB21_38:                              # %cond.false123
	movl	-12(%rbp), %eax
.LBB21_39:                              # %cond.end124
	movl	%eax, -8(%rbp)
	movl	-8(%rbp), %eax
	movl	m_windowSize, %ecx
	addl	$1, %ecx
	cmpl	%ecx, %eax
	jge	.LBB21_41
# %bb.40:                               # %cond.true129
	movl	-8(%rbp), %eax
	jmp	.LBB21_42
.LBB21_41:                              # %cond.false130
	movl	m_windowSize, %eax
	addl	$1, %eax
.LBB21_42:                              # %cond.end132
	movl	%eax, -8(%rbp)
	cmpl	$20, -8(%rbp)
	jge	.LBB21_44
# %bb.43:                               # %cond.true136
	movl	-8(%rbp), %eax
	jmp	.LBB21_45
.LBB21_44:                              # %cond.false137
	movl	$20, %eax
	jmp	.LBB21_45
.LBB21_45:                              # %cond.end138
	movl	%eax, -8(%rbp)
	movl	-8(%rbp), %eax
	movl	%eax, m_windowSize
	movl	$0, -4(%rbp)
.LBB21_46:                              # %for.cond140
                                        # =>This Inner Loop Header: Depth=1
	cmpl	$20, -4(%rbp)
	jge	.LBB21_49
# %bb.47:                               # %for.body143
                                        #   in Loop: Header=BB21_46 Depth=1
	movslq	-4(%rbp), %rax
	movl	$0, m_rgRejected(,%rax,4)
# %bb.48:                               # %for.inc146
                                        #   in Loop: Header=BB21_46 Depth=1
	movl	-4(%rbp), %eax
	addl	$1, %eax
	movl	%eax, -4(%rbp)
	jmp	.LBB21_46
.LBB21_49:                              # %for.end147
	movl	-8(%rbp), %edi
	callq	RCModelEstimator
	movl	m_windowSize, %eax
	movl	%eax, -8(%rbp)
	movl	$0, -4(%rbp)
.LBB21_50:                              # %for.cond148
                                        # =>This Inner Loop Header: Depth=1
	movl	-4(%rbp), %eax
	cmpl	-8(%rbp), %eax
	jge	.LBB21_53
# %bb.51:                               # %for.body151
                                        #   in Loop: Header=BB21_50 Depth=1
	vmovsd	m_X1, %xmm0             # xmm0 = mem[0],zero
	movslq	-4(%rbp), %rax
	vdivsd	m_rgQp(,%rax,8), %xmm0, %xmm0
	vmovsd	m_X2, %xmm1             # xmm1 = mem[0],zero
	movslq	-4(%rbp), %rax
	vmovsd	m_rgQp(,%rax,8), %xmm2  # xmm2 = mem[0],zero
	movslq	-4(%rbp), %rax
	vmulsd	m_rgQp(,%rax,8), %xmm2, %xmm2
	vdivsd	%xmm2, %xmm1, %xmm1
	vaddsd	%xmm1, %xmm0, %xmm0
	movslq	-4(%rbp), %rax
	vsubsd	m_rgRp(,%rax,8), %xmm0, %xmm0
	movslq	-4(%rbp), %rax
	vmovsd	%xmm0, -208(%rbp,%rax,8)
	movslq	-4(%rbp), %rax
	vmovsd	-208(%rbp,%rax,8), %xmm0 # xmm0 = mem[0],zero
	movslq	-4(%rbp), %rax
	vmulsd	-208(%rbp,%rax,8), %xmm0, %xmm0
	vaddsd	-24(%rbp), %xmm0, %xmm0
	vmovsd	%xmm0, -24(%rbp)
# %bb.52:                               # %for.inc173
                                        #   in Loop: Header=BB21_50 Depth=1
	movl	-4(%rbp), %eax
	addl	$1, %eax
	movl	%eax, -4(%rbp)
	jmp	.LBB21_50
.LBB21_53:                              # %for.end175
	cmpl	$2, -8(%rbp)
	jne	.LBB21_55
# %bb.54:                               # %cond.true178
	vxorps	%xmm0, %xmm0, %xmm0
	jmp	.LBB21_56
.LBB21_55:                              # %cond.false179
	vmovsd	-24(%rbp), %xmm0        # xmm0 = mem[0],zero
	vcvtsi2sdl	-8(%rbp), %xmm0, %xmm1
	vdivsd	%xmm1, %xmm0, %xmm0
	callq	sqrt
.LBB21_56:                              # %cond.end183
	vmovsd	%xmm0, -40(%rbp)
	movl	$0, -4(%rbp)
.LBB21_57:                              # %for.cond185
                                        # =>This Inner Loop Header: Depth=1
	movl	-4(%rbp), %eax
	cmpl	-8(%rbp), %eax
	jge	.LBB21_62
# %bb.58:                               # %for.body188
                                        #   in Loop: Header=BB21_57 Depth=1
	movslq	-4(%rbp), %rax
	vmovsd	-208(%rbp,%rax,8), %xmm0 # xmm0 = mem[0],zero
	vmovdqa	.LCPI21_4(%rip), %xmm1  # xmm1 = [NaN,NaN]
	vpand	%xmm1, %xmm0, %xmm0
	vucomisd	-40(%rbp), %xmm0
	jbe	.LBB21_60
# %bb.59:                               # %if.then193
                                        #   in Loop: Header=BB21_57 Depth=1
	movslq	-4(%rbp), %rax
	movl	$1, m_rgRejected(,%rax,4)
.LBB21_60:                              # %if.end196
                                        #   in Loop: Header=BB21_57 Depth=1
	jmp	.LBB21_61
.LBB21_61:                              # %for.inc197
                                        #   in Loop: Header=BB21_57 Depth=1
	movl	-4(%rbp), %eax
	addl	$1, %eax
	movl	%eax, -4(%rbp)
	jmp	.LBB21_57
.LBB21_62:                              # %for.end199
	movl	$0, m_rgRejected
	movl	-8(%rbp), %edi
	callq	RCModelEstimator
	cmpl	$0, -16(%rbp)
	je	.LBB21_64
# %bb.63:                               # %if.then201
	callq	updateMADModel
	jmp	.LBB21_67
.LBB21_64:                              # %if.else202
	movq	img, %rax
	cmpl	$0, 24(%rax)
	jne	.LBB21_66
# %bb.65:                               # %if.then206
	vmovsd	CurrentFrameMAD, %xmm0  # xmm0 = mem[0],zero
	vmovsd	%xmm0, PPictureMAD
.LBB21_66:                              # %if.end207
	jmp	.LBB21_67
.LBB21_67:                              # %if.end208
	jmp	.LBB21_68
.LBB21_68:                              # %if.end209
	cmpl	$285797134, -28(%rbp)   # imm = 0x1108EB0E
	jne	.LBB21_70
.LBB21_69:
	addq	$208, %rsp
	popq	%rbp
	.cfi_def_cfa %rsp, 8
	retq
.LBB21_70:                              # %func_exit
	.cfi_def_cfa %rbp, 16
	callq	detect_breach
	jmp	.LBB21_69
.Lfunc_end21:
	.size	updateRCModel.5, .Lfunc_end21-updateRCModel.5
	.cfi_endproc
                                        # -- End function
	.globl	ComputeFrameMAD.6       # -- Begin function ComputeFrameMAD.6
	.p2align	4, 0x90
	.type	ComputeFrameMAD.6,@function
ComputeFrameMAD.6:                      # @ComputeFrameMAD.6
	.cfi_startproc
# %bb.0:                                # %entry
	pushq	%rbp
	.cfi_def_cfa_offset 16
	.cfi_offset %rbp, -16
	movq	%rsp, %rbp
	.cfi_def_cfa_register %rbp
	subq	$32, %rsp
	movl	$330324666, -20(%rbp)   # imm = 0x13B05ABA
	vxorps	%xmm0, %xmm0, %xmm0
	vmovsd	%xmm0, -16(%rbp)
	movl	$0, -4(%rbp)
.LBB22_1:                               # %for.cond
                                        # =>This Inner Loop Header: Depth=1
	movl	-4(%rbp), %eax
	movq	img, %rcx
	cmpl	72608(%rcx), %eax
	jge	.LBB22_4
# %bb.2:                                # %for.body
                                        #   in Loop: Header=BB22_1 Depth=1
	movq	img, %rax
	movq	72584(%rax), %rax
	movslq	-4(%rbp), %rcx
	vmovsd	(%rax,%rcx,8), %xmm0    # xmm0 = mem[0],zero
	vaddsd	-16(%rbp), %xmm0, %xmm0
	vmovsd	%xmm0, -16(%rbp)
# %bb.3:                                # %for.inc
                                        #   in Loop: Header=BB22_1 Depth=1
	movl	-4(%rbp), %eax
	addl	$1, %eax
	movl	%eax, -4(%rbp)
	jmp	.LBB22_1
.LBB22_4:                               # %for.end
	movq	img, %rax
	vcvtsi2sdl	72608(%rax), %xmm0, %xmm0
	vmovsd	-16(%rbp), %xmm1        # xmm1 = mem[0],zero
	vdivsd	%xmm0, %xmm1, %xmm0
	vmovsd	%xmm0, -16(%rbp)
	vmovsd	-16(%rbp), %xmm0        # xmm0 = mem[0],zero
	cmpl	$330324666, -20(%rbp)   # imm = 0x13B05ABA
	jne	.LBB22_6
.LBB22_5:
	addq	$32, %rsp
	popq	%rbp
	.cfi_def_cfa %rsp, 8
	retq
.LBB22_6:                               # %func_exit
	.cfi_def_cfa %rbp, 16
	vmovsd	%xmm0, -32(%rbp)        # 8-byte Spill
	callq	detect_breach
	vmovsd	-32(%rbp), %xmm0        # 8-byte Reload
                                        # xmm0 = mem[0],zero
	jmp	.LBB22_5
.Lfunc_end22:
	.size	ComputeFrameMAD.6, .Lfunc_end22-ComputeFrameMAD.6
	.cfi_endproc
                                        # -- End function
	.section	.rodata.cst8,"aM",@progbits,8
	.p2align	3               # -- Begin function updateQuantizationParameter.7
.LCPI23_0:
	.quad	4616189618054758400     # double 4
.LCPI23_1:
	.quad	4611686018427387904     # double 2
.LCPI23_2:
	.quad	4602678819172646912     # double 0.5
.LCPI23_3:
	.quad	4607182418800017408     # double 1
	.text
	.globl	updateQuantizationParameter.7
	.p2align	4, 0x90
	.type	updateQuantizationParameter.7,@function
updateQuantizationParameter.7:          # @updateQuantizationParameter.7
	.cfi_startproc
# %bb.0:                                # %entry
	pushq	%rbp
	.cfi_def_cfa_offset 16
	.cfi_offset %rbp, -16
	movq	%rsp, %rbp
	.cfi_def_cfa_register %rbp
	pushq	%rbx
	subq	$72, %rsp
	.cfi_offset %rbx, -24
	movl	$1147680002, -56(%rbp)  # imm = 0x44683502
	movl	%edi, -36(%rbp)
	movq	img, %rax
	movl	72620(%rax), %eax
	movq	img, %rcx
	cmpl	72608(%rcx), %eax
	jne	.LBB23_123
# %bb.1:                                # %if.then
	cmpl	$0, -36(%rbp)
	jne	.LBB23_3
# %bb.2:                                # %lor.lhs.false
	movq	img, %rax
	cmpl	$0, 72600(%rax)
	jne	.LBB23_116
.LBB23_3:                               # %if.then2
	movq	img, %rax
	cmpl	$2, 24(%rax)
	jne	.LBB23_5
# %bb.4:                                # %if.then4
	movl	MyInitialQp, %eax
	movl	%eax, m_Qc
	movl	m_Qc, %eax
	movl	%eax, -20(%rbp)
	jmp	.LBB23_363
.LBB23_5:                               # %if.else
	movq	img, %rax
	cmpl	$1, 24(%rax)
	jne	.LBB23_69
# %bb.6:                                # %if.then7
	movq	input, %rax
	cmpl	$1, 1236(%rax)
	jne	.LBB23_25
# %bb.7:                                # %if.then9
	movq	input, %rax
	cmpl	$2, 2880(%rax)
	je	.LBB23_9
# %bb.8:                                # %lor.lhs.false11
	movq	input, %rax
	cmpl	$0, 2884(%rax)
	je	.LBB23_15
.LBB23_9:                               # %if.then13
	movq	img, %rax
	cmpl	$0, 72600(%rax)
	jne	.LBB23_14
# %bb.10:                               # %if.then16
	movq	img, %rax
	cmpl	$1, 72604(%rax)
	jne	.LBB23_12
# %bb.11:                               # %if.then18
	movl	PreviousQp2, %eax
	movl	%eax, PreviousQp1
	movl	FrameQPBuffer, %eax
	movl	%eax, PreviousQp2
	jmp	.LBB23_13
.LBB23_12:                              # %if.else19
	movl	PreviousQp2, %eax
	movl	%eax, PreviousQp1
	movl	FieldQPBuffer, %eax
	movl	%eax, PreviousQp2
.LBB23_13:                              # %if.end
	jmp	.LBB23_14
.LBB23_14:                              # %if.end20
	jmp	.LBB23_15
.LBB23_15:                              # %if.end21
	movl	PreviousQp1, %eax
	cmpl	PreviousQp2, %eax
	jne	.LBB23_17
# %bb.16:                               # %if.then23
	movl	PreviousQp1, %eax
	addl	$2, %eax
	movl	%eax, m_Qc
	jmp	.LBB23_18
.LBB23_17:                              # %if.else24
	movl	PreviousQp1, %eax
	addl	PreviousQp2, %eax
	cltd
	movl	$2, %ecx
	idivl	%ecx
	addl	$1, %eax
	movl	%eax, m_Qc
.LBB23_18:                              # %if.end27
	movl	m_Qc, %eax
	cmpl	RC_MAX_QUANT, %eax
	jge	.LBB23_20
# %bb.19:                               # %cond.true
	movl	m_Qc, %eax
	jmp	.LBB23_21
.LBB23_20:                              # %cond.false
	movl	RC_MAX_QUANT, %eax
.LBB23_21:                              # %cond.end
	movl	%eax, m_Qc
	movl	RC_MIN_QUANT, %eax
	cmpl	m_Qc, %eax
	jge	.LBB23_23
# %bb.22:                               # %cond.true30
	movl	m_Qc, %eax
	jmp	.LBB23_24
.LBB23_23:                              # %cond.false31
	movl	RC_MIN_QUANT, %eax
.LBB23_24:                              # %cond.end32
	movl	%eax, m_Qc
	jmp	.LBB23_68
.LBB23_25:                              # %if.else34
	movl	NumberofBFrames, %eax
	addl	$1, %eax
	movq	input, %rcx
	cltd
	idivl	1236(%rcx)
	movl	%edx, -12(%rbp)
	cmpl	$0, -12(%rbp)
	jne	.LBB23_27
# %bb.26:                               # %if.then38
	movq	input, %rax
	movl	1236(%rax), %eax
	movl	%eax, -12(%rbp)
.LBB23_27:                              # %if.end40
	cmpl	$1, -12(%rbp)
	jne	.LBB23_37
# %bb.28:                               # %if.then42
	movq	input, %rax
	cmpl	$2, 2880(%rax)
	je	.LBB23_30
# %bb.29:                               # %lor.lhs.false45
	movq	input, %rax
	cmpl	$0, 2884(%rax)
	je	.LBB23_36
.LBB23_30:                              # %if.then48
	movq	img, %rax
	cmpl	$0, 72600(%rax)
	jne	.LBB23_35
# %bb.31:                               # %if.then51
	movq	img, %rax
	cmpl	$1, 72604(%rax)
	jne	.LBB23_33
# %bb.32:                               # %if.then54
	movl	PreviousQp2, %eax
	movl	%eax, PreviousQp1
	movl	FrameQPBuffer, %eax
	movl	%eax, PreviousQp2
	jmp	.LBB23_34
.LBB23_33:                              # %if.else55
	movl	PreviousQp2, %eax
	movl	%eax, PreviousQp1
	movl	FieldQPBuffer, %eax
	movl	%eax, PreviousQp2
.LBB23_34:                              # %if.end56
	jmp	.LBB23_35
.LBB23_35:                              # %if.end57
	jmp	.LBB23_36
.LBB23_36:                              # %if.end58
	jmp	.LBB23_37
.LBB23_37:                              # %if.end59
	movl	PreviousQp2, %eax
	subl	PreviousQp1, %eax
	movq	input, %rcx
	imull	$4294967294, 1236(%rcx), %ecx # imm = 0xFFFFFFFE
	subl	$3, %ecx
	cmpl	%ecx, %eax
	jg	.LBB23_39
# %bb.38:                               # %if.then63
	movl	$-3, -28(%rbp)
	jmp	.LBB23_52
.LBB23_39:                              # %if.else64
	movl	PreviousQp2, %eax
	subl	PreviousQp1, %eax
	movq	input, %rcx
	imull	$4294967294, 1236(%rcx), %ecx # imm = 0xFFFFFFFE
	subl	$2, %ecx
	cmpl	%ecx, %eax
	jne	.LBB23_41
# %bb.40:                               # %if.then70
	movl	$-2, -28(%rbp)
	jmp	.LBB23_51
.LBB23_41:                              # %if.else71
	movl	PreviousQp2, %eax
	subl	PreviousQp1, %eax
	movq	input, %rcx
	imull	$4294967294, 1236(%rcx), %ecx # imm = 0xFFFFFFFE
	subl	$1, %ecx
	cmpl	%ecx, %eax
	jne	.LBB23_43
# %bb.42:                               # %if.then77
	movl	$-1, -28(%rbp)
	jmp	.LBB23_50
.LBB23_43:                              # %if.else78
	movl	PreviousQp2, %eax
	subl	PreviousQp1, %eax
	movq	input, %rcx
	imull	$4294967294, 1236(%rcx), %ecx # imm = 0xFFFFFFFE
	cmpl	%ecx, %eax
	jne	.LBB23_45
# %bb.44:                               # %if.then83
	movl	$0, -28(%rbp)
	jmp	.LBB23_49
.LBB23_45:                              # %if.else84
	movl	PreviousQp2, %eax
	subl	PreviousQp1, %eax
	movq	input, %rcx
	imull	$4294967294, 1236(%rcx), %ecx # imm = 0xFFFFFFFE
	addl	$1, %ecx
	cmpl	%ecx, %eax
	jne	.LBB23_47
# %bb.46:                               # %if.then90
	movl	$1, -28(%rbp)
	jmp	.LBB23_48
.LBB23_47:                              # %if.else91
	movl	$2, -28(%rbp)
.LBB23_48:                              # %if.end92
	jmp	.LBB23_49
.LBB23_49:                              # %if.end93
	jmp	.LBB23_50
.LBB23_50:                              # %if.end94
	jmp	.LBB23_51
.LBB23_51:                              # %if.end95
	jmp	.LBB23_52
.LBB23_52:                              # %if.end96
	movl	PreviousQp1, %eax
	addl	-28(%rbp), %eax
	movl	%eax, m_Qc
	movl	-12(%rbp), %ecx
	subl	$1, %ecx
	shll	$1, %ecx
	movl	-12(%rbp), %eax
	subl	$1, %eax
	imull	$4294967294, %eax, %esi # imm = 0xFFFFFFFE
	movl	-12(%rbp), %eax
	subl	$1, %eax
	movl	PreviousQp2, %edx
	subl	PreviousQp1, %edx
	imull	%edx, %eax
	movq	input, %rdx
	movl	1236(%rdx), %edi
	subl	$1, %edi
	cltd
	idivl	%edi
	cmpl	%eax, %esi
	jge	.LBB23_54
# %bb.53:                               # %cond.true109
	movl	-12(%rbp), %eax
	subl	$1, %eax
	movl	PreviousQp2, %edx
	subl	PreviousQp1, %edx
	imull	%edx, %eax
	movq	input, %rdx
	movl	1236(%rdx), %esi
	subl	$1, %esi
	cltd
	idivl	%esi
	jmp	.LBB23_55
.LBB23_54:                              # %cond.false116
	movl	-12(%rbp), %eax
	subl	$1, %eax
	imull	$4294967294, %eax, %eax # imm = 0xFFFFFFFE
.LBB23_55:                              # %cond.end119
	cmpl	%eax, %ecx
	jge	.LBB23_57
# %bb.56:                               # %cond.true122
	movl	-12(%rbp), %eax
	subl	$1, %eax
	shll	$1, %eax
	jmp	.LBB23_61
.LBB23_57:                              # %cond.false125
	movl	-12(%rbp), %eax
	subl	$1, %eax
	imull	$4294967294, %eax, %ecx # imm = 0xFFFFFFFE
	movl	-12(%rbp), %eax
	subl	$1, %eax
	movl	PreviousQp2, %edx
	subl	PreviousQp1, %edx
	imull	%edx, %eax
	movq	input, %rdx
	movl	1236(%rdx), %esi
	subl	$1, %esi
	cltd
	idivl	%esi
	cmpl	%eax, %ecx
	jge	.LBB23_59
# %bb.58:                               # %cond.true135
	movl	-12(%rbp), %eax
	subl	$1, %eax
	movl	PreviousQp2, %ecx
	subl	PreviousQp1, %ecx
	imull	%ecx, %eax
	movq	input, %rcx
	movl	1236(%rcx), %ecx
	subl	$1, %ecx
	cltd
	idivl	%ecx
	jmp	.LBB23_60
.LBB23_59:                              # %cond.false142
	movl	-12(%rbp), %eax
	subl	$1, %eax
	imull	$4294967294, %eax, %eax # imm = 0xFFFFFFFE
.LBB23_60:                              # %cond.end145
.LBB23_61:                              # %cond.end147
	addl	m_Qc, %eax
	movl	%eax, m_Qc
	movl	m_Qc, %eax
	cmpl	RC_MAX_QUANT, %eax
	jge	.LBB23_63
# %bb.62:                               # %cond.true151
	movl	m_Qc, %eax
	jmp	.LBB23_64
.LBB23_63:                              # %cond.false152
	movl	RC_MAX_QUANT, %eax
.LBB23_64:                              # %cond.end153
	movl	%eax, m_Qc
	movl	RC_MIN_QUANT, %eax
	cmpl	m_Qc, %eax
	jge	.LBB23_66
# %bb.65:                               # %cond.true156
	movl	m_Qc, %eax
	jmp	.LBB23_67
.LBB23_66:                              # %cond.false157
	movl	RC_MIN_QUANT, %eax
.LBB23_67:                              # %cond.end158
	movl	%eax, m_Qc
.LBB23_68:                              # %if.end160
	movl	m_Qc, %eax
	movl	%eax, -20(%rbp)
	jmp	.LBB23_363
.LBB23_69:                              # %if.else161
	movq	img, %rax
	cmpl	$0, 24(%rax)
	jne	.LBB23_77
# %bb.70:                               # %land.lhs.true
	movq	img, %rax
	cmpl	$0, 72576(%rax)
	jne	.LBB23_77
# %bb.71:                               # %if.then165
	movl	MyInitialQp, %eax
	movl	%eax, m_Qc
	movq	img, %rax
	cmpl	$0, 72600(%rax)
	jne	.LBB23_76
# %bb.72:                               # %if.then168
	movq	active_sps, %rax
	cmpl	$0, 1148(%rax)
	je	.LBB23_74
# %bb.73:                               # %if.then170
	movl	m_Qc, %eax
	movq	img, %rcx
	addl	72572(%rcx), %eax
	movl	%eax, 72572(%rcx)
	movl	PreviousQp2, %eax
	movl	%eax, PreviousQp1
	movl	m_Qc, %eax
	movl	%eax, PreviousQp2
	movl	m_Qc, %eax
	movl	%eax, Pm_Qp
	jmp	.LBB23_75
.LBB23_74:                              # %if.else172
	movl	m_Qc, %eax
	movl	%eax, FrameQPBuffer
.LBB23_75:                              # %if.end173
	jmp	.LBB23_76
.LBB23_76:                              # %if.end174
	movl	m_Qc, %eax
	movl	%eax, -20(%rbp)
	jmp	.LBB23_363
.LBB23_77:                              # %if.else175
	movq	input, %rax
	cmpl	$2, 2880(%rax)
	je	.LBB23_79
# %bb.78:                               # %lor.lhs.false178
	movq	input, %rax
	cmpl	$0, 2884(%rax)
	je	.LBB23_84
.LBB23_79:                              # %land.lhs.true181
	movq	img, %rax
	cmpl	$0, 72600(%rax)
	jne	.LBB23_84
# %bb.80:                               # %if.then184
	movq	img, %rax
	cmpl	$1, 72604(%rax)
	jne	.LBB23_82
# %bb.81:                               # %if.then187
	movl	FrameQPBuffer, %eax
	movq	img, %rcx
	addl	72572(%rcx), %eax
	movl	%eax, 72572(%rcx)
	movl	FrameQPBuffer, %eax
	movl	%eax, Pm_Qp
	jmp	.LBB23_83
.LBB23_82:                              # %if.else190
	movl	FieldQPBuffer, %eax
	movq	img, %rcx
	addl	72572(%rcx), %eax
	movl	%eax, 72572(%rcx)
	movl	FieldQPBuffer, %eax
	movl	%eax, Pm_Qp
.LBB23_83:                              # %if.end193
	jmp	.LBB23_84
.LBB23_84:                              # %if.end194
	vmovsd	Pm_X1, %xmm0            # xmm0 = mem[0],zero
	vmovsd	%xmm0, m_X1
	vmovsd	Pm_X2, %xmm0            # xmm0 = mem[0],zero
	vmovsd	%xmm0, m_X2
	movl	PPreHeader, %eax
	movl	%eax, m_Hp
	movl	Pm_Qp, %eax
	movl	%eax, m_Qp
	movl	PDuantQp, %eax
	movl	%eax, DuantQp
	vmovsd	PMADPictureC1, %xmm0    # xmm0 = mem[0],zero
	vmovsd	%xmm0, MADPictureC1
	vmovsd	PMADPictureC2, %xmm0    # xmm0 = mem[0],zero
	vmovsd	%xmm0, MADPictureC2
	vmovsd	PPictureMAD, %xmm0      # xmm0 = mem[0],zero
	vmovsd	%xmm0, PreviousPictureMAD
	vmovsd	MADPictureC1, %xmm0     # xmm0 = mem[0],zero
	vmulsd	PreviousPictureMAD, %xmm0, %xmm0
	vaddsd	MADPictureC2, %xmm0, %xmm0
	vmovsd	%xmm0, CurrentFrameMAD
	cmpq	$0, T
	jge	.LBB23_89
# %bb.85:                               # %if.then198
	movl	m_Qp, %eax
	addl	DuantQp, %eax
	movl	%eax, m_Qc
	movl	m_Qc, %eax
	cmpl	RC_MAX_QUANT, %eax
	jge	.LBB23_87
# %bb.86:                               # %cond.true201
	movl	m_Qc, %eax
	jmp	.LBB23_88
.LBB23_87:                              # %cond.false202
	movl	RC_MAX_QUANT, %eax
.LBB23_88:                              # %cond.end203
	movl	%eax, m_Qc
	jmp	.LBB23_110
.LBB23_89:                              # %if.else205
	movq	T, %rax
	movslq	m_Hp, %rcx
	subq	%rcx, %rax
	movl	%eax, -24(%rbp)
	movl	-24(%rbp), %eax
	vmovsd	bit_rate, %xmm0         # xmm0 = mem[0],zero
	vmovsd	MINVALUE, %xmm1         # xmm1 = mem[0],zero
	vmulsd	frame_rate, %xmm1, %xmm1
	vdivsd	%xmm1, %xmm0, %xmm0
	vcvttsd2si	%xmm0, %ecx
	cmpl	%ecx, %eax
	jge	.LBB23_91
# %bb.90:                               # %cond.true213
	vmovsd	bit_rate, %xmm0         # xmm0 = mem[0],zero
	vmovsd	MINVALUE, %xmm1         # xmm1 = mem[0],zero
	vmulsd	frame_rate, %xmm1, %xmm1
	vdivsd	%xmm1, %xmm0, %xmm0
	vcvttsd2si	%xmm0, %eax
	jmp	.LBB23_92
.LBB23_91:                              # %cond.false217
	movl	-24(%rbp), %eax
.LBB23_92:                              # %cond.end218
	vmovsd	.LCPI23_0(%rip), %xmm0  # xmm0 = mem[0],zero
	movl	%eax, -24(%rbp)
	vmovsd	CurrentFrameMAD, %xmm1  # xmm1 = mem[0],zero
	vmulsd	m_X1, %xmm1, %xmm1
	vmulsd	CurrentFrameMAD, %xmm1, %xmm1
	vmulsd	m_X1, %xmm1, %xmm1
	vmulsd	m_X2, %xmm0, %xmm0
	vmulsd	CurrentFrameMAD, %xmm0, %xmm0
	vcvtsi2sdl	-24(%rbp), %xmm0, %xmm2
	vmulsd	%xmm2, %xmm0, %xmm0
	vaddsd	%xmm0, %xmm1, %xmm0
	vmovsd	%xmm0, -48(%rbp)
	vmovsd	m_X2, %xmm0             # xmm0 = mem[0],zero
	vxorps	%xmm1, %xmm1, %xmm1
	vucomisd	%xmm1, %xmm0
	jne	.LBB23_93
	jp	.LBB23_93
	jmp	.LBB23_95
.LBB23_93:                              # %lor.lhs.false230
	vxorps	%xmm0, %xmm0, %xmm0
	vucomisd	-48(%rbp), %xmm0
	ja	.LBB23_95
# %bb.94:                               # %lor.lhs.false233
	vmovsd	-48(%rbp), %xmm0        # xmm0 = mem[0],zero
	callq	sqrt
	vmovsd	m_X1, %xmm1             # xmm1 = mem[0],zero
	vmulsd	CurrentFrameMAD, %xmm1, %xmm1
	vsubsd	%xmm1, %xmm0, %xmm0
	vxorps	%xmm1, %xmm1, %xmm1
	vucomisd	%xmm0, %xmm1
	jb	.LBB23_96
.LBB23_95:                              # %if.then238
	vmovsd	m_X1, %xmm0             # xmm0 = mem[0],zero
	vmulsd	CurrentFrameMAD, %xmm0, %xmm0
	vcvtsi2sdl	-24(%rbp), %xmm0, %xmm1
	vdivsd	%xmm1, %xmm0, %xmm0
	vcvtsd2ss	%xmm0, %xmm0, %xmm0
	vcvtss2sd	%xmm0, %xmm0, %xmm0
	vmovsd	%xmm0, m_Qstep
	jmp	.LBB23_97
.LBB23_96:                              # %if.else244
	vmovsd	.LCPI23_1(%rip), %xmm0  # xmm0 = mem[0],zero
	vmulsd	m_X2, %xmm0, %xmm0
	vmulsd	CurrentFrameMAD, %xmm0, %xmm0
	vmovsd	%xmm0, -64(%rbp)        # 8-byte Spill
	vmovsd	-48(%rbp), %xmm0        # xmm0 = mem[0],zero
	callq	sqrt
	vmovsd	m_X1, %xmm1             # xmm1 = mem[0],zero
	vmulsd	CurrentFrameMAD, %xmm1, %xmm1
	vsubsd	%xmm1, %xmm0, %xmm0
	vmovsd	-64(%rbp), %xmm1        # 8-byte Reload
                                        # xmm1 = mem[0],zero
	vdivsd	%xmm0, %xmm1, %xmm0
	vcvtsd2ss	%xmm0, %xmm0, %xmm0
	vcvtss2sd	%xmm0, %xmm0, %xmm0
	vmovsd	%xmm0, m_Qstep
.LBB23_97:                              # %if.end253
	vmovsd	m_Qstep, %xmm0          # xmm0 = mem[0],zero
	callq	Qstep2QP
	movl	%eax, m_Qc
	movl	m_Qp, %eax
	addl	DuantQp, %eax
	cmpl	m_Qc, %eax
	jge	.LBB23_99
# %bb.98:                               # %cond.true258
	movl	m_Qp, %eax
	addl	DuantQp, %eax
	jmp	.LBB23_100
.LBB23_99:                              # %cond.false260
	movl	m_Qc, %eax
.LBB23_100:                             # %cond.end261
	movl	%eax, m_Qc
	movl	m_Qc, %eax
	cmpl	RC_MAX_QUANT, %eax
	jge	.LBB23_102
# %bb.101:                              # %cond.true265
	movl	m_Qc, %eax
	jmp	.LBB23_103
.LBB23_102:                             # %cond.false266
	movl	RC_MAX_QUANT, %eax
.LBB23_103:                             # %cond.end267
	movl	%eax, m_Qc
	movl	m_Qp, %eax
	subl	DuantQp, %eax
	cmpl	m_Qc, %eax
	jge	.LBB23_105
# %bb.104:                              # %cond.true272
	movl	m_Qc, %eax
	jmp	.LBB23_106
.LBB23_105:                             # %cond.false273
	movl	m_Qp, %eax
	subl	DuantQp, %eax
.LBB23_106:                             # %cond.end275
	movl	%eax, m_Qc
	movl	RC_MIN_QUANT, %eax
	cmpl	m_Qc, %eax
	jge	.LBB23_108
# %bb.107:                              # %cond.true279
	movl	m_Qc, %eax
	jmp	.LBB23_109
.LBB23_108:                             # %cond.false280
	movl	RC_MIN_QUANT, %eax
.LBB23_109:                             # %cond.end281
	movl	%eax, m_Qc
.LBB23_110:                             # %if.end283
	movq	img, %rax
	cmpl	$0, 72600(%rax)
	jne	.LBB23_115
# %bb.111:                              # %if.then287
	movq	active_sps, %rax
	cmpl	$0, 1148(%rax)
	je	.LBB23_113
# %bb.112:                              # %if.then290
	movl	m_Qc, %eax
	movq	img, %rcx
	addl	72572(%rcx), %eax
	movl	%eax, 72572(%rcx)
	movl	PreviousQp2, %eax
	movl	%eax, PreviousQp1
	movl	m_Qc, %eax
	movl	%eax, PreviousQp2
	movl	m_Qc, %eax
	movl	%eax, Pm_Qp
	jmp	.LBB23_114
.LBB23_113:                             # %if.else293
	movl	m_Qc, %eax
	movl	%eax, FrameQPBuffer
.LBB23_114:                             # %if.end294
	jmp	.LBB23_115
.LBB23_115:                             # %if.end295
	movl	m_Qc, %eax
	movl	%eax, -20(%rbp)
	jmp	.LBB23_363
.LBB23_116:                             # %if.else296
	movq	img, %rax
	cmpl	$0, 24(%rax)
	jne	.LBB23_122
# %bb.117:                              # %land.lhs.true300
	movq	img, %rax
	cmpl	$0, 72612(%rax)
	jne	.LBB23_122
# %bb.118:                              # %if.then303
	movq	input, %rax
	cmpl	$1, 2880(%rax)
	jne	.LBB23_120
# %bb.119:                              # %if.then307
	movl	m_Qc, %eax
	movq	img, %rcx
	addl	72572(%rcx), %eax
	movl	%eax, 72572(%rcx)
	movl	PreviousQp2, %eax
	addl	$1, %eax
	movl	%eax, PreviousQp1
	movl	m_Qc, %eax
	movl	%eax, PreviousQp2
	movl	m_Qc, %eax
	movl	%eax, Pm_Qp
	jmp	.LBB23_121
.LBB23_120:                             # %if.else311
	movl	m_Qc, %eax
	movl	%eax, FieldQPBuffer
.LBB23_121:                             # %if.end312
	jmp	.LBB23_122
.LBB23_122:                             # %if.end313
	movl	m_Qc, %eax
	movl	%eax, -20(%rbp)
	jmp	.LBB23_363
.LBB23_123:                             # %if.else314
	movq	img, %rax
	cmpl	$2, 24(%rax)
	jne	.LBB23_125
# %bb.124:                              # %if.then318
	movl	MyInitialQp, %eax
	movl	%eax, m_Qc
	movl	m_Qc, %eax
	movl	%eax, -20(%rbp)
	jmp	.LBB23_363
.LBB23_125:                             # %if.else319
	movq	img, %rax
	cmpl	$0, 24(%rax)
	jne	.LBB23_129
# %bb.126:                              # %land.lhs.true323
	movq	img, %rax
	cmpl	$1, 72612(%rax)
	jne	.LBB23_129
# %bb.127:                              # %land.lhs.true327
	movq	img, %rax
	cmpl	$1, 72600(%rax)
	jne	.LBB23_129
# %bb.128:                              # %if.then331
	movl	MyInitialQp, %eax
	movl	%eax, m_Qc
	movl	m_Qc, %eax
	movl	%eax, -20(%rbp)
	jmp	.LBB23_363
.LBB23_129:                             # %if.else332
	movq	img, %rax
	cmpl	$1, 24(%rax)
	jne	.LBB23_196
# %bb.130:                              # %if.then336
	cmpl	$0, -36(%rbp)
	jne	.LBB23_132
# %bb.131:                              # %lor.lhs.false338
	movq	img, %rax
	cmpl	$0, 72600(%rax)
	jne	.LBB23_195
.LBB23_132:                             # %if.then342
	movq	input, %rax
	cmpl	$1, 1236(%rax)
	jne	.LBB23_151
# %bb.133:                              # %if.then346
	movq	input, %rax
	cmpl	$2, 2880(%rax)
	je	.LBB23_135
# %bb.134:                              # %lor.lhs.false350
	movq	input, %rax
	cmpl	$0, 2884(%rax)
	je	.LBB23_141
.LBB23_135:                             # %if.then353
	movq	img, %rax
	cmpl	$0, 72600(%rax)
	jne	.LBB23_140
# %bb.136:                              # %if.then357
	movq	img, %rax
	cmpl	$1, 72604(%rax)
	jne	.LBB23_138
# %bb.137:                              # %if.then361
	movl	PreviousQp2, %eax
	movl	%eax, PreviousQp1
	movl	FrameQPBuffer, %eax
	movl	%eax, PreviousQp2
	jmp	.LBB23_139
.LBB23_138:                             # %if.else362
	movl	PreviousQp2, %eax
	movl	%eax, PreviousQp1
	movl	FieldQPBuffer, %eax
	movl	%eax, PreviousQp2
.LBB23_139:                             # %if.end363
	jmp	.LBB23_140
.LBB23_140:                             # %if.end364
	jmp	.LBB23_141
.LBB23_141:                             # %if.end365
	movl	PreviousQp1, %eax
	cmpl	PreviousQp2, %eax
	jne	.LBB23_143
# %bb.142:                              # %if.then368
	movl	PreviousQp1, %eax
	addl	$2, %eax
	movl	%eax, m_Qc
	jmp	.LBB23_144
.LBB23_143:                             # %if.else370
	movl	PreviousQp1, %eax
	addl	PreviousQp2, %eax
	cltd
	movl	$2, %ecx
	idivl	%ecx
	addl	$1, %eax
	movl	%eax, m_Qc
.LBB23_144:                             # %if.end374
	movl	m_Qc, %eax
	cmpl	RC_MAX_QUANT, %eax
	jge	.LBB23_146
# %bb.145:                              # %cond.true377
	movl	m_Qc, %eax
	jmp	.LBB23_147
.LBB23_146:                             # %cond.false378
	movl	RC_MAX_QUANT, %eax
.LBB23_147:                             # %cond.end379
	movl	%eax, m_Qc
	movl	RC_MIN_QUANT, %eax
	cmpl	m_Qc, %eax
	jge	.LBB23_149
# %bb.148:                              # %cond.true383
	movl	m_Qc, %eax
	jmp	.LBB23_150
.LBB23_149:                             # %cond.false384
	movl	RC_MIN_QUANT, %eax
.LBB23_150:                             # %cond.end385
	movl	%eax, m_Qc
	jmp	.LBB23_194
.LBB23_151:                             # %if.else387
	movl	NumberofBFrames, %eax
	addl	$1, %eax
	movq	input, %rcx
	cltd
	idivl	1236(%rcx)
	movl	%edx, -12(%rbp)
	cmpl	$0, -12(%rbp)
	jne	.LBB23_153
# %bb.152:                              # %if.then393
	movq	input, %rax
	movl	1236(%rax), %eax
	movl	%eax, -12(%rbp)
.LBB23_153:                             # %if.end395
	cmpl	$1, -12(%rbp)
	jne	.LBB23_163
# %bb.154:                              # %if.then398
	movq	input, %rax
	cmpl	$2, 2880(%rax)
	je	.LBB23_156
# %bb.155:                              # %lor.lhs.false402
	movq	input, %rax
	cmpl	$0, 2884(%rax)
	je	.LBB23_162
.LBB23_156:                             # %if.then405
	movq	img, %rax
	cmpl	$0, 72600(%rax)
	jne	.LBB23_161
# %bb.157:                              # %if.then409
	movq	img, %rax
	cmpl	$1, 72604(%rax)
	jne	.LBB23_159
# %bb.158:                              # %if.then413
	movl	PreviousQp2, %eax
	movl	%eax, PreviousQp1
	movl	FrameQPBuffer, %eax
	movl	%eax, PreviousQp2
	jmp	.LBB23_160
.LBB23_159:                             # %if.else414
	movl	PreviousQp2, %eax
	movl	%eax, PreviousQp1
	movl	FieldQPBuffer, %eax
	movl	%eax, PreviousQp2
.LBB23_160:                             # %if.end415
	jmp	.LBB23_161
.LBB23_161:                             # %if.end416
	jmp	.LBB23_162
.LBB23_162:                             # %if.end417
	jmp	.LBB23_163
.LBB23_163:                             # %if.end418
	movl	PreviousQp2, %eax
	subl	PreviousQp1, %eax
	movq	input, %rcx
	imull	$4294967294, 1236(%rcx), %ecx # imm = 0xFFFFFFFE
	subl	$3, %ecx
	cmpl	%ecx, %eax
	jg	.LBB23_165
# %bb.164:                              # %if.then425
	movl	$-3, -28(%rbp)
	jmp	.LBB23_178
.LBB23_165:                             # %if.else426
	movl	PreviousQp2, %eax
	subl	PreviousQp1, %eax
	movq	input, %rcx
	imull	$4294967294, 1236(%rcx), %ecx # imm = 0xFFFFFFFE
	subl	$2, %ecx
	cmpl	%ecx, %eax
	jne	.LBB23_167
# %bb.166:                              # %if.then433
	movl	$-2, -28(%rbp)
	jmp	.LBB23_177
.LBB23_167:                             # %if.else434
	movl	PreviousQp2, %eax
	subl	PreviousQp1, %eax
	movq	input, %rcx
	imull	$4294967294, 1236(%rcx), %ecx # imm = 0xFFFFFFFE
	subl	$1, %ecx
	cmpl	%ecx, %eax
	jne	.LBB23_169
# %bb.168:                              # %if.then441
	movl	$-1, -28(%rbp)
	jmp	.LBB23_176
.LBB23_169:                             # %if.else442
	movl	PreviousQp2, %eax
	subl	PreviousQp1, %eax
	movq	input, %rcx
	imull	$4294967294, 1236(%rcx), %ecx # imm = 0xFFFFFFFE
	cmpl	%ecx, %eax
	jne	.LBB23_171
# %bb.170:                              # %if.then448
	movl	$0, -28(%rbp)
	jmp	.LBB23_175
.LBB23_171:                             # %if.else449
	movl	PreviousQp2, %eax
	subl	PreviousQp1, %eax
	movq	input, %rcx
	imull	$4294967294, 1236(%rcx), %ecx # imm = 0xFFFFFFFE
	addl	$1, %ecx
	cmpl	%ecx, %eax
	jne	.LBB23_173
# %bb.172:                              # %if.then456
	movl	$1, -28(%rbp)
	jmp	.LBB23_174
.LBB23_173:                             # %if.else457
	movl	$2, -28(%rbp)
.LBB23_174:                             # %if.end458
	jmp	.LBB23_175
.LBB23_175:                             # %if.end459
	jmp	.LBB23_176
.LBB23_176:                             # %if.end460
	jmp	.LBB23_177
.LBB23_177:                             # %if.end461
	jmp	.LBB23_178
.LBB23_178:                             # %if.end462
	movl	PreviousQp1, %eax
	addl	-28(%rbp), %eax
	movl	%eax, m_Qc
	movl	-12(%rbp), %ecx
	subl	$1, %ecx
	shll	$1, %ecx
	movl	-12(%rbp), %eax
	subl	$1, %eax
	imull	$4294967294, %eax, %esi # imm = 0xFFFFFFFE
	movl	-12(%rbp), %eax
	subl	$1, %eax
	movl	PreviousQp2, %edx
	subl	PreviousQp1, %edx
	imull	%edx, %eax
	movq	input, %rdx
	movl	1236(%rdx), %edi
	subl	$1, %edi
	cltd
	idivl	%edi
	cmpl	%eax, %esi
	jge	.LBB23_180
# %bb.179:                              # %cond.true476
	movl	-12(%rbp), %eax
	subl	$1, %eax
	movl	PreviousQp2, %edx
	subl	PreviousQp1, %edx
	imull	%edx, %eax
	movq	input, %rdx
	movl	1236(%rdx), %esi
	subl	$1, %esi
	cltd
	idivl	%esi
	jmp	.LBB23_181
.LBB23_180:                             # %cond.false483
	movl	-12(%rbp), %eax
	subl	$1, %eax
	imull	$4294967294, %eax, %eax # imm = 0xFFFFFFFE
.LBB23_181:                             # %cond.end486
	cmpl	%eax, %ecx
	jge	.LBB23_183
# %bb.182:                              # %cond.true490
	movl	-12(%rbp), %eax
	subl	$1, %eax
	shll	$1, %eax
	jmp	.LBB23_187
.LBB23_183:                             # %cond.false493
	movl	-12(%rbp), %eax
	subl	$1, %eax
	imull	$4294967294, %eax, %ecx # imm = 0xFFFFFFFE
	movl	-12(%rbp), %eax
	subl	$1, %eax
	movl	PreviousQp2, %edx
	subl	PreviousQp1, %edx
	imull	%edx, %eax
	movq	input, %rdx
	movl	1236(%rdx), %esi
	subl	$1, %esi
	cltd
	idivl	%esi
	cmpl	%eax, %ecx
	jge	.LBB23_185
# %bb.184:                              # %cond.true504
	movl	-12(%rbp), %eax
	subl	$1, %eax
	movl	PreviousQp2, %ecx
	subl	PreviousQp1, %ecx
	imull	%ecx, %eax
	movq	input, %rcx
	movl	1236(%rcx), %ecx
	subl	$1, %ecx
	cltd
	idivl	%ecx
	jmp	.LBB23_186
.LBB23_185:                             # %cond.false511
	movl	-12(%rbp), %eax
	subl	$1, %eax
	imull	$4294967294, %eax, %eax # imm = 0xFFFFFFFE
.LBB23_186:                             # %cond.end514
.LBB23_187:                             # %cond.end516
	addl	m_Qc, %eax
	movl	%eax, m_Qc
	movl	m_Qc, %eax
	cmpl	RC_MAX_QUANT, %eax
	jge	.LBB23_189
# %bb.188:                              # %cond.true521
	movl	m_Qc, %eax
	jmp	.LBB23_190
.LBB23_189:                             # %cond.false522
	movl	RC_MAX_QUANT, %eax
.LBB23_190:                             # %cond.end523
	movl	%eax, m_Qc
	movl	RC_MIN_QUANT, %eax
	cmpl	m_Qc, %eax
	jge	.LBB23_192
# %bb.191:                              # %cond.true527
	movl	m_Qc, %eax
	jmp	.LBB23_193
.LBB23_192:                             # %cond.false528
	movl	RC_MIN_QUANT, %eax
.LBB23_193:                             # %cond.end529
	movl	%eax, m_Qc
.LBB23_194:                             # %if.end531
	movl	m_Qc, %eax
	movl	%eax, -20(%rbp)
	jmp	.LBB23_363
.LBB23_195:                             # %if.else532
	movl	m_Qc, %eax
	movl	%eax, -20(%rbp)
	jmp	.LBB23_363
.LBB23_196:                             # %if.else533
	movq	img, %rax
	cmpl	$0, 24(%rax)
	jne	.LBB23_358
# %bb.197:                              # %if.then537
	movq	img, %rax
	cmpl	$1, 72568(%rax)
	jne	.LBB23_217
# %bb.198:                              # %land.lhs.true540
	movq	img, %rax
	cmpl	$0, 72576(%rax)
	jne	.LBB23_217
# %bb.199:                              # %if.then544
	movq	img, %rax
	cmpl	$0, 72600(%rax)
	je	.LBB23_202
# %bb.200:                              # %lor.lhs.false548
	movq	img, %rax
	cmpl	$1, 72600(%rax)
	jne	.LBB23_216
# %bb.201:                              # %land.lhs.true552
	movq	img, %rax
	cmpl	$0, 72612(%rax)
	jne	.LBB23_216
.LBB23_202:                             # %if.then556
	movl	MyInitialQp, %eax
	movl	%eax, m_Qc
	movq	img, %rax
	movl	$0, 72532(%rax)
	movq	img, %rax
	movl	$0, 72536(%rax)
	movl	NumberofBasicUnit, %eax
	addl	$-1, %eax
	movl	%eax, NumberofBasicUnit
	cmpl	$0, -36(%rbp)
	jne	.LBB23_215
# %bb.203:                              # %land.lhs.true558
	cmpl	$0, NumberofBasicUnit
	jne	.LBB23_215
# %bb.204:                              # %if.then561
	movq	active_sps, %rax
	cmpl	$0, 1148(%rax)
	jne	.LBB23_206
# %bb.205:                              # %lor.lhs.false564
	movq	input, %rax
	cmpl	$1, 2880(%rax)
	jne	.LBB23_207
.LBB23_206:                             # %if.then568
	movl	m_Qc, %eax
	movq	img, %rcx
	addl	72572(%rcx), %eax
	movl	%eax, 72572(%rcx)
	movl	PreviousQp2, %eax
	movl	%eax, PreviousQp1
	movl	m_Qc, %eax
	movl	%eax, PreviousQp2
	movl	m_Qc, %eax
	movl	%eax, PAveFrameQP
	movl	PAveHeaderBits2, %eax
	movl	%eax, PAveHeaderBits3
	jmp	.LBB23_214
.LBB23_207:                             # %if.else571
	movq	input, %rax
	cmpl	$2, 2880(%rax)
	je	.LBB23_209
# %bb.208:                              # %lor.lhs.false575
	movq	input, %rax
	cmpl	$0, 2884(%rax)
	je	.LBB23_213
.LBB23_209:                             # %if.then578
	movq	img, %rax
	cmpl	$0, 72600(%rax)
	jne	.LBB23_211
# %bb.210:                              # %if.then582
	movl	m_Qc, %eax
	movl	%eax, FrameQPBuffer
	movl	PAveHeaderBits2, %eax
	movl	%eax, FrameAveHeaderBits
	jmp	.LBB23_212
.LBB23_211:                             # %if.else583
	movl	m_Qc, %eax
	movl	%eax, FieldQPBuffer
	movl	PAveHeaderBits2, %eax
	movl	%eax, FieldAveHeaderBits
.LBB23_212:                             # %if.end584
	jmp	.LBB23_213
.LBB23_213:                             # %if.end585
	jmp	.LBB23_214
.LBB23_214:                             # %if.end586
	jmp	.LBB23_215
.LBB23_215:                             # %if.end587
	movl	m_Qc, %eax
	movl	%eax, Pm_Qp
	movl	m_Qc, %eax
	addl	TotalFrameQP, %eax
	movl	%eax, TotalFrameQP
	movl	m_Qc, %eax
	movl	%eax, -20(%rbp)
	jmp	.LBB23_363
.LBB23_216:                             # %if.end589
	jmp	.LBB23_357
.LBB23_217:                             # %if.else590
	vmovsd	Pm_X1, %xmm0            # xmm0 = mem[0],zero
	vmovsd	%xmm0, m_X1
	vmovsd	Pm_X2, %xmm0            # xmm0 = mem[0],zero
	vmovsd	%xmm0, m_X2
	movl	PPreHeader, %eax
	movl	%eax, m_Hp
	movl	Pm_Qp, %eax
	movl	%eax, m_Qp
	movl	PDuantQp, %eax
	movl	%eax, DuantQp
	vmovsd	PMADPictureC1, %xmm0    # xmm0 = mem[0],zero
	vmovsd	%xmm0, MADPictureC1
	vmovsd	PMADPictureC2, %xmm0    # xmm0 = mem[0],zero
	vmovsd	%xmm0, MADPictureC2
	movq	img, %rax
	cmpl	$0, 72600(%rax)
	jne	.LBB23_219
# %bb.218:                              # %if.then594
	movl	TotalNumberofBasicUnit, %eax
	movl	%eax, -52(%rbp)
	jmp	.LBB23_220
.LBB23_219:                             # %if.else595
	movl	TotalNumberofBasicUnit, %eax
	cltd
	movl	$2, %ecx
	idivl	%ecx
	movl	%eax, -52(%rbp)
.LBB23_220:                             # %if.end597
	movl	NumberofBasicUnit, %eax
	cmpl	-52(%rbp), %eax
	jne	.LBB23_241
# %bb.221:                              # %if.then600
	movq	input, %rax
	cmpl	$2, 2880(%rax)
	je	.LBB23_223
# %bb.222:                              # %lor.lhs.false604
	movq	input, %rax
	cmpl	$0, 2884(%rax)
	je	.LBB23_232
.LBB23_223:                             # %land.lhs.true607
	movq	img, %rax
	cmpl	$0, 72600(%rax)
	jne	.LBB23_232
# %bb.224:                              # %if.then611
	movq	img, %rax
	cmpl	$1, 72604(%rax)
	jne	.LBB23_228
# %bb.225:                              # %if.then615
	movq	img, %rax
	cmpl	$0, 72576(%rax)
	jle	.LBB23_227
# %bb.226:                              # %if.then619
	movl	FrameQPBuffer, %eax
	movq	img, %rcx
	addl	72572(%rcx), %eax
	movl	%eax, 72572(%rcx)
.LBB23_227:                             # %if.end622
	movl	FrameQPBuffer, %eax
	movl	%eax, PAveFrameQP
	movl	FrameAveHeaderBits, %eax
	movl	%eax, PAveHeaderBits3
	jmp	.LBB23_231
.LBB23_228:                             # %if.else623
	movq	img, %rax
	cmpl	$0, 72576(%rax)
	jle	.LBB23_230
# %bb.229:                              # %if.then627
	movl	FieldQPBuffer, %eax
	movq	img, %rcx
	addl	72572(%rcx), %eax
	movl	%eax, 72572(%rcx)
.LBB23_230:                             # %if.end630
	movl	FieldQPBuffer, %eax
	movl	%eax, PAveFrameQP
	movl	FieldAveHeaderBits, %eax
	movl	%eax, PAveHeaderBits3
.LBB23_231:                             # %if.end631
	jmp	.LBB23_232
.LBB23_232:                             # %if.end632
	cmpq	$0, T
	jg	.LBB23_239
# %bb.233:                              # %if.then635
	movl	PAveFrameQP, %eax
	addl	$2, %eax
	movl	%eax, m_Qc
	movl	m_Qc, %eax
	cmpl	RC_MAX_QUANT, %eax
	jle	.LBB23_235
# %bb.234:                              # %if.then639
	movl	RC_MAX_QUANT, %eax
	movl	%eax, m_Qc
.LBB23_235:                             # %if.end640
	cmpl	$0, -36(%rbp)
	jne	.LBB23_237
# %bb.236:                              # %lor.lhs.false642
	movq	img, %rax
	cmpl	$0, 72600(%rax)
	jne	.LBB23_238
.LBB23_237:                             # %if.then646
	movl	$1, GOPOverdue
.LBB23_238:                             # %if.end647
	jmp	.LBB23_240
.LBB23_239:                             # %if.else648
	movl	PAveFrameQP, %eax
	movl	%eax, m_Qc
.LBB23_240:                             # %if.end649
	movl	m_Qc, %eax
	addl	TotalFrameQP, %eax
	movl	%eax, TotalFrameQP
	movl	NumberofBasicUnit, %eax
	addl	$-1, %eax
	movl	%eax, NumberofBasicUnit
	movl	PAveFrameQP, %eax
	movl	%eax, Pm_Qp
	movl	m_Qc, %eax
	movl	%eax, -20(%rbp)
	jmp	.LBB23_363
.LBB23_241:                             # %if.else652
	movq	img, %rax
	movl	72532(%rax), %eax
	movq	img, %rcx
	addl	72536(%rcx), %eax
	movl	%eax, TotalBasicUnitBits
	movslq	TotalBasicUnitBits, %rax
	movq	T, %rcx
	subq	%rax, %rcx
	movq	%rcx, T
	movq	img, %rax
	movl	$0, 72532(%rax)
	movq	img, %rax
	movl	$0, 72536(%rax)
	cmpq	$0, T
	jge	.LBB23_287
# %bb.242:                              # %if.then662
	cmpl	$1, GOPOverdue
	jne	.LBB23_244
# %bb.243:                              # %if.then665
	movl	m_Qp, %eax
	addl	$2, %eax
	movl	%eax, m_Qc
	jmp	.LBB23_245
.LBB23_244:                             # %if.else667
	movl	m_Qp, %eax
	addl	DDquant, %eax
	movl	%eax, m_Qc
.LBB23_245:                             # %if.end669
	movl	m_Qc, %eax
	cmpl	RC_MAX_QUANT, %eax
	jge	.LBB23_247
# %bb.246:                              # %cond.true672
	movl	m_Qc, %eax
	jmp	.LBB23_248
.LBB23_247:                             # %cond.false673
	movl	RC_MAX_QUANT, %eax
.LBB23_248:                             # %cond.end674
	movl	%eax, m_Qc
	movq	input, %rax
	movl	3248(%rax), %eax
	cmpl	MBPerRow, %eax
	jl	.LBB23_253
# %bb.249:                              # %if.then678
	movl	m_Qc, %eax
	movl	PAveFrameQP, %ecx
	addl	$6, %ecx
	cmpl	%ecx, %eax
	jge	.LBB23_251
# %bb.250:                              # %cond.true682
	movl	m_Qc, %eax
	jmp	.LBB23_252
.LBB23_251:                             # %cond.false683
	movl	PAveFrameQP, %eax
	addl	$6, %eax
.LBB23_252:                             # %cond.end685
	movl	%eax, m_Qc
	jmp	.LBB23_257
.LBB23_253:                             # %if.else687
	movl	m_Qc, %eax
	movl	PAveFrameQP, %ecx
	addl	$3, %ecx
	cmpl	%ecx, %eax
	jge	.LBB23_255
# %bb.254:                              # %cond.true691
	movl	m_Qc, %eax
	jmp	.LBB23_256
.LBB23_255:                             # %cond.false692
	movl	PAveFrameQP, %eax
	addl	$3, %eax
.LBB23_256:                             # %cond.end694
	movl	%eax, m_Qc
.LBB23_257:                             # %if.end696
	movl	m_Qc, %eax
	addl	TotalFrameQP, %eax
	movl	%eax, TotalFrameQP
	movl	NumberofBasicUnit, %eax
	addl	$-1, %eax
	movl	%eax, NumberofBasicUnit
	cmpl	$0, NumberofBasicUnit
	jne	.LBB23_283
# %bb.258:                              # %if.then701
	cmpl	$0, -36(%rbp)
	je	.LBB23_260
# %bb.259:                              # %lor.lhs.false703
	movq	img, %rax
	cmpl	$0, 72600(%rax)
	jne	.LBB23_282
.LBB23_260:                             # %if.then707
	movq	active_sps, %rax
	cmpl	$0, 1148(%rax)
	jne	.LBB23_262
# %bb.261:                              # %lor.lhs.false710
	movq	input, %rax
	cmpl	$1, 2880(%rax)
	jne	.LBB23_274
.LBB23_262:                             # %if.then714
	vmovsd	.LCPI23_2(%rip), %xmm0  # xmm0 = mem[0],zero
	vmovsd	.LCPI23_3(%rip), %xmm1  # xmm1 = mem[0],zero
	vcvtsi2sdl	TotalFrameQP, %xmm0, %xmm2
	vmulsd	%xmm2, %xmm1, %xmm1
	vcvtsi2sdl	TotalNumberofBasicUnit, %xmm0, %xmm2
	vdivsd	%xmm2, %xmm1, %xmm1
	vaddsd	%xmm0, %xmm1, %xmm0
	vcvttsd2si	%xmm0, %eax
	movl	%eax, -16(%rbp)
	movq	img, %rax
	movl	72576(%rax), %eax
	movq	input, %rcx
	movl	1224(%rcx), %ecx
	subl	$2, %ecx
	cmpl	%ecx, %eax
	jne	.LBB23_264
# %bb.263:                              # %if.then725
	movl	-16(%rbp), %eax
	movl	%eax, QPLastPFrame
.LBB23_264:                             # %if.end726
	movl	-16(%rbp), %eax
	movq	img, %rcx
	addl	72572(%rcx), %eax
	movl	%eax, 72572(%rcx)
	cmpl	$1, GOPOverdue
	jne	.LBB23_266
# %bb.265:                              # %if.then731
	movl	PreviousQp2, %eax
	addl	$1, %eax
	movl	%eax, PreviousQp1
	movl	-16(%rbp), %eax
	movl	%eax, PreviousQp2
	jmp	.LBB23_273
.LBB23_266:                             # %if.else733
	movq	img, %rax
	cmpl	$0, 72576(%rax)
	jne	.LBB23_269
# %bb.267:                              # %land.lhs.true737
	movq	img, %rax
	cmpl	$1, 72568(%rax)
	jle	.LBB23_269
# %bb.268:                              # %if.then741
	movl	PreviousQp2, %eax
	movl	%eax, PreviousQp1
	movl	-16(%rbp), %eax
	movl	%eax, PreviousQp2
	jmp	.LBB23_272
.LBB23_269:                             # %if.else742
	movq	img, %rax
	cmpl	$0, 72576(%rax)
	jle	.LBB23_271
# %bb.270:                              # %if.then746
	movl	PreviousQp2, %eax
	addl	$1, %eax
	movl	%eax, PreviousQp1
	movl	-16(%rbp), %eax
	movl	%eax, PreviousQp2
.LBB23_271:                             # %if.end748
	jmp	.LBB23_272
.LBB23_272:                             # %if.end749
	jmp	.LBB23_273
.LBB23_273:                             # %if.end750
	movl	-16(%rbp), %eax
	movl	%eax, PAveFrameQP
	movl	PAveHeaderBits2, %eax
	movl	%eax, PAveHeaderBits3
	jmp	.LBB23_281
.LBB23_274:                             # %if.else751
	movq	input, %rax
	cmpl	$2, 2880(%rax)
	je	.LBB23_276
# %bb.275:                              # %lor.lhs.false755
	movq	input, %rax
	cmpl	$0, 2884(%rax)
	je	.LBB23_280
.LBB23_276:                             # %if.then758
	movq	img, %rax
	cmpl	$0, 72600(%rax)
	jne	.LBB23_278
# %bb.277:                              # %if.then762
	vmovsd	.LCPI23_2(%rip), %xmm0  # xmm0 = mem[0],zero
	vmovsd	.LCPI23_3(%rip), %xmm1  # xmm1 = mem[0],zero
	vcvtsi2sdl	TotalFrameQP, %xmm0, %xmm2
	vmulsd	%xmm2, %xmm1, %xmm1
	vcvtsi2sdl	TotalNumberofBasicUnit, %xmm0, %xmm2
	vdivsd	%xmm2, %xmm1, %xmm1
	vaddsd	%xmm0, %xmm1, %xmm0
	vcvttsd2si	%xmm0, %eax
	movl	%eax, -16(%rbp)
	movl	-16(%rbp), %eax
	movl	%eax, FrameQPBuffer
	movl	PAveHeaderBits2, %eax
	movl	%eax, FrameAveHeaderBits
	jmp	.LBB23_279
.LBB23_278:                             # %if.else769
	vmovsd	.LCPI23_2(%rip), %xmm0  # xmm0 = mem[0],zero
	vmovsd	.LCPI23_3(%rip), %xmm1  # xmm1 = mem[0],zero
	vcvtsi2sdl	TotalFrameQP, %xmm0, %xmm2
	vmulsd	%xmm2, %xmm1, %xmm1
	vcvtsi2sdl	TotalNumberofBasicUnit, %xmm0, %xmm2
	vdivsd	%xmm2, %xmm1, %xmm1
	vaddsd	%xmm0, %xmm1, %xmm0
	vcvttsd2si	%xmm0, %eax
	movl	%eax, -16(%rbp)
	movl	-16(%rbp), %eax
	movl	%eax, FieldQPBuffer
	movl	PAveHeaderBits2, %eax
	movl	%eax, FieldAveHeaderBits
.LBB23_279:                             # %if.end776
	jmp	.LBB23_280
.LBB23_280:                             # %if.end777
	jmp	.LBB23_281
.LBB23_281:                             # %if.end778
	jmp	.LBB23_282
.LBB23_282:                             # %if.end779
	jmp	.LBB23_283
.LBB23_283:                             # %if.end780
	cmpl	$1, GOPOverdue
	jne	.LBB23_285
# %bb.284:                              # %if.then783
	movl	PAveFrameQP, %eax
	movl	%eax, Pm_Qp
	jmp	.LBB23_286
.LBB23_285:                             # %if.else784
	movl	m_Qc, %eax
	movl	%eax, Pm_Qp
.LBB23_286:                             # %if.end785
	movl	m_Qc, %eax
	movl	%eax, -20(%rbp)
	jmp	.LBB23_363
.LBB23_287:                             # %if.else786
	movq	input, %rax
	cmpl	$2, 2880(%rax)
	je	.LBB23_289
# %bb.288:                              # %lor.lhs.false790
	movq	input, %rax
	cmpl	$0, 2884(%rax)
	je	.LBB23_295
.LBB23_289:                             # %land.lhs.true793
	movq	img, %rax
	cmpl	$1, 72600(%rax)
	jne	.LBB23_295
# %bb.290:                              # %if.then797
	vmovsd	MADPictureC1, %xmm0     # xmm0 = mem[0],zero
	movq	FCBUPFMAD, %rax
	movl	TotalNumberofBasicUnit, %ecx
	subl	NumberofBasicUnit, %ecx
	movslq	%ecx, %rcx
	vmulsd	(%rax,%rcx,8), %xmm0, %xmm0
	vaddsd	MADPictureC2, %xmm0, %xmm0
	vmovsd	%xmm0, CurrentFrameMAD
	vxorps	%xmm0, %xmm0, %xmm0
	vmovsd	%xmm0, TotalBUMAD
	movl	TotalNumberofBasicUnit, %eax
	subl	$1, %eax
	movl	%eax, -32(%rbp)
.LBB23_291:                             # %for.cond
                                        # =>This Inner Loop Header: Depth=1
	movl	-32(%rbp), %eax
	movl	TotalNumberofBasicUnit, %ecx
	subl	NumberofBasicUnit, %ecx
	cmpl	%ecx, %eax
	jl	.LBB23_294
# %bb.292:                              # %for.body
                                        #   in Loop: Header=BB23_291 Depth=1
	vmovsd	MADPictureC1, %xmm0     # xmm0 = mem[0],zero
	movq	FCBUPFMAD, %rax
	movslq	-32(%rbp), %rcx
	vmulsd	(%rax,%rcx,8), %xmm0, %xmm0
	vaddsd	MADPictureC2, %xmm0, %xmm0
	vmovsd	%xmm0, CurrentBUMAD
	vmovsd	CurrentBUMAD, %xmm0     # xmm0 = mem[0],zero
	vmulsd	CurrentBUMAD, %xmm0, %xmm0
	vaddsd	TotalBUMAD, %xmm0, %xmm0
	vmovsd	%xmm0, TotalBUMAD
# %bb.293:                              # %for.inc
                                        #   in Loop: Header=BB23_291 Depth=1
	movl	-32(%rbp), %eax
	addl	$-1, %eax
	movl	%eax, -32(%rbp)
	jmp	.LBB23_291
.LBB23_294:                             # %for.end
	jmp	.LBB23_300
.LBB23_295:                             # %if.else812
	vmovsd	MADPictureC1, %xmm0     # xmm0 = mem[0],zero
	movq	BUPFMAD, %rax
	movl	TotalNumberofBasicUnit, %ecx
	subl	NumberofBasicUnit, %ecx
	movslq	%ecx, %rcx
	vmulsd	(%rax,%rcx,8), %xmm0, %xmm0
	vaddsd	MADPictureC2, %xmm0, %xmm0
	vmovsd	%xmm0, CurrentFrameMAD
	vxorps	%xmm0, %xmm0, %xmm0
	vmovsd	%xmm0, TotalBUMAD
	movl	TotalNumberofBasicUnit, %eax
	subl	$1, %eax
	movl	%eax, -32(%rbp)
.LBB23_296:                             # %for.cond819
                                        # =>This Inner Loop Header: Depth=1
	movl	-32(%rbp), %eax
	movl	TotalNumberofBasicUnit, %ecx
	subl	NumberofBasicUnit, %ecx
	cmpl	%ecx, %eax
	jl	.LBB23_299
# %bb.297:                              # %for.body823
                                        #   in Loop: Header=BB23_296 Depth=1
	vmovsd	MADPictureC1, %xmm0     # xmm0 = mem[0],zero
	movq	BUPFMAD, %rax
	movslq	-32(%rbp), %rcx
	vmulsd	(%rax,%rcx,8), %xmm0, %xmm0
	vaddsd	MADPictureC2, %xmm0, %xmm0
	vmovsd	%xmm0, CurrentBUMAD
	vmovsd	CurrentBUMAD, %xmm0     # xmm0 = mem[0],zero
	vmulsd	CurrentBUMAD, %xmm0, %xmm0
	vaddsd	TotalBUMAD, %xmm0, %xmm0
	vmovsd	%xmm0, TotalBUMAD
# %bb.298:                              # %for.inc830
                                        #   in Loop: Header=BB23_296 Depth=1
	movl	-32(%rbp), %eax
	addl	$-1, %eax
	movl	%eax, -32(%rbp)
	jmp	.LBB23_296
.LBB23_299:                             # %for.end832
	jmp	.LBB23_300
.LBB23_300:                             # %if.end833
	vcvtsi2sdq	T, %xmm0, %xmm0
	vmulsd	CurrentFrameMAD, %xmm0, %xmm0
	vmulsd	CurrentFrameMAD, %xmm0, %xmm0
	vdivsd	TotalBUMAD, %xmm0, %xmm0
	vcvttsd2si	%xmm0, %eax
	movl	%eax, -24(%rbp)
	movl	PAveHeaderBits2, %eax
	movl	-24(%rbp), %ecx
	subl	%eax, %ecx
	movl	%ecx, -24(%rbp)
	movl	-24(%rbp), %eax
	vmovsd	bit_rate, %xmm0         # xmm0 = mem[0],zero
	vmovsd	MINVALUE, %xmm1         # xmm1 = mem[0],zero
	vmulsd	frame_rate, %xmm1, %xmm1
	vcvtsi2sdl	TotalNumberofBasicUnit, %xmm0, %xmm2
	vmulsd	%xmm2, %xmm1, %xmm1
	vdivsd	%xmm1, %xmm0, %xmm0
	vcvttsd2si	%xmm0, %ecx
	cmpl	%ecx, %eax
	jge	.LBB23_302
# %bb.301:                              # %cond.true847
	vmovsd	bit_rate, %xmm0         # xmm0 = mem[0],zero
	vmovsd	MINVALUE, %xmm1         # xmm1 = mem[0],zero
	vmulsd	frame_rate, %xmm1, %xmm1
	vcvtsi2sdl	TotalNumberofBasicUnit, %xmm0, %xmm2
	vmulsd	%xmm2, %xmm1, %xmm1
	vdivsd	%xmm1, %xmm0, %xmm0
	vcvttsd2si	%xmm0, %eax
	jmp	.LBB23_303
.LBB23_302:                             # %cond.false853
	movl	-24(%rbp), %eax
.LBB23_303:                             # %cond.end854
	vmovsd	.LCPI23_0(%rip), %xmm0  # xmm0 = mem[0],zero
	movl	%eax, -24(%rbp)
	vmovsd	CurrentFrameMAD, %xmm1  # xmm1 = mem[0],zero
	vmulsd	m_X1, %xmm1, %xmm1
	vmulsd	CurrentFrameMAD, %xmm1, %xmm1
	vmulsd	m_X1, %xmm1, %xmm1
	vmulsd	m_X2, %xmm0, %xmm0
	vmulsd	CurrentFrameMAD, %xmm0, %xmm0
	vcvtsi2sdl	-24(%rbp), %xmm0, %xmm2
	vmulsd	%xmm2, %xmm0, %xmm0
	vaddsd	%xmm0, %xmm1, %xmm0
	vmovsd	%xmm0, -48(%rbp)
	vmovsd	m_X2, %xmm0             # xmm0 = mem[0],zero
	vxorps	%xmm1, %xmm1, %xmm1
	vucomisd	%xmm1, %xmm0
	jne	.LBB23_304
	jp	.LBB23_304
	jmp	.LBB23_306
.LBB23_304:                             # %lor.lhs.false866
	vxorps	%xmm0, %xmm0, %xmm0
	vucomisd	-48(%rbp), %xmm0
	ja	.LBB23_306
# %bb.305:                              # %lor.lhs.false869
	vmovsd	-48(%rbp), %xmm0        # xmm0 = mem[0],zero
	callq	sqrt
	vmovsd	m_X1, %xmm1             # xmm1 = mem[0],zero
	vmulsd	CurrentFrameMAD, %xmm1, %xmm1
	vsubsd	%xmm1, %xmm0, %xmm0
	vxorps	%xmm1, %xmm1, %xmm1
	vucomisd	%xmm0, %xmm1
	jb	.LBB23_307
.LBB23_306:                             # %if.then875
	vmovsd	m_X1, %xmm0             # xmm0 = mem[0],zero
	vmulsd	CurrentFrameMAD, %xmm0, %xmm0
	vcvtsi2sdl	-24(%rbp), %xmm0, %xmm1
	vdivsd	%xmm1, %xmm0, %xmm0
	vcvtsd2ss	%xmm0, %xmm0, %xmm0
	vcvtss2sd	%xmm0, %xmm0, %xmm0
	vmovsd	%xmm0, m_Qstep
	jmp	.LBB23_308
.LBB23_307:                             # %if.else881
	vmovsd	.LCPI23_1(%rip), %xmm0  # xmm0 = mem[0],zero
	vmulsd	m_X2, %xmm0, %xmm0
	vmulsd	CurrentFrameMAD, %xmm0, %xmm0
	vmovsd	%xmm0, -72(%rbp)        # 8-byte Spill
	vmovsd	-48(%rbp), %xmm0        # xmm0 = mem[0],zero
	callq	sqrt
	vmovsd	m_X1, %xmm1             # xmm1 = mem[0],zero
	vmulsd	CurrentFrameMAD, %xmm1, %xmm1
	vsubsd	%xmm1, %xmm0, %xmm0
	vmovsd	-72(%rbp), %xmm1        # 8-byte Reload
                                        # xmm1 = mem[0],zero
	vdivsd	%xmm0, %xmm1, %xmm0
	vcvtsd2ss	%xmm0, %xmm0, %xmm0
	vcvtss2sd	%xmm0, %xmm0, %xmm0
	vmovsd	%xmm0, m_Qstep
.LBB23_308:                             # %if.end890
	vmovsd	m_Qstep, %xmm0          # xmm0 = mem[0],zero
	callq	Qstep2QP
	movl	%eax, m_Qc
	movl	m_Qp, %eax
	addl	DDquant, %eax
	cmpl	m_Qc, %eax
	jge	.LBB23_310
# %bb.309:                              # %cond.true895
	movl	m_Qp, %eax
	addl	DDquant, %eax
	jmp	.LBB23_311
.LBB23_310:                             # %cond.false897
	movl	m_Qc, %eax
.LBB23_311:                             # %cond.end898
	movl	%eax, m_Qc
	movq	input, %rax
	movl	3248(%rax), %eax
	cmpl	MBPerRow, %eax
	jl	.LBB23_316
# %bb.312:                              # %if.then903
	movl	PAveFrameQP, %eax
	addl	$6, %eax
	cmpl	m_Qc, %eax
	jge	.LBB23_314
# %bb.313:                              # %cond.true907
	movl	PAveFrameQP, %eax
	addl	$6, %eax
	jmp	.LBB23_315
.LBB23_314:                             # %cond.false909
	movl	m_Qc, %eax
.LBB23_315:                             # %cond.end910
	movl	%eax, m_Qc
	jmp	.LBB23_320
.LBB23_316:                             # %if.else912
	movl	PAveFrameQP, %eax
	addl	$3, %eax
	cmpl	m_Qc, %eax
	jge	.LBB23_318
# %bb.317:                              # %cond.true916
	movl	PAveFrameQP, %eax
	addl	$3, %eax
	jmp	.LBB23_319
.LBB23_318:                             # %cond.false918
	movl	m_Qc, %eax
.LBB23_319:                             # %cond.end919
	movl	%eax, m_Qc
.LBB23_320:                             # %if.end921
	movl	m_Qc, %eax
	cmpl	RC_MAX_QUANT, %eax
	jge	.LBB23_322
# %bb.321:                              # %cond.true924
	movl	m_Qc, %eax
	jmp	.LBB23_323
.LBB23_322:                             # %cond.false925
	movl	RC_MAX_QUANT, %eax
.LBB23_323:                             # %cond.end926
	movl	%eax, m_Qc
	movl	m_Qp, %eax
	subl	DDquant, %eax
	cmpl	m_Qc, %eax
	jge	.LBB23_325
# %bb.324:                              # %cond.true931
	movl	m_Qc, %eax
	jmp	.LBB23_326
.LBB23_325:                             # %cond.false932
	movl	m_Qp, %eax
	subl	DDquant, %eax
.LBB23_326:                             # %cond.end934
	movl	%eax, m_Qc
	movq	input, %rax
	movl	3248(%rax), %eax
	cmpl	MBPerRow, %eax
	jl	.LBB23_331
# %bb.327:                              # %if.then939
	movl	PAveFrameQP, %eax
	subl	$6, %eax
	cmpl	m_Qc, %eax
	jge	.LBB23_329
# %bb.328:                              # %cond.true943
	movl	m_Qc, %eax
	jmp	.LBB23_330
.LBB23_329:                             # %cond.false944
	movl	PAveFrameQP, %eax
	subl	$6, %eax
.LBB23_330:                             # %cond.end946
	movl	%eax, m_Qc
	jmp	.LBB23_335
.LBB23_331:                             # %if.else948
	movl	PAveFrameQP, %eax
	subl	$3, %eax
	cmpl	m_Qc, %eax
	jge	.LBB23_333
# %bb.332:                              # %cond.true952
	movl	m_Qc, %eax
	jmp	.LBB23_334
.LBB23_333:                             # %cond.false953
	movl	PAveFrameQP, %eax
	subl	$3, %eax
.LBB23_334:                             # %cond.end955
	movl	%eax, m_Qc
.LBB23_335:                             # %if.end957
	movl	RC_MIN_QUANT, %eax
	cmpl	m_Qc, %eax
	jge	.LBB23_337
# %bb.336:                              # %cond.true960
	movl	m_Qc, %eax
	jmp	.LBB23_338
.LBB23_337:                             # %cond.false961
	movl	RC_MIN_QUANT, %eax
.LBB23_338:                             # %cond.end962
	movl	%eax, m_Qc
	movl	m_Qc, %eax
	addl	TotalFrameQP, %eax
	movl	%eax, TotalFrameQP
	movl	m_Qc, %eax
	movl	%eax, Pm_Qp
	movl	NumberofBasicUnit, %eax
	addl	$-1, %eax
	movl	%eax, NumberofBasicUnit
	cmpl	$0, NumberofBasicUnit
	jne	.LBB23_356
# %bb.339:                              # %land.lhs.true968
	movq	img, %rax
	cmpl	$0, 24(%rax)
	jne	.LBB23_356
# %bb.340:                              # %if.then972
	cmpl	$0, -36(%rbp)
	je	.LBB23_342
# %bb.341:                              # %lor.lhs.false974
	movq	img, %rax
	cmpl	$0, 72600(%rax)
	jne	.LBB23_355
.LBB23_342:                             # %if.then978
	movq	active_sps, %rax
	cmpl	$0, 1148(%rax)
	jne	.LBB23_344
# %bb.343:                              # %lor.lhs.false981
	movq	input, %rax
	cmpl	$1, 2880(%rax)
	jne	.LBB23_347
.LBB23_344:                             # %if.then985
	vmovsd	.LCPI23_2(%rip), %xmm0  # xmm0 = mem[0],zero
	vmovsd	.LCPI23_3(%rip), %xmm1  # xmm1 = mem[0],zero
	vcvtsi2sdl	TotalFrameQP, %xmm0, %xmm2
	vmulsd	%xmm2, %xmm1, %xmm1
	vcvtsi2sdl	TotalNumberofBasicUnit, %xmm0, %xmm2
	vdivsd	%xmm2, %xmm1, %xmm1
	vaddsd	%xmm0, %xmm1, %xmm0
	vcvttsd2si	%xmm0, %eax
	movl	%eax, -16(%rbp)
	movq	img, %rax
	movl	72576(%rax), %eax
	movq	input, %rcx
	movl	1224(%rcx), %ecx
	subl	$2, %ecx
	cmpl	%ecx, %eax
	jne	.LBB23_346
# %bb.345:                              # %if.then997
	movl	-16(%rbp), %eax
	movl	%eax, QPLastPFrame
.LBB23_346:                             # %if.end998
	movl	-16(%rbp), %eax
	movq	img, %rcx
	addl	72572(%rcx), %eax
	movl	%eax, 72572(%rcx)
	movl	PreviousQp2, %eax
	movl	%eax, PreviousQp1
	movl	-16(%rbp), %eax
	movl	%eax, PreviousQp2
	movl	-16(%rbp), %eax
	movl	%eax, PAveFrameQP
	movl	PAveHeaderBits2, %eax
	movl	%eax, PAveHeaderBits3
	jmp	.LBB23_354
.LBB23_347:                             # %if.else1001
	movq	input, %rax
	cmpl	$2, 2880(%rax)
	je	.LBB23_349
# %bb.348:                              # %lor.lhs.false1005
	movq	input, %rax
	cmpl	$0, 2884(%rax)
	je	.LBB23_353
.LBB23_349:                             # %if.then1008
	movq	img, %rax
	cmpl	$0, 72600(%rax)
	jne	.LBB23_351
# %bb.350:                              # %if.then1012
	vmovsd	.LCPI23_2(%rip), %xmm0  # xmm0 = mem[0],zero
	vmovsd	.LCPI23_3(%rip), %xmm1  # xmm1 = mem[0],zero
	vcvtsi2sdl	TotalFrameQP, %xmm0, %xmm2
	vmulsd	%xmm2, %xmm1, %xmm1
	vcvtsi2sdl	TotalNumberofBasicUnit, %xmm0, %xmm2
	vdivsd	%xmm2, %xmm1, %xmm1
	vaddsd	%xmm0, %xmm1, %xmm0
	vcvttsd2si	%xmm0, %eax
	movl	%eax, -16(%rbp)
	movl	-16(%rbp), %eax
	movl	%eax, FrameQPBuffer
	movl	PAveHeaderBits2, %eax
	movl	%eax, FrameAveHeaderBits
	jmp	.LBB23_352
.LBB23_351:                             # %if.else1019
	vmovsd	.LCPI23_2(%rip), %xmm0  # xmm0 = mem[0],zero
	vmovsd	.LCPI23_3(%rip), %xmm1  # xmm1 = mem[0],zero
	vcvtsi2sdl	TotalFrameQP, %xmm0, %xmm2
	vmulsd	%xmm2, %xmm1, %xmm1
	vcvtsi2sdl	TotalNumberofBasicUnit, %xmm0, %xmm2
	vdivsd	%xmm2, %xmm1, %xmm1
	vaddsd	%xmm0, %xmm1, %xmm0
	vcvttsd2si	%xmm0, %eax
	movl	%eax, -16(%rbp)
	movl	-16(%rbp), %eax
	movl	%eax, FieldQPBuffer
	movl	PAveHeaderBits2, %eax
	movl	%eax, FieldAveHeaderBits
.LBB23_352:                             # %if.end1026
	jmp	.LBB23_353
.LBB23_353:                             # %if.end1027
	jmp	.LBB23_354
.LBB23_354:                             # %if.end1028
	jmp	.LBB23_355
.LBB23_355:                             # %if.end1029
	jmp	.LBB23_356
.LBB23_356:                             # %if.end1030
	movl	m_Qc, %eax
	movl	%eax, -20(%rbp)
	jmp	.LBB23_363
.LBB23_357:                             # %if.end1031
	jmp	.LBB23_358
.LBB23_358:                             # %if.end1032
	jmp	.LBB23_359
.LBB23_359:                             # %if.end1033
	jmp	.LBB23_360
.LBB23_360:                             # %if.end1034
	jmp	.LBB23_361
.LBB23_361:                             # %if.end1035
	jmp	.LBB23_362
.LBB23_362:                             # %if.end1036
	movl	m_Qc, %eax
	movl	%eax, -20(%rbp)
.LBB23_363:                             # %return
	movl	-20(%rbp), %ebx
	cmpl	$1147680002, -56(%rbp)  # imm = 0x44683502
	jne	.LBB23_365
.LBB23_364:
	movl	%ebx, %eax
	addq	$72, %rsp
	popq	%rbx
	popq	%rbp
	.cfi_def_cfa %rsp, 8
	retq
.LBB23_365:                             # %func_exit
	.cfi_def_cfa %rbp, 16
	callq	detect_breach
	jmp	.LBB23_364
.Lfunc_end23:
	.size	updateQuantizationParameter.7, .Lfunc_end23-updateQuantizationParameter.7
	.cfi_endproc
                                        # -- End function
	.section	.rodata.cst8,"aM",@progbits,8
	.p2align	3               # -- Begin function updateRCModel.8
.LCPI24_0:
	.quad	4611686018427387904     # double 2
.LCPI24_1:
	.quad	4602678819172646912     # double 0.5
.LCPI24_2:
	.quad	4607182418800017408     # double 1
.LCPI24_3:
	.quad	4626322717216342016     # double 20
	.section	.rodata.cst16,"aM",@progbits,16
	.p2align	4
.LCPI24_4:
	.quad	9223372036854775807     # double NaN
	.quad	9223372036854775807     # double NaN
	.text
	.globl	updateRCModel.8
	.p2align	4, 0x90
	.type	updateRCModel.8,@function
updateRCModel.8:                        # @updateRCModel.8
	.cfi_startproc
# %bb.0:                                # %entry
	pushq	%rbp
	.cfi_def_cfa_offset 16
	.cfi_offset %rbp, -16
	movq	%rsp, %rbp
	.cfi_def_cfa_register %rbp
	subq	$208, %rsp
	movl	$659575753, -28(%rbp)   # imm = 0x275053C9
	vxorps	%xmm0, %xmm0, %xmm0
	vmovsd	%xmm0, -24(%rbp)
	movl	$0, -16(%rbp)
	movq	img, %rax
	cmpl	$0, 24(%rax)
	jne	.LBB24_68
# %bb.1:                                # %if.then
	movq	img, %rax
	movl	72620(%rax), %eax
	movq	img, %rcx
	cmpl	72608(%rcx), %eax
	jne	.LBB24_3
# %bb.2:                                # %if.then2
	callq	ComputeFrameMAD
	vmovsd	%xmm0, CurrentFrameMAD
	movq	img, %rax
	movl	72564(%rax), %eax
	movl	%eax, -12(%rbp)
	jmp	.LBB24_21
.LBB24_3:                               # %if.else
	movq	input, %rax
	cmpl	$0, 2884(%rax)
	je	.LBB24_6
# %bb.4:                                # %land.lhs.true
	movq	img, %rax
	cmpl	$0, 72600(%rax)
	jne	.LBB24_6
# %bb.5:                                # %if.then4
	vmovsd	.LCPI24_0(%rip), %xmm0  # xmm0 = mem[0],zero
	movq	img, %rax
	vmovsd	72544(%rax), %xmm1      # xmm1 = mem[0],zero
	movq	img, %rax
	vcvtsi2sdl	72620(%rax), %xmm0, %xmm2
	vdivsd	%xmm2, %xmm1, %xmm1
	vdivsd	%xmm0, %xmm1, %xmm0
	vmovsd	%xmm0, CurrentFrameMAD
	jmp	.LBB24_7
.LBB24_6:                               # %if.else7
	movq	img, %rax
	vmovsd	72544(%rax), %xmm0      # xmm0 = mem[0],zero
	movq	img, %rax
	vcvtsi2sdl	72620(%rax), %xmm0, %xmm1
	vdivsd	%xmm1, %xmm0, %xmm0
	vmovsd	%xmm0, CurrentFrameMAD
.LBB24_7:                               # %if.end
	movq	img, %rax
	vxorps	%xmm0, %xmm0, %xmm0
	vmovsd	%xmm0, 72544(%rax)
	movl	TotalNumberofBasicUnit, %eax
	subl	NumberofBasicUnit, %eax
	movl	%eax, CodedBasicUnit
	cmpl	$0, CodedBasicUnit
	jle	.LBB24_12
# %bb.8:                                # %if.then15
	vmovsd	.LCPI24_1(%rip), %xmm0  # xmm0 = mem[0],zero
	vmovsd	.LCPI24_2(%rip), %xmm1  # xmm1 = mem[0],zero
	movl	PAveHeaderBits1, %eax
	movl	CodedBasicUnit, %ecx
	subl	$1, %ecx
	imull	%ecx, %eax
	movq	img, %rcx
	addl	72532(%rcx), %eax
	vcvtsi2sd	%eax, %xmm0, %xmm2
	vmulsd	%xmm2, %xmm1, %xmm1
	vcvtsi2sdl	CodedBasicUnit, %xmm0, %xmm2
	vdivsd	%xmm2, %xmm1, %xmm1
	vaddsd	%xmm0, %xmm1, %xmm0
	vcvttsd2si	%xmm0, %eax
	movl	%eax, PAveHeaderBits1
	cmpl	$0, PAveHeaderBits3
	jne	.LBB24_10
# %bb.9:                                # %if.then25
	movl	PAveHeaderBits1, %eax
	movl	%eax, PAveHeaderBits2
	jmp	.LBB24_11
.LBB24_10:                              # %if.else26
	vmovsd	.LCPI24_1(%rip), %xmm0  # xmm0 = mem[0],zero
	vmovsd	.LCPI24_2(%rip), %xmm1  # xmm1 = mem[0],zero
	movl	PAveHeaderBits1, %eax
	imull	CodedBasicUnit, %eax
	movl	PAveHeaderBits3, %ecx
	imull	NumberofBasicUnit, %ecx
	addl	%ecx, %eax
	vcvtsi2sd	%eax, %xmm0, %xmm2
	vmulsd	%xmm2, %xmm1, %xmm1
	vcvtsi2sdl	TotalNumberofBasicUnit, %xmm0, %xmm2
	vdivsd	%xmm2, %xmm1, %xmm1
	vaddsd	%xmm0, %xmm1, %xmm0
	vcvttsd2si	%xmm0, %eax
	movl	%eax, PAveHeaderBits2
.LBB24_11:                              # %if.end36
	jmp	.LBB24_12
.LBB24_12:                              # %if.end37
	movq	input, %rax
	cmpl	$2, 2880(%rax)
	je	.LBB24_14
# %bb.13:                               # %lor.lhs.false
	movq	input, %rax
	cmpl	$0, 2884(%rax)
	je	.LBB24_16
.LBB24_14:                              # %land.lhs.true42
	movq	img, %rax
	cmpl	$1, 72600(%rax)
	jne	.LBB24_16
# %bb.15:                               # %if.then46
	vmovsd	CurrentFrameMAD, %xmm0  # xmm0 = mem[0],zero
	movq	FCBUCFMAD, %rax
	movl	TotalNumberofBasicUnit, %ecx
	subl	$1, %ecx
	subl	NumberofBasicUnit, %ecx
	movslq	%ecx, %rcx
	vmovsd	%xmm0, (%rax,%rcx,8)
	jmp	.LBB24_17
.LBB24_16:                              # %if.else49
	vmovsd	CurrentFrameMAD, %xmm0  # xmm0 = mem[0],zero
	movq	BUCFMAD, %rax
	movl	TotalNumberofBasicUnit, %ecx
	subl	$1, %ecx
	subl	NumberofBasicUnit, %ecx
	movslq	%ecx, %rcx
	vmovsd	%xmm0, (%rax,%rcx,8)
.LBB24_17:                              # %if.end54
	cmpl	$0, NumberofBasicUnit
	je	.LBB24_19
# %bb.18:                               # %if.then57
	movq	img, %rax
	movl	72564(%rax), %eax
	imull	TotalNumberofBasicUnit, %eax
	addl	CodedBasicUnit, %eax
	movl	%eax, -12(%rbp)
	jmp	.LBB24_20
.LBB24_19:                              # %if.else61
	movq	img, %rax
	movl	72564(%rax), %eax
	subl	$1, %eax
	imull	TotalNumberofBasicUnit, %eax
	addl	CodedBasicUnit, %eax
	movl	%eax, -12(%rbp)
.LBB24_20:                              # %if.end66
	jmp	.LBB24_21
.LBB24_21:                              # %if.end67
	cmpl	$1, -12(%rbp)
	jle	.LBB24_23
# %bb.22:                               # %if.then70
	movl	$1, -16(%rbp)
.LBB24_23:                              # %if.end71
	movq	img, %rax
	movl	72524(%rax), %eax
	movl	%eax, PPreHeader
	movl	$19, -4(%rbp)
.LBB24_24:                              # %for.cond
                                        # =>This Inner Loop Header: Depth=1
	cmpl	$0, -4(%rbp)
	jle	.LBB24_27
# %bb.25:                               # %for.body
                                        #   in Loop: Header=BB24_24 Depth=1
	movl	-4(%rbp), %eax
	subl	$1, %eax
	cltq
	vmovsd	Pm_rgQp(,%rax,8), %xmm0 # xmm0 = mem[0],zero
	movslq	-4(%rbp), %rax
	vmovsd	%xmm0, Pm_rgQp(,%rax,8)
	movslq	-4(%rbp), %rax
	vmovsd	Pm_rgQp(,%rax,8), %xmm0 # xmm0 = mem[0],zero
	movslq	-4(%rbp), %rax
	vmovsd	%xmm0, m_rgQp(,%rax,8)
	movl	-4(%rbp), %eax
	subl	$1, %eax
	cltq
	vmovsd	Pm_rgRp(,%rax,8), %xmm0 # xmm0 = mem[0],zero
	movslq	-4(%rbp), %rax
	vmovsd	%xmm0, Pm_rgRp(,%rax,8)
	movslq	-4(%rbp), %rax
	vmovsd	Pm_rgRp(,%rax,8), %xmm0 # xmm0 = mem[0],zero
	movslq	-4(%rbp), %rax
	vmovsd	%xmm0, m_rgRp(,%rax,8)
# %bb.26:                               # %for.inc
                                        #   in Loop: Header=BB24_24 Depth=1
	movl	-4(%rbp), %eax
	addl	$-1, %eax
	movl	%eax, -4(%rbp)
	jmp	.LBB24_24
.LBB24_27:                              # %for.end
	movl	m_Qc, %edi
	callq	QP2Qstep
	vmovsd	%xmm0, Pm_rgQp
	movq	img, %rax
	movl	72620(%rax), %eax
	movq	img, %rcx
	cmpl	72608(%rcx), %eax
	jne	.LBB24_29
# %bb.28:                               # %if.then97
	vmovsd	.LCPI24_2(%rip), %xmm0  # xmm0 = mem[0],zero
	movq	img, %rax
	vcvtsi2sdl	72528(%rax), %xmm0, %xmm1
	vmulsd	%xmm0, %xmm1, %xmm0
	vdivsd	CurrentFrameMAD, %xmm0, %xmm0
	vmovsd	%xmm0, Pm_rgRp
	jmp	.LBB24_30
.LBB24_29:                              # %if.else101
	vmovsd	.LCPI24_2(%rip), %xmm0  # xmm0 = mem[0],zero
	movq	img, %rax
	vcvtsi2sdl	72536(%rax), %xmm0, %xmm1
	vmulsd	%xmm0, %xmm1, %xmm0
	vdivsd	CurrentFrameMAD, %xmm0, %xmm0
	vmovsd	%xmm0, Pm_rgRp
.LBB24_30:                              # %if.end105
	vmovsd	Pm_rgQp, %xmm0          # xmm0 = mem[0],zero
	vmovsd	%xmm0, m_rgQp
	vmovsd	Pm_rgRp, %xmm0          # xmm0 = mem[0],zero
	vmovsd	%xmm0, m_rgRp
	vmovsd	Pm_X1, %xmm0            # xmm0 = mem[0],zero
	vmovsd	%xmm0, m_X1
	vmovsd	Pm_X2, %xmm0            # xmm0 = mem[0],zero
	vmovsd	%xmm0, m_X2
	vmovsd	CurrentFrameMAD, %xmm0  # xmm0 = mem[0],zero
	vucomisd	PreviousFrameMAD, %xmm0
	jbe	.LBB24_32
# %bb.31:                               # %cond.true
	vmovsd	.LCPI24_3(%rip), %xmm0  # xmm0 = mem[0],zero
	vmovsd	PreviousFrameMAD, %xmm1 # xmm1 = mem[0],zero
	vdivsd	CurrentFrameMAD, %xmm1, %xmm1
	vmulsd	%xmm0, %xmm1, %xmm0
	vcvttsd2si	%xmm0, %eax
	jmp	.LBB24_33
.LBB24_32:                              # %cond.false
	vmovsd	.LCPI24_3(%rip), %xmm0  # xmm0 = mem[0],zero
	vmovsd	CurrentFrameMAD, %xmm1  # xmm1 = mem[0],zero
	vdivsd	PreviousFrameMAD, %xmm1, %xmm1
	vmulsd	%xmm0, %xmm1, %xmm0
	vcvttsd2si	%xmm0, %eax
.LBB24_33:                              # %cond.end
	movl	%eax, -8(%rbp)
	cmpl	$1, -8(%rbp)
	jge	.LBB24_35
# %bb.34:                               # %cond.true116
	movl	$1, %eax
	jmp	.LBB24_36
.LBB24_35:                              # %cond.false117
	movl	-8(%rbp), %eax
.LBB24_36:                              # %cond.end118
	movl	%eax, -8(%rbp)
	movl	-8(%rbp), %eax
	cmpl	-12(%rbp), %eax
	jge	.LBB24_38
# %bb.37:                               # %cond.true122
	movl	-8(%rbp), %eax
	jmp	.LBB24_39
.LBB24_38:                              # %cond.false123
	movl	-12(%rbp), %eax
.LBB24_39:                              # %cond.end124
	movl	%eax, -8(%rbp)
	movl	-8(%rbp), %eax
	movl	m_windowSize, %ecx
	addl	$1, %ecx
	cmpl	%ecx, %eax
	jge	.LBB24_41
# %bb.40:                               # %cond.true129
	movl	-8(%rbp), %eax
	jmp	.LBB24_42
.LBB24_41:                              # %cond.false130
	movl	m_windowSize, %eax
	addl	$1, %eax
.LBB24_42:                              # %cond.end132
	movl	%eax, -8(%rbp)
	cmpl	$20, -8(%rbp)
	jge	.LBB24_44
# %bb.43:                               # %cond.true136
	movl	-8(%rbp), %eax
	jmp	.LBB24_45
.LBB24_44:                              # %cond.false137
	movl	$20, %eax
	jmp	.LBB24_45
.LBB24_45:                              # %cond.end138
	movl	%eax, -8(%rbp)
	movl	-8(%rbp), %eax
	movl	%eax, m_windowSize
	movl	$0, -4(%rbp)
.LBB24_46:                              # %for.cond140
                                        # =>This Inner Loop Header: Depth=1
	cmpl	$20, -4(%rbp)
	jge	.LBB24_49
# %bb.47:                               # %for.body143
                                        #   in Loop: Header=BB24_46 Depth=1
	movslq	-4(%rbp), %rax
	movl	$0, m_rgRejected(,%rax,4)
# %bb.48:                               # %for.inc146
                                        #   in Loop: Header=BB24_46 Depth=1
	movl	-4(%rbp), %eax
	addl	$1, %eax
	movl	%eax, -4(%rbp)
	jmp	.LBB24_46
.LBB24_49:                              # %for.end147
	movl	-8(%rbp), %edi
	callq	RCModelEstimator
	movl	m_windowSize, %eax
	movl	%eax, -8(%rbp)
	movl	$0, -4(%rbp)
.LBB24_50:                              # %for.cond148
                                        # =>This Inner Loop Header: Depth=1
	movl	-4(%rbp), %eax
	cmpl	-8(%rbp), %eax
	jge	.LBB24_53
# %bb.51:                               # %for.body151
                                        #   in Loop: Header=BB24_50 Depth=1
	vmovsd	m_X1, %xmm0             # xmm0 = mem[0],zero
	movslq	-4(%rbp), %rax
	vdivsd	m_rgQp(,%rax,8), %xmm0, %xmm0
	vmovsd	m_X2, %xmm1             # xmm1 = mem[0],zero
	movslq	-4(%rbp), %rax
	vmovsd	m_rgQp(,%rax,8), %xmm2  # xmm2 = mem[0],zero
	movslq	-4(%rbp), %rax
	vmulsd	m_rgQp(,%rax,8), %xmm2, %xmm2
	vdivsd	%xmm2, %xmm1, %xmm1
	vaddsd	%xmm1, %xmm0, %xmm0
	movslq	-4(%rbp), %rax
	vsubsd	m_rgRp(,%rax,8), %xmm0, %xmm0
	movslq	-4(%rbp), %rax
	vmovsd	%xmm0, -208(%rbp,%rax,8)
	movslq	-4(%rbp), %rax
	vmovsd	-208(%rbp,%rax,8), %xmm0 # xmm0 = mem[0],zero
	movslq	-4(%rbp), %rax
	vmulsd	-208(%rbp,%rax,8), %xmm0, %xmm0
	vaddsd	-24(%rbp), %xmm0, %xmm0
	vmovsd	%xmm0, -24(%rbp)
# %bb.52:                               # %for.inc173
                                        #   in Loop: Header=BB24_50 Depth=1
	movl	-4(%rbp), %eax
	addl	$1, %eax
	movl	%eax, -4(%rbp)
	jmp	.LBB24_50
.LBB24_53:                              # %for.end175
	cmpl	$2, -8(%rbp)
	jne	.LBB24_55
# %bb.54:                               # %cond.true178
	vxorps	%xmm0, %xmm0, %xmm0
	jmp	.LBB24_56
.LBB24_55:                              # %cond.false179
	vmovsd	-24(%rbp), %xmm0        # xmm0 = mem[0],zero
	vcvtsi2sdl	-8(%rbp), %xmm0, %xmm1
	vdivsd	%xmm1, %xmm0, %xmm0
	callq	sqrt
.LBB24_56:                              # %cond.end183
	vmovsd	%xmm0, -40(%rbp)
	movl	$0, -4(%rbp)
.LBB24_57:                              # %for.cond185
                                        # =>This Inner Loop Header: Depth=1
	movl	-4(%rbp), %eax
	cmpl	-8(%rbp), %eax
	jge	.LBB24_62
# %bb.58:                               # %for.body188
                                        #   in Loop: Header=BB24_57 Depth=1
	movslq	-4(%rbp), %rax
	vmovsd	-208(%rbp,%rax,8), %xmm0 # xmm0 = mem[0],zero
	vmovdqa	.LCPI24_4(%rip), %xmm1  # xmm1 = [NaN,NaN]
	vpand	%xmm1, %xmm0, %xmm0
	vucomisd	-40(%rbp), %xmm0
	jbe	.LBB24_60
# %bb.59:                               # %if.then193
                                        #   in Loop: Header=BB24_57 Depth=1
	movslq	-4(%rbp), %rax
	movl	$1, m_rgRejected(,%rax,4)
.LBB24_60:                              # %if.end196
                                        #   in Loop: Header=BB24_57 Depth=1
	jmp	.LBB24_61
.LBB24_61:                              # %for.inc197
                                        #   in Loop: Header=BB24_57 Depth=1
	movl	-4(%rbp), %eax
	addl	$1, %eax
	movl	%eax, -4(%rbp)
	jmp	.LBB24_57
.LBB24_62:                              # %for.end199
	movl	$0, m_rgRejected
	movl	-8(%rbp), %edi
	callq	RCModelEstimator
	cmpl	$0, -16(%rbp)
	je	.LBB24_64
# %bb.63:                               # %if.then201
	callq	updateMADModel
	jmp	.LBB24_67
.LBB24_64:                              # %if.else202
	movq	img, %rax
	cmpl	$0, 24(%rax)
	jne	.LBB24_66
# %bb.65:                               # %if.then206
	vmovsd	CurrentFrameMAD, %xmm0  # xmm0 = mem[0],zero
	vmovsd	%xmm0, PPictureMAD
.LBB24_66:                              # %if.end207
	jmp	.LBB24_67
.LBB24_67:                              # %if.end208
	jmp	.LBB24_68
.LBB24_68:                              # %if.end209
	cmpl	$659575753, -28(%rbp)   # imm = 0x275053C9
	jne	.LBB24_70
.LBB24_69:
	addq	$208, %rsp
	popq	%rbp
	.cfi_def_cfa %rsp, 8
	retq
.LBB24_70:                              # %func_exit
	.cfi_def_cfa %rbp, 16
	callq	detect_breach
	jmp	.LBB24_69
.Lfunc_end24:
	.size	updateRCModel.8, .Lfunc_end24-updateRCModel.8
	.cfi_endproc
                                        # -- End function
	.section	.rodata.cst8,"aM",@progbits,8
	.p2align	3               # -- Begin function RCModelEstimator.9
.LCPI25_0:
	.quad	4517329193108106637     # double 9.9999999999999995E-7
.LCPI25_2:
	.quad	4607182418800017408     # double 1
	.section	.rodata.cst16,"aM",@progbits,16
	.p2align	4
.LCPI25_1:
	.quad	9223372036854775807     # double NaN
	.quad	9223372036854775807     # double NaN
	.text
	.globl	RCModelEstimator.9
	.p2align	4, 0x90
	.type	RCModelEstimator.9,@function
RCModelEstimator.9:                     # @RCModelEstimator.9
	.cfi_startproc
# %bb.0:                                # %entry
	pushq	%rbp
	.cfi_def_cfa_offset 16
	.cfi_offset %rbp, -16
	movq	%rsp, %rbp
	.cfi_def_cfa_register %rbp
	subq	$96, %rsp
	movl	$699300925, -84(%rbp)   # imm = 0x29AE7C3D
	movl	%edi, -8(%rbp)
	movl	-8(%rbp), %eax
	movl	%eax, -12(%rbp)
	vxorps	%xmm0, %xmm0, %xmm0
	vmovsd	%xmm0, -32(%rbp)
	vmovsd	%xmm0, -40(%rbp)
	vmovsd	%xmm0, -72(%rbp)
	vmovsd	%xmm0, -56(%rbp)
	vmovsd	%xmm0, -24(%rbp)
	vmovsd	%xmm0, -64(%rbp)
	movl	$0, -44(%rbp)
	movl	$0, -4(%rbp)
.LBB25_1:                               # %for.cond
                                        # =>This Inner Loop Header: Depth=1
	movl	-4(%rbp), %eax
	cmpl	-8(%rbp), %eax
	jge	.LBB25_6
# %bb.2:                                # %for.body
                                        #   in Loop: Header=BB25_1 Depth=1
	movslq	-4(%rbp), %rax
	cmpl	$0, m_rgRejected(,%rax,4)
	je	.LBB25_4
# %bb.3:                                # %if.then
                                        #   in Loop: Header=BB25_1 Depth=1
	movl	-12(%rbp), %eax
	addl	$-1, %eax
	movl	%eax, -12(%rbp)
.LBB25_4:                               # %if.end
                                        #   in Loop: Header=BB25_1 Depth=1
	jmp	.LBB25_5
.LBB25_5:                               # %for.inc
                                        #   in Loop: Header=BB25_1 Depth=1
	movl	-4(%rbp), %eax
	addl	$1, %eax
	movl	%eax, -4(%rbp)
	jmp	.LBB25_1
.LBB25_6:                               # %for.end
	vxorps	%xmm0, %xmm0, %xmm0
	vmovsd	%xmm0, m_X2
	vmovsd	%xmm0, m_X1
	movl	$0, -4(%rbp)
.LBB25_7:                               # %for.cond1
                                        # =>This Inner Loop Header: Depth=1
	movl	-4(%rbp), %eax
	cmpl	-8(%rbp), %eax
	jge	.LBB25_12
# %bb.8:                                # %for.body3
                                        #   in Loop: Header=BB25_7 Depth=1
	movslq	-4(%rbp), %rax
	cmpl	$0, m_rgRejected(,%rax,4)
	jne	.LBB25_10
# %bb.9:                                # %if.then7
                                        #   in Loop: Header=BB25_7 Depth=1
	movslq	-4(%rbp), %rax
	vmovsd	m_rgQp(,%rax,8), %xmm0  # xmm0 = mem[0],zero
	vmovsd	%xmm0, -96(%rbp)
.LBB25_10:                              # %if.end10
                                        #   in Loop: Header=BB25_7 Depth=1
	jmp	.LBB25_11
.LBB25_11:                              # %for.inc11
                                        #   in Loop: Header=BB25_7 Depth=1
	movl	-4(%rbp), %eax
	addl	$1, %eax
	movl	%eax, -4(%rbp)
	jmp	.LBB25_7
.LBB25_12:                              # %for.end13
	movl	$0, -4(%rbp)
.LBB25_13:                              # %for.cond14
                                        # =>This Inner Loop Header: Depth=1
	movl	-4(%rbp), %eax
	cmpl	-8(%rbp), %eax
	jge	.LBB25_21
# %bb.14:                               # %for.body16
                                        #   in Loop: Header=BB25_13 Depth=1
	movslq	-4(%rbp), %rax
	vmovsd	m_rgQp(,%rax,8), %xmm0  # xmm0 = mem[0],zero
	vucomisd	-96(%rbp), %xmm0
	jne	.LBB25_15
	jp	.LBB25_15
	jmp	.LBB25_17
.LBB25_15:                              # %land.lhs.true
                                        #   in Loop: Header=BB25_13 Depth=1
	movslq	-4(%rbp), %rax
	cmpl	$0, m_rgRejected(,%rax,4)
	jne	.LBB25_17
# %bb.16:                               # %if.then23
                                        #   in Loop: Header=BB25_13 Depth=1
	movl	$1, -44(%rbp)
.LBB25_17:                              # %if.end24
                                        #   in Loop: Header=BB25_13 Depth=1
	movslq	-4(%rbp), %rax
	cmpl	$0, m_rgRejected(,%rax,4)
	jne	.LBB25_19
# %bb.18:                               # %if.then28
                                        #   in Loop: Header=BB25_13 Depth=1
	movslq	-4(%rbp), %rax
	vmovsd	m_rgQp(,%rax,8), %xmm0  # xmm0 = mem[0],zero
	movslq	-4(%rbp), %rax
	vmulsd	m_rgRp(,%rax,8), %xmm0, %xmm0
	vcvtsi2sdl	-12(%rbp), %xmm0, %xmm1
	vdivsd	%xmm1, %xmm0, %xmm0
	vaddsd	m_X1, %xmm0, %xmm0
	vmovsd	%xmm0, m_X1
.LBB25_19:                              # %if.end33
                                        #   in Loop: Header=BB25_13 Depth=1
	jmp	.LBB25_20
.LBB25_20:                              # %for.inc34
                                        #   in Loop: Header=BB25_13 Depth=1
	movl	-4(%rbp), %eax
	addl	$1, %eax
	movl	%eax, -4(%rbp)
	jmp	.LBB25_13
.LBB25_21:                              # %for.end36
	cmpl	$1, -12(%rbp)
	jl	.LBB25_33
# %bb.22:                               # %land.lhs.true39
	cmpl	$0, -44(%rbp)
	je	.LBB25_33
# %bb.23:                               # %if.then41
	movl	$0, -4(%rbp)
.LBB25_24:                              # %for.cond42
                                        # =>This Inner Loop Header: Depth=1
	movl	-4(%rbp), %eax
	cmpl	-8(%rbp), %eax
	jge	.LBB25_29
# %bb.25:                               # %for.body45
                                        #   in Loop: Header=BB25_24 Depth=1
	movslq	-4(%rbp), %rax
	cmpl	$0, m_rgRejected(,%rax,4)
	jne	.LBB25_27
# %bb.26:                               # %if.then49
                                        #   in Loop: Header=BB25_24 Depth=1
	vmovsd	.LCPI25_2(%rip), %xmm0  # xmm0 = mem[0],zero
	vaddsd	-32(%rbp), %xmm0, %xmm1
	vmovsd	%xmm1, -32(%rbp)
	movslq	-4(%rbp), %rax
	vdivsd	m_rgQp(,%rax,8), %xmm0, %xmm1
	vaddsd	-40(%rbp), %xmm1, %xmm1
	vmovsd	%xmm1, -40(%rbp)
	vmovsd	-40(%rbp), %xmm1        # xmm1 = mem[0],zero
	vmovsd	%xmm1, -72(%rbp)
	movslq	-4(%rbp), %rax
	vmovsd	m_rgQp(,%rax,8), %xmm1  # xmm1 = mem[0],zero
	movslq	-4(%rbp), %rax
	vmulsd	m_rgQp(,%rax,8), %xmm1, %xmm1
	vdivsd	%xmm1, %xmm0, %xmm0
	vaddsd	-56(%rbp), %xmm0, %xmm0
	vmovsd	%xmm0, -56(%rbp)
	movslq	-4(%rbp), %rax
	vmovsd	m_rgQp(,%rax,8), %xmm0  # xmm0 = mem[0],zero
	movslq	-4(%rbp), %rax
	vmulsd	m_rgRp(,%rax,8), %xmm0, %xmm0
	vaddsd	-24(%rbp), %xmm0, %xmm0
	vmovsd	%xmm0, -24(%rbp)
	movslq	-4(%rbp), %rax
	vmovsd	m_rgRp(,%rax,8), %xmm0  # xmm0 = mem[0],zero
	vaddsd	-64(%rbp), %xmm0, %xmm0
	vmovsd	%xmm0, -64(%rbp)
.LBB25_27:                              # %if.end71
                                        #   in Loop: Header=BB25_24 Depth=1
	jmp	.LBB25_28
.LBB25_28:                              # %for.inc72
                                        #   in Loop: Header=BB25_24 Depth=1
	movl	-4(%rbp), %eax
	addl	$1, %eax
	movl	%eax, -4(%rbp)
	jmp	.LBB25_24
.LBB25_29:                              # %for.end74
	vmovsd	.LCPI25_0(%rip), %xmm0  # xmm0 = mem[0],zero
	vmovsd	-32(%rbp), %xmm1        # xmm1 = mem[0],zero
	vmulsd	-56(%rbp), %xmm1, %xmm1
	vmovsd	-40(%rbp), %xmm2        # xmm2 = mem[0],zero
	vmulsd	-72(%rbp), %xmm2, %xmm2
	vsubsd	%xmm2, %xmm1, %xmm1
	vmovsd	%xmm1, -80(%rbp)
	vmovsd	-80(%rbp), %xmm1        # xmm1 = mem[0],zero
	vmovdqa	.LCPI25_1(%rip), %xmm2  # xmm2 = [NaN,NaN]
	vpand	%xmm2, %xmm1, %xmm1
	vucomisd	%xmm0, %xmm1
	jbe	.LBB25_31
# %bb.30:                               # %if.then79
	vmovsd	-24(%rbp), %xmm0        # xmm0 = mem[0],zero
	vmulsd	-56(%rbp), %xmm0, %xmm0
	vmovsd	-64(%rbp), %xmm1        # xmm1 = mem[0],zero
	vmulsd	-40(%rbp), %xmm1, %xmm1
	vsubsd	%xmm1, %xmm0, %xmm0
	vdivsd	-80(%rbp), %xmm0, %xmm0
	vmovsd	%xmm0, m_X1
	vmovsd	-64(%rbp), %xmm0        # xmm0 = mem[0],zero
	vmulsd	-32(%rbp), %xmm0, %xmm0
	vmovsd	-24(%rbp), %xmm1        # xmm1 = mem[0],zero
	vmulsd	-72(%rbp), %xmm1, %xmm1
	vsubsd	%xmm1, %xmm0, %xmm0
	vdivsd	-80(%rbp), %xmm0, %xmm0
	vmovsd	%xmm0, m_X2
	jmp	.LBB25_32
.LBB25_31:                              # %if.else
	vmovsd	-24(%rbp), %xmm0        # xmm0 = mem[0],zero
	vdivsd	-32(%rbp), %xmm0, %xmm0
	vmovsd	%xmm0, m_X1
	vxorps	%xmm0, %xmm0, %xmm0
	vmovsd	%xmm0, m_X2
.LBB25_32:                              # %if.end89
	jmp	.LBB25_33
.LBB25_33:                              # %if.end90
	movq	img, %rax
	cmpl	$0, 24(%rax)
	jne	.LBB25_35
# %bb.34:                               # %if.then93
	vmovsd	m_X1, %xmm0             # xmm0 = mem[0],zero
	vmovsd	%xmm0, Pm_X1
	vmovsd	m_X2, %xmm0             # xmm0 = mem[0],zero
	vmovsd	%xmm0, Pm_X2
.LBB25_35:                              # %if.end94
	cmpl	$699300925, -84(%rbp)   # imm = 0x29AE7C3D
	jne	.LBB25_37
.LBB25_36:
	addq	$96, %rsp
	popq	%rbp
	.cfi_def_cfa %rsp, 8
	retq
.LBB25_37:                              # %func_exit
	.cfi_def_cfa %rbp, 16
	callq	detect_breach
	jmp	.LBB25_36
.Lfunc_end25:
	.size	RCModelEstimator.9, .Lfunc_end25-RCModelEstimator.9
	.cfi_endproc
                                        # -- End function
	.section	.rodata.cst8,"aM",@progbits,8
	.p2align	3               # -- Begin function rc_update_pict_frame.10
.LCPI26_0:
	.quad	4602678819172646912     # double 0.5
.LCPI26_1:
	.quad	4608819927624529320     # double 1.3635999999999999
	.text
	.globl	rc_update_pict_frame.10
	.p2align	4, 0x90
	.type	rc_update_pict_frame.10,@function
rc_update_pict_frame.10:                # @rc_update_pict_frame.10
	.cfi_startproc
# %bb.0:                                # %entry
	pushq	%rbp
	.cfi_def_cfa_offset 16
	.cfi_offset %rbp, -16
	movq	%rsp, %rbp
	.cfi_def_cfa_register %rbp
	subq	$16, %rsp
	movl	$1255867799, -16(%rbp)  # imm = 0x4ADB0597
	movl	%edi, -8(%rbp)
	movl	$0, -4(%rbp)
	movq	img, %rax
	movl	72620(%rax), %eax
	movq	img, %rcx
	cmpl	72608(%rcx), %eax
	jne	.LBB26_2
# %bb.1:                                # %if.then
	vmovsd	.LCPI26_0(%rip), %xmm0  # xmm0 = mem[0],zero
	movl	-8(%rbp), %eax
	imull	m_Qc, %eax
	vcvtsi2sd	%eax, %xmm0, %xmm1
	vaddsd	%xmm0, %xmm1, %xmm0
	vroundsd	$9, %xmm0, %xmm0, %xmm0
	vcvttsd2si	%xmm0, %eax
	movl	%eax, -4(%rbp)
	jmp	.LBB26_12
.LBB26_2:                               # %if.else
	movq	img, %rax
	cmpl	$0, 24(%rax)
	jne	.LBB26_8
# %bb.3:                                # %if.then4
	movq	img, %rax
	cmpl	$0, 72612(%rax)
	jne	.LBB26_5
# %bb.4:                                # %land.lhs.true
	movq	img, %rax
	cmpl	$1, 72600(%rax)
	je	.LBB26_6
.LBB26_5:                               # %lor.lhs.false
	movq	img, %rax
	cmpl	$0, 72600(%rax)
	jne	.LBB26_7
.LBB26_6:                               # %if.then12
	vmovsd	.LCPI26_0(%rip), %xmm0  # xmm0 = mem[0],zero
	movl	TotalFrameQP, %eax
	cltd
	idivl	TotalNumberofBasicUnit
	movl	%eax, -12(%rbp)
	movl	-8(%rbp), %eax
	imull	-12(%rbp), %eax
	vcvtsi2sd	%eax, %xmm0, %xmm1
	vaddsd	%xmm0, %xmm1, %xmm0
	vroundsd	$9, %xmm0, %xmm0, %xmm0
	vcvttsd2si	%xmm0, %eax
	movl	%eax, -4(%rbp)
.LBB26_7:                               # %if.end
	jmp	.LBB26_11
.LBB26_8:                               # %if.else17
	movq	img, %rax
	cmpl	$1, 24(%rax)
	jne	.LBB26_10
# %bb.9:                                # %if.then21
	vmovsd	.LCPI26_0(%rip), %xmm0  # xmm0 = mem[0],zero
	movl	-8(%rbp), %eax
	imull	m_Qc, %eax
	vcvtsi2sd	%eax, %xmm0, %xmm1
	vaddsd	%xmm0, %xmm1, %xmm0
	vroundsd	$9, %xmm0, %xmm0, %xmm0
	vcvttsd2si	%xmm0, %eax
	movl	%eax, -4(%rbp)
.LBB26_10:                              # %if.end26
	jmp	.LBB26_11
.LBB26_11:                              # %if.end27
	jmp	.LBB26_12
.LBB26_12:                              # %if.end28
	movq	img(%rip), %rax
	movl	24(%rax), %eax
	testl	%eax, %eax
	je	.LBB26_14
	jmp	.LBB26_13
.LBB26_13:                              # %if.end28
	subl	$1, %eax
	je	.LBB26_23
	jmp	.LBB26_24
.LBB26_14:                              # %sw.bb
	movq	img, %rax
	cmpl	$0, 72612(%rax)
	jne	.LBB26_16
# %bb.15:                               # %land.lhs.true33
	movq	img, %rax
	cmpl	$1, 72600(%rax)
	je	.LBB26_17
.LBB26_16:                              # %lor.lhs.false37
	movq	img, %rax
	cmpl	$0, 72600(%rax)
	jne	.LBB26_18
.LBB26_17:                              # %if.then41
	movl	-4(%rbp), %eax
	movl	%eax, Xp
	movl	Np, %eax
	addl	$-1, %eax
	movl	%eax, Np
	vcvtsi2sdl	Xp, %xmm0, %xmm0
	vmovsd	%xmm0, Wp
	movq	img, %rax
	movl	72524(%rax), %eax
	movl	%eax, Pm_Hp
	movq	img, %rax
	movl	72564(%rax), %ecx
	addl	$1, %ecx
	movl	%ecx, 72564(%rax)
	movq	img, %rax
	movl	72576(%rax), %ecx
	addl	$1, %ecx
	movl	%ecx, 72576(%rax)
	jmp	.LBB26_22
.LBB26_18:                              # %if.else44
	movq	img, %rax
	cmpl	$0, 72612(%rax)
	je	.LBB26_21
# %bb.19:                               # %land.lhs.true48
	movq	img, %rax
	cmpl	$1, 72600(%rax)
	jne	.LBB26_21
# %bb.20:                               # %if.then52
	movq	img, %rax
	movl	$0, 72612(%rax)
.LBB26_21:                              # %if.end54
	jmp	.LBB26_22
.LBB26_22:                              # %if.end55
	jmp	.LBB26_24
.LBB26_23:                              # %sw.bb56
	vmovsd	.LCPI26_1(%rip), %xmm0  # xmm0 = mem[0],zero
	movl	-4(%rbp), %eax
	movl	%eax, Xb
	movl	Nb, %eax
	addl	$-1, %eax
	movl	%eax, Nb
	vcvtsi2sdl	Xb, %xmm0, %xmm1
	vdivsd	%xmm0, %xmm1, %xmm0
	vmovsd	%xmm0, Wb
	movq	img, %rax
	movl	72560(%rax), %ecx
	addl	$1, %ecx
	movl	%ecx, 72560(%rax)
	movl	NumberofBFrames, %eax
	addl	$1, %eax
	movl	%eax, NumberofBFrames
.LBB26_24:                              # %sw.epilog
	cmpl	$1255867799, -16(%rbp)  # imm = 0x4ADB0597
	jne	.LBB26_26
.LBB26_25:
	addq	$16, %rsp
	popq	%rbp
	.cfi_def_cfa %rsp, 8
	retq
.LBB26_26:                              # %func_exit
	.cfi_def_cfa %rbp, 16
	callq	detect_breach
	jmp	.LBB26_25
.Lfunc_end26:
	.size	rc_update_pict_frame.10, .Lfunc_end26-rc_update_pict_frame.10
	.cfi_endproc
                                        # -- End function
	.section	.rodata.cst8,"aM",@progbits,8
	.p2align	3               # -- Begin function updateRCModel.11
.LCPI27_0:
	.quad	4611686018427387904     # double 2
.LCPI27_1:
	.quad	4602678819172646912     # double 0.5
.LCPI27_2:
	.quad	4607182418800017408     # double 1
.LCPI27_3:
	.quad	4626322717216342016     # double 20
	.section	.rodata.cst16,"aM",@progbits,16
	.p2align	4
.LCPI27_4:
	.quad	9223372036854775807     # double NaN
	.quad	9223372036854775807     # double NaN
	.text
	.globl	updateRCModel.11
	.p2align	4, 0x90
	.type	updateRCModel.11,@function
updateRCModel.11:                       # @updateRCModel.11
	.cfi_startproc
# %bb.0:                                # %entry
	pushq	%rbp
	.cfi_def_cfa_offset 16
	.cfi_offset %rbp, -16
	movq	%rsp, %rbp
	.cfi_def_cfa_register %rbp
	subq	$208, %rsp
	movl	$1306599854, -28(%rbp)  # imm = 0x4DE121AE
	vxorps	%xmm0, %xmm0, %xmm0
	vmovsd	%xmm0, -24(%rbp)
	movl	$0, -16(%rbp)
	movq	img, %rax
	cmpl	$0, 24(%rax)
	jne	.LBB27_68
# %bb.1:                                # %if.then
	movq	img, %rax
	movl	72620(%rax), %eax
	movq	img, %rcx
	cmpl	72608(%rcx), %eax
	jne	.LBB27_3
# %bb.2:                                # %if.then2
	callq	ComputeFrameMAD
	vmovsd	%xmm0, CurrentFrameMAD
	movq	img, %rax
	movl	72564(%rax), %eax
	movl	%eax, -12(%rbp)
	jmp	.LBB27_21
.LBB27_3:                               # %if.else
	movq	input, %rax
	cmpl	$0, 2884(%rax)
	je	.LBB27_6
# %bb.4:                                # %land.lhs.true
	movq	img, %rax
	cmpl	$0, 72600(%rax)
	jne	.LBB27_6
# %bb.5:                                # %if.then4
	vmovsd	.LCPI27_0(%rip), %xmm0  # xmm0 = mem[0],zero
	movq	img, %rax
	vmovsd	72544(%rax), %xmm1      # xmm1 = mem[0],zero
	movq	img, %rax
	vcvtsi2sdl	72620(%rax), %xmm0, %xmm2
	vdivsd	%xmm2, %xmm1, %xmm1
	vdivsd	%xmm0, %xmm1, %xmm0
	vmovsd	%xmm0, CurrentFrameMAD
	jmp	.LBB27_7
.LBB27_6:                               # %if.else7
	movq	img, %rax
	vmovsd	72544(%rax), %xmm0      # xmm0 = mem[0],zero
	movq	img, %rax
	vcvtsi2sdl	72620(%rax), %xmm0, %xmm1
	vdivsd	%xmm1, %xmm0, %xmm0
	vmovsd	%xmm0, CurrentFrameMAD
.LBB27_7:                               # %if.end
	movq	img, %rax
	vxorps	%xmm0, %xmm0, %xmm0
	vmovsd	%xmm0, 72544(%rax)
	movl	TotalNumberofBasicUnit, %eax
	subl	NumberofBasicUnit, %eax
	movl	%eax, CodedBasicUnit
	cmpl	$0, CodedBasicUnit
	jle	.LBB27_12
# %bb.8:                                # %if.then15
	vmovsd	.LCPI27_1(%rip), %xmm0  # xmm0 = mem[0],zero
	vmovsd	.LCPI27_2(%rip), %xmm1  # xmm1 = mem[0],zero
	movl	PAveHeaderBits1, %eax
	movl	CodedBasicUnit, %ecx
	subl	$1, %ecx
	imull	%ecx, %eax
	movq	img, %rcx
	addl	72532(%rcx), %eax
	vcvtsi2sd	%eax, %xmm0, %xmm2
	vmulsd	%xmm2, %xmm1, %xmm1
	vcvtsi2sdl	CodedBasicUnit, %xmm0, %xmm2
	vdivsd	%xmm2, %xmm1, %xmm1
	vaddsd	%xmm0, %xmm1, %xmm0
	vcvttsd2si	%xmm0, %eax
	movl	%eax, PAveHeaderBits1
	cmpl	$0, PAveHeaderBits3
	jne	.LBB27_10
# %bb.9:                                # %if.then25
	movl	PAveHeaderBits1, %eax
	movl	%eax, PAveHeaderBits2
	jmp	.LBB27_11
.LBB27_10:                              # %if.else26
	vmovsd	.LCPI27_1(%rip), %xmm0  # xmm0 = mem[0],zero
	vmovsd	.LCPI27_2(%rip), %xmm1  # xmm1 = mem[0],zero
	movl	PAveHeaderBits1, %eax
	imull	CodedBasicUnit, %eax
	movl	PAveHeaderBits3, %ecx
	imull	NumberofBasicUnit, %ecx
	addl	%ecx, %eax
	vcvtsi2sd	%eax, %xmm0, %xmm2
	vmulsd	%xmm2, %xmm1, %xmm1
	vcvtsi2sdl	TotalNumberofBasicUnit, %xmm0, %xmm2
	vdivsd	%xmm2, %xmm1, %xmm1
	vaddsd	%xmm0, %xmm1, %xmm0
	vcvttsd2si	%xmm0, %eax
	movl	%eax, PAveHeaderBits2
.LBB27_11:                              # %if.end36
	jmp	.LBB27_12
.LBB27_12:                              # %if.end37
	movq	input, %rax
	cmpl	$2, 2880(%rax)
	je	.LBB27_14
# %bb.13:                               # %lor.lhs.false
	movq	input, %rax
	cmpl	$0, 2884(%rax)
	je	.LBB27_16
.LBB27_14:                              # %land.lhs.true42
	movq	img, %rax
	cmpl	$1, 72600(%rax)
	jne	.LBB27_16
# %bb.15:                               # %if.then46
	vmovsd	CurrentFrameMAD, %xmm0  # xmm0 = mem[0],zero
	movq	FCBUCFMAD, %rax
	movl	TotalNumberofBasicUnit, %ecx
	subl	$1, %ecx
	subl	NumberofBasicUnit, %ecx
	movslq	%ecx, %rcx
	vmovsd	%xmm0, (%rax,%rcx,8)
	jmp	.LBB27_17
.LBB27_16:                              # %if.else49
	vmovsd	CurrentFrameMAD, %xmm0  # xmm0 = mem[0],zero
	movq	BUCFMAD, %rax
	movl	TotalNumberofBasicUnit, %ecx
	subl	$1, %ecx
	subl	NumberofBasicUnit, %ecx
	movslq	%ecx, %rcx
	vmovsd	%xmm0, (%rax,%rcx,8)
.LBB27_17:                              # %if.end54
	cmpl	$0, NumberofBasicUnit
	je	.LBB27_19
# %bb.18:                               # %if.then57
	movq	img, %rax
	movl	72564(%rax), %eax
	imull	TotalNumberofBasicUnit, %eax
	addl	CodedBasicUnit, %eax
	movl	%eax, -12(%rbp)
	jmp	.LBB27_20
.LBB27_19:                              # %if.else61
	movq	img, %rax
	movl	72564(%rax), %eax
	subl	$1, %eax
	imull	TotalNumberofBasicUnit, %eax
	addl	CodedBasicUnit, %eax
	movl	%eax, -12(%rbp)
.LBB27_20:                              # %if.end66
	jmp	.LBB27_21
.LBB27_21:                              # %if.end67
	cmpl	$1, -12(%rbp)
	jle	.LBB27_23
# %bb.22:                               # %if.then70
	movl	$1, -16(%rbp)
.LBB27_23:                              # %if.end71
	movq	img, %rax
	movl	72524(%rax), %eax
	movl	%eax, PPreHeader
	movl	$19, -4(%rbp)
.LBB27_24:                              # %for.cond
                                        # =>This Inner Loop Header: Depth=1
	cmpl	$0, -4(%rbp)
	jle	.LBB27_27
# %bb.25:                               # %for.body
                                        #   in Loop: Header=BB27_24 Depth=1
	movl	-4(%rbp), %eax
	subl	$1, %eax
	cltq
	vmovsd	Pm_rgQp(,%rax,8), %xmm0 # xmm0 = mem[0],zero
	movslq	-4(%rbp), %rax
	vmovsd	%xmm0, Pm_rgQp(,%rax,8)
	movslq	-4(%rbp), %rax
	vmovsd	Pm_rgQp(,%rax,8), %xmm0 # xmm0 = mem[0],zero
	movslq	-4(%rbp), %rax
	vmovsd	%xmm0, m_rgQp(,%rax,8)
	movl	-4(%rbp), %eax
	subl	$1, %eax
	cltq
	vmovsd	Pm_rgRp(,%rax,8), %xmm0 # xmm0 = mem[0],zero
	movslq	-4(%rbp), %rax
	vmovsd	%xmm0, Pm_rgRp(,%rax,8)
	movslq	-4(%rbp), %rax
	vmovsd	Pm_rgRp(,%rax,8), %xmm0 # xmm0 = mem[0],zero
	movslq	-4(%rbp), %rax
	vmovsd	%xmm0, m_rgRp(,%rax,8)
# %bb.26:                               # %for.inc
                                        #   in Loop: Header=BB27_24 Depth=1
	movl	-4(%rbp), %eax
	addl	$-1, %eax
	movl	%eax, -4(%rbp)
	jmp	.LBB27_24
.LBB27_27:                              # %for.end
	movl	m_Qc, %edi
	callq	QP2Qstep
	vmovsd	%xmm0, Pm_rgQp
	movq	img, %rax
	movl	72620(%rax), %eax
	movq	img, %rcx
	cmpl	72608(%rcx), %eax
	jne	.LBB27_29
# %bb.28:                               # %if.then97
	vmovsd	.LCPI27_2(%rip), %xmm0  # xmm0 = mem[0],zero
	movq	img, %rax
	vcvtsi2sdl	72528(%rax), %xmm0, %xmm1
	vmulsd	%xmm0, %xmm1, %xmm0
	vdivsd	CurrentFrameMAD, %xmm0, %xmm0
	vmovsd	%xmm0, Pm_rgRp
	jmp	.LBB27_30
.LBB27_29:                              # %if.else101
	vmovsd	.LCPI27_2(%rip), %xmm0  # xmm0 = mem[0],zero
	movq	img, %rax
	vcvtsi2sdl	72536(%rax), %xmm0, %xmm1
	vmulsd	%xmm0, %xmm1, %xmm0
	vdivsd	CurrentFrameMAD, %xmm0, %xmm0
	vmovsd	%xmm0, Pm_rgRp
.LBB27_30:                              # %if.end105
	vmovsd	Pm_rgQp, %xmm0          # xmm0 = mem[0],zero
	vmovsd	%xmm0, m_rgQp
	vmovsd	Pm_rgRp, %xmm0          # xmm0 = mem[0],zero
	vmovsd	%xmm0, m_rgRp
	vmovsd	Pm_X1, %xmm0            # xmm0 = mem[0],zero
	vmovsd	%xmm0, m_X1
	vmovsd	Pm_X2, %xmm0            # xmm0 = mem[0],zero
	vmovsd	%xmm0, m_X2
	vmovsd	CurrentFrameMAD, %xmm0  # xmm0 = mem[0],zero
	vucomisd	PreviousFrameMAD, %xmm0
	jbe	.LBB27_32
# %bb.31:                               # %cond.true
	vmovsd	.LCPI27_3(%rip), %xmm0  # xmm0 = mem[0],zero
	vmovsd	PreviousFrameMAD, %xmm1 # xmm1 = mem[0],zero
	vdivsd	CurrentFrameMAD, %xmm1, %xmm1
	vmulsd	%xmm0, %xmm1, %xmm0
	vcvttsd2si	%xmm0, %eax
	jmp	.LBB27_33
.LBB27_32:                              # %cond.false
	vmovsd	.LCPI27_3(%rip), %xmm0  # xmm0 = mem[0],zero
	vmovsd	CurrentFrameMAD, %xmm1  # xmm1 = mem[0],zero
	vdivsd	PreviousFrameMAD, %xmm1, %xmm1
	vmulsd	%xmm0, %xmm1, %xmm0
	vcvttsd2si	%xmm0, %eax
.LBB27_33:                              # %cond.end
	movl	%eax, -8(%rbp)
	cmpl	$1, -8(%rbp)
	jge	.LBB27_35
# %bb.34:                               # %cond.true116
	movl	$1, %eax
	jmp	.LBB27_36
.LBB27_35:                              # %cond.false117
	movl	-8(%rbp), %eax
.LBB27_36:                              # %cond.end118
	movl	%eax, -8(%rbp)
	movl	-8(%rbp), %eax
	cmpl	-12(%rbp), %eax
	jge	.LBB27_38
# %bb.37:                               # %cond.true122
	movl	-8(%rbp), %eax
	jmp	.LBB27_39
.LBB27_38:                              # %cond.false123
	movl	-12(%rbp), %eax
.LBB27_39:                              # %cond.end124
	movl	%eax, -8(%rbp)
	movl	-8(%rbp), %eax
	movl	m_windowSize, %ecx
	addl	$1, %ecx
	cmpl	%ecx, %eax
	jge	.LBB27_41
# %bb.40:                               # %cond.true129
	movl	-8(%rbp), %eax
	jmp	.LBB27_42
.LBB27_41:                              # %cond.false130
	movl	m_windowSize, %eax
	addl	$1, %eax
.LBB27_42:                              # %cond.end132
	movl	%eax, -8(%rbp)
	cmpl	$20, -8(%rbp)
	jge	.LBB27_44
# %bb.43:                               # %cond.true136
	movl	-8(%rbp), %eax
	jmp	.LBB27_45
.LBB27_44:                              # %cond.false137
	movl	$20, %eax
	jmp	.LBB27_45
.LBB27_45:                              # %cond.end138
	movl	%eax, -8(%rbp)
	movl	-8(%rbp), %eax
	movl	%eax, m_windowSize
	movl	$0, -4(%rbp)
.LBB27_46:                              # %for.cond140
                                        # =>This Inner Loop Header: Depth=1
	cmpl	$20, -4(%rbp)
	jge	.LBB27_49
# %bb.47:                               # %for.body143
                                        #   in Loop: Header=BB27_46 Depth=1
	movslq	-4(%rbp), %rax
	movl	$0, m_rgRejected(,%rax,4)
# %bb.48:                               # %for.inc146
                                        #   in Loop: Header=BB27_46 Depth=1
	movl	-4(%rbp), %eax
	addl	$1, %eax
	movl	%eax, -4(%rbp)
	jmp	.LBB27_46
.LBB27_49:                              # %for.end147
	movl	-8(%rbp), %edi
	callq	RCModelEstimator
	movl	m_windowSize, %eax
	movl	%eax, -8(%rbp)
	movl	$0, -4(%rbp)
.LBB27_50:                              # %for.cond148
                                        # =>This Inner Loop Header: Depth=1
	movl	-4(%rbp), %eax
	cmpl	-8(%rbp), %eax
	jge	.LBB27_53
# %bb.51:                               # %for.body151
                                        #   in Loop: Header=BB27_50 Depth=1
	vmovsd	m_X1, %xmm0             # xmm0 = mem[0],zero
	movslq	-4(%rbp), %rax
	vdivsd	m_rgQp(,%rax,8), %xmm0, %xmm0
	vmovsd	m_X2, %xmm1             # xmm1 = mem[0],zero
	movslq	-4(%rbp), %rax
	vmovsd	m_rgQp(,%rax,8), %xmm2  # xmm2 = mem[0],zero
	movslq	-4(%rbp), %rax
	vmulsd	m_rgQp(,%rax,8), %xmm2, %xmm2
	vdivsd	%xmm2, %xmm1, %xmm1
	vaddsd	%xmm1, %xmm0, %xmm0
	movslq	-4(%rbp), %rax
	vsubsd	m_rgRp(,%rax,8), %xmm0, %xmm0
	movslq	-4(%rbp), %rax
	vmovsd	%xmm0, -208(%rbp,%rax,8)
	movslq	-4(%rbp), %rax
	vmovsd	-208(%rbp,%rax,8), %xmm0 # xmm0 = mem[0],zero
	movslq	-4(%rbp), %rax
	vmulsd	-208(%rbp,%rax,8), %xmm0, %xmm0
	vaddsd	-24(%rbp), %xmm0, %xmm0
	vmovsd	%xmm0, -24(%rbp)
# %bb.52:                               # %for.inc173
                                        #   in Loop: Header=BB27_50 Depth=1
	movl	-4(%rbp), %eax
	addl	$1, %eax
	movl	%eax, -4(%rbp)
	jmp	.LBB27_50
.LBB27_53:                              # %for.end175
	cmpl	$2, -8(%rbp)
	jne	.LBB27_55
# %bb.54:                               # %cond.true178
	vxorps	%xmm0, %xmm0, %xmm0
	jmp	.LBB27_56
.LBB27_55:                              # %cond.false179
	vmovsd	-24(%rbp), %xmm0        # xmm0 = mem[0],zero
	vcvtsi2sdl	-8(%rbp), %xmm0, %xmm1
	vdivsd	%xmm1, %xmm0, %xmm0
	callq	sqrt
.LBB27_56:                              # %cond.end183
	vmovsd	%xmm0, -40(%rbp)
	movl	$0, -4(%rbp)
.LBB27_57:                              # %for.cond185
                                        # =>This Inner Loop Header: Depth=1
	movl	-4(%rbp), %eax
	cmpl	-8(%rbp), %eax
	jge	.LBB27_62
# %bb.58:                               # %for.body188
                                        #   in Loop: Header=BB27_57 Depth=1
	movslq	-4(%rbp), %rax
	vmovsd	-208(%rbp,%rax,8), %xmm0 # xmm0 = mem[0],zero
	vmovdqa	.LCPI27_4(%rip), %xmm1  # xmm1 = [NaN,NaN]
	vpand	%xmm1, %xmm0, %xmm0
	vucomisd	-40(%rbp), %xmm0
	jbe	.LBB27_60
# %bb.59:                               # %if.then193
                                        #   in Loop: Header=BB27_57 Depth=1
	movslq	-4(%rbp), %rax
	movl	$1, m_rgRejected(,%rax,4)
.LBB27_60:                              # %if.end196
                                        #   in Loop: Header=BB27_57 Depth=1
	jmp	.LBB27_61
.LBB27_61:                              # %for.inc197
                                        #   in Loop: Header=BB27_57 Depth=1
	movl	-4(%rbp), %eax
	addl	$1, %eax
	movl	%eax, -4(%rbp)
	jmp	.LBB27_57
.LBB27_62:                              # %for.end199
	movl	$0, m_rgRejected
	movl	-8(%rbp), %edi
	callq	RCModelEstimator
	cmpl	$0, -16(%rbp)
	je	.LBB27_64
# %bb.63:                               # %if.then201
	callq	updateMADModel
	jmp	.LBB27_67
.LBB27_64:                              # %if.else202
	movq	img, %rax
	cmpl	$0, 24(%rax)
	jne	.LBB27_66
# %bb.65:                               # %if.then206
	vmovsd	CurrentFrameMAD, %xmm0  # xmm0 = mem[0],zero
	vmovsd	%xmm0, PPictureMAD
.LBB27_66:                              # %if.end207
	jmp	.LBB27_67
.LBB27_67:                              # %if.end208
	jmp	.LBB27_68
.LBB27_68:                              # %if.end209
	cmpl	$1306599854, -28(%rbp)  # imm = 0x4DE121AE
	jne	.LBB27_70
.LBB27_69:
	addq	$208, %rsp
	popq	%rbp
	.cfi_def_cfa %rsp, 8
	retq
.LBB27_70:                              # %func_exit
	.cfi_def_cfa %rbp, 16
	callq	detect_breach
	jmp	.LBB27_69
.Lfunc_end27:
	.size	updateRCModel.11, .Lfunc_end27-updateRCModel.11
	.cfi_endproc
                                        # -- End function
	.section	.rodata.cst8,"aM",@progbits,8
	.p2align	3               # -- Begin function QP2Qstep.12
.LCPI28_0:
	.quad	4611686018427387904     # double 2
	.text
	.globl	QP2Qstep.12
	.p2align	4, 0x90
	.type	QP2Qstep.12,@function
QP2Qstep.12:                            # @QP2Qstep.12
	.cfi_startproc
# %bb.0:                                # %entry
	pushq	%rbp
	.cfi_def_cfa_offset 16
	.cfi_offset %rbp, -16
	movq	%rsp, %rbp
	.cfi_def_cfa_register %rbp
	subq	$32, %rsp
	movl	$22026044, -20(%rbp)    # imm = 0x150173C
	movl	%edi, -8(%rbp)
	movl	-8(%rbp), %eax
	cltd
	movl	$6, %ecx
	idivl	%ecx
	movslq	%edx, %rax
	vmovsd	QP2Qstep.QP2QSTEP(,%rax,8), %xmm0 # xmm0 = mem[0],zero
	vmovsd	%xmm0, -16(%rbp)
	movl	$0, -4(%rbp)
.LBB28_1:                               # %for.cond
                                        # =>This Inner Loop Header: Depth=1
	movl	-4(%rbp), %ecx
	movl	-8(%rbp), %eax
	cltd
	movl	$6, %esi
	idivl	%esi
	cmpl	%eax, %ecx
	jge	.LBB28_4
# %bb.2:                                # %for.body
                                        #   in Loop: Header=BB28_1 Depth=1
	vmovsd	.LCPI28_0(%rip), %xmm0  # xmm0 = mem[0],zero
	vmulsd	-16(%rbp), %xmm0, %xmm0
	vmovsd	%xmm0, -16(%rbp)
# %bb.3:                                # %for.inc
                                        #   in Loop: Header=BB28_1 Depth=1
	movl	-4(%rbp), %eax
	addl	$1, %eax
	movl	%eax, -4(%rbp)
	jmp	.LBB28_1
.LBB28_4:                               # %for.end
	vmovsd	-16(%rbp), %xmm0        # xmm0 = mem[0],zero
	cmpl	$22026044, -20(%rbp)    # imm = 0x150173C
	jne	.LBB28_6
.LBB28_5:
	addq	$32, %rsp
	popq	%rbp
	.cfi_def_cfa %rsp, 8
	retq
.LBB28_6:                               # %func_exit
	.cfi_def_cfa %rbp, 16
	vmovsd	%xmm0, -32(%rbp)        # 8-byte Spill
	callq	detect_breach
	vmovsd	-32(%rbp), %xmm0        # 8-byte Reload
                                        # xmm0 = mem[0],zero
	jmp	.LBB28_5
.Lfunc_end28:
	.size	QP2Qstep.12, .Lfunc_end28-QP2Qstep.12
	.cfi_endproc
                                        # -- End function
	.section	.rodata.cst8,"aM",@progbits,8
	.p2align	3               # -- Begin function calc_MAD.13
.LCPI29_0:
	.quad	4643211215818981376     # double 256
.LCPI29_1:
	.quad	4607182418800017408     # double 1
	.text
	.globl	calc_MAD.13
	.p2align	4, 0x90
	.type	calc_MAD.13,@function
calc_MAD.13:                            # @calc_MAD.13
	.cfi_startproc
# %bb.0:                                # %entry
	pushq	%rbp
	.cfi_def_cfa_offset 16
	.cfi_offset %rbp, -16
	movq	%rsp, %rbp
	.cfi_def_cfa_register %rbp
	subq	$32, %rsp
	movl	$1475031366, -16(%rbp)  # imm = 0x57EB3146
	movl	$0, -12(%rbp)
	movl	$0, -4(%rbp)
.LBB29_1:                               # %for.cond
                                        # =>This Loop Header: Depth=1
                                        #     Child Loop BB29_3 Depth 2
	cmpl	$16, -4(%rbp)
	jge	.LBB29_8
# %bb.2:                                # %for.body
                                        #   in Loop: Header=BB29_1 Depth=1
	movl	$0, -8(%rbp)
.LBB29_3:                               # %for.cond1
                                        #   Parent Loop BB29_1 Depth=1
                                        # =>  This Inner Loop Header: Depth=2
	cmpl	$16, -8(%rbp)
	jge	.LBB29_6
# %bb.4:                                # %for.body3
                                        #   in Loop: Header=BB29_3 Depth=2
	movslq	-4(%rbp), %rax
	shlq	$6, %rax
	movabsq	$diffy, %rcx
	addq	%rax, %rcx
	movslq	-8(%rbp), %rax
	movl	(%rcx,%rax,4), %edi
	callq	abs
	addl	-12(%rbp), %eax
	movl	%eax, -12(%rbp)
# %bb.5:                                # %for.inc
                                        #   in Loop: Header=BB29_3 Depth=2
	movl	-8(%rbp), %eax
	addl	$1, %eax
	movl	%eax, -8(%rbp)
	jmp	.LBB29_3
.LBB29_6:                               # %for.end
                                        #   in Loop: Header=BB29_1 Depth=1
	jmp	.LBB29_7
.LBB29_7:                               # %for.inc6
                                        #   in Loop: Header=BB29_1 Depth=1
	movl	-4(%rbp), %eax
	addl	$1, %eax
	movl	%eax, -4(%rbp)
	jmp	.LBB29_1
.LBB29_8:                               # %for.end8
	vmovsd	.LCPI29_0(%rip), %xmm0  # xmm0 = mem[0],zero
	vmovsd	.LCPI29_1(%rip), %xmm1  # xmm1 = mem[0],zero
	vcvtsi2sdl	-12(%rbp), %xmm0, %xmm2
	vmulsd	%xmm1, %xmm2, %xmm1
	vdivsd	%xmm0, %xmm1, %xmm0
	vmovsd	%xmm0, -32(%rbp)
	vmovsd	-32(%rbp), %xmm0        # xmm0 = mem[0],zero
	cmpl	$1475031366, -16(%rbp)  # imm = 0x57EB3146
	jne	.LBB29_10
.LBB29_9:
	addq	$32, %rsp
	popq	%rbp
	.cfi_def_cfa %rsp, 8
	retq
.LBB29_10:                              # %func_exit
	.cfi_def_cfa %rbp, 16
	vmovsd	%xmm0, -24(%rbp)        # 8-byte Spill
	callq	detect_breach
	vmovsd	-24(%rbp), %xmm0        # 8-byte Reload
                                        # xmm0 = mem[0],zero
	jmp	.LBB29_9
.Lfunc_end29:
	.size	calc_MAD.13, .Lfunc_end29-calc_MAD.13
	.cfi_endproc
                                        # -- End function
	.section	.rodata.cst8,"aM",@progbits,8
	.p2align	3               # -- Begin function rc_init_seq.14
.LCPI30_0:
	.quad	4605380978949069210     # double 0.80000000000000004
.LCPI30_1:
	.quad	4612947026323051643     # double 2.5600000000000001
.LCPI30_2:
	.quad	4616189618054758400     # double 4
.LCPI30_3:
	.quad	4602678819172646912     # double 0.5
.LCPI30_4:
	.quad	4606281698874543309     # double 0.90000000000000002
.LCPI30_5:
	.quad	4598175219545276416     # double 0.25
.LCPI30_6:
	.quad	4607182418800017408     # double 1
.LCPI30_7:
	.quad	4612586738352862003     # double 2.3999999999999999
.LCPI30_8:
	.quad	4608983858650965606     # double 1.3999999999999999
.LCPI30_9:
	.quad	4603579539098121011     # double 0.59999999999999998
.LCPI30_10:
	.quad	4608083138725491507     # double 1.2
.LCPI30_11:
	.quad	4596373779694328218     # double 0.20000000000000001
.LCPI30_12:
	.quad	4599075939470750515     # double 0.29999999999999999
.LCPI30_13:
	.quad	4591870180066957722     # double 0.10000000000000001
	.text
	.globl	rc_init_seq.14
	.p2align	4, 0x90
	.type	rc_init_seq.14,@function
rc_init_seq.14:                         # @rc_init_seq.14
	.cfi_startproc
# %bb.0:                                # %entry
	pushq	%rbp
	.cfi_def_cfa_offset 16
	.cfi_offset %rbp, -16
	movq	%rsp, %rbp
	.cfi_def_cfa_register %rbp
	subq	$48, %rsp
	movl	$699536216, -44(%rbp)   # imm = 0x29B21358
	movl	$0, Xp
	movl	$0, Xb
	movq	input, %rax
	vcvtsi2sdl	3240(%rax), %xmm0, %xmm0
	vmovsd	%xmm0, bit_rate
	movq	img, %rax
	vmovss	48(%rax), %xmm0         # xmm0 = mem[0],zero,zero,zero
	movq	input, %rax
	movl	1236(%rax), %eax
	addl	$1, %eax
	vcvtsi2ss	%eax, %xmm0, %xmm1
	vmulss	%xmm1, %xmm0, %xmm0
	movq	input, %rax
	movl	20(%rax), %eax
	addl	$1, %eax
	vcvtsi2ss	%eax, %xmm0, %xmm1
	vdivss	%xmm1, %xmm0, %xmm0
	vcvtss2sd	%xmm0, %xmm0, %xmm0
	vmovsd	%xmm0, frame_rate
	vmovsd	bit_rate, %xmm0         # xmm0 = mem[0],zero
	vmovsd	%xmm0, PreviousBit_Rate
	movq	img, %rax
	movl	60(%rax), %eax
	movq	img, %rcx
	imull	52(%rcx), %eax
	cltd
	movl	$256, %ecx              # imm = 0x100
	idivl	%ecx
	movq	img, %rcx
	movl	%eax, 72608(%rcx)
	movq	input, %rax
	movl	3248(%rax), %eax
	movq	img, %rcx
	cmpl	72608(%rcx), %eax
	jle	.LBB30_2
# %bb.1:                                # %if.then
	movq	img, %rax
	movl	72608(%rax), %eax
	movq	input, %rcx
	movl	%eax, 3248(%rcx)
.LBB30_2:                               # %if.end
	movq	input, %rax
	movl	3248(%rax), %eax
	movq	img, %rcx
	cmpl	72608(%rcx), %eax
	jge	.LBB30_4
# %bb.3:                                # %if.then15
	movq	img, %rax
	movl	72608(%rax), %eax
	movq	input, %rcx
	cltd
	idivl	3248(%rcx)
	movl	%eax, TotalNumberofBasicUnit
.LBB30_4:                               # %if.end19
	vmovsd	.LCPI30_0(%rip), %xmm0  # xmm0 = mem[0],zero
	vmovsd	.LCPI30_1(%rip), %xmm1  # xmm1 = mem[0],zero
	vmovsd	.LCPI30_2(%rip), %xmm2  # xmm2 = mem[0],zero
	vmovsd	%xmm2, MINVALUE
	vmulsd	bit_rate, %xmm1, %xmm1
	vmovsd	%xmm1, BufferSize
	vxorps	%xmm1, %xmm1, %xmm1
	vmovsd	%xmm1, CurrentBufferFullness
	vmovsd	CurrentBufferFullness, %xmm1 # xmm1 = mem[0],zero
	vmovsd	%xmm1, GOPTargetBufferLevel
	vmulsd	BufferSize, %xmm0, %xmm0
	vmovsd	%xmm0, InitialDelayOffset
	movl	$0, m_windowSize
	movl	$0, MADm_windowSize
	movq	img, %rax
	movl	$0, 72560(%rax)
	movq	img, %rax
	movl	$0, 72564(%rax)
	movq	img, %rax
	movl	$0, 72568(%rax)
	movl	$0, R
	movq	input, %rax
	cmpl	$0, 1236(%rax)
	jle	.LBB30_6
# %bb.5:                                # %if.then25
	vmovsd	.LCPI30_4(%rip), %xmm0  # xmm0 = mem[0],zero
	vmovsd	.LCPI30_5(%rip), %xmm1  # xmm1 = mem[0],zero
	vmovsd	%xmm1, GAMMAP
	vmovsd	%xmm0, BETAP
	jmp	.LBB30_7
.LBB30_6:                               # %if.else
	vmovsd	.LCPI30_3(%rip), %xmm0  # xmm0 = mem[0],zero
	vmovsd	%xmm0, GAMMAP
	vmovsd	%xmm0, BETAP
.LBB30_7:                               # %if.end26
	vmovsd	.LCPI30_6(%rip), %xmm0  # xmm0 = mem[0],zero
	movl	$0, PPreHeader
	vmulsd	bit_rate, %xmm0, %xmm1
	vmovsd	%xmm1, Pm_X1
	vxorps	%xmm1, %xmm1, %xmm1
	vmovsd	%xmm1, Pm_X2
	vmovsd	%xmm0, PMADPictureC1
	vmovsd	%xmm1, PMADPictureC2
	movl	$0, -4(%rbp)
.LBB30_8:                               # %for.cond
                                        # =>This Inner Loop Header: Depth=1
	cmpl	$20, -4(%rbp)
	jge	.LBB30_11
# %bb.9:                                # %for.body
                                        #   in Loop: Header=BB30_8 Depth=1
	movslq	-4(%rbp), %rax
	vxorps	%xmm0, %xmm0, %xmm0
	vmovsd	%xmm0, Pm_rgQp(,%rax,8)
	movslq	-4(%rbp), %rax
	vmovsd	%xmm0, Pm_rgRp(,%rax,8)
	movslq	-4(%rbp), %rax
	vmovsd	%xmm0, PPictureMAD(,%rax,8)
# %bb.10:                               # %for.inc
                                        #   in Loop: Header=BB30_8 Depth=1
	movl	-4(%rbp), %eax
	addl	$1, %eax
	movl	%eax, -4(%rbp)
	jmp	.LBB30_8
.LBB30_11:                              # %for.end
	vxorps	%xmm0, %xmm0, %xmm0
	vmovsd	%xmm0, PPictureMAD+160
	movl	$2, PDuantQp
	movl	$0, PAveHeaderBits1
	movl	$0, PAveHeaderBits3
	cmpl	$9, TotalNumberofBasicUnit
	jl	.LBB30_13
# %bb.12:                               # %if.then36
	movl	$1, DDquant
	jmp	.LBB30_14
.LBB30_13:                              # %if.else37
	movl	$2, DDquant
.LBB30_14:                              # %if.end38
	vmovsd	.LCPI30_6(%rip), %xmm0  # xmm0 = mem[0],zero
	movq	img, %rax
	movl	52(%rax), %eax
	cltd
	movl	$16, %ecx
	idivl	%ecx
	movl	%eax, MBPerRow
	movq	img, %rax
	movl	$0, 72600(%rax)
	movl	$51, RC_MAX_QUANT
	movl	$0, RC_MIN_QUANT
	vmulsd	bit_rate, %xmm0, %xmm0
	vmovsd	frame_rate, %xmm1       # xmm1 = mem[0],zero
	movq	img, %rax
	vcvtsi2sdl	52(%rax), %xmm0, %xmm2
	vmulsd	%xmm2, %xmm1, %xmm1
	movq	img, %rax
	vcvtsi2sdl	60(%rax), %xmm0, %xmm2
	vmulsd	%xmm2, %xmm1, %xmm1
	vdivsd	%xmm1, %xmm0, %xmm0
	vmovsd	%xmm0, -16(%rbp)
	movq	img, %rax
	cmpl	$176, 52(%rax)
	jne	.LBB30_16
# %bb.15:                               # %if.then52
	vmovsd	.LCPI30_9(%rip), %xmm0  # xmm0 = mem[0],zero
	vmovsd	.LCPI30_12(%rip), %xmm1 # xmm1 = mem[0],zero
	vmovsd	.LCPI30_13(%rip), %xmm2 # xmm2 = mem[0],zero
	vmovsd	%xmm2, -24(%rbp)
	vmovsd	%xmm1, -40(%rbp)
	vmovsd	%xmm0, -32(%rbp)
	jmp	.LBB30_20
.LBB30_16:                              # %if.else53
	movq	img, %rax
	cmpl	$352, 52(%rax)          # imm = 0x160
	jne	.LBB30_18
# %bb.17:                               # %if.then57
	vmovsd	.LCPI30_10(%rip), %xmm0 # xmm0 = mem[0],zero
	vmovsd	.LCPI30_9(%rip), %xmm1  # xmm1 = mem[0],zero
	vmovsd	.LCPI30_11(%rip), %xmm2 # xmm2 = mem[0],zero
	vmovsd	%xmm2, -24(%rbp)
	vmovsd	%xmm1, -40(%rbp)
	vmovsd	%xmm0, -32(%rbp)
	jmp	.LBB30_19
.LBB30_18:                              # %if.else58
	vmovsd	.LCPI30_7(%rip), %xmm0  # xmm0 = mem[0],zero
	vmovsd	.LCPI30_8(%rip), %xmm1  # xmm1 = mem[0],zero
	vmovsd	.LCPI30_9(%rip), %xmm2  # xmm2 = mem[0],zero
	vmovsd	%xmm2, -24(%rbp)
	vmovsd	%xmm1, -40(%rbp)
	vmovsd	%xmm0, -32(%rbp)
.LBB30_19:                              # %if.end59
	jmp	.LBB30_20
.LBB30_20:                              # %if.end60
	movq	input, %rax
	cmpl	$0, 3244(%rax)
	jne	.LBB30_31
# %bb.21:                               # %if.then63
	vmovsd	-16(%rbp), %xmm0        # xmm0 = mem[0],zero
	vmovsd	-24(%rbp), %xmm1        # xmm1 = mem[0],zero
	vucomisd	%xmm0, %xmm1
	jb	.LBB30_23
# %bb.22:                               # %if.then66
	movl	$35, -8(%rbp)
	jmp	.LBB30_30
.LBB30_23:                              # %if.else67
	vmovsd	-16(%rbp), %xmm0        # xmm0 = mem[0],zero
	vmovsd	-40(%rbp), %xmm1        # xmm1 = mem[0],zero
	vucomisd	%xmm0, %xmm1
	jb	.LBB30_25
# %bb.24:                               # %if.then70
	movl	$25, -8(%rbp)
	jmp	.LBB30_29
.LBB30_25:                              # %if.else71
	vmovsd	-16(%rbp), %xmm0        # xmm0 = mem[0],zero
	vmovsd	-32(%rbp), %xmm1        # xmm1 = mem[0],zero
	vucomisd	%xmm0, %xmm1
	jb	.LBB30_27
# %bb.26:                               # %if.then74
	movl	$20, -8(%rbp)
	jmp	.LBB30_28
.LBB30_27:                              # %if.else75
	movl	$10, -8(%rbp)
.LBB30_28:                              # %if.end76
	jmp	.LBB30_29
.LBB30_29:                              # %if.end77
	jmp	.LBB30_30
.LBB30_30:                              # %if.end78
	movl	-8(%rbp), %eax
	movq	input, %rcx
	movl	%eax, 3244(%rcx)
.LBB30_31:                              # %if.end80
	cmpl	$699536216, -44(%rbp)   # imm = 0x29B21358
	jne	.LBB30_33
.LBB30_32:
	addq	$48, %rsp
	popq	%rbp
	.cfi_def_cfa %rsp, 8
	retq
.LBB30_33:                              # %func_exit
	.cfi_def_cfa %rbp, 16
	callq	detect_breach
	jmp	.LBB30_32
.Lfunc_end30:
	.size	rc_init_seq.14, .Lfunc_end30-rc_init_seq.14
	.cfi_endproc
                                        # -- End function
	.section	.rodata.cst8,"aM",@progbits,8
	.p2align	3               # -- Begin function updateQuantizationParameter.15
.LCPI31_0:
	.quad	4616189618054758400     # double 4
.LCPI31_1:
	.quad	4611686018427387904     # double 2
.LCPI31_2:
	.quad	4602678819172646912     # double 0.5
.LCPI31_3:
	.quad	4607182418800017408     # double 1
	.text
	.globl	updateQuantizationParameter.15
	.p2align	4, 0x90
	.type	updateQuantizationParameter.15,@function
updateQuantizationParameter.15:         # @updateQuantizationParameter.15
	.cfi_startproc
# %bb.0:                                # %entry
	pushq	%rbp
	.cfi_def_cfa_offset 16
	.cfi_offset %rbp, -16
	movq	%rsp, %rbp
	.cfi_def_cfa_register %rbp
	pushq	%rbx
	subq	$72, %rsp
	.cfi_offset %rbx, -24
	movl	$1929905507, -56(%rbp)  # imm = 0x73080563
	movl	%edi, -36(%rbp)
	movq	img, %rax
	movl	72620(%rax), %eax
	movq	img, %rcx
	cmpl	72608(%rcx), %eax
	jne	.LBB31_123
# %bb.1:                                # %if.then
	cmpl	$0, -36(%rbp)
	jne	.LBB31_3
# %bb.2:                                # %lor.lhs.false
	movq	img, %rax
	cmpl	$0, 72600(%rax)
	jne	.LBB31_116
.LBB31_3:                               # %if.then2
	movq	img, %rax
	cmpl	$2, 24(%rax)
	jne	.LBB31_5
# %bb.4:                                # %if.then4
	movl	MyInitialQp, %eax
	movl	%eax, m_Qc
	movl	m_Qc, %eax
	movl	%eax, -20(%rbp)
	jmp	.LBB31_363
.LBB31_5:                               # %if.else
	movq	img, %rax
	cmpl	$1, 24(%rax)
	jne	.LBB31_69
# %bb.6:                                # %if.then7
	movq	input, %rax
	cmpl	$1, 1236(%rax)
	jne	.LBB31_25
# %bb.7:                                # %if.then9
	movq	input, %rax
	cmpl	$2, 2880(%rax)
	je	.LBB31_9
# %bb.8:                                # %lor.lhs.false11
	movq	input, %rax
	cmpl	$0, 2884(%rax)
	je	.LBB31_15
.LBB31_9:                               # %if.then13
	movq	img, %rax
	cmpl	$0, 72600(%rax)
	jne	.LBB31_14
# %bb.10:                               # %if.then16
	movq	img, %rax
	cmpl	$1, 72604(%rax)
	jne	.LBB31_12
# %bb.11:                               # %if.then18
	movl	PreviousQp2, %eax
	movl	%eax, PreviousQp1
	movl	FrameQPBuffer, %eax
	movl	%eax, PreviousQp2
	jmp	.LBB31_13
.LBB31_12:                              # %if.else19
	movl	PreviousQp2, %eax
	movl	%eax, PreviousQp1
	movl	FieldQPBuffer, %eax
	movl	%eax, PreviousQp2
.LBB31_13:                              # %if.end
	jmp	.LBB31_14
.LBB31_14:                              # %if.end20
	jmp	.LBB31_15
.LBB31_15:                              # %if.end21
	movl	PreviousQp1, %eax
	cmpl	PreviousQp2, %eax
	jne	.LBB31_17
# %bb.16:                               # %if.then23
	movl	PreviousQp1, %eax
	addl	$2, %eax
	movl	%eax, m_Qc
	jmp	.LBB31_18
.LBB31_17:                              # %if.else24
	movl	PreviousQp1, %eax
	addl	PreviousQp2, %eax
	cltd
	movl	$2, %ecx
	idivl	%ecx
	addl	$1, %eax
	movl	%eax, m_Qc
.LBB31_18:                              # %if.end27
	movl	m_Qc, %eax
	cmpl	RC_MAX_QUANT, %eax
	jge	.LBB31_20
# %bb.19:                               # %cond.true
	movl	m_Qc, %eax
	jmp	.LBB31_21
.LBB31_20:                              # %cond.false
	movl	RC_MAX_QUANT, %eax
.LBB31_21:                              # %cond.end
	movl	%eax, m_Qc
	movl	RC_MIN_QUANT, %eax
	cmpl	m_Qc, %eax
	jge	.LBB31_23
# %bb.22:                               # %cond.true30
	movl	m_Qc, %eax
	jmp	.LBB31_24
.LBB31_23:                              # %cond.false31
	movl	RC_MIN_QUANT, %eax
.LBB31_24:                              # %cond.end32
	movl	%eax, m_Qc
	jmp	.LBB31_68
.LBB31_25:                              # %if.else34
	movl	NumberofBFrames, %eax
	addl	$1, %eax
	movq	input, %rcx
	cltd
	idivl	1236(%rcx)
	movl	%edx, -12(%rbp)
	cmpl	$0, -12(%rbp)
	jne	.LBB31_27
# %bb.26:                               # %if.then38
	movq	input, %rax
	movl	1236(%rax), %eax
	movl	%eax, -12(%rbp)
.LBB31_27:                              # %if.end40
	cmpl	$1, -12(%rbp)
	jne	.LBB31_37
# %bb.28:                               # %if.then42
	movq	input, %rax
	cmpl	$2, 2880(%rax)
	je	.LBB31_30
# %bb.29:                               # %lor.lhs.false45
	movq	input, %rax
	cmpl	$0, 2884(%rax)
	je	.LBB31_36
.LBB31_30:                              # %if.then48
	movq	img, %rax
	cmpl	$0, 72600(%rax)
	jne	.LBB31_35
# %bb.31:                               # %if.then51
	movq	img, %rax
	cmpl	$1, 72604(%rax)
	jne	.LBB31_33
# %bb.32:                               # %if.then54
	movl	PreviousQp2, %eax
	movl	%eax, PreviousQp1
	movl	FrameQPBuffer, %eax
	movl	%eax, PreviousQp2
	jmp	.LBB31_34
.LBB31_33:                              # %if.else55
	movl	PreviousQp2, %eax
	movl	%eax, PreviousQp1
	movl	FieldQPBuffer, %eax
	movl	%eax, PreviousQp2
.LBB31_34:                              # %if.end56
	jmp	.LBB31_35
.LBB31_35:                              # %if.end57
	jmp	.LBB31_36
.LBB31_36:                              # %if.end58
	jmp	.LBB31_37
.LBB31_37:                              # %if.end59
	movl	PreviousQp2, %eax
	subl	PreviousQp1, %eax
	movq	input, %rcx
	imull	$4294967294, 1236(%rcx), %ecx # imm = 0xFFFFFFFE
	subl	$3, %ecx
	cmpl	%ecx, %eax
	jg	.LBB31_39
# %bb.38:                               # %if.then63
	movl	$-3, -24(%rbp)
	jmp	.LBB31_52
.LBB31_39:                              # %if.else64
	movl	PreviousQp2, %eax
	subl	PreviousQp1, %eax
	movq	input, %rcx
	imull	$4294967294, 1236(%rcx), %ecx # imm = 0xFFFFFFFE
	subl	$2, %ecx
	cmpl	%ecx, %eax
	jne	.LBB31_41
# %bb.40:                               # %if.then70
	movl	$-2, -24(%rbp)
	jmp	.LBB31_51
.LBB31_41:                              # %if.else71
	movl	PreviousQp2, %eax
	subl	PreviousQp1, %eax
	movq	input, %rcx
	imull	$4294967294, 1236(%rcx), %ecx # imm = 0xFFFFFFFE
	subl	$1, %ecx
	cmpl	%ecx, %eax
	jne	.LBB31_43
# %bb.42:                               # %if.then77
	movl	$-1, -24(%rbp)
	jmp	.LBB31_50
.LBB31_43:                              # %if.else78
	movl	PreviousQp2, %eax
	subl	PreviousQp1, %eax
	movq	input, %rcx
	imull	$4294967294, 1236(%rcx), %ecx # imm = 0xFFFFFFFE
	cmpl	%ecx, %eax
	jne	.LBB31_45
# %bb.44:                               # %if.then83
	movl	$0, -24(%rbp)
	jmp	.LBB31_49
.LBB31_45:                              # %if.else84
	movl	PreviousQp2, %eax
	subl	PreviousQp1, %eax
	movq	input, %rcx
	imull	$4294967294, 1236(%rcx), %ecx # imm = 0xFFFFFFFE
	addl	$1, %ecx
	cmpl	%ecx, %eax
	jne	.LBB31_47
# %bb.46:                               # %if.then90
	movl	$1, -24(%rbp)
	jmp	.LBB31_48
.LBB31_47:                              # %if.else91
	movl	$2, -24(%rbp)
.LBB31_48:                              # %if.end92
	jmp	.LBB31_49
.LBB31_49:                              # %if.end93
	jmp	.LBB31_50
.LBB31_50:                              # %if.end94
	jmp	.LBB31_51
.LBB31_51:                              # %if.end95
	jmp	.LBB31_52
.LBB31_52:                              # %if.end96
	movl	PreviousQp1, %eax
	addl	-24(%rbp), %eax
	movl	%eax, m_Qc
	movl	-12(%rbp), %ecx
	subl	$1, %ecx
	shll	$1, %ecx
	movl	-12(%rbp), %eax
	subl	$1, %eax
	imull	$4294967294, %eax, %esi # imm = 0xFFFFFFFE
	movl	-12(%rbp), %eax
	subl	$1, %eax
	movl	PreviousQp2, %edx
	subl	PreviousQp1, %edx
	imull	%edx, %eax
	movq	input, %rdx
	movl	1236(%rdx), %edi
	subl	$1, %edi
	cltd
	idivl	%edi
	cmpl	%eax, %esi
	jge	.LBB31_54
# %bb.53:                               # %cond.true109
	movl	-12(%rbp), %eax
	subl	$1, %eax
	movl	PreviousQp2, %edx
	subl	PreviousQp1, %edx
	imull	%edx, %eax
	movq	input, %rdx
	movl	1236(%rdx), %esi
	subl	$1, %esi
	cltd
	idivl	%esi
	jmp	.LBB31_55
.LBB31_54:                              # %cond.false116
	movl	-12(%rbp), %eax
	subl	$1, %eax
	imull	$4294967294, %eax, %eax # imm = 0xFFFFFFFE
.LBB31_55:                              # %cond.end119
	cmpl	%eax, %ecx
	jge	.LBB31_57
# %bb.56:                               # %cond.true122
	movl	-12(%rbp), %eax
	subl	$1, %eax
	shll	$1, %eax
	jmp	.LBB31_61
.LBB31_57:                              # %cond.false125
	movl	-12(%rbp), %eax
	subl	$1, %eax
	imull	$4294967294, %eax, %ecx # imm = 0xFFFFFFFE
	movl	-12(%rbp), %eax
	subl	$1, %eax
	movl	PreviousQp2, %edx
	subl	PreviousQp1, %edx
	imull	%edx, %eax
	movq	input, %rdx
	movl	1236(%rdx), %esi
	subl	$1, %esi
	cltd
	idivl	%esi
	cmpl	%eax, %ecx
	jge	.LBB31_59
# %bb.58:                               # %cond.true135
	movl	-12(%rbp), %eax
	subl	$1, %eax
	movl	PreviousQp2, %ecx
	subl	PreviousQp1, %ecx
	imull	%ecx, %eax
	movq	input, %rcx
	movl	1236(%rcx), %ecx
	subl	$1, %ecx
	cltd
	idivl	%ecx
	jmp	.LBB31_60
.LBB31_59:                              # %cond.false142
	movl	-12(%rbp), %eax
	subl	$1, %eax
	imull	$4294967294, %eax, %eax # imm = 0xFFFFFFFE
.LBB31_60:                              # %cond.end145
.LBB31_61:                              # %cond.end147
	addl	m_Qc, %eax
	movl	%eax, m_Qc
	movl	m_Qc, %eax
	cmpl	RC_MAX_QUANT, %eax
	jge	.LBB31_63
# %bb.62:                               # %cond.true151
	movl	m_Qc, %eax
	jmp	.LBB31_64
.LBB31_63:                              # %cond.false152
	movl	RC_MAX_QUANT, %eax
.LBB31_64:                              # %cond.end153
	movl	%eax, m_Qc
	movl	RC_MIN_QUANT, %eax
	cmpl	m_Qc, %eax
	jge	.LBB31_66
# %bb.65:                               # %cond.true156
	movl	m_Qc, %eax
	jmp	.LBB31_67
.LBB31_66:                              # %cond.false157
	movl	RC_MIN_QUANT, %eax
.LBB31_67:                              # %cond.end158
	movl	%eax, m_Qc
.LBB31_68:                              # %if.end160
	movl	m_Qc, %eax
	movl	%eax, -20(%rbp)
	jmp	.LBB31_363
.LBB31_69:                              # %if.else161
	movq	img, %rax
	cmpl	$0, 24(%rax)
	jne	.LBB31_77
# %bb.70:                               # %land.lhs.true
	movq	img, %rax
	cmpl	$0, 72576(%rax)
	jne	.LBB31_77
# %bb.71:                               # %if.then165
	movl	MyInitialQp, %eax
	movl	%eax, m_Qc
	movq	img, %rax
	cmpl	$0, 72600(%rax)
	jne	.LBB31_76
# %bb.72:                               # %if.then168
	movq	active_sps, %rax
	cmpl	$0, 1148(%rax)
	je	.LBB31_74
# %bb.73:                               # %if.then170
	movl	m_Qc, %eax
	movq	img, %rcx
	addl	72572(%rcx), %eax
	movl	%eax, 72572(%rcx)
	movl	PreviousQp2, %eax
	movl	%eax, PreviousQp1
	movl	m_Qc, %eax
	movl	%eax, PreviousQp2
	movl	m_Qc, %eax
	movl	%eax, Pm_Qp
	jmp	.LBB31_75
.LBB31_74:                              # %if.else172
	movl	m_Qc, %eax
	movl	%eax, FrameQPBuffer
.LBB31_75:                              # %if.end173
	jmp	.LBB31_76
.LBB31_76:                              # %if.end174
	movl	m_Qc, %eax
	movl	%eax, -20(%rbp)
	jmp	.LBB31_363
.LBB31_77:                              # %if.else175
	movq	input, %rax
	cmpl	$2, 2880(%rax)
	je	.LBB31_79
# %bb.78:                               # %lor.lhs.false178
	movq	input, %rax
	cmpl	$0, 2884(%rax)
	je	.LBB31_84
.LBB31_79:                              # %land.lhs.true181
	movq	img, %rax
	cmpl	$0, 72600(%rax)
	jne	.LBB31_84
# %bb.80:                               # %if.then184
	movq	img, %rax
	cmpl	$1, 72604(%rax)
	jne	.LBB31_82
# %bb.81:                               # %if.then187
	movl	FrameQPBuffer, %eax
	movq	img, %rcx
	addl	72572(%rcx), %eax
	movl	%eax, 72572(%rcx)
	movl	FrameQPBuffer, %eax
	movl	%eax, Pm_Qp
	jmp	.LBB31_83
.LBB31_82:                              # %if.else190
	movl	FieldQPBuffer, %eax
	movq	img, %rcx
	addl	72572(%rcx), %eax
	movl	%eax, 72572(%rcx)
	movl	FieldQPBuffer, %eax
	movl	%eax, Pm_Qp
.LBB31_83:                              # %if.end193
	jmp	.LBB31_84
.LBB31_84:                              # %if.end194
	vmovsd	Pm_X1, %xmm0            # xmm0 = mem[0],zero
	vmovsd	%xmm0, m_X1
	vmovsd	Pm_X2, %xmm0            # xmm0 = mem[0],zero
	vmovsd	%xmm0, m_X2
	movl	PPreHeader, %eax
	movl	%eax, m_Hp
	movl	Pm_Qp, %eax
	movl	%eax, m_Qp
	movl	PDuantQp, %eax
	movl	%eax, DuantQp
	vmovsd	PMADPictureC1, %xmm0    # xmm0 = mem[0],zero
	vmovsd	%xmm0, MADPictureC1
	vmovsd	PMADPictureC2, %xmm0    # xmm0 = mem[0],zero
	vmovsd	%xmm0, MADPictureC2
	vmovsd	PPictureMAD, %xmm0      # xmm0 = mem[0],zero
	vmovsd	%xmm0, PreviousPictureMAD
	vmovsd	MADPictureC1, %xmm0     # xmm0 = mem[0],zero
	vmulsd	PreviousPictureMAD, %xmm0, %xmm0
	vaddsd	MADPictureC2, %xmm0, %xmm0
	vmovsd	%xmm0, CurrentFrameMAD
	cmpq	$0, T
	jge	.LBB31_89
# %bb.85:                               # %if.then198
	movl	m_Qp, %eax
	addl	DuantQp, %eax
	movl	%eax, m_Qc
	movl	m_Qc, %eax
	cmpl	RC_MAX_QUANT, %eax
	jge	.LBB31_87
# %bb.86:                               # %cond.true201
	movl	m_Qc, %eax
	jmp	.LBB31_88
.LBB31_87:                              # %cond.false202
	movl	RC_MAX_QUANT, %eax
.LBB31_88:                              # %cond.end203
	movl	%eax, m_Qc
	jmp	.LBB31_110
.LBB31_89:                              # %if.else205
	movq	T, %rax
	movslq	m_Hp, %rcx
	subq	%rcx, %rax
	movl	%eax, -28(%rbp)
	movl	-28(%rbp), %eax
	vmovsd	bit_rate, %xmm0         # xmm0 = mem[0],zero
	vmovsd	MINVALUE, %xmm1         # xmm1 = mem[0],zero
	vmulsd	frame_rate, %xmm1, %xmm1
	vdivsd	%xmm1, %xmm0, %xmm0
	vcvttsd2si	%xmm0, %ecx
	cmpl	%ecx, %eax
	jge	.LBB31_91
# %bb.90:                               # %cond.true213
	vmovsd	bit_rate, %xmm0         # xmm0 = mem[0],zero
	vmovsd	MINVALUE, %xmm1         # xmm1 = mem[0],zero
	vmulsd	frame_rate, %xmm1, %xmm1
	vdivsd	%xmm1, %xmm0, %xmm0
	vcvttsd2si	%xmm0, %eax
	jmp	.LBB31_92
.LBB31_91:                              # %cond.false217
	movl	-28(%rbp), %eax
.LBB31_92:                              # %cond.end218
	vmovsd	.LCPI31_0(%rip), %xmm0  # xmm0 = mem[0],zero
	movl	%eax, -28(%rbp)
	vmovsd	CurrentFrameMAD, %xmm1  # xmm1 = mem[0],zero
	vmulsd	m_X1, %xmm1, %xmm1
	vmulsd	CurrentFrameMAD, %xmm1, %xmm1
	vmulsd	m_X1, %xmm1, %xmm1
	vmulsd	m_X2, %xmm0, %xmm0
	vmulsd	CurrentFrameMAD, %xmm0, %xmm0
	vcvtsi2sdl	-28(%rbp), %xmm0, %xmm2
	vmulsd	%xmm2, %xmm0, %xmm0
	vaddsd	%xmm0, %xmm1, %xmm0
	vmovsd	%xmm0, -48(%rbp)
	vmovsd	m_X2, %xmm0             # xmm0 = mem[0],zero
	vxorps	%xmm1, %xmm1, %xmm1
	vucomisd	%xmm1, %xmm0
	jne	.LBB31_93
	jp	.LBB31_93
	jmp	.LBB31_95
.LBB31_93:                              # %lor.lhs.false230
	vxorps	%xmm0, %xmm0, %xmm0
	vucomisd	-48(%rbp), %xmm0
	ja	.LBB31_95
# %bb.94:                               # %lor.lhs.false233
	vmovsd	-48(%rbp), %xmm0        # xmm0 = mem[0],zero
	callq	sqrt
	vmovsd	m_X1, %xmm1             # xmm1 = mem[0],zero
	vmulsd	CurrentFrameMAD, %xmm1, %xmm1
	vsubsd	%xmm1, %xmm0, %xmm0
	vxorps	%xmm1, %xmm1, %xmm1
	vucomisd	%xmm0, %xmm1
	jb	.LBB31_96
.LBB31_95:                              # %if.then238
	vmovsd	m_X1, %xmm0             # xmm0 = mem[0],zero
	vmulsd	CurrentFrameMAD, %xmm0, %xmm0
	vcvtsi2sdl	-28(%rbp), %xmm0, %xmm1
	vdivsd	%xmm1, %xmm0, %xmm0
	vcvtsd2ss	%xmm0, %xmm0, %xmm0
	vcvtss2sd	%xmm0, %xmm0, %xmm0
	vmovsd	%xmm0, m_Qstep
	jmp	.LBB31_97
.LBB31_96:                              # %if.else244
	vmovsd	.LCPI31_1(%rip), %xmm0  # xmm0 = mem[0],zero
	vmulsd	m_X2, %xmm0, %xmm0
	vmulsd	CurrentFrameMAD, %xmm0, %xmm0
	vmovsd	%xmm0, -64(%rbp)        # 8-byte Spill
	vmovsd	-48(%rbp), %xmm0        # xmm0 = mem[0],zero
	callq	sqrt
	vmovsd	m_X1, %xmm1             # xmm1 = mem[0],zero
	vmulsd	CurrentFrameMAD, %xmm1, %xmm1
	vsubsd	%xmm1, %xmm0, %xmm0
	vmovsd	-64(%rbp), %xmm1        # 8-byte Reload
                                        # xmm1 = mem[0],zero
	vdivsd	%xmm0, %xmm1, %xmm0
	vcvtsd2ss	%xmm0, %xmm0, %xmm0
	vcvtss2sd	%xmm0, %xmm0, %xmm0
	vmovsd	%xmm0, m_Qstep
.LBB31_97:                              # %if.end253
	vmovsd	m_Qstep, %xmm0          # xmm0 = mem[0],zero
	callq	Qstep2QP
	movl	%eax, m_Qc
	movl	m_Qp, %eax
	addl	DuantQp, %eax
	cmpl	m_Qc, %eax
	jge	.LBB31_99
# %bb.98:                               # %cond.true258
	movl	m_Qp, %eax
	addl	DuantQp, %eax
	jmp	.LBB31_100
.LBB31_99:                              # %cond.false260
	movl	m_Qc, %eax
.LBB31_100:                             # %cond.end261
	movl	%eax, m_Qc
	movl	m_Qc, %eax
	cmpl	RC_MAX_QUANT, %eax
	jge	.LBB31_102
# %bb.101:                              # %cond.true265
	movl	m_Qc, %eax
	jmp	.LBB31_103
.LBB31_102:                             # %cond.false266
	movl	RC_MAX_QUANT, %eax
.LBB31_103:                             # %cond.end267
	movl	%eax, m_Qc
	movl	m_Qp, %eax
	subl	DuantQp, %eax
	cmpl	m_Qc, %eax
	jge	.LBB31_105
# %bb.104:                              # %cond.true272
	movl	m_Qc, %eax
	jmp	.LBB31_106
.LBB31_105:                             # %cond.false273
	movl	m_Qp, %eax
	subl	DuantQp, %eax
.LBB31_106:                             # %cond.end275
	movl	%eax, m_Qc
	movl	RC_MIN_QUANT, %eax
	cmpl	m_Qc, %eax
	jge	.LBB31_108
# %bb.107:                              # %cond.true279
	movl	m_Qc, %eax
	jmp	.LBB31_109
.LBB31_108:                             # %cond.false280
	movl	RC_MIN_QUANT, %eax
.LBB31_109:                             # %cond.end281
	movl	%eax, m_Qc
.LBB31_110:                             # %if.end283
	movq	img, %rax
	cmpl	$0, 72600(%rax)
	jne	.LBB31_115
# %bb.111:                              # %if.then287
	movq	active_sps, %rax
	cmpl	$0, 1148(%rax)
	je	.LBB31_113
# %bb.112:                              # %if.then290
	movl	m_Qc, %eax
	movq	img, %rcx
	addl	72572(%rcx), %eax
	movl	%eax, 72572(%rcx)
	movl	PreviousQp2, %eax
	movl	%eax, PreviousQp1
	movl	m_Qc, %eax
	movl	%eax, PreviousQp2
	movl	m_Qc, %eax
	movl	%eax, Pm_Qp
	jmp	.LBB31_114
.LBB31_113:                             # %if.else293
	movl	m_Qc, %eax
	movl	%eax, FrameQPBuffer
.LBB31_114:                             # %if.end294
	jmp	.LBB31_115
.LBB31_115:                             # %if.end295
	movl	m_Qc, %eax
	movl	%eax, -20(%rbp)
	jmp	.LBB31_363
.LBB31_116:                             # %if.else296
	movq	img, %rax
	cmpl	$0, 24(%rax)
	jne	.LBB31_122
# %bb.117:                              # %land.lhs.true300
	movq	img, %rax
	cmpl	$0, 72612(%rax)
	jne	.LBB31_122
# %bb.118:                              # %if.then303
	movq	input, %rax
	cmpl	$1, 2880(%rax)
	jne	.LBB31_120
# %bb.119:                              # %if.then307
	movl	m_Qc, %eax
	movq	img, %rcx
	addl	72572(%rcx), %eax
	movl	%eax, 72572(%rcx)
	movl	PreviousQp2, %eax
	addl	$1, %eax
	movl	%eax, PreviousQp1
	movl	m_Qc, %eax
	movl	%eax, PreviousQp2
	movl	m_Qc, %eax
	movl	%eax, Pm_Qp
	jmp	.LBB31_121
.LBB31_120:                             # %if.else311
	movl	m_Qc, %eax
	movl	%eax, FieldQPBuffer
.LBB31_121:                             # %if.end312
	jmp	.LBB31_122
.LBB31_122:                             # %if.end313
	movl	m_Qc, %eax
	movl	%eax, -20(%rbp)
	jmp	.LBB31_363
.LBB31_123:                             # %if.else314
	movq	img, %rax
	cmpl	$2, 24(%rax)
	jne	.LBB31_125
# %bb.124:                              # %if.then318
	movl	MyInitialQp, %eax
	movl	%eax, m_Qc
	movl	m_Qc, %eax
	movl	%eax, -20(%rbp)
	jmp	.LBB31_363
.LBB31_125:                             # %if.else319
	movq	img, %rax
	cmpl	$0, 24(%rax)
	jne	.LBB31_129
# %bb.126:                              # %land.lhs.true323
	movq	img, %rax
	cmpl	$1, 72612(%rax)
	jne	.LBB31_129
# %bb.127:                              # %land.lhs.true327
	movq	img, %rax
	cmpl	$1, 72600(%rax)
	jne	.LBB31_129
# %bb.128:                              # %if.then331
	movl	MyInitialQp, %eax
	movl	%eax, m_Qc
	movl	m_Qc, %eax
	movl	%eax, -20(%rbp)
	jmp	.LBB31_363
.LBB31_129:                             # %if.else332
	movq	img, %rax
	cmpl	$1, 24(%rax)
	jne	.LBB31_196
# %bb.130:                              # %if.then336
	cmpl	$0, -36(%rbp)
	jne	.LBB31_132
# %bb.131:                              # %lor.lhs.false338
	movq	img, %rax
	cmpl	$0, 72600(%rax)
	jne	.LBB31_195
.LBB31_132:                             # %if.then342
	movq	input, %rax
	cmpl	$1, 1236(%rax)
	jne	.LBB31_151
# %bb.133:                              # %if.then346
	movq	input, %rax
	cmpl	$2, 2880(%rax)
	je	.LBB31_135
# %bb.134:                              # %lor.lhs.false350
	movq	input, %rax
	cmpl	$0, 2884(%rax)
	je	.LBB31_141
.LBB31_135:                             # %if.then353
	movq	img, %rax
	cmpl	$0, 72600(%rax)
	jne	.LBB31_140
# %bb.136:                              # %if.then357
	movq	img, %rax
	cmpl	$1, 72604(%rax)
	jne	.LBB31_138
# %bb.137:                              # %if.then361
	movl	PreviousQp2, %eax
	movl	%eax, PreviousQp1
	movl	FrameQPBuffer, %eax
	movl	%eax, PreviousQp2
	jmp	.LBB31_139
.LBB31_138:                             # %if.else362
	movl	PreviousQp2, %eax
	movl	%eax, PreviousQp1
	movl	FieldQPBuffer, %eax
	movl	%eax, PreviousQp2
.LBB31_139:                             # %if.end363
	jmp	.LBB31_140
.LBB31_140:                             # %if.end364
	jmp	.LBB31_141
.LBB31_141:                             # %if.end365
	movl	PreviousQp1, %eax
	cmpl	PreviousQp2, %eax
	jne	.LBB31_143
# %bb.142:                              # %if.then368
	movl	PreviousQp1, %eax
	addl	$2, %eax
	movl	%eax, m_Qc
	jmp	.LBB31_144
.LBB31_143:                             # %if.else370
	movl	PreviousQp1, %eax
	addl	PreviousQp2, %eax
	cltd
	movl	$2, %ecx
	idivl	%ecx
	addl	$1, %eax
	movl	%eax, m_Qc
.LBB31_144:                             # %if.end374
	movl	m_Qc, %eax
	cmpl	RC_MAX_QUANT, %eax
	jge	.LBB31_146
# %bb.145:                              # %cond.true377
	movl	m_Qc, %eax
	jmp	.LBB31_147
.LBB31_146:                             # %cond.false378
	movl	RC_MAX_QUANT, %eax
.LBB31_147:                             # %cond.end379
	movl	%eax, m_Qc
	movl	RC_MIN_QUANT, %eax
	cmpl	m_Qc, %eax
	jge	.LBB31_149
# %bb.148:                              # %cond.true383
	movl	m_Qc, %eax
	jmp	.LBB31_150
.LBB31_149:                             # %cond.false384
	movl	RC_MIN_QUANT, %eax
.LBB31_150:                             # %cond.end385
	movl	%eax, m_Qc
	jmp	.LBB31_194
.LBB31_151:                             # %if.else387
	movl	NumberofBFrames, %eax
	addl	$1, %eax
	movq	input, %rcx
	cltd
	idivl	1236(%rcx)
	movl	%edx, -12(%rbp)
	cmpl	$0, -12(%rbp)
	jne	.LBB31_153
# %bb.152:                              # %if.then393
	movq	input, %rax
	movl	1236(%rax), %eax
	movl	%eax, -12(%rbp)
.LBB31_153:                             # %if.end395
	cmpl	$1, -12(%rbp)
	jne	.LBB31_163
# %bb.154:                              # %if.then398
	movq	input, %rax
	cmpl	$2, 2880(%rax)
	je	.LBB31_156
# %bb.155:                              # %lor.lhs.false402
	movq	input, %rax
	cmpl	$0, 2884(%rax)
	je	.LBB31_162
.LBB31_156:                             # %if.then405
	movq	img, %rax
	cmpl	$0, 72600(%rax)
	jne	.LBB31_161
# %bb.157:                              # %if.then409
	movq	img, %rax
	cmpl	$1, 72604(%rax)
	jne	.LBB31_159
# %bb.158:                              # %if.then413
	movl	PreviousQp2, %eax
	movl	%eax, PreviousQp1
	movl	FrameQPBuffer, %eax
	movl	%eax, PreviousQp2
	jmp	.LBB31_160
.LBB31_159:                             # %if.else414
	movl	PreviousQp2, %eax
	movl	%eax, PreviousQp1
	movl	FieldQPBuffer, %eax
	movl	%eax, PreviousQp2
.LBB31_160:                             # %if.end415
	jmp	.LBB31_161
.LBB31_161:                             # %if.end416
	jmp	.LBB31_162
.LBB31_162:                             # %if.end417
	jmp	.LBB31_163
.LBB31_163:                             # %if.end418
	movl	PreviousQp2, %eax
	subl	PreviousQp1, %eax
	movq	input, %rcx
	imull	$4294967294, 1236(%rcx), %ecx # imm = 0xFFFFFFFE
	subl	$3, %ecx
	cmpl	%ecx, %eax
	jg	.LBB31_165
# %bb.164:                              # %if.then425
	movl	$-3, -24(%rbp)
	jmp	.LBB31_178
.LBB31_165:                             # %if.else426
	movl	PreviousQp2, %eax
	subl	PreviousQp1, %eax
	movq	input, %rcx
	imull	$4294967294, 1236(%rcx), %ecx # imm = 0xFFFFFFFE
	subl	$2, %ecx
	cmpl	%ecx, %eax
	jne	.LBB31_167
# %bb.166:                              # %if.then433
	movl	$-2, -24(%rbp)
	jmp	.LBB31_177
.LBB31_167:                             # %if.else434
	movl	PreviousQp2, %eax
	subl	PreviousQp1, %eax
	movq	input, %rcx
	imull	$4294967294, 1236(%rcx), %ecx # imm = 0xFFFFFFFE
	subl	$1, %ecx
	cmpl	%ecx, %eax
	jne	.LBB31_169
# %bb.168:                              # %if.then441
	movl	$-1, -24(%rbp)
	jmp	.LBB31_176
.LBB31_169:                             # %if.else442
	movl	PreviousQp2, %eax
	subl	PreviousQp1, %eax
	movq	input, %rcx
	imull	$4294967294, 1236(%rcx), %ecx # imm = 0xFFFFFFFE
	cmpl	%ecx, %eax
	jne	.LBB31_171
# %bb.170:                              # %if.then448
	movl	$0, -24(%rbp)
	jmp	.LBB31_175
.LBB31_171:                             # %if.else449
	movl	PreviousQp2, %eax
	subl	PreviousQp1, %eax
	movq	input, %rcx
	imull	$4294967294, 1236(%rcx), %ecx # imm = 0xFFFFFFFE
	addl	$1, %ecx
	cmpl	%ecx, %eax
	jne	.LBB31_173
# %bb.172:                              # %if.then456
	movl	$1, -24(%rbp)
	jmp	.LBB31_174
.LBB31_173:                             # %if.else457
	movl	$2, -24(%rbp)
.LBB31_174:                             # %if.end458
	jmp	.LBB31_175
.LBB31_175:                             # %if.end459
	jmp	.LBB31_176
.LBB31_176:                             # %if.end460
	jmp	.LBB31_177
.LBB31_177:                             # %if.end461
	jmp	.LBB31_178
.LBB31_178:                             # %if.end462
	movl	PreviousQp1, %eax
	addl	-24(%rbp), %eax
	movl	%eax, m_Qc
	movl	-12(%rbp), %ecx
	subl	$1, %ecx
	shll	$1, %ecx
	movl	-12(%rbp), %eax
	subl	$1, %eax
	imull	$4294967294, %eax, %esi # imm = 0xFFFFFFFE
	movl	-12(%rbp), %eax
	subl	$1, %eax
	movl	PreviousQp2, %edx
	subl	PreviousQp1, %edx
	imull	%edx, %eax
	movq	input, %rdx
	movl	1236(%rdx), %edi
	subl	$1, %edi
	cltd
	idivl	%edi
	cmpl	%eax, %esi
	jge	.LBB31_180
# %bb.179:                              # %cond.true476
	movl	-12(%rbp), %eax
	subl	$1, %eax
	movl	PreviousQp2, %edx
	subl	PreviousQp1, %edx
	imull	%edx, %eax
	movq	input, %rdx
	movl	1236(%rdx), %esi
	subl	$1, %esi
	cltd
	idivl	%esi
	jmp	.LBB31_181
.LBB31_180:                             # %cond.false483
	movl	-12(%rbp), %eax
	subl	$1, %eax
	imull	$4294967294, %eax, %eax # imm = 0xFFFFFFFE
.LBB31_181:                             # %cond.end486
	cmpl	%eax, %ecx
	jge	.LBB31_183
# %bb.182:                              # %cond.true490
	movl	-12(%rbp), %eax
	subl	$1, %eax
	shll	$1, %eax
	jmp	.LBB31_187
.LBB31_183:                             # %cond.false493
	movl	-12(%rbp), %eax
	subl	$1, %eax
	imull	$4294967294, %eax, %ecx # imm = 0xFFFFFFFE
	movl	-12(%rbp), %eax
	subl	$1, %eax
	movl	PreviousQp2, %edx
	subl	PreviousQp1, %edx
	imull	%edx, %eax
	movq	input, %rdx
	movl	1236(%rdx), %esi
	subl	$1, %esi
	cltd
	idivl	%esi
	cmpl	%eax, %ecx
	jge	.LBB31_185
# %bb.184:                              # %cond.true504
	movl	-12(%rbp), %eax
	subl	$1, %eax
	movl	PreviousQp2, %ecx
	subl	PreviousQp1, %ecx
	imull	%ecx, %eax
	movq	input, %rcx
	movl	1236(%rcx), %ecx
	subl	$1, %ecx
	cltd
	idivl	%ecx
	jmp	.LBB31_186
.LBB31_185:                             # %cond.false511
	movl	-12(%rbp), %eax
	subl	$1, %eax
	imull	$4294967294, %eax, %eax # imm = 0xFFFFFFFE
.LBB31_186:                             # %cond.end514
.LBB31_187:                             # %cond.end516
	addl	m_Qc, %eax
	movl	%eax, m_Qc
	movl	m_Qc, %eax
	cmpl	RC_MAX_QUANT, %eax
	jge	.LBB31_189
# %bb.188:                              # %cond.true521
	movl	m_Qc, %eax
	jmp	.LBB31_190
.LBB31_189:                             # %cond.false522
	movl	RC_MAX_QUANT, %eax
.LBB31_190:                             # %cond.end523
	movl	%eax, m_Qc
	movl	RC_MIN_QUANT, %eax
	cmpl	m_Qc, %eax
	jge	.LBB31_192
# %bb.191:                              # %cond.true527
	movl	m_Qc, %eax
	jmp	.LBB31_193
.LBB31_192:                             # %cond.false528
	movl	RC_MIN_QUANT, %eax
.LBB31_193:                             # %cond.end529
	movl	%eax, m_Qc
.LBB31_194:                             # %if.end531
	movl	m_Qc, %eax
	movl	%eax, -20(%rbp)
	jmp	.LBB31_363
.LBB31_195:                             # %if.else532
	movl	m_Qc, %eax
	movl	%eax, -20(%rbp)
	jmp	.LBB31_363
.LBB31_196:                             # %if.else533
	movq	img, %rax
	cmpl	$0, 24(%rax)
	jne	.LBB31_358
# %bb.197:                              # %if.then537
	movq	img, %rax
	cmpl	$1, 72568(%rax)
	jne	.LBB31_217
# %bb.198:                              # %land.lhs.true540
	movq	img, %rax
	cmpl	$0, 72576(%rax)
	jne	.LBB31_217
# %bb.199:                              # %if.then544
	movq	img, %rax
	cmpl	$0, 72600(%rax)
	je	.LBB31_202
# %bb.200:                              # %lor.lhs.false548
	movq	img, %rax
	cmpl	$1, 72600(%rax)
	jne	.LBB31_216
# %bb.201:                              # %land.lhs.true552
	movq	img, %rax
	cmpl	$0, 72612(%rax)
	jne	.LBB31_216
.LBB31_202:                             # %if.then556
	movl	MyInitialQp, %eax
	movl	%eax, m_Qc
	movq	img, %rax
	movl	$0, 72532(%rax)
	movq	img, %rax
	movl	$0, 72536(%rax)
	movl	NumberofBasicUnit, %eax
	addl	$-1, %eax
	movl	%eax, NumberofBasicUnit
	cmpl	$0, -36(%rbp)
	jne	.LBB31_215
# %bb.203:                              # %land.lhs.true558
	cmpl	$0, NumberofBasicUnit
	jne	.LBB31_215
# %bb.204:                              # %if.then561
	movq	active_sps, %rax
	cmpl	$0, 1148(%rax)
	jne	.LBB31_206
# %bb.205:                              # %lor.lhs.false564
	movq	input, %rax
	cmpl	$1, 2880(%rax)
	jne	.LBB31_207
.LBB31_206:                             # %if.then568
	movl	m_Qc, %eax
	movq	img, %rcx
	addl	72572(%rcx), %eax
	movl	%eax, 72572(%rcx)
	movl	PreviousQp2, %eax
	movl	%eax, PreviousQp1
	movl	m_Qc, %eax
	movl	%eax, PreviousQp2
	movl	m_Qc, %eax
	movl	%eax, PAveFrameQP
	movl	PAveHeaderBits2, %eax
	movl	%eax, PAveHeaderBits3
	jmp	.LBB31_214
.LBB31_207:                             # %if.else571
	movq	input, %rax
	cmpl	$2, 2880(%rax)
	je	.LBB31_209
# %bb.208:                              # %lor.lhs.false575
	movq	input, %rax
	cmpl	$0, 2884(%rax)
	je	.LBB31_213
.LBB31_209:                             # %if.then578
	movq	img, %rax
	cmpl	$0, 72600(%rax)
	jne	.LBB31_211
# %bb.210:                              # %if.then582
	movl	m_Qc, %eax
	movl	%eax, FrameQPBuffer
	movl	PAveHeaderBits2, %eax
	movl	%eax, FrameAveHeaderBits
	jmp	.LBB31_212
.LBB31_211:                             # %if.else583
	movl	m_Qc, %eax
	movl	%eax, FieldQPBuffer
	movl	PAveHeaderBits2, %eax
	movl	%eax, FieldAveHeaderBits
.LBB31_212:                             # %if.end584
	jmp	.LBB31_213
.LBB31_213:                             # %if.end585
	jmp	.LBB31_214
.LBB31_214:                             # %if.end586
	jmp	.LBB31_215
.LBB31_215:                             # %if.end587
	movl	m_Qc, %eax
	movl	%eax, Pm_Qp
	movl	m_Qc, %eax
	addl	TotalFrameQP, %eax
	movl	%eax, TotalFrameQP
	movl	m_Qc, %eax
	movl	%eax, -20(%rbp)
	jmp	.LBB31_363
.LBB31_216:                             # %if.end589
	jmp	.LBB31_357
.LBB31_217:                             # %if.else590
	vmovsd	Pm_X1, %xmm0            # xmm0 = mem[0],zero
	vmovsd	%xmm0, m_X1
	vmovsd	Pm_X2, %xmm0            # xmm0 = mem[0],zero
	vmovsd	%xmm0, m_X2
	movl	PPreHeader, %eax
	movl	%eax, m_Hp
	movl	Pm_Qp, %eax
	movl	%eax, m_Qp
	movl	PDuantQp, %eax
	movl	%eax, DuantQp
	vmovsd	PMADPictureC1, %xmm0    # xmm0 = mem[0],zero
	vmovsd	%xmm0, MADPictureC1
	vmovsd	PMADPictureC2, %xmm0    # xmm0 = mem[0],zero
	vmovsd	%xmm0, MADPictureC2
	movq	img, %rax
	cmpl	$0, 72600(%rax)
	jne	.LBB31_219
# %bb.218:                              # %if.then594
	movl	TotalNumberofBasicUnit, %eax
	movl	%eax, -52(%rbp)
	jmp	.LBB31_220
.LBB31_219:                             # %if.else595
	movl	TotalNumberofBasicUnit, %eax
	cltd
	movl	$2, %ecx
	idivl	%ecx
	movl	%eax, -52(%rbp)
.LBB31_220:                             # %if.end597
	movl	NumberofBasicUnit, %eax
	cmpl	-52(%rbp), %eax
	jne	.LBB31_241
# %bb.221:                              # %if.then600
	movq	input, %rax
	cmpl	$2, 2880(%rax)
	je	.LBB31_223
# %bb.222:                              # %lor.lhs.false604
	movq	input, %rax
	cmpl	$0, 2884(%rax)
	je	.LBB31_232
.LBB31_223:                             # %land.lhs.true607
	movq	img, %rax
	cmpl	$0, 72600(%rax)
	jne	.LBB31_232
# %bb.224:                              # %if.then611
	movq	img, %rax
	cmpl	$1, 72604(%rax)
	jne	.LBB31_228
# %bb.225:                              # %if.then615
	movq	img, %rax
	cmpl	$0, 72576(%rax)
	jle	.LBB31_227
# %bb.226:                              # %if.then619
	movl	FrameQPBuffer, %eax
	movq	img, %rcx
	addl	72572(%rcx), %eax
	movl	%eax, 72572(%rcx)
.LBB31_227:                             # %if.end622
	movl	FrameQPBuffer, %eax
	movl	%eax, PAveFrameQP
	movl	FrameAveHeaderBits, %eax
	movl	%eax, PAveHeaderBits3
	jmp	.LBB31_231
.LBB31_228:                             # %if.else623
	movq	img, %rax
	cmpl	$0, 72576(%rax)
	jle	.LBB31_230
# %bb.229:                              # %if.then627
	movl	FieldQPBuffer, %eax
	movq	img, %rcx
	addl	72572(%rcx), %eax
	movl	%eax, 72572(%rcx)
.LBB31_230:                             # %if.end630
	movl	FieldQPBuffer, %eax
	movl	%eax, PAveFrameQP
	movl	FieldAveHeaderBits, %eax
	movl	%eax, PAveHeaderBits3
.LBB31_231:                             # %if.end631
	jmp	.LBB31_232
.LBB31_232:                             # %if.end632
	cmpq	$0, T
	jg	.LBB31_239
# %bb.233:                              # %if.then635
	movl	PAveFrameQP, %eax
	addl	$2, %eax
	movl	%eax, m_Qc
	movl	m_Qc, %eax
	cmpl	RC_MAX_QUANT, %eax
	jle	.LBB31_235
# %bb.234:                              # %if.then639
	movl	RC_MAX_QUANT, %eax
	movl	%eax, m_Qc
.LBB31_235:                             # %if.end640
	cmpl	$0, -36(%rbp)
	jne	.LBB31_237
# %bb.236:                              # %lor.lhs.false642
	movq	img, %rax
	cmpl	$0, 72600(%rax)
	jne	.LBB31_238
.LBB31_237:                             # %if.then646
	movl	$1, GOPOverdue
.LBB31_238:                             # %if.end647
	jmp	.LBB31_240
.LBB31_239:                             # %if.else648
	movl	PAveFrameQP, %eax
	movl	%eax, m_Qc
.LBB31_240:                             # %if.end649
	movl	m_Qc, %eax
	addl	TotalFrameQP, %eax
	movl	%eax, TotalFrameQP
	movl	NumberofBasicUnit, %eax
	addl	$-1, %eax
	movl	%eax, NumberofBasicUnit
	movl	PAveFrameQP, %eax
	movl	%eax, Pm_Qp
	movl	m_Qc, %eax
	movl	%eax, -20(%rbp)
	jmp	.LBB31_363
.LBB31_241:                             # %if.else652
	movq	img, %rax
	movl	72532(%rax), %eax
	movq	img, %rcx
	addl	72536(%rcx), %eax
	movl	%eax, TotalBasicUnitBits
	movslq	TotalBasicUnitBits, %rax
	movq	T, %rcx
	subq	%rax, %rcx
	movq	%rcx, T
	movq	img, %rax
	movl	$0, 72532(%rax)
	movq	img, %rax
	movl	$0, 72536(%rax)
	cmpq	$0, T
	jge	.LBB31_287
# %bb.242:                              # %if.then662
	cmpl	$1, GOPOverdue
	jne	.LBB31_244
# %bb.243:                              # %if.then665
	movl	m_Qp, %eax
	addl	$2, %eax
	movl	%eax, m_Qc
	jmp	.LBB31_245
.LBB31_244:                             # %if.else667
	movl	m_Qp, %eax
	addl	DDquant, %eax
	movl	%eax, m_Qc
.LBB31_245:                             # %if.end669
	movl	m_Qc, %eax
	cmpl	RC_MAX_QUANT, %eax
	jge	.LBB31_247
# %bb.246:                              # %cond.true672
	movl	m_Qc, %eax
	jmp	.LBB31_248
.LBB31_247:                             # %cond.false673
	movl	RC_MAX_QUANT, %eax
.LBB31_248:                             # %cond.end674
	movl	%eax, m_Qc
	movq	input, %rax
	movl	3248(%rax), %eax
	cmpl	MBPerRow, %eax
	jl	.LBB31_253
# %bb.249:                              # %if.then678
	movl	m_Qc, %eax
	movl	PAveFrameQP, %ecx
	addl	$6, %ecx
	cmpl	%ecx, %eax
	jge	.LBB31_251
# %bb.250:                              # %cond.true682
	movl	m_Qc, %eax
	jmp	.LBB31_252
.LBB31_251:                             # %cond.false683
	movl	PAveFrameQP, %eax
	addl	$6, %eax
.LBB31_252:                             # %cond.end685
	movl	%eax, m_Qc
	jmp	.LBB31_257
.LBB31_253:                             # %if.else687
	movl	m_Qc, %eax
	movl	PAveFrameQP, %ecx
	addl	$3, %ecx
	cmpl	%ecx, %eax
	jge	.LBB31_255
# %bb.254:                              # %cond.true691
	movl	m_Qc, %eax
	jmp	.LBB31_256
.LBB31_255:                             # %cond.false692
	movl	PAveFrameQP, %eax
	addl	$3, %eax
.LBB31_256:                             # %cond.end694
	movl	%eax, m_Qc
.LBB31_257:                             # %if.end696
	movl	m_Qc, %eax
	addl	TotalFrameQP, %eax
	movl	%eax, TotalFrameQP
	movl	NumberofBasicUnit, %eax
	addl	$-1, %eax
	movl	%eax, NumberofBasicUnit
	cmpl	$0, NumberofBasicUnit
	jne	.LBB31_283
# %bb.258:                              # %if.then701
	cmpl	$0, -36(%rbp)
	je	.LBB31_260
# %bb.259:                              # %lor.lhs.false703
	movq	img, %rax
	cmpl	$0, 72600(%rax)
	jne	.LBB31_282
.LBB31_260:                             # %if.then707
	movq	active_sps, %rax
	cmpl	$0, 1148(%rax)
	jne	.LBB31_262
# %bb.261:                              # %lor.lhs.false710
	movq	input, %rax
	cmpl	$1, 2880(%rax)
	jne	.LBB31_274
.LBB31_262:                             # %if.then714
	vmovsd	.LCPI31_2(%rip), %xmm0  # xmm0 = mem[0],zero
	vmovsd	.LCPI31_3(%rip), %xmm1  # xmm1 = mem[0],zero
	vcvtsi2sdl	TotalFrameQP, %xmm0, %xmm2
	vmulsd	%xmm2, %xmm1, %xmm1
	vcvtsi2sdl	TotalNumberofBasicUnit, %xmm0, %xmm2
	vdivsd	%xmm2, %xmm1, %xmm1
	vaddsd	%xmm0, %xmm1, %xmm0
	vcvttsd2si	%xmm0, %eax
	movl	%eax, -16(%rbp)
	movq	img, %rax
	movl	72576(%rax), %eax
	movq	input, %rcx
	movl	1224(%rcx), %ecx
	subl	$2, %ecx
	cmpl	%ecx, %eax
	jne	.LBB31_264
# %bb.263:                              # %if.then725
	movl	-16(%rbp), %eax
	movl	%eax, QPLastPFrame
.LBB31_264:                             # %if.end726
	movl	-16(%rbp), %eax
	movq	img, %rcx
	addl	72572(%rcx), %eax
	movl	%eax, 72572(%rcx)
	cmpl	$1, GOPOverdue
	jne	.LBB31_266
# %bb.265:                              # %if.then731
	movl	PreviousQp2, %eax
	addl	$1, %eax
	movl	%eax, PreviousQp1
	movl	-16(%rbp), %eax
	movl	%eax, PreviousQp2
	jmp	.LBB31_273
.LBB31_266:                             # %if.else733
	movq	img, %rax
	cmpl	$0, 72576(%rax)
	jne	.LBB31_269
# %bb.267:                              # %land.lhs.true737
	movq	img, %rax
	cmpl	$1, 72568(%rax)
	jle	.LBB31_269
# %bb.268:                              # %if.then741
	movl	PreviousQp2, %eax
	movl	%eax, PreviousQp1
	movl	-16(%rbp), %eax
	movl	%eax, PreviousQp2
	jmp	.LBB31_272
.LBB31_269:                             # %if.else742
	movq	img, %rax
	cmpl	$0, 72576(%rax)
	jle	.LBB31_271
# %bb.270:                              # %if.then746
	movl	PreviousQp2, %eax
	addl	$1, %eax
	movl	%eax, PreviousQp1
	movl	-16(%rbp), %eax
	movl	%eax, PreviousQp2
.LBB31_271:                             # %if.end748
	jmp	.LBB31_272
.LBB31_272:                             # %if.end749
	jmp	.LBB31_273
.LBB31_273:                             # %if.end750
	movl	-16(%rbp), %eax
	movl	%eax, PAveFrameQP
	movl	PAveHeaderBits2, %eax
	movl	%eax, PAveHeaderBits3
	jmp	.LBB31_281
.LBB31_274:                             # %if.else751
	movq	input, %rax
	cmpl	$2, 2880(%rax)
	je	.LBB31_276
# %bb.275:                              # %lor.lhs.false755
	movq	input, %rax
	cmpl	$0, 2884(%rax)
	je	.LBB31_280
.LBB31_276:                             # %if.then758
	movq	img, %rax
	cmpl	$0, 72600(%rax)
	jne	.LBB31_278
# %bb.277:                              # %if.then762
	vmovsd	.LCPI31_2(%rip), %xmm0  # xmm0 = mem[0],zero
	vmovsd	.LCPI31_3(%rip), %xmm1  # xmm1 = mem[0],zero
	vcvtsi2sdl	TotalFrameQP, %xmm0, %xmm2
	vmulsd	%xmm2, %xmm1, %xmm1
	vcvtsi2sdl	TotalNumberofBasicUnit, %xmm0, %xmm2
	vdivsd	%xmm2, %xmm1, %xmm1
	vaddsd	%xmm0, %xmm1, %xmm0
	vcvttsd2si	%xmm0, %eax
	movl	%eax, -16(%rbp)
	movl	-16(%rbp), %eax
	movl	%eax, FrameQPBuffer
	movl	PAveHeaderBits2, %eax
	movl	%eax, FrameAveHeaderBits
	jmp	.LBB31_279
.LBB31_278:                             # %if.else769
	vmovsd	.LCPI31_2(%rip), %xmm0  # xmm0 = mem[0],zero
	vmovsd	.LCPI31_3(%rip), %xmm1  # xmm1 = mem[0],zero
	vcvtsi2sdl	TotalFrameQP, %xmm0, %xmm2
	vmulsd	%xmm2, %xmm1, %xmm1
	vcvtsi2sdl	TotalNumberofBasicUnit, %xmm0, %xmm2
	vdivsd	%xmm2, %xmm1, %xmm1
	vaddsd	%xmm0, %xmm1, %xmm0
	vcvttsd2si	%xmm0, %eax
	movl	%eax, -16(%rbp)
	movl	-16(%rbp), %eax
	movl	%eax, FieldQPBuffer
	movl	PAveHeaderBits2, %eax
	movl	%eax, FieldAveHeaderBits
.LBB31_279:                             # %if.end776
	jmp	.LBB31_280
.LBB31_280:                             # %if.end777
	jmp	.LBB31_281
.LBB31_281:                             # %if.end778
	jmp	.LBB31_282
.LBB31_282:                             # %if.end779
	jmp	.LBB31_283
.LBB31_283:                             # %if.end780
	cmpl	$1, GOPOverdue
	jne	.LBB31_285
# %bb.284:                              # %if.then783
	movl	PAveFrameQP, %eax
	movl	%eax, Pm_Qp
	jmp	.LBB31_286
.LBB31_285:                             # %if.else784
	movl	m_Qc, %eax
	movl	%eax, Pm_Qp
.LBB31_286:                             # %if.end785
	movl	m_Qc, %eax
	movl	%eax, -20(%rbp)
	jmp	.LBB31_363
.LBB31_287:                             # %if.else786
	movq	input, %rax
	cmpl	$2, 2880(%rax)
	je	.LBB31_289
# %bb.288:                              # %lor.lhs.false790
	movq	input, %rax
	cmpl	$0, 2884(%rax)
	je	.LBB31_295
.LBB31_289:                             # %land.lhs.true793
	movq	img, %rax
	cmpl	$1, 72600(%rax)
	jne	.LBB31_295
# %bb.290:                              # %if.then797
	vmovsd	MADPictureC1, %xmm0     # xmm0 = mem[0],zero
	movq	FCBUPFMAD, %rax
	movl	TotalNumberofBasicUnit, %ecx
	subl	NumberofBasicUnit, %ecx
	movslq	%ecx, %rcx
	vmulsd	(%rax,%rcx,8), %xmm0, %xmm0
	vaddsd	MADPictureC2, %xmm0, %xmm0
	vmovsd	%xmm0, CurrentFrameMAD
	vxorps	%xmm0, %xmm0, %xmm0
	vmovsd	%xmm0, TotalBUMAD
	movl	TotalNumberofBasicUnit, %eax
	subl	$1, %eax
	movl	%eax, -32(%rbp)
.LBB31_291:                             # %for.cond
                                        # =>This Inner Loop Header: Depth=1
	movl	-32(%rbp), %eax
	movl	TotalNumberofBasicUnit, %ecx
	subl	NumberofBasicUnit, %ecx
	cmpl	%ecx, %eax
	jl	.LBB31_294
# %bb.292:                              # %for.body
                                        #   in Loop: Header=BB31_291 Depth=1
	vmovsd	MADPictureC1, %xmm0     # xmm0 = mem[0],zero
	movq	FCBUPFMAD, %rax
	movslq	-32(%rbp), %rcx
	vmulsd	(%rax,%rcx,8), %xmm0, %xmm0
	vaddsd	MADPictureC2, %xmm0, %xmm0
	vmovsd	%xmm0, CurrentBUMAD
	vmovsd	CurrentBUMAD, %xmm0     # xmm0 = mem[0],zero
	vmulsd	CurrentBUMAD, %xmm0, %xmm0
	vaddsd	TotalBUMAD, %xmm0, %xmm0
	vmovsd	%xmm0, TotalBUMAD
# %bb.293:                              # %for.inc
                                        #   in Loop: Header=BB31_291 Depth=1
	movl	-32(%rbp), %eax
	addl	$-1, %eax
	movl	%eax, -32(%rbp)
	jmp	.LBB31_291
.LBB31_294:                             # %for.end
	jmp	.LBB31_300
.LBB31_295:                             # %if.else812
	vmovsd	MADPictureC1, %xmm0     # xmm0 = mem[0],zero
	movq	BUPFMAD, %rax
	movl	TotalNumberofBasicUnit, %ecx
	subl	NumberofBasicUnit, %ecx
	movslq	%ecx, %rcx
	vmulsd	(%rax,%rcx,8), %xmm0, %xmm0
	vaddsd	MADPictureC2, %xmm0, %xmm0
	vmovsd	%xmm0, CurrentFrameMAD
	vxorps	%xmm0, %xmm0, %xmm0
	vmovsd	%xmm0, TotalBUMAD
	movl	TotalNumberofBasicUnit, %eax
	subl	$1, %eax
	movl	%eax, -32(%rbp)
.LBB31_296:                             # %for.cond819
                                        # =>This Inner Loop Header: Depth=1
	movl	-32(%rbp), %eax
	movl	TotalNumberofBasicUnit, %ecx
	subl	NumberofBasicUnit, %ecx
	cmpl	%ecx, %eax
	jl	.LBB31_299
# %bb.297:                              # %for.body823
                                        #   in Loop: Header=BB31_296 Depth=1
	vmovsd	MADPictureC1, %xmm0     # xmm0 = mem[0],zero
	movq	BUPFMAD, %rax
	movslq	-32(%rbp), %rcx
	vmulsd	(%rax,%rcx,8), %xmm0, %xmm0
	vaddsd	MADPictureC2, %xmm0, %xmm0
	vmovsd	%xmm0, CurrentBUMAD
	vmovsd	CurrentBUMAD, %xmm0     # xmm0 = mem[0],zero
	vmulsd	CurrentBUMAD, %xmm0, %xmm0
	vaddsd	TotalBUMAD, %xmm0, %xmm0
	vmovsd	%xmm0, TotalBUMAD
# %bb.298:                              # %for.inc830
                                        #   in Loop: Header=BB31_296 Depth=1
	movl	-32(%rbp), %eax
	addl	$-1, %eax
	movl	%eax, -32(%rbp)
	jmp	.LBB31_296
.LBB31_299:                             # %for.end832
	jmp	.LBB31_300
.LBB31_300:                             # %if.end833
	vcvtsi2sdq	T, %xmm0, %xmm0
	vmulsd	CurrentFrameMAD, %xmm0, %xmm0
	vmulsd	CurrentFrameMAD, %xmm0, %xmm0
	vdivsd	TotalBUMAD, %xmm0, %xmm0
	vcvttsd2si	%xmm0, %eax
	movl	%eax, -28(%rbp)
	movl	PAveHeaderBits2, %eax
	movl	-28(%rbp), %ecx
	subl	%eax, %ecx
	movl	%ecx, -28(%rbp)
	movl	-28(%rbp), %eax
	vmovsd	bit_rate, %xmm0         # xmm0 = mem[0],zero
	vmovsd	MINVALUE, %xmm1         # xmm1 = mem[0],zero
	vmulsd	frame_rate, %xmm1, %xmm1
	vcvtsi2sdl	TotalNumberofBasicUnit, %xmm0, %xmm2
	vmulsd	%xmm2, %xmm1, %xmm1
	vdivsd	%xmm1, %xmm0, %xmm0
	vcvttsd2si	%xmm0, %ecx
	cmpl	%ecx, %eax
	jge	.LBB31_302
# %bb.301:                              # %cond.true847
	vmovsd	bit_rate, %xmm0         # xmm0 = mem[0],zero
	vmovsd	MINVALUE, %xmm1         # xmm1 = mem[0],zero
	vmulsd	frame_rate, %xmm1, %xmm1
	vcvtsi2sdl	TotalNumberofBasicUnit, %xmm0, %xmm2
	vmulsd	%xmm2, %xmm1, %xmm1
	vdivsd	%xmm1, %xmm0, %xmm0
	vcvttsd2si	%xmm0, %eax
	jmp	.LBB31_303
.LBB31_302:                             # %cond.false853
	movl	-28(%rbp), %eax
.LBB31_303:                             # %cond.end854
	vmovsd	.LCPI31_0(%rip), %xmm0  # xmm0 = mem[0],zero
	movl	%eax, -28(%rbp)
	vmovsd	CurrentFrameMAD, %xmm1  # xmm1 = mem[0],zero
	vmulsd	m_X1, %xmm1, %xmm1
	vmulsd	CurrentFrameMAD, %xmm1, %xmm1
	vmulsd	m_X1, %xmm1, %xmm1
	vmulsd	m_X2, %xmm0, %xmm0
	vmulsd	CurrentFrameMAD, %xmm0, %xmm0
	vcvtsi2sdl	-28(%rbp), %xmm0, %xmm2
	vmulsd	%xmm2, %xmm0, %xmm0
	vaddsd	%xmm0, %xmm1, %xmm0
	vmovsd	%xmm0, -48(%rbp)
	vmovsd	m_X2, %xmm0             # xmm0 = mem[0],zero
	vxorps	%xmm1, %xmm1, %xmm1
	vucomisd	%xmm1, %xmm0
	jne	.LBB31_304
	jp	.LBB31_304
	jmp	.LBB31_306
.LBB31_304:                             # %lor.lhs.false866
	vxorps	%xmm0, %xmm0, %xmm0
	vucomisd	-48(%rbp), %xmm0
	ja	.LBB31_306
# %bb.305:                              # %lor.lhs.false869
	vmovsd	-48(%rbp), %xmm0        # xmm0 = mem[0],zero
	callq	sqrt
	vmovsd	m_X1, %xmm1             # xmm1 = mem[0],zero
	vmulsd	CurrentFrameMAD, %xmm1, %xmm1
	vsubsd	%xmm1, %xmm0, %xmm0
	vxorps	%xmm1, %xmm1, %xmm1
	vucomisd	%xmm0, %xmm1
	jb	.LBB31_307
.LBB31_306:                             # %if.then875
	vmovsd	m_X1, %xmm0             # xmm0 = mem[0],zero
	vmulsd	CurrentFrameMAD, %xmm0, %xmm0
	vcvtsi2sdl	-28(%rbp), %xmm0, %xmm1
	vdivsd	%xmm1, %xmm0, %xmm0
	vcvtsd2ss	%xmm0, %xmm0, %xmm0
	vcvtss2sd	%xmm0, %xmm0, %xmm0
	vmovsd	%xmm0, m_Qstep
	jmp	.LBB31_308
.LBB31_307:                             # %if.else881
	vmovsd	.LCPI31_1(%rip), %xmm0  # xmm0 = mem[0],zero
	vmulsd	m_X2, %xmm0, %xmm0
	vmulsd	CurrentFrameMAD, %xmm0, %xmm0
	vmovsd	%xmm0, -72(%rbp)        # 8-byte Spill
	vmovsd	-48(%rbp), %xmm0        # xmm0 = mem[0],zero
	callq	sqrt
	vmovsd	m_X1, %xmm1             # xmm1 = mem[0],zero
	vmulsd	CurrentFrameMAD, %xmm1, %xmm1
	vsubsd	%xmm1, %xmm0, %xmm0
	vmovsd	-72(%rbp), %xmm1        # 8-byte Reload
                                        # xmm1 = mem[0],zero
	vdivsd	%xmm0, %xmm1, %xmm0
	vcvtsd2ss	%xmm0, %xmm0, %xmm0
	vcvtss2sd	%xmm0, %xmm0, %xmm0
	vmovsd	%xmm0, m_Qstep
.LBB31_308:                             # %if.end890
	vmovsd	m_Qstep, %xmm0          # xmm0 = mem[0],zero
	callq	Qstep2QP
	movl	%eax, m_Qc
	movl	m_Qp, %eax
	addl	DDquant, %eax
	cmpl	m_Qc, %eax
	jge	.LBB31_310
# %bb.309:                              # %cond.true895
	movl	m_Qp, %eax
	addl	DDquant, %eax
	jmp	.LBB31_311
.LBB31_310:                             # %cond.false897
	movl	m_Qc, %eax
.LBB31_311:                             # %cond.end898
	movl	%eax, m_Qc
	movq	input, %rax
	movl	3248(%rax), %eax
	cmpl	MBPerRow, %eax
	jl	.LBB31_316
# %bb.312:                              # %if.then903
	movl	PAveFrameQP, %eax
	addl	$6, %eax
	cmpl	m_Qc, %eax
	jge	.LBB31_314
# %bb.313:                              # %cond.true907
	movl	PAveFrameQP, %eax
	addl	$6, %eax
	jmp	.LBB31_315
.LBB31_314:                             # %cond.false909
	movl	m_Qc, %eax
.LBB31_315:                             # %cond.end910
	movl	%eax, m_Qc
	jmp	.LBB31_320
.LBB31_316:                             # %if.else912
	movl	PAveFrameQP, %eax
	addl	$3, %eax
	cmpl	m_Qc, %eax
	jge	.LBB31_318
# %bb.317:                              # %cond.true916
	movl	PAveFrameQP, %eax
	addl	$3, %eax
	jmp	.LBB31_319
.LBB31_318:                             # %cond.false918
	movl	m_Qc, %eax
.LBB31_319:                             # %cond.end919
	movl	%eax, m_Qc
.LBB31_320:                             # %if.end921
	movl	m_Qc, %eax
	cmpl	RC_MAX_QUANT, %eax
	jge	.LBB31_322
# %bb.321:                              # %cond.true924
	movl	m_Qc, %eax
	jmp	.LBB31_323
.LBB31_322:                             # %cond.false925
	movl	RC_MAX_QUANT, %eax
.LBB31_323:                             # %cond.end926
	movl	%eax, m_Qc
	movl	m_Qp, %eax
	subl	DDquant, %eax
	cmpl	m_Qc, %eax
	jge	.LBB31_325
# %bb.324:                              # %cond.true931
	movl	m_Qc, %eax
	jmp	.LBB31_326
.LBB31_325:                             # %cond.false932
	movl	m_Qp, %eax
	subl	DDquant, %eax
.LBB31_326:                             # %cond.end934
	movl	%eax, m_Qc
	movq	input, %rax
	movl	3248(%rax), %eax
	cmpl	MBPerRow, %eax
	jl	.LBB31_331
# %bb.327:                              # %if.then939
	movl	PAveFrameQP, %eax
	subl	$6, %eax
	cmpl	m_Qc, %eax
	jge	.LBB31_329
# %bb.328:                              # %cond.true943
	movl	m_Qc, %eax
	jmp	.LBB31_330
.LBB31_329:                             # %cond.false944
	movl	PAveFrameQP, %eax
	subl	$6, %eax
.LBB31_330:                             # %cond.end946
	movl	%eax, m_Qc
	jmp	.LBB31_335
.LBB31_331:                             # %if.else948
	movl	PAveFrameQP, %eax
	subl	$3, %eax
	cmpl	m_Qc, %eax
	jge	.LBB31_333
# %bb.332:                              # %cond.true952
	movl	m_Qc, %eax
	jmp	.LBB31_334
.LBB31_333:                             # %cond.false953
	movl	PAveFrameQP, %eax
	subl	$3, %eax
.LBB31_334:                             # %cond.end955
	movl	%eax, m_Qc
.LBB31_335:                             # %if.end957
	movl	RC_MIN_QUANT, %eax
	cmpl	m_Qc, %eax
	jge	.LBB31_337
# %bb.336:                              # %cond.true960
	movl	m_Qc, %eax
	jmp	.LBB31_338
.LBB31_337:                             # %cond.false961
	movl	RC_MIN_QUANT, %eax
.LBB31_338:                             # %cond.end962
	movl	%eax, m_Qc
	movl	m_Qc, %eax
	addl	TotalFrameQP, %eax
	movl	%eax, TotalFrameQP
	movl	m_Qc, %eax
	movl	%eax, Pm_Qp
	movl	NumberofBasicUnit, %eax
	addl	$-1, %eax
	movl	%eax, NumberofBasicUnit
	cmpl	$0, NumberofBasicUnit
	jne	.LBB31_356
# %bb.339:                              # %land.lhs.true968
	movq	img, %rax
	cmpl	$0, 24(%rax)
	jne	.LBB31_356
# %bb.340:                              # %if.then972
	cmpl	$0, -36(%rbp)
	je	.LBB31_342
# %bb.341:                              # %lor.lhs.false974
	movq	img, %rax
	cmpl	$0, 72600(%rax)
	jne	.LBB31_355
.LBB31_342:                             # %if.then978
	movq	active_sps, %rax
	cmpl	$0, 1148(%rax)
	jne	.LBB31_344
# %bb.343:                              # %lor.lhs.false981
	movq	input, %rax
	cmpl	$1, 2880(%rax)
	jne	.LBB31_347
.LBB31_344:                             # %if.then985
	vmovsd	.LCPI31_2(%rip), %xmm0  # xmm0 = mem[0],zero
	vmovsd	.LCPI31_3(%rip), %xmm1  # xmm1 = mem[0],zero
	vcvtsi2sdl	TotalFrameQP, %xmm0, %xmm2
	vmulsd	%xmm2, %xmm1, %xmm1
	vcvtsi2sdl	TotalNumberofBasicUnit, %xmm0, %xmm2
	vdivsd	%xmm2, %xmm1, %xmm1
	vaddsd	%xmm0, %xmm1, %xmm0
	vcvttsd2si	%xmm0, %eax
	movl	%eax, -16(%rbp)
	movq	img, %rax
	movl	72576(%rax), %eax
	movq	input, %rcx
	movl	1224(%rcx), %ecx
	subl	$2, %ecx
	cmpl	%ecx, %eax
	jne	.LBB31_346
# %bb.345:                              # %if.then997
	movl	-16(%rbp), %eax
	movl	%eax, QPLastPFrame
.LBB31_346:                             # %if.end998
	movl	-16(%rbp), %eax
	movq	img, %rcx
	addl	72572(%rcx), %eax
	movl	%eax, 72572(%rcx)
	movl	PreviousQp2, %eax
	movl	%eax, PreviousQp1
	movl	-16(%rbp), %eax
	movl	%eax, PreviousQp2
	movl	-16(%rbp), %eax
	movl	%eax, PAveFrameQP
	movl	PAveHeaderBits2, %eax
	movl	%eax, PAveHeaderBits3
	jmp	.LBB31_354
.LBB31_347:                             # %if.else1001
	movq	input, %rax
	cmpl	$2, 2880(%rax)
	je	.LBB31_349
# %bb.348:                              # %lor.lhs.false1005
	movq	input, %rax
	cmpl	$0, 2884(%rax)
	je	.LBB31_353
.LBB31_349:                             # %if.then1008
	movq	img, %rax
	cmpl	$0, 72600(%rax)
	jne	.LBB31_351
# %bb.350:                              # %if.then1012
	vmovsd	.LCPI31_2(%rip), %xmm0  # xmm0 = mem[0],zero
	vmovsd	.LCPI31_3(%rip), %xmm1  # xmm1 = mem[0],zero
	vcvtsi2sdl	TotalFrameQP, %xmm0, %xmm2
	vmulsd	%xmm2, %xmm1, %xmm1
	vcvtsi2sdl	TotalNumberofBasicUnit, %xmm0, %xmm2
	vdivsd	%xmm2, %xmm1, %xmm1
	vaddsd	%xmm0, %xmm1, %xmm0
	vcvttsd2si	%xmm0, %eax
	movl	%eax, -16(%rbp)
	movl	-16(%rbp), %eax
	movl	%eax, FrameQPBuffer
	movl	PAveHeaderBits2, %eax
	movl	%eax, FrameAveHeaderBits
	jmp	.LBB31_352
.LBB31_351:                             # %if.else1019
	vmovsd	.LCPI31_2(%rip), %xmm0  # xmm0 = mem[0],zero
	vmovsd	.LCPI31_3(%rip), %xmm1  # xmm1 = mem[0],zero
	vcvtsi2sdl	TotalFrameQP, %xmm0, %xmm2
	vmulsd	%xmm2, %xmm1, %xmm1
	vcvtsi2sdl	TotalNumberofBasicUnit, %xmm0, %xmm2
	vdivsd	%xmm2, %xmm1, %xmm1
	vaddsd	%xmm0, %xmm1, %xmm0
	vcvttsd2si	%xmm0, %eax
	movl	%eax, -16(%rbp)
	movl	-16(%rbp), %eax
	movl	%eax, FieldQPBuffer
	movl	PAveHeaderBits2, %eax
	movl	%eax, FieldAveHeaderBits
.LBB31_352:                             # %if.end1026
	jmp	.LBB31_353
.LBB31_353:                             # %if.end1027
	jmp	.LBB31_354
.LBB31_354:                             # %if.end1028
	jmp	.LBB31_355
.LBB31_355:                             # %if.end1029
	jmp	.LBB31_356
.LBB31_356:                             # %if.end1030
	movl	m_Qc, %eax
	movl	%eax, -20(%rbp)
	jmp	.LBB31_363
.LBB31_357:                             # %if.end1031
	jmp	.LBB31_358
.LBB31_358:                             # %if.end1032
	jmp	.LBB31_359
.LBB31_359:                             # %if.end1033
	jmp	.LBB31_360
.LBB31_360:                             # %if.end1034
	jmp	.LBB31_361
.LBB31_361:                             # %if.end1035
	jmp	.LBB31_362
.LBB31_362:                             # %if.end1036
	movl	m_Qc, %eax
	movl	%eax, -20(%rbp)
.LBB31_363:                             # %return
	movl	-20(%rbp), %ebx
	cmpl	$1929905507, -56(%rbp)  # imm = 0x73080563
	jne	.LBB31_365
.LBB31_364:
	movl	%ebx, %eax
	addq	$72, %rsp
	popq	%rbx
	popq	%rbp
	.cfi_def_cfa %rsp, 8
	retq
.LBB31_365:                             # %func_exit
	.cfi_def_cfa %rbp, 16
	callq	detect_breach
	jmp	.LBB31_364
.Lfunc_end31:
	.size	updateQuantizationParameter.15, .Lfunc_end31-updateQuantizationParameter.15
	.cfi_endproc
                                        # -- End function
	.section	.rodata.cst8,"aM",@progbits,8
	.p2align	3               # -- Begin function updateQuantizationParameter.16
.LCPI32_0:
	.quad	4616189618054758400     # double 4
.LCPI32_1:
	.quad	4611686018427387904     # double 2
.LCPI32_2:
	.quad	4602678819172646912     # double 0.5
.LCPI32_3:
	.quad	4607182418800017408     # double 1
	.text
	.globl	updateQuantizationParameter.16
	.p2align	4, 0x90
	.type	updateQuantizationParameter.16,@function
updateQuantizationParameter.16:         # @updateQuantizationParameter.16
	.cfi_startproc
# %bb.0:                                # %entry
	pushq	%rbp
	.cfi_def_cfa_offset 16
	.cfi_offset %rbp, -16
	movq	%rsp, %rbp
	.cfi_def_cfa_register %rbp
	pushq	%rbx
	subq	$72, %rsp
	.cfi_offset %rbx, -24
	movl	$316209675, -56(%rbp)   # imm = 0x12D8FA0B
	movl	%edi, -36(%rbp)
	movq	img, %rax
	movl	72620(%rax), %eax
	movq	img, %rcx
	cmpl	72608(%rcx), %eax
	jne	.LBB32_123
# %bb.1:                                # %if.then
	cmpl	$0, -36(%rbp)
	jne	.LBB32_3
# %bb.2:                                # %lor.lhs.false
	movq	img, %rax
	cmpl	$0, 72600(%rax)
	jne	.LBB32_116
.LBB32_3:                               # %if.then2
	movq	img, %rax
	cmpl	$2, 24(%rax)
	jne	.LBB32_5
# %bb.4:                                # %if.then4
	movl	MyInitialQp, %eax
	movl	%eax, m_Qc
	movl	m_Qc, %eax
	movl	%eax, -20(%rbp)
	jmp	.LBB32_363
.LBB32_5:                               # %if.else
	movq	img, %rax
	cmpl	$1, 24(%rax)
	jne	.LBB32_69
# %bb.6:                                # %if.then7
	movq	input, %rax
	cmpl	$1, 1236(%rax)
	jne	.LBB32_25
# %bb.7:                                # %if.then9
	movq	input, %rax
	cmpl	$2, 2880(%rax)
	je	.LBB32_9
# %bb.8:                                # %lor.lhs.false11
	movq	input, %rax
	cmpl	$0, 2884(%rax)
	je	.LBB32_15
.LBB32_9:                               # %if.then13
	movq	img, %rax
	cmpl	$0, 72600(%rax)
	jne	.LBB32_14
# %bb.10:                               # %if.then16
	movq	img, %rax
	cmpl	$1, 72604(%rax)
	jne	.LBB32_12
# %bb.11:                               # %if.then18
	movl	PreviousQp2, %eax
	movl	%eax, PreviousQp1
	movl	FrameQPBuffer, %eax
	movl	%eax, PreviousQp2
	jmp	.LBB32_13
.LBB32_12:                              # %if.else19
	movl	PreviousQp2, %eax
	movl	%eax, PreviousQp1
	movl	FieldQPBuffer, %eax
	movl	%eax, PreviousQp2
.LBB32_13:                              # %if.end
	jmp	.LBB32_14
.LBB32_14:                              # %if.end20
	jmp	.LBB32_15
.LBB32_15:                              # %if.end21
	movl	PreviousQp1, %eax
	cmpl	PreviousQp2, %eax
	jne	.LBB32_17
# %bb.16:                               # %if.then23
	movl	PreviousQp1, %eax
	addl	$2, %eax
	movl	%eax, m_Qc
	jmp	.LBB32_18
.LBB32_17:                              # %if.else24
	movl	PreviousQp1, %eax
	addl	PreviousQp2, %eax
	cltd
	movl	$2, %ecx
	idivl	%ecx
	addl	$1, %eax
	movl	%eax, m_Qc
.LBB32_18:                              # %if.end27
	movl	m_Qc, %eax
	cmpl	RC_MAX_QUANT, %eax
	jge	.LBB32_20
# %bb.19:                               # %cond.true
	movl	m_Qc, %eax
	jmp	.LBB32_21
.LBB32_20:                              # %cond.false
	movl	RC_MAX_QUANT, %eax
.LBB32_21:                              # %cond.end
	movl	%eax, m_Qc
	movl	RC_MIN_QUANT, %eax
	cmpl	m_Qc, %eax
	jge	.LBB32_23
# %bb.22:                               # %cond.true30
	movl	m_Qc, %eax
	jmp	.LBB32_24
.LBB32_23:                              # %cond.false31
	movl	RC_MIN_QUANT, %eax
.LBB32_24:                              # %cond.end32
	movl	%eax, m_Qc
	jmp	.LBB32_68
.LBB32_25:                              # %if.else34
	movl	NumberofBFrames, %eax
	addl	$1, %eax
	movq	input, %rcx
	cltd
	idivl	1236(%rcx)
	movl	%edx, -12(%rbp)
	cmpl	$0, -12(%rbp)
	jne	.LBB32_27
# %bb.26:                               # %if.then38
	movq	input, %rax
	movl	1236(%rax), %eax
	movl	%eax, -12(%rbp)
.LBB32_27:                              # %if.end40
	cmpl	$1, -12(%rbp)
	jne	.LBB32_37
# %bb.28:                               # %if.then42
	movq	input, %rax
	cmpl	$2, 2880(%rax)
	je	.LBB32_30
# %bb.29:                               # %lor.lhs.false45
	movq	input, %rax
	cmpl	$0, 2884(%rax)
	je	.LBB32_36
.LBB32_30:                              # %if.then48
	movq	img, %rax
	cmpl	$0, 72600(%rax)
	jne	.LBB32_35
# %bb.31:                               # %if.then51
	movq	img, %rax
	cmpl	$1, 72604(%rax)
	jne	.LBB32_33
# %bb.32:                               # %if.then54
	movl	PreviousQp2, %eax
	movl	%eax, PreviousQp1
	movl	FrameQPBuffer, %eax
	movl	%eax, PreviousQp2
	jmp	.LBB32_34
.LBB32_33:                              # %if.else55
	movl	PreviousQp2, %eax
	movl	%eax, PreviousQp1
	movl	FieldQPBuffer, %eax
	movl	%eax, PreviousQp2
.LBB32_34:                              # %if.end56
	jmp	.LBB32_35
.LBB32_35:                              # %if.end57
	jmp	.LBB32_36
.LBB32_36:                              # %if.end58
	jmp	.LBB32_37
.LBB32_37:                              # %if.end59
	movl	PreviousQp2, %eax
	subl	PreviousQp1, %eax
	movq	input, %rcx
	imull	$4294967294, 1236(%rcx), %ecx # imm = 0xFFFFFFFE
	subl	$3, %ecx
	cmpl	%ecx, %eax
	jg	.LBB32_39
# %bb.38:                               # %if.then63
	movl	$-3, -28(%rbp)
	jmp	.LBB32_52
.LBB32_39:                              # %if.else64
	movl	PreviousQp2, %eax
	subl	PreviousQp1, %eax
	movq	input, %rcx
	imull	$4294967294, 1236(%rcx), %ecx # imm = 0xFFFFFFFE
	subl	$2, %ecx
	cmpl	%ecx, %eax
	jne	.LBB32_41
# %bb.40:                               # %if.then70
	movl	$-2, -28(%rbp)
	jmp	.LBB32_51
.LBB32_41:                              # %if.else71
	movl	PreviousQp2, %eax
	subl	PreviousQp1, %eax
	movq	input, %rcx
	imull	$4294967294, 1236(%rcx), %ecx # imm = 0xFFFFFFFE
	subl	$1, %ecx
	cmpl	%ecx, %eax
	jne	.LBB32_43
# %bb.42:                               # %if.then77
	movl	$-1, -28(%rbp)
	jmp	.LBB32_50
.LBB32_43:                              # %if.else78
	movl	PreviousQp2, %eax
	subl	PreviousQp1, %eax
	movq	input, %rcx
	imull	$4294967294, 1236(%rcx), %ecx # imm = 0xFFFFFFFE
	cmpl	%ecx, %eax
	jne	.LBB32_45
# %bb.44:                               # %if.then83
	movl	$0, -28(%rbp)
	jmp	.LBB32_49
.LBB32_45:                              # %if.else84
	movl	PreviousQp2, %eax
	subl	PreviousQp1, %eax
	movq	input, %rcx
	imull	$4294967294, 1236(%rcx), %ecx # imm = 0xFFFFFFFE
	addl	$1, %ecx
	cmpl	%ecx, %eax
	jne	.LBB32_47
# %bb.46:                               # %if.then90
	movl	$1, -28(%rbp)
	jmp	.LBB32_48
.LBB32_47:                              # %if.else91
	movl	$2, -28(%rbp)
.LBB32_48:                              # %if.end92
	jmp	.LBB32_49
.LBB32_49:                              # %if.end93
	jmp	.LBB32_50
.LBB32_50:                              # %if.end94
	jmp	.LBB32_51
.LBB32_51:                              # %if.end95
	jmp	.LBB32_52
.LBB32_52:                              # %if.end96
