	.text
	.file	"ratectl.c"
	.globl	rc_alloc                # -- Begin function rc_alloc
	.p2align	4, 0x90
	.type	rc_alloc,@function
rc_alloc:                               # @rc_alloc
	.cfi_startproc
# %bb.0:                                # %entry
	pushq	%rbp
	.cfi_def_cfa_offset 16
	.cfi_offset %rbp, -16
	movq	%rsp, %rbp
	.cfi_def_cfa_register %rbp
	movq	img, %rax
	movl	72488(%rax), %edi
	movl	$8, %esi
	callq	calloc
	xorl	%ecx, %ecx
	movq	img, %rdx
	movq	%rax, 72584(%rdx)
	movq	img, %rax
	cmpq	72584(%rax), %rcx
	jne	.LBB0_2
# %bb.1:                                # %if.then
	movabsq	$.L.str, %rdi
	callq	no_mem_exit
.LBB0_2:                                # %if.end
	movq	img, %rax
	movl	72488(%rax), %eax
	movq	input, %rcx
	xorl	%edx, %edx
	divl	3248(%rcx)
	movl	%eax, %edi
	movl	$8, %esi
	callq	calloc
	xorl	%ecx, %ecx
	movq	%rax, BUPFMAD
	cmpq	BUPFMAD, %rcx
	jne	.LBB0_4
# %bb.3:                                # %if.then8
	movabsq	$.L.str.1, %rdi
	callq	no_mem_exit
.LBB0_4:                                # %if.end9
	movq	img, %rax
	movl	72488(%rax), %eax
	movq	input, %rcx
	xorl	%edx, %edx
	divl	3248(%rcx)
	movl	%eax, %edi
	movl	$8, %esi
	callq	calloc
	xorl	%ecx, %ecx
	movq	%rax, BUCFMAD
	cmpq	BUCFMAD, %rcx
	jne	.LBB0_6
# %bb.5:                                # %if.then17
	movabsq	$.L.str.2, %rdi
	callq	no_mem_exit
.LBB0_6:                                # %if.end18
	movq	img, %rax
	movl	72488(%rax), %eax
	movq	input, %rcx
	xorl	%edx, %edx
	divl	3248(%rcx)
	movl	%eax, %edi
	movl	$8, %esi
	callq	calloc
	xorl	%ecx, %ecx
	movq	%rax, FCBUCFMAD
	cmpq	FCBUCFMAD, %rcx
	jne	.LBB0_8
# %bb.7:                                # %if.then26
	movabsq	$.L.str.3, %rdi
	callq	no_mem_exit
.LBB0_8:                                # %if.end27
	movq	img, %rax
	movl	72488(%rax), %eax
	movq	input, %rcx
	xorl	%edx, %edx
	divl	3248(%rcx)
	movl	%eax, %edi
	movl	$8, %esi
	callq	calloc
	xorl	%ecx, %ecx
	movq	%rax, FCBUPFMAD
	cmpq	FCBUPFMAD, %rcx
	jne	.LBB0_10
# %bb.9:                                # %if.then35
	movabsq	$.L.str.4, %rdi
	callq	no_mem_exit
.LBB0_10:                               # %if.end36
	popq	%rbp
	.cfi_def_cfa %rsp, 8
	retq
.Lfunc_end0:
	.size	rc_alloc, .Lfunc_end0-rc_alloc
	.cfi_endproc
                                        # -- End function
	.globl	rc_free                 # -- Begin function rc_free
	.p2align	4, 0x90
	.type	rc_free,@function
rc_free:                                # @rc_free
	.cfi_startproc
# %bb.0:                                # %entry
	pushq	%rbp
	.cfi_def_cfa_offset 16
	.cfi_offset %rbp, -16
	movq	%rsp, %rbp
	.cfi_def_cfa_register %rbp
	xorl	%eax, %eax
	movq	img, %rcx
	cmpq	72584(%rcx), %rax
	je	.LBB1_2
# %bb.1:                                # %if.then
	movq	img, %rax
	movq	72584(%rax), %rdi
	callq	free
	movq	img, %rax
	movq	$0, 72584(%rax)
.LBB1_2:                                # %if.end
	xorl	%eax, %eax
	cmpq	BUPFMAD, %rax
	je	.LBB1_4
# %bb.3:                                # %if.then4
	movq	BUPFMAD, %rdi
	callq	free
	movq	$0, BUPFMAD
.LBB1_4:                                # %if.end5
	xorl	%eax, %eax
	cmpq	BUCFMAD, %rax
	je	.LBB1_6
# %bb.5:                                # %if.then7
	movq	BUCFMAD, %rdi
	callq	free
	movq	$0, BUCFMAD
.LBB1_6:                                # %if.end8
	xorl	%eax, %eax
	cmpq	FCBUCFMAD, %rax
	je	.LBB1_8
# %bb.7:                                # %if.then10
	movq	FCBUCFMAD, %rdi
	callq	free
	movq	$0, FCBUCFMAD
.LBB1_8:                                # %if.end11
	xorl	%eax, %eax
	cmpq	FCBUPFMAD, %rax
	je	.LBB1_10
# %bb.9:                                # %if.then13
	movq	FCBUPFMAD, %rdi
	callq	free
	movq	$0, FCBUPFMAD
.LBB1_10:                               # %if.end14
	popq	%rbp
	.cfi_def_cfa %rsp, 8
	retq
.Lfunc_end1:
	.size	rc_free, .Lfunc_end1-rc_free
	.cfi_endproc
                                        # -- End function
	.globl	rc_init_seq             # -- Begin function rc_init_seq
	.p2align	4, 0x90
	.type	rc_init_seq,@function
rc_init_seq:                            # @rc_init_seq
	.cfi_startproc
# %bb.0:                                # %rand_bb
	pushq	%rbp
	.cfi_def_cfa_offset 16
	.cfi_offset %rbp, -16
	movq	%rsp, %rbp
	.cfi_def_cfa_register %rbp
	callq	get_rand
	cmpl	$0, %eax
	jne	.LBB2_17
# %bb.1:                                # %func_rc_init_seq.2
	callq	rc_init_seq.2
	popq	%rbp
	.cfi_def_cfa %rsp, 8
	retq
.LBB2_2:                                # %func_rc_init_seq.17
	.cfi_def_cfa %rbp, 16
	callq	rc_init_seq.17
	popq	%rbp
	.cfi_def_cfa %rsp, 8
	retq
.LBB2_3:                                # %func_rc_init_seq.18
	.cfi_def_cfa %rbp, 16
	callq	rc_init_seq.18
	popq	%rbp
	.cfi_def_cfa %rsp, 8
	retq
.LBB2_4:                                # %func_rc_init_seq.23
	.cfi_def_cfa %rbp, 16
	callq	rc_init_seq.23
	popq	%rbp
	.cfi_def_cfa %rsp, 8
	retq
.LBB2_5:                                # %func_rc_init_seq.25
	.cfi_def_cfa %rbp, 16
	callq	rc_init_seq.25
	popq	%rbp
	.cfi_def_cfa %rsp, 8
	retq
.LBB2_6:                                # %func_rc_init_seq.35
	.cfi_def_cfa %rbp, 16
	callq	rc_init_seq.35
	popq	%rbp
	.cfi_def_cfa %rsp, 8
	retq
.LBB2_7:                                # %func_rc_init_seq.47
	.cfi_def_cfa %rbp, 16
	callq	rc_init_seq.47
	popq	%rbp
	.cfi_def_cfa %rsp, 8
	retq
.LBB2_8:                                # %func_rc_init_seq.61
	.cfi_def_cfa %rbp, 16
	callq	rc_init_seq.61
	popq	%rbp
	.cfi_def_cfa %rsp, 8
	retq
.LBB2_9:                                # %func_rc_init_seq.70
	.cfi_def_cfa %rbp, 16
	callq	rc_init_seq.70
	popq	%rbp
	.cfi_def_cfa %rsp, 8
	retq
.LBB2_10:                               # %func_rc_init_seq.88
	.cfi_def_cfa %rbp, 16
	callq	rc_init_seq.88
	popq	%rbp
	.cfi_def_cfa %rsp, 8
	retq
.LBB2_11:                               # %func_rc_init_seq.89
	.cfi_def_cfa %rbp, 16
	callq	rc_init_seq.89
	popq	%rbp
	.cfi_def_cfa %rsp, 8
	retq
.LBB2_12:                               # %func_rc_init_seq.95
	.cfi_def_cfa %rbp, 16
	callq	rc_init_seq.95
	popq	%rbp
	.cfi_def_cfa %rsp, 8
	retq
.LBB2_13:                               # %func_rc_init_seq.98
	.cfi_def_cfa %rbp, 16
	callq	rc_init_seq.98
	popq	%rbp
	.cfi_def_cfa %rsp, 8
	retq
.LBB2_14:                               # %func_rc_init_seq.106
	.cfi_def_cfa %rbp, 16
	callq	rc_init_seq.106
	popq	%rbp
	.cfi_def_cfa %rsp, 8
	retq
.LBB2_15:                               # %func_rc_init_seq.112
	.cfi_def_cfa %rbp, 16
	callq	rc_init_seq.112
	popq	%rbp
	.cfi_def_cfa %rsp, 8
	retq
.LBB2_16:                               # %func_rc_init_seq.124
	.cfi_def_cfa %rbp, 16
	callq	rc_init_seq.124
	popq	%rbp
	.cfi_def_cfa %rsp, 8
	retq
.LBB2_17:                               # %ctrl0
	.cfi_def_cfa %rbp, 16
	cmpl	$1, %eax
	je	.LBB2_2
# %bb.18:                               # %ctrl1
	cmpl	$2, %eax
	je	.LBB2_3
# %bb.19:                               # %ctrl2
	cmpl	$3, %eax
	je	.LBB2_4
# %bb.20:                               # %ctrl3
	cmpl	$4, %eax
	je	.LBB2_5
# %bb.21:                               # %ctrl4
	cmpl	$5, %eax
	je	.LBB2_6
# %bb.22:                               # %ctrl5
	cmpl	$6, %eax
	je	.LBB2_7
# %bb.23:                               # %ctrl6
	cmpl	$7, %eax
	je	.LBB2_8
# %bb.24:                               # %ctrl7
	cmpl	$8, %eax
	je	.LBB2_9
# %bb.25:                               # %ctrl8
	cmpl	$9, %eax
	je	.LBB2_10
# %bb.26:                               # %ctrl9
	cmpl	$10, %eax
	je	.LBB2_11
# %bb.27:                               # %ctrl10
	cmpl	$11, %eax
	je	.LBB2_12
# %bb.28:                               # %ctrl11
	cmpl	$12, %eax
	je	.LBB2_13
# %bb.29:                               # %ctrl12
	cmpl	$13, %eax
	je	.LBB2_14
# %bb.30:                               # %ctrl13
	cmpl	$14, %eax
	je	.LBB2_15
	jmp	.LBB2_16
.Lfunc_end2:
	.size	rc_init_seq, .Lfunc_end2-rc_init_seq
	.cfi_endproc
                                        # -- End function
	.globl	rc_init_GOP             # -- Begin function rc_init_GOP
	.p2align	4, 0x90
	.type	rc_init_GOP,@function
rc_init_GOP:                            # @rc_init_GOP
	.cfi_startproc
# %bb.0:                                # %rand_bb
	pushq	%rbp
	.cfi_def_cfa_offset 16
	.cfi_offset %rbp, -16
	movq	%rsp, %rbp
	.cfi_def_cfa_register %rbp
	pushq	%r14
	pushq	%rbx
	.cfi_offset %rbx, -32
	.cfi_offset %r14, -24
	movl	%esi, %r14d
	movl	%edi, %ebx
	callq	get_rand
	cmpl	$0, %eax
	jne	.LBB3_17
# %bb.1:                                # %func_rc_init_GOP.13
	movl	%ebx, %edi
	movl	%r14d, %esi
	callq	rc_init_GOP.13
	popq	%rbx
	popq	%r14
	popq	%rbp
	.cfi_def_cfa %rsp, 8
	retq
.LBB3_2:                                # %func_rc_init_GOP.14
	.cfi_def_cfa %rbp, 16
	movl	%ebx, %edi
	movl	%r14d, %esi
	callq	rc_init_GOP.14
	popq	%rbx
	popq	%r14
	popq	%rbp
	.cfi_def_cfa %rsp, 8
	retq
.LBB3_3:                                # %func_rc_init_GOP.15
	.cfi_def_cfa %rbp, 16
	movl	%ebx, %edi
	movl	%r14d, %esi
	callq	rc_init_GOP.15
	popq	%rbx
	popq	%r14
	popq	%rbp
	.cfi_def_cfa %rsp, 8
	retq
.LBB3_4:                                # %func_rc_init_GOP.37
	.cfi_def_cfa %rbp, 16
	movl	%ebx, %edi
	movl	%r14d, %esi
	callq	rc_init_GOP.37
	popq	%rbx
	popq	%r14
	popq	%rbp
	.cfi_def_cfa %rsp, 8
	retq
.LBB3_5:                                # %func_rc_init_GOP.46
	.cfi_def_cfa %rbp, 16
	movl	%ebx, %edi
	movl	%r14d, %esi
	callq	rc_init_GOP.46
	popq	%rbx
	popq	%r14
	popq	%rbp
	.cfi_def_cfa %rsp, 8
	retq
.LBB3_6:                                # %func_rc_init_GOP.51
	.cfi_def_cfa %rbp, 16
	movl	%ebx, %edi
	movl	%r14d, %esi
	callq	rc_init_GOP.51
	popq	%rbx
	popq	%r14
	popq	%rbp
	.cfi_def_cfa %rsp, 8
	retq
.LBB3_7:                                # %func_rc_init_GOP.56
	.cfi_def_cfa %rbp, 16
	movl	%ebx, %edi
	movl	%r14d, %esi
	callq	rc_init_GOP.56
	popq	%rbx
	popq	%r14
	popq	%rbp
	.cfi_def_cfa %rsp, 8
	retq
.LBB3_8:                                # %func_rc_init_GOP.66
	.cfi_def_cfa %rbp, 16
	movl	%ebx, %edi
	movl	%r14d, %esi
	callq	rc_init_GOP.66
	popq	%rbx
	popq	%r14
	popq	%rbp
	.cfi_def_cfa %rsp, 8
	retq
.LBB3_9:                                # %func_rc_init_GOP.73
	.cfi_def_cfa %rbp, 16
	movl	%ebx, %edi
	movl	%r14d, %esi
	callq	rc_init_GOP.73
	popq	%rbx
	popq	%r14
	popq	%rbp
	.cfi_def_cfa %rsp, 8
	retq
.LBB3_10:                               # %func_rc_init_GOP.76
	.cfi_def_cfa %rbp, 16
	movl	%ebx, %edi
	movl	%r14d, %esi
	callq	rc_init_GOP.76
	popq	%rbx
	popq	%r14
	popq	%rbp
	.cfi_def_cfa %rsp, 8
	retq
.LBB3_11:                               # %func_rc_init_GOP.77
	.cfi_def_cfa %rbp, 16
	movl	%ebx, %edi
	movl	%r14d, %esi
	callq	rc_init_GOP.77
	popq	%rbx
	popq	%r14
	popq	%rbp
	.cfi_def_cfa %rsp, 8
	retq
.LBB3_12:                               # %func_rc_init_GOP.78
	.cfi_def_cfa %rbp, 16
	movl	%ebx, %edi
	movl	%r14d, %esi
	callq	rc_init_GOP.78
	popq	%rbx
	popq	%r14
	popq	%rbp
	.cfi_def_cfa %rsp, 8
	retq
.LBB3_13:                               # %func_rc_init_GOP.121
	.cfi_def_cfa %rbp, 16
	movl	%ebx, %edi
	movl	%r14d, %esi
	callq	rc_init_GOP.121
	popq	%rbx
	popq	%r14
	popq	%rbp
	.cfi_def_cfa %rsp, 8
	retq
.LBB3_14:                               # %func_rc_init_GOP.140
	.cfi_def_cfa %rbp, 16
	movl	%ebx, %edi
	movl	%r14d, %esi
	callq	rc_init_GOP.140
	popq	%rbx
	popq	%r14
	popq	%rbp
	.cfi_def_cfa %rsp, 8
	retq
.LBB3_15:                               # %func_rc_init_GOP.141
	.cfi_def_cfa %rbp, 16
	movl	%ebx, %edi
	movl	%r14d, %esi
	callq	rc_init_GOP.141
	popq	%rbx
	popq	%r14
	popq	%rbp
	.cfi_def_cfa %rsp, 8
	retq
.LBB3_16:                               # %func_rc_init_GOP.159
	.cfi_def_cfa %rbp, 16
	movl	%ebx, %edi
	movl	%r14d, %esi
	callq	rc_init_GOP.159
	popq	%rbx
	popq	%r14
	popq	%rbp
	.cfi_def_cfa %rsp, 8
	retq
.LBB3_17:                               # %ctrl0
	.cfi_def_cfa %rbp, 16
	cmpl	$1, %eax
	je	.LBB3_2
# %bb.18:                               # %ctrl1
	cmpl	$2, %eax
	je	.LBB3_3
# %bb.19:                               # %ctrl2
	cmpl	$3, %eax
	je	.LBB3_4
# %bb.20:                               # %ctrl3
	cmpl	$4, %eax
	je	.LBB3_5
# %bb.21:                               # %ctrl4
	cmpl	$5, %eax
	je	.LBB3_6
# %bb.22:                               # %ctrl5
	cmpl	$6, %eax
	je	.LBB3_7
# %bb.23:                               # %ctrl6
	cmpl	$7, %eax
	je	.LBB3_8
# %bb.24:                               # %ctrl7
	cmpl	$8, %eax
	je	.LBB3_9
# %bb.25:                               # %ctrl8
	cmpl	$9, %eax
	je	.LBB3_10
# %bb.26:                               # %ctrl9
	cmpl	$10, %eax
	je	.LBB3_11
# %bb.27:                               # %ctrl10
	cmpl	$11, %eax
	je	.LBB3_12
# %bb.28:                               # %ctrl11
	cmpl	$12, %eax
	je	.LBB3_13
# %bb.29:                               # %ctrl12
	cmpl	$13, %eax
	je	.LBB3_14
# %bb.30:                               # %ctrl13
	cmpl	$14, %eax
	je	.LBB3_15
	jmp	.LBB3_16
.Lfunc_end3:
	.size	rc_init_GOP, .Lfunc_end3-rc_init_GOP
	.cfi_endproc
                                        # -- End function
	.globl	rc_init_pict            # -- Begin function rc_init_pict
	.p2align	4, 0x90
	.type	rc_init_pict,@function
rc_init_pict:                           # @rc_init_pict
	.cfi_startproc
# %bb.0:                                # %rand_bb
	pushq	%rbp
	.cfi_def_cfa_offset 16
	.cfi_offset %rbp, -16
	movq	%rsp, %rbp
	.cfi_def_cfa_register %rbp
	pushq	%r15
	pushq	%r14
	pushq	%rbx
	pushq	%rax
	.cfi_offset %rbx, -40
	.cfi_offset %r14, -32
	.cfi_offset %r15, -24
	movl	%edx, %r14d
	movl	%esi, %r15d
	movl	%edi, %ebx
	callq	get_rand
	cmpl	$0, %eax
	jne	.LBB4_17
# %bb.1:                                # %func_rc_init_pict.4
	movl	%ebx, %edi
	movl	%r15d, %esi
	movl	%r14d, %edx
	callq	rc_init_pict.4
	addq	$8, %rsp
	popq	%rbx
	popq	%r14
	popq	%r15
	popq	%rbp
	.cfi_def_cfa %rsp, 8
	retq
.LBB4_2:                                # %func_rc_init_pict.11
	.cfi_def_cfa %rbp, 16
	movl	%ebx, %edi
	movl	%r15d, %esi
	movl	%r14d, %edx
	callq	rc_init_pict.11
	addq	$8, %rsp
	popq	%rbx
	popq	%r14
	popq	%r15
	popq	%rbp
	.cfi_def_cfa %rsp, 8
	retq
.LBB4_3:                                # %func_rc_init_pict.26
	.cfi_def_cfa %rbp, 16
	movl	%ebx, %edi
	movl	%r15d, %esi
	movl	%r14d, %edx
	callq	rc_init_pict.26
	addq	$8, %rsp
	popq	%rbx
	popq	%r14
	popq	%r15
	popq	%rbp
	.cfi_def_cfa %rsp, 8
	retq
.LBB4_4:                                # %func_rc_init_pict.33
	.cfi_def_cfa %rbp, 16
	movl	%ebx, %edi
	movl	%r15d, %esi
	movl	%r14d, %edx
	callq	rc_init_pict.33
	addq	$8, %rsp
	popq	%rbx
	popq	%r14
	popq	%r15
	popq	%rbp
	.cfi_def_cfa %rsp, 8
	retq
.LBB4_5:                                # %func_rc_init_pict.40
	.cfi_def_cfa %rbp, 16
	movl	%ebx, %edi
	movl	%r15d, %esi
	movl	%r14d, %edx
	callq	rc_init_pict.40
	addq	$8, %rsp
	popq	%rbx
	popq	%r14
	popq	%r15
	popq	%rbp
	.cfi_def_cfa %rsp, 8
	retq
.LBB4_6:                                # %func_rc_init_pict.57
	.cfi_def_cfa %rbp, 16
	movl	%ebx, %edi
	movl	%r15d, %esi
	movl	%r14d, %edx
	callq	rc_init_pict.57
	addq	$8, %rsp
	popq	%rbx
	popq	%r14
	popq	%r15
	popq	%rbp
	.cfi_def_cfa %rsp, 8
	retq
.LBB4_7:                                # %func_rc_init_pict.69
	.cfi_def_cfa %rbp, 16
	movl	%ebx, %edi
	movl	%r15d, %esi
	movl	%r14d, %edx
	callq	rc_init_pict.69
	addq	$8, %rsp
	popq	%rbx
	popq	%r14
	popq	%r15
	popq	%rbp
	.cfi_def_cfa %rsp, 8
	retq
.LBB4_8:                                # %func_rc_init_pict.85
	.cfi_def_cfa %rbp, 16
	movl	%ebx, %edi
	movl	%r15d, %esi
	movl	%r14d, %edx
	callq	rc_init_pict.85
	addq	$8, %rsp
	popq	%rbx
	popq	%r14
	popq	%r15
	popq	%rbp
	.cfi_def_cfa %rsp, 8
	retq
.LBB4_9:                                # %func_rc_init_pict.97
	.cfi_def_cfa %rbp, 16
	movl	%ebx, %edi
	movl	%r15d, %esi
	movl	%r14d, %edx
	callq	rc_init_pict.97
	addq	$8, %rsp
	popq	%rbx
	popq	%r14
	popq	%r15
	popq	%rbp
	.cfi_def_cfa %rsp, 8
	retq
.LBB4_10:                               # %func_rc_init_pict.108
	.cfi_def_cfa %rbp, 16
	movl	%ebx, %edi
	movl	%r15d, %esi
	movl	%r14d, %edx
	callq	rc_init_pict.108
	addq	$8, %rsp
	popq	%rbx
	popq	%r14
	popq	%r15
	popq	%rbp
	.cfi_def_cfa %rsp, 8
	retq
.LBB4_11:                               # %func_rc_init_pict.113
	.cfi_def_cfa %rbp, 16
	movl	%ebx, %edi
	movl	%r15d, %esi
	movl	%r14d, %edx
	callq	rc_init_pict.113
	addq	$8, %rsp
	popq	%rbx
	popq	%r14
	popq	%r15
	popq	%rbp
	.cfi_def_cfa %rsp, 8
	retq
.LBB4_12:                               # %func_rc_init_pict.117
	.cfi_def_cfa %rbp, 16
	movl	%ebx, %edi
	movl	%r15d, %esi
	movl	%r14d, %edx
	callq	rc_init_pict.117
	addq	$8, %rsp
	popq	%rbx
	popq	%r14
	popq	%r15
	popq	%rbp
	.cfi_def_cfa %rsp, 8
	retq
.LBB4_13:                               # %func_rc_init_pict.125
	.cfi_def_cfa %rbp, 16
	movl	%ebx, %edi
	movl	%r15d, %esi
	movl	%r14d, %edx
	callq	rc_init_pict.125
	addq	$8, %rsp
	popq	%rbx
	popq	%r14
	popq	%r15
	popq	%rbp
	.cfi_def_cfa %rsp, 8
	retq
.LBB4_14:                               # %func_rc_init_pict.130
	.cfi_def_cfa %rbp, 16
	movl	%ebx, %edi
	movl	%r15d, %esi
	movl	%r14d, %edx
	callq	rc_init_pict.130
	addq	$8, %rsp
	popq	%rbx
	popq	%r14
	popq	%r15
	popq	%rbp
	.cfi_def_cfa %rsp, 8
	retq
.LBB4_15:                               # %func_rc_init_pict.133
	.cfi_def_cfa %rbp, 16
	movl	%ebx, %edi
	movl	%r15d, %esi
	movl	%r14d, %edx
	callq	rc_init_pict.133
	addq	$8, %rsp
	popq	%rbx
	popq	%r14
	popq	%r15
	popq	%rbp
	.cfi_def_cfa %rsp, 8
	retq
.LBB4_16:                               # %func_rc_init_pict.134
	.cfi_def_cfa %rbp, 16
	movl	%ebx, %edi
	movl	%r15d, %esi
	movl	%r14d, %edx
	callq	rc_init_pict.134
	addq	$8, %rsp
	popq	%rbx
	popq	%r14
	popq	%r15
	popq	%rbp
	.cfi_def_cfa %rsp, 8
	retq
.LBB4_17:                               # %ctrl0
	.cfi_def_cfa %rbp, 16
	cmpl	$1, %eax
	je	.LBB4_2
# %bb.18:                               # %ctrl1
	cmpl	$2, %eax
	je	.LBB4_3
# %bb.19:                               # %ctrl2
	cmpl	$3, %eax
	je	.LBB4_4
# %bb.20:                               # %ctrl3
	cmpl	$4, %eax
	je	.LBB4_5
# %bb.21:                               # %ctrl4
	cmpl	$5, %eax
	je	.LBB4_6
# %bb.22:                               # %ctrl5
	cmpl	$6, %eax
	je	.LBB4_7
# %bb.23:                               # %ctrl6
	cmpl	$7, %eax
	je	.LBB4_8
# %bb.24:                               # %ctrl7
	cmpl	$8, %eax
	je	.LBB4_9
# %bb.25:                               # %ctrl8
	cmpl	$9, %eax
	je	.LBB4_10
# %bb.26:                               # %ctrl9
	cmpl	$10, %eax
	je	.LBB4_11
# %bb.27:                               # %ctrl10
	cmpl	$11, %eax
	je	.LBB4_12
# %bb.28:                               # %ctrl11
	cmpl	$12, %eax
	je	.LBB4_13
# %bb.29:                               # %ctrl12
	cmpl	$13, %eax
	je	.LBB4_14
# %bb.30:                               # %ctrl13
	cmpl	$14, %eax
	je	.LBB4_15
	jmp	.LBB4_16
.Lfunc_end4:
	.size	rc_init_pict, .Lfunc_end4-rc_init_pict
	.cfi_endproc
                                        # -- End function
	.globl	calc_MAD                # -- Begin function calc_MAD
	.p2align	4, 0x90
	.type	calc_MAD,@function
calc_MAD:                               # @calc_MAD
	.cfi_startproc
# %bb.0:                                # %rand_bb
	pushq	%rbp
	.cfi_def_cfa_offset 16
	.cfi_offset %rbp, -16
	movq	%rsp, %rbp
	.cfi_def_cfa_register %rbp
	callq	get_rand
	cmpl	$0, %eax
	jne	.LBB5_17
# %bb.1:                                # %func_calc_MAD.5
	callq	calc_MAD.5
	popq	%rbp
	.cfi_def_cfa %rsp, 8
	retq
.LBB5_2:                                # %func_calc_MAD.6
	.cfi_def_cfa %rbp, 16
	callq	calc_MAD.6
	popq	%rbp
	.cfi_def_cfa %rsp, 8
	retq
.LBB5_3:                                # %func_calc_MAD.20
	.cfi_def_cfa %rbp, 16
	callq	calc_MAD.20
	popq	%rbp
	.cfi_def_cfa %rsp, 8
	retq
.LBB5_4:                                # %func_calc_MAD.31
	.cfi_def_cfa %rbp, 16
	callq	calc_MAD.31
	popq	%rbp
	.cfi_def_cfa %rsp, 8
	retq
.LBB5_5:                                # %func_calc_MAD.50
	.cfi_def_cfa %rbp, 16
	callq	calc_MAD.50
	popq	%rbp
	.cfi_def_cfa %rsp, 8
	retq
.LBB5_6:                                # %func_calc_MAD.52
	.cfi_def_cfa %rbp, 16
	callq	calc_MAD.52
	popq	%rbp
	.cfi_def_cfa %rsp, 8
	retq
.LBB5_7:                                # %func_calc_MAD.83
	.cfi_def_cfa %rbp, 16
	callq	calc_MAD.83
	popq	%rbp
	.cfi_def_cfa %rsp, 8
	retq
.LBB5_8:                                # %func_calc_MAD.87
	.cfi_def_cfa %rbp, 16
	callq	calc_MAD.87
	popq	%rbp
	.cfi_def_cfa %rsp, 8
	retq
.LBB5_9:                                # %func_calc_MAD.90
	.cfi_def_cfa %rbp, 16
	callq	calc_MAD.90
	popq	%rbp
	.cfi_def_cfa %rsp, 8
	retq
.LBB5_10:                               # %func_calc_MAD.105
	.cfi_def_cfa %rbp, 16
	callq	calc_MAD.105
	popq	%rbp
	.cfi_def_cfa %rsp, 8
	retq
.LBB5_11:                               # %func_calc_MAD.114
	.cfi_def_cfa %rbp, 16
	callq	calc_MAD.114
	popq	%rbp
	.cfi_def_cfa %rsp, 8
	retq
.LBB5_12:                               # %func_calc_MAD.131
	.cfi_def_cfa %rbp, 16
	callq	calc_MAD.131
	popq	%rbp
	.cfi_def_cfa %rsp, 8
	retq
.LBB5_13:                               # %func_calc_MAD.132
	.cfi_def_cfa %rbp, 16
	callq	calc_MAD.132
	popq	%rbp
	.cfi_def_cfa %rsp, 8
	retq
.LBB5_14:                               # %func_calc_MAD.135
	.cfi_def_cfa %rbp, 16
	callq	calc_MAD.135
	popq	%rbp
	.cfi_def_cfa %rsp, 8
	retq
.LBB5_15:                               # %func_calc_MAD.147
	.cfi_def_cfa %rbp, 16
	callq	calc_MAD.147
	popq	%rbp
	.cfi_def_cfa %rsp, 8
	retq
.LBB5_16:                               # %func_calc_MAD.151
	.cfi_def_cfa %rbp, 16
	callq	calc_MAD.151
	popq	%rbp
	.cfi_def_cfa %rsp, 8
	retq
.LBB5_17:                               # %ctrl0
	.cfi_def_cfa %rbp, 16
	cmpl	$1, %eax
	je	.LBB5_2
# %bb.18:                               # %ctrl1
	cmpl	$2, %eax
	je	.LBB5_3
# %bb.19:                               # %ctrl2
	cmpl	$3, %eax
	je	.LBB5_4
# %bb.20:                               # %ctrl3
	cmpl	$4, %eax
	je	.LBB5_5
# %bb.21:                               # %ctrl4
	cmpl	$5, %eax
	je	.LBB5_6
# %bb.22:                               # %ctrl5
	cmpl	$6, %eax
	je	.LBB5_7
# %bb.23:                               # %ctrl6
	cmpl	$7, %eax
	je	.LBB5_8
# %bb.24:                               # %ctrl7
	cmpl	$8, %eax
	je	.LBB5_9
# %bb.25:                               # %ctrl8
	cmpl	$9, %eax
	je	.LBB5_10
# %bb.26:                               # %ctrl9
	cmpl	$10, %eax
	je	.LBB5_11
# %bb.27:                               # %ctrl10
	cmpl	$11, %eax
	je	.LBB5_12
# %bb.28:                               # %ctrl11
	cmpl	$12, %eax
	je	.LBB5_13
# %bb.29:                               # %ctrl12
	cmpl	$13, %eax
	je	.LBB5_14
# %bb.30:                               # %ctrl13
	cmpl	$14, %eax
	je	.LBB5_15
	jmp	.LBB5_16
.Lfunc_end5:
	.size	calc_MAD, .Lfunc_end5-calc_MAD
	.cfi_endproc
                                        # -- End function
	.section	.rodata.cst8,"aM",@progbits,8
	.p2align	3               # -- Begin function rc_update_pict
.LCPI6_0:
	.quad	4606281698874543309     # double 0.90000000000000002
	.text
	.globl	rc_update_pict
	.p2align	4, 0x90
	.type	rc_update_pict,@function
rc_update_pict:                         # @rc_update_pict
	.cfi_startproc
# %bb.0:                                # %entry
	pushq	%rbp
	.cfi_def_cfa_offset 16
	.cfi_offset %rbp, -16
	movq	%rsp, %rbp
	.cfi_def_cfa_register %rbp
	vmovsd	.LCPI6_0(%rip), %xmm0   # xmm0 = mem[0],zero
	movl	%edi, -4(%rbp)
	movl	-4(%rbp), %eax
	movl	R, %ecx
	subl	%eax, %ecx
	movl	%ecx, R
	vcvtsi2sdl	-4(%rbp), %xmm0, %xmm1
	vmovsd	bit_rate, %xmm2         # xmm2 = mem[0],zero
	vdivsd	frame_rate, %xmm2, %xmm2
	vsubsd	%xmm2, %xmm1, %xmm1
	vaddsd	CurrentBufferFullness, %xmm1, %xmm1
	vmovsd	%xmm1, CurrentBufferFullness
	vmovsd	bit_rate, %xmm1         # xmm1 = mem[0],zero
	vdivsd	frame_rate, %xmm1, %xmm1
	vcvtsi2sdl	-4(%rbp), %xmm0, %xmm2
	vsubsd	%xmm2, %xmm1, %xmm1
	vcvttsd2si	%xmm1, %rax
	addq	LowerBound, %rax
	movq	%rax, LowerBound
	vmovsd	bit_rate, %xmm1         # xmm1 = mem[0],zero
	vdivsd	frame_rate, %xmm1, %xmm1
	vcvtsi2sdl	-4(%rbp), %xmm0, %xmm2
	vsubsd	%xmm2, %xmm1, %xmm1
	vcvttsd2si	%xmm1, %rax
	addq	UpperBound1, %rax
	movq	%rax, UpperBound1
	vcvtsi2sdq	UpperBound1, %xmm0, %xmm1
	vmulsd	%xmm1, %xmm0, %xmm0
	vcvttsd2si	%xmm0, %rax
	movq	%rax, UpperBound2
	popq	%rbp
	.cfi_def_cfa %rsp, 8
	retq
.Lfunc_end6:
	.size	rc_update_pict, .Lfunc_end6-rc_update_pict
	.cfi_endproc
                                        # -- End function
	.globl	rc_update_pict_frame    # -- Begin function rc_update_pict_frame
	.p2align	4, 0x90
	.type	rc_update_pict_frame,@function
rc_update_pict_frame:                   # @rc_update_pict_frame
	.cfi_startproc
# %bb.0:                                # %rand_bb
	pushq	%rbp
	.cfi_def_cfa_offset 16
	.cfi_offset %rbp, -16
	movq	%rsp, %rbp
	.cfi_def_cfa_register %rbp
	pushq	%rbx
	pushq	%rax
	.cfi_offset %rbx, -24
	movl	%edi, %ebx
	callq	get_rand
	cmpl	$0, %eax
	jne	.LBB7_7
# %bb.1:                                # %func_rc_update_pict_frame.8
	movl	%ebx, %edi
	callq	rc_update_pict_frame.8
	addq	$8, %rsp
	popq	%rbx
	popq	%rbp
	.cfi_def_cfa %rsp, 8
	retq
.LBB7_2:                                # %func_rc_update_pict_frame.19
	.cfi_def_cfa %rbp, 16
	movl	%ebx, %edi
	callq	rc_update_pict_frame.19
	addq	$8, %rsp
	popq	%rbx
	popq	%rbp
	.cfi_def_cfa %rsp, 8
	retq
.LBB7_3:                                # %func_rc_update_pict_frame.24
	.cfi_def_cfa %rbp, 16
	movl	%ebx, %edi
	callq	rc_update_pict_frame.24
	addq	$8, %rsp
	popq	%rbx
	popq	%rbp
	.cfi_def_cfa %rsp, 8
	retq
.LBB7_4:                                # %func_rc_update_pict_frame.32
	.cfi_def_cfa %rbp, 16
	movl	%ebx, %edi
	callq	rc_update_pict_frame.32
	addq	$8, %rsp
	popq	%rbx
	popq	%rbp
	.cfi_def_cfa %rsp, 8
	retq
.LBB7_5:                                # %func_rc_update_pict_frame.39
	.cfi_def_cfa %rbp, 16
	movl	%ebx, %edi
	callq	rc_update_pict_frame.39
	addq	$8, %rsp
	popq	%rbx
	popq	%rbp
	.cfi_def_cfa %rsp, 8
	retq
.LBB7_6:                                # %func_rc_update_pict_frame.42
	.cfi_def_cfa %rbp, 16
	movl	%ebx, %edi
	callq	rc_update_pict_frame.42
	addq	$8, %rsp
	popq	%rbx
	popq	%rbp
	.cfi_def_cfa %rsp, 8
	retq
.LBB7_7:                                # %ctrl0
	.cfi_def_cfa %rbp, 16
	cmpl	$1, %eax
	je	.LBB7_2
# %bb.8:                                # %ctrl1
	cmpl	$2, %eax
	je	.LBB7_3
# %bb.9:                                # %ctrl2
	cmpl	$3, %eax
	je	.LBB7_4
# %bb.10:                               # %ctrl3
	cmpl	$4, %eax
	je	.LBB7_5
	jmp	.LBB7_6
.Lfunc_end7:
	.size	rc_update_pict_frame, .Lfunc_end7-rc_update_pict_frame
	.cfi_endproc
                                        # -- End function
	.globl	setbitscount            # -- Begin function setbitscount
	.p2align	4, 0x90
	.type	setbitscount,@function
setbitscount:                           # @setbitscount
	.cfi_startproc
# %bb.0:                                # %entry
	pushq	%rbp
	.cfi_def_cfa_offset 16
	.cfi_offset %rbp, -16
	movq	%rsp, %rbp
	.cfi_def_cfa_register %rbp
	movl	%edi, -4(%rbp)
	movl	-4(%rbp), %eax
	movl	%eax, bits_topfield
	popq	%rbp
	.cfi_def_cfa %rsp, 8
	retq
.Lfunc_end8:
	.size	setbitscount, .Lfunc_end8-setbitscount
	.cfi_endproc
                                        # -- End function
	.globl	updateQuantizationParameter # -- Begin function updateQuantizationParameter
	.p2align	4, 0x90
	.type	updateQuantizationParameter,@function
updateQuantizationParameter:            # @updateQuantizationParameter
	.cfi_startproc
# %bb.0:                                # %rand_bb
	pushq	%rbp
	.cfi_def_cfa_offset 16
	.cfi_offset %rbp, -16
	movq	%rsp, %rbp
	.cfi_def_cfa_register %rbp
	pushq	%rbx
	pushq	%rax
	.cfi_offset %rbx, -24
	movl	%edi, %ebx
	callq	get_rand
	cmpl	$0, %eax
	jne	.LBB9_17
# %bb.1:                                # %func_updateQuantizationParameter.36
	movl	%ebx, %edi
	callq	updateQuantizationParameter.36
	addq	$8, %rsp
	popq	%rbx
	popq	%rbp
	.cfi_def_cfa %rsp, 8
	retq
.LBB9_2:                                # %func_updateQuantizationParameter.49
	.cfi_def_cfa %rbp, 16
	movl	%ebx, %edi
	callq	updateQuantizationParameter.49
	addq	$8, %rsp
	popq	%rbx
	popq	%rbp
	.cfi_def_cfa %rsp, 8
	retq
.LBB9_3:                                # %func_updateQuantizationParameter.60
	.cfi_def_cfa %rbp, 16
	movl	%ebx, %edi
	callq	updateQuantizationParameter.60
	addq	$8, %rsp
	popq	%rbx
	popq	%rbp
	.cfi_def_cfa %rsp, 8
	retq
.LBB9_4:                                # %func_updateQuantizationParameter.67
	.cfi_def_cfa %rbp, 16
	movl	%ebx, %edi
	callq	updateQuantizationParameter.67
	addq	$8, %rsp
	popq	%rbx
	popq	%rbp
	.cfi_def_cfa %rsp, 8
	retq
.LBB9_5:                                # %func_updateQuantizationParameter.86
	.cfi_def_cfa %rbp, 16
	movl	%ebx, %edi
	callq	updateQuantizationParameter.86
	addq	$8, %rsp
	popq	%rbx
	popq	%rbp
	.cfi_def_cfa %rsp, 8
	retq
.LBB9_6:                                # %func_updateQuantizationParameter.100
	.cfi_def_cfa %rbp, 16
	movl	%ebx, %edi
	callq	updateQuantizationParameter.100
	addq	$8, %rsp
	popq	%rbx
	popq	%rbp
	.cfi_def_cfa %rsp, 8
	retq
.LBB9_7:                                # %func_updateQuantizationParameter.122
	.cfi_def_cfa %rbp, 16
	movl	%ebx, %edi
	callq	updateQuantizationParameter.122
	addq	$8, %rsp
	popq	%rbx
	popq	%rbp
	.cfi_def_cfa %rsp, 8
	retq
.LBB9_8:                                # %func_updateQuantizationParameter.123
	.cfi_def_cfa %rbp, 16
	movl	%ebx, %edi
	callq	updateQuantizationParameter.123
	addq	$8, %rsp
	popq	%rbx
	popq	%rbp
	.cfi_def_cfa %rsp, 8
	retq
.LBB9_9:                                # %func_updateQuantizationParameter.152
	.cfi_def_cfa %rbp, 16
	movl	%ebx, %edi
	callq	updateQuantizationParameter.152
	addq	$8, %rsp
	popq	%rbx
	popq	%rbp
	.cfi_def_cfa %rsp, 8
	retq
.LBB9_10:                               # %func_updateQuantizationParameter.154
	.cfi_def_cfa %rbp, 16
	movl	%ebx, %edi
	callq	updateQuantizationParameter.154
	addq	$8, %rsp
	popq	%rbx
	popq	%rbp
	.cfi_def_cfa %rsp, 8
	retq
.LBB9_11:                               # %func_updateQuantizationParameter.157
	.cfi_def_cfa %rbp, 16
	movl	%ebx, %edi
	callq	updateQuantizationParameter.157
	addq	$8, %rsp
	popq	%rbx
	popq	%rbp
	.cfi_def_cfa %rsp, 8
	retq
.LBB9_12:                               # %func_updateQuantizationParameter.158
	.cfi_def_cfa %rbp, 16
	movl	%ebx, %edi
	callq	updateQuantizationParameter.158
	addq	$8, %rsp
	popq	%rbx
	popq	%rbp
	.cfi_def_cfa %rsp, 8
	retq
.LBB9_13:                               # %func_updateQuantizationParameter.160
	.cfi_def_cfa %rbp, 16
	movl	%ebx, %edi
	callq	updateQuantizationParameter.160
	addq	$8, %rsp
	popq	%rbx
	popq	%rbp
	.cfi_def_cfa %rsp, 8
	retq
.LBB9_14:                               # %func_updateQuantizationParameter.162
	.cfi_def_cfa %rbp, 16
	movl	%ebx, %edi
	callq	updateQuantizationParameter.162
	addq	$8, %rsp
	popq	%rbx
	popq	%rbp
	.cfi_def_cfa %rsp, 8
	retq
.LBB9_15:                               # %func_updateQuantizationParameter.168
	.cfi_def_cfa %rbp, 16
	movl	%ebx, %edi
	callq	updateQuantizationParameter.168
	addq	$8, %rsp
	popq	%rbx
	popq	%rbp
	.cfi_def_cfa %rsp, 8
	retq
.LBB9_16:                               # %func_updateQuantizationParameter.169
	.cfi_def_cfa %rbp, 16
	movl	%ebx, %edi
	callq	updateQuantizationParameter.169
	addq	$8, %rsp
	popq	%rbx
	popq	%rbp
	.cfi_def_cfa %rsp, 8
	retq
.LBB9_17:                               # %ctrl0
	.cfi_def_cfa %rbp, 16
	cmpl	$1, %eax
	je	.LBB9_2
# %bb.18:                               # %ctrl1
	cmpl	$2, %eax
	je	.LBB9_3
# %bb.19:                               # %ctrl2
	cmpl	$3, %eax
	je	.LBB9_4
# %bb.20:                               # %ctrl3
	cmpl	$4, %eax
	je	.LBB9_5
# %bb.21:                               # %ctrl4
	cmpl	$5, %eax
	je	.LBB9_6
# %bb.22:                               # %ctrl5
	cmpl	$6, %eax
	je	.LBB9_7
# %bb.23:                               # %ctrl6
	cmpl	$7, %eax
	je	.LBB9_8
# %bb.24:                               # %ctrl7
	cmpl	$8, %eax
	je	.LBB9_9
# %bb.25:                               # %ctrl8
	cmpl	$9, %eax
	je	.LBB9_10
# %bb.26:                               # %ctrl9
	cmpl	$10, %eax
	je	.LBB9_11
# %bb.27:                               # %ctrl10
	cmpl	$11, %eax
	je	.LBB9_12
# %bb.28:                               # %ctrl11
	cmpl	$12, %eax
	je	.LBB9_13
# %bb.29:                               # %ctrl12
	cmpl	$13, %eax
	je	.LBB9_14
# %bb.30:                               # %ctrl13
	cmpl	$14, %eax
	je	.LBB9_15
	jmp	.LBB9_16
.Lfunc_end9:
	.size	updateQuantizationParameter, .Lfunc_end9-updateQuantizationParameter
	.cfi_endproc
                                        # -- End function
	.globl	Qstep2QP                # -- Begin function Qstep2QP
	.p2align	4, 0x90
	.type	Qstep2QP,@function
Qstep2QP:                               # @Qstep2QP
	.cfi_startproc
# %bb.0:                                # %rand_bb
	pushq	%rbp
	.cfi_def_cfa_offset 16
	.cfi_offset %rbp, -16
	movq	%rsp, %rbp
	.cfi_def_cfa_register %rbp
	subq	$16, %rsp
	vmovsd	%xmm0, -8(%rbp)         # 8-byte Spill
	callq	get_rand
	cmpl	$0, %eax
	jne	.LBB10_17
# %bb.1:                                # %func_Qstep2QP.1
	vmovsd	-8(%rbp), %xmm0         # 8-byte Reload
                                        # xmm0 = mem[0],zero
	callq	Qstep2QP.1
	addq	$16, %rsp
	popq	%rbp
	.cfi_def_cfa %rsp, 8
	retq
.LBB10_2:                               # %func_Qstep2QP.16
	.cfi_def_cfa %rbp, 16
	vmovaps	%xmm1, %xmm0
	callq	Qstep2QP.16
	addq	$16, %rsp
	popq	%rbp
	.cfi_def_cfa %rsp, 8
	retq
.LBB10_3:                               # %func_Qstep2QP.38
	.cfi_def_cfa %rbp, 16
	callq	Qstep2QP.38
	addq	$16, %rsp
	popq	%rbp
	.cfi_def_cfa %rsp, 8
	retq
.LBB10_4:                               # %func_Qstep2QP.43
	.cfi_def_cfa %rbp, 16
	callq	Qstep2QP.43
	addq	$16, %rsp
	popq	%rbp
	.cfi_def_cfa %rsp, 8
	retq
.LBB10_5:                               # %func_Qstep2QP.45
	.cfi_def_cfa %rbp, 16
	callq	Qstep2QP.45
	addq	$16, %rsp
	popq	%rbp
	.cfi_def_cfa %rsp, 8
	retq
.LBB10_6:                               # %func_Qstep2QP.48
	.cfi_def_cfa %rbp, 16
	callq	Qstep2QP.48
	addq	$16, %rsp
	popq	%rbp
	.cfi_def_cfa %rsp, 8
	retq
.LBB10_7:                               # %func_Qstep2QP.54
	.cfi_def_cfa %rbp, 16
	callq	Qstep2QP.54
	addq	$16, %rsp
	popq	%rbp
	.cfi_def_cfa %rsp, 8
	retq
.LBB10_8:                               # %func_Qstep2QP.58
	.cfi_def_cfa %rbp, 16
	callq	Qstep2QP.58
	addq	$16, %rsp
	popq	%rbp
	.cfi_def_cfa %rsp, 8
	retq
.LBB10_9:                               # %func_Qstep2QP.101
	.cfi_def_cfa %rbp, 16
	callq	Qstep2QP.101
	addq	$16, %rsp
	popq	%rbp
	.cfi_def_cfa %rsp, 8
	retq
.LBB10_10:                              # %func_Qstep2QP.102
	.cfi_def_cfa %rbp, 16
	callq	Qstep2QP.102
	addq	$16, %rsp
	popq	%rbp
	.cfi_def_cfa %rsp, 8
	retq
.LBB10_11:                              # %func_Qstep2QP.107
	.cfi_def_cfa %rbp, 16
	callq	Qstep2QP.107
	addq	$16, %rsp
	popq	%rbp
	.cfi_def_cfa %rsp, 8
	retq
.LBB10_12:                              # %func_Qstep2QP.118
	.cfi_def_cfa %rbp, 16
	callq	Qstep2QP.118
	addq	$16, %rsp
	popq	%rbp
	.cfi_def_cfa %rsp, 8
	retq
.LBB10_13:                              # %func_Qstep2QP.126
	.cfi_def_cfa %rbp, 16
	callq	Qstep2QP.126
	addq	$16, %rsp
	popq	%rbp
	.cfi_def_cfa %rsp, 8
	retq
.LBB10_14:                              # %func_Qstep2QP.128
	.cfi_def_cfa %rbp, 16
	callq	Qstep2QP.128
	addq	$16, %rsp
	popq	%rbp
	.cfi_def_cfa %rsp, 8
	retq
.LBB10_15:                              # %func_Qstep2QP.136
	.cfi_def_cfa %rbp, 16
	vmovaps	%xmm1, %xmm0
	callq	Qstep2QP.136
	addq	$16, %rsp
	popq	%rbp
	.cfi_def_cfa %rsp, 8
	retq
.LBB10_16:                              # %func_Qstep2QP.137
	.cfi_def_cfa %rbp, 16
	vmovaps	%xmm1, %xmm0
	callq	Qstep2QP.137
	addq	$16, %rsp
	popq	%rbp
	.cfi_def_cfa %rsp, 8
	retq
.LBB10_17:                              # %ctrl0
	.cfi_def_cfa %rbp, 16
	vmovsd	-8(%rbp), %xmm1         # 8-byte Reload
                                        # xmm1 = mem[0],zero
	cmpl	$1, %eax
	je	.LBB10_2
# %bb.18:                               # %ctrl1
	cmpl	$2, %eax
	vmovaps	%xmm1, %xmm0
	je	.LBB10_3
# %bb.19:                               # %ctrl2
	cmpl	$3, %eax
	je	.LBB10_4
# %bb.20:                               # %ctrl3
	cmpl	$4, %eax
	je	.LBB10_5
# %bb.21:                               # %ctrl4
	cmpl	$5, %eax
	je	.LBB10_6
# %bb.22:                               # %ctrl5
	cmpl	$6, %eax
	je	.LBB10_7
# %bb.23:                               # %ctrl6
	cmpl	$7, %eax
	je	.LBB10_8
# %bb.24:                               # %ctrl7
	cmpl	$8, %eax
	je	.LBB10_9
# %bb.25:                               # %ctrl8
	cmpl	$9, %eax
	je	.LBB10_10
# %bb.26:                               # %ctrl9
	cmpl	$10, %eax
	je	.LBB10_11
# %bb.27:                               # %ctrl10
	cmpl	$11, %eax
	je	.LBB10_12
# %bb.28:                               # %ctrl11
	cmpl	$12, %eax
	je	.LBB10_13
# %bb.29:                               # %ctrl12
	cmpl	$13, %eax
	je	.LBB10_14
# %bb.30:                               # %ctrl13
	cmpl	$14, %eax
	je	.LBB10_15
	jmp	.LBB10_16
.Lfunc_end10:
	.size	Qstep2QP, .Lfunc_end10-Qstep2QP
	.cfi_endproc
                                        # -- End function
	.globl	updateRCModel           # -- Begin function updateRCModel
	.p2align	4, 0x90
	.type	updateRCModel,@function
updateRCModel:                          # @updateRCModel
	.cfi_startproc
# %bb.0:                                # %rand_bb
	pushq	%rbp
	.cfi_def_cfa_offset 16
	.cfi_offset %rbp, -16
	movq	%rsp, %rbp
	.cfi_def_cfa_register %rbp
	callq	get_rand
	cmpl	$0, %eax
	jne	.LBB11_17
# %bb.1:                                # %func_updateRCModel.7
	callq	updateRCModel.7
	popq	%rbp
	.cfi_def_cfa %rsp, 8
	retq
.LBB11_2:                               # %func_updateRCModel.21
	.cfi_def_cfa %rbp, 16
	callq	updateRCModel.21
	popq	%rbp
	.cfi_def_cfa %rsp, 8
	retq
.LBB11_3:                               # %func_updateRCModel.27
	.cfi_def_cfa %rbp, 16
	callq	updateRCModel.27
	popq	%rbp
	.cfi_def_cfa %rsp, 8
	retq
.LBB11_4:                               # %func_updateRCModel.34
	.cfi_def_cfa %rbp, 16
	callq	updateRCModel.34
	popq	%rbp
	.cfi_def_cfa %rsp, 8
	retq
.LBB11_5:                               # %func_updateRCModel.53
	.cfi_def_cfa %rbp, 16
	callq	updateRCModel.53
	popq	%rbp
	.cfi_def_cfa %rsp, 8
	retq
.LBB11_6:                               # %func_updateRCModel.64
	.cfi_def_cfa %rbp, 16
	callq	updateRCModel.64
	popq	%rbp
	.cfi_def_cfa %rsp, 8
	retq
.LBB11_7:                               # %func_updateRCModel.74
	.cfi_def_cfa %rbp, 16
	callq	updateRCModel.74
	popq	%rbp
	.cfi_def_cfa %rsp, 8
	retq
.LBB11_8:                               # %func_updateRCModel.79
	.cfi_def_cfa %rbp, 16
	callq	updateRCModel.79
	popq	%rbp
	.cfi_def_cfa %rsp, 8
	retq
.LBB11_9:                               # %func_updateRCModel.80
	.cfi_def_cfa %rbp, 16
	callq	updateRCModel.80
	popq	%rbp
	.cfi_def_cfa %rsp, 8
	retq
.LBB11_10:                              # %func_updateRCModel.84
	.cfi_def_cfa %rbp, 16
	callq	updateRCModel.84
	popq	%rbp
	.cfi_def_cfa %rsp, 8
	retq
.LBB11_11:                              # %func_updateRCModel.104
	.cfi_def_cfa %rbp, 16
	callq	updateRCModel.104
	popq	%rbp
	.cfi_def_cfa %rsp, 8
	retq
.LBB11_12:                              # %func_updateRCModel.115
	.cfi_def_cfa %rbp, 16
	callq	updateRCModel.115
	popq	%rbp
	.cfi_def_cfa %rsp, 8
	retq
.LBB11_13:                              # %func_updateRCModel.139
	.cfi_def_cfa %rbp, 16
	callq	updateRCModel.139
	popq	%rbp
	.cfi_def_cfa %rsp, 8
	retq
.LBB11_14:                              # %func_updateRCModel.153
	.cfi_def_cfa %rbp, 16
	callq	updateRCModel.153
	popq	%rbp
	.cfi_def_cfa %rsp, 8
	retq
.LBB11_15:                              # %func_updateRCModel.163
	.cfi_def_cfa %rbp, 16
	callq	updateRCModel.163
	popq	%rbp
	.cfi_def_cfa %rsp, 8
	retq
.LBB11_16:                              # %func_updateRCModel.164
	.cfi_def_cfa %rbp, 16
	callq	updateRCModel.164
	popq	%rbp
	.cfi_def_cfa %rsp, 8
	retq
.LBB11_17:                              # %ctrl0
	.cfi_def_cfa %rbp, 16
	cmpl	$1, %eax
	je	.LBB11_2
# %bb.18:                               # %ctrl1
	cmpl	$2, %eax
	je	.LBB11_3
# %bb.19:                               # %ctrl2
	cmpl	$3, %eax
	je	.LBB11_4
# %bb.20:                               # %ctrl3
	cmpl	$4, %eax
	je	.LBB11_5
# %bb.21:                               # %ctrl4
	cmpl	$5, %eax
	je	.LBB11_6
# %bb.22:                               # %ctrl5
	cmpl	$6, %eax
	je	.LBB11_7
# %bb.23:                               # %ctrl6
	cmpl	$7, %eax
	je	.LBB11_8
# %bb.24:                               # %ctrl7
	cmpl	$8, %eax
	je	.LBB11_9
# %bb.25:                               # %ctrl8
	cmpl	$9, %eax
	je	.LBB11_10
# %bb.26:                               # %ctrl9
	cmpl	$10, %eax
	je	.LBB11_11
# %bb.27:                               # %ctrl10
	cmpl	$11, %eax
	je	.LBB11_12
# %bb.28:                               # %ctrl11
	cmpl	$12, %eax
	je	.LBB11_13
# %bb.29:                               # %ctrl12
	cmpl	$13, %eax
	je	.LBB11_14
# %bb.30:                               # %ctrl13
	cmpl	$14, %eax
	je	.LBB11_15
	jmp	.LBB11_16
.Lfunc_end11:
	.size	updateRCModel, .Lfunc_end11-updateRCModel
	.cfi_endproc
                                        # -- End function
	.globl	QP2Qstep                # -- Begin function QP2Qstep
	.p2align	4, 0x90
	.type	QP2Qstep,@function
QP2Qstep:                               # @QP2Qstep
	.cfi_startproc
# %bb.0:                                # %rand_bb
	pushq	%rbp
	.cfi_def_cfa_offset 16
	.cfi_offset %rbp, -16
	movq	%rsp, %rbp
	.cfi_def_cfa_register %rbp
	pushq	%rbx
	pushq	%rax
	.cfi_offset %rbx, -24
	movl	%edi, %ebx
	callq	get_rand
	cmpl	$0, %eax
	jne	.LBB12_7
# %bb.1:                                # %func_QP2Qstep.30
	movl	%ebx, %edi
	callq	QP2Qstep.30
	addq	$8, %rsp
	popq	%rbx
	popq	%rbp
	.cfi_def_cfa %rsp, 8
	retq
.LBB12_2:                               # %func_QP2Qstep.41
	.cfi_def_cfa %rbp, 16
	movl	%ebx, %edi
	callq	QP2Qstep.41
	addq	$8, %rsp
	popq	%rbx
	popq	%rbp
	.cfi_def_cfa %rsp, 8
	retq
.LBB12_3:                               # %func_QP2Qstep.55
	.cfi_def_cfa %rbp, 16
	movl	%ebx, %edi
	callq	QP2Qstep.55
	addq	$8, %rsp
	popq	%rbx
	popq	%rbp
	.cfi_def_cfa %rsp, 8
	retq
.LBB12_4:                               # %func_QP2Qstep.68
	.cfi_def_cfa %rbp, 16
	movl	%ebx, %edi
	callq	QP2Qstep.68
	addq	$8, %rsp
	popq	%rbx
	popq	%rbp
	.cfi_def_cfa %rsp, 8
	retq
.LBB12_5:                               # %func_QP2Qstep.72
	.cfi_def_cfa %rbp, 16
	movl	%ebx, %edi
	callq	QP2Qstep.72
	addq	$8, %rsp
	popq	%rbx
	popq	%rbp
	.cfi_def_cfa %rsp, 8
	retq
.LBB12_6:                               # %func_QP2Qstep.94
	.cfi_def_cfa %rbp, 16
	movl	%ebx, %edi
	callq	QP2Qstep.94
	addq	$8, %rsp
	popq	%rbx
	popq	%rbp
	.cfi_def_cfa %rsp, 8
	retq
.LBB12_7:                               # %ctrl0
	.cfi_def_cfa %rbp, 16
	cmpl	$1, %eax
	je	.LBB12_2
# %bb.8:                                # %ctrl1
	cmpl	$2, %eax
	je	.LBB12_3
# %bb.9:                                # %ctrl2
	cmpl	$3, %eax
	je	.LBB12_4
# %bb.10:                               # %ctrl3
	cmpl	$4, %eax
	je	.LBB12_5
	jmp	.LBB12_6
.Lfunc_end12:
	.size	QP2Qstep, .Lfunc_end12-QP2Qstep
	.cfi_endproc
                                        # -- End function
	.globl	RCModelEstimator        # -- Begin function RCModelEstimator
	.p2align	4, 0x90
	.type	RCModelEstimator,@function
RCModelEstimator:                       # @RCModelEstimator
	.cfi_startproc
# %bb.0:                                # %rand_bb
	pushq	%rbp
	.cfi_def_cfa_offset 16
	.cfi_offset %rbp, -16
	movq	%rsp, %rbp
	.cfi_def_cfa_register %rbp
	pushq	%rbx
	pushq	%rax
	.cfi_offset %rbx, -24
	movl	%edi, %ebx
	callq	get_rand
	cmpl	$0, %eax
	jne	.LBB13_17
# %bb.1:                                # %func_RCModelEstimator.28
	movl	%ebx, %edi
	callq	RCModelEstimator.28
	addq	$8, %rsp
	popq	%rbx
	popq	%rbp
	.cfi_def_cfa %rsp, 8
	retq
.LBB13_2:                               # %func_RCModelEstimator.62
	.cfi_def_cfa %rbp, 16
	movl	%ebx, %edi
	callq	RCModelEstimator.62
	addq	$8, %rsp
	popq	%rbx
	popq	%rbp
	.cfi_def_cfa %rsp, 8
	retq
.LBB13_3:                               # %func_RCModelEstimator.63
	.cfi_def_cfa %rbp, 16
	movl	%ebx, %edi
	callq	RCModelEstimator.63
	addq	$8, %rsp
	popq	%rbx
	popq	%rbp
	.cfi_def_cfa %rsp, 8
	retq
.LBB13_4:                               # %func_RCModelEstimator.75
	.cfi_def_cfa %rbp, 16
	movl	%ebx, %edi
	callq	RCModelEstimator.75
	addq	$8, %rsp
	popq	%rbx
	popq	%rbp
	.cfi_def_cfa %rsp, 8
	retq
.LBB13_5:                               # %func_RCModelEstimator.91
	.cfi_def_cfa %rbp, 16
	movl	%ebx, %edi
	callq	RCModelEstimator.91
	addq	$8, %rsp
	popq	%rbx
	popq	%rbp
	.cfi_def_cfa %rsp, 8
	retq
.LBB13_6:                               # %func_RCModelEstimator.92
	.cfi_def_cfa %rbp, 16
	movl	%ebx, %edi
	callq	RCModelEstimator.92
	addq	$8, %rsp
	popq	%rbx
	popq	%rbp
	.cfi_def_cfa %rsp, 8
	retq
.LBB13_7:                               # %func_RCModelEstimator.96
	.cfi_def_cfa %rbp, 16
	movl	%ebx, %edi
	callq	RCModelEstimator.96
	addq	$8, %rsp
	popq	%rbx
	popq	%rbp
	.cfi_def_cfa %rsp, 8
	retq
.LBB13_8:                               # %func_RCModelEstimator.99
	.cfi_def_cfa %rbp, 16
	movl	%ebx, %edi
	callq	RCModelEstimator.99
	addq	$8, %rsp
	popq	%rbx
	popq	%rbp
	.cfi_def_cfa %rsp, 8
	retq
.LBB13_9:                               # %func_RCModelEstimator.103
	.cfi_def_cfa %rbp, 16
	movl	%ebx, %edi
	callq	RCModelEstimator.103
	addq	$8, %rsp
	popq	%rbx
	popq	%rbp
	.cfi_def_cfa %rsp, 8
	retq
.LBB13_10:                              # %func_RCModelEstimator.110
	.cfi_def_cfa %rbp, 16
	movl	%ebx, %edi
	callq	RCModelEstimator.110
	addq	$8, %rsp
	popq	%rbx
	popq	%rbp
	.cfi_def_cfa %rsp, 8
	retq
.LBB13_11:                              # %func_RCModelEstimator.119
	.cfi_def_cfa %rbp, 16
	movl	%ebx, %edi
	callq	RCModelEstimator.119
	addq	$8, %rsp
	popq	%rbx
	popq	%rbp
	.cfi_def_cfa %rsp, 8
	retq
.LBB13_12:                              # %func_RCModelEstimator.142
	.cfi_def_cfa %rbp, 16
	movl	%ebx, %edi
	callq	RCModelEstimator.142
	addq	$8, %rsp
	popq	%rbx
	popq	%rbp
	.cfi_def_cfa %rsp, 8
	retq
.LBB13_13:                              # %func_RCModelEstimator.143
	.cfi_def_cfa %rbp, 16
	movl	%ebx, %edi
	callq	RCModelEstimator.143
	addq	$8, %rsp
	popq	%rbx
	popq	%rbp
	.cfi_def_cfa %rsp, 8
	retq
.LBB13_14:                              # %func_RCModelEstimator.144
	.cfi_def_cfa %rbp, 16
	movl	%ebx, %edi
	callq	RCModelEstimator.144
	addq	$8, %rsp
	popq	%rbx
	popq	%rbp
	.cfi_def_cfa %rsp, 8
	retq
.LBB13_15:                              # %func_RCModelEstimator.145
	.cfi_def_cfa %rbp, 16
	movl	%ebx, %edi
	callq	RCModelEstimator.145
	addq	$8, %rsp
	popq	%rbx
	popq	%rbp
	.cfi_def_cfa %rsp, 8
	retq
.LBB13_16:                              # %func_RCModelEstimator.149
	.cfi_def_cfa %rbp, 16
	movl	%ebx, %edi
	callq	RCModelEstimator.149
	addq	$8, %rsp
	popq	%rbx
	popq	%rbp
	.cfi_def_cfa %rsp, 8
	retq
.LBB13_17:                              # %ctrl0
	.cfi_def_cfa %rbp, 16
	cmpl	$1, %eax
	je	.LBB13_2
# %bb.18:                               # %ctrl1
	cmpl	$2, %eax
	je	.LBB13_3
# %bb.19:                               # %ctrl2
	cmpl	$3, %eax
	je	.LBB13_4
# %bb.20:                               # %ctrl3
	cmpl	$4, %eax
	je	.LBB13_5
# %bb.21:                               # %ctrl4
	cmpl	$5, %eax
	je	.LBB13_6
# %bb.22:                               # %ctrl5
	cmpl	$6, %eax
	je	.LBB13_7
# %bb.23:                               # %ctrl6
	cmpl	$7, %eax
	je	.LBB13_8
# %bb.24:                               # %ctrl7
	cmpl	$8, %eax
	je	.LBB13_9
# %bb.25:                               # %ctrl8
	cmpl	$9, %eax
	je	.LBB13_10
# %bb.26:                               # %ctrl9
	cmpl	$10, %eax
	je	.LBB13_11
# %bb.27:                               # %ctrl10
	cmpl	$11, %eax
	je	.LBB13_12
# %bb.28:                               # %ctrl11
	cmpl	$12, %eax
	je	.LBB13_13
# %bb.29:                               # %ctrl12
	cmpl	$13, %eax
	je	.LBB13_14
# %bb.30:                               # %ctrl13
	cmpl	$14, %eax
	je	.LBB13_15
	jmp	.LBB13_16
.Lfunc_end13:
	.size	RCModelEstimator, .Lfunc_end13-RCModelEstimator
	.cfi_endproc
                                        # -- End function
	.globl	ComputeFrameMAD         # -- Begin function ComputeFrameMAD
	.p2align	4, 0x90
	.type	ComputeFrameMAD,@function
ComputeFrameMAD:                        # @ComputeFrameMAD
	.cfi_startproc
# %bb.0:                                # %rand_bb
	pushq	%rbp
	.cfi_def_cfa_offset 16
	.cfi_offset %rbp, -16
	movq	%rsp, %rbp
	.cfi_def_cfa_register %rbp
	callq	get_rand
	cmpl	$0, %eax
	jne	.LBB14_2
# %bb.1:                                # %func_ComputeFrameMAD.3
	callq	ComputeFrameMAD.3
	popq	%rbp
	.cfi_def_cfa %rsp, 8
	retq
.LBB14_2:                               # %func_ComputeFrameMAD.9
	.cfi_def_cfa %rbp, 16
	callq	ComputeFrameMAD.9
	popq	%rbp
	.cfi_def_cfa %rsp, 8
	retq
.Lfunc_end14:
	.size	ComputeFrameMAD, .Lfunc_end14-ComputeFrameMAD
	.cfi_endproc
                                        # -- End function
	.globl	updateMADModel          # -- Begin function updateMADModel
	.p2align	4, 0x90
	.type	updateMADModel,@function
updateMADModel:                         # @updateMADModel
	.cfi_startproc
# %bb.0:                                # %rand_bb
	pushq	%rbp
	.cfi_def_cfa_offset 16
	.cfi_offset %rbp, -16
	movq	%rsp, %rbp
	.cfi_def_cfa_register %rbp
	callq	get_rand
	cmpl	$0, %eax
	jne	.LBB15_17
# %bb.1:                                # %func_updateMADModel.12
	callq	updateMADModel.12
	popq	%rbp
	.cfi_def_cfa %rsp, 8
	retq
.LBB15_2:                               # %func_updateMADModel.22
	.cfi_def_cfa %rbp, 16
	callq	updateMADModel.22
	popq	%rbp
	.cfi_def_cfa %rsp, 8
	retq
.LBB15_3:                               # %func_updateMADModel.29
	.cfi_def_cfa %rbp, 16
	callq	updateMADModel.29
	popq	%rbp
	.cfi_def_cfa %rsp, 8
	retq
.LBB15_4:                               # %func_updateMADModel.44
	.cfi_def_cfa %rbp, 16
	callq	updateMADModel.44
	popq	%rbp
	.cfi_def_cfa %rsp, 8
	retq
.LBB15_5:                               # %func_updateMADModel.59
	.cfi_def_cfa %rbp, 16
	callq	updateMADModel.59
	popq	%rbp
	.cfi_def_cfa %rsp, 8
	retq
.LBB15_6:                               # %func_updateMADModel.65
	.cfi_def_cfa %rbp, 16
	callq	updateMADModel.65
	popq	%rbp
	.cfi_def_cfa %rsp, 8
	retq
.LBB15_7:                               # %func_updateMADModel.82
	.cfi_def_cfa %rbp, 16
	callq	updateMADModel.82
	popq	%rbp
	.cfi_def_cfa %rsp, 8
	retq
.LBB15_8:                               # %func_updateMADModel.109
	.cfi_def_cfa %rbp, 16
	callq	updateMADModel.109
	popq	%rbp
	.cfi_def_cfa %rsp, 8
	retq
.LBB15_9:                               # %func_updateMADModel.120
	.cfi_def_cfa %rbp, 16
	callq	updateMADModel.120
	popq	%rbp
	.cfi_def_cfa %rsp, 8
	retq
.LBB15_10:                              # %func_updateMADModel.127
	.cfi_def_cfa %rbp, 16
	callq	updateMADModel.127
	popq	%rbp
	.cfi_def_cfa %rsp, 8
	retq
.LBB15_11:                              # %func_updateMADModel.129
	.cfi_def_cfa %rbp, 16
	callq	updateMADModel.129
	popq	%rbp
	.cfi_def_cfa %rsp, 8
	retq
.LBB15_12:                              # %func_updateMADModel.146
	.cfi_def_cfa %rbp, 16
	callq	updateMADModel.146
	popq	%rbp
	.cfi_def_cfa %rsp, 8
	retq
.LBB15_13:                              # %func_updateMADModel.148
	.cfi_def_cfa %rbp, 16
	callq	updateMADModel.148
	popq	%rbp
	.cfi_def_cfa %rsp, 8
	retq
.LBB15_14:                              # %func_updateMADModel.156
	.cfi_def_cfa %rbp, 16
	callq	updateMADModel.156
	popq	%rbp
	.cfi_def_cfa %rsp, 8
	retq
.LBB15_15:                              # %func_updateMADModel.161
	.cfi_def_cfa %rbp, 16
	callq	updateMADModel.161
	popq	%rbp
	.cfi_def_cfa %rsp, 8
	retq
.LBB15_16:                              # %func_updateMADModel.167
	.cfi_def_cfa %rbp, 16
	callq	updateMADModel.167
	popq	%rbp
	.cfi_def_cfa %rsp, 8
	retq
.LBB15_17:                              # %ctrl0
	.cfi_def_cfa %rbp, 16
	cmpl	$1, %eax
	je	.LBB15_2
# %bb.18:                               # %ctrl1
	cmpl	$2, %eax
	je	.LBB15_3
# %bb.19:                               # %ctrl2
	cmpl	$3, %eax
	je	.LBB15_4
# %bb.20:                               # %ctrl3
	cmpl	$4, %eax
	je	.LBB15_5
# %bb.21:                               # %ctrl4
	cmpl	$5, %eax
	je	.LBB15_6
# %bb.22:                               # %ctrl5
	cmpl	$6, %eax
	je	.LBB15_7
# %bb.23:                               # %ctrl6
	cmpl	$7, %eax
	je	.LBB15_8
# %bb.24:                               # %ctrl7
	cmpl	$8, %eax
	je	.LBB15_9
# %bb.25:                               # %ctrl8
	cmpl	$9, %eax
	je	.LBB15_10
# %bb.26:                               # %ctrl9
	cmpl	$10, %eax
	je	.LBB15_11
# %bb.27:                               # %ctrl10
	cmpl	$11, %eax
	je	.LBB15_12
# %bb.28:                               # %ctrl11
	cmpl	$12, %eax
	je	.LBB15_13
# %bb.29:                               # %ctrl12
	cmpl	$13, %eax
	je	.LBB15_14
# %bb.30:                               # %ctrl13
	cmpl	$14, %eax
	je	.LBB15_15
	jmp	.LBB15_16
.Lfunc_end15:
	.size	updateMADModel, .Lfunc_end15-updateMADModel
	.cfi_endproc
                                        # -- End function
	.globl	MADModelEstimator       # -- Begin function MADModelEstimator
	.p2align	4, 0x90
	.type	MADModelEstimator,@function
MADModelEstimator:                      # @MADModelEstimator
	.cfi_startproc
# %bb.0:                                # %rand_bb
	pushq	%rbp
	.cfi_def_cfa_offset 16
	.cfi_offset %rbp, -16
	movq	%rsp, %rbp
	.cfi_def_cfa_register %rbp
	pushq	%rbx
	pushq	%rax
	.cfi_offset %rbx, -24
	movl	%edi, %ebx
	callq	get_rand
	cmpl	$0, %eax
	jne	.LBB16_17
# %bb.1:                                # %func_MADModelEstimator.10
	movl	%ebx, %edi
	callq	MADModelEstimator.10
	addq	$8, %rsp
	popq	%rbx
	popq	%rbp
	.cfi_def_cfa %rsp, 8
	retq
.LBB16_2:                               # %func_MADModelEstimator.71
	.cfi_def_cfa %rbp, 16
	movl	%ebx, %edi
	callq	MADModelEstimator.71
	addq	$8, %rsp
	popq	%rbx
	popq	%rbp
	.cfi_def_cfa %rsp, 8
	retq
.LBB16_3:                               # %func_MADModelEstimator.81
	.cfi_def_cfa %rbp, 16
	movl	%ebx, %edi
	callq	MADModelEstimator.81
	addq	$8, %rsp
	popq	%rbx
	popq	%rbp
	.cfi_def_cfa %rsp, 8
	retq
.LBB16_4:                               # %func_MADModelEstimator.93
	.cfi_def_cfa %rbp, 16
	movl	%ebx, %edi
	callq	MADModelEstimator.93
	addq	$8, %rsp
	popq	%rbx
	popq	%rbp
	.cfi_def_cfa %rsp, 8
	retq
.LBB16_5:                               # %func_MADModelEstimator.111
	.cfi_def_cfa %rbp, 16
	movl	%ebx, %edi
	callq	MADModelEstimator.111
	addq	$8, %rsp
	popq	%rbx
	popq	%rbp
	.cfi_def_cfa %rsp, 8
	retq
.LBB16_6:                               # %func_MADModelEstimator.116
	.cfi_def_cfa %rbp, 16
	movl	%ebx, %edi
	callq	MADModelEstimator.116
	addq	$8, %rsp
	popq	%rbx
	popq	%rbp
	.cfi_def_cfa %rsp, 8
	retq
.LBB16_7:                               # %func_MADModelEstimator.138
	.cfi_def_cfa %rbp, 16
	movl	%ebx, %edi
	callq	MADModelEstimator.138
	addq	$8, %rsp
	popq	%rbx
	popq	%rbp
	.cfi_def_cfa %rsp, 8
	retq
.LBB16_8:                               # %func_MADModelEstimator.150
	.cfi_def_cfa %rbp, 16
	movl	%ebx, %edi
	callq	MADModelEstimator.150
	addq	$8, %rsp
	popq	%rbx
	popq	%rbp
	.cfi_def_cfa %rsp, 8
	retq
.LBB16_9:                               # %func_MADModelEstimator.155
	.cfi_def_cfa %rbp, 16
	movl	%ebx, %edi
	callq	MADModelEstimator.155
	addq	$8, %rsp
	popq	%rbx
	popq	%rbp
	.cfi_def_cfa %rsp, 8
	retq
.LBB16_10:                              # %func_MADModelEstimator.165
	.cfi_def_cfa %rbp, 16
	movl	%ebx, %edi
	callq	MADModelEstimator.165
	addq	$8, %rsp
	popq	%rbx
	popq	%rbp
	.cfi_def_cfa %rsp, 8
	retq
.LBB16_11:                              # %func_MADModelEstimator.166
	.cfi_def_cfa %rbp, 16
	movl	%ebx, %edi
	callq	MADModelEstimator.166
	addq	$8, %rsp
	popq	%rbx
	popq	%rbp
	.cfi_def_cfa %rsp, 8
	retq
.LBB16_12:                              # %func_MADModelEstimator.170
	.cfi_def_cfa %rbp, 16
	movl	%ebx, %edi
	callq	MADModelEstimator.170
	addq	$8, %rsp
	popq	%rbx
	popq	%rbp
	.cfi_def_cfa %rsp, 8
	retq
.LBB16_13:                              # %func_MADModelEstimator.171
	.cfi_def_cfa %rbp, 16
	movl	%ebx, %edi
	callq	MADModelEstimator.171
	addq	$8, %rsp
	popq	%rbx
	popq	%rbp
	.cfi_def_cfa %rsp, 8
	retq
.LBB16_14:                              # %func_MADModelEstimator.172
	.cfi_def_cfa %rbp, 16
	movl	%ebx, %edi
	callq	MADModelEstimator.172
	addq	$8, %rsp
	popq	%rbx
	popq	%rbp
	.cfi_def_cfa %rsp, 8
	retq
.LBB16_15:                              # %func_MADModelEstimator.173
	.cfi_def_cfa %rbp, 16
	movl	%ebx, %edi
	callq	MADModelEstimator.173
	addq	$8, %rsp
	popq	%rbx
	popq	%rbp
	.cfi_def_cfa %rsp, 8
	retq
.LBB16_16:                              # %func_MADModelEstimator.174
	.cfi_def_cfa %rbp, 16
	movl	%ebx, %edi
	callq	MADModelEstimator.174
	addq	$8, %rsp
	popq	%rbx
	popq	%rbp
	.cfi_def_cfa %rsp, 8
	retq
.LBB16_17:                              # %ctrl0
	.cfi_def_cfa %rbp, 16
	cmpl	$1, %eax
	je	.LBB16_2
# %bb.18:                               # %ctrl1
	cmpl	$2, %eax
	je	.LBB16_3
# %bb.19:                               # %ctrl2
	cmpl	$3, %eax
	je	.LBB16_4
# %bb.20:                               # %ctrl3
	cmpl	$4, %eax
	je	.LBB16_5
# %bb.21:                               # %ctrl4
	cmpl	$5, %eax
	je	.LBB16_6
# %bb.22:                               # %ctrl5
	cmpl	$6, %eax
	je	.LBB16_7
# %bb.23:                               # %ctrl6
	cmpl	$7, %eax
	je	.LBB16_8
# %bb.24:                               # %ctrl7
	cmpl	$8, %eax
	je	.LBB16_9
# %bb.25:                               # %ctrl8
	cmpl	$9, %eax
	je	.LBB16_10
# %bb.26:                               # %ctrl9
	cmpl	$10, %eax
	je	.LBB16_11
# %bb.27:                               # %ctrl10
	cmpl	$11, %eax
	je	.LBB16_12
# %bb.28:                               # %ctrl11
	cmpl	$12, %eax
	je	.LBB16_13
# %bb.29:                               # %ctrl12
	cmpl	$13, %eax
	je	.LBB16_14
# %bb.30:                               # %ctrl13
	cmpl	$14, %eax
	je	.LBB16_15
	jmp	.LBB16_16
.Lfunc_end16:
	.size	MADModelEstimator, .Lfunc_end16-MADModelEstimator
	.cfi_endproc
                                        # -- End function
	.section	.rodata.cst8,"aM",@progbits,8
	.p2align	3               # -- Begin function Qstep2QP.1
.LCPI17_0:
	.quad	4604086194056200192     # double 0.65625
.LCPI17_1:
	.quad	4604930618986332160     # double 0.75
.LCPI17_2:
	.quad	4605775043916464128     # double 0.84375
.LCPI17_3:
	.quad	4606619468846596096     # double 0.9375
.LCPI17_4:
	.quad	4607463893776728064     # double 1.0625
.LCPI17_5:
	.quad	4607745368753438720     # double 1.125
.LCPI17_6:
	.quad	4607182418800017408     # double 1
.LCPI17_7:
	.quad	4606056518893174784     # double 0.875
.LCPI17_8:
	.quad	4605493568939753472     # double 0.8125
.LCPI17_9:
	.quad	4604367669032910848     # double 0.6875
.LCPI17_10:
	.quad	4603804719079489536     # double 0.625
.LCPI17_11:
	.quad	4611686018427387904     # double 2
	.text
	.globl	Qstep2QP.1
	.p2align	4, 0x90
	.type	Qstep2QP.1,@function
Qstep2QP.1:                             # @Qstep2QP.1
	.cfi_startproc
# %bb.0:                                # %entry
	pushq	%rbp
	.cfi_def_cfa_offset 16
	.cfi_offset %rbp, -16
	movq	%rsp, %rbp
	.cfi_def_cfa_register %rbp
	pushq	%rbx
	subq	$56, %rsp
	.cfi_offset %rbx, -24
	movl	$708820317, -32(%rbp)   # imm = 0x2A3FBD5D
	vmovsd	%xmm0, -16(%rbp)
	movl	$0, -24(%rbp)
	movl	$0, -20(%rbp)
	vmovsd	-16(%rbp), %xmm0        # xmm0 = mem[0],zero
	vmovsd	%xmm0, -40(%rbp)        # 8-byte Spill
	xorl	%edi, %edi
	callq	QP2Qstep
	vucomisd	-40(%rbp), %xmm0 # 8-byte Folded Reload
	jbe	.LBB17_2
# %bb.1:                                # %if.then
	movl	$0, -28(%rbp)
	jmp	.LBB17_24
.LBB17_2:                               # %if.else
	vmovsd	-16(%rbp), %xmm0        # xmm0 = mem[0],zero
	vmovsd	%xmm0, -56(%rbp)        # 8-byte Spill
	movl	$51, %edi
	callq	QP2Qstep
	vmovsd	-56(%rbp), %xmm1        # 8-byte Reload
                                        # xmm1 = mem[0],zero
	vucomisd	%xmm0, %xmm1
	jbe	.LBB17_4
# %bb.3:                                # %if.then3
	movl	$51, -28(%rbp)
	jmp	.LBB17_24
.LBB17_4:                               # %if.end
	jmp	.LBB17_5
.LBB17_5:                               # %if.end4
	jmp	.LBB17_6
.LBB17_6:                               # %while.cond
                                        # =>This Inner Loop Header: Depth=1
	vmovsd	-16(%rbp), %xmm0        # xmm0 = mem[0],zero
	vmovsd	%xmm0, -48(%rbp)        # 8-byte Spill
	movl	$5, %edi
	callq	QP2Qstep
	vmovsd	-48(%rbp), %xmm1        # 8-byte Reload
                                        # xmm1 = mem[0],zero
	vucomisd	%xmm0, %xmm1
	jbe	.LBB17_8
# %bb.7:                                # %while.body
                                        #   in Loop: Header=BB17_6 Depth=1
	vmovsd	.LCPI17_11(%rip), %xmm0 # xmm0 = mem[0],zero
	vmovsd	-16(%rbp), %xmm1        # xmm1 = mem[0],zero
	vdivsd	%xmm0, %xmm1, %xmm0
	vmovsd	%xmm0, -16(%rbp)
	movl	-24(%rbp), %eax
	addl	$1, %eax
	movl	%eax, -24(%rbp)
	jmp	.LBB17_6
.LBB17_8:                               # %while.end
	vmovsd	.LCPI17_0(%rip), %xmm0  # xmm0 = mem[0],zero
	vucomisd	-16(%rbp), %xmm0
	jb	.LBB17_10
# %bb.9:                                # %if.then8
	vmovsd	.LCPI17_10(%rip), %xmm0 # xmm0 = mem[0],zero
	vmovsd	%xmm0, -16(%rbp)
	movl	$0, -20(%rbp)
	jmp	.LBB17_23
.LBB17_10:                              # %if.else9
	vmovsd	.LCPI17_1(%rip), %xmm0  # xmm0 = mem[0],zero
	vucomisd	-16(%rbp), %xmm0
	jb	.LBB17_12
# %bb.11:                               # %if.then11
	vmovsd	.LCPI17_9(%rip), %xmm0  # xmm0 = mem[0],zero
	vmovsd	%xmm0, -16(%rbp)
	movl	$1, -20(%rbp)
	jmp	.LBB17_22
.LBB17_12:                              # %if.else12
	vmovsd	.LCPI17_2(%rip), %xmm0  # xmm0 = mem[0],zero
	vucomisd	-16(%rbp), %xmm0
	jb	.LBB17_14
# %bb.13:                               # %if.then14
	vmovsd	.LCPI17_8(%rip), %xmm0  # xmm0 = mem[0],zero
	vmovsd	%xmm0, -16(%rbp)
	movl	$2, -20(%rbp)
	jmp	.LBB17_21
.LBB17_14:                              # %if.else15
	vmovsd	.LCPI17_3(%rip), %xmm0  # xmm0 = mem[0],zero
	vucomisd	-16(%rbp), %xmm0
	jb	.LBB17_16
# %bb.15:                               # %if.then17
	vmovsd	.LCPI17_7(%rip), %xmm0  # xmm0 = mem[0],zero
	vmovsd	%xmm0, -16(%rbp)
	movl	$3, -20(%rbp)
	jmp	.LBB17_20
.LBB17_16:                              # %if.else18
	vmovsd	.LCPI17_4(%rip), %xmm0  # xmm0 = mem[0],zero
	vucomisd	-16(%rbp), %xmm0
	jb	.LBB17_18
# %bb.17:                               # %if.then20
	vmovsd	.LCPI17_6(%rip), %xmm0  # xmm0 = mem[0],zero
	vmovsd	%xmm0, -16(%rbp)
	movl	$4, -20(%rbp)
	jmp	.LBB17_19
.LBB17_18:                              # %if.else21
	vmovsd	.LCPI17_5(%rip), %xmm0  # xmm0 = mem[0],zero
	vmovsd	%xmm0, -16(%rbp)
	movl	$5, -20(%rbp)
.LBB17_19:                              # %if.end22
	jmp	.LBB17_20
.LBB17_20:                              # %if.end23
	jmp	.LBB17_21
.LBB17_21:                              # %if.end24
	jmp	.LBB17_22
.LBB17_22:                              # %if.end25
	jmp	.LBB17_23
.LBB17_23:                              # %if.end26
	imull	$6, -24(%rbp), %eax
	addl	-20(%rbp), %eax
	movl	%eax, -28(%rbp)
.LBB17_24:                              # %return
	movl	-28(%rbp), %ebx
	cmpl	$708820317, -32(%rbp)   # imm = 0x2A3FBD5D
	jne	.LBB17_26
.LBB17_25:
	movl	%ebx, %eax
	addq	$56, %rsp
	popq	%rbx
	popq	%rbp
	.cfi_def_cfa %rsp, 8
	retq
.LBB17_26:                              # %func_exit
	.cfi_def_cfa %rbp, 16
	callq	detect_breach
	jmp	.LBB17_25
.Lfunc_end17:
	.size	Qstep2QP.1, .Lfunc_end17-Qstep2QP.1
	.cfi_endproc
                                        # -- End function
	.section	.rodata.cst8,"aM",@progbits,8
	.p2align	3               # -- Begin function rc_init_seq.2
.LCPI18_0:
	.quad	4605380978949069210     # double 0.80000000000000004
.LCPI18_1:
	.quad	4612947026323051643     # double 2.5600000000000001
.LCPI18_2:
	.quad	4616189618054758400     # double 4
.LCPI18_3:
	.quad	4602678819172646912     # double 0.5
.LCPI18_4:
	.quad	4606281698874543309     # double 0.90000000000000002
.LCPI18_5:
	.quad	4598175219545276416     # double 0.25
.LCPI18_6:
	.quad	4607182418800017408     # double 1
.LCPI18_7:
	.quad	4612586738352862003     # double 2.3999999999999999
.LCPI18_8:
	.quad	4608983858650965606     # double 1.3999999999999999
.LCPI18_9:
	.quad	4603579539098121011     # double 0.59999999999999998
.LCPI18_10:
	.quad	4608083138725491507     # double 1.2
.LCPI18_11:
	.quad	4596373779694328218     # double 0.20000000000000001
.LCPI18_12:
	.quad	4599075939470750515     # double 0.29999999999999999
.LCPI18_13:
	.quad	4591870180066957722     # double 0.10000000000000001
	.text
	.globl	rc_init_seq.2
	.p2align	4, 0x90
	.type	rc_init_seq.2,@function
rc_init_seq.2:                          # @rc_init_seq.2
	.cfi_startproc
# %bb.0:                                # %entry
	pushq	%rbp
	.cfi_def_cfa_offset 16
	.cfi_offset %rbp, -16
	movq	%rsp, %rbp
	.cfi_def_cfa_register %rbp
	subq	$48, %rsp
	movl	$1311842741, -44(%rbp)  # imm = 0x4E3121B5
	movl	$0, Xp
	movl	$0, Xb
	movq	input, %rax
	vcvtsi2sdl	3240(%rax), %xmm0, %xmm0
	vmovsd	%xmm0, bit_rate
	movq	img, %rax
	vmovss	48(%rax), %xmm0         # xmm0 = mem[0],zero,zero,zero
	movq	input, %rax
	movl	1236(%rax), %eax
	addl	$1, %eax
	vcvtsi2ss	%eax, %xmm0, %xmm1
	vmulss	%xmm1, %xmm0, %xmm0
	movq	input, %rax
	movl	20(%rax), %eax
	addl	$1, %eax
	vcvtsi2ss	%eax, %xmm0, %xmm1
	vdivss	%xmm1, %xmm0, %xmm0
	vcvtss2sd	%xmm0, %xmm0, %xmm0
	vmovsd	%xmm0, frame_rate
	vmovsd	bit_rate, %xmm0         # xmm0 = mem[0],zero
	vmovsd	%xmm0, PreviousBit_Rate
	movq	img, %rax
	movl	60(%rax), %eax
	movq	img, %rcx
	imull	52(%rcx), %eax
	cltd
	movl	$256, %ecx              # imm = 0x100
	idivl	%ecx
	movq	img, %rcx
	movl	%eax, 72608(%rcx)
	movq	input, %rax
	movl	3248(%rax), %eax
	movq	img, %rcx
	cmpl	72608(%rcx), %eax
	jle	.LBB18_2
# %bb.1:                                # %if.then
	movq	img, %rax
	movl	72608(%rax), %eax
	movq	input, %rcx
	movl	%eax, 3248(%rcx)
.LBB18_2:                               # %if.end
	movq	input, %rax
	movl	3248(%rax), %eax
	movq	img, %rcx
	cmpl	72608(%rcx), %eax
	jge	.LBB18_4
# %bb.3:                                # %if.then15
	movq	img, %rax
	movl	72608(%rax), %eax
	movq	input, %rcx
	cltd
	idivl	3248(%rcx)
	movl	%eax, TotalNumberofBasicUnit
.LBB18_4:                               # %if.end19
	vmovsd	.LCPI18_0(%rip), %xmm0  # xmm0 = mem[0],zero
	vmovsd	.LCPI18_1(%rip), %xmm1  # xmm1 = mem[0],zero
	vmovsd	.LCPI18_2(%rip), %xmm2  # xmm2 = mem[0],zero
	vmovsd	%xmm2, MINVALUE
	vmulsd	bit_rate, %xmm1, %xmm1
	vmovsd	%xmm1, BufferSize
	vxorps	%xmm1, %xmm1, %xmm1
	vmovsd	%xmm1, CurrentBufferFullness
	vmovsd	CurrentBufferFullness, %xmm1 # xmm1 = mem[0],zero
	vmovsd	%xmm1, GOPTargetBufferLevel
	vmulsd	BufferSize, %xmm0, %xmm0
	vmovsd	%xmm0, InitialDelayOffset
	movl	$0, m_windowSize
	movl	$0, MADm_windowSize
	movq	img, %rax
	movl	$0, 72560(%rax)
	movq	img, %rax
	movl	$0, 72564(%rax)
	movq	img, %rax
	movl	$0, 72568(%rax)
	movl	$0, R
	movq	input, %rax
	cmpl	$0, 1236(%rax)
	jle	.LBB18_6
# %bb.5:                                # %if.then25
	vmovsd	.LCPI18_4(%rip), %xmm0  # xmm0 = mem[0],zero
	vmovsd	.LCPI18_5(%rip), %xmm1  # xmm1 = mem[0],zero
	vmovsd	%xmm1, GAMMAP
	vmovsd	%xmm0, BETAP
	jmp	.LBB18_7
.LBB18_6:                               # %if.else
	vmovsd	.LCPI18_3(%rip), %xmm0  # xmm0 = mem[0],zero
	vmovsd	%xmm0, GAMMAP
	vmovsd	%xmm0, BETAP
.LBB18_7:                               # %if.end26
	vmovsd	.LCPI18_6(%rip), %xmm0  # xmm0 = mem[0],zero
	movl	$0, PPreHeader
	vmulsd	bit_rate, %xmm0, %xmm1
	vmovsd	%xmm1, Pm_X1
	vxorps	%xmm1, %xmm1, %xmm1
	vmovsd	%xmm1, Pm_X2
	vmovsd	%xmm0, PMADPictureC1
	vmovsd	%xmm1, PMADPictureC2
	movl	$0, -4(%rbp)
.LBB18_8:                               # %for.cond
                                        # =>This Inner Loop Header: Depth=1
	cmpl	$20, -4(%rbp)
	jge	.LBB18_11
# %bb.9:                                # %for.body
                                        #   in Loop: Header=BB18_8 Depth=1
	movslq	-4(%rbp), %rax
	vxorps	%xmm0, %xmm0, %xmm0
	vmovsd	%xmm0, Pm_rgQp(,%rax,8)
	movslq	-4(%rbp), %rax
	vmovsd	%xmm0, Pm_rgRp(,%rax,8)
	movslq	-4(%rbp), %rax
	vmovsd	%xmm0, PPictureMAD(,%rax,8)
# %bb.10:                               # %for.inc
                                        #   in Loop: Header=BB18_8 Depth=1
	movl	-4(%rbp), %eax
	addl	$1, %eax
	movl	%eax, -4(%rbp)
	jmp	.LBB18_8
.LBB18_11:                              # %for.end
	vxorps	%xmm0, %xmm0, %xmm0
	vmovsd	%xmm0, PPictureMAD+160
	movl	$2, PDuantQp
	movl	$0, PAveHeaderBits1
	movl	$0, PAveHeaderBits3
	cmpl	$9, TotalNumberofBasicUnit
	jl	.LBB18_13
# %bb.12:                               # %if.then36
	movl	$1, DDquant
	jmp	.LBB18_14
.LBB18_13:                              # %if.else37
	movl	$2, DDquant
.LBB18_14:                              # %if.end38
	vmovsd	.LCPI18_6(%rip), %xmm0  # xmm0 = mem[0],zero
	movq	img, %rax
	movl	52(%rax), %eax
	cltd
	movl	$16, %ecx
	idivl	%ecx
	movl	%eax, MBPerRow
	movq	img, %rax
	movl	$0, 72600(%rax)
	movl	$51, RC_MAX_QUANT
	movl	$0, RC_MIN_QUANT
	vmulsd	bit_rate, %xmm0, %xmm0
	vmovsd	frame_rate, %xmm1       # xmm1 = mem[0],zero
	movq	img, %rax
	vcvtsi2sdl	52(%rax), %xmm0, %xmm2
	vmulsd	%xmm2, %xmm1, %xmm1
	movq	img, %rax
	vcvtsi2sdl	60(%rax), %xmm0, %xmm2
	vmulsd	%xmm2, %xmm1, %xmm1
	vdivsd	%xmm1, %xmm0, %xmm0
	vmovsd	%xmm0, -16(%rbp)
	movq	img, %rax
	cmpl	$176, 52(%rax)
	jne	.LBB18_16
# %bb.15:                               # %if.then52
	vmovsd	.LCPI18_9(%rip), %xmm0  # xmm0 = mem[0],zero
	vmovsd	.LCPI18_12(%rip), %xmm1 # xmm1 = mem[0],zero
	vmovsd	.LCPI18_13(%rip), %xmm2 # xmm2 = mem[0],zero
	vmovsd	%xmm2, -24(%rbp)
	vmovsd	%xmm1, -32(%rbp)
	vmovsd	%xmm0, -40(%rbp)
	jmp	.LBB18_20
.LBB18_16:                              # %if.else53
	movq	img, %rax
	cmpl	$352, 52(%rax)          # imm = 0x160
	jne	.LBB18_18
# %bb.17:                               # %if.then57
	vmovsd	.LCPI18_10(%rip), %xmm0 # xmm0 = mem[0],zero
	vmovsd	.LCPI18_9(%rip), %xmm1  # xmm1 = mem[0],zero
	vmovsd	.LCPI18_11(%rip), %xmm2 # xmm2 = mem[0],zero
	vmovsd	%xmm2, -24(%rbp)
	vmovsd	%xmm1, -32(%rbp)
	vmovsd	%xmm0, -40(%rbp)
	jmp	.LBB18_19
.LBB18_18:                              # %if.else58
	vmovsd	.LCPI18_7(%rip), %xmm0  # xmm0 = mem[0],zero
	vmovsd	.LCPI18_8(%rip), %xmm1  # xmm1 = mem[0],zero
	vmovsd	.LCPI18_9(%rip), %xmm2  # xmm2 = mem[0],zero
	vmovsd	%xmm2, -24(%rbp)
	vmovsd	%xmm1, -32(%rbp)
	vmovsd	%xmm0, -40(%rbp)
.LBB18_19:                              # %if.end59
	jmp	.LBB18_20
.LBB18_20:                              # %if.end60
	movq	input, %rax
	cmpl	$0, 3244(%rax)
	jne	.LBB18_31
# %bb.21:                               # %if.then63
	vmovsd	-16(%rbp), %xmm0        # xmm0 = mem[0],zero
	vmovsd	-24(%rbp), %xmm1        # xmm1 = mem[0],zero
	vucomisd	%xmm0, %xmm1
	jb	.LBB18_23
# %bb.22:                               # %if.then66
	movl	$35, -8(%rbp)
	jmp	.LBB18_30
.LBB18_23:                              # %if.else67
	vmovsd	-16(%rbp), %xmm0        # xmm0 = mem[0],zero
	vmovsd	-32(%rbp), %xmm1        # xmm1 = mem[0],zero
	vucomisd	%xmm0, %xmm1
	jb	.LBB18_25
# %bb.24:                               # %if.then70
	movl	$25, -8(%rbp)
	jmp	.LBB18_29
.LBB18_25:                              # %if.else71
	vmovsd	-16(%rbp), %xmm0        # xmm0 = mem[0],zero
	vmovsd	-40(%rbp), %xmm1        # xmm1 = mem[0],zero
	vucomisd	%xmm0, %xmm1
	jb	.LBB18_27
# %bb.26:                               # %if.then74
	movl	$20, -8(%rbp)
	jmp	.LBB18_28
.LBB18_27:                              # %if.else75
	movl	$10, -8(%rbp)
.LBB18_28:                              # %if.end76
	jmp	.LBB18_29
.LBB18_29:                              # %if.end77
	jmp	.LBB18_30
.LBB18_30:                              # %if.end78
	movl	-8(%rbp), %eax
	movq	input, %rcx
	movl	%eax, 3244(%rcx)
.LBB18_31:                              # %if.end80
	cmpl	$1311842741, -44(%rbp)  # imm = 0x4E3121B5
	jne	.LBB18_33
.LBB18_32:
	addq	$48, %rsp
	popq	%rbp
	.cfi_def_cfa %rsp, 8
	retq
.LBB18_33:                              # %func_exit
	.cfi_def_cfa %rbp, 16
	callq	detect_breach
	jmp	.LBB18_32
.Lfunc_end18:
	.size	rc_init_seq.2, .Lfunc_end18-rc_init_seq.2
	.cfi_endproc
                                        # -- End function
	.globl	ComputeFrameMAD.3       # -- Begin function ComputeFrameMAD.3
	.p2align	4, 0x90
	.type	ComputeFrameMAD.3,@function
ComputeFrameMAD.3:                      # @ComputeFrameMAD.3
	.cfi_startproc
# %bb.0:                                # %entry
	pushq	%rbp
	.cfi_def_cfa_offset 16
	.cfi_offset %rbp, -16
	movq	%rsp, %rbp
	.cfi_def_cfa_register %rbp
	subq	$32, %rsp
	movl	$709375042, -20(%rbp)   # imm = 0x2A483442
	vxorps	%xmm0, %xmm0, %xmm0
	vmovsd	%xmm0, -16(%rbp)
	movl	$0, -4(%rbp)
.LBB19_1:                               # %for.cond
                                        # =>This Inner Loop Header: Depth=1
	movl	-4(%rbp), %eax
	movq	img, %rcx
	cmpl	72608(%rcx), %eax
	jge	.LBB19_4
# %bb.2:                                # %for.body
                                        #   in Loop: Header=BB19_1 Depth=1
	movq	img, %rax
	movq	72584(%rax), %rax
	movslq	-4(%rbp), %rcx
	vmovsd	(%rax,%rcx,8), %xmm0    # xmm0 = mem[0],zero
	vaddsd	-16(%rbp), %xmm0, %xmm0
	vmovsd	%xmm0, -16(%rbp)
# %bb.3:                                # %for.inc
                                        #   in Loop: Header=BB19_1 Depth=1
	movl	-4(%rbp), %eax
	addl	$1, %eax
	movl	%eax, -4(%rbp)
	jmp	.LBB19_1
.LBB19_4:                               # %for.end
	movq	img, %rax
	vcvtsi2sdl	72608(%rax), %xmm0, %xmm0
	vmovsd	-16(%rbp), %xmm1        # xmm1 = mem[0],zero
	vdivsd	%xmm0, %xmm1, %xmm0
	vmovsd	%xmm0, -16(%rbp)
	vmovsd	-16(%rbp), %xmm0        # xmm0 = mem[0],zero
	cmpl	$709375042, -20(%rbp)   # imm = 0x2A483442
	jne	.LBB19_6
.LBB19_5:
	addq	$32, %rsp
	popq	%rbp
	.cfi_def_cfa %rsp, 8
	retq
.LBB19_6:                               # %func_exit
	.cfi_def_cfa %rbp, 16
	vmovsd	%xmm0, -32(%rbp)        # 8-byte Spill
	callq	detect_breach
	vmovsd	-32(%rbp), %xmm0        # 8-byte Reload
                                        # xmm0 = mem[0],zero
	jmp	.LBB19_5
.Lfunc_end19:
	.size	ComputeFrameMAD.3, .Lfunc_end19-ComputeFrameMAD.3
	.cfi_endproc
                                        # -- End function
	.section	.rodata.cst8,"aM",@progbits,8
	.p2align	3               # -- Begin function rc_init_pict.4
.LCPI20_0:
	.quad	4609434218613702656     # double 1.5
.LCPI20_1:
	.quad	4602678819172646912     # double 0.5
.LCPI20_2:
	.quad	4620693217682128896     # double 8
.LCPI20_3:
	.quad	4619567317775286272     # double 7
.LCPI20_4:
	.quad	4607182418800017408     # double 1
.LCPI20_5:
	.quad	4603579539098121011     # double 0.59999999999999998
	.text
	.globl	rc_init_pict.4
	.p2align	4, 0x90
	.type	rc_init_pict.4,@function
rc_init_pict.4:                         # @rc_init_pict.4
	.cfi_startproc
# %bb.0:                                # %entry
	pushq	%rbp
	.cfi_def_cfa_offset 16
	.cfi_offset %rbp, -16
	movq	%rsp, %rbp
	.cfi_def_cfa_register %rbp
	subq	$32, %rsp
	movl	$1173436441, -16(%rbp)  # imm = 0x45F13819
	movl	%edi, -12(%rbp)
	movl	%esi, -8(%rbp)
	movl	%edx, -20(%rbp)
	movq	input, %rax
	cmpl	$0, 2884(%rax)
	je	.LBB20_2
# %bb.1:                                # %if.then
	movq	img, %rax
	movl	72608(%rax), %eax
	movq	img, %rcx
	cltd
	idivl	72620(%rcx)
	movl	%eax, TotalNumberofBasicUnit
.LBB20_2:                               # %if.end
	movq	img, %rax
	movl	$0, 72616(%rax)
	movq	input, %rax
	cmpl	$1, 3252(%rax)
	jne	.LBB20_9
# %bb.3:                                # %if.then1
	movq	img, %rax
	cmpl	$58, 72564(%rax)
	jne	.LBB20_5
# %bb.4:                                # %if.then3
	vmovsd	.LCPI20_0(%rip), %xmm0  # xmm0 = mem[0],zero
	vmulsd	bit_rate, %xmm0, %xmm0
	vmovsd	%xmm0, bit_rate
	jmp	.LBB20_8
.LBB20_5:                               # %if.else
	movq	img, %rax
	cmpl	$59, 72564(%rax)
	jne	.LBB20_7
# %bb.6:                                # %if.then6
	vmovsd	bit_rate, %xmm0         # xmm0 = mem[0],zero
	vmovsd	%xmm0, PreviousBit_Rate
.LBB20_7:                               # %if.end7
	jmp	.LBB20_8
.LBB20_8:                               # %if.end8
	jmp	.LBB20_9
.LBB20_9:                               # %if.end9
	cmpl	$0, -12(%rbp)
	jne	.LBB20_11
# %bb.10:                               # %lor.lhs.false
	cmpl	$0, -8(%rbp)
	je	.LBB20_111
.LBB20_11:                              # %land.lhs.true
	cmpl	$0, -20(%rbp)
	je	.LBB20_111
# %bb.12:                               # %if.then13
	movq	img(%rip), %rax
	movl	24(%rax), %eax
	testl	%eax, %eax
	je	.LBB20_14
	jmp	.LBB20_13
.LBB20_13:                              # %if.then13
	subl	$1, %eax
	je	.LBB20_65
	jmp	.LBB20_77
.LBB20_14:                              # %sw.bb
	vmovsd	PreviousBit_Rate, %xmm0 # xmm0 = mem[0],zero
	vucomisd	bit_rate, %xmm0
	jne	.LBB20_15
	jp	.LBB20_15
	jmp	.LBB20_16
.LBB20_15:                              # %if.then15
	vmovsd	.LCPI20_1(%rip), %xmm0  # xmm0 = mem[0],zero
	vmovsd	bit_rate, %xmm1         # xmm1 = mem[0],zero
	vsubsd	PreviousBit_Rate, %xmm1, %xmm1
	movl	Np, %eax
	addl	Nb, %eax
	vcvtsi2sd	%eax, %xmm0, %xmm2
	vmulsd	%xmm2, %xmm1, %xmm1
	vdivsd	frame_rate, %xmm1, %xmm1
	vaddsd	%xmm0, %xmm1, %xmm0
	vroundsd	$9, %xmm0, %xmm0, %xmm0
	vcvttsd2si	%xmm0, %eax
	addl	R, %eax
	movl	%eax, R
.LBB20_16:                              # %if.end21
	movq	img, %rax
	movl	72620(%rax), %eax
	movq	img, %rcx
	cmpl	72608(%rcx), %eax
	jne	.LBB20_23
# %bb.17:                               # %if.then26
	movq	img, %rax
	cmpl	$1, 72576(%rax)
	jne	.LBB20_19
# %bb.18:                               # %if.then29
	vmovsd	CurrentBufferFullness, %xmm0 # xmm0 = mem[0],zero
	vmovsd	%xmm0, TargetBufferLevel
	vmovsd	CurrentBufferFullness, %xmm0 # xmm0 = mem[0],zero
	vsubsd	GOPTargetBufferLevel, %xmm0, %xmm0
	movl	TotalPFrame, %eax
	subl	$1, %eax
	vcvtsi2sd	%eax, %xmm0, %xmm1
	vdivsd	%xmm1, %xmm0, %xmm0
	vmovsd	%xmm0, DeltaP
	vmovsd	DeltaP, %xmm0           # xmm0 = mem[0],zero
	vmovsd	TargetBufferLevel, %xmm1 # xmm1 = mem[0],zero
	vsubsd	%xmm0, %xmm1, %xmm0
	vmovsd	%xmm0, TargetBufferLevel
	jmp	.LBB20_22
.LBB20_19:                              # %if.else35
	movq	img, %rax
	cmpl	$1, 72576(%rax)
	jle	.LBB20_21
# %bb.20:                               # %if.then39
	vmovsd	DeltaP, %xmm0           # xmm0 = mem[0],zero
	vmovsd	TargetBufferLevel, %xmm1 # xmm1 = mem[0],zero
	vsubsd	%xmm0, %xmm1, %xmm0
	vmovsd	%xmm0, TargetBufferLevel
.LBB20_21:                              # %if.end41
	jmp	.LBB20_22
.LBB20_22:                              # %if.end42
	jmp	.LBB20_54
.LBB20_23:                              # %if.else43
	movq	img, %rax
	cmpl	$0, 72564(%rax)
	jle	.LBB20_38
# %bb.24:                               # %if.then47
	movq	input, %rax
	cmpl	$2, 2880(%rax)
	je	.LBB20_26
# %bb.25:                               # %lor.lhs.false50
	movq	input, %rax
	cmpl	$0, 2884(%rax)
	je	.LBB20_32
.LBB20_26:                              # %land.lhs.true53
	movq	img, %rax
	cmpl	$1, 72600(%rax)
	jne	.LBB20_32
# %bb.27:                               # %if.then56
	movl	$0, -4(%rbp)
.LBB20_28:                              # %for.cond
                                        # =>This Inner Loop Header: Depth=1
	movl	-4(%rbp), %eax
	cmpl	TotalNumberofBasicUnit, %eax
	jge	.LBB20_31
# %bb.29:                               # %for.body
                                        #   in Loop: Header=BB20_28 Depth=1
	movq	FCBUCFMAD, %rax
	movslq	-4(%rbp), %rcx
	vmovsd	(%rax,%rcx,8), %xmm0    # xmm0 = mem[0],zero
	movq	FCBUPFMAD, %rax
	movslq	-4(%rbp), %rcx
	vmovsd	%xmm0, (%rax,%rcx,8)
# %bb.30:                               # %for.inc
                                        #   in Loop: Header=BB20_28 Depth=1
	movl	-4(%rbp), %eax
	addl	$1, %eax
	movl	%eax, -4(%rbp)
	jmp	.LBB20_28
.LBB20_31:                              # %for.end
	jmp	.LBB20_37
.LBB20_32:                              # %if.else61
	movl	$0, -4(%rbp)
.LBB20_33:                              # %for.cond62
                                        # =>This Inner Loop Header: Depth=1
	movl	-4(%rbp), %eax
	cmpl	TotalNumberofBasicUnit, %eax
	jge	.LBB20_36
# %bb.34:                               # %for.body65
                                        #   in Loop: Header=BB20_33 Depth=1
	movq	BUCFMAD, %rax
	movslq	-4(%rbp), %rcx
	vmovsd	(%rax,%rcx,8), %xmm0    # xmm0 = mem[0],zero
	movq	BUPFMAD, %rax
	movslq	-4(%rbp), %rcx
	vmovsd	%xmm0, (%rax,%rcx,8)
# %bb.35:                               # %for.inc70
                                        #   in Loop: Header=BB20_33 Depth=1
	movl	-4(%rbp), %eax
	addl	$1, %eax
	movl	%eax, -4(%rbp)
	jmp	.LBB20_33
.LBB20_36:                              # %for.end72
	jmp	.LBB20_37
.LBB20_37:                              # %if.end73
	jmp	.LBB20_38
.LBB20_38:                              # %if.end74
	movq	img, %rax
	cmpl	$1, 72568(%rax)
	jne	.LBB20_45
# %bb.39:                               # %if.then77
	movq	img, %rax
	cmpl	$1, 72576(%rax)
	jne	.LBB20_41
# %bb.40:                               # %if.then81
	vmovsd	CurrentBufferFullness, %xmm0 # xmm0 = mem[0],zero
	vmovsd	%xmm0, TargetBufferLevel
	vmovsd	CurrentBufferFullness, %xmm0 # xmm0 = mem[0],zero
	vsubsd	GOPTargetBufferLevel, %xmm0, %xmm0
	movl	TotalPFrame, %eax
	subl	$1, %eax
	vcvtsi2sd	%eax, %xmm0, %xmm1
	vdivsd	%xmm1, %xmm0, %xmm0
	vmovsd	%xmm0, DeltaP
	vmovsd	DeltaP, %xmm0           # xmm0 = mem[0],zero
	vmovsd	TargetBufferLevel, %xmm1 # xmm1 = mem[0],zero
	vsubsd	%xmm0, %xmm1, %xmm0
	vmovsd	%xmm0, TargetBufferLevel
	jmp	.LBB20_44
.LBB20_41:                              # %if.else87
	movq	img, %rax
	cmpl	$1, 72576(%rax)
	jle	.LBB20_43
# %bb.42:                               # %if.then91
	vmovsd	DeltaP, %xmm0           # xmm0 = mem[0],zero
	vmovsd	TargetBufferLevel, %xmm1 # xmm1 = mem[0],zero
	vsubsd	%xmm0, %xmm1, %xmm0
	vmovsd	%xmm0, TargetBufferLevel
.LBB20_43:                              # %if.end93
	jmp	.LBB20_44
.LBB20_44:                              # %if.end94
	jmp	.LBB20_53
.LBB20_45:                              # %if.else95
	movq	img, %rax
	cmpl	$1, 72568(%rax)
	jle	.LBB20_52
# %bb.46:                               # %if.then99
	movq	img, %rax
	cmpl	$0, 72576(%rax)
	jne	.LBB20_48
# %bb.47:                               # %if.then103
	vmovsd	CurrentBufferFullness, %xmm0 # xmm0 = mem[0],zero
	vmovsd	%xmm0, TargetBufferLevel
	vmovsd	CurrentBufferFullness, %xmm0 # xmm0 = mem[0],zero
	vsubsd	GOPTargetBufferLevel, %xmm0, %xmm0
	vcvtsi2sdl	TotalPFrame, %xmm0, %xmm1
	vdivsd	%xmm1, %xmm0, %xmm0
	vmovsd	%xmm0, DeltaP
	vmovsd	DeltaP, %xmm0           # xmm0 = mem[0],zero
	vmovsd	TargetBufferLevel, %xmm1 # xmm1 = mem[0],zero
	vsubsd	%xmm0, %xmm1, %xmm0
	vmovsd	%xmm0, TargetBufferLevel
	jmp	.LBB20_51
.LBB20_48:                              # %if.else108
	movq	img, %rax
	cmpl	$0, 72576(%rax)
	jle	.LBB20_50
# %bb.49:                               # %if.then112
	vmovsd	DeltaP, %xmm0           # xmm0 = mem[0],zero
	vmovsd	TargetBufferLevel, %xmm1 # xmm1 = mem[0],zero
	vsubsd	%xmm0, %xmm1, %xmm0
	vmovsd	%xmm0, TargetBufferLevel
.LBB20_50:                              # %if.end114
	jmp	.LBB20_51
.LBB20_51:                              # %if.end115
	jmp	.LBB20_52
.LBB20_52:                              # %if.end116
	jmp	.LBB20_53
.LBB20_53:                              # %if.end117
	jmp	.LBB20_54
.LBB20_54:                              # %if.end118
	movq	img, %rax
	cmpl	$1, 72564(%rax)
	jne	.LBB20_56
# %bb.55:                               # %if.then122
	vmovsd	Wp, %xmm0               # xmm0 = mem[0],zero
	vmovsd	%xmm0, AWp
.LBB20_56:                              # %if.end123
	movq	img, %rax
	cmpl	$8, 72564(%rax)
	jge	.LBB20_59
# %bb.57:                               # %land.lhs.true127
	movq	img, %rax
	cmpl	$1, 72564(%rax)
	jle	.LBB20_59
# %bb.58:                               # %if.then131
	vmovsd	Wp, %xmm0               # xmm0 = mem[0],zero
	movq	img, %rax
	movl	72564(%rax), %eax
	subl	$1, %eax
	vcvtsi2sd	%eax, %xmm0, %xmm1
	vmulsd	%xmm1, %xmm0, %xmm0
	movq	img, %rax
	vcvtsi2sdl	72564(%rax), %xmm0, %xmm1
	vdivsd	%xmm1, %xmm0, %xmm0
	vmovsd	AWp, %xmm1              # xmm1 = mem[0],zero
	movq	img, %rax
	vcvtsi2sdl	72564(%rax), %xmm0, %xmm2
	vdivsd	%xmm2, %xmm1, %xmm1
	vaddsd	%xmm1, %xmm0, %xmm0
	vmovsd	%xmm0, AWp
	jmp	.LBB20_62
.LBB20_59:                              # %if.else143
	movq	img, %rax
	cmpl	$1, 72564(%rax)
	jle	.LBB20_61
# %bb.60:                               # %if.then147
	vmovsd	.LCPI20_2(%rip), %xmm0  # xmm0 = mem[0],zero
	vmovsd	.LCPI20_3(%rip), %xmm1  # xmm1 = mem[0],zero
	vmovsd	Wp, %xmm2               # xmm2 = mem[0],zero
	vdivsd	%xmm0, %xmm2, %xmm2
	vmulsd	AWp, %xmm1, %xmm1
	vdivsd	%xmm0, %xmm1, %xmm0
	vaddsd	%xmm0, %xmm2, %xmm0
	vmovsd	%xmm0, AWp
.LBB20_61:                              # %if.end152
	jmp	.LBB20_62
.LBB20_62:                              # %if.end153
	movq	input, %rax
	cmpl	$0, 1236(%rax)
	jle	.LBB20_64
# %bb.63:                               # %if.then156
	vmovsd	AWp, %xmm0              # xmm0 = mem[0],zero
	movq	input, %rax
	movl	1236(%rax), %eax
	addl	$1, %eax
	vcvtsi2sd	%eax, %xmm0, %xmm1
	vmulsd	%xmm1, %xmm0, %xmm0
	vmulsd	bit_rate, %xmm0, %xmm0
	vmovsd	frame_rate, %xmm1       # xmm1 = mem[0],zero
	vmovsd	AWp, %xmm2              # xmm2 = mem[0],zero
	vmovsd	AWb, %xmm3              # xmm3 = mem[0],zero
	movq	input, %rax
	vcvtsi2sdl	1236(%rax), %xmm0, %xmm4
	vmulsd	%xmm4, %xmm3, %xmm3
	vaddsd	%xmm3, %xmm2, %xmm2
	vmulsd	%xmm2, %xmm1, %xmm1
	vdivsd	%xmm1, %xmm0, %xmm0
	vmovsd	bit_rate, %xmm1         # xmm1 = mem[0],zero
	vdivsd	frame_rate, %xmm1, %xmm1
	vsubsd	%xmm1, %xmm0, %xmm0
	vaddsd	TargetBufferLevel, %xmm0, %xmm0
	vmovsd	%xmm0, TargetBufferLevel
.LBB20_64:                              # %if.end171
	jmp	.LBB20_77
.LBB20_65:                              # %sw.bb172
	vmovsd	PreviousBit_Rate, %xmm0 # xmm0 = mem[0],zero
	vucomisd	bit_rate, %xmm0
	jne	.LBB20_66
	jp	.LBB20_66
	jmp	.LBB20_67
.LBB20_66:                              # %if.then175
	vmovsd	.LCPI20_1(%rip), %xmm0  # xmm0 = mem[0],zero
	vmovsd	bit_rate, %xmm1         # xmm1 = mem[0],zero
	vsubsd	PreviousBit_Rate, %xmm1, %xmm1
	movl	Np, %eax
	addl	Nb, %eax
	vcvtsi2sd	%eax, %xmm0, %xmm2
	vmulsd	%xmm2, %xmm1, %xmm1
	vdivsd	frame_rate, %xmm1, %xmm1
	vaddsd	%xmm0, %xmm1, %xmm0
	vroundsd	$9, %xmm0, %xmm0, %xmm0
	vcvttsd2si	%xmm0, %eax
	addl	R, %eax
	movl	%eax, R
.LBB20_67:                              # %if.end184
	movq	img, %rax
	cmpl	$1, 72564(%rax)
	jne	.LBB20_70
# %bb.68:                               # %land.lhs.true188
	movq	img, %rax
	cmpl	$1, 72560(%rax)
	jne	.LBB20_70
# %bb.69:                               # %if.then191
	vmovsd	Wp, %xmm0               # xmm0 = mem[0],zero
	vmovsd	%xmm0, AWp
	vmovsd	Wb, %xmm0               # xmm0 = mem[0],zero
	vmovsd	%xmm0, AWb
	jmp	.LBB20_76
.LBB20_70:                              # %if.else192
	movq	img, %rax
	cmpl	$1, 72560(%rax)
	jle	.LBB20_75
# %bb.71:                               # %if.then196
	movq	img, %rax
	cmpl	$8, 72560(%rax)
	jge	.LBB20_73
# %bb.72:                               # %if.then200
	vmovsd	Wb, %xmm0               # xmm0 = mem[0],zero
	movq	img, %rax
	movl	72560(%rax), %eax
	subl	$1, %eax
	vcvtsi2sd	%eax, %xmm0, %xmm1
	vmulsd	%xmm1, %xmm0, %xmm0
	movq	img, %rax
	vcvtsi2sdl	72560(%rax), %xmm0, %xmm1
	vdivsd	%xmm1, %xmm0, %xmm0
	vmovsd	AWb, %xmm1              # xmm1 = mem[0],zero
	movq	img, %rax
	vcvtsi2sdl	72560(%rax), %xmm0, %xmm2
	vdivsd	%xmm2, %xmm1, %xmm1
	vaddsd	%xmm1, %xmm0, %xmm0
	vmovsd	%xmm0, AWb
	jmp	.LBB20_74
.LBB20_73:                              # %if.else212
	vmovsd	.LCPI20_2(%rip), %xmm0  # xmm0 = mem[0],zero
	vmovsd	.LCPI20_3(%rip), %xmm1  # xmm1 = mem[0],zero
	vmovsd	Wb, %xmm2               # xmm2 = mem[0],zero
	vdivsd	%xmm0, %xmm2, %xmm2
	vmulsd	AWb, %xmm1, %xmm1
	vdivsd	%xmm0, %xmm1, %xmm0
	vaddsd	%xmm0, %xmm2, %xmm0
	vmovsd	%xmm0, AWb
.LBB20_74:                              # %if.end217
	jmp	.LBB20_75
.LBB20_75:                              # %if.end218
	jmp	.LBB20_76
.LBB20_76:                              # %if.end219
	jmp	.LBB20_77
.LBB20_77:                              # %sw.epilog
	movq	img, %rax
	cmpl	$0, 24(%rax)
	jne	.LBB20_110
# %bb.78:                               # %if.then223
	movq	img, %rax
	movl	72620(%rax), %eax
	movq	img, %rcx
	cmpl	72608(%rcx), %eax
	jne	.LBB20_85
# %bb.79:                               # %if.then228
	movq	img, %rax
	cmpl	$0, 72564(%rax)
	jle	.LBB20_84
# %bb.80:                               # %if.then232
	xorl	%eax, %eax
	vmovsd	.LCPI20_1(%rip), %xmm0  # xmm0 = mem[0],zero
	vmovsd	Wp, %xmm1               # xmm1 = mem[0],zero
	vcvtsi2sdl	R, %xmm0, %xmm2
	vmulsd	%xmm2, %xmm1, %xmm1
	vcvtsi2sdl	Np, %xmm0, %xmm2
	vmulsd	Wp, %xmm2, %xmm2
	vcvtsi2sdl	Nb, %xmm0, %xmm3
	vmulsd	Wb, %xmm3, %xmm3
	vaddsd	%xmm3, %xmm2, %xmm2
	vdivsd	%xmm2, %xmm1, %xmm1
	vaddsd	%xmm0, %xmm1, %xmm1
	vroundsd	$9, %xmm1, %xmm0, %xmm1
	vcvttsd2si	%xmm1, %rcx
	movq	%rcx, T
	vmovsd	bit_rate, %xmm1         # xmm1 = mem[0],zero
	vdivsd	frame_rate, %xmm1, %xmm1
	vmovsd	GAMMAP, %xmm2           # xmm2 = mem[0],zero
	vmovsd	CurrentBufferFullness, %xmm3 # xmm3 = mem[0],zero
	vsubsd	TargetBufferLevel, %xmm3, %xmm3
	vmulsd	%xmm3, %xmm2, %xmm2
	vsubsd	%xmm2, %xmm1, %xmm1
	vaddsd	%xmm0, %xmm1, %xmm0
	vroundsd	$9, %xmm0, %xmm0, %xmm0
	vcvttsd2si	%xmm0, %rcx
	movq	%rcx, T1
	cmpq	T1, %rax
	jge	.LBB20_82
# %bb.81:                               # %cond.true
	movq	T1, %rax
	jmp	.LBB20_83
.LBB20_82:                              # %cond.false
	xorl	%eax, %eax
	jmp	.LBB20_83
.LBB20_83:                              # %cond.end
	vmovsd	.LCPI20_1(%rip), %xmm0  # xmm0 = mem[0],zero
	vmovsd	.LCPI20_4(%rip), %xmm1  # xmm1 = mem[0],zero
	movq	%rax, T1
	vmovsd	BETAP, %xmm2            # xmm2 = mem[0],zero
	vcvtsi2sdq	T, %xmm0, %xmm3
	vmulsd	%xmm3, %xmm2, %xmm2
	vsubsd	BETAP, %xmm1, %xmm1
	vcvtsi2sdq	T1, %xmm0, %xmm3
	vmulsd	%xmm3, %xmm1, %xmm1
	vaddsd	%xmm1, %xmm2, %xmm1
	vaddsd	%xmm0, %xmm1, %xmm0
	vroundsd	$9, %xmm0, %xmm0, %xmm0
	vcvttsd2si	%xmm0, %rax
	movq	%rax, T
.LBB20_84:                              # %if.end259
	jmp	.LBB20_98
.LBB20_85:                              # %if.else260
	movq	img, %rax
	cmpl	$1, 72568(%rax)
	jne	.LBB20_91
# %bb.86:                               # %land.lhs.true264
	movq	img, %rax
	cmpl	$0, 72564(%rax)
	jle	.LBB20_91
# %bb.87:                               # %if.then268
	xorl	%eax, %eax
	vmovsd	.LCPI20_1(%rip), %xmm0  # xmm0 = mem[0],zero
	vmovsd	Wp, %xmm1               # xmm1 = mem[0],zero
	vcvtsi2sdl	R, %xmm0, %xmm2
	vmulsd	%xmm2, %xmm1, %xmm1
	vcvtsi2sdl	Np, %xmm0, %xmm2
	vmulsd	Wp, %xmm2, %xmm2
	vcvtsi2sdl	Nb, %xmm0, %xmm3
	vmulsd	Wb, %xmm3, %xmm3
	vaddsd	%xmm3, %xmm2, %xmm2
	vdivsd	%xmm2, %xmm1, %xmm1
	vaddsd	%xmm0, %xmm1, %xmm1
	vroundsd	$9, %xmm1, %xmm0, %xmm1
	vcvttsd2si	%xmm1, %ecx
	movslq	%ecx, %rcx
	movq	%rcx, T
	vmovsd	bit_rate, %xmm1         # xmm1 = mem[0],zero
	vdivsd	frame_rate, %xmm1, %xmm1
	vmovsd	GAMMAP, %xmm2           # xmm2 = mem[0],zero
	vmovsd	CurrentBufferFullness, %xmm3 # xmm3 = mem[0],zero
	vsubsd	TargetBufferLevel, %xmm3, %xmm3
	vmulsd	%xmm3, %xmm2, %xmm2
	vsubsd	%xmm2, %xmm1, %xmm1
	vaddsd	%xmm0, %xmm1, %xmm0
	vroundsd	$9, %xmm0, %xmm0, %xmm0
	vcvttsd2si	%xmm0, %ecx
	movslq	%ecx, %rcx
	movq	%rcx, T1
	cmpq	T1, %rax
	jge	.LBB20_89
# %bb.88:                               # %cond.true289
	movq	T1, %rax
	jmp	.LBB20_90
.LBB20_89:                              # %cond.false290
	xorl	%eax, %eax
	jmp	.LBB20_90
.LBB20_90:                              # %cond.end291
	vmovsd	.LCPI20_1(%rip), %xmm0  # xmm0 = mem[0],zero
	vmovsd	.LCPI20_4(%rip), %xmm1  # xmm1 = mem[0],zero
	movq	%rax, T1
	vmovsd	BETAP, %xmm2            # xmm2 = mem[0],zero
	vcvtsi2sdq	T, %xmm0, %xmm3
	vmulsd	%xmm3, %xmm2, %xmm2
	vsubsd	BETAP, %xmm1, %xmm1
	vcvtsi2sdq	T1, %xmm0, %xmm3
	vmulsd	%xmm3, %xmm1, %xmm1
	vaddsd	%xmm1, %xmm2, %xmm1
	vaddsd	%xmm0, %xmm1, %xmm0
	vroundsd	$9, %xmm0, %xmm0, %xmm0
	vcvttsd2si	%xmm0, %eax
	cltq
	movq	%rax, T
	jmp	.LBB20_97
.LBB20_91:                              # %if.else302
	movq	img, %rax
	cmpl	$1, 72568(%rax)
	jle	.LBB20_96
# %bb.92:                               # %if.then306
	xorl	%eax, %eax
	vmovsd	.LCPI20_1(%rip), %xmm0  # xmm0 = mem[0],zero
	vmovsd	Wp, %xmm1               # xmm1 = mem[0],zero
	vcvtsi2sdl	R, %xmm0, %xmm2
	vmulsd	%xmm2, %xmm1, %xmm1
	vcvtsi2sdl	Np, %xmm0, %xmm2
	vmulsd	Wp, %xmm2, %xmm2
	vcvtsi2sdl	Nb, %xmm0, %xmm3
	vmulsd	Wb, %xmm3, %xmm3
	vaddsd	%xmm3, %xmm2, %xmm2
	vdivsd	%xmm2, %xmm1, %xmm1
	vaddsd	%xmm0, %xmm1, %xmm1
	vroundsd	$9, %xmm1, %xmm0, %xmm1
	vcvttsd2si	%xmm1, %rcx
	movq	%rcx, T
	vmovsd	bit_rate, %xmm1         # xmm1 = mem[0],zero
	vdivsd	frame_rate, %xmm1, %xmm1
	vmovsd	GAMMAP, %xmm2           # xmm2 = mem[0],zero
	vmovsd	CurrentBufferFullness, %xmm3 # xmm3 = mem[0],zero
	vsubsd	TargetBufferLevel, %xmm3, %xmm3
	vmulsd	%xmm3, %xmm2, %xmm2
	vsubsd	%xmm2, %xmm1, %xmm1
	vaddsd	%xmm0, %xmm1, %xmm0
	vroundsd	$9, %xmm0, %xmm0, %xmm0
	vcvttsd2si	%xmm0, %rcx
	movq	%rcx, T1
	cmpq	T1, %rax
	jge	.LBB20_94
# %bb.93:                               # %cond.true325
	movq	T1, %rax
	jmp	.LBB20_95
.LBB20_94:                              # %cond.false326
	xorl	%eax, %eax
	jmp	.LBB20_95
.LBB20_95:                              # %cond.end327
	vmovsd	.LCPI20_1(%rip), %xmm0  # xmm0 = mem[0],zero
	vmovsd	.LCPI20_4(%rip), %xmm1  # xmm1 = mem[0],zero
	movq	%rax, T1
	vmovsd	BETAP, %xmm2            # xmm2 = mem[0],zero
	vcvtsi2sdq	T, %xmm0, %xmm3
	vmulsd	%xmm3, %xmm2, %xmm2
	vsubsd	BETAP, %xmm1, %xmm1
	vcvtsi2sdq	T1, %xmm0, %xmm3
	vmulsd	%xmm3, %xmm1, %xmm1
	vaddsd	%xmm1, %xmm2, %xmm1
	vaddsd	%xmm0, %xmm1, %xmm0
	vroundsd	$9, %xmm0, %xmm0, %xmm0
	vcvttsd2si	%xmm0, %rax
	movq	%rax, T
.LBB20_96:                              # %if.end337
	jmp	.LBB20_97
.LBB20_97:                              # %if.end338
	jmp	.LBB20_98
.LBB20_98:                              # %if.end339
	vmovsd	.LCPI20_4(%rip), %xmm0  # xmm0 = mem[0],zero
	movq	input, %rax
	vcvtsi2sdl	1236(%rax), %xmm0, %xmm1
	vxorps	%xmm2, %xmm2, %xmm2
	vmulsd	%xmm1, %xmm2, %xmm1
	vsubsd	%xmm1, %xmm0, %xmm0
	vcvtsi2sdq	T, %xmm0, %xmm1
	vmulsd	%xmm1, %xmm0, %xmm0
	vcvttsd2si	%xmm0, %rax
	movq	%rax, T
	movq	T, %rax
	cmpq	LowerBound, %rax
	jge	.LBB20_100
# %bb.99:                               # %cond.true349
	movq	LowerBound, %rax
	jmp	.LBB20_101
.LBB20_100:                             # %cond.false350
	movq	T, %rax
.LBB20_101:                             # %cond.end351
	movq	%rax, T
	movq	T, %rax
	cmpq	UpperBound2, %rax
	jge	.LBB20_103
# %bb.102:                              # %cond.true355
	movq	T, %rax
	jmp	.LBB20_104
.LBB20_103:                             # %cond.false356
	movq	UpperBound2, %rax
.LBB20_104:                             # %cond.end357
	movq	%rax, T
	cmpl	$0, -8(%rbp)
	jne	.LBB20_108
# %bb.105:                              # %lor.lhs.false360
	cmpl	$0, -12(%rbp)
	je	.LBB20_109
# %bb.106:                              # %land.lhs.true362
	movq	input, %rax
	cmpl	$2, 2880(%rax)
	je	.LBB20_108
# %bb.107:                              # %lor.lhs.false366
	movq	input, %rax
	cmpl	$0, 2884(%rax)
	je	.LBB20_109
.LBB20_108:                             # %if.then369
	movq	T, %rax
	movl	%eax, T_field
.LBB20_109:                             # %if.end371
	jmp	.LBB20_110
.LBB20_110:                             # %if.end372
	jmp	.LBB20_111
.LBB20_111:                             # %if.end373
	cmpl	$0, -12(%rbp)
	jne	.LBB20_113
# %bb.112:                              # %lor.lhs.false375
	cmpl	$0, -8(%rbp)
	je	.LBB20_119
.LBB20_113:                             # %if.then377
	movq	img, %rax
	movl	$0, 72524(%rax)
	movq	img, %rax
	movl	$0, 72528(%rax)
	movq	img, %rax
	movl	72620(%rax), %eax
	movq	img, %rcx
	cmpl	72608(%rcx), %eax
	jge	.LBB20_118
# %bb.114:                              # %if.then382
	movl	$0, TotalFrameQP
	movq	img, %rax
	movl	$0, 72532(%rax)
	movq	img, %rax
	movl	$0, 72536(%rax)
	movq	img, %rax
	vxorps	%xmm0, %xmm0, %xmm0
	vmovsd	%xmm0, 72544(%rax)
	movq	img, %rax
	cmpl	$0, 72600(%rax)
	jne	.LBB20_116
# %bb.115:                              # %if.then386
	movl	TotalNumberofBasicUnit, %eax
	movl	%eax, NumberofBasicUnit
	jmp	.LBB20_117
.LBB20_116:                             # %if.else387
	movl	TotalNumberofBasicUnit, %eax
	cltd
	movl	$2, %ecx
	idivl	%ecx
	movl	%eax, NumberofBasicUnit
.LBB20_117:                             # %if.end389
	jmp	.LBB20_118
.LBB20_118:                             # %if.end390
	jmp	.LBB20_119
.LBB20_119:                             # %if.end391
	movq	img, %rax
	cmpl	$0, 24(%rax)
	jne	.LBB20_126
# %bb.120:                              # %land.lhs.true395
	movq	img, %rax
	movl	72620(%rax), %eax
	movq	img, %rcx
	cmpl	72608(%rcx), %eax
	jge	.LBB20_126
# %bb.121:                              # %land.lhs.true400
	movq	img, %rax
	cmpl	$1, 72600(%rax)
	jne	.LBB20_126
# %bb.122:                              # %if.then404
	cmpl	$0, -8(%rbp)
	je	.LBB20_124
# %bb.123:                              # %if.then406
	vmovsd	.LCPI20_5(%rip), %xmm0  # xmm0 = mem[0],zero
	movl	$0, bits_topfield
	vcvtsi2sdl	T_field, %xmm0, %xmm1
	vmulsd	%xmm0, %xmm1, %xmm0
	vcvttsd2si	%xmm0, %rax
	movq	%rax, T
	jmp	.LBB20_125
.LBB20_124:                             # %if.else410
	movl	T_field, %eax
	subl	bits_topfield, %eax
	cltq
	movq	%rax, T
	movq	img, %rax
	movl	$0, 72532(%rax)
	movq	img, %rax
	movl	$0, 72536(%rax)
	movq	img, %rax
	vxorps	%xmm0, %xmm0, %xmm0
	vmovsd	%xmm0, 72544(%rax)
	movl	TotalNumberofBasicUnit, %eax
	cltd
	movl	$2, %ecx
	idivl	%ecx
	movl	%eax, NumberofBasicUnit
.LBB20_125:                             # %if.end417
	jmp	.LBB20_126
.LBB20_126:                             # %if.end418
	cmpl	$1173436441, -16(%rbp)  # imm = 0x45F13819
	jne	.LBB20_128
.LBB20_127:
	addq	$32, %rsp
	popq	%rbp
	.cfi_def_cfa %rsp, 8
	retq
.LBB20_128:                             # %func_exit
	.cfi_def_cfa %rbp, 16
	callq	detect_breach
	jmp	.LBB20_127
.Lfunc_end20:
	.size	rc_init_pict.4, .Lfunc_end20-rc_init_pict.4
	.cfi_endproc
                                        # -- End function
	.section	.rodata.cst8,"aM",@progbits,8
	.p2align	3               # -- Begin function calc_MAD.5
.LCPI21_0:
	.quad	4643211215818981376     # double 256
.LCPI21_1:
	.quad	4607182418800017408     # double 1
	.text
	.globl	calc_MAD.5
	.p2align	4, 0x90
	.type	calc_MAD.5,@function
calc_MAD.5:                             # @calc_MAD.5
	.cfi_startproc
# %bb.0:                                # %entry
	pushq	%rbp
	.cfi_def_cfa_offset 16
	.cfi_offset %rbp, -16
	movq	%rsp, %rbp
	.cfi_def_cfa_register %rbp
	subq	$32, %rsp
	movl	$491250658, -16(%rbp)   # imm = 0x1D47E3E2
	movl	$0, -12(%rbp)
	movl	$0, -4(%rbp)
.LBB21_1:                               # %for.cond
                                        # =>This Loop Header: Depth=1
                                        #     Child Loop BB21_3 Depth 2
	cmpl	$16, -4(%rbp)
	jge	.LBB21_8
# %bb.2:                                # %for.body
                                        #   in Loop: Header=BB21_1 Depth=1
	movl	$0, -8(%rbp)
.LBB21_3:                               # %for.cond1
                                        #   Parent Loop BB21_1 Depth=1
                                        # =>  This Inner Loop Header: Depth=2
	cmpl	$16, -8(%rbp)
	jge	.LBB21_6
# %bb.4:                                # %for.body3
                                        #   in Loop: Header=BB21_3 Depth=2
	movslq	-4(%rbp), %rax
	shlq	$6, %rax
	movabsq	$diffy, %rcx
	addq	%rax, %rcx
	movslq	-8(%rbp), %rax
	movl	(%rcx,%rax,4), %edi
	callq	abs
	addl	-12(%rbp), %eax
	movl	%eax, -12(%rbp)
# %bb.5:                                # %for.inc
                                        #   in Loop: Header=BB21_3 Depth=2
	movl	-8(%rbp), %eax
	addl	$1, %eax
	movl	%eax, -8(%rbp)
	jmp	.LBB21_3
.LBB21_6:                               # %for.end
                                        #   in Loop: Header=BB21_1 Depth=1
	jmp	.LBB21_7
.LBB21_7:                               # %for.inc6
                                        #   in Loop: Header=BB21_1 Depth=1
	movl	-4(%rbp), %eax
	addl	$1, %eax
	movl	%eax, -4(%rbp)
	jmp	.LBB21_1
.LBB21_8:                               # %for.end8
	vmovsd	.LCPI21_0(%rip), %xmm0  # xmm0 = mem[0],zero
	vmovsd	.LCPI21_1(%rip), %xmm1  # xmm1 = mem[0],zero
	vcvtsi2sdl	-12(%rbp), %xmm0, %xmm2
	vmulsd	%xmm1, %xmm2, %xmm1
	vdivsd	%xmm0, %xmm1, %xmm0
	vmovsd	%xmm0, -32(%rbp)
	vmovsd	-32(%rbp), %xmm0        # xmm0 = mem[0],zero
	cmpl	$491250658, -16(%rbp)   # imm = 0x1D47E3E2
	jne	.LBB21_10
.LBB21_9:
	addq	$32, %rsp
	popq	%rbp
	.cfi_def_cfa %rsp, 8
	retq
.LBB21_10:                              # %func_exit
	.cfi_def_cfa %rbp, 16
	vmovsd	%xmm0, -24(%rbp)        # 8-byte Spill
	callq	detect_breach
	vmovsd	-24(%rbp), %xmm0        # 8-byte Reload
                                        # xmm0 = mem[0],zero
	jmp	.LBB21_9
.Lfunc_end21:
	.size	calc_MAD.5, .Lfunc_end21-calc_MAD.5
	.cfi_endproc
                                        # -- End function
	.section	.rodata.cst8,"aM",@progbits,8
	.p2align	3               # -- Begin function calc_MAD.6
.LCPI22_0:
	.quad	4643211215818981376     # double 256
.LCPI22_1:
	.quad	4607182418800017408     # double 1
	.text
	.globl	calc_MAD.6
	.p2align	4, 0x90
	.type	calc_MAD.6,@function
calc_MAD.6:                             # @calc_MAD.6
	.cfi_startproc
# %bb.0:                                # %entry
	pushq	%rbp
	.cfi_def_cfa_offset 16
	.cfi_offset %rbp, -16
	movq	%rsp, %rbp
	.cfi_def_cfa_register %rbp
	subq	$32, %rsp
	movl	$541181388, -16(%rbp)   # imm = 0x2041C5CC
	movl	$0, -12(%rbp)
	movl	$0, -4(%rbp)
.LBB22_1:                               # %for.cond
                                        # =>This Loop Header: Depth=1
                                        #     Child Loop BB22_3 Depth 2
	cmpl	$16, -4(%rbp)
	jge	.LBB22_8
# %bb.2:                                # %for.body
                                        #   in Loop: Header=BB22_1 Depth=1
	movl	$0, -8(%rbp)
.LBB22_3:                               # %for.cond1
                                        #   Parent Loop BB22_1 Depth=1
                                        # =>  This Inner Loop Header: Depth=2
	cmpl	$16, -8(%rbp)
	jge	.LBB22_6
# %bb.4:                                # %for.body3
                                        #   in Loop: Header=BB22_3 Depth=2
	movslq	-4(%rbp), %rax
	shlq	$6, %rax
	movabsq	$diffy, %rcx
	addq	%rax, %rcx
	movslq	-8(%rbp), %rax
	movl	(%rcx,%rax,4), %edi
	callq	abs
	addl	-12(%rbp), %eax
	movl	%eax, -12(%rbp)
# %bb.5:                                # %for.inc
                                        #   in Loop: Header=BB22_3 Depth=2
	movl	-8(%rbp), %eax
	addl	$1, %eax
	movl	%eax, -8(%rbp)
	jmp	.LBB22_3
.LBB22_6:                               # %for.end
                                        #   in Loop: Header=BB22_1 Depth=1
	jmp	.LBB22_7
.LBB22_7:                               # %for.inc6
                                        #   in Loop: Header=BB22_1 Depth=1
	movl	-4(%rbp), %eax
	addl	$1, %eax
	movl	%eax, -4(%rbp)
	jmp	.LBB22_1
.LBB22_8:                               # %for.end8
	vmovsd	.LCPI22_0(%rip), %xmm0  # xmm0 = mem[0],zero
	vmovsd	.LCPI22_1(%rip), %xmm1  # xmm1 = mem[0],zero
	vcvtsi2sdl	-12(%rbp), %xmm0, %xmm2
	vmulsd	%xmm1, %xmm2, %xmm1
	vdivsd	%xmm0, %xmm1, %xmm0
	vmovsd	%xmm0, -32(%rbp)
	vmovsd	-32(%rbp), %xmm0        # xmm0 = mem[0],zero
	cmpl	$541181388, -16(%rbp)   # imm = 0x2041C5CC
	jne	.LBB22_10
.LBB22_9:
	addq	$32, %rsp
	popq	%rbp
	.cfi_def_cfa %rsp, 8
	retq
.LBB22_10:                              # %func_exit
	.cfi_def_cfa %rbp, 16
	vmovsd	%xmm0, -24(%rbp)        # 8-byte Spill
	callq	detect_breach
	vmovsd	-24(%rbp), %xmm0        # 8-byte Reload
                                        # xmm0 = mem[0],zero
	jmp	.LBB22_9
.Lfunc_end22:
	.size	calc_MAD.6, .Lfunc_end22-calc_MAD.6
	.cfi_endproc
                                        # -- End function
	.section	.rodata.cst8,"aM",@progbits,8
	.p2align	3               # -- Begin function updateRCModel.7
.LCPI23_0:
	.quad	4611686018427387904     # double 2
.LCPI23_1:
	.quad	4602678819172646912     # double 0.5
.LCPI23_2:
	.quad	4607182418800017408     # double 1
.LCPI23_3:
	.quad	4626322717216342016     # double 20
	.section	.rodata.cst16,"aM",@progbits,16
	.p2align	4
.LCPI23_4:
	.quad	9223372036854775807     # double NaN
	.quad	9223372036854775807     # double NaN
	.text
	.globl	updateRCModel.7
	.p2align	4, 0x90
	.type	updateRCModel.7,@function
updateRCModel.7:                        # @updateRCModel.7
	.cfi_startproc
# %bb.0:                                # %entry
	pushq	%rbp
	.cfi_def_cfa_offset 16
	.cfi_offset %rbp, -16
	movq	%rsp, %rbp
	.cfi_def_cfa_register %rbp
	subq	$208, %rsp
	movl	$767963064, -28(%rbp)   # imm = 0x2DC62FB8
	vxorps	%xmm0, %xmm0, %xmm0
	vmovsd	%xmm0, -24(%rbp)
	movl	$0, -16(%rbp)
	movq	img, %rax
	cmpl	$0, 24(%rax)
	jne	.LBB23_68
# %bb.1:                                # %if.then
	movq	img, %rax
	movl	72620(%rax), %eax
	movq	img, %rcx
	cmpl	72608(%rcx), %eax
	jne	.LBB23_3
# %bb.2:                                # %if.then2
	callq	ComputeFrameMAD
	vmovsd	%xmm0, CurrentFrameMAD
	movq	img, %rax
	movl	72564(%rax), %eax
	movl	%eax, -12(%rbp)
	jmp	.LBB23_21
.LBB23_3:                               # %if.else
	movq	input, %rax
	cmpl	$0, 2884(%rax)
	je	.LBB23_6
# %bb.4:                                # %land.lhs.true
	movq	img, %rax
	cmpl	$0, 72600(%rax)
	jne	.LBB23_6
# %bb.5:                                # %if.then4
	vmovsd	.LCPI23_0(%rip), %xmm0  # xmm0 = mem[0],zero
	movq	img, %rax
	vmovsd	72544(%rax), %xmm1      # xmm1 = mem[0],zero
	movq	img, %rax
	vcvtsi2sdl	72620(%rax), %xmm0, %xmm2
	vdivsd	%xmm2, %xmm1, %xmm1
	vdivsd	%xmm0, %xmm1, %xmm0
	vmovsd	%xmm0, CurrentFrameMAD
	jmp	.LBB23_7
.LBB23_6:                               # %if.else7
	movq	img, %rax
	vmovsd	72544(%rax), %xmm0      # xmm0 = mem[0],zero
	movq	img, %rax
	vcvtsi2sdl	72620(%rax), %xmm0, %xmm1
	vdivsd	%xmm1, %xmm0, %xmm0
	vmovsd	%xmm0, CurrentFrameMAD
.LBB23_7:                               # %if.end
	movq	img, %rax
	vxorps	%xmm0, %xmm0, %xmm0
	vmovsd	%xmm0, 72544(%rax)
	movl	TotalNumberofBasicUnit, %eax
	subl	NumberofBasicUnit, %eax
	movl	%eax, CodedBasicUnit
	cmpl	$0, CodedBasicUnit
	jle	.LBB23_12
# %bb.8:                                # %if.then15
	vmovsd	.LCPI23_1(%rip), %xmm0  # xmm0 = mem[0],zero
	vmovsd	.LCPI23_2(%rip), %xmm1  # xmm1 = mem[0],zero
	movl	PAveHeaderBits1, %eax
	movl	CodedBasicUnit, %ecx
	subl	$1, %ecx
	imull	%ecx, %eax
	movq	img, %rcx
	addl	72532(%rcx), %eax
	vcvtsi2sd	%eax, %xmm0, %xmm2
	vmulsd	%xmm2, %xmm1, %xmm1
	vcvtsi2sdl	CodedBasicUnit, %xmm0, %xmm2
	vdivsd	%xmm2, %xmm1, %xmm1
	vaddsd	%xmm0, %xmm1, %xmm0
	vcvttsd2si	%xmm0, %eax
	movl	%eax, PAveHeaderBits1
	cmpl	$0, PAveHeaderBits3
	jne	.LBB23_10
# %bb.9:                                # %if.then25
	movl	PAveHeaderBits1, %eax
	movl	%eax, PAveHeaderBits2
	jmp	.LBB23_11
.LBB23_10:                              # %if.else26
	vmovsd	.LCPI23_1(%rip), %xmm0  # xmm0 = mem[0],zero
	vmovsd	.LCPI23_2(%rip), %xmm1  # xmm1 = mem[0],zero
	movl	PAveHeaderBits1, %eax
	imull	CodedBasicUnit, %eax
	movl	PAveHeaderBits3, %ecx
	imull	NumberofBasicUnit, %ecx
	addl	%ecx, %eax
	vcvtsi2sd	%eax, %xmm0, %xmm2
	vmulsd	%xmm2, %xmm1, %xmm1
	vcvtsi2sdl	TotalNumberofBasicUnit, %xmm0, %xmm2
	vdivsd	%xmm2, %xmm1, %xmm1
	vaddsd	%xmm0, %xmm1, %xmm0
	vcvttsd2si	%xmm0, %eax
	movl	%eax, PAveHeaderBits2
.LBB23_11:                              # %if.end36
	jmp	.LBB23_12
.LBB23_12:                              # %if.end37
	movq	input, %rax
	cmpl	$2, 2880(%rax)
	je	.LBB23_14
# %bb.13:                               # %lor.lhs.false
	movq	input, %rax
	cmpl	$0, 2884(%rax)
	je	.LBB23_16
.LBB23_14:                              # %land.lhs.true42
	movq	img, %rax
	cmpl	$1, 72600(%rax)
	jne	.LBB23_16
# %bb.15:                               # %if.then46
	vmovsd	CurrentFrameMAD, %xmm0  # xmm0 = mem[0],zero
	movq	FCBUCFMAD, %rax
	movl	TotalNumberofBasicUnit, %ecx
	subl	$1, %ecx
	subl	NumberofBasicUnit, %ecx
	movslq	%ecx, %rcx
	vmovsd	%xmm0, (%rax,%rcx,8)
	jmp	.LBB23_17
.LBB23_16:                              # %if.else49
	vmovsd	CurrentFrameMAD, %xmm0  # xmm0 = mem[0],zero
	movq	BUCFMAD, %rax
	movl	TotalNumberofBasicUnit, %ecx
	subl	$1, %ecx
	subl	NumberofBasicUnit, %ecx
	movslq	%ecx, %rcx
	vmovsd	%xmm0, (%rax,%rcx,8)
.LBB23_17:                              # %if.end54
	cmpl	$0, NumberofBasicUnit
	je	.LBB23_19
# %bb.18:                               # %if.then57
	movq	img, %rax
	movl	72564(%rax), %eax
	imull	TotalNumberofBasicUnit, %eax
	addl	CodedBasicUnit, %eax
	movl	%eax, -12(%rbp)
	jmp	.LBB23_20
.LBB23_19:                              # %if.else61
	movq	img, %rax
	movl	72564(%rax), %eax
	subl	$1, %eax
	imull	TotalNumberofBasicUnit, %eax
	addl	CodedBasicUnit, %eax
	movl	%eax, -12(%rbp)
.LBB23_20:                              # %if.end66
	jmp	.LBB23_21
.LBB23_21:                              # %if.end67
	cmpl	$1, -12(%rbp)
	jle	.LBB23_23
# %bb.22:                               # %if.then70
	movl	$1, -16(%rbp)
.LBB23_23:                              # %if.end71
	movq	img, %rax
	movl	72524(%rax), %eax
	movl	%eax, PPreHeader
	movl	$19, -4(%rbp)
.LBB23_24:                              # %for.cond
                                        # =>This Inner Loop Header: Depth=1
	cmpl	$0, -4(%rbp)
	jle	.LBB23_27
# %bb.25:                               # %for.body
                                        #   in Loop: Header=BB23_24 Depth=1
	movl	-4(%rbp), %eax
	subl	$1, %eax
	cltq
	vmovsd	Pm_rgQp(,%rax,8), %xmm0 # xmm0 = mem[0],zero
	movslq	-4(%rbp), %rax
	vmovsd	%xmm0, Pm_rgQp(,%rax,8)
	movslq	-4(%rbp), %rax
	vmovsd	Pm_rgQp(,%rax,8), %xmm0 # xmm0 = mem[0],zero
	movslq	-4(%rbp), %rax
	vmovsd	%xmm0, m_rgQp(,%rax,8)
	movl	-4(%rbp), %eax
	subl	$1, %eax
	cltq
	vmovsd	Pm_rgRp(,%rax,8), %xmm0 # xmm0 = mem[0],zero
	movslq	-4(%rbp), %rax
	vmovsd	%xmm0, Pm_rgRp(,%rax,8)
	movslq	-4(%rbp), %rax
	vmovsd	Pm_rgRp(,%rax,8), %xmm0 # xmm0 = mem[0],zero
	movslq	-4(%rbp), %rax
	vmovsd	%xmm0, m_rgRp(,%rax,8)
# %bb.26:                               # %for.inc
                                        #   in Loop: Header=BB23_24 Depth=1
	movl	-4(%rbp), %eax
	addl	$-1, %eax
	movl	%eax, -4(%rbp)
	jmp	.LBB23_24
.LBB23_27:                              # %for.end
	movl	m_Qc, %edi
	callq	QP2Qstep
	vmovsd	%xmm0, Pm_rgQp
	movq	img, %rax
	movl	72620(%rax), %eax
	movq	img, %rcx
	cmpl	72608(%rcx), %eax
	jne	.LBB23_29
# %bb.28:                               # %if.then97
	vmovsd	.LCPI23_2(%rip), %xmm0  # xmm0 = mem[0],zero
	movq	img, %rax
	vcvtsi2sdl	72528(%rax), %xmm0, %xmm1
	vmulsd	%xmm0, %xmm1, %xmm0
	vdivsd	CurrentFrameMAD, %xmm0, %xmm0
	vmovsd	%xmm0, Pm_rgRp
	jmp	.LBB23_30
.LBB23_29:                              # %if.else101
	vmovsd	.LCPI23_2(%rip), %xmm0  # xmm0 = mem[0],zero
	movq	img, %rax
	vcvtsi2sdl	72536(%rax), %xmm0, %xmm1
	vmulsd	%xmm0, %xmm1, %xmm0
	vdivsd	CurrentFrameMAD, %xmm0, %xmm0
	vmovsd	%xmm0, Pm_rgRp
.LBB23_30:                              # %if.end105
	vmovsd	Pm_rgQp, %xmm0          # xmm0 = mem[0],zero
	vmovsd	%xmm0, m_rgQp
	vmovsd	Pm_rgRp, %xmm0          # xmm0 = mem[0],zero
	vmovsd	%xmm0, m_rgRp
	vmovsd	Pm_X1, %xmm0            # xmm0 = mem[0],zero
	vmovsd	%xmm0, m_X1
	vmovsd	Pm_X2, %xmm0            # xmm0 = mem[0],zero
	vmovsd	%xmm0, m_X2
	vmovsd	CurrentFrameMAD, %xmm0  # xmm0 = mem[0],zero
	vucomisd	PreviousFrameMAD, %xmm0
	jbe	.LBB23_32
# %bb.31:                               # %cond.true
	vmovsd	.LCPI23_3(%rip), %xmm0  # xmm0 = mem[0],zero
	vmovsd	PreviousFrameMAD, %xmm1 # xmm1 = mem[0],zero
	vdivsd	CurrentFrameMAD, %xmm1, %xmm1
	vmulsd	%xmm0, %xmm1, %xmm0
	vcvttsd2si	%xmm0, %eax
	jmp	.LBB23_33
.LBB23_32:                              # %cond.false
	vmovsd	.LCPI23_3(%rip), %xmm0  # xmm0 = mem[0],zero
	vmovsd	CurrentFrameMAD, %xmm1  # xmm1 = mem[0],zero
	vdivsd	PreviousFrameMAD, %xmm1, %xmm1
	vmulsd	%xmm0, %xmm1, %xmm0
	vcvttsd2si	%xmm0, %eax
.LBB23_33:                              # %cond.end
	movl	%eax, -8(%rbp)
	cmpl	$1, -8(%rbp)
	jge	.LBB23_35
# %bb.34:                               # %cond.true116
	movl	$1, %eax
	jmp	.LBB23_36
.LBB23_35:                              # %cond.false117
	movl	-8(%rbp), %eax
.LBB23_36:                              # %cond.end118
	movl	%eax, -8(%rbp)
	movl	-8(%rbp), %eax
	cmpl	-12(%rbp), %eax
	jge	.LBB23_38
# %bb.37:                               # %cond.true122
	movl	-8(%rbp), %eax
	jmp	.LBB23_39
.LBB23_38:                              # %cond.false123
	movl	-12(%rbp), %eax
.LBB23_39:                              # %cond.end124
	movl	%eax, -8(%rbp)
	movl	-8(%rbp), %eax
	movl	m_windowSize, %ecx
	addl	$1, %ecx
	cmpl	%ecx, %eax
	jge	.LBB23_41
# %bb.40:                               # %cond.true129
	movl	-8(%rbp), %eax
	jmp	.LBB23_42
.LBB23_41:                              # %cond.false130
	movl	m_windowSize, %eax
	addl	$1, %eax
.LBB23_42:                              # %cond.end132
	movl	%eax, -8(%rbp)
	cmpl	$20, -8(%rbp)
	jge	.LBB23_44
# %bb.43:                               # %cond.true136
	movl	-8(%rbp), %eax
	jmp	.LBB23_45
.LBB23_44:                              # %cond.false137
	movl	$20, %eax
	jmp	.LBB23_45
.LBB23_45:                              # %cond.end138
	movl	%eax, -8(%rbp)
	movl	-8(%rbp), %eax
	movl	%eax, m_windowSize
	movl	$0, -4(%rbp)
.LBB23_46:                              # %for.cond140
                                        # =>This Inner Loop Header: Depth=1
	cmpl	$20, -4(%rbp)
	jge	.LBB23_49
# %bb.47:                               # %for.body143
                                        #   in Loop: Header=BB23_46 Depth=1
	movslq	-4(%rbp), %rax
	movl	$0, m_rgRejected(,%rax,4)
# %bb.48:                               # %for.inc146
                                        #   in Loop: Header=BB23_46 Depth=1
	movl	-4(%rbp), %eax
	addl	$1, %eax
	movl	%eax, -4(%rbp)
	jmp	.LBB23_46
.LBB23_49:                              # %for.end147
	movl	-8(%rbp), %edi
	callq	RCModelEstimator
	movl	m_windowSize, %eax
	movl	%eax, -8(%rbp)
	movl	$0, -4(%rbp)
.LBB23_50:                              # %for.cond148
                                        # =>This Inner Loop Header: Depth=1
	movl	-4(%rbp), %eax
	cmpl	-8(%rbp), %eax
	jge	.LBB23_53
# %bb.51:                               # %for.body151
                                        #   in Loop: Header=BB23_50 Depth=1
	vmovsd	m_X1, %xmm0             # xmm0 = mem[0],zero
	movslq	-4(%rbp), %rax
	vdivsd	m_rgQp(,%rax,8), %xmm0, %xmm0
	vmovsd	m_X2, %xmm1             # xmm1 = mem[0],zero
	movslq	-4(%rbp), %rax
	vmovsd	m_rgQp(,%rax,8), %xmm2  # xmm2 = mem[0],zero
	movslq	-4(%rbp), %rax
	vmulsd	m_rgQp(,%rax,8), %xmm2, %xmm2
	vdivsd	%xmm2, %xmm1, %xmm1
	vaddsd	%xmm1, %xmm0, %xmm0
	movslq	-4(%rbp), %rax
	vsubsd	m_rgRp(,%rax,8), %xmm0, %xmm0
	movslq	-4(%rbp), %rax
	vmovsd	%xmm0, -208(%rbp,%rax,8)
	movslq	-4(%rbp), %rax
	vmovsd	-208(%rbp,%rax,8), %xmm0 # xmm0 = mem[0],zero
	movslq	-4(%rbp), %rax
	vmulsd	-208(%rbp,%rax,8), %xmm0, %xmm0
	vaddsd	-24(%rbp), %xmm0, %xmm0
	vmovsd	%xmm0, -24(%rbp)
# %bb.52:                               # %for.inc173
                                        #   in Loop: Header=BB23_50 Depth=1
	movl	-4(%rbp), %eax
	addl	$1, %eax
	movl	%eax, -4(%rbp)
	jmp	.LBB23_50
.LBB23_53:                              # %for.end175
	cmpl	$2, -8(%rbp)
	jne	.LBB23_55
# %bb.54:                               # %cond.true178
	vxorps	%xmm0, %xmm0, %xmm0
	jmp	.LBB23_56
.LBB23_55:                              # %cond.false179
	vmovsd	-24(%rbp), %xmm0        # xmm0 = mem[0],zero
	vcvtsi2sdl	-8(%rbp), %xmm0, %xmm1
	vdivsd	%xmm1, %xmm0, %xmm0
	callq	sqrt
.LBB23_56:                              # %cond.end183
	vmovsd	%xmm0, -40(%rbp)
	movl	$0, -4(%rbp)
.LBB23_57:                              # %for.cond185
                                        # =>This Inner Loop Header: Depth=1
	movl	-4(%rbp), %eax
	cmpl	-8(%rbp), %eax
	jge	.LBB23_62
# %bb.58:                               # %for.body188
                                        #   in Loop: Header=BB23_57 Depth=1
	movslq	-4(%rbp), %rax
	vmovsd	-208(%rbp,%rax,8), %xmm0 # xmm0 = mem[0],zero
	vmovdqa	.LCPI23_4(%rip), %xmm1  # xmm1 = [NaN,NaN]
	vpand	%xmm1, %xmm0, %xmm0
	vucomisd	-40(%rbp), %xmm0
	jbe	.LBB23_60
# %bb.59:                               # %if.then193
                                        #   in Loop: Header=BB23_57 Depth=1
	movslq	-4(%rbp), %rax
	movl	$1, m_rgRejected(,%rax,4)
.LBB23_60:                              # %if.end196
                                        #   in Loop: Header=BB23_57 Depth=1
	jmp	.LBB23_61
.LBB23_61:                              # %for.inc197
                                        #   in Loop: Header=BB23_57 Depth=1
	movl	-4(%rbp), %eax
	addl	$1, %eax
	movl	%eax, -4(%rbp)
	jmp	.LBB23_57
.LBB23_62:                              # %for.end199
	movl	$0, m_rgRejected
	movl	-8(%rbp), %edi
	callq	RCModelEstimator
	cmpl	$0, -16(%rbp)
	je	.LBB23_64
# %bb.63:                               # %if.then201
	callq	updateMADModel
	jmp	.LBB23_67
.LBB23_64:                              # %if.else202
	movq	img, %rax
	cmpl	$0, 24(%rax)
	jne	.LBB23_66
# %bb.65:                               # %if.then206
	vmovsd	CurrentFrameMAD, %xmm0  # xmm0 = mem[0],zero
	vmovsd	%xmm0, PPictureMAD
.LBB23_66:                              # %if.end207
	jmp	.LBB23_67
.LBB23_67:                              # %if.end208
	jmp	.LBB23_68
.LBB23_68:                              # %if.end209
	cmpl	$767963064, -28(%rbp)   # imm = 0x2DC62FB8
	jne	.LBB23_70
.LBB23_69:
	addq	$208, %rsp
	popq	%rbp
	.cfi_def_cfa %rsp, 8
	retq
.LBB23_70:                              # %func_exit
	.cfi_def_cfa %rbp, 16
	callq	detect_breach
	jmp	.LBB23_69
.Lfunc_end23:
	.size	updateRCModel.7, .Lfunc_end23-updateRCModel.7
	.cfi_endproc
                                        # -- End function
	.section	.rodata.cst8,"aM",@progbits,8
	.p2align	3               # -- Begin function rc_update_pict_frame.8
.LCPI24_0:
	.quad	4602678819172646912     # double 0.5
.LCPI24_1:
	.quad	4608819927624529320     # double 1.3635999999999999
	.text
	.globl	rc_update_pict_frame.8
	.p2align	4, 0x90
	.type	rc_update_pict_frame.8,@function
rc_update_pict_frame.8:                 # @rc_update_pict_frame.8
	.cfi_startproc
# %bb.0:                                # %entry
	pushq	%rbp
	.cfi_def_cfa_offset 16
	.cfi_offset %rbp, -16
	movq	%rsp, %rbp
	.cfi_def_cfa_register %rbp
	subq	$16, %rsp
	movl	$1306552970, -12(%rbp)  # imm = 0x4DE06A8A
	movl	%edi, -8(%rbp)
	movl	$0, -4(%rbp)
	movq	img, %rax
	movl	72620(%rax), %eax
	movq	img, %rcx
	cmpl	72608(%rcx), %eax
	jne	.LBB24_2
# %bb.1:                                # %if.then
	vmovsd	.LCPI24_0(%rip), %xmm0  # xmm0 = mem[0],zero
	movl	-8(%rbp), %eax
	imull	m_Qc, %eax
	vcvtsi2sd	%eax, %xmm0, %xmm1
	vaddsd	%xmm0, %xmm1, %xmm0
	vroundsd	$9, %xmm0, %xmm0, %xmm0
	vcvttsd2si	%xmm0, %eax
	movl	%eax, -4(%rbp)
	jmp	.LBB24_12
.LBB24_2:                               # %if.else
	movq	img, %rax
	cmpl	$0, 24(%rax)
	jne	.LBB24_8
# %bb.3:                                # %if.then4
	movq	img, %rax
	cmpl	$0, 72612(%rax)
	jne	.LBB24_5
# %bb.4:                                # %land.lhs.true
	movq	img, %rax
	cmpl	$1, 72600(%rax)
	je	.LBB24_6
.LBB24_5:                               # %lor.lhs.false
	movq	img, %rax
	cmpl	$0, 72600(%rax)
	jne	.LBB24_7
.LBB24_6:                               # %if.then12
	vmovsd	.LCPI24_0(%rip), %xmm0  # xmm0 = mem[0],zero
	movl	TotalFrameQP, %eax
	cltd
	idivl	TotalNumberofBasicUnit
	movl	%eax, -16(%rbp)
	movl	-8(%rbp), %eax
	imull	-16(%rbp), %eax
	vcvtsi2sd	%eax, %xmm0, %xmm1
	vaddsd	%xmm0, %xmm1, %xmm0
	vroundsd	$9, %xmm0, %xmm0, %xmm0
	vcvttsd2si	%xmm0, %eax
	movl	%eax, -4(%rbp)
.LBB24_7:                               # %if.end
	jmp	.LBB24_11
.LBB24_8:                               # %if.else17
	movq	img, %rax
	cmpl	$1, 24(%rax)
	jne	.LBB24_10
# %bb.9:                                # %if.then21
	vmovsd	.LCPI24_0(%rip), %xmm0  # xmm0 = mem[0],zero
	movl	-8(%rbp), %eax
	imull	m_Qc, %eax
	vcvtsi2sd	%eax, %xmm0, %xmm1
	vaddsd	%xmm0, %xmm1, %xmm0
	vroundsd	$9, %xmm0, %xmm0, %xmm0
	vcvttsd2si	%xmm0, %eax
	movl	%eax, -4(%rbp)
.LBB24_10:                              # %if.end26
	jmp	.LBB24_11
.LBB24_11:                              # %if.end27
	jmp	.LBB24_12
.LBB24_12:                              # %if.end28
	movq	img(%rip), %rax
	movl	24(%rax), %eax
	testl	%eax, %eax
	je	.LBB24_14
	jmp	.LBB24_13
.LBB24_13:                              # %if.end28
	subl	$1, %eax
	je	.LBB24_23
	jmp	.LBB24_24
.LBB24_14:                              # %sw.bb
	movq	img, %rax
	cmpl	$0, 72612(%rax)
	jne	.LBB24_16
# %bb.15:                               # %land.lhs.true33
	movq	img, %rax
	cmpl	$1, 72600(%rax)
	je	.LBB24_17
.LBB24_16:                              # %lor.lhs.false37
	movq	img, %rax
	cmpl	$0, 72600(%rax)
	jne	.LBB24_18
.LBB24_17:                              # %if.then41
	movl	-4(%rbp), %eax
	movl	%eax, Xp
	movl	Np, %eax
	addl	$-1, %eax
	movl	%eax, Np
	vcvtsi2sdl	Xp, %xmm0, %xmm0
	vmovsd	%xmm0, Wp
	movq	img, %rax
	movl	72524(%rax), %eax
	movl	%eax, Pm_Hp
	movq	img, %rax
	movl	72564(%rax), %ecx
	addl	$1, %ecx
	movl	%ecx, 72564(%rax)
	movq	img, %rax
	movl	72576(%rax), %ecx
	addl	$1, %ecx
	movl	%ecx, 72576(%rax)
	jmp	.LBB24_22
.LBB24_18:                              # %if.else44
	movq	img, %rax
	cmpl	$0, 72612(%rax)
	je	.LBB24_21
# %bb.19:                               # %land.lhs.true48
	movq	img, %rax
	cmpl	$1, 72600(%rax)
	jne	.LBB24_21
# %bb.20:                               # %if.then52
	movq	img, %rax
	movl	$0, 72612(%rax)
.LBB24_21:                              # %if.end54
	jmp	.LBB24_22
.LBB24_22:                              # %if.end55
	jmp	.LBB24_24
.LBB24_23:                              # %sw.bb56
	vmovsd	.LCPI24_1(%rip), %xmm0  # xmm0 = mem[0],zero
	movl	-4(%rbp), %eax
	movl	%eax, Xb
	movl	Nb, %eax
	addl	$-1, %eax
	movl	%eax, Nb
	vcvtsi2sdl	Xb, %xmm0, %xmm1
	vdivsd	%xmm0, %xmm1, %xmm0
	vmovsd	%xmm0, Wb
	movq	img, %rax
	movl	72560(%rax), %ecx
	addl	$1, %ecx
	movl	%ecx, 72560(%rax)
	movl	NumberofBFrames, %eax
	addl	$1, %eax
	movl	%eax, NumberofBFrames
.LBB24_24:                              # %sw.epilog
	cmpl	$1306552970, -12(%rbp)  # imm = 0x4DE06A8A
	jne	.LBB24_26
.LBB24_25:
	addq	$16, %rsp
	popq	%rbp
	.cfi_def_cfa %rsp, 8
	retq
.LBB24_26:                              # %func_exit
	.cfi_def_cfa %rbp, 16
	callq	detect_breach
	jmp	.LBB24_25
.Lfunc_end24:
	.size	rc_update_pict_frame.8, .Lfunc_end24-rc_update_pict_frame.8
	.cfi_endproc
                                        # -- End function
	.globl	ComputeFrameMAD.9       # -- Begin function ComputeFrameMAD.9
	.p2align	4, 0x90
	.type	ComputeFrameMAD.9,@function
ComputeFrameMAD.9:                      # @ComputeFrameMAD.9
	.cfi_startproc
# %bb.0:                                # %entry
	pushq	%rbp
	.cfi_def_cfa_offset 16
	.cfi_offset %rbp, -16
	movq	%rsp, %rbp
	.cfi_def_cfa_register %rbp
	subq	$32, %rsp
	movl	$531748850, -20(%rbp)   # imm = 0x1FB1D7F2
	vxorps	%xmm0, %xmm0, %xmm0
	vmovsd	%xmm0, -16(%rbp)
	movl	$0, -4(%rbp)
.LBB25_1:                               # %for.cond
                                        # =>This Inner Loop Header: Depth=1
	movl	-4(%rbp), %eax
	movq	img, %rcx
	cmpl	72608(%rcx), %eax
	jge	.LBB25_4
# %bb.2:                                # %for.body
                                        #   in Loop: Header=BB25_1 Depth=1
	movq	img, %rax
	movq	72584(%rax), %rax
	movslq	-4(%rbp), %rcx
	vmovsd	(%rax,%rcx,8), %xmm0    # xmm0 = mem[0],zero
	vaddsd	-16(%rbp), %xmm0, %xmm0
	vmovsd	%xmm0, -16(%rbp)
# %bb.3:                                # %for.inc
                                        #   in Loop: Header=BB25_1 Depth=1
	movl	-4(%rbp), %eax
	addl	$1, %eax
	movl	%eax, -4(%rbp)
	jmp	.LBB25_1
.LBB25_4:                               # %for.end
	movq	img, %rax
	vcvtsi2sdl	72608(%rax), %xmm0, %xmm0
	vmovsd	-16(%rbp), %xmm1        # xmm1 = mem[0],zero
	vdivsd	%xmm0, %xmm1, %xmm0
	vmovsd	%xmm0, -16(%rbp)
	vmovsd	-16(%rbp), %xmm0        # xmm0 = mem[0],zero
	cmpl	$531748850, -20(%rbp)   # imm = 0x1FB1D7F2
	jne	.LBB25_6
.LBB25_5:
	addq	$32, %rsp
	popq	%rbp
	.cfi_def_cfa %rsp, 8
	retq
.LBB25_6:                               # %func_exit
	.cfi_def_cfa %rbp, 16
	vmovsd	%xmm0, -32(%rbp)        # 8-byte Spill
	callq	detect_breach
	vmovsd	-32(%rbp), %xmm0        # 8-byte Reload
                                        # xmm0 = mem[0],zero
	jmp	.LBB25_5
.Lfunc_end25:
	.size	ComputeFrameMAD.9, .Lfunc_end25-ComputeFrameMAD.9
	.cfi_endproc
                                        # -- End function
	.section	.rodata.cst8,"aM",@progbits,8
	.p2align	3               # -- Begin function MADModelEstimator.10
.LCPI26_0:
	.quad	4517329193108106637     # double 9.9999999999999995E-7
.LCPI26_2:
	.quad	4607182418800017408     # double 1
	.section	.rodata.cst16,"aM",@progbits,16
	.p2align	4
.LCPI26_1:
	.quad	9223372036854775807     # double NaN
	.quad	9223372036854775807     # double NaN
	.text
	.globl	MADModelEstimator.10
	.p2align	4, 0x90
	.type	MADModelEstimator.10,@function
MADModelEstimator.10:                   # @MADModelEstimator.10
	.cfi_startproc
# %bb.0:                                # %entry
	pushq	%rbp
	.cfi_def_cfa_offset 16
	.cfi_offset %rbp, -16
	movq	%rsp, %rbp
	.cfi_def_cfa_register %rbp
	subq	$96, %rsp
	movl	$1312597449, -84(%rbp)  # imm = 0x4E3CA5C9
	movl	%edi, -8(%rbp)
	movl	-8(%rbp), %eax
	movl	%eax, -12(%rbp)
	vxorps	%xmm0, %xmm0, %xmm0
	vmovsd	%xmm0, -56(%rbp)
	vmovsd	%xmm0, -24(%rbp)
	vmovsd	%xmm0, -80(%rbp)
	vmovsd	%xmm0, -48(%rbp)
	vmovsd	%xmm0, -32(%rbp)
	vmovsd	%xmm0, -64(%rbp)
	movl	$0, -36(%rbp)
	movl	$0, -4(%rbp)
.LBB26_1:                               # %for.cond
                                        # =>This Inner Loop Header: Depth=1
	movl	-4(%rbp), %eax
	cmpl	-8(%rbp), %eax
	jge	.LBB26_6
# %bb.2:                                # %for.body
                                        #   in Loop: Header=BB26_1 Depth=1
	movslq	-4(%rbp), %rax
	cmpl	$0, PictureRejected(,%rax,4)
	je	.LBB26_4
# %bb.3:                                # %if.then
                                        #   in Loop: Header=BB26_1 Depth=1
	movl	-12(%rbp), %eax
	addl	$-1, %eax
	movl	%eax, -12(%rbp)
.LBB26_4:                               # %if.end
                                        #   in Loop: Header=BB26_1 Depth=1
	jmp	.LBB26_5
.LBB26_5:                               # %for.inc
                                        #   in Loop: Header=BB26_1 Depth=1
	movl	-4(%rbp), %eax
	addl	$1, %eax
	movl	%eax, -4(%rbp)
	jmp	.LBB26_1
.LBB26_6:                               # %for.end
	vxorps	%xmm0, %xmm0, %xmm0
	vmovsd	%xmm0, MADPictureC2
	vmovsd	%xmm0, MADPictureC1
	movl	$0, -4(%rbp)
.LBB26_7:                               # %for.cond1
                                        # =>This Inner Loop Header: Depth=1
	movl	-4(%rbp), %eax
	cmpl	-8(%rbp), %eax
	jge	.LBB26_12
# %bb.8:                                # %for.body3
                                        #   in Loop: Header=BB26_7 Depth=1
	movslq	-4(%rbp), %rax
	cmpl	$0, PictureRejected(,%rax,4)
	jne	.LBB26_10
# %bb.9:                                # %if.then7
                                        #   in Loop: Header=BB26_7 Depth=1
	movslq	-4(%rbp), %rax
	vmovsd	PictureMAD(,%rax,8), %xmm0 # xmm0 = mem[0],zero
	vmovsd	%xmm0, -96(%rbp)
.LBB26_10:                              # %if.end10
                                        #   in Loop: Header=BB26_7 Depth=1
	jmp	.LBB26_11
.LBB26_11:                              # %for.inc11
                                        #   in Loop: Header=BB26_7 Depth=1
	movl	-4(%rbp), %eax
	addl	$1, %eax
	movl	%eax, -4(%rbp)
	jmp	.LBB26_7
.LBB26_12:                              # %for.end13
	movl	$0, -4(%rbp)
.LBB26_13:                              # %for.cond14
                                        # =>This Inner Loop Header: Depth=1
	movl	-4(%rbp), %eax
	cmpl	-8(%rbp), %eax
	jge	.LBB26_21
# %bb.14:                               # %for.body16
                                        #   in Loop: Header=BB26_13 Depth=1
	movslq	-4(%rbp), %rax
	vmovsd	PictureMAD(,%rax,8), %xmm0 # xmm0 = mem[0],zero
	vucomisd	-96(%rbp), %xmm0
	jne	.LBB26_15
	jp	.LBB26_15
	jmp	.LBB26_17
.LBB26_15:                              # %land.lhs.true
                                        #   in Loop: Header=BB26_13 Depth=1
	movslq	-4(%rbp), %rax
	cmpl	$0, PictureRejected(,%rax,4)
	jne	.LBB26_17
# %bb.16:                               # %if.then23
                                        #   in Loop: Header=BB26_13 Depth=1
	movl	$1, -36(%rbp)
.LBB26_17:                              # %if.end24
                                        #   in Loop: Header=BB26_13 Depth=1
	movslq	-4(%rbp), %rax
	cmpl	$0, PictureRejected(,%rax,4)
	jne	.LBB26_19
# %bb.18:                               # %if.then28
                                        #   in Loop: Header=BB26_13 Depth=1
	movslq	-4(%rbp), %rax
	vmovsd	PictureMAD(,%rax,8), %xmm0 # xmm0 = mem[0],zero
	movslq	-4(%rbp), %rax
	vmovsd	ReferenceMAD(,%rax,8), %xmm1 # xmm1 = mem[0],zero
	vcvtsi2sdl	-12(%rbp), %xmm0, %xmm2
	vmulsd	%xmm2, %xmm1, %xmm1
	vdivsd	%xmm1, %xmm0, %xmm0
	vaddsd	MADPictureC1, %xmm0, %xmm0
	vmovsd	%xmm0, MADPictureC1
.LBB26_19:                              # %if.end33
                                        #   in Loop: Header=BB26_13 Depth=1
	jmp	.LBB26_20
.LBB26_20:                              # %for.inc34
                                        #   in Loop: Header=BB26_13 Depth=1
	movl	-4(%rbp), %eax
	addl	$1, %eax
	movl	%eax, -4(%rbp)
	jmp	.LBB26_13
.LBB26_21:                              # %for.end36
	cmpl	$1, -12(%rbp)
	jl	.LBB26_33
# %bb.22:                               # %land.lhs.true39
	cmpl	$0, -36(%rbp)
	je	.LBB26_33
# %bb.23:                               # %if.then41
	movl	$0, -4(%rbp)
.LBB26_24:                              # %for.cond42
                                        # =>This Inner Loop Header: Depth=1
	movl	-4(%rbp), %eax
	cmpl	-8(%rbp), %eax
	jge	.LBB26_29
# %bb.25:                               # %for.body45
                                        #   in Loop: Header=BB26_24 Depth=1
	movslq	-4(%rbp), %rax
	cmpl	$0, PictureRejected(,%rax,4)
	jne	.LBB26_27
# %bb.26:                               # %if.then49
                                        #   in Loop: Header=BB26_24 Depth=1
	vmovsd	.LCPI26_2(%rip), %xmm0  # xmm0 = mem[0],zero
	vaddsd	-56(%rbp), %xmm0, %xmm0
	vmovsd	%xmm0, -56(%rbp)
	movslq	-4(%rbp), %rax
	vmovsd	ReferenceMAD(,%rax,8), %xmm0 # xmm0 = mem[0],zero
	vaddsd	-24(%rbp), %xmm0, %xmm0
	vmovsd	%xmm0, -24(%rbp)
	vmovsd	-24(%rbp), %xmm0        # xmm0 = mem[0],zero
	vmovsd	%xmm0, -80(%rbp)
	movslq	-4(%rbp), %rax
	vmovsd	ReferenceMAD(,%rax,8), %xmm0 # xmm0 = mem[0],zero
	movslq	-4(%rbp), %rax
	vmulsd	ReferenceMAD(,%rax,8), %xmm0, %xmm0
	vaddsd	-48(%rbp), %xmm0, %xmm0
	vmovsd	%xmm0, -48(%rbp)
	movslq	-4(%rbp), %rax
	vmovsd	PictureMAD(,%rax,8), %xmm0 # xmm0 = mem[0],zero
	vaddsd	-32(%rbp), %xmm0, %xmm0
	vmovsd	%xmm0, -32(%rbp)
	movslq	-4(%rbp), %rax
	vmovsd	PictureMAD(,%rax,8), %xmm0 # xmm0 = mem[0],zero
	movslq	-4(%rbp), %rax
	vmulsd	ReferenceMAD(,%rax,8), %xmm0, %xmm0
	vaddsd	-64(%rbp), %xmm0, %xmm0
	vmovsd	%xmm0, -64(%rbp)
.LBB26_27:                              # %if.end69
                                        #   in Loop: Header=BB26_24 Depth=1
	jmp	.LBB26_28
.LBB26_28:                              # %for.inc70
                                        #   in Loop: Header=BB26_24 Depth=1
	movl	-4(%rbp), %eax
	addl	$1, %eax
	movl	%eax, -4(%rbp)
	jmp	.LBB26_24
.LBB26_29:                              # %for.end72
	vmovsd	.LCPI26_0(%rip), %xmm0  # xmm0 = mem[0],zero
	vmovsd	-56(%rbp), %xmm1        # xmm1 = mem[0],zero
	vmulsd	-48(%rbp), %xmm1, %xmm1
	vmovsd	-24(%rbp), %xmm2        # xmm2 = mem[0],zero
	vmulsd	-80(%rbp), %xmm2, %xmm2
	vsubsd	%xmm2, %xmm1, %xmm1
	vmovsd	%xmm1, -72(%rbp)
	vmovsd	-72(%rbp), %xmm1        # xmm1 = mem[0],zero
	vmovdqa	.LCPI26_1(%rip), %xmm2  # xmm2 = [NaN,NaN]
	vpand	%xmm2, %xmm1, %xmm1
	vucomisd	%xmm0, %xmm1
	jbe	.LBB26_31
# %bb.30:                               # %if.then77
	vmovsd	-32(%rbp), %xmm0        # xmm0 = mem[0],zero
	vmulsd	-48(%rbp), %xmm0, %xmm0
	vmovsd	-64(%rbp), %xmm1        # xmm1 = mem[0],zero
	vmulsd	-24(%rbp), %xmm1, %xmm1
	vsubsd	%xmm1, %xmm0, %xmm0
	vdivsd	-72(%rbp), %xmm0, %xmm0
	vmovsd	%xmm0, MADPictureC2
	vmovsd	-64(%rbp), %xmm0        # xmm0 = mem[0],zero
	vmulsd	-56(%rbp), %xmm0, %xmm0
	vmovsd	-32(%rbp), %xmm1        # xmm1 = mem[0],zero
	vmulsd	-80(%rbp), %xmm1, %xmm1
	vsubsd	%xmm1, %xmm0, %xmm0
	vdivsd	-72(%rbp), %xmm0, %xmm0
	vmovsd	%xmm0, MADPictureC1
	jmp	.LBB26_32
.LBB26_31:                              # %if.else
	vmovsd	-32(%rbp), %xmm0        # xmm0 = mem[0],zero
	vdivsd	-24(%rbp), %xmm0, %xmm0
	vmovsd	%xmm0, MADPictureC1
	vxorps	%xmm0, %xmm0, %xmm0
	vmovsd	%xmm0, MADPictureC2
.LBB26_32:                              # %if.end87
	jmp	.LBB26_33
.LBB26_33:                              # %if.end88
	movq	img, %rax
	cmpl	$0, 24(%rax)
	jne	.LBB26_35
# %bb.34:                               # %if.then91
	vmovsd	MADPictureC1, %xmm0     # xmm0 = mem[0],zero
	vmovsd	%xmm0, PMADPictureC1
	vmovsd	MADPictureC2, %xmm0     # xmm0 = mem[0],zero
	vmovsd	%xmm0, PMADPictureC2
.LBB26_35:                              # %if.end92
	cmpl	$1312597449, -84(%rbp)  # imm = 0x4E3CA5C9
	jne	.LBB26_37
.LBB26_36:
	addq	$96, %rsp
	popq	%rbp
	.cfi_def_cfa %rsp, 8
	retq
.LBB26_37:                              # %func_exit
	.cfi_def_cfa %rbp, 16
	callq	detect_breach
	jmp	.LBB26_36
.Lfunc_end26:
	.size	MADModelEstimator.10, .Lfunc_end26-MADModelEstimator.10
	.cfi_endproc
                                        # -- End function
	.section	.rodata.cst8,"aM",@progbits,8
	.p2align	3               # -- Begin function rc_init_pict.11
.LCPI27_0:
	.quad	4609434218613702656     # double 1.5
.LCPI27_1:
	.quad	4602678819172646912     # double 0.5
.LCPI27_2:
	.quad	4620693217682128896     # double 8
.LCPI27_3:
	.quad	4619567317775286272     # double 7
.LCPI27_4:
	.quad	4607182418800017408     # double 1
.LCPI27_5:
	.quad	4603579539098121011     # double 0.59999999999999998
	.text
	.globl	rc_init_pict.11
	.p2align	4, 0x90
	.type	rc_init_pict.11,@function
rc_init_pict.11:                        # @rc_init_pict.11
	.cfi_startproc
# %bb.0:                                # %entry
	pushq	%rbp
	.cfi_def_cfa_offset 16
	.cfi_offset %rbp, -16
	movq	%rsp, %rbp
	.cfi_def_cfa_register %rbp
	subq	$32, %rsp
	movl	$706481803, -20(%rbp)   # imm = 0x2A1C0E8B
	movl	%edi, -12(%rbp)
	movl	%esi, -8(%rbp)
	movl	%edx, -16(%rbp)
	movq	input, %rax
	cmpl	$0, 2884(%rax)
	je	.LBB27_2
# %bb.1:                                # %if.then
	movq	img, %rax
	movl	72608(%rax), %eax
	movq	img, %rcx
	cltd
	idivl	72620(%rcx)
	movl	%eax, TotalNumberofBasicUnit
.LBB27_2:                               # %if.end
	movq	img, %rax
	movl	$0, 72616(%rax)
	movq	input, %rax
	cmpl	$1, 3252(%rax)
	jne	.LBB27_9
# %bb.3:                                # %if.then1
	movq	img, %rax
	cmpl	$58, 72564(%rax)
	jne	.LBB27_5
# %bb.4:                                # %if.then3
	vmovsd	.LCPI27_0(%rip), %xmm0  # xmm0 = mem[0],zero
	vmulsd	bit_rate, %xmm0, %xmm0
	vmovsd	%xmm0, bit_rate
	jmp	.LBB27_8
.LBB27_5:                               # %if.else
	movq	img, %rax
	cmpl	$59, 72564(%rax)
	jne	.LBB27_7
# %bb.6:                                # %if.then6
	vmovsd	bit_rate, %xmm0         # xmm0 = mem[0],zero
	vmovsd	%xmm0, PreviousBit_Rate
.LBB27_7:                               # %if.end7
	jmp	.LBB27_8
.LBB27_8:                               # %if.end8
	jmp	.LBB27_9
.LBB27_9:                               # %if.end9
	cmpl	$0, -12(%rbp)
	jne	.LBB27_11
# %bb.10:                               # %lor.lhs.false
	cmpl	$0, -8(%rbp)
	je	.LBB27_111
.LBB27_11:                              # %land.lhs.true
	cmpl	$0, -16(%rbp)
	je	.LBB27_111
# %bb.12:                               # %if.then13
	movq	img(%rip), %rax
	movl	24(%rax), %eax
	testl	%eax, %eax
	je	.LBB27_14
	jmp	.LBB27_13
.LBB27_13:                              # %if.then13
	subl	$1, %eax
	je	.LBB27_65
	jmp	.LBB27_77
.LBB27_14:                              # %sw.bb
	vmovsd	PreviousBit_Rate, %xmm0 # xmm0 = mem[0],zero
	vucomisd	bit_rate, %xmm0
	jne	.LBB27_15
	jp	.LBB27_15
	jmp	.LBB27_16
.LBB27_15:                              # %if.then15
	vmovsd	.LCPI27_1(%rip), %xmm0  # xmm0 = mem[0],zero
	vmovsd	bit_rate, %xmm1         # xmm1 = mem[0],zero
	vsubsd	PreviousBit_Rate, %xmm1, %xmm1
	movl	Np, %eax
	addl	Nb, %eax
	vcvtsi2sd	%eax, %xmm0, %xmm2
	vmulsd	%xmm2, %xmm1, %xmm1
	vdivsd	frame_rate, %xmm1, %xmm1
	vaddsd	%xmm0, %xmm1, %xmm0
	vroundsd	$9, %xmm0, %xmm0, %xmm0
	vcvttsd2si	%xmm0, %eax
	addl	R, %eax
	movl	%eax, R
.LBB27_16:                              # %if.end21
	movq	img, %rax
	movl	72620(%rax), %eax
	movq	img, %rcx
	cmpl	72608(%rcx), %eax
	jne	.LBB27_23
# %bb.17:                               # %if.then26
	movq	img, %rax
	cmpl	$1, 72576(%rax)
	jne	.LBB27_19
# %bb.18:                               # %if.then29
	vmovsd	CurrentBufferFullness, %xmm0 # xmm0 = mem[0],zero
	vmovsd	%xmm0, TargetBufferLevel
	vmovsd	CurrentBufferFullness, %xmm0 # xmm0 = mem[0],zero
	vsubsd	GOPTargetBufferLevel, %xmm0, %xmm0
	movl	TotalPFrame, %eax
	subl	$1, %eax
	vcvtsi2sd	%eax, %xmm0, %xmm1
	vdivsd	%xmm1, %xmm0, %xmm0
	vmovsd	%xmm0, DeltaP
	vmovsd	DeltaP, %xmm0           # xmm0 = mem[0],zero
	vmovsd	TargetBufferLevel, %xmm1 # xmm1 = mem[0],zero
	vsubsd	%xmm0, %xmm1, %xmm0
	vmovsd	%xmm0, TargetBufferLevel
	jmp	.LBB27_22
.LBB27_19:                              # %if.else35
	movq	img, %rax
	cmpl	$1, 72576(%rax)
	jle	.LBB27_21
# %bb.20:                               # %if.then39
	vmovsd	DeltaP, %xmm0           # xmm0 = mem[0],zero
	vmovsd	TargetBufferLevel, %xmm1 # xmm1 = mem[0],zero
	vsubsd	%xmm0, %xmm1, %xmm0
	vmovsd	%xmm0, TargetBufferLevel
.LBB27_21:                              # %if.end41
	jmp	.LBB27_22
.LBB27_22:                              # %if.end42
	jmp	.LBB27_54
.LBB27_23:                              # %if.else43
	movq	img, %rax
	cmpl	$0, 72564(%rax)
	jle	.LBB27_38
# %bb.24:                               # %if.then47
	movq	input, %rax
	cmpl	$2, 2880(%rax)
	je	.LBB27_26
# %bb.25:                               # %lor.lhs.false50
	movq	input, %rax
	cmpl	$0, 2884(%rax)
	je	.LBB27_32
.LBB27_26:                              # %land.lhs.true53
	movq	img, %rax
	cmpl	$1, 72600(%rax)
	jne	.LBB27_32
# %bb.27:                               # %if.then56
	movl	$0, -4(%rbp)
.LBB27_28:                              # %for.cond
                                        # =>This Inner Loop Header: Depth=1
	movl	-4(%rbp), %eax
	cmpl	TotalNumberofBasicUnit, %eax
	jge	.LBB27_31
# %bb.29:                               # %for.body
                                        #   in Loop: Header=BB27_28 Depth=1
	movq	FCBUCFMAD, %rax
	movslq	-4(%rbp), %rcx
	vmovsd	(%rax,%rcx,8), %xmm0    # xmm0 = mem[0],zero
	movq	FCBUPFMAD, %rax
	movslq	-4(%rbp), %rcx
	vmovsd	%xmm0, (%rax,%rcx,8)
# %bb.30:                               # %for.inc
                                        #   in Loop: Header=BB27_28 Depth=1
	movl	-4(%rbp), %eax
	addl	$1, %eax
	movl	%eax, -4(%rbp)
	jmp	.LBB27_28
.LBB27_31:                              # %for.end
	jmp	.LBB27_37
.LBB27_32:                              # %if.else61
	movl	$0, -4(%rbp)
.LBB27_33:                              # %for.cond62
                                        # =>This Inner Loop Header: Depth=1
	movl	-4(%rbp), %eax
	cmpl	TotalNumberofBasicUnit, %eax
	jge	.LBB27_36
# %bb.34:                               # %for.body65
                                        #   in Loop: Header=BB27_33 Depth=1
	movq	BUCFMAD, %rax
	movslq	-4(%rbp), %rcx
	vmovsd	(%rax,%rcx,8), %xmm0    # xmm0 = mem[0],zero
	movq	BUPFMAD, %rax
	movslq	-4(%rbp), %rcx
	vmovsd	%xmm0, (%rax,%rcx,8)
# %bb.35:                               # %for.inc70
                                        #   in Loop: Header=BB27_33 Depth=1
	movl	-4(%rbp), %eax
	addl	$1, %eax
	movl	%eax, -4(%rbp)
	jmp	.LBB27_33
.LBB27_36:                              # %for.end72
	jmp	.LBB27_37
.LBB27_37:                              # %if.end73
	jmp	.LBB27_38
.LBB27_38:                              # %if.end74
	movq	img, %rax
	cmpl	$1, 72568(%rax)
	jne	.LBB27_45
# %bb.39:                               # %if.then77
	movq	img, %rax
	cmpl	$1, 72576(%rax)
	jne	.LBB27_41
# %bb.40:                               # %if.then81
	vmovsd	CurrentBufferFullness, %xmm0 # xmm0 = mem[0],zero
	vmovsd	%xmm0, TargetBufferLevel
	vmovsd	CurrentBufferFullness, %xmm0 # xmm0 = mem[0],zero
	vsubsd	GOPTargetBufferLevel, %xmm0, %xmm0
	movl	TotalPFrame, %eax
	subl	$1, %eax
	vcvtsi2sd	%eax, %xmm0, %xmm1
	vdivsd	%xmm1, %xmm0, %xmm0
	vmovsd	%xmm0, DeltaP
	vmovsd	DeltaP, %xmm0           # xmm0 = mem[0],zero
	vmovsd	TargetBufferLevel, %xmm1 # xmm1 = mem[0],zero
	vsubsd	%xmm0, %xmm1, %xmm0
	vmovsd	%xmm0, TargetBufferLevel
	jmp	.LBB27_44
.LBB27_41:                              # %if.else87
	movq	img, %rax
	cmpl	$1, 72576(%rax)
	jle	.LBB27_43
# %bb.42:                               # %if.then91
	vmovsd	DeltaP, %xmm0           # xmm0 = mem[0],zero
	vmovsd	TargetBufferLevel, %xmm1 # xmm1 = mem[0],zero
	vsubsd	%xmm0, %xmm1, %xmm0
	vmovsd	%xmm0, TargetBufferLevel
.LBB27_43:                              # %if.end93
	jmp	.LBB27_44
.LBB27_44:                              # %if.end94
	jmp	.LBB27_53
.LBB27_45:                              # %if.else95
	movq	img, %rax
	cmpl	$1, 72568(%rax)
	jle	.LBB27_52
# %bb.46:                               # %if.then99
	movq	img, %rax
	cmpl	$0, 72576(%rax)
	jne	.LBB27_48
# %bb.47:                               # %if.then103
	vmovsd	CurrentBufferFullness, %xmm0 # xmm0 = mem[0],zero
	vmovsd	%xmm0, TargetBufferLevel
	vmovsd	CurrentBufferFullness, %xmm0 # xmm0 = mem[0],zero
	vsubsd	GOPTargetBufferLevel, %xmm0, %xmm0
	vcvtsi2sdl	TotalPFrame, %xmm0, %xmm1
	vdivsd	%xmm1, %xmm0, %xmm0
	vmovsd	%xmm0, DeltaP
	vmovsd	DeltaP, %xmm0           # xmm0 = mem[0],zero
	vmovsd	TargetBufferLevel, %xmm1 # xmm1 = mem[0],zero
	vsubsd	%xmm0, %xmm1, %xmm0
	vmovsd	%xmm0, TargetBufferLevel
	jmp	.LBB27_51
.LBB27_48:                              # %if.else108
	movq	img, %rax
	cmpl	$0, 72576(%rax)
	jle	.LBB27_50
# %bb.49:                               # %if.then112
	vmovsd	DeltaP, %xmm0           # xmm0 = mem[0],zero
	vmovsd	TargetBufferLevel, %xmm1 # xmm1 = mem[0],zero
	vsubsd	%xmm0, %xmm1, %xmm0
	vmovsd	%xmm0, TargetBufferLevel
.LBB27_50:                              # %if.end114
	jmp	.LBB27_51
.LBB27_51:                              # %if.end115
	jmp	.LBB27_52
.LBB27_52:                              # %if.end116
	jmp	.LBB27_53
.LBB27_53:                              # %if.end117
	jmp	.LBB27_54
.LBB27_54:                              # %if.end118
	movq	img, %rax
	cmpl	$1, 72564(%rax)
	jne	.LBB27_56
# %bb.55:                               # %if.then122
	vmovsd	Wp, %xmm0               # xmm0 = mem[0],zero
	vmovsd	%xmm0, AWp
.LBB27_56:                              # %if.end123
	movq	img, %rax
	cmpl	$8, 72564(%rax)
	jge	.LBB27_59
# %bb.57:                               # %land.lhs.true127
	movq	img, %rax
	cmpl	$1, 72564(%rax)
	jle	.LBB27_59
# %bb.58:                               # %if.then131
	vmovsd	Wp, %xmm0               # xmm0 = mem[0],zero
	movq	img, %rax
	movl	72564(%rax), %eax
	subl	$1, %eax
	vcvtsi2sd	%eax, %xmm0, %xmm1
	vmulsd	%xmm1, %xmm0, %xmm0
	movq	img, %rax
	vcvtsi2sdl	72564(%rax), %xmm0, %xmm1
	vdivsd	%xmm1, %xmm0, %xmm0
	vmovsd	AWp, %xmm1              # xmm1 = mem[0],zero
	movq	img, %rax
	vcvtsi2sdl	72564(%rax), %xmm0, %xmm2
	vdivsd	%xmm2, %xmm1, %xmm1
	vaddsd	%xmm1, %xmm0, %xmm0
	vmovsd	%xmm0, AWp
	jmp	.LBB27_62
.LBB27_59:                              # %if.else143
	movq	img, %rax
	cmpl	$1, 72564(%rax)
	jle	.LBB27_61
# %bb.60:                               # %if.then147
	vmovsd	.LCPI27_2(%rip), %xmm0  # xmm0 = mem[0],zero
	vmovsd	.LCPI27_3(%rip), %xmm1  # xmm1 = mem[0],zero
	vmovsd	Wp, %xmm2               # xmm2 = mem[0],zero
	vdivsd	%xmm0, %xmm2, %xmm2
	vmulsd	AWp, %xmm1, %xmm1
	vdivsd	%xmm0, %xmm1, %xmm0
	vaddsd	%xmm0, %xmm2, %xmm0
	vmovsd	%xmm0, AWp
.LBB27_61:                              # %if.end152
	jmp	.LBB27_62
.LBB27_62:                              # %if.end153
	movq	input, %rax
	cmpl	$0, 1236(%rax)
	jle	.LBB27_64
# %bb.63:                               # %if.then156
	vmovsd	AWp, %xmm0              # xmm0 = mem[0],zero
	movq	input, %rax
	movl	1236(%rax), %eax
	addl	$1, %eax
	vcvtsi2sd	%eax, %xmm0, %xmm1
	vmulsd	%xmm1, %xmm0, %xmm0
	vmulsd	bit_rate, %xmm0, %xmm0
	vmovsd	frame_rate, %xmm1       # xmm1 = mem[0],zero
	vmovsd	AWp, %xmm2              # xmm2 = mem[0],zero
	vmovsd	AWb, %xmm3              # xmm3 = mem[0],zero
	movq	input, %rax
	vcvtsi2sdl	1236(%rax), %xmm0, %xmm4
	vmulsd	%xmm4, %xmm3, %xmm3
	vaddsd	%xmm3, %xmm2, %xmm2
	vmulsd	%xmm2, %xmm1, %xmm1
	vdivsd	%xmm1, %xmm0, %xmm0
	vmovsd	bit_rate, %xmm1         # xmm1 = mem[0],zero
	vdivsd	frame_rate, %xmm1, %xmm1
	vsubsd	%xmm1, %xmm0, %xmm0
	vaddsd	TargetBufferLevel, %xmm0, %xmm0
	vmovsd	%xmm0, TargetBufferLevel
.LBB27_64:                              # %if.end171
	jmp	.LBB27_77
.LBB27_65:                              # %sw.bb172
	vmovsd	PreviousBit_Rate, %xmm0 # xmm0 = mem[0],zero
	vucomisd	bit_rate, %xmm0
	jne	.LBB27_66
	jp	.LBB27_66
	jmp	.LBB27_67
.LBB27_66:                              # %if.then175
	vmovsd	.LCPI27_1(%rip), %xmm0  # xmm0 = mem[0],zero
	vmovsd	bit_rate, %xmm1         # xmm1 = mem[0],zero
	vsubsd	PreviousBit_Rate, %xmm1, %xmm1
	movl	Np, %eax
	addl	Nb, %eax
	vcvtsi2sd	%eax, %xmm0, %xmm2
	vmulsd	%xmm2, %xmm1, %xmm1
	vdivsd	frame_rate, %xmm1, %xmm1
	vaddsd	%xmm0, %xmm1, %xmm0
	vroundsd	$9, %xmm0, %xmm0, %xmm0
	vcvttsd2si	%xmm0, %eax
	addl	R, %eax
	movl	%eax, R
.LBB27_67:                              # %if.end184
	movq	img, %rax
	cmpl	$1, 72564(%rax)
	jne	.LBB27_70
# %bb.68:                               # %land.lhs.true188
	movq	img, %rax
	cmpl	$1, 72560(%rax)
	jne	.LBB27_70
# %bb.69:                               # %if.then191
	vmovsd	Wp, %xmm0               # xmm0 = mem[0],zero
	vmovsd	%xmm0, AWp
	vmovsd	Wb, %xmm0               # xmm0 = mem[0],zero
	vmovsd	%xmm0, AWb
	jmp	.LBB27_76
.LBB27_70:                              # %if.else192
	movq	img, %rax
	cmpl	$1, 72560(%rax)
	jle	.LBB27_75
# %bb.71:                               # %if.then196
	movq	img, %rax
	cmpl	$8, 72560(%rax)
	jge	.LBB27_73
# %bb.72:                               # %if.then200
	vmovsd	Wb, %xmm0               # xmm0 = mem[0],zero
	movq	img, %rax
	movl	72560(%rax), %eax
	subl	$1, %eax
	vcvtsi2sd	%eax, %xmm0, %xmm1
	vmulsd	%xmm1, %xmm0, %xmm0
	movq	img, %rax
	vcvtsi2sdl	72560(%rax), %xmm0, %xmm1
	vdivsd	%xmm1, %xmm0, %xmm0
	vmovsd	AWb, %xmm1              # xmm1 = mem[0],zero
	movq	img, %rax
	vcvtsi2sdl	72560(%rax), %xmm0, %xmm2
	vdivsd	%xmm2, %xmm1, %xmm1
	vaddsd	%xmm1, %xmm0, %xmm0
	vmovsd	%xmm0, AWb
	jmp	.LBB27_74
.LBB27_73:                              # %if.else212
	vmovsd	.LCPI27_2(%rip), %xmm0  # xmm0 = mem[0],zero
	vmovsd	.LCPI27_3(%rip), %xmm1  # xmm1 = mem[0],zero
	vmovsd	Wb, %xmm2               # xmm2 = mem[0],zero
	vdivsd	%xmm0, %xmm2, %xmm2
	vmulsd	AWb, %xmm1, %xmm1
	vdivsd	%xmm0, %xmm1, %xmm0
	vaddsd	%xmm0, %xmm2, %xmm0
	vmovsd	%xmm0, AWb
.LBB27_74:                              # %if.end217
	jmp	.LBB27_75
.LBB27_75:                              # %if.end218
	jmp	.LBB27_76
.LBB27_76:                              # %if.end219
	jmp	.LBB27_77
.LBB27_77:                              # %sw.epilog
	movq	img, %rax
	cmpl	$0, 24(%rax)
	jne	.LBB27_110
# %bb.78:                               # %if.then223
	movq	img, %rax
	movl	72620(%rax), %eax
	movq	img, %rcx
	cmpl	72608(%rcx), %eax
	jne	.LBB27_85
# %bb.79:                               # %if.then228
	movq	img, %rax
	cmpl	$0, 72564(%rax)
	jle	.LBB27_84
# %bb.80:                               # %if.then232
	xorl	%eax, %eax
	vmovsd	.LCPI27_1(%rip), %xmm0  # xmm0 = mem[0],zero
	vmovsd	Wp, %xmm1               # xmm1 = mem[0],zero
	vcvtsi2sdl	R, %xmm0, %xmm2
	vmulsd	%xmm2, %xmm1, %xmm1
	vcvtsi2sdl	Np, %xmm0, %xmm2
	vmulsd	Wp, %xmm2, %xmm2
	vcvtsi2sdl	Nb, %xmm0, %xmm3
	vmulsd	Wb, %xmm3, %xmm3
	vaddsd	%xmm3, %xmm2, %xmm2
	vdivsd	%xmm2, %xmm1, %xmm1
	vaddsd	%xmm0, %xmm1, %xmm1
	vroundsd	$9, %xmm1, %xmm0, %xmm1
	vcvttsd2si	%xmm1, %rcx
	movq	%rcx, T
	vmovsd	bit_rate, %xmm1         # xmm1 = mem[0],zero
	vdivsd	frame_rate, %xmm1, %xmm1
	vmovsd	GAMMAP, %xmm2           # xmm2 = mem[0],zero
	vmovsd	CurrentBufferFullness, %xmm3 # xmm3 = mem[0],zero
	vsubsd	TargetBufferLevel, %xmm3, %xmm3
	vmulsd	%xmm3, %xmm2, %xmm2
	vsubsd	%xmm2, %xmm1, %xmm1
	vaddsd	%xmm0, %xmm1, %xmm0
	vroundsd	$9, %xmm0, %xmm0, %xmm0
	vcvttsd2si	%xmm0, %rcx
	movq	%rcx, T1
	cmpq	T1, %rax
	jge	.LBB27_82
# %bb.81:                               # %cond.true
	movq	T1, %rax
	jmp	.LBB27_83
.LBB27_82:                              # %cond.false
	xorl	%eax, %eax
	jmp	.LBB27_83
.LBB27_83:                              # %cond.end
	vmovsd	.LCPI27_1(%rip), %xmm0  # xmm0 = mem[0],zero
	vmovsd	.LCPI27_4(%rip), %xmm1  # xmm1 = mem[0],zero
	movq	%rax, T1
	vmovsd	BETAP, %xmm2            # xmm2 = mem[0],zero
	vcvtsi2sdq	T, %xmm0, %xmm3
	vmulsd	%xmm3, %xmm2, %xmm2
	vsubsd	BETAP, %xmm1, %xmm1
	vcvtsi2sdq	T1, %xmm0, %xmm3
	vmulsd	%xmm3, %xmm1, %xmm1
	vaddsd	%xmm1, %xmm2, %xmm1
	vaddsd	%xmm0, %xmm1, %xmm0
	vroundsd	$9, %xmm0, %xmm0, %xmm0
	vcvttsd2si	%xmm0, %rax
	movq	%rax, T
.LBB27_84:                              # %if.end259
	jmp	.LBB27_98
.LBB27_85:                              # %if.else260
	movq	img, %rax
	cmpl	$1, 72568(%rax)
	jne	.LBB27_91
# %bb.86:                               # %land.lhs.true264
	movq	img, %rax
	cmpl	$0, 72564(%rax)
	jle	.LBB27_91
# %bb.87:                               # %if.then268
	xorl	%eax, %eax
	vmovsd	.LCPI27_1(%rip), %xmm0  # xmm0 = mem[0],zero
	vmovsd	Wp, %xmm1               # xmm1 = mem[0],zero
	vcvtsi2sdl	R, %xmm0, %xmm2
	vmulsd	%xmm2, %xmm1, %xmm1
	vcvtsi2sdl	Np, %xmm0, %xmm2
	vmulsd	Wp, %xmm2, %xmm2
	vcvtsi2sdl	Nb, %xmm0, %xmm3
	vmulsd	Wb, %xmm3, %xmm3
	vaddsd	%xmm3, %xmm2, %xmm2
	vdivsd	%xmm2, %xmm1, %xmm1
	vaddsd	%xmm0, %xmm1, %xmm1
	vroundsd	$9, %xmm1, %xmm0, %xmm1
	vcvttsd2si	%xmm1, %ecx
	movslq	%ecx, %rcx
	movq	%rcx, T
	vmovsd	bit_rate, %xmm1         # xmm1 = mem[0],zero
	vdivsd	frame_rate, %xmm1, %xmm1
	vmovsd	GAMMAP, %xmm2           # xmm2 = mem[0],zero
	vmovsd	CurrentBufferFullness, %xmm3 # xmm3 = mem[0],zero
	vsubsd	TargetBufferLevel, %xmm3, %xmm3
	vmulsd	%xmm3, %xmm2, %xmm2
	vsubsd	%xmm2, %xmm1, %xmm1
	vaddsd	%xmm0, %xmm1, %xmm0
	vroundsd	$9, %xmm0, %xmm0, %xmm0
	vcvttsd2si	%xmm0, %ecx
	movslq	%ecx, %rcx
	movq	%rcx, T1
	cmpq	T1, %rax
	jge	.LBB27_89
# %bb.88:                               # %cond.true289
	movq	T1, %rax
	jmp	.LBB27_90
.LBB27_89:                              # %cond.false290
	xorl	%eax, %eax
	jmp	.LBB27_90
.LBB27_90:                              # %cond.end291
	vmovsd	.LCPI27_1(%rip), %xmm0  # xmm0 = mem[0],zero
	vmovsd	.LCPI27_4(%rip), %xmm1  # xmm1 = mem[0],zero
	movq	%rax, T1
	vmovsd	BETAP, %xmm2            # xmm2 = mem[0],zero
	vcvtsi2sdq	T, %xmm0, %xmm3
	vmulsd	%xmm3, %xmm2, %xmm2
	vsubsd	BETAP, %xmm1, %xmm1
	vcvtsi2sdq	T1, %xmm0, %xmm3
	vmulsd	%xmm3, %xmm1, %xmm1
	vaddsd	%xmm1, %xmm2, %xmm1
	vaddsd	%xmm0, %xmm1, %xmm0
	vroundsd	$9, %xmm0, %xmm0, %xmm0
	vcvttsd2si	%xmm0, %eax
	cltq
	movq	%rax, T
	jmp	.LBB27_97
.LBB27_91:                              # %if.else302
	movq	img, %rax
	cmpl	$1, 72568(%rax)
	jle	.LBB27_96
# %bb.92:                               # %if.then306
	xorl	%eax, %eax
	vmovsd	.LCPI27_1(%rip), %xmm0  # xmm0 = mem[0],zero
	vmovsd	Wp, %xmm1               # xmm1 = mem[0],zero
	vcvtsi2sdl	R, %xmm0, %xmm2
	vmulsd	%xmm2, %xmm1, %xmm1
	vcvtsi2sdl	Np, %xmm0, %xmm2
	vmulsd	Wp, %xmm2, %xmm2
	vcvtsi2sdl	Nb, %xmm0, %xmm3
	vmulsd	Wb, %xmm3, %xmm3
	vaddsd	%xmm3, %xmm2, %xmm2
	vdivsd	%xmm2, %xmm1, %xmm1
	vaddsd	%xmm0, %xmm1, %xmm1
	vroundsd	$9, %xmm1, %xmm0, %xmm1
	vcvttsd2si	%xmm1, %rcx
	movq	%rcx, T
	vmovsd	bit_rate, %xmm1         # xmm1 = mem[0],zero
	vdivsd	frame_rate, %xmm1, %xmm1
	vmovsd	GAMMAP, %xmm2           # xmm2 = mem[0],zero
	vmovsd	CurrentBufferFullness, %xmm3 # xmm3 = mem[0],zero
	vsubsd	TargetBufferLevel, %xmm3, %xmm3
	vmulsd	%xmm3, %xmm2, %xmm2
	vsubsd	%xmm2, %xmm1, %xmm1
	vaddsd	%xmm0, %xmm1, %xmm0
	vroundsd	$9, %xmm0, %xmm0, %xmm0
	vcvttsd2si	%xmm0, %rcx
	movq	%rcx, T1
	cmpq	T1, %rax
	jge	.LBB27_94
# %bb.93:                               # %cond.true325
	movq	T1, %rax
	jmp	.LBB27_95
.LBB27_94:                              # %cond.false326
	xorl	%eax, %eax
	jmp	.LBB27_95
.LBB27_95:                              # %cond.end327
	vmovsd	.LCPI27_1(%rip), %xmm0  # xmm0 = mem[0],zero
	vmovsd	.LCPI27_4(%rip), %xmm1  # xmm1 = mem[0],zero
	movq	%rax, T1
	vmovsd	BETAP, %xmm2            # xmm2 = mem[0],zero
	vcvtsi2sdq	T, %xmm0, %xmm3
	vmulsd	%xmm3, %xmm2, %xmm2
	vsubsd	BETAP, %xmm1, %xmm1
	vcvtsi2sdq	T1, %xmm0, %xmm3
	vmulsd	%xmm3, %xmm1, %xmm1
	vaddsd	%xmm1, %xmm2, %xmm1
	vaddsd	%xmm0, %xmm1, %xmm0
	vroundsd	$9, %xmm0, %xmm0, %xmm0
	vcvttsd2si	%xmm0, %rax
	movq	%rax, T
.LBB27_96:                              # %if.end337
	jmp	.LBB27_97
.LBB27_97:                              # %if.end338
	jmp	.LBB27_98
.LBB27_98:                              # %if.end339
	vmovsd	.LCPI27_4(%rip), %xmm0  # xmm0 = mem[0],zero
	movq	input, %rax
	vcvtsi2sdl	1236(%rax), %xmm0, %xmm1
	vxorps	%xmm2, %xmm2, %xmm2
	vmulsd	%xmm1, %xmm2, %xmm1
	vsubsd	%xmm1, %xmm0, %xmm0
	vcvtsi2sdq	T, %xmm0, %xmm1
	vmulsd	%xmm1, %xmm0, %xmm0
	vcvttsd2si	%xmm0, %rax
	movq	%rax, T
	movq	T, %rax
	cmpq	LowerBound, %rax
	jge	.LBB27_100
# %bb.99:                               # %cond.true349
	movq	LowerBound, %rax
	jmp	.LBB27_101
.LBB27_100:                             # %cond.false350
	movq	T, %rax
.LBB27_101:                             # %cond.end351
	movq	%rax, T
	movq	T, %rax
	cmpq	UpperBound2, %rax
	jge	.LBB27_103
# %bb.102:                              # %cond.true355
	movq	T, %rax
	jmp	.LBB27_104
.LBB27_103:                             # %cond.false356
	movq	UpperBound2, %rax
.LBB27_104:                             # %cond.end357
	movq	%rax, T
	cmpl	$0, -8(%rbp)
	jne	.LBB27_108
# %bb.105:                              # %lor.lhs.false360
	cmpl	$0, -12(%rbp)
	je	.LBB27_109
# %bb.106:                              # %land.lhs.true362
	movq	input, %rax
	cmpl	$2, 2880(%rax)
	je	.LBB27_108
# %bb.107:                              # %lor.lhs.false366
	movq	input, %rax
	cmpl	$0, 2884(%rax)
	je	.LBB27_109
.LBB27_108:                             # %if.then369
	movq	T, %rax
	movl	%eax, T_field
.LBB27_109:                             # %if.end371
	jmp	.LBB27_110
.LBB27_110:                             # %if.end372
	jmp	.LBB27_111
.LBB27_111:                             # %if.end373
	cmpl	$0, -12(%rbp)
	jne	.LBB27_113
# %bb.112:                              # %lor.lhs.false375
	cmpl	$0, -8(%rbp)
	je	.LBB27_119
.LBB27_113:                             # %if.then377
	movq	img, %rax
	movl	$0, 72524(%rax)
	movq	img, %rax
	movl	$0, 72528(%rax)
	movq	img, %rax
	movl	72620(%rax), %eax
	movq	img, %rcx
	cmpl	72608(%rcx), %eax
	jge	.LBB27_118
# %bb.114:                              # %if.then382
	movl	$0, TotalFrameQP
	movq	img, %rax
	movl	$0, 72532(%rax)
	movq	img, %rax
	movl	$0, 72536(%rax)
	movq	img, %rax
	vxorps	%xmm0, %xmm0, %xmm0
	vmovsd	%xmm0, 72544(%rax)
	movq	img, %rax
	cmpl	$0, 72600(%rax)
	jne	.LBB27_116
# %bb.115:                              # %if.then386
	movl	TotalNumberofBasicUnit, %eax
	movl	%eax, NumberofBasicUnit
	jmp	.LBB27_117
.LBB27_116:                             # %if.else387
	movl	TotalNumberofBasicUnit, %eax
	cltd
	movl	$2, %ecx
	idivl	%ecx
	movl	%eax, NumberofBasicUnit
.LBB27_117:                             # %if.end389
	jmp	.LBB27_118
.LBB27_118:                             # %if.end390
	jmp	.LBB27_119
.LBB27_119:                             # %if.end391
	movq	img, %rax
	cmpl	$0, 24(%rax)
	jne	.LBB27_126
# %bb.120:                              # %land.lhs.true395
	movq	img, %rax
	movl	72620(%rax), %eax
	movq	img, %rcx
	cmpl	72608(%rcx), %eax
	jge	.LBB27_126
# %bb.121:                              # %land.lhs.true400
	movq	img, %rax
	cmpl	$1, 72600(%rax)
	jne	.LBB27_126
# %bb.122:                              # %if.then404
	cmpl	$0, -8(%rbp)
	je	.LBB27_124
# %bb.123:                              # %if.then406
	vmovsd	.LCPI27_5(%rip), %xmm0  # xmm0 = mem[0],zero
	movl	$0, bits_topfield
	vcvtsi2sdl	T_field, %xmm0, %xmm1
	vmulsd	%xmm0, %xmm1, %xmm0
	vcvttsd2si	%xmm0, %rax
	movq	%rax, T
	jmp	.LBB27_125
.LBB27_124:                             # %if.else410
	movl	T_field, %eax
	subl	bits_topfield, %eax
	cltq
	movq	%rax, T
	movq	img, %rax
	movl	$0, 72532(%rax)
	movq	img, %rax
	movl	$0, 72536(%rax)
	movq	img, %rax
	vxorps	%xmm0, %xmm0, %xmm0
	vmovsd	%xmm0, 72544(%rax)
	movl	TotalNumberofBasicUnit, %eax
	cltd
	movl	$2, %ecx
	idivl	%ecx
	movl	%eax, NumberofBasicUnit
.LBB27_125:                             # %if.end417
	jmp	.LBB27_126
.LBB27_126:                             # %if.end418
	cmpl	$706481803, -20(%rbp)   # imm = 0x2A1C0E8B
	jne	.LBB27_128
.LBB27_127:
	addq	$32, %rsp
	popq	%rbp
	.cfi_def_cfa %rsp, 8
	retq
.LBB27_128:                             # %func_exit
	.cfi_def_cfa %rbp, 16
	callq	detect_breach
	jmp	.LBB27_127
.Lfunc_end27:
	.size	rc_init_pict.11, .Lfunc_end27-rc_init_pict.11
	.cfi_endproc
                                        # -- End function
	.section	.rodata.cst8,"aM",@progbits,8
	.p2align	3               # -- Begin function updateMADModel.12
.LCPI28_0:
	.quad	4626322717216342016     # double 20
	.section	.rodata.cst16,"aM",@progbits,16
	.p2align	4
.LCPI28_1:
	.quad	9223372036854775807     # double NaN
	.quad	9223372036854775807     # double NaN
	.text
	.globl	updateMADModel.12
	.p2align	4, 0x90
	.type	updateMADModel.12,@function
updateMADModel.12:                      # @updateMADModel.12
	.cfi_startproc
# %bb.0:                                # %entry
	pushq	%rbp
	.cfi_def_cfa_offset 16
	.cfi_offset %rbp, -16
	movq	%rsp, %rbp
	.cfi_def_cfa_register %rbp
	subq	$208, %rsp
	movl	$549614878, -28(%rbp)   # imm = 0x20C2751E
	vxorps	%xmm0, %xmm0, %xmm0
	vmovsd	%xmm0, -24(%rbp)
	movq	img, %rax
	cmpl	$0, 72564(%rax)
	jle	.LBB28_51
# %bb.1:                                # %if.then
	movq	img, %rax
	movl	72620(%rax), %eax
	movq	img, %rcx
	cmpl	72608(%rcx), %eax
	jne	.LBB28_3
# %bb.2:                                # %if.then2
	movq	img, %rax
	movl	72564(%rax), %eax
	movl	%eax, -12(%rbp)
	jmp	.LBB28_4
.LBB28_3:                               # %if.else
	movq	img, %rax
	movl	72564(%rax), %eax
	imull	TotalNumberofBasicUnit, %eax
	addl	CodedBasicUnit, %eax
	movl	%eax, -12(%rbp)
.LBB28_4:                               # %if.end
	movl	$19, -4(%rbp)
.LBB28_5:                               # %for.cond
                                        # =>This Inner Loop Header: Depth=1
	cmpl	$0, -4(%rbp)
	jle	.LBB28_8
# %bb.6:                                # %for.body
                                        #   in Loop: Header=BB28_5 Depth=1
	movl	-4(%rbp), %eax
	subl	$1, %eax
	cltq
	vmovsd	PPictureMAD(,%rax,8), %xmm0 # xmm0 = mem[0],zero
	movslq	-4(%rbp), %rax
	vmovsd	%xmm0, PPictureMAD(,%rax,8)
	movslq	-4(%rbp), %rax
	vmovsd	PPictureMAD(,%rax,8), %xmm0 # xmm0 = mem[0],zero
	movslq	-4(%rbp), %rax
	vmovsd	%xmm0, PictureMAD(,%rax,8)
	movl	-4(%rbp), %eax
	subl	$1, %eax
	cltq
	vmovsd	ReferenceMAD(,%rax,8), %xmm0 # xmm0 = mem[0],zero
	movslq	-4(%rbp), %rax
	vmovsd	%xmm0, ReferenceMAD(,%rax,8)
# %bb.7:                                # %for.inc
                                        #   in Loop: Header=BB28_5 Depth=1
	movl	-4(%rbp), %eax
	addl	$-1, %eax
	movl	%eax, -4(%rbp)
	jmp	.LBB28_5
.LBB28_8:                               # %for.end
	vmovsd	CurrentFrameMAD, %xmm0  # xmm0 = mem[0],zero
	vmovsd	%xmm0, PPictureMAD
	vmovsd	PPictureMAD, %xmm0      # xmm0 = mem[0],zero
	vmovsd	%xmm0, PictureMAD
	movq	img, %rax
	movl	72620(%rax), %eax
	movq	img, %rcx
	cmpl	72608(%rcx), %eax
	jne	.LBB28_10
# %bb.9:                                # %if.then20
	vmovsd	PictureMAD+8, %xmm0     # xmm0 = mem[0],zero
	vmovsd	%xmm0, ReferenceMAD
	jmp	.LBB28_16
.LBB28_10:                              # %if.else21
	movq	input, %rax
	cmpl	$2, 2880(%rax)
	je	.LBB28_12
# %bb.11:                               # %lor.lhs.false
	movq	input, %rax
	cmpl	$0, 2884(%rax)
	je	.LBB28_14
.LBB28_12:                              # %land.lhs.true
	movq	img, %rax
	cmpl	$1, 72600(%rax)
	jne	.LBB28_14
# %bb.13:                               # %if.then24
	movq	FCBUPFMAD, %rax
	movl	TotalNumberofBasicUnit, %ecx
	subl	$1, %ecx
	subl	NumberofBasicUnit, %ecx
	movslq	%ecx, %rcx
	vmovsd	(%rax,%rcx,8), %xmm0    # xmm0 = mem[0],zero
	vmovsd	%xmm0, ReferenceMAD
	jmp	.LBB28_15
.LBB28_14:                              # %if.else29
	movq	BUPFMAD, %rax
	movl	TotalNumberofBasicUnit, %ecx
	subl	$1, %ecx
	subl	NumberofBasicUnit, %ecx
	movslq	%ecx, %rcx
	vmovsd	(%rax,%rcx,8), %xmm0    # xmm0 = mem[0],zero
	vmovsd	%xmm0, ReferenceMAD
.LBB28_15:                              # %if.end34
	jmp	.LBB28_16
.LBB28_16:                              # %if.end35
	vmovsd	PMADPictureC1, %xmm0    # xmm0 = mem[0],zero
	vmovsd	%xmm0, MADPictureC1
	vmovsd	PMADPictureC2, %xmm0    # xmm0 = mem[0],zero
	vmovsd	%xmm0, MADPictureC2
	vmovsd	CurrentFrameMAD, %xmm0  # xmm0 = mem[0],zero
	vucomisd	PreviousFrameMAD, %xmm0
	jbe	.LBB28_18
# %bb.17:                               # %cond.true
	vmovsd	.LCPI28_0(%rip), %xmm0  # xmm0 = mem[0],zero
	vmovsd	PreviousFrameMAD, %xmm1 # xmm1 = mem[0],zero
	vdivsd	CurrentFrameMAD, %xmm1, %xmm1
	vmulsd	%xmm0, %xmm1, %xmm0
	vcvttsd2si	%xmm0, %eax
	jmp	.LBB28_19
.LBB28_18:                              # %cond.false
	vmovsd	.LCPI28_0(%rip), %xmm0  # xmm0 = mem[0],zero
	vmovsd	CurrentFrameMAD, %xmm1  # xmm1 = mem[0],zero
	vdivsd	PreviousFrameMAD, %xmm1, %xmm1
	vmulsd	%xmm0, %xmm1, %xmm0
	vcvttsd2si	%xmm0, %eax
.LBB28_19:                              # %cond.end
	movl	%eax, -8(%rbp)
	movl	-8(%rbp), %eax
	movl	-12(%rbp), %ecx
	subl	$1, %ecx
	cmpl	%ecx, %eax
	jge	.LBB28_21
# %bb.20:                               # %cond.true44
	movl	-8(%rbp), %eax
	jmp	.LBB28_22
.LBB28_21:                              # %cond.false45
	movl	-12(%rbp), %eax
	subl	$1, %eax
.LBB28_22:                              # %cond.end47
	movl	%eax, -8(%rbp)
	cmpl	$1, -8(%rbp)
	jge	.LBB28_24
# %bb.23:                               # %cond.true51
	movl	$1, %eax
	jmp	.LBB28_25
.LBB28_24:                              # %cond.false52
	movl	-8(%rbp), %eax
.LBB28_25:                              # %cond.end53
	movl	%eax, -8(%rbp)
	movl	-8(%rbp), %eax
	movl	MADm_windowSize, %ecx
	addl	$1, %ecx
	cmpl	%ecx, %eax
	jge	.LBB28_27
# %bb.26:                               # %cond.true58
	movl	-8(%rbp), %eax
	jmp	.LBB28_28
.LBB28_27:                              # %cond.false59
	movl	MADm_windowSize, %eax
	addl	$1, %eax
.LBB28_28:                              # %cond.end61
	movl	%eax, -8(%rbp)
	movl	$20, %eax
	cmpl	-8(%rbp), %eax
	jge	.LBB28_30
# %bb.29:                               # %cond.true65
	movl	$20, %eax
	jmp	.LBB28_31
.LBB28_30:                              # %cond.false66
	movl	-8(%rbp), %eax
.LBB28_31:                              # %cond.end67
	movl	%eax, -8(%rbp)
	movl	-8(%rbp), %eax
	movl	%eax, MADm_windowSize
	movl	$0, -4(%rbp)
.LBB28_32:                              # %for.cond69
                                        # =>This Inner Loop Header: Depth=1
	cmpl	$20, -4(%rbp)
	jge	.LBB28_35
# %bb.33:                               # %for.body72
                                        #   in Loop: Header=BB28_32 Depth=1
	movslq	-4(%rbp), %rax
	movl	$0, PictureRejected(,%rax,4)
# %bb.34:                               # %for.inc75
                                        #   in Loop: Header=BB28_32 Depth=1
	movl	-4(%rbp), %eax
	addl	$1, %eax
	movl	%eax, -4(%rbp)
	jmp	.LBB28_32
.LBB28_35:                              # %for.end76
	movq	img, %rax
	cmpl	$0, 24(%rax)
	jne	.LBB28_37
# %bb.36:                               # %if.then79
	vmovsd	CurrentFrameMAD, %xmm0  # xmm0 = mem[0],zero
	vmovsd	%xmm0, PreviousFrameMAD
.LBB28_37:                              # %if.end80
	movl	-8(%rbp), %edi
	callq	MADModelEstimator
	movl	$0, -4(%rbp)
.LBB28_38:                              # %for.cond81
                                        # =>This Inner Loop Header: Depth=1
	movl	-4(%rbp), %eax
	cmpl	-8(%rbp), %eax
	jge	.LBB28_41
# %bb.39:                               # %for.body84
                                        #   in Loop: Header=BB28_38 Depth=1
	vmovsd	MADPictureC1, %xmm0     # xmm0 = mem[0],zero
	movslq	-4(%rbp), %rax
	vmulsd	ReferenceMAD(,%rax,8), %xmm0, %xmm0
	vaddsd	MADPictureC2, %xmm0, %xmm0
	movslq	-4(%rbp), %rax
	vsubsd	PictureMAD(,%rax,8), %xmm0, %xmm0
	movslq	-4(%rbp), %rax
	vmovsd	%xmm0, -208(%rbp,%rax,8)
	movslq	-4(%rbp), %rax
	vmovsd	-208(%rbp,%rax,8), %xmm0 # xmm0 = mem[0],zero
	movslq	-4(%rbp), %rax
	vmulsd	-208(%rbp,%rax,8), %xmm0, %xmm0
	vaddsd	-24(%rbp), %xmm0, %xmm0
	vmovsd	%xmm0, -24(%rbp)
# %bb.40:                               # %for.inc100
                                        #   in Loop: Header=BB28_38 Depth=1
	movl	-4(%rbp), %eax
	addl	$1, %eax
	movl	%eax, -4(%rbp)
	jmp	.LBB28_38
.LBB28_41:                              # %for.end102
	cmpl	$2, -8(%rbp)
	jne	.LBB28_43
# %bb.42:                               # %cond.true105
	vxorps	%xmm0, %xmm0, %xmm0
	jmp	.LBB28_44
.LBB28_43:                              # %cond.false106
	vmovsd	-24(%rbp), %xmm0        # xmm0 = mem[0],zero
	vcvtsi2sdl	-8(%rbp), %xmm0, %xmm1
	vdivsd	%xmm1, %xmm0, %xmm0
	callq	sqrt
.LBB28_44:                              # %cond.end109
	vmovsd	%xmm0, -40(%rbp)
	movl	$0, -4(%rbp)
.LBB28_45:                              # %for.cond111
                                        # =>This Inner Loop Header: Depth=1
	movl	-4(%rbp), %eax
	cmpl	-8(%rbp), %eax
	jge	.LBB28_50
# %bb.46:                               # %for.body114
                                        #   in Loop: Header=BB28_45 Depth=1
	movslq	-4(%rbp), %rax
	vmovsd	-208(%rbp,%rax,8), %xmm0 # xmm0 = mem[0],zero
	vmovdqa	.LCPI28_1(%rip), %xmm1  # xmm1 = [NaN,NaN]
	vpand	%xmm1, %xmm0, %xmm0
	vucomisd	-40(%rbp), %xmm0
	jbe	.LBB28_48
# %bb.47:                               # %if.then119
                                        #   in Loop: Header=BB28_45 Depth=1
	movslq	-4(%rbp), %rax
	movl	$1, PictureRejected(,%rax,4)
.LBB28_48:                              # %if.end122
                                        #   in Loop: Header=BB28_45 Depth=1
	jmp	.LBB28_49
.LBB28_49:                              # %for.inc123
                                        #   in Loop: Header=BB28_45 Depth=1
	movl	-4(%rbp), %eax
	addl	$1, %eax
	movl	%eax, -4(%rbp)
	jmp	.LBB28_45
.LBB28_50:                              # %for.end125
	movl	$0, PictureRejected
	movl	-8(%rbp), %edi
	callq	MADModelEstimator
.LBB28_51:                              # %if.end126
	cmpl	$549614878, -28(%rbp)   # imm = 0x20C2751E
	jne	.LBB28_53
.LBB28_52:
	addq	$208, %rsp
	popq	%rbp
	.cfi_def_cfa %rsp, 8
	retq
.LBB28_53:                              # %func_exit
	.cfi_def_cfa %rbp, 16
	callq	detect_breach
	jmp	.LBB28_52
.Lfunc_end28:
	.size	updateMADModel.12, .Lfunc_end28-updateMADModel.12
	.cfi_endproc
                                        # -- End function
	.section	.rodata.cst8,"aM",@progbits,8
	.p2align	3               # -- Begin function rc_init_GOP.13
.LCPI29_0:
	.quad	4602678819172646912     # double 0.5
.LCPI29_1:
	.quad	4624633867356078080     # double 15
.LCPI29_2:
	.quad	4607182418800017408     # double 1
	.text
	.globl	rc_init_GOP.13
	.p2align	4, 0x90
	.type	rc_init_GOP.13,@function
rc_init_GOP.13:                         # @rc_init_GOP.13
	.cfi_startproc
# %bb.0:                                # %entry
	pushq	%rbp
	.cfi_def_cfa_offset 16
	.cfi_offset %rbp, -16
	movq	%rsp, %rbp
	.cfi_def_cfa_register %rbp
	subq	$32, %rsp
	movl	$831223668, -28(%rbp)   # imm = 0x318B7774
	movl	%edi, -4(%rbp)
	movl	%esi, -12(%rbp)
	movl	$0, -24(%rbp)
	cmpl	$0, R
	jge	.LBB29_2
# %bb.1:                                # %if.then
	movl	$1, -24(%rbp)
.LBB29_2:                               # %if.end
	vmovsd	.LCPI29_0(%rip), %xmm0  # xmm0 = mem[0],zero
	xorl	%eax, %eax
	subl	R, %eax
	movl	%eax, -20(%rbp)
	vcvtsi2sdl	R, %xmm0, %xmm1
	vmovsd	bit_rate, %xmm2         # xmm2 = mem[0],zero
	vdivsd	frame_rate, %xmm2, %xmm2
	vaddsd	%xmm2, %xmm1, %xmm1
	vcvttsd2si	%xmm1, %rax
	movq	%rax, LowerBound
	vcvtsi2sdl	R, %xmm0, %xmm1
	vaddsd	InitialDelayOffset, %xmm1, %xmm1
	vcvttsd2si	%xmm1, %rax
	movq	%rax, UpperBound1
	movl	-4(%rbp), %eax
	addl	$1, %eax
	addl	-12(%rbp), %eax
	vcvtsi2sd	%eax, %xmm0, %xmm1
	vmulsd	bit_rate, %xmm1, %xmm1
	vdivsd	frame_rate, %xmm1, %xmm1
	vaddsd	%xmm0, %xmm1, %xmm1
	vroundsd	$9, %xmm1, %xmm0, %xmm1
	vcvttsd2si	%xmm1, %eax
	movl	%eax, -16(%rbp)
	movl	-16(%rbp), %eax
	addl	R, %eax
	movl	%eax, R
	movl	-4(%rbp), %eax
	movl	%eax, Np
	movl	-12(%rbp), %eax
	movl	%eax, Nb
	movl	-20(%rbp), %eax
	shll	$3, %eax
	cltd
	idivl	-16(%rbp)
	vcvtsi2sd	%eax, %xmm0, %xmm1
	vaddsd	%xmm0, %xmm1, %xmm0
	vcvttsd2si	%xmm0, %eax
	movl	%eax, -32(%rbp)
	movl	$0, GOPOverdue
	movq	img, %rax
	movl	$1, 72612(%rax)
	movl	-4(%rbp), %eax
	movl	%eax, TotalPFrame
	movq	img, %rax
	movl	72568(%rax), %ecx
	addl	$1, %ecx
	movl	%ecx, 72568(%rax)
	movq	img, %rax
	cmpl	$1, 72568(%rax)
	jne	.LBB29_4
# %bb.3:                                # %if.then20
	movq	input, %rax
	movl	3244(%rax), %eax
	movl	%eax, MyInitialQp
	movl	MyInitialQp, %eax
	subl	$1, %eax
	movl	%eax, PreviousQp2
	movl	MyInitialQp, %eax
	movl	%eax, QPLastGOP
	jmp	.LBB29_27
.LBB29_4:                               # %if.else
	movq	input, %rax
	cmpl	$2, 2880(%rax)
	je	.LBB29_6
# %bb.5:                                # %lor.lhs.false
	movq	input, %rax
	cmpl	$0, 2884(%rax)
	je	.LBB29_10
.LBB29_6:                               # %if.then24
	movq	img, %rax
	cmpl	$1, 72604(%rax)
	jne	.LBB29_8
# %bb.7:                                # %if.then27
	movl	FrameQPBuffer, %eax
	movq	img, %rcx
	addl	72572(%rcx), %eax
	movl	%eax, 72572(%rcx)
	movl	FrameQPBuffer, %eax
	movl	%eax, QPLastPFrame
	jmp	.LBB29_9
.LBB29_8:                               # %if.else29
	movl	FieldQPBuffer, %eax
	movq	img, %rcx
	addl	72572(%rcx), %eax
	movl	%eax, 72572(%rcx)
	movl	FieldQPBuffer, %eax
	movl	%eax, QPLastPFrame
.LBB29_9:                               # %if.end32
	jmp	.LBB29_10
.LBB29_10:                              # %if.end33
	vmovsd	.LCPI29_0(%rip), %xmm0  # xmm0 = mem[0],zero
	vmovsd	.LCPI29_1(%rip), %xmm1  # xmm1 = mem[0],zero
	vmovsd	.LCPI29_2(%rip), %xmm2  # xmm2 = mem[0],zero
	movq	img, %rax
	vcvtsi2sdl	72572(%rax), %xmm0, %xmm3
	vmulsd	%xmm3, %xmm2, %xmm3
	movq	img, %rax
	vcvtsi2sdl	72576(%rax), %xmm0, %xmm4
	vdivsd	%xmm4, %xmm3, %xmm3
	vaddsd	%xmm0, %xmm3, %xmm3
	vcvttsd2si	%xmm3, %eax
	movl	%eax, PAverageQp
	movl	-4(%rbp), %eax
	addl	-12(%rbp), %eax
	addl	$1, %eax
	vcvtsi2sd	%eax, %xmm0, %xmm3
	vmulsd	%xmm3, %xmm2, %xmm2
	vdivsd	%xmm1, %xmm2, %xmm1
	vaddsd	%xmm1, %xmm0, %xmm0
	vcvttsd2si	%xmm0, %eax
	movl	%eax, -8(%rbp)
	cmpl	$2, -8(%rbp)
	jle	.LBB29_12
# %bb.11:                               # %if.then50
	movl	$2, -8(%rbp)
.LBB29_12:                              # %if.end51
	movl	-8(%rbp), %eax
	movl	PAverageQp, %ecx
	subl	%eax, %ecx
	movl	%ecx, PAverageQp
	movl	PAverageQp, %eax
	movl	QPLastPFrame, %ecx
	subl	$2, %ecx
	cmpl	%ecx, %eax
	jle	.LBB29_14
# %bb.13:                               # %if.then56
	movl	PAverageQp, %eax
	addl	$-1, %eax
	movl	%eax, PAverageQp
.LBB29_14:                              # %if.end57
	movl	QPLastGOP, %eax
	subl	$2, %eax
	cmpl	PAverageQp, %eax
	jge	.LBB29_16
# %bb.15:                               # %cond.true
	movl	PAverageQp, %eax
	jmp	.LBB29_17
.LBB29_16:                              # %cond.false
	movl	QPLastGOP, %eax
	subl	$2, %eax
.LBB29_17:                              # %cond.end
	movl	%eax, PAverageQp
	movl	QPLastGOP, %eax
	addl	$2, %eax
	cmpl	PAverageQp, %eax
	jge	.LBB29_19
# %bb.18:                               # %cond.true65
	movl	QPLastGOP, %eax
	addl	$2, %eax
	jmp	.LBB29_20
.LBB29_19:                              # %cond.false67
	movl	PAverageQp, %eax
.LBB29_20:                              # %cond.end68
	movl	%eax, PAverageQp
	movl	RC_MAX_QUANT, %eax
	cmpl	PAverageQp, %eax
	jge	.LBB29_22
# %bb.21:                               # %cond.true72
	movl	RC_MAX_QUANT, %eax
	jmp	.LBB29_23
.LBB29_22:                              # %cond.false73
	movl	PAverageQp, %eax
.LBB29_23:                              # %cond.end74
	movl	%eax, PAverageQp
	movl	RC_MIN_QUANT, %eax
	cmpl	PAverageQp, %eax
	jge	.LBB29_25
# %bb.24:                               # %cond.true78
	movl	PAverageQp, %eax
	jmp	.LBB29_26
.LBB29_25:                              # %cond.false79
	movl	RC_MIN_QUANT, %eax
.LBB29_26:                              # %cond.end80
	movl	%eax, PAverageQp
	movl	PAverageQp, %eax
	movl	%eax, MyInitialQp
	movl	MyInitialQp, %eax
	movl	%eax, QPLastGOP
	movl	PAverageQp, %eax
	movl	%eax, Pm_Qp
	movl	PAverageQp, %eax
	movl	%eax, PAveFrameQP
	movl	PreviousQp2, %eax
	movl	%eax, PreviousQp1
	movl	MyInitialQp, %eax
	subl	$1, %eax
	movl	%eax, PreviousQp2
.LBB29_27:                              # %if.end83
	movq	img, %rax
	movl	$0, 72572(%rax)
	movq	img, %rax
	movl	$0, 72576(%rax)
	movl	$0, NumberofBFrames
	cmpl	$831223668, -28(%rbp)   # imm = 0x318B7774
	jne	.LBB29_29
.LBB29_28:
	addq	$32, %rsp
	popq	%rbp
	.cfi_def_cfa %rsp, 8
	retq
.LBB29_29:                              # %func_exit
	.cfi_def_cfa %rbp, 16
	callq	detect_breach
	jmp	.LBB29_28
.Lfunc_end29:
	.size	rc_init_GOP.13, .Lfunc_end29-rc_init_GOP.13
	.cfi_endproc
                                        # -- End function
	.section	.rodata.cst8,"aM",@progbits,8
	.p2align	3               # -- Begin function rc_init_GOP.14
.LCPI30_0:
	.quad	4602678819172646912     # double 0.5
.LCPI30_1:
	.quad	4624633867356078080     # double 15
.LCPI30_2:
	.quad	4607182418800017408     # double 1
	.text
	.globl	rc_init_GOP.14
	.p2align	4, 0x90
	.type	rc_init_GOP.14,@function
rc_init_GOP.14:                         # @rc_init_GOP.14
	.cfi_startproc
# %bb.0:                                # %entry
	pushq	%rbp
	.cfi_def_cfa_offset 16
	.cfi_offset %rbp, -16
	movq	%rsp, %rbp
	.cfi_def_cfa_register %rbp
	subq	$32, %rsp
	movl	$766731690, -28(%rbp)   # imm = 0x2DB365AA
	movl	%edi, -4(%rbp)
	movl	%esi, -12(%rbp)
	movl	$0, -24(%rbp)
	cmpl	$0, R
	jge	.LBB30_2
# %bb.1:                                # %if.then
	movl	$1, -24(%rbp)
.LBB30_2:                               # %if.end
	vmovsd	.LCPI30_0(%rip), %xmm0  # xmm0 = mem[0],zero
	xorl	%eax, %eax
	subl	R, %eax
	movl	%eax, -20(%rbp)
	vcvtsi2sdl	R, %xmm0, %xmm1
	vmovsd	bit_rate, %xmm2         # xmm2 = mem[0],zero
	vdivsd	frame_rate, %xmm2, %xmm2
	vaddsd	%xmm2, %xmm1, %xmm1
	vcvttsd2si	%xmm1, %rax
	movq	%rax, LowerBound
	vcvtsi2sdl	R, %xmm0, %xmm1
	vaddsd	InitialDelayOffset, %xmm1, %xmm1
	vcvttsd2si	%xmm1, %rax
	movq	%rax, UpperBound1
	movl	-4(%rbp), %eax
	addl	$1, %eax
	addl	-12(%rbp), %eax
	vcvtsi2sd	%eax, %xmm0, %xmm1
	vmulsd	bit_rate, %xmm1, %xmm1
	vdivsd	frame_rate, %xmm1, %xmm1
	vaddsd	%xmm0, %xmm1, %xmm1
	vroundsd	$9, %xmm1, %xmm0, %xmm1
	vcvttsd2si	%xmm1, %eax
	movl	%eax, -16(%rbp)
	movl	-16(%rbp), %eax
	addl	R, %eax
	movl	%eax, R
	movl	-4(%rbp), %eax
	movl	%eax, Np
	movl	-12(%rbp), %eax
	movl	%eax, Nb
	movl	-20(%rbp), %eax
	shll	$3, %eax
	cltd
	idivl	-16(%rbp)
	vcvtsi2sd	%eax, %xmm0, %xmm1
	vaddsd	%xmm0, %xmm1, %xmm0
	vcvttsd2si	%xmm0, %eax
	movl	%eax, -32(%rbp)
	movl	$0, GOPOverdue
	movq	img, %rax
	movl	$1, 72612(%rax)
	movl	-4(%rbp), %eax
	movl	%eax, TotalPFrame
	movq	img, %rax
	movl	72568(%rax), %ecx
	addl	$1, %ecx
	movl	%ecx, 72568(%rax)
	movq	img, %rax
	cmpl	$1, 72568(%rax)
	jne	.LBB30_4
# %bb.3:                                # %if.then20
	movq	input, %rax
	movl	3244(%rax), %eax
	movl	%eax, MyInitialQp
	movl	MyInitialQp, %eax
	subl	$1, %eax
	movl	%eax, PreviousQp2
	movl	MyInitialQp, %eax
	movl	%eax, QPLastGOP
	jmp	.LBB30_27
.LBB30_4:                               # %if.else
	movq	input, %rax
	cmpl	$2, 2880(%rax)
	je	.LBB30_6
# %bb.5:                                # %lor.lhs.false
	movq	input, %rax
	cmpl	$0, 2884(%rax)
	je	.LBB30_10
.LBB30_6:                               # %if.then24
	movq	img, %rax
	cmpl	$1, 72604(%rax)
	jne	.LBB30_8
# %bb.7:                                # %if.then27
	movl	FrameQPBuffer, %eax
	movq	img, %rcx
	addl	72572(%rcx), %eax
	movl	%eax, 72572(%rcx)
	movl	FrameQPBuffer, %eax
	movl	%eax, QPLastPFrame
	jmp	.LBB30_9
.LBB30_8:                               # %if.else29
	movl	FieldQPBuffer, %eax
	movq	img, %rcx
	addl	72572(%rcx), %eax
	movl	%eax, 72572(%rcx)
	movl	FieldQPBuffer, %eax
	movl	%eax, QPLastPFrame
.LBB30_9:                               # %if.end32
	jmp	.LBB30_10
.LBB30_10:                              # %if.end33
	vmovsd	.LCPI30_0(%rip), %xmm0  # xmm0 = mem[0],zero
	vmovsd	.LCPI30_1(%rip), %xmm1  # xmm1 = mem[0],zero
	vmovsd	.LCPI30_2(%rip), %xmm2  # xmm2 = mem[0],zero
	movq	img, %rax
	vcvtsi2sdl	72572(%rax), %xmm0, %xmm3
	vmulsd	%xmm3, %xmm2, %xmm3
	movq	img, %rax
	vcvtsi2sdl	72576(%rax), %xmm0, %xmm4
	vdivsd	%xmm4, %xmm3, %xmm3
	vaddsd	%xmm0, %xmm3, %xmm3
	vcvttsd2si	%xmm3, %eax
	movl	%eax, PAverageQp
	movl	-4(%rbp), %eax
	addl	-12(%rbp), %eax
	addl	$1, %eax
	vcvtsi2sd	%eax, %xmm0, %xmm3
	vmulsd	%xmm3, %xmm2, %xmm2
	vdivsd	%xmm1, %xmm2, %xmm1
	vaddsd	%xmm1, %xmm0, %xmm0
	vcvttsd2si	%xmm0, %eax
	movl	%eax, -8(%rbp)
	cmpl	$2, -8(%rbp)
	jle	.LBB30_12
# %bb.11:                               # %if.then50
	movl	$2, -8(%rbp)
.LBB30_12:                              # %if.end51
	movl	-8(%rbp), %eax
	movl	PAverageQp, %ecx
	subl	%eax, %ecx
	movl	%ecx, PAverageQp
	movl	PAverageQp, %eax
	movl	QPLastPFrame, %ecx
	subl	$2, %ecx
	cmpl	%ecx, %eax
	jle	.LBB30_14
# %bb.13:                               # %if.then56
	movl	PAverageQp, %eax
	addl	$-1, %eax
	movl	%eax, PAverageQp
.LBB30_14:                              # %if.end57
	movl	QPLastGOP, %eax
	subl	$2, %eax
	cmpl	PAverageQp, %eax
	jge	.LBB30_16
# %bb.15:                               # %cond.true
	movl	PAverageQp, %eax
	jmp	.LBB30_17
.LBB30_16:                              # %cond.false
	movl	QPLastGOP, %eax
	subl	$2, %eax
.LBB30_17:                              # %cond.end
	movl	%eax, PAverageQp
	movl	QPLastGOP, %eax
	addl	$2, %eax
	cmpl	PAverageQp, %eax
	jge	.LBB30_19
# %bb.18:                               # %cond.true65
	movl	QPLastGOP, %eax
	addl	$2, %eax
	jmp	.LBB30_20
.LBB30_19:                              # %cond.false67
	movl	PAverageQp, %eax
.LBB30_20:                              # %cond.end68
	movl	%eax, PAverageQp
	movl	RC_MAX_QUANT, %eax
	cmpl	PAverageQp, %eax
	jge	.LBB30_22
# %bb.21:                               # %cond.true72
	movl	RC_MAX_QUANT, %eax
	jmp	.LBB30_23
.LBB30_22:                              # %cond.false73
	movl	PAverageQp, %eax
.LBB30_23:                              # %cond.end74
	movl	%eax, PAverageQp
	movl	RC_MIN_QUANT, %eax
	cmpl	PAverageQp, %eax
	jge	.LBB30_25
# %bb.24:                               # %cond.true78
	movl	PAverageQp, %eax
	jmp	.LBB30_26
.LBB30_25:                              # %cond.false79
	movl	RC_MIN_QUANT, %eax
.LBB30_26:                              # %cond.end80
	movl	%eax, PAverageQp
	movl	PAverageQp, %eax
	movl	%eax, MyInitialQp
	movl	MyInitialQp, %eax
	movl	%eax, QPLastGOP
	movl	PAverageQp, %eax
	movl	%eax, Pm_Qp
	movl	PAverageQp, %eax
	movl	%eax, PAveFrameQP
	movl	PreviousQp2, %eax
	movl	%eax, PreviousQp1
	movl	MyInitialQp, %eax
	subl	$1, %eax
	movl	%eax, PreviousQp2
.LBB30_27:                              # %if.end83
	movq	img, %rax
	movl	$0, 72572(%rax)
	movq	img, %rax
	movl	$0, 72576(%rax)
	movl	$0, NumberofBFrames
	cmpl	$766731690, -28(%rbp)   # imm = 0x2DB365AA
	jne	.LBB30_29
.LBB30_28:
	addq	$32, %rsp
	popq	%rbp
	.cfi_def_cfa %rsp, 8
	retq
.LBB30_29:                              # %func_exit
	.cfi_def_cfa %rbp, 16
	callq	detect_breach
	jmp	.LBB30_28
.Lfunc_end30:
	.size	rc_init_GOP.14, .Lfunc_end30-rc_init_GOP.14
	.cfi_endproc
                                        # -- End function
	.section	.rodata.cst8,"aM",@progbits,8
	.p2align	3               # -- Begin function rc_init_GOP.15
.LCPI31_0:
	.quad	4602678819172646912     # double 0.5
.LCPI31_1:
	.quad	4624633867356078080     # double 15
.LCPI31_2:
	.quad	4607182418800017408     # double 1
	.text
	.globl	rc_init_GOP.15
	.p2align	4, 0x90
	.type	rc_init_GOP.15,@function
rc_init_GOP.15:                         # @rc_init_GOP.15
	.cfi_startproc
# %bb.0:                                # %entry
	pushq	%rbp
	.cfi_def_cfa_offset 16
	.cfi_offset %rbp, -16
	movq	%rsp, %rbp
	.cfi_def_cfa_register %rbp
	subq	$32, %rsp
	movl	$1781065178, -28(%rbp)  # imm = 0x6A28E5DA
	movl	%edi, -4(%rbp)
	movl	%esi, -12(%rbp)
	movl	$0, -20(%rbp)
	cmpl	$0, R
	jge	.LBB31_2
# %bb.1:                                # %if.then
	movl	$1, -20(%rbp)
.LBB31_2:                               # %if.end
	vmovsd	.LCPI31_0(%rip), %xmm0  # xmm0 = mem[0],zero
	xorl	%eax, %eax
	subl	R, %eax
	movl	%eax, -24(%rbp)
	vcvtsi2sdl	R, %xmm0, %xmm1
	vmovsd	bit_rate, %xmm2         # xmm2 = mem[0],zero
	vdivsd	frame_rate, %xmm2, %xmm2
	vaddsd	%xmm2, %xmm1, %xmm1
	vcvttsd2si	%xmm1, %rax
	movq	%rax, LowerBound
	vcvtsi2sdl	R, %xmm0, %xmm1
	vaddsd	InitialDelayOffset, %xmm1, %xmm1
	vcvttsd2si	%xmm1, %rax
	movq	%rax, UpperBound1
	movl	-4(%rbp), %eax
	addl	$1, %eax
	addl	-12(%rbp), %eax
	vcvtsi2sd	%eax, %xmm0, %xmm1
	vmulsd	bit_rate, %xmm1, %xmm1
	vdivsd	frame_rate, %xmm1, %xmm1
	vaddsd	%xmm0, %xmm1, %xmm1
	vroundsd	$9, %xmm1, %xmm0, %xmm1
	vcvttsd2si	%xmm1, %eax
	movl	%eax, -16(%rbp)
	movl	-16(%rbp), %eax
	addl	R, %eax
	movl	%eax, R
	movl	-4(%rbp), %eax
	movl	%eax, Np
	movl	-12(%rbp), %eax
	movl	%eax, Nb
	movl	-24(%rbp), %eax
	shll	$3, %eax
	cltd
	idivl	-16(%rbp)
	vcvtsi2sd	%eax, %xmm0, %xmm1
	vaddsd	%xmm0, %xmm1, %xmm0
	vcvttsd2si	%xmm0, %eax
	movl	%eax, -32(%rbp)
	movl	$0, GOPOverdue
	movq	img, %rax
	movl	$1, 72612(%rax)
	movl	-4(%rbp), %eax
	movl	%eax, TotalPFrame
	movq	img, %rax
	movl	72568(%rax), %ecx
	addl	$1, %ecx
	movl	%ecx, 72568(%rax)
	movq	img, %rax
	cmpl	$1, 72568(%rax)
	jne	.LBB31_4
# %bb.3:                                # %if.then20
	movq	input, %rax
	movl	3244(%rax), %eax
	movl	%eax, MyInitialQp
	movl	MyInitialQp, %eax
	subl	$1, %eax
	movl	%eax, PreviousQp2
	movl	MyInitialQp, %eax
	movl	%eax, QPLastGOP
	jmp	.LBB31_27
.LBB31_4:                               # %if.else
	movq	input, %rax
	cmpl	$2, 2880(%rax)
	je	.LBB31_6
# %bb.5:                                # %lor.lhs.false
	movq	input, %rax
	cmpl	$0, 2884(%rax)
	je	.LBB31_10
.LBB31_6:                               # %if.then24
	movq	img, %rax
	cmpl	$1, 72604(%rax)
	jne	.LBB31_8
# %bb.7:                                # %if.then27
	movl	FrameQPBuffer, %eax
	movq	img, %rcx
	addl	72572(%rcx), %eax
	movl	%eax, 72572(%rcx)
	movl	FrameQPBuffer, %eax
	movl	%eax, QPLastPFrame
	jmp	.LBB31_9
.LBB31_8:                               # %if.else29
	movl	FieldQPBuffer, %eax
	movq	img, %rcx
	addl	72572(%rcx), %eax
	movl	%eax, 72572(%rcx)
	movl	FieldQPBuffer, %eax
	movl	%eax, QPLastPFrame
.LBB31_9:                               # %if.end32
	jmp	.LBB31_10
.LBB31_10:                              # %if.end33
	vmovsd	.LCPI31_0(%rip), %xmm0  # xmm0 = mem[0],zero
	vmovsd	.LCPI31_1(%rip), %xmm1  # xmm1 = mem[0],zero
	vmovsd	.LCPI31_2(%rip), %xmm2  # xmm2 = mem[0],zero
	movq	img, %rax
	vcvtsi2sdl	72572(%rax), %xmm0, %xmm3
	vmulsd	%xmm3, %xmm2, %xmm3
	movq	img, %rax
	vcvtsi2sdl	72576(%rax), %xmm0, %xmm4
	vdivsd	%xmm4, %xmm3, %xmm3
	vaddsd	%xmm0, %xmm3, %xmm3
	vcvttsd2si	%xmm3, %eax
	movl	%eax, PAverageQp
	movl	-4(%rbp), %eax
	addl	-12(%rbp), %eax
	addl	$1, %eax
	vcvtsi2sd	%eax, %xmm0, %xmm3
	vmulsd	%xmm3, %xmm2, %xmm2
	vdivsd	%xmm1, %xmm2, %xmm1
	vaddsd	%xmm1, %xmm0, %xmm0
	vcvttsd2si	%xmm0, %eax
	movl	%eax, -8(%rbp)
	cmpl	$2, -8(%rbp)
	jle	.LBB31_12
# %bb.11:                               # %if.then50
	movl	$2, -8(%rbp)
.LBB31_12:                              # %if.end51
	movl	-8(%rbp), %eax
	movl	PAverageQp, %ecx
	subl	%eax, %ecx
	movl	%ecx, PAverageQp
	movl	PAverageQp, %eax
	movl	QPLastPFrame, %ecx
	subl	$2, %ecx
	cmpl	%ecx, %eax
	jle	.LBB31_14
# %bb.13:                               # %if.then56
	movl	PAverageQp, %eax
	addl	$-1, %eax
	movl	%eax, PAverageQp
.LBB31_14:                              # %if.end57
	movl	QPLastGOP, %eax
	subl	$2, %eax
	cmpl	PAverageQp, %eax
	jge	.LBB31_16
# %bb.15:                               # %cond.true
	movl	PAverageQp, %eax
	jmp	.LBB31_17
.LBB31_16:                              # %cond.false
	movl	QPLastGOP, %eax
	subl	$2, %eax
.LBB31_17:                              # %cond.end
	movl	%eax, PAverageQp
	movl	QPLastGOP, %eax
	addl	$2, %eax
	cmpl	PAverageQp, %eax
	jge	.LBB31_19
# %bb.18:                               # %cond.true65
	movl	QPLastGOP, %eax
	addl	$2, %eax
	jmp	.LBB31_20
.LBB31_19:                              # %cond.false67
	movl	PAverageQp, %eax
.LBB31_20:                              # %cond.end68
	movl	%eax, PAverageQp
	movl	RC_MAX_QUANT, %eax
	cmpl	PAverageQp, %eax
	jge	.LBB31_22
# %bb.21:                               # %cond.true72
	movl	RC_MAX_QUANT, %eax
	jmp	.LBB31_23
.LBB31_22:                              # %cond.false73
	movl	PAverageQp, %eax
.LBB31_23:                              # %cond.end74
	movl	%eax, PAverageQp
	movl	RC_MIN_QUANT, %eax
	cmpl	PAverageQp, %eax
	jge	.LBB31_25
# %bb.24:                               # %cond.true78
	movl	PAverageQp, %eax
	jmp	.LBB31_26
.LBB31_25:                              # %cond.false79
	movl	RC_MIN_QUANT, %eax
.LBB31_26:                              # %cond.end80
	movl	%eax, PAverageQp
	movl	PAverageQp, %eax
	movl	%eax, MyInitialQp
	movl	MyInitialQp, %eax
	movl	%eax, QPLastGOP
	movl	PAverageQp, %eax
	movl	%eax, Pm_Qp
	movl	PAverageQp, %eax
	movl	%eax, PAveFrameQP
	movl	PreviousQp2, %eax
	movl	%eax, PreviousQp1
	movl	MyInitialQp, %eax
	subl	$1, %eax
	movl	%eax, PreviousQp2
.LBB31_27:                              # %if.end83
	movq	img, %rax
	movl	$0, 72572(%rax)
	movq	img, %rax
	movl	$0, 72576(%rax)
	movl	$0, NumberofBFrames
	cmpl	$1781065178, -28(%rbp)  # imm = 0x6A28E5DA
	jne	.LBB31_29
.LBB31_28:
	addq	$32, %rsp
	popq	%rbp
	.cfi_def_cfa %rsp, 8
	retq
.LBB31_29:                              # %func_exit
	.cfi_def_cfa %rbp, 16
	callq	detect_breach
	jmp	.LBB31_28
.Lfunc_end31:
	.size	rc_init_GOP.15, .Lfunc_end31-rc_init_GOP.15
	.cfi_endproc
                                        # -- End function
	.section	.rodata.cst8,"aM",@progbits,8
	.p2align	3               # -- Begin function Qstep2QP.16
.LCPI32_0:
	.quad	4604086194056200192     # double 0.65625
.LCPI32_1:
	.quad	4604930618986332160     # double 0.75
.LCPI32_2:
	.quad	4605775043916464128     # double 0.84375
.LCPI32_3:
	.quad	4606619468846596096     # double 0.9375
.LCPI32_4:
	.quad	4607463893776728064     # double 1.0625
.LCPI32_5:
	.quad	4607745368753438720     # double 1.125
.LCPI32_6:
	.quad	4607182418800017408     # double 1
.LCPI32_7:
	.quad	4606056518893174784     # double 0.875
.LCPI32_8:
	.quad	4605493568939753472     # double 0.8125
.LCPI32_9:
	.quad	4604367669032910848     # double 0.6875
.LCPI32_10:
	.quad	4603804719079489536     # double 0.625
.LCPI32_11:
	.quad	4611686018427387904     # double 2
	.text
	.globl	Qstep2QP.16
	.p2align	4, 0x90
	.type	Qstep2QP.16,@function
Qstep2QP.16:                            # @Qstep2QP.16
	.cfi_startproc
# %bb.0:                                # %entry
	pushq	%rbp
	.cfi_def_cfa_offset 16
	.cfi_offset %rbp, -16
	movq	%rsp, %rbp
	.cfi_def_cfa_register %rbp
	pushq	%rbx
	subq	$56, %rsp
	.cfi_offset %rbx, -24
	movl	$1085504741, -32(%rbp)  # imm = 0x40B37CE5
	vmovsd	%xmm0, -16(%rbp)
	movl	$0, -24(%rbp)
	movl	$0, -20(%rbp)
	vmovsd	-16(%rbp), %xmm0        # xmm0 = mem[0],zero
	vmovsd	%xmm0, -40(%rbp)        # 8-byte Spill
	xorl	%edi, %edi
	callq	QP2Qstep
	vucomisd	-40(%rbp), %xmm0 # 8-byte Folded Reload
	jbe	.LBB32_2
# %bb.1:                                # %if.then
	movl	$0, -28(%rbp)
	jmp	.LBB32_24
.LBB32_2:                               # %if.else
	vmovsd	-16(%rbp), %xmm0        # xmm0 = mem[0],zero
	vmovsd	%xmm0, -56(%rbp)        # 8-byte Spill
	movl	$51, %edi
	callq	QP2Qstep
	vmovsd	-56(%rbp), %xmm1        # 8-byte Reload
                                        # xmm1 = mem[0],zero
	vucomisd	%xmm0, %xmm1
	jbe	.LBB32_4
# %bb.3:                                # %if.then3
	movl	$51, -28(%rbp)
	jmp	.LBB32_24
.LBB32_4:                               # %if.end
	jmp	.LBB32_5
.LBB32_5:                               # %if.end4
	jmp	.LBB32_6
.LBB32_6:                               # %while.cond
                                        # =>This Inner Loop Header: Depth=1
	vmovsd	-16(%rbp), %xmm0        # xmm0 = mem[0],zero
	vmovsd	%xmm0, -48(%rbp)        # 8-byte Spill
	movl	$5, %edi
	callq	QP2Qstep
	vmovsd	-48(%rbp), %xmm1        # 8-byte Reload
                                        # xmm1 = mem[0],zero
	vucomisd	%xmm0, %xmm1
	jbe	.LBB32_8
# %bb.7:                                # %while.body
                                        #   in Loop: Header=BB32_6 Depth=1
	vmovsd	.LCPI32_11(%rip), %xmm0 # xmm0 = mem[0],zero
	vmovsd	-16(%rbp), %xmm1        # xmm1 = mem[0],zero
	vdivsd	%xmm0, %xmm1, %xmm0
	vmovsd	%xmm0, -16(%rbp)
	movl	-24(%rbp), %eax
	addl	$1, %eax
	movl	%eax, -24(%rbp)
	jmp	.LBB32_6
.LBB32_8:                               # %while.end
	vmovsd	.LCPI32_0(%rip), %xmm0  # xmm0 = mem[0],zero
	vucomisd	-16(%rbp), %xmm0
	jb	.LBB32_10
# %bb.9:                                # %if.then8
	vmovsd	.LCPI32_10(%rip), %xmm0 # xmm0 = mem[0],zero
	vmovsd	%xmm0, -16(%rbp)
	movl	$0, -20(%rbp)
	jmp	.LBB32_23
.LBB32_10:                              # %if.else9
	vmovsd	.LCPI32_1(%rip), %xmm0  # xmm0 = mem[0],zero
	vucomisd	-16(%rbp), %xmm0
	jb	.LBB32_12
# %bb.11:                               # %if.then11
	vmovsd	.LCPI32_9(%rip), %xmm0  # xmm0 = mem[0],zero
	vmovsd	%xmm0, -16(%rbp)
	movl	$1, -20(%rbp)
	jmp	.LBB32_22
.LBB32_12:                              # %if.else12
	vmovsd	.LCPI32_2(%rip), %xmm0  # xmm0 = mem[0],zero
	vucomisd	-16(%rbp), %xmm0
	jb	.LBB32_14
# %bb.13:                               # %if.then14
	vmovsd	.LCPI32_8(%rip), %xmm0  # xmm0 = mem[0],zero
	vmovsd	%xmm0, -16(%rbp)
	movl	$2, -20(%rbp)
	jmp	.LBB32_21
.LBB32_14:                              # %if.else15
	vmovsd	.LCPI32_3(%rip), %xmm0  # xmm0 = mem[0],zero
	vucomisd	-16(%rbp), %xmm0
	jb	.LBB32_16
# %bb.15:                               # %if.then17
	vmovsd	.LCPI32_7(%rip), %xmm0  # xmm0 = mem[0],zero
	vmovsd	%xmm0, -16(%rbp)
	movl	$3, -20(%rbp)
	jmp	.LBB32_20
.LBB32_16:                              # %if.else18
	vmovsd	.LCPI32_4(%rip), %xmm0  # xmm0 = mem[0],zero
	vucomisd	-16(%rbp), %xmm0
	jb	.LBB32_18
# %bb.17:                               # %if.then20
	vmovsd	.LCPI32_6(%rip), %xmm0  # xmm0 = mem[0],zero
	vmovsd	%xmm0, -16(%rbp)
	movl	$4, -20(%rbp)
	jmp	.LBB32_19
.LBB32_18:                              # %if.else21
	vmovsd	.LCPI32_5(%rip), %xmm0  # xmm0 = mem[0],zero
	vmovsd	%xmm0, -16(%rbp)
	movl	$5, -20(%rbp)
.LBB32_19:                              # %if.end22
	jmp	.LBB32_20
.LBB32_20:                              # %if.end23
	jmp	.LBB32_21
.LBB32_21:                              # %if.end24
	jmp	.LBB32_22
.LBB32_22:                              # %if.end25
	jmp	.LBB32_23
.LBB32_23:                              # %if.end26
	imull	$6, -24(%rbp), %eax
	addl	-20(%rbp), %eax
	movl	%eax, -28(%rbp)
.LBB32_24:                              # %return
	movl	-28(%rbp), %ebx
	cmpl	$1085504741, -32(%rbp)  # imm = 0x40B37CE5
	jne	.LBB32_26
.LBB32_25:
	movl	%ebx, %eax
	addq	$56, %rsp
	popq	%rbx
	popq	%rbp
	.cfi_def_cfa %rsp, 8
	retq
.LBB32_26:                              # %func_exit
	.cfi_def_cfa %rbp, 16
	callq	detect_breach
	jmp	.LBB32_25
.Lfunc_end32:
	.size	Qstep2QP.16, .Lfunc_end32-Qstep2QP.16
	.cfi_endproc
                                        # -- End function
	.section	.rodata.cst8,"aM",@progbits,8
	.p2align	3               # -- Begin function rc_init_seq.17
.LCPI33_0:
	.quad	4605380978949069210     # double 0.80000000000000004
.LCPI33_1:
	.quad	4612947026323051643     # double 2.5600000000000001
.LCPI33_2:
	.quad	4616189618054758400     # double 4
.LCPI33_3:
	.quad	4602678819172646912     # double 0.5
.LCPI33_4:
	.quad	4606281698874543309     # double 0.90000000000000002
.LCPI33_5:
	.quad	4598175219545276416     # double 0.25
.LCPI33_6:
	.quad	4607182418800017408     # double 1
.LCPI33_7:
	.quad	4612586738352862003     # double 2.3999999999999999
.LCPI33_8:
	.quad	4608983858650965606     # double 1.3999999999999999
.LCPI33_9:
	.quad	4603579539098121011     # double 0.59999999999999998
.LCPI33_10:
	.quad	4608083138725491507     # double 1.2
.LCPI33_11:
	.quad	4596373779694328218     # double 0.20000000000000001
.LCPI33_12:
	.quad	4599075939470750515     # double 0.29999999999999999
.LCPI33_13:
	.quad	4591870180066957722     # double 0.10000000000000001
	.text
	.globl	rc_init_seq.17
	.p2align	4, 0x90
	.type	rc_init_seq.17,@function
rc_init_seq.17:                         # @rc_init_seq.17
	.cfi_startproc
# %bb.0:                                # %entry
	pushq	%rbp
	.cfi_def_cfa_offset 16
	.cfi_offset %rbp, -16
	movq	%rsp, %rbp
	.cfi_def_cfa_register %rbp
	subq	$48, %rsp
	movl	$596718768, -44(%rbp)   # imm = 0x239134B0
	movl	$0, Xp
	movl	$0, Xb
	movq	input, %rax
	vcvtsi2sdl	3240(%rax), %xmm0, %xmm0
	vmovsd	%xmm0, bit_rate
	movq	img, %rax
	vmovss	48(%rax), %xmm0         # xmm0 = mem[0],zero,zero,zero
	movq	input, %rax
	movl	1236(%rax), %eax
	addl	$1, %eax
	vcvtsi2ss	%eax, %xmm0, %xmm1
	vmulss	%xmm1, %xmm0, %xmm0
	movq	input, %rax
	movl	20(%rax), %eax
	addl	$1, %eax
	vcvtsi2ss	%eax, %xmm0, %xmm1
	vdivss	%xmm1, %xmm0, %xmm0
	vcvtss2sd	%xmm0, %xmm0, %xmm0
	vmovsd	%xmm0, frame_rate
	vmovsd	bit_rate, %xmm0         # xmm0 = mem[0],zero
	vmovsd	%xmm0, PreviousBit_Rate
	movq	img, %rax
	movl	60(%rax), %eax
	movq	img, %rcx
	imull	52(%rcx), %eax
	cltd
	movl	$256, %ecx              # imm = 0x100
	idivl	%ecx
	movq	img, %rcx
	movl	%eax, 72608(%rcx)
	movq	input, %rax
	movl	3248(%rax), %eax
	movq	img, %rcx
	cmpl	72608(%rcx), %eax
	jle	.LBB33_2
# %bb.1:                                # %if.then
	movq	img, %rax
	movl	72608(%rax), %eax
	movq	input, %rcx
	movl	%eax, 3248(%rcx)
.LBB33_2:                               # %if.end
	movq	input, %rax
	movl	3248(%rax), %eax
	movq	img, %rcx
	cmpl	72608(%rcx), %eax
	jge	.LBB33_4
# %bb.3:                                # %if.then15
	movq	img, %rax
	movl	72608(%rax), %eax
	movq	input, %rcx
	cltd
	idivl	3248(%rcx)
	movl	%eax, TotalNumberofBasicUnit
.LBB33_4:                               # %if.end19
	vmovsd	.LCPI33_0(%rip), %xmm0  # xmm0 = mem[0],zero
	vmovsd	.LCPI33_1(%rip), %xmm1  # xmm1 = mem[0],zero
	vmovsd	.LCPI33_2(%rip), %xmm2  # xmm2 = mem[0],zero
	vmovsd	%xmm2, MINVALUE
	vmulsd	bit_rate, %xmm1, %xmm1
	vmovsd	%xmm1, BufferSize
	vxorps	%xmm1, %xmm1, %xmm1
	vmovsd	%xmm1, CurrentBufferFullness
	vmovsd	CurrentBufferFullness, %xmm1 # xmm1 = mem[0],zero
	vmovsd	%xmm1, GOPTargetBufferLevel
	vmulsd	BufferSize, %xmm0, %xmm0
	vmovsd	%xmm0, InitialDelayOffset
	movl	$0, m_windowSize
	movl	$0, MADm_windowSize
	movq	img, %rax
	movl	$0, 72560(%rax)
	movq	img, %rax
	movl	$0, 72564(%rax)
	movq	img, %rax
	movl	$0, 72568(%rax)
	movl	$0, R
	movq	input, %rax
	cmpl	$0, 1236(%rax)
	jle	.LBB33_6
# %bb.5:                                # %if.then25
	vmovsd	.LCPI33_4(%rip), %xmm0  # xmm0 = mem[0],zero
	vmovsd	.LCPI33_5(%rip), %xmm1  # xmm1 = mem[0],zero
	vmovsd	%xmm1, GAMMAP
	vmovsd	%xmm0, BETAP
	jmp	.LBB33_7
.LBB33_6:                               # %if.else
	vmovsd	.LCPI33_3(%rip), %xmm0  # xmm0 = mem[0],zero
	vmovsd	%xmm0, GAMMAP
	vmovsd	%xmm0, BETAP
.LBB33_7:                               # %if.end26
	vmovsd	.LCPI33_6(%rip), %xmm0  # xmm0 = mem[0],zero
	movl	$0, PPreHeader
	vmulsd	bit_rate, %xmm0, %xmm1
	vmovsd	%xmm1, Pm_X1
	vxorps	%xmm1, %xmm1, %xmm1
	vmovsd	%xmm1, Pm_X2
	vmovsd	%xmm0, PMADPictureC1
	vmovsd	%xmm1, PMADPictureC2
	movl	$0, -4(%rbp)
.LBB33_8:                               # %for.cond
                                        # =>This Inner Loop Header: Depth=1
	cmpl	$20, -4(%rbp)
	jge	.LBB33_11
# %bb.9:                                # %for.body
                                        #   in Loop: Header=BB33_8 Depth=1
	movslq	-4(%rbp), %rax
	vxorps	%xmm0, %xmm0, %xmm0
	vmovsd	%xmm0, Pm_rgQp(,%rax,8)
	movslq	-4(%rbp), %rax
	vmovsd	%xmm0, Pm_rgRp(,%rax,8)
	movslq	-4(%rbp), %rax
	vmovsd	%xmm0, PPictureMAD(,%rax,8)
# %bb.10:                               # %for.inc
                                        #   in Loop: Header=BB33_8 Depth=1
	movl	-4(%rbp), %eax
	addl	$1, %eax
	movl	%eax, -4(%rbp)
	jmp	.LBB33_8
.LBB33_11:                              # %for.end
	vxorps	%xmm0, %xmm0, %xmm0
	vmovsd	%xmm0, PPictureMAD+160
	movl	$2, PDuantQp
	movl	$0, PAveHeaderBits1
	movl	$0, PAveHeaderBits3
	cmpl	$9, TotalNumberofBasicUnit
	jl	.LBB33_13
# %bb.12:                               # %if.then36
	movl	$1, DDquant
	jmp	.LBB33_14
.LBB33_13:                              # %if.else37
	movl	$2, DDquant
.LBB33_14:                              # %if.end38
	vmovsd	.LCPI33_6(%rip), %xmm0  # xmm0 = mem[0],zero
	movq	img, %rax
	movl	52(%rax), %eax
	cltd
	movl	$16, %ecx
	idivl	%ecx
	movl	%eax, MBPerRow
	movq	img, %rax
	movl	$0, 72600(%rax)
	movl	$51, RC_MAX_QUANT
	movl	$0, RC_MIN_QUANT
	vmulsd	bit_rate, %xmm0, %xmm0
	vmovsd	frame_rate, %xmm1       # xmm1 = mem[0],zero
	movq	img, %rax
	vcvtsi2sdl	52(%rax), %xmm0, %xmm2
	vmulsd	%xmm2, %xmm1, %xmm1
	movq	img, %rax
	vcvtsi2sdl	60(%rax), %xmm0, %xmm2
	vmulsd	%xmm2, %xmm1, %xmm1
	vdivsd	%xmm1, %xmm0, %xmm0
	vmovsd	%xmm0, -40(%rbp)
	movq	img, %rax
	cmpl	$176, 52(%rax)
	jne	.LBB33_16
# %bb.15:                               # %if.then52
	vmovsd	.LCPI33_9(%rip), %xmm0  # xmm0 = mem[0],zero
	vmovsd	.LCPI33_12(%rip), %xmm1 # xmm1 = mem[0],zero
	vmovsd	.LCPI33_13(%rip), %xmm2 # xmm2 = mem[0],zero
	vmovsd	%xmm2, -32(%rbp)
	vmovsd	%xmm1, -24(%rbp)
	vmovsd	%xmm0, -16(%rbp)
	jmp	.LBB33_20
.LBB33_16:                              # %if.else53
	movq	img, %rax
	cmpl	$352, 52(%rax)          # imm = 0x160
	jne	.LBB33_18
# %bb.17:                               # %if.then57
	vmovsd	.LCPI33_10(%rip), %xmm0 # xmm0 = mem[0],zero
	vmovsd	.LCPI33_9(%rip), %xmm1  # xmm1 = mem[0],zero
	vmovsd	.LCPI33_11(%rip), %xmm2 # xmm2 = mem[0],zero
	vmovsd	%xmm2, -32(%rbp)
	vmovsd	%xmm1, -24(%rbp)
	vmovsd	%xmm0, -16(%rbp)
	jmp	.LBB33_19
.LBB33_18:                              # %if.else58
	vmovsd	.LCPI33_7(%rip), %xmm0  # xmm0 = mem[0],zero
	vmovsd	.LCPI33_8(%rip), %xmm1  # xmm1 = mem[0],zero
	vmovsd	.LCPI33_9(%rip), %xmm2  # xmm2 = mem[0],zero
	vmovsd	%xmm2, -32(%rbp)
	vmovsd	%xmm1, -24(%rbp)
	vmovsd	%xmm0, -16(%rbp)
.LBB33_19:                              # %if.end59
	jmp	.LBB33_20
.LBB33_20:                              # %if.end60
	movq	input, %rax
	cmpl	$0, 3244(%rax)
	jne	.LBB33_31
# %bb.21:                               # %if.then63
	vmovsd	-40(%rbp), %xmm0        # xmm0 = mem[0],zero
	vmovsd	-32(%rbp), %xmm1        # xmm1 = mem[0],zero
	vucomisd	%xmm0, %xmm1
	jb	.LBB33_23
# %bb.22:                               # %if.then66
	movl	$35, -8(%rbp)
	jmp	.LBB33_30
.LBB33_23:                              # %if.else67
	vmovsd	-40(%rbp), %xmm0        # xmm0 = mem[0],zero
	vmovsd	-24(%rbp), %xmm1        # xmm1 = mem[0],zero
	vucomisd	%xmm0, %xmm1
	jb	.LBB33_25
# %bb.24:                               # %if.then70
	movl	$25, -8(%rbp)
	jmp	.LBB33_29
.LBB33_25:                              # %if.else71
	vmovsd	-40(%rbp), %xmm0        # xmm0 = mem[0],zero
	vmovsd	-16(%rbp), %xmm1        # xmm1 = mem[0],zero
	vucomisd	%xmm0, %xmm1
	jb	.LBB33_27
# %bb.26:                               # %if.then74
	movl	$20, -8(%rbp)
	jmp	.LBB33_28
.LBB33_27:                              # %if.else75
	movl	$10, -8(%rbp)
.LBB33_28:                              # %if.end76
	jmp	.LBB33_29
.LBB33_29:                              # %if.end77
	jmp	.LBB33_30
.LBB33_30:                              # %if.end78
	movl	-8(%rbp), %eax
	movq	input, %rcx
	movl	%eax, 3244(%rcx)
.LBB33_31:                              # %if.end80
	cmpl	$596718768, -44(%rbp)   # imm = 0x239134B0
	jne	.LBB33_33
.LBB33_32:
	addq	$48, %rsp
	popq	%rbp
	.cfi_def_cfa %rsp, 8
	retq
.LBB33_33:                              # %func_exit
	.cfi_def_cfa %rbp, 16
	callq	detect_breach
	jmp	.LBB33_32
.Lfunc_end33:
	.size	rc_init_seq.17, .Lfunc_end33-rc_init_seq.17
	.cfi_endproc
                                        # -- End function
	.section	.rodata.cst8,"aM",@progbits,8
	.p2align	3               # -- Begin function rc_init_seq.18
.LCPI34_0:
	.quad	4605380978949069210     # double 0.80000000000000004
.LCPI34_1:
	.quad	4612947026323051643     # double 2.5600000000000001
.LCPI34_2:
	.quad	4616189618054758400     # double 4
.LCPI34_3:
	.quad	4602678819172646912     # double 0.5
.LCPI34_4:
	.quad	4606281698874543309     # double 0.90000000000000002
.LCPI34_5:
	.quad	4598175219545276416     # double 0.25
.LCPI34_6:
	.quad	4607182418800017408     # double 1
.LCPI34_7:
	.quad	4612586738352862003     # double 2.3999999999999999
.LCPI34_8:
	.quad	4608983858650965606     # double 1.3999999999999999
.LCPI34_9:
	.quad	4603579539098121011     # double 0.59999999999999998
.LCPI34_10:
	.quad	4608083138725491507     # double 1.2
.LCPI34_11:
	.quad	4596373779694328218     # double 0.20000000000000001
.LCPI34_12:
	.quad	4599075939470750515     # double 0.29999999999999999
.LCPI34_13:
	.quad	4591870180066957722     # double 0.10000000000000001
	.text
	.globl	rc_init_seq.18
	.p2align	4, 0x90
	.type	rc_init_seq.18,@function
rc_init_seq.18:                         # @rc_init_seq.18
	.cfi_startproc
# %bb.0:                                # %entry
	pushq	%rbp
	.cfi_def_cfa_offset 16
	.cfi_offset %rbp, -16
	movq	%rsp, %rbp
	.cfi_def_cfa_register %rbp
	subq	$48, %rsp
	movl	$542478112, -44(%rbp)   # imm = 0x20558F20
	movl	$0, Xp
	movl	$0, Xb
	movq	input, %rax
	vcvtsi2sdl	3240(%rax), %xmm0, %xmm0
	vmovsd	%xmm0, bit_rate
	movq	img, %rax
	vmovss	48(%rax), %xmm0         # xmm0 = mem[0],zero,zero,zero
	movq	input, %rax
	movl	1236(%rax), %eax
	addl	$1, %eax
	vcvtsi2ss	%eax, %xmm0, %xmm1
	vmulss	%xmm1, %xmm0, %xmm0
	movq	input, %rax
	movl	20(%rax), %eax
	addl	$1, %eax
	vcvtsi2ss	%eax, %xmm0, %xmm1
	vdivss	%xmm1, %xmm0, %xmm0
	vcvtss2sd	%xmm0, %xmm0, %xmm0
	vmovsd	%xmm0, frame_rate
	vmovsd	bit_rate, %xmm0         # xmm0 = mem[0],zero
	vmovsd	%xmm0, PreviousBit_Rate
	movq	img, %rax
	movl	60(%rax), %eax
	movq	img, %rcx
	imull	52(%rcx), %eax
	cltd
	movl	$256, %ecx              # imm = 0x100
	idivl	%ecx
	movq	img, %rcx
	movl	%eax, 72608(%rcx)
	movq	input, %rax
	movl	3248(%rax), %eax
	movq	img, %rcx
	cmpl	72608(%rcx), %eax
	jle	.LBB34_2
# %bb.1:                                # %if.then
	movq	img, %rax
	movl	72608(%rax), %eax
	movq	input, %rcx
	movl	%eax, 3248(%rcx)
.LBB34_2:                               # %if.end
	movq	input, %rax
	movl	3248(%rax), %eax
	movq	img, %rcx
	cmpl	72608(%rcx), %eax
	jge	.LBB34_4
# %bb.3:                                # %if.then15
	movq	img, %rax
	movl	72608(%rax), %eax
	movq	input, %rcx
	cltd
	idivl	3248(%rcx)
	movl	%eax, TotalNumberofBasicUnit
.LBB34_4:                               # %if.end19
	vmovsd	.LCPI34_0(%rip), %xmm0  # xmm0 = mem[0],zero
	vmovsd	.LCPI34_1(%rip), %xmm1  # xmm1 = mem[0],zero
	vmovsd	.LCPI34_2(%rip), %xmm2  # xmm2 = mem[0],zero
	vmovsd	%xmm2, MINVALUE
	vmulsd	bit_rate, %xmm1, %xmm1
	vmovsd	%xmm1, BufferSize
	vxorps	%xmm1, %xmm1, %xmm1
	vmovsd	%xmm1, CurrentBufferFullness
	vmovsd	CurrentBufferFullness, %xmm1 # xmm1 = mem[0],zero
	vmovsd	%xmm1, GOPTargetBufferLevel
	vmulsd	BufferSize, %xmm0, %xmm0
	vmovsd	%xmm0, InitialDelayOffset
	movl	$0, m_windowSize
	movl	$0, MADm_windowSize
	movq	img, %rax
	movl	$0, 72560(%rax)
	movq	img, %rax
	movl	$0, 72564(%rax)
	movq	img, %rax
	movl	$0, 72568(%rax)
	movl	$0, R
	movq	input, %rax
	cmpl	$0, 1236(%rax)
	jle	.LBB34_6
# %bb.5:                                # %if.then25
	vmovsd	.LCPI34_4(%rip), %xmm0  # xmm0 = mem[0],zero
	vmovsd	.LCPI34_5(%rip), %xmm1  # xmm1 = mem[0],zero
	vmovsd	%xmm1, GAMMAP
	vmovsd	%xmm0, BETAP
	jmp	.LBB34_7
.LBB34_6:                               # %if.else
	vmovsd	.LCPI34_3(%rip), %xmm0  # xmm0 = mem[0],zero
	vmovsd	%xmm0, GAMMAP
	vmovsd	%xmm0, BETAP
.LBB34_7:                               # %if.end26
	vmovsd	.LCPI34_6(%rip), %xmm0  # xmm0 = mem[0],zero
	movl	$0, PPreHeader
	vmulsd	bit_rate, %xmm0, %xmm1
	vmovsd	%xmm1, Pm_X1
	vxorps	%xmm1, %xmm1, %xmm1
	vmovsd	%xmm1, Pm_X2
	vmovsd	%xmm0, PMADPictureC1
	vmovsd	%xmm1, PMADPictureC2
	movl	$0, -4(%rbp)
.LBB34_8:                               # %for.cond
                                        # =>This Inner Loop Header: Depth=1
	cmpl	$20, -4(%rbp)
	jge	.LBB34_11
# %bb.9:                                # %for.body
                                        #   in Loop: Header=BB34_8 Depth=1
	movslq	-4(%rbp), %rax
	vxorps	%xmm0, %xmm0, %xmm0
	vmovsd	%xmm0, Pm_rgQp(,%rax,8)
	movslq	-4(%rbp), %rax
	vmovsd	%xmm0, Pm_rgRp(,%rax,8)
	movslq	-4(%rbp), %rax
	vmovsd	%xmm0, PPictureMAD(,%rax,8)
# %bb.10:                               # %for.inc
                                        #   in Loop: Header=BB34_8 Depth=1
	movl	-4(%rbp), %eax
	addl	$1, %eax
	movl	%eax, -4(%rbp)
	jmp	.LBB34_8
.LBB34_11:                              # %for.end
	vxorps	%xmm0, %xmm0, %xmm0
	vmovsd	%xmm0, PPictureMAD+160
	movl	$2, PDuantQp
	movl	$0, PAveHeaderBits1
	movl	$0, PAveHeaderBits3
	cmpl	$9, TotalNumberofBasicUnit
	jl	.LBB34_13
# %bb.12:                               # %if.then36
	movl	$1, DDquant
	jmp	.LBB34_14
.LBB34_13:                              # %if.else37
	movl	$2, DDquant
.LBB34_14:                              # %if.end38
	vmovsd	.LCPI34_6(%rip), %xmm0  # xmm0 = mem[0],zero
	movq	img, %rax
	movl	52(%rax), %eax
	cltd
	movl	$16, %ecx
	idivl	%ecx
	movl	%eax, MBPerRow
	movq	img, %rax
	movl	$0, 72600(%rax)
	movl	$51, RC_MAX_QUANT
	movl	$0, RC_MIN_QUANT
	vmulsd	bit_rate, %xmm0, %xmm0
	vmovsd	frame_rate, %xmm1       # xmm1 = mem[0],zero
	movq	img, %rax
	vcvtsi2sdl	52(%rax), %xmm0, %xmm2
	vmulsd	%xmm2, %xmm1, %xmm1
	movq	img, %rax
	vcvtsi2sdl	60(%rax), %xmm0, %xmm2
	vmulsd	%xmm2, %xmm1, %xmm1
	vdivsd	%xmm1, %xmm0, %xmm0
	vmovsd	%xmm0, -32(%rbp)
	movq	img, %rax
	cmpl	$176, 52(%rax)
	jne	.LBB34_16
# %bb.15:                               # %if.then52
	vmovsd	.LCPI34_9(%rip), %xmm0  # xmm0 = mem[0],zero
	vmovsd	.LCPI34_12(%rip), %xmm1 # xmm1 = mem[0],zero
	vmovsd	.LCPI34_13(%rip), %xmm2 # xmm2 = mem[0],zero
	vmovsd	%xmm2, -24(%rbp)
	vmovsd	%xmm1, -40(%rbp)
	vmovsd	%xmm0, -16(%rbp)
	jmp	.LBB34_20
.LBB34_16:                              # %if.else53
	movq	img, %rax
	cmpl	$352, 52(%rax)          # imm = 0x160
	jne	.LBB34_18
# %bb.17:                               # %if.then57
	vmovsd	.LCPI34_10(%rip), %xmm0 # xmm0 = mem[0],zero
	vmovsd	.LCPI34_9(%rip), %xmm1  # xmm1 = mem[0],zero
	vmovsd	.LCPI34_11(%rip), %xmm2 # xmm2 = mem[0],zero
	vmovsd	%xmm2, -24(%rbp)
	vmovsd	%xmm1, -40(%rbp)
	vmovsd	%xmm0, -16(%rbp)
	jmp	.LBB34_19
.LBB34_18:                              # %if.else58
	vmovsd	.LCPI34_7(%rip), %xmm0  # xmm0 = mem[0],zero
	vmovsd	.LCPI34_8(%rip), %xmm1  # xmm1 = mem[0],zero
	vmovsd	.LCPI34_9(%rip), %xmm2  # xmm2 = mem[0],zero
	vmovsd	%xmm2, -24(%rbp)
	vmovsd	%xmm1, -40(%rbp)
	vmovsd	%xmm0, -16(%rbp)
.LBB34_19:                              # %if.end59
	jmp	.LBB34_20
.LBB34_20:                              # %if.end60
	movq	input, %rax
	cmpl	$0, 3244(%rax)
	jne	.LBB34_31
# %bb.21:                               # %if.then63
	vmovsd	-32(%rbp), %xmm0        # xmm0 = mem[0],zero
	vmovsd	-24(%rbp), %xmm1        # xmm1 = mem[0],zero
	vucomisd	%xmm0, %xmm1
	jb	.LBB34_23
# %bb.22:                               # %if.then66
	movl	$35, -8(%rbp)
	jmp	.LBB34_30
.LBB34_23:                              # %if.else67
	vmovsd	-32(%rbp), %xmm0        # xmm0 = mem[0],zero
	vmovsd	-40(%rbp), %xmm1        # xmm1 = mem[0],zero
	vucomisd	%xmm0, %xmm1
	jb	.LBB34_25
# %bb.24:                               # %if.then70
	movl	$25, -8(%rbp)
	jmp	.LBB34_29
.LBB34_25:                              # %if.else71
	vmovsd	-32(%rbp), %xmm0        # xmm0 = mem[0],zero
	vmovsd	-16(%rbp), %xmm1        # xmm1 = mem[0],zero
	vucomisd	%xmm0, %xmm1
	jb	.LBB34_27
# %bb.26:                               # %if.then74
	movl	$20, -8(%rbp)
	jmp	.LBB34_28
.LBB34_27:                              # %if.else75
	movl	$10, -8(%rbp)
.LBB34_28:                              # %if.end76
	jmp	.LBB34_29
.LBB34_29:                              # %if.end77
	jmp	.LBB34_30
.LBB34_30:                              # %if.end78
	movl	-8(%rbp), %eax
	movq	input, %rcx
	movl	%eax, 3244(%rcx)
.LBB34_31:                              # %if.end80
	cmpl	$542478112, -44(%rbp)   # imm = 0x20558F20
	jne	.LBB34_33
.LBB34_32:
	addq	$48, %rsp
	popq	%rbp
	.cfi_def_cfa %rsp, 8
	retq
.LBB34_33:                              # %func_exit
	.cfi_def_cfa %rbp, 16
	callq	detect_breach
	jmp	.LBB34_32
.Lfunc_end34:
	.size	rc_init_seq.18, .Lfunc_end34-rc_init_seq.18
	.cfi_endproc
                                        # -- End function
	.section	.rodata.cst8,"aM",@progbits,8
	.p2align	3               # -- Begin function rc_update_pict_frame.19
.LCPI35_0:
	.quad	4602678819172646912     # double 0.5
.LCPI35_1:
	.quad	4608819927624529320     # double 1.3635999999999999
	.text
	.globl	rc_update_pict_frame.19
	.p2align	4, 0x90
	.type	rc_update_pict_frame.19,@function
rc_update_pict_frame.19:                # @rc_update_pict_frame.19
	.cfi_startproc
# %bb.0:                                # %entry
	pushq	%rbp
	.cfi_def_cfa_offset 16
	.cfi_offset %rbp, -16
	movq	%rsp, %rbp
	.cfi_def_cfa_register %rbp
	subq	$16, %rsp
	movl	$1039891075, -16(%rbp)  # imm = 0x3DFB7A83
	movl	%edi, -8(%rbp)
	movl	$0, -4(%rbp)
	movq	img, %rax
	movl	72620(%rax), %eax
	movq	img, %rcx
	cmpl	72608(%rcx), %eax
	jne	.LBB35_2
# %bb.1:                                # %if.then
	vmovsd	.LCPI35_0(%rip), %xmm0  # xmm0 = mem[0],zero
	movl	-8(%rbp), %eax
	imull	m_Qc, %eax
	vcvtsi2sd	%eax, %xmm0, %xmm1
	vaddsd	%xmm0, %xmm1, %xmm0
	vroundsd	$9, %xmm0, %xmm0, %xmm0
	vcvttsd2si	%xmm0, %eax
	movl	%eax, -4(%rbp)
	jmp	.LBB35_12
.LBB35_2:                               # %if.else
	movq	img, %rax
	cmpl	$0, 24(%rax)
	jne	.LBB35_8
# %bb.3:                                # %if.then4
	movq	img, %rax
	cmpl	$0, 72612(%rax)
	jne	.LBB35_5
# %bb.4:                                # %land.lhs.true
	movq	img, %rax
	cmpl	$1, 72600(%rax)
	je	.LBB35_6
.LBB35_5:                               # %lor.lhs.false
	movq	img, %rax
	cmpl	$0, 72600(%rax)
	jne	.LBB35_7
.LBB35_6:                               # %if.then12
	vmovsd	.LCPI35_0(%rip), %xmm0  # xmm0 = mem[0],zero
	movl	TotalFrameQP, %eax
	cltd
	idivl	TotalNumberofBasicUnit
	movl	%eax, -12(%rbp)
	movl	-8(%rbp), %eax
	imull	-12(%rbp), %eax
	vcvtsi2sd	%eax, %xmm0, %xmm1
	vaddsd	%xmm0, %xmm1, %xmm0
	vroundsd	$9, %xmm0, %xmm0, %xmm0
	vcvttsd2si	%xmm0, %eax
	movl	%eax, -4(%rbp)
.LBB35_7:                               # %if.end
	jmp	.LBB35_11
.LBB35_8:                               # %if.else17
	movq	img, %rax
	cmpl	$1, 24(%rax)
	jne	.LBB35_10
# %bb.9:                                # %if.then21
	vmovsd	.LCPI35_0(%rip), %xmm0  # xmm0 = mem[0],zero
	movl	-8(%rbp), %eax
	imull	m_Qc, %eax
	vcvtsi2sd	%eax, %xmm0, %xmm1
	vaddsd	%xmm0, %xmm1, %xmm0
	vroundsd	$9, %xmm0, %xmm0, %xmm0
	vcvttsd2si	%xmm0, %eax
	movl	%eax, -4(%rbp)
.LBB35_10:                              # %if.end26
	jmp	.LBB35_11
.LBB35_11:                              # %if.end27
	jmp	.LBB35_12
.LBB35_12:                              # %if.end28
	movq	img(%rip), %rax
	movl	24(%rax), %eax
	testl	%eax, %eax
	je	.LBB35_14
	jmp	.LBB35_13
.LBB35_13:                              # %if.end28
	subl	$1, %eax
	je	.LBB35_23
	jmp	.LBB35_24
.LBB35_14:                              # %sw.bb
	movq	img, %rax
	cmpl	$0, 72612(%rax)
	jne	.LBB35_16
# %bb.15:                               # %land.lhs.true33
	movq	img, %rax
	cmpl	$1, 72600(%rax)
	je	.LBB35_17
.LBB35_16:                              # %lor.lhs.false37
	movq	img, %rax
	cmpl	$0, 72600(%rax)
	jne	.LBB35_18
.LBB35_17:                              # %if.then41
	movl	-4(%rbp), %eax
	movl	%eax, Xp
	movl	Np, %eax
	addl	$-1, %eax
	movl	%eax, Np
	vcvtsi2sdl	Xp, %xmm0, %xmm0
	vmovsd	%xmm0, Wp
	movq	img, %rax
	movl	72524(%rax), %eax
	movl	%eax, Pm_Hp
	movq	img, %rax
	movl	72564(%rax), %ecx
	addl	$1, %ecx
	movl	%ecx, 72564(%rax)
	movq	img, %rax
	movl	72576(%rax), %ecx
	addl	$1, %ecx
	movl	%ecx, 72576(%rax)
	jmp	.LBB35_22
.LBB35_18:                              # %if.else44
	movq	img, %rax
	cmpl	$0, 72612(%rax)
	je	.LBB35_21
# %bb.19:                               # %land.lhs.true48
	movq	img, %rax
	cmpl	$1, 72600(%rax)
	jne	.LBB35_21
# %bb.20:                               # %if.then52
	movq	img, %rax
	movl	$0, 72612(%rax)
.LBB35_21:                              # %if.end54
	jmp	.LBB35_22
.LBB35_22:                              # %if.end55
	jmp	.LBB35_24
.LBB35_23:                              # %sw.bb56
	vmovsd	.LCPI35_1(%rip), %xmm0  # xmm0 = mem[0],zero
	movl	-4(%rbp), %eax
	movl	%eax, Xb
	movl	Nb, %eax
	addl	$-1, %eax
	movl	%eax, Nb
	vcvtsi2sdl	Xb, %xmm0, %xmm1
	vdivsd	%xmm0, %xmm1, %xmm0
	vmovsd	%xmm0, Wb
	movq	img, %rax
	movl	72560(%rax), %ecx
	addl	$1, %ecx
	movl	%ecx, 72560(%rax)
	movl	NumberofBFrames, %eax
	addl	$1, %eax
	movl	%eax, NumberofBFrames
.LBB35_24:                              # %sw.epilog
	cmpl	$1039891075, -16(%rbp)  # imm = 0x3DFB7A83
	jne	.LBB35_26
.LBB35_25:
	addq	$16, %rsp
	popq	%rbp
	.cfi_def_cfa %rsp, 8
	retq
.LBB35_26:                              # %func_exit
	.cfi_def_cfa %rbp, 16
	callq	detect_breach
	jmp	.LBB35_25
.Lfunc_end35:
	.size	rc_update_pict_frame.19, .Lfunc_end35-rc_update_pict_frame.19
	.cfi_endproc
                                        # -- End function
	.section	.rodata.cst8,"aM",@progbits,8
	.p2align	3               # -- Begin function calc_MAD.20
.LCPI36_0:
	.quad	4643211215818981376     # double 256
.LCPI36_1:
	.quad	4607182418800017408     # double 1
	.text
	.globl	calc_MAD.20
	.p2align	4, 0x90
	.type	calc_MAD.20,@function
calc_MAD.20:                            # @calc_MAD.20
	.cfi_startproc
# %bb.0:                                # %entry
	pushq	%rbp
	.cfi_def_cfa_offset 16
	.cfi_offset %rbp, -16
	movq	%rsp, %rbp
	.cfi_def_cfa_register %rbp
	subq	$32, %rsp
	movl	$899661819, -16(%rbp)   # imm = 0x359FBFFB
	movl	$0, -12(%rbp)
	movl	$0, -4(%rbp)
.LBB36_1:                               # %for.cond
                                        # =>This Loop Header: Depth=1
                                        #     Child Loop BB36_3 Depth 2
	cmpl	$16, -4(%rbp)
	jge	.LBB36_8
# %bb.2:                                # %for.body
                                        #   in Loop: Header=BB36_1 Depth=1
	movl	$0, -8(%rbp)
.LBB36_3:                               # %for.cond1
                                        #   Parent Loop BB36_1 Depth=1
                                        # =>  This Inner Loop Header: Depth=2
	cmpl	$16, -8(%rbp)
	jge	.LBB36_6
# %bb.4:                                # %for.body3
                                        #   in Loop: Header=BB36_3 Depth=2
	movslq	-4(%rbp), %rax
	shlq	$6, %rax
	movabsq	$diffy, %rcx
	addq	%rax, %rcx
	movslq	-8(%rbp), %rax
	movl	(%rcx,%rax,4), %edi
	callq	abs
	addl	-12(%rbp), %eax
	movl	%eax, -12(%rbp)
# %bb.5:                                # %for.inc
                                        #   in Loop: Header=BB36_3 Depth=2
	movl	-8(%rbp), %eax
	addl	$1, %eax
	movl	%eax, -8(%rbp)
	jmp	.LBB36_3
.LBB36_6:                               # %for.end
                                        #   in Loop: Header=BB36_1 Depth=1
	jmp	.LBB36_7
.LBB36_7:                               # %for.inc6
                                        #   in Loop: Header=BB36_1 Depth=1
	movl	-4(%rbp), %eax
	addl	$1, %eax
	movl	%eax, -4(%rbp)
	jmp	.LBB36_1
.LBB36_8:                               # %for.end8
	vmovsd	.LCPI36_0(%rip), %xmm0  # xmm0 = mem[0],zero
	vmovsd	.LCPI36_1(%rip), %xmm1  # xmm1 = mem[0],zero
	vcvtsi2sdl	-12(%rbp), %xmm0, %xmm2
	vmulsd	%xmm1, %xmm2, %xmm1
	vdivsd	%xmm0, %xmm1, %xmm0
	vmovsd	%xmm0, -32(%rbp)
	vmovsd	-32(%rbp), %xmm0        # xmm0 = mem[0],zero
	cmpl	$899661819, -16(%rbp)   # imm = 0x359FBFFB
	jne	.LBB36_10
.LBB36_9:
	addq	$32, %rsp
	popq	%rbp
	.cfi_def_cfa %rsp, 8
	retq
.LBB36_10:                              # %func_exit
	.cfi_def_cfa %rbp, 16
	vmovsd	%xmm0, -24(%rbp)        # 8-byte Spill
	callq	detect_breach
	vmovsd	-24(%rbp), %xmm0        # 8-byte Reload
                                        # xmm0 = mem[0],zero
	jmp	.LBB36_9
.Lfunc_end36:
	.size	calc_MAD.20, .Lfunc_end36-calc_MAD.20
	.cfi_endproc
                                        # -- End function
	.section	.rodata.cst8,"aM",@progbits,8
	.p2align	3               # -- Begin function updateRCModel.21
.LCPI37_0:
	.quad	4611686018427387904     # double 2
.LCPI37_1:
	.quad	4602678819172646912     # double 0.5
.LCPI37_2:
	.quad	4607182418800017408     # double 1
.LCPI37_3:
	.quad	4626322717216342016     # double 20
	.section	.rodata.cst16,"aM",@progbits,16
	.p2align	4
.LCPI37_4:
	.quad	9223372036854775807     # double NaN
	.quad	9223372036854775807     # double NaN
	.text
	.globl	updateRCModel.21
	.p2align	4, 0x90
	.type	updateRCModel.21,@function
updateRCModel.21:                       # @updateRCModel.21
	.cfi_startproc
# %bb.0:                                # %entry
	pushq	%rbp
	.cfi_def_cfa_offset 16
	.cfi_offset %rbp, -16
	movq	%rsp, %rbp
	.cfi_def_cfa_register %rbp
	subq	$208, %rsp
	movl	$1880014663, -28(%rbp)  # imm = 0x700EBF47
	vxorps	%xmm0, %xmm0, %xmm0
	vmovsd	%xmm0, -24(%rbp)
	movl	$0, -16(%rbp)
	movq	img, %rax
	cmpl	$0, 24(%rax)
	jne	.LBB37_68
# %bb.1:                                # %if.then
	movq	img, %rax
	movl	72620(%rax), %eax
	movq	img, %rcx
	cmpl	72608(%rcx), %eax
	jne	.LBB37_3
# %bb.2:                                # %if.then2
	callq	ComputeFrameMAD
	vmovsd	%xmm0, CurrentFrameMAD
	movq	img, %rax
	movl	72564(%rax), %eax
	movl	%eax, -12(%rbp)
	jmp	.LBB37_21
.LBB37_3:                               # %if.else
	movq	input, %rax
	cmpl	$0, 2884(%rax)
	je	.LBB37_6
# %bb.4:                                # %land.lhs.true
	movq	img, %rax
	cmpl	$0, 72600(%rax)
	jne	.LBB37_6
# %bb.5:                                # %if.then4
	vmovsd	.LCPI37_0(%rip), %xmm0  # xmm0 = mem[0],zero
	movq	img, %rax
	vmovsd	72544(%rax), %xmm1      # xmm1 = mem[0],zero
	movq	img, %rax
	vcvtsi2sdl	72620(%rax), %xmm0, %xmm2
	vdivsd	%xmm2, %xmm1, %xmm1
	vdivsd	%xmm0, %xmm1, %xmm0
	vmovsd	%xmm0, CurrentFrameMAD
	jmp	.LBB37_7
.LBB37_6:                               # %if.else7
	movq	img, %rax
	vmovsd	72544(%rax), %xmm0      # xmm0 = mem[0],zero
	movq	img, %rax
	vcvtsi2sdl	72620(%rax), %xmm0, %xmm1
	vdivsd	%xmm1, %xmm0, %xmm0
	vmovsd	%xmm0, CurrentFrameMAD
.LBB37_7:                               # %if.end
	movq	img, %rax
	vxorps	%xmm0, %xmm0, %xmm0
	vmovsd	%xmm0, 72544(%rax)
	movl	TotalNumberofBasicUnit, %eax
	subl	NumberofBasicUnit, %eax
	movl	%eax, CodedBasicUnit
	cmpl	$0, CodedBasicUnit
	jle	.LBB37_12
# %bb.8:                                # %if.then15
	vmovsd	.LCPI37_1(%rip), %xmm0  # xmm0 = mem[0],zero
	vmovsd	.LCPI37_2(%rip), %xmm1  # xmm1 = mem[0],zero
	movl	PAveHeaderBits1, %eax
	movl	CodedBasicUnit, %ecx
	subl	$1, %ecx
	imull	%ecx, %eax
	movq	img, %rcx
	addl	72532(%rcx), %eax
	vcvtsi2sd	%eax, %xmm0, %xmm2
	vmulsd	%xmm2, %xmm1, %xmm1
	vcvtsi2sdl	CodedBasicUnit, %xmm0, %xmm2
	vdivsd	%xmm2, %xmm1, %xmm1
	vaddsd	%xmm0, %xmm1, %xmm0
	vcvttsd2si	%xmm0, %eax
	movl	%eax, PAveHeaderBits1
	cmpl	$0, PAveHeaderBits3
	jne	.LBB37_10
# %bb.9:                                # %if.then25
	movl	PAveHeaderBits1, %eax
	movl	%eax, PAveHeaderBits2
	jmp	.LBB37_11
.LBB37_10:                              # %if.else26
	vmovsd	.LCPI37_1(%rip), %xmm0  # xmm0 = mem[0],zero
	vmovsd	.LCPI37_2(%rip), %xmm1  # xmm1 = mem[0],zero
	movl	PAveHeaderBits1, %eax
	imull	CodedBasicUnit, %eax
	movl	PAveHeaderBits3, %ecx
	imull	NumberofBasicUnit, %ecx
	addl	%ecx, %eax
	vcvtsi2sd	%eax, %xmm0, %xmm2
	vmulsd	%xmm2, %xmm1, %xmm1
	vcvtsi2sdl	TotalNumberofBasicUnit, %xmm0, %xmm2
	vdivsd	%xmm2, %xmm1, %xmm1
	vaddsd	%xmm0, %xmm1, %xmm0
	vcvttsd2si	%xmm0, %eax
	movl	%eax, PAveHeaderBits2
.LBB37_11:                              # %if.end36
	jmp	.LBB37_12
.LBB37_12:                              # %if.end37
	movq	input, %rax
	cmpl	$2, 2880(%rax)
	je	.LBB37_14
# %bb.13:                               # %lor.lhs.false
	movq	input, %rax
	cmpl	$0, 2884(%rax)
	je	.LBB37_16
.LBB37_14:                              # %land.lhs.true42
	movq	img, %rax
	cmpl	$1, 72600(%rax)
	jne	.LBB37_16
# %bb.15:                               # %if.then46
	vmovsd	CurrentFrameMAD, %xmm0  # xmm0 = mem[0],zero
	movq	FCBUCFMAD, %rax
	movl	TotalNumberofBasicUnit, %ecx
	subl	$1, %ecx
	subl	NumberofBasicUnit, %ecx
	movslq	%ecx, %rcx
	vmovsd	%xmm0, (%rax,%rcx,8)
	jmp	.LBB37_17
.LBB37_16:                              # %if.else49
	vmovsd	CurrentFrameMAD, %xmm0  # xmm0 = mem[0],zero
	movq	BUCFMAD, %rax
	movl	TotalNumberofBasicUnit, %ecx
	subl	$1, %ecx
	subl	NumberofBasicUnit, %ecx
	movslq	%ecx, %rcx
	vmovsd	%xmm0, (%rax,%rcx,8)
.LBB37_17:                              # %if.end54
	cmpl	$0, NumberofBasicUnit
	je	.LBB37_19
# %bb.18:                               # %if.then57
	movq	img, %rax
	movl	72564(%rax), %eax
	imull	TotalNumberofBasicUnit, %eax
	addl	CodedBasicUnit, %eax
	movl	%eax, -12(%rbp)
	jmp	.LBB37_20
.LBB37_19:                              # %if.else61
	movq	img, %rax
	movl	72564(%rax), %eax
	subl	$1, %eax
	imull	TotalNumberofBasicUnit, %eax
	addl	CodedBasicUnit, %eax
	movl	%eax, -12(%rbp)
.LBB37_20:                              # %if.end66
	jmp	.LBB37_21
.LBB37_21:                              # %if.end67
	cmpl	$1, -12(%rbp)
	jle	.LBB37_23
# %bb.22:                               # %if.then70
	movl	$1, -16(%rbp)
.LBB37_23:                              # %if.end71
	movq	img, %rax
	movl	72524(%rax), %eax
	movl	%eax, PPreHeader
	movl	$19, -4(%rbp)
.LBB37_24:                              # %for.cond
                                        # =>This Inner Loop Header: Depth=1
	cmpl	$0, -4(%rbp)
	jle	.LBB37_27
# %bb.25:                               # %for.body
                                        #   in Loop: Header=BB37_24 Depth=1
	movl	-4(%rbp), %eax
	subl	$1, %eax
	cltq
	vmovsd	Pm_rgQp(,%rax,8), %xmm0 # xmm0 = mem[0],zero
	movslq	-4(%rbp), %rax
	vmovsd	%xmm0, Pm_rgQp(,%rax,8)
	movslq	-4(%rbp), %rax
	vmovsd	Pm_rgQp(,%rax,8), %xmm0 # xmm0 = mem[0],zero
	movslq	-4(%rbp), %rax
	vmovsd	%xmm0, m_rgQp(,%rax,8)
	movl	-4(%rbp), %eax
	subl	$1, %eax
	cltq
	vmovsd	Pm_rgRp(,%rax,8), %xmm0 # xmm0 = mem[0],zero
	movslq	-4(%rbp), %rax
	vmovsd	%xmm0, Pm_rgRp(,%rax,8)
	movslq	-4(%rbp), %rax
	vmovsd	Pm_rgRp(,%rax,8), %xmm0 # xmm0 = mem[0],zero
	movslq	-4(%rbp), %rax
	vmovsd	%xmm0, m_rgRp(,%rax,8)
# %bb.26:                               # %for.inc
                                        #   in Loop: Header=BB37_24 Depth=1
	movl	-4(%rbp), %eax
	addl	$-1, %eax
	movl	%eax, -4(%rbp)
	jmp	.LBB37_24
.LBB37_27:                              # %for.end
	movl	m_Qc, %edi
	callq	QP2Qstep
	vmovsd	%xmm0, Pm_rgQp
	movq	img, %rax
	movl	72620(%rax), %eax
	movq	img, %rcx
	cmpl	72608(%rcx), %eax
	jne	.LBB37_29
# %bb.28:                               # %if.then97
	vmovsd	.LCPI37_2(%rip), %xmm0  # xmm0 = mem[0],zero
	movq	img, %rax
	vcvtsi2sdl	72528(%rax), %xmm0, %xmm1
	vmulsd	%xmm0, %xmm1, %xmm0
	vdivsd	CurrentFrameMAD, %xmm0, %xmm0
	vmovsd	%xmm0, Pm_rgRp
	jmp	.LBB37_30
.LBB37_29:                              # %if.else101
	vmovsd	.LCPI37_2(%rip), %xmm0  # xmm0 = mem[0],zero
	movq	img, %rax
	vcvtsi2sdl	72536(%rax), %xmm0, %xmm1
	vmulsd	%xmm0, %xmm1, %xmm0
	vdivsd	CurrentFrameMAD, %xmm0, %xmm0
	vmovsd	%xmm0, Pm_rgRp
.LBB37_30:                              # %if.end105
	vmovsd	Pm_rgQp, %xmm0          # xmm0 = mem[0],zero
	vmovsd	%xmm0, m_rgQp
	vmovsd	Pm_rgRp, %xmm0          # xmm0 = mem[0],zero
	vmovsd	%xmm0, m_rgRp
	vmovsd	Pm_X1, %xmm0            # xmm0 = mem[0],zero
	vmovsd	%xmm0, m_X1
	vmovsd	Pm_X2, %xmm0            # xmm0 = mem[0],zero
	vmovsd	%xmm0, m_X2
	vmovsd	CurrentFrameMAD, %xmm0  # xmm0 = mem[0],zero
	vucomisd	PreviousFrameMAD, %xmm0
	jbe	.LBB37_32
# %bb.31:                               # %cond.true
	vmovsd	.LCPI37_3(%rip), %xmm0  # xmm0 = mem[0],zero
	vmovsd	PreviousFrameMAD, %xmm1 # xmm1 = mem[0],zero
	vdivsd	CurrentFrameMAD, %xmm1, %xmm1
	vmulsd	%xmm0, %xmm1, %xmm0
	vcvttsd2si	%xmm0, %eax
	jmp	.LBB37_33
.LBB37_32:                              # %cond.false
	vmovsd	.LCPI37_3(%rip), %xmm0  # xmm0 = mem[0],zero
	vmovsd	CurrentFrameMAD, %xmm1  # xmm1 = mem[0],zero
	vdivsd	PreviousFrameMAD, %xmm1, %xmm1
	vmulsd	%xmm0, %xmm1, %xmm0
	vcvttsd2si	%xmm0, %eax
.LBB37_33:                              # %cond.end
	movl	%eax, -8(%rbp)
	cmpl	$1, -8(%rbp)
	jge	.LBB37_35
# %bb.34:                               # %cond.true116
	movl	$1, %eax
	jmp	.LBB37_36
.LBB37_35:                              # %cond.false117
	movl	-8(%rbp), %eax
.LBB37_36:                              # %cond.end118
	movl	%eax, -8(%rbp)
	movl	-8(%rbp), %eax
	cmpl	-12(%rbp), %eax
	jge	.LBB37_38
# %bb.37:                               # %cond.true122
	movl	-8(%rbp), %eax
	jmp	.LBB37_39
.LBB37_38:                              # %cond.false123
	movl	-12(%rbp), %eax
.LBB37_39:                              # %cond.end124
	movl	%eax, -8(%rbp)
	movl	-8(%rbp), %eax
	movl	m_windowSize, %ecx
	addl	$1, %ecx
	cmpl	%ecx, %eax
	jge	.LBB37_41
# %bb.40:                               # %cond.true129
	movl	-8(%rbp), %eax
	jmp	.LBB37_42
.LBB37_41:                              # %cond.false130
	movl	m_windowSize, %eax
	addl	$1, %eax
.LBB37_42:                              # %cond.end132
	movl	%eax, -8(%rbp)
	cmpl	$20, -8(%rbp)
	jge	.LBB37_44
# %bb.43:                               # %cond.true136
	movl	-8(%rbp), %eax
	jmp	.LBB37_45
.LBB37_44:                              # %cond.false137
	movl	$20, %eax
	jmp	.LBB37_45
.LBB37_45:                              # %cond.end138
	movl	%eax, -8(%rbp)
	movl	-8(%rbp), %eax
	movl	%eax, m_windowSize
	movl	$0, -4(%rbp)
.LBB37_46:                              # %for.cond140
                                        # =>This Inner Loop Header: Depth=1
	cmpl	$20, -4(%rbp)
	jge	.LBB37_49
# %bb.47:                               # %for.body143
                                        #   in Loop: Header=BB37_46 Depth=1
	movslq	-4(%rbp), %rax
	movl	$0, m_rgRejected(,%rax,4)
# %bb.48:                               # %for.inc146
                                        #   in Loop: Header=BB37_46 Depth=1
	movl	-4(%rbp), %eax
	addl	$1, %eax
	movl	%eax, -4(%rbp)
	jmp	.LBB37_46
.LBB37_49:                              # %for.end147
	movl	-8(%rbp), %edi
	callq	RCModelEstimator
	movl	m_windowSize, %eax
	movl	%eax, -8(%rbp)
	movl	$0, -4(%rbp)
.LBB37_50:                              # %for.cond148
                                        # =>This Inner Loop Header: Depth=1
	movl	-4(%rbp), %eax
	cmpl	-8(%rbp), %eax
	jge	.LBB37_53
# %bb.51:                               # %for.body151
                                        #   in Loop: Header=BB37_50 Depth=1
	vmovsd	m_X1, %xmm0             # xmm0 = mem[0],zero
	movslq	-4(%rbp), %rax
	vdivsd	m_rgQp(,%rax,8), %xmm0, %xmm0
	vmovsd	m_X2, %xmm1             # xmm1 = mem[0],zero
	movslq	-4(%rbp), %rax
	vmovsd	m_rgQp(,%rax,8), %xmm2  # xmm2 = mem[0],zero
	movslq	-4(%rbp), %rax
	vmulsd	m_rgQp(,%rax,8), %xmm2, %xmm2
	vdivsd	%xmm2, %xmm1, %xmm1
	vaddsd	%xmm1, %xmm0, %xmm0
	movslq	-4(%rbp), %rax
	vsubsd	m_rgRp(,%rax,8), %xmm0, %xmm0
	movslq	-4(%rbp), %rax
	vmovsd	%xmm0, -208(%rbp,%rax,8)
	movslq	-4(%rbp), %rax
	vmovsd	-208(%rbp,%rax,8), %xmm0 # xmm0 = mem[0],zero
	movslq	-4(%rbp), %rax
	vmulsd	-208(%rbp,%rax,8), %xmm0, %xmm0
	vaddsd	-24(%rbp), %xmm0, %xmm0
	vmovsd	%xmm0, -24(%rbp)
# %bb.52:                               # %for.inc173
                                        #   in Loop: Header=BB37_50 Depth=1
	movl	-4(%rbp), %eax
	addl	$1, %eax
	movl	%eax, -4(%rbp)
	jmp	.LBB37_50
.LBB37_53:                              # %for.end175
	cmpl	$2, -8(%rbp)
	jne	.LBB37_55
# %bb.54:                               # %cond.true178
	vxorps	%xmm0, %xmm0, %xmm0
	jmp	.LBB37_56
.LBB37_55:                              # %cond.false179
	vmovsd	-24(%rbp), %xmm0        # xmm0 = mem[0],zero
	vcvtsi2sdl	-8(%rbp), %xmm0, %xmm1
	vdivsd	%xmm1, %xmm0, %xmm0
	callq	sqrt
.LBB37_56:                              # %cond.end183
	vmovsd	%xmm0, -40(%rbp)
	movl	$0, -4(%rbp)
.LBB37_57:                              # %for.cond185
                                        # =>This Inner Loop Header: Depth=1
	movl	-4(%rbp), %eax
	cmpl	-8(%rbp), %eax
	jge	.LBB37_62
# %bb.58:                               # %for.body188
                                        #   in Loop: Header=BB37_57 Depth=1
	movslq	-4(%rbp), %rax
	vmovsd	-208(%rbp,%rax,8), %xmm0 # xmm0 = mem[0],zero
	vmovdqa	.LCPI37_4(%rip), %xmm1  # xmm1 = [NaN,NaN]
	vpand	%xmm1, %xmm0, %xmm0
	vucomisd	-40(%rbp), %xmm0
	jbe	.LBB37_60
# %bb.59:                               # %if.then193
                                        #   in Loop: Header=BB37_57 Depth=1
	movslq	-4(%rbp), %rax
	movl	$1, m_rgRejected(,%rax,4)
.LBB37_60:                              # %if.end196
                                        #   in Loop: Header=BB37_57 Depth=1
	jmp	.LBB37_61
.LBB37_61:                              # %for.inc197
                                        #   in Loop: Header=BB37_57 Depth=1
	movl	-4(%rbp), %eax
	addl	$1, %eax
	movl	%eax, -4(%rbp)
	jmp	.LBB37_57
.LBB37_62:                              # %for.end199
	movl	$0, m_rgRejected
	movl	-8(%rbp), %edi
	callq	RCModelEstimator
	cmpl	$0, -16(%rbp)
	je	.LBB37_64
# %bb.63:                               # %if.then201
	callq	updateMADModel
	jmp	.LBB37_67
.LBB37_64:                              # %if.else202
	movq	img, %rax
	cmpl	$0, 24(%rax)
	jne	.LBB37_66
# %bb.65:                               # %if.then206
	vmovsd	CurrentFrameMAD, %xmm0  # xmm0 = mem[0],zero
	vmovsd	%xmm0, PPictureMAD
.LBB37_66:                              # %if.end207
	jmp	.LBB37_67
.LBB37_67:                              # %if.end208
	jmp	.LBB37_68
.LBB37_68:                              # %if.end209
	cmpl	$1880014663, -28(%rbp)  # imm = 0x700EBF47
	jne	.LBB37_70
.LBB37_69:
	addq	$208, %rsp
	popq	%rbp
	.cfi_def_cfa %rsp, 8
	retq
.LBB37_70:                              # %func_exit
	.cfi_def_cfa %rbp, 16
	callq	detect_breach
	jmp	.LBB37_69
.Lfunc_end37:
	.size	updateRCModel.21, .Lfunc_end37-updateRCModel.21
	.cfi_endproc
                                        # -- End function
	.section	.rodata.cst8,"aM",@progbits,8
	.p2align	3               # -- Begin function updateMADModel.22
.LCPI38_0:
	.quad	4626322717216342016     # double 20
	.section	.rodata.cst16,"aM",@progbits,16
	.p2align	4
.LCPI38_1:
	.quad	9223372036854775807     # double NaN
	.quad	9223372036854775807     # double NaN
	.text
	.globl	updateMADModel.22
	.p2align	4, 0x90
	.type	updateMADModel.22,@function
updateMADModel.22:                      # @updateMADModel.22
	.cfi_startproc
# %bb.0:                                # %entry
	pushq	%rbp
	.cfi_def_cfa_offset 16
	.cfi_offset %rbp, -16
	movq	%rsp, %rbp
	.cfi_def_cfa_register %rbp
	subq	$208, %rsp
	movl	$1201710659, -28(%rbp)  # imm = 0x47A0A643
	vxorps	%xmm0, %xmm0, %xmm0
	vmovsd	%xmm0, -24(%rbp)
	movq	img, %rax
	cmpl	$0, 72564(%rax)
	jle	.LBB38_51
# %bb.1:                                # %if.then
	movq	img, %rax
	movl	72620(%rax), %eax
	movq	img, %rcx
	cmpl	72608(%rcx), %eax
	jne	.LBB38_3
# %bb.2:                                # %if.then2
	movq	img, %rax
	movl	72564(%rax), %eax
	movl	%eax, -12(%rbp)
	jmp	.LBB38_4
.LBB38_3:                               # %if.else
	movq	img, %rax
	movl	72564(%rax), %eax
	imull	TotalNumberofBasicUnit, %eax
	addl	CodedBasicUnit, %eax
	movl	%eax, -12(%rbp)
.LBB38_4:                               # %if.end
	movl	$19, -4(%rbp)
.LBB38_5:                               # %for.cond
                                        # =>This Inner Loop Header: Depth=1
	cmpl	$0, -4(%rbp)
	jle	.LBB38_8
# %bb.6:                                # %for.body
                                        #   in Loop: Header=BB38_5 Depth=1
	movl	-4(%rbp), %eax
	subl	$1, %eax
	cltq
	vmovsd	PPictureMAD(,%rax,8), %xmm0 # xmm0 = mem[0],zero
	movslq	-4(%rbp), %rax
	vmovsd	%xmm0, PPictureMAD(,%rax,8)
	movslq	-4(%rbp), %rax
	vmovsd	PPictureMAD(,%rax,8), %xmm0 # xmm0 = mem[0],zero
	movslq	-4(%rbp), %rax
	vmovsd	%xmm0, PictureMAD(,%rax,8)
	movl	-4(%rbp), %eax
	subl	$1, %eax
	cltq
	vmovsd	ReferenceMAD(,%rax,8), %xmm0 # xmm0 = mem[0],zero
	movslq	-4(%rbp), %rax
	vmovsd	%xmm0, ReferenceMAD(,%rax,8)
# %bb.7:                                # %for.inc
                                        #   in Loop: Header=BB38_5 Depth=1
	movl	-4(%rbp), %eax
	addl	$-1, %eax
	movl	%eax, -4(%rbp)
	jmp	.LBB38_5
.LBB38_8:                               # %for.end
	vmovsd	CurrentFrameMAD, %xmm0  # xmm0 = mem[0],zero
	vmovsd	%xmm0, PPictureMAD
	vmovsd	PPictureMAD, %xmm0      # xmm0 = mem[0],zero
	vmovsd	%xmm0, PictureMAD
	movq	img, %rax
	movl	72620(%rax), %eax
	movq	img, %rcx
	cmpl	72608(%rcx), %eax
	jne	.LBB38_10
# %bb.9:                                # %if.then20
	vmovsd	PictureMAD+8, %xmm0     # xmm0 = mem[0],zero
	vmovsd	%xmm0, ReferenceMAD
	jmp	.LBB38_16
.LBB38_10:                              # %if.else21
	movq	input, %rax
	cmpl	$2, 2880(%rax)
	je	.LBB38_12
# %bb.11:                               # %lor.lhs.false
	movq	input, %rax
	cmpl	$0, 2884(%rax)
	je	.LBB38_14
.LBB38_12:                              # %land.lhs.true
	movq	img, %rax
	cmpl	$1, 72600(%rax)
	jne	.LBB38_14
# %bb.13:                               # %if.then24
	movq	FCBUPFMAD, %rax
	movl	TotalNumberofBasicUnit, %ecx
	subl	$1, %ecx
	subl	NumberofBasicUnit, %ecx
	movslq	%ecx, %rcx
	vmovsd	(%rax,%rcx,8), %xmm0    # xmm0 = mem[0],zero
	vmovsd	%xmm0, ReferenceMAD
	jmp	.LBB38_15
.LBB38_14:                              # %if.else29
	movq	BUPFMAD, %rax
	movl	TotalNumberofBasicUnit, %ecx
	subl	$1, %ecx
	subl	NumberofBasicUnit, %ecx
	movslq	%ecx, %rcx
	vmovsd	(%rax,%rcx,8), %xmm0    # xmm0 = mem[0],zero
	vmovsd	%xmm0, ReferenceMAD
.LBB38_15:                              # %if.end34
	jmp	.LBB38_16
.LBB38_16:                              # %if.end35
	vmovsd	PMADPictureC1, %xmm0    # xmm0 = mem[0],zero
	vmovsd	%xmm0, MADPictureC1
	vmovsd	PMADPictureC2, %xmm0    # xmm0 = mem[0],zero
	vmovsd	%xmm0, MADPictureC2
	vmovsd	CurrentFrameMAD, %xmm0  # xmm0 = mem[0],zero
	vucomisd	PreviousFrameMAD, %xmm0
	jbe	.LBB38_18
# %bb.17:                               # %cond.true
	vmovsd	.LCPI38_0(%rip), %xmm0  # xmm0 = mem[0],zero
	vmovsd	PreviousFrameMAD, %xmm1 # xmm1 = mem[0],zero
	vdivsd	CurrentFrameMAD, %xmm1, %xmm1
	vmulsd	%xmm0, %xmm1, %xmm0
	vcvttsd2si	%xmm0, %eax
	jmp	.LBB38_19
.LBB38_18:                              # %cond.false
	vmovsd	.LCPI38_0(%rip), %xmm0  # xmm0 = mem[0],zero
	vmovsd	CurrentFrameMAD, %xmm1  # xmm1 = mem[0],zero
	vdivsd	PreviousFrameMAD, %xmm1, %xmm1
	vmulsd	%xmm0, %xmm1, %xmm0
	vcvttsd2si	%xmm0, %eax
.LBB38_19:                              # %cond.end
	movl	%eax, -8(%rbp)
	movl	-8(%rbp), %eax
	movl	-12(%rbp), %ecx
	subl	$1, %ecx
	cmpl	%ecx, %eax
	jge	.LBB38_21
# %bb.20:                               # %cond.true44
	movl	-8(%rbp), %eax
	jmp	.LBB38_22
.LBB38_21:                              # %cond.false45
	movl	-12(%rbp), %eax
	subl	$1, %eax
.LBB38_22:                              # %cond.end47
	movl	%eax, -8(%rbp)
	cmpl	$1, -8(%rbp)
	jge	.LBB38_24
# %bb.23:                               # %cond.true51
	movl	$1, %eax
	jmp	.LBB38_25
.LBB38_24:                              # %cond.false52
	movl	-8(%rbp), %eax
.LBB38_25:                              # %cond.end53
	movl	%eax, -8(%rbp)
	movl	-8(%rbp), %eax
	movl	MADm_windowSize, %ecx
	addl	$1, %ecx
	cmpl	%ecx, %eax
	jge	.LBB38_27
# %bb.26:                               # %cond.true58
	movl	-8(%rbp), %eax
	jmp	.LBB38_28
.LBB38_27:                              # %cond.false59
	movl	MADm_windowSize, %eax
	addl	$1, %eax
.LBB38_28:                              # %cond.end61
	movl	%eax, -8(%rbp)
	movl	$20, %eax
	cmpl	-8(%rbp), %eax
	jge	.LBB38_30
# %bb.29:                               # %cond.true65
	movl	$20, %eax
	jmp	.LBB38_31
.LBB38_30:                              # %cond.false66
	movl	-8(%rbp), %eax
.LBB38_31:                              # %cond.end67
	movl	%eax, -8(%rbp)
	movl	-8(%rbp), %eax
	movl	%eax, MADm_windowSize
	movl	$0, -4(%rbp)
.LBB38_32:                              # %for.cond69
                                        # =>This Inner Loop Header: Depth=1
	cmpl	$20, -4(%rbp)
	jge	.LBB38_35
# %bb.33:                               # %for.body72
                                        #   in Loop: Header=BB38_32 Depth=1
	movslq	-4(%rbp), %rax
	movl	$0, PictureRejected(,%rax,4)
# %bb.34:                               # %for.inc75
                                        #   in Loop: Header=BB38_32 Depth=1
	movl	-4(%rbp), %eax
	addl	$1, %eax
	movl	%eax, -4(%rbp)
	jmp	.LBB38_32
.LBB38_35:                              # %for.end76
	movq	img, %rax
	cmpl	$0, 24(%rax)
	jne	.LBB38_37
# %bb.36:                               # %if.then79
	vmovsd	CurrentFrameMAD, %xmm0  # xmm0 = mem[0],zero
	vmovsd	%xmm0, PreviousFrameMAD
.LBB38_37:                              # %if.end80
	movl	-8(%rbp), %edi
	callq	MADModelEstimator
	movl	$0, -4(%rbp)
.LBB38_38:                              # %for.cond81
                                        # =>This Inner Loop Header: Depth=1
	movl	-4(%rbp), %eax
	cmpl	-8(%rbp), %eax
	jge	.LBB38_41
# %bb.39:                               # %for.body84
                                        #   in Loop: Header=BB38_38 Depth=1
	vmovsd	MADPictureC1, %xmm0     # xmm0 = mem[0],zero
	movslq	-4(%rbp), %rax
	vmulsd	ReferenceMAD(,%rax,8), %xmm0, %xmm0
	vaddsd	MADPictureC2, %xmm0, %xmm0
	movslq	-4(%rbp), %rax
	vsubsd	PictureMAD(,%rax,8), %xmm0, %xmm0
	movslq	-4(%rbp), %rax
	vmovsd	%xmm0, -208(%rbp,%rax,8)
	movslq	-4(%rbp), %rax
	vmovsd	-208(%rbp,%rax,8), %xmm0 # xmm0 = mem[0],zero
	movslq	-4(%rbp), %rax
	vmulsd	-208(%rbp,%rax,8), %xmm0, %xmm0
	vaddsd	-24(%rbp), %xmm0, %xmm0
	vmovsd	%xmm0, -24(%rbp)
# %bb.40:                               # %for.inc100
                                        #   in Loop: Header=BB38_38 Depth=1
	movl	-4(%rbp), %eax
	addl	$1, %eax
	movl	%eax, -4(%rbp)
	jmp	.LBB38_38
.LBB38_41:                              # %for.end102
	cmpl	$2, -8(%rbp)
	jne	.LBB38_43
# %bb.42:                               # %cond.true105
	vxorps	%xmm0, %xmm0, %xmm0
	jmp	.LBB38_44
.LBB38_43:                              # %cond.false106
	vmovsd	-24(%rbp), %xmm0        # xmm0 = mem[0],zero
	vcvtsi2sdl	-8(%rbp), %xmm0, %xmm1
	vdivsd	%xmm1, %xmm0, %xmm0
	callq	sqrt
.LBB38_44:                              # %cond.end109
	vmovsd	%xmm0, -40(%rbp)
	movl	$0, -4(%rbp)
.LBB38_45:                              # %for.cond111
                                        # =>This Inner Loop Header: Depth=1
	movl	-4(%rbp), %eax
	cmpl	-8(%rbp), %eax
	jge	.LBB38_50
# %bb.46:                               # %for.body114
                                        #   in Loop: Header=BB38_45 Depth=1
	movslq	-4(%rbp), %rax
	vmovsd	-208(%rbp,%rax,8), %xmm0 # xmm0 = mem[0],zero
	vmovdqa	.LCPI38_1(%rip), %xmm1  # xmm1 = [NaN,NaN]
	vpand	%xmm1, %xmm0, %xmm0
	vucomisd	-40(%rbp), %xmm0
	jbe	.LBB38_48
# %bb.47:                               # %if.then119
                                        #   in Loop: Header=BB38_45 Depth=1
	movslq	-4(%rbp), %rax
	movl	$1, PictureRejected(,%rax,4)
.LBB38_48:                              # %if.end122
                                        #   in Loop: Header=BB38_45 Depth=1
	jmp	.LBB38_49
.LBB38_49:                              # %for.inc123
                                        #   in Loop: Header=BB38_45 Depth=1
	movl	-4(%rbp), %eax
	addl	$1, %eax
	movl	%eax, -4(%rbp)
	jmp	.LBB38_45
.LBB38_50:                              # %for.end125
	movl	$0, PictureRejected
	movl	-8(%rbp), %edi
	callq	MADModelEstimator
.LBB38_51:                              # %if.end126
	cmpl	$1201710659, -28(%rbp)  # imm = 0x47A0A643
	jne	.LBB38_53
.LBB38_52:
	addq	$208, %rsp
	popq	%rbp
	.cfi_def_cfa %rsp, 8
	retq
.LBB38_53:                              # %func_exit
	.cfi_def_cfa %rbp, 16
	callq	detect_breach
	jmp	.LBB38_52
.Lfunc_end38:
	.size	updateMADModel.22, .Lfunc_end38-updateMADModel.22
	.cfi_endproc
                                        # -- End function
	.section	.rodata.cst8,"aM",@progbits,8
	.p2align	3               # -- Begin function rc_init_seq.23
.LCPI39_0:
	.quad	4605380978949069210     # double 0.80000000000000004
.LCPI39_1:
	.quad	4612947026323051643     # double 2.5600000000000001
.LCPI39_2:
	.quad	4616189618054758400     # double 4
.LCPI39_3:
	.quad	4602678819172646912     # double 0.5
.LCPI39_4:
	.quad	4606281698874543309     # double 0.90000000000000002
.LCPI39_5:
	.quad	4598175219545276416     # double 0.25
.LCPI39_6:
	.quad	4607182418800017408     # double 1
.LCPI39_7:
	.quad	4612586738352862003     # double 2.3999999999999999
.LCPI39_8:
	.quad	4608983858650965606     # double 1.3999999999999999
.LCPI39_9:
	.quad	4603579539098121011     # double 0.59999999999999998
.LCPI39_10:
	.quad	4608083138725491507     # double 1.2
.LCPI39_11:
	.quad	4596373779694328218     # double 0.20000000000000001
.LCPI39_12:
	.quad	4599075939470750515     # double 0.29999999999999999
.LCPI39_13:
	.quad	4591870180066957722     # double 0.10000000000000001
	.text
	.globl	rc_init_seq.23
	.p2align	4, 0x90
	.type	rc_init_seq.23,@function
rc_init_seq.23:                         # @rc_init_seq.23
	.cfi_startproc
# %bb.0:                                # %entry
	pushq	%rbp
	.cfi_def_cfa_offset 16
	.cfi_offset %rbp, -16
	movq	%rsp, %rbp
	.cfi_def_cfa_register %rbp
	subq	$48, %rsp
	movl	$1299892385, -44(%rbp)  # imm = 0x4D7AC8A1
	movl	$0, Xp
	movl	$0, Xb
	movq	input, %rax
	vcvtsi2sdl	3240(%rax), %xmm0, %xmm0
	vmovsd	%xmm0, bit_rate
	movq	img, %rax
	vmovss	48(%rax), %xmm0         # xmm0 = mem[0],zero,zero,zero
	movq	input, %rax
	movl	1236(%rax), %eax
	addl	$1, %eax
	vcvtsi2ss	%eax, %xmm0, %xmm1
	vmulss	%xmm1, %xmm0, %xmm0
	movq	input, %rax
	movl	20(%rax), %eax
	addl	$1, %eax
	vcvtsi2ss	%eax, %xmm0, %xmm1
	vdivss	%xmm1, %xmm0, %xmm0
	vcvtss2sd	%xmm0, %xmm0, %xmm0
	vmovsd	%xmm0, frame_rate
	vmovsd	bit_rate, %xmm0         # xmm0 = mem[0],zero
	vmovsd	%xmm0, PreviousBit_Rate
	movq	img, %rax
	movl	60(%rax), %eax
	movq	img, %rcx
	imull	52(%rcx), %eax
	cltd
	movl	$256, %ecx              # imm = 0x100
	idivl	%ecx
	movq	img, %rcx
	movl	%eax, 72608(%rcx)
	movq	input, %rax
	movl	3248(%rax), %eax
	movq	img, %rcx
	cmpl	72608(%rcx), %eax
	jle	.LBB39_2
# %bb.1:                                # %if.then
	movq	img, %rax
	movl	72608(%rax), %eax
	movq	input, %rcx
	movl	%eax, 3248(%rcx)
.LBB39_2:                               # %if.end
	movq	input, %rax
	movl	3248(%rax), %eax
	movq	img, %rcx
	cmpl	72608(%rcx), %eax
	jge	.LBB39_4
# %bb.3:                                # %if.then15
	movq	img, %rax
	movl	72608(%rax), %eax
	movq	input, %rcx
	cltd
	idivl	3248(%rcx)
	movl	%eax, TotalNumberofBasicUnit
.LBB39_4:                               # %if.end19
	vmovsd	.LCPI39_0(%rip), %xmm0  # xmm0 = mem[0],zero
	vmovsd	.LCPI39_1(%rip), %xmm1  # xmm1 = mem[0],zero
	vmovsd	.LCPI39_2(%rip), %xmm2  # xmm2 = mem[0],zero
	vmovsd	%xmm2, MINVALUE
	vmulsd	bit_rate, %xmm1, %xmm1
	vmovsd	%xmm1, BufferSize
	vxorps	%xmm1, %xmm1, %xmm1
	vmovsd	%xmm1, CurrentBufferFullness
	vmovsd	CurrentBufferFullness, %xmm1 # xmm1 = mem[0],zero
	vmovsd	%xmm1, GOPTargetBufferLevel
	vmulsd	BufferSize, %xmm0, %xmm0
	vmovsd	%xmm0, InitialDelayOffset
	movl	$0, m_windowSize
	movl	$0, MADm_windowSize
	movq	img, %rax
	movl	$0, 72560(%rax)
	movq	img, %rax
	movl	$0, 72564(%rax)
	movq	img, %rax
	movl	$0, 72568(%rax)
	movl	$0, R
	movq	input, %rax
	cmpl	$0, 1236(%rax)
	jle	.LBB39_6
# %bb.5:                                # %if.then25
	vmovsd	.LCPI39_4(%rip), %xmm0  # xmm0 = mem[0],zero
	vmovsd	.LCPI39_5(%rip), %xmm1  # xmm1 = mem[0],zero
	vmovsd	%xmm1, GAMMAP
	vmovsd	%xmm0, BETAP
	jmp	.LBB39_7
.LBB39_6:                               # %if.else
	vmovsd	.LCPI39_3(%rip), %xmm0  # xmm0 = mem[0],zero
	vmovsd	%xmm0, GAMMAP
	vmovsd	%xmm0, BETAP
.LBB39_7:                               # %if.end26
	vmovsd	.LCPI39_6(%rip), %xmm0  # xmm0 = mem[0],zero
	movl	$0, PPreHeader
	vmulsd	bit_rate, %xmm0, %xmm1
	vmovsd	%xmm1, Pm_X1
	vxorps	%xmm1, %xmm1, %xmm1
	vmovsd	%xmm1, Pm_X2
	vmovsd	%xmm0, PMADPictureC1
	vmovsd	%xmm1, PMADPictureC2
	movl	$0, -4(%rbp)
.LBB39_8:                               # %for.cond
                                        # =>This Inner Loop Header: Depth=1
	cmpl	$20, -4(%rbp)
	jge	.LBB39_11
# %bb.9:                                # %for.body
                                        #   in Loop: Header=BB39_8 Depth=1
	movslq	-4(%rbp), %rax
	vxorps	%xmm0, %xmm0, %xmm0
	vmovsd	%xmm0, Pm_rgQp(,%rax,8)
	movslq	-4(%rbp), %rax
	vmovsd	%xmm0, Pm_rgRp(,%rax,8)
	movslq	-4(%rbp), %rax
	vmovsd	%xmm0, PPictureMAD(,%rax,8)
# %bb.10:                               # %for.inc
                                        #   in Loop: Header=BB39_8 Depth=1
	movl	-4(%rbp), %eax
	addl	$1, %eax
	movl	%eax, -4(%rbp)
	jmp	.LBB39_8
.LBB39_11:                              # %for.end
	vxorps	%xmm0, %xmm0, %xmm0
	vmovsd	%xmm0, PPictureMAD+160
	movl	$2, PDuantQp
	movl	$0, PAveHeaderBits1
	movl	$0, PAveHeaderBits3
	cmpl	$9, TotalNumberofBasicUnit
	jl	.LBB39_13
# %bb.12:                               # %if.then36
	movl	$1, DDquant
	jmp	.LBB39_14
.LBB39_13:                              # %if.else37
	movl	$2, DDquant
.LBB39_14:                              # %if.end38
	vmovsd	.LCPI39_6(%rip), %xmm0  # xmm0 = mem[0],zero
	movq	img, %rax
	movl	52(%rax), %eax
	cltd
	movl	$16, %ecx
	idivl	%ecx
	movl	%eax, MBPerRow
	movq	img, %rax
	movl	$0, 72600(%rax)
	movl	$51, RC_MAX_QUANT
	movl	$0, RC_MIN_QUANT
	vmulsd	bit_rate, %xmm0, %xmm0
	vmovsd	frame_rate, %xmm1       # xmm1 = mem[0],zero
	movq	img, %rax
	vcvtsi2sdl	52(%rax), %xmm0, %xmm2
	vmulsd	%xmm2, %xmm1, %xmm1
	movq	img, %rax
	vcvtsi2sdl	60(%rax), %xmm0, %xmm2
	vmulsd	%xmm2, %xmm1, %xmm1
	vdivsd	%xmm1, %xmm0, %xmm0
	vmovsd	%xmm0, -32(%rbp)
	movq	img, %rax
	cmpl	$176, 52(%rax)
	jne	.LBB39_16
# %bb.15:                               # %if.then52
	vmovsd	.LCPI39_9(%rip), %xmm0  # xmm0 = mem[0],zero
	vmovsd	.LCPI39_12(%rip), %xmm1 # xmm1 = mem[0],zero
	vmovsd	.LCPI39_13(%rip), %xmm2 # xmm2 = mem[0],zero
	vmovsd	%xmm2, -40(%rbp)
	vmovsd	%xmm1, -16(%rbp)
	vmovsd	%xmm0, -24(%rbp)
	jmp	.LBB39_20
.LBB39_16:                              # %if.else53
	movq	img, %rax
	cmpl	$352, 52(%rax)          # imm = 0x160
	jne	.LBB39_18
# %bb.17:                               # %if.then57
	vmovsd	.LCPI39_10(%rip), %xmm0 # xmm0 = mem[0],zero
	vmovsd	.LCPI39_9(%rip), %xmm1  # xmm1 = mem[0],zero
	vmovsd	.LCPI39_11(%rip), %xmm2 # xmm2 = mem[0],zero
	vmovsd	%xmm2, -40(%rbp)
	vmovsd	%xmm1, -16(%rbp)
	vmovsd	%xmm0, -24(%rbp)
	jmp	.LBB39_19
.LBB39_18:                              # %if.else58
	vmovsd	.LCPI39_7(%rip), %xmm0  # xmm0 = mem[0],zero
	vmovsd	.LCPI39_8(%rip), %xmm1  # xmm1 = mem[0],zero
	vmovsd	.LCPI39_9(%rip), %xmm2  # xmm2 = mem[0],zero
	vmovsd	%xmm2, -40(%rbp)
	vmovsd	%xmm1, -16(%rbp)
	vmovsd	%xmm0, -24(%rbp)
.LBB39_19:                              # %if.end59
	jmp	.LBB39_20
.LBB39_20:                              # %if.end60
	movq	input, %rax
	cmpl	$0, 3244(%rax)
	jne	.LBB39_31
# %bb.21:                               # %if.then63
	vmovsd	-32(%rbp), %xmm0        # xmm0 = mem[0],zero
	vmovsd	-40(%rbp), %xmm1        # xmm1 = mem[0],zero
	vucomisd	%xmm0, %xmm1
	jb	.LBB39_23
# %bb.22:                               # %if.then66
	movl	$35, -8(%rbp)
	jmp	.LBB39_30
.LBB39_23:                              # %if.else67
	vmovsd	-32(%rbp), %xmm0        # xmm0 = mem[0],zero
	vmovsd	-16(%rbp), %xmm1        # xmm1 = mem[0],zero
	vucomisd	%xmm0, %xmm1
	jb	.LBB39_25
# %bb.24:                               # %if.then70
	movl	$25, -8(%rbp)
	jmp	.LBB39_29
.LBB39_25:                              # %if.else71
	vmovsd	-32(%rbp), %xmm0        # xmm0 = mem[0],zero
	vmovsd	-24(%rbp), %xmm1        # xmm1 = mem[0],zero
	vucomisd	%xmm0, %xmm1
	jb	.LBB39_27
# %bb.26:                               # %if.then74
	movl	$20, -8(%rbp)
	jmp	.LBB39_28
.LBB39_27:                              # %if.else75
	movl	$10, -8(%rbp)
.LBB39_28:                              # %if.end76
	jmp	.LBB39_29
.LBB39_29:                              # %if.end77
	jmp	.LBB39_30
.LBB39_30:                              # %if.end78
	movl	-8(%rbp), %eax
	movq	input, %rcx
	movl	%eax, 3244(%rcx)
.LBB39_31:                              # %if.end80
	cmpl	$1299892385, -44(%rbp)  # imm = 0x4D7AC8A1
	jne	.LBB39_33
.LBB39_32:
	addq	$48, %rsp
	popq	%rbp
	.cfi_def_cfa %rsp, 8
	retq
.LBB39_33:                              # %func_exit
	.cfi_def_cfa %rbp, 16
	callq	detect_breach
	jmp	.LBB39_32
.Lfunc_end39:
	.size	rc_init_seq.23, .Lfunc_end39-rc_init_seq.23
	.cfi_endproc
                                        # -- End function
	.section	.rodata.cst8,"aM",@progbits,8
	.p2align	3               # -- Begin function rc_update_pict_frame.24
.LCPI40_0:
	.quad	4602678819172646912     # double 0.5
.LCPI40_1:
	.quad	4608819927624529320     # double 1.3635999999999999
	.text
	.globl	rc_update_pict_frame.24
	.p2align	4, 0x90
	.type	rc_update_pict_frame.24,@function
rc_update_pict_frame.24:                # @rc_update_pict_frame.24
	.cfi_startproc
# %bb.0:                                # %entry
	pushq	%rbp
	.cfi_def_cfa_offset 16
	.cfi_offset %rbp, -16
	movq	%rsp, %rbp
	.cfi_def_cfa_register %rbp
	subq	$16, %rsp
	movl	$275634483, -16(%rbp)   # imm = 0x106DD933
	movl	%edi, -8(%rbp)
	movl	$0, -4(%rbp)
	movq	img, %rax
	movl	72620(%rax), %eax
	movq	img, %rcx
	cmpl	72608(%rcx), %eax
	jne	.LBB40_2
# %bb.1:                                # %if.then
	vmovsd	.LCPI40_0(%rip), %xmm0  # xmm0 = mem[0],zero
	movl	-8(%rbp), %eax
	imull	m_Qc, %eax
	vcvtsi2sd	%eax, %xmm0, %xmm1
	vaddsd	%xmm0, %xmm1, %xmm0
	vroundsd	$9, %xmm0, %xmm0, %xmm0
	vcvttsd2si	%xmm0, %eax
	movl	%eax, -4(%rbp)
	jmp	.LBB40_12
.LBB40_2:                               # %if.else
	movq	img, %rax
	cmpl	$0, 24(%rax)
	jne	.LBB40_8
# %bb.3:                                # %if.then4
	movq	img, %rax
	cmpl	$0, 72612(%rax)
	jne	.LBB40_5
# %bb.4:                                # %land.lhs.true
	movq	img, %rax
	cmpl	$1, 72600(%rax)
	je	.LBB40_6
.LBB40_5:                               # %lor.lhs.false
	movq	img, %rax
	cmpl	$0, 72600(%rax)
	jne	.LBB40_7
.LBB40_6:                               # %if.then12
	vmovsd	.LCPI40_0(%rip), %xmm0  # xmm0 = mem[0],zero
	movl	TotalFrameQP, %eax
	cltd
	idivl	TotalNumberofBasicUnit
	movl	%eax, -12(%rbp)
	movl	-8(%rbp), %eax
	imull	-12(%rbp), %eax
	vcvtsi2sd	%eax, %xmm0, %xmm1
	vaddsd	%xmm0, %xmm1, %xmm0
	vroundsd	$9, %xmm0, %xmm0, %xmm0
	vcvttsd2si	%xmm0, %eax
	movl	%eax, -4(%rbp)
.LBB40_7:                               # %if.end
	jmp	.LBB40_11
.LBB40_8:                               # %if.else17
	movq	img, %rax
	cmpl	$1, 24(%rax)
	jne	.LBB40_10
# %bb.9:                                # %if.then21
	vmovsd	.LCPI40_0(%rip), %xmm0  # xmm0 = mem[0],zero
	movl	-8(%rbp), %eax
	imull	m_Qc, %eax
	vcvtsi2sd	%eax, %xmm0, %xmm1
	vaddsd	%xmm0, %xmm1, %xmm0
	vroundsd	$9, %xmm0, %xmm0, %xmm0
	vcvttsd2si	%xmm0, %eax
	movl	%eax, -4(%rbp)
.LBB40_10:                              # %if.end26
	jmp	.LBB40_11
.LBB40_11:                              # %if.end27
	jmp	.LBB40_12
.LBB40_12:                              # %if.end28
	movq	img(%rip), %rax
