	.text
	.file	"ratectl.c"
	.globl	rc_alloc                # -- Begin function rc_alloc
	.p2align	4, 0x90
	.type	rc_alloc,@function
rc_alloc:                               # @rc_alloc
	.cfi_startproc
# %bb.0:                                # %entry
	pushq	%rbp
	.cfi_def_cfa_offset 16
	.cfi_offset %rbp, -16
	movq	%rsp, %rbp
	.cfi_def_cfa_register %rbp
	movq	img, %rax
	movl	72488(%rax), %edi
	movl	$8, %esi
	callq	calloc
	xorl	%ecx, %ecx
	movq	img, %rdx
	movq	%rax, 72584(%rdx)
	movq	img, %rax
	cmpq	72584(%rax), %rcx
	jne	.LBB0_2
# %bb.1:                                # %if.then
	movabsq	$.L.str, %rdi
	callq	no_mem_exit
.LBB0_2:                                # %if.end
	movq	img, %rax
	movl	72488(%rax), %eax
	movq	input, %rcx
	xorl	%edx, %edx
	divl	3248(%rcx)
	movl	%eax, %edi
	movl	$8, %esi
	callq	calloc
	xorl	%ecx, %ecx
	movq	%rax, BUPFMAD
	cmpq	BUPFMAD, %rcx
	jne	.LBB0_4
# %bb.3:                                # %if.then8
	movabsq	$.L.str.1, %rdi
	callq	no_mem_exit
.LBB0_4:                                # %if.end9
	movq	img, %rax
	movl	72488(%rax), %eax
	movq	input, %rcx
	xorl	%edx, %edx
	divl	3248(%rcx)
	movl	%eax, %edi
	movl	$8, %esi
	callq	calloc
	xorl	%ecx, %ecx
	movq	%rax, BUCFMAD
	cmpq	BUCFMAD, %rcx
	jne	.LBB0_6
# %bb.5:                                # %if.then17
	movabsq	$.L.str.2, %rdi
	callq	no_mem_exit
.LBB0_6:                                # %if.end18
	movq	img, %rax
	movl	72488(%rax), %eax
	movq	input, %rcx
	xorl	%edx, %edx
	divl	3248(%rcx)
	movl	%eax, %edi
	movl	$8, %esi
	callq	calloc
	xorl	%ecx, %ecx
	movq	%rax, FCBUCFMAD
	cmpq	FCBUCFMAD, %rcx
	jne	.LBB0_8
# %bb.7:                                # %if.then26
	movabsq	$.L.str.3, %rdi
	callq	no_mem_exit
.LBB0_8:                                # %if.end27
	movq	img, %rax
	movl	72488(%rax), %eax
	movq	input, %rcx
	xorl	%edx, %edx
	divl	3248(%rcx)
	movl	%eax, %edi
	movl	$8, %esi
	callq	calloc
	xorl	%ecx, %ecx
	movq	%rax, FCBUPFMAD
	cmpq	FCBUPFMAD, %rcx
	jne	.LBB0_10
# %bb.9:                                # %if.then35
	movabsq	$.L.str.4, %rdi
	callq	no_mem_exit
.LBB0_10:                               # %if.end36
	popq	%rbp
	.cfi_def_cfa %rsp, 8
	retq
.Lfunc_end0:
	.size	rc_alloc, .Lfunc_end0-rc_alloc
	.cfi_endproc
                                        # -- End function
	.globl	rc_free                 # -- Begin function rc_free
	.p2align	4, 0x90
	.type	rc_free,@function
rc_free:                                # @rc_free
	.cfi_startproc
# %bb.0:                                # %entry
	pushq	%rbp
	.cfi_def_cfa_offset 16
	.cfi_offset %rbp, -16
	movq	%rsp, %rbp
	.cfi_def_cfa_register %rbp
	xorl	%eax, %eax
	movq	img, %rcx
	cmpq	72584(%rcx), %rax
	je	.LBB1_2
# %bb.1:                                # %if.then
	movq	img, %rax
	movq	72584(%rax), %rdi
	callq	free
	movq	img, %rax
	movq	$0, 72584(%rax)
.LBB1_2:                                # %if.end
	xorl	%eax, %eax
	cmpq	BUPFMAD, %rax
	je	.LBB1_4
# %bb.3:                                # %if.then4
	movq	BUPFMAD, %rdi
	callq	free
	movq	$0, BUPFMAD
.LBB1_4:                                # %if.end5
	xorl	%eax, %eax
	cmpq	BUCFMAD, %rax
	je	.LBB1_6
# %bb.5:                                # %if.then7
	movq	BUCFMAD, %rdi
	callq	free
	movq	$0, BUCFMAD
.LBB1_6:                                # %if.end8
	xorl	%eax, %eax
	cmpq	FCBUCFMAD, %rax
	je	.LBB1_8
# %bb.7:                                # %if.then10
	movq	FCBUCFMAD, %rdi
	callq	free
	movq	$0, FCBUCFMAD
.LBB1_8:                                # %if.end11
	xorl	%eax, %eax
	cmpq	FCBUPFMAD, %rax
	je	.LBB1_10
# %bb.9:                                # %if.then13
	movq	FCBUPFMAD, %rdi
	callq	free
	movq	$0, FCBUPFMAD
.LBB1_10:                               # %if.end14
	popq	%rbp
	.cfi_def_cfa %rsp, 8
	retq
.Lfunc_end1:
	.size	rc_free, .Lfunc_end1-rc_free
	.cfi_endproc
                                        # -- End function
	.globl	rc_init_seq             # -- Begin function rc_init_seq
	.p2align	4, 0x90
	.type	rc_init_seq,@function
rc_init_seq:                            # @rc_init_seq
	.cfi_startproc
# %bb.0:                                # %rand_bb
	pushq	%rbp
	.cfi_def_cfa_offset 16
	.cfi_offset %rbp, -16
	movq	%rsp, %rbp
	.cfi_def_cfa_register %rbp
	callq	get_rand
	cmpl	$0, %eax
	jne	.LBB2_9
# %bb.1:                                # %func_rc_init_seq.1
	callq	rc_init_seq.1
	popq	%rbp
	.cfi_def_cfa %rsp, 8
	retq
.LBB2_2:                                # %func_rc_init_seq.6
	.cfi_def_cfa %rbp, 16
	callq	rc_init_seq.6
	popq	%rbp
	.cfi_def_cfa %rsp, 8
	retq
.LBB2_3:                                # %func_rc_init_seq.7
	.cfi_def_cfa %rbp, 16
	callq	rc_init_seq.7
	popq	%rbp
	.cfi_def_cfa %rsp, 8
	retq
.LBB2_4:                                # %func_rc_init_seq.24
	.cfi_def_cfa %rbp, 16
	callq	rc_init_seq.24
	popq	%rbp
	.cfi_def_cfa %rsp, 8
	retq
.LBB2_5:                                # %func_rc_init_seq.29
	.cfi_def_cfa %rbp, 16
	callq	rc_init_seq.29
	popq	%rbp
	.cfi_def_cfa %rsp, 8
	retq
.LBB2_6:                                # %func_rc_init_seq.62
	.cfi_def_cfa %rbp, 16
	callq	rc_init_seq.62
	popq	%rbp
	.cfi_def_cfa %rsp, 8
	retq
.LBB2_7:                                # %func_rc_init_seq.78
	.cfi_def_cfa %rbp, 16
	callq	rc_init_seq.78
	popq	%rbp
	.cfi_def_cfa %rsp, 8
	retq
.LBB2_8:                                # %func_rc_init_seq.86
	.cfi_def_cfa %rbp, 16
	callq	rc_init_seq.86
	popq	%rbp
	.cfi_def_cfa %rsp, 8
	retq
.LBB2_9:                                # %ctrl0
	.cfi_def_cfa %rbp, 16
	cmpl	$1, %eax
	je	.LBB2_2
# %bb.10:                               # %ctrl1
	cmpl	$2, %eax
	je	.LBB2_3
# %bb.11:                               # %ctrl2
	cmpl	$3, %eax
	je	.LBB2_4
# %bb.12:                               # %ctrl3
	cmpl	$4, %eax
	je	.LBB2_5
# %bb.13:                               # %ctrl4
	cmpl	$5, %eax
	je	.LBB2_6
# %bb.14:                               # %ctrl5
	cmpl	$6, %eax
	je	.LBB2_7
	jmp	.LBB2_8
.Lfunc_end2:
	.size	rc_init_seq, .Lfunc_end2-rc_init_seq
	.cfi_endproc
                                        # -- End function
	.globl	rc_init_GOP             # -- Begin function rc_init_GOP
	.p2align	4, 0x90
	.type	rc_init_GOP,@function
rc_init_GOP:                            # @rc_init_GOP
	.cfi_startproc
# %bb.0:                                # %rand_bb
	pushq	%rbp
	.cfi_def_cfa_offset 16
	.cfi_offset %rbp, -16
	movq	%rsp, %rbp
	.cfi_def_cfa_register %rbp
	pushq	%r14
	pushq	%rbx
	.cfi_offset %rbx, -32
	.cfi_offset %r14, -24
	movl	%esi, %r14d
	movl	%edi, %ebx
	callq	get_rand
	cmpl	$0, %eax
	jne	.LBB3_9
# %bb.1:                                # %func_rc_init_GOP.13
	movl	%ebx, %edi
	movl	%r14d, %esi
	callq	rc_init_GOP.13
	popq	%rbx
	popq	%r14
	popq	%rbp
	.cfi_def_cfa %rsp, 8
	retq
.LBB3_2:                                # %func_rc_init_GOP.16
	.cfi_def_cfa %rbp, 16
	movl	%ebx, %edi
	movl	%r14d, %esi
	callq	rc_init_GOP.16
	popq	%rbx
	popq	%r14
	popq	%rbp
	.cfi_def_cfa %rsp, 8
	retq
.LBB3_3:                                # %func_rc_init_GOP.34
	.cfi_def_cfa %rbp, 16
	movl	%ebx, %edi
	movl	%r14d, %esi
	callq	rc_init_GOP.34
	popq	%rbx
	popq	%r14
	popq	%rbp
	.cfi_def_cfa %rsp, 8
	retq
.LBB3_4:                                # %func_rc_init_GOP.37
	.cfi_def_cfa %rbp, 16
	movl	%ebx, %edi
	movl	%r14d, %esi
	callq	rc_init_GOP.37
	popq	%rbx
	popq	%r14
	popq	%rbp
	.cfi_def_cfa %rsp, 8
	retq
.LBB3_5:                                # %func_rc_init_GOP.44
	.cfi_def_cfa %rbp, 16
	movl	%ebx, %edi
	movl	%r14d, %esi
	callq	rc_init_GOP.44
	popq	%rbx
	popq	%r14
	popq	%rbp
	.cfi_def_cfa %rsp, 8
	retq
.LBB3_6:                                # %func_rc_init_GOP.69
	.cfi_def_cfa %rbp, 16
	movl	%ebx, %edi
	movl	%r14d, %esi
	callq	rc_init_GOP.69
	popq	%rbx
	popq	%r14
	popq	%rbp
	.cfi_def_cfa %rsp, 8
	retq
.LBB3_7:                                # %func_rc_init_GOP.77
	.cfi_def_cfa %rbp, 16
	movl	%ebx, %edi
	movl	%r14d, %esi
	callq	rc_init_GOP.77
	popq	%rbx
	popq	%r14
	popq	%rbp
	.cfi_def_cfa %rsp, 8
	retq
.LBB3_8:                                # %func_rc_init_GOP.91
	.cfi_def_cfa %rbp, 16
	movl	%ebx, %edi
	movl	%r14d, %esi
	callq	rc_init_GOP.91
	popq	%rbx
	popq	%r14
	popq	%rbp
	.cfi_def_cfa %rsp, 8
	retq
.LBB3_9:                                # %ctrl0
	.cfi_def_cfa %rbp, 16
	cmpl	$1, %eax
	je	.LBB3_2
# %bb.10:                               # %ctrl1
	cmpl	$2, %eax
	je	.LBB3_3
# %bb.11:                               # %ctrl2
	cmpl	$3, %eax
	je	.LBB3_4
# %bb.12:                               # %ctrl3
	cmpl	$4, %eax
	je	.LBB3_5
# %bb.13:                               # %ctrl4
	cmpl	$5, %eax
	je	.LBB3_6
# %bb.14:                               # %ctrl5
	cmpl	$6, %eax
	je	.LBB3_7
	jmp	.LBB3_8
.Lfunc_end3:
	.size	rc_init_GOP, .Lfunc_end3-rc_init_GOP
	.cfi_endproc
                                        # -- End function
	.globl	rc_init_pict            # -- Begin function rc_init_pict
	.p2align	4, 0x90
	.type	rc_init_pict,@function
rc_init_pict:                           # @rc_init_pict
	.cfi_startproc
# %bb.0:                                # %rand_bb
	pushq	%rbp
	.cfi_def_cfa_offset 16
	.cfi_offset %rbp, -16
	movq	%rsp, %rbp
	.cfi_def_cfa_register %rbp
	pushq	%r15
	pushq	%r14
	pushq	%rbx
	pushq	%rax
	.cfi_offset %rbx, -40
	.cfi_offset %r14, -32
	.cfi_offset %r15, -24
	movl	%edx, %r14d
	movl	%esi, %r15d
	movl	%edi, %ebx
	callq	get_rand
	cmpl	$0, %eax
	jne	.LBB4_9
# %bb.1:                                # %func_rc_init_pict.30
	movl	%ebx, %edi
	movl	%r15d, %esi
	movl	%r14d, %edx
	callq	rc_init_pict.30
	addq	$8, %rsp
	popq	%rbx
	popq	%r14
	popq	%r15
	popq	%rbp
	.cfi_def_cfa %rsp, 8
	retq
.LBB4_2:                                # %func_rc_init_pict.32
	.cfi_def_cfa %rbp, 16
	movl	%ebx, %edi
	movl	%r15d, %esi
	movl	%r14d, %edx
	callq	rc_init_pict.32
	addq	$8, %rsp
	popq	%rbx
	popq	%r14
	popq	%r15
	popq	%rbp
	.cfi_def_cfa %rsp, 8
	retq
.LBB4_3:                                # %func_rc_init_pict.33
	.cfi_def_cfa %rbp, 16
	movl	%ebx, %edi
	movl	%r15d, %esi
	movl	%r14d, %edx
	callq	rc_init_pict.33
	addq	$8, %rsp
	popq	%rbx
	popq	%r14
	popq	%r15
	popq	%rbp
	.cfi_def_cfa %rsp, 8
	retq
.LBB4_4:                                # %func_rc_init_pict.40
	.cfi_def_cfa %rbp, 16
	movl	%ebx, %edi
	movl	%r15d, %esi
	movl	%r14d, %edx
	callq	rc_init_pict.40
	addq	$8, %rsp
	popq	%rbx
	popq	%r14
	popq	%r15
	popq	%rbp
	.cfi_def_cfa %rsp, 8
	retq
.LBB4_5:                                # %func_rc_init_pict.50
	.cfi_def_cfa %rbp, 16
	movl	%ebx, %edi
	movl	%r15d, %esi
	movl	%r14d, %edx
	callq	rc_init_pict.50
	addq	$8, %rsp
	popq	%rbx
	popq	%r14
	popq	%r15
	popq	%rbp
	.cfi_def_cfa %rsp, 8
	retq
.LBB4_6:                                # %func_rc_init_pict.74
	.cfi_def_cfa %rbp, 16
	movl	%ebx, %edi
	movl	%r15d, %esi
	movl	%r14d, %edx
	callq	rc_init_pict.74
	addq	$8, %rsp
	popq	%rbx
	popq	%r14
	popq	%r15
	popq	%rbp
	.cfi_def_cfa %rsp, 8
	retq
.LBB4_7:                                # %func_rc_init_pict.75
	.cfi_def_cfa %rbp, 16
	movl	%ebx, %edi
	movl	%r15d, %esi
	movl	%r14d, %edx
	callq	rc_init_pict.75
	addq	$8, %rsp
	popq	%rbx
	popq	%r14
	popq	%r15
	popq	%rbp
	.cfi_def_cfa %rsp, 8
	retq
.LBB4_8:                                # %func_rc_init_pict.84
	.cfi_def_cfa %rbp, 16
	movl	%ebx, %edi
	movl	%r15d, %esi
	movl	%r14d, %edx
	callq	rc_init_pict.84
	addq	$8, %rsp
	popq	%rbx
	popq	%r14
	popq	%r15
	popq	%rbp
	.cfi_def_cfa %rsp, 8
	retq
.LBB4_9:                                # %ctrl0
	.cfi_def_cfa %rbp, 16
	cmpl	$1, %eax
	je	.LBB4_2
# %bb.10:                               # %ctrl1
	cmpl	$2, %eax
	je	.LBB4_3
# %bb.11:                               # %ctrl2
	cmpl	$3, %eax
	je	.LBB4_4
# %bb.12:                               # %ctrl3
	cmpl	$4, %eax
	je	.LBB4_5
# %bb.13:                               # %ctrl4
	cmpl	$5, %eax
	je	.LBB4_6
# %bb.14:                               # %ctrl5
	cmpl	$6, %eax
	je	.LBB4_7
	jmp	.LBB4_8
.Lfunc_end4:
	.size	rc_init_pict, .Lfunc_end4-rc_init_pict
	.cfi_endproc
                                        # -- End function
	.globl	calc_MAD                # -- Begin function calc_MAD
	.p2align	4, 0x90
	.type	calc_MAD,@function
calc_MAD:                               # @calc_MAD
	.cfi_startproc
# %bb.0:                                # %rand_bb
	pushq	%rbp
	.cfi_def_cfa_offset 16
	.cfi_offset %rbp, -16
	movq	%rsp, %rbp
	.cfi_def_cfa_register %rbp
	callq	get_rand
	cmpl	$0, %eax
	jne	.LBB5_9
# %bb.1:                                # %func_calc_MAD.17
	callq	calc_MAD.17
	popq	%rbp
	.cfi_def_cfa %rsp, 8
	retq
.LBB5_2:                                # %func_calc_MAD.23
	.cfi_def_cfa %rbp, 16
	callq	calc_MAD.23
	popq	%rbp
	.cfi_def_cfa %rsp, 8
	retq
.LBB5_3:                                # %func_calc_MAD.42
	.cfi_def_cfa %rbp, 16
	callq	calc_MAD.42
	popq	%rbp
	.cfi_def_cfa %rsp, 8
	retq
.LBB5_4:                                # %func_calc_MAD.46
	.cfi_def_cfa %rbp, 16
	callq	calc_MAD.46
	popq	%rbp
	.cfi_def_cfa %rsp, 8
	retq
.LBB5_5:                                # %func_calc_MAD.57
	.cfi_def_cfa %rbp, 16
	callq	calc_MAD.57
	popq	%rbp
	.cfi_def_cfa %rsp, 8
	retq
.LBB5_6:                                # %func_calc_MAD.61
	.cfi_def_cfa %rbp, 16
	callq	calc_MAD.61
	popq	%rbp
	.cfi_def_cfa %rsp, 8
	retq
.LBB5_7:                                # %func_calc_MAD.90
	.cfi_def_cfa %rbp, 16
	callq	calc_MAD.90
	popq	%rbp
	.cfi_def_cfa %rsp, 8
	retq
.LBB5_8:                                # %func_calc_MAD.93
	.cfi_def_cfa %rbp, 16
	callq	calc_MAD.93
	popq	%rbp
	.cfi_def_cfa %rsp, 8
	retq
.LBB5_9:                                # %ctrl0
	.cfi_def_cfa %rbp, 16
	cmpl	$1, %eax
	je	.LBB5_2
# %bb.10:                               # %ctrl1
	cmpl	$2, %eax
	je	.LBB5_3
# %bb.11:                               # %ctrl2
	cmpl	$3, %eax
	je	.LBB5_4
# %bb.12:                               # %ctrl3
	cmpl	$4, %eax
	je	.LBB5_5
# %bb.13:                               # %ctrl4
	cmpl	$5, %eax
	je	.LBB5_6
# %bb.14:                               # %ctrl5
	cmpl	$6, %eax
	je	.LBB5_7
	jmp	.LBB5_8
.Lfunc_end5:
	.size	calc_MAD, .Lfunc_end5-calc_MAD
	.cfi_endproc
                                        # -- End function
	.section	.rodata.cst8,"aM",@progbits,8
	.p2align	3               # -- Begin function rc_update_pict
.LCPI6_0:
	.quad	4606281698874543309     # double 0.90000000000000002
	.text
	.globl	rc_update_pict
	.p2align	4, 0x90
	.type	rc_update_pict,@function
rc_update_pict:                         # @rc_update_pict
	.cfi_startproc
# %bb.0:                                # %entry
	pushq	%rbp
	.cfi_def_cfa_offset 16
	.cfi_offset %rbp, -16
	movq	%rsp, %rbp
	.cfi_def_cfa_register %rbp
	vmovsd	.LCPI6_0(%rip), %xmm0   # xmm0 = mem[0],zero
	movl	%edi, -4(%rbp)
	movl	-4(%rbp), %eax
	movl	R, %ecx
	subl	%eax, %ecx
	movl	%ecx, R
	vcvtsi2sdl	-4(%rbp), %xmm0, %xmm1
	vmovsd	bit_rate, %xmm2         # xmm2 = mem[0],zero
	vdivsd	frame_rate, %xmm2, %xmm2
	vsubsd	%xmm2, %xmm1, %xmm1
	vaddsd	CurrentBufferFullness, %xmm1, %xmm1
	vmovsd	%xmm1, CurrentBufferFullness
	vmovsd	bit_rate, %xmm1         # xmm1 = mem[0],zero
	vdivsd	frame_rate, %xmm1, %xmm1
	vcvtsi2sdl	-4(%rbp), %xmm0, %xmm2
	vsubsd	%xmm2, %xmm1, %xmm1
	vcvttsd2si	%xmm1, %rax
	addq	LowerBound, %rax
	movq	%rax, LowerBound
	vmovsd	bit_rate, %xmm1         # xmm1 = mem[0],zero
	vdivsd	frame_rate, %xmm1, %xmm1
	vcvtsi2sdl	-4(%rbp), %xmm0, %xmm2
	vsubsd	%xmm2, %xmm1, %xmm1
	vcvttsd2si	%xmm1, %rax
	addq	UpperBound1, %rax
	movq	%rax, UpperBound1
	vcvtsi2sdq	UpperBound1, %xmm0, %xmm1
	vmulsd	%xmm1, %xmm0, %xmm0
	vcvttsd2si	%xmm0, %rax
	movq	%rax, UpperBound2
	popq	%rbp
	.cfi_def_cfa %rsp, 8
	retq
.Lfunc_end6:
	.size	rc_update_pict, .Lfunc_end6-rc_update_pict
	.cfi_endproc
                                        # -- End function
	.globl	rc_update_pict_frame    # -- Begin function rc_update_pict_frame
	.p2align	4, 0x90
	.type	rc_update_pict_frame,@function
rc_update_pict_frame:                   # @rc_update_pict_frame
	.cfi_startproc
# %bb.0:                                # %rand_bb
	pushq	%rbp
	.cfi_def_cfa_offset 16
	.cfi_offset %rbp, -16
	movq	%rsp, %rbp
	.cfi_def_cfa_register %rbp
	pushq	%rbx
	pushq	%rax
	.cfi_offset %rbx, -24
	movl	%edi, %ebx
	callq	get_rand
	cmpl	$0, %eax
	jne	.LBB7_7
# %bb.1:                                # %func_rc_update_pict_frame.12
	movl	%ebx, %edi
	callq	rc_update_pict_frame.12
	addq	$8, %rsp
	popq	%rbx
	popq	%rbp
	.cfi_def_cfa %rsp, 8
	retq
.LBB7_2:                                # %func_rc_update_pict_frame.25
	.cfi_def_cfa %rbp, 16
	movl	%ebx, %edi
	callq	rc_update_pict_frame.25
	addq	$8, %rsp
	popq	%rbx
	popq	%rbp
	.cfi_def_cfa %rsp, 8
	retq
.LBB7_3:                                # %func_rc_update_pict_frame.35
	.cfi_def_cfa %rbp, 16
	movl	%ebx, %edi
	callq	rc_update_pict_frame.35
	addq	$8, %rsp
	popq	%rbx
	popq	%rbp
	.cfi_def_cfa %rsp, 8
	retq
.LBB7_4:                                # %func_rc_update_pict_frame.38
	.cfi_def_cfa %rbp, 16
	movl	%ebx, %edi
	callq	rc_update_pict_frame.38
	addq	$8, %rsp
	popq	%rbx
	popq	%rbp
	.cfi_def_cfa %rsp, 8
	retq
.LBB7_5:                                # %func_rc_update_pict_frame.39
	.cfi_def_cfa %rbp, 16
	movl	%ebx, %edi
	callq	rc_update_pict_frame.39
	addq	$8, %rsp
	popq	%rbx
	popq	%rbp
	.cfi_def_cfa %rsp, 8
	retq
.LBB7_6:                                # %func_rc_update_pict_frame.45
	.cfi_def_cfa %rbp, 16
	movl	%ebx, %edi
	callq	rc_update_pict_frame.45
	addq	$8, %rsp
	popq	%rbx
	popq	%rbp
	.cfi_def_cfa %rsp, 8
	retq
.LBB7_7:                                # %ctrl0
	.cfi_def_cfa %rbp, 16
	cmpl	$1, %eax
	je	.LBB7_2
# %bb.8:                                # %ctrl1
	cmpl	$2, %eax
	je	.LBB7_3
# %bb.9:                                # %ctrl2
	cmpl	$3, %eax
	je	.LBB7_4
# %bb.10:                               # %ctrl3
	cmpl	$4, %eax
	je	.LBB7_5
	jmp	.LBB7_6
.Lfunc_end7:
	.size	rc_update_pict_frame, .Lfunc_end7-rc_update_pict_frame
	.cfi_endproc
                                        # -- End function
	.globl	setbitscount            # -- Begin function setbitscount
	.p2align	4, 0x90
	.type	setbitscount,@function
setbitscount:                           # @setbitscount
	.cfi_startproc
# %bb.0:                                # %entry
	pushq	%rbp
	.cfi_def_cfa_offset 16
	.cfi_offset %rbp, -16
	movq	%rsp, %rbp
	.cfi_def_cfa_register %rbp
	movl	%edi, -4(%rbp)
	movl	-4(%rbp), %eax
	movl	%eax, bits_topfield
	popq	%rbp
	.cfi_def_cfa %rsp, 8
	retq
.Lfunc_end8:
	.size	setbitscount, .Lfunc_end8-setbitscount
	.cfi_endproc
                                        # -- End function
	.globl	updateQuantizationParameter # -- Begin function updateQuantizationParameter
	.p2align	4, 0x90
	.type	updateQuantizationParameter,@function
updateQuantizationParameter:            # @updateQuantizationParameter
	.cfi_startproc
# %bb.0:                                # %rand_bb
	pushq	%rbp
	.cfi_def_cfa_offset 16
	.cfi_offset %rbp, -16
	movq	%rsp, %rbp
	.cfi_def_cfa_register %rbp
	pushq	%rbx
	pushq	%rax
	.cfi_offset %rbx, -24
	movl	%edi, %ebx
	callq	get_rand
	cmpl	$0, %eax
	jne	.LBB9_9
# %bb.1:                                # %func_updateQuantizationParameter.5
	movl	%ebx, %edi
	callq	updateQuantizationParameter.5
	addq	$8, %rsp
	popq	%rbx
	popq	%rbp
	.cfi_def_cfa %rsp, 8
	retq
.LBB9_2:                                # %func_updateQuantizationParameter.10
	.cfi_def_cfa %rbp, 16
	movl	%ebx, %edi
	callq	updateQuantizationParameter.10
	addq	$8, %rsp
	popq	%rbx
	popq	%rbp
	.cfi_def_cfa %rsp, 8
	retq
.LBB9_3:                                # %func_updateQuantizationParameter.20
	.cfi_def_cfa %rbp, 16
	movl	%ebx, %edi
	callq	updateQuantizationParameter.20
	addq	$8, %rsp
	popq	%rbx
	popq	%rbp
	.cfi_def_cfa %rsp, 8
	retq
.LBB9_4:                                # %func_updateQuantizationParameter.31
	.cfi_def_cfa %rbp, 16
	movl	%ebx, %edi
	callq	updateQuantizationParameter.31
	addq	$8, %rsp
	popq	%rbx
	popq	%rbp
	.cfi_def_cfa %rsp, 8
	retq
.LBB9_5:                                # %func_updateQuantizationParameter.51
	.cfi_def_cfa %rbp, 16
	movl	%ebx, %edi
	callq	updateQuantizationParameter.51
	addq	$8, %rsp
	popq	%rbx
	popq	%rbp
	.cfi_def_cfa %rsp, 8
	retq
.LBB9_6:                                # %func_updateQuantizationParameter.60
	.cfi_def_cfa %rbp, 16
	movl	%ebx, %edi
	callq	updateQuantizationParameter.60
	addq	$8, %rsp
	popq	%rbx
	popq	%rbp
	.cfi_def_cfa %rsp, 8
	retq
.LBB9_7:                                # %func_updateQuantizationParameter.72
	.cfi_def_cfa %rbp, 16
	movl	%ebx, %edi
	callq	updateQuantizationParameter.72
	addq	$8, %rsp
	popq	%rbx
	popq	%rbp
	.cfi_def_cfa %rsp, 8
	retq
.LBB9_8:                                # %func_updateQuantizationParameter.83
	.cfi_def_cfa %rbp, 16
	movl	%ebx, %edi
	callq	updateQuantizationParameter.83
	addq	$8, %rsp
	popq	%rbx
	popq	%rbp
	.cfi_def_cfa %rsp, 8
	retq
.LBB9_9:                                # %ctrl0
	.cfi_def_cfa %rbp, 16
	cmpl	$1, %eax
	je	.LBB9_2
# %bb.10:                               # %ctrl1
	cmpl	$2, %eax
	je	.LBB9_3
# %bb.11:                               # %ctrl2
	cmpl	$3, %eax
	je	.LBB9_4
# %bb.12:                               # %ctrl3
	cmpl	$4, %eax
	je	.LBB9_5
# %bb.13:                               # %ctrl4
	cmpl	$5, %eax
	je	.LBB9_6
# %bb.14:                               # %ctrl5
	cmpl	$6, %eax
	je	.LBB9_7
	jmp	.LBB9_8
.Lfunc_end9:
	.size	updateQuantizationParameter, .Lfunc_end9-updateQuantizationParameter
	.cfi_endproc
                                        # -- End function
	.globl	Qstep2QP                # -- Begin function Qstep2QP
	.p2align	4, 0x90
	.type	Qstep2QP,@function
Qstep2QP:                               # @Qstep2QP
	.cfi_startproc
# %bb.0:                                # %rand_bb
	pushq	%rbp
	.cfi_def_cfa_offset 16
	.cfi_offset %rbp, -16
	movq	%rsp, %rbp
	.cfi_def_cfa_register %rbp
	subq	$16, %rsp
	vmovsd	%xmm0, -8(%rbp)         # 8-byte Spill
	callq	get_rand
	cmpl	$0, %eax
	jne	.LBB10_9
# %bb.1:                                # %func_Qstep2QP.18
	vmovsd	-8(%rbp), %xmm0         # 8-byte Reload
                                        # xmm0 = mem[0],zero
	callq	Qstep2QP.18
	addq	$16, %rsp
	popq	%rbp
	.cfi_def_cfa %rsp, 8
	retq
.LBB10_2:                               # %func_Qstep2QP.21
	.cfi_def_cfa %rbp, 16
	callq	Qstep2QP.21
	addq	$16, %rsp
	popq	%rbp
	.cfi_def_cfa %rsp, 8
	retq
.LBB10_3:                               # %func_Qstep2QP.22
	.cfi_def_cfa %rbp, 16
	callq	Qstep2QP.22
	addq	$16, %rsp
	popq	%rbp
	.cfi_def_cfa %rsp, 8
	retq
.LBB10_4:                               # %func_Qstep2QP.27
	.cfi_def_cfa %rbp, 16
	callq	Qstep2QP.27
	addq	$16, %rsp
	popq	%rbp
	.cfi_def_cfa %rsp, 8
	retq
.LBB10_5:                               # %func_Qstep2QP.52
	.cfi_def_cfa %rbp, 16
	callq	Qstep2QP.52
	addq	$16, %rsp
	popq	%rbp
	.cfi_def_cfa %rsp, 8
	retq
.LBB10_6:                               # %func_Qstep2QP.85
	.cfi_def_cfa %rbp, 16
	callq	Qstep2QP.85
	addq	$16, %rsp
	popq	%rbp
	.cfi_def_cfa %rsp, 8
	retq
.LBB10_7:                               # %func_Qstep2QP.88
	.cfi_def_cfa %rbp, 16
	callq	Qstep2QP.88
	addq	$16, %rsp
	popq	%rbp
	.cfi_def_cfa %rsp, 8
	retq
.LBB10_8:                               # %func_Qstep2QP.94
	.cfi_def_cfa %rbp, 16
	callq	Qstep2QP.94
	addq	$16, %rsp
	popq	%rbp
	.cfi_def_cfa %rsp, 8
	retq
.LBB10_9:                               # %ctrl0
	.cfi_def_cfa %rbp, 16
	vmovsd	-8(%rbp), %xmm0         # 8-byte Reload
                                        # xmm0 = mem[0],zero
	cmpl	$1, %eax
	je	.LBB10_2
# %bb.10:                               # %ctrl1
	cmpl	$2, %eax
	je	.LBB10_3
# %bb.11:                               # %ctrl2
	cmpl	$3, %eax
	je	.LBB10_4
# %bb.12:                               # %ctrl3
	cmpl	$4, %eax
	je	.LBB10_5
# %bb.13:                               # %ctrl4
	cmpl	$5, %eax
	je	.LBB10_6
# %bb.14:                               # %ctrl5
	cmpl	$6, %eax
	je	.LBB10_7
	jmp	.LBB10_8
.Lfunc_end10:
	.size	Qstep2QP, .Lfunc_end10-Qstep2QP
	.cfi_endproc
                                        # -- End function
	.globl	updateRCModel           # -- Begin function updateRCModel
	.p2align	4, 0x90
	.type	updateRCModel,@function
updateRCModel:                          # @updateRCModel
	.cfi_startproc
# %bb.0:                                # %rand_bb
	pushq	%rbp
	.cfi_def_cfa_offset 16
	.cfi_offset %rbp, -16
	movq	%rsp, %rbp
	.cfi_def_cfa_register %rbp
	callq	get_rand
	cmpl	$0, %eax
	jne	.LBB11_9
# %bb.1:                                # %func_updateRCModel.3
	callq	updateRCModel.3
	popq	%rbp
	.cfi_def_cfa %rsp, 8
	retq
.LBB11_2:                               # %func_updateRCModel.8
	.cfi_def_cfa %rbp, 16
	callq	updateRCModel.8
	popq	%rbp
	.cfi_def_cfa %rsp, 8
	retq
.LBB11_3:                               # %func_updateRCModel.43
	.cfi_def_cfa %rbp, 16
	callq	updateRCModel.43
	popq	%rbp
	.cfi_def_cfa %rsp, 8
	retq
.LBB11_4:                               # %func_updateRCModel.54
	.cfi_def_cfa %rbp, 16
	callq	updateRCModel.54
	popq	%rbp
	.cfi_def_cfa %rsp, 8
	retq
.LBB11_5:                               # %func_updateRCModel.63
	.cfi_def_cfa %rbp, 16
	callq	updateRCModel.63
	popq	%rbp
	.cfi_def_cfa %rsp, 8
	retq
.LBB11_6:                               # %func_updateRCModel.64
	.cfi_def_cfa %rbp, 16
	callq	updateRCModel.64
	popq	%rbp
	.cfi_def_cfa %rsp, 8
	retq
.LBB11_7:                               # %func_updateRCModel.70
	.cfi_def_cfa %rbp, 16
	callq	updateRCModel.70
	popq	%rbp
	.cfi_def_cfa %rsp, 8
	retq
.LBB11_8:                               # %func_updateRCModel.92
	.cfi_def_cfa %rbp, 16
	callq	updateRCModel.92
	popq	%rbp
	.cfi_def_cfa %rsp, 8
	retq
.LBB11_9:                               # %ctrl0
	.cfi_def_cfa %rbp, 16
	cmpl	$1, %eax
	je	.LBB11_2
# %bb.10:                               # %ctrl1
	cmpl	$2, %eax
	je	.LBB11_3
# %bb.11:                               # %ctrl2
	cmpl	$3, %eax
	je	.LBB11_4
# %bb.12:                               # %ctrl3
	cmpl	$4, %eax
	je	.LBB11_5
# %bb.13:                               # %ctrl4
	cmpl	$5, %eax
	je	.LBB11_6
# %bb.14:                               # %ctrl5
	cmpl	$6, %eax
	je	.LBB11_7
	jmp	.LBB11_8
.Lfunc_end11:
	.size	updateRCModel, .Lfunc_end11-updateRCModel
	.cfi_endproc
                                        # -- End function
	.globl	QP2Qstep                # -- Begin function QP2Qstep
	.p2align	4, 0x90
	.type	QP2Qstep,@function
QP2Qstep:                               # @QP2Qstep
	.cfi_startproc
# %bb.0:                                # %rand_bb
	pushq	%rbp
	.cfi_def_cfa_offset 16
	.cfi_offset %rbp, -16
	movq	%rsp, %rbp
	.cfi_def_cfa_register %rbp
	pushq	%rbx
	pushq	%rax
	.cfi_offset %rbx, -24
	movl	%edi, %ebx
	callq	get_rand
	cmpl	$0, %eax
	jne	.LBB12_7
# %bb.1:                                # %func_QP2Qstep.15
	movl	%ebx, %edi
	callq	QP2Qstep.15
	addq	$8, %rsp
	popq	%rbx
	popq	%rbp
	.cfi_def_cfa %rsp, 8
	retq
.LBB12_2:                               # %func_QP2Qstep.19
	.cfi_def_cfa %rbp, 16
	movl	%ebx, %edi
	callq	QP2Qstep.19
	addq	$8, %rsp
	popq	%rbx
	popq	%rbp
	.cfi_def_cfa %rsp, 8
	retq
.LBB12_3:                               # %func_QP2Qstep.36
	.cfi_def_cfa %rbp, 16
	movl	%ebx, %edi
	callq	QP2Qstep.36
	addq	$8, %rsp
	popq	%rbx
	popq	%rbp
	.cfi_def_cfa %rsp, 8
	retq
.LBB12_4:                               # %func_QP2Qstep.53
	.cfi_def_cfa %rbp, 16
	movl	%ebx, %edi
	callq	QP2Qstep.53
	addq	$8, %rsp
	popq	%rbx
	popq	%rbp
	.cfi_def_cfa %rsp, 8
	retq
.LBB12_5:                               # %func_QP2Qstep.68
	.cfi_def_cfa %rbp, 16
	movl	%ebx, %edi
	callq	QP2Qstep.68
	addq	$8, %rsp
	popq	%rbx
	popq	%rbp
	.cfi_def_cfa %rsp, 8
	retq
.LBB12_6:                               # %func_QP2Qstep.79
	.cfi_def_cfa %rbp, 16
	movl	%ebx, %edi
	callq	QP2Qstep.79
	addq	$8, %rsp
	popq	%rbx
	popq	%rbp
	.cfi_def_cfa %rsp, 8
	retq
.LBB12_7:                               # %ctrl0
	.cfi_def_cfa %rbp, 16
	cmpl	$1, %eax
	je	.LBB12_2
# %bb.8:                                # %ctrl1
	cmpl	$2, %eax
	je	.LBB12_3
# %bb.9:                                # %ctrl2
	cmpl	$3, %eax
	je	.LBB12_4
# %bb.10:                               # %ctrl3
	cmpl	$4, %eax
	je	.LBB12_5
	jmp	.LBB12_6
.Lfunc_end12:
	.size	QP2Qstep, .Lfunc_end12-QP2Qstep
	.cfi_endproc
                                        # -- End function
	.globl	RCModelEstimator        # -- Begin function RCModelEstimator
	.p2align	4, 0x90
	.type	RCModelEstimator,@function
RCModelEstimator:                       # @RCModelEstimator
	.cfi_startproc
# %bb.0:                                # %rand_bb
	pushq	%rbp
	.cfi_def_cfa_offset 16
	.cfi_offset %rbp, -16
	movq	%rsp, %rbp
	.cfi_def_cfa_register %rbp
	pushq	%rbx
	pushq	%rax
	.cfi_offset %rbx, -24
	movl	%edi, %ebx
	callq	get_rand
	cmpl	$0, %eax
	jne	.LBB13_9
# %bb.1:                                # %func_RCModelEstimator.28
	movl	%ebx, %edi
	callq	RCModelEstimator.28
	addq	$8, %rsp
	popq	%rbx
	popq	%rbp
	.cfi_def_cfa %rsp, 8
	retq
.LBB13_2:                               # %func_RCModelEstimator.56
	.cfi_def_cfa %rbp, 16
	movl	%ebx, %edi
	callq	RCModelEstimator.56
	addq	$8, %rsp
	popq	%rbx
	popq	%rbp
	.cfi_def_cfa %rsp, 8
	retq
.LBB13_3:                               # %func_RCModelEstimator.58
	.cfi_def_cfa %rbp, 16
	movl	%ebx, %edi
	callq	RCModelEstimator.58
	addq	$8, %rsp
	popq	%rbx
	popq	%rbp
	.cfi_def_cfa %rsp, 8
	retq
.LBB13_4:                               # %func_RCModelEstimator.59
	.cfi_def_cfa %rbp, 16
	movl	%ebx, %edi
	callq	RCModelEstimator.59
	addq	$8, %rsp
	popq	%rbx
	popq	%rbp
	.cfi_def_cfa %rsp, 8
	retq
.LBB13_5:                               # %func_RCModelEstimator.66
	.cfi_def_cfa %rbp, 16
	movl	%ebx, %edi
	callq	RCModelEstimator.66
	addq	$8, %rsp
	popq	%rbx
	popq	%rbp
	.cfi_def_cfa %rsp, 8
	retq
.LBB13_6:                               # %func_RCModelEstimator.76
	.cfi_def_cfa %rbp, 16
	movl	%ebx, %edi
	callq	RCModelEstimator.76
	addq	$8, %rsp
	popq	%rbx
	popq	%rbp
	.cfi_def_cfa %rsp, 8
	retq
.LBB13_7:                               # %func_RCModelEstimator.81
	.cfi_def_cfa %rbp, 16
	movl	%ebx, %edi
	callq	RCModelEstimator.81
	addq	$8, %rsp
	popq	%rbx
	popq	%rbp
	.cfi_def_cfa %rsp, 8
	retq
.LBB13_8:                               # %func_RCModelEstimator.87
	.cfi_def_cfa %rbp, 16
	movl	%ebx, %edi
	callq	RCModelEstimator.87
	addq	$8, %rsp
	popq	%rbx
	popq	%rbp
	.cfi_def_cfa %rsp, 8
	retq
.LBB13_9:                               # %ctrl0
	.cfi_def_cfa %rbp, 16
	cmpl	$1, %eax
	je	.LBB13_2
# %bb.10:                               # %ctrl1
	cmpl	$2, %eax
	je	.LBB13_3
# %bb.11:                               # %ctrl2
	cmpl	$3, %eax
	je	.LBB13_4
# %bb.12:                               # %ctrl3
	cmpl	$4, %eax
	je	.LBB13_5
# %bb.13:                               # %ctrl4
	cmpl	$5, %eax
	je	.LBB13_6
# %bb.14:                               # %ctrl5
	cmpl	$6, %eax
	je	.LBB13_7
	jmp	.LBB13_8
.Lfunc_end13:
	.size	RCModelEstimator, .Lfunc_end13-RCModelEstimator
	.cfi_endproc
                                        # -- End function
	.globl	ComputeFrameMAD         # -- Begin function ComputeFrameMAD
	.p2align	4, 0x90
	.type	ComputeFrameMAD,@function
ComputeFrameMAD:                        # @ComputeFrameMAD
	.cfi_startproc
# %bb.0:                                # %rand_bb
	pushq	%rbp
	.cfi_def_cfa_offset 16
	.cfi_offset %rbp, -16
	movq	%rsp, %rbp
	.cfi_def_cfa_register %rbp
	callq	get_rand
	cmpl	$0, %eax
	jne	.LBB14_2
# %bb.1:                                # %func_ComputeFrameMAD.47
	callq	ComputeFrameMAD.47
	popq	%rbp
	.cfi_def_cfa %rsp, 8
	retq
.LBB14_2:                               # %func_ComputeFrameMAD.65
	.cfi_def_cfa %rbp, 16
	callq	ComputeFrameMAD.65
	popq	%rbp
	.cfi_def_cfa %rsp, 8
	retq
.Lfunc_end14:
	.size	ComputeFrameMAD, .Lfunc_end14-ComputeFrameMAD
	.cfi_endproc
                                        # -- End function
	.globl	updateMADModel          # -- Begin function updateMADModel
	.p2align	4, 0x90
	.type	updateMADModel,@function
updateMADModel:                         # @updateMADModel
	.cfi_startproc
# %bb.0:                                # %rand_bb
	pushq	%rbp
	.cfi_def_cfa_offset 16
	.cfi_offset %rbp, -16
	movq	%rsp, %rbp
	.cfi_def_cfa_register %rbp
	callq	get_rand
	cmpl	$0, %eax
	jne	.LBB15_9
# %bb.1:                                # %func_updateMADModel.2
	callq	updateMADModel.2
	popq	%rbp
	.cfi_def_cfa %rsp, 8
	retq
.LBB15_2:                               # %func_updateMADModel.11
	.cfi_def_cfa %rbp, 16
	callq	updateMADModel.11
	popq	%rbp
	.cfi_def_cfa %rsp, 8
	retq
.LBB15_3:                               # %func_updateMADModel.41
	.cfi_def_cfa %rbp, 16
	callq	updateMADModel.41
	popq	%rbp
	.cfi_def_cfa %rsp, 8
	retq
.LBB15_4:                               # %func_updateMADModel.49
	.cfi_def_cfa %rbp, 16
	callq	updateMADModel.49
	popq	%rbp
	.cfi_def_cfa %rsp, 8
	retq
.LBB15_5:                               # %func_updateMADModel.67
	.cfi_def_cfa %rbp, 16
	callq	updateMADModel.67
	popq	%rbp
	.cfi_def_cfa %rsp, 8
	retq
.LBB15_6:                               # %func_updateMADModel.73
	.cfi_def_cfa %rbp, 16
	callq	updateMADModel.73
	popq	%rbp
	.cfi_def_cfa %rsp, 8
	retq
.LBB15_7:                               # %func_updateMADModel.80
	.cfi_def_cfa %rbp, 16
	callq	updateMADModel.80
	popq	%rbp
	.cfi_def_cfa %rsp, 8
	retq
.LBB15_8:                               # %func_updateMADModel.82
	.cfi_def_cfa %rbp, 16
	callq	updateMADModel.82
	popq	%rbp
	.cfi_def_cfa %rsp, 8
	retq
.LBB15_9:                               # %ctrl0
	.cfi_def_cfa %rbp, 16
	cmpl	$1, %eax
	je	.LBB15_2
# %bb.10:                               # %ctrl1
	cmpl	$2, %eax
	je	.LBB15_3
# %bb.11:                               # %ctrl2
	cmpl	$3, %eax
	je	.LBB15_4
# %bb.12:                               # %ctrl3
	cmpl	$4, %eax
	je	.LBB15_5
# %bb.13:                               # %ctrl4
	cmpl	$5, %eax
	je	.LBB15_6
# %bb.14:                               # %ctrl5
	cmpl	$6, %eax
	je	.LBB15_7
	jmp	.LBB15_8
.Lfunc_end15:
	.size	updateMADModel, .Lfunc_end15-updateMADModel
	.cfi_endproc
                                        # -- End function
	.globl	MADModelEstimator       # -- Begin function MADModelEstimator
	.p2align	4, 0x90
	.type	MADModelEstimator,@function
MADModelEstimator:                      # @MADModelEstimator
	.cfi_startproc
# %bb.0:                                # %rand_bb
	pushq	%rbp
	.cfi_def_cfa_offset 16
	.cfi_offset %rbp, -16
	movq	%rsp, %rbp
	.cfi_def_cfa_register %rbp
	pushq	%rbx
	pushq	%rax
	.cfi_offset %rbx, -24
	movl	%edi, %ebx
	callq	get_rand
	cmpl	$0, %eax
	jne	.LBB16_9
# %bb.1:                                # %func_MADModelEstimator.4
	movl	%ebx, %edi
	callq	MADModelEstimator.4
	addq	$8, %rsp
	popq	%rbx
	popq	%rbp
	.cfi_def_cfa %rsp, 8
	retq
.LBB16_2:                               # %func_MADModelEstimator.9
	.cfi_def_cfa %rbp, 16
	movl	%ebx, %edi
	callq	MADModelEstimator.9
	addq	$8, %rsp
	popq	%rbx
	popq	%rbp
	.cfi_def_cfa %rsp, 8
	retq
.LBB16_3:                               # %func_MADModelEstimator.14
	.cfi_def_cfa %rbp, 16
	movl	%ebx, %edi
	callq	MADModelEstimator.14
	addq	$8, %rsp
	popq	%rbx
	popq	%rbp
	.cfi_def_cfa %rsp, 8
	retq
.LBB16_4:                               # %func_MADModelEstimator.26
	.cfi_def_cfa %rbp, 16
	movl	%ebx, %edi
	callq	MADModelEstimator.26
	addq	$8, %rsp
	popq	%rbx
	popq	%rbp
	.cfi_def_cfa %rsp, 8
	retq
.LBB16_5:                               # %func_MADModelEstimator.48
	.cfi_def_cfa %rbp, 16
	movl	%ebx, %edi
	callq	MADModelEstimator.48
	addq	$8, %rsp
	popq	%rbx
	popq	%rbp
	.cfi_def_cfa %rsp, 8
	retq
.LBB16_6:                               # %func_MADModelEstimator.55
	.cfi_def_cfa %rbp, 16
	movl	%ebx, %edi
	callq	MADModelEstimator.55
	addq	$8, %rsp
	popq	%rbx
	popq	%rbp
	.cfi_def_cfa %rsp, 8
	retq
.LBB16_7:                               # %func_MADModelEstimator.71
	.cfi_def_cfa %rbp, 16
	movl	%ebx, %edi
	callq	MADModelEstimator.71
	addq	$8, %rsp
	popq	%rbx
	popq	%rbp
	.cfi_def_cfa %rsp, 8
	retq
.LBB16_8:                               # %func_MADModelEstimator.89
	.cfi_def_cfa %rbp, 16
	movl	%ebx, %edi
	callq	MADModelEstimator.89
	addq	$8, %rsp
	popq	%rbx
	popq	%rbp
	.cfi_def_cfa %rsp, 8
	retq
.LBB16_9:                               # %ctrl0
	.cfi_def_cfa %rbp, 16
	cmpl	$1, %eax
	je	.LBB16_2
# %bb.10:                               # %ctrl1
	cmpl	$2, %eax
	je	.LBB16_3
# %bb.11:                               # %ctrl2
	cmpl	$3, %eax
	je	.LBB16_4
# %bb.12:                               # %ctrl3
	cmpl	$4, %eax
	je	.LBB16_5
# %bb.13:                               # %ctrl4
	cmpl	$5, %eax
	je	.LBB16_6
# %bb.14:                               # %ctrl5
	cmpl	$6, %eax
	je	.LBB16_7
	jmp	.LBB16_8
.Lfunc_end16:
	.size	MADModelEstimator, .Lfunc_end16-MADModelEstimator
	.cfi_endproc
                                        # -- End function
	.section	.rodata.cst8,"aM",@progbits,8
	.p2align	3               # -- Begin function rc_init_seq.1
.LCPI17_0:
	.quad	4605380978949069210     # double 0.80000000000000004
.LCPI17_1:
	.quad	4612947026323051643     # double 2.5600000000000001
.LCPI17_2:
	.quad	4616189618054758400     # double 4
.LCPI17_3:
	.quad	4602678819172646912     # double 0.5
.LCPI17_4:
	.quad	4606281698874543309     # double 0.90000000000000002
.LCPI17_5:
	.quad	4598175219545276416     # double 0.25
.LCPI17_6:
	.quad	4607182418800017408     # double 1
.LCPI17_7:
	.quad	4612586738352862003     # double 2.3999999999999999
.LCPI17_8:
	.quad	4608983858650965606     # double 1.3999999999999999
.LCPI17_9:
	.quad	4603579539098121011     # double 0.59999999999999998
.LCPI17_10:
	.quad	4608083138725491507     # double 1.2
.LCPI17_11:
	.quad	4596373779694328218     # double 0.20000000000000001
.LCPI17_12:
	.quad	4599075939470750515     # double 0.29999999999999999
.LCPI17_13:
	.quad	4591870180066957722     # double 0.10000000000000001
	.text
	.globl	rc_init_seq.1
	.p2align	4, 0x90
	.type	rc_init_seq.1,@function
rc_init_seq.1:                          # @rc_init_seq.1
	.cfi_startproc
# %bb.0:                                # %entry
	pushq	%rbp
	.cfi_def_cfa_offset 16
	.cfi_offset %rbp, -16
	movq	%rsp, %rbp
	.cfi_def_cfa_register %rbp
	subq	$48, %rsp
	movl	$202510818, -44(%rbp)   # imm = 0xC1211E2
	movl	$0, Xp
	movl	$0, Xb
	movq	input, %rax
	vcvtsi2sdl	3240(%rax), %xmm0, %xmm0
	vmovsd	%xmm0, bit_rate
	movq	img, %rax
	vmovss	48(%rax), %xmm0         # xmm0 = mem[0],zero,zero,zero
	movq	input, %rax
	movl	1236(%rax), %eax
	addl	$1, %eax
	vcvtsi2ss	%eax, %xmm0, %xmm1
	vmulss	%xmm1, %xmm0, %xmm0
	movq	input, %rax
	movl	20(%rax), %eax
	addl	$1, %eax
	vcvtsi2ss	%eax, %xmm0, %xmm1
	vdivss	%xmm1, %xmm0, %xmm0
	vcvtss2sd	%xmm0, %xmm0, %xmm0
	vmovsd	%xmm0, frame_rate
	vmovsd	bit_rate, %xmm0         # xmm0 = mem[0],zero
	vmovsd	%xmm0, PreviousBit_Rate
	movq	img, %rax
	movl	60(%rax), %eax
	movq	img, %rcx
	imull	52(%rcx), %eax
	cltd
	movl	$256, %ecx              # imm = 0x100
	idivl	%ecx
	movq	img, %rcx
	movl	%eax, 72608(%rcx)
	movq	input, %rax
	movl	3248(%rax), %eax
	movq	img, %rcx
	cmpl	72608(%rcx), %eax
	jle	.LBB17_2
# %bb.1:                                # %if.then
	movq	img, %rax
	movl	72608(%rax), %eax
	movq	input, %rcx
	movl	%eax, 3248(%rcx)
.LBB17_2:                               # %if.end
	movq	input, %rax
	movl	3248(%rax), %eax
	movq	img, %rcx
	cmpl	72608(%rcx), %eax
	jge	.LBB17_4
# %bb.3:                                # %if.then15
	movq	img, %rax
	movl	72608(%rax), %eax
	movq	input, %rcx
	cltd
	idivl	3248(%rcx)
	movl	%eax, TotalNumberofBasicUnit
.LBB17_4:                               # %if.end19
	vmovsd	.LCPI17_0(%rip), %xmm0  # xmm0 = mem[0],zero
	vmovsd	.LCPI17_1(%rip), %xmm1  # xmm1 = mem[0],zero
	vmovsd	.LCPI17_2(%rip), %xmm2  # xmm2 = mem[0],zero
	vmovsd	%xmm2, MINVALUE
	vmulsd	bit_rate, %xmm1, %xmm1
	vmovsd	%xmm1, BufferSize
	vxorps	%xmm1, %xmm1, %xmm1
	vmovsd	%xmm1, CurrentBufferFullness
	vmovsd	CurrentBufferFullness, %xmm1 # xmm1 = mem[0],zero
	vmovsd	%xmm1, GOPTargetBufferLevel
	vmulsd	BufferSize, %xmm0, %xmm0
	vmovsd	%xmm0, InitialDelayOffset
	movl	$0, m_windowSize
	movl	$0, MADm_windowSize
	movq	img, %rax
	movl	$0, 72560(%rax)
	movq	img, %rax
	movl	$0, 72564(%rax)
	movq	img, %rax
	movl	$0, 72568(%rax)
	movl	$0, R
	movq	input, %rax
	cmpl	$0, 1236(%rax)
	jle	.LBB17_6
# %bb.5:                                # %if.then25
	vmovsd	.LCPI17_4(%rip), %xmm0  # xmm0 = mem[0],zero
	vmovsd	.LCPI17_5(%rip), %xmm1  # xmm1 = mem[0],zero
	vmovsd	%xmm1, GAMMAP
	vmovsd	%xmm0, BETAP
	jmp	.LBB17_7
.LBB17_6:                               # %if.else
	vmovsd	.LCPI17_3(%rip), %xmm0  # xmm0 = mem[0],zero
	vmovsd	%xmm0, GAMMAP
	vmovsd	%xmm0, BETAP
.LBB17_7:                               # %if.end26
	vmovsd	.LCPI17_6(%rip), %xmm0  # xmm0 = mem[0],zero
	movl	$0, PPreHeader
	vmulsd	bit_rate, %xmm0, %xmm1
	vmovsd	%xmm1, Pm_X1
	vxorps	%xmm1, %xmm1, %xmm1
	vmovsd	%xmm1, Pm_X2
	vmovsd	%xmm0, PMADPictureC1
	vmovsd	%xmm1, PMADPictureC2
	movl	$0, -4(%rbp)
.LBB17_8:                               # %for.cond
                                        # =>This Inner Loop Header: Depth=1
	cmpl	$20, -4(%rbp)
	jge	.LBB17_11
# %bb.9:                                # %for.body
                                        #   in Loop: Header=BB17_8 Depth=1
	movslq	-4(%rbp), %rax
	vxorps	%xmm0, %xmm0, %xmm0
	vmovsd	%xmm0, Pm_rgQp(,%rax,8)
	movslq	-4(%rbp), %rax
	vmovsd	%xmm0, Pm_rgRp(,%rax,8)
	movslq	-4(%rbp), %rax
	vmovsd	%xmm0, PPictureMAD(,%rax,8)
# %bb.10:                               # %for.inc
                                        #   in Loop: Header=BB17_8 Depth=1
	movl	-4(%rbp), %eax
	addl	$1, %eax
	movl	%eax, -4(%rbp)
	jmp	.LBB17_8
.LBB17_11:                              # %for.end
	vxorps	%xmm0, %xmm0, %xmm0
	vmovsd	%xmm0, PPictureMAD+160
	movl	$2, PDuantQp
	movl	$0, PAveHeaderBits1
	movl	$0, PAveHeaderBits3
	cmpl	$9, TotalNumberofBasicUnit
	jl	.LBB17_13
# %bb.12:                               # %if.then36
	movl	$1, DDquant
	jmp	.LBB17_14
.LBB17_13:                              # %if.else37
	movl	$2, DDquant
.LBB17_14:                              # %if.end38
	vmovsd	.LCPI17_6(%rip), %xmm0  # xmm0 = mem[0],zero
	movq	img, %rax
	movl	52(%rax), %eax
	cltd
	movl	$16, %ecx
	idivl	%ecx
	movl	%eax, MBPerRow
	movq	img, %rax
	movl	$0, 72600(%rax)
	movl	$51, RC_MAX_QUANT
	movl	$0, RC_MIN_QUANT
	vmulsd	bit_rate, %xmm0, %xmm0
	vmovsd	frame_rate, %xmm1       # xmm1 = mem[0],zero
	movq	img, %rax
	vcvtsi2sdl	52(%rax), %xmm0, %xmm2
	vmulsd	%xmm2, %xmm1, %xmm1
	movq	img, %rax
	vcvtsi2sdl	60(%rax), %xmm0, %xmm2
	vmulsd	%xmm2, %xmm1, %xmm1
	vdivsd	%xmm1, %xmm0, %xmm0
	vmovsd	%xmm0, -24(%rbp)
	movq	img, %rax
	cmpl	$176, 52(%rax)
	jne	.LBB17_16
# %bb.15:                               # %if.then52
	vmovsd	.LCPI17_9(%rip), %xmm0  # xmm0 = mem[0],zero
	vmovsd	.LCPI17_12(%rip), %xmm1 # xmm1 = mem[0],zero
	vmovsd	.LCPI17_13(%rip), %xmm2 # xmm2 = mem[0],zero
	vmovsd	%xmm2, -32(%rbp)
	vmovsd	%xmm1, -16(%rbp)
	vmovsd	%xmm0, -40(%rbp)
	jmp	.LBB17_20
.LBB17_16:                              # %if.else53
	movq	img, %rax
	cmpl	$352, 52(%rax)          # imm = 0x160
	jne	.LBB17_18
# %bb.17:                               # %if.then57
	vmovsd	.LCPI17_10(%rip), %xmm0 # xmm0 = mem[0],zero
	vmovsd	.LCPI17_9(%rip), %xmm1  # xmm1 = mem[0],zero
	vmovsd	.LCPI17_11(%rip), %xmm2 # xmm2 = mem[0],zero
	vmovsd	%xmm2, -32(%rbp)
	vmovsd	%xmm1, -16(%rbp)
	vmovsd	%xmm0, -40(%rbp)
	jmp	.LBB17_19
.LBB17_18:                              # %if.else58
	vmovsd	.LCPI17_7(%rip), %xmm0  # xmm0 = mem[0],zero
	vmovsd	.LCPI17_8(%rip), %xmm1  # xmm1 = mem[0],zero
	vmovsd	.LCPI17_9(%rip), %xmm2  # xmm2 = mem[0],zero
	vmovsd	%xmm2, -32(%rbp)
	vmovsd	%xmm1, -16(%rbp)
	vmovsd	%xmm0, -40(%rbp)
.LBB17_19:                              # %if.end59
	jmp	.LBB17_20
.LBB17_20:                              # %if.end60
	movq	input, %rax
	cmpl	$0, 3244(%rax)
	jne	.LBB17_31
# %bb.21:                               # %if.then63
	vmovsd	-24(%rbp), %xmm0        # xmm0 = mem[0],zero
	vmovsd	-32(%rbp), %xmm1        # xmm1 = mem[0],zero
	vucomisd	%xmm0, %xmm1
	jb	.LBB17_23
# %bb.22:                               # %if.then66
	movl	$35, -8(%rbp)
	jmp	.LBB17_30
.LBB17_23:                              # %if.else67
	vmovsd	-24(%rbp), %xmm0        # xmm0 = mem[0],zero
	vmovsd	-16(%rbp), %xmm1        # xmm1 = mem[0],zero
	vucomisd	%xmm0, %xmm1
	jb	.LBB17_25
# %bb.24:                               # %if.then70
	movl	$25, -8(%rbp)
	jmp	.LBB17_29
.LBB17_25:                              # %if.else71
	vmovsd	-24(%rbp), %xmm0        # xmm0 = mem[0],zero
	vmovsd	-40(%rbp), %xmm1        # xmm1 = mem[0],zero
	vucomisd	%xmm0, %xmm1
	jb	.LBB17_27
# %bb.26:                               # %if.then74
	movl	$20, -8(%rbp)
	jmp	.LBB17_28
.LBB17_27:                              # %if.else75
	movl	$10, -8(%rbp)
.LBB17_28:                              # %if.end76
	jmp	.LBB17_29
.LBB17_29:                              # %if.end77
	jmp	.LBB17_30
.LBB17_30:                              # %if.end78
	movl	-8(%rbp), %eax
	movq	input, %rcx
	movl	%eax, 3244(%rcx)
.LBB17_31:                              # %if.end80
	cmpl	$202510818, -44(%rbp)   # imm = 0xC1211E2
	jne	.LBB17_33
.LBB17_32:
	addq	$48, %rsp
	popq	%rbp
	.cfi_def_cfa %rsp, 8
	retq
.LBB17_33:                              # %func_exit
	.cfi_def_cfa %rbp, 16
	callq	detect_breach
	jmp	.LBB17_32
.Lfunc_end17:
	.size	rc_init_seq.1, .Lfunc_end17-rc_init_seq.1
	.cfi_endproc
                                        # -- End function
	.section	.rodata.cst8,"aM",@progbits,8
	.p2align	3               # -- Begin function updateMADModel.2
.LCPI18_0:
	.quad	4626322717216342016     # double 20
	.section	.rodata.cst16,"aM",@progbits,16
	.p2align	4
.LCPI18_1:
	.quad	9223372036854775807     # double NaN
	.quad	9223372036854775807     # double NaN
	.text
	.globl	updateMADModel.2
	.p2align	4, 0x90
	.type	updateMADModel.2,@function
updateMADModel.2:                       # @updateMADModel.2
	.cfi_startproc
# %bb.0:                                # %entry
	pushq	%rbp
	.cfi_def_cfa_offset 16
	.cfi_offset %rbp, -16
	movq	%rsp, %rbp
	.cfi_def_cfa_register %rbp
	subq	$208, %rsp
	movl	$1512018972, -28(%rbp)  # imm = 0x5A1F941C
	vxorps	%xmm0, %xmm0, %xmm0
	vmovsd	%xmm0, -24(%rbp)
	movq	img, %rax
	cmpl	$0, 72564(%rax)
	jle	.LBB18_51
# %bb.1:                                # %if.then
	movq	img, %rax
	movl	72620(%rax), %eax
	movq	img, %rcx
	cmpl	72608(%rcx), %eax
	jne	.LBB18_3
# %bb.2:                                # %if.then2
	movq	img, %rax
	movl	72564(%rax), %eax
	movl	%eax, -12(%rbp)
	jmp	.LBB18_4
.LBB18_3:                               # %if.else
	movq	img, %rax
	movl	72564(%rax), %eax
	imull	TotalNumberofBasicUnit, %eax
	addl	CodedBasicUnit, %eax
	movl	%eax, -12(%rbp)
.LBB18_4:                               # %if.end
	movl	$19, -4(%rbp)
.LBB18_5:                               # %for.cond
                                        # =>This Inner Loop Header: Depth=1
	cmpl	$0, -4(%rbp)
	jle	.LBB18_8
# %bb.6:                                # %for.body
                                        #   in Loop: Header=BB18_5 Depth=1
	movl	-4(%rbp), %eax
	subl	$1, %eax
	cltq
	vmovsd	PPictureMAD(,%rax,8), %xmm0 # xmm0 = mem[0],zero
	movslq	-4(%rbp), %rax
	vmovsd	%xmm0, PPictureMAD(,%rax,8)
	movslq	-4(%rbp), %rax
	vmovsd	PPictureMAD(,%rax,8), %xmm0 # xmm0 = mem[0],zero
	movslq	-4(%rbp), %rax
	vmovsd	%xmm0, PictureMAD(,%rax,8)
	movl	-4(%rbp), %eax
	subl	$1, %eax
	cltq
	vmovsd	ReferenceMAD(,%rax,8), %xmm0 # xmm0 = mem[0],zero
	movslq	-4(%rbp), %rax
	vmovsd	%xmm0, ReferenceMAD(,%rax,8)
# %bb.7:                                # %for.inc
                                        #   in Loop: Header=BB18_5 Depth=1
	movl	-4(%rbp), %eax
	addl	$-1, %eax
	movl	%eax, -4(%rbp)
	jmp	.LBB18_5
.LBB18_8:                               # %for.end
	vmovsd	CurrentFrameMAD, %xmm0  # xmm0 = mem[0],zero
	vmovsd	%xmm0, PPictureMAD
	vmovsd	PPictureMAD, %xmm0      # xmm0 = mem[0],zero
	vmovsd	%xmm0, PictureMAD
	movq	img, %rax
	movl	72620(%rax), %eax
	movq	img, %rcx
	cmpl	72608(%rcx), %eax
	jne	.LBB18_10
# %bb.9:                                # %if.then20
	vmovsd	PictureMAD+8, %xmm0     # xmm0 = mem[0],zero
	vmovsd	%xmm0, ReferenceMAD
	jmp	.LBB18_16
.LBB18_10:                              # %if.else21
	movq	input, %rax
	cmpl	$2, 2880(%rax)
	je	.LBB18_12
# %bb.11:                               # %lor.lhs.false
	movq	input, %rax
	cmpl	$0, 2884(%rax)
	je	.LBB18_14
.LBB18_12:                              # %land.lhs.true
	movq	img, %rax
	cmpl	$1, 72600(%rax)
	jne	.LBB18_14
# %bb.13:                               # %if.then24
	movq	FCBUPFMAD, %rax
	movl	TotalNumberofBasicUnit, %ecx
	subl	$1, %ecx
	subl	NumberofBasicUnit, %ecx
	movslq	%ecx, %rcx
	vmovsd	(%rax,%rcx,8), %xmm0    # xmm0 = mem[0],zero
	vmovsd	%xmm0, ReferenceMAD
	jmp	.LBB18_15
.LBB18_14:                              # %if.else29
	movq	BUPFMAD, %rax
	movl	TotalNumberofBasicUnit, %ecx
	subl	$1, %ecx
	subl	NumberofBasicUnit, %ecx
	movslq	%ecx, %rcx
	vmovsd	(%rax,%rcx,8), %xmm0    # xmm0 = mem[0],zero
	vmovsd	%xmm0, ReferenceMAD
.LBB18_15:                              # %if.end34
	jmp	.LBB18_16
.LBB18_16:                              # %if.end35
	vmovsd	PMADPictureC1, %xmm0    # xmm0 = mem[0],zero
	vmovsd	%xmm0, MADPictureC1
	vmovsd	PMADPictureC2, %xmm0    # xmm0 = mem[0],zero
	vmovsd	%xmm0, MADPictureC2
	vmovsd	CurrentFrameMAD, %xmm0  # xmm0 = mem[0],zero
	vucomisd	PreviousFrameMAD, %xmm0
	jbe	.LBB18_18
# %bb.17:                               # %cond.true
	vmovsd	.LCPI18_0(%rip), %xmm0  # xmm0 = mem[0],zero
	vmovsd	PreviousFrameMAD, %xmm1 # xmm1 = mem[0],zero
	vdivsd	CurrentFrameMAD, %xmm1, %xmm1
	vmulsd	%xmm0, %xmm1, %xmm0
	vcvttsd2si	%xmm0, %eax
	jmp	.LBB18_19
.LBB18_18:                              # %cond.false
	vmovsd	.LCPI18_0(%rip), %xmm0  # xmm0 = mem[0],zero
	vmovsd	CurrentFrameMAD, %xmm1  # xmm1 = mem[0],zero
	vdivsd	PreviousFrameMAD, %xmm1, %xmm1
	vmulsd	%xmm0, %xmm1, %xmm0
	vcvttsd2si	%xmm0, %eax
.LBB18_19:                              # %cond.end
	movl	%eax, -8(%rbp)
	movl	-8(%rbp), %eax
	movl	-12(%rbp), %ecx
	subl	$1, %ecx
	cmpl	%ecx, %eax
	jge	.LBB18_21
# %bb.20:                               # %cond.true44
	movl	-8(%rbp), %eax
	jmp	.LBB18_22
.LBB18_21:                              # %cond.false45
	movl	-12(%rbp), %eax
	subl	$1, %eax
.LBB18_22:                              # %cond.end47
	movl	%eax, -8(%rbp)
	cmpl	$1, -8(%rbp)
	jge	.LBB18_24
# %bb.23:                               # %cond.true51
	movl	$1, %eax
	jmp	.LBB18_25
.LBB18_24:                              # %cond.false52
	movl	-8(%rbp), %eax
.LBB18_25:                              # %cond.end53
	movl	%eax, -8(%rbp)
	movl	-8(%rbp), %eax
	movl	MADm_windowSize, %ecx
	addl	$1, %ecx
	cmpl	%ecx, %eax
	jge	.LBB18_27
# %bb.26:                               # %cond.true58
	movl	-8(%rbp), %eax
	jmp	.LBB18_28
.LBB18_27:                              # %cond.false59
	movl	MADm_windowSize, %eax
	addl	$1, %eax
.LBB18_28:                              # %cond.end61
	movl	%eax, -8(%rbp)
	movl	$20, %eax
	cmpl	-8(%rbp), %eax
	jge	.LBB18_30
# %bb.29:                               # %cond.true65
	movl	$20, %eax
	jmp	.LBB18_31
.LBB18_30:                              # %cond.false66
	movl	-8(%rbp), %eax
.LBB18_31:                              # %cond.end67
	movl	%eax, -8(%rbp)
	movl	-8(%rbp), %eax
	movl	%eax, MADm_windowSize
	movl	$0, -4(%rbp)
.LBB18_32:                              # %for.cond69
                                        # =>This Inner Loop Header: Depth=1
	cmpl	$20, -4(%rbp)
	jge	.LBB18_35
# %bb.33:                               # %for.body72
                                        #   in Loop: Header=BB18_32 Depth=1
	movslq	-4(%rbp), %rax
	movl	$0, PictureRejected(,%rax,4)
# %bb.34:                               # %for.inc75
                                        #   in Loop: Header=BB18_32 Depth=1
	movl	-4(%rbp), %eax
	addl	$1, %eax
	movl	%eax, -4(%rbp)
	jmp	.LBB18_32
.LBB18_35:                              # %for.end76
	movq	img, %rax
	cmpl	$0, 24(%rax)
	jne	.LBB18_37
# %bb.36:                               # %if.then79
	vmovsd	CurrentFrameMAD, %xmm0  # xmm0 = mem[0],zero
	vmovsd	%xmm0, PreviousFrameMAD
.LBB18_37:                              # %if.end80
	movl	-8(%rbp), %edi
	callq	MADModelEstimator
	movl	$0, -4(%rbp)
.LBB18_38:                              # %for.cond81
                                        # =>This Inner Loop Header: Depth=1
	movl	-4(%rbp), %eax
	cmpl	-8(%rbp), %eax
	jge	.LBB18_41
# %bb.39:                               # %for.body84
                                        #   in Loop: Header=BB18_38 Depth=1
	vmovsd	MADPictureC1, %xmm0     # xmm0 = mem[0],zero
	movslq	-4(%rbp), %rax
	vmulsd	ReferenceMAD(,%rax,8), %xmm0, %xmm0
	vaddsd	MADPictureC2, %xmm0, %xmm0
	movslq	-4(%rbp), %rax
	vsubsd	PictureMAD(,%rax,8), %xmm0, %xmm0
	movslq	-4(%rbp), %rax
	vmovsd	%xmm0, -208(%rbp,%rax,8)
	movslq	-4(%rbp), %rax
	vmovsd	-208(%rbp,%rax,8), %xmm0 # xmm0 = mem[0],zero
	movslq	-4(%rbp), %rax
	vmulsd	-208(%rbp,%rax,8), %xmm0, %xmm0
	vaddsd	-24(%rbp), %xmm0, %xmm0
	vmovsd	%xmm0, -24(%rbp)
# %bb.40:                               # %for.inc100
                                        #   in Loop: Header=BB18_38 Depth=1
	movl	-4(%rbp), %eax
	addl	$1, %eax
	movl	%eax, -4(%rbp)
	jmp	.LBB18_38
.LBB18_41:                              # %for.end102
	cmpl	$2, -8(%rbp)
	jne	.LBB18_43
# %bb.42:                               # %cond.true105
	vxorps	%xmm0, %xmm0, %xmm0
	jmp	.LBB18_44
.LBB18_43:                              # %cond.false106
	vmovsd	-24(%rbp), %xmm0        # xmm0 = mem[0],zero
	vcvtsi2sdl	-8(%rbp), %xmm0, %xmm1
	vdivsd	%xmm1, %xmm0, %xmm0
	callq	sqrt
.LBB18_44:                              # %cond.end109
	vmovsd	%xmm0, -40(%rbp)
	movl	$0, -4(%rbp)
.LBB18_45:                              # %for.cond111
                                        # =>This Inner Loop Header: Depth=1
	movl	-4(%rbp), %eax
	cmpl	-8(%rbp), %eax
	jge	.LBB18_50
# %bb.46:                               # %for.body114
                                        #   in Loop: Header=BB18_45 Depth=1
	movslq	-4(%rbp), %rax
	vmovsd	-208(%rbp,%rax,8), %xmm0 # xmm0 = mem[0],zero
	vmovdqa	.LCPI18_1(%rip), %xmm1  # xmm1 = [NaN,NaN]
	vpand	%xmm1, %xmm0, %xmm0
	vucomisd	-40(%rbp), %xmm0
	jbe	.LBB18_48
# %bb.47:                               # %if.then119
                                        #   in Loop: Header=BB18_45 Depth=1
	movslq	-4(%rbp), %rax
	movl	$1, PictureRejected(,%rax,4)
.LBB18_48:                              # %if.end122
                                        #   in Loop: Header=BB18_45 Depth=1
	jmp	.LBB18_49
.LBB18_49:                              # %for.inc123
                                        #   in Loop: Header=BB18_45 Depth=1
	movl	-4(%rbp), %eax
	addl	$1, %eax
	movl	%eax, -4(%rbp)
	jmp	.LBB18_45
.LBB18_50:                              # %for.end125
	movl	$0, PictureRejected
	movl	-8(%rbp), %edi
	callq	MADModelEstimator
.LBB18_51:                              # %if.end126
	cmpl	$1512018972, -28(%rbp)  # imm = 0x5A1F941C
	jne	.LBB18_53
.LBB18_52:
	addq	$208, %rsp
	popq	%rbp
	.cfi_def_cfa %rsp, 8
	retq
.LBB18_53:                              # %func_exit
	.cfi_def_cfa %rbp, 16
	callq	detect_breach
	jmp	.LBB18_52
.Lfunc_end18:
	.size	updateMADModel.2, .Lfunc_end18-updateMADModel.2
	.cfi_endproc
                                        # -- End function
	.section	.rodata.cst8,"aM",@progbits,8
	.p2align	3               # -- Begin function updateRCModel.3
.LCPI19_0:
	.quad	4611686018427387904     # double 2
.LCPI19_1:
	.quad	4602678819172646912     # double 0.5
.LCPI19_2:
	.quad	4607182418800017408     # double 1
.LCPI19_3:
	.quad	4626322717216342016     # double 20
	.section	.rodata.cst16,"aM",@progbits,16
	.p2align	4
.LCPI19_4:
	.quad	9223372036854775807     # double NaN
	.quad	9223372036854775807     # double NaN
	.text
	.globl	updateRCModel.3
	.p2align	4, 0x90
	.type	updateRCModel.3,@function
updateRCModel.3:                        # @updateRCModel.3
	.cfi_startproc
# %bb.0:                                # %entry
	pushq	%rbp
	.cfi_def_cfa_offset 16
	.cfi_offset %rbp, -16
	movq	%rsp, %rbp
	.cfi_def_cfa_register %rbp
	subq	$208, %rsp
	movl	$1912083454, -28(%rbp)  # imm = 0x71F813FE
	vxorps	%xmm0, %xmm0, %xmm0
	vmovsd	%xmm0, -24(%rbp)
	movl	$0, -16(%rbp)
	movq	img, %rax
	cmpl	$0, 24(%rax)
	jne	.LBB19_68
# %bb.1:                                # %if.then
	movq	img, %rax
	movl	72620(%rax), %eax
	movq	img, %rcx
	cmpl	72608(%rcx), %eax
	jne	.LBB19_3
# %bb.2:                                # %if.then2
	callq	ComputeFrameMAD
	vmovsd	%xmm0, CurrentFrameMAD
	movq	img, %rax
	movl	72564(%rax), %eax
	movl	%eax, -12(%rbp)
	jmp	.LBB19_21
.LBB19_3:                               # %if.else
	movq	input, %rax
	cmpl	$0, 2884(%rax)
	je	.LBB19_6
# %bb.4:                                # %land.lhs.true
	movq	img, %rax
	cmpl	$0, 72600(%rax)
	jne	.LBB19_6
# %bb.5:                                # %if.then4
	vmovsd	.LCPI19_0(%rip), %xmm0  # xmm0 = mem[0],zero
	movq	img, %rax
	vmovsd	72544(%rax), %xmm1      # xmm1 = mem[0],zero
	movq	img, %rax
	vcvtsi2sdl	72620(%rax), %xmm0, %xmm2
	vdivsd	%xmm2, %xmm1, %xmm1
	vdivsd	%xmm0, %xmm1, %xmm0
	vmovsd	%xmm0, CurrentFrameMAD
	jmp	.LBB19_7
.LBB19_6:                               # %if.else7
	movq	img, %rax
	vmovsd	72544(%rax), %xmm0      # xmm0 = mem[0],zero
	movq	img, %rax
	vcvtsi2sdl	72620(%rax), %xmm0, %xmm1
	vdivsd	%xmm1, %xmm0, %xmm0
	vmovsd	%xmm0, CurrentFrameMAD
.LBB19_7:                               # %if.end
	movq	img, %rax
	vxorps	%xmm0, %xmm0, %xmm0
	vmovsd	%xmm0, 72544(%rax)
	movl	TotalNumberofBasicUnit, %eax
	subl	NumberofBasicUnit, %eax
	movl	%eax, CodedBasicUnit
	cmpl	$0, CodedBasicUnit
	jle	.LBB19_12
# %bb.8:                                # %if.then15
	vmovsd	.LCPI19_1(%rip), %xmm0  # xmm0 = mem[0],zero
	vmovsd	.LCPI19_2(%rip), %xmm1  # xmm1 = mem[0],zero
	movl	PAveHeaderBits1, %eax
	movl	CodedBasicUnit, %ecx
	subl	$1, %ecx
	imull	%ecx, %eax
	movq	img, %rcx
	addl	72532(%rcx), %eax
	vcvtsi2sd	%eax, %xmm0, %xmm2
	vmulsd	%xmm2, %xmm1, %xmm1
	vcvtsi2sdl	CodedBasicUnit, %xmm0, %xmm2
	vdivsd	%xmm2, %xmm1, %xmm1
	vaddsd	%xmm0, %xmm1, %xmm0
	vcvttsd2si	%xmm0, %eax
	movl	%eax, PAveHeaderBits1
	cmpl	$0, PAveHeaderBits3
	jne	.LBB19_10
# %bb.9:                                # %if.then25
	movl	PAveHeaderBits1, %eax
	movl	%eax, PAveHeaderBits2
	jmp	.LBB19_11
.LBB19_10:                              # %if.else26
	vmovsd	.LCPI19_1(%rip), %xmm0  # xmm0 = mem[0],zero
	vmovsd	.LCPI19_2(%rip), %xmm1  # xmm1 = mem[0],zero
	movl	PAveHeaderBits1, %eax
	imull	CodedBasicUnit, %eax
	movl	PAveHeaderBits3, %ecx
	imull	NumberofBasicUnit, %ecx
	addl	%ecx, %eax
	vcvtsi2sd	%eax, %xmm0, %xmm2
	vmulsd	%xmm2, %xmm1, %xmm1
	vcvtsi2sdl	TotalNumberofBasicUnit, %xmm0, %xmm2
	vdivsd	%xmm2, %xmm1, %xmm1
	vaddsd	%xmm0, %xmm1, %xmm0
	vcvttsd2si	%xmm0, %eax
	movl	%eax, PAveHeaderBits2
.LBB19_11:                              # %if.end36
	jmp	.LBB19_12
.LBB19_12:                              # %if.end37
	movq	input, %rax
	cmpl	$2, 2880(%rax)
	je	.LBB19_14
# %bb.13:                               # %lor.lhs.false
	movq	input, %rax
	cmpl	$0, 2884(%rax)
	je	.LBB19_16
.LBB19_14:                              # %land.lhs.true42
	movq	img, %rax
	cmpl	$1, 72600(%rax)
	jne	.LBB19_16
# %bb.15:                               # %if.then46
	vmovsd	CurrentFrameMAD, %xmm0  # xmm0 = mem[0],zero
	movq	FCBUCFMAD, %rax
	movl	TotalNumberofBasicUnit, %ecx
	subl	$1, %ecx
	subl	NumberofBasicUnit, %ecx
	movslq	%ecx, %rcx
	vmovsd	%xmm0, (%rax,%rcx,8)
	jmp	.LBB19_17
.LBB19_16:                              # %if.else49
	vmovsd	CurrentFrameMAD, %xmm0  # xmm0 = mem[0],zero
	movq	BUCFMAD, %rax
	movl	TotalNumberofBasicUnit, %ecx
	subl	$1, %ecx
	subl	NumberofBasicUnit, %ecx
	movslq	%ecx, %rcx
	vmovsd	%xmm0, (%rax,%rcx,8)
.LBB19_17:                              # %if.end54
	cmpl	$0, NumberofBasicUnit
	je	.LBB19_19
# %bb.18:                               # %if.then57
	movq	img, %rax
	movl	72564(%rax), %eax
	imull	TotalNumberofBasicUnit, %eax
	addl	CodedBasicUnit, %eax
	movl	%eax, -12(%rbp)
	jmp	.LBB19_20
.LBB19_19:                              # %if.else61
	movq	img, %rax
	movl	72564(%rax), %eax
	subl	$1, %eax
	imull	TotalNumberofBasicUnit, %eax
	addl	CodedBasicUnit, %eax
	movl	%eax, -12(%rbp)
.LBB19_20:                              # %if.end66
	jmp	.LBB19_21
.LBB19_21:                              # %if.end67
	cmpl	$1, -12(%rbp)
	jle	.LBB19_23
# %bb.22:                               # %if.then70
	movl	$1, -16(%rbp)
.LBB19_23:                              # %if.end71
	movq	img, %rax
	movl	72524(%rax), %eax
	movl	%eax, PPreHeader
	movl	$19, -4(%rbp)
.LBB19_24:                              # %for.cond
                                        # =>This Inner Loop Header: Depth=1
	cmpl	$0, -4(%rbp)
	jle	.LBB19_27
# %bb.25:                               # %for.body
                                        #   in Loop: Header=BB19_24 Depth=1
	movl	-4(%rbp), %eax
	subl	$1, %eax
	cltq
	vmovsd	Pm_rgQp(,%rax,8), %xmm0 # xmm0 = mem[0],zero
	movslq	-4(%rbp), %rax
	vmovsd	%xmm0, Pm_rgQp(,%rax,8)
	movslq	-4(%rbp), %rax
	vmovsd	Pm_rgQp(,%rax,8), %xmm0 # xmm0 = mem[0],zero
	movslq	-4(%rbp), %rax
	vmovsd	%xmm0, m_rgQp(,%rax,8)
	movl	-4(%rbp), %eax
	subl	$1, %eax
	cltq
	vmovsd	Pm_rgRp(,%rax,8), %xmm0 # xmm0 = mem[0],zero
	movslq	-4(%rbp), %rax
	vmovsd	%xmm0, Pm_rgRp(,%rax,8)
	movslq	-4(%rbp), %rax
	vmovsd	Pm_rgRp(,%rax,8), %xmm0 # xmm0 = mem[0],zero
	movslq	-4(%rbp), %rax
	vmovsd	%xmm0, m_rgRp(,%rax,8)
# %bb.26:                               # %for.inc
                                        #   in Loop: Header=BB19_24 Depth=1
	movl	-4(%rbp), %eax
	addl	$-1, %eax
	movl	%eax, -4(%rbp)
	jmp	.LBB19_24
.LBB19_27:                              # %for.end
	movl	m_Qc, %edi
	callq	QP2Qstep
	vmovsd	%xmm0, Pm_rgQp
	movq	img, %rax
	movl	72620(%rax), %eax
	movq	img, %rcx
	cmpl	72608(%rcx), %eax
	jne	.LBB19_29
# %bb.28:                               # %if.then97
	vmovsd	.LCPI19_2(%rip), %xmm0  # xmm0 = mem[0],zero
	movq	img, %rax
	vcvtsi2sdl	72528(%rax), %xmm0, %xmm1
	vmulsd	%xmm0, %xmm1, %xmm0
	vdivsd	CurrentFrameMAD, %xmm0, %xmm0
	vmovsd	%xmm0, Pm_rgRp
	jmp	.LBB19_30
.LBB19_29:                              # %if.else101
	vmovsd	.LCPI19_2(%rip), %xmm0  # xmm0 = mem[0],zero
	movq	img, %rax
	vcvtsi2sdl	72536(%rax), %xmm0, %xmm1
	vmulsd	%xmm0, %xmm1, %xmm0
	vdivsd	CurrentFrameMAD, %xmm0, %xmm0
	vmovsd	%xmm0, Pm_rgRp
.LBB19_30:                              # %if.end105
	vmovsd	Pm_rgQp, %xmm0          # xmm0 = mem[0],zero
	vmovsd	%xmm0, m_rgQp
	vmovsd	Pm_rgRp, %xmm0          # xmm0 = mem[0],zero
	vmovsd	%xmm0, m_rgRp
	vmovsd	Pm_X1, %xmm0            # xmm0 = mem[0],zero
	vmovsd	%xmm0, m_X1
	vmovsd	Pm_X2, %xmm0            # xmm0 = mem[0],zero
	vmovsd	%xmm0, m_X2
	vmovsd	CurrentFrameMAD, %xmm0  # xmm0 = mem[0],zero
	vucomisd	PreviousFrameMAD, %xmm0
	jbe	.LBB19_32
# %bb.31:                               # %cond.true
	vmovsd	.LCPI19_3(%rip), %xmm0  # xmm0 = mem[0],zero
	vmovsd	PreviousFrameMAD, %xmm1 # xmm1 = mem[0],zero
	vdivsd	CurrentFrameMAD, %xmm1, %xmm1
	vmulsd	%xmm0, %xmm1, %xmm0
	vcvttsd2si	%xmm0, %eax
	jmp	.LBB19_33
.LBB19_32:                              # %cond.false
	vmovsd	.LCPI19_3(%rip), %xmm0  # xmm0 = mem[0],zero
	vmovsd	CurrentFrameMAD, %xmm1  # xmm1 = mem[0],zero
	vdivsd	PreviousFrameMAD, %xmm1, %xmm1
	vmulsd	%xmm0, %xmm1, %xmm0
	vcvttsd2si	%xmm0, %eax
.LBB19_33:                              # %cond.end
	movl	%eax, -8(%rbp)
	cmpl	$1, -8(%rbp)
	jge	.LBB19_35
# %bb.34:                               # %cond.true116
	movl	$1, %eax
	jmp	.LBB19_36
.LBB19_35:                              # %cond.false117
	movl	-8(%rbp), %eax
.LBB19_36:                              # %cond.end118
	movl	%eax, -8(%rbp)
	movl	-8(%rbp), %eax
	cmpl	-12(%rbp), %eax
	jge	.LBB19_38
# %bb.37:                               # %cond.true122
	movl	-8(%rbp), %eax
	jmp	.LBB19_39
.LBB19_38:                              # %cond.false123
	movl	-12(%rbp), %eax
.LBB19_39:                              # %cond.end124
	movl	%eax, -8(%rbp)
	movl	-8(%rbp), %eax
	movl	m_windowSize, %ecx
	addl	$1, %ecx
	cmpl	%ecx, %eax
	jge	.LBB19_41
# %bb.40:                               # %cond.true129
	movl	-8(%rbp), %eax
	jmp	.LBB19_42
.LBB19_41:                              # %cond.false130
	movl	m_windowSize, %eax
	addl	$1, %eax
.LBB19_42:                              # %cond.end132
	movl	%eax, -8(%rbp)
	cmpl	$20, -8(%rbp)
	jge	.LBB19_44
# %bb.43:                               # %cond.true136
	movl	-8(%rbp), %eax
	jmp	.LBB19_45
.LBB19_44:                              # %cond.false137
	movl	$20, %eax
	jmp	.LBB19_45
.LBB19_45:                              # %cond.end138
	movl	%eax, -8(%rbp)
	movl	-8(%rbp), %eax
	movl	%eax, m_windowSize
	movl	$0, -4(%rbp)
.LBB19_46:                              # %for.cond140
                                        # =>This Inner Loop Header: Depth=1
	cmpl	$20, -4(%rbp)
	jge	.LBB19_49
# %bb.47:                               # %for.body143
                                        #   in Loop: Header=BB19_46 Depth=1
	movslq	-4(%rbp), %rax
	movl	$0, m_rgRejected(,%rax,4)
# %bb.48:                               # %for.inc146
                                        #   in Loop: Header=BB19_46 Depth=1
	movl	-4(%rbp), %eax
	addl	$1, %eax
	movl	%eax, -4(%rbp)
	jmp	.LBB19_46
.LBB19_49:                              # %for.end147
	movl	-8(%rbp), %edi
	callq	RCModelEstimator
	movl	m_windowSize, %eax
	movl	%eax, -8(%rbp)
	movl	$0, -4(%rbp)
.LBB19_50:                              # %for.cond148
                                        # =>This Inner Loop Header: Depth=1
	movl	-4(%rbp), %eax
	cmpl	-8(%rbp), %eax
	jge	.LBB19_53
# %bb.51:                               # %for.body151
                                        #   in Loop: Header=BB19_50 Depth=1
	vmovsd	m_X1, %xmm0             # xmm0 = mem[0],zero
	movslq	-4(%rbp), %rax
	vdivsd	m_rgQp(,%rax,8), %xmm0, %xmm0
	vmovsd	m_X2, %xmm1             # xmm1 = mem[0],zero
	movslq	-4(%rbp), %rax
	vmovsd	m_rgQp(,%rax,8), %xmm2  # xmm2 = mem[0],zero
	movslq	-4(%rbp), %rax
	vmulsd	m_rgQp(,%rax,8), %xmm2, %xmm2
	vdivsd	%xmm2, %xmm1, %xmm1
	vaddsd	%xmm1, %xmm0, %xmm0
	movslq	-4(%rbp), %rax
	vsubsd	m_rgRp(,%rax,8), %xmm0, %xmm0
	movslq	-4(%rbp), %rax
	vmovsd	%xmm0, -208(%rbp,%rax,8)
	movslq	-4(%rbp), %rax
	vmovsd	-208(%rbp,%rax,8), %xmm0 # xmm0 = mem[0],zero
	movslq	-4(%rbp), %rax
	vmulsd	-208(%rbp,%rax,8), %xmm0, %xmm0
	vaddsd	-24(%rbp), %xmm0, %xmm0
	vmovsd	%xmm0, -24(%rbp)
# %bb.52:                               # %for.inc173
                                        #   in Loop: Header=BB19_50 Depth=1
	movl	-4(%rbp), %eax
	addl	$1, %eax
	movl	%eax, -4(%rbp)
	jmp	.LBB19_50
.LBB19_53:                              # %for.end175
	cmpl	$2, -8(%rbp)
	jne	.LBB19_55
# %bb.54:                               # %cond.true178
	vxorps	%xmm0, %xmm0, %xmm0
	jmp	.LBB19_56
.LBB19_55:                              # %cond.false179
	vmovsd	-24(%rbp), %xmm0        # xmm0 = mem[0],zero
	vcvtsi2sdl	-8(%rbp), %xmm0, %xmm1
	vdivsd	%xmm1, %xmm0, %xmm0
	callq	sqrt
.LBB19_56:                              # %cond.end183
	vmovsd	%xmm0, -40(%rbp)
	movl	$0, -4(%rbp)
.LBB19_57:                              # %for.cond185
                                        # =>This Inner Loop Header: Depth=1
	movl	-4(%rbp), %eax
	cmpl	-8(%rbp), %eax
	jge	.LBB19_62
# %bb.58:                               # %for.body188
                                        #   in Loop: Header=BB19_57 Depth=1
	movslq	-4(%rbp), %rax
	vmovsd	-208(%rbp,%rax,8), %xmm0 # xmm0 = mem[0],zero
	vmovdqa	.LCPI19_4(%rip), %xmm1  # xmm1 = [NaN,NaN]
	vpand	%xmm1, %xmm0, %xmm0
	vucomisd	-40(%rbp), %xmm0
	jbe	.LBB19_60
# %bb.59:                               # %if.then193
                                        #   in Loop: Header=BB19_57 Depth=1
	movslq	-4(%rbp), %rax
	movl	$1, m_rgRejected(,%rax,4)
.LBB19_60:                              # %if.end196
                                        #   in Loop: Header=BB19_57 Depth=1
	jmp	.LBB19_61
.LBB19_61:                              # %for.inc197
                                        #   in Loop: Header=BB19_57 Depth=1
	movl	-4(%rbp), %eax
	addl	$1, %eax
	movl	%eax, -4(%rbp)
	jmp	.LBB19_57
.LBB19_62:                              # %for.end199
	movl	$0, m_rgRejected
	movl	-8(%rbp), %edi
	callq	RCModelEstimator
	cmpl	$0, -16(%rbp)
	je	.LBB19_64
# %bb.63:                               # %if.then201
	callq	updateMADModel
	jmp	.LBB19_67
.LBB19_64:                              # %if.else202
	movq	img, %rax
	cmpl	$0, 24(%rax)
	jne	.LBB19_66
# %bb.65:                               # %if.then206
	vmovsd	CurrentFrameMAD, %xmm0  # xmm0 = mem[0],zero
	vmovsd	%xmm0, PPictureMAD
.LBB19_66:                              # %if.end207
	jmp	.LBB19_67
.LBB19_67:                              # %if.end208
	jmp	.LBB19_68
.LBB19_68:                              # %if.end209
	cmpl	$1912083454, -28(%rbp)  # imm = 0x71F813FE
	jne	.LBB19_70
.LBB19_69:
	addq	$208, %rsp
	popq	%rbp
	.cfi_def_cfa %rsp, 8
	retq
.LBB19_70:                              # %func_exit
	.cfi_def_cfa %rbp, 16
	callq	detect_breach
	jmp	.LBB19_69
.Lfunc_end19:
	.size	updateRCModel.3, .Lfunc_end19-updateRCModel.3
	.cfi_endproc
                                        # -- End function
	.section	.rodata.cst8,"aM",@progbits,8
	.p2align	3               # -- Begin function MADModelEstimator.4
.LCPI20_0:
	.quad	4517329193108106637     # double 9.9999999999999995E-7
.LCPI20_2:
	.quad	4607182418800017408     # double 1
	.section	.rodata.cst16,"aM",@progbits,16
	.p2align	4
.LCPI20_1:
	.quad	9223372036854775807     # double NaN
	.quad	9223372036854775807     # double NaN
	.text
	.globl	MADModelEstimator.4
	.p2align	4, 0x90
	.type	MADModelEstimator.4,@function
MADModelEstimator.4:                    # @MADModelEstimator.4
	.cfi_startproc
# %bb.0:                                # %entry
	pushq	%rbp
	.cfi_def_cfa_offset 16
	.cfi_offset %rbp, -16
	movq	%rsp, %rbp
	.cfi_def_cfa_register %rbp
	subq	$96, %rsp
	movl	$1286692454, -84(%rbp)  # imm = 0x4CB15E66
	movl	%edi, -8(%rbp)
	movl	-8(%rbp), %eax
	movl	%eax, -12(%rbp)
	vxorps	%xmm0, %xmm0, %xmm0
	vmovsd	%xmm0, -48(%rbp)
	vmovsd	%xmm0, -24(%rbp)
	vmovsd	%xmm0, -80(%rbp)
	vmovsd	%xmm0, -56(%rbp)
	vmovsd	%xmm0, -32(%rbp)
	vmovsd	%xmm0, -64(%rbp)
	movl	$0, -36(%rbp)
	movl	$0, -4(%rbp)
.LBB20_1:                               # %for.cond
                                        # =>This Inner Loop Header: Depth=1
	movl	-4(%rbp), %eax
	cmpl	-8(%rbp), %eax
	jge	.LBB20_6
# %bb.2:                                # %for.body
                                        #   in Loop: Header=BB20_1 Depth=1
	movslq	-4(%rbp), %rax
	cmpl	$0, PictureRejected(,%rax,4)
	je	.LBB20_4
# %bb.3:                                # %if.then
                                        #   in Loop: Header=BB20_1 Depth=1
	movl	-12(%rbp), %eax
	addl	$-1, %eax
	movl	%eax, -12(%rbp)
.LBB20_4:                               # %if.end
                                        #   in Loop: Header=BB20_1 Depth=1
	jmp	.LBB20_5
.LBB20_5:                               # %for.inc
                                        #   in Loop: Header=BB20_1 Depth=1
	movl	-4(%rbp), %eax
	addl	$1, %eax
	movl	%eax, -4(%rbp)
	jmp	.LBB20_1
.LBB20_6:                               # %for.end
	vxorps	%xmm0, %xmm0, %xmm0
	vmovsd	%xmm0, MADPictureC2
	vmovsd	%xmm0, MADPictureC1
	movl	$0, -4(%rbp)
.LBB20_7:                               # %for.cond1
                                        # =>This Inner Loop Header: Depth=1
	movl	-4(%rbp), %eax
	cmpl	-8(%rbp), %eax
	jge	.LBB20_12
# %bb.8:                                # %for.body3
                                        #   in Loop: Header=BB20_7 Depth=1
	movslq	-4(%rbp), %rax
	cmpl	$0, PictureRejected(,%rax,4)
	jne	.LBB20_10
# %bb.9:                                # %if.then7
                                        #   in Loop: Header=BB20_7 Depth=1
	movslq	-4(%rbp), %rax
	vmovsd	PictureMAD(,%rax,8), %xmm0 # xmm0 = mem[0],zero
	vmovsd	%xmm0, -96(%rbp)
.LBB20_10:                              # %if.end10
                                        #   in Loop: Header=BB20_7 Depth=1
	jmp	.LBB20_11
.LBB20_11:                              # %for.inc11
                                        #   in Loop: Header=BB20_7 Depth=1
	movl	-4(%rbp), %eax
	addl	$1, %eax
	movl	%eax, -4(%rbp)
	jmp	.LBB20_7
.LBB20_12:                              # %for.end13
	movl	$0, -4(%rbp)
.LBB20_13:                              # %for.cond14
                                        # =>This Inner Loop Header: Depth=1
	movl	-4(%rbp), %eax
	cmpl	-8(%rbp), %eax
	jge	.LBB20_21
# %bb.14:                               # %for.body16
                                        #   in Loop: Header=BB20_13 Depth=1
	movslq	-4(%rbp), %rax
	vmovsd	PictureMAD(,%rax,8), %xmm0 # xmm0 = mem[0],zero
	vucomisd	-96(%rbp), %xmm0
	jne	.LBB20_15
	jp	.LBB20_15
	jmp	.LBB20_17
.LBB20_15:                              # %land.lhs.true
                                        #   in Loop: Header=BB20_13 Depth=1
	movslq	-4(%rbp), %rax
	cmpl	$0, PictureRejected(,%rax,4)
	jne	.LBB20_17
# %bb.16:                               # %if.then23
                                        #   in Loop: Header=BB20_13 Depth=1
	movl	$1, -36(%rbp)
.LBB20_17:                              # %if.end24
                                        #   in Loop: Header=BB20_13 Depth=1
	movslq	-4(%rbp), %rax
	cmpl	$0, PictureRejected(,%rax,4)
	jne	.LBB20_19
# %bb.18:                               # %if.then28
                                        #   in Loop: Header=BB20_13 Depth=1
	movslq	-4(%rbp), %rax
	vmovsd	PictureMAD(,%rax,8), %xmm0 # xmm0 = mem[0],zero
	movslq	-4(%rbp), %rax
	vmovsd	ReferenceMAD(,%rax,8), %xmm1 # xmm1 = mem[0],zero
	vcvtsi2sdl	-12(%rbp), %xmm0, %xmm2
	vmulsd	%xmm2, %xmm1, %xmm1
	vdivsd	%xmm1, %xmm0, %xmm0
	vaddsd	MADPictureC1, %xmm0, %xmm0
	vmovsd	%xmm0, MADPictureC1
.LBB20_19:                              # %if.end33
                                        #   in Loop: Header=BB20_13 Depth=1
	jmp	.LBB20_20
.LBB20_20:                              # %for.inc34
                                        #   in Loop: Header=BB20_13 Depth=1
	movl	-4(%rbp), %eax
	addl	$1, %eax
	movl	%eax, -4(%rbp)
	jmp	.LBB20_13
.LBB20_21:                              # %for.end36
	cmpl	$1, -12(%rbp)
	jl	.LBB20_33
# %bb.22:                               # %land.lhs.true39
	cmpl	$0, -36(%rbp)
	je	.LBB20_33
# %bb.23:                               # %if.then41
	movl	$0, -4(%rbp)
.LBB20_24:                              # %for.cond42
                                        # =>This Inner Loop Header: Depth=1
	movl	-4(%rbp), %eax
	cmpl	-8(%rbp), %eax
	jge	.LBB20_29
# %bb.25:                               # %for.body45
                                        #   in Loop: Header=BB20_24 Depth=1
	movslq	-4(%rbp), %rax
	cmpl	$0, PictureRejected(,%rax,4)
	jne	.LBB20_27
# %bb.26:                               # %if.then49
                                        #   in Loop: Header=BB20_24 Depth=1
	vmovsd	.LCPI20_2(%rip), %xmm0  # xmm0 = mem[0],zero
	vaddsd	-48(%rbp), %xmm0, %xmm0
	vmovsd	%xmm0, -48(%rbp)
	movslq	-4(%rbp), %rax
	vmovsd	ReferenceMAD(,%rax,8), %xmm0 # xmm0 = mem[0],zero
	vaddsd	-24(%rbp), %xmm0, %xmm0
	vmovsd	%xmm0, -24(%rbp)
	vmovsd	-24(%rbp), %xmm0        # xmm0 = mem[0],zero
	vmovsd	%xmm0, -80(%rbp)
	movslq	-4(%rbp), %rax
	vmovsd	ReferenceMAD(,%rax,8), %xmm0 # xmm0 = mem[0],zero
	movslq	-4(%rbp), %rax
	vmulsd	ReferenceMAD(,%rax,8), %xmm0, %xmm0
	vaddsd	-56(%rbp), %xmm0, %xmm0
	vmovsd	%xmm0, -56(%rbp)
	movslq	-4(%rbp), %rax
	vmovsd	PictureMAD(,%rax,8), %xmm0 # xmm0 = mem[0],zero
	vaddsd	-32(%rbp), %xmm0, %xmm0
	vmovsd	%xmm0, -32(%rbp)
	movslq	-4(%rbp), %rax
	vmovsd	PictureMAD(,%rax,8), %xmm0 # xmm0 = mem[0],zero
	movslq	-4(%rbp), %rax
	vmulsd	ReferenceMAD(,%rax,8), %xmm0, %xmm0
	vaddsd	-64(%rbp), %xmm0, %xmm0
	vmovsd	%xmm0, -64(%rbp)
.LBB20_27:                              # %if.end69
                                        #   in Loop: Header=BB20_24 Depth=1
	jmp	.LBB20_28
.LBB20_28:                              # %for.inc70
                                        #   in Loop: Header=BB20_24 Depth=1
	movl	-4(%rbp), %eax
	addl	$1, %eax
	movl	%eax, -4(%rbp)
	jmp	.LBB20_24
.LBB20_29:                              # %for.end72
	vmovsd	.LCPI20_0(%rip), %xmm0  # xmm0 = mem[0],zero
	vmovsd	-48(%rbp), %xmm1        # xmm1 = mem[0],zero
	vmulsd	-56(%rbp), %xmm1, %xmm1
	vmovsd	-24(%rbp), %xmm2        # xmm2 = mem[0],zero
	vmulsd	-80(%rbp), %xmm2, %xmm2
	vsubsd	%xmm2, %xmm1, %xmm1
	vmovsd	%xmm1, -72(%rbp)
	vmovsd	-72(%rbp), %xmm1        # xmm1 = mem[0],zero
	vmovdqa	.LCPI20_1(%rip), %xmm2  # xmm2 = [NaN,NaN]
	vpand	%xmm2, %xmm1, %xmm1
	vucomisd	%xmm0, %xmm1
	jbe	.LBB20_31
# %bb.30:                               # %if.then77
	vmovsd	-32(%rbp), %xmm0        # xmm0 = mem[0],zero
	vmulsd	-56(%rbp), %xmm0, %xmm0
	vmovsd	-64(%rbp), %xmm1        # xmm1 = mem[0],zero
	vmulsd	-24(%rbp), %xmm1, %xmm1
	vsubsd	%xmm1, %xmm0, %xmm0
	vdivsd	-72(%rbp), %xmm0, %xmm0
	vmovsd	%xmm0, MADPictureC2
	vmovsd	-64(%rbp), %xmm0        # xmm0 = mem[0],zero
	vmulsd	-48(%rbp), %xmm0, %xmm0
	vmovsd	-32(%rbp), %xmm1        # xmm1 = mem[0],zero
	vmulsd	-80(%rbp), %xmm1, %xmm1
	vsubsd	%xmm1, %xmm0, %xmm0
	vdivsd	-72(%rbp), %xmm0, %xmm0
	vmovsd	%xmm0, MADPictureC1
	jmp	.LBB20_32
.LBB20_31:                              # %if.else
	vmovsd	-32(%rbp), %xmm0        # xmm0 = mem[0],zero
	vdivsd	-24(%rbp), %xmm0, %xmm0
	vmovsd	%xmm0, MADPictureC1
	vxorps	%xmm0, %xmm0, %xmm0
	vmovsd	%xmm0, MADPictureC2
.LBB20_32:                              # %if.end87
	jmp	.LBB20_33
.LBB20_33:                              # %if.end88
	movq	img, %rax
	cmpl	$0, 24(%rax)
	jne	.LBB20_35
# %bb.34:                               # %if.then91
	vmovsd	MADPictureC1, %xmm0     # xmm0 = mem[0],zero
	vmovsd	%xmm0, PMADPictureC1
	vmovsd	MADPictureC2, %xmm0     # xmm0 = mem[0],zero
	vmovsd	%xmm0, PMADPictureC2
.LBB20_35:                              # %if.end92
	cmpl	$1286692454, -84(%rbp)  # imm = 0x4CB15E66
	jne	.LBB20_37
.LBB20_36:
	addq	$96, %rsp
	popq	%rbp
	.cfi_def_cfa %rsp, 8
	retq
.LBB20_37:                              # %func_exit
	.cfi_def_cfa %rbp, 16
	callq	detect_breach
	jmp	.LBB20_36
.Lfunc_end20:
	.size	MADModelEstimator.4, .Lfunc_end20-MADModelEstimator.4
	.cfi_endproc
                                        # -- End function
	.section	.rodata.cst8,"aM",@progbits,8
	.p2align	3               # -- Begin function updateQuantizationParameter.5
.LCPI21_0:
	.quad	4616189618054758400     # double 4
.LCPI21_1:
	.quad	4611686018427387904     # double 2
.LCPI21_2:
	.quad	4602678819172646912     # double 0.5
.LCPI21_3:
	.quad	4607182418800017408     # double 1
	.text
	.globl	updateQuantizationParameter.5
	.p2align	4, 0x90
	.type	updateQuantizationParameter.5,@function
updateQuantizationParameter.5:          # @updateQuantizationParameter.5
	.cfi_startproc
# %bb.0:                                # %entry
	pushq	%rbp
	.cfi_def_cfa_offset 16
	.cfi_offset %rbp, -16
	movq	%rsp, %rbp
	.cfi_def_cfa_register %rbp
	pushq	%rbx
	subq	$72, %rsp
	.cfi_offset %rbx, -24
	movl	$2080612348, -56(%rbp)  # imm = 0x7C039FFC
	movl	%edi, -36(%rbp)
	movq	img, %rax
	movl	72620(%rax), %eax
	movq	img, %rcx
	cmpl	72608(%rcx), %eax
	jne	.LBB21_123
# %bb.1:                                # %if.then
	cmpl	$0, -36(%rbp)
	jne	.LBB21_3
# %bb.2:                                # %lor.lhs.false
	movq	img, %rax
	cmpl	$0, 72600(%rax)
	jne	.LBB21_116
.LBB21_3:                               # %if.then2
	movq	img, %rax
	cmpl	$2, 24(%rax)
	jne	.LBB21_5
# %bb.4:                                # %if.then4
	movl	MyInitialQp, %eax
	movl	%eax, m_Qc
	movl	m_Qc, %eax
	movl	%eax, -20(%rbp)
	jmp	.LBB21_363
.LBB21_5:                               # %if.else
	movq	img, %rax
	cmpl	$1, 24(%rax)
	jne	.LBB21_69
# %bb.6:                                # %if.then7
	movq	input, %rax
	cmpl	$1, 1236(%rax)
	jne	.LBB21_25
# %bb.7:                                # %if.then9
	movq	input, %rax
	cmpl	$2, 2880(%rax)
	je	.LBB21_9
# %bb.8:                                # %lor.lhs.false11
	movq	input, %rax
	cmpl	$0, 2884(%rax)
	je	.LBB21_15
.LBB21_9:                               # %if.then13
	movq	img, %rax
	cmpl	$0, 72600(%rax)
	jne	.LBB21_14
# %bb.10:                               # %if.then16
	movq	img, %rax
	cmpl	$1, 72604(%rax)
	jne	.LBB21_12
# %bb.11:                               # %if.then18
	movl	PreviousQp2, %eax
	movl	%eax, PreviousQp1
	movl	FrameQPBuffer, %eax
	movl	%eax, PreviousQp2
	jmp	.LBB21_13
.LBB21_12:                              # %if.else19
	movl	PreviousQp2, %eax
	movl	%eax, PreviousQp1
	movl	FieldQPBuffer, %eax
	movl	%eax, PreviousQp2
.LBB21_13:                              # %if.end
	jmp	.LBB21_14
.LBB21_14:                              # %if.end20
	jmp	.LBB21_15
.LBB21_15:                              # %if.end21
	movl	PreviousQp1, %eax
	cmpl	PreviousQp2, %eax
	jne	.LBB21_17
# %bb.16:                               # %if.then23
	movl	PreviousQp1, %eax
	addl	$2, %eax
	movl	%eax, m_Qc
	jmp	.LBB21_18
.LBB21_17:                              # %if.else24
	movl	PreviousQp1, %eax
	addl	PreviousQp2, %eax
	cltd
	movl	$2, %ecx
	idivl	%ecx
	addl	$1, %eax
	movl	%eax, m_Qc
.LBB21_18:                              # %if.end27
	movl	m_Qc, %eax
	cmpl	RC_MAX_QUANT, %eax
	jge	.LBB21_20
# %bb.19:                               # %cond.true
	movl	m_Qc, %eax
	jmp	.LBB21_21
.LBB21_20:                              # %cond.false
	movl	RC_MAX_QUANT, %eax
.LBB21_21:                              # %cond.end
	movl	%eax, m_Qc
	movl	RC_MIN_QUANT, %eax
	cmpl	m_Qc, %eax
	jge	.LBB21_23
# %bb.22:                               # %cond.true30
	movl	m_Qc, %eax
	jmp	.LBB21_24
.LBB21_23:                              # %cond.false31
	movl	RC_MIN_QUANT, %eax
.LBB21_24:                              # %cond.end32
	movl	%eax, m_Qc
	jmp	.LBB21_68
.LBB21_25:                              # %if.else34
	movl	NumberofBFrames, %eax
	addl	$1, %eax
	movq	input, %rcx
	cltd
	idivl	1236(%rcx)
	movl	%edx, -12(%rbp)
	cmpl	$0, -12(%rbp)
	jne	.LBB21_27
# %bb.26:                               # %if.then38
	movq	input, %rax
	movl	1236(%rax), %eax
	movl	%eax, -12(%rbp)
.LBB21_27:                              # %if.end40
	cmpl	$1, -12(%rbp)
	jne	.LBB21_37
# %bb.28:                               # %if.then42
	movq	input, %rax
	cmpl	$2, 2880(%rax)
	je	.LBB21_30
# %bb.29:                               # %lor.lhs.false45
	movq	input, %rax
	cmpl	$0, 2884(%rax)
	je	.LBB21_36
.LBB21_30:                              # %if.then48
	movq	img, %rax
	cmpl	$0, 72600(%rax)
	jne	.LBB21_35
# %bb.31:                               # %if.then51
	movq	img, %rax
	cmpl	$1, 72604(%rax)
	jne	.LBB21_33
# %bb.32:                               # %if.then54
	movl	PreviousQp2, %eax
	movl	%eax, PreviousQp1
	movl	FrameQPBuffer, %eax
	movl	%eax, PreviousQp2
	jmp	.LBB21_34
.LBB21_33:                              # %if.else55
	movl	PreviousQp2, %eax
	movl	%eax, PreviousQp1
	movl	FieldQPBuffer, %eax
	movl	%eax, PreviousQp2
.LBB21_34:                              # %if.end56
	jmp	.LBB21_35
.LBB21_35:                              # %if.end57
	jmp	.LBB21_36
.LBB21_36:                              # %if.end58
	jmp	.LBB21_37
.LBB21_37:                              # %if.end59
	movl	PreviousQp2, %eax
	subl	PreviousQp1, %eax
	movq	input, %rcx
	imull	$4294967294, 1236(%rcx), %ecx # imm = 0xFFFFFFFE
	subl	$3, %ecx
	cmpl	%ecx, %eax
	jg	.LBB21_39
# %bb.38:                               # %if.then63
	movl	$-3, -24(%rbp)
	jmp	.LBB21_52
.LBB21_39:                              # %if.else64
	movl	PreviousQp2, %eax
	subl	PreviousQp1, %eax
	movq	input, %rcx
	imull	$4294967294, 1236(%rcx), %ecx # imm = 0xFFFFFFFE
	subl	$2, %ecx
	cmpl	%ecx, %eax
	jne	.LBB21_41
# %bb.40:                               # %if.then70
	movl	$-2, -24(%rbp)
	jmp	.LBB21_51
.LBB21_41:                              # %if.else71
	movl	PreviousQp2, %eax
	subl	PreviousQp1, %eax
	movq	input, %rcx
	imull	$4294967294, 1236(%rcx), %ecx # imm = 0xFFFFFFFE
	subl	$1, %ecx
	cmpl	%ecx, %eax
	jne	.LBB21_43
# %bb.42:                               # %if.then77
	movl	$-1, -24(%rbp)
	jmp	.LBB21_50
.LBB21_43:                              # %if.else78
	movl	PreviousQp2, %eax
	subl	PreviousQp1, %eax
	movq	input, %rcx
	imull	$4294967294, 1236(%rcx), %ecx # imm = 0xFFFFFFFE
	cmpl	%ecx, %eax
	jne	.LBB21_45
# %bb.44:                               # %if.then83
	movl	$0, -24(%rbp)
	jmp	.LBB21_49
.LBB21_45:                              # %if.else84
	movl	PreviousQp2, %eax
	subl	PreviousQp1, %eax
	movq	input, %rcx
	imull	$4294967294, 1236(%rcx), %ecx # imm = 0xFFFFFFFE
	addl	$1, %ecx
	cmpl	%ecx, %eax
	jne	.LBB21_47
# %bb.46:                               # %if.then90
	movl	$1, -24(%rbp)
	jmp	.LBB21_48
.LBB21_47:                              # %if.else91
	movl	$2, -24(%rbp)
.LBB21_48:                              # %if.end92
	jmp	.LBB21_49
.LBB21_49:                              # %if.end93
	jmp	.LBB21_50
.LBB21_50:                              # %if.end94
	jmp	.LBB21_51
.LBB21_51:                              # %if.end95
	jmp	.LBB21_52
.LBB21_52:                              # %if.end96
	movl	PreviousQp1, %eax
	addl	-24(%rbp), %eax
	movl	%eax, m_Qc
	movl	-12(%rbp), %ecx
	subl	$1, %ecx
	shll	$1, %ecx
	movl	-12(%rbp), %eax
	subl	$1, %eax
	imull	$4294967294, %eax, %esi # imm = 0xFFFFFFFE
	movl	-12(%rbp), %eax
	subl	$1, %eax
	movl	PreviousQp2, %edx
	subl	PreviousQp1, %edx
	imull	%edx, %eax
	movq	input, %rdx
	movl	1236(%rdx), %edi
	subl	$1, %edi
	cltd
	idivl	%edi
	cmpl	%eax, %esi
	jge	.LBB21_54
# %bb.53:                               # %cond.true109
	movl	-12(%rbp), %eax
	subl	$1, %eax
	movl	PreviousQp2, %edx
	subl	PreviousQp1, %edx
	imull	%edx, %eax
	movq	input, %rdx
	movl	1236(%rdx), %esi
	subl	$1, %esi
	cltd
	idivl	%esi
	jmp	.LBB21_55
.LBB21_54:                              # %cond.false116
	movl	-12(%rbp), %eax
	subl	$1, %eax
	imull	$4294967294, %eax, %eax # imm = 0xFFFFFFFE
.LBB21_55:                              # %cond.end119
	cmpl	%eax, %ecx
	jge	.LBB21_57
# %bb.56:                               # %cond.true122
	movl	-12(%rbp), %eax
	subl	$1, %eax
	shll	$1, %eax
	jmp	.LBB21_61
.LBB21_57:                              # %cond.false125
	movl	-12(%rbp), %eax
	subl	$1, %eax
	imull	$4294967294, %eax, %ecx # imm = 0xFFFFFFFE
	movl	-12(%rbp), %eax
	subl	$1, %eax
	movl	PreviousQp2, %edx
	subl	PreviousQp1, %edx
	imull	%edx, %eax
	movq	input, %rdx
	movl	1236(%rdx), %esi
	subl	$1, %esi
	cltd
	idivl	%esi
	cmpl	%eax, %ecx
	jge	.LBB21_59
# %bb.58:                               # %cond.true135
	movl	-12(%rbp), %eax
	subl	$1, %eax
	movl	PreviousQp2, %ecx
	subl	PreviousQp1, %ecx
	imull	%ecx, %eax
	movq	input, %rcx
	movl	1236(%rcx), %ecx
	subl	$1, %ecx
	cltd
	idivl	%ecx
	jmp	.LBB21_60
.LBB21_59:                              # %cond.false142
	movl	-12(%rbp), %eax
	subl	$1, %eax
	imull	$4294967294, %eax, %eax # imm = 0xFFFFFFFE
.LBB21_60:                              # %cond.end145
.LBB21_61:                              # %cond.end147
	addl	m_Qc, %eax
	movl	%eax, m_Qc
	movl	m_Qc, %eax
	cmpl	RC_MAX_QUANT, %eax
	jge	.LBB21_63
# %bb.62:                               # %cond.true151
	movl	m_Qc, %eax
	jmp	.LBB21_64
.LBB21_63:                              # %cond.false152
	movl	RC_MAX_QUANT, %eax
.LBB21_64:                              # %cond.end153
	movl	%eax, m_Qc
	movl	RC_MIN_QUANT, %eax
	cmpl	m_Qc, %eax
	jge	.LBB21_66
# %bb.65:                               # %cond.true156
	movl	m_Qc, %eax
	jmp	.LBB21_67
.LBB21_66:                              # %cond.false157
	movl	RC_MIN_QUANT, %eax
.LBB21_67:                              # %cond.end158
	movl	%eax, m_Qc
.LBB21_68:                              # %if.end160
	movl	m_Qc, %eax
	movl	%eax, -20(%rbp)
	jmp	.LBB21_363
.LBB21_69:                              # %if.else161
	movq	img, %rax
	cmpl	$0, 24(%rax)
	jne	.LBB21_77
# %bb.70:                               # %land.lhs.true
	movq	img, %rax
	cmpl	$0, 72576(%rax)
	jne	.LBB21_77
# %bb.71:                               # %if.then165
	movl	MyInitialQp, %eax
	movl	%eax, m_Qc
	movq	img, %rax
	cmpl	$0, 72600(%rax)
	jne	.LBB21_76
# %bb.72:                               # %if.then168
	movq	active_sps, %rax
	cmpl	$0, 1148(%rax)
	je	.LBB21_74
# %bb.73:                               # %if.then170
	movl	m_Qc, %eax
	movq	img, %rcx
	addl	72572(%rcx), %eax
	movl	%eax, 72572(%rcx)
	movl	PreviousQp2, %eax
	movl	%eax, PreviousQp1
	movl	m_Qc, %eax
	movl	%eax, PreviousQp2
	movl	m_Qc, %eax
	movl	%eax, Pm_Qp
	jmp	.LBB21_75
.LBB21_74:                              # %if.else172
	movl	m_Qc, %eax
	movl	%eax, FrameQPBuffer
.LBB21_75:                              # %if.end173
	jmp	.LBB21_76
.LBB21_76:                              # %if.end174
	movl	m_Qc, %eax
	movl	%eax, -20(%rbp)
	jmp	.LBB21_363
.LBB21_77:                              # %if.else175
	movq	input, %rax
	cmpl	$2, 2880(%rax)
	je	.LBB21_79
# %bb.78:                               # %lor.lhs.false178
	movq	input, %rax
	cmpl	$0, 2884(%rax)
	je	.LBB21_84
.LBB21_79:                              # %land.lhs.true181
	movq	img, %rax
	cmpl	$0, 72600(%rax)
	jne	.LBB21_84
# %bb.80:                               # %if.then184
	movq	img, %rax
	cmpl	$1, 72604(%rax)
	jne	.LBB21_82
# %bb.81:                               # %if.then187
	movl	FrameQPBuffer, %eax
	movq	img, %rcx
	addl	72572(%rcx), %eax
	movl	%eax, 72572(%rcx)
	movl	FrameQPBuffer, %eax
	movl	%eax, Pm_Qp
	jmp	.LBB21_83
.LBB21_82:                              # %if.else190
	movl	FieldQPBuffer, %eax
	movq	img, %rcx
	addl	72572(%rcx), %eax
	movl	%eax, 72572(%rcx)
	movl	FieldQPBuffer, %eax
	movl	%eax, Pm_Qp
.LBB21_83:                              # %if.end193
	jmp	.LBB21_84
.LBB21_84:                              # %if.end194
	vmovsd	Pm_X1, %xmm0            # xmm0 = mem[0],zero
	vmovsd	%xmm0, m_X1
	vmovsd	Pm_X2, %xmm0            # xmm0 = mem[0],zero
	vmovsd	%xmm0, m_X2
	movl	PPreHeader, %eax
	movl	%eax, m_Hp
	movl	Pm_Qp, %eax
	movl	%eax, m_Qp
	movl	PDuantQp, %eax
	movl	%eax, DuantQp
	vmovsd	PMADPictureC1, %xmm0    # xmm0 = mem[0],zero
	vmovsd	%xmm0, MADPictureC1
	vmovsd	PMADPictureC2, %xmm0    # xmm0 = mem[0],zero
	vmovsd	%xmm0, MADPictureC2
	vmovsd	PPictureMAD, %xmm0      # xmm0 = mem[0],zero
	vmovsd	%xmm0, PreviousPictureMAD
	vmovsd	MADPictureC1, %xmm0     # xmm0 = mem[0],zero
	vmulsd	PreviousPictureMAD, %xmm0, %xmm0
	vaddsd	MADPictureC2, %xmm0, %xmm0
	vmovsd	%xmm0, CurrentFrameMAD
	cmpq	$0, T
	jge	.LBB21_89
# %bb.85:                               # %if.then198
	movl	m_Qp, %eax
	addl	DuantQp, %eax
	movl	%eax, m_Qc
	movl	m_Qc, %eax
	cmpl	RC_MAX_QUANT, %eax
	jge	.LBB21_87
# %bb.86:                               # %cond.true201
	movl	m_Qc, %eax
	jmp	.LBB21_88
.LBB21_87:                              # %cond.false202
	movl	RC_MAX_QUANT, %eax
.LBB21_88:                              # %cond.end203
	movl	%eax, m_Qc
	jmp	.LBB21_110
.LBB21_89:                              # %if.else205
	movq	T, %rax
	movslq	m_Hp, %rcx
	subq	%rcx, %rax
	movl	%eax, -28(%rbp)
	movl	-28(%rbp), %eax
	vmovsd	bit_rate, %xmm0         # xmm0 = mem[0],zero
	vmovsd	MINVALUE, %xmm1         # xmm1 = mem[0],zero
	vmulsd	frame_rate, %xmm1, %xmm1
	vdivsd	%xmm1, %xmm0, %xmm0
	vcvttsd2si	%xmm0, %ecx
	cmpl	%ecx, %eax
	jge	.LBB21_91
# %bb.90:                               # %cond.true213
	vmovsd	bit_rate, %xmm0         # xmm0 = mem[0],zero
	vmovsd	MINVALUE, %xmm1         # xmm1 = mem[0],zero
	vmulsd	frame_rate, %xmm1, %xmm1
	vdivsd	%xmm1, %xmm0, %xmm0
	vcvttsd2si	%xmm0, %eax
	jmp	.LBB21_92
.LBB21_91:                              # %cond.false217
	movl	-28(%rbp), %eax
.LBB21_92:                              # %cond.end218
	vmovsd	.LCPI21_0(%rip), %xmm0  # xmm0 = mem[0],zero
	movl	%eax, -28(%rbp)
	vmovsd	CurrentFrameMAD, %xmm1  # xmm1 = mem[0],zero
	vmulsd	m_X1, %xmm1, %xmm1
	vmulsd	CurrentFrameMAD, %xmm1, %xmm1
	vmulsd	m_X1, %xmm1, %xmm1
	vmulsd	m_X2, %xmm0, %xmm0
	vmulsd	CurrentFrameMAD, %xmm0, %xmm0
	vcvtsi2sdl	-28(%rbp), %xmm0, %xmm2
	vmulsd	%xmm2, %xmm0, %xmm0
	vaddsd	%xmm0, %xmm1, %xmm0
	vmovsd	%xmm0, -48(%rbp)
	vmovsd	m_X2, %xmm0             # xmm0 = mem[0],zero
	vxorps	%xmm1, %xmm1, %xmm1
	vucomisd	%xmm1, %xmm0
	jne	.LBB21_93
	jp	.LBB21_93
	jmp	.LBB21_95
.LBB21_93:                              # %lor.lhs.false230
	vxorps	%xmm0, %xmm0, %xmm0
	vucomisd	-48(%rbp), %xmm0
	ja	.LBB21_95
# %bb.94:                               # %lor.lhs.false233
	vmovsd	-48(%rbp), %xmm0        # xmm0 = mem[0],zero
	callq	sqrt
	vmovsd	m_X1, %xmm1             # xmm1 = mem[0],zero
	vmulsd	CurrentFrameMAD, %xmm1, %xmm1
	vsubsd	%xmm1, %xmm0, %xmm0
	vxorps	%xmm1, %xmm1, %xmm1
	vucomisd	%xmm0, %xmm1
	jb	.LBB21_96
.LBB21_95:                              # %if.then238
	vmovsd	m_X1, %xmm0             # xmm0 = mem[0],zero
	vmulsd	CurrentFrameMAD, %xmm0, %xmm0
	vcvtsi2sdl	-28(%rbp), %xmm0, %xmm1
	vdivsd	%xmm1, %xmm0, %xmm0
	vcvtsd2ss	%xmm0, %xmm0, %xmm0
	vcvtss2sd	%xmm0, %xmm0, %xmm0
	vmovsd	%xmm0, m_Qstep
	jmp	.LBB21_97
.LBB21_96:                              # %if.else244
	vmovsd	.LCPI21_1(%rip), %xmm0  # xmm0 = mem[0],zero
	vmulsd	m_X2, %xmm0, %xmm0
	vmulsd	CurrentFrameMAD, %xmm0, %xmm0
	vmovsd	%xmm0, -64(%rbp)        # 8-byte Spill
	vmovsd	-48(%rbp), %xmm0        # xmm0 = mem[0],zero
	callq	sqrt
	vmovsd	m_X1, %xmm1             # xmm1 = mem[0],zero
	vmulsd	CurrentFrameMAD, %xmm1, %xmm1
	vsubsd	%xmm1, %xmm0, %xmm0
	vmovsd	-64(%rbp), %xmm1        # 8-byte Reload
                                        # xmm1 = mem[0],zero
	vdivsd	%xmm0, %xmm1, %xmm0
	vcvtsd2ss	%xmm0, %xmm0, %xmm0
	vcvtss2sd	%xmm0, %xmm0, %xmm0
	vmovsd	%xmm0, m_Qstep
.LBB21_97:                              # %if.end253
	vmovsd	m_Qstep, %xmm0          # xmm0 = mem[0],zero
	callq	Qstep2QP
	movl	%eax, m_Qc
	movl	m_Qp, %eax
	addl	DuantQp, %eax
	cmpl	m_Qc, %eax
	jge	.LBB21_99
# %bb.98:                               # %cond.true258
	movl	m_Qp, %eax
	addl	DuantQp, %eax
	jmp	.LBB21_100
.LBB21_99:                              # %cond.false260
	movl	m_Qc, %eax
.LBB21_100:                             # %cond.end261
	movl	%eax, m_Qc
	movl	m_Qc, %eax
	cmpl	RC_MAX_QUANT, %eax
	jge	.LBB21_102
# %bb.101:                              # %cond.true265
	movl	m_Qc, %eax
	jmp	.LBB21_103
.LBB21_102:                             # %cond.false266
	movl	RC_MAX_QUANT, %eax
.LBB21_103:                             # %cond.end267
	movl	%eax, m_Qc
	movl	m_Qp, %eax
	subl	DuantQp, %eax
	cmpl	m_Qc, %eax
	jge	.LBB21_105
# %bb.104:                              # %cond.true272
	movl	m_Qc, %eax
	jmp	.LBB21_106
.LBB21_105:                             # %cond.false273
	movl	m_Qp, %eax
	subl	DuantQp, %eax
.LBB21_106:                             # %cond.end275
	movl	%eax, m_Qc
	movl	RC_MIN_QUANT, %eax
	cmpl	m_Qc, %eax
	jge	.LBB21_108
# %bb.107:                              # %cond.true279
	movl	m_Qc, %eax
	jmp	.LBB21_109
.LBB21_108:                             # %cond.false280
	movl	RC_MIN_QUANT, %eax
.LBB21_109:                             # %cond.end281
	movl	%eax, m_Qc
.LBB21_110:                             # %if.end283
	movq	img, %rax
	cmpl	$0, 72600(%rax)
	jne	.LBB21_115
# %bb.111:                              # %if.then287
	movq	active_sps, %rax
	cmpl	$0, 1148(%rax)
	je	.LBB21_113
# %bb.112:                              # %if.then290
	movl	m_Qc, %eax
	movq	img, %rcx
	addl	72572(%rcx), %eax
	movl	%eax, 72572(%rcx)
	movl	PreviousQp2, %eax
	movl	%eax, PreviousQp1
	movl	m_Qc, %eax
	movl	%eax, PreviousQp2
	movl	m_Qc, %eax
	movl	%eax, Pm_Qp
	jmp	.LBB21_114
.LBB21_113:                             # %if.else293
	movl	m_Qc, %eax
	movl	%eax, FrameQPBuffer
.LBB21_114:                             # %if.end294
	jmp	.LBB21_115
.LBB21_115:                             # %if.end295
	movl	m_Qc, %eax
	movl	%eax, -20(%rbp)
	jmp	.LBB21_363
.LBB21_116:                             # %if.else296
	movq	img, %rax
	cmpl	$0, 24(%rax)
	jne	.LBB21_122
# %bb.117:                              # %land.lhs.true300
	movq	img, %rax
	cmpl	$0, 72612(%rax)
	jne	.LBB21_122
# %bb.118:                              # %if.then303
	movq	input, %rax
	cmpl	$1, 2880(%rax)
	jne	.LBB21_120
# %bb.119:                              # %if.then307
	movl	m_Qc, %eax
	movq	img, %rcx
	addl	72572(%rcx), %eax
	movl	%eax, 72572(%rcx)
	movl	PreviousQp2, %eax
	addl	$1, %eax
	movl	%eax, PreviousQp1
	movl	m_Qc, %eax
	movl	%eax, PreviousQp2
	movl	m_Qc, %eax
	movl	%eax, Pm_Qp
	jmp	.LBB21_121
.LBB21_120:                             # %if.else311
	movl	m_Qc, %eax
	movl	%eax, FieldQPBuffer
.LBB21_121:                             # %if.end312
	jmp	.LBB21_122
.LBB21_122:                             # %if.end313
	movl	m_Qc, %eax
	movl	%eax, -20(%rbp)
	jmp	.LBB21_363
.LBB21_123:                             # %if.else314
	movq	img, %rax
	cmpl	$2, 24(%rax)
	jne	.LBB21_125
# %bb.124:                              # %if.then318
	movl	MyInitialQp, %eax
	movl	%eax, m_Qc
	movl	m_Qc, %eax
	movl	%eax, -20(%rbp)
	jmp	.LBB21_363
.LBB21_125:                             # %if.else319
	movq	img, %rax
	cmpl	$0, 24(%rax)
	jne	.LBB21_129
# %bb.126:                              # %land.lhs.true323
	movq	img, %rax
	cmpl	$1, 72612(%rax)
	jne	.LBB21_129
# %bb.127:                              # %land.lhs.true327
	movq	img, %rax
	cmpl	$1, 72600(%rax)
	jne	.LBB21_129
# %bb.128:                              # %if.then331
	movl	MyInitialQp, %eax
	movl	%eax, m_Qc
	movl	m_Qc, %eax
	movl	%eax, -20(%rbp)
	jmp	.LBB21_363
.LBB21_129:                             # %if.else332
	movq	img, %rax
	cmpl	$1, 24(%rax)
	jne	.LBB21_196
# %bb.130:                              # %if.then336
	cmpl	$0, -36(%rbp)
	jne	.LBB21_132
# %bb.131:                              # %lor.lhs.false338
	movq	img, %rax
	cmpl	$0, 72600(%rax)
	jne	.LBB21_195
.LBB21_132:                             # %if.then342
	movq	input, %rax
	cmpl	$1, 1236(%rax)
	jne	.LBB21_151
# %bb.133:                              # %if.then346
	movq	input, %rax
	cmpl	$2, 2880(%rax)
	je	.LBB21_135
# %bb.134:                              # %lor.lhs.false350
	movq	input, %rax
	cmpl	$0, 2884(%rax)
	je	.LBB21_141
.LBB21_135:                             # %if.then353
	movq	img, %rax
	cmpl	$0, 72600(%rax)
	jne	.LBB21_140
# %bb.136:                              # %if.then357
	movq	img, %rax
	cmpl	$1, 72604(%rax)
	jne	.LBB21_138
# %bb.137:                              # %if.then361
	movl	PreviousQp2, %eax
	movl	%eax, PreviousQp1
	movl	FrameQPBuffer, %eax
	movl	%eax, PreviousQp2
	jmp	.LBB21_139
.LBB21_138:                             # %if.else362
	movl	PreviousQp2, %eax
	movl	%eax, PreviousQp1
	movl	FieldQPBuffer, %eax
	movl	%eax, PreviousQp2
.LBB21_139:                             # %if.end363
	jmp	.LBB21_140
.LBB21_140:                             # %if.end364
	jmp	.LBB21_141
.LBB21_141:                             # %if.end365
	movl	PreviousQp1, %eax
	cmpl	PreviousQp2, %eax
	jne	.LBB21_143
# %bb.142:                              # %if.then368
	movl	PreviousQp1, %eax
	addl	$2, %eax
	movl	%eax, m_Qc
	jmp	.LBB21_144
.LBB21_143:                             # %if.else370
	movl	PreviousQp1, %eax
	addl	PreviousQp2, %eax
	cltd
	movl	$2, %ecx
	idivl	%ecx
	addl	$1, %eax
	movl	%eax, m_Qc
.LBB21_144:                             # %if.end374
	movl	m_Qc, %eax
	cmpl	RC_MAX_QUANT, %eax
	jge	.LBB21_146
# %bb.145:                              # %cond.true377
	movl	m_Qc, %eax
	jmp	.LBB21_147
.LBB21_146:                             # %cond.false378
	movl	RC_MAX_QUANT, %eax
.LBB21_147:                             # %cond.end379
	movl	%eax, m_Qc
	movl	RC_MIN_QUANT, %eax
	cmpl	m_Qc, %eax
	jge	.LBB21_149
# %bb.148:                              # %cond.true383
	movl	m_Qc, %eax
	jmp	.LBB21_150
.LBB21_149:                             # %cond.false384
	movl	RC_MIN_QUANT, %eax
.LBB21_150:                             # %cond.end385
	movl	%eax, m_Qc
	jmp	.LBB21_194
.LBB21_151:                             # %if.else387
	movl	NumberofBFrames, %eax
	addl	$1, %eax
	movq	input, %rcx
	cltd
	idivl	1236(%rcx)
	movl	%edx, -12(%rbp)
	cmpl	$0, -12(%rbp)
	jne	.LBB21_153
# %bb.152:                              # %if.then393
	movq	input, %rax
	movl	1236(%rax), %eax
	movl	%eax, -12(%rbp)
.LBB21_153:                             # %if.end395
	cmpl	$1, -12(%rbp)
	jne	.LBB21_163
# %bb.154:                              # %if.then398
	movq	input, %rax
	cmpl	$2, 2880(%rax)
	je	.LBB21_156
# %bb.155:                              # %lor.lhs.false402
	movq	input, %rax
	cmpl	$0, 2884(%rax)
	je	.LBB21_162
.LBB21_156:                             # %if.then405
	movq	img, %rax
	cmpl	$0, 72600(%rax)
	jne	.LBB21_161
# %bb.157:                              # %if.then409
	movq	img, %rax
	cmpl	$1, 72604(%rax)
	jne	.LBB21_159
# %bb.158:                              # %if.then413
	movl	PreviousQp2, %eax
	movl	%eax, PreviousQp1
	movl	FrameQPBuffer, %eax
	movl	%eax, PreviousQp2
	jmp	.LBB21_160
.LBB21_159:                             # %if.else414
	movl	PreviousQp2, %eax
	movl	%eax, PreviousQp1
	movl	FieldQPBuffer, %eax
	movl	%eax, PreviousQp2
.LBB21_160:                             # %if.end415
	jmp	.LBB21_161
.LBB21_161:                             # %if.end416
	jmp	.LBB21_162
.LBB21_162:                             # %if.end417
	jmp	.LBB21_163
.LBB21_163:                             # %if.end418
	movl	PreviousQp2, %eax
	subl	PreviousQp1, %eax
	movq	input, %rcx
	imull	$4294967294, 1236(%rcx), %ecx # imm = 0xFFFFFFFE
	subl	$3, %ecx
	cmpl	%ecx, %eax
	jg	.LBB21_165
# %bb.164:                              # %if.then425
	movl	$-3, -24(%rbp)
	jmp	.LBB21_178
.LBB21_165:                             # %if.else426
	movl	PreviousQp2, %eax
	subl	PreviousQp1, %eax
	movq	input, %rcx
	imull	$4294967294, 1236(%rcx), %ecx # imm = 0xFFFFFFFE
	subl	$2, %ecx
	cmpl	%ecx, %eax
	jne	.LBB21_167
# %bb.166:                              # %if.then433
	movl	$-2, -24(%rbp)
	jmp	.LBB21_177
.LBB21_167:                             # %if.else434
	movl	PreviousQp2, %eax
	subl	PreviousQp1, %eax
	movq	input, %rcx
	imull	$4294967294, 1236(%rcx), %ecx # imm = 0xFFFFFFFE
	subl	$1, %ecx
	cmpl	%ecx, %eax
	jne	.LBB21_169
# %bb.168:                              # %if.then441
	movl	$-1, -24(%rbp)
	jmp	.LBB21_176
.LBB21_169:                             # %if.else442
	movl	PreviousQp2, %eax
	subl	PreviousQp1, %eax
	movq	input, %rcx
	imull	$4294967294, 1236(%rcx), %ecx # imm = 0xFFFFFFFE
	cmpl	%ecx, %eax
	jne	.LBB21_171
# %bb.170:                              # %if.then448
	movl	$0, -24(%rbp)
	jmp	.LBB21_175
.LBB21_171:                             # %if.else449
	movl	PreviousQp2, %eax
	subl	PreviousQp1, %eax
	movq	input, %rcx
	imull	$4294967294, 1236(%rcx), %ecx # imm = 0xFFFFFFFE
	addl	$1, %ecx
	cmpl	%ecx, %eax
	jne	.LBB21_173
# %bb.172:                              # %if.then456
	movl	$1, -24(%rbp)
	jmp	.LBB21_174
.LBB21_173:                             # %if.else457
	movl	$2, -24(%rbp)
.LBB21_174:                             # %if.end458
	jmp	.LBB21_175
.LBB21_175:                             # %if.end459
	jmp	.LBB21_176
.LBB21_176:                             # %if.end460
	jmp	.LBB21_177
.LBB21_177:                             # %if.end461
	jmp	.LBB21_178
.LBB21_178:                             # %if.end462
	movl	PreviousQp1, %eax
	addl	-24(%rbp), %eax
	movl	%eax, m_Qc
	movl	-12(%rbp), %ecx
	subl	$1, %ecx
	shll	$1, %ecx
	movl	-12(%rbp), %eax
	subl	$1, %eax
	imull	$4294967294, %eax, %esi # imm = 0xFFFFFFFE
	movl	-12(%rbp), %eax
	subl	$1, %eax
	movl	PreviousQp2, %edx
	subl	PreviousQp1, %edx
	imull	%edx, %eax
	movq	input, %rdx
	movl	1236(%rdx), %edi
	subl	$1, %edi
	cltd
	idivl	%edi
	cmpl	%eax, %esi
	jge	.LBB21_180
# %bb.179:                              # %cond.true476
	movl	-12(%rbp), %eax
	subl	$1, %eax
	movl	PreviousQp2, %edx
	subl	PreviousQp1, %edx
	imull	%edx, %eax
	movq	input, %rdx
	movl	1236(%rdx), %esi
	subl	$1, %esi
	cltd
	idivl	%esi
	jmp	.LBB21_181
.LBB21_180:                             # %cond.false483
	movl	-12(%rbp), %eax
	subl	$1, %eax
	imull	$4294967294, %eax, %eax # imm = 0xFFFFFFFE
.LBB21_181:                             # %cond.end486
	cmpl	%eax, %ecx
	jge	.LBB21_183
# %bb.182:                              # %cond.true490
	movl	-12(%rbp), %eax
	subl	$1, %eax
	shll	$1, %eax
	jmp	.LBB21_187
.LBB21_183:                             # %cond.false493
	movl	-12(%rbp), %eax
	subl	$1, %eax
	imull	$4294967294, %eax, %ecx # imm = 0xFFFFFFFE
	movl	-12(%rbp), %eax
	subl	$1, %eax
	movl	PreviousQp2, %edx
	subl	PreviousQp1, %edx
	imull	%edx, %eax
	movq	input, %rdx
	movl	1236(%rdx), %esi
	subl	$1, %esi
	cltd
	idivl	%esi
	cmpl	%eax, %ecx
	jge	.LBB21_185
# %bb.184:                              # %cond.true504
	movl	-12(%rbp), %eax
	subl	$1, %eax
	movl	PreviousQp2, %ecx
	subl	PreviousQp1, %ecx
	imull	%ecx, %eax
	movq	input, %rcx
	movl	1236(%rcx), %ecx
	subl	$1, %ecx
	cltd
	idivl	%ecx
	jmp	.LBB21_186
.LBB21_185:                             # %cond.false511
	movl	-12(%rbp), %eax
	subl	$1, %eax
	imull	$4294967294, %eax, %eax # imm = 0xFFFFFFFE
.LBB21_186:                             # %cond.end514
.LBB21_187:                             # %cond.end516
	addl	m_Qc, %eax
	movl	%eax, m_Qc
	movl	m_Qc, %eax
	cmpl	RC_MAX_QUANT, %eax
	jge	.LBB21_189
# %bb.188:                              # %cond.true521
	movl	m_Qc, %eax
	jmp	.LBB21_190
.LBB21_189:                             # %cond.false522
	movl	RC_MAX_QUANT, %eax
.LBB21_190:                             # %cond.end523
	movl	%eax, m_Qc
	movl	RC_MIN_QUANT, %eax
	cmpl	m_Qc, %eax
	jge	.LBB21_192
# %bb.191:                              # %cond.true527
	movl	m_Qc, %eax
	jmp	.LBB21_193
.LBB21_192:                             # %cond.false528
	movl	RC_MIN_QUANT, %eax
.LBB21_193:                             # %cond.end529
	movl	%eax, m_Qc
.LBB21_194:                             # %if.end531
	movl	m_Qc, %eax
	movl	%eax, -20(%rbp)
	jmp	.LBB21_363
.LBB21_195:                             # %if.else532
	movl	m_Qc, %eax
	movl	%eax, -20(%rbp)
	jmp	.LBB21_363
.LBB21_196:                             # %if.else533
	movq	img, %rax
	cmpl	$0, 24(%rax)
	jne	.LBB21_358
# %bb.197:                              # %if.then537
	movq	img, %rax
	cmpl	$1, 72568(%rax)
	jne	.LBB21_217
# %bb.198:                              # %land.lhs.true540
	movq	img, %rax
	cmpl	$0, 72576(%rax)
	jne	.LBB21_217
# %bb.199:                              # %if.then544
	movq	img, %rax
	cmpl	$0, 72600(%rax)
	je	.LBB21_202
# %bb.200:                              # %lor.lhs.false548
	movq	img, %rax
	cmpl	$1, 72600(%rax)
	jne	.LBB21_216
# %bb.201:                              # %land.lhs.true552
	movq	img, %rax
	cmpl	$0, 72612(%rax)
	jne	.LBB21_216
.LBB21_202:                             # %if.then556
	movl	MyInitialQp, %eax
	movl	%eax, m_Qc
	movq	img, %rax
	movl	$0, 72532(%rax)
	movq	img, %rax
	movl	$0, 72536(%rax)
	movl	NumberofBasicUnit, %eax
	addl	$-1, %eax
	movl	%eax, NumberofBasicUnit
	cmpl	$0, -36(%rbp)
	jne	.LBB21_215
# %bb.203:                              # %land.lhs.true558
	cmpl	$0, NumberofBasicUnit
	jne	.LBB21_215
# %bb.204:                              # %if.then561
	movq	active_sps, %rax
	cmpl	$0, 1148(%rax)
	jne	.LBB21_206
# %bb.205:                              # %lor.lhs.false564
	movq	input, %rax
	cmpl	$1, 2880(%rax)
	jne	.LBB21_207
.LBB21_206:                             # %if.then568
	movl	m_Qc, %eax
	movq	img, %rcx
	addl	72572(%rcx), %eax
	movl	%eax, 72572(%rcx)
	movl	PreviousQp2, %eax
	movl	%eax, PreviousQp1
	movl	m_Qc, %eax
	movl	%eax, PreviousQp2
	movl	m_Qc, %eax
	movl	%eax, PAveFrameQP
	movl	PAveHeaderBits2, %eax
	movl	%eax, PAveHeaderBits3
	jmp	.LBB21_214
.LBB21_207:                             # %if.else571
	movq	input, %rax
	cmpl	$2, 2880(%rax)
	je	.LBB21_209
# %bb.208:                              # %lor.lhs.false575
	movq	input, %rax
	cmpl	$0, 2884(%rax)
	je	.LBB21_213
.LBB21_209:                             # %if.then578
	movq	img, %rax
	cmpl	$0, 72600(%rax)
	jne	.LBB21_211
# %bb.210:                              # %if.then582
	movl	m_Qc, %eax
	movl	%eax, FrameQPBuffer
	movl	PAveHeaderBits2, %eax
	movl	%eax, FrameAveHeaderBits
	jmp	.LBB21_212
.LBB21_211:                             # %if.else583
	movl	m_Qc, %eax
	movl	%eax, FieldQPBuffer
	movl	PAveHeaderBits2, %eax
	movl	%eax, FieldAveHeaderBits
.LBB21_212:                             # %if.end584
	jmp	.LBB21_213
.LBB21_213:                             # %if.end585
	jmp	.LBB21_214
.LBB21_214:                             # %if.end586
	jmp	.LBB21_215
.LBB21_215:                             # %if.end587
	movl	m_Qc, %eax
	movl	%eax, Pm_Qp
	movl	m_Qc, %eax
	addl	TotalFrameQP, %eax
	movl	%eax, TotalFrameQP
	movl	m_Qc, %eax
	movl	%eax, -20(%rbp)
	jmp	.LBB21_363
.LBB21_216:                             # %if.end589
	jmp	.LBB21_357
.LBB21_217:                             # %if.else590
	vmovsd	Pm_X1, %xmm0            # xmm0 = mem[0],zero
	vmovsd	%xmm0, m_X1
	vmovsd	Pm_X2, %xmm0            # xmm0 = mem[0],zero
	vmovsd	%xmm0, m_X2
	movl	PPreHeader, %eax
	movl	%eax, m_Hp
	movl	Pm_Qp, %eax
	movl	%eax, m_Qp
	movl	PDuantQp, %eax
	movl	%eax, DuantQp
	vmovsd	PMADPictureC1, %xmm0    # xmm0 = mem[0],zero
	vmovsd	%xmm0, MADPictureC1
	vmovsd	PMADPictureC2, %xmm0    # xmm0 = mem[0],zero
	vmovsd	%xmm0, MADPictureC2
	movq	img, %rax
	cmpl	$0, 72600(%rax)
	jne	.LBB21_219
# %bb.218:                              # %if.then594
	movl	TotalNumberofBasicUnit, %eax
	movl	%eax, -52(%rbp)
	jmp	.LBB21_220
.LBB21_219:                             # %if.else595
	movl	TotalNumberofBasicUnit, %eax
	cltd
	movl	$2, %ecx
	idivl	%ecx
	movl	%eax, -52(%rbp)
.LBB21_220:                             # %if.end597
	movl	NumberofBasicUnit, %eax
	cmpl	-52(%rbp), %eax
	jne	.LBB21_241
# %bb.221:                              # %if.then600
	movq	input, %rax
	cmpl	$2, 2880(%rax)
	je	.LBB21_223
# %bb.222:                              # %lor.lhs.false604
	movq	input, %rax
	cmpl	$0, 2884(%rax)
	je	.LBB21_232
.LBB21_223:                             # %land.lhs.true607
	movq	img, %rax
	cmpl	$0, 72600(%rax)
	jne	.LBB21_232
# %bb.224:                              # %if.then611
	movq	img, %rax
	cmpl	$1, 72604(%rax)
	jne	.LBB21_228
# %bb.225:                              # %if.then615
	movq	img, %rax
	cmpl	$0, 72576(%rax)
	jle	.LBB21_227
# %bb.226:                              # %if.then619
	movl	FrameQPBuffer, %eax
	movq	img, %rcx
	addl	72572(%rcx), %eax
	movl	%eax, 72572(%rcx)
.LBB21_227:                             # %if.end622
	movl	FrameQPBuffer, %eax
	movl	%eax, PAveFrameQP
	movl	FrameAveHeaderBits, %eax
	movl	%eax, PAveHeaderBits3
	jmp	.LBB21_231
.LBB21_228:                             # %if.else623
	movq	img, %rax
	cmpl	$0, 72576(%rax)
	jle	.LBB21_230
# %bb.229:                              # %if.then627
	movl	FieldQPBuffer, %eax
	movq	img, %rcx
	addl	72572(%rcx), %eax
	movl	%eax, 72572(%rcx)
.LBB21_230:                             # %if.end630
	movl	FieldQPBuffer, %eax
	movl	%eax, PAveFrameQP
	movl	FieldAveHeaderBits, %eax
	movl	%eax, PAveHeaderBits3
.LBB21_231:                             # %if.end631
	jmp	.LBB21_232
.LBB21_232:                             # %if.end632
	cmpq	$0, T
	jg	.LBB21_239
# %bb.233:                              # %if.then635
	movl	PAveFrameQP, %eax
	addl	$2, %eax
	movl	%eax, m_Qc
	movl	m_Qc, %eax
	cmpl	RC_MAX_QUANT, %eax
	jle	.LBB21_235
# %bb.234:                              # %if.then639
	movl	RC_MAX_QUANT, %eax
	movl	%eax, m_Qc
.LBB21_235:                             # %if.end640
	cmpl	$0, -36(%rbp)
	jne	.LBB21_237
# %bb.236:                              # %lor.lhs.false642
	movq	img, %rax
	cmpl	$0, 72600(%rax)
	jne	.LBB21_238
.LBB21_237:                             # %if.then646
	movl	$1, GOPOverdue
.LBB21_238:                             # %if.end647
	jmp	.LBB21_240
.LBB21_239:                             # %if.else648
	movl	PAveFrameQP, %eax
	movl	%eax, m_Qc
.LBB21_240:                             # %if.end649
	movl	m_Qc, %eax
	addl	TotalFrameQP, %eax
	movl	%eax, TotalFrameQP
	movl	NumberofBasicUnit, %eax
	addl	$-1, %eax
	movl	%eax, NumberofBasicUnit
	movl	PAveFrameQP, %eax
	movl	%eax, Pm_Qp
	movl	m_Qc, %eax
	movl	%eax, -20(%rbp)
	jmp	.LBB21_363
.LBB21_241:                             # %if.else652
	movq	img, %rax
	movl	72532(%rax), %eax
	movq	img, %rcx
	addl	72536(%rcx), %eax
	movl	%eax, TotalBasicUnitBits
	movslq	TotalBasicUnitBits, %rax
	movq	T, %rcx
	subq	%rax, %rcx
	movq	%rcx, T
	movq	img, %rax
	movl	$0, 72532(%rax)
	movq	img, %rax
	movl	$0, 72536(%rax)
	cmpq	$0, T
	jge	.LBB21_287
# %bb.242:                              # %if.then662
	cmpl	$1, GOPOverdue
	jne	.LBB21_244
# %bb.243:                              # %if.then665
	movl	m_Qp, %eax
	addl	$2, %eax
	movl	%eax, m_Qc
	jmp	.LBB21_245
.LBB21_244:                             # %if.else667
	movl	m_Qp, %eax
	addl	DDquant, %eax
	movl	%eax, m_Qc
.LBB21_245:                             # %if.end669
	movl	m_Qc, %eax
	cmpl	RC_MAX_QUANT, %eax
	jge	.LBB21_247
# %bb.246:                              # %cond.true672
	movl	m_Qc, %eax
	jmp	.LBB21_248
.LBB21_247:                             # %cond.false673
	movl	RC_MAX_QUANT, %eax
.LBB21_248:                             # %cond.end674
	movl	%eax, m_Qc
	movq	input, %rax
	movl	3248(%rax), %eax
	cmpl	MBPerRow, %eax
	jl	.LBB21_253
# %bb.249:                              # %if.then678
	movl	m_Qc, %eax
	movl	PAveFrameQP, %ecx
	addl	$6, %ecx
	cmpl	%ecx, %eax
	jge	.LBB21_251
# %bb.250:                              # %cond.true682
	movl	m_Qc, %eax
	jmp	.LBB21_252
.LBB21_251:                             # %cond.false683
	movl	PAveFrameQP, %eax
	addl	$6, %eax
.LBB21_252:                             # %cond.end685
	movl	%eax, m_Qc
	jmp	.LBB21_257
.LBB21_253:                             # %if.else687
	movl	m_Qc, %eax
	movl	PAveFrameQP, %ecx
	addl	$3, %ecx
	cmpl	%ecx, %eax
	jge	.LBB21_255
# %bb.254:                              # %cond.true691
	movl	m_Qc, %eax
	jmp	.LBB21_256
.LBB21_255:                             # %cond.false692
	movl	PAveFrameQP, %eax
	addl	$3, %eax
.LBB21_256:                             # %cond.end694
	movl	%eax, m_Qc
.LBB21_257:                             # %if.end696
	movl	m_Qc, %eax
	addl	TotalFrameQP, %eax
	movl	%eax, TotalFrameQP
	movl	NumberofBasicUnit, %eax
	addl	$-1, %eax
	movl	%eax, NumberofBasicUnit
	cmpl	$0, NumberofBasicUnit
	jne	.LBB21_283
# %bb.258:                              # %if.then701
	cmpl	$0, -36(%rbp)
	je	.LBB21_260
# %bb.259:                              # %lor.lhs.false703
	movq	img, %rax
	cmpl	$0, 72600(%rax)
	jne	.LBB21_282
.LBB21_260:                             # %if.then707
	movq	active_sps, %rax
	cmpl	$0, 1148(%rax)
	jne	.LBB21_262
# %bb.261:                              # %lor.lhs.false710
	movq	input, %rax
	cmpl	$1, 2880(%rax)
	jne	.LBB21_274
.LBB21_262:                             # %if.then714
	vmovsd	.LCPI21_2(%rip), %xmm0  # xmm0 = mem[0],zero
	vmovsd	.LCPI21_3(%rip), %xmm1  # xmm1 = mem[0],zero
	vcvtsi2sdl	TotalFrameQP, %xmm0, %xmm2
	vmulsd	%xmm2, %xmm1, %xmm1
	vcvtsi2sdl	TotalNumberofBasicUnit, %xmm0, %xmm2
	vdivsd	%xmm2, %xmm1, %xmm1
	vaddsd	%xmm0, %xmm1, %xmm0
	vcvttsd2si	%xmm0, %eax
	movl	%eax, -16(%rbp)
	movq	img, %rax
	movl	72576(%rax), %eax
	movq	input, %rcx
	movl	1224(%rcx), %ecx
	subl	$2, %ecx
	cmpl	%ecx, %eax
	jne	.LBB21_264
# %bb.263:                              # %if.then725
	movl	-16(%rbp), %eax
	movl	%eax, QPLastPFrame
.LBB21_264:                             # %if.end726
	movl	-16(%rbp), %eax
	movq	img, %rcx
	addl	72572(%rcx), %eax
	movl	%eax, 72572(%rcx)
	cmpl	$1, GOPOverdue
	jne	.LBB21_266
# %bb.265:                              # %if.then731
	movl	PreviousQp2, %eax
	addl	$1, %eax
	movl	%eax, PreviousQp1
	movl	-16(%rbp), %eax
	movl	%eax, PreviousQp2
	jmp	.LBB21_273
.LBB21_266:                             # %if.else733
	movq	img, %rax
	cmpl	$0, 72576(%rax)
	jne	.LBB21_269
# %bb.267:                              # %land.lhs.true737
	movq	img, %rax
	cmpl	$1, 72568(%rax)
	jle	.LBB21_269
# %bb.268:                              # %if.then741
	movl	PreviousQp2, %eax
	movl	%eax, PreviousQp1
	movl	-16(%rbp), %eax
	movl	%eax, PreviousQp2
	jmp	.LBB21_272
.LBB21_269:                             # %if.else742
	movq	img, %rax
	cmpl	$0, 72576(%rax)
	jle	.LBB21_271
# %bb.270:                              # %if.then746
	movl	PreviousQp2, %eax
	addl	$1, %eax
	movl	%eax, PreviousQp1
	movl	-16(%rbp), %eax
	movl	%eax, PreviousQp2
.LBB21_271:                             # %if.end748
	jmp	.LBB21_272
.LBB21_272:                             # %if.end749
	jmp	.LBB21_273
.LBB21_273:                             # %if.end750
	movl	-16(%rbp), %eax
	movl	%eax, PAveFrameQP
	movl	PAveHeaderBits2, %eax
	movl	%eax, PAveHeaderBits3
	jmp	.LBB21_281
.LBB21_274:                             # %if.else751
	movq	input, %rax
	cmpl	$2, 2880(%rax)
	je	.LBB21_276
# %bb.275:                              # %lor.lhs.false755
	movq	input, %rax
	cmpl	$0, 2884(%rax)
	je	.LBB21_280
.LBB21_276:                             # %if.then758
	movq	img, %rax
	cmpl	$0, 72600(%rax)
	jne	.LBB21_278
# %bb.277:                              # %if.then762
	vmovsd	.LCPI21_2(%rip), %xmm0  # xmm0 = mem[0],zero
	vmovsd	.LCPI21_3(%rip), %xmm1  # xmm1 = mem[0],zero
	vcvtsi2sdl	TotalFrameQP, %xmm0, %xmm2
	vmulsd	%xmm2, %xmm1, %xmm1
	vcvtsi2sdl	TotalNumberofBasicUnit, %xmm0, %xmm2
	vdivsd	%xmm2, %xmm1, %xmm1
	vaddsd	%xmm0, %xmm1, %xmm0
	vcvttsd2si	%xmm0, %eax
	movl	%eax, -16(%rbp)
	movl	-16(%rbp), %eax
	movl	%eax, FrameQPBuffer
	movl	PAveHeaderBits2, %eax
	movl	%eax, FrameAveHeaderBits
	jmp	.LBB21_279
.LBB21_278:                             # %if.else769
	vmovsd	.LCPI21_2(%rip), %xmm0  # xmm0 = mem[0],zero
	vmovsd	.LCPI21_3(%rip), %xmm1  # xmm1 = mem[0],zero
	vcvtsi2sdl	TotalFrameQP, %xmm0, %xmm2
	vmulsd	%xmm2, %xmm1, %xmm1
	vcvtsi2sdl	TotalNumberofBasicUnit, %xmm0, %xmm2
	vdivsd	%xmm2, %xmm1, %xmm1
	vaddsd	%xmm0, %xmm1, %xmm0
	vcvttsd2si	%xmm0, %eax
	movl	%eax, -16(%rbp)
	movl	-16(%rbp), %eax
	movl	%eax, FieldQPBuffer
	movl	PAveHeaderBits2, %eax
	movl	%eax, FieldAveHeaderBits
.LBB21_279:                             # %if.end776
	jmp	.LBB21_280
.LBB21_280:                             # %if.end777
	jmp	.LBB21_281
.LBB21_281:                             # %if.end778
	jmp	.LBB21_282
.LBB21_282:                             # %if.end779
	jmp	.LBB21_283
.LBB21_283:                             # %if.end780
	cmpl	$1, GOPOverdue
	jne	.LBB21_285
# %bb.284:                              # %if.then783
	movl	PAveFrameQP, %eax
	movl	%eax, Pm_Qp
	jmp	.LBB21_286
.LBB21_285:                             # %if.else784
	movl	m_Qc, %eax
	movl	%eax, Pm_Qp
.LBB21_286:                             # %if.end785
	movl	m_Qc, %eax
	movl	%eax, -20(%rbp)
	jmp	.LBB21_363
.LBB21_287:                             # %if.else786
	movq	input, %rax
	cmpl	$2, 2880(%rax)
	je	.LBB21_289
# %bb.288:                              # %lor.lhs.false790
	movq	input, %rax
	cmpl	$0, 2884(%rax)
	je	.LBB21_295
.LBB21_289:                             # %land.lhs.true793
	movq	img, %rax
	cmpl	$1, 72600(%rax)
	jne	.LBB21_295
# %bb.290:                              # %if.then797
	vmovsd	MADPictureC1, %xmm0     # xmm0 = mem[0],zero
	movq	FCBUPFMAD, %rax
	movl	TotalNumberofBasicUnit, %ecx
	subl	NumberofBasicUnit, %ecx
	movslq	%ecx, %rcx
	vmulsd	(%rax,%rcx,8), %xmm0, %xmm0
	vaddsd	MADPictureC2, %xmm0, %xmm0
	vmovsd	%xmm0, CurrentFrameMAD
	vxorps	%xmm0, %xmm0, %xmm0
	vmovsd	%xmm0, TotalBUMAD
	movl	TotalNumberofBasicUnit, %eax
	subl	$1, %eax
	movl	%eax, -32(%rbp)
.LBB21_291:                             # %for.cond
                                        # =>This Inner Loop Header: Depth=1
	movl	-32(%rbp), %eax
	movl	TotalNumberofBasicUnit, %ecx
	subl	NumberofBasicUnit, %ecx
	cmpl	%ecx, %eax
	jl	.LBB21_294
# %bb.292:                              # %for.body
                                        #   in Loop: Header=BB21_291 Depth=1
	vmovsd	MADPictureC1, %xmm0     # xmm0 = mem[0],zero
	movq	FCBUPFMAD, %rax
	movslq	-32(%rbp), %rcx
	vmulsd	(%rax,%rcx,8), %xmm0, %xmm0
	vaddsd	MADPictureC2, %xmm0, %xmm0
	vmovsd	%xmm0, CurrentBUMAD
	vmovsd	CurrentBUMAD, %xmm0     # xmm0 = mem[0],zero
	vmulsd	CurrentBUMAD, %xmm0, %xmm0
	vaddsd	TotalBUMAD, %xmm0, %xmm0
	vmovsd	%xmm0, TotalBUMAD
# %bb.293:                              # %for.inc
                                        #   in Loop: Header=BB21_291 Depth=1
	movl	-32(%rbp), %eax
	addl	$-1, %eax
	movl	%eax, -32(%rbp)
	jmp	.LBB21_291
.LBB21_294:                             # %for.end
	jmp	.LBB21_300
.LBB21_295:                             # %if.else812
	vmovsd	MADPictureC1, %xmm0     # xmm0 = mem[0],zero
	movq	BUPFMAD, %rax
	movl	TotalNumberofBasicUnit, %ecx
	subl	NumberofBasicUnit, %ecx
	movslq	%ecx, %rcx
	vmulsd	(%rax,%rcx,8), %xmm0, %xmm0
	vaddsd	MADPictureC2, %xmm0, %xmm0
	vmovsd	%xmm0, CurrentFrameMAD
	vxorps	%xmm0, %xmm0, %xmm0
	vmovsd	%xmm0, TotalBUMAD
	movl	TotalNumberofBasicUnit, %eax
	subl	$1, %eax
	movl	%eax, -32(%rbp)
.LBB21_296:                             # %for.cond819
                                        # =>This Inner Loop Header: Depth=1
	movl	-32(%rbp), %eax
	movl	TotalNumberofBasicUnit, %ecx
	subl	NumberofBasicUnit, %ecx
	cmpl	%ecx, %eax
	jl	.LBB21_299
# %bb.297:                              # %for.body823
                                        #   in Loop: Header=BB21_296 Depth=1
	vmovsd	MADPictureC1, %xmm0     # xmm0 = mem[0],zero
	movq	BUPFMAD, %rax
	movslq	-32(%rbp), %rcx
	vmulsd	(%rax,%rcx,8), %xmm0, %xmm0
	vaddsd	MADPictureC2, %xmm0, %xmm0
	vmovsd	%xmm0, CurrentBUMAD
	vmovsd	CurrentBUMAD, %xmm0     # xmm0 = mem[0],zero
	vmulsd	CurrentBUMAD, %xmm0, %xmm0
	vaddsd	TotalBUMAD, %xmm0, %xmm0
	vmovsd	%xmm0, TotalBUMAD
# %bb.298:                              # %for.inc830
                                        #   in Loop: Header=BB21_296 Depth=1
	movl	-32(%rbp), %eax
	addl	$-1, %eax
	movl	%eax, -32(%rbp)
	jmp	.LBB21_296
.LBB21_299:                             # %for.end832
	jmp	.LBB21_300
.LBB21_300:                             # %if.end833
	vcvtsi2sdq	T, %xmm0, %xmm0
	vmulsd	CurrentFrameMAD, %xmm0, %xmm0
	vmulsd	CurrentFrameMAD, %xmm0, %xmm0
	vdivsd	TotalBUMAD, %xmm0, %xmm0
	vcvttsd2si	%xmm0, %eax
	movl	%eax, -28(%rbp)
	movl	PAveHeaderBits2, %eax
	movl	-28(%rbp), %ecx
	subl	%eax, %ecx
	movl	%ecx, -28(%rbp)
	movl	-28(%rbp), %eax
	vmovsd	bit_rate, %xmm0         # xmm0 = mem[0],zero
	vmovsd	MINVALUE, %xmm1         # xmm1 = mem[0],zero
	vmulsd	frame_rate, %xmm1, %xmm1
	vcvtsi2sdl	TotalNumberofBasicUnit, %xmm0, %xmm2
	vmulsd	%xmm2, %xmm1, %xmm1
	vdivsd	%xmm1, %xmm0, %xmm0
	vcvttsd2si	%xmm0, %ecx
	cmpl	%ecx, %eax
	jge	.LBB21_302
# %bb.301:                              # %cond.true847
	vmovsd	bit_rate, %xmm0         # xmm0 = mem[0],zero
	vmovsd	MINVALUE, %xmm1         # xmm1 = mem[0],zero
	vmulsd	frame_rate, %xmm1, %xmm1
	vcvtsi2sdl	TotalNumberofBasicUnit, %xmm0, %xmm2
	vmulsd	%xmm2, %xmm1, %xmm1
	vdivsd	%xmm1, %xmm0, %xmm0
	vcvttsd2si	%xmm0, %eax
	jmp	.LBB21_303
.LBB21_302:                             # %cond.false853
	movl	-28(%rbp), %eax
.LBB21_303:                             # %cond.end854
	vmovsd	.LCPI21_0(%rip), %xmm0  # xmm0 = mem[0],zero
	movl	%eax, -28(%rbp)
	vmovsd	CurrentFrameMAD, %xmm1  # xmm1 = mem[0],zero
	vmulsd	m_X1, %xmm1, %xmm1
	vmulsd	CurrentFrameMAD, %xmm1, %xmm1
	vmulsd	m_X1, %xmm1, %xmm1
	vmulsd	m_X2, %xmm0, %xmm0
	vmulsd	CurrentFrameMAD, %xmm0, %xmm0
	vcvtsi2sdl	-28(%rbp), %xmm0, %xmm2
	vmulsd	%xmm2, %xmm0, %xmm0
	vaddsd	%xmm0, %xmm1, %xmm0
	vmovsd	%xmm0, -48(%rbp)
	vmovsd	m_X2, %xmm0             # xmm0 = mem[0],zero
	vxorps	%xmm1, %xmm1, %xmm1
	vucomisd	%xmm1, %xmm0
	jne	.LBB21_304
	jp	.LBB21_304
	jmp	.LBB21_306
.LBB21_304:                             # %lor.lhs.false866
	vxorps	%xmm0, %xmm0, %xmm0
	vucomisd	-48(%rbp), %xmm0
	ja	.LBB21_306
# %bb.305:                              # %lor.lhs.false869
	vmovsd	-48(%rbp), %xmm0        # xmm0 = mem[0],zero
	callq	sqrt
	vmovsd	m_X1, %xmm1             # xmm1 = mem[0],zero
	vmulsd	CurrentFrameMAD, %xmm1, %xmm1
	vsubsd	%xmm1, %xmm0, %xmm0
	vxorps	%xmm1, %xmm1, %xmm1
	vucomisd	%xmm0, %xmm1
	jb	.LBB21_307
.LBB21_306:                             # %if.then875
	vmovsd	m_X1, %xmm0             # xmm0 = mem[0],zero
	vmulsd	CurrentFrameMAD, %xmm0, %xmm0
	vcvtsi2sdl	-28(%rbp), %xmm0, %xmm1
	vdivsd	%xmm1, %xmm0, %xmm0
	vcvtsd2ss	%xmm0, %xmm0, %xmm0
	vcvtss2sd	%xmm0, %xmm0, %xmm0
	vmovsd	%xmm0, m_Qstep
	jmp	.LBB21_308
.LBB21_307:                             # %if.else881
	vmovsd	.LCPI21_1(%rip), %xmm0  # xmm0 = mem[0],zero
	vmulsd	m_X2, %xmm0, %xmm0
	vmulsd	CurrentFrameMAD, %xmm0, %xmm0
	vmovsd	%xmm0, -72(%rbp)        # 8-byte Spill
	vmovsd	-48(%rbp), %xmm0        # xmm0 = mem[0],zero
	callq	sqrt
	vmovsd	m_X1, %xmm1             # xmm1 = mem[0],zero
	vmulsd	CurrentFrameMAD, %xmm1, %xmm1
	vsubsd	%xmm1, %xmm0, %xmm0
	vmovsd	-72(%rbp), %xmm1        # 8-byte Reload
                                        # xmm1 = mem[0],zero
	vdivsd	%xmm0, %xmm1, %xmm0
	vcvtsd2ss	%xmm0, %xmm0, %xmm0
	vcvtss2sd	%xmm0, %xmm0, %xmm0
	vmovsd	%xmm0, m_Qstep
.LBB21_308:                             # %if.end890
	vmovsd	m_Qstep, %xmm0          # xmm0 = mem[0],zero
	callq	Qstep2QP
	movl	%eax, m_Qc
	movl	m_Qp, %eax
	addl	DDquant, %eax
	cmpl	m_Qc, %eax
	jge	.LBB21_310
# %bb.309:                              # %cond.true895
	movl	m_Qp, %eax
	addl	DDquant, %eax
	jmp	.LBB21_311
.LBB21_310:                             # %cond.false897
	movl	m_Qc, %eax
.LBB21_311:                             # %cond.end898
	movl	%eax, m_Qc
	movq	input, %rax
	movl	3248(%rax), %eax
	cmpl	MBPerRow, %eax
	jl	.LBB21_316
# %bb.312:                              # %if.then903
	movl	PAveFrameQP, %eax
	addl	$6, %eax
	cmpl	m_Qc, %eax
	jge	.LBB21_314
# %bb.313:                              # %cond.true907
	movl	PAveFrameQP, %eax
	addl	$6, %eax
	jmp	.LBB21_315
.LBB21_314:                             # %cond.false909
	movl	m_Qc, %eax
.LBB21_315:                             # %cond.end910
	movl	%eax, m_Qc
	jmp	.LBB21_320
.LBB21_316:                             # %if.else912
	movl	PAveFrameQP, %eax
	addl	$3, %eax
	cmpl	m_Qc, %eax
	jge	.LBB21_318
# %bb.317:                              # %cond.true916
	movl	PAveFrameQP, %eax
	addl	$3, %eax
	jmp	.LBB21_319
.LBB21_318:                             # %cond.false918
	movl	m_Qc, %eax
.LBB21_319:                             # %cond.end919
	movl	%eax, m_Qc
.LBB21_320:                             # %if.end921
	movl	m_Qc, %eax
	cmpl	RC_MAX_QUANT, %eax
	jge	.LBB21_322
# %bb.321:                              # %cond.true924
	movl	m_Qc, %eax
	jmp	.LBB21_323
.LBB21_322:                             # %cond.false925
	movl	RC_MAX_QUANT, %eax
.LBB21_323:                             # %cond.end926
	movl	%eax, m_Qc
	movl	m_Qp, %eax
	subl	DDquant, %eax
	cmpl	m_Qc, %eax
	jge	.LBB21_325
# %bb.324:                              # %cond.true931
	movl	m_Qc, %eax
	jmp	.LBB21_326
.LBB21_325:                             # %cond.false932
	movl	m_Qp, %eax
	subl	DDquant, %eax
.LBB21_326:                             # %cond.end934
	movl	%eax, m_Qc
	movq	input, %rax
	movl	3248(%rax), %eax
	cmpl	MBPerRow, %eax
	jl	.LBB21_331
# %bb.327:                              # %if.then939
	movl	PAveFrameQP, %eax
	subl	$6, %eax
	cmpl	m_Qc, %eax
	jge	.LBB21_329
# %bb.328:                              # %cond.true943
	movl	m_Qc, %eax
	jmp	.LBB21_330
.LBB21_329:                             # %cond.false944
	movl	PAveFrameQP, %eax
	subl	$6, %eax
.LBB21_330:                             # %cond.end946
	movl	%eax, m_Qc
	jmp	.LBB21_335
.LBB21_331:                             # %if.else948
	movl	PAveFrameQP, %eax
	subl	$3, %eax
	cmpl	m_Qc, %eax
	jge	.LBB21_333
# %bb.332:                              # %cond.true952
	movl	m_Qc, %eax
	jmp	.LBB21_334
.LBB21_333:                             # %cond.false953
	movl	PAveFrameQP, %eax
	subl	$3, %eax
.LBB21_334:                             # %cond.end955
	movl	%eax, m_Qc
.LBB21_335:                             # %if.end957
	movl	RC_MIN_QUANT, %eax
	cmpl	m_Qc, %eax
	jge	.LBB21_337
# %bb.336:                              # %cond.true960
	movl	m_Qc, %eax
	jmp	.LBB21_338
.LBB21_337:                             # %cond.false961
	movl	RC_MIN_QUANT, %eax
.LBB21_338:                             # %cond.end962
	movl	%eax, m_Qc
	movl	m_Qc, %eax
	addl	TotalFrameQP, %eax
	movl	%eax, TotalFrameQP
	movl	m_Qc, %eax
	movl	%eax, Pm_Qp
	movl	NumberofBasicUnit, %eax
	addl	$-1, %eax
	movl	%eax, NumberofBasicUnit
	cmpl	$0, NumberofBasicUnit
	jne	.LBB21_356
# %bb.339:                              # %land.lhs.true968
	movq	img, %rax
	cmpl	$0, 24(%rax)
	jne	.LBB21_356
# %bb.340:                              # %if.then972
	cmpl	$0, -36(%rbp)
	je	.LBB21_342
# %bb.341:                              # %lor.lhs.false974
	movq	img, %rax
	cmpl	$0, 72600(%rax)
	jne	.LBB21_355
.LBB21_342:                             # %if.then978
	movq	active_sps, %rax
	cmpl	$0, 1148(%rax)
	jne	.LBB21_344
# %bb.343:                              # %lor.lhs.false981
	movq	input, %rax
	cmpl	$1, 2880(%rax)
	jne	.LBB21_347
.LBB21_344:                             # %if.then985
	vmovsd	.LCPI21_2(%rip), %xmm0  # xmm0 = mem[0],zero
	vmovsd	.LCPI21_3(%rip), %xmm1  # xmm1 = mem[0],zero
	vcvtsi2sdl	TotalFrameQP, %xmm0, %xmm2
	vmulsd	%xmm2, %xmm1, %xmm1
	vcvtsi2sdl	TotalNumberofBasicUnit, %xmm0, %xmm2
	vdivsd	%xmm2, %xmm1, %xmm1
	vaddsd	%xmm0, %xmm1, %xmm0
	vcvttsd2si	%xmm0, %eax
	movl	%eax, -16(%rbp)
	movq	img, %rax
	movl	72576(%rax), %eax
	movq	input, %rcx
	movl	1224(%rcx), %ecx
	subl	$2, %ecx
	cmpl	%ecx, %eax
	jne	.LBB21_346
# %bb.345:                              # %if.then997
	movl	-16(%rbp), %eax
	movl	%eax, QPLastPFrame
.LBB21_346:                             # %if.end998
	movl	-16(%rbp), %eax
	movq	img, %rcx
	addl	72572(%rcx), %eax
	movl	%eax, 72572(%rcx)
	movl	PreviousQp2, %eax
	movl	%eax, PreviousQp1
	movl	-16(%rbp), %eax
	movl	%eax, PreviousQp2
	movl	-16(%rbp), %eax
	movl	%eax, PAveFrameQP
	movl	PAveHeaderBits2, %eax
	movl	%eax, PAveHeaderBits3
	jmp	.LBB21_354
.LBB21_347:                             # %if.else1001
	movq	input, %rax
	cmpl	$2, 2880(%rax)
	je	.LBB21_349
# %bb.348:                              # %lor.lhs.false1005
	movq	input, %rax
	cmpl	$0, 2884(%rax)
	je	.LBB21_353
.LBB21_349:                             # %if.then1008
	movq	img, %rax
	cmpl	$0, 72600(%rax)
	jne	.LBB21_351
# %bb.350:                              # %if.then1012
	vmovsd	.LCPI21_2(%rip), %xmm0  # xmm0 = mem[0],zero
	vmovsd	.LCPI21_3(%rip), %xmm1  # xmm1 = mem[0],zero
	vcvtsi2sdl	TotalFrameQP, %xmm0, %xmm2
	vmulsd	%xmm2, %xmm1, %xmm1
	vcvtsi2sdl	TotalNumberofBasicUnit, %xmm0, %xmm2
	vdivsd	%xmm2, %xmm1, %xmm1
	vaddsd	%xmm0, %xmm1, %xmm0
	vcvttsd2si	%xmm0, %eax
	movl	%eax, -16(%rbp)
	movl	-16(%rbp), %eax
	movl	%eax, FrameQPBuffer
	movl	PAveHeaderBits2, %eax
	movl	%eax, FrameAveHeaderBits
	jmp	.LBB21_352
.LBB21_351:                             # %if.else1019
	vmovsd	.LCPI21_2(%rip), %xmm0  # xmm0 = mem[0],zero
	vmovsd	.LCPI21_3(%rip), %xmm1  # xmm1 = mem[0],zero
	vcvtsi2sdl	TotalFrameQP, %xmm0, %xmm2
	vmulsd	%xmm2, %xmm1, %xmm1
	vcvtsi2sdl	TotalNumberofBasicUnit, %xmm0, %xmm2
	vdivsd	%xmm2, %xmm1, %xmm1
	vaddsd	%xmm0, %xmm1, %xmm0
	vcvttsd2si	%xmm0, %eax
	movl	%eax, -16(%rbp)
	movl	-16(%rbp), %eax
	movl	%eax, FieldQPBuffer
	movl	PAveHeaderBits2, %eax
	movl	%eax, FieldAveHeaderBits
.LBB21_352:                             # %if.end1026
	jmp	.LBB21_353
.LBB21_353:                             # %if.end1027
	jmp	.LBB21_354
.LBB21_354:                             # %if.end1028
	jmp	.LBB21_355
.LBB21_355:                             # %if.end1029
	jmp	.LBB21_356
.LBB21_356:                             # %if.end1030
	movl	m_Qc, %eax
	movl	%eax, -20(%rbp)
	jmp	.LBB21_363
.LBB21_357:                             # %if.end1031
	jmp	.LBB21_358
.LBB21_358:                             # %if.end1032
	jmp	.LBB21_359
.LBB21_359:                             # %if.end1033
	jmp	.LBB21_360
.LBB21_360:                             # %if.end1034
	jmp	.LBB21_361
.LBB21_361:                             # %if.end1035
	jmp	.LBB21_362
.LBB21_362:                             # %if.end1036
	movl	m_Qc, %eax
	movl	%eax, -20(%rbp)
.LBB21_363:                             # %return
	movl	-20(%rbp), %ebx
	cmpl	$2080612348, -56(%rbp)  # imm = 0x7C039FFC
	jne	.LBB21_365
.LBB21_364:
	movl	%ebx, %eax
	addq	$72, %rsp
	popq	%rbx
	popq	%rbp
	.cfi_def_cfa %rsp, 8
	retq
.LBB21_365:                             # %func_exit
	.cfi_def_cfa %rbp, 16
	callq	detect_breach
	jmp	.LBB21_364
.Lfunc_end21:
	.size	updateQuantizationParameter.5, .Lfunc_end21-updateQuantizationParameter.5
	.cfi_endproc
                                        # -- End function
	.section	.rodata.cst8,"aM",@progbits,8
	.p2align	3               # -- Begin function rc_init_seq.6
.LCPI22_0:
	.quad	4605380978949069210     # double 0.80000000000000004
.LCPI22_1:
	.quad	4612947026323051643     # double 2.5600000000000001
.LCPI22_2:
	.quad	4616189618054758400     # double 4
.LCPI22_3:
	.quad	4602678819172646912     # double 0.5
.LCPI22_4:
	.quad	4606281698874543309     # double 0.90000000000000002
.LCPI22_5:
	.quad	4598175219545276416     # double 0.25
.LCPI22_6:
	.quad	4607182418800017408     # double 1
.LCPI22_7:
	.quad	4612586738352862003     # double 2.3999999999999999
.LCPI22_8:
	.quad	4608983858650965606     # double 1.3999999999999999
.LCPI22_9:
	.quad	4603579539098121011     # double 0.59999999999999998
.LCPI22_10:
	.quad	4608083138725491507     # double 1.2
.LCPI22_11:
	.quad	4596373779694328218     # double 0.20000000000000001
.LCPI22_12:
	.quad	4599075939470750515     # double 0.29999999999999999
.LCPI22_13:
	.quad	4591870180066957722     # double 0.10000000000000001
	.text
	.globl	rc_init_seq.6
	.p2align	4, 0x90
	.type	rc_init_seq.6,@function
rc_init_seq.6:                          # @rc_init_seq.6
	.cfi_startproc
# %bb.0:                                # %entry
	pushq	%rbp
	.cfi_def_cfa_offset 16
	.cfi_offset %rbp, -16
	movq	%rsp, %rbp
	.cfi_def_cfa_register %rbp
	subq	$48, %rsp
	movl	$126509207, -44(%rbp)   # imm = 0x78A6097
	movl	$0, Xp
	movl	$0, Xb
	movq	input, %rax
	vcvtsi2sdl	3240(%rax), %xmm0, %xmm0
	vmovsd	%xmm0, bit_rate
	movq	img, %rax
	vmovss	48(%rax), %xmm0         # xmm0 = mem[0],zero,zero,zero
	movq	input, %rax
	movl	1236(%rax), %eax
	addl	$1, %eax
	vcvtsi2ss	%eax, %xmm0, %xmm1
	vmulss	%xmm1, %xmm0, %xmm0
	movq	input, %rax
	movl	20(%rax), %eax
	addl	$1, %eax
	vcvtsi2ss	%eax, %xmm0, %xmm1
	vdivss	%xmm1, %xmm0, %xmm0
	vcvtss2sd	%xmm0, %xmm0, %xmm0
	vmovsd	%xmm0, frame_rate
	vmovsd	bit_rate, %xmm0         # xmm0 = mem[0],zero
	vmovsd	%xmm0, PreviousBit_Rate
	movq	img, %rax
	movl	60(%rax), %eax
	movq	img, %rcx
	imull	52(%rcx), %eax
	cltd
	movl	$256, %ecx              # imm = 0x100
	idivl	%ecx
	movq	img, %rcx
	movl	%eax, 72608(%rcx)
	movq	input, %rax
	movl	3248(%rax), %eax
	movq	img, %rcx
	cmpl	72608(%rcx), %eax
	jle	.LBB22_2
# %bb.1:                                # %if.then
	movq	img, %rax
	movl	72608(%rax), %eax
	movq	input, %rcx
	movl	%eax, 3248(%rcx)
.LBB22_2:                               # %if.end
	movq	input, %rax
	movl	3248(%rax), %eax
	movq	img, %rcx
	cmpl	72608(%rcx), %eax
	jge	.LBB22_4
# %bb.3:                                # %if.then15
	movq	img, %rax
	movl	72608(%rax), %eax
	movq	input, %rcx
	cltd
	idivl	3248(%rcx)
	movl	%eax, TotalNumberofBasicUnit
.LBB22_4:                               # %if.end19
	vmovsd	.LCPI22_0(%rip), %xmm0  # xmm0 = mem[0],zero
	vmovsd	.LCPI22_1(%rip), %xmm1  # xmm1 = mem[0],zero
	vmovsd	.LCPI22_2(%rip), %xmm2  # xmm2 = mem[0],zero
	vmovsd	%xmm2, MINVALUE
	vmulsd	bit_rate, %xmm1, %xmm1
	vmovsd	%xmm1, BufferSize
	vxorps	%xmm1, %xmm1, %xmm1
	vmovsd	%xmm1, CurrentBufferFullness
	vmovsd	CurrentBufferFullness, %xmm1 # xmm1 = mem[0],zero
	vmovsd	%xmm1, GOPTargetBufferLevel
	vmulsd	BufferSize, %xmm0, %xmm0
	vmovsd	%xmm0, InitialDelayOffset
	movl	$0, m_windowSize
	movl	$0, MADm_windowSize
	movq	img, %rax
	movl	$0, 72560(%rax)
	movq	img, %rax
	movl	$0, 72564(%rax)
	movq	img, %rax
	movl	$0, 72568(%rax)
	movl	$0, R
	movq	input, %rax
	cmpl	$0, 1236(%rax)
	jle	.LBB22_6
# %bb.5:                                # %if.then25
	vmovsd	.LCPI22_4(%rip), %xmm0  # xmm0 = mem[0],zero
	vmovsd	.LCPI22_5(%rip), %xmm1  # xmm1 = mem[0],zero
	vmovsd	%xmm1, GAMMAP
	vmovsd	%xmm0, BETAP
	jmp	.LBB22_7
.LBB22_6:                               # %if.else
	vmovsd	.LCPI22_3(%rip), %xmm0  # xmm0 = mem[0],zero
	vmovsd	%xmm0, GAMMAP
	vmovsd	%xmm0, BETAP
.LBB22_7:                               # %if.end26
	vmovsd	.LCPI22_6(%rip), %xmm0  # xmm0 = mem[0],zero
	movl	$0, PPreHeader
	vmulsd	bit_rate, %xmm0, %xmm1
	vmovsd	%xmm1, Pm_X1
	vxorps	%xmm1, %xmm1, %xmm1
	vmovsd	%xmm1, Pm_X2
	vmovsd	%xmm0, PMADPictureC1
	vmovsd	%xmm1, PMADPictureC2
	movl	$0, -4(%rbp)
.LBB22_8:                               # %for.cond
                                        # =>This Inner Loop Header: Depth=1
	cmpl	$20, -4(%rbp)
	jge	.LBB22_11
# %bb.9:                                # %for.body
                                        #   in Loop: Header=BB22_8 Depth=1
	movslq	-4(%rbp), %rax
	vxorps	%xmm0, %xmm0, %xmm0
	vmovsd	%xmm0, Pm_rgQp(,%rax,8)
	movslq	-4(%rbp), %rax
	vmovsd	%xmm0, Pm_rgRp(,%rax,8)
	movslq	-4(%rbp), %rax
	vmovsd	%xmm0, PPictureMAD(,%rax,8)
# %bb.10:                               # %for.inc
                                        #   in Loop: Header=BB22_8 Depth=1
	movl	-4(%rbp), %eax
	addl	$1, %eax
	movl	%eax, -4(%rbp)
	jmp	.LBB22_8
.LBB22_11:                              # %for.end
	vxorps	%xmm0, %xmm0, %xmm0
	vmovsd	%xmm0, PPictureMAD+160
	movl	$2, PDuantQp
	movl	$0, PAveHeaderBits1
	movl	$0, PAveHeaderBits3
	cmpl	$9, TotalNumberofBasicUnit
	jl	.LBB22_13
# %bb.12:                               # %if.then36
	movl	$1, DDquant
	jmp	.LBB22_14
.LBB22_13:                              # %if.else37
	movl	$2, DDquant
.LBB22_14:                              # %if.end38
	vmovsd	.LCPI22_6(%rip), %xmm0  # xmm0 = mem[0],zero
	movq	img, %rax
	movl	52(%rax), %eax
	cltd
	movl	$16, %ecx
	idivl	%ecx
	movl	%eax, MBPerRow
	movq	img, %rax
	movl	$0, 72600(%rax)
	movl	$51, RC_MAX_QUANT
	movl	$0, RC_MIN_QUANT
	vmulsd	bit_rate, %xmm0, %xmm0
	vmovsd	frame_rate, %xmm1       # xmm1 = mem[0],zero
	movq	img, %rax
	vcvtsi2sdl	52(%rax), %xmm0, %xmm2
	vmulsd	%xmm2, %xmm1, %xmm1
	movq	img, %rax
	vcvtsi2sdl	60(%rax), %xmm0, %xmm2
	vmulsd	%xmm2, %xmm1, %xmm1
	vdivsd	%xmm1, %xmm0, %xmm0
	vmovsd	%xmm0, -24(%rbp)
	movq	img, %rax
	cmpl	$176, 52(%rax)
	jne	.LBB22_16
# %bb.15:                               # %if.then52
	vmovsd	.LCPI22_9(%rip), %xmm0  # xmm0 = mem[0],zero
	vmovsd	.LCPI22_12(%rip), %xmm1 # xmm1 = mem[0],zero
	vmovsd	.LCPI22_13(%rip), %xmm2 # xmm2 = mem[0],zero
	vmovsd	%xmm2, -32(%rbp)
	vmovsd	%xmm1, -40(%rbp)
	vmovsd	%xmm0, -16(%rbp)
	jmp	.LBB22_20
.LBB22_16:                              # %if.else53
	movq	img, %rax
	cmpl	$352, 52(%rax)          # imm = 0x160
	jne	.LBB22_18
# %bb.17:                               # %if.then57
	vmovsd	.LCPI22_10(%rip), %xmm0 # xmm0 = mem[0],zero
	vmovsd	.LCPI22_9(%rip), %xmm1  # xmm1 = mem[0],zero
	vmovsd	.LCPI22_11(%rip), %xmm2 # xmm2 = mem[0],zero
	vmovsd	%xmm2, -32(%rbp)
	vmovsd	%xmm1, -40(%rbp)
	vmovsd	%xmm0, -16(%rbp)
	jmp	.LBB22_19
.LBB22_18:                              # %if.else58
	vmovsd	.LCPI22_7(%rip), %xmm0  # xmm0 = mem[0],zero
	vmovsd	.LCPI22_8(%rip), %xmm1  # xmm1 = mem[0],zero
	vmovsd	.LCPI22_9(%rip), %xmm2  # xmm2 = mem[0],zero
	vmovsd	%xmm2, -32(%rbp)
	vmovsd	%xmm1, -40(%rbp)
	vmovsd	%xmm0, -16(%rbp)
.LBB22_19:                              # %if.end59
	jmp	.LBB22_20
.LBB22_20:                              # %if.end60
	movq	input, %rax
	cmpl	$0, 3244(%rax)
	jne	.LBB22_31
# %bb.21:                               # %if.then63
	vmovsd	-24(%rbp), %xmm0        # xmm0 = mem[0],zero
	vmovsd	-32(%rbp), %xmm1        # xmm1 = mem[0],zero
	vucomisd	%xmm0, %xmm1
	jb	.LBB22_23
# %bb.22:                               # %if.then66
	movl	$35, -8(%rbp)
	jmp	.LBB22_30
.LBB22_23:                              # %if.else67
	vmovsd	-24(%rbp), %xmm0        # xmm0 = mem[0],zero
	vmovsd	-40(%rbp), %xmm1        # xmm1 = mem[0],zero
	vucomisd	%xmm0, %xmm1
	jb	.LBB22_25
# %bb.24:                               # %if.then70
	movl	$25, -8(%rbp)
	jmp	.LBB22_29
.LBB22_25:                              # %if.else71
	vmovsd	-24(%rbp), %xmm0        # xmm0 = mem[0],zero
	vmovsd	-16(%rbp), %xmm1        # xmm1 = mem[0],zero
	vucomisd	%xmm0, %xmm1
	jb	.LBB22_27
# %bb.26:                               # %if.then74
	movl	$20, -8(%rbp)
	jmp	.LBB22_28
.LBB22_27:                              # %if.else75
	movl	$10, -8(%rbp)
.LBB22_28:                              # %if.end76
	jmp	.LBB22_29
.LBB22_29:                              # %if.end77
	jmp	.LBB22_30
.LBB22_30:                              # %if.end78
	movl	-8(%rbp), %eax
	movq	input, %rcx
	movl	%eax, 3244(%rcx)
.LBB22_31:                              # %if.end80
	cmpl	$126509207, -44(%rbp)   # imm = 0x78A6097
	jne	.LBB22_33
.LBB22_32:
	addq	$48, %rsp
	popq	%rbp
	.cfi_def_cfa %rsp, 8
	retq
.LBB22_33:                              # %func_exit
	.cfi_def_cfa %rbp, 16
	callq	detect_breach
	jmp	.LBB22_32
.Lfunc_end22:
	.size	rc_init_seq.6, .Lfunc_end22-rc_init_seq.6
	.cfi_endproc
                                        # -- End function
	.section	.rodata.cst8,"aM",@progbits,8
	.p2align	3               # -- Begin function rc_init_seq.7
.LCPI23_0:
	.quad	4605380978949069210     # double 0.80000000000000004
.LCPI23_1:
	.quad	4612947026323051643     # double 2.5600000000000001
.LCPI23_2:
	.quad	4616189618054758400     # double 4
.LCPI23_3:
	.quad	4602678819172646912     # double 0.5
.LCPI23_4:
	.quad	4606281698874543309     # double 0.90000000000000002
.LCPI23_5:
	.quad	4598175219545276416     # double 0.25
.LCPI23_6:
	.quad	4607182418800017408     # double 1
.LCPI23_7:
	.quad	4612586738352862003     # double 2.3999999999999999
.LCPI23_8:
	.quad	4608983858650965606     # double 1.3999999999999999
.LCPI23_9:
	.quad	4603579539098121011     # double 0.59999999999999998
.LCPI23_10:
	.quad	4608083138725491507     # double 1.2
.LCPI23_11:
	.quad	4596373779694328218     # double 0.20000000000000001
.LCPI23_12:
	.quad	4599075939470750515     # double 0.29999999999999999
.LCPI23_13:
	.quad	4591870180066957722     # double 0.10000000000000001
	.text
	.globl	rc_init_seq.7
	.p2align	4, 0x90
	.type	rc_init_seq.7,@function
rc_init_seq.7:                          # @rc_init_seq.7
	.cfi_startproc
# %bb.0:                                # %entry
	pushq	%rbp
	.cfi_def_cfa_offset 16
	.cfi_offset %rbp, -16
	movq	%rsp, %rbp
	.cfi_def_cfa_register %rbp
	subq	$48, %rsp
	movl	$1010315564, -44(%rbp)  # imm = 0x3C38312C
	movl	$0, Xp
	movl	$0, Xb
	movq	input, %rax
	vcvtsi2sdl	3240(%rax), %xmm0, %xmm0
	vmovsd	%xmm0, bit_rate
	movq	img, %rax
	vmovss	48(%rax), %xmm0         # xmm0 = mem[0],zero,zero,zero
	movq	input, %rax
	movl	1236(%rax), %eax
	addl	$1, %eax
	vcvtsi2ss	%eax, %xmm0, %xmm1
	vmulss	%xmm1, %xmm0, %xmm0
	movq	input, %rax
	movl	20(%rax), %eax
	addl	$1, %eax
	vcvtsi2ss	%eax, %xmm0, %xmm1
	vdivss	%xmm1, %xmm0, %xmm0
	vcvtss2sd	%xmm0, %xmm0, %xmm0
	vmovsd	%xmm0, frame_rate
	vmovsd	bit_rate, %xmm0         # xmm0 = mem[0],zero
	vmovsd	%xmm0, PreviousBit_Rate
	movq	img, %rax
	movl	60(%rax), %eax
	movq	img, %rcx
	imull	52(%rcx), %eax
	cltd
	movl	$256, %ecx              # imm = 0x100
	idivl	%ecx
	movq	img, %rcx
	movl	%eax, 72608(%rcx)
	movq	input, %rax
	movl	3248(%rax), %eax
	movq	img, %rcx
	cmpl	72608(%rcx), %eax
	jle	.LBB23_2
# %bb.1:                                # %if.then
	movq	img, %rax
	movl	72608(%rax), %eax
	movq	input, %rcx
	movl	%eax, 3248(%rcx)
.LBB23_2:                               # %if.end
	movq	input, %rax
	movl	3248(%rax), %eax
	movq	img, %rcx
	cmpl	72608(%rcx), %eax
	jge	.LBB23_4
# %bb.3:                                # %if.then15
	movq	img, %rax
	movl	72608(%rax), %eax
	movq	input, %rcx
	cltd
	idivl	3248(%rcx)
	movl	%eax, TotalNumberofBasicUnit
.LBB23_4:                               # %if.end19
	vmovsd	.LCPI23_0(%rip), %xmm0  # xmm0 = mem[0],zero
	vmovsd	.LCPI23_1(%rip), %xmm1  # xmm1 = mem[0],zero
	vmovsd	.LCPI23_2(%rip), %xmm2  # xmm2 = mem[0],zero
	vmovsd	%xmm2, MINVALUE
	vmulsd	bit_rate, %xmm1, %xmm1
	vmovsd	%xmm1, BufferSize
	vxorps	%xmm1, %xmm1, %xmm1
	vmovsd	%xmm1, CurrentBufferFullness
	vmovsd	CurrentBufferFullness, %xmm1 # xmm1 = mem[0],zero
	vmovsd	%xmm1, GOPTargetBufferLevel
	vmulsd	BufferSize, %xmm0, %xmm0
	vmovsd	%xmm0, InitialDelayOffset
	movl	$0, m_windowSize
	movl	$0, MADm_windowSize
	movq	img, %rax
	movl	$0, 72560(%rax)
	movq	img, %rax
	movl	$0, 72564(%rax)
	movq	img, %rax
	movl	$0, 72568(%rax)
	movl	$0, R
	movq	input, %rax
	cmpl	$0, 1236(%rax)
	jle	.LBB23_6
# %bb.5:                                # %if.then25
	vmovsd	.LCPI23_4(%rip), %xmm0  # xmm0 = mem[0],zero
	vmovsd	.LCPI23_5(%rip), %xmm1  # xmm1 = mem[0],zero
	vmovsd	%xmm1, GAMMAP
	vmovsd	%xmm0, BETAP
	jmp	.LBB23_7
.LBB23_6:                               # %if.else
	vmovsd	.LCPI23_3(%rip), %xmm0  # xmm0 = mem[0],zero
	vmovsd	%xmm0, GAMMAP
	vmovsd	%xmm0, BETAP
.LBB23_7:                               # %if.end26
	vmovsd	.LCPI23_6(%rip), %xmm0  # xmm0 = mem[0],zero
	movl	$0, PPreHeader
	vmulsd	bit_rate, %xmm0, %xmm1
	vmovsd	%xmm1, Pm_X1
	vxorps	%xmm1, %xmm1, %xmm1
	vmovsd	%xmm1, Pm_X2
	vmovsd	%xmm0, PMADPictureC1
	vmovsd	%xmm1, PMADPictureC2
	movl	$0, -4(%rbp)
.LBB23_8:                               # %for.cond
                                        # =>This Inner Loop Header: Depth=1
	cmpl	$20, -4(%rbp)
	jge	.LBB23_11
# %bb.9:                                # %for.body
                                        #   in Loop: Header=BB23_8 Depth=1
	movslq	-4(%rbp), %rax
	vxorps	%xmm0, %xmm0, %xmm0
	vmovsd	%xmm0, Pm_rgQp(,%rax,8)
	movslq	-4(%rbp), %rax
	vmovsd	%xmm0, Pm_rgRp(,%rax,8)
	movslq	-4(%rbp), %rax
	vmovsd	%xmm0, PPictureMAD(,%rax,8)
# %bb.10:                               # %for.inc
                                        #   in Loop: Header=BB23_8 Depth=1
	movl	-4(%rbp), %eax
	addl	$1, %eax
	movl	%eax, -4(%rbp)
	jmp	.LBB23_8
.LBB23_11:                              # %for.end
	vxorps	%xmm0, %xmm0, %xmm0
	vmovsd	%xmm0, PPictureMAD+160
	movl	$2, PDuantQp
	movl	$0, PAveHeaderBits1
	movl	$0, PAveHeaderBits3
	cmpl	$9, TotalNumberofBasicUnit
	jl	.LBB23_13
# %bb.12:                               # %if.then36
	movl	$1, DDquant
	jmp	.LBB23_14
.LBB23_13:                              # %if.else37
	movl	$2, DDquant
.LBB23_14:                              # %if.end38
	vmovsd	.LCPI23_6(%rip), %xmm0  # xmm0 = mem[0],zero
	movq	img, %rax
	movl	52(%rax), %eax
	cltd
	movl	$16, %ecx
	idivl	%ecx
	movl	%eax, MBPerRow
	movq	img, %rax
	movl	$0, 72600(%rax)
	movl	$51, RC_MAX_QUANT
	movl	$0, RC_MIN_QUANT
	vmulsd	bit_rate, %xmm0, %xmm0
	vmovsd	frame_rate, %xmm1       # xmm1 = mem[0],zero
	movq	img, %rax
	vcvtsi2sdl	52(%rax), %xmm0, %xmm2
	vmulsd	%xmm2, %xmm1, %xmm1
	movq	img, %rax
	vcvtsi2sdl	60(%rax), %xmm0, %xmm2
	vmulsd	%xmm2, %xmm1, %xmm1
	vdivsd	%xmm1, %xmm0, %xmm0
	vmovsd	%xmm0, -24(%rbp)
	movq	img, %rax
	cmpl	$176, 52(%rax)
	jne	.LBB23_16
# %bb.15:                               # %if.then52
	vmovsd	.LCPI23_9(%rip), %xmm0  # xmm0 = mem[0],zero
	vmovsd	.LCPI23_12(%rip), %xmm1 # xmm1 = mem[0],zero
	vmovsd	.LCPI23_13(%rip), %xmm2 # xmm2 = mem[0],zero
	vmovsd	%xmm2, -16(%rbp)
	vmovsd	%xmm1, -40(%rbp)
	vmovsd	%xmm0, -32(%rbp)
	jmp	.LBB23_20
.LBB23_16:                              # %if.else53
	movq	img, %rax
	cmpl	$352, 52(%rax)          # imm = 0x160
	jne	.LBB23_18
# %bb.17:                               # %if.then57
	vmovsd	.LCPI23_10(%rip), %xmm0 # xmm0 = mem[0],zero
	vmovsd	.LCPI23_9(%rip), %xmm1  # xmm1 = mem[0],zero
	vmovsd	.LCPI23_11(%rip), %xmm2 # xmm2 = mem[0],zero
	vmovsd	%xmm2, -16(%rbp)
	vmovsd	%xmm1, -40(%rbp)
	vmovsd	%xmm0, -32(%rbp)
	jmp	.LBB23_19
.LBB23_18:                              # %if.else58
	vmovsd	.LCPI23_7(%rip), %xmm0  # xmm0 = mem[0],zero
	vmovsd	.LCPI23_8(%rip), %xmm1  # xmm1 = mem[0],zero
	vmovsd	.LCPI23_9(%rip), %xmm2  # xmm2 = mem[0],zero
	vmovsd	%xmm2, -16(%rbp)
	vmovsd	%xmm1, -40(%rbp)
	vmovsd	%xmm0, -32(%rbp)
.LBB23_19:                              # %if.end59
	jmp	.LBB23_20
.LBB23_20:                              # %if.end60
	movq	input, %rax
	cmpl	$0, 3244(%rax)
	jne	.LBB23_31
# %bb.21:                               # %if.then63
	vmovsd	-24(%rbp), %xmm0        # xmm0 = mem[0],zero
	vmovsd	-16(%rbp), %xmm1        # xmm1 = mem[0],zero
	vucomisd	%xmm0, %xmm1
	jb	.LBB23_23
# %bb.22:                               # %if.then66
	movl	$35, -8(%rbp)
	jmp	.LBB23_30
.LBB23_23:                              # %if.else67
	vmovsd	-24(%rbp), %xmm0        # xmm0 = mem[0],zero
	vmovsd	-40(%rbp), %xmm1        # xmm1 = mem[0],zero
	vucomisd	%xmm0, %xmm1
	jb	.LBB23_25
# %bb.24:                               # %if.then70
	movl	$25, -8(%rbp)
	jmp	.LBB23_29
.LBB23_25:                              # %if.else71
	vmovsd	-24(%rbp), %xmm0        # xmm0 = mem[0],zero
	vmovsd	-32(%rbp), %xmm1        # xmm1 = mem[0],zero
	vucomisd	%xmm0, %xmm1
	jb	.LBB23_27
# %bb.26:                               # %if.then74
	movl	$20, -8(%rbp)
	jmp	.LBB23_28
.LBB23_27:                              # %if.else75
	movl	$10, -8(%rbp)
.LBB23_28:                              # %if.end76
	jmp	.LBB23_29
.LBB23_29:                              # %if.end77
	jmp	.LBB23_30
.LBB23_30:                              # %if.end78
	movl	-8(%rbp), %eax
	movq	input, %rcx
	movl	%eax, 3244(%rcx)
.LBB23_31:                              # %if.end80
	cmpl	$1010315564, -44(%rbp)  # imm = 0x3C38312C
	jne	.LBB23_33
.LBB23_32:
	addq	$48, %rsp
	popq	%rbp
	.cfi_def_cfa %rsp, 8
	retq
.LBB23_33:                              # %func_exit
	.cfi_def_cfa %rbp, 16
	callq	detect_breach
	jmp	.LBB23_32
.Lfunc_end23:
	.size	rc_init_seq.7, .Lfunc_end23-rc_init_seq.7
	.cfi_endproc
                                        # -- End function
	.section	.rodata.cst8,"aM",@progbits,8
	.p2align	3               # -- Begin function updateRCModel.8
.LCPI24_0:
	.quad	4611686018427387904     # double 2
.LCPI24_1:
	.quad	4602678819172646912     # double 0.5
.LCPI24_2:
	.quad	4607182418800017408     # double 1
.LCPI24_3:
	.quad	4626322717216342016     # double 20
	.section	.rodata.cst16,"aM",@progbits,16
	.p2align	4
.LCPI24_4:
	.quad	9223372036854775807     # double NaN
	.quad	9223372036854775807     # double NaN
	.text
	.globl	updateRCModel.8
	.p2align	4, 0x90
	.type	updateRCModel.8,@function
updateRCModel.8:                        # @updateRCModel.8
	.cfi_startproc
# %bb.0:                                # %entry
	pushq	%rbp
	.cfi_def_cfa_offset 16
	.cfi_offset %rbp, -16
	movq	%rsp, %rbp
	.cfi_def_cfa_register %rbp
	subq	$208, %rsp
	movl	$1948972670, -28(%rbp)  # imm = 0x742AF67E
	vxorps	%xmm0, %xmm0, %xmm0
	vmovsd	%xmm0, -24(%rbp)
	movl	$0, -16(%rbp)
	movq	img, %rax
	cmpl	$0, 24(%rax)
	jne	.LBB24_68
# %bb.1:                                # %if.then
	movq	img, %rax
	movl	72620(%rax), %eax
	movq	img, %rcx
	cmpl	72608(%rcx), %eax
	jne	.LBB24_3
# %bb.2:                                # %if.then2
	callq	ComputeFrameMAD
	vmovsd	%xmm0, CurrentFrameMAD
	movq	img, %rax
	movl	72564(%rax), %eax
	movl	%eax, -12(%rbp)
	jmp	.LBB24_21
.LBB24_3:                               # %if.else
	movq	input, %rax
	cmpl	$0, 2884(%rax)
	je	.LBB24_6
# %bb.4:                                # %land.lhs.true
	movq	img, %rax
	cmpl	$0, 72600(%rax)
	jne	.LBB24_6
# %bb.5:                                # %if.then4
	vmovsd	.LCPI24_0(%rip), %xmm0  # xmm0 = mem[0],zero
	movq	img, %rax
	vmovsd	72544(%rax), %xmm1      # xmm1 = mem[0],zero
	movq	img, %rax
	vcvtsi2sdl	72620(%rax), %xmm0, %xmm2
	vdivsd	%xmm2, %xmm1, %xmm1
	vdivsd	%xmm0, %xmm1, %xmm0
	vmovsd	%xmm0, CurrentFrameMAD
	jmp	.LBB24_7
.LBB24_6:                               # %if.else7
	movq	img, %rax
	vmovsd	72544(%rax), %xmm0      # xmm0 = mem[0],zero
	movq	img, %rax
	vcvtsi2sdl	72620(%rax), %xmm0, %xmm1
	vdivsd	%xmm1, %xmm0, %xmm0
	vmovsd	%xmm0, CurrentFrameMAD
.LBB24_7:                               # %if.end
	movq	img, %rax
	vxorps	%xmm0, %xmm0, %xmm0
	vmovsd	%xmm0, 72544(%rax)
	movl	TotalNumberofBasicUnit, %eax
	subl	NumberofBasicUnit, %eax
	movl	%eax, CodedBasicUnit
	cmpl	$0, CodedBasicUnit
	jle	.LBB24_12
# %bb.8:                                # %if.then15
	vmovsd	.LCPI24_1(%rip), %xmm0  # xmm0 = mem[0],zero
	vmovsd	.LCPI24_2(%rip), %xmm1  # xmm1 = mem[0],zero
	movl	PAveHeaderBits1, %eax
	movl	CodedBasicUnit, %ecx
	subl	$1, %ecx
	imull	%ecx, %eax
	movq	img, %rcx
	addl	72532(%rcx), %eax
	vcvtsi2sd	%eax, %xmm0, %xmm2
	vmulsd	%xmm2, %xmm1, %xmm1
	vcvtsi2sdl	CodedBasicUnit, %xmm0, %xmm2
	vdivsd	%xmm2, %xmm1, %xmm1
	vaddsd	%xmm0, %xmm1, %xmm0
	vcvttsd2si	%xmm0, %eax
	movl	%eax, PAveHeaderBits1
	cmpl	$0, PAveHeaderBits3
	jne	.LBB24_10
# %bb.9:                                # %if.then25
	movl	PAveHeaderBits1, %eax
	movl	%eax, PAveHeaderBits2
	jmp	.LBB24_11
.LBB24_10:                              # %if.else26
	vmovsd	.LCPI24_1(%rip), %xmm0  # xmm0 = mem[0],zero
	vmovsd	.LCPI24_2(%rip), %xmm1  # xmm1 = mem[0],zero
	movl	PAveHeaderBits1, %eax
	imull	CodedBasicUnit, %eax
	movl	PAveHeaderBits3, %ecx
	imull	NumberofBasicUnit, %ecx
	addl	%ecx, %eax
	vcvtsi2sd	%eax, %xmm0, %xmm2
	vmulsd	%xmm2, %xmm1, %xmm1
	vcvtsi2sdl	TotalNumberofBasicUnit, %xmm0, %xmm2
	vdivsd	%xmm2, %xmm1, %xmm1
	vaddsd	%xmm0, %xmm1, %xmm0
	vcvttsd2si	%xmm0, %eax
	movl	%eax, PAveHeaderBits2
.LBB24_11:                              # %if.end36
	jmp	.LBB24_12
.LBB24_12:                              # %if.end37
	movq	input, %rax
	cmpl	$2, 2880(%rax)
	je	.LBB24_14
# %bb.13:                               # %lor.lhs.false
	movq	input, %rax
	cmpl	$0, 2884(%rax)
	je	.LBB24_16
.LBB24_14:                              # %land.lhs.true42
	movq	img, %rax
	cmpl	$1, 72600(%rax)
	jne	.LBB24_16
# %bb.15:                               # %if.then46
	vmovsd	CurrentFrameMAD, %xmm0  # xmm0 = mem[0],zero
	movq	FCBUCFMAD, %rax
	movl	TotalNumberofBasicUnit, %ecx
	subl	$1, %ecx
	subl	NumberofBasicUnit, %ecx
	movslq	%ecx, %rcx
	vmovsd	%xmm0, (%rax,%rcx,8)
	jmp	.LBB24_17
.LBB24_16:                              # %if.else49
	vmovsd	CurrentFrameMAD, %xmm0  # xmm0 = mem[0],zero
	movq	BUCFMAD, %rax
	movl	TotalNumberofBasicUnit, %ecx
	subl	$1, %ecx
	subl	NumberofBasicUnit, %ecx
	movslq	%ecx, %rcx
	vmovsd	%xmm0, (%rax,%rcx,8)
.LBB24_17:                              # %if.end54
	cmpl	$0, NumberofBasicUnit
	je	.LBB24_19
# %bb.18:                               # %if.then57
	movq	img, %rax
	movl	72564(%rax), %eax
	imull	TotalNumberofBasicUnit, %eax
	addl	CodedBasicUnit, %eax
	movl	%eax, -12(%rbp)
	jmp	.LBB24_20
.LBB24_19:                              # %if.else61
	movq	img, %rax
	movl	72564(%rax), %eax
	subl	$1, %eax
	imull	TotalNumberofBasicUnit, %eax
	addl	CodedBasicUnit, %eax
	movl	%eax, -12(%rbp)
.LBB24_20:                              # %if.end66
	jmp	.LBB24_21
.LBB24_21:                              # %if.end67
	cmpl	$1, -12(%rbp)
	jle	.LBB24_23
# %bb.22:                               # %if.then70
	movl	$1, -16(%rbp)
.LBB24_23:                              # %if.end71
	movq	img, %rax
	movl	72524(%rax), %eax
	movl	%eax, PPreHeader
	movl	$19, -4(%rbp)
.LBB24_24:                              # %for.cond
                                        # =>This Inner Loop Header: Depth=1
	cmpl	$0, -4(%rbp)
	jle	.LBB24_27
# %bb.25:                               # %for.body
                                        #   in Loop: Header=BB24_24 Depth=1
	movl	-4(%rbp), %eax
	subl	$1, %eax
	cltq
	vmovsd	Pm_rgQp(,%rax,8), %xmm0 # xmm0 = mem[0],zero
	movslq	-4(%rbp), %rax
	vmovsd	%xmm0, Pm_rgQp(,%rax,8)
	movslq	-4(%rbp), %rax
	vmovsd	Pm_rgQp(,%rax,8), %xmm0 # xmm0 = mem[0],zero
	movslq	-4(%rbp), %rax
	vmovsd	%xmm0, m_rgQp(,%rax,8)
	movl	-4(%rbp), %eax
	subl	$1, %eax
	cltq
	vmovsd	Pm_rgRp(,%rax,8), %xmm0 # xmm0 = mem[0],zero
	movslq	-4(%rbp), %rax
	vmovsd	%xmm0, Pm_rgRp(,%rax,8)
	movslq	-4(%rbp), %rax
	vmovsd	Pm_rgRp(,%rax,8), %xmm0 # xmm0 = mem[0],zero
	movslq	-4(%rbp), %rax
	vmovsd	%xmm0, m_rgRp(,%rax,8)
# %bb.26:                               # %for.inc
                                        #   in Loop: Header=BB24_24 Depth=1
	movl	-4(%rbp), %eax
	addl	$-1, %eax
	movl	%eax, -4(%rbp)
	jmp	.LBB24_24
.LBB24_27:                              # %for.end
	movl	m_Qc, %edi
	callq	QP2Qstep
	vmovsd	%xmm0, Pm_rgQp
	movq	img, %rax
	movl	72620(%rax), %eax
	movq	img, %rcx
	cmpl	72608(%rcx), %eax
	jne	.LBB24_29
# %bb.28:                               # %if.then97
	vmovsd	.LCPI24_2(%rip), %xmm0  # xmm0 = mem[0],zero
	movq	img, %rax
	vcvtsi2sdl	72528(%rax), %xmm0, %xmm1
	vmulsd	%xmm0, %xmm1, %xmm0
	vdivsd	CurrentFrameMAD, %xmm0, %xmm0
	vmovsd	%xmm0, Pm_rgRp
	jmp	.LBB24_30
.LBB24_29:                              # %if.else101
	vmovsd	.LCPI24_2(%rip), %xmm0  # xmm0 = mem[0],zero
	movq	img, %rax
	vcvtsi2sdl	72536(%rax), %xmm0, %xmm1
	vmulsd	%xmm0, %xmm1, %xmm0
	vdivsd	CurrentFrameMAD, %xmm0, %xmm0
	vmovsd	%xmm0, Pm_rgRp
.LBB24_30:                              # %if.end105
	vmovsd	Pm_rgQp, %xmm0          # xmm0 = mem[0],zero
	vmovsd	%xmm0, m_rgQp
	vmovsd	Pm_rgRp, %xmm0          # xmm0 = mem[0],zero
	vmovsd	%xmm0, m_rgRp
	vmovsd	Pm_X1, %xmm0            # xmm0 = mem[0],zero
	vmovsd	%xmm0, m_X1
	vmovsd	Pm_X2, %xmm0            # xmm0 = mem[0],zero
	vmovsd	%xmm0, m_X2
	vmovsd	CurrentFrameMAD, %xmm0  # xmm0 = mem[0],zero
	vucomisd	PreviousFrameMAD, %xmm0
	jbe	.LBB24_32
# %bb.31:                               # %cond.true
	vmovsd	.LCPI24_3(%rip), %xmm0  # xmm0 = mem[0],zero
	vmovsd	PreviousFrameMAD, %xmm1 # xmm1 = mem[0],zero
	vdivsd	CurrentFrameMAD, %xmm1, %xmm1
	vmulsd	%xmm0, %xmm1, %xmm0
	vcvttsd2si	%xmm0, %eax
	jmp	.LBB24_33
.LBB24_32:                              # %cond.false
	vmovsd	.LCPI24_3(%rip), %xmm0  # xmm0 = mem[0],zero
	vmovsd	CurrentFrameMAD, %xmm1  # xmm1 = mem[0],zero
	vdivsd	PreviousFrameMAD, %xmm1, %xmm1
	vmulsd	%xmm0, %xmm1, %xmm0
	vcvttsd2si	%xmm0, %eax
.LBB24_33:                              # %cond.end
	movl	%eax, -8(%rbp)
	cmpl	$1, -8(%rbp)
	jge	.LBB24_35
# %bb.34:                               # %cond.true116
	movl	$1, %eax
	jmp	.LBB24_36
.LBB24_35:                              # %cond.false117
	movl	-8(%rbp), %eax
.LBB24_36:                              # %cond.end118
	movl	%eax, -8(%rbp)
	movl	-8(%rbp), %eax
	cmpl	-12(%rbp), %eax
	jge	.LBB24_38
# %bb.37:                               # %cond.true122
	movl	-8(%rbp), %eax
	jmp	.LBB24_39
.LBB24_38:                              # %cond.false123
	movl	-12(%rbp), %eax
.LBB24_39:                              # %cond.end124
	movl	%eax, -8(%rbp)
	movl	-8(%rbp), %eax
	movl	m_windowSize, %ecx
	addl	$1, %ecx
	cmpl	%ecx, %eax
	jge	.LBB24_41
# %bb.40:                               # %cond.true129
	movl	-8(%rbp), %eax
	jmp	.LBB24_42
.LBB24_41:                              # %cond.false130
	movl	m_windowSize, %eax
	addl	$1, %eax
.LBB24_42:                              # %cond.end132
	movl	%eax, -8(%rbp)
	cmpl	$20, -8(%rbp)
	jge	.LBB24_44
# %bb.43:                               # %cond.true136
	movl	-8(%rbp), %eax
	jmp	.LBB24_45
.LBB24_44:                              # %cond.false137
	movl	$20, %eax
	jmp	.LBB24_45
.LBB24_45:                              # %cond.end138
	movl	%eax, -8(%rbp)
	movl	-8(%rbp), %eax
	movl	%eax, m_windowSize
	movl	$0, -4(%rbp)
.LBB24_46:                              # %for.cond140
                                        # =>This Inner Loop Header: Depth=1
	cmpl	$20, -4(%rbp)
	jge	.LBB24_49
# %bb.47:                               # %for.body143
                                        #   in Loop: Header=BB24_46 Depth=1
	movslq	-4(%rbp), %rax
	movl	$0, m_rgRejected(,%rax,4)
# %bb.48:                               # %for.inc146
                                        #   in Loop: Header=BB24_46 Depth=1
	movl	-4(%rbp), %eax
	addl	$1, %eax
	movl	%eax, -4(%rbp)
	jmp	.LBB24_46
.LBB24_49:                              # %for.end147
	movl	-8(%rbp), %edi
	callq	RCModelEstimator
	movl	m_windowSize, %eax
	movl	%eax, -8(%rbp)
	movl	$0, -4(%rbp)
.LBB24_50:                              # %for.cond148
                                        # =>This Inner Loop Header: Depth=1
	movl	-4(%rbp), %eax
	cmpl	-8(%rbp), %eax
	jge	.LBB24_53
# %bb.51:                               # %for.body151
                                        #   in Loop: Header=BB24_50 Depth=1
	vmovsd	m_X1, %xmm0             # xmm0 = mem[0],zero
	movslq	-4(%rbp), %rax
	vdivsd	m_rgQp(,%rax,8), %xmm0, %xmm0
	vmovsd	m_X2, %xmm1             # xmm1 = mem[0],zero
	movslq	-4(%rbp), %rax
	vmovsd	m_rgQp(,%rax,8), %xmm2  # xmm2 = mem[0],zero
	movslq	-4(%rbp), %rax
	vmulsd	m_rgQp(,%rax,8), %xmm2, %xmm2
	vdivsd	%xmm2, %xmm1, %xmm1
	vaddsd	%xmm1, %xmm0, %xmm0
	movslq	-4(%rbp), %rax
	vsubsd	m_rgRp(,%rax,8), %xmm0, %xmm0
	movslq	-4(%rbp), %rax
	vmovsd	%xmm0, -208(%rbp,%rax,8)
	movslq	-4(%rbp), %rax
	vmovsd	-208(%rbp,%rax,8), %xmm0 # xmm0 = mem[0],zero
	movslq	-4(%rbp), %rax
	vmulsd	-208(%rbp,%rax,8), %xmm0, %xmm0
	vaddsd	-24(%rbp), %xmm0, %xmm0
	vmovsd	%xmm0, -24(%rbp)
# %bb.52:                               # %for.inc173
                                        #   in Loop: Header=BB24_50 Depth=1
	movl	-4(%rbp), %eax
	addl	$1, %eax
	movl	%eax, -4(%rbp)
	jmp	.LBB24_50
.LBB24_53:                              # %for.end175
	cmpl	$2, -8(%rbp)
	jne	.LBB24_55
# %bb.54:                               # %cond.true178
	vxorps	%xmm0, %xmm0, %xmm0
	jmp	.LBB24_56
.LBB24_55:                              # %cond.false179
	vmovsd	-24(%rbp), %xmm0        # xmm0 = mem[0],zero
	vcvtsi2sdl	-8(%rbp), %xmm0, %xmm1
	vdivsd	%xmm1, %xmm0, %xmm0
	callq	sqrt
.LBB24_56:                              # %cond.end183
	vmovsd	%xmm0, -40(%rbp)
	movl	$0, -4(%rbp)
.LBB24_57:                              # %for.cond185
                                        # =>This Inner Loop Header: Depth=1
	movl	-4(%rbp), %eax
	cmpl	-8(%rbp), %eax
	jge	.LBB24_62
# %bb.58:                               # %for.body188
                                        #   in Loop: Header=BB24_57 Depth=1
	movslq	-4(%rbp), %rax
	vmovsd	-208(%rbp,%rax,8), %xmm0 # xmm0 = mem[0],zero
	vmovdqa	.LCPI24_4(%rip), %xmm1  # xmm1 = [NaN,NaN]
	vpand	%xmm1, %xmm0, %xmm0
	vucomisd	-40(%rbp), %xmm0
	jbe	.LBB24_60
# %bb.59:                               # %if.then193
                                        #   in Loop: Header=BB24_57 Depth=1
	movslq	-4(%rbp), %rax
	movl	$1, m_rgRejected(,%rax,4)
.LBB24_60:                              # %if.end196
                                        #   in Loop: Header=BB24_57 Depth=1
	jmp	.LBB24_61
.LBB24_61:                              # %for.inc197
                                        #   in Loop: Header=BB24_57 Depth=1
	movl	-4(%rbp), %eax
	addl	$1, %eax
	movl	%eax, -4(%rbp)
	jmp	.LBB24_57
.LBB24_62:                              # %for.end199
	movl	$0, m_rgRejected
	movl	-8(%rbp), %edi
	callq	RCModelEstimator
	cmpl	$0, -16(%rbp)
	je	.LBB24_64
# %bb.63:                               # %if.then201
	callq	updateMADModel
	jmp	.LBB24_67
.LBB24_64:                              # %if.else202
	movq	img, %rax
	cmpl	$0, 24(%rax)
	jne	.LBB24_66
# %bb.65:                               # %if.then206
	vmovsd	CurrentFrameMAD, %xmm0  # xmm0 = mem[0],zero
	vmovsd	%xmm0, PPictureMAD
.LBB24_66:                              # %if.end207
	jmp	.LBB24_67
.LBB24_67:                              # %if.end208
	jmp	.LBB24_68
.LBB24_68:                              # %if.end209
	cmpl	$1948972670, -28(%rbp)  # imm = 0x742AF67E
	jne	.LBB24_70
.LBB24_69:
	addq	$208, %rsp
	popq	%rbp
	.cfi_def_cfa %rsp, 8
	retq
.LBB24_70:                              # %func_exit
	.cfi_def_cfa %rbp, 16
	callq	detect_breach
	jmp	.LBB24_69
.Lfunc_end24:
	.size	updateRCModel.8, .Lfunc_end24-updateRCModel.8
	.cfi_endproc
                                        # -- End function
	.section	.rodata.cst8,"aM",@progbits,8
	.p2align	3               # -- Begin function MADModelEstimator.9
.LCPI25_0:
	.quad	4517329193108106637     # double 9.9999999999999995E-7
.LCPI25_2:
	.quad	4607182418800017408     # double 1
	.section	.rodata.cst16,"aM",@progbits,16
	.p2align	4
.LCPI25_1:
	.quad	9223372036854775807     # double NaN
	.quad	9223372036854775807     # double NaN
	.text
	.globl	MADModelEstimator.9
	.p2align	4, 0x90
	.type	MADModelEstimator.9,@function
MADModelEstimator.9:                    # @MADModelEstimator.9
	.cfi_startproc
# %bb.0:                                # %entry
	pushq	%rbp
	.cfi_def_cfa_offset 16
	.cfi_offset %rbp, -16
	movq	%rsp, %rbp
	.cfi_def_cfa_register %rbp
	subq	$96, %rsp
	movl	$676417655, -84(%rbp)   # imm = 0x28515077
	movl	%edi, -8(%rbp)
	movl	-8(%rbp), %eax
	movl	%eax, -12(%rbp)
	vxorps	%xmm0, %xmm0, %xmm0
	vmovsd	%xmm0, -56(%rbp)
	vmovsd	%xmm0, -24(%rbp)
	vmovsd	%xmm0, -80(%rbp)
	vmovsd	%xmm0, -64(%rbp)
	vmovsd	%xmm0, -32(%rbp)
	vmovsd	%xmm0, -48(%rbp)
	movl	$0, -36(%rbp)
	movl	$0, -4(%rbp)
.LBB25_1:                               # %for.cond
                                        # =>This Inner Loop Header: Depth=1
	movl	-4(%rbp), %eax
	cmpl	-8(%rbp), %eax
	jge	.LBB25_6
# %bb.2:                                # %for.body
                                        #   in Loop: Header=BB25_1 Depth=1
	movslq	-4(%rbp), %rax
	cmpl	$0, PictureRejected(,%rax,4)
	je	.LBB25_4
# %bb.3:                                # %if.then
                                        #   in Loop: Header=BB25_1 Depth=1
	movl	-12(%rbp), %eax
	addl	$-1, %eax
	movl	%eax, -12(%rbp)
.LBB25_4:                               # %if.end
                                        #   in Loop: Header=BB25_1 Depth=1
	jmp	.LBB25_5
.LBB25_5:                               # %for.inc
                                        #   in Loop: Header=BB25_1 Depth=1
	movl	-4(%rbp), %eax
	addl	$1, %eax
	movl	%eax, -4(%rbp)
	jmp	.LBB25_1
.LBB25_6:                               # %for.end
	vxorps	%xmm0, %xmm0, %xmm0
	vmovsd	%xmm0, MADPictureC2
	vmovsd	%xmm0, MADPictureC1
	movl	$0, -4(%rbp)
.LBB25_7:                               # %for.cond1
                                        # =>This Inner Loop Header: Depth=1
	movl	-4(%rbp), %eax
	cmpl	-8(%rbp), %eax
	jge	.LBB25_12
# %bb.8:                                # %for.body3
                                        #   in Loop: Header=BB25_7 Depth=1
	movslq	-4(%rbp), %rax
	cmpl	$0, PictureRejected(,%rax,4)
	jne	.LBB25_10
# %bb.9:                                # %if.then7
                                        #   in Loop: Header=BB25_7 Depth=1
	movslq	-4(%rbp), %rax
	vmovsd	PictureMAD(,%rax,8), %xmm0 # xmm0 = mem[0],zero
	vmovsd	%xmm0, -96(%rbp)
.LBB25_10:                              # %if.end10
                                        #   in Loop: Header=BB25_7 Depth=1
	jmp	.LBB25_11
.LBB25_11:                              # %for.inc11
                                        #   in Loop: Header=BB25_7 Depth=1
	movl	-4(%rbp), %eax
	addl	$1, %eax
	movl	%eax, -4(%rbp)
	jmp	.LBB25_7
.LBB25_12:                              # %for.end13
	movl	$0, -4(%rbp)
.LBB25_13:                              # %for.cond14
                                        # =>This Inner Loop Header: Depth=1
	movl	-4(%rbp), %eax
	cmpl	-8(%rbp), %eax
	jge	.LBB25_21
# %bb.14:                               # %for.body16
                                        #   in Loop: Header=BB25_13 Depth=1
	movslq	-4(%rbp), %rax
	vmovsd	PictureMAD(,%rax,8), %xmm0 # xmm0 = mem[0],zero
	vucomisd	-96(%rbp), %xmm0
	jne	.LBB25_15
	jp	.LBB25_15
	jmp	.LBB25_17
.LBB25_15:                              # %land.lhs.true
                                        #   in Loop: Header=BB25_13 Depth=1
	movslq	-4(%rbp), %rax
	cmpl	$0, PictureRejected(,%rax,4)
	jne	.LBB25_17
# %bb.16:                               # %if.then23
                                        #   in Loop: Header=BB25_13 Depth=1
	movl	$1, -36(%rbp)
.LBB25_17:                              # %if.end24
                                        #   in Loop: Header=BB25_13 Depth=1
	movslq	-4(%rbp), %rax
	cmpl	$0, PictureRejected(,%rax,4)
	jne	.LBB25_19
# %bb.18:                               # %if.then28
                                        #   in Loop: Header=BB25_13 Depth=1
	movslq	-4(%rbp), %rax
	vmovsd	PictureMAD(,%rax,8), %xmm0 # xmm0 = mem[0],zero
	movslq	-4(%rbp), %rax
	vmovsd	ReferenceMAD(,%rax,8), %xmm1 # xmm1 = mem[0],zero
	vcvtsi2sdl	-12(%rbp), %xmm0, %xmm2
	vmulsd	%xmm2, %xmm1, %xmm1
	vdivsd	%xmm1, %xmm0, %xmm0
	vaddsd	MADPictureC1, %xmm0, %xmm0
	vmovsd	%xmm0, MADPictureC1
.LBB25_19:                              # %if.end33
                                        #   in Loop: Header=BB25_13 Depth=1
	jmp	.LBB25_20
.LBB25_20:                              # %for.inc34
                                        #   in Loop: Header=BB25_13 Depth=1
	movl	-4(%rbp), %eax
	addl	$1, %eax
	movl	%eax, -4(%rbp)
	jmp	.LBB25_13
.LBB25_21:                              # %for.end36
	cmpl	$1, -12(%rbp)
	jl	.LBB25_33
# %bb.22:                               # %land.lhs.true39
	cmpl	$0, -36(%rbp)
	je	.LBB25_33
# %bb.23:                               # %if.then41
	movl	$0, -4(%rbp)
.LBB25_24:                              # %for.cond42
                                        # =>This Inner Loop Header: Depth=1
	movl	-4(%rbp), %eax
	cmpl	-8(%rbp), %eax
	jge	.LBB25_29
# %bb.25:                               # %for.body45
                                        #   in Loop: Header=BB25_24 Depth=1
	movslq	-4(%rbp), %rax
	cmpl	$0, PictureRejected(,%rax,4)
	jne	.LBB25_27
# %bb.26:                               # %if.then49
                                        #   in Loop: Header=BB25_24 Depth=1
	vmovsd	.LCPI25_2(%rip), %xmm0  # xmm0 = mem[0],zero
	vaddsd	-56(%rbp), %xmm0, %xmm0
	vmovsd	%xmm0, -56(%rbp)
	movslq	-4(%rbp), %rax
	vmovsd	ReferenceMAD(,%rax,8), %xmm0 # xmm0 = mem[0],zero
	vaddsd	-24(%rbp), %xmm0, %xmm0
	vmovsd	%xmm0, -24(%rbp)
	vmovsd	-24(%rbp), %xmm0        # xmm0 = mem[0],zero
	vmovsd	%xmm0, -80(%rbp)
	movslq	-4(%rbp), %rax
	vmovsd	ReferenceMAD(,%rax,8), %xmm0 # xmm0 = mem[0],zero
	movslq	-4(%rbp), %rax
	vmulsd	ReferenceMAD(,%rax,8), %xmm0, %xmm0
	vaddsd	-64(%rbp), %xmm0, %xmm0
	vmovsd	%xmm0, -64(%rbp)
	movslq	-4(%rbp), %rax
	vmovsd	PictureMAD(,%rax,8), %xmm0 # xmm0 = mem[0],zero
	vaddsd	-32(%rbp), %xmm0, %xmm0
	vmovsd	%xmm0, -32(%rbp)
	movslq	-4(%rbp), %rax
	vmovsd	PictureMAD(,%rax,8), %xmm0 # xmm0 = mem[0],zero
	movslq	-4(%rbp), %rax
	vmulsd	ReferenceMAD(,%rax,8), %xmm0, %xmm0
	vaddsd	-48(%rbp), %xmm0, %xmm0
	vmovsd	%xmm0, -48(%rbp)
.LBB25_27:                              # %if.end69
                                        #   in Loop: Header=BB25_24 Depth=1
	jmp	.LBB25_28
.LBB25_28:                              # %for.inc70
                                        #   in Loop: Header=BB25_24 Depth=1
	movl	-4(%rbp), %eax
	addl	$1, %eax
	movl	%eax, -4(%rbp)
	jmp	.LBB25_24
.LBB25_29:                              # %for.end72
	vmovsd	.LCPI25_0(%rip), %xmm0  # xmm0 = mem[0],zero
	vmovsd	-56(%rbp), %xmm1        # xmm1 = mem[0],zero
	vmulsd	-64(%rbp), %xmm1, %xmm1
	vmovsd	-24(%rbp), %xmm2        # xmm2 = mem[0],zero
	vmulsd	-80(%rbp), %xmm2, %xmm2
	vsubsd	%xmm2, %xmm1, %xmm1
	vmovsd	%xmm1, -72(%rbp)
	vmovsd	-72(%rbp), %xmm1        # xmm1 = mem[0],zero
	vmovdqa	.LCPI25_1(%rip), %xmm2  # xmm2 = [NaN,NaN]
	vpand	%xmm2, %xmm1, %xmm1
	vucomisd	%xmm0, %xmm1
	jbe	.LBB25_31
# %bb.30:                               # %if.then77
	vmovsd	-32(%rbp), %xmm0        # xmm0 = mem[0],zero
	vmulsd	-64(%rbp), %xmm0, %xmm0
	vmovsd	-48(%rbp), %xmm1        # xmm1 = mem[0],zero
	vmulsd	-24(%rbp), %xmm1, %xmm1
	vsubsd	%xmm1, %xmm0, %xmm0
	vdivsd	-72(%rbp), %xmm0, %xmm0
	vmovsd	%xmm0, MADPictureC2
	vmovsd	-48(%rbp), %xmm0        # xmm0 = mem[0],zero
	vmulsd	-56(%rbp), %xmm0, %xmm0
	vmovsd	-32(%rbp), %xmm1        # xmm1 = mem[0],zero
	vmulsd	-80(%rbp), %xmm1, %xmm1
	vsubsd	%xmm1, %xmm0, %xmm0
	vdivsd	-72(%rbp), %xmm0, %xmm0
	vmovsd	%xmm0, MADPictureC1
	jmp	.LBB25_32
.LBB25_31:                              # %if.else
	vmovsd	-32(%rbp), %xmm0        # xmm0 = mem[0],zero
	vdivsd	-24(%rbp), %xmm0, %xmm0
	vmovsd	%xmm0, MADPictureC1
	vxorps	%xmm0, %xmm0, %xmm0
	vmovsd	%xmm0, MADPictureC2
.LBB25_32:                              # %if.end87
	jmp	.LBB25_33
.LBB25_33:                              # %if.end88
	movq	img, %rax
	cmpl	$0, 24(%rax)
	jne	.LBB25_35
# %bb.34:                               # %if.then91
	vmovsd	MADPictureC1, %xmm0     # xmm0 = mem[0],zero
	vmovsd	%xmm0, PMADPictureC1
	vmovsd	MADPictureC2, %xmm0     # xmm0 = mem[0],zero
	vmovsd	%xmm0, PMADPictureC2
.LBB25_35:                              # %if.end92
	cmpl	$676417655, -84(%rbp)   # imm = 0x28515077
	jne	.LBB25_37
.LBB25_36:
	addq	$96, %rsp
	popq	%rbp
	.cfi_def_cfa %rsp, 8
	retq
.LBB25_37:                              # %func_exit
	.cfi_def_cfa %rbp, 16
	callq	detect_breach
	jmp	.LBB25_36
.Lfunc_end25:
	.size	MADModelEstimator.9, .Lfunc_end25-MADModelEstimator.9
	.cfi_endproc
                                        # -- End function
	.section	.rodata.cst8,"aM",@progbits,8
	.p2align	3               # -- Begin function updateQuantizationParameter.10
.LCPI26_0:
	.quad	4616189618054758400     # double 4
.LCPI26_1:
	.quad	4611686018427387904     # double 2
.LCPI26_2:
	.quad	4602678819172646912     # double 0.5
.LCPI26_3:
	.quad	4607182418800017408     # double 1
	.text
	.globl	updateQuantizationParameter.10
	.p2align	4, 0x90
	.type	updateQuantizationParameter.10,@function
updateQuantizationParameter.10:         # @updateQuantizationParameter.10
	.cfi_startproc
# %bb.0:                                # %entry
	pushq	%rbp
	.cfi_def_cfa_offset 16
	.cfi_offset %rbp, -16
	movq	%rsp, %rbp
	.cfi_def_cfa_register %rbp
	pushq	%rbx
	subq	$72, %rsp
	.cfi_offset %rbx, -24
	movl	$1260488988, -56(%rbp)  # imm = 0x4B21891C
	movl	%edi, -36(%rbp)
	movq	img, %rax
	movl	72620(%rax), %eax
	movq	img, %rcx
	cmpl	72608(%rcx), %eax
	jne	.LBB26_123
# %bb.1:                                # %if.then
	cmpl	$0, -36(%rbp)
	jne	.LBB26_3
# %bb.2:                                # %lor.lhs.false
	movq	img, %rax
	cmpl	$0, 72600(%rax)
	jne	.LBB26_116
.LBB26_3:                               # %if.then2
	movq	img, %rax
	cmpl	$2, 24(%rax)
	jne	.LBB26_5
# %bb.4:                                # %if.then4
	movl	MyInitialQp, %eax
	movl	%eax, m_Qc
	movl	m_Qc, %eax
	movl	%eax, -20(%rbp)
	jmp	.LBB26_363
.LBB26_5:                               # %if.else
	movq	img, %rax
	cmpl	$1, 24(%rax)
	jne	.LBB26_69
# %bb.6:                                # %if.then7
	movq	input, %rax
	cmpl	$1, 1236(%rax)
	jne	.LBB26_25
# %bb.7:                                # %if.then9
	movq	input, %rax
	cmpl	$2, 2880(%rax)
	je	.LBB26_9
# %bb.8:                                # %lor.lhs.false11
	movq	input, %rax
	cmpl	$0, 2884(%rax)
	je	.LBB26_15
.LBB26_9:                               # %if.then13
	movq	img, %rax
	cmpl	$0, 72600(%rax)
	jne	.LBB26_14
# %bb.10:                               # %if.then16
	movq	img, %rax
	cmpl	$1, 72604(%rax)
	jne	.LBB26_12
# %bb.11:                               # %if.then18
	movl	PreviousQp2, %eax
	movl	%eax, PreviousQp1
	movl	FrameQPBuffer, %eax
	movl	%eax, PreviousQp2
	jmp	.LBB26_13
.LBB26_12:                              # %if.else19
	movl	PreviousQp2, %eax
	movl	%eax, PreviousQp1
	movl	FieldQPBuffer, %eax
	movl	%eax, PreviousQp2
.LBB26_13:                              # %if.end
	jmp	.LBB26_14
.LBB26_14:                              # %if.end20
	jmp	.LBB26_15
.LBB26_15:                              # %if.end21
	movl	PreviousQp1, %eax
	cmpl	PreviousQp2, %eax
	jne	.LBB26_17
# %bb.16:                               # %if.then23
	movl	PreviousQp1, %eax
	addl	$2, %eax
	movl	%eax, m_Qc
	jmp	.LBB26_18
.LBB26_17:                              # %if.else24
	movl	PreviousQp1, %eax
	addl	PreviousQp2, %eax
	cltd
	movl	$2, %ecx
	idivl	%ecx
	addl	$1, %eax
	movl	%eax, m_Qc
.LBB26_18:                              # %if.end27
	movl	m_Qc, %eax
	cmpl	RC_MAX_QUANT, %eax
	jge	.LBB26_20
# %bb.19:                               # %cond.true
	movl	m_Qc, %eax
	jmp	.LBB26_21
.LBB26_20:                              # %cond.false
	movl	RC_MAX_QUANT, %eax
.LBB26_21:                              # %cond.end
	movl	%eax, m_Qc
	movl	RC_MIN_QUANT, %eax
	cmpl	m_Qc, %eax
	jge	.LBB26_23
# %bb.22:                               # %cond.true30
	movl	m_Qc, %eax
	jmp	.LBB26_24
.LBB26_23:                              # %cond.false31
	movl	RC_MIN_QUANT, %eax
.LBB26_24:                              # %cond.end32
	movl	%eax, m_Qc
	jmp	.LBB26_68
.LBB26_25:                              # %if.else34
	movl	NumberofBFrames, %eax
	addl	$1, %eax
	movq	input, %rcx
	cltd
	idivl	1236(%rcx)
	movl	%edx, -12(%rbp)
	cmpl	$0, -12(%rbp)
	jne	.LBB26_27
# %bb.26:                               # %if.then38
	movq	input, %rax
	movl	1236(%rax), %eax
	movl	%eax, -12(%rbp)
.LBB26_27:                              # %if.end40
	cmpl	$1, -12(%rbp)
	jne	.LBB26_37
# %bb.28:                               # %if.then42
	movq	input, %rax
	cmpl	$2, 2880(%rax)
	je	.LBB26_30
# %bb.29:                               # %lor.lhs.false45
	movq	input, %rax
	cmpl	$0, 2884(%rax)
	je	.LBB26_36
.LBB26_30:                              # %if.then48
	movq	img, %rax
	cmpl	$0, 72600(%rax)
	jne	.LBB26_35
# %bb.31:                               # %if.then51
	movq	img, %rax
	cmpl	$1, 72604(%rax)
	jne	.LBB26_33
# %bb.32:                               # %if.then54
	movl	PreviousQp2, %eax
	movl	%eax, PreviousQp1
	movl	FrameQPBuffer, %eax
	movl	%eax, PreviousQp2
	jmp	.LBB26_34
.LBB26_33:                              # %if.else55
	movl	PreviousQp2, %eax
	movl	%eax, PreviousQp1
	movl	FieldQPBuffer, %eax
	movl	%eax, PreviousQp2
.LBB26_34:                              # %if.end56
	jmp	.LBB26_35
.LBB26_35:                              # %if.end57
	jmp	.LBB26_36
.LBB26_36:                              # %if.end58
	jmp	.LBB26_37
.LBB26_37:                              # %if.end59
	movl	PreviousQp2, %eax
	subl	PreviousQp1, %eax
	movq	input, %rcx
	imull	$4294967294, 1236(%rcx), %ecx # imm = 0xFFFFFFFE
	subl	$3, %ecx
	cmpl	%ecx, %eax
	jg	.LBB26_39
# %bb.38:                               # %if.then63
	movl	$-3, -28(%rbp)
	jmp	.LBB26_52
.LBB26_39:                              # %if.else64
	movl	PreviousQp2, %eax
	subl	PreviousQp1, %eax
	movq	input, %rcx
	imull	$4294967294, 1236(%rcx), %ecx # imm = 0xFFFFFFFE
	subl	$2, %ecx
	cmpl	%ecx, %eax
	jne	.LBB26_41
# %bb.40:                               # %if.then70
	movl	$-2, -28(%rbp)
	jmp	.LBB26_51
.LBB26_41:                              # %if.else71
	movl	PreviousQp2, %eax
	subl	PreviousQp1, %eax
	movq	input, %rcx
	imull	$4294967294, 1236(%rcx), %ecx # imm = 0xFFFFFFFE
	subl	$1, %ecx
	cmpl	%ecx, %eax
	jne	.LBB26_43
# %bb.42:                               # %if.then77
	movl	$-1, -28(%rbp)
	jmp	.LBB26_50
.LBB26_43:                              # %if.else78
	movl	PreviousQp2, %eax
	subl	PreviousQp1, %eax
	movq	input, %rcx
	imull	$4294967294, 1236(%rcx), %ecx # imm = 0xFFFFFFFE
	cmpl	%ecx, %eax
	jne	.LBB26_45
# %bb.44:                               # %if.then83
	movl	$0, -28(%rbp)
	jmp	.LBB26_49
.LBB26_45:                              # %if.else84
	movl	PreviousQp2, %eax
	subl	PreviousQp1, %eax
	movq	input, %rcx
	imull	$4294967294, 1236(%rcx), %ecx # imm = 0xFFFFFFFE
	addl	$1, %ecx
	cmpl	%ecx, %eax
	jne	.LBB26_47
# %bb.46:                               # %if.then90
	movl	$1, -28(%rbp)
	jmp	.LBB26_48
.LBB26_47:                              # %if.else91
	movl	$2, -28(%rbp)
.LBB26_48:                              # %if.end92
	jmp	.LBB26_49
.LBB26_49:                              # %if.end93
	jmp	.LBB26_50
.LBB26_50:                              # %if.end94
	jmp	.LBB26_51
.LBB26_51:                              # %if.end95
	jmp	.LBB26_52
.LBB26_52:                              # %if.end96
	movl	PreviousQp1, %eax
	addl	-28(%rbp), %eax
	movl	%eax, m_Qc
	movl	-12(%rbp), %ecx
	subl	$1, %ecx
	shll	$1, %ecx
	movl	-12(%rbp), %eax
	subl	$1, %eax
	imull	$4294967294, %eax, %esi # imm = 0xFFFFFFFE
	movl	-12(%rbp), %eax
	subl	$1, %eax
	movl	PreviousQp2, %edx
	subl	PreviousQp1, %edx
	imull	%edx, %eax
	movq	input, %rdx
	movl	1236(%rdx), %edi
	subl	$1, %edi
	cltd
	idivl	%edi
	cmpl	%eax, %esi
	jge	.LBB26_54
# %bb.53:                               # %cond.true109
	movl	-12(%rbp), %eax
	subl	$1, %eax
	movl	PreviousQp2, %edx
	subl	PreviousQp1, %edx
	imull	%edx, %eax
	movq	input, %rdx
	movl	1236(%rdx), %esi
	subl	$1, %esi
	cltd
	idivl	%esi
	jmp	.LBB26_55
.LBB26_54:                              # %cond.false116
	movl	-12(%rbp), %eax
	subl	$1, %eax
	imull	$4294967294, %eax, %eax # imm = 0xFFFFFFFE
.LBB26_55:                              # %cond.end119
	cmpl	%eax, %ecx
	jge	.LBB26_57
# %bb.56:                               # %cond.true122
	movl	-12(%rbp), %eax
	subl	$1, %eax
	shll	$1, %eax
	jmp	.LBB26_61
.LBB26_57:                              # %cond.false125
	movl	-12(%rbp), %eax
	subl	$1, %eax
	imull	$4294967294, %eax, %ecx # imm = 0xFFFFFFFE
	movl	-12(%rbp), %eax
	subl	$1, %eax
	movl	PreviousQp2, %edx
	subl	PreviousQp1, %edx
	imull	%edx, %eax
	movq	input, %rdx
	movl	1236(%rdx), %esi
	subl	$1, %esi
	cltd
	idivl	%esi
	cmpl	%eax, %ecx
	jge	.LBB26_59
# %bb.58:                               # %cond.true135
	movl	-12(%rbp), %eax
	subl	$1, %eax
	movl	PreviousQp2, %ecx
	subl	PreviousQp1, %ecx
	imull	%ecx, %eax
	movq	input, %rcx
	movl	1236(%rcx), %ecx
	subl	$1, %ecx
	cltd
	idivl	%ecx
	jmp	.LBB26_60
.LBB26_59:                              # %cond.false142
	movl	-12(%rbp), %eax
	subl	$1, %eax
	imull	$4294967294, %eax, %eax # imm = 0xFFFFFFFE
.LBB26_60:                              # %cond.end145
.LBB26_61:                              # %cond.end147
	addl	m_Qc, %eax
	movl	%eax, m_Qc
	movl	m_Qc, %eax
	cmpl	RC_MAX_QUANT, %eax
	jge	.LBB26_63
# %bb.62:                               # %cond.true151
	movl	m_Qc, %eax
	jmp	.LBB26_64
.LBB26_63:                              # %cond.false152
	movl	RC_MAX_QUANT, %eax
.LBB26_64:                              # %cond.end153
	movl	%eax, m_Qc
	movl	RC_MIN_QUANT, %eax
	cmpl	m_Qc, %eax
	jge	.LBB26_66
# %bb.65:                               # %cond.true156
	movl	m_Qc, %eax
	jmp	.LBB26_67
.LBB26_66:                              # %cond.false157
	movl	RC_MIN_QUANT, %eax
.LBB26_67:                              # %cond.end158
	movl	%eax, m_Qc
.LBB26_68:                              # %if.end160
	movl	m_Qc, %eax
	movl	%eax, -20(%rbp)
	jmp	.LBB26_363
.LBB26_69:                              # %if.else161
	movq	img, %rax
	cmpl	$0, 24(%rax)
	jne	.LBB26_77
# %bb.70:                               # %land.lhs.true
	movq	img, %rax
	cmpl	$0, 72576(%rax)
	jne	.LBB26_77
# %bb.71:                               # %if.then165
	movl	MyInitialQp, %eax
	movl	%eax, m_Qc
	movq	img, %rax
	cmpl	$0, 72600(%rax)
	jne	.LBB26_76
# %bb.72:                               # %if.then168
	movq	active_sps, %rax
	cmpl	$0, 1148(%rax)
	je	.LBB26_74
# %bb.73:                               # %if.then170
	movl	m_Qc, %eax
	movq	img, %rcx
	addl	72572(%rcx), %eax
	movl	%eax, 72572(%rcx)
	movl	PreviousQp2, %eax
	movl	%eax, PreviousQp1
	movl	m_Qc, %eax
	movl	%eax, PreviousQp2
	movl	m_Qc, %eax
	movl	%eax, Pm_Qp
	jmp	.LBB26_75
.LBB26_74:                              # %if.else172
	movl	m_Qc, %eax
	movl	%eax, FrameQPBuffer
.LBB26_75:                              # %if.end173
	jmp	.LBB26_76
.LBB26_76:                              # %if.end174
	movl	m_Qc, %eax
	movl	%eax, -20(%rbp)
	jmp	.LBB26_363
.LBB26_77:                              # %if.else175
	movq	input, %rax
	cmpl	$2, 2880(%rax)
	je	.LBB26_79
# %bb.78:                               # %lor.lhs.false178
	movq	input, %rax
	cmpl	$0, 2884(%rax)
	je	.LBB26_84
.LBB26_79:                              # %land.lhs.true181
	movq	img, %rax
	cmpl	$0, 72600(%rax)
	jne	.LBB26_84
# %bb.80:                               # %if.then184
	movq	img, %rax
	cmpl	$1, 72604(%rax)
	jne	.LBB26_82
# %bb.81:                               # %if.then187
	movl	FrameQPBuffer, %eax
	movq	img, %rcx
	addl	72572(%rcx), %eax
	movl	%eax, 72572(%rcx)
	movl	FrameQPBuffer, %eax
	movl	%eax, Pm_Qp
	jmp	.LBB26_83
.LBB26_82:                              # %if.else190
	movl	FieldQPBuffer, %eax
	movq	img, %rcx
	addl	72572(%rcx), %eax
	movl	%eax, 72572(%rcx)
	movl	FieldQPBuffer, %eax
	movl	%eax, Pm_Qp
.LBB26_83:                              # %if.end193
	jmp	.LBB26_84
.LBB26_84:                              # %if.end194
	vmovsd	Pm_X1, %xmm0            # xmm0 = mem[0],zero
	vmovsd	%xmm0, m_X1
	vmovsd	Pm_X2, %xmm0            # xmm0 = mem[0],zero
	vmovsd	%xmm0, m_X2
	movl	PPreHeader, %eax
	movl	%eax, m_Hp
	movl	Pm_Qp, %eax
	movl	%eax, m_Qp
	movl	PDuantQp, %eax
	movl	%eax, DuantQp
	vmovsd	PMADPictureC1, %xmm0    # xmm0 = mem[0],zero
	vmovsd	%xmm0, MADPictureC1
	vmovsd	PMADPictureC2, %xmm0    # xmm0 = mem[0],zero
	vmovsd	%xmm0, MADPictureC2
	vmovsd	PPictureMAD, %xmm0      # xmm0 = mem[0],zero
	vmovsd	%xmm0, PreviousPictureMAD
	vmovsd	MADPictureC1, %xmm0     # xmm0 = mem[0],zero
	vmulsd	PreviousPictureMAD, %xmm0, %xmm0
	vaddsd	MADPictureC2, %xmm0, %xmm0
	vmovsd	%xmm0, CurrentFrameMAD
	cmpq	$0, T
	jge	.LBB26_89
# %bb.85:                               # %if.then198
	movl	m_Qp, %eax
	addl	DuantQp, %eax
	movl	%eax, m_Qc
	movl	m_Qc, %eax
	cmpl	RC_MAX_QUANT, %eax
	jge	.LBB26_87
# %bb.86:                               # %cond.true201
	movl	m_Qc, %eax
	jmp	.LBB26_88
.LBB26_87:                              # %cond.false202
	movl	RC_MAX_QUANT, %eax
.LBB26_88:                              # %cond.end203
	movl	%eax, m_Qc
	jmp	.LBB26_110
.LBB26_89:                              # %if.else205
	movq	T, %rax
	movslq	m_Hp, %rcx
	subq	%rcx, %rax
	movl	%eax, -24(%rbp)
	movl	-24(%rbp), %eax
	vmovsd	bit_rate, %xmm0         # xmm0 = mem[0],zero
	vmovsd	MINVALUE, %xmm1         # xmm1 = mem[0],zero
	vmulsd	frame_rate, %xmm1, %xmm1
	vdivsd	%xmm1, %xmm0, %xmm0
	vcvttsd2si	%xmm0, %ecx
	cmpl	%ecx, %eax
	jge	.LBB26_91
# %bb.90:                               # %cond.true213
	vmovsd	bit_rate, %xmm0         # xmm0 = mem[0],zero
	vmovsd	MINVALUE, %xmm1         # xmm1 = mem[0],zero
	vmulsd	frame_rate, %xmm1, %xmm1
	vdivsd	%xmm1, %xmm0, %xmm0
	vcvttsd2si	%xmm0, %eax
	jmp	.LBB26_92
.LBB26_91:                              # %cond.false217
	movl	-24(%rbp), %eax
.LBB26_92:                              # %cond.end218
	vmovsd	.LCPI26_0(%rip), %xmm0  # xmm0 = mem[0],zero
	movl	%eax, -24(%rbp)
	vmovsd	CurrentFrameMAD, %xmm1  # xmm1 = mem[0],zero
	vmulsd	m_X1, %xmm1, %xmm1
	vmulsd	CurrentFrameMAD, %xmm1, %xmm1
	vmulsd	m_X1, %xmm1, %xmm1
	vmulsd	m_X2, %xmm0, %xmm0
	vmulsd	CurrentFrameMAD, %xmm0, %xmm0
	vcvtsi2sdl	-24(%rbp), %xmm0, %xmm2
	vmulsd	%xmm2, %xmm0, %xmm0
	vaddsd	%xmm0, %xmm1, %xmm0
	vmovsd	%xmm0, -48(%rbp)
	vmovsd	m_X2, %xmm0             # xmm0 = mem[0],zero
	vxorps	%xmm1, %xmm1, %xmm1
	vucomisd	%xmm1, %xmm0
	jne	.LBB26_93
	jp	.LBB26_93
	jmp	.LBB26_95
.LBB26_93:                              # %lor.lhs.false230
	vxorps	%xmm0, %xmm0, %xmm0
	vucomisd	-48(%rbp), %xmm0
	ja	.LBB26_95
# %bb.94:                               # %lor.lhs.false233
	vmovsd	-48(%rbp), %xmm0        # xmm0 = mem[0],zero
	callq	sqrt
	vmovsd	m_X1, %xmm1             # xmm1 = mem[0],zero
	vmulsd	CurrentFrameMAD, %xmm1, %xmm1
	vsubsd	%xmm1, %xmm0, %xmm0
	vxorps	%xmm1, %xmm1, %xmm1
	vucomisd	%xmm0, %xmm1
	jb	.LBB26_96
.LBB26_95:                              # %if.then238
	vmovsd	m_X1, %xmm0             # xmm0 = mem[0],zero
	vmulsd	CurrentFrameMAD, %xmm0, %xmm0
	vcvtsi2sdl	-24(%rbp), %xmm0, %xmm1
	vdivsd	%xmm1, %xmm0, %xmm0
	vcvtsd2ss	%xmm0, %xmm0, %xmm0
	vcvtss2sd	%xmm0, %xmm0, %xmm0
	vmovsd	%xmm0, m_Qstep
	jmp	.LBB26_97
.LBB26_96:                              # %if.else244
	vmovsd	.LCPI26_1(%rip), %xmm0  # xmm0 = mem[0],zero
	vmulsd	m_X2, %xmm0, %xmm0
	vmulsd	CurrentFrameMAD, %xmm0, %xmm0
	vmovsd	%xmm0, -64(%rbp)        # 8-byte Spill
	vmovsd	-48(%rbp), %xmm0        # xmm0 = mem[0],zero
	callq	sqrt
	vmovsd	m_X1, %xmm1             # xmm1 = mem[0],zero
	vmulsd	CurrentFrameMAD, %xmm1, %xmm1
	vsubsd	%xmm1, %xmm0, %xmm0
	vmovsd	-64(%rbp), %xmm1        # 8-byte Reload
                                        # xmm1 = mem[0],zero
	vdivsd	%xmm0, %xmm1, %xmm0
	vcvtsd2ss	%xmm0, %xmm0, %xmm0
	vcvtss2sd	%xmm0, %xmm0, %xmm0
	vmovsd	%xmm0, m_Qstep
.LBB26_97:                              # %if.end253
	vmovsd	m_Qstep, %xmm0          # xmm0 = mem[0],zero
	callq	Qstep2QP
	movl	%eax, m_Qc
	movl	m_Qp, %eax
	addl	DuantQp, %eax
	cmpl	m_Qc, %eax
	jge	.LBB26_99
# %bb.98:                               # %cond.true258
	movl	m_Qp, %eax
	addl	DuantQp, %eax
	jmp	.LBB26_100
.LBB26_99:                              # %cond.false260
	movl	m_Qc, %eax
.LBB26_100:                             # %cond.end261
	movl	%eax, m_Qc
	movl	m_Qc, %eax
	cmpl	RC_MAX_QUANT, %eax
	jge	.LBB26_102
# %bb.101:                              # %cond.true265
	movl	m_Qc, %eax
	jmp	.LBB26_103
.LBB26_102:                             # %cond.false266
	movl	RC_MAX_QUANT, %eax
.LBB26_103:                             # %cond.end267
	movl	%eax, m_Qc
	movl	m_Qp, %eax
	subl	DuantQp, %eax
	cmpl	m_Qc, %eax
	jge	.LBB26_105
# %bb.104:                              # %cond.true272
	movl	m_Qc, %eax
	jmp	.LBB26_106
.LBB26_105:                             # %cond.false273
	movl	m_Qp, %eax
	subl	DuantQp, %eax
.LBB26_106:                             # %cond.end275
	movl	%eax, m_Qc
	movl	RC_MIN_QUANT, %eax
	cmpl	m_Qc, %eax
	jge	.LBB26_108
# %bb.107:                              # %cond.true279
	movl	m_Qc, %eax
	jmp	.LBB26_109
.LBB26_108:                             # %cond.false280
	movl	RC_MIN_QUANT, %eax
.LBB26_109:                             # %cond.end281
	movl	%eax, m_Qc
.LBB26_110:                             # %if.end283
	movq	img, %rax
	cmpl	$0, 72600(%rax)
	jne	.LBB26_115
# %bb.111:                              # %if.then287
	movq	active_sps, %rax
	cmpl	$0, 1148(%rax)
	je	.LBB26_113
# %bb.112:                              # %if.then290
	movl	m_Qc, %eax
	movq	img, %rcx
	addl	72572(%rcx), %eax
	movl	%eax, 72572(%rcx)
	movl	PreviousQp2, %eax
	movl	%eax, PreviousQp1
	movl	m_Qc, %eax
	movl	%eax, PreviousQp2
	movl	m_Qc, %eax
	movl	%eax, Pm_Qp
	jmp	.LBB26_114
.LBB26_113:                             # %if.else293
	movl	m_Qc, %eax
	movl	%eax, FrameQPBuffer
.LBB26_114:                             # %if.end294
	jmp	.LBB26_115
.LBB26_115:                             # %if.end295
	movl	m_Qc, %eax
	movl	%eax, -20(%rbp)
	jmp	.LBB26_363
.LBB26_116:                             # %if.else296
	movq	img, %rax
	cmpl	$0, 24(%rax)
	jne	.LBB26_122
# %bb.117:                              # %land.lhs.true300
	movq	img, %rax
	cmpl	$0, 72612(%rax)
	jne	.LBB26_122
# %bb.118:                              # %if.then303
	movq	input, %rax
	cmpl	$1, 2880(%rax)
	jne	.LBB26_120
# %bb.119:                              # %if.then307
	movl	m_Qc, %eax
	movq	img, %rcx
	addl	72572(%rcx), %eax
	movl	%eax, 72572(%rcx)
	movl	PreviousQp2, %eax
	addl	$1, %eax
	movl	%eax, PreviousQp1
	movl	m_Qc, %eax
	movl	%eax, PreviousQp2
	movl	m_Qc, %eax
	movl	%eax, Pm_Qp
	jmp	.LBB26_121
.LBB26_120:                             # %if.else311
	movl	m_Qc, %eax
	movl	%eax, FieldQPBuffer
.LBB26_121:                             # %if.end312
	jmp	.LBB26_122
.LBB26_122:                             # %if.end313
	movl	m_Qc, %eax
	movl	%eax, -20(%rbp)
	jmp	.LBB26_363
.LBB26_123:                             # %if.else314
	movq	img, %rax
	cmpl	$2, 24(%rax)
	jne	.LBB26_125
# %bb.124:                              # %if.then318
	movl	MyInitialQp, %eax
	movl	%eax, m_Qc
	movl	m_Qc, %eax
	movl	%eax, -20(%rbp)
	jmp	.LBB26_363
.LBB26_125:                             # %if.else319
	movq	img, %rax
	cmpl	$0, 24(%rax)
	jne	.LBB26_129
# %bb.126:                              # %land.lhs.true323
	movq	img, %rax
	cmpl	$1, 72612(%rax)
	jne	.LBB26_129
# %bb.127:                              # %land.lhs.true327
	movq	img, %rax
	cmpl	$1, 72600(%rax)
	jne	.LBB26_129
# %bb.128:                              # %if.then331
	movl	MyInitialQp, %eax
	movl	%eax, m_Qc
	movl	m_Qc, %eax
	movl	%eax, -20(%rbp)
	jmp	.LBB26_363
.LBB26_129:                             # %if.else332
	movq	img, %rax
	cmpl	$1, 24(%rax)
	jne	.LBB26_196
# %bb.130:                              # %if.then336
	cmpl	$0, -36(%rbp)
	jne	.LBB26_132
# %bb.131:                              # %lor.lhs.false338
	movq	img, %rax
	cmpl	$0, 72600(%rax)
	jne	.LBB26_195
.LBB26_132:                             # %if.then342
	movq	input, %rax
	cmpl	$1, 1236(%rax)
	jne	.LBB26_151
# %bb.133:                              # %if.then346
	movq	input, %rax
	cmpl	$2, 2880(%rax)
	je	.LBB26_135
# %bb.134:                              # %lor.lhs.false350
	movq	input, %rax
	cmpl	$0, 2884(%rax)
	je	.LBB26_141
.LBB26_135:                             # %if.then353
	movq	img, %rax
	cmpl	$0, 72600(%rax)
	jne	.LBB26_140
# %bb.136:                              # %if.then357
	movq	img, %rax
	cmpl	$1, 72604(%rax)
	jne	.LBB26_138
# %bb.137:                              # %if.then361
	movl	PreviousQp2, %eax
	movl	%eax, PreviousQp1
	movl	FrameQPBuffer, %eax
	movl	%eax, PreviousQp2
	jmp	.LBB26_139
.LBB26_138:                             # %if.else362
	movl	PreviousQp2, %eax
	movl	%eax, PreviousQp1
	movl	FieldQPBuffer, %eax
	movl	%eax, PreviousQp2
.LBB26_139:                             # %if.end363
	jmp	.LBB26_140
.LBB26_140:                             # %if.end364
	jmp	.LBB26_141
.LBB26_141:                             # %if.end365
	movl	PreviousQp1, %eax
	cmpl	PreviousQp2, %eax
	jne	.LBB26_143
# %bb.142:                              # %if.then368
	movl	PreviousQp1, %eax
	addl	$2, %eax
	movl	%eax, m_Qc
	jmp	.LBB26_144
.LBB26_143:                             # %if.else370
	movl	PreviousQp1, %eax
	addl	PreviousQp2, %eax
	cltd
	movl	$2, %ecx
	idivl	%ecx
	addl	$1, %eax
	movl	%eax, m_Qc
.LBB26_144:                             # %if.end374
	movl	m_Qc, %eax
	cmpl	RC_MAX_QUANT, %eax
	jge	.LBB26_146
# %bb.145:                              # %cond.true377
	movl	m_Qc, %eax
	jmp	.LBB26_147
.LBB26_146:                             # %cond.false378
	movl	RC_MAX_QUANT, %eax
.LBB26_147:                             # %cond.end379
	movl	%eax, m_Qc
	movl	RC_MIN_QUANT, %eax
	cmpl	m_Qc, %eax
	jge	.LBB26_149
# %bb.148:                              # %cond.true383
	movl	m_Qc, %eax
	jmp	.LBB26_150
.LBB26_149:                             # %cond.false384
	movl	RC_MIN_QUANT, %eax
.LBB26_150:                             # %cond.end385
	movl	%eax, m_Qc
	jmp	.LBB26_194
.LBB26_151:                             # %if.else387
	movl	NumberofBFrames, %eax
	addl	$1, %eax
	movq	input, %rcx
	cltd
	idivl	1236(%rcx)
	movl	%edx, -12(%rbp)
	cmpl	$0, -12(%rbp)
	jne	.LBB26_153
# %bb.152:                              # %if.then393
	movq	input, %rax
	movl	1236(%rax), %eax
	movl	%eax, -12(%rbp)
.LBB26_153:                             # %if.end395
	cmpl	$1, -12(%rbp)
	jne	.LBB26_163
# %bb.154:                              # %if.then398
	movq	input, %rax
	cmpl	$2, 2880(%rax)
	je	.LBB26_156
# %bb.155:                              # %lor.lhs.false402
	movq	input, %rax
	cmpl	$0, 2884(%rax)
	je	.LBB26_162
.LBB26_156:                             # %if.then405
	movq	img, %rax
	cmpl	$0, 72600(%rax)
	jne	.LBB26_161
# %bb.157:                              # %if.then409
	movq	img, %rax
	cmpl	$1, 72604(%rax)
	jne	.LBB26_159
# %bb.158:                              # %if.then413
	movl	PreviousQp2, %eax
	movl	%eax, PreviousQp1
	movl	FrameQPBuffer, %eax
	movl	%eax, PreviousQp2
	jmp	.LBB26_160
.LBB26_159:                             # %if.else414
	movl	PreviousQp2, %eax
	movl	%eax, PreviousQp1
	movl	FieldQPBuffer, %eax
	movl	%eax, PreviousQp2
.LBB26_160:                             # %if.end415
	jmp	.LBB26_161
.LBB26_161:                             # %if.end416
	jmp	.LBB26_162
.LBB26_162:                             # %if.end417
	jmp	.LBB26_163
.LBB26_163:                             # %if.end418
	movl	PreviousQp2, %eax
	subl	PreviousQp1, %eax
	movq	input, %rcx
	imull	$4294967294, 1236(%rcx), %ecx # imm = 0xFFFFFFFE
	subl	$3, %ecx
	cmpl	%ecx, %eax
	jg	.LBB26_165
# %bb.164:                              # %if.then425
	movl	$-3, -28(%rbp)
	jmp	.LBB26_178
.LBB26_165:                             # %if.else426
	movl	PreviousQp2, %eax
	subl	PreviousQp1, %eax
	movq	input, %rcx
	imull	$4294967294, 1236(%rcx), %ecx # imm = 0xFFFFFFFE
	subl	$2, %ecx
	cmpl	%ecx, %eax
	jne	.LBB26_167
# %bb.166:                              # %if.then433
	movl	$-2, -28(%rbp)
	jmp	.LBB26_177
.LBB26_167:                             # %if.else434
	movl	PreviousQp2, %eax
	subl	PreviousQp1, %eax
	movq	input, %rcx
	imull	$4294967294, 1236(%rcx), %ecx # imm = 0xFFFFFFFE
	subl	$1, %ecx
	cmpl	%ecx, %eax
	jne	.LBB26_169
# %bb.168:                              # %if.then441
	movl	$-1, -28(%rbp)
	jmp	.LBB26_176
.LBB26_169:                             # %if.else442
	movl	PreviousQp2, %eax
	subl	PreviousQp1, %eax
	movq	input, %rcx
	imull	$4294967294, 1236(%rcx), %ecx # imm = 0xFFFFFFFE
	cmpl	%ecx, %eax
	jne	.LBB26_171
# %bb.170:                              # %if.then448
	movl	$0, -28(%rbp)
	jmp	.LBB26_175
.LBB26_171:                             # %if.else449
	movl	PreviousQp2, %eax
	subl	PreviousQp1, %eax
	movq	input, %rcx
	imull	$4294967294, 1236(%rcx), %ecx # imm = 0xFFFFFFFE
	addl	$1, %ecx
	cmpl	%ecx, %eax
	jne	.LBB26_173
# %bb.172:                              # %if.then456
	movl	$1, -28(%rbp)
	jmp	.LBB26_174
.LBB26_173:                             # %if.else457
	movl	$2, -28(%rbp)
.LBB26_174:                             # %if.end458
	jmp	.LBB26_175
.LBB26_175:                             # %if.end459
	jmp	.LBB26_176
.LBB26_176:                             # %if.end460
	jmp	.LBB26_177
.LBB26_177:                             # %if.end461
	jmp	.LBB26_178
.LBB26_178:                             # %if.end462
	movl	PreviousQp1, %eax
	addl	-28(%rbp), %eax
	movl	%eax, m_Qc
	movl	-12(%rbp), %ecx
	subl	$1, %ecx
	shll	$1, %ecx
	movl	-12(%rbp), %eax
	subl	$1, %eax
	imull	$4294967294, %eax, %esi # imm = 0xFFFFFFFE
	movl	-12(%rbp), %eax
	subl	$1, %eax
	movl	PreviousQp2, %edx
	subl	PreviousQp1, %edx
	imull	%edx, %eax
	movq	input, %rdx
	movl	1236(%rdx), %edi
	subl	$1, %edi
	cltd
	idivl	%edi
	cmpl	%eax, %esi
	jge	.LBB26_180
# %bb.179:                              # %cond.true476
	movl	-12(%rbp), %eax
	subl	$1, %eax
	movl	PreviousQp2, %edx
	subl	PreviousQp1, %edx
	imull	%edx, %eax
	movq	input, %rdx
	movl	1236(%rdx), %esi
	subl	$1, %esi
	cltd
	idivl	%esi
	jmp	.LBB26_181
.LBB26_180:                             # %cond.false483
	movl	-12(%rbp), %eax
	subl	$1, %eax
	imull	$4294967294, %eax, %eax # imm = 0xFFFFFFFE
.LBB26_181:                             # %cond.end486
	cmpl	%eax, %ecx
	jge	.LBB26_183
# %bb.182:                              # %cond.true490
	movl	-12(%rbp), %eax
	subl	$1, %eax
	shll	$1, %eax
	jmp	.LBB26_187
.LBB26_183:                             # %cond.false493
	movl	-12(%rbp), %eax
	subl	$1, %eax
	imull	$4294967294, %eax, %ecx # imm = 0xFFFFFFFE
	movl	-12(%rbp), %eax
	subl	$1, %eax
	movl	PreviousQp2, %edx
	subl	PreviousQp1, %edx
	imull	%edx, %eax
	movq	input, %rdx
	movl	1236(%rdx), %esi
	subl	$1, %esi
	cltd
	idivl	%esi
	cmpl	%eax, %ecx
	jge	.LBB26_185
# %bb.184:                              # %cond.true504
	movl	-12(%rbp), %eax
	subl	$1, %eax
	movl	PreviousQp2, %ecx
	subl	PreviousQp1, %ecx
	imull	%ecx, %eax
	movq	input, %rcx
	movl	1236(%rcx), %ecx
	subl	$1, %ecx
	cltd
	idivl	%ecx
	jmp	.LBB26_186
.LBB26_185:                             # %cond.false511
	movl	-12(%rbp), %eax
	subl	$1, %eax
	imull	$4294967294, %eax, %eax # imm = 0xFFFFFFFE
.LBB26_186:                             # %cond.end514
.LBB26_187:                             # %cond.end516
	addl	m_Qc, %eax
	movl	%eax, m_Qc
	movl	m_Qc, %eax
	cmpl	RC_MAX_QUANT, %eax
	jge	.LBB26_189
# %bb.188:                              # %cond.true521
	movl	m_Qc, %eax
	jmp	.LBB26_190
.LBB26_189:                             # %cond.false522
	movl	RC_MAX_QUANT, %eax
.LBB26_190:                             # %cond.end523
	movl	%eax, m_Qc
	movl	RC_MIN_QUANT, %eax
	cmpl	m_Qc, %eax
	jge	.LBB26_192
# %bb.191:                              # %cond.true527
	movl	m_Qc, %eax
	jmp	.LBB26_193
.LBB26_192:                             # %cond.false528
	movl	RC_MIN_QUANT, %eax
.LBB26_193:                             # %cond.end529
	movl	%eax, m_Qc
.LBB26_194:                             # %if.end531
	movl	m_Qc, %eax
	movl	%eax, -20(%rbp)
	jmp	.LBB26_363
.LBB26_195:                             # %if.else532
	movl	m_Qc, %eax
	movl	%eax, -20(%rbp)
	jmp	.LBB26_363
.LBB26_196:                             # %if.else533
	movq	img, %rax
	cmpl	$0, 24(%rax)
	jne	.LBB26_358
# %bb.197:                              # %if.then537
	movq	img, %rax
	cmpl	$1, 72568(%rax)
	jne	.LBB26_217
# %bb.198:                              # %land.lhs.true540
	movq	img, %rax
	cmpl	$0, 72576(%rax)
	jne	.LBB26_217
# %bb.199:                              # %if.then544
	movq	img, %rax
	cmpl	$0, 72600(%rax)
	je	.LBB26_202
# %bb.200:                              # %lor.lhs.false548
	movq	img, %rax
	cmpl	$1, 72600(%rax)
	jne	.LBB26_216
# %bb.201:                              # %land.lhs.true552
	movq	img, %rax
	cmpl	$0, 72612(%rax)
	jne	.LBB26_216
.LBB26_202:                             # %if.then556
	movl	MyInitialQp, %eax
	movl	%eax, m_Qc
	movq	img, %rax
	movl	$0, 72532(%rax)
	movq	img, %rax
	movl	$0, 72536(%rax)
	movl	NumberofBasicUnit, %eax
	addl	$-1, %eax
	movl	%eax, NumberofBasicUnit
	cmpl	$0, -36(%rbp)
	jne	.LBB26_215
# %bb.203:                              # %land.lhs.true558
	cmpl	$0, NumberofBasicUnit
	jne	.LBB26_215
# %bb.204:                              # %if.then561
	movq	active_sps, %rax
	cmpl	$0, 1148(%rax)
	jne	.LBB26_206
# %bb.205:                              # %lor.lhs.false564
	movq	input, %rax
	cmpl	$1, 2880(%rax)
	jne	.LBB26_207
.LBB26_206:                             # %if.then568
	movl	m_Qc, %eax
	movq	img, %rcx
	addl	72572(%rcx), %eax
	movl	%eax, 72572(%rcx)
	movl	PreviousQp2, %eax
	movl	%eax, PreviousQp1
	movl	m_Qc, %eax
	movl	%eax, PreviousQp2
	movl	m_Qc, %eax
	movl	%eax, PAveFrameQP
	movl	PAveHeaderBits2, %eax
	movl	%eax, PAveHeaderBits3
	jmp	.LBB26_214
.LBB26_207:                             # %if.else571
	movq	input, %rax
	cmpl	$2, 2880(%rax)
	je	.LBB26_209
# %bb.208:                              # %lor.lhs.false575
	movq	input, %rax
	cmpl	$0, 2884(%rax)
	je	.LBB26_213
.LBB26_209:                             # %if.then578
	movq	img, %rax
	cmpl	$0, 72600(%rax)
	jne	.LBB26_211
# %bb.210:                              # %if.then582
	movl	m_Qc, %eax
	movl	%eax, FrameQPBuffer
	movl	PAveHeaderBits2, %eax
	movl	%eax, FrameAveHeaderBits
	jmp	.LBB26_212
.LBB26_211:                             # %if.else583
	movl	m_Qc, %eax
	movl	%eax, FieldQPBuffer
	movl	PAveHeaderBits2, %eax
	movl	%eax, FieldAveHeaderBits
.LBB26_212:                             # %if.end584
	jmp	.LBB26_213
.LBB26_213:                             # %if.end585
	jmp	.LBB26_214
.LBB26_214:                             # %if.end586
	jmp	.LBB26_215
.LBB26_215:                             # %if.end587
	movl	m_Qc, %eax
	movl	%eax, Pm_Qp
	movl	m_Qc, %eax
	addl	TotalFrameQP, %eax
	movl	%eax, TotalFrameQP
	movl	m_Qc, %eax
	movl	%eax, -20(%rbp)
	jmp	.LBB26_363
.LBB26_216:                             # %if.end589
	jmp	.LBB26_357
.LBB26_217:                             # %if.else590
	vmovsd	Pm_X1, %xmm0            # xmm0 = mem[0],zero
	vmovsd	%xmm0, m_X1
	vmovsd	Pm_X2, %xmm0            # xmm0 = mem[0],zero
	vmovsd	%xmm0, m_X2
	movl	PPreHeader, %eax
	movl	%eax, m_Hp
	movl	Pm_Qp, %eax
	movl	%eax, m_Qp
	movl	PDuantQp, %eax
	movl	%eax, DuantQp
	vmovsd	PMADPictureC1, %xmm0    # xmm0 = mem[0],zero
	vmovsd	%xmm0, MADPictureC1
	vmovsd	PMADPictureC2, %xmm0    # xmm0 = mem[0],zero
	vmovsd	%xmm0, MADPictureC2
	movq	img, %rax
	cmpl	$0, 72600(%rax)
	jne	.LBB26_219
# %bb.218:                              # %if.then594
	movl	TotalNumberofBasicUnit, %eax
	movl	%eax, -52(%rbp)
	jmp	.LBB26_220
.LBB26_219:                             # %if.else595
	movl	TotalNumberofBasicUnit, %eax
	cltd
	movl	$2, %ecx
	idivl	%ecx
	movl	%eax, -52(%rbp)
.LBB26_220:                             # %if.end597
	movl	NumberofBasicUnit, %eax
	cmpl	-52(%rbp), %eax
	jne	.LBB26_241
# %bb.221:                              # %if.then600
	movq	input, %rax
	cmpl	$2, 2880(%rax)
	je	.LBB26_223
# %bb.222:                              # %lor.lhs.false604
	movq	input, %rax
	cmpl	$0, 2884(%rax)
	je	.LBB26_232
.LBB26_223:                             # %land.lhs.true607
	movq	img, %rax
	cmpl	$0, 72600(%rax)
	jne	.LBB26_232
# %bb.224:                              # %if.then611
	movq	img, %rax
	cmpl	$1, 72604(%rax)
	jne	.LBB26_228
# %bb.225:                              # %if.then615
	movq	img, %rax
	cmpl	$0, 72576(%rax)
	jle	.LBB26_227
# %bb.226:                              # %if.then619
	movl	FrameQPBuffer, %eax
	movq	img, %rcx
	addl	72572(%rcx), %eax
	movl	%eax, 72572(%rcx)
.LBB26_227:                             # %if.end622
	movl	FrameQPBuffer, %eax
	movl	%eax, PAveFrameQP
	movl	FrameAveHeaderBits, %eax
	movl	%eax, PAveHeaderBits3
	jmp	.LBB26_231
.LBB26_228:                             # %if.else623
	movq	img, %rax
	cmpl	$0, 72576(%rax)
	jle	.LBB26_230
# %bb.229:                              # %if.then627
	movl	FieldQPBuffer, %eax
	movq	img, %rcx
	addl	72572(%rcx), %eax
	movl	%eax, 72572(%rcx)
.LBB26_230:                             # %if.end630
	movl	FieldQPBuffer, %eax
	movl	%eax, PAveFrameQP
	movl	FieldAveHeaderBits, %eax
	movl	%eax, PAveHeaderBits3
.LBB26_231:                             # %if.end631
	jmp	.LBB26_232
.LBB26_232:                             # %if.end632
	cmpq	$0, T
	jg	.LBB26_239
# %bb.233:                              # %if.then635
	movl	PAveFrameQP, %eax
	addl	$2, %eax
	movl	%eax, m_Qc
	movl	m_Qc, %eax
	cmpl	RC_MAX_QUANT, %eax
	jle	.LBB26_235
# %bb.234:                              # %if.then639
	movl	RC_MAX_QUANT, %eax
	movl	%eax, m_Qc
.LBB26_235:                             # %if.end640
	cmpl	$0, -36(%rbp)
	jne	.LBB26_237
# %bb.236:                              # %lor.lhs.false642
	movq	img, %rax
	cmpl	$0, 72600(%rax)
	jne	.LBB26_238
.LBB26_237:                             # %if.then646
	movl	$1, GOPOverdue
.LBB26_238:                             # %if.end647
	jmp	.LBB26_240
.LBB26_239:                             # %if.else648
	movl	PAveFrameQP, %eax
	movl	%eax, m_Qc
.LBB26_240:                             # %if.end649
	movl	m_Qc, %eax
	addl	TotalFrameQP, %eax
	movl	%eax, TotalFrameQP
	movl	NumberofBasicUnit, %eax
	addl	$-1, %eax
	movl	%eax, NumberofBasicUnit
	movl	PAveFrameQP, %eax
	movl	%eax, Pm_Qp
	movl	m_Qc, %eax
	movl	%eax, -20(%rbp)
	jmp	.LBB26_363
.LBB26_241:                             # %if.else652
	movq	img, %rax
	movl	72532(%rax), %eax
	movq	img, %rcx
	addl	72536(%rcx), %eax
	movl	%eax, TotalBasicUnitBits
	movslq	TotalBasicUnitBits, %rax
	movq	T, %rcx
	subq	%rax, %rcx
	movq	%rcx, T
	movq	img, %rax
	movl	$0, 72532(%rax)
	movq	img, %rax
	movl	$0, 72536(%rax)
	cmpq	$0, T
	jge	.LBB26_287
# %bb.242:                              # %if.then662
	cmpl	$1, GOPOverdue
	jne	.LBB26_244
# %bb.243:                              # %if.then665
	movl	m_Qp, %eax
	addl	$2, %eax
	movl	%eax, m_Qc
	jmp	.LBB26_245
.LBB26_244:                             # %if.else667
	movl	m_Qp, %eax
	addl	DDquant, %eax
	movl	%eax, m_Qc
.LBB26_245:                             # %if.end669
	movl	m_Qc, %eax
	cmpl	RC_MAX_QUANT, %eax
	jge	.LBB26_247
# %bb.246:                              # %cond.true672
	movl	m_Qc, %eax
	jmp	.LBB26_248
.LBB26_247:                             # %cond.false673
	movl	RC_MAX_QUANT, %eax
.LBB26_248:                             # %cond.end674
	movl	%eax, m_Qc
	movq	input, %rax
	movl	3248(%rax), %eax
	cmpl	MBPerRow, %eax
	jl	.LBB26_253
# %bb.249:                              # %if.then678
	movl	m_Qc, %eax
	movl	PAveFrameQP, %ecx
	addl	$6, %ecx
	cmpl	%ecx, %eax
	jge	.LBB26_251
# %bb.250:                              # %cond.true682
	movl	m_Qc, %eax
	jmp	.LBB26_252
.LBB26_251:                             # %cond.false683
	movl	PAveFrameQP, %eax
	addl	$6, %eax
.LBB26_252:                             # %cond.end685
	movl	%eax, m_Qc
	jmp	.LBB26_257
.LBB26_253:                             # %if.else687
	movl	m_Qc, %eax
	movl	PAveFrameQP, %ecx
	addl	$3, %ecx
	cmpl	%ecx, %eax
	jge	.LBB26_255
# %bb.254:                              # %cond.true691
	movl	m_Qc, %eax
	jmp	.LBB26_256
.LBB26_255:                             # %cond.false692
	movl	PAveFrameQP, %eax
	addl	$3, %eax
.LBB26_256:                             # %cond.end694
	movl	%eax, m_Qc
.LBB26_257:                             # %if.end696
	movl	m_Qc, %eax
	addl	TotalFrameQP, %eax
	movl	%eax, TotalFrameQP
	movl	NumberofBasicUnit, %eax
	addl	$-1, %eax
	movl	%eax, NumberofBasicUnit
	cmpl	$0, NumberofBasicUnit
	jne	.LBB26_283
# %bb.258:                              # %if.then701
	cmpl	$0, -36(%rbp)
	je	.LBB26_260
# %bb.259:                              # %lor.lhs.false703
	movq	img, %rax
	cmpl	$0, 72600(%rax)
	jne	.LBB26_282
.LBB26_260:                             # %if.then707
	movq	active_sps, %rax
	cmpl	$0, 1148(%rax)
	jne	.LBB26_262
# %bb.261:                              # %lor.lhs.false710
	movq	input, %rax
	cmpl	$1, 2880(%rax)
	jne	.LBB26_274
.LBB26_262:                             # %if.then714
	vmovsd	.LCPI26_2(%rip), %xmm0  # xmm0 = mem[0],zero
	vmovsd	.LCPI26_3(%rip), %xmm1  # xmm1 = mem[0],zero
	vcvtsi2sdl	TotalFrameQP, %xmm0, %xmm2
	vmulsd	%xmm2, %xmm1, %xmm1
	vcvtsi2sdl	TotalNumberofBasicUnit, %xmm0, %xmm2
	vdivsd	%xmm2, %xmm1, %xmm1
	vaddsd	%xmm0, %xmm1, %xmm0
	vcvttsd2si	%xmm0, %eax
	movl	%eax, -16(%rbp)
	movq	img, %rax
	movl	72576(%rax), %eax
	movq	input, %rcx
	movl	1224(%rcx), %ecx
	subl	$2, %ecx
	cmpl	%ecx, %eax
	jne	.LBB26_264
# %bb.263:                              # %if.then725
	movl	-16(%rbp), %eax
	movl	%eax, QPLastPFrame
.LBB26_264:                             # %if.end726
	movl	-16(%rbp), %eax
	movq	img, %rcx
	addl	72572(%rcx), %eax
	movl	%eax, 72572(%rcx)
	cmpl	$1, GOPOverdue
	jne	.LBB26_266
# %bb.265:                              # %if.then731
	movl	PreviousQp2, %eax
	addl	$1, %eax
	movl	%eax, PreviousQp1
	movl	-16(%rbp), %eax
	movl	%eax, PreviousQp2
	jmp	.LBB26_273
.LBB26_266:                             # %if.else733
	movq	img, %rax
	cmpl	$0, 72576(%rax)
	jne	.LBB26_269
# %bb.267:                              # %land.lhs.true737
	movq	img, %rax
	cmpl	$1, 72568(%rax)
	jle	.LBB26_269
# %bb.268:                              # %if.then741
	movl	PreviousQp2, %eax
	movl	%eax, PreviousQp1
	movl	-16(%rbp), %eax
	movl	%eax, PreviousQp2
	jmp	.LBB26_272
.LBB26_269:                             # %if.else742
	movq	img, %rax
	cmpl	$0, 72576(%rax)
	jle	.LBB26_271
# %bb.270:                              # %if.then746
	movl	PreviousQp2, %eax
	addl	$1, %eax
	movl	%eax, PreviousQp1
	movl	-16(%rbp), %eax
	movl	%eax, PreviousQp2
.LBB26_271:                             # %if.end748
	jmp	.LBB26_272
.LBB26_272:                             # %if.end749
	jmp	.LBB26_273
.LBB26_273:                             # %if.end750
	movl	-16(%rbp), %eax
	movl	%eax, PAveFrameQP
	movl	PAveHeaderBits2, %eax
	movl	%eax, PAveHeaderBits3
	jmp	.LBB26_281
.LBB26_274:                             # %if.else751
	movq	input, %rax
	cmpl	$2, 2880(%rax)
	je	.LBB26_276
# %bb.275:                              # %lor.lhs.false755
	movq	input, %rax
	cmpl	$0, 2884(%rax)
	je	.LBB26_280
.LBB26_276:                             # %if.then758
	movq	img, %rax
	cmpl	$0, 72600(%rax)
	jne	.LBB26_278
# %bb.277:                              # %if.then762
	vmovsd	.LCPI26_2(%rip), %xmm0  # xmm0 = mem[0],zero
	vmovsd	.LCPI26_3(%rip), %xmm1  # xmm1 = mem[0],zero
	vcvtsi2sdl	TotalFrameQP, %xmm0, %xmm2
	vmulsd	%xmm2, %xmm1, %xmm1
	vcvtsi2sdl	TotalNumberofBasicUnit, %xmm0, %xmm2
	vdivsd	%xmm2, %xmm1, %xmm1
	vaddsd	%xmm0, %xmm1, %xmm0
	vcvttsd2si	%xmm0, %eax
	movl	%eax, -16(%rbp)
	movl	-16(%rbp), %eax
	movl	%eax, FrameQPBuffer
	movl	PAveHeaderBits2, %eax
	movl	%eax, FrameAveHeaderBits
	jmp	.LBB26_279
.LBB26_278:                             # %if.else769
	vmovsd	.LCPI26_2(%rip), %xmm0  # xmm0 = mem[0],zero
	vmovsd	.LCPI26_3(%rip), %xmm1  # xmm1 = mem[0],zero
	vcvtsi2sdl	TotalFrameQP, %xmm0, %xmm2
	vmulsd	%xmm2, %xmm1, %xmm1
	vcvtsi2sdl	TotalNumberofBasicUnit, %xmm0, %xmm2
	vdivsd	%xmm2, %xmm1, %xmm1
	vaddsd	%xmm0, %xmm1, %xmm0
	vcvttsd2si	%xmm0, %eax
	movl	%eax, -16(%rbp)
	movl	-16(%rbp), %eax
	movl	%eax, FieldQPBuffer
	movl	PAveHeaderBits2, %eax
	movl	%eax, FieldAveHeaderBits
.LBB26_279:                             # %if.end776
	jmp	.LBB26_280
.LBB26_280:                             # %if.end777
	jmp	.LBB26_281
.LBB26_281:                             # %if.end778
	jmp	.LBB26_282
.LBB26_282:                             # %if.end779
	jmp	.LBB26_283
.LBB26_283:                             # %if.end780
	cmpl	$1, GOPOverdue
	jne	.LBB26_285
# %bb.284:                              # %if.then783
	movl	PAveFrameQP, %eax
	movl	%eax, Pm_Qp
	jmp	.LBB26_286
.LBB26_285:                             # %if.else784
	movl	m_Qc, %eax
	movl	%eax, Pm_Qp
.LBB26_286:                             # %if.end785
	movl	m_Qc, %eax
	movl	%eax, -20(%rbp)
	jmp	.LBB26_363
.LBB26_287:                             # %if.else786
	movq	input, %rax
	cmpl	$2, 2880(%rax)
	je	.LBB26_289
# %bb.288:                              # %lor.lhs.false790
	movq	input, %rax
	cmpl	$0, 2884(%rax)
	je	.LBB26_295
.LBB26_289:                             # %land.lhs.true793
	movq	img, %rax
	cmpl	$1, 72600(%rax)
	jne	.LBB26_295
# %bb.290:                              # %if.then797
	vmovsd	MADPictureC1, %xmm0     # xmm0 = mem[0],zero
	movq	FCBUPFMAD, %rax
	movl	TotalNumberofBasicUnit, %ecx
	subl	NumberofBasicUnit, %ecx
	movslq	%ecx, %rcx
	vmulsd	(%rax,%rcx,8), %xmm0, %xmm0
	vaddsd	MADPictureC2, %xmm0, %xmm0
	vmovsd	%xmm0, CurrentFrameMAD
	vxorps	%xmm0, %xmm0, %xmm0
	vmovsd	%xmm0, TotalBUMAD
	movl	TotalNumberofBasicUnit, %eax
	subl	$1, %eax
	movl	%eax, -32(%rbp)
.LBB26_291:                             # %for.cond
                                        # =>This Inner Loop Header: Depth=1
	movl	-32(%rbp), %eax
	movl	TotalNumberofBasicUnit, %ecx
	subl	NumberofBasicUnit, %ecx
	cmpl	%ecx, %eax
	jl	.LBB26_294
# %bb.292:                              # %for.body
                                        #   in Loop: Header=BB26_291 Depth=1
	vmovsd	MADPictureC1, %xmm0     # xmm0 = mem[0],zero
	movq	FCBUPFMAD, %rax
	movslq	-32(%rbp), %rcx
	vmulsd	(%rax,%rcx,8), %xmm0, %xmm0
	vaddsd	MADPictureC2, %xmm0, %xmm0
	vmovsd	%xmm0, CurrentBUMAD
	vmovsd	CurrentBUMAD, %xmm0     # xmm0 = mem[0],zero
	vmulsd	CurrentBUMAD, %xmm0, %xmm0
	vaddsd	TotalBUMAD, %xmm0, %xmm0
	vmovsd	%xmm0, TotalBUMAD
# %bb.293:                              # %for.inc
                                        #   in Loop: Header=BB26_291 Depth=1
	movl	-32(%rbp), %eax
	addl	$-1, %eax
	movl	%eax, -32(%rbp)
	jmp	.LBB26_291
.LBB26_294:                             # %for.end
	jmp	.LBB26_300
.LBB26_295:                             # %if.else812
	vmovsd	MADPictureC1, %xmm0     # xmm0 = mem[0],zero
	movq	BUPFMAD, %rax
	movl	TotalNumberofBasicUnit, %ecx
	subl	NumberofBasicUnit, %ecx
	movslq	%ecx, %rcx
	vmulsd	(%rax,%rcx,8), %xmm0, %xmm0
	vaddsd	MADPictureC2, %xmm0, %xmm0
	vmovsd	%xmm0, CurrentFrameMAD
	vxorps	%xmm0, %xmm0, %xmm0
	vmovsd	%xmm0, TotalBUMAD
	movl	TotalNumberofBasicUnit, %eax
	subl	$1, %eax
	movl	%eax, -32(%rbp)
.LBB26_296:                             # %for.cond819
                                        # =>This Inner Loop Header: Depth=1
	movl	-32(%rbp), %eax
	movl	TotalNumberofBasicUnit, %ecx
	subl	NumberofBasicUnit, %ecx
	cmpl	%ecx, %eax
	jl	.LBB26_299
# %bb.297:                              # %for.body823
                                        #   in Loop: Header=BB26_296 Depth=1
	vmovsd	MADPictureC1, %xmm0     # xmm0 = mem[0],zero
	movq	BUPFMAD, %rax
	movslq	-32(%rbp), %rcx
	vmulsd	(%rax,%rcx,8), %xmm0, %xmm0
	vaddsd	MADPictureC2, %xmm0, %xmm0
	vmovsd	%xmm0, CurrentBUMAD
	vmovsd	CurrentBUMAD, %xmm0     # xmm0 = mem[0],zero
	vmulsd	CurrentBUMAD, %xmm0, %xmm0
	vaddsd	TotalBUMAD, %xmm0, %xmm0
	vmovsd	%xmm0, TotalBUMAD
# %bb.298:                              # %for.inc830
                                        #   in Loop: Header=BB26_296 Depth=1
	movl	-32(%rbp), %eax
	addl	$-1, %eax
	movl	%eax, -32(%rbp)
	jmp	.LBB26_296
.LBB26_299:                             # %for.end832
	jmp	.LBB26_300
.LBB26_300:                             # %if.end833
	vcvtsi2sdq	T, %xmm0, %xmm0
	vmulsd	CurrentFrameMAD, %xmm0, %xmm0
	vmulsd	CurrentFrameMAD, %xmm0, %xmm0
	vdivsd	TotalBUMAD, %xmm0, %xmm0
	vcvttsd2si	%xmm0, %eax
	movl	%eax, -24(%rbp)
	movl	PAveHeaderBits2, %eax
	movl	-24(%rbp), %ecx
	subl	%eax, %ecx
	movl	%ecx, -24(%rbp)
	movl	-24(%rbp), %eax
	vmovsd	bit_rate, %xmm0         # xmm0 = mem[0],zero
	vmovsd	MINVALUE, %xmm1         # xmm1 = mem[0],zero
	vmulsd	frame_rate, %xmm1, %xmm1
	vcvtsi2sdl	TotalNumberofBasicUnit, %xmm0, %xmm2
	vmulsd	%xmm2, %xmm1, %xmm1
	vdivsd	%xmm1, %xmm0, %xmm0
	vcvttsd2si	%xmm0, %ecx
	cmpl	%ecx, %eax
	jge	.LBB26_302
# %bb.301:                              # %cond.true847
	vmovsd	bit_rate, %xmm0         # xmm0 = mem[0],zero
	vmovsd	MINVALUE, %xmm1         # xmm1 = mem[0],zero
	vmulsd	frame_rate, %xmm1, %xmm1
	vcvtsi2sdl	TotalNumberofBasicUnit, %xmm0, %xmm2
	vmulsd	%xmm2, %xmm1, %xmm1
	vdivsd	%xmm1, %xmm0, %xmm0
	vcvttsd2si	%xmm0, %eax
	jmp	.LBB26_303
.LBB26_302:                             # %cond.false853
	movl	-24(%rbp), %eax
.LBB26_303:                             # %cond.end854
	vmovsd	.LCPI26_0(%rip), %xmm0  # xmm0 = mem[0],zero
	movl	%eax, -24(%rbp)
	vmovsd	CurrentFrameMAD, %xmm1  # xmm1 = mem[0],zero
	vmulsd	m_X1, %xmm1, %xmm1
	vmulsd	CurrentFrameMAD, %xmm1, %xmm1
	vmulsd	m_X1, %xmm1, %xmm1
	vmulsd	m_X2, %xmm0, %xmm0
	vmulsd	CurrentFrameMAD, %xmm0, %xmm0
	vcvtsi2sdl	-24(%rbp), %xmm0, %xmm2
	vmulsd	%xmm2, %xmm0, %xmm0
	vaddsd	%xmm0, %xmm1, %xmm0
	vmovsd	%xmm0, -48(%rbp)
	vmovsd	m_X2, %xmm0             # xmm0 = mem[0],zero
	vxorps	%xmm1, %xmm1, %xmm1
	vucomisd	%xmm1, %xmm0
	jne	.LBB26_304
	jp	.LBB26_304
	jmp	.LBB26_306
.LBB26_304:                             # %lor.lhs.false866
	vxorps	%xmm0, %xmm0, %xmm0
	vucomisd	-48(%rbp), %xmm0
	ja	.LBB26_306
# %bb.305:                              # %lor.lhs.false869
	vmovsd	-48(%rbp), %xmm0        # xmm0 = mem[0],zero
	callq	sqrt
	vmovsd	m_X1, %xmm1             # xmm1 = mem[0],zero
	vmulsd	CurrentFrameMAD, %xmm1, %xmm1
	vsubsd	%xmm1, %xmm0, %xmm0
	vxorps	%xmm1, %xmm1, %xmm1
	vucomisd	%xmm0, %xmm1
	jb	.LBB26_307
.LBB26_306:                             # %if.then875
	vmovsd	m_X1, %xmm0             # xmm0 = mem[0],zero
	vmulsd	CurrentFrameMAD, %xmm0, %xmm0
	vcvtsi2sdl	-24(%rbp), %xmm0, %xmm1
	vdivsd	%xmm1, %xmm0, %xmm0
	vcvtsd2ss	%xmm0, %xmm0, %xmm0
	vcvtss2sd	%xmm0, %xmm0, %xmm0
	vmovsd	%xmm0, m_Qstep
	jmp	.LBB26_308
.LBB26_307:                             # %if.else881
	vmovsd	.LCPI26_1(%rip), %xmm0  # xmm0 = mem[0],zero
	vmulsd	m_X2, %xmm0, %xmm0
	vmulsd	CurrentFrameMAD, %xmm0, %xmm0
	vmovsd	%xmm0, -72(%rbp)        # 8-byte Spill
	vmovsd	-48(%rbp), %xmm0        # xmm0 = mem[0],zero
	callq	sqrt
	vmovsd	m_X1, %xmm1             # xmm1 = mem[0],zero
	vmulsd	CurrentFrameMAD, %xmm1, %xmm1
	vsubsd	%xmm1, %xmm0, %xmm0
	vmovsd	-72(%rbp), %xmm1        # 8-byte Reload
                                        # xmm1 = mem[0],zero
	vdivsd	%xmm0, %xmm1, %xmm0
	vcvtsd2ss	%xmm0, %xmm0, %xmm0
	vcvtss2sd	%xmm0, %xmm0, %xmm0
	vmovsd	%xmm0, m_Qstep
.LBB26_308:                             # %if.end890
	vmovsd	m_Qstep, %xmm0          # xmm0 = mem[0],zero
	callq	Qstep2QP
	movl	%eax, m_Qc
	movl	m_Qp, %eax
	addl	DDquant, %eax
	cmpl	m_Qc, %eax
	jge	.LBB26_310
# %bb.309:                              # %cond.true895
	movl	m_Qp, %eax
	addl	DDquant, %eax
	jmp	.LBB26_311
.LBB26_310:                             # %cond.false897
	movl	m_Qc, %eax
.LBB26_311:                             # %cond.end898
	movl	%eax, m_Qc
	movq	input, %rax
	movl	3248(%rax), %eax
	cmpl	MBPerRow, %eax
	jl	.LBB26_316
# %bb.312:                              # %if.then903
	movl	PAveFrameQP, %eax
	addl	$6, %eax
	cmpl	m_Qc, %eax
	jge	.LBB26_314
# %bb.313:                              # %cond.true907
	movl	PAveFrameQP, %eax
	addl	$6, %eax
	jmp	.LBB26_315
.LBB26_314:                             # %cond.false909
	movl	m_Qc, %eax
.LBB26_315:                             # %cond.end910
	movl	%eax, m_Qc
	jmp	.LBB26_320
.LBB26_316:                             # %if.else912
	movl	PAveFrameQP, %eax
	addl	$3, %eax
	cmpl	m_Qc, %eax
	jge	.LBB26_318
# %bb.317:                              # %cond.true916
	movl	PAveFrameQP, %eax
	addl	$3, %eax
	jmp	.LBB26_319
.LBB26_318:                             # %cond.false918
	movl	m_Qc, %eax
.LBB26_319:                             # %cond.end919
	movl	%eax, m_Qc
.LBB26_320:                             # %if.end921
	movl	m_Qc, %eax
	cmpl	RC_MAX_QUANT, %eax
	jge	.LBB26_322
# %bb.321:                              # %cond.true924
	movl	m_Qc, %eax
	jmp	.LBB26_323
.LBB26_322:                             # %cond.false925
	movl	RC_MAX_QUANT, %eax
.LBB26_323:                             # %cond.end926
	movl	%eax, m_Qc
	movl	m_Qp, %eax
	subl	DDquant, %eax
	cmpl	m_Qc, %eax
	jge	.LBB26_325
# %bb.324:                              # %cond.true931
	movl	m_Qc, %eax
	jmp	.LBB26_326
.LBB26_325:                             # %cond.false932
	movl	m_Qp, %eax
	subl	DDquant, %eax
.LBB26_326:                             # %cond.end934
	movl	%eax, m_Qc
	movq	input, %rax
	movl	3248(%rax), %eax
	cmpl	MBPerRow, %eax
	jl	.LBB26_331
# %bb.327:                              # %if.then939
	movl	PAveFrameQP, %eax
	subl	$6, %eax
	cmpl	m_Qc, %eax
	jge	.LBB26_329
# %bb.328:                              # %cond.true943
	movl	m_Qc, %eax
	jmp	.LBB26_330
.LBB26_329:                             # %cond.false944
	movl	PAveFrameQP, %eax
	subl	$6, %eax
.LBB26_330:                             # %cond.end946
	movl	%eax, m_Qc
	jmp	.LBB26_335
.LBB26_331:                             # %if.else948
	movl	PAveFrameQP, %eax
	subl	$3, %eax
	cmpl	m_Qc, %eax
	jge	.LBB26_333
# %bb.332:                              # %cond.true952
	movl	m_Qc, %eax
	jmp	.LBB26_334
.LBB26_333:                             # %cond.false953
	movl	PAveFrameQP, %eax
	subl	$3, %eax
.LBB26_334:                             # %cond.end955
	movl	%eax, m_Qc
.LBB26_335:                             # %if.end957
	movl	RC_MIN_QUANT, %eax
	cmpl	m_Qc, %eax
	jge	.LBB26_337
# %bb.336:                              # %cond.true960
	movl	m_Qc, %eax
	jmp	.LBB26_338
.LBB26_337:                             # %cond.false961
	movl	RC_MIN_QUANT, %eax
.LBB26_338:                             # %cond.end962
	movl	%eax, m_Qc
	movl	m_Qc, %eax
	addl	TotalFrameQP, %eax
	movl	%eax, TotalFrameQP
	movl	m_Qc, %eax
	movl	%eax, Pm_Qp
	movl	NumberofBasicUnit, %eax
	addl	$-1, %eax
	movl	%eax, NumberofBasicUnit
	cmpl	$0, NumberofBasicUnit
	jne	.LBB26_356
# %bb.339:                              # %land.lhs.true968
	movq	img, %rax
	cmpl	$0, 24(%rax)
	jne	.LBB26_356
# %bb.340:                              # %if.then972
	cmpl	$0, -36(%rbp)
	je	.LBB26_342
# %bb.341:                              # %lor.lhs.false974
	movq	img, %rax
	cmpl	$0, 72600(%rax)
	jne	.LBB26_355
.LBB26_342:                             # %if.then978
	movq	active_sps, %rax
	cmpl	$0, 1148(%rax)
	jne	.LBB26_344
# %bb.343:                              # %lor.lhs.false981
	movq	input, %rax
	cmpl	$1, 2880(%rax)
	jne	.LBB26_347
.LBB26_344:                             # %if.then985
	vmovsd	.LCPI26_2(%rip), %xmm0  # xmm0 = mem[0],zero
	vmovsd	.LCPI26_3(%rip), %xmm1  # xmm1 = mem[0],zero
	vcvtsi2sdl	TotalFrameQP, %xmm0, %xmm2
	vmulsd	%xmm2, %xmm1, %xmm1
	vcvtsi2sdl	TotalNumberofBasicUnit, %xmm0, %xmm2
	vdivsd	%xmm2, %xmm1, %xmm1
	vaddsd	%xmm0, %xmm1, %xmm0
	vcvttsd2si	%xmm0, %eax
	movl	%eax, -16(%rbp)
	movq	img, %rax
	movl	72576(%rax), %eax
	movq	input, %rcx
	movl	1224(%rcx), %ecx
	subl	$2, %ecx
	cmpl	%ecx, %eax
	jne	.LBB26_346
# %bb.345:                              # %if.then997
	movl	-16(%rbp), %eax
	movl	%eax, QPLastPFrame
.LBB26_346:                             # %if.end998
	movl	-16(%rbp), %eax
	movq	img, %rcx
	addl	72572(%rcx), %eax
	movl	%eax, 72572(%rcx)
	movl	PreviousQp2, %eax
	movl	%eax, PreviousQp1
	movl	-16(%rbp), %eax
	movl	%eax, PreviousQp2
	movl	-16(%rbp), %eax
	movl	%eax, PAveFrameQP
	movl	PAveHeaderBits2, %eax
	movl	%eax, PAveHeaderBits3
	jmp	.LBB26_354
.LBB26_347:                             # %if.else1001
	movq	input, %rax
	cmpl	$2, 2880(%rax)
	je	.LBB26_349
# %bb.348:                              # %lor.lhs.false1005
	movq	input, %rax
	cmpl	$0, 2884(%rax)
	je	.LBB26_353
.LBB26_349:                             # %if.then1008
	movq	img, %rax
	cmpl	$0, 72600(%rax)
	jne	.LBB26_351
# %bb.350:                              # %if.then1012
	vmovsd	.LCPI26_2(%rip), %xmm0  # xmm0 = mem[0],zero
	vmovsd	.LCPI26_3(%rip), %xmm1  # xmm1 = mem[0],zero
	vcvtsi2sdl	TotalFrameQP, %xmm0, %xmm2
	vmulsd	%xmm2, %xmm1, %xmm1
	vcvtsi2sdl	TotalNumberofBasicUnit, %xmm0, %xmm2
	vdivsd	%xmm2, %xmm1, %xmm1
	vaddsd	%xmm0, %xmm1, %xmm0
	vcvttsd2si	%xmm0, %eax
	movl	%eax, -16(%rbp)
	movl	-16(%rbp), %eax
	movl	%eax, FrameQPBuffer
	movl	PAveHeaderBits2, %eax
	movl	%eax, FrameAveHeaderBits
	jmp	.LBB26_352
.LBB26_351:                             # %if.else1019
	vmovsd	.LCPI26_2(%rip), %xmm0  # xmm0 = mem[0],zero
	vmovsd	.LCPI26_3(%rip), %xmm1  # xmm1 = mem[0],zero
	vcvtsi2sdl	TotalFrameQP, %xmm0, %xmm2
	vmulsd	%xmm2, %xmm1, %xmm1
	vcvtsi2sdl	TotalNumberofBasicUnit, %xmm0, %xmm2
	vdivsd	%xmm2, %xmm1, %xmm1
	vaddsd	%xmm0, %xmm1, %xmm0
	vcvttsd2si	%xmm0, %eax
	movl	%eax, -16(%rbp)
	movl	-16(%rbp), %eax
	movl	%eax, FieldQPBuffer
	movl	PAveHeaderBits2, %eax
	movl	%eax, FieldAveHeaderBits
.LBB26_352:                             # %if.end1026
	jmp	.LBB26_353
.LBB26_353:                             # %if.end1027
	jmp	.LBB26_354
.LBB26_354:                             # %if.end1028
	jmp	.LBB26_355
.LBB26_355:                             # %if.end1029
	jmp	.LBB26_356
.LBB26_356:                             # %if.end1030
	movl	m_Qc, %eax
	movl	%eax, -20(%rbp)
	jmp	.LBB26_363
.LBB26_357:                             # %if.end1031
	jmp	.LBB26_358
.LBB26_358:                             # %if.end1032
	jmp	.LBB26_359
.LBB26_359:                             # %if.end1033
	jmp	.LBB26_360
.LBB26_360:                             # %if.end1034
	jmp	.LBB26_361
.LBB26_361:                             # %if.end1035
	jmp	.LBB26_362
.LBB26_362:                             # %if.end1036
	movl	m_Qc, %eax
	movl	%eax, -20(%rbp)
.LBB26_363:                             # %return
	movl	-20(%rbp), %ebx
	cmpl	$1260488988, -56(%rbp)  # imm = 0x4B21891C
	jne	.LBB26_365
.LBB26_364:
	movl	%ebx, %eax
	addq	$72, %rsp
	popq	%rbx
	popq	%rbp
	.cfi_def_cfa %rsp, 8
	retq
.LBB26_365:                             # %func_exit
	.cfi_def_cfa %rbp, 16
	callq	detect_breach
	jmp	.LBB26_364
.Lfunc_end26:
	.size	updateQuantizationParameter.10, .Lfunc_end26-updateQuantizationParameter.10
	.cfi_endproc
                                        # -- End function
	.section	.rodata.cst8,"aM",@progbits,8
	.p2align	3               # -- Begin function updateMADModel.11
.LCPI27_0:
	.quad	4626322717216342016     # double 20
	.section	.rodata.cst16,"aM",@progbits,16
	.p2align	4
.LCPI27_1:
	.quad	9223372036854775807     # double NaN
	.quad	9223372036854775807     # double NaN
	.text
	.globl	updateMADModel.11
	.p2align	4, 0x90
	.type	updateMADModel.11,@function
updateMADModel.11:                      # @updateMADModel.11
	.cfi_startproc
# %bb.0:                                # %entry
	pushq	%rbp
	.cfi_def_cfa_offset 16
	.cfi_offset %rbp, -16
	movq	%rsp, %rbp
	.cfi_def_cfa_register %rbp
	subq	$208, %rsp
	movl	$1784535206, -28(%rbp)  # imm = 0x6A5DD8A6
	vxorps	%xmm0, %xmm0, %xmm0
	vmovsd	%xmm0, -24(%rbp)
	movq	img, %rax
	cmpl	$0, 72564(%rax)
	jle	.LBB27_51
# %bb.1:                                # %if.then
	movq	img, %rax
	movl	72620(%rax), %eax
	movq	img, %rcx
	cmpl	72608(%rcx), %eax
	jne	.LBB27_3
# %bb.2:                                # %if.then2
	movq	img, %rax
	movl	72564(%rax), %eax
	movl	%eax, -12(%rbp)
	jmp	.LBB27_4
.LBB27_3:                               # %if.else
	movq	img, %rax
	movl	72564(%rax), %eax
	imull	TotalNumberofBasicUnit, %eax
	addl	CodedBasicUnit, %eax
	movl	%eax, -12(%rbp)
.LBB27_4:                               # %if.end
	movl	$19, -4(%rbp)
.LBB27_5:                               # %for.cond
                                        # =>This Inner Loop Header: Depth=1
	cmpl	$0, -4(%rbp)
	jle	.LBB27_8
# %bb.6:                                # %for.body
                                        #   in Loop: Header=BB27_5 Depth=1
	movl	-4(%rbp), %eax
	subl	$1, %eax
	cltq
	vmovsd	PPictureMAD(,%rax,8), %xmm0 # xmm0 = mem[0],zero
	movslq	-4(%rbp), %rax
	vmovsd	%xmm0, PPictureMAD(,%rax,8)
	movslq	-4(%rbp), %rax
	vmovsd	PPictureMAD(,%rax,8), %xmm0 # xmm0 = mem[0],zero
	movslq	-4(%rbp), %rax
	vmovsd	%xmm0, PictureMAD(,%rax,8)
	movl	-4(%rbp), %eax
	subl	$1, %eax
	cltq
	vmovsd	ReferenceMAD(,%rax,8), %xmm0 # xmm0 = mem[0],zero
	movslq	-4(%rbp), %rax
	vmovsd	%xmm0, ReferenceMAD(,%rax,8)
# %bb.7:                                # %for.inc
                                        #   in Loop: Header=BB27_5 Depth=1
	movl	-4(%rbp), %eax
	addl	$-1, %eax
	movl	%eax, -4(%rbp)
	jmp	.LBB27_5
.LBB27_8:                               # %for.end
	vmovsd	CurrentFrameMAD, %xmm0  # xmm0 = mem[0],zero
	vmovsd	%xmm0, PPictureMAD
	vmovsd	PPictureMAD, %xmm0      # xmm0 = mem[0],zero
	vmovsd	%xmm0, PictureMAD
	movq	img, %rax
	movl	72620(%rax), %eax
	movq	img, %rcx
	cmpl	72608(%rcx), %eax
	jne	.LBB27_10
# %bb.9:                                # %if.then20
	vmovsd	PictureMAD+8, %xmm0     # xmm0 = mem[0],zero
	vmovsd	%xmm0, ReferenceMAD
	jmp	.LBB27_16
.LBB27_10:                              # %if.else21
	movq	input, %rax
	cmpl	$2, 2880(%rax)
	je	.LBB27_12
# %bb.11:                               # %lor.lhs.false
	movq	input, %rax
	cmpl	$0, 2884(%rax)
	je	.LBB27_14
.LBB27_12:                              # %land.lhs.true
	movq	img, %rax
	cmpl	$1, 72600(%rax)
	jne	.LBB27_14
# %bb.13:                               # %if.then24
	movq	FCBUPFMAD, %rax
	movl	TotalNumberofBasicUnit, %ecx
	subl	$1, %ecx
	subl	NumberofBasicUnit, %ecx
	movslq	%ecx, %rcx
	vmovsd	(%rax,%rcx,8), %xmm0    # xmm0 = mem[0],zero
	vmovsd	%xmm0, ReferenceMAD
	jmp	.LBB27_15
.LBB27_14:                              # %if.else29
	movq	BUPFMAD, %rax
	movl	TotalNumberofBasicUnit, %ecx
	subl	$1, %ecx
	subl	NumberofBasicUnit, %ecx
	movslq	%ecx, %rcx
	vmovsd	(%rax,%rcx,8), %xmm0    # xmm0 = mem[0],zero
	vmovsd	%xmm0, ReferenceMAD
.LBB27_15:                              # %if.end34
	jmp	.LBB27_16
.LBB27_16:                              # %if.end35
	vmovsd	PMADPictureC1, %xmm0    # xmm0 = mem[0],zero
	vmovsd	%xmm0, MADPictureC1
	vmovsd	PMADPictureC2, %xmm0    # xmm0 = mem[0],zero
	vmovsd	%xmm0, MADPictureC2
	vmovsd	CurrentFrameMAD, %xmm0  # xmm0 = mem[0],zero
	vucomisd	PreviousFrameMAD, %xmm0
	jbe	.LBB27_18
# %bb.17:                               # %cond.true
	vmovsd	.LCPI27_0(%rip), %xmm0  # xmm0 = mem[0],zero
	vmovsd	PreviousFrameMAD, %xmm1 # xmm1 = mem[0],zero
	vdivsd	CurrentFrameMAD, %xmm1, %xmm1
	vmulsd	%xmm0, %xmm1, %xmm0
	vcvttsd2si	%xmm0, %eax
	jmp	.LBB27_19
.LBB27_18:                              # %cond.false
	vmovsd	.LCPI27_0(%rip), %xmm0  # xmm0 = mem[0],zero
	vmovsd	CurrentFrameMAD, %xmm1  # xmm1 = mem[0],zero
	vdivsd	PreviousFrameMAD, %xmm1, %xmm1
	vmulsd	%xmm0, %xmm1, %xmm0
	vcvttsd2si	%xmm0, %eax
.LBB27_19:                              # %cond.end
	movl	%eax, -8(%rbp)
	movl	-8(%rbp), %eax
	movl	-12(%rbp), %ecx
	subl	$1, %ecx
	cmpl	%ecx, %eax
	jge	.LBB27_21
# %bb.20:                               # %cond.true44
	movl	-8(%rbp), %eax
	jmp	.LBB27_22
.LBB27_21:                              # %cond.false45
	movl	-12(%rbp), %eax
	subl	$1, %eax
.LBB27_22:                              # %cond.end47
	movl	%eax, -8(%rbp)
	cmpl	$1, -8(%rbp)
	jge	.LBB27_24
# %bb.23:                               # %cond.true51
	movl	$1, %eax
	jmp	.LBB27_25
.LBB27_24:                              # %cond.false52
	movl	-8(%rbp), %eax
.LBB27_25:                              # %cond.end53
	movl	%eax, -8(%rbp)
	movl	-8(%rbp), %eax
	movl	MADm_windowSize, %ecx
	addl	$1, %ecx
	cmpl	%ecx, %eax
	jge	.LBB27_27
# %bb.26:                               # %cond.true58
	movl	-8(%rbp), %eax
	jmp	.LBB27_28
.LBB27_27:                              # %cond.false59
	movl	MADm_windowSize, %eax
	addl	$1, %eax
.LBB27_28:                              # %cond.end61
	movl	%eax, -8(%rbp)
	movl	$20, %eax
	cmpl	-8(%rbp), %eax
	jge	.LBB27_30
# %bb.29:                               # %cond.true65
	movl	$20, %eax
	jmp	.LBB27_31
.LBB27_30:                              # %cond.false66
	movl	-8(%rbp), %eax
.LBB27_31:                              # %cond.end67
	movl	%eax, -8(%rbp)
	movl	-8(%rbp), %eax
	movl	%eax, MADm_windowSize
	movl	$0, -4(%rbp)
.LBB27_32:                              # %for.cond69
                                        # =>This Inner Loop Header: Depth=1
	cmpl	$20, -4(%rbp)
	jge	.LBB27_35
# %bb.33:                               # %for.body72
                                        #   in Loop: Header=BB27_32 Depth=1
	movslq	-4(%rbp), %rax
	movl	$0, PictureRejected(,%rax,4)
# %bb.34:                               # %for.inc75
                                        #   in Loop: Header=BB27_32 Depth=1
	movl	-4(%rbp), %eax
	addl	$1, %eax
	movl	%eax, -4(%rbp)
	jmp	.LBB27_32
.LBB27_35:                              # %for.end76
	movq	img, %rax
	cmpl	$0, 24(%rax)
	jne	.LBB27_37
# %bb.36:                               # %if.then79
	vmovsd	CurrentFrameMAD, %xmm0  # xmm0 = mem[0],zero
	vmovsd	%xmm0, PreviousFrameMAD
.LBB27_37:                              # %if.end80
	movl	-8(%rbp), %edi
	callq	MADModelEstimator
	movl	$0, -4(%rbp)
.LBB27_38:                              # %for.cond81
                                        # =>This Inner Loop Header: Depth=1
	movl	-4(%rbp), %eax
	cmpl	-8(%rbp), %eax
	jge	.LBB27_41
# %bb.39:                               # %for.body84
                                        #   in Loop: Header=BB27_38 Depth=1
	vmovsd	MADPictureC1, %xmm0     # xmm0 = mem[0],zero
	movslq	-4(%rbp), %rax
	vmulsd	ReferenceMAD(,%rax,8), %xmm0, %xmm0
	vaddsd	MADPictureC2, %xmm0, %xmm0
	movslq	-4(%rbp), %rax
	vsubsd	PictureMAD(,%rax,8), %xmm0, %xmm0
	movslq	-4(%rbp), %rax
	vmovsd	%xmm0, -208(%rbp,%rax,8)
	movslq	-4(%rbp), %rax
	vmovsd	-208(%rbp,%rax,8), %xmm0 # xmm0 = mem[0],zero
	movslq	-4(%rbp), %rax
	vmulsd	-208(%rbp,%rax,8), %xmm0, %xmm0
	vaddsd	-24(%rbp), %xmm0, %xmm0
	vmovsd	%xmm0, -24(%rbp)
# %bb.40:                               # %for.inc100
                                        #   in Loop: Header=BB27_38 Depth=1
	movl	-4(%rbp), %eax
	addl	$1, %eax
	movl	%eax, -4(%rbp)
	jmp	.LBB27_38
.LBB27_41:                              # %for.end102
	cmpl	$2, -8(%rbp)
	jne	.LBB27_43
# %bb.42:                               # %cond.true105
	vxorps	%xmm0, %xmm0, %xmm0
	jmp	.LBB27_44
.LBB27_43:                              # %cond.false106
	vmovsd	-24(%rbp), %xmm0        # xmm0 = mem[0],zero
	vcvtsi2sdl	-8(%rbp), %xmm0, %xmm1
	vdivsd	%xmm1, %xmm0, %xmm0
	callq	sqrt
.LBB27_44:                              # %cond.end109
	vmovsd	%xmm0, -40(%rbp)
	movl	$0, -4(%rbp)
.LBB27_45:                              # %for.cond111
                                        # =>This Inner Loop Header: Depth=1
	movl	-4(%rbp), %eax
	cmpl	-8(%rbp), %eax
	jge	.LBB27_50
# %bb.46:                               # %for.body114
                                        #   in Loop: Header=BB27_45 Depth=1
	movslq	-4(%rbp), %rax
	vmovsd	-208(%rbp,%rax,8), %xmm0 # xmm0 = mem[0],zero
	vmovdqa	.LCPI27_1(%rip), %xmm1  # xmm1 = [NaN,NaN]
	vpand	%xmm1, %xmm0, %xmm0
	vucomisd	-40(%rbp), %xmm0
	jbe	.LBB27_48
# %bb.47:                               # %if.then119
                                        #   in Loop: Header=BB27_45 Depth=1
	movslq	-4(%rbp), %rax
	movl	$1, PictureRejected(,%rax,4)
.LBB27_48:                              # %if.end122
                                        #   in Loop: Header=BB27_45 Depth=1
	jmp	.LBB27_49
.LBB27_49:                              # %for.inc123
                                        #   in Loop: Header=BB27_45 Depth=1
	movl	-4(%rbp), %eax
	addl	$1, %eax
	movl	%eax, -4(%rbp)
	jmp	.LBB27_45
.LBB27_50:                              # %for.end125
	movl	$0, PictureRejected
	movl	-8(%rbp), %edi
	callq	MADModelEstimator
.LBB27_51:                              # %if.end126
	cmpl	$1784535206, -28(%rbp)  # imm = 0x6A5DD8A6
	jne	.LBB27_53
.LBB27_52:
	addq	$208, %rsp
	popq	%rbp
	.cfi_def_cfa %rsp, 8
	retq
.LBB27_53:                              # %func_exit
	.cfi_def_cfa %rbp, 16
	callq	detect_breach
	jmp	.LBB27_52
.Lfunc_end27:
	.size	updateMADModel.11, .Lfunc_end27-updateMADModel.11
	.cfi_endproc
                                        # -- End function
	.section	.rodata.cst8,"aM",@progbits,8
	.p2align	3               # -- Begin function rc_update_pict_frame.12
.LCPI28_0:
	.quad	4602678819172646912     # double 0.5
.LCPI28_1:
	.quad	4608819927624529320     # double 1.3635999999999999
	.text
	.globl	rc_update_pict_frame.12
	.p2align	4, 0x90
	.type	rc_update_pict_frame.12,@function
rc_update_pict_frame.12:                # @rc_update_pict_frame.12
	.cfi_startproc
# %bb.0:                                # %entry
	pushq	%rbp
	.cfi_def_cfa_offset 16
	.cfi_offset %rbp, -16
	movq	%rsp, %rbp
	.cfi_def_cfa_register %rbp
	subq	$16, %rsp
	movl	$1819784339, -12(%rbp)  # imm = 0x6C77B493
	movl	%edi, -8(%rbp)
	movl	$0, -4(%rbp)
	movq	img, %rax
	movl	72620(%rax), %eax
	movq	img, %rcx
	cmpl	72608(%rcx), %eax
	jne	.LBB28_2
# %bb.1:                                # %if.then
	vmovsd	.LCPI28_0(%rip), %xmm0  # xmm0 = mem[0],zero
	movl	-8(%rbp), %eax
	imull	m_Qc, %eax
	vcvtsi2sd	%eax, %xmm0, %xmm1
	vaddsd	%xmm0, %xmm1, %xmm0
	vroundsd	$9, %xmm0, %xmm0, %xmm0
	vcvttsd2si	%xmm0, %eax
	movl	%eax, -4(%rbp)
	jmp	.LBB28_12
.LBB28_2:                               # %if.else
	movq	img, %rax
	cmpl	$0, 24(%rax)
	jne	.LBB28_8
# %bb.3:                                # %if.then4
	movq	img, %rax
	cmpl	$0, 72612(%rax)
	jne	.LBB28_5
# %bb.4:                                # %land.lhs.true
	movq	img, %rax
	cmpl	$1, 72600(%rax)
	je	.LBB28_6
.LBB28_5:                               # %lor.lhs.false
	movq	img, %rax
	cmpl	$0, 72600(%rax)
	jne	.LBB28_7
.LBB28_6:                               # %if.then12
	vmovsd	.LCPI28_0(%rip), %xmm0  # xmm0 = mem[0],zero
	movl	TotalFrameQP, %eax
	cltd
	idivl	TotalNumberofBasicUnit
	movl	%eax, -16(%rbp)
	movl	-8(%rbp), %eax
	imull	-16(%rbp), %eax
	vcvtsi2sd	%eax, %xmm0, %xmm1
	vaddsd	%xmm0, %xmm1, %xmm0
	vroundsd	$9, %xmm0, %xmm0, %xmm0
	vcvttsd2si	%xmm0, %eax
	movl	%eax, -4(%rbp)
.LBB28_7:                               # %if.end
	jmp	.LBB28_11
.LBB28_8:                               # %if.else17
	movq	img, %rax
	cmpl	$1, 24(%rax)
	jne	.LBB28_10
# %bb.9:                                # %if.then21
	vmovsd	.LCPI28_0(%rip), %xmm0  # xmm0 = mem[0],zero
	movl	-8(%rbp), %eax
	imull	m_Qc, %eax
	vcvtsi2sd	%eax, %xmm0, %xmm1
	vaddsd	%xmm0, %xmm1, %xmm0
	vroundsd	$9, %xmm0, %xmm0, %xmm0
	vcvttsd2si	%xmm0, %eax
	movl	%eax, -4(%rbp)
.LBB28_10:                              # %if.end26
	jmp	.LBB28_11
.LBB28_11:                              # %if.end27
	jmp	.LBB28_12
.LBB28_12:                              # %if.end28
	movq	img(%rip), %rax
	movl	24(%rax), %eax
	testl	%eax, %eax
	je	.LBB28_14
	jmp	.LBB28_13
.LBB28_13:                              # %if.end28
	subl	$1, %eax
	je	.LBB28_23
	jmp	.LBB28_24
.LBB28_14:                              # %sw.bb
	movq	img, %rax
	cmpl	$0, 72612(%rax)
	jne	.LBB28_16
# %bb.15:                               # %land.lhs.true33
	movq	img, %rax
	cmpl	$1, 72600(%rax)
	je	.LBB28_17
.LBB28_16:                              # %lor.lhs.false37
	movq	img, %rax
	cmpl	$0, 72600(%rax)
	jne	.LBB28_18
.LBB28_17:                              # %if.then41
	movl	-4(%rbp), %eax
	movl	%eax, Xp
	movl	Np, %eax
	addl	$-1, %eax
	movl	%eax, Np
	vcvtsi2sdl	Xp, %xmm0, %xmm0
	vmovsd	%xmm0, Wp
	movq	img, %rax
	movl	72524(%rax), %eax
	movl	%eax, Pm_Hp
	movq	img, %rax
	movl	72564(%rax), %ecx
	addl	$1, %ecx
	movl	%ecx, 72564(%rax)
	movq	img, %rax
	movl	72576(%rax), %ecx
	addl	$1, %ecx
	movl	%ecx, 72576(%rax)
	jmp	.LBB28_22
.LBB28_18:                              # %if.else44
	movq	img, %rax
	cmpl	$0, 72612(%rax)
	je	.LBB28_21
# %bb.19:                               # %land.lhs.true48
	movq	img, %rax
	cmpl	$1, 72600(%rax)
	jne	.LBB28_21
# %bb.20:                               # %if.then52
	movq	img, %rax
	movl	$0, 72612(%rax)
.LBB28_21:                              # %if.end54
	jmp	.LBB28_22
.LBB28_22:                              # %if.end55
	jmp	.LBB28_24
.LBB28_23:                              # %sw.bb56
	vmovsd	.LCPI28_1(%rip), %xmm0  # xmm0 = mem[0],zero
	movl	-4(%rbp), %eax
	movl	%eax, Xb
	movl	Nb, %eax
	addl	$-1, %eax
	movl	%eax, Nb
	vcvtsi2sdl	Xb, %xmm0, %xmm1
	vdivsd	%xmm0, %xmm1, %xmm0
	vmovsd	%xmm0, Wb
	movq	img, %rax
	movl	72560(%rax), %ecx
	addl	$1, %ecx
	movl	%ecx, 72560(%rax)
	movl	NumberofBFrames, %eax
	addl	$1, %eax
	movl	%eax, NumberofBFrames
.LBB28_24:                              # %sw.epilog
	cmpl	$1819784339, -12(%rbp)  # imm = 0x6C77B493
	jne	.LBB28_26
.LBB28_25:
	addq	$16, %rsp
	popq	%rbp
	.cfi_def_cfa %rsp, 8
	retq
.LBB28_26:                              # %func_exit
	.cfi_def_cfa %rbp, 16
	callq	detect_breach
	jmp	.LBB28_25
.Lfunc_end28:
	.size	rc_update_pict_frame.12, .Lfunc_end28-rc_update_pict_frame.12
	.cfi_endproc
                                        # -- End function
	.section	.rodata.cst8,"aM",@progbits,8
	.p2align	3               # -- Begin function rc_init_GOP.13
.LCPI29_0:
	.quad	4602678819172646912     # double 0.5
.LCPI29_1:
	.quad	4624633867356078080     # double 15
.LCPI29_2:
	.quad	4607182418800017408     # double 1
	.text
	.globl	rc_init_GOP.13
	.p2align	4, 0x90
	.type	rc_init_GOP.13,@function
rc_init_GOP.13:                         # @rc_init_GOP.13
	.cfi_startproc
# %bb.0:                                # %entry
	pushq	%rbp
	.cfi_def_cfa_offset 16
	.cfi_offset %rbp, -16
	movq	%rsp, %rbp
	.cfi_def_cfa_register %rbp
	subq	$32, %rsp
	movl	$1119495279, -28(%rbp)  # imm = 0x42BA246F
	movl	%edi, -4(%rbp)
	movl	%esi, -8(%rbp)
	movl	$0, -20(%rbp)
	cmpl	$0, R
	jge	.LBB29_2
# %bb.1:                                # %if.then
	movl	$1, -20(%rbp)
.LBB29_2:                               # %if.end
	vmovsd	.LCPI29_0(%rip), %xmm0  # xmm0 = mem[0],zero
	xorl	%eax, %eax
	subl	R, %eax
	movl	%eax, -24(%rbp)
	vcvtsi2sdl	R, %xmm0, %xmm1
	vmovsd	bit_rate, %xmm2         # xmm2 = mem[0],zero
	vdivsd	frame_rate, %xmm2, %xmm2
	vaddsd	%xmm2, %xmm1, %xmm1
	vcvttsd2si	%xmm1, %rax
	movq	%rax, LowerBound
	vcvtsi2sdl	R, %xmm0, %xmm1
	vaddsd	InitialDelayOffset, %xmm1, %xmm1
	vcvttsd2si	%xmm1, %rax
	movq	%rax, UpperBound1
	movl	-4(%rbp), %eax
	addl	$1, %eax
	addl	-8(%rbp), %eax
	vcvtsi2sd	%eax, %xmm0, %xmm1
	vmulsd	bit_rate, %xmm1, %xmm1
	vdivsd	frame_rate, %xmm1, %xmm1
	vaddsd	%xmm0, %xmm1, %xmm1
	vroundsd	$9, %xmm1, %xmm0, %xmm1
	vcvttsd2si	%xmm1, %eax
	movl	%eax, -16(%rbp)
	movl	-16(%rbp), %eax
	addl	R, %eax
	movl	%eax, R
	movl	-4(%rbp), %eax
	movl	%eax, Np
	movl	-8(%rbp), %eax
	movl	%eax, Nb
	movl	-24(%rbp), %eax
	shll	$3, %eax
	cltd
	idivl	-16(%rbp)
	vcvtsi2sd	%eax, %xmm0, %xmm1
	vaddsd	%xmm0, %xmm1, %xmm0
	vcvttsd2si	%xmm0, %eax
	movl	%eax, -32(%rbp)
	movl	$0, GOPOverdue
	movq	img, %rax
	movl	$1, 72612(%rax)
	movl	-4(%rbp), %eax
	movl	%eax, TotalPFrame
	movq	img, %rax
	movl	72568(%rax), %ecx
	addl	$1, %ecx
	movl	%ecx, 72568(%rax)
	movq	img, %rax
	cmpl	$1, 72568(%rax)
	jne	.LBB29_4
# %bb.3:                                # %if.then20
	movq	input, %rax
	movl	3244(%rax), %eax
	movl	%eax, MyInitialQp
	movl	MyInitialQp, %eax
	subl	$1, %eax
	movl	%eax, PreviousQp2
	movl	MyInitialQp, %eax
	movl	%eax, QPLastGOP
	jmp	.LBB29_27
.LBB29_4:                               # %if.else
	movq	input, %rax
	cmpl	$2, 2880(%rax)
	je	.LBB29_6
# %bb.5:                                # %lor.lhs.false
	movq	input, %rax
	cmpl	$0, 2884(%rax)
	je	.LBB29_10
.LBB29_6:                               # %if.then24
	movq	img, %rax
	cmpl	$1, 72604(%rax)
	jne	.LBB29_8
# %bb.7:                                # %if.then27
	movl	FrameQPBuffer, %eax
	movq	img, %rcx
	addl	72572(%rcx), %eax
	movl	%eax, 72572(%rcx)
	movl	FrameQPBuffer, %eax
	movl	%eax, QPLastPFrame
	jmp	.LBB29_9
.LBB29_8:                               # %if.else29
	movl	FieldQPBuffer, %eax
	movq	img, %rcx
	addl	72572(%rcx), %eax
	movl	%eax, 72572(%rcx)
	movl	FieldQPBuffer, %eax
	movl	%eax, QPLastPFrame
.LBB29_9:                               # %if.end32
	jmp	.LBB29_10
.LBB29_10:                              # %if.end33
	vmovsd	.LCPI29_0(%rip), %xmm0  # xmm0 = mem[0],zero
	vmovsd	.LCPI29_1(%rip), %xmm1  # xmm1 = mem[0],zero
	vmovsd	.LCPI29_2(%rip), %xmm2  # xmm2 = mem[0],zero
	movq	img, %rax
	vcvtsi2sdl	72572(%rax), %xmm0, %xmm3
	vmulsd	%xmm3, %xmm2, %xmm3
	movq	img, %rax
	vcvtsi2sdl	72576(%rax), %xmm0, %xmm4
	vdivsd	%xmm4, %xmm3, %xmm3
	vaddsd	%xmm0, %xmm3, %xmm3
	vcvttsd2si	%xmm3, %eax
	movl	%eax, PAverageQp
	movl	-4(%rbp), %eax
	addl	-8(%rbp), %eax
	addl	$1, %eax
	vcvtsi2sd	%eax, %xmm0, %xmm3
	vmulsd	%xmm3, %xmm2, %xmm2
	vdivsd	%xmm1, %xmm2, %xmm1
	vaddsd	%xmm1, %xmm0, %xmm0
	vcvttsd2si	%xmm0, %eax
	movl	%eax, -12(%rbp)
	cmpl	$2, -12(%rbp)
	jle	.LBB29_12
# %bb.11:                               # %if.then50
	movl	$2, -12(%rbp)
.LBB29_12:                              # %if.end51
	movl	-12(%rbp), %eax
	movl	PAverageQp, %ecx
	subl	%eax, %ecx
	movl	%ecx, PAverageQp
	movl	PAverageQp, %eax
	movl	QPLastPFrame, %ecx
	subl	$2, %ecx
	cmpl	%ecx, %eax
	jle	.LBB29_14
# %bb.13:                               # %if.then56
	movl	PAverageQp, %eax
	addl	$-1, %eax
	movl	%eax, PAverageQp
.LBB29_14:                              # %if.end57
	movl	QPLastGOP, %eax
	subl	$2, %eax
	cmpl	PAverageQp, %eax
	jge	.LBB29_16
# %bb.15:                               # %cond.true
	movl	PAverageQp, %eax
	jmp	.LBB29_17
.LBB29_16:                              # %cond.false
	movl	QPLastGOP, %eax
	subl	$2, %eax
.LBB29_17:                              # %cond.end
	movl	%eax, PAverageQp
	movl	QPLastGOP, %eax
	addl	$2, %eax
	cmpl	PAverageQp, %eax
	jge	.LBB29_19
# %bb.18:                               # %cond.true65
	movl	QPLastGOP, %eax
	addl	$2, %eax
	jmp	.LBB29_20
.LBB29_19:                              # %cond.false67
	movl	PAverageQp, %eax
.LBB29_20:                              # %cond.end68
	movl	%eax, PAverageQp
	movl	RC_MAX_QUANT, %eax
	cmpl	PAverageQp, %eax
	jge	.LBB29_22
# %bb.21:                               # %cond.true72
	movl	RC_MAX_QUANT, %eax
	jmp	.LBB29_23
.LBB29_22:                              # %cond.false73
	movl	PAverageQp, %eax
.LBB29_23:                              # %cond.end74
	movl	%eax, PAverageQp
	movl	RC_MIN_QUANT, %eax
	cmpl	PAverageQp, %eax
	jge	.LBB29_25
# %bb.24:                               # %cond.true78
	movl	PAverageQp, %eax
	jmp	.LBB29_26
.LBB29_25:                              # %cond.false79
	movl	RC_MIN_QUANT, %eax
.LBB29_26:                              # %cond.end80
	movl	%eax, PAverageQp
	movl	PAverageQp, %eax
	movl	%eax, MyInitialQp
	movl	MyInitialQp, %eax
	movl	%eax, QPLastGOP
	movl	PAverageQp, %eax
	movl	%eax, Pm_Qp
	movl	PAverageQp, %eax
	movl	%eax, PAveFrameQP
	movl	PreviousQp2, %eax
	movl	%eax, PreviousQp1
	movl	MyInitialQp, %eax
	subl	$1, %eax
	movl	%eax, PreviousQp2
.LBB29_27:                              # %if.end83
	movq	img, %rax
	movl	$0, 72572(%rax)
	movq	img, %rax
	movl	$0, 72576(%rax)
	movl	$0, NumberofBFrames
	cmpl	$1119495279, -28(%rbp)  # imm = 0x42BA246F
	jne	.LBB29_29
.LBB29_28:
	addq	$32, %rsp
	popq	%rbp
	.cfi_def_cfa %rsp, 8
	retq
.LBB29_29:                              # %func_exit
	.cfi_def_cfa %rbp, 16
	callq	detect_breach
	jmp	.LBB29_28
.Lfunc_end29:
	.size	rc_init_GOP.13, .Lfunc_end29-rc_init_GOP.13
	.cfi_endproc
                                        # -- End function
	.section	.rodata.cst8,"aM",@progbits,8
	.p2align	3               # -- Begin function MADModelEstimator.14
.LCPI30_0:
	.quad	4517329193108106637     # double 9.9999999999999995E-7
.LCPI30_2:
	.quad	4607182418800017408     # double 1
	.section	.rodata.cst16,"aM",@progbits,16
	.p2align	4
.LCPI30_1:
	.quad	9223372036854775807     # double NaN
	.quad	9223372036854775807     # double NaN
	.text
	.globl	MADModelEstimator.14
	.p2align	4, 0x90
	.type	MADModelEstimator.14,@function
MADModelEstimator.14:                   # @MADModelEstimator.14
	.cfi_startproc
# %bb.0:                                # %entry
	pushq	%rbp
	.cfi_def_cfa_offset 16
	.cfi_offset %rbp, -16
	movq	%rsp, %rbp
	.cfi_def_cfa_register %rbp
	subq	$96, %rsp
	movl	$1223858396, -84(%rbp)  # imm = 0x48F298DC
	movl	%edi, -8(%rbp)
	movl	-8(%rbp), %eax
	movl	%eax, -12(%rbp)
	vxorps	%xmm0, %xmm0, %xmm0
	vmovsd	%xmm0, -48(%rbp)
	vmovsd	%xmm0, -24(%rbp)
	vmovsd	%xmm0, -72(%rbp)
	vmovsd	%xmm0, -64(%rbp)
	vmovsd	%xmm0, -32(%rbp)
	vmovsd	%xmm0, -56(%rbp)
	movl	$0, -36(%rbp)
	movl	$0, -4(%rbp)
.LBB30_1:                               # %for.cond
                                        # =>This Inner Loop Header: Depth=1
	movl	-4(%rbp), %eax
	cmpl	-8(%rbp), %eax
	jge	.LBB30_6
# %bb.2:                                # %for.body
                                        #   in Loop: Header=BB30_1 Depth=1
	movslq	-4(%rbp), %rax
	cmpl	$0, PictureRejected(,%rax,4)
	je	.LBB30_4
# %bb.3:                                # %if.then
                                        #   in Loop: Header=BB30_1 Depth=1
	movl	-12(%rbp), %eax
	addl	$-1, %eax
	movl	%eax, -12(%rbp)
.LBB30_4:                               # %if.end
                                        #   in Loop: Header=BB30_1 Depth=1
	jmp	.LBB30_5
.LBB30_5:                               # %for.inc
                                        #   in Loop: Header=BB30_1 Depth=1
	movl	-4(%rbp), %eax
	addl	$1, %eax
	movl	%eax, -4(%rbp)
	jmp	.LBB30_1
.LBB30_6:                               # %for.end
	vxorps	%xmm0, %xmm0, %xmm0
	vmovsd	%xmm0, MADPictureC2
	vmovsd	%xmm0, MADPictureC1
	movl	$0, -4(%rbp)
.LBB30_7:                               # %for.cond1
                                        # =>This Inner Loop Header: Depth=1
	movl	-4(%rbp), %eax
	cmpl	-8(%rbp), %eax
	jge	.LBB30_12
# %bb.8:                                # %for.body3
                                        #   in Loop: Header=BB30_7 Depth=1
	movslq	-4(%rbp), %rax
	cmpl	$0, PictureRejected(,%rax,4)
	jne	.LBB30_10
# %bb.9:                                # %if.then7
                                        #   in Loop: Header=BB30_7 Depth=1
	movslq	-4(%rbp), %rax
	vmovsd	PictureMAD(,%rax,8), %xmm0 # xmm0 = mem[0],zero
	vmovsd	%xmm0, -96(%rbp)
.LBB30_10:                              # %if.end10
                                        #   in Loop: Header=BB30_7 Depth=1
	jmp	.LBB30_11
.LBB30_11:                              # %for.inc11
                                        #   in Loop: Header=BB30_7 Depth=1
	movl	-4(%rbp), %eax
	addl	$1, %eax
	movl	%eax, -4(%rbp)
	jmp	.LBB30_7
.LBB30_12:                              # %for.end13
	movl	$0, -4(%rbp)
.LBB30_13:                              # %for.cond14
                                        # =>This Inner Loop Header: Depth=1
	movl	-4(%rbp), %eax
	cmpl	-8(%rbp), %eax
	jge	.LBB30_21
# %bb.14:                               # %for.body16
                                        #   in Loop: Header=BB30_13 Depth=1
	movslq	-4(%rbp), %rax
	vmovsd	PictureMAD(,%rax,8), %xmm0 # xmm0 = mem[0],zero
	vucomisd	-96(%rbp), %xmm0
	jne	.LBB30_15
	jp	.LBB30_15
	jmp	.LBB30_17
