	.text
	.file	"ratectl.c"
	.globl	rc_alloc                # -- Begin function rc_alloc
	.p2align	4, 0x90
	.type	rc_alloc,@function
rc_alloc:                               # @rc_alloc
	.cfi_startproc
# %bb.0:                                # %entry
	pushq	%rbp
	.cfi_def_cfa_offset 16
	.cfi_offset %rbp, -16
	movq	%rsp, %rbp
	.cfi_def_cfa_register %rbp
	movq	img, %rax
	movl	72488(%rax), %edi
	movl	$8, %esi
	callq	calloc
	xorl	%ecx, %ecx
	movq	img, %rdx
	movq	%rax, 72584(%rdx)
	movq	img, %rax
	cmpq	72584(%rax), %rcx
	jne	.LBB0_2
# %bb.1:                                # %if.then
	movabsq	$.L.str, %rdi
	callq	no_mem_exit
.LBB0_2:                                # %if.end
	movq	img, %rax
	movl	72488(%rax), %eax
	movq	input, %rcx
	xorl	%edx, %edx
	divl	3248(%rcx)
	movl	%eax, %edi
	movl	$8, %esi
	callq	calloc
	xorl	%ecx, %ecx
	movq	%rax, BUPFMAD
	cmpq	BUPFMAD, %rcx
	jne	.LBB0_4
# %bb.3:                                # %if.then8
	movabsq	$.L.str.1, %rdi
	callq	no_mem_exit
.LBB0_4:                                # %if.end9
	movq	img, %rax
	movl	72488(%rax), %eax
	movq	input, %rcx
	xorl	%edx, %edx
	divl	3248(%rcx)
	movl	%eax, %edi
	movl	$8, %esi
	callq	calloc
	xorl	%ecx, %ecx
	movq	%rax, BUCFMAD
	cmpq	BUCFMAD, %rcx
	jne	.LBB0_6
# %bb.5:                                # %if.then17
	movabsq	$.L.str.2, %rdi
	callq	no_mem_exit
.LBB0_6:                                # %if.end18
	movq	img, %rax
	movl	72488(%rax), %eax
	movq	input, %rcx
	xorl	%edx, %edx
	divl	3248(%rcx)
	movl	%eax, %edi
	movl	$8, %esi
	callq	calloc
	xorl	%ecx, %ecx
	movq	%rax, FCBUCFMAD
	cmpq	FCBUCFMAD, %rcx
	jne	.LBB0_8
# %bb.7:                                # %if.then26
	movabsq	$.L.str.3, %rdi
	callq	no_mem_exit
.LBB0_8:                                # %if.end27
	movq	img, %rax
	movl	72488(%rax), %eax
	movq	input, %rcx
	xorl	%edx, %edx
	divl	3248(%rcx)
	movl	%eax, %edi
	movl	$8, %esi
	callq	calloc
	xorl	%ecx, %ecx
	movq	%rax, FCBUPFMAD
	cmpq	FCBUPFMAD, %rcx
	jne	.LBB0_10
# %bb.9:                                # %if.then35
	movabsq	$.L.str.4, %rdi
	callq	no_mem_exit
.LBB0_10:                               # %if.end36
	popq	%rbp
	.cfi_def_cfa %rsp, 8
	retq
.Lfunc_end0:
	.size	rc_alloc, .Lfunc_end0-rc_alloc
	.cfi_endproc
                                        # -- End function
	.globl	rc_free                 # -- Begin function rc_free
	.p2align	4, 0x90
	.type	rc_free,@function
rc_free:                                # @rc_free
	.cfi_startproc
# %bb.0:                                # %entry
	pushq	%rbp
	.cfi_def_cfa_offset 16
	.cfi_offset %rbp, -16
	movq	%rsp, %rbp
	.cfi_def_cfa_register %rbp
	xorl	%eax, %eax
	movq	img, %rcx
	cmpq	72584(%rcx), %rax
	je	.LBB1_2
# %bb.1:                                # %if.then
	movq	img, %rax
	movq	72584(%rax), %rdi
	callq	free
	movq	img, %rax
	movq	$0, 72584(%rax)
.LBB1_2:                                # %if.end
	xorl	%eax, %eax
	cmpq	BUPFMAD, %rax
	je	.LBB1_4
# %bb.3:                                # %if.then4
	movq	BUPFMAD, %rdi
	callq	free
	movq	$0, BUPFMAD
.LBB1_4:                                # %if.end5
	xorl	%eax, %eax
	cmpq	BUCFMAD, %rax
	je	.LBB1_6
# %bb.5:                                # %if.then7
	movq	BUCFMAD, %rdi
	callq	free
	movq	$0, BUCFMAD
.LBB1_6:                                # %if.end8
	xorl	%eax, %eax
	cmpq	FCBUCFMAD, %rax
	je	.LBB1_8
# %bb.7:                                # %if.then10
	movq	FCBUCFMAD, %rdi
	callq	free
	movq	$0, FCBUCFMAD
.LBB1_8:                                # %if.end11
	xorl	%eax, %eax
	cmpq	FCBUPFMAD, %rax
	je	.LBB1_10
# %bb.9:                                # %if.then13
	movq	FCBUPFMAD, %rdi
	callq	free
	movq	$0, FCBUPFMAD
.LBB1_10:                               # %if.end14
	popq	%rbp
	.cfi_def_cfa %rsp, 8
	retq
.Lfunc_end1:
	.size	rc_free, .Lfunc_end1-rc_free
	.cfi_endproc
                                        # -- End function
	.globl	rc_init_seq             # -- Begin function rc_init_seq
	.p2align	4, 0x90
	.type	rc_init_seq,@function
rc_init_seq:                            # @rc_init_seq
	.cfi_startproc
# %bb.0:                                # %rand_bb
	pushq	%rbp
	.cfi_def_cfa_offset 16
	.cfi_offset %rbp, -16
	movq	%rsp, %rbp
	.cfi_def_cfa_register %rbp
	callq	get_urand
	cmpl	$0, %eax
	jne	.LBB2_9
# %bb.1:                                # %func_rc_init_seq.9
	callq	rc_init_seq.9
	popq	%rbp
	.cfi_def_cfa %rsp, 8
	retq
.LBB2_2:                                # %func_rc_init_seq.17
	.cfi_def_cfa %rbp, 16
	callq	rc_init_seq.17
	popq	%rbp
	.cfi_def_cfa %rsp, 8
	retq
.LBB2_3:                                # %func_rc_init_seq.38
	.cfi_def_cfa %rbp, 16
	callq	rc_init_seq.38
	popq	%rbp
	.cfi_def_cfa %rsp, 8
	retq
.LBB2_4:                                # %func_rc_init_seq.47
	.cfi_def_cfa %rbp, 16
	callq	rc_init_seq.47
	popq	%rbp
	.cfi_def_cfa %rsp, 8
	retq
.LBB2_5:                                # %func_rc_init_seq.73
	.cfi_def_cfa %rbp, 16
	callq	rc_init_seq.73
	popq	%rbp
	.cfi_def_cfa %rsp, 8
	retq
.LBB2_6:                                # %func_rc_init_seq.76
	.cfi_def_cfa %rbp, 16
	callq	rc_init_seq.76
	popq	%rbp
	.cfi_def_cfa %rsp, 8
	retq
.LBB2_7:                                # %func_rc_init_seq.80
	.cfi_def_cfa %rbp, 16
	callq	rc_init_seq.80
	popq	%rbp
	.cfi_def_cfa %rsp, 8
	retq
.LBB2_8:                                # %func_rc_init_seq.82
	.cfi_def_cfa %rbp, 16
	callq	rc_init_seq.82
	popq	%rbp
	.cfi_def_cfa %rsp, 8
	retq
.LBB2_9:                                # %ctrl0
	.cfi_def_cfa %rbp, 16
	cmpl	$1, %eax
	je	.LBB2_2
# %bb.10:                               # %ctrl1
	cmpl	$2, %eax
	je	.LBB2_3
# %bb.11:                               # %ctrl2
	cmpl	$3, %eax
	je	.LBB2_4
# %bb.12:                               # %ctrl3
	cmpl	$4, %eax
	je	.LBB2_5
# %bb.13:                               # %ctrl4
	cmpl	$5, %eax
	je	.LBB2_6
# %bb.14:                               # %ctrl5
	cmpl	$6, %eax
	je	.LBB2_7
	jmp	.LBB2_8
.Lfunc_end2:
	.size	rc_init_seq, .Lfunc_end2-rc_init_seq
	.cfi_endproc
                                        # -- End function
	.globl	rc_init_GOP             # -- Begin function rc_init_GOP
	.p2align	4, 0x90
	.type	rc_init_GOP,@function
rc_init_GOP:                            # @rc_init_GOP
	.cfi_startproc
# %bb.0:                                # %rand_bb
	pushq	%rbp
	.cfi_def_cfa_offset 16
	.cfi_offset %rbp, -16
	movq	%rsp, %rbp
	.cfi_def_cfa_register %rbp
	pushq	%r14
	pushq	%rbx
	.cfi_offset %rbx, -32
	.cfi_offset %r14, -24
	movl	%esi, %r14d
	movl	%edi, %ebx
	callq	get_urand
	cmpl	$0, %eax
	jne	.LBB3_9
# %bb.1:                                # %func_rc_init_GOP.32
	movl	%ebx, %edi
	movl	%r14d, %esi
	callq	rc_init_GOP.32
	popq	%rbx
	popq	%r14
	popq	%rbp
	.cfi_def_cfa %rsp, 8
	retq
.LBB3_2:                                # %func_rc_init_GOP.36
	.cfi_def_cfa %rbp, 16
	movl	%ebx, %edi
	movl	%r14d, %esi
	callq	rc_init_GOP.36
	popq	%rbx
	popq	%r14
	popq	%rbp
	.cfi_def_cfa %rsp, 8
	retq
.LBB3_3:                                # %func_rc_init_GOP.48
	.cfi_def_cfa %rbp, 16
	movl	%ebx, %edi
	movl	%r14d, %esi
	callq	rc_init_GOP.48
	popq	%rbx
	popq	%r14
	popq	%rbp
	.cfi_def_cfa %rsp, 8
	retq
.LBB3_4:                                # %func_rc_init_GOP.86
	.cfi_def_cfa %rbp, 16
	movl	%ebx, %edi
	movl	%r14d, %esi
	callq	rc_init_GOP.86
	popq	%rbx
	popq	%r14
	popq	%rbp
	.cfi_def_cfa %rsp, 8
	retq
.LBB3_5:                                # %func_rc_init_GOP.87
	.cfi_def_cfa %rbp, 16
	movl	%ebx, %edi
	movl	%r14d, %esi
	callq	rc_init_GOP.87
	popq	%rbx
	popq	%r14
	popq	%rbp
	.cfi_def_cfa %rsp, 8
	retq
.LBB3_6:                                # %func_rc_init_GOP.88
	.cfi_def_cfa %rbp, 16
	movl	%ebx, %edi
	movl	%r14d, %esi
	callq	rc_init_GOP.88
	popq	%rbx
	popq	%r14
	popq	%rbp
	.cfi_def_cfa %rsp, 8
	retq
.LBB3_7:                                # %func_rc_init_GOP.91
	.cfi_def_cfa %rbp, 16
	movl	%ebx, %edi
	movl	%r14d, %esi
	callq	rc_init_GOP.91
	popq	%rbx
	popq	%r14
	popq	%rbp
	.cfi_def_cfa %rsp, 8
	retq
.LBB3_8:                                # %func_rc_init_GOP.93
	.cfi_def_cfa %rbp, 16
	movl	%ebx, %edi
	movl	%r14d, %esi
	callq	rc_init_GOP.93
	popq	%rbx
	popq	%r14
	popq	%rbp
	.cfi_def_cfa %rsp, 8
	retq
.LBB3_9:                                # %ctrl0
	.cfi_def_cfa %rbp, 16
	cmpl	$1, %eax
	je	.LBB3_2
# %bb.10:                               # %ctrl1
	cmpl	$2, %eax
	je	.LBB3_3
# %bb.11:                               # %ctrl2
	cmpl	$3, %eax
	je	.LBB3_4
# %bb.12:                               # %ctrl3
	cmpl	$4, %eax
	je	.LBB3_5
# %bb.13:                               # %ctrl4
	cmpl	$5, %eax
	je	.LBB3_6
# %bb.14:                               # %ctrl5
	cmpl	$6, %eax
	je	.LBB3_7
	jmp	.LBB3_8
.Lfunc_end3:
	.size	rc_init_GOP, .Lfunc_end3-rc_init_GOP
	.cfi_endproc
                                        # -- End function
	.globl	rc_init_pict            # -- Begin function rc_init_pict
	.p2align	4, 0x90
	.type	rc_init_pict,@function
rc_init_pict:                           # @rc_init_pict
	.cfi_startproc
# %bb.0:                                # %rand_bb
	pushq	%rbp
	.cfi_def_cfa_offset 16
	.cfi_offset %rbp, -16
	movq	%rsp, %rbp
	.cfi_def_cfa_register %rbp
	pushq	%r15
	pushq	%r14
	pushq	%rbx
	pushq	%rax
	.cfi_offset %rbx, -40
	.cfi_offset %r14, -32
	.cfi_offset %r15, -24
	movl	%edx, %r14d
	movl	%esi, %r15d
	movl	%edi, %ebx
	callq	get_urand
	cmpl	$0, %eax
	jne	.LBB4_9
# %bb.1:                                # %func_rc_init_pict.22
	movl	%ebx, %edi
	movl	%r15d, %esi
	movl	%r14d, %edx
	callq	rc_init_pict.22
	addq	$8, %rsp
	popq	%rbx
	popq	%r14
	popq	%r15
	popq	%rbp
	.cfi_def_cfa %rsp, 8
	retq
.LBB4_2:                                # %func_rc_init_pict.26
	.cfi_def_cfa %rbp, 16
	movl	%ebx, %edi
	movl	%r15d, %esi
	movl	%r14d, %edx
	callq	rc_init_pict.26
	addq	$8, %rsp
	popq	%rbx
	popq	%r14
	popq	%r15
	popq	%rbp
	.cfi_def_cfa %rsp, 8
	retq
.LBB4_3:                                # %func_rc_init_pict.30
	.cfi_def_cfa %rbp, 16
	movl	%ebx, %edi
	movl	%r15d, %esi
	movl	%r14d, %edx
	callq	rc_init_pict.30
	addq	$8, %rsp
	popq	%rbx
	popq	%r14
	popq	%r15
	popq	%rbp
	.cfi_def_cfa %rsp, 8
	retq
.LBB4_4:                                # %func_rc_init_pict.40
	.cfi_def_cfa %rbp, 16
	movl	%ebx, %edi
	movl	%r15d, %esi
	movl	%r14d, %edx
	callq	rc_init_pict.40
	addq	$8, %rsp
	popq	%rbx
	popq	%r14
	popq	%r15
	popq	%rbp
	.cfi_def_cfa %rsp, 8
	retq
.LBB4_5:                                # %func_rc_init_pict.54
	.cfi_def_cfa %rbp, 16
	movl	%ebx, %edi
	movl	%r15d, %esi
	movl	%r14d, %edx
	callq	rc_init_pict.54
	addq	$8, %rsp
	popq	%rbx
	popq	%r14
	popq	%r15
	popq	%rbp
	.cfi_def_cfa %rsp, 8
	retq
.LBB4_6:                                # %func_rc_init_pict.64
	.cfi_def_cfa %rbp, 16
	movl	%ebx, %edi
	movl	%r15d, %esi
	movl	%r14d, %edx
	callq	rc_init_pict.64
	addq	$8, %rsp
	popq	%rbx
	popq	%r14
	popq	%r15
	popq	%rbp
	.cfi_def_cfa %rsp, 8
	retq
.LBB4_7:                                # %func_rc_init_pict.72
	.cfi_def_cfa %rbp, 16
	movl	%ebx, %edi
	movl	%r15d, %esi
	movl	%r14d, %edx
	callq	rc_init_pict.72
	addq	$8, %rsp
	popq	%rbx
	popq	%r14
	popq	%r15
	popq	%rbp
	.cfi_def_cfa %rsp, 8
	retq
.LBB4_8:                                # %func_rc_init_pict.75
	.cfi_def_cfa %rbp, 16
	movl	%ebx, %edi
	movl	%r15d, %esi
	movl	%r14d, %edx
	callq	rc_init_pict.75
	addq	$8, %rsp
	popq	%rbx
	popq	%r14
	popq	%r15
	popq	%rbp
	.cfi_def_cfa %rsp, 8
	retq
.LBB4_9:                                # %ctrl0
	.cfi_def_cfa %rbp, 16
	cmpl	$1, %eax
	je	.LBB4_2
# %bb.10:                               # %ctrl1
	cmpl	$2, %eax
	je	.LBB4_3
# %bb.11:                               # %ctrl2
	cmpl	$3, %eax
	je	.LBB4_4
# %bb.12:                               # %ctrl3
	cmpl	$4, %eax
	je	.LBB4_5
# %bb.13:                               # %ctrl4
	cmpl	$5, %eax
	je	.LBB4_6
# %bb.14:                               # %ctrl5
	cmpl	$6, %eax
	je	.LBB4_7
	jmp	.LBB4_8
.Lfunc_end4:
	.size	rc_init_pict, .Lfunc_end4-rc_init_pict
	.cfi_endproc
                                        # -- End function
	.globl	calc_MAD                # -- Begin function calc_MAD
	.p2align	4, 0x90
	.type	calc_MAD,@function
calc_MAD:                               # @calc_MAD
	.cfi_startproc
# %bb.0:                                # %rand_bb
	pushq	%rbp
	.cfi_def_cfa_offset 16
	.cfi_offset %rbp, -16
	movq	%rsp, %rbp
	.cfi_def_cfa_register %rbp
	callq	get_urand
	cmpl	$0, %eax
	jne	.LBB5_9
# %bb.1:                                # %func_calc_MAD.28
	callq	calc_MAD.28
	popq	%rbp
	.cfi_def_cfa %rsp, 8
	retq
.LBB5_2:                                # %func_calc_MAD.44
	.cfi_def_cfa %rbp, 16
	callq	calc_MAD.44
	popq	%rbp
	.cfi_def_cfa %rsp, 8
	retq
.LBB5_3:                                # %func_calc_MAD.50
	.cfi_def_cfa %rbp, 16
	callq	calc_MAD.50
	popq	%rbp
	.cfi_def_cfa %rsp, 8
	retq
.LBB5_4:                                # %func_calc_MAD.70
	.cfi_def_cfa %rbp, 16
	callq	calc_MAD.70
	popq	%rbp
	.cfi_def_cfa %rsp, 8
	retq
.LBB5_5:                                # %func_calc_MAD.71
	.cfi_def_cfa %rbp, 16
	callq	calc_MAD.71
	popq	%rbp
	.cfi_def_cfa %rsp, 8
	retq
.LBB5_6:                                # %func_calc_MAD.77
	.cfi_def_cfa %rbp, 16
	callq	calc_MAD.77
	popq	%rbp
	.cfi_def_cfa %rsp, 8
	retq
.LBB5_7:                                # %func_calc_MAD.84
	.cfi_def_cfa %rbp, 16
	callq	calc_MAD.84
	popq	%rbp
	.cfi_def_cfa %rsp, 8
	retq
.LBB5_8:                                # %func_calc_MAD.85
	.cfi_def_cfa %rbp, 16
	callq	calc_MAD.85
	popq	%rbp
	.cfi_def_cfa %rsp, 8
	retq
.LBB5_9:                                # %ctrl0
	.cfi_def_cfa %rbp, 16
	cmpl	$1, %eax
	je	.LBB5_2
# %bb.10:                               # %ctrl1
	cmpl	$2, %eax
	je	.LBB5_3
# %bb.11:                               # %ctrl2
	cmpl	$3, %eax
	je	.LBB5_4
# %bb.12:                               # %ctrl3
	cmpl	$4, %eax
	je	.LBB5_5
# %bb.13:                               # %ctrl4
	cmpl	$5, %eax
	je	.LBB5_6
# %bb.14:                               # %ctrl5
	cmpl	$6, %eax
	je	.LBB5_7
	jmp	.LBB5_8
.Lfunc_end5:
	.size	calc_MAD, .Lfunc_end5-calc_MAD
	.cfi_endproc
                                        # -- End function
	.section	.rodata.cst8,"aM",@progbits,8
	.p2align	3               # -- Begin function rc_update_pict
.LCPI6_0:
	.quad	4606281698874543309     # double 0.90000000000000002
	.text
	.globl	rc_update_pict
	.p2align	4, 0x90
	.type	rc_update_pict,@function
rc_update_pict:                         # @rc_update_pict
	.cfi_startproc
# %bb.0:                                # %entry
	pushq	%rbp
	.cfi_def_cfa_offset 16
	.cfi_offset %rbp, -16
	movq	%rsp, %rbp
	.cfi_def_cfa_register %rbp
	vmovsd	.LCPI6_0(%rip), %xmm0   # xmm0 = mem[0],zero
	movl	%edi, -4(%rbp)
	movl	-4(%rbp), %eax
	movl	R, %ecx
	subl	%eax, %ecx
	movl	%ecx, R
	vcvtsi2sdl	-4(%rbp), %xmm0, %xmm1
	vmovsd	bit_rate, %xmm2         # xmm2 = mem[0],zero
	vdivsd	frame_rate, %xmm2, %xmm2
	vsubsd	%xmm2, %xmm1, %xmm1
	vaddsd	CurrentBufferFullness, %xmm1, %xmm1
	vmovsd	%xmm1, CurrentBufferFullness
	vmovsd	bit_rate, %xmm1         # xmm1 = mem[0],zero
	vdivsd	frame_rate, %xmm1, %xmm1
	vcvtsi2sdl	-4(%rbp), %xmm0, %xmm2
	vsubsd	%xmm2, %xmm1, %xmm1
	vcvttsd2si	%xmm1, %rax
	addq	LowerBound, %rax
	movq	%rax, LowerBound
	vmovsd	bit_rate, %xmm1         # xmm1 = mem[0],zero
	vdivsd	frame_rate, %xmm1, %xmm1
	vcvtsi2sdl	-4(%rbp), %xmm0, %xmm2
	vsubsd	%xmm2, %xmm1, %xmm1
	vcvttsd2si	%xmm1, %rax
	addq	UpperBound1, %rax
	movq	%rax, UpperBound1
	vcvtsi2sdq	UpperBound1, %xmm0, %xmm1
	vmulsd	%xmm1, %xmm0, %xmm0
	vcvttsd2si	%xmm0, %rax
	movq	%rax, UpperBound2
	popq	%rbp
	.cfi_def_cfa %rsp, 8
	retq
.Lfunc_end6:
	.size	rc_update_pict, .Lfunc_end6-rc_update_pict
	.cfi_endproc
                                        # -- End function
	.globl	rc_update_pict_frame    # -- Begin function rc_update_pict_frame
	.p2align	4, 0x90
	.type	rc_update_pict_frame,@function
rc_update_pict_frame:                   # @rc_update_pict_frame
	.cfi_startproc
# %bb.0:                                # %rand_bb
	pushq	%rbp
	.cfi_def_cfa_offset 16
	.cfi_offset %rbp, -16
	movq	%rsp, %rbp
	.cfi_def_cfa_register %rbp
	pushq	%rbx
	pushq	%rax
	.cfi_offset %rbx, -24
	movl	%edi, %ebx
	callq	get_urand
	cmpl	$0, %eax
	jne	.LBB7_7
# %bb.1:                                # %func_rc_update_pict_frame.23
	movl	%ebx, %edi
	callq	rc_update_pict_frame.23
	addq	$8, %rsp
	popq	%rbx
	popq	%rbp
	.cfi_def_cfa %rsp, 8
	retq
.LBB7_2:                                # %func_rc_update_pict_frame.25
	.cfi_def_cfa %rbp, 16
	movl	%ebx, %edi
	callq	rc_update_pict_frame.25
	addq	$8, %rsp
	popq	%rbx
	popq	%rbp
	.cfi_def_cfa %rsp, 8
	retq
.LBB7_3:                                # %func_rc_update_pict_frame.37
	.cfi_def_cfa %rbp, 16
	movl	%ebx, %edi
	callq	rc_update_pict_frame.37
	addq	$8, %rsp
	popq	%rbx
	popq	%rbp
	.cfi_def_cfa %rsp, 8
	retq
.LBB7_4:                                # %func_rc_update_pict_frame.55
	.cfi_def_cfa %rbp, 16
	movl	%ebx, %edi
	callq	rc_update_pict_frame.55
	addq	$8, %rsp
	popq	%rbx
	popq	%rbp
	.cfi_def_cfa %rsp, 8
	retq
.LBB7_5:                                # %func_rc_update_pict_frame.59
	.cfi_def_cfa %rbp, 16
	movl	%ebx, %edi
	callq	rc_update_pict_frame.59
	addq	$8, %rsp
	popq	%rbx
	popq	%rbp
	.cfi_def_cfa %rsp, 8
	retq
.LBB7_6:                                # %func_rc_update_pict_frame.66
	.cfi_def_cfa %rbp, 16
	movl	%ebx, %edi
	callq	rc_update_pict_frame.66
	addq	$8, %rsp
	popq	%rbx
	popq	%rbp
	.cfi_def_cfa %rsp, 8
	retq
.LBB7_7:                                # %ctrl0
	.cfi_def_cfa %rbp, 16
	cmpl	$1, %eax
	je	.LBB7_2
# %bb.8:                                # %ctrl1
	cmpl	$2, %eax
	je	.LBB7_3
# %bb.9:                                # %ctrl2
	cmpl	$3, %eax
	je	.LBB7_4
# %bb.10:                               # %ctrl3
	cmpl	$4, %eax
	je	.LBB7_5
	jmp	.LBB7_6
.Lfunc_end7:
	.size	rc_update_pict_frame, .Lfunc_end7-rc_update_pict_frame
	.cfi_endproc
                                        # -- End function
	.globl	setbitscount            # -- Begin function setbitscount
	.p2align	4, 0x90
	.type	setbitscount,@function
setbitscount:                           # @setbitscount
	.cfi_startproc
# %bb.0:                                # %entry
	pushq	%rbp
	.cfi_def_cfa_offset 16
	.cfi_offset %rbp, -16
	movq	%rsp, %rbp
	.cfi_def_cfa_register %rbp
	movl	%edi, -4(%rbp)
	movl	-4(%rbp), %eax
	movl	%eax, bits_topfield
	popq	%rbp
	.cfi_def_cfa %rsp, 8
	retq
.Lfunc_end8:
	.size	setbitscount, .Lfunc_end8-setbitscount
	.cfi_endproc
                                        # -- End function
	.globl	updateQuantizationParameter # -- Begin function updateQuantizationParameter
	.p2align	4, 0x90
	.type	updateQuantizationParameter,@function
updateQuantizationParameter:            # @updateQuantizationParameter
	.cfi_startproc
# %bb.0:                                # %rand_bb
	pushq	%rbp
	.cfi_def_cfa_offset 16
	.cfi_offset %rbp, -16
	movq	%rsp, %rbp
	.cfi_def_cfa_register %rbp
	pushq	%rbx
	pushq	%rax
	.cfi_offset %rbx, -24
	movl	%edi, %ebx
	callq	get_urand
	cmpl	$0, %eax
	jne	.LBB9_9
# %bb.1:                                # %func_updateQuantizationParameter.5
	movl	%ebx, %edi
	callq	updateQuantizationParameter.5
	addq	$8, %rsp
	popq	%rbx
	popq	%rbp
	.cfi_def_cfa %rsp, 8
	retq
.LBB9_2:                                # %func_updateQuantizationParameter.31
	.cfi_def_cfa %rbp, 16
	movl	%ebx, %edi
	callq	updateQuantizationParameter.31
	addq	$8, %rsp
	popq	%rbx
	popq	%rbp
	.cfi_def_cfa %rsp, 8
	retq
.LBB9_3:                                # %func_updateQuantizationParameter.45
	.cfi_def_cfa %rbp, 16
	movl	%ebx, %edi
	callq	updateQuantizationParameter.45
	addq	$8, %rsp
	popq	%rbx
	popq	%rbp
	.cfi_def_cfa %rsp, 8
	retq
.LBB9_4:                                # %func_updateQuantizationParameter.57
	.cfi_def_cfa %rbp, 16
	movl	%ebx, %edi
	callq	updateQuantizationParameter.57
	addq	$8, %rsp
	popq	%rbx
	popq	%rbp
	.cfi_def_cfa %rsp, 8
	retq
.LBB9_5:                                # %func_updateQuantizationParameter.78
	.cfi_def_cfa %rbp, 16
	movl	%ebx, %edi
	callq	updateQuantizationParameter.78
	addq	$8, %rsp
	popq	%rbx
	popq	%rbp
	.cfi_def_cfa %rsp, 8
	retq
.LBB9_6:                                # %func_updateQuantizationParameter.79
	.cfi_def_cfa %rbp, 16
	movl	%ebx, %edi
	callq	updateQuantizationParameter.79
	addq	$8, %rsp
	popq	%rbx
	popq	%rbp
	.cfi_def_cfa %rsp, 8
	retq
.LBB9_7:                                # %func_updateQuantizationParameter.81
	.cfi_def_cfa %rbp, 16
	movl	%ebx, %edi
	callq	updateQuantizationParameter.81
	addq	$8, %rsp
	popq	%rbx
	popq	%rbp
	.cfi_def_cfa %rsp, 8
	retq
.LBB9_8:                                # %func_updateQuantizationParameter.83
	.cfi_def_cfa %rbp, 16
	movl	%ebx, %edi
	callq	updateQuantizationParameter.83
	addq	$8, %rsp
	popq	%rbx
	popq	%rbp
	.cfi_def_cfa %rsp, 8
	retq
.LBB9_9:                                # %ctrl0
	.cfi_def_cfa %rbp, 16
	cmpl	$1, %eax
	je	.LBB9_2
# %bb.10:                               # %ctrl1
	cmpl	$2, %eax
	je	.LBB9_3
# %bb.11:                               # %ctrl2
	cmpl	$3, %eax
	je	.LBB9_4
# %bb.12:                               # %ctrl3
	cmpl	$4, %eax
	je	.LBB9_5
# %bb.13:                               # %ctrl4
	cmpl	$5, %eax
	je	.LBB9_6
# %bb.14:                               # %ctrl5
	cmpl	$6, %eax
	je	.LBB9_7
	jmp	.LBB9_8
.Lfunc_end9:
	.size	updateQuantizationParameter, .Lfunc_end9-updateQuantizationParameter
	.cfi_endproc
                                        # -- End function
	.globl	Qstep2QP                # -- Begin function Qstep2QP
	.p2align	4, 0x90
	.type	Qstep2QP,@function
Qstep2QP:                               # @Qstep2QP
	.cfi_startproc
# %bb.0:                                # %rand_bb
	pushq	%rbp
	.cfi_def_cfa_offset 16
	.cfi_offset %rbp, -16
	movq	%rsp, %rbp
	.cfi_def_cfa_register %rbp
	subq	$16, %rsp
	vmovsd	%xmm0, -8(%rbp)         # 8-byte Spill
	callq	get_urand
	cmpl	$0, %eax
	jne	.LBB10_9
# %bb.1:                                # %func_Qstep2QP.1
	vmovsd	-8(%rbp), %xmm0         # 8-byte Reload
                                        # xmm0 = mem[0],zero
	callq	Qstep2QP.1
	addq	$16, %rsp
	popq	%rbp
	.cfi_def_cfa %rsp, 8
	retq
.LBB10_2:                               # %func_Qstep2QP.4
	.cfi_def_cfa %rbp, 16
	callq	Qstep2QP.4
	addq	$16, %rsp
	popq	%rbp
	.cfi_def_cfa %rsp, 8
	retq
.LBB10_3:                               # %func_Qstep2QP.8
	.cfi_def_cfa %rbp, 16
	callq	Qstep2QP.8
	addq	$16, %rsp
	popq	%rbp
	.cfi_def_cfa %rsp, 8
	retq
.LBB10_4:                               # %func_Qstep2QP.16
	.cfi_def_cfa %rbp, 16
	callq	Qstep2QP.16
	addq	$16, %rsp
	popq	%rbp
	.cfi_def_cfa %rsp, 8
	retq
.LBB10_5:                               # %func_Qstep2QP.18
	.cfi_def_cfa %rbp, 16
	callq	Qstep2QP.18
	addq	$16, %rsp
	popq	%rbp
	.cfi_def_cfa %rsp, 8
	retq
.LBB10_6:                               # %func_Qstep2QP.20
	.cfi_def_cfa %rbp, 16
	callq	Qstep2QP.20
	addq	$16, %rsp
	popq	%rbp
	.cfi_def_cfa %rsp, 8
	retq
.LBB10_7:                               # %func_Qstep2QP.49
	.cfi_def_cfa %rbp, 16
	callq	Qstep2QP.49
	addq	$16, %rsp
	popq	%rbp
	.cfi_def_cfa %rsp, 8
	retq
.LBB10_8:                               # %func_Qstep2QP.56
	.cfi_def_cfa %rbp, 16
	callq	Qstep2QP.56
	addq	$16, %rsp
	popq	%rbp
	.cfi_def_cfa %rsp, 8
	retq
.LBB10_9:                               # %ctrl0
	.cfi_def_cfa %rbp, 16
	vmovsd	-8(%rbp), %xmm0         # 8-byte Reload
                                        # xmm0 = mem[0],zero
	cmpl	$1, %eax
	je	.LBB10_2
# %bb.10:                               # %ctrl1
	cmpl	$2, %eax
	je	.LBB10_3
# %bb.11:                               # %ctrl2
	cmpl	$3, %eax
	je	.LBB10_4
# %bb.12:                               # %ctrl3
	cmpl	$4, %eax
	je	.LBB10_5
# %bb.13:                               # %ctrl4
	cmpl	$5, %eax
	je	.LBB10_6
# %bb.14:                               # %ctrl5
	cmpl	$6, %eax
	je	.LBB10_7
	jmp	.LBB10_8
.Lfunc_end10:
	.size	Qstep2QP, .Lfunc_end10-Qstep2QP
	.cfi_endproc
                                        # -- End function
	.globl	updateRCModel           # -- Begin function updateRCModel
	.p2align	4, 0x90
	.type	updateRCModel,@function
updateRCModel:                          # @updateRCModel
	.cfi_startproc
# %bb.0:                                # %rand_bb
	pushq	%rbp
	.cfi_def_cfa_offset 16
	.cfi_offset %rbp, -16
	movq	%rsp, %rbp
	.cfi_def_cfa_register %rbp
	callq	get_urand
	cmpl	$0, %eax
	jne	.LBB11_9
# %bb.1:                                # %func_updateRCModel.7
	callq	updateRCModel.7
	popq	%rbp
	.cfi_def_cfa %rsp, 8
	retq
.LBB11_2:                               # %func_updateRCModel.19
	.cfi_def_cfa %rbp, 16
	callq	updateRCModel.19
	popq	%rbp
	.cfi_def_cfa %rsp, 8
	retq
.LBB11_3:                               # %func_updateRCModel.42
	.cfi_def_cfa %rbp, 16
	callq	updateRCModel.42
	popq	%rbp
	.cfi_def_cfa %rsp, 8
	retq
.LBB11_4:                               # %func_updateRCModel.52
	.cfi_def_cfa %rbp, 16
	callq	updateRCModel.52
	popq	%rbp
	.cfi_def_cfa %rsp, 8
	retq
.LBB11_5:                               # %func_updateRCModel.58
	.cfi_def_cfa %rbp, 16
	callq	updateRCModel.58
	popq	%rbp
	.cfi_def_cfa %rsp, 8
	retq
.LBB11_6:                               # %func_updateRCModel.63
	.cfi_def_cfa %rbp, 16
	callq	updateRCModel.63
	popq	%rbp
	.cfi_def_cfa %rsp, 8
	retq
.LBB11_7:                               # %func_updateRCModel.65
	.cfi_def_cfa %rbp, 16
	callq	updateRCModel.65
	popq	%rbp
	.cfi_def_cfa %rsp, 8
	retq
.LBB11_8:                               # %func_updateRCModel.69
	.cfi_def_cfa %rbp, 16
	callq	updateRCModel.69
	popq	%rbp
	.cfi_def_cfa %rsp, 8
	retq
.LBB11_9:                               # %ctrl0
	.cfi_def_cfa %rbp, 16
	cmpl	$1, %eax
	je	.LBB11_2
# %bb.10:                               # %ctrl1
	cmpl	$2, %eax
	je	.LBB11_3
# %bb.11:                               # %ctrl2
	cmpl	$3, %eax
	je	.LBB11_4
# %bb.12:                               # %ctrl3
	cmpl	$4, %eax
	je	.LBB11_5
# %bb.13:                               # %ctrl4
	cmpl	$5, %eax
	je	.LBB11_6
# %bb.14:                               # %ctrl5
	cmpl	$6, %eax
	je	.LBB11_7
	jmp	.LBB11_8
.Lfunc_end11:
	.size	updateRCModel, .Lfunc_end11-updateRCModel
	.cfi_endproc
                                        # -- End function
	.globl	QP2Qstep                # -- Begin function QP2Qstep
	.p2align	4, 0x90
	.type	QP2Qstep,@function
QP2Qstep:                               # @QP2Qstep
	.cfi_startproc
# %bb.0:                                # %rand_bb
	pushq	%rbp
	.cfi_def_cfa_offset 16
	.cfi_offset %rbp, -16
	movq	%rsp, %rbp
	.cfi_def_cfa_register %rbp
	pushq	%rbx
	pushq	%rax
	.cfi_offset %rbx, -24
	movl	%edi, %ebx
	callq	get_urand
	cmpl	$0, %eax
	jne	.LBB12_7
# %bb.1:                                # %func_QP2Qstep.2
	movl	%ebx, %edi
	callq	QP2Qstep.2
	addq	$8, %rsp
	popq	%rbx
	popq	%rbp
	.cfi_def_cfa %rsp, 8
	retq
.LBB12_2:                               # %func_QP2Qstep.11
	.cfi_def_cfa %rbp, 16
	movl	%ebx, %edi
	callq	QP2Qstep.11
	addq	$8, %rsp
	popq	%rbx
	popq	%rbp
	.cfi_def_cfa %rsp, 8
	retq
.LBB12_3:                               # %func_QP2Qstep.46
	.cfi_def_cfa %rbp, 16
	movl	%ebx, %edi
	callq	QP2Qstep.46
	addq	$8, %rsp
	popq	%rbx
	popq	%rbp
	.cfi_def_cfa %rsp, 8
	retq
.LBB12_4:                               # %func_QP2Qstep.51
	.cfi_def_cfa %rbp, 16
	movl	%ebx, %edi
	callq	QP2Qstep.51
	addq	$8, %rsp
	popq	%rbx
	popq	%rbp
	.cfi_def_cfa %rsp, 8
	retq
.LBB12_5:                               # %func_QP2Qstep.62
	.cfi_def_cfa %rbp, 16
	movl	%ebx, %edi
	callq	QP2Qstep.62
	addq	$8, %rsp
	popq	%rbx
	popq	%rbp
	.cfi_def_cfa %rsp, 8
	retq
.LBB12_6:                               # %func_QP2Qstep.68
	.cfi_def_cfa %rbp, 16
	movl	%ebx, %edi
	callq	QP2Qstep.68
	addq	$8, %rsp
	popq	%rbx
	popq	%rbp
	.cfi_def_cfa %rsp, 8
	retq
.LBB12_7:                               # %ctrl0
	.cfi_def_cfa %rbp, 16
	cmpl	$1, %eax
	je	.LBB12_2
# %bb.8:                                # %ctrl1
	cmpl	$2, %eax
	je	.LBB12_3
# %bb.9:                                # %ctrl2
	cmpl	$3, %eax
	je	.LBB12_4
# %bb.10:                               # %ctrl3
	cmpl	$4, %eax
	je	.LBB12_5
	jmp	.LBB12_6
.Lfunc_end12:
	.size	QP2Qstep, .Lfunc_end12-QP2Qstep
	.cfi_endproc
                                        # -- End function
	.globl	RCModelEstimator        # -- Begin function RCModelEstimator
	.p2align	4, 0x90
	.type	RCModelEstimator,@function
RCModelEstimator:                       # @RCModelEstimator
	.cfi_startproc
# %bb.0:                                # %rand_bb
	pushq	%rbp
	.cfi_def_cfa_offset 16
	.cfi_offset %rbp, -16
	movq	%rsp, %rbp
	.cfi_def_cfa_register %rbp
	pushq	%rbx
	pushq	%rax
	.cfi_offset %rbx, -24
	movl	%edi, %ebx
	callq	get_urand
	cmpl	$0, %eax
	jne	.LBB13_9
# %bb.1:                                # %func_RCModelEstimator.14
	movl	%ebx, %edi
	callq	RCModelEstimator.14
	addq	$8, %rsp
	popq	%rbx
	popq	%rbp
	.cfi_def_cfa %rsp, 8
	retq
.LBB13_2:                               # %func_RCModelEstimator.15
	.cfi_def_cfa %rbp, 16
	movl	%ebx, %edi
	callq	RCModelEstimator.15
	addq	$8, %rsp
	popq	%rbx
	popq	%rbp
	.cfi_def_cfa %rsp, 8
	retq
.LBB13_3:                               # %func_RCModelEstimator.21
	.cfi_def_cfa %rbp, 16
	movl	%ebx, %edi
	callq	RCModelEstimator.21
	addq	$8, %rsp
	popq	%rbx
	popq	%rbp
	.cfi_def_cfa %rsp, 8
	retq
.LBB13_4:                               # %func_RCModelEstimator.29
	.cfi_def_cfa %rbp, 16
	movl	%ebx, %edi
	callq	RCModelEstimator.29
	addq	$8, %rsp
	popq	%rbx
	popq	%rbp
	.cfi_def_cfa %rsp, 8
	retq
.LBB13_5:                               # %func_RCModelEstimator.35
	.cfi_def_cfa %rbp, 16
	movl	%ebx, %edi
	callq	RCModelEstimator.35
	addq	$8, %rsp
	popq	%rbx
	popq	%rbp
	.cfi_def_cfa %rsp, 8
	retq
.LBB13_6:                               # %func_RCModelEstimator.53
	.cfi_def_cfa %rbp, 16
	movl	%ebx, %edi
	callq	RCModelEstimator.53
	addq	$8, %rsp
	popq	%rbx
	popq	%rbp
	.cfi_def_cfa %rsp, 8
	retq
.LBB13_7:                               # %func_RCModelEstimator.60
	.cfi_def_cfa %rbp, 16
	movl	%ebx, %edi
	callq	RCModelEstimator.60
	addq	$8, %rsp
	popq	%rbx
	popq	%rbp
	.cfi_def_cfa %rsp, 8
	retq
.LBB13_8:                               # %func_RCModelEstimator.61
	.cfi_def_cfa %rbp, 16
	movl	%ebx, %edi
	callq	RCModelEstimator.61
	addq	$8, %rsp
	popq	%rbx
	popq	%rbp
	.cfi_def_cfa %rsp, 8
	retq
.LBB13_9:                               # %ctrl0
	.cfi_def_cfa %rbp, 16
	cmpl	$1, %eax
	je	.LBB13_2
# %bb.10:                               # %ctrl1
	cmpl	$2, %eax
	je	.LBB13_3
# %bb.11:                               # %ctrl2
	cmpl	$3, %eax
	je	.LBB13_4
# %bb.12:                               # %ctrl3
	cmpl	$4, %eax
	je	.LBB13_5
# %bb.13:                               # %ctrl4
	cmpl	$5, %eax
	je	.LBB13_6
# %bb.14:                               # %ctrl5
	cmpl	$6, %eax
	je	.LBB13_7
	jmp	.LBB13_8
.Lfunc_end13:
	.size	RCModelEstimator, .Lfunc_end13-RCModelEstimator
	.cfi_endproc
                                        # -- End function
	.globl	ComputeFrameMAD         # -- Begin function ComputeFrameMAD
	.p2align	4, 0x90
	.type	ComputeFrameMAD,@function
ComputeFrameMAD:                        # @ComputeFrameMAD
	.cfi_startproc
# %bb.0:                                # %rand_bb
	pushq	%rbp
	.cfi_def_cfa_offset 16
	.cfi_offset %rbp, -16
	movq	%rsp, %rbp
	.cfi_def_cfa_register %rbp
	callq	get_urand
	cmpl	$0, %eax
	jne	.LBB14_2
# %bb.1:                                # %func_ComputeFrameMAD.3
	callq	ComputeFrameMAD.3
	popq	%rbp
	.cfi_def_cfa %rsp, 8
	retq
.LBB14_2:                               # %func_ComputeFrameMAD.6
	.cfi_def_cfa %rbp, 16
	callq	ComputeFrameMAD.6
	popq	%rbp
	.cfi_def_cfa %rsp, 8
	retq
.Lfunc_end14:
	.size	ComputeFrameMAD, .Lfunc_end14-ComputeFrameMAD
	.cfi_endproc
                                        # -- End function
	.globl	updateMADModel          # -- Begin function updateMADModel
	.p2align	4, 0x90
	.type	updateMADModel,@function
updateMADModel:                         # @updateMADModel
	.cfi_startproc
# %bb.0:                                # %rand_bb
	pushq	%rbp
	.cfi_def_cfa_offset 16
	.cfi_offset %rbp, -16
	movq	%rsp, %rbp
	.cfi_def_cfa_register %rbp
	callq	get_urand
	cmpl	$0, %eax
	jne	.LBB15_9
# %bb.1:                                # %func_updateMADModel.10
	callq	updateMADModel.10
	popq	%rbp
	.cfi_def_cfa %rsp, 8
	retq
.LBB15_2:                               # %func_updateMADModel.12
	.cfi_def_cfa %rbp, 16
	callq	updateMADModel.12
	popq	%rbp
	.cfi_def_cfa %rsp, 8
	retq
.LBB15_3:                               # %func_updateMADModel.39
	.cfi_def_cfa %rbp, 16
	callq	updateMADModel.39
	popq	%rbp
	.cfi_def_cfa %rsp, 8
	retq
.LBB15_4:                               # %func_updateMADModel.74
	.cfi_def_cfa %rbp, 16
	callq	updateMADModel.74
	popq	%rbp
	.cfi_def_cfa %rsp, 8
	retq
.LBB15_5:                               # %func_updateMADModel.89
	.cfi_def_cfa %rbp, 16
	callq	updateMADModel.89
	popq	%rbp
	.cfi_def_cfa %rsp, 8
	retq
.LBB15_6:                               # %func_updateMADModel.90
	.cfi_def_cfa %rbp, 16
	callq	updateMADModel.90
	popq	%rbp
	.cfi_def_cfa %rsp, 8
	retq
.LBB15_7:                               # %func_updateMADModel.92
	.cfi_def_cfa %rbp, 16
	callq	updateMADModel.92
	popq	%rbp
	.cfi_def_cfa %rsp, 8
	retq
.LBB15_8:                               # %func_updateMADModel.94
	.cfi_def_cfa %rbp, 16
	callq	updateMADModel.94
	popq	%rbp
	.cfi_def_cfa %rsp, 8
	retq
.LBB15_9:                               # %ctrl0
	.cfi_def_cfa %rbp, 16
	cmpl	$1, %eax
	je	.LBB15_2
# %bb.10:                               # %ctrl1
	cmpl	$2, %eax
	je	.LBB15_3
# %bb.11:                               # %ctrl2
	cmpl	$3, %eax
	je	.LBB15_4
# %bb.12:                               # %ctrl3
	cmpl	$4, %eax
	je	.LBB15_5
# %bb.13:                               # %ctrl4
	cmpl	$5, %eax
	je	.LBB15_6
# %bb.14:                               # %ctrl5
	cmpl	$6, %eax
	je	.LBB15_7
	jmp	.LBB15_8
.Lfunc_end15:
	.size	updateMADModel, .Lfunc_end15-updateMADModel
	.cfi_endproc
                                        # -- End function
	.globl	MADModelEstimator       # -- Begin function MADModelEstimator
	.p2align	4, 0x90
	.type	MADModelEstimator,@function
MADModelEstimator:                      # @MADModelEstimator
	.cfi_startproc
# %bb.0:                                # %rand_bb
	pushq	%rbp
	.cfi_def_cfa_offset 16
	.cfi_offset %rbp, -16
	movq	%rsp, %rbp
	.cfi_def_cfa_register %rbp
	pushq	%rbx
	pushq	%rax
	.cfi_offset %rbx, -24
	movl	%edi, %ebx
	callq	get_urand
	cmpl	$0, %eax
	jne	.LBB16_9
# %bb.1:                                # %func_MADModelEstimator.13
	movl	%ebx, %edi
	callq	MADModelEstimator.13
	addq	$8, %rsp
	popq	%rbx
	popq	%rbp
	.cfi_def_cfa %rsp, 8
	retq
.LBB16_2:                               # %func_MADModelEstimator.24
	.cfi_def_cfa %rbp, 16
	movl	%ebx, %edi
	callq	MADModelEstimator.24
	addq	$8, %rsp
	popq	%rbx
	popq	%rbp
	.cfi_def_cfa %rsp, 8
	retq
.LBB16_3:                               # %func_MADModelEstimator.27
	.cfi_def_cfa %rbp, 16
	movl	%ebx, %edi
	callq	MADModelEstimator.27
	addq	$8, %rsp
	popq	%rbx
	popq	%rbp
	.cfi_def_cfa %rsp, 8
	retq
.LBB16_4:                               # %func_MADModelEstimator.33
	.cfi_def_cfa %rbp, 16
	movl	%ebx, %edi
	callq	MADModelEstimator.33
	addq	$8, %rsp
	popq	%rbx
	popq	%rbp
	.cfi_def_cfa %rsp, 8
	retq
.LBB16_5:                               # %func_MADModelEstimator.34
	.cfi_def_cfa %rbp, 16
	movl	%ebx, %edi
	callq	MADModelEstimator.34
	addq	$8, %rsp
	popq	%rbx
	popq	%rbp
	.cfi_def_cfa %rsp, 8
	retq
.LBB16_6:                               # %func_MADModelEstimator.41
	.cfi_def_cfa %rbp, 16
	movl	%ebx, %edi
	callq	MADModelEstimator.41
	addq	$8, %rsp
	popq	%rbx
	popq	%rbp
	.cfi_def_cfa %rsp, 8
	retq
.LBB16_7:                               # %func_MADModelEstimator.43
	.cfi_def_cfa %rbp, 16
	movl	%ebx, %edi
	callq	MADModelEstimator.43
	addq	$8, %rsp
	popq	%rbx
	popq	%rbp
	.cfi_def_cfa %rsp, 8
	retq
.LBB16_8:                               # %func_MADModelEstimator.67
	.cfi_def_cfa %rbp, 16
	movl	%ebx, %edi
	callq	MADModelEstimator.67
	addq	$8, %rsp
	popq	%rbx
	popq	%rbp
	.cfi_def_cfa %rsp, 8
	retq
.LBB16_9:                               # %ctrl0
	.cfi_def_cfa %rbp, 16
	cmpl	$1, %eax
	je	.LBB16_2
# %bb.10:                               # %ctrl1
	cmpl	$2, %eax
	je	.LBB16_3
# %bb.11:                               # %ctrl2
	cmpl	$3, %eax
	je	.LBB16_4
# %bb.12:                               # %ctrl3
	cmpl	$4, %eax
	je	.LBB16_5
# %bb.13:                               # %ctrl4
	cmpl	$5, %eax
	je	.LBB16_6
# %bb.14:                               # %ctrl5
	cmpl	$6, %eax
	je	.LBB16_7
	jmp	.LBB16_8
.Lfunc_end16:
	.size	MADModelEstimator, .Lfunc_end16-MADModelEstimator
	.cfi_endproc
                                        # -- End function
	.section	.rodata.cst8,"aM",@progbits,8
	.p2align	3               # -- Begin function Qstep2QP.1
.LCPI17_0:
	.quad	4604086194056200192     # double 0.65625
.LCPI17_1:
	.quad	4604930618986332160     # double 0.75
.LCPI17_2:
	.quad	4605775043916464128     # double 0.84375
.LCPI17_3:
	.quad	4606619468846596096     # double 0.9375
.LCPI17_4:
	.quad	4607463893776728064     # double 1.0625
.LCPI17_5:
	.quad	4607745368753438720     # double 1.125
.LCPI17_6:
	.quad	4607182418800017408     # double 1
.LCPI17_7:
	.quad	4606056518893174784     # double 0.875
.LCPI17_8:
	.quad	4605493568939753472     # double 0.8125
.LCPI17_9:
	.quad	4604367669032910848     # double 0.6875
.LCPI17_10:
	.quad	4603804719079489536     # double 0.625
.LCPI17_11:
	.quad	4611686018427387904     # double 2
	.text
	.globl	Qstep2QP.1
	.p2align	4, 0x90
	.type	Qstep2QP.1,@function
Qstep2QP.1:                             # @Qstep2QP.1
	.cfi_startproc
# %bb.0:                                # %entry
	pushq	%rbp
	.cfi_def_cfa_offset 16
	.cfi_offset %rbp, -16
	movq	%rsp, %rbp
	.cfi_def_cfa_register %rbp
	pushq	%rbx
	subq	$56, %rsp
	.cfi_offset %rbx, -24
	movl	$512623582, -32(%rbp)   # imm = 0x1E8E03DE
	vmovsd	%xmm0, -16(%rbp)
	movl	$0, -28(%rbp)
	movl	$0, -20(%rbp)
	vmovsd	-16(%rbp), %xmm0        # xmm0 = mem[0],zero
	vmovsd	%xmm0, -40(%rbp)        # 8-byte Spill
	xorl	%edi, %edi
	callq	QP2Qstep
	vucomisd	-40(%rbp), %xmm0 # 8-byte Folded Reload
	jbe	.LBB17_2
# %bb.1:                                # %if.then
	movl	$0, -24(%rbp)
	jmp	.LBB17_24
.LBB17_2:                               # %if.else
	vmovsd	-16(%rbp), %xmm0        # xmm0 = mem[0],zero
	vmovsd	%xmm0, -56(%rbp)        # 8-byte Spill
	movl	$51, %edi
	callq	QP2Qstep
	vmovsd	-56(%rbp), %xmm1        # 8-byte Reload
                                        # xmm1 = mem[0],zero
	vucomisd	%xmm0, %xmm1
	jbe	.LBB17_4
# %bb.3:                                # %if.then3
	movl	$51, -24(%rbp)
	jmp	.LBB17_24
.LBB17_4:                               # %if.end
	jmp	.LBB17_5
.LBB17_5:                               # %if.end4
	jmp	.LBB17_6
.LBB17_6:                               # %while.cond
                                        # =>This Inner Loop Header: Depth=1
	vmovsd	-16(%rbp), %xmm0        # xmm0 = mem[0],zero
	vmovsd	%xmm0, -48(%rbp)        # 8-byte Spill
	movl	$5, %edi
	callq	QP2Qstep
	vmovsd	-48(%rbp), %xmm1        # 8-byte Reload
                                        # xmm1 = mem[0],zero
	vucomisd	%xmm0, %xmm1
	jbe	.LBB17_8
# %bb.7:                                # %while.body
                                        #   in Loop: Header=BB17_6 Depth=1
	vmovsd	.LCPI17_11(%rip), %xmm0 # xmm0 = mem[0],zero
	vmovsd	-16(%rbp), %xmm1        # xmm1 = mem[0],zero
	vdivsd	%xmm0, %xmm1, %xmm0
	vmovsd	%xmm0, -16(%rbp)
	movl	-28(%rbp), %eax
	addl	$1, %eax
	movl	%eax, -28(%rbp)
	jmp	.LBB17_6
.LBB17_8:                               # %while.end
	vmovsd	.LCPI17_0(%rip), %xmm0  # xmm0 = mem[0],zero
	vucomisd	-16(%rbp), %xmm0
	jb	.LBB17_10
# %bb.9:                                # %if.then8
	vmovsd	.LCPI17_10(%rip), %xmm0 # xmm0 = mem[0],zero
	vmovsd	%xmm0, -16(%rbp)
	movl	$0, -20(%rbp)
	jmp	.LBB17_23
.LBB17_10:                              # %if.else9
	vmovsd	.LCPI17_1(%rip), %xmm0  # xmm0 = mem[0],zero
	vucomisd	-16(%rbp), %xmm0
	jb	.LBB17_12
# %bb.11:                               # %if.then11
	vmovsd	.LCPI17_9(%rip), %xmm0  # xmm0 = mem[0],zero
	vmovsd	%xmm0, -16(%rbp)
	movl	$1, -20(%rbp)
	jmp	.LBB17_22
.LBB17_12:                              # %if.else12
	vmovsd	.LCPI17_2(%rip), %xmm0  # xmm0 = mem[0],zero
	vucomisd	-16(%rbp), %xmm0
	jb	.LBB17_14
# %bb.13:                               # %if.then14
	vmovsd	.LCPI17_8(%rip), %xmm0  # xmm0 = mem[0],zero
	vmovsd	%xmm0, -16(%rbp)
	movl	$2, -20(%rbp)
	jmp	.LBB17_21
.LBB17_14:                              # %if.else15
	vmovsd	.LCPI17_3(%rip), %xmm0  # xmm0 = mem[0],zero
	vucomisd	-16(%rbp), %xmm0
	jb	.LBB17_16
# %bb.15:                               # %if.then17
	vmovsd	.LCPI17_7(%rip), %xmm0  # xmm0 = mem[0],zero
	vmovsd	%xmm0, -16(%rbp)
	movl	$3, -20(%rbp)
	jmp	.LBB17_20
.LBB17_16:                              # %if.else18
	vmovsd	.LCPI17_4(%rip), %xmm0  # xmm0 = mem[0],zero
	vucomisd	-16(%rbp), %xmm0
	jb	.LBB17_18
# %bb.17:                               # %if.then20
	vmovsd	.LCPI17_6(%rip), %xmm0  # xmm0 = mem[0],zero
	vmovsd	%xmm0, -16(%rbp)
	movl	$4, -20(%rbp)
	jmp	.LBB17_19
.LBB17_18:                              # %if.else21
	vmovsd	.LCPI17_5(%rip), %xmm0  # xmm0 = mem[0],zero
	vmovsd	%xmm0, -16(%rbp)
	movl	$5, -20(%rbp)
.LBB17_19:                              # %if.end22
	jmp	.LBB17_20
.LBB17_20:                              # %if.end23
	jmp	.LBB17_21
.LBB17_21:                              # %if.end24
	jmp	.LBB17_22
.LBB17_22:                              # %if.end25
	jmp	.LBB17_23
.LBB17_23:                              # %if.end26
	imull	$6, -28(%rbp), %eax
	addl	-20(%rbp), %eax
	movl	%eax, -24(%rbp)
.LBB17_24:                              # %return
	movl	-24(%rbp), %ebx
	cmpl	$512623582, -32(%rbp)   # imm = 0x1E8E03DE
	jne	.LBB17_26
.LBB17_25:
	movl	%ebx, %eax
	addq	$56, %rsp
	popq	%rbx
	popq	%rbp
	.cfi_def_cfa %rsp, 8
	retq
.LBB17_26:                              # %func_exit
	.cfi_def_cfa %rbp, 16
	callq	detect_breach
	jmp	.LBB17_25
.Lfunc_end17:
	.size	Qstep2QP.1, .Lfunc_end17-Qstep2QP.1
	.cfi_endproc
                                        # -- End function
	.section	.rodata.cst8,"aM",@progbits,8
	.p2align	3               # -- Begin function QP2Qstep.2
.LCPI18_0:
	.quad	4611686018427387904     # double 2
	.text
	.globl	QP2Qstep.2
	.p2align	4, 0x90
	.type	QP2Qstep.2,@function
QP2Qstep.2:                             # @QP2Qstep.2
	.cfi_startproc
# %bb.0:                                # %entry
	pushq	%rbp
	.cfi_def_cfa_offset 16
	.cfi_offset %rbp, -16
	movq	%rsp, %rbp
	.cfi_def_cfa_register %rbp
	subq	$32, %rsp
	movl	$2076183018, -20(%rbp)  # imm = 0x7BC009EA
	movl	%edi, -8(%rbp)
	movl	-8(%rbp), %eax
	cltd
	movl	$6, %ecx
	idivl	%ecx
	movslq	%edx, %rax
	vmovsd	QP2Qstep.QP2QSTEP(,%rax,8), %xmm0 # xmm0 = mem[0],zero
	vmovsd	%xmm0, -16(%rbp)
	movl	$0, -4(%rbp)
.LBB18_1:                               # %for.cond
                                        # =>This Inner Loop Header: Depth=1
	movl	-4(%rbp), %ecx
	movl	-8(%rbp), %eax
	cltd
	movl	$6, %esi
	idivl	%esi
	cmpl	%eax, %ecx
	jge	.LBB18_4
# %bb.2:                                # %for.body
                                        #   in Loop: Header=BB18_1 Depth=1
	vmovsd	.LCPI18_0(%rip), %xmm0  # xmm0 = mem[0],zero
	vmulsd	-16(%rbp), %xmm0, %xmm0
	vmovsd	%xmm0, -16(%rbp)
# %bb.3:                                # %for.inc
                                        #   in Loop: Header=BB18_1 Depth=1
	movl	-4(%rbp), %eax
	addl	$1, %eax
	movl	%eax, -4(%rbp)
	jmp	.LBB18_1
.LBB18_4:                               # %for.end
	vmovsd	-16(%rbp), %xmm0        # xmm0 = mem[0],zero
	cmpl	$2076183018, -20(%rbp)  # imm = 0x7BC009EA
	jne	.LBB18_6
.LBB18_5:
	addq	$32, %rsp
	popq	%rbp
	.cfi_def_cfa %rsp, 8
	retq
.LBB18_6:                               # %func_exit
	.cfi_def_cfa %rbp, 16
	vmovsd	%xmm0, -32(%rbp)        # 8-byte Spill
	callq	detect_breach
	vmovsd	-32(%rbp), %xmm0        # 8-byte Reload
                                        # xmm0 = mem[0],zero
	jmp	.LBB18_5
.Lfunc_end18:
	.size	QP2Qstep.2, .Lfunc_end18-QP2Qstep.2
	.cfi_endproc
                                        # -- End function
	.globl	ComputeFrameMAD.3       # -- Begin function ComputeFrameMAD.3
	.p2align	4, 0x90
	.type	ComputeFrameMAD.3,@function
ComputeFrameMAD.3:                      # @ComputeFrameMAD.3
	.cfi_startproc
# %bb.0:                                # %entry
	pushq	%rbp
	.cfi_def_cfa_offset 16
	.cfi_offset %rbp, -16
	movq	%rsp, %rbp
	.cfi_def_cfa_register %rbp
	subq	$32, %rsp
	movl	$1211375849, -20(%rbp)  # imm = 0x483420E9
	vxorps	%xmm0, %xmm0, %xmm0
	vmovsd	%xmm0, -16(%rbp)
	movl	$0, -4(%rbp)
.LBB19_1:                               # %for.cond
                                        # =>This Inner Loop Header: Depth=1
	movl	-4(%rbp), %eax
	movq	img, %rcx
	cmpl	72608(%rcx), %eax
	jge	.LBB19_4
# %bb.2:                                # %for.body
                                        #   in Loop: Header=BB19_1 Depth=1
	movq	img, %rax
	movq	72584(%rax), %rax
	movslq	-4(%rbp), %rcx
	vmovsd	(%rax,%rcx,8), %xmm0    # xmm0 = mem[0],zero
	vaddsd	-16(%rbp), %xmm0, %xmm0
	vmovsd	%xmm0, -16(%rbp)
# %bb.3:                                # %for.inc
                                        #   in Loop: Header=BB19_1 Depth=1
	movl	-4(%rbp), %eax
	addl	$1, %eax
	movl	%eax, -4(%rbp)
	jmp	.LBB19_1
.LBB19_4:                               # %for.end
	movq	img, %rax
	vcvtsi2sdl	72608(%rax), %xmm0, %xmm0
	vmovsd	-16(%rbp), %xmm1        # xmm1 = mem[0],zero
	vdivsd	%xmm0, %xmm1, %xmm0
	vmovsd	%xmm0, -16(%rbp)
	vmovsd	-16(%rbp), %xmm0        # xmm0 = mem[0],zero
	cmpl	$1211375849, -20(%rbp)  # imm = 0x483420E9
	jne	.LBB19_6
.LBB19_5:
	addq	$32, %rsp
	popq	%rbp
	.cfi_def_cfa %rsp, 8
	retq
.LBB19_6:                               # %func_exit
	.cfi_def_cfa %rbp, 16
	vmovsd	%xmm0, -32(%rbp)        # 8-byte Spill
	callq	detect_breach
	vmovsd	-32(%rbp), %xmm0        # 8-byte Reload
                                        # xmm0 = mem[0],zero
	jmp	.LBB19_5
.Lfunc_end19:
	.size	ComputeFrameMAD.3, .Lfunc_end19-ComputeFrameMAD.3
	.cfi_endproc
                                        # -- End function
	.section	.rodata.cst8,"aM",@progbits,8
	.p2align	3               # -- Begin function Qstep2QP.4
.LCPI20_0:
	.quad	4604086194056200192     # double 0.65625
.LCPI20_1:
	.quad	4604930618986332160     # double 0.75
.LCPI20_2:
	.quad	4605775043916464128     # double 0.84375
.LCPI20_3:
	.quad	4606619468846596096     # double 0.9375
.LCPI20_4:
	.quad	4607463893776728064     # double 1.0625
.LCPI20_5:
	.quad	4607745368753438720     # double 1.125
.LCPI20_6:
	.quad	4607182418800017408     # double 1
.LCPI20_7:
	.quad	4606056518893174784     # double 0.875
.LCPI20_8:
	.quad	4605493568939753472     # double 0.8125
.LCPI20_9:
	.quad	4604367669032910848     # double 0.6875
.LCPI20_10:
	.quad	4603804719079489536     # double 0.625
.LCPI20_11:
	.quad	4611686018427387904     # double 2
	.text
	.globl	Qstep2QP.4
	.p2align	4, 0x90
	.type	Qstep2QP.4,@function
Qstep2QP.4:                             # @Qstep2QP.4
	.cfi_startproc
# %bb.0:                                # %entry
	pushq	%rbp
	.cfi_def_cfa_offset 16
	.cfi_offset %rbp, -16
	movq	%rsp, %rbp
	.cfi_def_cfa_register %rbp
	pushq	%rbx
	subq	$56, %rsp
	.cfi_offset %rbx, -24
	movl	$1973842282, -32(%rbp)  # imm = 0x75A6716A
	vmovsd	%xmm0, -16(%rbp)
	movl	$0, -28(%rbp)
	movl	$0, -20(%rbp)
	vmovsd	-16(%rbp), %xmm0        # xmm0 = mem[0],zero
	vmovsd	%xmm0, -40(%rbp)        # 8-byte Spill
	xorl	%edi, %edi
	callq	QP2Qstep
	vucomisd	-40(%rbp), %xmm0 # 8-byte Folded Reload
	jbe	.LBB20_2
# %bb.1:                                # %if.then
	movl	$0, -24(%rbp)
	jmp	.LBB20_24
.LBB20_2:                               # %if.else
	vmovsd	-16(%rbp), %xmm0        # xmm0 = mem[0],zero
	vmovsd	%xmm0, -56(%rbp)        # 8-byte Spill
	movl	$51, %edi
	callq	QP2Qstep
	vmovsd	-56(%rbp), %xmm1        # 8-byte Reload
                                        # xmm1 = mem[0],zero
	vucomisd	%xmm0, %xmm1
	jbe	.LBB20_4
# %bb.3:                                # %if.then3
	movl	$51, -24(%rbp)
	jmp	.LBB20_24
.LBB20_4:                               # %if.end
	jmp	.LBB20_5
.LBB20_5:                               # %if.end4
	jmp	.LBB20_6
.LBB20_6:                               # %while.cond
                                        # =>This Inner Loop Header: Depth=1
	vmovsd	-16(%rbp), %xmm0        # xmm0 = mem[0],zero
	vmovsd	%xmm0, -48(%rbp)        # 8-byte Spill
	movl	$5, %edi
	callq	QP2Qstep
	vmovsd	-48(%rbp), %xmm1        # 8-byte Reload
                                        # xmm1 = mem[0],zero
	vucomisd	%xmm0, %xmm1
	jbe	.LBB20_8
# %bb.7:                                # %while.body
                                        #   in Loop: Header=BB20_6 Depth=1
	vmovsd	.LCPI20_11(%rip), %xmm0 # xmm0 = mem[0],zero
	vmovsd	-16(%rbp), %xmm1        # xmm1 = mem[0],zero
	vdivsd	%xmm0, %xmm1, %xmm0
	vmovsd	%xmm0, -16(%rbp)
	movl	-28(%rbp), %eax
	addl	$1, %eax
	movl	%eax, -28(%rbp)
	jmp	.LBB20_6
.LBB20_8:                               # %while.end
	vmovsd	.LCPI20_0(%rip), %xmm0  # xmm0 = mem[0],zero
	vucomisd	-16(%rbp), %xmm0
	jb	.LBB20_10
# %bb.9:                                # %if.then8
	vmovsd	.LCPI20_10(%rip), %xmm0 # xmm0 = mem[0],zero
	vmovsd	%xmm0, -16(%rbp)
	movl	$0, -20(%rbp)
	jmp	.LBB20_23
.LBB20_10:                              # %if.else9
	vmovsd	.LCPI20_1(%rip), %xmm0  # xmm0 = mem[0],zero
	vucomisd	-16(%rbp), %xmm0
	jb	.LBB20_12
# %bb.11:                               # %if.then11
	vmovsd	.LCPI20_9(%rip), %xmm0  # xmm0 = mem[0],zero
	vmovsd	%xmm0, -16(%rbp)
	movl	$1, -20(%rbp)
	jmp	.LBB20_22
.LBB20_12:                              # %if.else12
	vmovsd	.LCPI20_2(%rip), %xmm0  # xmm0 = mem[0],zero
	vucomisd	-16(%rbp), %xmm0
	jb	.LBB20_14
# %bb.13:                               # %if.then14
	vmovsd	.LCPI20_8(%rip), %xmm0  # xmm0 = mem[0],zero
	vmovsd	%xmm0, -16(%rbp)
	movl	$2, -20(%rbp)
	jmp	.LBB20_21
.LBB20_14:                              # %if.else15
	vmovsd	.LCPI20_3(%rip), %xmm0  # xmm0 = mem[0],zero
	vucomisd	-16(%rbp), %xmm0
	jb	.LBB20_16
# %bb.15:                               # %if.then17
	vmovsd	.LCPI20_7(%rip), %xmm0  # xmm0 = mem[0],zero
	vmovsd	%xmm0, -16(%rbp)
	movl	$3, -20(%rbp)
	jmp	.LBB20_20
.LBB20_16:                              # %if.else18
	vmovsd	.LCPI20_4(%rip), %xmm0  # xmm0 = mem[0],zero
	vucomisd	-16(%rbp), %xmm0
	jb	.LBB20_18
# %bb.17:                               # %if.then20
	vmovsd	.LCPI20_6(%rip), %xmm0  # xmm0 = mem[0],zero
	vmovsd	%xmm0, -16(%rbp)
	movl	$4, -20(%rbp)
	jmp	.LBB20_19
.LBB20_18:                              # %if.else21
	vmovsd	.LCPI20_5(%rip), %xmm0  # xmm0 = mem[0],zero
	vmovsd	%xmm0, -16(%rbp)
	movl	$5, -20(%rbp)
.LBB20_19:                              # %if.end22
	jmp	.LBB20_20
.LBB20_20:                              # %if.end23
	jmp	.LBB20_21
.LBB20_21:                              # %if.end24
	jmp	.LBB20_22
.LBB20_22:                              # %if.end25
	jmp	.LBB20_23
.LBB20_23:                              # %if.end26
	imull	$6, -28(%rbp), %eax
	addl	-20(%rbp), %eax
	movl	%eax, -24(%rbp)
.LBB20_24:                              # %return
	movl	-24(%rbp), %ebx
	cmpl	$1973842282, -32(%rbp)  # imm = 0x75A6716A
	jne	.LBB20_26
.LBB20_25:
	movl	%ebx, %eax
	addq	$56, %rsp
	popq	%rbx
	popq	%rbp
	.cfi_def_cfa %rsp, 8
	retq
.LBB20_26:                              # %func_exit
	.cfi_def_cfa %rbp, 16
	callq	detect_breach
	jmp	.LBB20_25
.Lfunc_end20:
	.size	Qstep2QP.4, .Lfunc_end20-Qstep2QP.4
	.cfi_endproc
                                        # -- End function
	.section	.rodata.cst8,"aM",@progbits,8
	.p2align	3               # -- Begin function updateQuantizationParameter.5
.LCPI21_0:
	.quad	4616189618054758400     # double 4
.LCPI21_1:
	.quad	4611686018427387904     # double 2
.LCPI21_2:
	.quad	4602678819172646912     # double 0.5
.LCPI21_3:
	.quad	4607182418800017408     # double 1
	.text
	.globl	updateQuantizationParameter.5
	.p2align	4, 0x90
	.type	updateQuantizationParameter.5,@function
updateQuantizationParameter.5:          # @updateQuantizationParameter.5
	.cfi_startproc
# %bb.0:                                # %entry
	pushq	%rbp
	.cfi_def_cfa_offset 16
	.cfi_offset %rbp, -16
	movq	%rsp, %rbp
	.cfi_def_cfa_register %rbp
	pushq	%rbx
	subq	$72, %rsp
	.cfi_offset %rbx, -24
	movl	$1865460108, -56(%rbp)  # imm = 0x6F30A98C
	movl	%edi, -36(%rbp)
	movq	img, %rax
	movl	72620(%rax), %eax
	movq	img, %rcx
	cmpl	72608(%rcx), %eax
	jne	.LBB21_123
# %bb.1:                                # %if.then
	cmpl	$0, -36(%rbp)
	jne	.LBB21_3
# %bb.2:                                # %lor.lhs.false
	movq	img, %rax
	cmpl	$0, 72600(%rax)
	jne	.LBB21_116
.LBB21_3:                               # %if.then2
	movq	img, %rax
	cmpl	$2, 24(%rax)
	jne	.LBB21_5
# %bb.4:                                # %if.then4
	movl	MyInitialQp, %eax
	movl	%eax, m_Qc
	movl	m_Qc, %eax
	movl	%eax, -20(%rbp)
	jmp	.LBB21_363
.LBB21_5:                               # %if.else
	movq	img, %rax
	cmpl	$1, 24(%rax)
	jne	.LBB21_69
# %bb.6:                                # %if.then7
	movq	input, %rax
	cmpl	$1, 1236(%rax)
	jne	.LBB21_25
# %bb.7:                                # %if.then9
	movq	input, %rax
	cmpl	$2, 2880(%rax)
	je	.LBB21_9
# %bb.8:                                # %lor.lhs.false11
	movq	input, %rax
	cmpl	$0, 2884(%rax)
	je	.LBB21_15
.LBB21_9:                               # %if.then13
	movq	img, %rax
	cmpl	$0, 72600(%rax)
	jne	.LBB21_14
# %bb.10:                               # %if.then16
	movq	img, %rax
	cmpl	$1, 72604(%rax)
	jne	.LBB21_12
# %bb.11:                               # %if.then18
	movl	PreviousQp2, %eax
	movl	%eax, PreviousQp1
	movl	FrameQPBuffer, %eax
	movl	%eax, PreviousQp2
	jmp	.LBB21_13
.LBB21_12:                              # %if.else19
	movl	PreviousQp2, %eax
	movl	%eax, PreviousQp1
	movl	FieldQPBuffer, %eax
	movl	%eax, PreviousQp2
.LBB21_13:                              # %if.end
	jmp	.LBB21_14
.LBB21_14:                              # %if.end20
	jmp	.LBB21_15
.LBB21_15:                              # %if.end21
	movl	PreviousQp1, %eax
	cmpl	PreviousQp2, %eax
	jne	.LBB21_17
# %bb.16:                               # %if.then23
	movl	PreviousQp1, %eax
	addl	$2, %eax
	movl	%eax, m_Qc
	jmp	.LBB21_18
.LBB21_17:                              # %if.else24
	movl	PreviousQp1, %eax
	addl	PreviousQp2, %eax
	cltd
	movl	$2, %ecx
	idivl	%ecx
	addl	$1, %eax
	movl	%eax, m_Qc
.LBB21_18:                              # %if.end27
	movl	m_Qc, %eax
	cmpl	RC_MAX_QUANT, %eax
	jge	.LBB21_20
# %bb.19:                               # %cond.true
	movl	m_Qc, %eax
	jmp	.LBB21_21
.LBB21_20:                              # %cond.false
	movl	RC_MAX_QUANT, %eax
.LBB21_21:                              # %cond.end
	movl	%eax, m_Qc
	movl	RC_MIN_QUANT, %eax
	cmpl	m_Qc, %eax
	jge	.LBB21_23
# %bb.22:                               # %cond.true30
	movl	m_Qc, %eax
	jmp	.LBB21_24
.LBB21_23:                              # %cond.false31
	movl	RC_MIN_QUANT, %eax
.LBB21_24:                              # %cond.end32
	movl	%eax, m_Qc
	jmp	.LBB21_68
.LBB21_25:                              # %if.else34
	movl	NumberofBFrames, %eax
	addl	$1, %eax
	movq	input, %rcx
	cltd
	idivl	1236(%rcx)
	movl	%edx, -12(%rbp)
	cmpl	$0, -12(%rbp)
	jne	.LBB21_27
# %bb.26:                               # %if.then38
	movq	input, %rax
	movl	1236(%rax), %eax
	movl	%eax, -12(%rbp)
.LBB21_27:                              # %if.end40
	cmpl	$1, -12(%rbp)
	jne	.LBB21_37
# %bb.28:                               # %if.then42
	movq	input, %rax
	cmpl	$2, 2880(%rax)
	je	.LBB21_30
# %bb.29:                               # %lor.lhs.false45
	movq	input, %rax
	cmpl	$0, 2884(%rax)
	je	.LBB21_36
.LBB21_30:                              # %if.then48
	movq	img, %rax
	cmpl	$0, 72600(%rax)
	jne	.LBB21_35
# %bb.31:                               # %if.then51
	movq	img, %rax
	cmpl	$1, 72604(%rax)
	jne	.LBB21_33
# %bb.32:                               # %if.then54
	movl	PreviousQp2, %eax
	movl	%eax, PreviousQp1
	movl	FrameQPBuffer, %eax
	movl	%eax, PreviousQp2
	jmp	.LBB21_34
.LBB21_33:                              # %if.else55
	movl	PreviousQp2, %eax
	movl	%eax, PreviousQp1
	movl	FieldQPBuffer, %eax
	movl	%eax, PreviousQp2
.LBB21_34:                              # %if.end56
	jmp	.LBB21_35
.LBB21_35:                              # %if.end57
	jmp	.LBB21_36
.LBB21_36:                              # %if.end58
	jmp	.LBB21_37
.LBB21_37:                              # %if.end59
	movl	PreviousQp2, %eax
	subl	PreviousQp1, %eax
	movq	input, %rcx
	imull	$4294967294, 1236(%rcx), %ecx # imm = 0xFFFFFFFE
	subl	$3, %ecx
	cmpl	%ecx, %eax
	jg	.LBB21_39
# %bb.38:                               # %if.then63
	movl	$-3, -24(%rbp)
	jmp	.LBB21_52
.LBB21_39:                              # %if.else64
	movl	PreviousQp2, %eax
	subl	PreviousQp1, %eax
	movq	input, %rcx
	imull	$4294967294, 1236(%rcx), %ecx # imm = 0xFFFFFFFE
	subl	$2, %ecx
	cmpl	%ecx, %eax
	jne	.LBB21_41
# %bb.40:                               # %if.then70
	movl	$-2, -24(%rbp)
	jmp	.LBB21_51
.LBB21_41:                              # %if.else71
	movl	PreviousQp2, %eax
	subl	PreviousQp1, %eax
	movq	input, %rcx
	imull	$4294967294, 1236(%rcx), %ecx # imm = 0xFFFFFFFE
	subl	$1, %ecx
	cmpl	%ecx, %eax
	jne	.LBB21_43
# %bb.42:                               # %if.then77
	movl	$-1, -24(%rbp)
	jmp	.LBB21_50
.LBB21_43:                              # %if.else78
	movl	PreviousQp2, %eax
	subl	PreviousQp1, %eax
	movq	input, %rcx
	imull	$4294967294, 1236(%rcx), %ecx # imm = 0xFFFFFFFE
	cmpl	%ecx, %eax
	jne	.LBB21_45
# %bb.44:                               # %if.then83
	movl	$0, -24(%rbp)
	jmp	.LBB21_49
.LBB21_45:                              # %if.else84
	movl	PreviousQp2, %eax
	subl	PreviousQp1, %eax
	movq	input, %rcx
	imull	$4294967294, 1236(%rcx), %ecx # imm = 0xFFFFFFFE
	addl	$1, %ecx
	cmpl	%ecx, %eax
	jne	.LBB21_47
# %bb.46:                               # %if.then90
	movl	$1, -24(%rbp)
	jmp	.LBB21_48
.LBB21_47:                              # %if.else91
	movl	$2, -24(%rbp)
.LBB21_48:                              # %if.end92
	jmp	.LBB21_49
.LBB21_49:                              # %if.end93
	jmp	.LBB21_50
.LBB21_50:                              # %if.end94
	jmp	.LBB21_51
.LBB21_51:                              # %if.end95
	jmp	.LBB21_52
.LBB21_52:                              # %if.end96
	movl	PreviousQp1, %eax
	addl	-24(%rbp), %eax
	movl	%eax, m_Qc
	movl	-12(%rbp), %ecx
	subl	$1, %ecx
	shll	$1, %ecx
	movl	-12(%rbp), %eax
	subl	$1, %eax
	imull	$4294967294, %eax, %esi # imm = 0xFFFFFFFE
	movl	-12(%rbp), %eax
	subl	$1, %eax
	movl	PreviousQp2, %edx
	subl	PreviousQp1, %edx
	imull	%edx, %eax
	movq	input, %rdx
	movl	1236(%rdx), %edi
	subl	$1, %edi
	cltd
	idivl	%edi
	cmpl	%eax, %esi
	jge	.LBB21_54
# %bb.53:                               # %cond.true109
	movl	-12(%rbp), %eax
	subl	$1, %eax
	movl	PreviousQp2, %edx
	subl	PreviousQp1, %edx
	imull	%edx, %eax
	movq	input, %rdx
	movl	1236(%rdx), %esi
	subl	$1, %esi
	cltd
	idivl	%esi
	jmp	.LBB21_55
.LBB21_54:                              # %cond.false116
	movl	-12(%rbp), %eax
	subl	$1, %eax
	imull	$4294967294, %eax, %eax # imm = 0xFFFFFFFE
.LBB21_55:                              # %cond.end119
	cmpl	%eax, %ecx
	jge	.LBB21_57
# %bb.56:                               # %cond.true122
	movl	-12(%rbp), %eax
	subl	$1, %eax
	shll	$1, %eax
	jmp	.LBB21_61
.LBB21_57:                              # %cond.false125
	movl	-12(%rbp), %eax
	subl	$1, %eax
	imull	$4294967294, %eax, %ecx # imm = 0xFFFFFFFE
	movl	-12(%rbp), %eax
	subl	$1, %eax
	movl	PreviousQp2, %edx
	subl	PreviousQp1, %edx
	imull	%edx, %eax
	movq	input, %rdx
	movl	1236(%rdx), %esi
	subl	$1, %esi
	cltd
	idivl	%esi
	cmpl	%eax, %ecx
	jge	.LBB21_59
# %bb.58:                               # %cond.true135
	movl	-12(%rbp), %eax
	subl	$1, %eax
	movl	PreviousQp2, %ecx
	subl	PreviousQp1, %ecx
	imull	%ecx, %eax
	movq	input, %rcx
	movl	1236(%rcx), %ecx
	subl	$1, %ecx
	cltd
	idivl	%ecx
	jmp	.LBB21_60
.LBB21_59:                              # %cond.false142
	movl	-12(%rbp), %eax
	subl	$1, %eax
	imull	$4294967294, %eax, %eax # imm = 0xFFFFFFFE
.LBB21_60:                              # %cond.end145
.LBB21_61:                              # %cond.end147
	addl	m_Qc, %eax
	movl	%eax, m_Qc
	movl	m_Qc, %eax
	cmpl	RC_MAX_QUANT, %eax
	jge	.LBB21_63
# %bb.62:                               # %cond.true151
	movl	m_Qc, %eax
	jmp	.LBB21_64
.LBB21_63:                              # %cond.false152
	movl	RC_MAX_QUANT, %eax
.LBB21_64:                              # %cond.end153
	movl	%eax, m_Qc
	movl	RC_MIN_QUANT, %eax
	cmpl	m_Qc, %eax
	jge	.LBB21_66
# %bb.65:                               # %cond.true156
	movl	m_Qc, %eax
	jmp	.LBB21_67
.LBB21_66:                              # %cond.false157
	movl	RC_MIN_QUANT, %eax
.LBB21_67:                              # %cond.end158
	movl	%eax, m_Qc
.LBB21_68:                              # %if.end160
	movl	m_Qc, %eax
	movl	%eax, -20(%rbp)
	jmp	.LBB21_363
.LBB21_69:                              # %if.else161
	movq	img, %rax
	cmpl	$0, 24(%rax)
	jne	.LBB21_77
# %bb.70:                               # %land.lhs.true
	movq	img, %rax
	cmpl	$0, 72576(%rax)
	jne	.LBB21_77
# %bb.71:                               # %if.then165
	movl	MyInitialQp, %eax
	movl	%eax, m_Qc
	movq	img, %rax
	cmpl	$0, 72600(%rax)
	jne	.LBB21_76
# %bb.72:                               # %if.then168
	movq	active_sps, %rax
	cmpl	$0, 1148(%rax)
	je	.LBB21_74
# %bb.73:                               # %if.then170
	movl	m_Qc, %eax
	movq	img, %rcx
	addl	72572(%rcx), %eax
	movl	%eax, 72572(%rcx)
	movl	PreviousQp2, %eax
	movl	%eax, PreviousQp1
	movl	m_Qc, %eax
	movl	%eax, PreviousQp2
	movl	m_Qc, %eax
	movl	%eax, Pm_Qp
	jmp	.LBB21_75
.LBB21_74:                              # %if.else172
	movl	m_Qc, %eax
	movl	%eax, FrameQPBuffer
.LBB21_75:                              # %if.end173
	jmp	.LBB21_76
.LBB21_76:                              # %if.end174
	movl	m_Qc, %eax
	movl	%eax, -20(%rbp)
	jmp	.LBB21_363
.LBB21_77:                              # %if.else175
	movq	input, %rax
	cmpl	$2, 2880(%rax)
	je	.LBB21_79
# %bb.78:                               # %lor.lhs.false178
	movq	input, %rax
	cmpl	$0, 2884(%rax)
	je	.LBB21_84
.LBB21_79:                              # %land.lhs.true181
	movq	img, %rax
	cmpl	$0, 72600(%rax)
	jne	.LBB21_84
# %bb.80:                               # %if.then184
	movq	img, %rax
	cmpl	$1, 72604(%rax)
	jne	.LBB21_82
# %bb.81:                               # %if.then187
	movl	FrameQPBuffer, %eax
	movq	img, %rcx
	addl	72572(%rcx), %eax
	movl	%eax, 72572(%rcx)
	movl	FrameQPBuffer, %eax
	movl	%eax, Pm_Qp
	jmp	.LBB21_83
.LBB21_82:                              # %if.else190
	movl	FieldQPBuffer, %eax
	movq	img, %rcx
	addl	72572(%rcx), %eax
	movl	%eax, 72572(%rcx)
	movl	FieldQPBuffer, %eax
	movl	%eax, Pm_Qp
.LBB21_83:                              # %if.end193
	jmp	.LBB21_84
.LBB21_84:                              # %if.end194
	vmovsd	Pm_X1, %xmm0            # xmm0 = mem[0],zero
	vmovsd	%xmm0, m_X1
	vmovsd	Pm_X2, %xmm0            # xmm0 = mem[0],zero
	vmovsd	%xmm0, m_X2
	movl	PPreHeader, %eax
	movl	%eax, m_Hp
	movl	Pm_Qp, %eax
	movl	%eax, m_Qp
	movl	PDuantQp, %eax
	movl	%eax, DuantQp
	vmovsd	PMADPictureC1, %xmm0    # xmm0 = mem[0],zero
	vmovsd	%xmm0, MADPictureC1
	vmovsd	PMADPictureC2, %xmm0    # xmm0 = mem[0],zero
	vmovsd	%xmm0, MADPictureC2
	vmovsd	PPictureMAD, %xmm0      # xmm0 = mem[0],zero
	vmovsd	%xmm0, PreviousPictureMAD
	vmovsd	MADPictureC1, %xmm0     # xmm0 = mem[0],zero
	vmulsd	PreviousPictureMAD, %xmm0, %xmm0
	vaddsd	MADPictureC2, %xmm0, %xmm0
	vmovsd	%xmm0, CurrentFrameMAD
	cmpq	$0, T
	jge	.LBB21_89
# %bb.85:                               # %if.then198
	movl	m_Qp, %eax
	addl	DuantQp, %eax
	movl	%eax, m_Qc
	movl	m_Qc, %eax
	cmpl	RC_MAX_QUANT, %eax
	jge	.LBB21_87
# %bb.86:                               # %cond.true201
	movl	m_Qc, %eax
	jmp	.LBB21_88
.LBB21_87:                              # %cond.false202
	movl	RC_MAX_QUANT, %eax
.LBB21_88:                              # %cond.end203
	movl	%eax, m_Qc
	jmp	.LBB21_110
.LBB21_89:                              # %if.else205
	movq	T, %rax
	movslq	m_Hp, %rcx
	subq	%rcx, %rax
	movl	%eax, -28(%rbp)
	movl	-28(%rbp), %eax
	vmovsd	bit_rate, %xmm0         # xmm0 = mem[0],zero
	vmovsd	MINVALUE, %xmm1         # xmm1 = mem[0],zero
	vmulsd	frame_rate, %xmm1, %xmm1
	vdivsd	%xmm1, %xmm0, %xmm0
	vcvttsd2si	%xmm0, %ecx
	cmpl	%ecx, %eax
	jge	.LBB21_91
# %bb.90:                               # %cond.true213
	vmovsd	bit_rate, %xmm0         # xmm0 = mem[0],zero
	vmovsd	MINVALUE, %xmm1         # xmm1 = mem[0],zero
	vmulsd	frame_rate, %xmm1, %xmm1
	vdivsd	%xmm1, %xmm0, %xmm0
	vcvttsd2si	%xmm0, %eax
	jmp	.LBB21_92
.LBB21_91:                              # %cond.false217
	movl	-28(%rbp), %eax
.LBB21_92:                              # %cond.end218
	vmovsd	.LCPI21_0(%rip), %xmm0  # xmm0 = mem[0],zero
	movl	%eax, -28(%rbp)
	vmovsd	CurrentFrameMAD, %xmm1  # xmm1 = mem[0],zero
	vmulsd	m_X1, %xmm1, %xmm1
	vmulsd	CurrentFrameMAD, %xmm1, %xmm1
	vmulsd	m_X1, %xmm1, %xmm1
	vmulsd	m_X2, %xmm0, %xmm0
	vmulsd	CurrentFrameMAD, %xmm0, %xmm0
	vcvtsi2sdl	-28(%rbp), %xmm0, %xmm2
	vmulsd	%xmm2, %xmm0, %xmm0
	vaddsd	%xmm0, %xmm1, %xmm0
	vmovsd	%xmm0, -48(%rbp)
	vmovsd	m_X2, %xmm0             # xmm0 = mem[0],zero
	vxorps	%xmm1, %xmm1, %xmm1
	vucomisd	%xmm1, %xmm0
	jne	.LBB21_93
	jp	.LBB21_93
	jmp	.LBB21_95
.LBB21_93:                              # %lor.lhs.false230
	vxorps	%xmm0, %xmm0, %xmm0
	vucomisd	-48(%rbp), %xmm0
	ja	.LBB21_95
# %bb.94:                               # %lor.lhs.false233
	vmovsd	-48(%rbp), %xmm0        # xmm0 = mem[0],zero
	callq	sqrt
	vmovsd	m_X1, %xmm1             # xmm1 = mem[0],zero
	vmulsd	CurrentFrameMAD, %xmm1, %xmm1
	vsubsd	%xmm1, %xmm0, %xmm0
	vxorps	%xmm1, %xmm1, %xmm1
	vucomisd	%xmm0, %xmm1
	jb	.LBB21_96
.LBB21_95:                              # %if.then238
	vmovsd	m_X1, %xmm0             # xmm0 = mem[0],zero
	vmulsd	CurrentFrameMAD, %xmm0, %xmm0
	vcvtsi2sdl	-28(%rbp), %xmm0, %xmm1
	vdivsd	%xmm1, %xmm0, %xmm0
	vcvtsd2ss	%xmm0, %xmm0, %xmm0
	vcvtss2sd	%xmm0, %xmm0, %xmm0
	vmovsd	%xmm0, m_Qstep
	jmp	.LBB21_97
.LBB21_96:                              # %if.else244
	vmovsd	.LCPI21_1(%rip), %xmm0  # xmm0 = mem[0],zero
	vmulsd	m_X2, %xmm0, %xmm0
	vmulsd	CurrentFrameMAD, %xmm0, %xmm0
	vmovsd	%xmm0, -64(%rbp)        # 8-byte Spill
	vmovsd	-48(%rbp), %xmm0        # xmm0 = mem[0],zero
	callq	sqrt
	vmovsd	m_X1, %xmm1             # xmm1 = mem[0],zero
	vmulsd	CurrentFrameMAD, %xmm1, %xmm1
	vsubsd	%xmm1, %xmm0, %xmm0
	vmovsd	-64(%rbp), %xmm1        # 8-byte Reload
                                        # xmm1 = mem[0],zero
	vdivsd	%xmm0, %xmm1, %xmm0
	vcvtsd2ss	%xmm0, %xmm0, %xmm0
	vcvtss2sd	%xmm0, %xmm0, %xmm0
	vmovsd	%xmm0, m_Qstep
.LBB21_97:                              # %if.end253
	vmovsd	m_Qstep, %xmm0          # xmm0 = mem[0],zero
	callq	Qstep2QP
	movl	%eax, m_Qc
	movl	m_Qp, %eax
	addl	DuantQp, %eax
	cmpl	m_Qc, %eax
	jge	.LBB21_99
# %bb.98:                               # %cond.true258
	movl	m_Qp, %eax
	addl	DuantQp, %eax
	jmp	.LBB21_100
.LBB21_99:                              # %cond.false260
	movl	m_Qc, %eax
.LBB21_100:                             # %cond.end261
	movl	%eax, m_Qc
	movl	m_Qc, %eax
	cmpl	RC_MAX_QUANT, %eax
	jge	.LBB21_102
# %bb.101:                              # %cond.true265
	movl	m_Qc, %eax
	jmp	.LBB21_103
.LBB21_102:                             # %cond.false266
	movl	RC_MAX_QUANT, %eax
.LBB21_103:                             # %cond.end267
	movl	%eax, m_Qc
	movl	m_Qp, %eax
	subl	DuantQp, %eax
	cmpl	m_Qc, %eax
	jge	.LBB21_105
# %bb.104:                              # %cond.true272
	movl	m_Qc, %eax
	jmp	.LBB21_106
.LBB21_105:                             # %cond.false273
	movl	m_Qp, %eax
	subl	DuantQp, %eax
.LBB21_106:                             # %cond.end275
	movl	%eax, m_Qc
	movl	RC_MIN_QUANT, %eax
	cmpl	m_Qc, %eax
	jge	.LBB21_108
# %bb.107:                              # %cond.true279
	movl	m_Qc, %eax
	jmp	.LBB21_109
.LBB21_108:                             # %cond.false280
	movl	RC_MIN_QUANT, %eax
.LBB21_109:                             # %cond.end281
	movl	%eax, m_Qc
.LBB21_110:                             # %if.end283
	movq	img, %rax
	cmpl	$0, 72600(%rax)
	jne	.LBB21_115
# %bb.111:                              # %if.then287
	movq	active_sps, %rax
	cmpl	$0, 1148(%rax)
	je	.LBB21_113
# %bb.112:                              # %if.then290
	movl	m_Qc, %eax
	movq	img, %rcx
	addl	72572(%rcx), %eax
	movl	%eax, 72572(%rcx)
	movl	PreviousQp2, %eax
	movl	%eax, PreviousQp1
	movl	m_Qc, %eax
	movl	%eax, PreviousQp2
	movl	m_Qc, %eax
	movl	%eax, Pm_Qp
	jmp	.LBB21_114
.LBB21_113:                             # %if.else293
	movl	m_Qc, %eax
	movl	%eax, FrameQPBuffer
.LBB21_114:                             # %if.end294
	jmp	.LBB21_115
.LBB21_115:                             # %if.end295
	movl	m_Qc, %eax
	movl	%eax, -20(%rbp)
	jmp	.LBB21_363
.LBB21_116:                             # %if.else296
	movq	img, %rax
	cmpl	$0, 24(%rax)
	jne	.LBB21_122
# %bb.117:                              # %land.lhs.true300
	movq	img, %rax
	cmpl	$0, 72612(%rax)
	jne	.LBB21_122
# %bb.118:                              # %if.then303
	movq	input, %rax
	cmpl	$1, 2880(%rax)
	jne	.LBB21_120
# %bb.119:                              # %if.then307
	movl	m_Qc, %eax
	movq	img, %rcx
	addl	72572(%rcx), %eax
	movl	%eax, 72572(%rcx)
	movl	PreviousQp2, %eax
	addl	$1, %eax
	movl	%eax, PreviousQp1
	movl	m_Qc, %eax
	movl	%eax, PreviousQp2
	movl	m_Qc, %eax
	movl	%eax, Pm_Qp
	jmp	.LBB21_121
.LBB21_120:                             # %if.else311
	movl	m_Qc, %eax
	movl	%eax, FieldQPBuffer
.LBB21_121:                             # %if.end312
	jmp	.LBB21_122
.LBB21_122:                             # %if.end313
	movl	m_Qc, %eax
	movl	%eax, -20(%rbp)
	jmp	.LBB21_363
.LBB21_123:                             # %if.else314
	movq	img, %rax
	cmpl	$2, 24(%rax)
	jne	.LBB21_125
# %bb.124:                              # %if.then318
	movl	MyInitialQp, %eax
	movl	%eax, m_Qc
	movl	m_Qc, %eax
	movl	%eax, -20(%rbp)
	jmp	.LBB21_363
.LBB21_125:                             # %if.else319
	movq	img, %rax
	cmpl	$0, 24(%rax)
	jne	.LBB21_129
# %bb.126:                              # %land.lhs.true323
	movq	img, %rax
	cmpl	$1, 72612(%rax)
	jne	.LBB21_129
# %bb.127:                              # %land.lhs.true327
	movq	img, %rax
	cmpl	$1, 72600(%rax)
	jne	.LBB21_129
# %bb.128:                              # %if.then331
	movl	MyInitialQp, %eax
	movl	%eax, m_Qc
	movl	m_Qc, %eax
	movl	%eax, -20(%rbp)
	jmp	.LBB21_363
.LBB21_129:                             # %if.else332
	movq	img, %rax
	cmpl	$1, 24(%rax)
	jne	.LBB21_196
# %bb.130:                              # %if.then336
	cmpl	$0, -36(%rbp)
	jne	.LBB21_132
# %bb.131:                              # %lor.lhs.false338
	movq	img, %rax
	cmpl	$0, 72600(%rax)
	jne	.LBB21_195
.LBB21_132:                             # %if.then342
	movq	input, %rax
	cmpl	$1, 1236(%rax)
	jne	.LBB21_151
# %bb.133:                              # %if.then346
	movq	input, %rax
	cmpl	$2, 2880(%rax)
	je	.LBB21_135
# %bb.134:                              # %lor.lhs.false350
	movq	input, %rax
	cmpl	$0, 2884(%rax)
	je	.LBB21_141
.LBB21_135:                             # %if.then353
	movq	img, %rax
	cmpl	$0, 72600(%rax)
	jne	.LBB21_140
# %bb.136:                              # %if.then357
	movq	img, %rax
	cmpl	$1, 72604(%rax)
	jne	.LBB21_138
# %bb.137:                              # %if.then361
	movl	PreviousQp2, %eax
	movl	%eax, PreviousQp1
	movl	FrameQPBuffer, %eax
	movl	%eax, PreviousQp2
	jmp	.LBB21_139
.LBB21_138:                             # %if.else362
	movl	PreviousQp2, %eax
	movl	%eax, PreviousQp1
	movl	FieldQPBuffer, %eax
	movl	%eax, PreviousQp2
.LBB21_139:                             # %if.end363
	jmp	.LBB21_140
.LBB21_140:                             # %if.end364
	jmp	.LBB21_141
.LBB21_141:                             # %if.end365
	movl	PreviousQp1, %eax
	cmpl	PreviousQp2, %eax
	jne	.LBB21_143
# %bb.142:                              # %if.then368
	movl	PreviousQp1, %eax
	addl	$2, %eax
	movl	%eax, m_Qc
	jmp	.LBB21_144
.LBB21_143:                             # %if.else370
	movl	PreviousQp1, %eax
	addl	PreviousQp2, %eax
	cltd
	movl	$2, %ecx
	idivl	%ecx
	addl	$1, %eax
	movl	%eax, m_Qc
.LBB21_144:                             # %if.end374
	movl	m_Qc, %eax
	cmpl	RC_MAX_QUANT, %eax
	jge	.LBB21_146
# %bb.145:                              # %cond.true377
	movl	m_Qc, %eax
	jmp	.LBB21_147
.LBB21_146:                             # %cond.false378
	movl	RC_MAX_QUANT, %eax
.LBB21_147:                             # %cond.end379
	movl	%eax, m_Qc
	movl	RC_MIN_QUANT, %eax
	cmpl	m_Qc, %eax
	jge	.LBB21_149
# %bb.148:                              # %cond.true383
	movl	m_Qc, %eax
	jmp	.LBB21_150
.LBB21_149:                             # %cond.false384
	movl	RC_MIN_QUANT, %eax
.LBB21_150:                             # %cond.end385
	movl	%eax, m_Qc
	jmp	.LBB21_194
.LBB21_151:                             # %if.else387
	movl	NumberofBFrames, %eax
	addl	$1, %eax
	movq	input, %rcx
	cltd
	idivl	1236(%rcx)
	movl	%edx, -12(%rbp)
	cmpl	$0, -12(%rbp)
	jne	.LBB21_153
# %bb.152:                              # %if.then393
	movq	input, %rax
	movl	1236(%rax), %eax
	movl	%eax, -12(%rbp)
.LBB21_153:                             # %if.end395
	cmpl	$1, -12(%rbp)
	jne	.LBB21_163
# %bb.154:                              # %if.then398
	movq	input, %rax
	cmpl	$2, 2880(%rax)
	je	.LBB21_156
# %bb.155:                              # %lor.lhs.false402
	movq	input, %rax
	cmpl	$0, 2884(%rax)
	je	.LBB21_162
.LBB21_156:                             # %if.then405
	movq	img, %rax
	cmpl	$0, 72600(%rax)
	jne	.LBB21_161
# %bb.157:                              # %if.then409
	movq	img, %rax
	cmpl	$1, 72604(%rax)
	jne	.LBB21_159
# %bb.158:                              # %if.then413
	movl	PreviousQp2, %eax
	movl	%eax, PreviousQp1
	movl	FrameQPBuffer, %eax
	movl	%eax, PreviousQp2
	jmp	.LBB21_160
.LBB21_159:                             # %if.else414
	movl	PreviousQp2, %eax
	movl	%eax, PreviousQp1
	movl	FieldQPBuffer, %eax
	movl	%eax, PreviousQp2
.LBB21_160:                             # %if.end415
	jmp	.LBB21_161
.LBB21_161:                             # %if.end416
	jmp	.LBB21_162
.LBB21_162:                             # %if.end417
	jmp	.LBB21_163
.LBB21_163:                             # %if.end418
	movl	PreviousQp2, %eax
	subl	PreviousQp1, %eax
	movq	input, %rcx
	imull	$4294967294, 1236(%rcx), %ecx # imm = 0xFFFFFFFE
	subl	$3, %ecx
	cmpl	%ecx, %eax
	jg	.LBB21_165
# %bb.164:                              # %if.then425
	movl	$-3, -24(%rbp)
	jmp	.LBB21_178
.LBB21_165:                             # %if.else426
	movl	PreviousQp2, %eax
	subl	PreviousQp1, %eax
	movq	input, %rcx
	imull	$4294967294, 1236(%rcx), %ecx # imm = 0xFFFFFFFE
	subl	$2, %ecx
	cmpl	%ecx, %eax
	jne	.LBB21_167
# %bb.166:                              # %if.then433
	movl	$-2, -24(%rbp)
	jmp	.LBB21_177
.LBB21_167:                             # %if.else434
	movl	PreviousQp2, %eax
	subl	PreviousQp1, %eax
	movq	input, %rcx
	imull	$4294967294, 1236(%rcx), %ecx # imm = 0xFFFFFFFE
	subl	$1, %ecx
	cmpl	%ecx, %eax
	jne	.LBB21_169
# %bb.168:                              # %if.then441
	movl	$-1, -24(%rbp)
	jmp	.LBB21_176
.LBB21_169:                             # %if.else442
	movl	PreviousQp2, %eax
	subl	PreviousQp1, %eax
	movq	input, %rcx
	imull	$4294967294, 1236(%rcx), %ecx # imm = 0xFFFFFFFE
	cmpl	%ecx, %eax
	jne	.LBB21_171
# %bb.170:                              # %if.then448
	movl	$0, -24(%rbp)
	jmp	.LBB21_175
.LBB21_171:                             # %if.else449
	movl	PreviousQp2, %eax
	subl	PreviousQp1, %eax
	movq	input, %rcx
	imull	$4294967294, 1236(%rcx), %ecx # imm = 0xFFFFFFFE
	addl	$1, %ecx
	cmpl	%ecx, %eax
	jne	.LBB21_173
# %bb.172:                              # %if.then456
	movl	$1, -24(%rbp)
	jmp	.LBB21_174
.LBB21_173:                             # %if.else457
	movl	$2, -24(%rbp)
.LBB21_174:                             # %if.end458
	jmp	.LBB21_175
.LBB21_175:                             # %if.end459
	jmp	.LBB21_176
.LBB21_176:                             # %if.end460
	jmp	.LBB21_177
.LBB21_177:                             # %if.end461
	jmp	.LBB21_178
.LBB21_178:                             # %if.end462
	movl	PreviousQp1, %eax
	addl	-24(%rbp), %eax
	movl	%eax, m_Qc
	movl	-12(%rbp), %ecx
	subl	$1, %ecx
	shll	$1, %ecx
	movl	-12(%rbp), %eax
	subl	$1, %eax
	imull	$4294967294, %eax, %esi # imm = 0xFFFFFFFE
	movl	-12(%rbp), %eax
	subl	$1, %eax
	movl	PreviousQp2, %edx
	subl	PreviousQp1, %edx
	imull	%edx, %eax
	movq	input, %rdx
	movl	1236(%rdx), %edi
	subl	$1, %edi
	cltd
	idivl	%edi
	cmpl	%eax, %esi
	jge	.LBB21_180
# %bb.179:                              # %cond.true476
	movl	-12(%rbp), %eax
	subl	$1, %eax
	movl	PreviousQp2, %edx
	subl	PreviousQp1, %edx
	imull	%edx, %eax
	movq	input, %rdx
	movl	1236(%rdx), %esi
	subl	$1, %esi
	cltd
	idivl	%esi
	jmp	.LBB21_181
.LBB21_180:                             # %cond.false483
	movl	-12(%rbp), %eax
	subl	$1, %eax
	imull	$4294967294, %eax, %eax # imm = 0xFFFFFFFE
.LBB21_181:                             # %cond.end486
	cmpl	%eax, %ecx
	jge	.LBB21_183
# %bb.182:                              # %cond.true490
	movl	-12(%rbp), %eax
	subl	$1, %eax
	shll	$1, %eax
	jmp	.LBB21_187
.LBB21_183:                             # %cond.false493
	movl	-12(%rbp), %eax
	subl	$1, %eax
	imull	$4294967294, %eax, %ecx # imm = 0xFFFFFFFE
	movl	-12(%rbp), %eax
	subl	$1, %eax
	movl	PreviousQp2, %edx
	subl	PreviousQp1, %edx
	imull	%edx, %eax
	movq	input, %rdx
	movl	1236(%rdx), %esi
	subl	$1, %esi
	cltd
	idivl	%esi
	cmpl	%eax, %ecx
	jge	.LBB21_185
# %bb.184:                              # %cond.true504
	movl	-12(%rbp), %eax
	subl	$1, %eax
	movl	PreviousQp2, %ecx
	subl	PreviousQp1, %ecx
	imull	%ecx, %eax
	movq	input, %rcx
	movl	1236(%rcx), %ecx
	subl	$1, %ecx
	cltd
	idivl	%ecx
	jmp	.LBB21_186
.LBB21_185:                             # %cond.false511
	movl	-12(%rbp), %eax
	subl	$1, %eax
	imull	$4294967294, %eax, %eax # imm = 0xFFFFFFFE
.LBB21_186:                             # %cond.end514
.LBB21_187:                             # %cond.end516
	addl	m_Qc, %eax
	movl	%eax, m_Qc
	movl	m_Qc, %eax
	cmpl	RC_MAX_QUANT, %eax
	jge	.LBB21_189
# %bb.188:                              # %cond.true521
	movl	m_Qc, %eax
	jmp	.LBB21_190
.LBB21_189:                             # %cond.false522
	movl	RC_MAX_QUANT, %eax
.LBB21_190:                             # %cond.end523
	movl	%eax, m_Qc
	movl	RC_MIN_QUANT, %eax
	cmpl	m_Qc, %eax
	jge	.LBB21_192
# %bb.191:                              # %cond.true527
	movl	m_Qc, %eax
	jmp	.LBB21_193
.LBB21_192:                             # %cond.false528
	movl	RC_MIN_QUANT, %eax
.LBB21_193:                             # %cond.end529
	movl	%eax, m_Qc
.LBB21_194:                             # %if.end531
	movl	m_Qc, %eax
	movl	%eax, -20(%rbp)
	jmp	.LBB21_363
.LBB21_195:                             # %if.else532
	movl	m_Qc, %eax
	movl	%eax, -20(%rbp)
	jmp	.LBB21_363
.LBB21_196:                             # %if.else533
	movq	img, %rax
	cmpl	$0, 24(%rax)
	jne	.LBB21_358
# %bb.197:                              # %if.then537
	movq	img, %rax
	cmpl	$1, 72568(%rax)
	jne	.LBB21_217
# %bb.198:                              # %land.lhs.true540
	movq	img, %rax
	cmpl	$0, 72576(%rax)
	jne	.LBB21_217
# %bb.199:                              # %if.then544
	movq	img, %rax
	cmpl	$0, 72600(%rax)
	je	.LBB21_202
# %bb.200:                              # %lor.lhs.false548
	movq	img, %rax
	cmpl	$1, 72600(%rax)
	jne	.LBB21_216
# %bb.201:                              # %land.lhs.true552
	movq	img, %rax
	cmpl	$0, 72612(%rax)
	jne	.LBB21_216
.LBB21_202:                             # %if.then556
	movl	MyInitialQp, %eax
	movl	%eax, m_Qc
	movq	img, %rax
	movl	$0, 72532(%rax)
	movq	img, %rax
	movl	$0, 72536(%rax)
	movl	NumberofBasicUnit, %eax
	addl	$-1, %eax
	movl	%eax, NumberofBasicUnit
	cmpl	$0, -36(%rbp)
	jne	.LBB21_215
# %bb.203:                              # %land.lhs.true558
	cmpl	$0, NumberofBasicUnit
	jne	.LBB21_215
# %bb.204:                              # %if.then561
	movq	active_sps, %rax
	cmpl	$0, 1148(%rax)
	jne	.LBB21_206
# %bb.205:                              # %lor.lhs.false564
	movq	input, %rax
	cmpl	$1, 2880(%rax)
	jne	.LBB21_207
.LBB21_206:                             # %if.then568
	movl	m_Qc, %eax
	movq	img, %rcx
	addl	72572(%rcx), %eax
	movl	%eax, 72572(%rcx)
	movl	PreviousQp2, %eax
	movl	%eax, PreviousQp1
	movl	m_Qc, %eax
	movl	%eax, PreviousQp2
	movl	m_Qc, %eax
	movl	%eax, PAveFrameQP
	movl	PAveHeaderBits2, %eax
	movl	%eax, PAveHeaderBits3
	jmp	.LBB21_214
.LBB21_207:                             # %if.else571
	movq	input, %rax
	cmpl	$2, 2880(%rax)
	je	.LBB21_209
# %bb.208:                              # %lor.lhs.false575
	movq	input, %rax
	cmpl	$0, 2884(%rax)
	je	.LBB21_213
.LBB21_209:                             # %if.then578
	movq	img, %rax
	cmpl	$0, 72600(%rax)
	jne	.LBB21_211
# %bb.210:                              # %if.then582
	movl	m_Qc, %eax
	movl	%eax, FrameQPBuffer
	movl	PAveHeaderBits2, %eax
	movl	%eax, FrameAveHeaderBits
	jmp	.LBB21_212
.LBB21_211:                             # %if.else583
	movl	m_Qc, %eax
	movl	%eax, FieldQPBuffer
	movl	PAveHeaderBits2, %eax
	movl	%eax, FieldAveHeaderBits
.LBB21_212:                             # %if.end584
	jmp	.LBB21_213
.LBB21_213:                             # %if.end585
	jmp	.LBB21_214
.LBB21_214:                             # %if.end586
	jmp	.LBB21_215
.LBB21_215:                             # %if.end587
	movl	m_Qc, %eax
	movl	%eax, Pm_Qp
	movl	m_Qc, %eax
	addl	TotalFrameQP, %eax
	movl	%eax, TotalFrameQP
	movl	m_Qc, %eax
	movl	%eax, -20(%rbp)
	jmp	.LBB21_363
.LBB21_216:                             # %if.end589
	jmp	.LBB21_357
.LBB21_217:                             # %if.else590
	vmovsd	Pm_X1, %xmm0            # xmm0 = mem[0],zero
	vmovsd	%xmm0, m_X1
	vmovsd	Pm_X2, %xmm0            # xmm0 = mem[0],zero
	vmovsd	%xmm0, m_X2
	movl	PPreHeader, %eax
	movl	%eax, m_Hp
	movl	Pm_Qp, %eax
	movl	%eax, m_Qp
	movl	PDuantQp, %eax
	movl	%eax, DuantQp
	vmovsd	PMADPictureC1, %xmm0    # xmm0 = mem[0],zero
	vmovsd	%xmm0, MADPictureC1
	vmovsd	PMADPictureC2, %xmm0    # xmm0 = mem[0],zero
	vmovsd	%xmm0, MADPictureC2
	movq	img, %rax
	cmpl	$0, 72600(%rax)
	jne	.LBB21_219
# %bb.218:                              # %if.then594
	movl	TotalNumberofBasicUnit, %eax
	movl	%eax, -52(%rbp)
	jmp	.LBB21_220
.LBB21_219:                             # %if.else595
	movl	TotalNumberofBasicUnit, %eax
	cltd
	movl	$2, %ecx
	idivl	%ecx
	movl	%eax, -52(%rbp)
.LBB21_220:                             # %if.end597
	movl	NumberofBasicUnit, %eax
	cmpl	-52(%rbp), %eax
	jne	.LBB21_241
# %bb.221:                              # %if.then600
	movq	input, %rax
	cmpl	$2, 2880(%rax)
	je	.LBB21_223
# %bb.222:                              # %lor.lhs.false604
	movq	input, %rax
	cmpl	$0, 2884(%rax)
	je	.LBB21_232
.LBB21_223:                             # %land.lhs.true607
	movq	img, %rax
	cmpl	$0, 72600(%rax)
	jne	.LBB21_232
# %bb.224:                              # %if.then611
	movq	img, %rax
	cmpl	$1, 72604(%rax)
	jne	.LBB21_228
# %bb.225:                              # %if.then615
	movq	img, %rax
	cmpl	$0, 72576(%rax)
	jle	.LBB21_227
# %bb.226:                              # %if.then619
	movl	FrameQPBuffer, %eax
	movq	img, %rcx
	addl	72572(%rcx), %eax
	movl	%eax, 72572(%rcx)
.LBB21_227:                             # %if.end622
	movl	FrameQPBuffer, %eax
	movl	%eax, PAveFrameQP
	movl	FrameAveHeaderBits, %eax
	movl	%eax, PAveHeaderBits3
	jmp	.LBB21_231
.LBB21_228:                             # %if.else623
	movq	img, %rax
	cmpl	$0, 72576(%rax)
	jle	.LBB21_230
# %bb.229:                              # %if.then627
	movl	FieldQPBuffer, %eax
	movq	img, %rcx
	addl	72572(%rcx), %eax
	movl	%eax, 72572(%rcx)
.LBB21_230:                             # %if.end630
	movl	FieldQPBuffer, %eax
	movl	%eax, PAveFrameQP
	movl	FieldAveHeaderBits, %eax
	movl	%eax, PAveHeaderBits3
.LBB21_231:                             # %if.end631
	jmp	.LBB21_232
.LBB21_232:                             # %if.end632
	cmpq	$0, T
	jg	.LBB21_239
# %bb.233:                              # %if.then635
	movl	PAveFrameQP, %eax
	addl	$2, %eax
	movl	%eax, m_Qc
	movl	m_Qc, %eax
	cmpl	RC_MAX_QUANT, %eax
	jle	.LBB21_235
# %bb.234:                              # %if.then639
	movl	RC_MAX_QUANT, %eax
	movl	%eax, m_Qc
.LBB21_235:                             # %if.end640
	cmpl	$0, -36(%rbp)
	jne	.LBB21_237
# %bb.236:                              # %lor.lhs.false642
	movq	img, %rax
	cmpl	$0, 72600(%rax)
	jne	.LBB21_238
.LBB21_237:                             # %if.then646
	movl	$1, GOPOverdue
.LBB21_238:                             # %if.end647
	jmp	.LBB21_240
.LBB21_239:                             # %if.else648
	movl	PAveFrameQP, %eax
	movl	%eax, m_Qc
.LBB21_240:                             # %if.end649
	movl	m_Qc, %eax
	addl	TotalFrameQP, %eax
	movl	%eax, TotalFrameQP
	movl	NumberofBasicUnit, %eax
	addl	$-1, %eax
	movl	%eax, NumberofBasicUnit
	movl	PAveFrameQP, %eax
	movl	%eax, Pm_Qp
	movl	m_Qc, %eax
	movl	%eax, -20(%rbp)
	jmp	.LBB21_363
.LBB21_241:                             # %if.else652
	movq	img, %rax
	movl	72532(%rax), %eax
	movq	img, %rcx
	addl	72536(%rcx), %eax
	movl	%eax, TotalBasicUnitBits
	movslq	TotalBasicUnitBits, %rax
	movq	T, %rcx
	subq	%rax, %rcx
	movq	%rcx, T
	movq	img, %rax
	movl	$0, 72532(%rax)
	movq	img, %rax
	movl	$0, 72536(%rax)
	cmpq	$0, T
	jge	.LBB21_287
# %bb.242:                              # %if.then662
	cmpl	$1, GOPOverdue
	jne	.LBB21_244
# %bb.243:                              # %if.then665
	movl	m_Qp, %eax
	addl	$2, %eax
	movl	%eax, m_Qc
	jmp	.LBB21_245
.LBB21_244:                             # %if.else667
	movl	m_Qp, %eax
	addl	DDquant, %eax
	movl	%eax, m_Qc
.LBB21_245:                             # %if.end669
	movl	m_Qc, %eax
	cmpl	RC_MAX_QUANT, %eax
	jge	.LBB21_247
# %bb.246:                              # %cond.true672
	movl	m_Qc, %eax
	jmp	.LBB21_248
.LBB21_247:                             # %cond.false673
	movl	RC_MAX_QUANT, %eax
.LBB21_248:                             # %cond.end674
	movl	%eax, m_Qc
	movq	input, %rax
	movl	3248(%rax), %eax
	cmpl	MBPerRow, %eax
	jl	.LBB21_253
# %bb.249:                              # %if.then678
	movl	m_Qc, %eax
	movl	PAveFrameQP, %ecx
	addl	$6, %ecx
	cmpl	%ecx, %eax
	jge	.LBB21_251
# %bb.250:                              # %cond.true682
	movl	m_Qc, %eax
	jmp	.LBB21_252
.LBB21_251:                             # %cond.false683
	movl	PAveFrameQP, %eax
	addl	$6, %eax
.LBB21_252:                             # %cond.end685
	movl	%eax, m_Qc
	jmp	.LBB21_257
.LBB21_253:                             # %if.else687
	movl	m_Qc, %eax
	movl	PAveFrameQP, %ecx
	addl	$3, %ecx
	cmpl	%ecx, %eax
	jge	.LBB21_255
# %bb.254:                              # %cond.true691
	movl	m_Qc, %eax
	jmp	.LBB21_256
.LBB21_255:                             # %cond.false692
	movl	PAveFrameQP, %eax
	addl	$3, %eax
.LBB21_256:                             # %cond.end694
	movl	%eax, m_Qc
.LBB21_257:                             # %if.end696
	movl	m_Qc, %eax
	addl	TotalFrameQP, %eax
	movl	%eax, TotalFrameQP
	movl	NumberofBasicUnit, %eax
	addl	$-1, %eax
	movl	%eax, NumberofBasicUnit
	cmpl	$0, NumberofBasicUnit
	jne	.LBB21_283
# %bb.258:                              # %if.then701
	cmpl	$0, -36(%rbp)
	je	.LBB21_260
# %bb.259:                              # %lor.lhs.false703
	movq	img, %rax
	cmpl	$0, 72600(%rax)
	jne	.LBB21_282
.LBB21_260:                             # %if.then707
	movq	active_sps, %rax
	cmpl	$0, 1148(%rax)
	jne	.LBB21_262
# %bb.261:                              # %lor.lhs.false710
	movq	input, %rax
	cmpl	$1, 2880(%rax)
	jne	.LBB21_274
.LBB21_262:                             # %if.then714
	vmovsd	.LCPI21_2(%rip), %xmm0  # xmm0 = mem[0],zero
	vmovsd	.LCPI21_3(%rip), %xmm1  # xmm1 = mem[0],zero
	vcvtsi2sdl	TotalFrameQP, %xmm0, %xmm2
	vmulsd	%xmm2, %xmm1, %xmm1
	vcvtsi2sdl	TotalNumberofBasicUnit, %xmm0, %xmm2
	vdivsd	%xmm2, %xmm1, %xmm1
	vaddsd	%xmm0, %xmm1, %xmm0
	vcvttsd2si	%xmm0, %eax
	movl	%eax, -16(%rbp)
	movq	img, %rax
	movl	72576(%rax), %eax
	movq	input, %rcx
	movl	1224(%rcx), %ecx
	subl	$2, %ecx
	cmpl	%ecx, %eax
	jne	.LBB21_264
# %bb.263:                              # %if.then725
	movl	-16(%rbp), %eax
	movl	%eax, QPLastPFrame
.LBB21_264:                             # %if.end726
	movl	-16(%rbp), %eax
	movq	img, %rcx
	addl	72572(%rcx), %eax
	movl	%eax, 72572(%rcx)
	cmpl	$1, GOPOverdue
	jne	.LBB21_266
# %bb.265:                              # %if.then731
	movl	PreviousQp2, %eax
	addl	$1, %eax
	movl	%eax, PreviousQp1
	movl	-16(%rbp), %eax
	movl	%eax, PreviousQp2
	jmp	.LBB21_273
.LBB21_266:                             # %if.else733
	movq	img, %rax
	cmpl	$0, 72576(%rax)
	jne	.LBB21_269
# %bb.267:                              # %land.lhs.true737
	movq	img, %rax
	cmpl	$1, 72568(%rax)
	jle	.LBB21_269
# %bb.268:                              # %if.then741
	movl	PreviousQp2, %eax
	movl	%eax, PreviousQp1
	movl	-16(%rbp), %eax
	movl	%eax, PreviousQp2
	jmp	.LBB21_272
.LBB21_269:                             # %if.else742
	movq	img, %rax
	cmpl	$0, 72576(%rax)
	jle	.LBB21_271
# %bb.270:                              # %if.then746
	movl	PreviousQp2, %eax
	addl	$1, %eax
	movl	%eax, PreviousQp1
	movl	-16(%rbp), %eax
	movl	%eax, PreviousQp2
.LBB21_271:                             # %if.end748
	jmp	.LBB21_272
.LBB21_272:                             # %if.end749
	jmp	.LBB21_273
.LBB21_273:                             # %if.end750
	movl	-16(%rbp), %eax
	movl	%eax, PAveFrameQP
	movl	PAveHeaderBits2, %eax
	movl	%eax, PAveHeaderBits3
	jmp	.LBB21_281
.LBB21_274:                             # %if.else751
	movq	input, %rax
	cmpl	$2, 2880(%rax)
	je	.LBB21_276
# %bb.275:                              # %lor.lhs.false755
	movq	input, %rax
	cmpl	$0, 2884(%rax)
	je	.LBB21_280
.LBB21_276:                             # %if.then758
	movq	img, %rax
	cmpl	$0, 72600(%rax)
	jne	.LBB21_278
# %bb.277:                              # %if.then762
	vmovsd	.LCPI21_2(%rip), %xmm0  # xmm0 = mem[0],zero
	vmovsd	.LCPI21_3(%rip), %xmm1  # xmm1 = mem[0],zero
	vcvtsi2sdl	TotalFrameQP, %xmm0, %xmm2
	vmulsd	%xmm2, %xmm1, %xmm1
	vcvtsi2sdl	TotalNumberofBasicUnit, %xmm0, %xmm2
	vdivsd	%xmm2, %xmm1, %xmm1
	vaddsd	%xmm0, %xmm1, %xmm0
	vcvttsd2si	%xmm0, %eax
	movl	%eax, -16(%rbp)
	movl	-16(%rbp), %eax
	movl	%eax, FrameQPBuffer
	movl	PAveHeaderBits2, %eax
	movl	%eax, FrameAveHeaderBits
	jmp	.LBB21_279
.LBB21_278:                             # %if.else769
	vmovsd	.LCPI21_2(%rip), %xmm0  # xmm0 = mem[0],zero
	vmovsd	.LCPI21_3(%rip), %xmm1  # xmm1 = mem[0],zero
	vcvtsi2sdl	TotalFrameQP, %xmm0, %xmm2
	vmulsd	%xmm2, %xmm1, %xmm1
	vcvtsi2sdl	TotalNumberofBasicUnit, %xmm0, %xmm2
	vdivsd	%xmm2, %xmm1, %xmm1
	vaddsd	%xmm0, %xmm1, %xmm0
	vcvttsd2si	%xmm0, %eax
	movl	%eax, -16(%rbp)
	movl	-16(%rbp), %eax
	movl	%eax, FieldQPBuffer
	movl	PAveHeaderBits2, %eax
	movl	%eax, FieldAveHeaderBits
.LBB21_279:                             # %if.end776
	jmp	.LBB21_280
.LBB21_280:                             # %if.end777
	jmp	.LBB21_281
.LBB21_281:                             # %if.end778
	jmp	.LBB21_282
.LBB21_282:                             # %if.end779
	jmp	.LBB21_283
.LBB21_283:                             # %if.end780
	cmpl	$1, GOPOverdue
	jne	.LBB21_285
# %bb.284:                              # %if.then783
	movl	PAveFrameQP, %eax
	movl	%eax, Pm_Qp
	jmp	.LBB21_286
.LBB21_285:                             # %if.else784
	movl	m_Qc, %eax
	movl	%eax, Pm_Qp
.LBB21_286:                             # %if.end785
	movl	m_Qc, %eax
	movl	%eax, -20(%rbp)
	jmp	.LBB21_363
.LBB21_287:                             # %if.else786
	movq	input, %rax
	cmpl	$2, 2880(%rax)
	je	.LBB21_289
# %bb.288:                              # %lor.lhs.false790
	movq	input, %rax
	cmpl	$0, 2884(%rax)
	je	.LBB21_295
.LBB21_289:                             # %land.lhs.true793
	movq	img, %rax
	cmpl	$1, 72600(%rax)
	jne	.LBB21_295
# %bb.290:                              # %if.then797
	vmovsd	MADPictureC1, %xmm0     # xmm0 = mem[0],zero
	movq	FCBUPFMAD, %rax
	movl	TotalNumberofBasicUnit, %ecx
	subl	NumberofBasicUnit, %ecx
	movslq	%ecx, %rcx
	vmulsd	(%rax,%rcx,8), %xmm0, %xmm0
	vaddsd	MADPictureC2, %xmm0, %xmm0
	vmovsd	%xmm0, CurrentFrameMAD
	vxorps	%xmm0, %xmm0, %xmm0
	vmovsd	%xmm0, TotalBUMAD
	movl	TotalNumberofBasicUnit, %eax
	subl	$1, %eax
	movl	%eax, -32(%rbp)
.LBB21_291:                             # %for.cond
                                        # =>This Inner Loop Header: Depth=1
	movl	-32(%rbp), %eax
	movl	TotalNumberofBasicUnit, %ecx
	subl	NumberofBasicUnit, %ecx
	cmpl	%ecx, %eax
	jl	.LBB21_294
# %bb.292:                              # %for.body
                                        #   in Loop: Header=BB21_291 Depth=1
	vmovsd	MADPictureC1, %xmm0     # xmm0 = mem[0],zero
	movq	FCBUPFMAD, %rax
	movslq	-32(%rbp), %rcx
	vmulsd	(%rax,%rcx,8), %xmm0, %xmm0
	vaddsd	MADPictureC2, %xmm0, %xmm0
	vmovsd	%xmm0, CurrentBUMAD
	vmovsd	CurrentBUMAD, %xmm0     # xmm0 = mem[0],zero
	vmulsd	CurrentBUMAD, %xmm0, %xmm0
	vaddsd	TotalBUMAD, %xmm0, %xmm0
	vmovsd	%xmm0, TotalBUMAD
# %bb.293:                              # %for.inc
                                        #   in Loop: Header=BB21_291 Depth=1
	movl	-32(%rbp), %eax
	addl	$-1, %eax
	movl	%eax, -32(%rbp)
	jmp	.LBB21_291
.LBB21_294:                             # %for.end
	jmp	.LBB21_300
.LBB21_295:                             # %if.else812
	vmovsd	MADPictureC1, %xmm0     # xmm0 = mem[0],zero
	movq	BUPFMAD, %rax
	movl	TotalNumberofBasicUnit, %ecx
	subl	NumberofBasicUnit, %ecx
	movslq	%ecx, %rcx
	vmulsd	(%rax,%rcx,8), %xmm0, %xmm0
	vaddsd	MADPictureC2, %xmm0, %xmm0
	vmovsd	%xmm0, CurrentFrameMAD
	vxorps	%xmm0, %xmm0, %xmm0
	vmovsd	%xmm0, TotalBUMAD
	movl	TotalNumberofBasicUnit, %eax
	subl	$1, %eax
	movl	%eax, -32(%rbp)
.LBB21_296:                             # %for.cond819
                                        # =>This Inner Loop Header: Depth=1
	movl	-32(%rbp), %eax
	movl	TotalNumberofBasicUnit, %ecx
	subl	NumberofBasicUnit, %ecx
	cmpl	%ecx, %eax
	jl	.LBB21_299
# %bb.297:                              # %for.body823
                                        #   in Loop: Header=BB21_296 Depth=1
	vmovsd	MADPictureC1, %xmm0     # xmm0 = mem[0],zero
	movq	BUPFMAD, %rax
	movslq	-32(%rbp), %rcx
	vmulsd	(%rax,%rcx,8), %xmm0, %xmm0
	vaddsd	MADPictureC2, %xmm0, %xmm0
	vmovsd	%xmm0, CurrentBUMAD
	vmovsd	CurrentBUMAD, %xmm0     # xmm0 = mem[0],zero
	vmulsd	CurrentBUMAD, %xmm0, %xmm0
	vaddsd	TotalBUMAD, %xmm0, %xmm0
	vmovsd	%xmm0, TotalBUMAD
# %bb.298:                              # %for.inc830
                                        #   in Loop: Header=BB21_296 Depth=1
	movl	-32(%rbp), %eax
	addl	$-1, %eax
	movl	%eax, -32(%rbp)
	jmp	.LBB21_296
.LBB21_299:                             # %for.end832
	jmp	.LBB21_300
.LBB21_300:                             # %if.end833
	vcvtsi2sdq	T, %xmm0, %xmm0
	vmulsd	CurrentFrameMAD, %xmm0, %xmm0
	vmulsd	CurrentFrameMAD, %xmm0, %xmm0
	vdivsd	TotalBUMAD, %xmm0, %xmm0
	vcvttsd2si	%xmm0, %eax
	movl	%eax, -28(%rbp)
	movl	PAveHeaderBits2, %eax
	movl	-28(%rbp), %ecx
	subl	%eax, %ecx
	movl	%ecx, -28(%rbp)
	movl	-28(%rbp), %eax
	vmovsd	bit_rate, %xmm0         # xmm0 = mem[0],zero
	vmovsd	MINVALUE, %xmm1         # xmm1 = mem[0],zero
	vmulsd	frame_rate, %xmm1, %xmm1
	vcvtsi2sdl	TotalNumberofBasicUnit, %xmm0, %xmm2
	vmulsd	%xmm2, %xmm1, %xmm1
	vdivsd	%xmm1, %xmm0, %xmm0
	vcvttsd2si	%xmm0, %ecx
	cmpl	%ecx, %eax
	jge	.LBB21_302
# %bb.301:                              # %cond.true847
	vmovsd	bit_rate, %xmm0         # xmm0 = mem[0],zero
	vmovsd	MINVALUE, %xmm1         # xmm1 = mem[0],zero
	vmulsd	frame_rate, %xmm1, %xmm1
	vcvtsi2sdl	TotalNumberofBasicUnit, %xmm0, %xmm2
	vmulsd	%xmm2, %xmm1, %xmm1
	vdivsd	%xmm1, %xmm0, %xmm0
	vcvttsd2si	%xmm0, %eax
	jmp	.LBB21_303
.LBB21_302:                             # %cond.false853
	movl	-28(%rbp), %eax
.LBB21_303:                             # %cond.end854
	vmovsd	.LCPI21_0(%rip), %xmm0  # xmm0 = mem[0],zero
	movl	%eax, -28(%rbp)
	vmovsd	CurrentFrameMAD, %xmm1  # xmm1 = mem[0],zero
	vmulsd	m_X1, %xmm1, %xmm1
	vmulsd	CurrentFrameMAD, %xmm1, %xmm1
	vmulsd	m_X1, %xmm1, %xmm1
	vmulsd	m_X2, %xmm0, %xmm0
	vmulsd	CurrentFrameMAD, %xmm0, %xmm0
	vcvtsi2sdl	-28(%rbp), %xmm0, %xmm2
	vmulsd	%xmm2, %xmm0, %xmm0
	vaddsd	%xmm0, %xmm1, %xmm0
	vmovsd	%xmm0, -48(%rbp)
	vmovsd	m_X2, %xmm0             # xmm0 = mem[0],zero
	vxorps	%xmm1, %xmm1, %xmm1
	vucomisd	%xmm1, %xmm0
	jne	.LBB21_304
	jp	.LBB21_304
	jmp	.LBB21_306
.LBB21_304:                             # %lor.lhs.false866
	vxorps	%xmm0, %xmm0, %xmm0
	vucomisd	-48(%rbp), %xmm0
	ja	.LBB21_306
# %bb.305:                              # %lor.lhs.false869
	vmovsd	-48(%rbp), %xmm0        # xmm0 = mem[0],zero
	callq	sqrt
	vmovsd	m_X1, %xmm1             # xmm1 = mem[0],zero
	vmulsd	CurrentFrameMAD, %xmm1, %xmm1
	vsubsd	%xmm1, %xmm0, %xmm0
	vxorps	%xmm1, %xmm1, %xmm1
	vucomisd	%xmm0, %xmm1
	jb	.LBB21_307
.LBB21_306:                             # %if.then875
	vmovsd	m_X1, %xmm0             # xmm0 = mem[0],zero
	vmulsd	CurrentFrameMAD, %xmm0, %xmm0
	vcvtsi2sdl	-28(%rbp), %xmm0, %xmm1
	vdivsd	%xmm1, %xmm0, %xmm0
	vcvtsd2ss	%xmm0, %xmm0, %xmm0
	vcvtss2sd	%xmm0, %xmm0, %xmm0
	vmovsd	%xmm0, m_Qstep
	jmp	.LBB21_308
.LBB21_307:                             # %if.else881
	vmovsd	.LCPI21_1(%rip), %xmm0  # xmm0 = mem[0],zero
	vmulsd	m_X2, %xmm0, %xmm0
	vmulsd	CurrentFrameMAD, %xmm0, %xmm0
	vmovsd	%xmm0, -72(%rbp)        # 8-byte Spill
	vmovsd	-48(%rbp), %xmm0        # xmm0 = mem[0],zero
	callq	sqrt
	vmovsd	m_X1, %xmm1             # xmm1 = mem[0],zero
	vmulsd	CurrentFrameMAD, %xmm1, %xmm1
	vsubsd	%xmm1, %xmm0, %xmm0
	vmovsd	-72(%rbp), %xmm1        # 8-byte Reload
                                        # xmm1 = mem[0],zero
	vdivsd	%xmm0, %xmm1, %xmm0
	vcvtsd2ss	%xmm0, %xmm0, %xmm0
	vcvtss2sd	%xmm0, %xmm0, %xmm0
	vmovsd	%xmm0, m_Qstep
.LBB21_308:                             # %if.end890
	vmovsd	m_Qstep, %xmm0          # xmm0 = mem[0],zero
	callq	Qstep2QP
	movl	%eax, m_Qc
	movl	m_Qp, %eax
	addl	DDquant, %eax
	cmpl	m_Qc, %eax
	jge	.LBB21_310
# %bb.309:                              # %cond.true895
	movl	m_Qp, %eax
	addl	DDquant, %eax
	jmp	.LBB21_311
.LBB21_310:                             # %cond.false897
	movl	m_Qc, %eax
.LBB21_311:                             # %cond.end898
	movl	%eax, m_Qc
	movq	input, %rax
	movl	3248(%rax), %eax
	cmpl	MBPerRow, %eax
	jl	.LBB21_316
# %bb.312:                              # %if.then903
	movl	PAveFrameQP, %eax
	addl	$6, %eax
	cmpl	m_Qc, %eax
	jge	.LBB21_314
# %bb.313:                              # %cond.true907
	movl	PAveFrameQP, %eax
	addl	$6, %eax
	jmp	.LBB21_315
.LBB21_314:                             # %cond.false909
	movl	m_Qc, %eax
.LBB21_315:                             # %cond.end910
	movl	%eax, m_Qc
	jmp	.LBB21_320
.LBB21_316:                             # %if.else912
	movl	PAveFrameQP, %eax
	addl	$3, %eax
	cmpl	m_Qc, %eax
	jge	.LBB21_318
# %bb.317:                              # %cond.true916
	movl	PAveFrameQP, %eax
	addl	$3, %eax
	jmp	.LBB21_319
.LBB21_318:                             # %cond.false918
	movl	m_Qc, %eax
.LBB21_319:                             # %cond.end919
	movl	%eax, m_Qc
.LBB21_320:                             # %if.end921
	movl	m_Qc, %eax
	cmpl	RC_MAX_QUANT, %eax
	jge	.LBB21_322
# %bb.321:                              # %cond.true924
	movl	m_Qc, %eax
	jmp	.LBB21_323
.LBB21_322:                             # %cond.false925
	movl	RC_MAX_QUANT, %eax
.LBB21_323:                             # %cond.end926
	movl	%eax, m_Qc
	movl	m_Qp, %eax
	subl	DDquant, %eax
	cmpl	m_Qc, %eax
	jge	.LBB21_325
# %bb.324:                              # %cond.true931
	movl	m_Qc, %eax
	jmp	.LBB21_326
.LBB21_325:                             # %cond.false932
	movl	m_Qp, %eax
	subl	DDquant, %eax
.LBB21_326:                             # %cond.end934
	movl	%eax, m_Qc
	movq	input, %rax
	movl	3248(%rax), %eax
	cmpl	MBPerRow, %eax
	jl	.LBB21_331
# %bb.327:                              # %if.then939
	movl	PAveFrameQP, %eax
	subl	$6, %eax
	cmpl	m_Qc, %eax
	jge	.LBB21_329
# %bb.328:                              # %cond.true943
	movl	m_Qc, %eax
	jmp	.LBB21_330
.LBB21_329:                             # %cond.false944
	movl	PAveFrameQP, %eax
	subl	$6, %eax
.LBB21_330:                             # %cond.end946
	movl	%eax, m_Qc
	jmp	.LBB21_335
.LBB21_331:                             # %if.else948
	movl	PAveFrameQP, %eax
	subl	$3, %eax
	cmpl	m_Qc, %eax
	jge	.LBB21_333
# %bb.332:                              # %cond.true952
	movl	m_Qc, %eax
	jmp	.LBB21_334
.LBB21_333:                             # %cond.false953
	movl	PAveFrameQP, %eax
	subl	$3, %eax
.LBB21_334:                             # %cond.end955
	movl	%eax, m_Qc
.LBB21_335:                             # %if.end957
	movl	RC_MIN_QUANT, %eax
	cmpl	m_Qc, %eax
	jge	.LBB21_337
# %bb.336:                              # %cond.true960
	movl	m_Qc, %eax
	jmp	.LBB21_338
.LBB21_337:                             # %cond.false961
	movl	RC_MIN_QUANT, %eax
.LBB21_338:                             # %cond.end962
	movl	%eax, m_Qc
	movl	m_Qc, %eax
	addl	TotalFrameQP, %eax
	movl	%eax, TotalFrameQP
	movl	m_Qc, %eax
	movl	%eax, Pm_Qp
	movl	NumberofBasicUnit, %eax
	addl	$-1, %eax
	movl	%eax, NumberofBasicUnit
	cmpl	$0, NumberofBasicUnit
	jne	.LBB21_356
# %bb.339:                              # %land.lhs.true968
	movq	img, %rax
	cmpl	$0, 24(%rax)
	jne	.LBB21_356
# %bb.340:                              # %if.then972
	cmpl	$0, -36(%rbp)
	je	.LBB21_342
# %bb.341:                              # %lor.lhs.false974
	movq	img, %rax
	cmpl	$0, 72600(%rax)
	jne	.LBB21_355
.LBB21_342:                             # %if.then978
	movq	active_sps, %rax
	cmpl	$0, 1148(%rax)
	jne	.LBB21_344
# %bb.343:                              # %lor.lhs.false981
	movq	input, %rax
	cmpl	$1, 2880(%rax)
	jne	.LBB21_347
.LBB21_344:                             # %if.then985
	vmovsd	.LCPI21_2(%rip), %xmm0  # xmm0 = mem[0],zero
	vmovsd	.LCPI21_3(%rip), %xmm1  # xmm1 = mem[0],zero
	vcvtsi2sdl	TotalFrameQP, %xmm0, %xmm2
	vmulsd	%xmm2, %xmm1, %xmm1
	vcvtsi2sdl	TotalNumberofBasicUnit, %xmm0, %xmm2
	vdivsd	%xmm2, %xmm1, %xmm1
	vaddsd	%xmm0, %xmm1, %xmm0
	vcvttsd2si	%xmm0, %eax
	movl	%eax, -16(%rbp)
	movq	img, %rax
	movl	72576(%rax), %eax
	movq	input, %rcx
	movl	1224(%rcx), %ecx
	subl	$2, %ecx
	cmpl	%ecx, %eax
	jne	.LBB21_346
# %bb.345:                              # %if.then997
	movl	-16(%rbp), %eax
	movl	%eax, QPLastPFrame
.LBB21_346:                             # %if.end998
	movl	-16(%rbp), %eax
	movq	img, %rcx
	addl	72572(%rcx), %eax
	movl	%eax, 72572(%rcx)
	movl	PreviousQp2, %eax
	movl	%eax, PreviousQp1
	movl	-16(%rbp), %eax
	movl	%eax, PreviousQp2
	movl	-16(%rbp), %eax
	movl	%eax, PAveFrameQP
	movl	PAveHeaderBits2, %eax
	movl	%eax, PAveHeaderBits3
	jmp	.LBB21_354
.LBB21_347:                             # %if.else1001
	movq	input, %rax
	cmpl	$2, 2880(%rax)
	je	.LBB21_349
# %bb.348:                              # %lor.lhs.false1005
	movq	input, %rax
	cmpl	$0, 2884(%rax)
	je	.LBB21_353
.LBB21_349:                             # %if.then1008
	movq	img, %rax
	cmpl	$0, 72600(%rax)
	jne	.LBB21_351
# %bb.350:                              # %if.then1012
	vmovsd	.LCPI21_2(%rip), %xmm0  # xmm0 = mem[0],zero
	vmovsd	.LCPI21_3(%rip), %xmm1  # xmm1 = mem[0],zero
	vcvtsi2sdl	TotalFrameQP, %xmm0, %xmm2
	vmulsd	%xmm2, %xmm1, %xmm1
	vcvtsi2sdl	TotalNumberofBasicUnit, %xmm0, %xmm2
	vdivsd	%xmm2, %xmm1, %xmm1
	vaddsd	%xmm0, %xmm1, %xmm0
	vcvttsd2si	%xmm0, %eax
	movl	%eax, -16(%rbp)
	movl	-16(%rbp), %eax
	movl	%eax, FrameQPBuffer
	movl	PAveHeaderBits2, %eax
	movl	%eax, FrameAveHeaderBits
	jmp	.LBB21_352
.LBB21_351:                             # %if.else1019
	vmovsd	.LCPI21_2(%rip), %xmm0  # xmm0 = mem[0],zero
	vmovsd	.LCPI21_3(%rip), %xmm1  # xmm1 = mem[0],zero
	vcvtsi2sdl	TotalFrameQP, %xmm0, %xmm2
	vmulsd	%xmm2, %xmm1, %xmm1
	vcvtsi2sdl	TotalNumberofBasicUnit, %xmm0, %xmm2
	vdivsd	%xmm2, %xmm1, %xmm1
	vaddsd	%xmm0, %xmm1, %xmm0
	vcvttsd2si	%xmm0, %eax
	movl	%eax, -16(%rbp)
	movl	-16(%rbp), %eax
	movl	%eax, FieldQPBuffer
	movl	PAveHeaderBits2, %eax
	movl	%eax, FieldAveHeaderBits
.LBB21_352:                             # %if.end1026
	jmp	.LBB21_353
.LBB21_353:                             # %if.end1027
	jmp	.LBB21_354
.LBB21_354:                             # %if.end1028
	jmp	.LBB21_355
.LBB21_355:                             # %if.end1029
	jmp	.LBB21_356
.LBB21_356:                             # %if.end1030
	movl	m_Qc, %eax
	movl	%eax, -20(%rbp)
	jmp	.LBB21_363
.LBB21_357:                             # %if.end1031
	jmp	.LBB21_358
.LBB21_358:                             # %if.end1032
	jmp	.LBB21_359
.LBB21_359:                             # %if.end1033
	jmp	.LBB21_360
.LBB21_360:                             # %if.end1034
	jmp	.LBB21_361
.LBB21_361:                             # %if.end1035
	jmp	.LBB21_362
.LBB21_362:                             # %if.end1036
	movl	m_Qc, %eax
	movl	%eax, -20(%rbp)
.LBB21_363:                             # %return
	movl	-20(%rbp), %ebx
	cmpl	$1865460108, -56(%rbp)  # imm = 0x6F30A98C
	jne	.LBB21_365
.LBB21_364:
	movl	%ebx, %eax
	addq	$72, %rsp
	popq	%rbx
	popq	%rbp
	.cfi_def_cfa %rsp, 8
	retq
.LBB21_365:                             # %func_exit
	.cfi_def_cfa %rbp, 16
	callq	detect_breach
	jmp	.LBB21_364
.Lfunc_end21:
	.size	updateQuantizationParameter.5, .Lfunc_end21-updateQuantizationParameter.5
	.cfi_endproc
                                        # -- End function
	.globl	ComputeFrameMAD.6       # -- Begin function ComputeFrameMAD.6
	.p2align	4, 0x90
	.type	ComputeFrameMAD.6,@function
ComputeFrameMAD.6:                      # @ComputeFrameMAD.6
	.cfi_startproc
# %bb.0:                                # %entry
	pushq	%rbp
	.cfi_def_cfa_offset 16
	.cfi_offset %rbp, -16
	movq	%rsp, %rbp
	.cfi_def_cfa_register %rbp
	subq	$32, %rsp
	movl	$547354245, -20(%rbp)   # imm = 0x209FF685
	vxorps	%xmm0, %xmm0, %xmm0
	vmovsd	%xmm0, -16(%rbp)
	movl	$0, -4(%rbp)
.LBB22_1:                               # %for.cond
                                        # =>This Inner Loop Header: Depth=1
	movl	-4(%rbp), %eax
	movq	img, %rcx
	cmpl	72608(%rcx), %eax
	jge	.LBB22_4
# %bb.2:                                # %for.body
                                        #   in Loop: Header=BB22_1 Depth=1
	movq	img, %rax
	movq	72584(%rax), %rax
	movslq	-4(%rbp), %rcx
	vmovsd	(%rax,%rcx,8), %xmm0    # xmm0 = mem[0],zero
	vaddsd	-16(%rbp), %xmm0, %xmm0
	vmovsd	%xmm0, -16(%rbp)
# %bb.3:                                # %for.inc
                                        #   in Loop: Header=BB22_1 Depth=1
	movl	-4(%rbp), %eax
	addl	$1, %eax
	movl	%eax, -4(%rbp)
	jmp	.LBB22_1
.LBB22_4:                               # %for.end
	movq	img, %rax
	vcvtsi2sdl	72608(%rax), %xmm0, %xmm0
	vmovsd	-16(%rbp), %xmm1        # xmm1 = mem[0],zero
	vdivsd	%xmm0, %xmm1, %xmm0
	vmovsd	%xmm0, -16(%rbp)
	vmovsd	-16(%rbp), %xmm0        # xmm0 = mem[0],zero
	cmpl	$547354245, -20(%rbp)   # imm = 0x209FF685
	jne	.LBB22_6
.LBB22_5:
	addq	$32, %rsp
	popq	%rbp
	.cfi_def_cfa %rsp, 8
	retq
.LBB22_6:                               # %func_exit
	.cfi_def_cfa %rbp, 16
	vmovsd	%xmm0, -32(%rbp)        # 8-byte Spill
	callq	detect_breach
	vmovsd	-32(%rbp), %xmm0        # 8-byte Reload
                                        # xmm0 = mem[0],zero
	jmp	.LBB22_5
.Lfunc_end22:
	.size	ComputeFrameMAD.6, .Lfunc_end22-ComputeFrameMAD.6
	.cfi_endproc
                                        # -- End function
	.section	.rodata.cst8,"aM",@progbits,8
	.p2align	3               # -- Begin function updateRCModel.7
.LCPI23_0:
	.quad	4611686018427387904     # double 2
.LCPI23_1:
	.quad	4602678819172646912     # double 0.5
.LCPI23_2:
	.quad	4607182418800017408     # double 1
.LCPI23_3:
	.quad	4626322717216342016     # double 20
	.section	.rodata.cst16,"aM",@progbits,16
	.p2align	4
.LCPI23_4:
	.quad	9223372036854775807     # double NaN
	.quad	9223372036854775807     # double NaN
	.text
	.globl	updateRCModel.7
	.p2align	4, 0x90
	.type	updateRCModel.7,@function
updateRCModel.7:                        # @updateRCModel.7
	.cfi_startproc
# %bb.0:                                # %entry
	pushq	%rbp
	.cfi_def_cfa_offset 16
	.cfi_offset %rbp, -16
	movq	%rsp, %rbp
	.cfi_def_cfa_register %rbp
	subq	$208, %rsp
	movl	$627492289, -28(%rbp)   # imm = 0x2566C5C1
	vxorps	%xmm0, %xmm0, %xmm0
	vmovsd	%xmm0, -24(%rbp)
	movl	$0, -16(%rbp)
	movq	img, %rax
	cmpl	$0, 24(%rax)
	jne	.LBB23_68
# %bb.1:                                # %if.then
	movq	img, %rax
	movl	72620(%rax), %eax
	movq	img, %rcx
	cmpl	72608(%rcx), %eax
	jne	.LBB23_3
# %bb.2:                                # %if.then2
	callq	ComputeFrameMAD
	vmovsd	%xmm0, CurrentFrameMAD
	movq	img, %rax
	movl	72564(%rax), %eax
	movl	%eax, -12(%rbp)
	jmp	.LBB23_21
.LBB23_3:                               # %if.else
	movq	input, %rax
	cmpl	$0, 2884(%rax)
	je	.LBB23_6
# %bb.4:                                # %land.lhs.true
	movq	img, %rax
	cmpl	$0, 72600(%rax)
	jne	.LBB23_6
# %bb.5:                                # %if.then4
	vmovsd	.LCPI23_0(%rip), %xmm0  # xmm0 = mem[0],zero
	movq	img, %rax
	vmovsd	72544(%rax), %xmm1      # xmm1 = mem[0],zero
	movq	img, %rax
	vcvtsi2sdl	72620(%rax), %xmm0, %xmm2
	vdivsd	%xmm2, %xmm1, %xmm1
	vdivsd	%xmm0, %xmm1, %xmm0
	vmovsd	%xmm0, CurrentFrameMAD
	jmp	.LBB23_7
.LBB23_6:                               # %if.else7
	movq	img, %rax
	vmovsd	72544(%rax), %xmm0      # xmm0 = mem[0],zero
	movq	img, %rax
	vcvtsi2sdl	72620(%rax), %xmm0, %xmm1
	vdivsd	%xmm1, %xmm0, %xmm0
	vmovsd	%xmm0, CurrentFrameMAD
.LBB23_7:                               # %if.end
	movq	img, %rax
	vxorps	%xmm0, %xmm0, %xmm0
	vmovsd	%xmm0, 72544(%rax)
	movl	TotalNumberofBasicUnit, %eax
	subl	NumberofBasicUnit, %eax
	movl	%eax, CodedBasicUnit
	cmpl	$0, CodedBasicUnit
	jle	.LBB23_12
# %bb.8:                                # %if.then15
	vmovsd	.LCPI23_1(%rip), %xmm0  # xmm0 = mem[0],zero
	vmovsd	.LCPI23_2(%rip), %xmm1  # xmm1 = mem[0],zero
	movl	PAveHeaderBits1, %eax
	movl	CodedBasicUnit, %ecx
	subl	$1, %ecx
	imull	%ecx, %eax
	movq	img, %rcx
	addl	72532(%rcx), %eax
	vcvtsi2sd	%eax, %xmm0, %xmm2
	vmulsd	%xmm2, %xmm1, %xmm1
	vcvtsi2sdl	CodedBasicUnit, %xmm0, %xmm2
	vdivsd	%xmm2, %xmm1, %xmm1
	vaddsd	%xmm0, %xmm1, %xmm0
	vcvttsd2si	%xmm0, %eax
	movl	%eax, PAveHeaderBits1
	cmpl	$0, PAveHeaderBits3
	jne	.LBB23_10
# %bb.9:                                # %if.then25
	movl	PAveHeaderBits1, %eax
	movl	%eax, PAveHeaderBits2
	jmp	.LBB23_11
.LBB23_10:                              # %if.else26
	vmovsd	.LCPI23_1(%rip), %xmm0  # xmm0 = mem[0],zero
	vmovsd	.LCPI23_2(%rip), %xmm1  # xmm1 = mem[0],zero
	movl	PAveHeaderBits1, %eax
	imull	CodedBasicUnit, %eax
	movl	PAveHeaderBits3, %ecx
	imull	NumberofBasicUnit, %ecx
	addl	%ecx, %eax
	vcvtsi2sd	%eax, %xmm0, %xmm2
	vmulsd	%xmm2, %xmm1, %xmm1
	vcvtsi2sdl	TotalNumberofBasicUnit, %xmm0, %xmm2
	vdivsd	%xmm2, %xmm1, %xmm1
	vaddsd	%xmm0, %xmm1, %xmm0
	vcvttsd2si	%xmm0, %eax
	movl	%eax, PAveHeaderBits2
.LBB23_11:                              # %if.end36
	jmp	.LBB23_12
.LBB23_12:                              # %if.end37
	movq	input, %rax
	cmpl	$2, 2880(%rax)
	je	.LBB23_14
# %bb.13:                               # %lor.lhs.false
	movq	input, %rax
	cmpl	$0, 2884(%rax)
	je	.LBB23_16
.LBB23_14:                              # %land.lhs.true42
	movq	img, %rax
	cmpl	$1, 72600(%rax)
	jne	.LBB23_16
# %bb.15:                               # %if.then46
	vmovsd	CurrentFrameMAD, %xmm0  # xmm0 = mem[0],zero
	movq	FCBUCFMAD, %rax
	movl	TotalNumberofBasicUnit, %ecx
	subl	$1, %ecx
	subl	NumberofBasicUnit, %ecx
	movslq	%ecx, %rcx
	vmovsd	%xmm0, (%rax,%rcx,8)
	jmp	.LBB23_17
.LBB23_16:                              # %if.else49
	vmovsd	CurrentFrameMAD, %xmm0  # xmm0 = mem[0],zero
	movq	BUCFMAD, %rax
	movl	TotalNumberofBasicUnit, %ecx
	subl	$1, %ecx
	subl	NumberofBasicUnit, %ecx
	movslq	%ecx, %rcx
	vmovsd	%xmm0, (%rax,%rcx,8)
.LBB23_17:                              # %if.end54
	cmpl	$0, NumberofBasicUnit
	je	.LBB23_19
# %bb.18:                               # %if.then57
	movq	img, %rax
	movl	72564(%rax), %eax
	imull	TotalNumberofBasicUnit, %eax
	addl	CodedBasicUnit, %eax
	movl	%eax, -12(%rbp)
	jmp	.LBB23_20
.LBB23_19:                              # %if.else61
	movq	img, %rax
	movl	72564(%rax), %eax
	subl	$1, %eax
	imull	TotalNumberofBasicUnit, %eax
	addl	CodedBasicUnit, %eax
	movl	%eax, -12(%rbp)
.LBB23_20:                              # %if.end66
	jmp	.LBB23_21
.LBB23_21:                              # %if.end67
	cmpl	$1, -12(%rbp)
	jle	.LBB23_23
# %bb.22:                               # %if.then70
	movl	$1, -16(%rbp)
.LBB23_23:                              # %if.end71
	movq	img, %rax
	movl	72524(%rax), %eax
	movl	%eax, PPreHeader
	movl	$19, -4(%rbp)
.LBB23_24:                              # %for.cond
                                        # =>This Inner Loop Header: Depth=1
	cmpl	$0, -4(%rbp)
	jle	.LBB23_27
# %bb.25:                               # %for.body
                                        #   in Loop: Header=BB23_24 Depth=1
	movl	-4(%rbp), %eax
	subl	$1, %eax
	cltq
	vmovsd	Pm_rgQp(,%rax,8), %xmm0 # xmm0 = mem[0],zero
	movslq	-4(%rbp), %rax
	vmovsd	%xmm0, Pm_rgQp(,%rax,8)
	movslq	-4(%rbp), %rax
	vmovsd	Pm_rgQp(,%rax,8), %xmm0 # xmm0 = mem[0],zero
	movslq	-4(%rbp), %rax
	vmovsd	%xmm0, m_rgQp(,%rax,8)
	movl	-4(%rbp), %eax
	subl	$1, %eax
	cltq
	vmovsd	Pm_rgRp(,%rax,8), %xmm0 # xmm0 = mem[0],zero
	movslq	-4(%rbp), %rax
	vmovsd	%xmm0, Pm_rgRp(,%rax,8)
	movslq	-4(%rbp), %rax
	vmovsd	Pm_rgRp(,%rax,8), %xmm0 # xmm0 = mem[0],zero
	movslq	-4(%rbp), %rax
	vmovsd	%xmm0, m_rgRp(,%rax,8)
# %bb.26:                               # %for.inc
                                        #   in Loop: Header=BB23_24 Depth=1
	movl	-4(%rbp), %eax
	addl	$-1, %eax
	movl	%eax, -4(%rbp)
	jmp	.LBB23_24
.LBB23_27:                              # %for.end
	movl	m_Qc, %edi
	callq	QP2Qstep
	vmovsd	%xmm0, Pm_rgQp
	movq	img, %rax
	movl	72620(%rax), %eax
	movq	img, %rcx
	cmpl	72608(%rcx), %eax
	jne	.LBB23_29
# %bb.28:                               # %if.then97
	vmovsd	.LCPI23_2(%rip), %xmm0  # xmm0 = mem[0],zero
	movq	img, %rax
	vcvtsi2sdl	72528(%rax), %xmm0, %xmm1
	vmulsd	%xmm0, %xmm1, %xmm0
	vdivsd	CurrentFrameMAD, %xmm0, %xmm0
	vmovsd	%xmm0, Pm_rgRp
	jmp	.LBB23_30
.LBB23_29:                              # %if.else101
	vmovsd	.LCPI23_2(%rip), %xmm0  # xmm0 = mem[0],zero
	movq	img, %rax
	vcvtsi2sdl	72536(%rax), %xmm0, %xmm1
	vmulsd	%xmm0, %xmm1, %xmm0
	vdivsd	CurrentFrameMAD, %xmm0, %xmm0
	vmovsd	%xmm0, Pm_rgRp
.LBB23_30:                              # %if.end105
	vmovsd	Pm_rgQp, %xmm0          # xmm0 = mem[0],zero
	vmovsd	%xmm0, m_rgQp
	vmovsd	Pm_rgRp, %xmm0          # xmm0 = mem[0],zero
	vmovsd	%xmm0, m_rgRp
	vmovsd	Pm_X1, %xmm0            # xmm0 = mem[0],zero
	vmovsd	%xmm0, m_X1
	vmovsd	Pm_X2, %xmm0            # xmm0 = mem[0],zero
	vmovsd	%xmm0, m_X2
	vmovsd	CurrentFrameMAD, %xmm0  # xmm0 = mem[0],zero
	vucomisd	PreviousFrameMAD, %xmm0
	jbe	.LBB23_32
# %bb.31:                               # %cond.true
	vmovsd	.LCPI23_3(%rip), %xmm0  # xmm0 = mem[0],zero
	vmovsd	PreviousFrameMAD, %xmm1 # xmm1 = mem[0],zero
	vdivsd	CurrentFrameMAD, %xmm1, %xmm1
	vmulsd	%xmm0, %xmm1, %xmm0
	vcvttsd2si	%xmm0, %eax
	jmp	.LBB23_33
.LBB23_32:                              # %cond.false
	vmovsd	.LCPI23_3(%rip), %xmm0  # xmm0 = mem[0],zero
	vmovsd	CurrentFrameMAD, %xmm1  # xmm1 = mem[0],zero
	vdivsd	PreviousFrameMAD, %xmm1, %xmm1
	vmulsd	%xmm0, %xmm1, %xmm0
	vcvttsd2si	%xmm0, %eax
.LBB23_33:                              # %cond.end
	movl	%eax, -8(%rbp)
	cmpl	$1, -8(%rbp)
	jge	.LBB23_35
# %bb.34:                               # %cond.true116
	movl	$1, %eax
	jmp	.LBB23_36
.LBB23_35:                              # %cond.false117
	movl	-8(%rbp), %eax
.LBB23_36:                              # %cond.end118
	movl	%eax, -8(%rbp)
	movl	-8(%rbp), %eax
	cmpl	-12(%rbp), %eax
	jge	.LBB23_38
# %bb.37:                               # %cond.true122
	movl	-8(%rbp), %eax
	jmp	.LBB23_39
.LBB23_38:                              # %cond.false123
	movl	-12(%rbp), %eax
.LBB23_39:                              # %cond.end124
	movl	%eax, -8(%rbp)
	movl	-8(%rbp), %eax
	movl	m_windowSize, %ecx
	addl	$1, %ecx
	cmpl	%ecx, %eax
	jge	.LBB23_41
# %bb.40:                               # %cond.true129
	movl	-8(%rbp), %eax
	jmp	.LBB23_42
.LBB23_41:                              # %cond.false130
	movl	m_windowSize, %eax
	addl	$1, %eax
.LBB23_42:                              # %cond.end132
	movl	%eax, -8(%rbp)
	cmpl	$20, -8(%rbp)
	jge	.LBB23_44
# %bb.43:                               # %cond.true136
	movl	-8(%rbp), %eax
	jmp	.LBB23_45
.LBB23_44:                              # %cond.false137
	movl	$20, %eax
	jmp	.LBB23_45
.LBB23_45:                              # %cond.end138
	movl	%eax, -8(%rbp)
	movl	-8(%rbp), %eax
	movl	%eax, m_windowSize
	movl	$0, -4(%rbp)
.LBB23_46:                              # %for.cond140
                                        # =>This Inner Loop Header: Depth=1
	cmpl	$20, -4(%rbp)
	jge	.LBB23_49
# %bb.47:                               # %for.body143
                                        #   in Loop: Header=BB23_46 Depth=1
	movslq	-4(%rbp), %rax
	movl	$0, m_rgRejected(,%rax,4)
# %bb.48:                               # %for.inc146
                                        #   in Loop: Header=BB23_46 Depth=1
	movl	-4(%rbp), %eax
	addl	$1, %eax
	movl	%eax, -4(%rbp)
	jmp	.LBB23_46
.LBB23_49:                              # %for.end147
	movl	-8(%rbp), %edi
	callq	RCModelEstimator
	movl	m_windowSize, %eax
	movl	%eax, -8(%rbp)
	movl	$0, -4(%rbp)
.LBB23_50:                              # %for.cond148
                                        # =>This Inner Loop Header: Depth=1
	movl	-4(%rbp), %eax
	cmpl	-8(%rbp), %eax
	jge	.LBB23_53
# %bb.51:                               # %for.body151
                                        #   in Loop: Header=BB23_50 Depth=1
	vmovsd	m_X1, %xmm0             # xmm0 = mem[0],zero
	movslq	-4(%rbp), %rax
	vdivsd	m_rgQp(,%rax,8), %xmm0, %xmm0
	vmovsd	m_X2, %xmm1             # xmm1 = mem[0],zero
	movslq	-4(%rbp), %rax
	vmovsd	m_rgQp(,%rax,8), %xmm2  # xmm2 = mem[0],zero
	movslq	-4(%rbp), %rax
	vmulsd	m_rgQp(,%rax,8), %xmm2, %xmm2
	vdivsd	%xmm2, %xmm1, %xmm1
	vaddsd	%xmm1, %xmm0, %xmm0
	movslq	-4(%rbp), %rax
	vsubsd	m_rgRp(,%rax,8), %xmm0, %xmm0
	movslq	-4(%rbp), %rax
	vmovsd	%xmm0, -208(%rbp,%rax,8)
	movslq	-4(%rbp), %rax
	vmovsd	-208(%rbp,%rax,8), %xmm0 # xmm0 = mem[0],zero
	movslq	-4(%rbp), %rax
	vmulsd	-208(%rbp,%rax,8), %xmm0, %xmm0
	vaddsd	-24(%rbp), %xmm0, %xmm0
	vmovsd	%xmm0, -24(%rbp)
# %bb.52:                               # %for.inc173
                                        #   in Loop: Header=BB23_50 Depth=1
	movl	-4(%rbp), %eax
	addl	$1, %eax
	movl	%eax, -4(%rbp)
	jmp	.LBB23_50
.LBB23_53:                              # %for.end175
	cmpl	$2, -8(%rbp)
	jne	.LBB23_55
# %bb.54:                               # %cond.true178
	vxorps	%xmm0, %xmm0, %xmm0
	jmp	.LBB23_56
.LBB23_55:                              # %cond.false179
	vmovsd	-24(%rbp), %xmm0        # xmm0 = mem[0],zero
	vcvtsi2sdl	-8(%rbp), %xmm0, %xmm1
	vdivsd	%xmm1, %xmm0, %xmm0
	callq	sqrt
.LBB23_56:                              # %cond.end183
	vmovsd	%xmm0, -40(%rbp)
	movl	$0, -4(%rbp)
.LBB23_57:                              # %for.cond185
                                        # =>This Inner Loop Header: Depth=1
	movl	-4(%rbp), %eax
	cmpl	-8(%rbp), %eax
	jge	.LBB23_62
# %bb.58:                               # %for.body188
                                        #   in Loop: Header=BB23_57 Depth=1
	movslq	-4(%rbp), %rax
	vmovsd	-208(%rbp,%rax,8), %xmm0 # xmm0 = mem[0],zero
	vmovdqa	.LCPI23_4(%rip), %xmm1  # xmm1 = [NaN,NaN]
	vpand	%xmm1, %xmm0, %xmm0
	vucomisd	-40(%rbp), %xmm0
	jbe	.LBB23_60
# %bb.59:                               # %if.then193
                                        #   in Loop: Header=BB23_57 Depth=1
	movslq	-4(%rbp), %rax
	movl	$1, m_rgRejected(,%rax,4)
.LBB23_60:                              # %if.end196
                                        #   in Loop: Header=BB23_57 Depth=1
	jmp	.LBB23_61
.LBB23_61:                              # %for.inc197
                                        #   in Loop: Header=BB23_57 Depth=1
	movl	-4(%rbp), %eax
	addl	$1, %eax
	movl	%eax, -4(%rbp)
	jmp	.LBB23_57
.LBB23_62:                              # %for.end199
	movl	$0, m_rgRejected
	movl	-8(%rbp), %edi
	callq	RCModelEstimator
	cmpl	$0, -16(%rbp)
	je	.LBB23_64
# %bb.63:                               # %if.then201
	callq	updateMADModel
	jmp	.LBB23_67
.LBB23_64:                              # %if.else202
	movq	img, %rax
	cmpl	$0, 24(%rax)
	jne	.LBB23_66
# %bb.65:                               # %if.then206
	vmovsd	CurrentFrameMAD, %xmm0  # xmm0 = mem[0],zero
	vmovsd	%xmm0, PPictureMAD
.LBB23_66:                              # %if.end207
	jmp	.LBB23_67
.LBB23_67:                              # %if.end208
	jmp	.LBB23_68
.LBB23_68:                              # %if.end209
	cmpl	$627492289, -28(%rbp)   # imm = 0x2566C5C1
	jne	.LBB23_70
.LBB23_69:
	addq	$208, %rsp
	popq	%rbp
	.cfi_def_cfa %rsp, 8
	retq
.LBB23_70:                              # %func_exit
	.cfi_def_cfa %rbp, 16
	callq	detect_breach
	jmp	.LBB23_69
.Lfunc_end23:
	.size	updateRCModel.7, .Lfunc_end23-updateRCModel.7
	.cfi_endproc
                                        # -- End function
	.section	.rodata.cst8,"aM",@progbits,8
	.p2align	3               # -- Begin function Qstep2QP.8
.LCPI24_0:
	.quad	4604086194056200192     # double 0.65625
.LCPI24_1:
	.quad	4604930618986332160     # double 0.75
.LCPI24_2:
	.quad	4605775043916464128     # double 0.84375
.LCPI24_3:
	.quad	4606619468846596096     # double 0.9375
.LCPI24_4:
	.quad	4607463893776728064     # double 1.0625
.LCPI24_5:
	.quad	4607745368753438720     # double 1.125
.LCPI24_6:
	.quad	4607182418800017408     # double 1
.LCPI24_7:
	.quad	4606056518893174784     # double 0.875
.LCPI24_8:
	.quad	4605493568939753472     # double 0.8125
.LCPI24_9:
	.quad	4604367669032910848     # double 0.6875
.LCPI24_10:
	.quad	4603804719079489536     # double 0.625
.LCPI24_11:
	.quad	4611686018427387904     # double 2
	.text
	.globl	Qstep2QP.8
	.p2align	4, 0x90
	.type	Qstep2QP.8,@function
Qstep2QP.8:                             # @Qstep2QP.8
	.cfi_startproc
# %bb.0:                                # %entry
	pushq	%rbp
	.cfi_def_cfa_offset 16
	.cfi_offset %rbp, -16
	movq	%rsp, %rbp
	.cfi_def_cfa_register %rbp
	pushq	%rbx
	subq	$56, %rsp
	.cfi_offset %rbx, -24
	movl	$814838730, -32(%rbp)   # imm = 0x309173CA
	vmovsd	%xmm0, -16(%rbp)
	movl	$0, -28(%rbp)
	movl	$0, -20(%rbp)
	vmovsd	-16(%rbp), %xmm0        # xmm0 = mem[0],zero
	vmovsd	%xmm0, -40(%rbp)        # 8-byte Spill
	xorl	%edi, %edi
	callq	QP2Qstep
	vucomisd	-40(%rbp), %xmm0 # 8-byte Folded Reload
	jbe	.LBB24_2
# %bb.1:                                # %if.then
	movl	$0, -24(%rbp)
	jmp	.LBB24_24
.LBB24_2:                               # %if.else
	vmovsd	-16(%rbp), %xmm0        # xmm0 = mem[0],zero
	vmovsd	%xmm0, -56(%rbp)        # 8-byte Spill
	movl	$51, %edi
	callq	QP2Qstep
	vmovsd	-56(%rbp), %xmm1        # 8-byte Reload
                                        # xmm1 = mem[0],zero
	vucomisd	%xmm0, %xmm1
	jbe	.LBB24_4
# %bb.3:                                # %if.then3
	movl	$51, -24(%rbp)
	jmp	.LBB24_24
.LBB24_4:                               # %if.end
	jmp	.LBB24_5
.LBB24_5:                               # %if.end4
	jmp	.LBB24_6
.LBB24_6:                               # %while.cond
                                        # =>This Inner Loop Header: Depth=1
	vmovsd	-16(%rbp), %xmm0        # xmm0 = mem[0],zero
	vmovsd	%xmm0, -48(%rbp)        # 8-byte Spill
	movl	$5, %edi
	callq	QP2Qstep
	vmovsd	-48(%rbp), %xmm1        # 8-byte Reload
                                        # xmm1 = mem[0],zero
	vucomisd	%xmm0, %xmm1
	jbe	.LBB24_8
# %bb.7:                                # %while.body
                                        #   in Loop: Header=BB24_6 Depth=1
	vmovsd	.LCPI24_11(%rip), %xmm0 # xmm0 = mem[0],zero
	vmovsd	-16(%rbp), %xmm1        # xmm1 = mem[0],zero
	vdivsd	%xmm0, %xmm1, %xmm0
	vmovsd	%xmm0, -16(%rbp)
	movl	-28(%rbp), %eax
	addl	$1, %eax
	movl	%eax, -28(%rbp)
	jmp	.LBB24_6
.LBB24_8:                               # %while.end
	vmovsd	.LCPI24_0(%rip), %xmm0  # xmm0 = mem[0],zero
	vucomisd	-16(%rbp), %xmm0
	jb	.LBB24_10
# %bb.9:                                # %if.then8
	vmovsd	.LCPI24_10(%rip), %xmm0 # xmm0 = mem[0],zero
	vmovsd	%xmm0, -16(%rbp)
	movl	$0, -20(%rbp)
	jmp	.LBB24_23
.LBB24_10:                              # %if.else9
	vmovsd	.LCPI24_1(%rip), %xmm0  # xmm0 = mem[0],zero
	vucomisd	-16(%rbp), %xmm0
	jb	.LBB24_12
# %bb.11:                               # %if.then11
	vmovsd	.LCPI24_9(%rip), %xmm0  # xmm0 = mem[0],zero
	vmovsd	%xmm0, -16(%rbp)
	movl	$1, -20(%rbp)
	jmp	.LBB24_22
.LBB24_12:                              # %if.else12
	vmovsd	.LCPI24_2(%rip), %xmm0  # xmm0 = mem[0],zero
	vucomisd	-16(%rbp), %xmm0
	jb	.LBB24_14
# %bb.13:                               # %if.then14
	vmovsd	.LCPI24_8(%rip), %xmm0  # xmm0 = mem[0],zero
	vmovsd	%xmm0, -16(%rbp)
	movl	$2, -20(%rbp)
	jmp	.LBB24_21
.LBB24_14:                              # %if.else15
	vmovsd	.LCPI24_3(%rip), %xmm0  # xmm0 = mem[0],zero
	vucomisd	-16(%rbp), %xmm0
	jb	.LBB24_16
# %bb.15:                               # %if.then17
	vmovsd	.LCPI24_7(%rip), %xmm0  # xmm0 = mem[0],zero
	vmovsd	%xmm0, -16(%rbp)
	movl	$3, -20(%rbp)
	jmp	.LBB24_20
.LBB24_16:                              # %if.else18
	vmovsd	.LCPI24_4(%rip), %xmm0  # xmm0 = mem[0],zero
	vucomisd	-16(%rbp), %xmm0
	jb	.LBB24_18
# %bb.17:                               # %if.then20
	vmovsd	.LCPI24_6(%rip), %xmm0  # xmm0 = mem[0],zero
	vmovsd	%xmm0, -16(%rbp)
	movl	$4, -20(%rbp)
	jmp	.LBB24_19
.LBB24_18:                              # %if.else21
	vmovsd	.LCPI24_5(%rip), %xmm0  # xmm0 = mem[0],zero
	vmovsd	%xmm0, -16(%rbp)
	movl	$5, -20(%rbp)
.LBB24_19:                              # %if.end22
	jmp	.LBB24_20
.LBB24_20:                              # %if.end23
	jmp	.LBB24_21
.LBB24_21:                              # %if.end24
	jmp	.LBB24_22
.LBB24_22:                              # %if.end25
	jmp	.LBB24_23
.LBB24_23:                              # %if.end26
	imull	$6, -28(%rbp), %eax
	addl	-20(%rbp), %eax
	movl	%eax, -24(%rbp)
.LBB24_24:                              # %return
	movl	-24(%rbp), %ebx
	cmpl	$814838730, -32(%rbp)   # imm = 0x309173CA
	jne	.LBB24_26
.LBB24_25:
	movl	%ebx, %eax
	addq	$56, %rsp
	popq	%rbx
	popq	%rbp
	.cfi_def_cfa %rsp, 8
	retq
.LBB24_26:                              # %func_exit
	.cfi_def_cfa %rbp, 16
	callq	detect_breach
	jmp	.LBB24_25
.Lfunc_end24:
	.size	Qstep2QP.8, .Lfunc_end24-Qstep2QP.8
	.cfi_endproc
                                        # -- End function
	.section	.rodata.cst8,"aM",@progbits,8
	.p2align	3               # -- Begin function rc_init_seq.9
.LCPI25_0:
	.quad	4605380978949069210     # double 0.80000000000000004
.LCPI25_1:
	.quad	4612947026323051643     # double 2.5600000000000001
.LCPI25_2:
	.quad	4616189618054758400     # double 4
.LCPI25_3:
	.quad	4602678819172646912     # double 0.5
.LCPI25_4:
	.quad	4606281698874543309     # double 0.90000000000000002
.LCPI25_5:
	.quad	4598175219545276416     # double 0.25
.LCPI25_6:
	.quad	4607182418800017408     # double 1
.LCPI25_7:
	.quad	4612586738352862003     # double 2.3999999999999999
.LCPI25_8:
	.quad	4608983858650965606     # double 1.3999999999999999
.LCPI25_9:
	.quad	4603579539098121011     # double 0.59999999999999998
.LCPI25_10:
	.quad	4608083138725491507     # double 1.2
.LCPI25_11:
	.quad	4596373779694328218     # double 0.20000000000000001
.LCPI25_12:
	.quad	4599075939470750515     # double 0.29999999999999999
.LCPI25_13:
	.quad	4591870180066957722     # double 0.10000000000000001
	.text
	.globl	rc_init_seq.9
	.p2align	4, 0x90
	.type	rc_init_seq.9,@function
rc_init_seq.9:                          # @rc_init_seq.9
	.cfi_startproc
# %bb.0:                                # %entry
	pushq	%rbp
	.cfi_def_cfa_offset 16
	.cfi_offset %rbp, -16
	movq	%rsp, %rbp
	.cfi_def_cfa_register %rbp
	subq	$48, %rsp
	movl	$1216394528, -44(%rbp)  # imm = 0x4880B520
	movl	$0, Xp
	movl	$0, Xb
	movq	input, %rax
	vcvtsi2sdl	3240(%rax), %xmm0, %xmm0
	vmovsd	%xmm0, bit_rate
	movq	img, %rax
	vmovss	48(%rax), %xmm0         # xmm0 = mem[0],zero,zero,zero
	movq	input, %rax
	movl	1236(%rax), %eax
	addl	$1, %eax
	vcvtsi2ss	%eax, %xmm0, %xmm1
	vmulss	%xmm1, %xmm0, %xmm0
	movq	input, %rax
	movl	20(%rax), %eax
	addl	$1, %eax
	vcvtsi2ss	%eax, %xmm0, %xmm1
	vdivss	%xmm1, %xmm0, %xmm0
	vcvtss2sd	%xmm0, %xmm0, %xmm0
	vmovsd	%xmm0, frame_rate
	vmovsd	bit_rate, %xmm0         # xmm0 = mem[0],zero
	vmovsd	%xmm0, PreviousBit_Rate
	movq	img, %rax
	movl	60(%rax), %eax
	movq	img, %rcx
	imull	52(%rcx), %eax
	cltd
	movl	$256, %ecx              # imm = 0x100
	idivl	%ecx
	movq	img, %rcx
	movl	%eax, 72608(%rcx)
	movq	input, %rax
	movl	3248(%rax), %eax
	movq	img, %rcx
	cmpl	72608(%rcx), %eax
	jle	.LBB25_2
# %bb.1:                                # %if.then
	movq	img, %rax
	movl	72608(%rax), %eax
	movq	input, %rcx
	movl	%eax, 3248(%rcx)
.LBB25_2:                               # %if.end
	movq	input, %rax
	movl	3248(%rax), %eax
	movq	img, %rcx
	cmpl	72608(%rcx), %eax
	jge	.LBB25_4
# %bb.3:                                # %if.then15
	movq	img, %rax
	movl	72608(%rax), %eax
	movq	input, %rcx
	cltd
	idivl	3248(%rcx)
	movl	%eax, TotalNumberofBasicUnit
.LBB25_4:                               # %if.end19
	vmovsd	.LCPI25_0(%rip), %xmm0  # xmm0 = mem[0],zero
	vmovsd	.LCPI25_1(%rip), %xmm1  # xmm1 = mem[0],zero
	vmovsd	.LCPI25_2(%rip), %xmm2  # xmm2 = mem[0],zero
	vmovsd	%xmm2, MINVALUE
	vmulsd	bit_rate, %xmm1, %xmm1
	vmovsd	%xmm1, BufferSize
	vxorps	%xmm1, %xmm1, %xmm1
	vmovsd	%xmm1, CurrentBufferFullness
	vmovsd	CurrentBufferFullness, %xmm1 # xmm1 = mem[0],zero
	vmovsd	%xmm1, GOPTargetBufferLevel
	vmulsd	BufferSize, %xmm0, %xmm0
	vmovsd	%xmm0, InitialDelayOffset
	movl	$0, m_windowSize
	movl	$0, MADm_windowSize
	movq	img, %rax
	movl	$0, 72560(%rax)
	movq	img, %rax
	movl	$0, 72564(%rax)
	movq	img, %rax
	movl	$0, 72568(%rax)
	movl	$0, R
	movq	input, %rax
	cmpl	$0, 1236(%rax)
	jle	.LBB25_6
# %bb.5:                                # %if.then25
	vmovsd	.LCPI25_4(%rip), %xmm0  # xmm0 = mem[0],zero
	vmovsd	.LCPI25_5(%rip), %xmm1  # xmm1 = mem[0],zero
	vmovsd	%xmm1, GAMMAP
	vmovsd	%xmm0, BETAP
	jmp	.LBB25_7
.LBB25_6:                               # %if.else
	vmovsd	.LCPI25_3(%rip), %xmm0  # xmm0 = mem[0],zero
	vmovsd	%xmm0, GAMMAP
	vmovsd	%xmm0, BETAP
.LBB25_7:                               # %if.end26
	vmovsd	.LCPI25_6(%rip), %xmm0  # xmm0 = mem[0],zero
	movl	$0, PPreHeader
	vmulsd	bit_rate, %xmm0, %xmm1
	vmovsd	%xmm1, Pm_X1
	vxorps	%xmm1, %xmm1, %xmm1
	vmovsd	%xmm1, Pm_X2
	vmovsd	%xmm0, PMADPictureC1
	vmovsd	%xmm1, PMADPictureC2
	movl	$0, -4(%rbp)
.LBB25_8:                               # %for.cond
                                        # =>This Inner Loop Header: Depth=1
	cmpl	$20, -4(%rbp)
	jge	.LBB25_11
# %bb.9:                                # %for.body
                                        #   in Loop: Header=BB25_8 Depth=1
	movslq	-4(%rbp), %rax
	vxorps	%xmm0, %xmm0, %xmm0
	vmovsd	%xmm0, Pm_rgQp(,%rax,8)
	movslq	-4(%rbp), %rax
	vmovsd	%xmm0, Pm_rgRp(,%rax,8)
	movslq	-4(%rbp), %rax
	vmovsd	%xmm0, PPictureMAD(,%rax,8)
# %bb.10:                               # %for.inc
                                        #   in Loop: Header=BB25_8 Depth=1
	movl	-4(%rbp), %eax
	addl	$1, %eax
	movl	%eax, -4(%rbp)
	jmp	.LBB25_8
.LBB25_11:                              # %for.end
	vxorps	%xmm0, %xmm0, %xmm0
	vmovsd	%xmm0, PPictureMAD+160
	movl	$2, PDuantQp
	movl	$0, PAveHeaderBits1
	movl	$0, PAveHeaderBits3
	cmpl	$9, TotalNumberofBasicUnit
	jl	.LBB25_13
# %bb.12:                               # %if.then36
	movl	$1, DDquant
	jmp	.LBB25_14
.LBB25_13:                              # %if.else37
	movl	$2, DDquant
.LBB25_14:                              # %if.end38
	vmovsd	.LCPI25_6(%rip), %xmm0  # xmm0 = mem[0],zero
	movq	img, %rax
	movl	52(%rax), %eax
	cltd
	movl	$16, %ecx
	idivl	%ecx
	movl	%eax, MBPerRow
	movq	img, %rax
	movl	$0, 72600(%rax)
	movl	$51, RC_MAX_QUANT
	movl	$0, RC_MIN_QUANT
	vmulsd	bit_rate, %xmm0, %xmm0
	vmovsd	frame_rate, %xmm1       # xmm1 = mem[0],zero
	movq	img, %rax
	vcvtsi2sdl	52(%rax), %xmm0, %xmm2
	vmulsd	%xmm2, %xmm1, %xmm1
	movq	img, %rax
	vcvtsi2sdl	60(%rax), %xmm0, %xmm2
	vmulsd	%xmm2, %xmm1, %xmm1
	vdivsd	%xmm1, %xmm0, %xmm0
	vmovsd	%xmm0, -24(%rbp)
	movq	img, %rax
	cmpl	$176, 52(%rax)
	jne	.LBB25_16
# %bb.15:                               # %if.then52
	vmovsd	.LCPI25_9(%rip), %xmm0  # xmm0 = mem[0],zero
	vmovsd	.LCPI25_12(%rip), %xmm1 # xmm1 = mem[0],zero
	vmovsd	.LCPI25_13(%rip), %xmm2 # xmm2 = mem[0],zero
	vmovsd	%xmm2, -40(%rbp)
	vmovsd	%xmm1, -32(%rbp)
	vmovsd	%xmm0, -16(%rbp)
	jmp	.LBB25_20
.LBB25_16:                              # %if.else53
	movq	img, %rax
	cmpl	$352, 52(%rax)          # imm = 0x160
	jne	.LBB25_18
# %bb.17:                               # %if.then57
	vmovsd	.LCPI25_10(%rip), %xmm0 # xmm0 = mem[0],zero
	vmovsd	.LCPI25_9(%rip), %xmm1  # xmm1 = mem[0],zero
	vmovsd	.LCPI25_11(%rip), %xmm2 # xmm2 = mem[0],zero
	vmovsd	%xmm2, -40(%rbp)
	vmovsd	%xmm1, -32(%rbp)
	vmovsd	%xmm0, -16(%rbp)
	jmp	.LBB25_19
.LBB25_18:                              # %if.else58
	vmovsd	.LCPI25_7(%rip), %xmm0  # xmm0 = mem[0],zero
	vmovsd	.LCPI25_8(%rip), %xmm1  # xmm1 = mem[0],zero
	vmovsd	.LCPI25_9(%rip), %xmm2  # xmm2 = mem[0],zero
	vmovsd	%xmm2, -40(%rbp)
	vmovsd	%xmm1, -32(%rbp)
	vmovsd	%xmm0, -16(%rbp)
.LBB25_19:                              # %if.end59
	jmp	.LBB25_20
.LBB25_20:                              # %if.end60
	movq	input, %rax
	cmpl	$0, 3244(%rax)
	jne	.LBB25_31
# %bb.21:                               # %if.then63
	vmovsd	-24(%rbp), %xmm0        # xmm0 = mem[0],zero
	vmovsd	-40(%rbp), %xmm1        # xmm1 = mem[0],zero
	vucomisd	%xmm0, %xmm1
	jb	.LBB25_23
# %bb.22:                               # %if.then66
	movl	$35, -8(%rbp)
	jmp	.LBB25_30
.LBB25_23:                              # %if.else67
	vmovsd	-24(%rbp), %xmm0        # xmm0 = mem[0],zero
	vmovsd	-32(%rbp), %xmm1        # xmm1 = mem[0],zero
	vucomisd	%xmm0, %xmm1
	jb	.LBB25_25
# %bb.24:                               # %if.then70
	movl	$25, -8(%rbp)
	jmp	.LBB25_29
.LBB25_25:                              # %if.else71
	vmovsd	-24(%rbp), %xmm0        # xmm0 = mem[0],zero
	vmovsd	-16(%rbp), %xmm1        # xmm1 = mem[0],zero
	vucomisd	%xmm0, %xmm1
	jb	.LBB25_27
# %bb.26:                               # %if.then74
	movl	$20, -8(%rbp)
	jmp	.LBB25_28
.LBB25_27:                              # %if.else75
	movl	$10, -8(%rbp)
.LBB25_28:                              # %if.end76
	jmp	.LBB25_29
.LBB25_29:                              # %if.end77
	jmp	.LBB25_30
.LBB25_30:                              # %if.end78
	movl	-8(%rbp), %eax
	movq	input, %rcx
	movl	%eax, 3244(%rcx)
.LBB25_31:                              # %if.end80
	cmpl	$1216394528, -44(%rbp)  # imm = 0x4880B520
	jne	.LBB25_33
.LBB25_32:
	addq	$48, %rsp
	popq	%rbp
	.cfi_def_cfa %rsp, 8
	retq
.LBB25_33:                              # %func_exit
	.cfi_def_cfa %rbp, 16
	callq	detect_breach
	jmp	.LBB25_32
.Lfunc_end25:
	.size	rc_init_seq.9, .Lfunc_end25-rc_init_seq.9
	.cfi_endproc
                                        # -- End function
	.section	.rodata.cst8,"aM",@progbits,8
	.p2align	3               # -- Begin function updateMADModel.10
.LCPI26_0:
	.quad	4626322717216342016     # double 20
	.section	.rodata.cst16,"aM",@progbits,16
	.p2align	4
.LCPI26_1:
	.quad	9223372036854775807     # double NaN
	.quad	9223372036854775807     # double NaN
	.text
	.globl	updateMADModel.10
	.p2align	4, 0x90
	.type	updateMADModel.10,@function
updateMADModel.10:                      # @updateMADModel.10
	.cfi_startproc
# %bb.0:                                # %entry
	pushq	%rbp
	.cfi_def_cfa_offset 16
	.cfi_offset %rbp, -16
	movq	%rsp, %rbp
	.cfi_def_cfa_register %rbp
	subq	$208, %rsp
	movl	$1508830658, -28(%rbp)  # imm = 0x59EEEDC2
	vxorps	%xmm0, %xmm0, %xmm0
	vmovsd	%xmm0, -24(%rbp)
	movq	img, %rax
	cmpl	$0, 72564(%rax)
	jle	.LBB26_51
# %bb.1:                                # %if.then
	movq	img, %rax
	movl	72620(%rax), %eax
	movq	img, %rcx
	cmpl	72608(%rcx), %eax
	jne	.LBB26_3
# %bb.2:                                # %if.then2
	movq	img, %rax
	movl	72564(%rax), %eax
	movl	%eax, -12(%rbp)
	jmp	.LBB26_4
.LBB26_3:                               # %if.else
	movq	img, %rax
	movl	72564(%rax), %eax
	imull	TotalNumberofBasicUnit, %eax
	addl	CodedBasicUnit, %eax
	movl	%eax, -12(%rbp)
.LBB26_4:                               # %if.end
	movl	$19, -4(%rbp)
.LBB26_5:                               # %for.cond
                                        # =>This Inner Loop Header: Depth=1
	cmpl	$0, -4(%rbp)
	jle	.LBB26_8
# %bb.6:                                # %for.body
                                        #   in Loop: Header=BB26_5 Depth=1
	movl	-4(%rbp), %eax
	subl	$1, %eax
	cltq
	vmovsd	PPictureMAD(,%rax,8), %xmm0 # xmm0 = mem[0],zero
	movslq	-4(%rbp), %rax
	vmovsd	%xmm0, PPictureMAD(,%rax,8)
	movslq	-4(%rbp), %rax
	vmovsd	PPictureMAD(,%rax,8), %xmm0 # xmm0 = mem[0],zero
	movslq	-4(%rbp), %rax
	vmovsd	%xmm0, PictureMAD(,%rax,8)
	movl	-4(%rbp), %eax
	subl	$1, %eax
	cltq
	vmovsd	ReferenceMAD(,%rax,8), %xmm0 # xmm0 = mem[0],zero
	movslq	-4(%rbp), %rax
	vmovsd	%xmm0, ReferenceMAD(,%rax,8)
# %bb.7:                                # %for.inc
                                        #   in Loop: Header=BB26_5 Depth=1
	movl	-4(%rbp), %eax
	addl	$-1, %eax
	movl	%eax, -4(%rbp)
	jmp	.LBB26_5
.LBB26_8:                               # %for.end
	vmovsd	CurrentFrameMAD, %xmm0  # xmm0 = mem[0],zero
	vmovsd	%xmm0, PPictureMAD
	vmovsd	PPictureMAD, %xmm0      # xmm0 = mem[0],zero
	vmovsd	%xmm0, PictureMAD
	movq	img, %rax
	movl	72620(%rax), %eax
	movq	img, %rcx
	cmpl	72608(%rcx), %eax
	jne	.LBB26_10
# %bb.9:                                # %if.then20
	vmovsd	PictureMAD+8, %xmm0     # xmm0 = mem[0],zero
	vmovsd	%xmm0, ReferenceMAD
	jmp	.LBB26_16
.LBB26_10:                              # %if.else21
	movq	input, %rax
	cmpl	$2, 2880(%rax)
	je	.LBB26_12
# %bb.11:                               # %lor.lhs.false
	movq	input, %rax
	cmpl	$0, 2884(%rax)
	je	.LBB26_14
.LBB26_12:                              # %land.lhs.true
	movq	img, %rax
	cmpl	$1, 72600(%rax)
	jne	.LBB26_14
# %bb.13:                               # %if.then24
	movq	FCBUPFMAD, %rax
	movl	TotalNumberofBasicUnit, %ecx
	subl	$1, %ecx
	subl	NumberofBasicUnit, %ecx
	movslq	%ecx, %rcx
	vmovsd	(%rax,%rcx,8), %xmm0    # xmm0 = mem[0],zero
	vmovsd	%xmm0, ReferenceMAD
	jmp	.LBB26_15
.LBB26_14:                              # %if.else29
	movq	BUPFMAD, %rax
	movl	TotalNumberofBasicUnit, %ecx
	subl	$1, %ecx
	subl	NumberofBasicUnit, %ecx
	movslq	%ecx, %rcx
	vmovsd	(%rax,%rcx,8), %xmm0    # xmm0 = mem[0],zero
	vmovsd	%xmm0, ReferenceMAD
.LBB26_15:                              # %if.end34
	jmp	.LBB26_16
.LBB26_16:                              # %if.end35
	vmovsd	PMADPictureC1, %xmm0    # xmm0 = mem[0],zero
	vmovsd	%xmm0, MADPictureC1
	vmovsd	PMADPictureC2, %xmm0    # xmm0 = mem[0],zero
	vmovsd	%xmm0, MADPictureC2
	vmovsd	CurrentFrameMAD, %xmm0  # xmm0 = mem[0],zero
	vucomisd	PreviousFrameMAD, %xmm0
	jbe	.LBB26_18
# %bb.17:                               # %cond.true
	vmovsd	.LCPI26_0(%rip), %xmm0  # xmm0 = mem[0],zero
	vmovsd	PreviousFrameMAD, %xmm1 # xmm1 = mem[0],zero
	vdivsd	CurrentFrameMAD, %xmm1, %xmm1
	vmulsd	%xmm0, %xmm1, %xmm0
	vcvttsd2si	%xmm0, %eax
	jmp	.LBB26_19
.LBB26_18:                              # %cond.false
	vmovsd	.LCPI26_0(%rip), %xmm0  # xmm0 = mem[0],zero
	vmovsd	CurrentFrameMAD, %xmm1  # xmm1 = mem[0],zero
	vdivsd	PreviousFrameMAD, %xmm1, %xmm1
	vmulsd	%xmm0, %xmm1, %xmm0
	vcvttsd2si	%xmm0, %eax
.LBB26_19:                              # %cond.end
	movl	%eax, -8(%rbp)
	movl	-8(%rbp), %eax
	movl	-12(%rbp), %ecx
	subl	$1, %ecx
	cmpl	%ecx, %eax
	jge	.LBB26_21
# %bb.20:                               # %cond.true44
	movl	-8(%rbp), %eax
	jmp	.LBB26_22
.LBB26_21:                              # %cond.false45
	movl	-12(%rbp), %eax
	subl	$1, %eax
.LBB26_22:                              # %cond.end47
	movl	%eax, -8(%rbp)
	cmpl	$1, -8(%rbp)
	jge	.LBB26_24
# %bb.23:                               # %cond.true51
	movl	$1, %eax
	jmp	.LBB26_25
.LBB26_24:                              # %cond.false52
	movl	-8(%rbp), %eax
.LBB26_25:                              # %cond.end53
	movl	%eax, -8(%rbp)
	movl	-8(%rbp), %eax
	movl	MADm_windowSize, %ecx
	addl	$1, %ecx
	cmpl	%ecx, %eax
	jge	.LBB26_27
# %bb.26:                               # %cond.true58
	movl	-8(%rbp), %eax
	jmp	.LBB26_28
.LBB26_27:                              # %cond.false59
	movl	MADm_windowSize, %eax
	addl	$1, %eax
.LBB26_28:                              # %cond.end61
	movl	%eax, -8(%rbp)
	movl	$20, %eax
	cmpl	-8(%rbp), %eax
	jge	.LBB26_30
# %bb.29:                               # %cond.true65
	movl	$20, %eax
	jmp	.LBB26_31
.LBB26_30:                              # %cond.false66
	movl	-8(%rbp), %eax
.LBB26_31:                              # %cond.end67
	movl	%eax, -8(%rbp)
	movl	-8(%rbp), %eax
	movl	%eax, MADm_windowSize
	movl	$0, -4(%rbp)
.LBB26_32:                              # %for.cond69
                                        # =>This Inner Loop Header: Depth=1
	cmpl	$20, -4(%rbp)
	jge	.LBB26_35
# %bb.33:                               # %for.body72
                                        #   in Loop: Header=BB26_32 Depth=1
	movslq	-4(%rbp), %rax
	movl	$0, PictureRejected(,%rax,4)
# %bb.34:                               # %for.inc75
                                        #   in Loop: Header=BB26_32 Depth=1
	movl	-4(%rbp), %eax
	addl	$1, %eax
	movl	%eax, -4(%rbp)
	jmp	.LBB26_32
.LBB26_35:                              # %for.end76
	movq	img, %rax
	cmpl	$0, 24(%rax)
	jne	.LBB26_37
# %bb.36:                               # %if.then79
	vmovsd	CurrentFrameMAD, %xmm0  # xmm0 = mem[0],zero
	vmovsd	%xmm0, PreviousFrameMAD
.LBB26_37:                              # %if.end80
	movl	-8(%rbp), %edi
	callq	MADModelEstimator
	movl	$0, -4(%rbp)
.LBB26_38:                              # %for.cond81
                                        # =>This Inner Loop Header: Depth=1
	movl	-4(%rbp), %eax
	cmpl	-8(%rbp), %eax
	jge	.LBB26_41
# %bb.39:                               # %for.body84
                                        #   in Loop: Header=BB26_38 Depth=1
	vmovsd	MADPictureC1, %xmm0     # xmm0 = mem[0],zero
	movslq	-4(%rbp), %rax
	vmulsd	ReferenceMAD(,%rax,8), %xmm0, %xmm0
	vaddsd	MADPictureC2, %xmm0, %xmm0
	movslq	-4(%rbp), %rax
	vsubsd	PictureMAD(,%rax,8), %xmm0, %xmm0
	movslq	-4(%rbp), %rax
	vmovsd	%xmm0, -208(%rbp,%rax,8)
	movslq	-4(%rbp), %rax
	vmovsd	-208(%rbp,%rax,8), %xmm0 # xmm0 = mem[0],zero
	movslq	-4(%rbp), %rax
	vmulsd	-208(%rbp,%rax,8), %xmm0, %xmm0
	vaddsd	-24(%rbp), %xmm0, %xmm0
	vmovsd	%xmm0, -24(%rbp)
# %bb.40:                               # %for.inc100
                                        #   in Loop: Header=BB26_38 Depth=1
	movl	-4(%rbp), %eax
	addl	$1, %eax
	movl	%eax, -4(%rbp)
	jmp	.LBB26_38
.LBB26_41:                              # %for.end102
	cmpl	$2, -8(%rbp)
	jne	.LBB26_43
# %bb.42:                               # %cond.true105
	vxorps	%xmm0, %xmm0, %xmm0
	jmp	.LBB26_44
.LBB26_43:                              # %cond.false106
	vmovsd	-24(%rbp), %xmm0        # xmm0 = mem[0],zero
	vcvtsi2sdl	-8(%rbp), %xmm0, %xmm1
	vdivsd	%xmm1, %xmm0, %xmm0
	callq	sqrt
.LBB26_44:                              # %cond.end109
	vmovsd	%xmm0, -40(%rbp)
	movl	$0, -4(%rbp)
.LBB26_45:                              # %for.cond111
                                        # =>This Inner Loop Header: Depth=1
	movl	-4(%rbp), %eax
	cmpl	-8(%rbp), %eax
	jge	.LBB26_50
# %bb.46:                               # %for.body114
                                        #   in Loop: Header=BB26_45 Depth=1
	movslq	-4(%rbp), %rax
	vmovsd	-208(%rbp,%rax,8), %xmm0 # xmm0 = mem[0],zero
	vmovdqa	.LCPI26_1(%rip), %xmm1  # xmm1 = [NaN,NaN]
	vpand	%xmm1, %xmm0, %xmm0
	vucomisd	-40(%rbp), %xmm0
	jbe	.LBB26_48
# %bb.47:                               # %if.then119
                                        #   in Loop: Header=BB26_45 Depth=1
	movslq	-4(%rbp), %rax
	movl	$1, PictureRejected(,%rax,4)
.LBB26_48:                              # %if.end122
                                        #   in Loop: Header=BB26_45 Depth=1
	jmp	.LBB26_49
.LBB26_49:                              # %for.inc123
                                        #   in Loop: Header=BB26_45 Depth=1
	movl	-4(%rbp), %eax
	addl	$1, %eax
	movl	%eax, -4(%rbp)
	jmp	.LBB26_45
.LBB26_50:                              # %for.end125
	movl	$0, PictureRejected
	movl	-8(%rbp), %edi
	callq	MADModelEstimator
.LBB26_51:                              # %if.end126
	cmpl	$1508830658, -28(%rbp)  # imm = 0x59EEEDC2
	jne	.LBB26_53
.LBB26_52:
	addq	$208, %rsp
	popq	%rbp
	.cfi_def_cfa %rsp, 8
	retq
.LBB26_53:                              # %func_exit
	.cfi_def_cfa %rbp, 16
	callq	detect_breach
	jmp	.LBB26_52
.Lfunc_end26:
	.size	updateMADModel.10, .Lfunc_end26-updateMADModel.10
	.cfi_endproc
                                        # -- End function
	.section	.rodata.cst8,"aM",@progbits,8
	.p2align	3               # -- Begin function QP2Qstep.11
.LCPI27_0:
	.quad	4611686018427387904     # double 2
	.text
	.globl	QP2Qstep.11
	.p2align	4, 0x90
	.type	QP2Qstep.11,@function
QP2Qstep.11:                            # @QP2Qstep.11
	.cfi_startproc
# %bb.0:                                # %entry
	pushq	%rbp
	.cfi_def_cfa_offset 16
	.cfi_offset %rbp, -16
	movq	%rsp, %rbp
	.cfi_def_cfa_register %rbp
	subq	$32, %rsp
	movl	$859153405, -20(%rbp)   # imm = 0x3335A3FD
	movl	%edi, -8(%rbp)
	movl	-8(%rbp), %eax
	cltd
	movl	$6, %ecx
	idivl	%ecx
	movslq	%edx, %rax
	vmovsd	QP2Qstep.QP2QSTEP(,%rax,8), %xmm0 # xmm0 = mem[0],zero
	vmovsd	%xmm0, -16(%rbp)
	movl	$0, -4(%rbp)
.LBB27_1:                               # %for.cond
                                        # =>This Inner Loop Header: Depth=1
	movl	-4(%rbp), %ecx
	movl	-8(%rbp), %eax
	cltd
	movl	$6, %esi
	idivl	%esi
	cmpl	%eax, %ecx
	jge	.LBB27_4
# %bb.2:                                # %for.body
                                        #   in Loop: Header=BB27_1 Depth=1
	vmovsd	.LCPI27_0(%rip), %xmm0  # xmm0 = mem[0],zero
	vmulsd	-16(%rbp), %xmm0, %xmm0
	vmovsd	%xmm0, -16(%rbp)
# %bb.3:                                # %for.inc
                                        #   in Loop: Header=BB27_1 Depth=1
	movl	-4(%rbp), %eax
	addl	$1, %eax
	movl	%eax, -4(%rbp)
	jmp	.LBB27_1
.LBB27_4:                               # %for.end
	vmovsd	-16(%rbp), %xmm0        # xmm0 = mem[0],zero
	cmpl	$859153405, -20(%rbp)   # imm = 0x3335A3FD
	jne	.LBB27_6
.LBB27_5:
	addq	$32, %rsp
	popq	%rbp
	.cfi_def_cfa %rsp, 8
	retq
.LBB27_6:                               # %func_exit
	.cfi_def_cfa %rbp, 16
	vmovsd	%xmm0, -32(%rbp)        # 8-byte Spill
	callq	detect_breach
	vmovsd	-32(%rbp), %xmm0        # 8-byte Reload
                                        # xmm0 = mem[0],zero
	jmp	.LBB27_5
.Lfunc_end27:
	.size	QP2Qstep.11, .Lfunc_end27-QP2Qstep.11
	.cfi_endproc
                                        # -- End function
	.section	.rodata.cst8,"aM",@progbits,8
	.p2align	3               # -- Begin function updateMADModel.12
.LCPI28_0:
	.quad	4626322717216342016     # double 20
	.section	.rodata.cst16,"aM",@progbits,16
	.p2align	4
.LCPI28_1:
	.quad	9223372036854775807     # double NaN
	.quad	9223372036854775807     # double NaN
	.text
	.globl	updateMADModel.12
	.p2align	4, 0x90
	.type	updateMADModel.12,@function
updateMADModel.12:                      # @updateMADModel.12
	.cfi_startproc
# %bb.0:                                # %entry
	pushq	%rbp
	.cfi_def_cfa_offset 16
	.cfi_offset %rbp, -16
	movq	%rsp, %rbp
	.cfi_def_cfa_register %rbp
	subq	$208, %rsp
	movl	$1230888048, -28(%rbp)  # imm = 0x495DDC70
	vxorps	%xmm0, %xmm0, %xmm0
	vmovsd	%xmm0, -24(%rbp)
	movq	img, %rax
	cmpl	$0, 72564(%rax)
	jle	.LBB28_51
# %bb.1:                                # %if.then
	movq	img, %rax
	movl	72620(%rax), %eax
	movq	img, %rcx
	cmpl	72608(%rcx), %eax
	jne	.LBB28_3
# %bb.2:                                # %if.then2
	movq	img, %rax
	movl	72564(%rax), %eax
	movl	%eax, -12(%rbp)
	jmp	.LBB28_4
.LBB28_3:                               # %if.else
	movq	img, %rax
	movl	72564(%rax), %eax
	imull	TotalNumberofBasicUnit, %eax
	addl	CodedBasicUnit, %eax
	movl	%eax, -12(%rbp)
.LBB28_4:                               # %if.end
	movl	$19, -4(%rbp)
.LBB28_5:                               # %for.cond
                                        # =>This Inner Loop Header: Depth=1
	cmpl	$0, -4(%rbp)
	jle	.LBB28_8
# %bb.6:                                # %for.body
                                        #   in Loop: Header=BB28_5 Depth=1
	movl	-4(%rbp), %eax
	subl	$1, %eax
	cltq
	vmovsd	PPictureMAD(,%rax,8), %xmm0 # xmm0 = mem[0],zero
	movslq	-4(%rbp), %rax
	vmovsd	%xmm0, PPictureMAD(,%rax,8)
	movslq	-4(%rbp), %rax
	vmovsd	PPictureMAD(,%rax,8), %xmm0 # xmm0 = mem[0],zero
	movslq	-4(%rbp), %rax
	vmovsd	%xmm0, PictureMAD(,%rax,8)
	movl	-4(%rbp), %eax
	subl	$1, %eax
	cltq
	vmovsd	ReferenceMAD(,%rax,8), %xmm0 # xmm0 = mem[0],zero
	movslq	-4(%rbp), %rax
	vmovsd	%xmm0, ReferenceMAD(,%rax,8)
# %bb.7:                                # %for.inc
                                        #   in Loop: Header=BB28_5 Depth=1
	movl	-4(%rbp), %eax
	addl	$-1, %eax
	movl	%eax, -4(%rbp)
	jmp	.LBB28_5
.LBB28_8:                               # %for.end
	vmovsd	CurrentFrameMAD, %xmm0  # xmm0 = mem[0],zero
	vmovsd	%xmm0, PPictureMAD
	vmovsd	PPictureMAD, %xmm0      # xmm0 = mem[0],zero
	vmovsd	%xmm0, PictureMAD
	movq	img, %rax
	movl	72620(%rax), %eax
	movq	img, %rcx
	cmpl	72608(%rcx), %eax
	jne	.LBB28_10
# %bb.9:                                # %if.then20
	vmovsd	PictureMAD+8, %xmm0     # xmm0 = mem[0],zero
	vmovsd	%xmm0, ReferenceMAD
	jmp	.LBB28_16
.LBB28_10:                              # %if.else21
	movq	input, %rax
	cmpl	$2, 2880(%rax)
	je	.LBB28_12
# %bb.11:                               # %lor.lhs.false
	movq	input, %rax
	cmpl	$0, 2884(%rax)
	je	.LBB28_14
.LBB28_12:                              # %land.lhs.true
	movq	img, %rax
	cmpl	$1, 72600(%rax)
	jne	.LBB28_14
# %bb.13:                               # %if.then24
	movq	FCBUPFMAD, %rax
	movl	TotalNumberofBasicUnit, %ecx
	subl	$1, %ecx
	subl	NumberofBasicUnit, %ecx
	movslq	%ecx, %rcx
	vmovsd	(%rax,%rcx,8), %xmm0    # xmm0 = mem[0],zero
	vmovsd	%xmm0, ReferenceMAD
	jmp	.LBB28_15
.LBB28_14:                              # %if.else29
	movq	BUPFMAD, %rax
	movl	TotalNumberofBasicUnit, %ecx
	subl	$1, %ecx
	subl	NumberofBasicUnit, %ecx
	movslq	%ecx, %rcx
	vmovsd	(%rax,%rcx,8), %xmm0    # xmm0 = mem[0],zero
	vmovsd	%xmm0, ReferenceMAD
.LBB28_15:                              # %if.end34
	jmp	.LBB28_16
.LBB28_16:                              # %if.end35
	vmovsd	PMADPictureC1, %xmm0    # xmm0 = mem[0],zero
	vmovsd	%xmm0, MADPictureC1
	vmovsd	PMADPictureC2, %xmm0    # xmm0 = mem[0],zero
	vmovsd	%xmm0, MADPictureC2
	vmovsd	CurrentFrameMAD, %xmm0  # xmm0 = mem[0],zero
	vucomisd	PreviousFrameMAD, %xmm0
	jbe	.LBB28_18
# %bb.17:                               # %cond.true
	vmovsd	.LCPI28_0(%rip), %xmm0  # xmm0 = mem[0],zero
	vmovsd	PreviousFrameMAD, %xmm1 # xmm1 = mem[0],zero
	vdivsd	CurrentFrameMAD, %xmm1, %xmm1
	vmulsd	%xmm0, %xmm1, %xmm0
	vcvttsd2si	%xmm0, %eax
	jmp	.LBB28_19
.LBB28_18:                              # %cond.false
	vmovsd	.LCPI28_0(%rip), %xmm0  # xmm0 = mem[0],zero
	vmovsd	CurrentFrameMAD, %xmm1  # xmm1 = mem[0],zero
	vdivsd	PreviousFrameMAD, %xmm1, %xmm1
	vmulsd	%xmm0, %xmm1, %xmm0
	vcvttsd2si	%xmm0, %eax
.LBB28_19:                              # %cond.end
	movl	%eax, -8(%rbp)
	movl	-8(%rbp), %eax
	movl	-12(%rbp), %ecx
	subl	$1, %ecx
	cmpl	%ecx, %eax
	jge	.LBB28_21
# %bb.20:                               # %cond.true44
	movl	-8(%rbp), %eax
	jmp	.LBB28_22
.LBB28_21:                              # %cond.false45
	movl	-12(%rbp), %eax
	subl	$1, %eax
.LBB28_22:                              # %cond.end47
	movl	%eax, -8(%rbp)
	cmpl	$1, -8(%rbp)
	jge	.LBB28_24
# %bb.23:                               # %cond.true51
	movl	$1, %eax
	jmp	.LBB28_25
.LBB28_24:                              # %cond.false52
	movl	-8(%rbp), %eax
.LBB28_25:                              # %cond.end53
	movl	%eax, -8(%rbp)
	movl	-8(%rbp), %eax
	movl	MADm_windowSize, %ecx
	addl	$1, %ecx
	cmpl	%ecx, %eax
	jge	.LBB28_27
# %bb.26:                               # %cond.true58
	movl	-8(%rbp), %eax
	jmp	.LBB28_28
.LBB28_27:                              # %cond.false59
	movl	MADm_windowSize, %eax
	addl	$1, %eax
.LBB28_28:                              # %cond.end61
	movl	%eax, -8(%rbp)
	movl	$20, %eax
	cmpl	-8(%rbp), %eax
	jge	.LBB28_30
# %bb.29:                               # %cond.true65
	movl	$20, %eax
	jmp	.LBB28_31
.LBB28_30:                              # %cond.false66
	movl	-8(%rbp), %eax
.LBB28_31:                              # %cond.end67
	movl	%eax, -8(%rbp)
	movl	-8(%rbp), %eax
	movl	%eax, MADm_windowSize
	movl	$0, -4(%rbp)
.LBB28_32:                              # %for.cond69
                                        # =>This Inner Loop Header: Depth=1
	cmpl	$20, -4(%rbp)
	jge	.LBB28_35
# %bb.33:                               # %for.body72
                                        #   in Loop: Header=BB28_32 Depth=1
	movslq	-4(%rbp), %rax
	movl	$0, PictureRejected(,%rax,4)
# %bb.34:                               # %for.inc75
                                        #   in Loop: Header=BB28_32 Depth=1
	movl	-4(%rbp), %eax
	addl	$1, %eax
	movl	%eax, -4(%rbp)
	jmp	.LBB28_32
.LBB28_35:                              # %for.end76
	movq	img, %rax
	cmpl	$0, 24(%rax)
	jne	.LBB28_37
# %bb.36:                               # %if.then79
	vmovsd	CurrentFrameMAD, %xmm0  # xmm0 = mem[0],zero
	vmovsd	%xmm0, PreviousFrameMAD
.LBB28_37:                              # %if.end80
	movl	-8(%rbp), %edi
	callq	MADModelEstimator
	movl	$0, -4(%rbp)
.LBB28_38:                              # %for.cond81
                                        # =>This Inner Loop Header: Depth=1
	movl	-4(%rbp), %eax
	cmpl	-8(%rbp), %eax
	jge	.LBB28_41
# %bb.39:                               # %for.body84
                                        #   in Loop: Header=BB28_38 Depth=1
	vmovsd	MADPictureC1, %xmm0     # xmm0 = mem[0],zero
	movslq	-4(%rbp), %rax
	vmulsd	ReferenceMAD(,%rax,8), %xmm0, %xmm0
	vaddsd	MADPictureC2, %xmm0, %xmm0
	movslq	-4(%rbp), %rax
	vsubsd	PictureMAD(,%rax,8), %xmm0, %xmm0
	movslq	-4(%rbp), %rax
	vmovsd	%xmm0, -208(%rbp,%rax,8)
	movslq	-4(%rbp), %rax
	vmovsd	-208(%rbp,%rax,8), %xmm0 # xmm0 = mem[0],zero
	movslq	-4(%rbp), %rax
	vmulsd	-208(%rbp,%rax,8), %xmm0, %xmm0
	vaddsd	-24(%rbp), %xmm0, %xmm0
	vmovsd	%xmm0, -24(%rbp)
# %bb.40:                               # %for.inc100
                                        #   in Loop: Header=BB28_38 Depth=1
	movl	-4(%rbp), %eax
	addl	$1, %eax
	movl	%eax, -4(%rbp)
	jmp	.LBB28_38
.LBB28_41:                              # %for.end102
	cmpl	$2, -8(%rbp)
	jne	.LBB28_43
# %bb.42:                               # %cond.true105
	vxorps	%xmm0, %xmm0, %xmm0
	jmp	.LBB28_44
.LBB28_43:                              # %cond.false106
	vmovsd	-24(%rbp), %xmm0        # xmm0 = mem[0],zero
	vcvtsi2sdl	-8(%rbp), %xmm0, %xmm1
	vdivsd	%xmm1, %xmm0, %xmm0
	callq	sqrt
.LBB28_44:                              # %cond.end109
	vmovsd	%xmm0, -40(%rbp)
	movl	$0, -4(%rbp)
.LBB28_45:                              # %for.cond111
                                        # =>This Inner Loop Header: Depth=1
	movl	-4(%rbp), %eax
	cmpl	-8(%rbp), %eax
	jge	.LBB28_50
# %bb.46:                               # %for.body114
                                        #   in Loop: Header=BB28_45 Depth=1
	movslq	-4(%rbp), %rax
	vmovsd	-208(%rbp,%rax,8), %xmm0 # xmm0 = mem[0],zero
	vmovdqa	.LCPI28_1(%rip), %xmm1  # xmm1 = [NaN,NaN]
	vpand	%xmm1, %xmm0, %xmm0
	vucomisd	-40(%rbp), %xmm0
	jbe	.LBB28_48
# %bb.47:                               # %if.then119
                                        #   in Loop: Header=BB28_45 Depth=1
	movslq	-4(%rbp), %rax
	movl	$1, PictureRejected(,%rax,4)
.LBB28_48:                              # %if.end122
                                        #   in Loop: Header=BB28_45 Depth=1
	jmp	.LBB28_49
.LBB28_49:                              # %for.inc123
                                        #   in Loop: Header=BB28_45 Depth=1
	movl	-4(%rbp), %eax
	addl	$1, %eax
	movl	%eax, -4(%rbp)
	jmp	.LBB28_45
.LBB28_50:                              # %for.end125
	movl	$0, PictureRejected
	movl	-8(%rbp), %edi
	callq	MADModelEstimator
.LBB28_51:                              # %if.end126
	cmpl	$1230888048, -28(%rbp)  # imm = 0x495DDC70
	jne	.LBB28_53
.LBB28_52:
	addq	$208, %rsp
	popq	%rbp
	.cfi_def_cfa %rsp, 8
	retq
.LBB28_53:                              # %func_exit
	.cfi_def_cfa %rbp, 16
	callq	detect_breach
	jmp	.LBB28_52
.Lfunc_end28:
	.size	updateMADModel.12, .Lfunc_end28-updateMADModel.12
	.cfi_endproc
                                        # -- End function
	.section	.rodata.cst8,"aM",@progbits,8
	.p2align	3               # -- Begin function MADModelEstimator.13
.LCPI29_0:
	.quad	4517329193108106637     # double 9.9999999999999995E-7
.LCPI29_2:
	.quad	4607182418800017408     # double 1
	.section	.rodata.cst16,"aM",@progbits,16
	.p2align	4
.LCPI29_1:
	.quad	9223372036854775807     # double NaN
	.quad	9223372036854775807     # double NaN
	.text
	.globl	MADModelEstimator.13
	.p2align	4, 0x90
	.type	MADModelEstimator.13,@function
MADModelEstimator.13:                   # @MADModelEstimator.13
	.cfi_startproc
# %bb.0:                                # %entry
	pushq	%rbp
	.cfi_def_cfa_offset 16
	.cfi_offset %rbp, -16
	movq	%rsp, %rbp
	.cfi_def_cfa_register %rbp
	subq	$96, %rsp
	movl	$1270866773, -84(%rbp)  # imm = 0x4BBFE355
	movl	%edi, -8(%rbp)
	movl	-8(%rbp), %eax
	movl	%eax, -12(%rbp)
	vxorps	%xmm0, %xmm0, %xmm0
	vmovsd	%xmm0, -56(%rbp)
	vmovsd	%xmm0, -24(%rbp)
	vmovsd	%xmm0, -80(%rbp)
	vmovsd	%xmm0, -64(%rbp)
	vmovsd	%xmm0, -32(%rbp)
	vmovsd	%xmm0, -48(%rbp)
	movl	$0, -36(%rbp)
	movl	$0, -4(%rbp)
.LBB29_1:                               # %for.cond
                                        # =>This Inner Loop Header: Depth=1
	movl	-4(%rbp), %eax
	cmpl	-8(%rbp), %eax
	jge	.LBB29_6
# %bb.2:                                # %for.body
                                        #   in Loop: Header=BB29_1 Depth=1
	movslq	-4(%rbp), %rax
	cmpl	$0, PictureRejected(,%rax,4)
	je	.LBB29_4
# %bb.3:                                # %if.then
                                        #   in Loop: Header=BB29_1 Depth=1
	movl	-12(%rbp), %eax
	addl	$-1, %eax
	movl	%eax, -12(%rbp)
.LBB29_4:                               # %if.end
                                        #   in Loop: Header=BB29_1 Depth=1
	jmp	.LBB29_5
.LBB29_5:                               # %for.inc
                                        #   in Loop: Header=BB29_1 Depth=1
	movl	-4(%rbp), %eax
	addl	$1, %eax
	movl	%eax, -4(%rbp)
	jmp	.LBB29_1
.LBB29_6:                               # %for.end
	vxorps	%xmm0, %xmm0, %xmm0
	vmovsd	%xmm0, MADPictureC2
	vmovsd	%xmm0, MADPictureC1
	movl	$0, -4(%rbp)
.LBB29_7:                               # %for.cond1
                                        # =>This Inner Loop Header: Depth=1
	movl	-4(%rbp), %eax
	cmpl	-8(%rbp), %eax
	jge	.LBB29_12
# %bb.8:                                # %for.body3
                                        #   in Loop: Header=BB29_7 Depth=1
	movslq	-4(%rbp), %rax
	cmpl	$0, PictureRejected(,%rax,4)
	jne	.LBB29_10
# %bb.9:                                # %if.then7
                                        #   in Loop: Header=BB29_7 Depth=1
	movslq	-4(%rbp), %rax
	vmovsd	PictureMAD(,%rax,8), %xmm0 # xmm0 = mem[0],zero
	vmovsd	%xmm0, -96(%rbp)
.LBB29_10:                              # %if.end10
                                        #   in Loop: Header=BB29_7 Depth=1
	jmp	.LBB29_11
.LBB29_11:                              # %for.inc11
                                        #   in Loop: Header=BB29_7 Depth=1
	movl	-4(%rbp), %eax
	addl	$1, %eax
	movl	%eax, -4(%rbp)
	jmp	.LBB29_7
.LBB29_12:                              # %for.end13
	movl	$0, -4(%rbp)
.LBB29_13:                              # %for.cond14
                                        # =>This Inner Loop Header: Depth=1
	movl	-4(%rbp), %eax
	cmpl	-8(%rbp), %eax
	jge	.LBB29_21
# %bb.14:                               # %for.body16
                                        #   in Loop: Header=BB29_13 Depth=1
	movslq	-4(%rbp), %rax
	vmovsd	PictureMAD(,%rax,8), %xmm0 # xmm0 = mem[0],zero
	vucomisd	-96(%rbp), %xmm0
	jne	.LBB29_15
	jp	.LBB29_15
	jmp	.LBB29_17
.LBB29_15:                              # %land.lhs.true
                                        #   in Loop: Header=BB29_13 Depth=1
	movslq	-4(%rbp), %rax
	cmpl	$0, PictureRejected(,%rax,4)
	jne	.LBB29_17
# %bb.16:                               # %if.then23
                                        #   in Loop: Header=BB29_13 Depth=1
	movl	$1, -36(%rbp)
.LBB29_17:                              # %if.end24
                                        #   in Loop: Header=BB29_13 Depth=1
	movslq	-4(%rbp), %rax
	cmpl	$0, PictureRejected(,%rax,4)
	jne	.LBB29_19
# %bb.18:                               # %if.then28
                                        #   in Loop: Header=BB29_13 Depth=1
	movslq	-4(%rbp), %rax
	vmovsd	PictureMAD(,%rax,8), %xmm0 # xmm0 = mem[0],zero
	movslq	-4(%rbp), %rax
	vmovsd	ReferenceMAD(,%rax,8), %xmm1 # xmm1 = mem[0],zero
	vcvtsi2sdl	-12(%rbp), %xmm0, %xmm2
	vmulsd	%xmm2, %xmm1, %xmm1
	vdivsd	%xmm1, %xmm0, %xmm0
	vaddsd	MADPictureC1, %xmm0, %xmm0
	vmovsd	%xmm0, MADPictureC1
.LBB29_19:                              # %if.end33
                                        #   in Loop: Header=BB29_13 Depth=1
	jmp	.LBB29_20
.LBB29_20:                              # %for.inc34
                                        #   in Loop: Header=BB29_13 Depth=1
	movl	-4(%rbp), %eax
	addl	$1, %eax
	movl	%eax, -4(%rbp)
	jmp	.LBB29_13
.LBB29_21:                              # %for.end36
	cmpl	$1, -12(%rbp)
	jl	.LBB29_33
# %bb.22:                               # %land.lhs.true39
	cmpl	$0, -36(%rbp)
	je	.LBB29_33
# %bb.23:                               # %if.then41
	movl	$0, -4(%rbp)
.LBB29_24:                              # %for.cond42
                                        # =>This Inner Loop Header: Depth=1
	movl	-4(%rbp), %eax
	cmpl	-8(%rbp), %eax
	jge	.LBB29_29
# %bb.25:                               # %for.body45
                                        #   in Loop: Header=BB29_24 Depth=1
	movslq	-4(%rbp), %rax
	cmpl	$0, PictureRejected(,%rax,4)
	jne	.LBB29_27
# %bb.26:                               # %if.then49
                                        #   in Loop: Header=BB29_24 Depth=1
	vmovsd	.LCPI29_2(%rip), %xmm0  # xmm0 = mem[0],zero
	vaddsd	-56(%rbp), %xmm0, %xmm0
	vmovsd	%xmm0, -56(%rbp)
	movslq	-4(%rbp), %rax
	vmovsd	ReferenceMAD(,%rax,8), %xmm0 # xmm0 = mem[0],zero
	vaddsd	-24(%rbp), %xmm0, %xmm0
	vmovsd	%xmm0, -24(%rbp)
	vmovsd	-24(%rbp), %xmm0        # xmm0 = mem[0],zero
	vmovsd	%xmm0, -80(%rbp)
	movslq	-4(%rbp), %rax
	vmovsd	ReferenceMAD(,%rax,8), %xmm0 # xmm0 = mem[0],zero
	movslq	-4(%rbp), %rax
	vmulsd	ReferenceMAD(,%rax,8), %xmm0, %xmm0
	vaddsd	-64(%rbp), %xmm0, %xmm0
	vmovsd	%xmm0, -64(%rbp)
	movslq	-4(%rbp), %rax
	vmovsd	PictureMAD(,%rax,8), %xmm0 # xmm0 = mem[0],zero
	vaddsd	-32(%rbp), %xmm0, %xmm0
	vmovsd	%xmm0, -32(%rbp)
	movslq	-4(%rbp), %rax
	vmovsd	PictureMAD(,%rax,8), %xmm0 # xmm0 = mem[0],zero
	movslq	-4(%rbp), %rax
	vmulsd	ReferenceMAD(,%rax,8), %xmm0, %xmm0
	vaddsd	-48(%rbp), %xmm0, %xmm0
	vmovsd	%xmm0, -48(%rbp)
.LBB29_27:                              # %if.end69
                                        #   in Loop: Header=BB29_24 Depth=1
	jmp	.LBB29_28
.LBB29_28:                              # %for.inc70
                                        #   in Loop: Header=BB29_24 Depth=1
	movl	-4(%rbp), %eax
	addl	$1, %eax
	movl	%eax, -4(%rbp)
	jmp	.LBB29_24
.LBB29_29:                              # %for.end72
	vmovsd	.LCPI29_0(%rip), %xmm0  # xmm0 = mem[0],zero
	vmovsd	-56(%rbp), %xmm1        # xmm1 = mem[0],zero
	vmulsd	-64(%rbp), %xmm1, %xmm1
	vmovsd	-24(%rbp), %xmm2        # xmm2 = mem[0],zero
	vmulsd	-80(%rbp), %xmm2, %xmm2
	vsubsd	%xmm2, %xmm1, %xmm1
	vmovsd	%xmm1, -72(%rbp)
	vmovsd	-72(%rbp), %xmm1        # xmm1 = mem[0],zero
	vmovdqa	.LCPI29_1(%rip), %xmm2  # xmm2 = [NaN,NaN]
	vpand	%xmm2, %xmm1, %xmm1
	vucomisd	%xmm0, %xmm1
	jbe	.LBB29_31
# %bb.30:                               # %if.then77
	vmovsd	-32(%rbp), %xmm0        # xmm0 = mem[0],zero
	vmulsd	-64(%rbp), %xmm0, %xmm0
	vmovsd	-48(%rbp), %xmm1        # xmm1 = mem[0],zero
	vmulsd	-24(%rbp), %xmm1, %xmm1
	vsubsd	%xmm1, %xmm0, %xmm0
	vdivsd	-72(%rbp), %xmm0, %xmm0
	vmovsd	%xmm0, MADPictureC2
	vmovsd	-48(%rbp), %xmm0        # xmm0 = mem[0],zero
	vmulsd	-56(%rbp), %xmm0, %xmm0
	vmovsd	-32(%rbp), %xmm1        # xmm1 = mem[0],zero
	vmulsd	-80(%rbp), %xmm1, %xmm1
	vsubsd	%xmm1, %xmm0, %xmm0
	vdivsd	-72(%rbp), %xmm0, %xmm0
	vmovsd	%xmm0, MADPictureC1
	jmp	.LBB29_32
.LBB29_31:                              # %if.else
	vmovsd	-32(%rbp), %xmm0        # xmm0 = mem[0],zero
	vdivsd	-24(%rbp), %xmm0, %xmm0
	vmovsd	%xmm0, MADPictureC1
	vxorps	%xmm0, %xmm0, %xmm0
	vmovsd	%xmm0, MADPictureC2
.LBB29_32:                              # %if.end87
	jmp	.LBB29_33
.LBB29_33:                              # %if.end88
	movq	img, %rax
	cmpl	$0, 24(%rax)
	jne	.LBB29_35
# %bb.34:                               # %if.then91
	vmovsd	MADPictureC1, %xmm0     # xmm0 = mem[0],zero
	vmovsd	%xmm0, PMADPictureC1
	vmovsd	MADPictureC2, %xmm0     # xmm0 = mem[0],zero
	vmovsd	%xmm0, PMADPictureC2
.LBB29_35:                              # %if.end92
	cmpl	$1270866773, -84(%rbp)  # imm = 0x4BBFE355
	jne	.LBB29_37
.LBB29_36:
	addq	$96, %rsp
	popq	%rbp
	.cfi_def_cfa %rsp, 8
	retq
.LBB29_37:                              # %func_exit
	.cfi_def_cfa %rbp, 16
	callq	detect_breach
	jmp	.LBB29_36
.Lfunc_end29:
	.size	MADModelEstimator.13, .Lfunc_end29-MADModelEstimator.13
	.cfi_endproc
                                        # -- End function
	.section	.rodata.cst8,"aM",@progbits,8
	.p2align	3               # -- Begin function RCModelEstimator.14
.LCPI30_0:
	.quad	4517329193108106637     # double 9.9999999999999995E-7
.LCPI30_2:
	.quad	4607182418800017408     # double 1
	.section	.rodata.cst16,"aM",@progbits,16
	.p2align	4
.LCPI30_1:
	.quad	9223372036854775807     # double NaN
	.quad	9223372036854775807     # double NaN
	.text
	.globl	RCModelEstimator.14
	.p2align	4, 0x90
	.type	RCModelEstimator.14,@function
RCModelEstimator.14:                    # @RCModelEstimator.14
	.cfi_startproc
# %bb.0:                                # %entry
	pushq	%rbp
	.cfi_def_cfa_offset 16
	.cfi_offset %rbp, -16
	movq	%rsp, %rbp
	.cfi_def_cfa_register %rbp
	subq	$96, %rsp
	movl	$2037959307, -84(%rbp)  # imm = 0x7978CA8B
	movl	%edi, -8(%rbp)
	movl	-8(%rbp), %eax
	movl	%eax, -12(%rbp)
	vxorps	%xmm0, %xmm0, %xmm0
	vmovsd	%xmm0, -24(%rbp)
	vmovsd	%xmm0, -40(%rbp)
	vmovsd	%xmm0, -72(%rbp)
	vmovsd	%xmm0, -56(%rbp)
	vmovsd	%xmm0, -32(%rbp)
	vmovsd	%xmm0, -64(%rbp)
	movl	$0, -44(%rbp)
	movl	$0, -4(%rbp)
.LBB30_1:                               # %for.cond
                                        # =>This Inner Loop Header: Depth=1
	movl	-4(%rbp), %eax
	cmpl	-8(%rbp), %eax
	jge	.LBB30_6
# %bb.2:                                # %for.body
                                        #   in Loop: Header=BB30_1 Depth=1
	movslq	-4(%rbp), %rax
	cmpl	$0, m_rgRejected(,%rax,4)
	je	.LBB30_4
# %bb.3:                                # %if.then
                                        #   in Loop: Header=BB30_1 Depth=1
	movl	-12(%rbp), %eax
	addl	$-1, %eax
	movl	%eax, -12(%rbp)
.LBB30_4:                               # %if.end
                                        #   in Loop: Header=BB30_1 Depth=1
	jmp	.LBB30_5
.LBB30_5:                               # %for.inc
                                        #   in Loop: Header=BB30_1 Depth=1
	movl	-4(%rbp), %eax
	addl	$1, %eax
	movl	%eax, -4(%rbp)
	jmp	.LBB30_1
.LBB30_6:                               # %for.end
	vxorps	%xmm0, %xmm0, %xmm0
	vmovsd	%xmm0, m_X2
	vmovsd	%xmm0, m_X1
	movl	$0, -4(%rbp)
.LBB30_7:                               # %for.cond1
                                        # =>This Inner Loop Header: Depth=1
	movl	-4(%rbp), %eax
	cmpl	-8(%rbp), %eax
	jge	.LBB30_12
# %bb.8:                                # %for.body3
                                        #   in Loop: Header=BB30_7 Depth=1
	movslq	-4(%rbp), %rax
	cmpl	$0, m_rgRejected(,%rax,4)
	jne	.LBB30_10
# %bb.9:                                # %if.then7
                                        #   in Loop: Header=BB30_7 Depth=1
	movslq	-4(%rbp), %rax
	vmovsd	m_rgQp(,%rax,8), %xmm0  # xmm0 = mem[0],zero
	vmovsd	%xmm0, -96(%rbp)
.LBB30_10:                              # %if.end10
                                        #   in Loop: Header=BB30_7 Depth=1
	jmp	.LBB30_11
.LBB30_11:                              # %for.inc11
                                        #   in Loop: Header=BB30_7 Depth=1
	movl	-4(%rbp), %eax
	addl	$1, %eax
	movl	%eax, -4(%rbp)
	jmp	.LBB30_7
.LBB30_12:                              # %for.end13
	movl	$0, -4(%rbp)
.LBB30_13:                              # %for.cond14
                                        # =>This Inner Loop Header: Depth=1
	movl	-4(%rbp), %eax
	cmpl	-8(%rbp), %eax
	jge	.LBB30_21
# %bb.14:                               # %for.body16
                                        #   in Loop: Header=BB30_13 Depth=1
	movslq	-4(%rbp), %rax
	vmovsd	m_rgQp(,%rax,8), %xmm0  # xmm0 = mem[0],zero
	vucomisd	-96(%rbp), %xmm0
	jne	.LBB30_15
	jp	.LBB30_15
	jmp	.LBB30_17
.LBB30_15:                              # %land.lhs.true
                                        #   in Loop: Header=BB30_13 Depth=1
	movslq	-4(%rbp), %rax
	cmpl	$0, m_rgRejected(,%rax,4)
	jne	.LBB30_17
# %bb.16:                               # %if.then23
                                        #   in Loop: Header=BB30_13 Depth=1
	movl	$1, -44(%rbp)
.LBB30_17:                              # %if.end24
                                        #   in Loop: Header=BB30_13 Depth=1
	movslq	-4(%rbp), %rax
	cmpl	$0, m_rgRejected(,%rax,4)
	jne	.LBB30_19
# %bb.18:                               # %if.then28
                                        #   in Loop: Header=BB30_13 Depth=1
	movslq	-4(%rbp), %rax
	vmovsd	m_rgQp(,%rax,8), %xmm0  # xmm0 = mem[0],zero
	movslq	-4(%rbp), %rax
	vmulsd	m_rgRp(,%rax,8), %xmm0, %xmm0
	vcvtsi2sdl	-12(%rbp), %xmm0, %xmm1
	vdivsd	%xmm1, %xmm0, %xmm0
	vaddsd	m_X1, %xmm0, %xmm0
	vmovsd	%xmm0, m_X1
.LBB30_19:                              # %if.end33
                                        #   in Loop: Header=BB30_13 Depth=1
	jmp	.LBB30_20
.LBB30_20:                              # %for.inc34
                                        #   in Loop: Header=BB30_13 Depth=1
	movl	-4(%rbp), %eax
	addl	$1, %eax
	movl	%eax, -4(%rbp)
	jmp	.LBB30_13
.LBB30_21:                              # %for.end36
	cmpl	$1, -12(%rbp)
	jl	.LBB30_33
# %bb.22:                               # %land.lhs.true39
	cmpl	$0, -44(%rbp)
	je	.LBB30_33
# %bb.23:                               # %if.then41
	movl	$0, -4(%rbp)
.LBB30_24:                              # %for.cond42
                                        # =>This Inner Loop Header: Depth=1
	movl	-4(%rbp), %eax
	cmpl	-8(%rbp), %eax
	jge	.LBB30_29
# %bb.25:                               # %for.body45
                                        #   in Loop: Header=BB30_24 Depth=1
	movslq	-4(%rbp), %rax
	cmpl	$0, m_rgRejected(,%rax,4)
	jne	.LBB30_27
# %bb.26:                               # %if.then49
                                        #   in Loop: Header=BB30_24 Depth=1
	vmovsd	.LCPI30_2(%rip), %xmm0  # xmm0 = mem[0],zero
	vaddsd	-24(%rbp), %xmm0, %xmm1
	vmovsd	%xmm1, -24(%rbp)
	movslq	-4(%rbp), %rax
	vdivsd	m_rgQp(,%rax,8), %xmm0, %xmm1
	vaddsd	-40(%rbp), %xmm1, %xmm1
	vmovsd	%xmm1, -40(%rbp)
	vmovsd	-40(%rbp), %xmm1        # xmm1 = mem[0],zero
	vmovsd	%xmm1, -72(%rbp)
	movslq	-4(%rbp), %rax
	vmovsd	m_rgQp(,%rax,8), %xmm1  # xmm1 = mem[0],zero
	movslq	-4(%rbp), %rax
	vmulsd	m_rgQp(,%rax,8), %xmm1, %xmm1
	vdivsd	%xmm1, %xmm0, %xmm0
	vaddsd	-56(%rbp), %xmm0, %xmm0
	vmovsd	%xmm0, -56(%rbp)
	movslq	-4(%rbp), %rax
	vmovsd	m_rgQp(,%rax,8), %xmm0  # xmm0 = mem[0],zero
	movslq	-4(%rbp), %rax
	vmulsd	m_rgRp(,%rax,8), %xmm0, %xmm0
	vaddsd	-32(%rbp), %xmm0, %xmm0
	vmovsd	%xmm0, -32(%rbp)
	movslq	-4(%rbp), %rax
	vmovsd	m_rgRp(,%rax,8), %xmm0  # xmm0 = mem[0],zero
	vaddsd	-64(%rbp), %xmm0, %xmm0
	vmovsd	%xmm0, -64(%rbp)
.LBB30_27:                              # %if.end71
                                        #   in Loop: Header=BB30_24 Depth=1
	jmp	.LBB30_28
.LBB30_28:                              # %for.inc72
                                        #   in Loop: Header=BB30_24 Depth=1
	movl	-4(%rbp), %eax
	addl	$1, %eax
	movl	%eax, -4(%rbp)
	jmp	.LBB30_24
.LBB30_29:                              # %for.end74
	vmovsd	.LCPI30_0(%rip), %xmm0  # xmm0 = mem[0],zero
	vmovsd	-24(%rbp), %xmm1        # xmm1 = mem[0],zero
	vmulsd	-56(%rbp), %xmm1, %xmm1
	vmovsd	-40(%rbp), %xmm2        # xmm2 = mem[0],zero
	vmulsd	-72(%rbp), %xmm2, %xmm2
	vsubsd	%xmm2, %xmm1, %xmm1
	vmovsd	%xmm1, -80(%rbp)
	vmovsd	-80(%rbp), %xmm1        # xmm1 = mem[0],zero
	vmovdqa	.LCPI30_1(%rip), %xmm2  # xmm2 = [NaN,NaN]
	vpand	%xmm2, %xmm1, %xmm1
	vucomisd	%xmm0, %xmm1
	jbe	.LBB30_31
# %bb.30:                               # %if.then79
	vmovsd	-32(%rbp), %xmm0        # xmm0 = mem[0],zero
	vmulsd	-56(%rbp), %xmm0, %xmm0
	vmovsd	-64(%rbp), %xmm1        # xmm1 = mem[0],zero
	vmulsd	-40(%rbp), %xmm1, %xmm1
	vsubsd	%xmm1, %xmm0, %xmm0
	vdivsd	-80(%rbp), %xmm0, %xmm0
	vmovsd	%xmm0, m_X1
	vmovsd	-64(%rbp), %xmm0        # xmm0 = mem[0],zero
	vmulsd	-24(%rbp), %xmm0, %xmm0
	vmovsd	-32(%rbp), %xmm1        # xmm1 = mem[0],zero
	vmulsd	-72(%rbp), %xmm1, %xmm1
	vsubsd	%xmm1, %xmm0, %xmm0
	vdivsd	-80(%rbp), %xmm0, %xmm0
	vmovsd	%xmm0, m_X2
	jmp	.LBB30_32
.LBB30_31:                              # %if.else
	vmovsd	-32(%rbp), %xmm0        # xmm0 = mem[0],zero
	vdivsd	-24(%rbp), %xmm0, %xmm0
	vmovsd	%xmm0, m_X1
	vxorps	%xmm0, %xmm0, %xmm0
	vmovsd	%xmm0, m_X2
.LBB30_32:                              # %if.end89
	jmp	.LBB30_33
.LBB30_33:                              # %if.end90
	movq	img, %rax
	cmpl	$0, 24(%rax)
	jne	.LBB30_35
# %bb.34:                               # %if.then93
	vmovsd	m_X1, %xmm0             # xmm0 = mem[0],zero
	vmovsd	%xmm0, Pm_X1
	vmovsd	m_X2, %xmm0             # xmm0 = mem[0],zero
	vmovsd	%xmm0, Pm_X2
.LBB30_35:                              # %if.end94
	cmpl	$2037959307, -84(%rbp)  # imm = 0x7978CA8B
	jne	.LBB30_37
.LBB30_36:
	addq	$96, %rsp
	popq	%rbp
	.cfi_def_cfa %rsp, 8
	retq
.LBB30_37:                              # %func_exit
	.cfi_def_cfa %rbp, 16
	callq	detect_breach
	jmp	.LBB30_36
.Lfunc_end30:
	.size	RCModelEstimator.14, .Lfunc_end30-RCModelEstimator.14
	.cfi_endproc
                                        # -- End function
	.section	.rodata.cst8,"aM",@progbits,8
	.p2align	3               # -- Begin function RCModelEstimator.15
.LCPI31_0:
	.quad	4517329193108106637     # double 9.9999999999999995E-7
.LCPI31_2:
	.quad	4607182418800017408     # double 1
	.section	.rodata.cst16,"aM",@progbits,16
	.p2align	4
.LCPI31_1:
	.quad	9223372036854775807     # double NaN
	.quad	9223372036854775807     # double NaN
	.text
	.globl	RCModelEstimator.15
	.p2align	4, 0x90
	.type	RCModelEstimator.15,@function
RCModelEstimator.15:                    # @RCModelEstimator.15
	.cfi_startproc
# %bb.0:                                # %entry
	pushq	%rbp
	.cfi_def_cfa_offset 16
	.cfi_offset %rbp, -16
	movq	%rsp, %rbp
	.cfi_def_cfa_register %rbp
	subq	$96, %rsp
	movl	$1063863651, -84(%rbp)  # imm = 0x3F694563
	movl	%edi, -8(%rbp)
	movl	-8(%rbp), %eax
	movl	%eax, -12(%rbp)
	vxorps	%xmm0, %xmm0, %xmm0
	vmovsd	%xmm0, -32(%rbp)
	vmovsd	%xmm0, -24(%rbp)
	vmovsd	%xmm0, -72(%rbp)
	vmovsd	%xmm0, -56(%rbp)
	vmovsd	%xmm0, -40(%rbp)
	vmovsd	%xmm0, -64(%rbp)
	movl	$0, -44(%rbp)
	movl	$0, -4(%rbp)
.LBB31_1:                               # %for.cond
                                        # =>This Inner Loop Header: Depth=1
	movl	-4(%rbp), %eax
	cmpl	-8(%rbp), %eax
	jge	.LBB31_6
# %bb.2:                                # %for.body
                                        #   in Loop: Header=BB31_1 Depth=1
	movslq	-4(%rbp), %rax
	cmpl	$0, m_rgRejected(,%rax,4)
	je	.LBB31_4
# %bb.3:                                # %if.then
                                        #   in Loop: Header=BB31_1 Depth=1
	movl	-12(%rbp), %eax
	addl	$-1, %eax
	movl	%eax, -12(%rbp)
.LBB31_4:                               # %if.end
                                        #   in Loop: Header=BB31_1 Depth=1
	jmp	.LBB31_5
.LBB31_5:                               # %for.inc
                                        #   in Loop: Header=BB31_1 Depth=1
	movl	-4(%rbp), %eax
	addl	$1, %eax
	movl	%eax, -4(%rbp)
	jmp	.LBB31_1
.LBB31_6:                               # %for.end
	vxorps	%xmm0, %xmm0, %xmm0
	vmovsd	%xmm0, m_X2
	vmovsd	%xmm0, m_X1
	movl	$0, -4(%rbp)
.LBB31_7:                               # %for.cond1
                                        # =>This Inner Loop Header: Depth=1
	movl	-4(%rbp), %eax
	cmpl	-8(%rbp), %eax
	jge	.LBB31_12
# %bb.8:                                # %for.body3
                                        #   in Loop: Header=BB31_7 Depth=1
	movslq	-4(%rbp), %rax
	cmpl	$0, m_rgRejected(,%rax,4)
	jne	.LBB31_10
# %bb.9:                                # %if.then7
                                        #   in Loop: Header=BB31_7 Depth=1
	movslq	-4(%rbp), %rax
	vmovsd	m_rgQp(,%rax,8), %xmm0  # xmm0 = mem[0],zero
	vmovsd	%xmm0, -96(%rbp)
.LBB31_10:                              # %if.end10
                                        #   in Loop: Header=BB31_7 Depth=1
	jmp	.LBB31_11
.LBB31_11:                              # %for.inc11
                                        #   in Loop: Header=BB31_7 Depth=1
	movl	-4(%rbp), %eax
	addl	$1, %eax
	movl	%eax, -4(%rbp)
	jmp	.LBB31_7
.LBB31_12:                              # %for.end13
	movl	$0, -4(%rbp)
.LBB31_13:                              # %for.cond14
                                        # =>This Inner Loop Header: Depth=1
	movl	-4(%rbp), %eax
	cmpl	-8(%rbp), %eax
	jge	.LBB31_21
# %bb.14:                               # %for.body16
                                        #   in Loop: Header=BB31_13 Depth=1
	movslq	-4(%rbp), %rax
	vmovsd	m_rgQp(,%rax,8), %xmm0  # xmm0 = mem[0],zero
	vucomisd	-96(%rbp), %xmm0
	jne	.LBB31_15
	jp	.LBB31_15
	jmp	.LBB31_17
.LBB31_15:                              # %land.lhs.true
                                        #   in Loop: Header=BB31_13 Depth=1
	movslq	-4(%rbp), %rax
	cmpl	$0, m_rgRejected(,%rax,4)
	jne	.LBB31_17
# %bb.16:                               # %if.then23
                                        #   in Loop: Header=BB31_13 Depth=1
	movl	$1, -44(%rbp)
.LBB31_17:                              # %if.end24
                                        #   in Loop: Header=BB31_13 Depth=1
	movslq	-4(%rbp), %rax
	cmpl	$0, m_rgRejected(,%rax,4)
	jne	.LBB31_19
# %bb.18:                               # %if.then28
                                        #   in Loop: Header=BB31_13 Depth=1
	movslq	-4(%rbp), %rax
	vmovsd	m_rgQp(,%rax,8), %xmm0  # xmm0 = mem[0],zero
	movslq	-4(%rbp), %rax
	vmulsd	m_rgRp(,%rax,8), %xmm0, %xmm0
	vcvtsi2sdl	-12(%rbp), %xmm0, %xmm1
	vdivsd	%xmm1, %xmm0, %xmm0
	vaddsd	m_X1, %xmm0, %xmm0
	vmovsd	%xmm0, m_X1
.LBB31_19:                              # %if.end33
                                        #   in Loop: Header=BB31_13 Depth=1
	jmp	.LBB31_20
.LBB31_20:                              # %for.inc34
                                        #   in Loop: Header=BB31_13 Depth=1
	movl	-4(%rbp), %eax
	addl	$1, %eax
	movl	%eax, -4(%rbp)
	jmp	.LBB31_13
.LBB31_21:                              # %for.end36
	cmpl	$1, -12(%rbp)
	jl	.LBB31_33
# %bb.22:                               # %land.lhs.true39
	cmpl	$0, -44(%rbp)
	je	.LBB31_33
# %bb.23:                               # %if.then41
	movl	$0, -4(%rbp)
.LBB31_24:                              # %for.cond42
                                        # =>This Inner Loop Header: Depth=1
	movl	-4(%rbp), %eax
	cmpl	-8(%rbp), %eax
	jge	.LBB31_29
# %bb.25:                               # %for.body45
                                        #   in Loop: Header=BB31_24 Depth=1
	movslq	-4(%rbp), %rax
	cmpl	$0, m_rgRejected(,%rax,4)
	jne	.LBB31_27
# %bb.26:                               # %if.then49
                                        #   in Loop: Header=BB31_24 Depth=1
	vmovsd	.LCPI31_2(%rip), %xmm0  # xmm0 = mem[0],zero
	vaddsd	-32(%rbp), %xmm0, %xmm1
	vmovsd	%xmm1, -32(%rbp)
	movslq	-4(%rbp), %rax
	vdivsd	m_rgQp(,%rax,8), %xmm0, %xmm1
	vaddsd	-24(%rbp), %xmm1, %xmm1
	vmovsd	%xmm1, -24(%rbp)
	vmovsd	-24(%rbp), %xmm1        # xmm1 = mem[0],zero
	vmovsd	%xmm1, -72(%rbp)
	movslq	-4(%rbp), %rax
	vmovsd	m_rgQp(,%rax,8), %xmm1  # xmm1 = mem[0],zero
	movslq	-4(%rbp), %rax
	vmulsd	m_rgQp(,%rax,8), %xmm1, %xmm1
	vdivsd	%xmm1, %xmm0, %xmm0
	vaddsd	-56(%rbp), %xmm0, %xmm0
	vmovsd	%xmm0, -56(%rbp)
	movslq	-4(%rbp), %rax
	vmovsd	m_rgQp(,%rax,8), %xmm0  # xmm0 = mem[0],zero
	movslq	-4(%rbp), %rax
	vmulsd	m_rgRp(,%rax,8), %xmm0, %xmm0
	vaddsd	-40(%rbp), %xmm0, %xmm0
	vmovsd	%xmm0, -40(%rbp)
	movslq	-4(%rbp), %rax
	vmovsd	m_rgRp(,%rax,8), %xmm0  # xmm0 = mem[0],zero
	vaddsd	-64(%rbp), %xmm0, %xmm0
	vmovsd	%xmm0, -64(%rbp)
.LBB31_27:                              # %if.end71
                                        #   in Loop: Header=BB31_24 Depth=1
	jmp	.LBB31_28
.LBB31_28:                              # %for.inc72
                                        #   in Loop: Header=BB31_24 Depth=1
	movl	-4(%rbp), %eax
	addl	$1, %eax
	movl	%eax, -4(%rbp)
	jmp	.LBB31_24
.LBB31_29:                              # %for.end74
	vmovsd	.LCPI31_0(%rip), %xmm0  # xmm0 = mem[0],zero
	vmovsd	-32(%rbp), %xmm1        # xmm1 = mem[0],zero
	vmulsd	-56(%rbp), %xmm1, %xmm1
	vmovsd	-24(%rbp), %xmm2        # xmm2 = mem[0],zero
	vmulsd	-72(%rbp), %xmm2, %xmm2
	vsubsd	%xmm2, %xmm1, %xmm1
	vmovsd	%xmm1, -80(%rbp)
	vmovsd	-80(%rbp), %xmm1        # xmm1 = mem[0],zero
	vmovdqa	.LCPI31_1(%rip), %xmm2  # xmm2 = [NaN,NaN]
	vpand	%xmm2, %xmm1, %xmm1
	vucomisd	%xmm0, %xmm1
	jbe	.LBB31_31
# %bb.30:                               # %if.then79
	vmovsd	-40(%rbp), %xmm0        # xmm0 = mem[0],zero
	vmulsd	-56(%rbp), %xmm0, %xmm0
	vmovsd	-64(%rbp), %xmm1        # xmm1 = mem[0],zero
	vmulsd	-24(%rbp), %xmm1, %xmm1
	vsubsd	%xmm1, %xmm0, %xmm0
	vdivsd	-80(%rbp), %xmm0, %xmm0
	vmovsd	%xmm0, m_X1
	vmovsd	-64(%rbp), %xmm0        # xmm0 = mem[0],zero
	vmulsd	-32(%rbp), %xmm0, %xmm0
	vmovsd	-40(%rbp), %xmm1        # xmm1 = mem[0],zero
	vmulsd	-72(%rbp), %xmm1, %xmm1
	vsubsd	%xmm1, %xmm0, %xmm0
	vdivsd	-80(%rbp), %xmm0, %xmm0
	vmovsd	%xmm0, m_X2
	jmp	.LBB31_32
.LBB31_31:                              # %if.else
	vmovsd	-40(%rbp), %xmm0        # xmm0 = mem[0],zero
	vdivsd	-32(%rbp), %xmm0, %xmm0
	vmovsd	%xmm0, m_X1
	vxorps	%xmm0, %xmm0, %xmm0
	vmovsd	%xmm0, m_X2
.LBB31_32:                              # %if.end89
	jmp	.LBB31_33
.LBB31_33:                              # %if.end90
	movq	img, %rax
	cmpl	$0, 24(%rax)
	jne	.LBB31_35
# %bb.34:                               # %if.then93
	vmovsd	m_X1, %xmm0             # xmm0 = mem[0],zero
	vmovsd	%xmm0, Pm_X1
	vmovsd	m_X2, %xmm0             # xmm0 = mem[0],zero
	vmovsd	%xmm0, Pm_X2
.LBB31_35:                              # %if.end94
	cmpl	$1063863651, -84(%rbp)  # imm = 0x3F694563
	jne	.LBB31_37
.LBB31_36:
	addq	$96, %rsp
	popq	%rbp
	.cfi_def_cfa %rsp, 8
	retq
.LBB31_37:                              # %func_exit
	.cfi_def_cfa %rbp, 16
	callq	detect_breach
	jmp	.LBB31_36
.Lfunc_end31:
	.size	RCModelEstimator.15, .Lfunc_end31-RCModelEstimator.15
	.cfi_endproc
                                        # -- End function
	.section	.rodata.cst8,"aM",@progbits,8
	.p2align	3               # -- Begin function Qstep2QP.16
.LCPI32_0:
	.quad	4604086194056200192     # double 0.65625
.LCPI32_1:
	.quad	4604930618986332160     # double 0.75
.LCPI32_2:
	.quad	4605775043916464128     # double 0.84375
.LCPI32_3:
	.quad	4606619468846596096     # double 0.9375
.LCPI32_4:
	.quad	4607463893776728064     # double 1.0625
.LCPI32_5:
	.quad	4607745368753438720     # double 1.125
.LCPI32_6:
	.quad	4607182418800017408     # double 1
.LCPI32_7:
	.quad	4606056518893174784     # double 0.875
.LCPI32_8:
	.quad	4605493568939753472     # double 0.8125
.LCPI32_9:
	.quad	4604367669032910848     # double 0.6875
.LCPI32_10:
	.quad	4603804719079489536     # double 0.625
.LCPI32_11:
	.quad	4611686018427387904     # double 2
	.text
	.globl	Qstep2QP.16
	.p2align	4, 0x90
	.type	Qstep2QP.16,@function
Qstep2QP.16:                            # @Qstep2QP.16
	.cfi_startproc
# %bb.0:                                # %entry
	pushq	%rbp
	.cfi_def_cfa_offset 16
	.cfi_offset %rbp, -16
	movq	%rsp, %rbp
	.cfi_def_cfa_register %rbp
	pushq	%rbx
	subq	$56, %rsp
	.cfi_offset %rbx, -24
	movl	$149301530, -32(%rbp)   # imm = 0x8E6291A
	vmovsd	%xmm0, -16(%rbp)
	movl	$0, -24(%rbp)
	movl	$0, -20(%rbp)
	vmovsd	-16(%rbp), %xmm0        # xmm0 = mem[0],zero
	vmovsd	%xmm0, -40(%rbp)        # 8-byte Spill
	xorl	%edi, %edi
	callq	QP2Qstep
	vucomisd	-40(%rbp), %xmm0 # 8-byte Folded Reload
	jbe	.LBB32_2
# %bb.1:                                # %if.then
	movl	$0, -28(%rbp)
	jmp	.LBB32_24
.LBB32_2:                               # %if.else
	vmovsd	-16(%rbp), %xmm0        # xmm0 = mem[0],zero
	vmovsd	%xmm0, -56(%rbp)        # 8-byte Spill
	movl	$51, %edi
	callq	QP2Qstep
	vmovsd	-56(%rbp), %xmm1        # 8-byte Reload
                                        # xmm1 = mem[0],zero
	vucomisd	%xmm0, %xmm1
	jbe	.LBB32_4
# %bb.3:                                # %if.then3
	movl	$51, -28(%rbp)
	jmp	.LBB32_24
.LBB32_4:                               # %if.end
	jmp	.LBB32_5
.LBB32_5:                               # %if.end4
	jmp	.LBB32_6
.LBB32_6:                               # %while.cond
                                        # =>This Inner Loop Header: Depth=1
	vmovsd	-16(%rbp), %xmm0        # xmm0 = mem[0],zero
	vmovsd	%xmm0, -48(%rbp)        # 8-byte Spill
	movl	$5, %edi
	callq	QP2Qstep
	vmovsd	-48(%rbp), %xmm1        # 8-byte Reload
                                        # xmm1 = mem[0],zero
	vucomisd	%xmm0, %xmm1
	jbe	.LBB32_8
# %bb.7:                                # %while.body
                                        #   in Loop: Header=BB32_6 Depth=1
	vmovsd	.LCPI32_11(%rip), %xmm0 # xmm0 = mem[0],zero
	vmovsd	-16(%rbp), %xmm1        # xmm1 = mem[0],zero
	vdivsd	%xmm0, %xmm1, %xmm0
	vmovsd	%xmm0, -16(%rbp)
	movl	-24(%rbp), %eax
	addl	$1, %eax
	movl	%eax, -24(%rbp)
	jmp	.LBB32_6
.LBB32_8:                               # %while.end
	vmovsd	.LCPI32_0(%rip), %xmm0  # xmm0 = mem[0],zero
	vucomisd	-16(%rbp), %xmm0
	jb	.LBB32_10
# %bb.9:                                # %if.then8
	vmovsd	.LCPI32_10(%rip), %xmm0 # xmm0 = mem[0],zero
	vmovsd	%xmm0, -16(%rbp)
	movl	$0, -20(%rbp)
	jmp	.LBB32_23
.LBB32_10:                              # %if.else9
	vmovsd	.LCPI32_1(%rip), %xmm0  # xmm0 = mem[0],zero
	vucomisd	-16(%rbp), %xmm0
	jb	.LBB32_12
# %bb.11:                               # %if.then11
	vmovsd	.LCPI32_9(%rip), %xmm0  # xmm0 = mem[0],zero
	vmovsd	%xmm0, -16(%rbp)
	movl	$1, -20(%rbp)
	jmp	.LBB32_22
.LBB32_12:                              # %if.else12
	vmovsd	.LCPI32_2(%rip), %xmm0  # xmm0 = mem[0],zero
	vucomisd	-16(%rbp), %xmm0
	jb	.LBB32_14
# %bb.13:                               # %if.then14
	vmovsd	.LCPI32_8(%rip), %xmm0  # xmm0 = mem[0],zero
	vmovsd	%xmm0, -16(%rbp)
	movl	$2, -20(%rbp)
	jmp	.LBB32_21
.LBB32_14:                              # %if.else15
	vmovsd	.LCPI32_3(%rip), %xmm0  # xmm0 = mem[0],zero
	vucomisd	-16(%rbp), %xmm0
	jb	.LBB32_16
# %bb.15:                               # %if.then17
	vmovsd	.LCPI32_7(%rip), %xmm0  # xmm0 = mem[0],zero
	vmovsd	%xmm0, -16(%rbp)
	movl	$3, -20(%rbp)
	jmp	.LBB32_20
.LBB32_16:                              # %if.else18
	vmovsd	.LCPI32_4(%rip), %xmm0  # xmm0 = mem[0],zero
	vucomisd	-16(%rbp), %xmm0
	jb	.LBB32_18
# %bb.17:                               # %if.then20
	vmovsd	.LCPI32_6(%rip), %xmm0  # xmm0 = mem[0],zero
	vmovsd	%xmm0, -16(%rbp)
	movl	$4, -20(%rbp)
	jmp	.LBB32_19
.LBB32_18:                              # %if.else21
	vmovsd	.LCPI32_5(%rip), %xmm0  # xmm0 = mem[0],zero
	vmovsd	%xmm0, -16(%rbp)
	movl	$5, -20(%rbp)
.LBB32_19:                              # %if.end22
	jmp	.LBB32_20
.LBB32_20:                              # %if.end23
	jmp	.LBB32_21
.LBB32_21:                              # %if.end24
	jmp	.LBB32_22
.LBB32_22:                              # %if.end25
	jmp	.LBB32_23
.LBB32_23:                              # %if.end26
	imull	$6, -24(%rbp), %eax
	addl	-20(%rbp), %eax
	movl	%eax, -28(%rbp)
.LBB32_24:                              # %return
	movl	-28(%rbp), %ebx
	cmpl	$149301530, -32(%rbp)   # imm = 0x8E6291A
	jne	.LBB32_26
.LBB32_25:
	movl	%ebx, %eax
	addq	$56, %rsp
	popq	%rbx
	popq	%rbp
	.cfi_def_cfa %rsp, 8
	retq
.LBB32_26:                              # %func_exit
	.cfi_def_cfa %rbp, 16
	callq	detect_breach
	jmp	.LBB32_25
.Lfunc_end32:
	.size	Qstep2QP.16, .Lfunc_end32-Qstep2QP.16
	.cfi_endproc
                                        # -- End function
	.section	.rodata.cst8,"aM",@progbits,8
	.p2align	3               # -- Begin function rc_init_seq.17
.LCPI33_0:
	.quad	4605380978949069210     # double 0.80000000000000004
.LCPI33_1:
	.quad	4612947026323051643     # double 2.5600000000000001
.LCPI33_2:
	.quad	4616189618054758400     # double 4
.LCPI33_3:
	.quad	4602678819172646912     # double 0.5
.LCPI33_4:
	.quad	4606281698874543309     # double 0.90000000000000002
.LCPI33_5:
	.quad	4598175219545276416     # double 0.25
.LCPI33_6:
	.quad	4607182418800017408     # double 1
.LCPI33_7:
	.quad	4612586738352862003     # double 2.3999999999999999
.LCPI33_8:
	.quad	4608983858650965606     # double 1.3999999999999999
.LCPI33_9:
	.quad	4603579539098121011     # double 0.59999999999999998
.LCPI33_10:
	.quad	4608083138725491507     # double 1.2
.LCPI33_11:
	.quad	4596373779694328218     # double 0.20000000000000001
.LCPI33_12:
	.quad	4599075939470750515     # double 0.29999999999999999
.LCPI33_13:
	.quad	4591870180066957722     # double 0.10000000000000001
	.text
	.globl	rc_init_seq.17
	.p2align	4, 0x90
	.type	rc_init_seq.17,@function
rc_init_seq.17:                         # @rc_init_seq.17
	.cfi_startproc
# %bb.0:                                # %entry
	pushq	%rbp
	.cfi_def_cfa_offset 16
	.cfi_offset %rbp, -16
	movq	%rsp, %rbp
	.cfi_def_cfa_register %rbp
	subq	$48, %rsp
	movl	$544585736, -44(%rbp)   # imm = 0x2075B808
	movl	$0, Xp
	movl	$0, Xb
	movq	input, %rax
	vcvtsi2sdl	3240(%rax), %xmm0, %xmm0
	vmovsd	%xmm0, bit_rate
	movq	img, %rax
	vmovss	48(%rax), %xmm0         # xmm0 = mem[0],zero,zero,zero
	movq	input, %rax
	movl	1236(%rax), %eax
	addl	$1, %eax
	vcvtsi2ss	%eax, %xmm0, %xmm1
	vmulss	%xmm1, %xmm0, %xmm0
	movq	input, %rax
	movl	20(%rax), %eax
	addl	$1, %eax
	vcvtsi2ss	%eax, %xmm0, %xmm1
	vdivss	%xmm1, %xmm0, %xmm0
	vcvtss2sd	%xmm0, %xmm0, %xmm0
	vmovsd	%xmm0, frame_rate
	vmovsd	bit_rate, %xmm0         # xmm0 = mem[0],zero
	vmovsd	%xmm0, PreviousBit_Rate
	movq	img, %rax
	movl	60(%rax), %eax
	movq	img, %rcx
	imull	52(%rcx), %eax
	cltd
	movl	$256, %ecx              # imm = 0x100
	idivl	%ecx
	movq	img, %rcx
	movl	%eax, 72608(%rcx)
	movq	input, %rax
	movl	3248(%rax), %eax
	movq	img, %rcx
	cmpl	72608(%rcx), %eax
	jle	.LBB33_2
# %bb.1:                                # %if.then
	movq	img, %rax
	movl	72608(%rax), %eax
	movq	input, %rcx
	movl	%eax, 3248(%rcx)
.LBB33_2:                               # %if.end
	movq	input, %rax
	movl	3248(%rax), %eax
	movq	img, %rcx
	cmpl	72608(%rcx), %eax
	jge	.LBB33_4
# %bb.3:                                # %if.then15
	movq	img, %rax
	movl	72608(%rax), %eax
	movq	input, %rcx
	cltd
	idivl	3248(%rcx)
	movl	%eax, TotalNumberofBasicUnit
.LBB33_4:                               # %if.end19
	vmovsd	.LCPI33_0(%rip), %xmm0  # xmm0 = mem[0],zero
	vmovsd	.LCPI33_1(%rip), %xmm1  # xmm1 = mem[0],zero
	vmovsd	.LCPI33_2(%rip), %xmm2  # xmm2 = mem[0],zero
	vmovsd	%xmm2, MINVALUE
	vmulsd	bit_rate, %xmm1, %xmm1
	vmovsd	%xmm1, BufferSize
	vxorps	%xmm1, %xmm1, %xmm1
	vmovsd	%xmm1, CurrentBufferFullness
	vmovsd	CurrentBufferFullness, %xmm1 # xmm1 = mem[0],zero
	vmovsd	%xmm1, GOPTargetBufferLevel
	vmulsd	BufferSize, %xmm0, %xmm0
	vmovsd	%xmm0, InitialDelayOffset
	movl	$0, m_windowSize
	movl	$0, MADm_windowSize
	movq	img, %rax
	movl	$0, 72560(%rax)
	movq	img, %rax
	movl	$0, 72564(%rax)
	movq	img, %rax
	movl	$0, 72568(%rax)
	movl	$0, R
	movq	input, %rax
	cmpl	$0, 1236(%rax)
	jle	.LBB33_6
# %bb.5:                                # %if.then25
	vmovsd	.LCPI33_4(%rip), %xmm0  # xmm0 = mem[0],zero
	vmovsd	.LCPI33_5(%rip), %xmm1  # xmm1 = mem[0],zero
	vmovsd	%xmm1, GAMMAP
	vmovsd	%xmm0, BETAP
	jmp	.LBB33_7
.LBB33_6:                               # %if.else
	vmovsd	.LCPI33_3(%rip), %xmm0  # xmm0 = mem[0],zero
	vmovsd	%xmm0, GAMMAP
	vmovsd	%xmm0, BETAP
.LBB33_7:                               # %if.end26
	vmovsd	.LCPI33_6(%rip), %xmm0  # xmm0 = mem[0],zero
	movl	$0, PPreHeader
	vmulsd	bit_rate, %xmm0, %xmm1
	vmovsd	%xmm1, Pm_X1
	vxorps	%xmm1, %xmm1, %xmm1
	vmovsd	%xmm1, Pm_X2
	vmovsd	%xmm0, PMADPictureC1
	vmovsd	%xmm1, PMADPictureC2
	movl	$0, -4(%rbp)
.LBB33_8:                               # %for.cond
                                        # =>This Inner Loop Header: Depth=1
	cmpl	$20, -4(%rbp)
	jge	.LBB33_11
# %bb.9:                                # %for.body
                                        #   in Loop: Header=BB33_8 Depth=1
	movslq	-4(%rbp), %rax
	vxorps	%xmm0, %xmm0, %xmm0
	vmovsd	%xmm0, Pm_rgQp(,%rax,8)
	movslq	-4(%rbp), %rax
	vmovsd	%xmm0, Pm_rgRp(,%rax,8)
	movslq	-4(%rbp), %rax
	vmovsd	%xmm0, PPictureMAD(,%rax,8)
# %bb.10:                               # %for.inc
                                        #   in Loop: Header=BB33_8 Depth=1
	movl	-4(%rbp), %eax
	addl	$1, %eax
	movl	%eax, -4(%rbp)
	jmp	.LBB33_8
.LBB33_11:                              # %for.end
	vxorps	%xmm0, %xmm0, %xmm0
	vmovsd	%xmm0, PPictureMAD+160
	movl	$2, PDuantQp
	movl	$0, PAveHeaderBits1
	movl	$0, PAveHeaderBits3
	cmpl	$9, TotalNumberofBasicUnit
	jl	.LBB33_13
# %bb.12:                               # %if.then36
	movl	$1, DDquant
	jmp	.LBB33_14
.LBB33_13:                              # %if.else37
	movl	$2, DDquant
.LBB33_14:                              # %if.end38
	vmovsd	.LCPI33_6(%rip), %xmm0  # xmm0 = mem[0],zero
	movq	img, %rax
	movl	52(%rax), %eax
	cltd
	movl	$16, %ecx
	idivl	%ecx
	movl	%eax, MBPerRow
	movq	img, %rax
	movl	$0, 72600(%rax)
	movl	$51, RC_MAX_QUANT
	movl	$0, RC_MIN_QUANT
	vmulsd	bit_rate, %xmm0, %xmm0
	vmovsd	frame_rate, %xmm1       # xmm1 = mem[0],zero
	movq	img, %rax
	vcvtsi2sdl	52(%rax), %xmm0, %xmm2
	vmulsd	%xmm2, %xmm1, %xmm1
	movq	img, %rax
	vcvtsi2sdl	60(%rax), %xmm0, %xmm2
	vmulsd	%xmm2, %xmm1, %xmm1
	vdivsd	%xmm1, %xmm0, %xmm0
	vmovsd	%xmm0, -16(%rbp)
	movq	img, %rax
	cmpl	$176, 52(%rax)
	jne	.LBB33_16
# %bb.15:                               # %if.then52
	vmovsd	.LCPI33_9(%rip), %xmm0  # xmm0 = mem[0],zero
	vmovsd	.LCPI33_12(%rip), %xmm1 # xmm1 = mem[0],zero
	vmovsd	.LCPI33_13(%rip), %xmm2 # xmm2 = mem[0],zero
	vmovsd	%xmm2, -24(%rbp)
	vmovsd	%xmm1, -40(%rbp)
	vmovsd	%xmm0, -32(%rbp)
	jmp	.LBB33_20
.LBB33_16:                              # %if.else53
	movq	img, %rax
	cmpl	$352, 52(%rax)          # imm = 0x160
	jne	.LBB33_18
# %bb.17:                               # %if.then57
	vmovsd	.LCPI33_10(%rip), %xmm0 # xmm0 = mem[0],zero
	vmovsd	.LCPI33_9(%rip), %xmm1  # xmm1 = mem[0],zero
	vmovsd	.LCPI33_11(%rip), %xmm2 # xmm2 = mem[0],zero
	vmovsd	%xmm2, -24(%rbp)
	vmovsd	%xmm1, -40(%rbp)
	vmovsd	%xmm0, -32(%rbp)
	jmp	.LBB33_19
.LBB33_18:                              # %if.else58
	vmovsd	.LCPI33_7(%rip), %xmm0  # xmm0 = mem[0],zero
	vmovsd	.LCPI33_8(%rip), %xmm1  # xmm1 = mem[0],zero
	vmovsd	.LCPI33_9(%rip), %xmm2  # xmm2 = mem[0],zero
	vmovsd	%xmm2, -24(%rbp)
	vmovsd	%xmm1, -40(%rbp)
	vmovsd	%xmm0, -32(%rbp)
.LBB33_19:                              # %if.end59
	jmp	.LBB33_20
.LBB33_20:                              # %if.end60
	movq	input, %rax
	cmpl	$0, 3244(%rax)
	jne	.LBB33_31
# %bb.21:                               # %if.then63
	vmovsd	-16(%rbp), %xmm0        # xmm0 = mem[0],zero
	vmovsd	-24(%rbp), %xmm1        # xmm1 = mem[0],zero
	vucomisd	%xmm0, %xmm1
	jb	.LBB33_23
# %bb.22:                               # %if.then66
	movl	$35, -8(%rbp)
	jmp	.LBB33_30
.LBB33_23:                              # %if.else67
	vmovsd	-16(%rbp), %xmm0        # xmm0 = mem[0],zero
	vmovsd	-40(%rbp), %xmm1        # xmm1 = mem[0],zero
	vucomisd	%xmm0, %xmm1
	jb	.LBB33_25
# %bb.24:                               # %if.then70
	movl	$25, -8(%rbp)
	jmp	.LBB33_29
.LBB33_25:                              # %if.else71
	vmovsd	-16(%rbp), %xmm0        # xmm0 = mem[0],zero
	vmovsd	-32(%rbp), %xmm1        # xmm1 = mem[0],zero
	vucomisd	%xmm0, %xmm1
	jb	.LBB33_27
# %bb.26:                               # %if.then74
	movl	$20, -8(%rbp)
	jmp	.LBB33_28
.LBB33_27:                              # %if.else75
	movl	$10, -8(%rbp)
.LBB33_28:                              # %if.end76
	jmp	.LBB33_29
.LBB33_29:                              # %if.end77
	jmp	.LBB33_30
.LBB33_30:                              # %if.end78
	movl	-8(%rbp), %eax
	movq	input, %rcx
	movl	%eax, 3244(%rcx)
.LBB33_31:                              # %if.end80
	cmpl	$544585736, -44(%rbp)   # imm = 0x2075B808
	jne	.LBB33_33
.LBB33_32:
	addq	$48, %rsp
	popq	%rbp
	.cfi_def_cfa %rsp, 8
	retq
.LBB33_33:                              # %func_exit
	.cfi_def_cfa %rbp, 16
	callq	detect_breach
	jmp	.LBB33_32
.Lfunc_end33:
	.size	rc_init_seq.17, .Lfunc_end33-rc_init_seq.17
	.cfi_endproc
                                        # -- End function
	.section	.rodata.cst8,"aM",@progbits,8
	.p2align	3               # -- Begin function Qstep2QP.18
.LCPI34_0:
	.quad	4604086194056200192     # double 0.65625
.LCPI34_1:
	.quad	4604930618986332160     # double 0.75
.LCPI34_2:
	.quad	4605775043916464128     # double 0.84375
.LCPI34_3:
	.quad	4606619468846596096     # double 0.9375
.LCPI34_4:
	.quad	4607463893776728064     # double 1.0625
.LCPI34_5:
	.quad	4607745368753438720     # double 1.125
.LCPI34_6:
	.quad	4607182418800017408     # double 1
.LCPI34_7:
	.quad	4606056518893174784     # double 0.875
.LCPI34_8:
	.quad	4605493568939753472     # double 0.8125
.LCPI34_9:
	.quad	4604367669032910848     # double 0.6875
.LCPI34_10:
	.quad	4603804719079489536     # double 0.625
.LCPI34_11:
	.quad	4611686018427387904     # double 2
	.text
	.globl	Qstep2QP.18
	.p2align	4, 0x90
	.type	Qstep2QP.18,@function
Qstep2QP.18:                            # @Qstep2QP.18
	.cfi_startproc
# %bb.0:                                # %entry
	pushq	%rbp
	.cfi_def_cfa_offset 16
	.cfi_offset %rbp, -16
	movq	%rsp, %rbp
	.cfi_def_cfa_register %rbp
	pushq	%rbx
	subq	$56, %rsp
	.cfi_offset %rbx, -24
	movl	$589814049, -32(%rbp)   # imm = 0x2327D921
	vmovsd	%xmm0, -16(%rbp)
	movl	$0, -28(%rbp)
	movl	$0, -20(%rbp)
	vmovsd	-16(%rbp), %xmm0        # xmm0 = mem[0],zero
	vmovsd	%xmm0, -40(%rbp)        # 8-byte Spill
	xorl	%edi, %edi
	callq	QP2Qstep
	vucomisd	-40(%rbp), %xmm0 # 8-byte Folded Reload
	jbe	.LBB34_2
# %bb.1:                                # %if.then
	movl	$0, -24(%rbp)
	jmp	.LBB34_24
.LBB34_2:                               # %if.else
	vmovsd	-16(%rbp), %xmm0        # xmm0 = mem[0],zero
	vmovsd	%xmm0, -56(%rbp)        # 8-byte Spill
	movl	$51, %edi
	callq	QP2Qstep
	vmovsd	-56(%rbp), %xmm1        # 8-byte Reload
                                        # xmm1 = mem[0],zero
	vucomisd	%xmm0, %xmm1
	jbe	.LBB34_4
# %bb.3:                                # %if.then3
	movl	$51, -24(%rbp)
	jmp	.LBB34_24
.LBB34_4:                               # %if.end
	jmp	.LBB34_5
.LBB34_5:                               # %if.end4
	jmp	.LBB34_6
.LBB34_6:                               # %while.cond
                                        # =>This Inner Loop Header: Depth=1
	vmovsd	-16(%rbp), %xmm0        # xmm0 = mem[0],zero
	vmovsd	%xmm0, -48(%rbp)        # 8-byte Spill
	movl	$5, %edi
	callq	QP2Qstep
	vmovsd	-48(%rbp), %xmm1        # 8-byte Reload
                                        # xmm1 = mem[0],zero
	vucomisd	%xmm0, %xmm1
	jbe	.LBB34_8
# %bb.7:                                # %while.body
                                        #   in Loop: Header=BB34_6 Depth=1
	vmovsd	.LCPI34_11(%rip), %xmm0 # xmm0 = mem[0],zero
	vmovsd	-16(%rbp), %xmm1        # xmm1 = mem[0],zero
	vdivsd	%xmm0, %xmm1, %xmm0
	vmovsd	%xmm0, -16(%rbp)
	movl	-28(%rbp), %eax
	addl	$1, %eax
	movl	%eax, -28(%rbp)
	jmp	.LBB34_6
.LBB34_8:                               # %while.end
	vmovsd	.LCPI34_0(%rip), %xmm0  # xmm0 = mem[0],zero
	vucomisd	-16(%rbp), %xmm0
	jb	.LBB34_10
# %bb.9:                                # %if.then8
	vmovsd	.LCPI34_10(%rip), %xmm0 # xmm0 = mem[0],zero
	vmovsd	%xmm0, -16(%rbp)
	movl	$0, -20(%rbp)
	jmp	.LBB34_23
.LBB34_10:                              # %if.else9
	vmovsd	.LCPI34_1(%rip), %xmm0  # xmm0 = mem[0],zero
	vucomisd	-16(%rbp), %xmm0
	jb	.LBB34_12
# %bb.11:                               # %if.then11
	vmovsd	.LCPI34_9(%rip), %xmm0  # xmm0 = mem[0],zero
	vmovsd	%xmm0, -16(%rbp)
	movl	$1, -20(%rbp)
	jmp	.LBB34_22
.LBB34_12:                              # %if.else12
	vmovsd	.LCPI34_2(%rip), %xmm0  # xmm0 = mem[0],zero
	vucomisd	-16(%rbp), %xmm0
	jb	.LBB34_14
# %bb.13:                               # %if.then14
	vmovsd	.LCPI34_8(%rip), %xmm0  # xmm0 = mem[0],zero
	vmovsd	%xmm0, -16(%rbp)
	movl	$2, -20(%rbp)
	jmp	.LBB34_21
.LBB34_14:                              # %if.else15
	vmovsd	.LCPI34_3(%rip), %xmm0  # xmm0 = mem[0],zero
	vucomisd	-16(%rbp), %xmm0
	jb	.LBB34_16
# %bb.15:                               # %if.then17
	vmovsd	.LCPI34_7(%rip), %xmm0  # xmm0 = mem[0],zero
	vmovsd	%xmm0, -16(%rbp)
	movl	$3, -20(%rbp)
	jmp	.LBB34_20
.LBB34_16:                              # %if.else18
	vmovsd	.LCPI34_4(%rip), %xmm0  # xmm0 = mem[0],zero
	vucomisd	-16(%rbp), %xmm0
	jb	.LBB34_18
# %bb.17:                               # %if.then20
	vmovsd	.LCPI34_6(%rip), %xmm0  # xmm0 = mem[0],zero
	vmovsd	%xmm0, -16(%rbp)
	movl	$4, -20(%rbp)
	jmp	.LBB34_19
.LBB34_18:                              # %if.else21
	vmovsd	.LCPI34_5(%rip), %xmm0  # xmm0 = mem[0],zero
	vmovsd	%xmm0, -16(%rbp)
	movl	$5, -20(%rbp)
.LBB34_19:                              # %if.end22
	jmp	.LBB34_20
.LBB34_20:                              # %if.end23
	jmp	.LBB34_21
.LBB34_21:                              # %if.end24
	jmp	.LBB34_22
.LBB34_22:                              # %if.end25
	jmp	.LBB34_23
.LBB34_23:                              # %if.end26
	imull	$6, -28(%rbp), %eax
	addl	-20(%rbp), %eax
	movl	%eax, -24(%rbp)
.LBB34_24:                              # %return
	movl	-24(%rbp), %ebx
	cmpl	$589814049, -32(%rbp)   # imm = 0x2327D921
	jne	.LBB34_26
.LBB34_25:
	movl	%ebx, %eax
	addq	$56, %rsp
	popq	%rbx
	popq	%rbp
	.cfi_def_cfa %rsp, 8
	retq
.LBB34_26:                              # %func_exit
	.cfi_def_cfa %rbp, 16
	callq	detect_breach
	jmp	.LBB34_25
.Lfunc_end34:
	.size	Qstep2QP.18, .Lfunc_end34-Qstep2QP.18
	.cfi_endproc
                                        # -- End function
	.section	.rodata.cst8,"aM",@progbits,8
	.p2align	3               # -- Begin function updateRCModel.19
.LCPI35_0:
	.quad	4611686018427387904     # double 2
.LCPI35_1:
	.quad	4602678819172646912     # double 0.5
.LCPI35_2:
	.quad	4607182418800017408     # double 1
.LCPI35_3:
	.quad	4626322717216342016     # double 20
	.section	.rodata.cst16,"aM",@progbits,16
	.p2align	4
.LCPI35_4:
	.quad	9223372036854775807     # double NaN
	.quad	9223372036854775807     # double NaN
	.text
	.globl	updateRCModel.19
	.p2align	4, 0x90
	.type	updateRCModel.19,@function
updateRCModel.19:                       # @updateRCModel.19
	.cfi_startproc
# %bb.0:                                # %entry
	pushq	%rbp
	.cfi_def_cfa_offset 16
	.cfi_offset %rbp, -16
	movq	%rsp, %rbp
	.cfi_def_cfa_register %rbp
	subq	$208, %rsp
	movl	$130964522, -28(%rbp)   # imm = 0x7CE5C2A
	vxorps	%xmm0, %xmm0, %xmm0
	vmovsd	%xmm0, -24(%rbp)
	movl	$0, -16(%rbp)
	movq	img, %rax
	cmpl	$0, 24(%rax)
	jne	.LBB35_68
# %bb.1:                                # %if.then
	movq	img, %rax
	movl	72620(%rax), %eax
	movq	img, %rcx
	cmpl	72608(%rcx), %eax
	jne	.LBB35_3
# %bb.2:                                # %if.then2
	callq	ComputeFrameMAD
	vmovsd	%xmm0, CurrentFrameMAD
	movq	img, %rax
	movl	72564(%rax), %eax
	movl	%eax, -12(%rbp)
	jmp	.LBB35_21
.LBB35_3:                               # %if.else
	movq	input, %rax
	cmpl	$0, 2884(%rax)
	je	.LBB35_6
# %bb.4:                                # %land.lhs.true
	movq	img, %rax
	cmpl	$0, 72600(%rax)
	jne	.LBB35_6
# %bb.5:                                # %if.then4
	vmovsd	.LCPI35_0(%rip), %xmm0  # xmm0 = mem[0],zero
	movq	img, %rax
	vmovsd	72544(%rax), %xmm1      # xmm1 = mem[0],zero
	movq	img, %rax
	vcvtsi2sdl	72620(%rax), %xmm0, %xmm2
	vdivsd	%xmm2, %xmm1, %xmm1
	vdivsd	%xmm0, %xmm1, %xmm0
	vmovsd	%xmm0, CurrentFrameMAD
	jmp	.LBB35_7
.LBB35_6:                               # %if.else7
	movq	img, %rax
	vmovsd	72544(%rax), %xmm0      # xmm0 = mem[0],zero
	movq	img, %rax
	vcvtsi2sdl	72620(%rax), %xmm0, %xmm1
	vdivsd	%xmm1, %xmm0, %xmm0
	vmovsd	%xmm0, CurrentFrameMAD
.LBB35_7:                               # %if.end
	movq	img, %rax
	vxorps	%xmm0, %xmm0, %xmm0
	vmovsd	%xmm0, 72544(%rax)
	movl	TotalNumberofBasicUnit, %eax
	subl	NumberofBasicUnit, %eax
	movl	%eax, CodedBasicUnit
	cmpl	$0, CodedBasicUnit
	jle	.LBB35_12
# %bb.8:                                # %if.then15
	vmovsd	.LCPI35_1(%rip), %xmm0  # xmm0 = mem[0],zero
	vmovsd	.LCPI35_2(%rip), %xmm1  # xmm1 = mem[0],zero
	movl	PAveHeaderBits1, %eax
	movl	CodedBasicUnit, %ecx
	subl	$1, %ecx
	imull	%ecx, %eax
	movq	img, %rcx
	addl	72532(%rcx), %eax
	vcvtsi2sd	%eax, %xmm0, %xmm2
	vmulsd	%xmm2, %xmm1, %xmm1
	vcvtsi2sdl	CodedBasicUnit, %xmm0, %xmm2
	vdivsd	%xmm2, %xmm1, %xmm1
	vaddsd	%xmm0, %xmm1, %xmm0
	vcvttsd2si	%xmm0, %eax
	movl	%eax, PAveHeaderBits1
	cmpl	$0, PAveHeaderBits3
	jne	.LBB35_10
# %bb.9:                                # %if.then25
	movl	PAveHeaderBits1, %eax
	movl	%eax, PAveHeaderBits2
	jmp	.LBB35_11
.LBB35_10:                              # %if.else26
	vmovsd	.LCPI35_1(%rip), %xmm0  # xmm0 = mem[0],zero
	vmovsd	.LCPI35_2(%rip), %xmm1  # xmm1 = mem[0],zero
	movl	PAveHeaderBits1, %eax
	imull	CodedBasicUnit, %eax
	movl	PAveHeaderBits3, %ecx
	imull	NumberofBasicUnit, %ecx
	addl	%ecx, %eax
	vcvtsi2sd	%eax, %xmm0, %xmm2
	vmulsd	%xmm2, %xmm1, %xmm1
	vcvtsi2sdl	TotalNumberofBasicUnit, %xmm0, %xmm2
	vdivsd	%xmm2, %xmm1, %xmm1
	vaddsd	%xmm0, %xmm1, %xmm0
	vcvttsd2si	%xmm0, %eax
	movl	%eax, PAveHeaderBits2
.LBB35_11:                              # %if.end36
	jmp	.LBB35_12
.LBB35_12:                              # %if.end37
	movq	input, %rax
	cmpl	$2, 2880(%rax)
	je	.LBB35_14
# %bb.13:                               # %lor.lhs.false
	movq	input, %rax
	cmpl	$0, 2884(%rax)
	je	.LBB35_16
.LBB35_14:                              # %land.lhs.true42
	movq	img, %rax
	cmpl	$1, 72600(%rax)
	jne	.LBB35_16
# %bb.15:                               # %if.then46
	vmovsd	CurrentFrameMAD, %xmm0  # xmm0 = mem[0],zero
	movq	FCBUCFMAD, %rax
	movl	TotalNumberofBasicUnit, %ecx
	subl	$1, %ecx
	subl	NumberofBasicUnit, %ecx
	movslq	%ecx, %rcx
	vmovsd	%xmm0, (%rax,%rcx,8)
	jmp	.LBB35_17
.LBB35_16:                              # %if.else49
	vmovsd	CurrentFrameMAD, %xmm0  # xmm0 = mem[0],zero
	movq	BUCFMAD, %rax
	movl	TotalNumberofBasicUnit, %ecx
	subl	$1, %ecx
	subl	NumberofBasicUnit, %ecx
	movslq	%ecx, %rcx
	vmovsd	%xmm0, (%rax,%rcx,8)
.LBB35_17:                              # %if.end54
	cmpl	$0, NumberofBasicUnit
	je	.LBB35_19
# %bb.18:                               # %if.then57
	movq	img, %rax
	movl	72564(%rax), %eax
	imull	TotalNumberofBasicUnit, %eax
	addl	CodedBasicUnit, %eax
	movl	%eax, -12(%rbp)
	jmp	.LBB35_20
.LBB35_19:                              # %if.else61
	movq	img, %rax
	movl	72564(%rax), %eax
	subl	$1, %eax
	imull	TotalNumberofBasicUnit, %eax
	addl	CodedBasicUnit, %eax
	movl	%eax, -12(%rbp)
.LBB35_20:                              # %if.end66
	jmp	.LBB35_21
.LBB35_21:                              # %if.end67
	cmpl	$1, -12(%rbp)
	jle	.LBB35_23
# %bb.22:                               # %if.then70
	movl	$1, -16(%rbp)
.LBB35_23:                              # %if.end71
	movq	img, %rax
	movl	72524(%rax), %eax
	movl	%eax, PPreHeader
	movl	$19, -4(%rbp)
.LBB35_24:                              # %for.cond
                                        # =>This Inner Loop Header: Depth=1
	cmpl	$0, -4(%rbp)
	jle	.LBB35_27
# %bb.25:                               # %for.body
                                        #   in Loop: Header=BB35_24 Depth=1
	movl	-4(%rbp), %eax
	subl	$1, %eax
	cltq
	vmovsd	Pm_rgQp(,%rax,8), %xmm0 # xmm0 = mem[0],zero
	movslq	-4(%rbp), %rax
	vmovsd	%xmm0, Pm_rgQp(,%rax,8)
	movslq	-4(%rbp), %rax
	vmovsd	Pm_rgQp(,%rax,8), %xmm0 # xmm0 = mem[0],zero
	movslq	-4(%rbp), %rax
	vmovsd	%xmm0, m_rgQp(,%rax,8)
	movl	-4(%rbp), %eax
	subl	$1, %eax
	cltq
	vmovsd	Pm_rgRp(,%rax,8), %xmm0 # xmm0 = mem[0],zero
	movslq	-4(%rbp), %rax
	vmovsd	%xmm0, Pm_rgRp(,%rax,8)
	movslq	-4(%rbp), %rax
	vmovsd	Pm_rgRp(,%rax,8), %xmm0 # xmm0 = mem[0],zero
	movslq	-4(%rbp), %rax
	vmovsd	%xmm0, m_rgRp(,%rax,8)
# %bb.26:                               # %for.inc
                                        #   in Loop: Header=BB35_24 Depth=1
	movl	-4(%rbp), %eax
	addl	$-1, %eax
	movl	%eax, -4(%rbp)
	jmp	.LBB35_24
.LBB35_27:                              # %for.end
	movl	m_Qc, %edi
	callq	QP2Qstep
	vmovsd	%xmm0, Pm_rgQp
	movq	img, %rax
	movl	72620(%rax), %eax
	movq	img, %rcx
	cmpl	72608(%rcx), %eax
	jne	.LBB35_29
# %bb.28:                               # %if.then97
	vmovsd	.LCPI35_2(%rip), %xmm0  # xmm0 = mem[0],zero
	movq	img, %rax
	vcvtsi2sdl	72528(%rax), %xmm0, %xmm1
	vmulsd	%xmm0, %xmm1, %xmm0
	vdivsd	CurrentFrameMAD, %xmm0, %xmm0
	vmovsd	%xmm0, Pm_rgRp
	jmp	.LBB35_30
.LBB35_29:                              # %if.else101
	vmovsd	.LCPI35_2(%rip), %xmm0  # xmm0 = mem[0],zero
	movq	img, %rax
	vcvtsi2sdl	72536(%rax), %xmm0, %xmm1
	vmulsd	%xmm0, %xmm1, %xmm0
	vdivsd	CurrentFrameMAD, %xmm0, %xmm0
	vmovsd	%xmm0, Pm_rgRp
.LBB35_30:                              # %if.end105
	vmovsd	Pm_rgQp, %xmm0          # xmm0 = mem[0],zero
	vmovsd	%xmm0, m_rgQp
	vmovsd	Pm_rgRp, %xmm0          # xmm0 = mem[0],zero
	vmovsd	%xmm0, m_rgRp
	vmovsd	Pm_X1, %xmm0            # xmm0 = mem[0],zero
	vmovsd	%xmm0, m_X1
	vmovsd	Pm_X2, %xmm0            # xmm0 = mem[0],zero
	vmovsd	%xmm0, m_X2
	vmovsd	CurrentFrameMAD, %xmm0  # xmm0 = mem[0],zero
	vucomisd	PreviousFrameMAD, %xmm0
	jbe	.LBB35_32
# %bb.31:                               # %cond.true
	vmovsd	.LCPI35_3(%rip), %xmm0  # xmm0 = mem[0],zero
	vmovsd	PreviousFrameMAD, %xmm1 # xmm1 = mem[0],zero
	vdivsd	CurrentFrameMAD, %xmm1, %xmm1
	vmulsd	%xmm0, %xmm1, %xmm0
	vcvttsd2si	%xmm0, %eax
	jmp	.LBB35_33
.LBB35_32:                              # %cond.false
	vmovsd	.LCPI35_3(%rip), %xmm0  # xmm0 = mem[0],zero
	vmovsd	CurrentFrameMAD, %xmm1  # xmm1 = mem[0],zero
	vdivsd	PreviousFrameMAD, %xmm1, %xmm1
	vmulsd	%xmm0, %xmm1, %xmm0
	vcvttsd2si	%xmm0, %eax
.LBB35_33:                              # %cond.end
	movl	%eax, -8(%rbp)
	cmpl	$1, -8(%rbp)
	jge	.LBB35_35
# %bb.34:                               # %cond.true116
	movl	$1, %eax
	jmp	.LBB35_36
.LBB35_35:                              # %cond.false117
	movl	-8(%rbp), %eax
.LBB35_36:                              # %cond.end118
	movl	%eax, -8(%rbp)
	movl	-8(%rbp), %eax
	cmpl	-12(%rbp), %eax
	jge	.LBB35_38
# %bb.37:                               # %cond.true122
	movl	-8(%rbp), %eax
	jmp	.LBB35_39
.LBB35_38:                              # %cond.false123
	movl	-12(%rbp), %eax
.LBB35_39:                              # %cond.end124
	movl	%eax, -8(%rbp)
	movl	-8(%rbp), %eax
	movl	m_windowSize, %ecx
	addl	$1, %ecx
	cmpl	%ecx, %eax
	jge	.LBB35_41
# %bb.40:                               # %cond.true129
	movl	-8(%rbp), %eax
	jmp	.LBB35_42
.LBB35_41:                              # %cond.false130
	movl	m_windowSize, %eax
	addl	$1, %eax
.LBB35_42:                              # %cond.end132
	movl	%eax, -8(%rbp)
	cmpl	$20, -8(%rbp)
	jge	.LBB35_44
# %bb.43:                               # %cond.true136
	movl	-8(%rbp), %eax
	jmp	.LBB35_45
.LBB35_44:                              # %cond.false137
	movl	$20, %eax
	jmp	.LBB35_45
.LBB35_45:                              # %cond.end138
	movl	%eax, -8(%rbp)
	movl	-8(%rbp), %eax
	movl	%eax, m_windowSize
	movl	$0, -4(%rbp)
.LBB35_46:                              # %for.cond140
                                        # =>This Inner Loop Header: Depth=1
	cmpl	$20, -4(%rbp)
	jge	.LBB35_49
# %bb.47:                               # %for.body143
                                        #   in Loop: Header=BB35_46 Depth=1
	movslq	-4(%rbp), %rax
	movl	$0, m_rgRejected(,%rax,4)
# %bb.48:                               # %for.inc146
                                        #   in Loop: Header=BB35_46 Depth=1
	movl	-4(%rbp), %eax
	addl	$1, %eax
	movl	%eax, -4(%rbp)
	jmp	.LBB35_46
.LBB35_49:                              # %for.end147
	movl	-8(%rbp), %edi
	callq	RCModelEstimator
	movl	m_windowSize, %eax
	movl	%eax, -8(%rbp)
	movl	$0, -4(%rbp)
.LBB35_50:                              # %for.cond148
                                        # =>This Inner Loop Header: Depth=1
	movl	-4(%rbp), %eax
	cmpl	-8(%rbp), %eax
	jge	.LBB35_53
# %bb.51:                               # %for.body151
                                        #   in Loop: Header=BB35_50 Depth=1
	vmovsd	m_X1, %xmm0             # xmm0 = mem[0],zero
	movslq	-4(%rbp), %rax
	vdivsd	m_rgQp(,%rax,8), %xmm0, %xmm0
	vmovsd	m_X2, %xmm1             # xmm1 = mem[0],zero
	movslq	-4(%rbp), %rax
	vmovsd	m_rgQp(,%rax,8), %xmm2  # xmm2 = mem[0],zero
	movslq	-4(%rbp), %rax
	vmulsd	m_rgQp(,%rax,8), %xmm2, %xmm2
	vdivsd	%xmm2, %xmm1, %xmm1
	vaddsd	%xmm1, %xmm0, %xmm0
	movslq	-4(%rbp), %rax
	vsubsd	m_rgRp(,%rax,8), %xmm0, %xmm0
	movslq	-4(%rbp), %rax
	vmovsd	%xmm0, -208(%rbp,%rax,8)
	movslq	-4(%rbp), %rax
	vmovsd	-208(%rbp,%rax,8), %xmm0 # xmm0 = mem[0],zero
	movslq	-4(%rbp), %rax
	vmulsd	-208(%rbp,%rax,8), %xmm0, %xmm0
	vaddsd	-24(%rbp), %xmm0, %xmm0
	vmovsd	%xmm0, -24(%rbp)
# %bb.52:                               # %for.inc173
                                        #   in Loop: Header=BB35_50 Depth=1
	movl	-4(%rbp), %eax
	addl	$1, %eax
	movl	%eax, -4(%rbp)
	jmp	.LBB35_50
.LBB35_53:                              # %for.end175
	cmpl	$2, -8(%rbp)
	jne	.LBB35_55
# %bb.54:                               # %cond.true178
	vxorps	%xmm0, %xmm0, %xmm0
	jmp	.LBB35_56
.LBB35_55:                              # %cond.false179
	vmovsd	-24(%rbp), %xmm0        # xmm0 = mem[0],zero
	vcvtsi2sdl	-8(%rbp), %xmm0, %xmm1
	vdivsd	%xmm1, %xmm0, %xmm0
	callq	sqrt
.LBB35_56:                              # %cond.end183
	vmovsd	%xmm0, -40(%rbp)
	movl	$0, -4(%rbp)
.LBB35_57:                              # %for.cond185
                                        # =>This Inner Loop Header: Depth=1
	movl	-4(%rbp), %eax
	cmpl	-8(%rbp), %eax
	jge	.LBB35_62
# %bb.58:                               # %for.body188
                                        #   in Loop: Header=BB35_57 Depth=1
	movslq	-4(%rbp), %rax
	vmovsd	-208(%rbp,%rax,8), %xmm0 # xmm0 = mem[0],zero
	vmovdqa	.LCPI35_4(%rip), %xmm1  # xmm1 = [NaN,NaN]
	vpand	%xmm1, %xmm0, %xmm0
	vucomisd	-40(%rbp), %xmm0
	jbe	.LBB35_60
# %bb.59:                               # %if.then193
                                        #   in Loop: Header=BB35_57 Depth=1
	movslq	-4(%rbp), %rax
	movl	$1, m_rgRejected(,%rax,4)
.LBB35_60:                              # %if.end196
                                        #   in Loop: Header=BB35_57 Depth=1
	jmp	.LBB35_61
.LBB35_61:                              # %for.inc197
                                        #   in Loop: Header=BB35_57 Depth=1
	movl	-4(%rbp), %eax
	addl	$1, %eax
	movl	%eax, -4(%rbp)
	jmp	.LBB35_57
.LBB35_62:                              # %for.end199
	movl	$0, m_rgRejected
	movl	-8(%rbp), %edi
	callq	RCModelEstimator
	cmpl	$0, -16(%rbp)
	je	.LBB35_64
# %bb.63:                               # %if.then201
	callq	updateMADModel
	jmp	.LBB35_67
.LBB35_64:                              # %if.else202
	movq	img, %rax
	cmpl	$0, 24(%rax)
	jne	.LBB35_66
# %bb.65:                               # %if.then206
	vmovsd	CurrentFrameMAD, %xmm0  # xmm0 = mem[0],zero
	vmovsd	%xmm0, PPictureMAD
.LBB35_66:                              # %if.end207
	jmp	.LBB35_67
.LBB35_67:                              # %if.end208
	jmp	.LBB35_68
.LBB35_68:                              # %if.end209
	cmpl	$130964522, -28(%rbp)   # imm = 0x7CE5C2A
	jne	.LBB35_70
.LBB35_69:
	addq	$208, %rsp
	popq	%rbp
	.cfi_def_cfa %rsp, 8
	retq
.LBB35_70:                              # %func_exit
	.cfi_def_cfa %rbp, 16
	callq	detect_breach
	jmp	.LBB35_69
.Lfunc_end35:
	.size	updateRCModel.19, .Lfunc_end35-updateRCModel.19
	.cfi_endproc
                                        # -- End function
	.section	.rodata.cst8,"aM",@progbits,8
	.p2align	3               # -- Begin function Qstep2QP.20
.LCPI36_0:
	.quad	4604086194056200192     # double 0.65625
.LCPI36_1:
	.quad	4604930618986332160     # double 0.75
.LCPI36_2:
	.quad	4605775043916464128     # double 0.84375
.LCPI36_3:
	.quad	4606619468846596096     # double 0.9375
.LCPI36_4:
	.quad	4607463893776728064     # double 1.0625
.LCPI36_5:
	.quad	4607745368753438720     # double 1.125
.LCPI36_6:
	.quad	4607182418800017408     # double 1
.LCPI36_7:
	.quad	4606056518893174784     # double 0.875
.LCPI36_8:
	.quad	4605493568939753472     # double 0.8125
.LCPI36_9:
	.quad	4604367669032910848     # double 0.6875
.LCPI36_10:
	.quad	4603804719079489536     # double 0.625
.LCPI36_11:
	.quad	4611686018427387904     # double 2
	.text
	.globl	Qstep2QP.20
	.p2align	4, 0x90
	.type	Qstep2QP.20,@function
Qstep2QP.20:                            # @Qstep2QP.20
	.cfi_startproc
# %bb.0:                                # %entry
	pushq	%rbp
	.cfi_def_cfa_offset 16
	.cfi_offset %rbp, -16
	movq	%rsp, %rbp
	.cfi_def_cfa_register %rbp
	pushq	%rbx
	subq	$56, %rsp
	.cfi_offset %rbx, -24
	movl	$1244069189, -32(%rbp)  # imm = 0x4A26FD45
	vmovsd	%xmm0, -16(%rbp)
	movl	$0, -24(%rbp)
	movl	$0, -20(%rbp)
	vmovsd	-16(%rbp), %xmm0        # xmm0 = mem[0],zero
	vmovsd	%xmm0, -40(%rbp)        # 8-byte Spill
	xorl	%edi, %edi
	callq	QP2Qstep
	vucomisd	-40(%rbp), %xmm0 # 8-byte Folded Reload
	jbe	.LBB36_2
# %bb.1:                                # %if.then
	movl	$0, -28(%rbp)
	jmp	.LBB36_24
.LBB36_2:                               # %if.else
	vmovsd	-16(%rbp), %xmm0        # xmm0 = mem[0],zero
	vmovsd	%xmm0, -56(%rbp)        # 8-byte Spill
	movl	$51, %edi
	callq	QP2Qstep
	vmovsd	-56(%rbp), %xmm1        # 8-byte Reload
                                        # xmm1 = mem[0],zero
	vucomisd	%xmm0, %xmm1
	jbe	.LBB36_4
# %bb.3:                                # %if.then3
	movl	$51, -28(%rbp)
	jmp	.LBB36_24
.LBB36_4:                               # %if.end
	jmp	.LBB36_5
.LBB36_5:                               # %if.end4
	jmp	.LBB36_6
.LBB36_6:                               # %while.cond
                                        # =>This Inner Loop Header: Depth=1
	vmovsd	-16(%rbp), %xmm0        # xmm0 = mem[0],zero
	vmovsd	%xmm0, -48(%rbp)        # 8-byte Spill
	movl	$5, %edi
	callq	QP2Qstep
	vmovsd	-48(%rbp), %xmm1        # 8-byte Reload
                                        # xmm1 = mem[0],zero
	vucomisd	%xmm0, %xmm1
	jbe	.LBB36_8
# %bb.7:                                # %while.body
                                        #   in Loop: Header=BB36_6 Depth=1
	vmovsd	.LCPI36_11(%rip), %xmm0 # xmm0 = mem[0],zero
	vmovsd	-16(%rbp), %xmm1        # xmm1 = mem[0],zero
	vdivsd	%xmm0, %xmm1, %xmm0
	vmovsd	%xmm0, -16(%rbp)
	movl	-24(%rbp), %eax
	addl	$1, %eax
	movl	%eax, -24(%rbp)
	jmp	.LBB36_6
.LBB36_8:                               # %while.end
	vmovsd	.LCPI36_0(%rip), %xmm0  # xmm0 = mem[0],zero
	vucomisd	-16(%rbp), %xmm0
	jb	.LBB36_10
# %bb.9:                                # %if.then8
	vmovsd	.LCPI36_10(%rip), %xmm0 # xmm0 = mem[0],zero
	vmovsd	%xmm0, -16(%rbp)
	movl	$0, -20(%rbp)
	jmp	.LBB36_23
.LBB36_10:                              # %if.else9
	vmovsd	.LCPI36_1(%rip), %xmm0  # xmm0 = mem[0],zero
	vucomisd	-16(%rbp), %xmm0
	jb	.LBB36_12
# %bb.11:                               # %if.then11
	vmovsd	.LCPI36_9(%rip), %xmm0  # xmm0 = mem[0],zero
	vmovsd	%xmm0, -16(%rbp)
	movl	$1, -20(%rbp)
	jmp	.LBB36_22
.LBB36_12:                              # %if.else12
	vmovsd	.LCPI36_2(%rip), %xmm0  # xmm0 = mem[0],zero
	vucomisd	-16(%rbp), %xmm0
	jb	.LBB36_14
# %bb.13:                               # %if.then14
	vmovsd	.LCPI36_8(%rip), %xmm0  # xmm0 = mem[0],zero
	vmovsd	%xmm0, -16(%rbp)
	movl	$2, -20(%rbp)
	jmp	.LBB36_21
.LBB36_14:                              # %if.else15
	vmovsd	.LCPI36_3(%rip), %xmm0  # xmm0 = mem[0],zero
	vucomisd	-16(%rbp), %xmm0
	jb	.LBB36_16
# %bb.15:                               # %if.then17
	vmovsd	.LCPI36_7(%rip), %xmm0  # xmm0 = mem[0],zero
	vmovsd	%xmm0, -16(%rbp)
	movl	$3, -20(%rbp)
	jmp	.LBB36_20
.LBB36_16:                              # %if.else18
	vmovsd	.LCPI36_4(%rip), %xmm0  # xmm0 = mem[0],zero
	vucomisd	-16(%rbp), %xmm0
	jb	.LBB36_18
# %bb.17:                               # %if.then20
	vmovsd	.LCPI36_6(%rip), %xmm0  # xmm0 = mem[0],zero
	vmovsd	%xmm0, -16(%rbp)
	movl	$4, -20(%rbp)
	jmp	.LBB36_19
.LBB36_18:                              # %if.else21
	vmovsd	.LCPI36_5(%rip), %xmm0  # xmm0 = mem[0],zero
	vmovsd	%xmm0, -16(%rbp)
	movl	$5, -20(%rbp)
.LBB36_19:                              # %if.end22
	jmp	.LBB36_20
.LBB36_20:                              # %if.end23
	jmp	.LBB36_21
.LBB36_21:                              # %if.end24
	jmp	.LBB36_22
.LBB36_22:                              # %if.end25
	jmp	.LBB36_23
.LBB36_23:                              # %if.end26
	imull	$6, -24(%rbp), %eax
	addl	-20(%rbp), %eax
	movl	%eax, -28(%rbp)
.LBB36_24:                              # %return
	movl	-28(%rbp), %ebx
	cmpl	$1244069189, -32(%rbp)  # imm = 0x4A26FD45
	jne	.LBB36_26
.LBB36_25:
	movl	%ebx, %eax
	addq	$56, %rsp
	popq	%rbx
	popq	%rbp
	.cfi_def_cfa %rsp, 8
	retq
.LBB36_26:                              # %func_exit
	.cfi_def_cfa %rbp, 16
	callq	detect_breach
	jmp	.LBB36_25
.Lfunc_end36:
	.size	Qstep2QP.20, .Lfunc_end36-Qstep2QP.20
	.cfi_endproc
                                        # -- End function
	.section	.rodata.cst8,"aM",@progbits,8
	.p2align	3               # -- Begin function RCModelEstimator.21
.LCPI37_0:
	.quad	4517329193108106637     # double 9.9999999999999995E-7
.LCPI37_2:
	.quad	4607182418800017408     # double 1
	.section	.rodata.cst16,"aM",@progbits,16
	.p2align	4
.LCPI37_1:
	.quad	9223372036854775807     # double NaN
	.quad	9223372036854775807     # double NaN
	.text
	.globl	RCModelEstimator.21
	.p2align	4, 0x90
	.type	RCModelEstimator.21,@function
RCModelEstimator.21:                    # @RCModelEstimator.21
	.cfi_startproc
# %bb.0:                                # %entry
	pushq	%rbp
	.cfi_def_cfa_offset 16
	.cfi_offset %rbp, -16
	movq	%rsp, %rbp
	.cfi_def_cfa_register %rbp
	subq	$96, %rsp
	movl	$93647354, -84(%rbp)    # imm = 0x594F1FA
	movl	%edi, -8(%rbp)
	movl	-8(%rbp), %eax
	movl	%eax, -12(%rbp)
	vxorps	%xmm0, %xmm0, %xmm0
	vmovsd	%xmm0, -24(%rbp)
	vmovsd	%xmm0, -40(%rbp)
	vmovsd	%xmm0, -80(%rbp)
	vmovsd	%xmm0, -64(%rbp)
	vmovsd	%xmm0, -32(%rbp)
	vmovsd	%xmm0, -56(%rbp)
	movl	$0, -44(%rbp)
	movl	$0, -4(%rbp)
.LBB37_1:                               # %for.cond
                                        # =>This Inner Loop Header: Depth=1
	movl	-4(%rbp), %eax
	cmpl	-8(%rbp), %eax
	jge	.LBB37_6
# %bb.2:                                # %for.body
                                        #   in Loop: Header=BB37_1 Depth=1
	movslq	-4(%rbp), %rax
	cmpl	$0, m_rgRejected(,%rax,4)
	je	.LBB37_4
# %bb.3:                                # %if.then
                                        #   in Loop: Header=BB37_1 Depth=1
	movl	-12(%rbp), %eax
	addl	$-1, %eax
	movl	%eax, -12(%rbp)
.LBB37_4:                               # %if.end
                                        #   in Loop: Header=BB37_1 Depth=1
	jmp	.LBB37_5
.LBB37_5:                               # %for.inc
                                        #   in Loop: Header=BB37_1 Depth=1
	movl	-4(%rbp), %eax
	addl	$1, %eax
	movl	%eax, -4(%rbp)
	jmp	.LBB37_1
.LBB37_6:                               # %for.end
	vxorps	%xmm0, %xmm0, %xmm0
	vmovsd	%xmm0, m_X2
	vmovsd	%xmm0, m_X1
	movl	$0, -4(%rbp)
.LBB37_7:                               # %for.cond1
                                        # =>This Inner Loop Header: Depth=1
	movl	-4(%rbp), %eax
	cmpl	-8(%rbp), %eax
	jge	.LBB37_12
# %bb.8:                                # %for.body3
                                        #   in Loop: Header=BB37_7 Depth=1
	movslq	-4(%rbp), %rax
	cmpl	$0, m_rgRejected(,%rax,4)
	jne	.LBB37_10
# %bb.9:                                # %if.then7
                                        #   in Loop: Header=BB37_7 Depth=1
	movslq	-4(%rbp), %rax
	vmovsd	m_rgQp(,%rax,8), %xmm0  # xmm0 = mem[0],zero
	vmovsd	%xmm0, -96(%rbp)
.LBB37_10:                              # %if.end10
                                        #   in Loop: Header=BB37_7 Depth=1
	jmp	.LBB37_11
.LBB37_11:                              # %for.inc11
                                        #   in Loop: Header=BB37_7 Depth=1
	movl	-4(%rbp), %eax
	addl	$1, %eax
	movl	%eax, -4(%rbp)
	jmp	.LBB37_7
.LBB37_12:                              # %for.end13
	movl	$0, -4(%rbp)
.LBB37_13:                              # %for.cond14
                                        # =>This Inner Loop Header: Depth=1
	movl	-4(%rbp), %eax
	cmpl	-8(%rbp), %eax
	jge	.LBB37_21
# %bb.14:                               # %for.body16
                                        #   in Loop: Header=BB37_13 Depth=1
	movslq	-4(%rbp), %rax
	vmovsd	m_rgQp(,%rax,8), %xmm0  # xmm0 = mem[0],zero
	vucomisd	-96(%rbp), %xmm0
	jne	.LBB37_15
	jp	.LBB37_15
	jmp	.LBB37_17
.LBB37_15:                              # %land.lhs.true
                                        #   in Loop: Header=BB37_13 Depth=1
	movslq	-4(%rbp), %rax
	cmpl	$0, m_rgRejected(,%rax,4)
	jne	.LBB37_17
# %bb.16:                               # %if.then23
                                        #   in Loop: Header=BB37_13 Depth=1
	movl	$1, -44(%rbp)
.LBB37_17:                              # %if.end24
                                        #   in Loop: Header=BB37_13 Depth=1
	movslq	-4(%rbp), %rax
	cmpl	$0, m_rgRejected(,%rax,4)
	jne	.LBB37_19
# %bb.18:                               # %if.then28
                                        #   in Loop: Header=BB37_13 Depth=1
	movslq	-4(%rbp), %rax
	vmovsd	m_rgQp(,%rax,8), %xmm0  # xmm0 = mem[0],zero
	movslq	-4(%rbp), %rax
	vmulsd	m_rgRp(,%rax,8), %xmm0, %xmm0
	vcvtsi2sdl	-12(%rbp), %xmm0, %xmm1
	vdivsd	%xmm1, %xmm0, %xmm0
	vaddsd	m_X1, %xmm0, %xmm0
	vmovsd	%xmm0, m_X1
.LBB37_19:                              # %if.end33
                                        #   in Loop: Header=BB37_13 Depth=1
	jmp	.LBB37_20
.LBB37_20:                              # %for.inc34
                                        #   in Loop: Header=BB37_13 Depth=1
	movl	-4(%rbp), %eax
	addl	$1, %eax
	movl	%eax, -4(%rbp)
	jmp	.LBB37_13
.LBB37_21:                              # %for.end36
	cmpl	$1, -12(%rbp)
	jl	.LBB37_33
# %bb.22:                               # %land.lhs.true39
	cmpl	$0, -44(%rbp)
	je	.LBB37_33
# %bb.23:                               # %if.then41
	movl	$0, -4(%rbp)
.LBB37_24:                              # %for.cond42
                                        # =>This Inner Loop Header: Depth=1
	movl	-4(%rbp), %eax
	cmpl	-8(%rbp), %eax
	jge	.LBB37_29
# %bb.25:                               # %for.body45
                                        #   in Loop: Header=BB37_24 Depth=1
	movslq	-4(%rbp), %rax
	cmpl	$0, m_rgRejected(,%rax,4)
	jne	.LBB37_27
# %bb.26:                               # %if.then49
                                        #   in Loop: Header=BB37_24 Depth=1
	vmovsd	.LCPI37_2(%rip), %xmm0  # xmm0 = mem[0],zero
	vaddsd	-24(%rbp), %xmm0, %xmm1
	vmovsd	%xmm1, -24(%rbp)
	movslq	-4(%rbp), %rax
	vdivsd	m_rgQp(,%rax,8), %xmm0, %xmm1
	vaddsd	-40(%rbp), %xmm1, %xmm1
	vmovsd	%xmm1, -40(%rbp)
	vmovsd	-40(%rbp), %xmm1        # xmm1 = mem[0],zero
	vmovsd	%xmm1, -80(%rbp)
	movslq	-4(%rbp), %rax
	vmovsd	m_rgQp(,%rax,8), %xmm1  # xmm1 = mem[0],zero
	movslq	-4(%rbp), %rax
	vmulsd	m_rgQp(,%rax,8), %xmm1, %xmm1
	vdivsd	%xmm1, %xmm0, %xmm0
	vaddsd	-64(%rbp), %xmm0, %xmm0
	vmovsd	%xmm0, -64(%rbp)
	movslq	-4(%rbp), %rax
	vmovsd	m_rgQp(,%rax,8), %xmm0  # xmm0 = mem[0],zero
	movslq	-4(%rbp), %rax
	vmulsd	m_rgRp(,%rax,8), %xmm0, %xmm0
	vaddsd	-32(%rbp), %xmm0, %xmm0
	vmovsd	%xmm0, -32(%rbp)
	movslq	-4(%rbp), %rax
	vmovsd	m_rgRp(,%rax,8), %xmm0  # xmm0 = mem[0],zero
	vaddsd	-56(%rbp), %xmm0, %xmm0
	vmovsd	%xmm0, -56(%rbp)
.LBB37_27:                              # %if.end71
                                        #   in Loop: Header=BB37_24 Depth=1
	jmp	.LBB37_28
.LBB37_28:                              # %for.inc72
                                        #   in Loop: Header=BB37_24 Depth=1
	movl	-4(%rbp), %eax
	addl	$1, %eax
	movl	%eax, -4(%rbp)
	jmp	.LBB37_24
.LBB37_29:                              # %for.end74
	vmovsd	.LCPI37_0(%rip), %xmm0  # xmm0 = mem[0],zero
	vmovsd	-24(%rbp), %xmm1        # xmm1 = mem[0],zero
	vmulsd	-64(%rbp), %xmm1, %xmm1
	vmovsd	-40(%rbp), %xmm2        # xmm2 = mem[0],zero
	vmulsd	-80(%rbp), %xmm2, %xmm2
	vsubsd	%xmm2, %xmm1, %xmm1
	vmovsd	%xmm1, -72(%rbp)
	vmovsd	-72(%rbp), %xmm1        # xmm1 = mem[0],zero
	vmovdqa	.LCPI37_1(%rip), %xmm2  # xmm2 = [NaN,NaN]
	vpand	%xmm2, %xmm1, %xmm1
	vucomisd	%xmm0, %xmm1
	jbe	.LBB37_31
# %bb.30:                               # %if.then79
	vmovsd	-32(%rbp), %xmm0        # xmm0 = mem[0],zero
	vmulsd	-64(%rbp), %xmm0, %xmm0
	vmovsd	-56(%rbp), %xmm1        # xmm1 = mem[0],zero
	vmulsd	-40(%rbp), %xmm1, %xmm1
	vsubsd	%xmm1, %xmm0, %xmm0
	vdivsd	-72(%rbp), %xmm0, %xmm0
	vmovsd	%xmm0, m_X1
	vmovsd	-56(%rbp), %xmm0        # xmm0 = mem[0],zero
	vmulsd	-24(%rbp), %xmm0, %xmm0
	vmovsd	-32(%rbp), %xmm1        # xmm1 = mem[0],zero
	vmulsd	-80(%rbp), %xmm1, %xmm1
	vsubsd	%xmm1, %xmm0, %xmm0
	vdivsd	-72(%rbp), %xmm0, %xmm0
	vmovsd	%xmm0, m_X2
	jmp	.LBB37_32
.LBB37_31:                              # %if.else
	vmovsd	-32(%rbp), %xmm0        # xmm0 = mem[0],zero
	vdivsd	-24(%rbp), %xmm0, %xmm0
	vmovsd	%xmm0, m_X1
	vxorps	%xmm0, %xmm0, %xmm0
	vmovsd	%xmm0, m_X2
.LBB37_32:                              # %if.end89
	jmp	.LBB37_33
.LBB37_33:                              # %if.end90
	movq	img, %rax
	cmpl	$0, 24(%rax)
	jne	.LBB37_35
# %bb.34:                               # %if.then93
	vmovsd	m_X1, %xmm0             # xmm0 = mem[0],zero
	vmovsd	%xmm0, Pm_X1
	vmovsd	m_X2, %xmm0             # xmm0 = mem[0],zero
	vmovsd	%xmm0, Pm_X2
.LBB37_35:                              # %if.end94
	cmpl	$93647354, -84(%rbp)    # imm = 0x594F1FA
	jne	.LBB37_37
.LBB37_36:
	addq	$96, %rsp
	popq	%rbp
	.cfi_def_cfa %rsp, 8
	retq
.LBB37_37:                              # %func_exit
	.cfi_def_cfa %rbp, 16
	callq	detect_breach
	jmp	.LBB37_36
.Lfunc_end37:
	.size	RCModelEstimator.21, .Lfunc_end37-RCModelEstimator.21
	.cfi_endproc
                                        # -- End function
	.section	.rodata.cst8,"aM",@progbits,8
	.p2align	3               # -- Begin function rc_init_pict.22
.LCPI38_0:
	.quad	4609434218613702656     # double 1.5
.LCPI38_1:
	.quad	4602678819172646912     # double 0.5
.LCPI38_2:
	.quad	4620693217682128896     # double 8
.LCPI38_3:
	.quad	4619567317775286272     # double 7
.LCPI38_4:
	.quad	4607182418800017408     # double 1
.LCPI38_5:
	.quad	4603579539098121011     # double 0.59999999999999998
	.text
	.globl	rc_init_pict.22
	.p2align	4, 0x90
	.type	rc_init_pict.22,@function
rc_init_pict.22:                        # @rc_init_pict.22
	.cfi_startproc
# %bb.0:                                # %entry
	pushq	%rbp
	.cfi_def_cfa_offset 16
	.cfi_offset %rbp, -16
	movq	%rsp, %rbp
	.cfi_def_cfa_register %rbp
	subq	$32, %rsp
	movl	$1527676986, -20(%rbp)  # imm = 0x5B0E803A
	movl	%edi, -12(%rbp)
	movl	%esi, -8(%rbp)
	movl	%edx, -16(%rbp)
	movq	input, %rax
	cmpl	$0, 2884(%rax)
	je	.LBB38_2
# %bb.1:                                # %if.then
	movq	img, %rax
	movl	72608(%rax), %eax
	movq	img, %rcx
	cltd
	idivl	72620(%rcx)
	movl	%eax, TotalNumberofBasicUnit
.LBB38_2:                               # %if.end
	movq	img, %rax
	movl	$0, 72616(%rax)
	movq	input, %rax
	cmpl	$1, 3252(%rax)
	jne	.LBB38_9
# %bb.3:                                # %if.then1
	movq	img, %rax
	cmpl	$58, 72564(%rax)
	jne	.LBB38_5
# %bb.4:                                # %if.then3
	vmovsd	.LCPI38_0(%rip), %xmm0  # xmm0 = mem[0],zero
	vmulsd	bit_rate, %xmm0, %xmm0
	vmovsd	%xmm0, bit_rate
	jmp	.LBB38_8
.LBB38_5:                               # %if.else
	movq	img, %rax
	cmpl	$59, 72564(%rax)
	jne	.LBB38_7
# %bb.6:                                # %if.then6
	vmovsd	bit_rate, %xmm0         # xmm0 = mem[0],zero
	vmovsd	%xmm0, PreviousBit_Rate
.LBB38_7:                               # %if.end7
	jmp	.LBB38_8
.LBB38_8:                               # %if.end8
	jmp	.LBB38_9
.LBB38_9:                               # %if.end9
	cmpl	$0, -12(%rbp)
	jne	.LBB38_11
# %bb.10:                               # %lor.lhs.false
	cmpl	$0, -8(%rbp)
	je	.LBB38_111
.LBB38_11:                              # %land.lhs.true
	cmpl	$0, -16(%rbp)
	je	.LBB38_111
# %bb.12:                               # %if.then13
	movq	img(%rip), %rax
	movl	24(%rax), %eax
	testl	%eax, %eax
	je	.LBB38_14
	jmp	.LBB38_13
.LBB38_13:                              # %if.then13
	subl	$1, %eax
	je	.LBB38_65
	jmp	.LBB38_77
.LBB38_14:                              # %sw.bb
	vmovsd	PreviousBit_Rate, %xmm0 # xmm0 = mem[0],zero
	vucomisd	bit_rate, %xmm0
	jne	.LBB38_15
	jp	.LBB38_15
	jmp	.LBB38_16
.LBB38_15:                              # %if.then15
	vmovsd	.LCPI38_1(%rip), %xmm0  # xmm0 = mem[0],zero
	vmovsd	bit_rate, %xmm1         # xmm1 = mem[0],zero
	vsubsd	PreviousBit_Rate, %xmm1, %xmm1
	movl	Np, %eax
	addl	Nb, %eax
	vcvtsi2sd	%eax, %xmm0, %xmm2
	vmulsd	%xmm2, %xmm1, %xmm1
	vdivsd	frame_rate, %xmm1, %xmm1
	vaddsd	%xmm0, %xmm1, %xmm0
	vroundsd	$9, %xmm0, %xmm0, %xmm0
	vcvttsd2si	%xmm0, %eax
	addl	R, %eax
	movl	%eax, R
.LBB38_16:                              # %if.end21
	movq	img, %rax
	movl	72620(%rax), %eax
	movq	img, %rcx
	cmpl	72608(%rcx), %eax
	jne	.LBB38_23
# %bb.17:                               # %if.then26
	movq	img, %rax
	cmpl	$1, 72576(%rax)
	jne	.LBB38_19
# %bb.18:                               # %if.then29
	vmovsd	CurrentBufferFullness, %xmm0 # xmm0 = mem[0],zero
	vmovsd	%xmm0, TargetBufferLevel
	vmovsd	CurrentBufferFullness, %xmm0 # xmm0 = mem[0],zero
	vsubsd	GOPTargetBufferLevel, %xmm0, %xmm0
	movl	TotalPFrame, %eax
	subl	$1, %eax
	vcvtsi2sd	%eax, %xmm0, %xmm1
	vdivsd	%xmm1, %xmm0, %xmm0
	vmovsd	%xmm0, DeltaP
	vmovsd	DeltaP, %xmm0           # xmm0 = mem[0],zero
	vmovsd	TargetBufferLevel, %xmm1 # xmm1 = mem[0],zero
	vsubsd	%xmm0, %xmm1, %xmm0
	vmovsd	%xmm0, TargetBufferLevel
	jmp	.LBB38_22
.LBB38_19:                              # %if.else35
	movq	img, %rax
	cmpl	$1, 72576(%rax)
	jle	.LBB38_21
# %bb.20:                               # %if.then39
	vmovsd	DeltaP, %xmm0           # xmm0 = mem[0],zero
	vmovsd	TargetBufferLevel, %xmm1 # xmm1 = mem[0],zero
	vsubsd	%xmm0, %xmm1, %xmm0
	vmovsd	%xmm0, TargetBufferLevel
.LBB38_21:                              # %if.end41
	jmp	.LBB38_22
.LBB38_22:                              # %if.end42
	jmp	.LBB38_54
.LBB38_23:                              # %if.else43
	movq	img, %rax
	cmpl	$0, 72564(%rax)
	jle	.LBB38_38
# %bb.24:                               # %if.then47
	movq	input, %rax
	cmpl	$2, 2880(%rax)
	je	.LBB38_26
# %bb.25:                               # %lor.lhs.false50
	movq	input, %rax
	cmpl	$0, 2884(%rax)
	je	.LBB38_32
.LBB38_26:                              # %land.lhs.true53
	movq	img, %rax
	cmpl	$1, 72600(%rax)
	jne	.LBB38_32
# %bb.27:                               # %if.then56
	movl	$0, -4(%rbp)
.LBB38_28:                              # %for.cond
                                        # =>This Inner Loop Header: Depth=1
	movl	-4(%rbp), %eax
	cmpl	TotalNumberofBasicUnit, %eax
	jge	.LBB38_31
# %bb.29:                               # %for.body
                                        #   in Loop: Header=BB38_28 Depth=1
	movq	FCBUCFMAD, %rax
	movslq	-4(%rbp), %rcx
	vmovsd	(%rax,%rcx,8), %xmm0    # xmm0 = mem[0],zero
	movq	FCBUPFMAD, %rax
	movslq	-4(%rbp), %rcx
	vmovsd	%xmm0, (%rax,%rcx,8)
# %bb.30:                               # %for.inc
                                        #   in Loop: Header=BB38_28 Depth=1
	movl	-4(%rbp), %eax
	addl	$1, %eax
	movl	%eax, -4(%rbp)
	jmp	.LBB38_28
.LBB38_31:                              # %for.end
	jmp	.LBB38_37
.LBB38_32:                              # %if.else61
	movl	$0, -4(%rbp)
.LBB38_33:                              # %for.cond62
                                        # =>This Inner Loop Header: Depth=1
	movl	-4(%rbp), %eax
	cmpl	TotalNumberofBasicUnit, %eax
	jge	.LBB38_36
# %bb.34:                               # %for.body65
                                        #   in Loop: Header=BB38_33 Depth=1
	movq	BUCFMAD, %rax
	movslq	-4(%rbp), %rcx
	vmovsd	(%rax,%rcx,8), %xmm0    # xmm0 = mem[0],zero
	movq	BUPFMAD, %rax
	movslq	-4(%rbp), %rcx
	vmovsd	%xmm0, (%rax,%rcx,8)
# %bb.35:                               # %for.inc70
                                        #   in Loop: Header=BB38_33 Depth=1
	movl	-4(%rbp), %eax
	addl	$1, %eax
	movl	%eax, -4(%rbp)
	jmp	.LBB38_33
.LBB38_36:                              # %for.end72
	jmp	.LBB38_37
.LBB38_37:                              # %if.end73
	jmp	.LBB38_38
.LBB38_38:                              # %if.end74
	movq	img, %rax
	cmpl	$1, 72568(%rax)
	jne	.LBB38_45
# %bb.39:                               # %if.then77
	movq	img, %rax
	cmpl	$1, 72576(%rax)
	jne	.LBB38_41
# %bb.40:                               # %if.then81
	vmovsd	CurrentBufferFullness, %xmm0 # xmm0 = mem[0],zero
	vmovsd	%xmm0, TargetBufferLevel
	vmovsd	CurrentBufferFullness, %xmm0 # xmm0 = mem[0],zero
	vsubsd	GOPTargetBufferLevel, %xmm0, %xmm0
	movl	TotalPFrame, %eax
	subl	$1, %eax
	vcvtsi2sd	%eax, %xmm0, %xmm1
	vdivsd	%xmm1, %xmm0, %xmm0
	vmovsd	%xmm0, DeltaP
	vmovsd	DeltaP, %xmm0           # xmm0 = mem[0],zero
	vmovsd	TargetBufferLevel, %xmm1 # xmm1 = mem[0],zero
	vsubsd	%xmm0, %xmm1, %xmm0
	vmovsd	%xmm0, TargetBufferLevel
	jmp	.LBB38_44
.LBB38_41:                              # %if.else87
	movq	img, %rax
	cmpl	$1, 72576(%rax)
	jle	.LBB38_43
# %bb.42:                               # %if.then91
	vmovsd	DeltaP, %xmm0           # xmm0 = mem[0],zero
	vmovsd	TargetBufferLevel, %xmm1 # xmm1 = mem[0],zero
	vsubsd	%xmm0, %xmm1, %xmm0
	vmovsd	%xmm0, TargetBufferLevel
.LBB38_43:                              # %if.end93
	jmp	.LBB38_44
.LBB38_44:                              # %if.end94
	jmp	.LBB38_53
.LBB38_45:                              # %if.else95
	movq	img, %rax
	cmpl	$1, 72568(%rax)
	jle	.LBB38_52
# %bb.46:                               # %if.then99
	movq	img, %rax
	cmpl	$0, 72576(%rax)
	jne	.LBB38_48
# %bb.47:                               # %if.then103
	vmovsd	CurrentBufferFullness, %xmm0 # xmm0 = mem[0],zero
	vmovsd	%xmm0, TargetBufferLevel
	vmovsd	CurrentBufferFullness, %xmm0 # xmm0 = mem[0],zero
	vsubsd	GOPTargetBufferLevel, %xmm0, %xmm0
	vcvtsi2sdl	TotalPFrame, %xmm0, %xmm1
	vdivsd	%xmm1, %xmm0, %xmm0
	vmovsd	%xmm0, DeltaP
	vmovsd	DeltaP, %xmm0           # xmm0 = mem[0],zero
	vmovsd	TargetBufferLevel, %xmm1 # xmm1 = mem[0],zero
	vsubsd	%xmm0, %xmm1, %xmm0
	vmovsd	%xmm0, TargetBufferLevel
	jmp	.LBB38_51
.LBB38_48:                              # %if.else108
	movq	img, %rax
	cmpl	$0, 72576(%rax)
	jle	.LBB38_50
# %bb.49:                               # %if.then112
	vmovsd	DeltaP, %xmm0           # xmm0 = mem[0],zero
	vmovsd	TargetBufferLevel, %xmm1 # xmm1 = mem[0],zero
	vsubsd	%xmm0, %xmm1, %xmm0
	vmovsd	%xmm0, TargetBufferLevel
.LBB38_50:                              # %if.end114
	jmp	.LBB38_51
.LBB38_51:                              # %if.end115
	jmp	.LBB38_52
.LBB38_52:                              # %if.end116
	jmp	.LBB38_53
.LBB38_53:                              # %if.end117
	jmp	.LBB38_54
.LBB38_54:                              # %if.end118
	movq	img, %rax
	cmpl	$1, 72564(%rax)
	jne	.LBB38_56
# %bb.55:                               # %if.then122
	vmovsd	Wp, %xmm0               # xmm0 = mem[0],zero
	vmovsd	%xmm0, AWp
.LBB38_56:                              # %if.end123
	movq	img, %rax
	cmpl	$8, 72564(%rax)
	jge	.LBB38_59
# %bb.57:                               # %land.lhs.true127
	movq	img, %rax
	cmpl	$1, 72564(%rax)
	jle	.LBB38_59
# %bb.58:                               # %if.then131
	vmovsd	Wp, %xmm0               # xmm0 = mem[0],zero
	movq	img, %rax
	movl	72564(%rax), %eax
	subl	$1, %eax
	vcvtsi2sd	%eax, %xmm0, %xmm1
	vmulsd	%xmm1, %xmm0, %xmm0
	movq	img, %rax
	vcvtsi2sdl	72564(%rax), %xmm0, %xmm1
	vdivsd	%xmm1, %xmm0, %xmm0
	vmovsd	AWp, %xmm1              # xmm1 = mem[0],zero
	movq	img, %rax
	vcvtsi2sdl	72564(%rax), %xmm0, %xmm2
	vdivsd	%xmm2, %xmm1, %xmm1
	vaddsd	%xmm1, %xmm0, %xmm0
	vmovsd	%xmm0, AWp
	jmp	.LBB38_62
.LBB38_59:                              # %if.else143
	movq	img, %rax
	cmpl	$1, 72564(%rax)
	jle	.LBB38_61
# %bb.60:                               # %if.then147
	vmovsd	.LCPI38_2(%rip), %xmm0  # xmm0 = mem[0],zero
	vmovsd	.LCPI38_3(%rip), %xmm1  # xmm1 = mem[0],zero
	vmovsd	Wp, %xmm2               # xmm2 = mem[0],zero
	vdivsd	%xmm0, %xmm2, %xmm2
	vmulsd	AWp, %xmm1, %xmm1
	vdivsd	%xmm0, %xmm1, %xmm0
	vaddsd	%xmm0, %xmm2, %xmm0
	vmovsd	%xmm0, AWp
.LBB38_61:                              # %if.end152
	jmp	.LBB38_62
.LBB38_62:                              # %if.end153
	movq	input, %rax
	cmpl	$0, 1236(%rax)
	jle	.LBB38_64
# %bb.63:                               # %if.then156
	vmovsd	AWp, %xmm0              # xmm0 = mem[0],zero
	movq	input, %rax
	movl	1236(%rax), %eax
	addl	$1, %eax
	vcvtsi2sd	%eax, %xmm0, %xmm1
	vmulsd	%xmm1, %xmm0, %xmm0
	vmulsd	bit_rate, %xmm0, %xmm0
	vmovsd	frame_rate, %xmm1       # xmm1 = mem[0],zero
	vmovsd	AWp, %xmm2              # xmm2 = mem[0],zero
	vmovsd	AWb, %xmm3              # xmm3 = mem[0],zero
	movq	input, %rax
	vcvtsi2sdl	1236(%rax), %xmm0, %xmm4
	vmulsd	%xmm4, %xmm3, %xmm3
	vaddsd	%xmm3, %xmm2, %xmm2
	vmulsd	%xmm2, %xmm1, %xmm1
	vdivsd	%xmm1, %xmm0, %xmm0
	vmovsd	bit_rate, %xmm1         # xmm1 = mem[0],zero
	vdivsd	frame_rate, %xmm1, %xmm1
	vsubsd	%xmm1, %xmm0, %xmm0
	vaddsd	TargetBufferLevel, %xmm0, %xmm0
	vmovsd	%xmm0, TargetBufferLevel
.LBB38_64:                              # %if.end171
	jmp	.LBB38_77
.LBB38_65:                              # %sw.bb172
	vmovsd	PreviousBit_Rate, %xmm0 # xmm0 = mem[0],zero
	vucomisd	bit_rate, %xmm0
	jne	.LBB38_66
	jp	.LBB38_66
	jmp	.LBB38_67
.LBB38_66:                              # %if.then175
	vmovsd	.LCPI38_1(%rip), %xmm0  # xmm0 = mem[0],zero
	vmovsd	bit_rate, %xmm1         # xmm1 = mem[0],zero
	vsubsd	PreviousBit_Rate, %xmm1, %xmm1
	movl	Np, %eax
	addl	Nb, %eax
	vcvtsi2sd	%eax, %xmm0, %xmm2
	vmulsd	%xmm2, %xmm1, %xmm1
	vdivsd	frame_rate, %xmm1, %xmm1
	vaddsd	%xmm0, %xmm1, %xmm0
	vroundsd	$9, %xmm0, %xmm0, %xmm0
	vcvttsd2si	%xmm0, %eax
	addl	R, %eax
	movl	%eax, R
.LBB38_67:                              # %if.end184
	movq	img, %rax
	cmpl	$1, 72564(%rax)
	jne	.LBB38_70
# %bb.68:                               # %land.lhs.true188
	movq	img, %rax
	cmpl	$1, 72560(%rax)
	jne	.LBB38_70
# %bb.69:                               # %if.then191
	vmovsd	Wp, %xmm0               # xmm0 = mem[0],zero
	vmovsd	%xmm0, AWp
	vmovsd	Wb, %xmm0               # xmm0 = mem[0],zero
	vmovsd	%xmm0, AWb
	jmp	.LBB38_76
.LBB38_70:                              # %if.else192
	movq	img, %rax
	cmpl	$1, 72560(%rax)
	jle	.LBB38_75
# %bb.71:                               # %if.then196
	movq	img, %rax
	cmpl	$8, 72560(%rax)
	jge	.LBB38_73
# %bb.72:                               # %if.then200
	vmovsd	Wb, %xmm0               # xmm0 = mem[0],zero
	movq	img, %rax
	movl	72560(%rax), %eax
	subl	$1, %eax
	vcvtsi2sd	%eax, %xmm0, %xmm1
	vmulsd	%xmm1, %xmm0, %xmm0
	movq	img, %rax
	vcvtsi2sdl	72560(%rax), %xmm0, %xmm1
	vdivsd	%xmm1, %xmm0, %xmm0
	vmovsd	AWb, %xmm1              # xmm1 = mem[0],zero
	movq	img, %rax
	vcvtsi2sdl	72560(%rax), %xmm0, %xmm2
	vdivsd	%xmm2, %xmm1, %xmm1
	vaddsd	%xmm1, %xmm0, %xmm0
	vmovsd	%xmm0, AWb
	jmp	.LBB38_74
.LBB38_73:                              # %if.else212
	vmovsd	.LCPI38_2(%rip), %xmm0  # xmm0 = mem[0],zero
	vmovsd	.LCPI38_3(%rip), %xmm1  # xmm1 = mem[0],zero
	vmovsd	Wb, %xmm2               # xmm2 = mem[0],zero
	vdivsd	%xmm0, %xmm2, %xmm2
	vmulsd	AWb, %xmm1, %xmm1
	vdivsd	%xmm0, %xmm1, %xmm0
	vaddsd	%xmm0, %xmm2, %xmm0
	vmovsd	%xmm0, AWb
.LBB38_74:                              # %if.end217
	jmp	.LBB38_75
.LBB38_75:                              # %if.end218
	jmp	.LBB38_76
.LBB38_76:                              # %if.end219
	jmp	.LBB38_77
.LBB38_77:                              # %sw.epilog
	movq	img, %rax
	cmpl	$0, 24(%rax)
	jne	.LBB38_110
# %bb.78:                               # %if.then223
	movq	img, %rax
	movl	72620(%rax), %eax
	movq	img, %rcx
	cmpl	72608(%rcx), %eax
	jne	.LBB38_85
# %bb.79:                               # %if.then228
	movq	img, %rax
	cmpl	$0, 72564(%rax)
	jle	.LBB38_84
# %bb.80:                               # %if.then232
	xorl	%eax, %eax
	vmovsd	.LCPI38_1(%rip), %xmm0  # xmm0 = mem[0],zero
	vmovsd	Wp, %xmm1               # xmm1 = mem[0],zero
	vcvtsi2sdl	R, %xmm0, %xmm2
	vmulsd	%xmm2, %xmm1, %xmm1
	vcvtsi2sdl	Np, %xmm0, %xmm2
	vmulsd	Wp, %xmm2, %xmm2
	vcvtsi2sdl	Nb, %xmm0, %xmm3
	vmulsd	Wb, %xmm3, %xmm3
	vaddsd	%xmm3, %xmm2, %xmm2
	vdivsd	%xmm2, %xmm1, %xmm1
	vaddsd	%xmm0, %xmm1, %xmm1
	vroundsd	$9, %xmm1, %xmm0, %xmm1
	vcvttsd2si	%xmm1, %rcx
	movq	%rcx, T
	vmovsd	bit_rate, %xmm1         # xmm1 = mem[0],zero
	vdivsd	frame_rate, %xmm1, %xmm1
	vmovsd	GAMMAP, %xmm2           # xmm2 = mem[0],zero
	vmovsd	CurrentBufferFullness, %xmm3 # xmm3 = mem[0],zero
	vsubsd	TargetBufferLevel, %xmm3, %xmm3
	vmulsd	%xmm3, %xmm2, %xmm2
	vsubsd	%xmm2, %xmm1, %xmm1
	vaddsd	%xmm0, %xmm1, %xmm0
	vroundsd	$9, %xmm0, %xmm0, %xmm0
	vcvttsd2si	%xmm0, %rcx
	movq	%rcx, T1
	cmpq	T1, %rax
	jge	.LBB38_82
# %bb.81:                               # %cond.true
	movq	T1, %rax
	jmp	.LBB38_83
.LBB38_82:                              # %cond.false
	xorl	%eax, %eax
	jmp	.LBB38_83
.LBB38_83:                              # %cond.end
	vmovsd	.LCPI38_1(%rip), %xmm0  # xmm0 = mem[0],zero
	vmovsd	.LCPI38_4(%rip), %xmm1  # xmm1 = mem[0],zero
	movq	%rax, T1
	vmovsd	BETAP, %xmm2            # xmm2 = mem[0],zero
	vcvtsi2sdq	T, %xmm0, %xmm3
	vmulsd	%xmm3, %xmm2, %xmm2
	vsubsd	BETAP, %xmm1, %xmm1
	vcvtsi2sdq	T1, %xmm0, %xmm3
	vmulsd	%xmm3, %xmm1, %xmm1
	vaddsd	%xmm1, %xmm2, %xmm1
	vaddsd	%xmm0, %xmm1, %xmm0
	vroundsd	$9, %xmm0, %xmm0, %xmm0
	vcvttsd2si	%xmm0, %rax
	movq	%rax, T
.LBB38_84:                              # %if.end259
	jmp	.LBB38_98
.LBB38_85:                              # %if.else260
	movq	img, %rax
	cmpl	$1, 72568(%rax)
	jne	.LBB38_91
# %bb.86:                               # %land.lhs.true264
	movq	img, %rax
	cmpl	$0, 72564(%rax)
	jle	.LBB38_91
# %bb.87:                               # %if.then268
	xorl	%eax, %eax
	vmovsd	.LCPI38_1(%rip), %xmm0  # xmm0 = mem[0],zero
	vmovsd	Wp, %xmm1               # xmm1 = mem[0],zero
	vcvtsi2sdl	R, %xmm0, %xmm2
	vmulsd	%xmm2, %xmm1, %xmm1
	vcvtsi2sdl	Np, %xmm0, %xmm2
	vmulsd	Wp, %xmm2, %xmm2
	vcvtsi2sdl	Nb, %xmm0, %xmm3
	vmulsd	Wb, %xmm3, %xmm3
	vaddsd	%xmm3, %xmm2, %xmm2
	vdivsd	%xmm2, %xmm1, %xmm1
	vaddsd	%xmm0, %xmm1, %xmm1
	vroundsd	$9, %xmm1, %xmm0, %xmm1
	vcvttsd2si	%xmm1, %ecx
	movslq	%ecx, %rcx
	movq	%rcx, T
	vmovsd	bit_rate, %xmm1         # xmm1 = mem[0],zero
	vdivsd	frame_rate, %xmm1, %xmm1
	vmovsd	GAMMAP, %xmm2           # xmm2 = mem[0],zero
	vmovsd	CurrentBufferFullness, %xmm3 # xmm3 = mem[0],zero
	vsubsd	TargetBufferLevel, %xmm3, %xmm3
	vmulsd	%xmm3, %xmm2, %xmm2
	vsubsd	%xmm2, %xmm1, %xmm1
	vaddsd	%xmm0, %xmm1, %xmm0
	vroundsd	$9, %xmm0, %xmm0, %xmm0
	vcvttsd2si	%xmm0, %ecx
	movslq	%ecx, %rcx
	movq	%rcx, T1
	cmpq	T1, %rax
	jge	.LBB38_89
# %bb.88:                               # %cond.true289
	movq	T1, %rax
	jmp	.LBB38_90
.LBB38_89:                              # %cond.false290
	xorl	%eax, %eax
	jmp	.LBB38_90
.LBB38_90:                              # %cond.end291
	vmovsd	.LCPI38_1(%rip), %xmm0  # xmm0 = mem[0],zero
	vmovsd	.LCPI38_4(%rip), %xmm1  # xmm1 = mem[0],zero
	movq	%rax, T1
	vmovsd	BETAP, %xmm2            # xmm2 = mem[0],zero
	vcvtsi2sdq	T, %xmm0, %xmm3
	vmulsd	%xmm3, %xmm2, %xmm2
	vsubsd	BETAP, %xmm1, %xmm1
	vcvtsi2sdq	T1, %xmm0, %xmm3
	vmulsd	%xmm3, %xmm1, %xmm1
	vaddsd	%xmm1, %xmm2, %xmm1
	vaddsd	%xmm0, %xmm1, %xmm0
	vroundsd	$9, %xmm0, %xmm0, %xmm0
	vcvttsd2si	%xmm0, %eax
	cltq
	movq	%rax, T
	jmp	.LBB38_97
.LBB38_91:                              # %if.else302
	movq	img, %rax
	cmpl	$1, 72568(%rax)
	jle	.LBB38_96
# %bb.92:                               # %if.then306
	xorl	%eax, %eax
	vmovsd	.LCPI38_1(%rip), %xmm0  # xmm0 = mem[0],zero
	vmovsd	Wp, %xmm1               # xmm1 = mem[0],zero
	vcvtsi2sdl	R, %xmm0, %xmm2
	vmulsd	%xmm2, %xmm1, %xmm1
	vcvtsi2sdl	Np, %xmm0, %xmm2
	vmulsd	Wp, %xmm2, %xmm2
	vcvtsi2sdl	Nb, %xmm0, %xmm3
	vmulsd	Wb, %xmm3, %xmm3
	vaddsd	%xmm3, %xmm2, %xmm2
	vdivsd	%xmm2, %xmm1, %xmm1
	vaddsd	%xmm0, %xmm1, %xmm1
	vroundsd	$9, %xmm1, %xmm0, %xmm1
	vcvttsd2si	%xmm1, %rcx
	movq	%rcx, T
	vmovsd	bit_rate, %xmm1         # xmm1 = mem[0],zero
	vdivsd	frame_rate, %xmm1, %xmm1
	vmovsd	GAMMAP, %xmm2           # xmm2 = mem[0],zero
	vmovsd	CurrentBufferFullness, %xmm3 # xmm3 = mem[0],zero
	vsubsd	TargetBufferLevel, %xmm3, %xmm3
	vmulsd	%xmm3, %xmm2, %xmm2
	vsubsd	%xmm2, %xmm1, %xmm1
	vaddsd	%xmm0, %xmm1, %xmm0
	vroundsd	$9, %xmm0, %xmm0, %xmm0
	vcvttsd2si	%xmm0, %rcx
	movq	%rcx, T1
	cmpq	T1, %rax
	jge	.LBB38_94
# %bb.93:                               # %cond.true325
	movq	T1, %rax
	jmp	.LBB38_95
.LBB38_94:                              # %cond.false326
	xorl	%eax, %eax
	jmp	.LBB38_95
.LBB38_95:                              # %cond.end327
	vmovsd	.LCPI38_1(%rip), %xmm0  # xmm0 = mem[0],zero
	vmovsd	.LCPI38_4(%rip), %xmm1  # xmm1 = mem[0],zero
	movq	%rax, T1
