	.text
	.file	"ratectl.c"
	.globl	rc_alloc                # -- Begin function rc_alloc
	.p2align	4, 0x90
	.type	rc_alloc,@function
rc_alloc:                               # @rc_alloc
	.cfi_startproc
# %bb.0:                                # %entry
	pushq	%rbp
	.cfi_def_cfa_offset 16
	.cfi_offset %rbp, -16
	movq	%rsp, %rbp
	.cfi_def_cfa_register %rbp
	movq	img, %rax
	movl	72488(%rax), %edi
	movl	$8, %esi
	callq	calloc
	xorl	%ecx, %ecx
	movq	img, %rdx
	movq	%rax, 72584(%rdx)
	movq	img, %rax
	cmpq	72584(%rax), %rcx
	jne	.LBB0_2
# %bb.1:                                # %if.then
	movabsq	$.L.str, %rdi
	callq	no_mem_exit
.LBB0_2:                                # %if.end
	movq	img, %rax
	movl	72488(%rax), %eax
	movq	input, %rcx
	xorl	%edx, %edx
	divl	3248(%rcx)
	movl	%eax, %edi
	movl	$8, %esi
	callq	calloc
	xorl	%ecx, %ecx
	movq	%rax, BUPFMAD
	cmpq	BUPFMAD, %rcx
	jne	.LBB0_4
# %bb.3:                                # %if.then8
	movabsq	$.L.str.1, %rdi
	callq	no_mem_exit
.LBB0_4:                                # %if.end9
	movq	img, %rax
	movl	72488(%rax), %eax
	movq	input, %rcx
	xorl	%edx, %edx
	divl	3248(%rcx)
	movl	%eax, %edi
	movl	$8, %esi
	callq	calloc
	xorl	%ecx, %ecx
	movq	%rax, BUCFMAD
	cmpq	BUCFMAD, %rcx
	jne	.LBB0_6
# %bb.5:                                # %if.then17
	movabsq	$.L.str.2, %rdi
	callq	no_mem_exit
.LBB0_6:                                # %if.end18
	movq	img, %rax
	movl	72488(%rax), %eax
	movq	input, %rcx
	xorl	%edx, %edx
	divl	3248(%rcx)
	movl	%eax, %edi
	movl	$8, %esi
	callq	calloc
	xorl	%ecx, %ecx
	movq	%rax, FCBUCFMAD
	cmpq	FCBUCFMAD, %rcx
	jne	.LBB0_8
# %bb.7:                                # %if.then26
	movabsq	$.L.str.3, %rdi
	callq	no_mem_exit
.LBB0_8:                                # %if.end27
	movq	img, %rax
	movl	72488(%rax), %eax
	movq	input, %rcx
	xorl	%edx, %edx
	divl	3248(%rcx)
	movl	%eax, %edi
	movl	$8, %esi
	callq	calloc
	xorl	%ecx, %ecx
	movq	%rax, FCBUPFMAD
	cmpq	FCBUPFMAD, %rcx
	jne	.LBB0_10
# %bb.9:                                # %if.then35
	movabsq	$.L.str.4, %rdi
	callq	no_mem_exit
.LBB0_10:                               # %if.end36
	popq	%rbp
	.cfi_def_cfa %rsp, 8
	retq
.Lfunc_end0:
	.size	rc_alloc, .Lfunc_end0-rc_alloc
	.cfi_endproc
                                        # -- End function
	.globl	rc_free                 # -- Begin function rc_free
	.p2align	4, 0x90
	.type	rc_free,@function
rc_free:                                # @rc_free
	.cfi_startproc
# %bb.0:                                # %entry
	pushq	%rbp
	.cfi_def_cfa_offset 16
	.cfi_offset %rbp, -16
	movq	%rsp, %rbp
	.cfi_def_cfa_register %rbp
	xorl	%eax, %eax
	movq	img, %rcx
	cmpq	72584(%rcx), %rax
	je	.LBB1_2
# %bb.1:                                # %if.then
	movq	img, %rax
	movq	72584(%rax), %rdi
	callq	free
	movq	img, %rax
	movq	$0, 72584(%rax)
.LBB1_2:                                # %if.end
	xorl	%eax, %eax
	cmpq	BUPFMAD, %rax
	je	.LBB1_4
# %bb.3:                                # %if.then4
	movq	BUPFMAD, %rdi
	callq	free
	movq	$0, BUPFMAD
.LBB1_4:                                # %if.end5
	xorl	%eax, %eax
	cmpq	BUCFMAD, %rax
	je	.LBB1_6
# %bb.5:                                # %if.then7
	movq	BUCFMAD, %rdi
	callq	free
	movq	$0, BUCFMAD
.LBB1_6:                                # %if.end8
	xorl	%eax, %eax
	cmpq	FCBUCFMAD, %rax
	je	.LBB1_8
# %bb.7:                                # %if.then10
	movq	FCBUCFMAD, %rdi
	callq	free
	movq	$0, FCBUCFMAD
.LBB1_8:                                # %if.end11
	xorl	%eax, %eax
	cmpq	FCBUPFMAD, %rax
	je	.LBB1_10
# %bb.9:                                # %if.then13
	movq	FCBUPFMAD, %rdi
	callq	free
	movq	$0, FCBUPFMAD
.LBB1_10:                               # %if.end14
	popq	%rbp
	.cfi_def_cfa %rsp, 8
	retq
.Lfunc_end1:
	.size	rc_free, .Lfunc_end1-rc_free
	.cfi_endproc
                                        # -- End function
	.globl	rc_init_seq             # -- Begin function rc_init_seq
	.p2align	4, 0x90
	.type	rc_init_seq,@function
rc_init_seq:                            # @rc_init_seq
	.cfi_startproc
# %bb.0:                                # %rand_bb
	pushq	%rbp
	.cfi_def_cfa_offset 16
	.cfi_offset %rbp, -16
	movq	%rsp, %rbp
	.cfi_def_cfa_register %rbp
	callq	get_rand
	cmpl	$0, %eax
	jne	.LBB2_5
# %bb.1:                                # %func_rc_init_seq.16
	callq	rc_init_seq.16
	popq	%rbp
	.cfi_def_cfa %rsp, 8
	retq
.LBB2_2:                                # %func_rc_init_seq.19
	.cfi_def_cfa %rbp, 16
	callq	rc_init_seq.19
	popq	%rbp
	.cfi_def_cfa %rsp, 8
	retq
.LBB2_3:                                # %func_rc_init_seq.28
	.cfi_def_cfa %rbp, 16
	callq	rc_init_seq.28
	popq	%rbp
	.cfi_def_cfa %rsp, 8
	retq
.LBB2_4:                                # %func_rc_init_seq.31
	.cfi_def_cfa %rbp, 16
	callq	rc_init_seq.31
	popq	%rbp
	.cfi_def_cfa %rsp, 8
	retq
.LBB2_5:                                # %ctrl0
	.cfi_def_cfa %rbp, 16
	cmpl	$1, %eax
	je	.LBB2_2
# %bb.6:                                # %ctrl1
	cmpl	$2, %eax
	je	.LBB2_3
	jmp	.LBB2_4
.Lfunc_end2:
	.size	rc_init_seq, .Lfunc_end2-rc_init_seq
	.cfi_endproc
                                        # -- End function
	.globl	rc_init_GOP             # -- Begin function rc_init_GOP
	.p2align	4, 0x90
	.type	rc_init_GOP,@function
rc_init_GOP:                            # @rc_init_GOP
	.cfi_startproc
# %bb.0:                                # %rand_bb
	pushq	%rbp
	.cfi_def_cfa_offset 16
	.cfi_offset %rbp, -16
	movq	%rsp, %rbp
	.cfi_def_cfa_register %rbp
	pushq	%r14
	pushq	%rbx
	.cfi_offset %rbx, -32
	.cfi_offset %r14, -24
	movl	%esi, %r14d
	movl	%edi, %ebx
	callq	get_rand
	cmpl	$0, %eax
	jne	.LBB3_5
# %bb.1:                                # %func_rc_init_GOP.6
	movl	%ebx, %edi
	movl	%r14d, %esi
	callq	rc_init_GOP.6
	popq	%rbx
	popq	%r14
	popq	%rbp
	.cfi_def_cfa %rsp, 8
	retq
.LBB3_2:                                # %func_rc_init_GOP.8
	.cfi_def_cfa %rbp, 16
	movl	%ebx, %edi
	movl	%r14d, %esi
	callq	rc_init_GOP.8
	popq	%rbx
	popq	%r14
	popq	%rbp
	.cfi_def_cfa %rsp, 8
	retq
.LBB3_3:                                # %func_rc_init_GOP.21
	.cfi_def_cfa %rbp, 16
	movl	%ebx, %edi
	movl	%r14d, %esi
	callq	rc_init_GOP.21
	popq	%rbx
	popq	%r14
	popq	%rbp
	.cfi_def_cfa %rsp, 8
	retq
.LBB3_4:                                # %func_rc_init_GOP.37
	.cfi_def_cfa %rbp, 16
	movl	%ebx, %edi
	movl	%r14d, %esi
	callq	rc_init_GOP.37
	popq	%rbx
	popq	%r14
	popq	%rbp
	.cfi_def_cfa %rsp, 8
	retq
.LBB3_5:                                # %ctrl0
	.cfi_def_cfa %rbp, 16
	cmpl	$1, %eax
	je	.LBB3_2
# %bb.6:                                # %ctrl1
	cmpl	$2, %eax
	je	.LBB3_3
	jmp	.LBB3_4
.Lfunc_end3:
	.size	rc_init_GOP, .Lfunc_end3-rc_init_GOP
	.cfi_endproc
                                        # -- End function
	.globl	rc_init_pict            # -- Begin function rc_init_pict
	.p2align	4, 0x90
	.type	rc_init_pict,@function
rc_init_pict:                           # @rc_init_pict
	.cfi_startproc
# %bb.0:                                # %rand_bb
	pushq	%rbp
	.cfi_def_cfa_offset 16
	.cfi_offset %rbp, -16
	movq	%rsp, %rbp
	.cfi_def_cfa_register %rbp
	pushq	%r15
	pushq	%r14
	pushq	%rbx
	pushq	%rax
	.cfi_offset %rbx, -40
	.cfi_offset %r14, -32
	.cfi_offset %r15, -24
	movl	%edx, %r14d
	movl	%esi, %r15d
	movl	%edi, %ebx
	callq	get_rand
	cmpl	$0, %eax
	jne	.LBB4_5
# %bb.1:                                # %func_rc_init_pict.13
	movl	%ebx, %edi
	movl	%r15d, %esi
	movl	%r14d, %edx
	callq	rc_init_pict.13
	addq	$8, %rsp
	popq	%rbx
	popq	%r14
	popq	%r15
	popq	%rbp
	.cfi_def_cfa %rsp, 8
	retq
.LBB4_2:                                # %func_rc_init_pict.44
	.cfi_def_cfa %rbp, 16
	movl	%ebx, %edi
	movl	%r15d, %esi
	movl	%r14d, %edx
	callq	rc_init_pict.44
	addq	$8, %rsp
	popq	%rbx
	popq	%r14
	popq	%r15
	popq	%rbp
	.cfi_def_cfa %rsp, 8
	retq
.LBB4_3:                                # %func_rc_init_pict.49
	.cfi_def_cfa %rbp, 16
	movl	%ebx, %edi
	movl	%r15d, %esi
	movl	%r14d, %edx
	callq	rc_init_pict.49
	addq	$8, %rsp
	popq	%rbx
	popq	%r14
	popq	%r15
	popq	%rbp
	.cfi_def_cfa %rsp, 8
	retq
.LBB4_4:                                # %func_rc_init_pict.50
	.cfi_def_cfa %rbp, 16
	movl	%ebx, %edi
	movl	%r15d, %esi
	movl	%r14d, %edx
	callq	rc_init_pict.50
	addq	$8, %rsp
	popq	%rbx
	popq	%r14
	popq	%r15
	popq	%rbp
	.cfi_def_cfa %rsp, 8
	retq
.LBB4_5:                                # %ctrl0
	.cfi_def_cfa %rbp, 16
	cmpl	$1, %eax
	je	.LBB4_2
# %bb.6:                                # %ctrl1
	cmpl	$2, %eax
	je	.LBB4_3
	jmp	.LBB4_4
.Lfunc_end4:
	.size	rc_init_pict, .Lfunc_end4-rc_init_pict
	.cfi_endproc
                                        # -- End function
	.globl	calc_MAD                # -- Begin function calc_MAD
	.p2align	4, 0x90
	.type	calc_MAD,@function
calc_MAD:                               # @calc_MAD
	.cfi_startproc
# %bb.0:                                # %rand_bb
	pushq	%rbp
	.cfi_def_cfa_offset 16
	.cfi_offset %rbp, -16
	movq	%rsp, %rbp
	.cfi_def_cfa_register %rbp
	callq	get_rand
	cmpl	$0, %eax
	jne	.LBB5_5
# %bb.1:                                # %func_calc_MAD.1
	callq	calc_MAD.1
	popq	%rbp
	.cfi_def_cfa %rsp, 8
	retq
.LBB5_2:                                # %func_calc_MAD.14
	.cfi_def_cfa %rbp, 16
	callq	calc_MAD.14
	popq	%rbp
	.cfi_def_cfa %rsp, 8
	retq
.LBB5_3:                                # %func_calc_MAD.18
	.cfi_def_cfa %rbp, 16
	callq	calc_MAD.18
	popq	%rbp
	.cfi_def_cfa %rsp, 8
	retq
.LBB5_4:                                # %func_calc_MAD.23
	.cfi_def_cfa %rbp, 16
	callq	calc_MAD.23
	popq	%rbp
	.cfi_def_cfa %rsp, 8
	retq
.LBB5_5:                                # %ctrl0
	.cfi_def_cfa %rbp, 16
	cmpl	$1, %eax
	je	.LBB5_2
# %bb.6:                                # %ctrl1
	cmpl	$2, %eax
	je	.LBB5_3
	jmp	.LBB5_4
.Lfunc_end5:
	.size	calc_MAD, .Lfunc_end5-calc_MAD
	.cfi_endproc
                                        # -- End function
	.section	.rodata.cst8,"aM",@progbits,8
	.p2align	3               # -- Begin function rc_update_pict
.LCPI6_0:
	.quad	4606281698874543309     # double 0.90000000000000002
	.text
	.globl	rc_update_pict
	.p2align	4, 0x90
	.type	rc_update_pict,@function
rc_update_pict:                         # @rc_update_pict
	.cfi_startproc
# %bb.0:                                # %entry
	pushq	%rbp
	.cfi_def_cfa_offset 16
	.cfi_offset %rbp, -16
	movq	%rsp, %rbp
	.cfi_def_cfa_register %rbp
	vmovsd	.LCPI6_0(%rip), %xmm0   # xmm0 = mem[0],zero
	movl	%edi, -4(%rbp)
	movl	-4(%rbp), %eax
	movl	R, %ecx
	subl	%eax, %ecx
	movl	%ecx, R
	vcvtsi2sdl	-4(%rbp), %xmm0, %xmm1
	vmovsd	bit_rate, %xmm2         # xmm2 = mem[0],zero
	vdivsd	frame_rate, %xmm2, %xmm2
	vsubsd	%xmm2, %xmm1, %xmm1
	vaddsd	CurrentBufferFullness, %xmm1, %xmm1
	vmovsd	%xmm1, CurrentBufferFullness
	vmovsd	bit_rate, %xmm1         # xmm1 = mem[0],zero
	vdivsd	frame_rate, %xmm1, %xmm1
	vcvtsi2sdl	-4(%rbp), %xmm0, %xmm2
	vsubsd	%xmm2, %xmm1, %xmm1
	vcvttsd2si	%xmm1, %rax
	addq	LowerBound, %rax
	movq	%rax, LowerBound
	vmovsd	bit_rate, %xmm1         # xmm1 = mem[0],zero
	vdivsd	frame_rate, %xmm1, %xmm1
	vcvtsi2sdl	-4(%rbp), %xmm0, %xmm2
	vsubsd	%xmm2, %xmm1, %xmm1
	vcvttsd2si	%xmm1, %rax
	addq	UpperBound1, %rax
	movq	%rax, UpperBound1
	vcvtsi2sdq	UpperBound1, %xmm0, %xmm1
	vmulsd	%xmm1, %xmm0, %xmm0
	vcvttsd2si	%xmm0, %rax
	movq	%rax, UpperBound2
	popq	%rbp
	.cfi_def_cfa %rsp, 8
	retq
.Lfunc_end6:
	.size	rc_update_pict, .Lfunc_end6-rc_update_pict
	.cfi_endproc
                                        # -- End function
	.globl	rc_update_pict_frame    # -- Begin function rc_update_pict_frame
	.p2align	4, 0x90
	.type	rc_update_pict_frame,@function
rc_update_pict_frame:                   # @rc_update_pict_frame
	.cfi_startproc
# %bb.0:                                # %rand_bb
	pushq	%rbp
	.cfi_def_cfa_offset 16
	.cfi_offset %rbp, -16
	movq	%rsp, %rbp
	.cfi_def_cfa_register %rbp
	pushq	%rbx
	pushq	%rax
	.cfi_offset %rbx, -24
	movl	%edi, %ebx
	callq	get_rand
	cmpl	$0, %eax
	jne	.LBB7_5
# %bb.1:                                # %func_rc_update_pict_frame.5
	movl	%ebx, %edi
	callq	rc_update_pict_frame.5
	addq	$8, %rsp
	popq	%rbx
	popq	%rbp
	.cfi_def_cfa %rsp, 8
	retq
.LBB7_2:                                # %func_rc_update_pict_frame.29
	.cfi_def_cfa %rbp, 16
	movl	%ebx, %edi
	callq	rc_update_pict_frame.29
	addq	$8, %rsp
	popq	%rbx
	popq	%rbp
	.cfi_def_cfa %rsp, 8
	retq
.LBB7_3:                                # %func_rc_update_pict_frame.39
	.cfi_def_cfa %rbp, 16
	movl	%ebx, %edi
	callq	rc_update_pict_frame.39
	addq	$8, %rsp
	popq	%rbx
	popq	%rbp
	.cfi_def_cfa %rsp, 8
	retq
.LBB7_4:                                # %func_rc_update_pict_frame.45
	.cfi_def_cfa %rbp, 16
	movl	%ebx, %edi
	callq	rc_update_pict_frame.45
	addq	$8, %rsp
	popq	%rbx
	popq	%rbp
	.cfi_def_cfa %rsp, 8
	retq
.LBB7_5:                                # %ctrl0
	.cfi_def_cfa %rbp, 16
	cmpl	$1, %eax
	je	.LBB7_2
# %bb.6:                                # %ctrl1
	cmpl	$2, %eax
	je	.LBB7_3
	jmp	.LBB7_4
.Lfunc_end7:
	.size	rc_update_pict_frame, .Lfunc_end7-rc_update_pict_frame
	.cfi_endproc
                                        # -- End function
	.globl	setbitscount            # -- Begin function setbitscount
	.p2align	4, 0x90
	.type	setbitscount,@function
setbitscount:                           # @setbitscount
	.cfi_startproc
# %bb.0:                                # %entry
	pushq	%rbp
	.cfi_def_cfa_offset 16
	.cfi_offset %rbp, -16
	movq	%rsp, %rbp
	.cfi_def_cfa_register %rbp
	movl	%edi, -4(%rbp)
	movl	-4(%rbp), %eax
	movl	%eax, bits_topfield
	popq	%rbp
	.cfi_def_cfa %rsp, 8
	retq
.Lfunc_end8:
	.size	setbitscount, .Lfunc_end8-setbitscount
	.cfi_endproc
                                        # -- End function
	.globl	updateQuantizationParameter # -- Begin function updateQuantizationParameter
	.p2align	4, 0x90
	.type	updateQuantizationParameter,@function
updateQuantizationParameter:            # @updateQuantizationParameter
	.cfi_startproc
# %bb.0:                                # %rand_bb
	pushq	%rbp
	.cfi_def_cfa_offset 16
	.cfi_offset %rbp, -16
	movq	%rsp, %rbp
	.cfi_def_cfa_register %rbp
	pushq	%rbx
	pushq	%rax
	.cfi_offset %rbx, -24
	movl	%edi, %ebx
	callq	get_rand
	cmpl	$0, %eax
	jne	.LBB9_5
# %bb.1:                                # %func_updateQuantizationParameter.32
	movl	%ebx, %edi
	callq	updateQuantizationParameter.32
	addq	$8, %rsp
	popq	%rbx
	popq	%rbp
	.cfi_def_cfa %rsp, 8
	retq
.LBB9_2:                                # %func_updateQuantizationParameter.35
	.cfi_def_cfa %rbp, 16
	movl	%ebx, %edi
	callq	updateQuantizationParameter.35
	addq	$8, %rsp
	popq	%rbx
	popq	%rbp
	.cfi_def_cfa %rsp, 8
	retq
.LBB9_3:                                # %func_updateQuantizationParameter.43
	.cfi_def_cfa %rbp, 16
	movl	%ebx, %edi
	callq	updateQuantizationParameter.43
	addq	$8, %rsp
	popq	%rbx
	popq	%rbp
	.cfi_def_cfa %rsp, 8
	retq
.LBB9_4:                                # %func_updateQuantizationParameter.47
	.cfi_def_cfa %rbp, 16
	movl	%ebx, %edi
	callq	updateQuantizationParameter.47
	addq	$8, %rsp
	popq	%rbx
	popq	%rbp
	.cfi_def_cfa %rsp, 8
	retq
.LBB9_5:                                # %ctrl0
	.cfi_def_cfa %rbp, 16
	cmpl	$1, %eax
	je	.LBB9_2
# %bb.6:                                # %ctrl1
	cmpl	$2, %eax
	je	.LBB9_3
	jmp	.LBB9_4
.Lfunc_end9:
	.size	updateQuantizationParameter, .Lfunc_end9-updateQuantizationParameter
	.cfi_endproc
                                        # -- End function
	.globl	Qstep2QP                # -- Begin function Qstep2QP
	.p2align	4, 0x90
	.type	Qstep2QP,@function
Qstep2QP:                               # @Qstep2QP
	.cfi_startproc
# %bb.0:                                # %rand_bb
	pushq	%rbp
	.cfi_def_cfa_offset 16
	.cfi_offset %rbp, -16
	movq	%rsp, %rbp
	.cfi_def_cfa_register %rbp
	subq	$16, %rsp
	vmovsd	%xmm0, -8(%rbp)         # 8-byte Spill
	callq	get_rand
	cmpl	$0, %eax
	jne	.LBB10_5
# %bb.1:                                # %func_Qstep2QP.27
	vmovsd	-8(%rbp), %xmm0         # 8-byte Reload
                                        # xmm0 = mem[0],zero
	callq	Qstep2QP.27
	addq	$16, %rsp
	popq	%rbp
	.cfi_def_cfa %rsp, 8
	retq
.LBB10_2:                               # %func_Qstep2QP.36
	.cfi_def_cfa %rbp, 16
	callq	Qstep2QP.36
	addq	$16, %rsp
	popq	%rbp
	.cfi_def_cfa %rsp, 8
	retq
.LBB10_3:                               # %func_Qstep2QP.40
	.cfi_def_cfa %rbp, 16
	callq	Qstep2QP.40
	addq	$16, %rsp
	popq	%rbp
	.cfi_def_cfa %rsp, 8
	retq
.LBB10_4:                               # %func_Qstep2QP.48
	.cfi_def_cfa %rbp, 16
	callq	Qstep2QP.48
	addq	$16, %rsp
	popq	%rbp
	.cfi_def_cfa %rsp, 8
	retq
.LBB10_5:                               # %ctrl0
	.cfi_def_cfa %rbp, 16
	vmovsd	-8(%rbp), %xmm0         # 8-byte Reload
                                        # xmm0 = mem[0],zero
	cmpl	$1, %eax
	je	.LBB10_2
# %bb.6:                                # %ctrl1
	cmpl	$2, %eax
	je	.LBB10_3
	jmp	.LBB10_4
.Lfunc_end10:
	.size	Qstep2QP, .Lfunc_end10-Qstep2QP
	.cfi_endproc
                                        # -- End function
	.globl	updateRCModel           # -- Begin function updateRCModel
	.p2align	4, 0x90
	.type	updateRCModel,@function
updateRCModel:                          # @updateRCModel
	.cfi_startproc
# %bb.0:                                # %rand_bb
	pushq	%rbp
	.cfi_def_cfa_offset 16
	.cfi_offset %rbp, -16
	movq	%rsp, %rbp
	.cfi_def_cfa_register %rbp
	callq	get_rand
	cmpl	$0, %eax
	jne	.LBB11_5
# %bb.1:                                # %func_updateRCModel.34
	callq	updateRCModel.34
	popq	%rbp
	.cfi_def_cfa %rsp, 8
	retq
.LBB11_2:                               # %func_updateRCModel.41
	.cfi_def_cfa %rbp, 16
	callq	updateRCModel.41
	popq	%rbp
	.cfi_def_cfa %rsp, 8
	retq
.LBB11_3:                               # %func_updateRCModel.42
	.cfi_def_cfa %rbp, 16
	callq	updateRCModel.42
	popq	%rbp
	.cfi_def_cfa %rsp, 8
	retq
.LBB11_4:                               # %func_updateRCModel.46
	.cfi_def_cfa %rbp, 16
	callq	updateRCModel.46
	popq	%rbp
	.cfi_def_cfa %rsp, 8
	retq
.LBB11_5:                               # %ctrl0
	.cfi_def_cfa %rbp, 16
	cmpl	$1, %eax
	je	.LBB11_2
# %bb.6:                                # %ctrl1
	cmpl	$2, %eax
	je	.LBB11_3
	jmp	.LBB11_4
.Lfunc_end11:
	.size	updateRCModel, .Lfunc_end11-updateRCModel
	.cfi_endproc
                                        # -- End function
	.globl	QP2Qstep                # -- Begin function QP2Qstep
	.p2align	4, 0x90
	.type	QP2Qstep,@function
QP2Qstep:                               # @QP2Qstep
	.cfi_startproc
# %bb.0:                                # %rand_bb
	pushq	%rbp
	.cfi_def_cfa_offset 16
	.cfi_offset %rbp, -16
	movq	%rsp, %rbp
	.cfi_def_cfa_register %rbp
	pushq	%rbx
	pushq	%rax
	.cfi_offset %rbx, -24
	movl	%edi, %ebx
	callq	get_rand
	cmpl	$0, %eax
	jne	.LBB12_5
# %bb.1:                                # %func_QP2Qstep.3
	movl	%ebx, %edi
	callq	QP2Qstep.3
	addq	$8, %rsp
	popq	%rbx
	popq	%rbp
	.cfi_def_cfa %rsp, 8
	retq
.LBB12_2:                               # %func_QP2Qstep.20
	.cfi_def_cfa %rbp, 16
	movl	%ebx, %edi
	callq	QP2Qstep.20
	addq	$8, %rsp
	popq	%rbx
	popq	%rbp
	.cfi_def_cfa %rsp, 8
	retq
.LBB12_3:                               # %func_QP2Qstep.24
	.cfi_def_cfa %rbp, 16
	movl	%ebx, %edi
	callq	QP2Qstep.24
	addq	$8, %rsp
	popq	%rbx
	popq	%rbp
	.cfi_def_cfa %rsp, 8
	retq
.LBB12_4:                               # %func_QP2Qstep.33
	.cfi_def_cfa %rbp, 16
	movl	%ebx, %edi
	callq	QP2Qstep.33
	addq	$8, %rsp
	popq	%rbx
	popq	%rbp
	.cfi_def_cfa %rsp, 8
	retq
.LBB12_5:                               # %ctrl0
	.cfi_def_cfa %rbp, 16
	cmpl	$1, %eax
	je	.LBB12_2
# %bb.6:                                # %ctrl1
	cmpl	$2, %eax
	je	.LBB12_3
	jmp	.LBB12_4
.Lfunc_end12:
	.size	QP2Qstep, .Lfunc_end12-QP2Qstep
	.cfi_endproc
                                        # -- End function
	.globl	RCModelEstimator        # -- Begin function RCModelEstimator
	.p2align	4, 0x90
	.type	RCModelEstimator,@function
RCModelEstimator:                       # @RCModelEstimator
	.cfi_startproc
# %bb.0:                                # %rand_bb
	pushq	%rbp
	.cfi_def_cfa_offset 16
	.cfi_offset %rbp, -16
	movq	%rsp, %rbp
	.cfi_def_cfa_register %rbp
	pushq	%rbx
	pushq	%rax
	.cfi_offset %rbx, -24
	movl	%edi, %ebx
	callq	get_rand
	cmpl	$0, %eax
	jne	.LBB13_5
# %bb.1:                                # %func_RCModelEstimator.7
	movl	%ebx, %edi
	callq	RCModelEstimator.7
	addq	$8, %rsp
	popq	%rbx
	popq	%rbp
	.cfi_def_cfa %rsp, 8
	retq
.LBB13_2:                               # %func_RCModelEstimator.12
	.cfi_def_cfa %rbp, 16
	movl	%ebx, %edi
	callq	RCModelEstimator.12
	addq	$8, %rsp
	popq	%rbx
	popq	%rbp
	.cfi_def_cfa %rsp, 8
	retq
.LBB13_3:                               # %func_RCModelEstimator.25
	.cfi_def_cfa %rbp, 16
	movl	%ebx, %edi
	callq	RCModelEstimator.25
	addq	$8, %rsp
	popq	%rbx
	popq	%rbp
	.cfi_def_cfa %rsp, 8
	retq
.LBB13_4:                               # %func_RCModelEstimator.26
	.cfi_def_cfa %rbp, 16
	movl	%ebx, %edi
	callq	RCModelEstimator.26
	addq	$8, %rsp
	popq	%rbx
	popq	%rbp
	.cfi_def_cfa %rsp, 8
	retq
.LBB13_5:                               # %ctrl0
	.cfi_def_cfa %rbp, 16
	cmpl	$1, %eax
	je	.LBB13_2
# %bb.6:                                # %ctrl1
	cmpl	$2, %eax
	je	.LBB13_3
	jmp	.LBB13_4
.Lfunc_end13:
	.size	RCModelEstimator, .Lfunc_end13-RCModelEstimator
	.cfi_endproc
                                        # -- End function
	.globl	ComputeFrameMAD         # -- Begin function ComputeFrameMAD
	.p2align	4, 0x90
	.type	ComputeFrameMAD,@function
ComputeFrameMAD:                        # @ComputeFrameMAD
	.cfi_startproc
# %bb.0:                                # %rand_bb
	pushq	%rbp
	.cfi_def_cfa_offset 16
	.cfi_offset %rbp, -16
	movq	%rsp, %rbp
	.cfi_def_cfa_register %rbp
	callq	get_rand
	cmpl	$0, %eax
	jne	.LBB14_2
# %bb.1:                                # %func_ComputeFrameMAD.10
	callq	ComputeFrameMAD.10
	popq	%rbp
	.cfi_def_cfa %rsp, 8
	retq
.LBB14_2:                               # %func_ComputeFrameMAD.11
	.cfi_def_cfa %rbp, 16
	callq	ComputeFrameMAD.11
	popq	%rbp
	.cfi_def_cfa %rsp, 8
	retq
.Lfunc_end14:
	.size	ComputeFrameMAD, .Lfunc_end14-ComputeFrameMAD
	.cfi_endproc
                                        # -- End function
	.globl	updateMADModel          # -- Begin function updateMADModel
	.p2align	4, 0x90
	.type	updateMADModel,@function
updateMADModel:                         # @updateMADModel
	.cfi_startproc
# %bb.0:                                # %rand_bb
	pushq	%rbp
	.cfi_def_cfa_offset 16
	.cfi_offset %rbp, -16
	movq	%rsp, %rbp
	.cfi_def_cfa_register %rbp
	callq	get_rand
	cmpl	$0, %eax
	jne	.LBB15_5
# %bb.1:                                # %func_updateMADModel.4
	callq	updateMADModel.4
	popq	%rbp
	.cfi_def_cfa %rsp, 8
	retq
.LBB15_2:                               # %func_updateMADModel.22
	.cfi_def_cfa %rbp, 16
	callq	updateMADModel.22
	popq	%rbp
	.cfi_def_cfa %rsp, 8
	retq
.LBB15_3:                               # %func_updateMADModel.30
	.cfi_def_cfa %rbp, 16
	callq	updateMADModel.30
	popq	%rbp
	.cfi_def_cfa %rsp, 8
	retq
.LBB15_4:                               # %func_updateMADModel.38
	.cfi_def_cfa %rbp, 16
	callq	updateMADModel.38
	popq	%rbp
	.cfi_def_cfa %rsp, 8
	retq
.LBB15_5:                               # %ctrl0
	.cfi_def_cfa %rbp, 16
	cmpl	$1, %eax
	je	.LBB15_2
# %bb.6:                                # %ctrl1
	cmpl	$2, %eax
	je	.LBB15_3
	jmp	.LBB15_4
.Lfunc_end15:
	.size	updateMADModel, .Lfunc_end15-updateMADModel
	.cfi_endproc
                                        # -- End function
	.globl	MADModelEstimator       # -- Begin function MADModelEstimator
	.p2align	4, 0x90
	.type	MADModelEstimator,@function
MADModelEstimator:                      # @MADModelEstimator
	.cfi_startproc
# %bb.0:                                # %rand_bb
	pushq	%rbp
	.cfi_def_cfa_offset 16
	.cfi_offset %rbp, -16
	movq	%rsp, %rbp
	.cfi_def_cfa_register %rbp
	pushq	%rbx
	pushq	%rax
	.cfi_offset %rbx, -24
	movl	%edi, %ebx
	callq	get_rand
	cmpl	$0, %eax
	jne	.LBB16_5
# %bb.1:                                # %func_MADModelEstimator.2
	movl	%ebx, %edi
	callq	MADModelEstimator.2
	addq	$8, %rsp
	popq	%rbx
	popq	%rbp
	.cfi_def_cfa %rsp, 8
	retq
.LBB16_2:                               # %func_MADModelEstimator.9
	.cfi_def_cfa %rbp, 16
	movl	%ebx, %edi
	callq	MADModelEstimator.9
	addq	$8, %rsp
	popq	%rbx
	popq	%rbp
	.cfi_def_cfa %rsp, 8
	retq
.LBB16_3:                               # %func_MADModelEstimator.15
	.cfi_def_cfa %rbp, 16
	movl	%ebx, %edi
	callq	MADModelEstimator.15
	addq	$8, %rsp
	popq	%rbx
	popq	%rbp
	.cfi_def_cfa %rsp, 8
	retq
.LBB16_4:                               # %func_MADModelEstimator.17
	.cfi_def_cfa %rbp, 16
	movl	%ebx, %edi
	callq	MADModelEstimator.17
	addq	$8, %rsp
	popq	%rbx
	popq	%rbp
	.cfi_def_cfa %rsp, 8
	retq
.LBB16_5:                               # %ctrl0
	.cfi_def_cfa %rbp, 16
	cmpl	$1, %eax
	je	.LBB16_2
# %bb.6:                                # %ctrl1
	cmpl	$2, %eax
	je	.LBB16_3
	jmp	.LBB16_4
.Lfunc_end16:
	.size	MADModelEstimator, .Lfunc_end16-MADModelEstimator
	.cfi_endproc
                                        # -- End function
	.section	.rodata.cst8,"aM",@progbits,8
	.p2align	3               # -- Begin function calc_MAD.1
.LCPI17_0:
	.quad	4643211215818981376     # double 256
.LCPI17_1:
	.quad	4607182418800017408     # double 1
	.text
	.globl	calc_MAD.1
	.p2align	4, 0x90
	.type	calc_MAD.1,@function
calc_MAD.1:                             # @calc_MAD.1
	.cfi_startproc
# %bb.0:                                # %entry
	pushq	%rbp
	.cfi_def_cfa_offset 16
	.cfi_offset %rbp, -16
	movq	%rsp, %rbp
	.cfi_def_cfa_register %rbp
	subq	$32, %rsp
	movl	$989537013, -16(%rbp)   # imm = 0x3AFB22F5
	movl	$0, -12(%rbp)
	movl	$0, -8(%rbp)
.LBB17_1:                               # %for.cond
                                        # =>This Loop Header: Depth=1
                                        #     Child Loop BB17_3 Depth 2
	cmpl	$16, -8(%rbp)
	jge	.LBB17_8
# %bb.2:                                # %for.body
                                        #   in Loop: Header=BB17_1 Depth=1
	movl	$0, -4(%rbp)
.LBB17_3:                               # %for.cond1
                                        #   Parent Loop BB17_1 Depth=1
                                        # =>  This Inner Loop Header: Depth=2
	cmpl	$16, -4(%rbp)
	jge	.LBB17_6
# %bb.4:                                # %for.body3
                                        #   in Loop: Header=BB17_3 Depth=2
	movslq	-8(%rbp), %rax
	shlq	$6, %rax
	movabsq	$diffy, %rcx
	addq	%rax, %rcx
	movslq	-4(%rbp), %rax
	movl	(%rcx,%rax,4), %edi
	callq	abs
	addl	-12(%rbp), %eax
	movl	%eax, -12(%rbp)
# %bb.5:                                # %for.inc
                                        #   in Loop: Header=BB17_3 Depth=2
	movl	-4(%rbp), %eax
	addl	$1, %eax
	movl	%eax, -4(%rbp)
	jmp	.LBB17_3
.LBB17_6:                               # %for.end
                                        #   in Loop: Header=BB17_1 Depth=1
	jmp	.LBB17_7
.LBB17_7:                               # %for.inc6
                                        #   in Loop: Header=BB17_1 Depth=1
	movl	-8(%rbp), %eax
	addl	$1, %eax
	movl	%eax, -8(%rbp)
	jmp	.LBB17_1
.LBB17_8:                               # %for.end8
	vmovsd	.LCPI17_0(%rip), %xmm0  # xmm0 = mem[0],zero
	vmovsd	.LCPI17_1(%rip), %xmm1  # xmm1 = mem[0],zero
	vcvtsi2sdl	-12(%rbp), %xmm0, %xmm2
	vmulsd	%xmm1, %xmm2, %xmm1
	vdivsd	%xmm0, %xmm1, %xmm0
	vmovsd	%xmm0, -32(%rbp)
	vmovsd	-32(%rbp), %xmm0        # xmm0 = mem[0],zero
	cmpl	$989537013, -16(%rbp)   # imm = 0x3AFB22F5
	jne	.LBB17_10
.LBB17_9:
	addq	$32, %rsp
	popq	%rbp
	.cfi_def_cfa %rsp, 8
	retq
.LBB17_10:                              # %func_exit
	.cfi_def_cfa %rbp, 16
	vmovsd	%xmm0, -24(%rbp)        # 8-byte Spill
	callq	detect_breach
	vmovsd	-24(%rbp), %xmm0        # 8-byte Reload
                                        # xmm0 = mem[0],zero
	jmp	.LBB17_9
.Lfunc_end17:
	.size	calc_MAD.1, .Lfunc_end17-calc_MAD.1
	.cfi_endproc
                                        # -- End function
	.section	.rodata.cst8,"aM",@progbits,8
	.p2align	3               # -- Begin function MADModelEstimator.2
.LCPI18_0:
	.quad	4517329193108106637     # double 9.9999999999999995E-7
.LCPI18_2:
	.quad	4607182418800017408     # double 1
	.section	.rodata.cst16,"aM",@progbits,16
	.p2align	4
.LCPI18_1:
	.quad	9223372036854775807     # double NaN
	.quad	9223372036854775807     # double NaN
	.text
	.globl	MADModelEstimator.2
	.p2align	4, 0x90
	.type	MADModelEstimator.2,@function
MADModelEstimator.2:                    # @MADModelEstimator.2
	.cfi_startproc
# %bb.0:                                # %entry
	pushq	%rbp
	.cfi_def_cfa_offset 16
	.cfi_offset %rbp, -16
	movq	%rsp, %rbp
	.cfi_def_cfa_register %rbp
	subq	$96, %rsp
	movl	$1417803668, -84(%rbp)  # imm = 0x5481F794
	movl	%edi, -8(%rbp)
	movl	-8(%rbp), %eax
	movl	%eax, -12(%rbp)
	vxorps	%xmm0, %xmm0, %xmm0
	vmovsd	%xmm0, -48(%rbp)
	vmovsd	%xmm0, -24(%rbp)
	vmovsd	%xmm0, -72(%rbp)
	vmovsd	%xmm0, -56(%rbp)
	vmovsd	%xmm0, -32(%rbp)
	vmovsd	%xmm0, -64(%rbp)
	movl	$0, -36(%rbp)
	movl	$0, -4(%rbp)
.LBB18_1:                               # %for.cond
                                        # =>This Inner Loop Header: Depth=1
	movl	-4(%rbp), %eax
	cmpl	-8(%rbp), %eax
	jge	.LBB18_6
# %bb.2:                                # %for.body
                                        #   in Loop: Header=BB18_1 Depth=1
	movslq	-4(%rbp), %rax
	cmpl	$0, PictureRejected(,%rax,4)
	je	.LBB18_4
# %bb.3:                                # %if.then
                                        #   in Loop: Header=BB18_1 Depth=1
	movl	-12(%rbp), %eax
	addl	$-1, %eax
	movl	%eax, -12(%rbp)
.LBB18_4:                               # %if.end
                                        #   in Loop: Header=BB18_1 Depth=1
	jmp	.LBB18_5
.LBB18_5:                               # %for.inc
                                        #   in Loop: Header=BB18_1 Depth=1
	movl	-4(%rbp), %eax
	addl	$1, %eax
	movl	%eax, -4(%rbp)
	jmp	.LBB18_1
.LBB18_6:                               # %for.end
	vxorps	%xmm0, %xmm0, %xmm0
	vmovsd	%xmm0, MADPictureC2
	vmovsd	%xmm0, MADPictureC1
	movl	$0, -4(%rbp)
.LBB18_7:                               # %for.cond1
                                        # =>This Inner Loop Header: Depth=1
	movl	-4(%rbp), %eax
	cmpl	-8(%rbp), %eax
	jge	.LBB18_12
# %bb.8:                                # %for.body3
                                        #   in Loop: Header=BB18_7 Depth=1
	movslq	-4(%rbp), %rax
	cmpl	$0, PictureRejected(,%rax,4)
	jne	.LBB18_10
# %bb.9:                                # %if.then7
                                        #   in Loop: Header=BB18_7 Depth=1
	movslq	-4(%rbp), %rax
	vmovsd	PictureMAD(,%rax,8), %xmm0 # xmm0 = mem[0],zero
	vmovsd	%xmm0, -96(%rbp)
.LBB18_10:                              # %if.end10
                                        #   in Loop: Header=BB18_7 Depth=1
	jmp	.LBB18_11
.LBB18_11:                              # %for.inc11
                                        #   in Loop: Header=BB18_7 Depth=1
	movl	-4(%rbp), %eax
	addl	$1, %eax
	movl	%eax, -4(%rbp)
	jmp	.LBB18_7
.LBB18_12:                              # %for.end13
	movl	$0, -4(%rbp)
.LBB18_13:                              # %for.cond14
                                        # =>This Inner Loop Header: Depth=1
	movl	-4(%rbp), %eax
	cmpl	-8(%rbp), %eax
	jge	.LBB18_21
# %bb.14:                               # %for.body16
                                        #   in Loop: Header=BB18_13 Depth=1
	movslq	-4(%rbp), %rax
	vmovsd	PictureMAD(,%rax,8), %xmm0 # xmm0 = mem[0],zero
	vucomisd	-96(%rbp), %xmm0
	jne	.LBB18_15
	jp	.LBB18_15
	jmp	.LBB18_17
.LBB18_15:                              # %land.lhs.true
                                        #   in Loop: Header=BB18_13 Depth=1
	movslq	-4(%rbp), %rax
	cmpl	$0, PictureRejected(,%rax,4)
	jne	.LBB18_17
# %bb.16:                               # %if.then23
                                        #   in Loop: Header=BB18_13 Depth=1
	movl	$1, -36(%rbp)
.LBB18_17:                              # %if.end24
                                        #   in Loop: Header=BB18_13 Depth=1
	movslq	-4(%rbp), %rax
	cmpl	$0, PictureRejected(,%rax,4)
	jne	.LBB18_19
# %bb.18:                               # %if.then28
                                        #   in Loop: Header=BB18_13 Depth=1
	movslq	-4(%rbp), %rax
	vmovsd	PictureMAD(,%rax,8), %xmm0 # xmm0 = mem[0],zero
	movslq	-4(%rbp), %rax
	vmovsd	ReferenceMAD(,%rax,8), %xmm1 # xmm1 = mem[0],zero
	vcvtsi2sdl	-12(%rbp), %xmm0, %xmm2
	vmulsd	%xmm2, %xmm1, %xmm1
	vdivsd	%xmm1, %xmm0, %xmm0
	vaddsd	MADPictureC1, %xmm0, %xmm0
	vmovsd	%xmm0, MADPictureC1
.LBB18_19:                              # %if.end33
                                        #   in Loop: Header=BB18_13 Depth=1
	jmp	.LBB18_20
.LBB18_20:                              # %for.inc34
                                        #   in Loop: Header=BB18_13 Depth=1
	movl	-4(%rbp), %eax
	addl	$1, %eax
	movl	%eax, -4(%rbp)
	jmp	.LBB18_13
.LBB18_21:                              # %for.end36
	cmpl	$1, -12(%rbp)
	jl	.LBB18_33
# %bb.22:                               # %land.lhs.true39
	cmpl	$0, -36(%rbp)
	je	.LBB18_33
# %bb.23:                               # %if.then41
	movl	$0, -4(%rbp)
.LBB18_24:                              # %for.cond42
                                        # =>This Inner Loop Header: Depth=1
	movl	-4(%rbp), %eax
	cmpl	-8(%rbp), %eax
	jge	.LBB18_29
# %bb.25:                               # %for.body45
                                        #   in Loop: Header=BB18_24 Depth=1
	movslq	-4(%rbp), %rax
	cmpl	$0, PictureRejected(,%rax,4)
	jne	.LBB18_27
# %bb.26:                               # %if.then49
                                        #   in Loop: Header=BB18_24 Depth=1
	vmovsd	.LCPI18_2(%rip), %xmm0  # xmm0 = mem[0],zero
	vaddsd	-48(%rbp), %xmm0, %xmm0
	vmovsd	%xmm0, -48(%rbp)
	movslq	-4(%rbp), %rax
	vmovsd	ReferenceMAD(,%rax,8), %xmm0 # xmm0 = mem[0],zero
	vaddsd	-24(%rbp), %xmm0, %xmm0
	vmovsd	%xmm0, -24(%rbp)
	vmovsd	-24(%rbp), %xmm0        # xmm0 = mem[0],zero
	vmovsd	%xmm0, -72(%rbp)
	movslq	-4(%rbp), %rax
	vmovsd	ReferenceMAD(,%rax,8), %xmm0 # xmm0 = mem[0],zero
	movslq	-4(%rbp), %rax
	vmulsd	ReferenceMAD(,%rax,8), %xmm0, %xmm0
	vaddsd	-56(%rbp), %xmm0, %xmm0
	vmovsd	%xmm0, -56(%rbp)
	movslq	-4(%rbp), %rax
	vmovsd	PictureMAD(,%rax,8), %xmm0 # xmm0 = mem[0],zero
	vaddsd	-32(%rbp), %xmm0, %xmm0
	vmovsd	%xmm0, -32(%rbp)
	movslq	-4(%rbp), %rax
	vmovsd	PictureMAD(,%rax,8), %xmm0 # xmm0 = mem[0],zero
	movslq	-4(%rbp), %rax
	vmulsd	ReferenceMAD(,%rax,8), %xmm0, %xmm0
	vaddsd	-64(%rbp), %xmm0, %xmm0
	vmovsd	%xmm0, -64(%rbp)
.LBB18_27:                              # %if.end69
                                        #   in Loop: Header=BB18_24 Depth=1
	jmp	.LBB18_28
.LBB18_28:                              # %for.inc70
                                        #   in Loop: Header=BB18_24 Depth=1
	movl	-4(%rbp), %eax
	addl	$1, %eax
	movl	%eax, -4(%rbp)
	jmp	.LBB18_24
.LBB18_29:                              # %for.end72
	vmovsd	.LCPI18_0(%rip), %xmm0  # xmm0 = mem[0],zero
	vmovsd	-48(%rbp), %xmm1        # xmm1 = mem[0],zero
	vmulsd	-56(%rbp), %xmm1, %xmm1
	vmovsd	-24(%rbp), %xmm2        # xmm2 = mem[0],zero
	vmulsd	-72(%rbp), %xmm2, %xmm2
	vsubsd	%xmm2, %xmm1, %xmm1
	vmovsd	%xmm1, -80(%rbp)
	vmovsd	-80(%rbp), %xmm1        # xmm1 = mem[0],zero
	vmovdqa	.LCPI18_1(%rip), %xmm2  # xmm2 = [NaN,NaN]
	vpand	%xmm2, %xmm1, %xmm1
	vucomisd	%xmm0, %xmm1
	jbe	.LBB18_31
# %bb.30:                               # %if.then77
	vmovsd	-32(%rbp), %xmm0        # xmm0 = mem[0],zero
	vmulsd	-56(%rbp), %xmm0, %xmm0
	vmovsd	-64(%rbp), %xmm1        # xmm1 = mem[0],zero
	vmulsd	-24(%rbp), %xmm1, %xmm1
	vsubsd	%xmm1, %xmm0, %xmm0
	vdivsd	-80(%rbp), %xmm0, %xmm0
	vmovsd	%xmm0, MADPictureC2
	vmovsd	-64(%rbp), %xmm0        # xmm0 = mem[0],zero
	vmulsd	-48(%rbp), %xmm0, %xmm0
	vmovsd	-32(%rbp), %xmm1        # xmm1 = mem[0],zero
	vmulsd	-72(%rbp), %xmm1, %xmm1
	vsubsd	%xmm1, %xmm0, %xmm0
	vdivsd	-80(%rbp), %xmm0, %xmm0
	vmovsd	%xmm0, MADPictureC1
	jmp	.LBB18_32
.LBB18_31:                              # %if.else
	vmovsd	-32(%rbp), %xmm0        # xmm0 = mem[0],zero
	vdivsd	-24(%rbp), %xmm0, %xmm0
	vmovsd	%xmm0, MADPictureC1
	vxorps	%xmm0, %xmm0, %xmm0
	vmovsd	%xmm0, MADPictureC2
.LBB18_32:                              # %if.end87
	jmp	.LBB18_33
.LBB18_33:                              # %if.end88
	movq	img, %rax
	cmpl	$0, 24(%rax)
	jne	.LBB18_35
# %bb.34:                               # %if.then91
	vmovsd	MADPictureC1, %xmm0     # xmm0 = mem[0],zero
	vmovsd	%xmm0, PMADPictureC1
	vmovsd	MADPictureC2, %xmm0     # xmm0 = mem[0],zero
	vmovsd	%xmm0, PMADPictureC2
.LBB18_35:                              # %if.end92
	cmpl	$1417803668, -84(%rbp)  # imm = 0x5481F794
	jne	.LBB18_37
.LBB18_36:
	addq	$96, %rsp
	popq	%rbp
	.cfi_def_cfa %rsp, 8
	retq
.LBB18_37:                              # %func_exit
	.cfi_def_cfa %rbp, 16
	callq	detect_breach
	jmp	.LBB18_36
.Lfunc_end18:
	.size	MADModelEstimator.2, .Lfunc_end18-MADModelEstimator.2
	.cfi_endproc
                                        # -- End function
	.section	.rodata.cst8,"aM",@progbits,8
	.p2align	3               # -- Begin function QP2Qstep.3
.LCPI19_0:
	.quad	4611686018427387904     # double 2
	.text
	.globl	QP2Qstep.3
	.p2align	4, 0x90
	.type	QP2Qstep.3,@function
QP2Qstep.3:                             # @QP2Qstep.3
	.cfi_startproc
# %bb.0:                                # %entry
	pushq	%rbp
	.cfi_def_cfa_offset 16
	.cfi_offset %rbp, -16
	movq	%rsp, %rbp
	.cfi_def_cfa_register %rbp
	subq	$32, %rsp
	movl	$2009258455, -20(%rbp)  # imm = 0x77C2D9D7
	movl	%edi, -8(%rbp)
	movl	-8(%rbp), %eax
	cltd
	movl	$6, %ecx
	idivl	%ecx
	movslq	%edx, %rax
	vmovsd	QP2Qstep.QP2QSTEP(,%rax,8), %xmm0 # xmm0 = mem[0],zero
	vmovsd	%xmm0, -16(%rbp)
	movl	$0, -4(%rbp)
.LBB19_1:                               # %for.cond
                                        # =>This Inner Loop Header: Depth=1
	movl	-4(%rbp), %ecx
	movl	-8(%rbp), %eax
	cltd
	movl	$6, %esi
	idivl	%esi
	cmpl	%eax, %ecx
	jge	.LBB19_4
# %bb.2:                                # %for.body
                                        #   in Loop: Header=BB19_1 Depth=1
	vmovsd	.LCPI19_0(%rip), %xmm0  # xmm0 = mem[0],zero
	vmulsd	-16(%rbp), %xmm0, %xmm0
	vmovsd	%xmm0, -16(%rbp)
# %bb.3:                                # %for.inc
                                        #   in Loop: Header=BB19_1 Depth=1
	movl	-4(%rbp), %eax
	addl	$1, %eax
	movl	%eax, -4(%rbp)
	jmp	.LBB19_1
.LBB19_4:                               # %for.end
	vmovsd	-16(%rbp), %xmm0        # xmm0 = mem[0],zero
	cmpl	$2009258455, -20(%rbp)  # imm = 0x77C2D9D7
	jne	.LBB19_6
.LBB19_5:
	addq	$32, %rsp
	popq	%rbp
	.cfi_def_cfa %rsp, 8
	retq
.LBB19_6:                               # %func_exit
	.cfi_def_cfa %rbp, 16
	vmovsd	%xmm0, -32(%rbp)        # 8-byte Spill
	callq	detect_breach
	vmovsd	-32(%rbp), %xmm0        # 8-byte Reload
                                        # xmm0 = mem[0],zero
	jmp	.LBB19_5
.Lfunc_end19:
	.size	QP2Qstep.3, .Lfunc_end19-QP2Qstep.3
	.cfi_endproc
                                        # -- End function
	.section	.rodata.cst8,"aM",@progbits,8
	.p2align	3               # -- Begin function updateMADModel.4
.LCPI20_0:
	.quad	4626322717216342016     # double 20
	.section	.rodata.cst16,"aM",@progbits,16
	.p2align	4
.LCPI20_1:
	.quad	9223372036854775807     # double NaN
	.quad	9223372036854775807     # double NaN
	.text
	.globl	updateMADModel.4
	.p2align	4, 0x90
	.type	updateMADModel.4,@function
updateMADModel.4:                       # @updateMADModel.4
	.cfi_startproc
# %bb.0:                                # %entry
	pushq	%rbp
	.cfi_def_cfa_offset 16
	.cfi_offset %rbp, -16
	movq	%rsp, %rbp
	.cfi_def_cfa_register %rbp
	subq	$208, %rsp
	movl	$1979182276, -28(%rbp)  # imm = 0x75F7ECC4
	vxorps	%xmm0, %xmm0, %xmm0
	vmovsd	%xmm0, -24(%rbp)
	movq	img, %rax
	cmpl	$0, 72564(%rax)
	jle	.LBB20_51
# %bb.1:                                # %if.then
	movq	img, %rax
	movl	72620(%rax), %eax
	movq	img, %rcx
	cmpl	72608(%rcx), %eax
	jne	.LBB20_3
# %bb.2:                                # %if.then2
	movq	img, %rax
	movl	72564(%rax), %eax
	movl	%eax, -12(%rbp)
	jmp	.LBB20_4
.LBB20_3:                               # %if.else
	movq	img, %rax
	movl	72564(%rax), %eax
	imull	TotalNumberofBasicUnit, %eax
	addl	CodedBasicUnit, %eax
	movl	%eax, -12(%rbp)
.LBB20_4:                               # %if.end
	movl	$19, -4(%rbp)
.LBB20_5:                               # %for.cond
                                        # =>This Inner Loop Header: Depth=1
	cmpl	$0, -4(%rbp)
	jle	.LBB20_8
# %bb.6:                                # %for.body
                                        #   in Loop: Header=BB20_5 Depth=1
	movl	-4(%rbp), %eax
	subl	$1, %eax
	cltq
	vmovsd	PPictureMAD(,%rax,8), %xmm0 # xmm0 = mem[0],zero
	movslq	-4(%rbp), %rax
	vmovsd	%xmm0, PPictureMAD(,%rax,8)
	movslq	-4(%rbp), %rax
	vmovsd	PPictureMAD(,%rax,8), %xmm0 # xmm0 = mem[0],zero
	movslq	-4(%rbp), %rax
	vmovsd	%xmm0, PictureMAD(,%rax,8)
	movl	-4(%rbp), %eax
	subl	$1, %eax
	cltq
	vmovsd	ReferenceMAD(,%rax,8), %xmm0 # xmm0 = mem[0],zero
	movslq	-4(%rbp), %rax
	vmovsd	%xmm0, ReferenceMAD(,%rax,8)
# %bb.7:                                # %for.inc
                                        #   in Loop: Header=BB20_5 Depth=1
	movl	-4(%rbp), %eax
	addl	$-1, %eax
	movl	%eax, -4(%rbp)
	jmp	.LBB20_5
.LBB20_8:                               # %for.end
	vmovsd	CurrentFrameMAD, %xmm0  # xmm0 = mem[0],zero
	vmovsd	%xmm0, PPictureMAD
	vmovsd	PPictureMAD, %xmm0      # xmm0 = mem[0],zero
	vmovsd	%xmm0, PictureMAD
	movq	img, %rax
	movl	72620(%rax), %eax
	movq	img, %rcx
	cmpl	72608(%rcx), %eax
	jne	.LBB20_10
# %bb.9:                                # %if.then20
	vmovsd	PictureMAD+8, %xmm0     # xmm0 = mem[0],zero
	vmovsd	%xmm0, ReferenceMAD
	jmp	.LBB20_16
.LBB20_10:                              # %if.else21
	movq	input, %rax
	cmpl	$2, 2880(%rax)
	je	.LBB20_12
# %bb.11:                               # %lor.lhs.false
	movq	input, %rax
	cmpl	$0, 2884(%rax)
	je	.LBB20_14
.LBB20_12:                              # %land.lhs.true
	movq	img, %rax
	cmpl	$1, 72600(%rax)
	jne	.LBB20_14
# %bb.13:                               # %if.then24
	movq	FCBUPFMAD, %rax
	movl	TotalNumberofBasicUnit, %ecx
	subl	$1, %ecx
	subl	NumberofBasicUnit, %ecx
	movslq	%ecx, %rcx
	vmovsd	(%rax,%rcx,8), %xmm0    # xmm0 = mem[0],zero
	vmovsd	%xmm0, ReferenceMAD
	jmp	.LBB20_15
.LBB20_14:                              # %if.else29
	movq	BUPFMAD, %rax
	movl	TotalNumberofBasicUnit, %ecx
	subl	$1, %ecx
	subl	NumberofBasicUnit, %ecx
	movslq	%ecx, %rcx
	vmovsd	(%rax,%rcx,8), %xmm0    # xmm0 = mem[0],zero
	vmovsd	%xmm0, ReferenceMAD
.LBB20_15:                              # %if.end34
	jmp	.LBB20_16
.LBB20_16:                              # %if.end35
	vmovsd	PMADPictureC1, %xmm0    # xmm0 = mem[0],zero
	vmovsd	%xmm0, MADPictureC1
	vmovsd	PMADPictureC2, %xmm0    # xmm0 = mem[0],zero
	vmovsd	%xmm0, MADPictureC2
	vmovsd	CurrentFrameMAD, %xmm0  # xmm0 = mem[0],zero
	vucomisd	PreviousFrameMAD, %xmm0
	jbe	.LBB20_18
# %bb.17:                               # %cond.true
	vmovsd	.LCPI20_0(%rip), %xmm0  # xmm0 = mem[0],zero
	vmovsd	PreviousFrameMAD, %xmm1 # xmm1 = mem[0],zero
	vdivsd	CurrentFrameMAD, %xmm1, %xmm1
	vmulsd	%xmm0, %xmm1, %xmm0
	vcvttsd2si	%xmm0, %eax
	jmp	.LBB20_19
.LBB20_18:                              # %cond.false
	vmovsd	.LCPI20_0(%rip), %xmm0  # xmm0 = mem[0],zero
	vmovsd	CurrentFrameMAD, %xmm1  # xmm1 = mem[0],zero
	vdivsd	PreviousFrameMAD, %xmm1, %xmm1
	vmulsd	%xmm0, %xmm1, %xmm0
	vcvttsd2si	%xmm0, %eax
.LBB20_19:                              # %cond.end
	movl	%eax, -8(%rbp)
	movl	-8(%rbp), %eax
	movl	-12(%rbp), %ecx
	subl	$1, %ecx
	cmpl	%ecx, %eax
	jge	.LBB20_21
# %bb.20:                               # %cond.true44
	movl	-8(%rbp), %eax
	jmp	.LBB20_22
.LBB20_21:                              # %cond.false45
	movl	-12(%rbp), %eax
	subl	$1, %eax
.LBB20_22:                              # %cond.end47
	movl	%eax, -8(%rbp)
	cmpl	$1, -8(%rbp)
	jge	.LBB20_24
# %bb.23:                               # %cond.true51
	movl	$1, %eax
	jmp	.LBB20_25
.LBB20_24:                              # %cond.false52
	movl	-8(%rbp), %eax
.LBB20_25:                              # %cond.end53
	movl	%eax, -8(%rbp)
	movl	-8(%rbp), %eax
	movl	MADm_windowSize, %ecx
	addl	$1, %ecx
	cmpl	%ecx, %eax
	jge	.LBB20_27
# %bb.26:                               # %cond.true58
	movl	-8(%rbp), %eax
	jmp	.LBB20_28
.LBB20_27:                              # %cond.false59
	movl	MADm_windowSize, %eax
	addl	$1, %eax
.LBB20_28:                              # %cond.end61
	movl	%eax, -8(%rbp)
	movl	$20, %eax
	cmpl	-8(%rbp), %eax
	jge	.LBB20_30
# %bb.29:                               # %cond.true65
	movl	$20, %eax
	jmp	.LBB20_31
.LBB20_30:                              # %cond.false66
	movl	-8(%rbp), %eax
.LBB20_31:                              # %cond.end67
	movl	%eax, -8(%rbp)
	movl	-8(%rbp), %eax
	movl	%eax, MADm_windowSize
	movl	$0, -4(%rbp)
.LBB20_32:                              # %for.cond69
                                        # =>This Inner Loop Header: Depth=1
	cmpl	$20, -4(%rbp)
	jge	.LBB20_35
# %bb.33:                               # %for.body72
                                        #   in Loop: Header=BB20_32 Depth=1
	movslq	-4(%rbp), %rax
	movl	$0, PictureRejected(,%rax,4)
# %bb.34:                               # %for.inc75
                                        #   in Loop: Header=BB20_32 Depth=1
	movl	-4(%rbp), %eax
	addl	$1, %eax
	movl	%eax, -4(%rbp)
	jmp	.LBB20_32
.LBB20_35:                              # %for.end76
	movq	img, %rax
	cmpl	$0, 24(%rax)
	jne	.LBB20_37
# %bb.36:                               # %if.then79
	vmovsd	CurrentFrameMAD, %xmm0  # xmm0 = mem[0],zero
	vmovsd	%xmm0, PreviousFrameMAD
.LBB20_37:                              # %if.end80
	movl	-8(%rbp), %edi
	callq	MADModelEstimator
	movl	$0, -4(%rbp)
.LBB20_38:                              # %for.cond81
                                        # =>This Inner Loop Header: Depth=1
	movl	-4(%rbp), %eax
	cmpl	-8(%rbp), %eax
	jge	.LBB20_41
# %bb.39:                               # %for.body84
                                        #   in Loop: Header=BB20_38 Depth=1
	vmovsd	MADPictureC1, %xmm0     # xmm0 = mem[0],zero
	movslq	-4(%rbp), %rax
	vmulsd	ReferenceMAD(,%rax,8), %xmm0, %xmm0
	vaddsd	MADPictureC2, %xmm0, %xmm0
	movslq	-4(%rbp), %rax
	vsubsd	PictureMAD(,%rax,8), %xmm0, %xmm0
	movslq	-4(%rbp), %rax
	vmovsd	%xmm0, -208(%rbp,%rax,8)
	movslq	-4(%rbp), %rax
	vmovsd	-208(%rbp,%rax,8), %xmm0 # xmm0 = mem[0],zero
	movslq	-4(%rbp), %rax
	vmulsd	-208(%rbp,%rax,8), %xmm0, %xmm0
	vaddsd	-24(%rbp), %xmm0, %xmm0
	vmovsd	%xmm0, -24(%rbp)
# %bb.40:                               # %for.inc100
                                        #   in Loop: Header=BB20_38 Depth=1
	movl	-4(%rbp), %eax
	addl	$1, %eax
	movl	%eax, -4(%rbp)
	jmp	.LBB20_38
.LBB20_41:                              # %for.end102
	cmpl	$2, -8(%rbp)
	jne	.LBB20_43
# %bb.42:                               # %cond.true105
	vxorps	%xmm0, %xmm0, %xmm0
	jmp	.LBB20_44
.LBB20_43:                              # %cond.false106
	vmovsd	-24(%rbp), %xmm0        # xmm0 = mem[0],zero
	vcvtsi2sdl	-8(%rbp), %xmm0, %xmm1
	vdivsd	%xmm1, %xmm0, %xmm0
	callq	sqrt
.LBB20_44:                              # %cond.end109
	vmovsd	%xmm0, -40(%rbp)
	movl	$0, -4(%rbp)
.LBB20_45:                              # %for.cond111
                                        # =>This Inner Loop Header: Depth=1
	movl	-4(%rbp), %eax
	cmpl	-8(%rbp), %eax
	jge	.LBB20_50
# %bb.46:                               # %for.body114
                                        #   in Loop: Header=BB20_45 Depth=1
	movslq	-4(%rbp), %rax
	vmovsd	-208(%rbp,%rax,8), %xmm0 # xmm0 = mem[0],zero
	vmovdqa	.LCPI20_1(%rip), %xmm1  # xmm1 = [NaN,NaN]
	vpand	%xmm1, %xmm0, %xmm0
	vucomisd	-40(%rbp), %xmm0
	jbe	.LBB20_48
# %bb.47:                               # %if.then119
                                        #   in Loop: Header=BB20_45 Depth=1
	movslq	-4(%rbp), %rax
	movl	$1, PictureRejected(,%rax,4)
.LBB20_48:                              # %if.end122
                                        #   in Loop: Header=BB20_45 Depth=1
	jmp	.LBB20_49
.LBB20_49:                              # %for.inc123
                                        #   in Loop: Header=BB20_45 Depth=1
	movl	-4(%rbp), %eax
	addl	$1, %eax
	movl	%eax, -4(%rbp)
	jmp	.LBB20_45
.LBB20_50:                              # %for.end125
	movl	$0, PictureRejected
	movl	-8(%rbp), %edi
	callq	MADModelEstimator
.LBB20_51:                              # %if.end126
	cmpl	$1979182276, -28(%rbp)  # imm = 0x75F7ECC4
	jne	.LBB20_53
.LBB20_52:
	addq	$208, %rsp
	popq	%rbp
	.cfi_def_cfa %rsp, 8
	retq
.LBB20_53:                              # %func_exit
	.cfi_def_cfa %rbp, 16
	callq	detect_breach
	jmp	.LBB20_52
.Lfunc_end20:
	.size	updateMADModel.4, .Lfunc_end20-updateMADModel.4
	.cfi_endproc
                                        # -- End function
	.section	.rodata.cst8,"aM",@progbits,8
	.p2align	3               # -- Begin function rc_update_pict_frame.5
.LCPI21_0:
	.quad	4602678819172646912     # double 0.5
.LCPI21_1:
	.quad	4608819927624529320     # double 1.3635999999999999
	.text
	.globl	rc_update_pict_frame.5
	.p2align	4, 0x90
	.type	rc_update_pict_frame.5,@function
rc_update_pict_frame.5:                 # @rc_update_pict_frame.5
	.cfi_startproc
# %bb.0:                                # %entry
	pushq	%rbp
	.cfi_def_cfa_offset 16
	.cfi_offset %rbp, -16
	movq	%rsp, %rbp
	.cfi_def_cfa_register %rbp
	subq	$16, %rsp
	movl	$1442574443, -16(%rbp)  # imm = 0x55FBF06B
	movl	%edi, -8(%rbp)
	movl	$0, -4(%rbp)
	movq	img, %rax
	movl	72620(%rax), %eax
	movq	img, %rcx
	cmpl	72608(%rcx), %eax
	jne	.LBB21_2
# %bb.1:                                # %if.then
	vmovsd	.LCPI21_0(%rip), %xmm0  # xmm0 = mem[0],zero
	movl	-8(%rbp), %eax
	imull	m_Qc, %eax
	vcvtsi2sd	%eax, %xmm0, %xmm1
	vaddsd	%xmm0, %xmm1, %xmm0
	vroundsd	$9, %xmm0, %xmm0, %xmm0
	vcvttsd2si	%xmm0, %eax
	movl	%eax, -4(%rbp)
	jmp	.LBB21_12
.LBB21_2:                               # %if.else
	movq	img, %rax
	cmpl	$0, 24(%rax)
	jne	.LBB21_8
# %bb.3:                                # %if.then4
	movq	img, %rax
	cmpl	$0, 72612(%rax)
	jne	.LBB21_5
# %bb.4:                                # %land.lhs.true
	movq	img, %rax
	cmpl	$1, 72600(%rax)
	je	.LBB21_6
.LBB21_5:                               # %lor.lhs.false
	movq	img, %rax
	cmpl	$0, 72600(%rax)
	jne	.LBB21_7
.LBB21_6:                               # %if.then12
	vmovsd	.LCPI21_0(%rip), %xmm0  # xmm0 = mem[0],zero
	movl	TotalFrameQP, %eax
	cltd
	idivl	TotalNumberofBasicUnit
	movl	%eax, -12(%rbp)
	movl	-8(%rbp), %eax
	imull	-12(%rbp), %eax
	vcvtsi2sd	%eax, %xmm0, %xmm1
	vaddsd	%xmm0, %xmm1, %xmm0
	vroundsd	$9, %xmm0, %xmm0, %xmm0
	vcvttsd2si	%xmm0, %eax
	movl	%eax, -4(%rbp)
.LBB21_7:                               # %if.end
	jmp	.LBB21_11
.LBB21_8:                               # %if.else17
	movq	img, %rax
	cmpl	$1, 24(%rax)
	jne	.LBB21_10
# %bb.9:                                # %if.then21
	vmovsd	.LCPI21_0(%rip), %xmm0  # xmm0 = mem[0],zero
	movl	-8(%rbp), %eax
	imull	m_Qc, %eax
	vcvtsi2sd	%eax, %xmm0, %xmm1
	vaddsd	%xmm0, %xmm1, %xmm0
	vroundsd	$9, %xmm0, %xmm0, %xmm0
	vcvttsd2si	%xmm0, %eax
	movl	%eax, -4(%rbp)
.LBB21_10:                              # %if.end26
	jmp	.LBB21_11
.LBB21_11:                              # %if.end27
	jmp	.LBB21_12
.LBB21_12:                              # %if.end28
	movq	img(%rip), %rax
	movl	24(%rax), %eax
	testl	%eax, %eax
	je	.LBB21_14
	jmp	.LBB21_13
.LBB21_13:                              # %if.end28
	subl	$1, %eax
	je	.LBB21_23
	jmp	.LBB21_24
.LBB21_14:                              # %sw.bb
	movq	img, %rax
	cmpl	$0, 72612(%rax)
	jne	.LBB21_16
# %bb.15:                               # %land.lhs.true33
	movq	img, %rax
	cmpl	$1, 72600(%rax)
	je	.LBB21_17
.LBB21_16:                              # %lor.lhs.false37
	movq	img, %rax
	cmpl	$0, 72600(%rax)
	jne	.LBB21_18
.LBB21_17:                              # %if.then41
	movl	-4(%rbp), %eax
	movl	%eax, Xp
	movl	Np, %eax
	addl	$-1, %eax
	movl	%eax, Np
	vcvtsi2sdl	Xp, %xmm0, %xmm0
	vmovsd	%xmm0, Wp
	movq	img, %rax
	movl	72524(%rax), %eax
	movl	%eax, Pm_Hp
	movq	img, %rax
	movl	72564(%rax), %ecx
	addl	$1, %ecx
	movl	%ecx, 72564(%rax)
	movq	img, %rax
	movl	72576(%rax), %ecx
	addl	$1, %ecx
	movl	%ecx, 72576(%rax)
	jmp	.LBB21_22
.LBB21_18:                              # %if.else44
	movq	img, %rax
	cmpl	$0, 72612(%rax)
	je	.LBB21_21
# %bb.19:                               # %land.lhs.true48
	movq	img, %rax
	cmpl	$1, 72600(%rax)
	jne	.LBB21_21
# %bb.20:                               # %if.then52
	movq	img, %rax
	movl	$0, 72612(%rax)
.LBB21_21:                              # %if.end54
	jmp	.LBB21_22
.LBB21_22:                              # %if.end55
	jmp	.LBB21_24
.LBB21_23:                              # %sw.bb56
	vmovsd	.LCPI21_1(%rip), %xmm0  # xmm0 = mem[0],zero
	movl	-4(%rbp), %eax
	movl	%eax, Xb
	movl	Nb, %eax
	addl	$-1, %eax
	movl	%eax, Nb
	vcvtsi2sdl	Xb, %xmm0, %xmm1
	vdivsd	%xmm0, %xmm1, %xmm0
	vmovsd	%xmm0, Wb
	movq	img, %rax
	movl	72560(%rax), %ecx
	addl	$1, %ecx
	movl	%ecx, 72560(%rax)
	movl	NumberofBFrames, %eax
	addl	$1, %eax
	movl	%eax, NumberofBFrames
.LBB21_24:                              # %sw.epilog
	cmpl	$1442574443, -16(%rbp)  # imm = 0x55FBF06B
	jne	.LBB21_26
.LBB21_25:
	addq	$16, %rsp
	popq	%rbp
	.cfi_def_cfa %rsp, 8
	retq
.LBB21_26:                              # %func_exit
	.cfi_def_cfa %rbp, 16
	callq	detect_breach
	jmp	.LBB21_25
.Lfunc_end21:
	.size	rc_update_pict_frame.5, .Lfunc_end21-rc_update_pict_frame.5
	.cfi_endproc
                                        # -- End function
	.section	.rodata.cst8,"aM",@progbits,8
	.p2align	3               # -- Begin function rc_init_GOP.6
.LCPI22_0:
	.quad	4602678819172646912     # double 0.5
.LCPI22_1:
	.quad	4624633867356078080     # double 15
.LCPI22_2:
	.quad	4607182418800017408     # double 1
	.text
	.globl	rc_init_GOP.6
	.p2align	4, 0x90
	.type	rc_init_GOP.6,@function
rc_init_GOP.6:                          # @rc_init_GOP.6
	.cfi_startproc
# %bb.0:                                # %entry
	pushq	%rbp
	.cfi_def_cfa_offset 16
	.cfi_offset %rbp, -16
	movq	%rsp, %rbp
	.cfi_def_cfa_register %rbp
	subq	$32, %rsp
	movl	$85965833, -24(%rbp)    # imm = 0x51FBC09
	movl	%edi, -4(%rbp)
	movl	%esi, -8(%rbp)
	movl	$0, -20(%rbp)
	cmpl	$0, R
	jge	.LBB22_2
# %bb.1:                                # %if.then
	movl	$1, -20(%rbp)
.LBB22_2:                               # %if.end
	vmovsd	.LCPI22_0(%rip), %xmm0  # xmm0 = mem[0],zero
	xorl	%eax, %eax
	subl	R, %eax
	movl	%eax, -28(%rbp)
	vcvtsi2sdl	R, %xmm0, %xmm1
	vmovsd	bit_rate, %xmm2         # xmm2 = mem[0],zero
	vdivsd	frame_rate, %xmm2, %xmm2
	vaddsd	%xmm2, %xmm1, %xmm1
	vcvttsd2si	%xmm1, %rax
	movq	%rax, LowerBound
	vcvtsi2sdl	R, %xmm0, %xmm1
	vaddsd	InitialDelayOffset, %xmm1, %xmm1
	vcvttsd2si	%xmm1, %rax
	movq	%rax, UpperBound1
	movl	-4(%rbp), %eax
	addl	$1, %eax
	addl	-8(%rbp), %eax
	vcvtsi2sd	%eax, %xmm0, %xmm1
	vmulsd	bit_rate, %xmm1, %xmm1
	vdivsd	frame_rate, %xmm1, %xmm1
	vaddsd	%xmm0, %xmm1, %xmm1
	vroundsd	$9, %xmm1, %xmm0, %xmm1
	vcvttsd2si	%xmm1, %eax
	movl	%eax, -16(%rbp)
	movl	-16(%rbp), %eax
	addl	R, %eax
	movl	%eax, R
	movl	-4(%rbp), %eax
	movl	%eax, Np
	movl	-8(%rbp), %eax
	movl	%eax, Nb
	movl	-28(%rbp), %eax
	shll	$3, %eax
	cltd
	idivl	-16(%rbp)
	vcvtsi2sd	%eax, %xmm0, %xmm1
	vaddsd	%xmm0, %xmm1, %xmm0
	vcvttsd2si	%xmm0, %eax
	movl	%eax, -32(%rbp)
	movl	$0, GOPOverdue
	movq	img, %rax
	movl	$1, 72612(%rax)
	movl	-4(%rbp), %eax
	movl	%eax, TotalPFrame
	movq	img, %rax
	movl	72568(%rax), %ecx
	addl	$1, %ecx
	movl	%ecx, 72568(%rax)
	movq	img, %rax
	cmpl	$1, 72568(%rax)
	jne	.LBB22_4
# %bb.3:                                # %if.then20
	movq	input, %rax
	movl	3244(%rax), %eax
	movl	%eax, MyInitialQp
	movl	MyInitialQp, %eax
	subl	$1, %eax
	movl	%eax, PreviousQp2
	movl	MyInitialQp, %eax
	movl	%eax, QPLastGOP
	jmp	.LBB22_27
.LBB22_4:                               # %if.else
	movq	input, %rax
	cmpl	$2, 2880(%rax)
	je	.LBB22_6
# %bb.5:                                # %lor.lhs.false
	movq	input, %rax
	cmpl	$0, 2884(%rax)
	je	.LBB22_10
.LBB22_6:                               # %if.then24
	movq	img, %rax
	cmpl	$1, 72604(%rax)
	jne	.LBB22_8
# %bb.7:                                # %if.then27
	movl	FrameQPBuffer, %eax
	movq	img, %rcx
	addl	72572(%rcx), %eax
	movl	%eax, 72572(%rcx)
	movl	FrameQPBuffer, %eax
	movl	%eax, QPLastPFrame
	jmp	.LBB22_9
.LBB22_8:                               # %if.else29
	movl	FieldQPBuffer, %eax
	movq	img, %rcx
	addl	72572(%rcx), %eax
	movl	%eax, 72572(%rcx)
	movl	FieldQPBuffer, %eax
	movl	%eax, QPLastPFrame
.LBB22_9:                               # %if.end32
	jmp	.LBB22_10
.LBB22_10:                              # %if.end33
	vmovsd	.LCPI22_0(%rip), %xmm0  # xmm0 = mem[0],zero
	vmovsd	.LCPI22_1(%rip), %xmm1  # xmm1 = mem[0],zero
	vmovsd	.LCPI22_2(%rip), %xmm2  # xmm2 = mem[0],zero
	movq	img, %rax
	vcvtsi2sdl	72572(%rax), %xmm0, %xmm3
	vmulsd	%xmm3, %xmm2, %xmm3
	movq	img, %rax
	vcvtsi2sdl	72576(%rax), %xmm0, %xmm4
	vdivsd	%xmm4, %xmm3, %xmm3
	vaddsd	%xmm0, %xmm3, %xmm3
	vcvttsd2si	%xmm3, %eax
	movl	%eax, PAverageQp
	movl	-4(%rbp), %eax
	addl	-8(%rbp), %eax
	addl	$1, %eax
	vcvtsi2sd	%eax, %xmm0, %xmm3
	vmulsd	%xmm3, %xmm2, %xmm2
	vdivsd	%xmm1, %xmm2, %xmm1
	vaddsd	%xmm1, %xmm0, %xmm0
	vcvttsd2si	%xmm0, %eax
	movl	%eax, -12(%rbp)
	cmpl	$2, -12(%rbp)
	jle	.LBB22_12
# %bb.11:                               # %if.then50
	movl	$2, -12(%rbp)
.LBB22_12:                              # %if.end51
	movl	-12(%rbp), %eax
	movl	PAverageQp, %ecx
	subl	%eax, %ecx
	movl	%ecx, PAverageQp
	movl	PAverageQp, %eax
	movl	QPLastPFrame, %ecx
	subl	$2, %ecx
	cmpl	%ecx, %eax
	jle	.LBB22_14
# %bb.13:                               # %if.then56
	movl	PAverageQp, %eax
	addl	$-1, %eax
	movl	%eax, PAverageQp
.LBB22_14:                              # %if.end57
	movl	QPLastGOP, %eax
	subl	$2, %eax
	cmpl	PAverageQp, %eax
	jge	.LBB22_16
# %bb.15:                               # %cond.true
	movl	PAverageQp, %eax
	jmp	.LBB22_17
.LBB22_16:                              # %cond.false
	movl	QPLastGOP, %eax
	subl	$2, %eax
.LBB22_17:                              # %cond.end
	movl	%eax, PAverageQp
	movl	QPLastGOP, %eax
	addl	$2, %eax
	cmpl	PAverageQp, %eax
	jge	.LBB22_19
# %bb.18:                               # %cond.true65
	movl	QPLastGOP, %eax
	addl	$2, %eax
	jmp	.LBB22_20
.LBB22_19:                              # %cond.false67
	movl	PAverageQp, %eax
.LBB22_20:                              # %cond.end68
	movl	%eax, PAverageQp
	movl	RC_MAX_QUANT, %eax
	cmpl	PAverageQp, %eax
	jge	.LBB22_22
# %bb.21:                               # %cond.true72
	movl	RC_MAX_QUANT, %eax
	jmp	.LBB22_23
.LBB22_22:                              # %cond.false73
	movl	PAverageQp, %eax
.LBB22_23:                              # %cond.end74
	movl	%eax, PAverageQp
	movl	RC_MIN_QUANT, %eax
	cmpl	PAverageQp, %eax
	jge	.LBB22_25
# %bb.24:                               # %cond.true78
	movl	PAverageQp, %eax
	jmp	.LBB22_26
.LBB22_25:                              # %cond.false79
	movl	RC_MIN_QUANT, %eax
.LBB22_26:                              # %cond.end80
	movl	%eax, PAverageQp
	movl	PAverageQp, %eax
	movl	%eax, MyInitialQp
	movl	MyInitialQp, %eax
	movl	%eax, QPLastGOP
	movl	PAverageQp, %eax
	movl	%eax, Pm_Qp
	movl	PAverageQp, %eax
	movl	%eax, PAveFrameQP
	movl	PreviousQp2, %eax
	movl	%eax, PreviousQp1
	movl	MyInitialQp, %eax
	subl	$1, %eax
	movl	%eax, PreviousQp2
.LBB22_27:                              # %if.end83
	movq	img, %rax
	movl	$0, 72572(%rax)
	movq	img, %rax
	movl	$0, 72576(%rax)
	movl	$0, NumberofBFrames
	cmpl	$85965833, -24(%rbp)    # imm = 0x51FBC09
	jne	.LBB22_29
.LBB22_28:
	addq	$32, %rsp
	popq	%rbp
	.cfi_def_cfa %rsp, 8
	retq
.LBB22_29:                              # %func_exit
	.cfi_def_cfa %rbp, 16
	callq	detect_breach
	jmp	.LBB22_28
.Lfunc_end22:
	.size	rc_init_GOP.6, .Lfunc_end22-rc_init_GOP.6
	.cfi_endproc
                                        # -- End function
	.section	.rodata.cst8,"aM",@progbits,8
	.p2align	3               # -- Begin function RCModelEstimator.7
.LCPI23_0:
	.quad	4517329193108106637     # double 9.9999999999999995E-7
.LCPI23_2:
	.quad	4607182418800017408     # double 1
	.section	.rodata.cst16,"aM",@progbits,16
	.p2align	4
.LCPI23_1:
	.quad	9223372036854775807     # double NaN
	.quad	9223372036854775807     # double NaN
	.text
	.globl	RCModelEstimator.7
	.p2align	4, 0x90
	.type	RCModelEstimator.7,@function
RCModelEstimator.7:                     # @RCModelEstimator.7
	.cfi_startproc
# %bb.0:                                # %entry
	pushq	%rbp
	.cfi_def_cfa_offset 16
	.cfi_offset %rbp, -16
	movq	%rsp, %rbp
	.cfi_def_cfa_register %rbp
	subq	$96, %rsp
	movl	$305711193, -84(%rbp)   # imm = 0x1238C859
	movl	%edi, -8(%rbp)
	movl	-8(%rbp), %eax
	movl	%eax, -12(%rbp)
	vxorps	%xmm0, %xmm0, %xmm0
	vmovsd	%xmm0, -32(%rbp)
	vmovsd	%xmm0, -40(%rbp)
	vmovsd	%xmm0, -72(%rbp)
	vmovsd	%xmm0, -64(%rbp)
	vmovsd	%xmm0, -24(%rbp)
	vmovsd	%xmm0, -56(%rbp)
	movl	$0, -44(%rbp)
	movl	$0, -4(%rbp)
.LBB23_1:                               # %for.cond
                                        # =>This Inner Loop Header: Depth=1
	movl	-4(%rbp), %eax
	cmpl	-8(%rbp), %eax
	jge	.LBB23_6
# %bb.2:                                # %for.body
                                        #   in Loop: Header=BB23_1 Depth=1
	movslq	-4(%rbp), %rax
	cmpl	$0, m_rgRejected(,%rax,4)
	je	.LBB23_4
# %bb.3:                                # %if.then
                                        #   in Loop: Header=BB23_1 Depth=1
	movl	-12(%rbp), %eax
	addl	$-1, %eax
	movl	%eax, -12(%rbp)
.LBB23_4:                               # %if.end
                                        #   in Loop: Header=BB23_1 Depth=1
	jmp	.LBB23_5
.LBB23_5:                               # %for.inc
                                        #   in Loop: Header=BB23_1 Depth=1
	movl	-4(%rbp), %eax
	addl	$1, %eax
	movl	%eax, -4(%rbp)
	jmp	.LBB23_1
.LBB23_6:                               # %for.end
	vxorps	%xmm0, %xmm0, %xmm0
	vmovsd	%xmm0, m_X2
	vmovsd	%xmm0, m_X1
	movl	$0, -4(%rbp)
.LBB23_7:                               # %for.cond1
                                        # =>This Inner Loop Header: Depth=1
	movl	-4(%rbp), %eax
	cmpl	-8(%rbp), %eax
	jge	.LBB23_12
# %bb.8:                                # %for.body3
                                        #   in Loop: Header=BB23_7 Depth=1
	movslq	-4(%rbp), %rax
	cmpl	$0, m_rgRejected(,%rax,4)
	jne	.LBB23_10
# %bb.9:                                # %if.then7
                                        #   in Loop: Header=BB23_7 Depth=1
	movslq	-4(%rbp), %rax
	vmovsd	m_rgQp(,%rax,8), %xmm0  # xmm0 = mem[0],zero
	vmovsd	%xmm0, -96(%rbp)
.LBB23_10:                              # %if.end10
                                        #   in Loop: Header=BB23_7 Depth=1
	jmp	.LBB23_11
.LBB23_11:                              # %for.inc11
                                        #   in Loop: Header=BB23_7 Depth=1
	movl	-4(%rbp), %eax
	addl	$1, %eax
	movl	%eax, -4(%rbp)
	jmp	.LBB23_7
.LBB23_12:                              # %for.end13
	movl	$0, -4(%rbp)
.LBB23_13:                              # %for.cond14
                                        # =>This Inner Loop Header: Depth=1
	movl	-4(%rbp), %eax
	cmpl	-8(%rbp), %eax
	jge	.LBB23_21
# %bb.14:                               # %for.body16
                                        #   in Loop: Header=BB23_13 Depth=1
	movslq	-4(%rbp), %rax
	vmovsd	m_rgQp(,%rax,8), %xmm0  # xmm0 = mem[0],zero
	vucomisd	-96(%rbp), %xmm0
	jne	.LBB23_15
	jp	.LBB23_15
	jmp	.LBB23_17
.LBB23_15:                              # %land.lhs.true
                                        #   in Loop: Header=BB23_13 Depth=1
	movslq	-4(%rbp), %rax
	cmpl	$0, m_rgRejected(,%rax,4)
	jne	.LBB23_17
# %bb.16:                               # %if.then23
                                        #   in Loop: Header=BB23_13 Depth=1
	movl	$1, -44(%rbp)
.LBB23_17:                              # %if.end24
                                        #   in Loop: Header=BB23_13 Depth=1
	movslq	-4(%rbp), %rax
	cmpl	$0, m_rgRejected(,%rax,4)
	jne	.LBB23_19
# %bb.18:                               # %if.then28
                                        #   in Loop: Header=BB23_13 Depth=1
	movslq	-4(%rbp), %rax
	vmovsd	m_rgQp(,%rax,8), %xmm0  # xmm0 = mem[0],zero
	movslq	-4(%rbp), %rax
	vmulsd	m_rgRp(,%rax,8), %xmm0, %xmm0
	vcvtsi2sdl	-12(%rbp), %xmm0, %xmm1
	vdivsd	%xmm1, %xmm0, %xmm0
	vaddsd	m_X1, %xmm0, %xmm0
	vmovsd	%xmm0, m_X1
.LBB23_19:                              # %if.end33
                                        #   in Loop: Header=BB23_13 Depth=1
	jmp	.LBB23_20
.LBB23_20:                              # %for.inc34
                                        #   in Loop: Header=BB23_13 Depth=1
	movl	-4(%rbp), %eax
	addl	$1, %eax
	movl	%eax, -4(%rbp)
	jmp	.LBB23_13
.LBB23_21:                              # %for.end36
	cmpl	$1, -12(%rbp)
	jl	.LBB23_33
# %bb.22:                               # %land.lhs.true39
	cmpl	$0, -44(%rbp)
	je	.LBB23_33
# %bb.23:                               # %if.then41
	movl	$0, -4(%rbp)
.LBB23_24:                              # %for.cond42
                                        # =>This Inner Loop Header: Depth=1
	movl	-4(%rbp), %eax
	cmpl	-8(%rbp), %eax
	jge	.LBB23_29
# %bb.25:                               # %for.body45
                                        #   in Loop: Header=BB23_24 Depth=1
	movslq	-4(%rbp), %rax
	cmpl	$0, m_rgRejected(,%rax,4)
	jne	.LBB23_27
# %bb.26:                               # %if.then49
                                        #   in Loop: Header=BB23_24 Depth=1
	vmovsd	.LCPI23_2(%rip), %xmm0  # xmm0 = mem[0],zero
	vaddsd	-32(%rbp), %xmm0, %xmm1
	vmovsd	%xmm1, -32(%rbp)
	movslq	-4(%rbp), %rax
	vdivsd	m_rgQp(,%rax,8), %xmm0, %xmm1
	vaddsd	-40(%rbp), %xmm1, %xmm1
	vmovsd	%xmm1, -40(%rbp)
	vmovsd	-40(%rbp), %xmm1        # xmm1 = mem[0],zero
	vmovsd	%xmm1, -72(%rbp)
	movslq	-4(%rbp), %rax
	vmovsd	m_rgQp(,%rax,8), %xmm1  # xmm1 = mem[0],zero
	movslq	-4(%rbp), %rax
	vmulsd	m_rgQp(,%rax,8), %xmm1, %xmm1
	vdivsd	%xmm1, %xmm0, %xmm0
	vaddsd	-64(%rbp), %xmm0, %xmm0
	vmovsd	%xmm0, -64(%rbp)
	movslq	-4(%rbp), %rax
	vmovsd	m_rgQp(,%rax,8), %xmm0  # xmm0 = mem[0],zero
	movslq	-4(%rbp), %rax
	vmulsd	m_rgRp(,%rax,8), %xmm0, %xmm0
	vaddsd	-24(%rbp), %xmm0, %xmm0
	vmovsd	%xmm0, -24(%rbp)
	movslq	-4(%rbp), %rax
	vmovsd	m_rgRp(,%rax,8), %xmm0  # xmm0 = mem[0],zero
	vaddsd	-56(%rbp), %xmm0, %xmm0
	vmovsd	%xmm0, -56(%rbp)
.LBB23_27:                              # %if.end71
                                        #   in Loop: Header=BB23_24 Depth=1
	jmp	.LBB23_28
.LBB23_28:                              # %for.inc72
                                        #   in Loop: Header=BB23_24 Depth=1
	movl	-4(%rbp), %eax
	addl	$1, %eax
	movl	%eax, -4(%rbp)
	jmp	.LBB23_24
.LBB23_29:                              # %for.end74
	vmovsd	.LCPI23_0(%rip), %xmm0  # xmm0 = mem[0],zero
	vmovsd	-32(%rbp), %xmm1        # xmm1 = mem[0],zero
	vmulsd	-64(%rbp), %xmm1, %xmm1
	vmovsd	-40(%rbp), %xmm2        # xmm2 = mem[0],zero
	vmulsd	-72(%rbp), %xmm2, %xmm2
	vsubsd	%xmm2, %xmm1, %xmm1
	vmovsd	%xmm1, -80(%rbp)
	vmovsd	-80(%rbp), %xmm1        # xmm1 = mem[0],zero
	vmovdqa	.LCPI23_1(%rip), %xmm2  # xmm2 = [NaN,NaN]
	vpand	%xmm2, %xmm1, %xmm1
	vucomisd	%xmm0, %xmm1
	jbe	.LBB23_31
# %bb.30:                               # %if.then79
	vmovsd	-24(%rbp), %xmm0        # xmm0 = mem[0],zero
	vmulsd	-64(%rbp), %xmm0, %xmm0
	vmovsd	-56(%rbp), %xmm1        # xmm1 = mem[0],zero
	vmulsd	-40(%rbp), %xmm1, %xmm1
	vsubsd	%xmm1, %xmm0, %xmm0
	vdivsd	-80(%rbp), %xmm0, %xmm0
	vmovsd	%xmm0, m_X1
	vmovsd	-56(%rbp), %xmm0        # xmm0 = mem[0],zero
	vmulsd	-32(%rbp), %xmm0, %xmm0
	vmovsd	-24(%rbp), %xmm1        # xmm1 = mem[0],zero
	vmulsd	-72(%rbp), %xmm1, %xmm1
	vsubsd	%xmm1, %xmm0, %xmm0
	vdivsd	-80(%rbp), %xmm0, %xmm0
	vmovsd	%xmm0, m_X2
	jmp	.LBB23_32
.LBB23_31:                              # %if.else
	vmovsd	-24(%rbp), %xmm0        # xmm0 = mem[0],zero
	vdivsd	-32(%rbp), %xmm0, %xmm0
	vmovsd	%xmm0, m_X1
	vxorps	%xmm0, %xmm0, %xmm0
	vmovsd	%xmm0, m_X2
.LBB23_32:                              # %if.end89
	jmp	.LBB23_33
.LBB23_33:                              # %if.end90
	movq	img, %rax
	cmpl	$0, 24(%rax)
	jne	.LBB23_35
# %bb.34:                               # %if.then93
	vmovsd	m_X1, %xmm0             # xmm0 = mem[0],zero
	vmovsd	%xmm0, Pm_X1
	vmovsd	m_X2, %xmm0             # xmm0 = mem[0],zero
	vmovsd	%xmm0, Pm_X2
.LBB23_35:                              # %if.end94
	cmpl	$305711193, -84(%rbp)   # imm = 0x1238C859
	jne	.LBB23_37
.LBB23_36:
	addq	$96, %rsp
	popq	%rbp
	.cfi_def_cfa %rsp, 8
	retq
.LBB23_37:                              # %func_exit
	.cfi_def_cfa %rbp, 16
	callq	detect_breach
	jmp	.LBB23_36
.Lfunc_end23:
	.size	RCModelEstimator.7, .Lfunc_end23-RCModelEstimator.7
	.cfi_endproc
                                        # -- End function
	.section	.rodata.cst8,"aM",@progbits,8
	.p2align	3               # -- Begin function rc_init_GOP.8
.LCPI24_0:
	.quad	4602678819172646912     # double 0.5
.LCPI24_1:
	.quad	4624633867356078080     # double 15
.LCPI24_2:
	.quad	4607182418800017408     # double 1
	.text
	.globl	rc_init_GOP.8
	.p2align	4, 0x90
	.type	rc_init_GOP.8,@function
rc_init_GOP.8:                          # @rc_init_GOP.8
	.cfi_startproc
# %bb.0:                                # %entry
	pushq	%rbp
	.cfi_def_cfa_offset 16
	.cfi_offset %rbp, -16
	movq	%rsp, %rbp
	.cfi_def_cfa_register %rbp
	subq	$32, %rsp
	movl	$226189514, -28(%rbp)   # imm = 0xD7B60CA
	movl	%edi, -4(%rbp)
	movl	%esi, -12(%rbp)
	movl	$0, -24(%rbp)
	cmpl	$0, R
	jge	.LBB24_2
# %bb.1:                                # %if.then
	movl	$1, -24(%rbp)
.LBB24_2:                               # %if.end
	vmovsd	.LCPI24_0(%rip), %xmm0  # xmm0 = mem[0],zero
	xorl	%eax, %eax
	subl	R, %eax
	movl	%eax, -20(%rbp)
	vcvtsi2sdl	R, %xmm0, %xmm1
	vmovsd	bit_rate, %xmm2         # xmm2 = mem[0],zero
	vdivsd	frame_rate, %xmm2, %xmm2
	vaddsd	%xmm2, %xmm1, %xmm1
	vcvttsd2si	%xmm1, %rax
	movq	%rax, LowerBound
	vcvtsi2sdl	R, %xmm0, %xmm1
	vaddsd	InitialDelayOffset, %xmm1, %xmm1
	vcvttsd2si	%xmm1, %rax
	movq	%rax, UpperBound1
	movl	-4(%rbp), %eax
	addl	$1, %eax
	addl	-12(%rbp), %eax
	vcvtsi2sd	%eax, %xmm0, %xmm1
	vmulsd	bit_rate, %xmm1, %xmm1
	vdivsd	frame_rate, %xmm1, %xmm1
	vaddsd	%xmm0, %xmm1, %xmm1
	vroundsd	$9, %xmm1, %xmm0, %xmm1
	vcvttsd2si	%xmm1, %eax
	movl	%eax, -16(%rbp)
	movl	-16(%rbp), %eax
	addl	R, %eax
	movl	%eax, R
	movl	-4(%rbp), %eax
	movl	%eax, Np
	movl	-12(%rbp), %eax
	movl	%eax, Nb
	movl	-20(%rbp), %eax
	shll	$3, %eax
	cltd
	idivl	-16(%rbp)
	vcvtsi2sd	%eax, %xmm0, %xmm1
	vaddsd	%xmm0, %xmm1, %xmm0
	vcvttsd2si	%xmm0, %eax
	movl	%eax, -32(%rbp)
	movl	$0, GOPOverdue
	movq	img, %rax
	movl	$1, 72612(%rax)
	movl	-4(%rbp), %eax
	movl	%eax, TotalPFrame
	movq	img, %rax
	movl	72568(%rax), %ecx
	addl	$1, %ecx
	movl	%ecx, 72568(%rax)
	movq	img, %rax
	cmpl	$1, 72568(%rax)
	jne	.LBB24_4
# %bb.3:                                # %if.then20
	movq	input, %rax
	movl	3244(%rax), %eax
	movl	%eax, MyInitialQp
	movl	MyInitialQp, %eax
	subl	$1, %eax
	movl	%eax, PreviousQp2
	movl	MyInitialQp, %eax
	movl	%eax, QPLastGOP
	jmp	.LBB24_27
.LBB24_4:                               # %if.else
	movq	input, %rax
	cmpl	$2, 2880(%rax)
	je	.LBB24_6
# %bb.5:                                # %lor.lhs.false
	movq	input, %rax
	cmpl	$0, 2884(%rax)
	je	.LBB24_10
.LBB24_6:                               # %if.then24
	movq	img, %rax
	cmpl	$1, 72604(%rax)
	jne	.LBB24_8
# %bb.7:                                # %if.then27
	movl	FrameQPBuffer, %eax
	movq	img, %rcx
	addl	72572(%rcx), %eax
	movl	%eax, 72572(%rcx)
	movl	FrameQPBuffer, %eax
	movl	%eax, QPLastPFrame
	jmp	.LBB24_9
.LBB24_8:                               # %if.else29
	movl	FieldQPBuffer, %eax
	movq	img, %rcx
	addl	72572(%rcx), %eax
	movl	%eax, 72572(%rcx)
	movl	FieldQPBuffer, %eax
	movl	%eax, QPLastPFrame
.LBB24_9:                               # %if.end32
	jmp	.LBB24_10
.LBB24_10:                              # %if.end33
	vmovsd	.LCPI24_0(%rip), %xmm0  # xmm0 = mem[0],zero
	vmovsd	.LCPI24_1(%rip), %xmm1  # xmm1 = mem[0],zero
	vmovsd	.LCPI24_2(%rip), %xmm2  # xmm2 = mem[0],zero
	movq	img, %rax
	vcvtsi2sdl	72572(%rax), %xmm0, %xmm3
	vmulsd	%xmm3, %xmm2, %xmm3
	movq	img, %rax
	vcvtsi2sdl	72576(%rax), %xmm0, %xmm4
	vdivsd	%xmm4, %xmm3, %xmm3
	vaddsd	%xmm0, %xmm3, %xmm3
	vcvttsd2si	%xmm3, %eax
	movl	%eax, PAverageQp
	movl	-4(%rbp), %eax
	addl	-12(%rbp), %eax
	addl	$1, %eax
	vcvtsi2sd	%eax, %xmm0, %xmm3
	vmulsd	%xmm3, %xmm2, %xmm2
	vdivsd	%xmm1, %xmm2, %xmm1
	vaddsd	%xmm1, %xmm0, %xmm0
	vcvttsd2si	%xmm0, %eax
	movl	%eax, -8(%rbp)
	cmpl	$2, -8(%rbp)
	jle	.LBB24_12
# %bb.11:                               # %if.then50
	movl	$2, -8(%rbp)
.LBB24_12:                              # %if.end51
	movl	-8(%rbp), %eax
	movl	PAverageQp, %ecx
	subl	%eax, %ecx
	movl	%ecx, PAverageQp
	movl	PAverageQp, %eax
	movl	QPLastPFrame, %ecx
	subl	$2, %ecx
	cmpl	%ecx, %eax
	jle	.LBB24_14
# %bb.13:                               # %if.then56
	movl	PAverageQp, %eax
	addl	$-1, %eax
	movl	%eax, PAverageQp
.LBB24_14:                              # %if.end57
	movl	QPLastGOP, %eax
	subl	$2, %eax
	cmpl	PAverageQp, %eax
	jge	.LBB24_16
# %bb.15:                               # %cond.true
	movl	PAverageQp, %eax
	jmp	.LBB24_17
.LBB24_16:                              # %cond.false
	movl	QPLastGOP, %eax
	subl	$2, %eax
.LBB24_17:                              # %cond.end
	movl	%eax, PAverageQp
	movl	QPLastGOP, %eax
	addl	$2, %eax
	cmpl	PAverageQp, %eax
	jge	.LBB24_19
# %bb.18:                               # %cond.true65
	movl	QPLastGOP, %eax
	addl	$2, %eax
	jmp	.LBB24_20
.LBB24_19:                              # %cond.false67
	movl	PAverageQp, %eax
.LBB24_20:                              # %cond.end68
	movl	%eax, PAverageQp
	movl	RC_MAX_QUANT, %eax
	cmpl	PAverageQp, %eax
	jge	.LBB24_22
# %bb.21:                               # %cond.true72
	movl	RC_MAX_QUANT, %eax
	jmp	.LBB24_23
.LBB24_22:                              # %cond.false73
	movl	PAverageQp, %eax
.LBB24_23:                              # %cond.end74
	movl	%eax, PAverageQp
	movl	RC_MIN_QUANT, %eax
	cmpl	PAverageQp, %eax
	jge	.LBB24_25
# %bb.24:                               # %cond.true78
	movl	PAverageQp, %eax
	jmp	.LBB24_26
.LBB24_25:                              # %cond.false79
	movl	RC_MIN_QUANT, %eax
.LBB24_26:                              # %cond.end80
	movl	%eax, PAverageQp
	movl	PAverageQp, %eax
	movl	%eax, MyInitialQp
	movl	MyInitialQp, %eax
	movl	%eax, QPLastGOP
	movl	PAverageQp, %eax
	movl	%eax, Pm_Qp
	movl	PAverageQp, %eax
	movl	%eax, PAveFrameQP
	movl	PreviousQp2, %eax
	movl	%eax, PreviousQp1
	movl	MyInitialQp, %eax
	subl	$1, %eax
	movl	%eax, PreviousQp2
.LBB24_27:                              # %if.end83
	movq	img, %rax
	movl	$0, 72572(%rax)
	movq	img, %rax
	movl	$0, 72576(%rax)
	movl	$0, NumberofBFrames
	cmpl	$226189514, -28(%rbp)   # imm = 0xD7B60CA
	jne	.LBB24_29
.LBB24_28:
	addq	$32, %rsp
	popq	%rbp
	.cfi_def_cfa %rsp, 8
	retq
.LBB24_29:                              # %func_exit
	.cfi_def_cfa %rbp, 16
	callq	detect_breach
	jmp	.LBB24_28
.Lfunc_end24:
	.size	rc_init_GOP.8, .Lfunc_end24-rc_init_GOP.8
	.cfi_endproc
                                        # -- End function
	.section	.rodata.cst8,"aM",@progbits,8
	.p2align	3               # -- Begin function MADModelEstimator.9
.LCPI25_0:
	.quad	4517329193108106637     # double 9.9999999999999995E-7
.LCPI25_2:
	.quad	4607182418800017408     # double 1
	.section	.rodata.cst16,"aM",@progbits,16
	.p2align	4
.LCPI25_1:
	.quad	9223372036854775807     # double NaN
	.quad	9223372036854775807     # double NaN
	.text
	.globl	MADModelEstimator.9
	.p2align	4, 0x90
	.type	MADModelEstimator.9,@function
MADModelEstimator.9:                    # @MADModelEstimator.9
	.cfi_startproc
# %bb.0:                                # %entry
	pushq	%rbp
	.cfi_def_cfa_offset 16
	.cfi_offset %rbp, -16
	movq	%rsp, %rbp
	.cfi_def_cfa_register %rbp
	subq	$96, %rsp
	movl	$2141154598, -84(%rbp)  # imm = 0x7F9F6D26
	movl	%edi, -8(%rbp)
	movl	-8(%rbp), %eax
	movl	%eax, -12(%rbp)
	vxorps	%xmm0, %xmm0, %xmm0
	vmovsd	%xmm0, -64(%rbp)
	vmovsd	%xmm0, -24(%rbp)
	vmovsd	%xmm0, -72(%rbp)
	vmovsd	%xmm0, -56(%rbp)
	vmovsd	%xmm0, -32(%rbp)
	vmovsd	%xmm0, -48(%rbp)
	movl	$0, -36(%rbp)
	movl	$0, -4(%rbp)
.LBB25_1:                               # %for.cond
                                        # =>This Inner Loop Header: Depth=1
	movl	-4(%rbp), %eax
	cmpl	-8(%rbp), %eax
	jge	.LBB25_6
# %bb.2:                                # %for.body
                                        #   in Loop: Header=BB25_1 Depth=1
	movslq	-4(%rbp), %rax
	cmpl	$0, PictureRejected(,%rax,4)
	je	.LBB25_4
# %bb.3:                                # %if.then
                                        #   in Loop: Header=BB25_1 Depth=1
	movl	-12(%rbp), %eax
	addl	$-1, %eax
	movl	%eax, -12(%rbp)
.LBB25_4:                               # %if.end
                                        #   in Loop: Header=BB25_1 Depth=1
	jmp	.LBB25_5
.LBB25_5:                               # %for.inc
                                        #   in Loop: Header=BB25_1 Depth=1
	movl	-4(%rbp), %eax
	addl	$1, %eax
	movl	%eax, -4(%rbp)
	jmp	.LBB25_1
.LBB25_6:                               # %for.end
	vxorps	%xmm0, %xmm0, %xmm0
	vmovsd	%xmm0, MADPictureC2
	vmovsd	%xmm0, MADPictureC1
	movl	$0, -4(%rbp)
.LBB25_7:                               # %for.cond1
                                        # =>This Inner Loop Header: Depth=1
	movl	-4(%rbp), %eax
	cmpl	-8(%rbp), %eax
	jge	.LBB25_12
# %bb.8:                                # %for.body3
                                        #   in Loop: Header=BB25_7 Depth=1
	movslq	-4(%rbp), %rax
	cmpl	$0, PictureRejected(,%rax,4)
	jne	.LBB25_10
# %bb.9:                                # %if.then7
                                        #   in Loop: Header=BB25_7 Depth=1
	movslq	-4(%rbp), %rax
	vmovsd	PictureMAD(,%rax,8), %xmm0 # xmm0 = mem[0],zero
	vmovsd	%xmm0, -96(%rbp)
.LBB25_10:                              # %if.end10
                                        #   in Loop: Header=BB25_7 Depth=1
	jmp	.LBB25_11
.LBB25_11:                              # %for.inc11
                                        #   in Loop: Header=BB25_7 Depth=1
	movl	-4(%rbp), %eax
	addl	$1, %eax
	movl	%eax, -4(%rbp)
	jmp	.LBB25_7
.LBB25_12:                              # %for.end13
	movl	$0, -4(%rbp)
.LBB25_13:                              # %for.cond14
                                        # =>This Inner Loop Header: Depth=1
	movl	-4(%rbp), %eax
	cmpl	-8(%rbp), %eax
	jge	.LBB25_21
# %bb.14:                               # %for.body16
                                        #   in Loop: Header=BB25_13 Depth=1
	movslq	-4(%rbp), %rax
	vmovsd	PictureMAD(,%rax,8), %xmm0 # xmm0 = mem[0],zero
	vucomisd	-96(%rbp), %xmm0
	jne	.LBB25_15
	jp	.LBB25_15
	jmp	.LBB25_17
.LBB25_15:                              # %land.lhs.true
                                        #   in Loop: Header=BB25_13 Depth=1
	movslq	-4(%rbp), %rax
	cmpl	$0, PictureRejected(,%rax,4)
	jne	.LBB25_17
# %bb.16:                               # %if.then23
                                        #   in Loop: Header=BB25_13 Depth=1
	movl	$1, -36(%rbp)
.LBB25_17:                              # %if.end24
                                        #   in Loop: Header=BB25_13 Depth=1
	movslq	-4(%rbp), %rax
	cmpl	$0, PictureRejected(,%rax,4)
	jne	.LBB25_19
# %bb.18:                               # %if.then28
                                        #   in Loop: Header=BB25_13 Depth=1
	movslq	-4(%rbp), %rax
	vmovsd	PictureMAD(,%rax,8), %xmm0 # xmm0 = mem[0],zero
	movslq	-4(%rbp), %rax
	vmovsd	ReferenceMAD(,%rax,8), %xmm1 # xmm1 = mem[0],zero
	vcvtsi2sdl	-12(%rbp), %xmm0, %xmm2
	vmulsd	%xmm2, %xmm1, %xmm1
	vdivsd	%xmm1, %xmm0, %xmm0
	vaddsd	MADPictureC1, %xmm0, %xmm0
	vmovsd	%xmm0, MADPictureC1
.LBB25_19:                              # %if.end33
                                        #   in Loop: Header=BB25_13 Depth=1
	jmp	.LBB25_20
.LBB25_20:                              # %for.inc34
                                        #   in Loop: Header=BB25_13 Depth=1
	movl	-4(%rbp), %eax
	addl	$1, %eax
	movl	%eax, -4(%rbp)
	jmp	.LBB25_13
.LBB25_21:                              # %for.end36
	cmpl	$1, -12(%rbp)
	jl	.LBB25_33
# %bb.22:                               # %land.lhs.true39
	cmpl	$0, -36(%rbp)
	je	.LBB25_33
# %bb.23:                               # %if.then41
	movl	$0, -4(%rbp)
.LBB25_24:                              # %for.cond42
                                        # =>This Inner Loop Header: Depth=1
	movl	-4(%rbp), %eax
	cmpl	-8(%rbp), %eax
	jge	.LBB25_29
# %bb.25:                               # %for.body45
                                        #   in Loop: Header=BB25_24 Depth=1
	movslq	-4(%rbp), %rax
	cmpl	$0, PictureRejected(,%rax,4)
	jne	.LBB25_27
# %bb.26:                               # %if.then49
                                        #   in Loop: Header=BB25_24 Depth=1
	vmovsd	.LCPI25_2(%rip), %xmm0  # xmm0 = mem[0],zero
	vaddsd	-64(%rbp), %xmm0, %xmm0
	vmovsd	%xmm0, -64(%rbp)
	movslq	-4(%rbp), %rax
	vmovsd	ReferenceMAD(,%rax,8), %xmm0 # xmm0 = mem[0],zero
	vaddsd	-24(%rbp), %xmm0, %xmm0
	vmovsd	%xmm0, -24(%rbp)
	vmovsd	-24(%rbp), %xmm0        # xmm0 = mem[0],zero
	vmovsd	%xmm0, -72(%rbp)
	movslq	-4(%rbp), %rax
	vmovsd	ReferenceMAD(,%rax,8), %xmm0 # xmm0 = mem[0],zero
	movslq	-4(%rbp), %rax
	vmulsd	ReferenceMAD(,%rax,8), %xmm0, %xmm0
	vaddsd	-56(%rbp), %xmm0, %xmm0
	vmovsd	%xmm0, -56(%rbp)
	movslq	-4(%rbp), %rax
	vmovsd	PictureMAD(,%rax,8), %xmm0 # xmm0 = mem[0],zero
	vaddsd	-32(%rbp), %xmm0, %xmm0
	vmovsd	%xmm0, -32(%rbp)
	movslq	-4(%rbp), %rax
	vmovsd	PictureMAD(,%rax,8), %xmm0 # xmm0 = mem[0],zero
	movslq	-4(%rbp), %rax
	vmulsd	ReferenceMAD(,%rax,8), %xmm0, %xmm0
	vaddsd	-48(%rbp), %xmm0, %xmm0
	vmovsd	%xmm0, -48(%rbp)
.LBB25_27:                              # %if.end69
                                        #   in Loop: Header=BB25_24 Depth=1
	jmp	.LBB25_28
.LBB25_28:                              # %for.inc70
                                        #   in Loop: Header=BB25_24 Depth=1
	movl	-4(%rbp), %eax
	addl	$1, %eax
	movl	%eax, -4(%rbp)
	jmp	.LBB25_24
.LBB25_29:                              # %for.end72
	vmovsd	.LCPI25_0(%rip), %xmm0  # xmm0 = mem[0],zero
	vmovsd	-64(%rbp), %xmm1        # xmm1 = mem[0],zero
	vmulsd	-56(%rbp), %xmm1, %xmm1
	vmovsd	-24(%rbp), %xmm2        # xmm2 = mem[0],zero
	vmulsd	-72(%rbp), %xmm2, %xmm2
	vsubsd	%xmm2, %xmm1, %xmm1
	vmovsd	%xmm1, -80(%rbp)
	vmovsd	-80(%rbp), %xmm1        # xmm1 = mem[0],zero
	vmovdqa	.LCPI25_1(%rip), %xmm2  # xmm2 = [NaN,NaN]
	vpand	%xmm2, %xmm1, %xmm1
	vucomisd	%xmm0, %xmm1
	jbe	.LBB25_31
# %bb.30:                               # %if.then77
	vmovsd	-32(%rbp), %xmm0        # xmm0 = mem[0],zero
	vmulsd	-56(%rbp), %xmm0, %xmm0
	vmovsd	-48(%rbp), %xmm1        # xmm1 = mem[0],zero
	vmulsd	-24(%rbp), %xmm1, %xmm1
	vsubsd	%xmm1, %xmm0, %xmm0
	vdivsd	-80(%rbp), %xmm0, %xmm0
	vmovsd	%xmm0, MADPictureC2
	vmovsd	-48(%rbp), %xmm0        # xmm0 = mem[0],zero
	vmulsd	-64(%rbp), %xmm0, %xmm0
	vmovsd	-32(%rbp), %xmm1        # xmm1 = mem[0],zero
	vmulsd	-72(%rbp), %xmm1, %xmm1
	vsubsd	%xmm1, %xmm0, %xmm0
	vdivsd	-80(%rbp), %xmm0, %xmm0
	vmovsd	%xmm0, MADPictureC1
	jmp	.LBB25_32
.LBB25_31:                              # %if.else
	vmovsd	-32(%rbp), %xmm0        # xmm0 = mem[0],zero
	vdivsd	-24(%rbp), %xmm0, %xmm0
	vmovsd	%xmm0, MADPictureC1
	vxorps	%xmm0, %xmm0, %xmm0
	vmovsd	%xmm0, MADPictureC2
.LBB25_32:                              # %if.end87
	jmp	.LBB25_33
.LBB25_33:                              # %if.end88
	movq	img, %rax
	cmpl	$0, 24(%rax)
	jne	.LBB25_35
# %bb.34:                               # %if.then91
	vmovsd	MADPictureC1, %xmm0     # xmm0 = mem[0],zero
	vmovsd	%xmm0, PMADPictureC1
	vmovsd	MADPictureC2, %xmm0     # xmm0 = mem[0],zero
	vmovsd	%xmm0, PMADPictureC2
.LBB25_35:                              # %if.end92
	cmpl	$2141154598, -84(%rbp)  # imm = 0x7F9F6D26
	jne	.LBB25_37
.LBB25_36:
	addq	$96, %rsp
	popq	%rbp
	.cfi_def_cfa %rsp, 8
	retq
.LBB25_37:                              # %func_exit
	.cfi_def_cfa %rbp, 16
	callq	detect_breach
	jmp	.LBB25_36
.Lfunc_end25:
	.size	MADModelEstimator.9, .Lfunc_end25-MADModelEstimator.9
	.cfi_endproc
                                        # -- End function
	.globl	ComputeFrameMAD.10      # -- Begin function ComputeFrameMAD.10
	.p2align	4, 0x90
	.type	ComputeFrameMAD.10,@function
ComputeFrameMAD.10:                     # @ComputeFrameMAD.10
	.cfi_startproc
# %bb.0:                                # %entry
	pushq	%rbp
	.cfi_def_cfa_offset 16
	.cfi_offset %rbp, -16
	movq	%rsp, %rbp
	.cfi_def_cfa_register %rbp
	subq	$32, %rsp
	movl	$1213689979, -20(%rbp)  # imm = 0x4857707B
	vxorps	%xmm0, %xmm0, %xmm0
	vmovsd	%xmm0, -16(%rbp)
	movl	$0, -4(%rbp)
.LBB26_1:                               # %for.cond
                                        # =>This Inner Loop Header: Depth=1
	movl	-4(%rbp), %eax
	movq	img, %rcx
	cmpl	72608(%rcx), %eax
	jge	.LBB26_4
# %bb.2:                                # %for.body
                                        #   in Loop: Header=BB26_1 Depth=1
	movq	img, %rax
	movq	72584(%rax), %rax
	movslq	-4(%rbp), %rcx
	vmovsd	(%rax,%rcx,8), %xmm0    # xmm0 = mem[0],zero
	vaddsd	-16(%rbp), %xmm0, %xmm0
	vmovsd	%xmm0, -16(%rbp)
# %bb.3:                                # %for.inc
                                        #   in Loop: Header=BB26_1 Depth=1
	movl	-4(%rbp), %eax
	addl	$1, %eax
	movl	%eax, -4(%rbp)
	jmp	.LBB26_1
.LBB26_4:                               # %for.end
	movq	img, %rax
	vcvtsi2sdl	72608(%rax), %xmm0, %xmm0
	vmovsd	-16(%rbp), %xmm1        # xmm1 = mem[0],zero
	vdivsd	%xmm0, %xmm1, %xmm0
	vmovsd	%xmm0, -16(%rbp)
	vmovsd	-16(%rbp), %xmm0        # xmm0 = mem[0],zero
	cmpl	$1213689979, -20(%rbp)  # imm = 0x4857707B
	jne	.LBB26_6
.LBB26_5:
	addq	$32, %rsp
	popq	%rbp
	.cfi_def_cfa %rsp, 8
	retq
.LBB26_6:                               # %func_exit
	.cfi_def_cfa %rbp, 16
	vmovsd	%xmm0, -32(%rbp)        # 8-byte Spill
	callq	detect_breach
	vmovsd	-32(%rbp), %xmm0        # 8-byte Reload
                                        # xmm0 = mem[0],zero
	jmp	.LBB26_5
.Lfunc_end26:
	.size	ComputeFrameMAD.10, .Lfunc_end26-ComputeFrameMAD.10
	.cfi_endproc
                                        # -- End function
	.globl	ComputeFrameMAD.11      # -- Begin function ComputeFrameMAD.11
	.p2align	4, 0x90
	.type	ComputeFrameMAD.11,@function
ComputeFrameMAD.11:                     # @ComputeFrameMAD.11
	.cfi_startproc
# %bb.0:                                # %entry
	pushq	%rbp
	.cfi_def_cfa_offset 16
	.cfi_offset %rbp, -16
	movq	%rsp, %rbp
	.cfi_def_cfa_register %rbp
	subq	$32, %rsp
	movl	$589433320, -20(%rbp)   # imm = 0x232209E8
	vxorps	%xmm0, %xmm0, %xmm0
	vmovsd	%xmm0, -16(%rbp)
	movl	$0, -4(%rbp)
.LBB27_1:                               # %for.cond
                                        # =>This Inner Loop Header: Depth=1
	movl	-4(%rbp), %eax
	movq	img, %rcx
	cmpl	72608(%rcx), %eax
	jge	.LBB27_4
# %bb.2:                                # %for.body
                                        #   in Loop: Header=BB27_1 Depth=1
	movq	img, %rax
	movq	72584(%rax), %rax
	movslq	-4(%rbp), %rcx
	vmovsd	(%rax,%rcx,8), %xmm0    # xmm0 = mem[0],zero
	vaddsd	-16(%rbp), %xmm0, %xmm0
	vmovsd	%xmm0, -16(%rbp)
# %bb.3:                                # %for.inc
                                        #   in Loop: Header=BB27_1 Depth=1
	movl	-4(%rbp), %eax
	addl	$1, %eax
	movl	%eax, -4(%rbp)
	jmp	.LBB27_1
.LBB27_4:                               # %for.end
	movq	img, %rax
	vcvtsi2sdl	72608(%rax), %xmm0, %xmm0
	vmovsd	-16(%rbp), %xmm1        # xmm1 = mem[0],zero
	vdivsd	%xmm0, %xmm1, %xmm0
	vmovsd	%xmm0, -16(%rbp)
	vmovsd	-16(%rbp), %xmm0        # xmm0 = mem[0],zero
	cmpl	$589433320, -20(%rbp)   # imm = 0x232209E8
	jne	.LBB27_6
.LBB27_5:
	addq	$32, %rsp
	popq	%rbp
	.cfi_def_cfa %rsp, 8
	retq
.LBB27_6:                               # %func_exit
	.cfi_def_cfa %rbp, 16
	vmovsd	%xmm0, -32(%rbp)        # 8-byte Spill
	callq	detect_breach
	vmovsd	-32(%rbp), %xmm0        # 8-byte Reload
                                        # xmm0 = mem[0],zero
	jmp	.LBB27_5
.Lfunc_end27:
	.size	ComputeFrameMAD.11, .Lfunc_end27-ComputeFrameMAD.11
	.cfi_endproc
                                        # -- End function
	.section	.rodata.cst8,"aM",@progbits,8
	.p2align	3               # -- Begin function RCModelEstimator.12
.LCPI28_0:
	.quad	4517329193108106637     # double 9.9999999999999995E-7
.LCPI28_2:
	.quad	4607182418800017408     # double 1
	.section	.rodata.cst16,"aM",@progbits,16
	.p2align	4
.LCPI28_1:
	.quad	9223372036854775807     # double NaN
	.quad	9223372036854775807     # double NaN
	.text
	.globl	RCModelEstimator.12
	.p2align	4, 0x90
	.type	RCModelEstimator.12,@function
RCModelEstimator.12:                    # @RCModelEstimator.12
	.cfi_startproc
# %bb.0:                                # %entry
	pushq	%rbp
	.cfi_def_cfa_offset 16
	.cfi_offset %rbp, -16
	movq	%rsp, %rbp
	.cfi_def_cfa_register %rbp
	subq	$96, %rsp
	movl	$2061413392, -84(%rbp)  # imm = 0x7ADEAC10
	movl	%edi, -8(%rbp)
	movl	-8(%rbp), %eax
	movl	%eax, -12(%rbp)
	vxorps	%xmm0, %xmm0, %xmm0
	vmovsd	%xmm0, -24(%rbp)
	vmovsd	%xmm0, -32(%rbp)
	vmovsd	%xmm0, -72(%rbp)
	vmovsd	%xmm0, -64(%rbp)
	vmovsd	%xmm0, -40(%rbp)
	vmovsd	%xmm0, -56(%rbp)
	movl	$0, -44(%rbp)
	movl	$0, -4(%rbp)
.LBB28_1:                               # %for.cond
                                        # =>This Inner Loop Header: Depth=1
	movl	-4(%rbp), %eax
	cmpl	-8(%rbp), %eax
	jge	.LBB28_6
# %bb.2:                                # %for.body
                                        #   in Loop: Header=BB28_1 Depth=1
	movslq	-4(%rbp), %rax
	cmpl	$0, m_rgRejected(,%rax,4)
	je	.LBB28_4
# %bb.3:                                # %if.then
                                        #   in Loop: Header=BB28_1 Depth=1
	movl	-12(%rbp), %eax
	addl	$-1, %eax
	movl	%eax, -12(%rbp)
.LBB28_4:                               # %if.end
                                        #   in Loop: Header=BB28_1 Depth=1
	jmp	.LBB28_5
.LBB28_5:                               # %for.inc
                                        #   in Loop: Header=BB28_1 Depth=1
	movl	-4(%rbp), %eax
	addl	$1, %eax
	movl	%eax, -4(%rbp)
	jmp	.LBB28_1
.LBB28_6:                               # %for.end
	vxorps	%xmm0, %xmm0, %xmm0
	vmovsd	%xmm0, m_X2
	vmovsd	%xmm0, m_X1
	movl	$0, -4(%rbp)
.LBB28_7:                               # %for.cond1
                                        # =>This Inner Loop Header: Depth=1
	movl	-4(%rbp), %eax
	cmpl	-8(%rbp), %eax
	jge	.LBB28_12
# %bb.8:                                # %for.body3
                                        #   in Loop: Header=BB28_7 Depth=1
	movslq	-4(%rbp), %rax
	cmpl	$0, m_rgRejected(,%rax,4)
	jne	.LBB28_10
# %bb.9:                                # %if.then7
                                        #   in Loop: Header=BB28_7 Depth=1
	movslq	-4(%rbp), %rax
	vmovsd	m_rgQp(,%rax,8), %xmm0  # xmm0 = mem[0],zero
	vmovsd	%xmm0, -96(%rbp)
.LBB28_10:                              # %if.end10
                                        #   in Loop: Header=BB28_7 Depth=1
	jmp	.LBB28_11
.LBB28_11:                              # %for.inc11
                                        #   in Loop: Header=BB28_7 Depth=1
	movl	-4(%rbp), %eax
	addl	$1, %eax
	movl	%eax, -4(%rbp)
	jmp	.LBB28_7
.LBB28_12:                              # %for.end13
	movl	$0, -4(%rbp)
.LBB28_13:                              # %for.cond14
                                        # =>This Inner Loop Header: Depth=1
	movl	-4(%rbp), %eax
	cmpl	-8(%rbp), %eax
	jge	.LBB28_21
# %bb.14:                               # %for.body16
                                        #   in Loop: Header=BB28_13 Depth=1
	movslq	-4(%rbp), %rax
	vmovsd	m_rgQp(,%rax,8), %xmm0  # xmm0 = mem[0],zero
	vucomisd	-96(%rbp), %xmm0
	jne	.LBB28_15
	jp	.LBB28_15
	jmp	.LBB28_17
.LBB28_15:                              # %land.lhs.true
                                        #   in Loop: Header=BB28_13 Depth=1
	movslq	-4(%rbp), %rax
	cmpl	$0, m_rgRejected(,%rax,4)
	jne	.LBB28_17
# %bb.16:                               # %if.then23
                                        #   in Loop: Header=BB28_13 Depth=1
	movl	$1, -44(%rbp)
.LBB28_17:                              # %if.end24
                                        #   in Loop: Header=BB28_13 Depth=1
	movslq	-4(%rbp), %rax
	cmpl	$0, m_rgRejected(,%rax,4)
	jne	.LBB28_19
# %bb.18:                               # %if.then28
                                        #   in Loop: Header=BB28_13 Depth=1
	movslq	-4(%rbp), %rax
	vmovsd	m_rgQp(,%rax,8), %xmm0  # xmm0 = mem[0],zero
	movslq	-4(%rbp), %rax
	vmulsd	m_rgRp(,%rax,8), %xmm0, %xmm0
	vcvtsi2sdl	-12(%rbp), %xmm0, %xmm1
	vdivsd	%xmm1, %xmm0, %xmm0
	vaddsd	m_X1, %xmm0, %xmm0
	vmovsd	%xmm0, m_X1
.LBB28_19:                              # %if.end33
                                        #   in Loop: Header=BB28_13 Depth=1
	jmp	.LBB28_20
.LBB28_20:                              # %for.inc34
                                        #   in Loop: Header=BB28_13 Depth=1
	movl	-4(%rbp), %eax
	addl	$1, %eax
	movl	%eax, -4(%rbp)
	jmp	.LBB28_13
.LBB28_21:                              # %for.end36
	cmpl	$1, -12(%rbp)
	jl	.LBB28_33
# %bb.22:                               # %land.lhs.true39
	cmpl	$0, -44(%rbp)
	je	.LBB28_33
# %bb.23:                               # %if.then41
	movl	$0, -4(%rbp)
.LBB28_24:                              # %for.cond42
                                        # =>This Inner Loop Header: Depth=1
	movl	-4(%rbp), %eax
	cmpl	-8(%rbp), %eax
	jge	.LBB28_29
# %bb.25:                               # %for.body45
                                        #   in Loop: Header=BB28_24 Depth=1
	movslq	-4(%rbp), %rax
	cmpl	$0, m_rgRejected(,%rax,4)
	jne	.LBB28_27
# %bb.26:                               # %if.then49
                                        #   in Loop: Header=BB28_24 Depth=1
	vmovsd	.LCPI28_2(%rip), %xmm0  # xmm0 = mem[0],zero
	vaddsd	-24(%rbp), %xmm0, %xmm1
	vmovsd	%xmm1, -24(%rbp)
	movslq	-4(%rbp), %rax
	vdivsd	m_rgQp(,%rax,8), %xmm0, %xmm1
	vaddsd	-32(%rbp), %xmm1, %xmm1
	vmovsd	%xmm1, -32(%rbp)
	vmovsd	-32(%rbp), %xmm1        # xmm1 = mem[0],zero
	vmovsd	%xmm1, -72(%rbp)
	movslq	-4(%rbp), %rax
	vmovsd	m_rgQp(,%rax,8), %xmm1  # xmm1 = mem[0],zero
	movslq	-4(%rbp), %rax
	vmulsd	m_rgQp(,%rax,8), %xmm1, %xmm1
	vdivsd	%xmm1, %xmm0, %xmm0
	vaddsd	-64(%rbp), %xmm0, %xmm0
	vmovsd	%xmm0, -64(%rbp)
	movslq	-4(%rbp), %rax
	vmovsd	m_rgQp(,%rax,8), %xmm0  # xmm0 = mem[0],zero
	movslq	-4(%rbp), %rax
	vmulsd	m_rgRp(,%rax,8), %xmm0, %xmm0
	vaddsd	-40(%rbp), %xmm0, %xmm0
	vmovsd	%xmm0, -40(%rbp)
	movslq	-4(%rbp), %rax
	vmovsd	m_rgRp(,%rax,8), %xmm0  # xmm0 = mem[0],zero
	vaddsd	-56(%rbp), %xmm0, %xmm0
	vmovsd	%xmm0, -56(%rbp)
.LBB28_27:                              # %if.end71
                                        #   in Loop: Header=BB28_24 Depth=1
	jmp	.LBB28_28
.LBB28_28:                              # %for.inc72
                                        #   in Loop: Header=BB28_24 Depth=1
	movl	-4(%rbp), %eax
	addl	$1, %eax
	movl	%eax, -4(%rbp)
	jmp	.LBB28_24
.LBB28_29:                              # %for.end74
	vmovsd	.LCPI28_0(%rip), %xmm0  # xmm0 = mem[0],zero
	vmovsd	-24(%rbp), %xmm1        # xmm1 = mem[0],zero
	vmulsd	-64(%rbp), %xmm1, %xmm1
	vmovsd	-32(%rbp), %xmm2        # xmm2 = mem[0],zero
	vmulsd	-72(%rbp), %xmm2, %xmm2
	vsubsd	%xmm2, %xmm1, %xmm1
	vmovsd	%xmm1, -80(%rbp)
	vmovsd	-80(%rbp), %xmm1        # xmm1 = mem[0],zero
	vmovdqa	.LCPI28_1(%rip), %xmm2  # xmm2 = [NaN,NaN]
	vpand	%xmm2, %xmm1, %xmm1
	vucomisd	%xmm0, %xmm1
	jbe	.LBB28_31
# %bb.30:                               # %if.then79
	vmovsd	-40(%rbp), %xmm0        # xmm0 = mem[0],zero
	vmulsd	-64(%rbp), %xmm0, %xmm0
	vmovsd	-56(%rbp), %xmm1        # xmm1 = mem[0],zero
	vmulsd	-32(%rbp), %xmm1, %xmm1
	vsubsd	%xmm1, %xmm0, %xmm0
	vdivsd	-80(%rbp), %xmm0, %xmm0
	vmovsd	%xmm0, m_X1
	vmovsd	-56(%rbp), %xmm0        # xmm0 = mem[0],zero
	vmulsd	-24(%rbp), %xmm0, %xmm0
	vmovsd	-40(%rbp), %xmm1        # xmm1 = mem[0],zero
	vmulsd	-72(%rbp), %xmm1, %xmm1
	vsubsd	%xmm1, %xmm0, %xmm0
	vdivsd	-80(%rbp), %xmm0, %xmm0
	vmovsd	%xmm0, m_X2
	jmp	.LBB28_32
.LBB28_31:                              # %if.else
	vmovsd	-40(%rbp), %xmm0        # xmm0 = mem[0],zero
	vdivsd	-24(%rbp), %xmm0, %xmm0
	vmovsd	%xmm0, m_X1
	vxorps	%xmm0, %xmm0, %xmm0
	vmovsd	%xmm0, m_X2
.LBB28_32:                              # %if.end89
	jmp	.LBB28_33
.LBB28_33:                              # %if.end90
	movq	img, %rax
	cmpl	$0, 24(%rax)
	jne	.LBB28_35
# %bb.34:                               # %if.then93
	vmovsd	m_X1, %xmm0             # xmm0 = mem[0],zero
	vmovsd	%xmm0, Pm_X1
	vmovsd	m_X2, %xmm0             # xmm0 = mem[0],zero
	vmovsd	%xmm0, Pm_X2
.LBB28_35:                              # %if.end94
	cmpl	$2061413392, -84(%rbp)  # imm = 0x7ADEAC10
	jne	.LBB28_37
.LBB28_36:
	addq	$96, %rsp
	popq	%rbp
	.cfi_def_cfa %rsp, 8
	retq
.LBB28_37:                              # %func_exit
	.cfi_def_cfa %rbp, 16
	callq	detect_breach
	jmp	.LBB28_36
.Lfunc_end28:
	.size	RCModelEstimator.12, .Lfunc_end28-RCModelEstimator.12
	.cfi_endproc
                                        # -- End function
	.section	.rodata.cst8,"aM",@progbits,8
	.p2align	3               # -- Begin function rc_init_pict.13
.LCPI29_0:
	.quad	4609434218613702656     # double 1.5
.LCPI29_1:
	.quad	4602678819172646912     # double 0.5
.LCPI29_2:
	.quad	4620693217682128896     # double 8
.LCPI29_3:
	.quad	4619567317775286272     # double 7
.LCPI29_4:
	.quad	4607182418800017408     # double 1
.LCPI29_5:
	.quad	4603579539098121011     # double 0.59999999999999998
	.text
	.globl	rc_init_pict.13
	.p2align	4, 0x90
	.type	rc_init_pict.13,@function
rc_init_pict.13:                        # @rc_init_pict.13
	.cfi_startproc
# %bb.0:                                # %entry
	pushq	%rbp
	.cfi_def_cfa_offset 16
	.cfi_offset %rbp, -16
	movq	%rsp, %rbp
	.cfi_def_cfa_register %rbp
	subq	$32, %rsp
	movl	$1856077662, -20(%rbp)  # imm = 0x6EA17F5E
	movl	%edi, -12(%rbp)
	movl	%esi, -8(%rbp)
	movl	%edx, -16(%rbp)
	movq	input, %rax
	cmpl	$0, 2884(%rax)
	je	.LBB29_2
# %bb.1:                                # %if.then
	movq	img, %rax
	movl	72608(%rax), %eax
	movq	img, %rcx
	cltd
	idivl	72620(%rcx)
	movl	%eax, TotalNumberofBasicUnit
.LBB29_2:                               # %if.end
	movq	img, %rax
	movl	$0, 72616(%rax)
	movq	input, %rax
	cmpl	$1, 3252(%rax)
	jne	.LBB29_9
# %bb.3:                                # %if.then1
	movq	img, %rax
	cmpl	$58, 72564(%rax)
	jne	.LBB29_5
# %bb.4:                                # %if.then3
	vmovsd	.LCPI29_0(%rip), %xmm0  # xmm0 = mem[0],zero
	vmulsd	bit_rate, %xmm0, %xmm0
	vmovsd	%xmm0, bit_rate
	jmp	.LBB29_8
.LBB29_5:                               # %if.else
	movq	img, %rax
	cmpl	$59, 72564(%rax)
	jne	.LBB29_7
# %bb.6:                                # %if.then6
	vmovsd	bit_rate, %xmm0         # xmm0 = mem[0],zero
	vmovsd	%xmm0, PreviousBit_Rate
.LBB29_7:                               # %if.end7
	jmp	.LBB29_8
.LBB29_8:                               # %if.end8
	jmp	.LBB29_9
.LBB29_9:                               # %if.end9
	cmpl	$0, -12(%rbp)
	jne	.LBB29_11
# %bb.10:                               # %lor.lhs.false
	cmpl	$0, -8(%rbp)
	je	.LBB29_111
.LBB29_11:                              # %land.lhs.true
	cmpl	$0, -16(%rbp)
	je	.LBB29_111
# %bb.12:                               # %if.then13
	movq	img(%rip), %rax
	movl	24(%rax), %eax
	testl	%eax, %eax
	je	.LBB29_14
	jmp	.LBB29_13
.LBB29_13:                              # %if.then13
	subl	$1, %eax
	je	.LBB29_65
	jmp	.LBB29_77
.LBB29_14:                              # %sw.bb
	vmovsd	PreviousBit_Rate, %xmm0 # xmm0 = mem[0],zero
	vucomisd	bit_rate, %xmm0
	jne	.LBB29_15
	jp	.LBB29_15
	jmp	.LBB29_16
.LBB29_15:                              # %if.then15
	vmovsd	.LCPI29_1(%rip), %xmm0  # xmm0 = mem[0],zero
	vmovsd	bit_rate, %xmm1         # xmm1 = mem[0],zero
	vsubsd	PreviousBit_Rate, %xmm1, %xmm1
	movl	Np, %eax
	addl	Nb, %eax
	vcvtsi2sd	%eax, %xmm0, %xmm2
	vmulsd	%xmm2, %xmm1, %xmm1
	vdivsd	frame_rate, %xmm1, %xmm1
	vaddsd	%xmm0, %xmm1, %xmm0
	vroundsd	$9, %xmm0, %xmm0, %xmm0
	vcvttsd2si	%xmm0, %eax
	addl	R, %eax
	movl	%eax, R
.LBB29_16:                              # %if.end21
	movq	img, %rax
	movl	72620(%rax), %eax
	movq	img, %rcx
	cmpl	72608(%rcx), %eax
	jne	.LBB29_23
# %bb.17:                               # %if.then26
	movq	img, %rax
	cmpl	$1, 72576(%rax)
	jne	.LBB29_19
# %bb.18:                               # %if.then29
	vmovsd	CurrentBufferFullness, %xmm0 # xmm0 = mem[0],zero
	vmovsd	%xmm0, TargetBufferLevel
	vmovsd	CurrentBufferFullness, %xmm0 # xmm0 = mem[0],zero
	vsubsd	GOPTargetBufferLevel, %xmm0, %xmm0
	movl	TotalPFrame, %eax
	subl	$1, %eax
	vcvtsi2sd	%eax, %xmm0, %xmm1
	vdivsd	%xmm1, %xmm0, %xmm0
	vmovsd	%xmm0, DeltaP
	vmovsd	DeltaP, %xmm0           # xmm0 = mem[0],zero
	vmovsd	TargetBufferLevel, %xmm1 # xmm1 = mem[0],zero
	vsubsd	%xmm0, %xmm1, %xmm0
	vmovsd	%xmm0, TargetBufferLevel
	jmp	.LBB29_22
.LBB29_19:                              # %if.else35
	movq	img, %rax
	cmpl	$1, 72576(%rax)
	jle	.LBB29_21
# %bb.20:                               # %if.then39
	vmovsd	DeltaP, %xmm0           # xmm0 = mem[0],zero
	vmovsd	TargetBufferLevel, %xmm1 # xmm1 = mem[0],zero
	vsubsd	%xmm0, %xmm1, %xmm0
	vmovsd	%xmm0, TargetBufferLevel
.LBB29_21:                              # %if.end41
	jmp	.LBB29_22
.LBB29_22:                              # %if.end42
	jmp	.LBB29_54
.LBB29_23:                              # %if.else43
	movq	img, %rax
	cmpl	$0, 72564(%rax)
	jle	.LBB29_38
# %bb.24:                               # %if.then47
	movq	input, %rax
	cmpl	$2, 2880(%rax)
	je	.LBB29_26
# %bb.25:                               # %lor.lhs.false50
	movq	input, %rax
	cmpl	$0, 2884(%rax)
	je	.LBB29_32
.LBB29_26:                              # %land.lhs.true53
	movq	img, %rax
	cmpl	$1, 72600(%rax)
	jne	.LBB29_32
# %bb.27:                               # %if.then56
	movl	$0, -4(%rbp)
.LBB29_28:                              # %for.cond
                                        # =>This Inner Loop Header: Depth=1
	movl	-4(%rbp), %eax
	cmpl	TotalNumberofBasicUnit, %eax
	jge	.LBB29_31
# %bb.29:                               # %for.body
                                        #   in Loop: Header=BB29_28 Depth=1
	movq	FCBUCFMAD, %rax
	movslq	-4(%rbp), %rcx
	vmovsd	(%rax,%rcx,8), %xmm0    # xmm0 = mem[0],zero
	movq	FCBUPFMAD, %rax
	movslq	-4(%rbp), %rcx
	vmovsd	%xmm0, (%rax,%rcx,8)
# %bb.30:                               # %for.inc
                                        #   in Loop: Header=BB29_28 Depth=1
	movl	-4(%rbp), %eax
	addl	$1, %eax
	movl	%eax, -4(%rbp)
	jmp	.LBB29_28
.LBB29_31:                              # %for.end
	jmp	.LBB29_37
.LBB29_32:                              # %if.else61
	movl	$0, -4(%rbp)
.LBB29_33:                              # %for.cond62
                                        # =>This Inner Loop Header: Depth=1
	movl	-4(%rbp), %eax
	cmpl	TotalNumberofBasicUnit, %eax
	jge	.LBB29_36
# %bb.34:                               # %for.body65
                                        #   in Loop: Header=BB29_33 Depth=1
	movq	BUCFMAD, %rax
	movslq	-4(%rbp), %rcx
	vmovsd	(%rax,%rcx,8), %xmm0    # xmm0 = mem[0],zero
	movq	BUPFMAD, %rax
	movslq	-4(%rbp), %rcx
	vmovsd	%xmm0, (%rax,%rcx,8)
# %bb.35:                               # %for.inc70
                                        #   in Loop: Header=BB29_33 Depth=1
	movl	-4(%rbp), %eax
	addl	$1, %eax
	movl	%eax, -4(%rbp)
	jmp	.LBB29_33
.LBB29_36:                              # %for.end72
	jmp	.LBB29_37
.LBB29_37:                              # %if.end73
	jmp	.LBB29_38
.LBB29_38:                              # %if.end74
	movq	img, %rax
	cmpl	$1, 72568(%rax)
	jne	.LBB29_45
# %bb.39:                               # %if.then77
	movq	img, %rax
	cmpl	$1, 72576(%rax)
	jne	.LBB29_41
# %bb.40:                               # %if.then81
	vmovsd	CurrentBufferFullness, %xmm0 # xmm0 = mem[0],zero
	vmovsd	%xmm0, TargetBufferLevel
	vmovsd	CurrentBufferFullness, %xmm0 # xmm0 = mem[0],zero
	vsubsd	GOPTargetBufferLevel, %xmm0, %xmm0
	movl	TotalPFrame, %eax
	subl	$1, %eax
	vcvtsi2sd	%eax, %xmm0, %xmm1
	vdivsd	%xmm1, %xmm0, %xmm0
	vmovsd	%xmm0, DeltaP
	vmovsd	DeltaP, %xmm0           # xmm0 = mem[0],zero
	vmovsd	TargetBufferLevel, %xmm1 # xmm1 = mem[0],zero
	vsubsd	%xmm0, %xmm1, %xmm0
	vmovsd	%xmm0, TargetBufferLevel
	jmp	.LBB29_44
.LBB29_41:                              # %if.else87
	movq	img, %rax
	cmpl	$1, 72576(%rax)
	jle	.LBB29_43
# %bb.42:                               # %if.then91
	vmovsd	DeltaP, %xmm0           # xmm0 = mem[0],zero
	vmovsd	TargetBufferLevel, %xmm1 # xmm1 = mem[0],zero
	vsubsd	%xmm0, %xmm1, %xmm0
	vmovsd	%xmm0, TargetBufferLevel
.LBB29_43:                              # %if.end93
	jmp	.LBB29_44
.LBB29_44:                              # %if.end94
	jmp	.LBB29_53
.LBB29_45:                              # %if.else95
	movq	img, %rax
	cmpl	$1, 72568(%rax)
	jle	.LBB29_52
# %bb.46:                               # %if.then99
	movq	img, %rax
	cmpl	$0, 72576(%rax)
	jne	.LBB29_48
# %bb.47:                               # %if.then103
	vmovsd	CurrentBufferFullness, %xmm0 # xmm0 = mem[0],zero
	vmovsd	%xmm0, TargetBufferLevel
	vmovsd	CurrentBufferFullness, %xmm0 # xmm0 = mem[0],zero
	vsubsd	GOPTargetBufferLevel, %xmm0, %xmm0
	vcvtsi2sdl	TotalPFrame, %xmm0, %xmm1
	vdivsd	%xmm1, %xmm0, %xmm0
	vmovsd	%xmm0, DeltaP
	vmovsd	DeltaP, %xmm0           # xmm0 = mem[0],zero
	vmovsd	TargetBufferLevel, %xmm1 # xmm1 = mem[0],zero
	vsubsd	%xmm0, %xmm1, %xmm0
	vmovsd	%xmm0, TargetBufferLevel
	jmp	.LBB29_51
.LBB29_48:                              # %if.else108
	movq	img, %rax
	cmpl	$0, 72576(%rax)
	jle	.LBB29_50
# %bb.49:                               # %if.then112
	vmovsd	DeltaP, %xmm0           # xmm0 = mem[0],zero
	vmovsd	TargetBufferLevel, %xmm1 # xmm1 = mem[0],zero
	vsubsd	%xmm0, %xmm1, %xmm0
	vmovsd	%xmm0, TargetBufferLevel
.LBB29_50:                              # %if.end114
	jmp	.LBB29_51
.LBB29_51:                              # %if.end115
	jmp	.LBB29_52
.LBB29_52:                              # %if.end116
	jmp	.LBB29_53
.LBB29_53:                              # %if.end117
	jmp	.LBB29_54
.LBB29_54:                              # %if.end118
	movq	img, %rax
	cmpl	$1, 72564(%rax)
	jne	.LBB29_56
# %bb.55:                               # %if.then122
	vmovsd	Wp, %xmm0               # xmm0 = mem[0],zero
	vmovsd	%xmm0, AWp
.LBB29_56:                              # %if.end123
	movq	img, %rax
	cmpl	$8, 72564(%rax)
	jge	.LBB29_59
# %bb.57:                               # %land.lhs.true127
	movq	img, %rax
	cmpl	$1, 72564(%rax)
	jle	.LBB29_59
# %bb.58:                               # %if.then131
	vmovsd	Wp, %xmm0               # xmm0 = mem[0],zero
	movq	img, %rax
	movl	72564(%rax), %eax
	subl	$1, %eax
	vcvtsi2sd	%eax, %xmm0, %xmm1
	vmulsd	%xmm1, %xmm0, %xmm0
	movq	img, %rax
	vcvtsi2sdl	72564(%rax), %xmm0, %xmm1
	vdivsd	%xmm1, %xmm0, %xmm0
	vmovsd	AWp, %xmm1              # xmm1 = mem[0],zero
	movq	img, %rax
	vcvtsi2sdl	72564(%rax), %xmm0, %xmm2
	vdivsd	%xmm2, %xmm1, %xmm1
	vaddsd	%xmm1, %xmm0, %xmm0
	vmovsd	%xmm0, AWp
	jmp	.LBB29_62
.LBB29_59:                              # %if.else143
	movq	img, %rax
	cmpl	$1, 72564(%rax)
	jle	.LBB29_61
# %bb.60:                               # %if.then147
	vmovsd	.LCPI29_2(%rip), %xmm0  # xmm0 = mem[0],zero
	vmovsd	.LCPI29_3(%rip), %xmm1  # xmm1 = mem[0],zero
	vmovsd	Wp, %xmm2               # xmm2 = mem[0],zero
	vdivsd	%xmm0, %xmm2, %xmm2
	vmulsd	AWp, %xmm1, %xmm1
	vdivsd	%xmm0, %xmm1, %xmm0
	vaddsd	%xmm0, %xmm2, %xmm0
	vmovsd	%xmm0, AWp
.LBB29_61:                              # %if.end152
	jmp	.LBB29_62
.LBB29_62:                              # %if.end153
	movq	input, %rax
	cmpl	$0, 1236(%rax)
	jle	.LBB29_64
# %bb.63:                               # %if.then156
	vmovsd	AWp, %xmm0              # xmm0 = mem[0],zero
	movq	input, %rax
	movl	1236(%rax), %eax
	addl	$1, %eax
	vcvtsi2sd	%eax, %xmm0, %xmm1
	vmulsd	%xmm1, %xmm0, %xmm0
	vmulsd	bit_rate, %xmm0, %xmm0
	vmovsd	frame_rate, %xmm1       # xmm1 = mem[0],zero
	vmovsd	AWp, %xmm2              # xmm2 = mem[0],zero
	vmovsd	AWb, %xmm3              # xmm3 = mem[0],zero
	movq	input, %rax
	vcvtsi2sdl	1236(%rax), %xmm0, %xmm4
	vmulsd	%xmm4, %xmm3, %xmm3
	vaddsd	%xmm3, %xmm2, %xmm2
	vmulsd	%xmm2, %xmm1, %xmm1
	vdivsd	%xmm1, %xmm0, %xmm0
	vmovsd	bit_rate, %xmm1         # xmm1 = mem[0],zero
	vdivsd	frame_rate, %xmm1, %xmm1
	vsubsd	%xmm1, %xmm0, %xmm0
	vaddsd	TargetBufferLevel, %xmm0, %xmm0
	vmovsd	%xmm0, TargetBufferLevel
.LBB29_64:                              # %if.end171
	jmp	.LBB29_77
.LBB29_65:                              # %sw.bb172
	vmovsd	PreviousBit_Rate, %xmm0 # xmm0 = mem[0],zero
	vucomisd	bit_rate, %xmm0
	jne	.LBB29_66
	jp	.LBB29_66
	jmp	.LBB29_67
.LBB29_66:                              # %if.then175
	vmovsd	.LCPI29_1(%rip), %xmm0  # xmm0 = mem[0],zero
	vmovsd	bit_rate, %xmm1         # xmm1 = mem[0],zero
	vsubsd	PreviousBit_Rate, %xmm1, %xmm1
	movl	Np, %eax
	addl	Nb, %eax
	vcvtsi2sd	%eax, %xmm0, %xmm2
	vmulsd	%xmm2, %xmm1, %xmm1
	vdivsd	frame_rate, %xmm1, %xmm1
	vaddsd	%xmm0, %xmm1, %xmm0
	vroundsd	$9, %xmm0, %xmm0, %xmm0
	vcvttsd2si	%xmm0, %eax
	addl	R, %eax
	movl	%eax, R
.LBB29_67:                              # %if.end184
	movq	img, %rax
	cmpl	$1, 72564(%rax)
	jne	.LBB29_70
# %bb.68:                               # %land.lhs.true188
	movq	img, %rax
	cmpl	$1, 72560(%rax)
	jne	.LBB29_70
# %bb.69:                               # %if.then191
	vmovsd	Wp, %xmm0               # xmm0 = mem[0],zero
	vmovsd	%xmm0, AWp
	vmovsd	Wb, %xmm0               # xmm0 = mem[0],zero
	vmovsd	%xmm0, AWb
	jmp	.LBB29_76
.LBB29_70:                              # %if.else192
	movq	img, %rax
	cmpl	$1, 72560(%rax)
	jle	.LBB29_75
# %bb.71:                               # %if.then196
	movq	img, %rax
	cmpl	$8, 72560(%rax)
	jge	.LBB29_73
# %bb.72:                               # %if.then200
	vmovsd	Wb, %xmm0               # xmm0 = mem[0],zero
	movq	img, %rax
	movl	72560(%rax), %eax
	subl	$1, %eax
	vcvtsi2sd	%eax, %xmm0, %xmm1
	vmulsd	%xmm1, %xmm0, %xmm0
	movq	img, %rax
	vcvtsi2sdl	72560(%rax), %xmm0, %xmm1
	vdivsd	%xmm1, %xmm0, %xmm0
	vmovsd	AWb, %xmm1              # xmm1 = mem[0],zero
	movq	img, %rax
	vcvtsi2sdl	72560(%rax), %xmm0, %xmm2
	vdivsd	%xmm2, %xmm1, %xmm1
	vaddsd	%xmm1, %xmm0, %xmm0
	vmovsd	%xmm0, AWb
	jmp	.LBB29_74
.LBB29_73:                              # %if.else212
	vmovsd	.LCPI29_2(%rip), %xmm0  # xmm0 = mem[0],zero
	vmovsd	.LCPI29_3(%rip), %xmm1  # xmm1 = mem[0],zero
	vmovsd	Wb, %xmm2               # xmm2 = mem[0],zero
	vdivsd	%xmm0, %xmm2, %xmm2
	vmulsd	AWb, %xmm1, %xmm1
	vdivsd	%xmm0, %xmm1, %xmm0
	vaddsd	%xmm0, %xmm2, %xmm0
	vmovsd	%xmm0, AWb
.LBB29_74:                              # %if.end217
	jmp	.LBB29_75
.LBB29_75:                              # %if.end218
	jmp	.LBB29_76
.LBB29_76:                              # %if.end219
	jmp	.LBB29_77
.LBB29_77:                              # %sw.epilog
	movq	img, %rax
	cmpl	$0, 24(%rax)
	jne	.LBB29_110
# %bb.78:                               # %if.then223
	movq	img, %rax
	movl	72620(%rax), %eax
	movq	img, %rcx
	cmpl	72608(%rcx), %eax
	jne	.LBB29_85
# %bb.79:                               # %if.then228
	movq	img, %rax
	cmpl	$0, 72564(%rax)
	jle	.LBB29_84
# %bb.80:                               # %if.then232
	xorl	%eax, %eax
	vmovsd	.LCPI29_1(%rip), %xmm0  # xmm0 = mem[0],zero
	vmovsd	Wp, %xmm1               # xmm1 = mem[0],zero
	vcvtsi2sdl	R, %xmm0, %xmm2
	vmulsd	%xmm2, %xmm1, %xmm1
	vcvtsi2sdl	Np, %xmm0, %xmm2
	vmulsd	Wp, %xmm2, %xmm2
	vcvtsi2sdl	Nb, %xmm0, %xmm3
	vmulsd	Wb, %xmm3, %xmm3
	vaddsd	%xmm3, %xmm2, %xmm2
	vdivsd	%xmm2, %xmm1, %xmm1
	vaddsd	%xmm0, %xmm1, %xmm1
	vroundsd	$9, %xmm1, %xmm0, %xmm1
	vcvttsd2si	%xmm1, %rcx
	movq	%rcx, T
	vmovsd	bit_rate, %xmm1         # xmm1 = mem[0],zero
	vdivsd	frame_rate, %xmm1, %xmm1
	vmovsd	GAMMAP, %xmm2           # xmm2 = mem[0],zero
	vmovsd	CurrentBufferFullness, %xmm3 # xmm3 = mem[0],zero
	vsubsd	TargetBufferLevel, %xmm3, %xmm3
	vmulsd	%xmm3, %xmm2, %xmm2
	vsubsd	%xmm2, %xmm1, %xmm1
	vaddsd	%xmm0, %xmm1, %xmm0
	vroundsd	$9, %xmm0, %xmm0, %xmm0
	vcvttsd2si	%xmm0, %rcx
	movq	%rcx, T1
	cmpq	T1, %rax
	jge	.LBB29_82
# %bb.81:                               # %cond.true
	movq	T1, %rax
	jmp	.LBB29_83
.LBB29_82:                              # %cond.false
	xorl	%eax, %eax
	jmp	.LBB29_83
.LBB29_83:                              # %cond.end
	vmovsd	.LCPI29_1(%rip), %xmm0  # xmm0 = mem[0],zero
	vmovsd	.LCPI29_4(%rip), %xmm1  # xmm1 = mem[0],zero
	movq	%rax, T1
	vmovsd	BETAP, %xmm2            # xmm2 = mem[0],zero
	vcvtsi2sdq	T, %xmm0, %xmm3
	vmulsd	%xmm3, %xmm2, %xmm2
	vsubsd	BETAP, %xmm1, %xmm1
	vcvtsi2sdq	T1, %xmm0, %xmm3
	vmulsd	%xmm3, %xmm1, %xmm1
	vaddsd	%xmm1, %xmm2, %xmm1
	vaddsd	%xmm0, %xmm1, %xmm0
	vroundsd	$9, %xmm0, %xmm0, %xmm0
	vcvttsd2si	%xmm0, %rax
	movq	%rax, T
.LBB29_84:                              # %if.end259
	jmp	.LBB29_98
.LBB29_85:                              # %if.else260
	movq	img, %rax
	cmpl	$1, 72568(%rax)
	jne	.LBB29_91
# %bb.86:                               # %land.lhs.true264
	movq	img, %rax
	cmpl	$0, 72564(%rax)
	jle	.LBB29_91
# %bb.87:                               # %if.then268
	xorl	%eax, %eax
	vmovsd	.LCPI29_1(%rip), %xmm0  # xmm0 = mem[0],zero
	vmovsd	Wp, %xmm1               # xmm1 = mem[0],zero
	vcvtsi2sdl	R, %xmm0, %xmm2
	vmulsd	%xmm2, %xmm1, %xmm1
	vcvtsi2sdl	Np, %xmm0, %xmm2
	vmulsd	Wp, %xmm2, %xmm2
	vcvtsi2sdl	Nb, %xmm0, %xmm3
	vmulsd	Wb, %xmm3, %xmm3
	vaddsd	%xmm3, %xmm2, %xmm2
	vdivsd	%xmm2, %xmm1, %xmm1
	vaddsd	%xmm0, %xmm1, %xmm1
	vroundsd	$9, %xmm1, %xmm0, %xmm1
	vcvttsd2si	%xmm1, %ecx
	movslq	%ecx, %rcx
	movq	%rcx, T
	vmovsd	bit_rate, %xmm1         # xmm1 = mem[0],zero
	vdivsd	frame_rate, %xmm1, %xmm1
	vmovsd	GAMMAP, %xmm2           # xmm2 = mem[0],zero
	vmovsd	CurrentBufferFullness, %xmm3 # xmm3 = mem[0],zero
	vsubsd	TargetBufferLevel, %xmm3, %xmm3
	vmulsd	%xmm3, %xmm2, %xmm2
	vsubsd	%xmm2, %xmm1, %xmm1
	vaddsd	%xmm0, %xmm1, %xmm0
	vroundsd	$9, %xmm0, %xmm0, %xmm0
	vcvttsd2si	%xmm0, %ecx
	movslq	%ecx, %rcx
	movq	%rcx, T1
	cmpq	T1, %rax
	jge	.LBB29_89
# %bb.88:                               # %cond.true289
	movq	T1, %rax
	jmp	.LBB29_90
.LBB29_89:                              # %cond.false290
	xorl	%eax, %eax
	jmp	.LBB29_90
.LBB29_90:                              # %cond.end291
	vmovsd	.LCPI29_1(%rip), %xmm0  # xmm0 = mem[0],zero
	vmovsd	.LCPI29_4(%rip), %xmm1  # xmm1 = mem[0],zero
	movq	%rax, T1
	vmovsd	BETAP, %xmm2            # xmm2 = mem[0],zero
	vcvtsi2sdq	T, %xmm0, %xmm3
	vmulsd	%xmm3, %xmm2, %xmm2
	vsubsd	BETAP, %xmm1, %xmm1
	vcvtsi2sdq	T1, %xmm0, %xmm3
	vmulsd	%xmm3, %xmm1, %xmm1
	vaddsd	%xmm1, %xmm2, %xmm1
	vaddsd	%xmm0, %xmm1, %xmm0
	vroundsd	$9, %xmm0, %xmm0, %xmm0
	vcvttsd2si	%xmm0, %eax
	cltq
	movq	%rax, T
	jmp	.LBB29_97
.LBB29_91:                              # %if.else302
	movq	img, %rax
	cmpl	$1, 72568(%rax)
	jle	.LBB29_96
# %bb.92:                               # %if.then306
	xorl	%eax, %eax
	vmovsd	.LCPI29_1(%rip), %xmm0  # xmm0 = mem[0],zero
	vmovsd	Wp, %xmm1               # xmm1 = mem[0],zero
	vcvtsi2sdl	R, %xmm0, %xmm2
	vmulsd	%xmm2, %xmm1, %xmm1
	vcvtsi2sdl	Np, %xmm0, %xmm2
	vmulsd	Wp, %xmm2, %xmm2
	vcvtsi2sdl	Nb, %xmm0, %xmm3
	vmulsd	Wb, %xmm3, %xmm3
	vaddsd	%xmm3, %xmm2, %xmm2
	vdivsd	%xmm2, %xmm1, %xmm1
	vaddsd	%xmm0, %xmm1, %xmm1
	vroundsd	$9, %xmm1, %xmm0, %xmm1
	vcvttsd2si	%xmm1, %rcx
	movq	%rcx, T
	vmovsd	bit_rate, %xmm1         # xmm1 = mem[0],zero
	vdivsd	frame_rate, %xmm1, %xmm1
	vmovsd	GAMMAP, %xmm2           # xmm2 = mem[0],zero
	vmovsd	CurrentBufferFullness, %xmm3 # xmm3 = mem[0],zero
	vsubsd	TargetBufferLevel, %xmm3, %xmm3
	vmulsd	%xmm3, %xmm2, %xmm2
	vsubsd	%xmm2, %xmm1, %xmm1
	vaddsd	%xmm0, %xmm1, %xmm0
	vroundsd	$9, %xmm0, %xmm0, %xmm0
	vcvttsd2si	%xmm0, %rcx
	movq	%rcx, T1
	cmpq	T1, %rax
	jge	.LBB29_94
# %bb.93:                               # %cond.true325
	movq	T1, %rax
	jmp	.LBB29_95
.LBB29_94:                              # %cond.false326
	xorl	%eax, %eax
	jmp	.LBB29_95
.LBB29_95:                              # %cond.end327
	vmovsd	.LCPI29_1(%rip), %xmm0  # xmm0 = mem[0],zero
	vmovsd	.LCPI29_4(%rip), %xmm1  # xmm1 = mem[0],zero
	movq	%rax, T1
	vmovsd	BETAP, %xmm2            # xmm2 = mem[0],zero
	vcvtsi2sdq	T, %xmm0, %xmm3
	vmulsd	%xmm3, %xmm2, %xmm2
	vsubsd	BETAP, %xmm1, %xmm1
	vcvtsi2sdq	T1, %xmm0, %xmm3
	vmulsd	%xmm3, %xmm1, %xmm1
	vaddsd	%xmm1, %xmm2, %xmm1
	vaddsd	%xmm0, %xmm1, %xmm0
	vroundsd	$9, %xmm0, %xmm0, %xmm0
	vcvttsd2si	%xmm0, %rax
	movq	%rax, T
.LBB29_96:                              # %if.end337
	jmp	.LBB29_97
.LBB29_97:                              # %if.end338
	jmp	.LBB29_98
.LBB29_98:                              # %if.end339
	vmovsd	.LCPI29_4(%rip), %xmm0  # xmm0 = mem[0],zero
	movq	input, %rax
	vcvtsi2sdl	1236(%rax), %xmm0, %xmm1
	vxorps	%xmm2, %xmm2, %xmm2
	vmulsd	%xmm1, %xmm2, %xmm1
	vsubsd	%xmm1, %xmm0, %xmm0
	vcvtsi2sdq	T, %xmm0, %xmm1
	vmulsd	%xmm1, %xmm0, %xmm0
	vcvttsd2si	%xmm0, %rax
	movq	%rax, T
	movq	T, %rax
	cmpq	LowerBound, %rax
	jge	.LBB29_100
# %bb.99:                               # %cond.true349
	movq	LowerBound, %rax
	jmp	.LBB29_101
.LBB29_100:                             # %cond.false350
	movq	T, %rax
.LBB29_101:                             # %cond.end351
	movq	%rax, T
	movq	T, %rax
	cmpq	UpperBound2, %rax
	jge	.LBB29_103
# %bb.102:                              # %cond.true355
	movq	T, %rax
	jmp	.LBB29_104
.LBB29_103:                             # %cond.false356
	movq	UpperBound2, %rax
.LBB29_104:                             # %cond.end357
	movq	%rax, T
	cmpl	$0, -8(%rbp)
	jne	.LBB29_108
# %bb.105:                              # %lor.lhs.false360
	cmpl	$0, -12(%rbp)
	je	.LBB29_109
# %bb.106:                              # %land.lhs.true362
	movq	input, %rax
	cmpl	$2, 2880(%rax)
	je	.LBB29_108
# %bb.107:                              # %lor.lhs.false366
	movq	input, %rax
	cmpl	$0, 2884(%rax)
	je	.LBB29_109
.LBB29_108:                             # %if.then369
	movq	T, %rax
	movl	%eax, T_field
.LBB29_109:                             # %if.end371
	jmp	.LBB29_110
.LBB29_110:                             # %if.end372
	jmp	.LBB29_111
.LBB29_111:                             # %if.end373
	cmpl	$0, -12(%rbp)
	jne	.LBB29_113
# %bb.112:                              # %lor.lhs.false375
	cmpl	$0, -8(%rbp)
	je	.LBB29_119
.LBB29_113:                             # %if.then377
	movq	img, %rax
	movl	$0, 72524(%rax)
	movq	img, %rax
	movl	$0, 72528(%rax)
	movq	img, %rax
	movl	72620(%rax), %eax
	movq	img, %rcx
	cmpl	72608(%rcx), %eax
	jge	.LBB29_118
# %bb.114:                              # %if.then382
	movl	$0, TotalFrameQP
	movq	img, %rax
	movl	$0, 72532(%rax)
	movq	img, %rax
	movl	$0, 72536(%rax)
	movq	img, %rax
	vxorps	%xmm0, %xmm0, %xmm0
	vmovsd	%xmm0, 72544(%rax)
	movq	img, %rax
	cmpl	$0, 72600(%rax)
	jne	.LBB29_116
# %bb.115:                              # %if.then386
	movl	TotalNumberofBasicUnit, %eax
	movl	%eax, NumberofBasicUnit
	jmp	.LBB29_117
.LBB29_116:                             # %if.else387
	movl	TotalNumberofBasicUnit, %eax
	cltd
	movl	$2, %ecx
	idivl	%ecx
	movl	%eax, NumberofBasicUnit
.LBB29_117:                             # %if.end389
	jmp	.LBB29_118
.LBB29_118:                             # %if.end390
	jmp	.LBB29_119
.LBB29_119:                             # %if.end391
	movq	img, %rax
	cmpl	$0, 24(%rax)
	jne	.LBB29_126
# %bb.120:                              # %land.lhs.true395
	movq	img, %rax
	movl	72620(%rax), %eax
	movq	img, %rcx
	cmpl	72608(%rcx), %eax
	jge	.LBB29_126
# %bb.121:                              # %land.lhs.true400
	movq	img, %rax
	cmpl	$1, 72600(%rax)
	jne	.LBB29_126
# %bb.122:                              # %if.then404
	cmpl	$0, -8(%rbp)
	je	.LBB29_124
# %bb.123:                              # %if.then406
	vmovsd	.LCPI29_5(%rip), %xmm0  # xmm0 = mem[0],zero
	movl	$0, bits_topfield
	vcvtsi2sdl	T_field, %xmm0, %xmm1
	vmulsd	%xmm0, %xmm1, %xmm0
	vcvttsd2si	%xmm0, %rax
	movq	%rax, T
	jmp	.LBB29_125
.LBB29_124:                             # %if.else410
	movl	T_field, %eax
	subl	bits_topfield, %eax
	cltq
	movq	%rax, T
	movq	img, %rax
	movl	$0, 72532(%rax)
	movq	img, %rax
	movl	$0, 72536(%rax)
	movq	img, %rax
	vxorps	%xmm0, %xmm0, %xmm0
	vmovsd	%xmm0, 72544(%rax)
	movl	TotalNumberofBasicUnit, %eax
	cltd
	movl	$2, %ecx
	idivl	%ecx
	movl	%eax, NumberofBasicUnit
.LBB29_125:                             # %if.end417
	jmp	.LBB29_126
.LBB29_126:                             # %if.end418
	cmpl	$1856077662, -20(%rbp)  # imm = 0x6EA17F5E
	jne	.LBB29_128
.LBB29_127:
	addq	$32, %rsp
	popq	%rbp
	.cfi_def_cfa %rsp, 8
	retq
.LBB29_128:                             # %func_exit
	.cfi_def_cfa %rbp, 16
	callq	detect_breach
	jmp	.LBB29_127
.Lfunc_end29:
	.size	rc_init_pict.13, .Lfunc_end29-rc_init_pict.13
	.cfi_endproc
                                        # -- End function
	.section	.rodata.cst8,"aM",@progbits,8
	.p2align	3               # -- Begin function calc_MAD.14
.LCPI30_0:
	.quad	4643211215818981376     # double 256
.LCPI30_1:
	.quad	4607182418800017408     # double 1
	.text
	.globl	calc_MAD.14
	.p2align	4, 0x90
	.type	calc_MAD.14,@function
calc_MAD.14:                            # @calc_MAD.14
	.cfi_startproc
# %bb.0:                                # %entry
	pushq	%rbp
	.cfi_def_cfa_offset 16
	.cfi_offset %rbp, -16
	movq	%rsp, %rbp
	.cfi_def_cfa_register %rbp
	subq	$32, %rsp
	movl	$1292073440, -16(%rbp)  # imm = 0x4D0379E0
	movl	$0, -12(%rbp)
	movl	$0, -8(%rbp)
.LBB30_1:                               # %for.cond
                                        # =>This Loop Header: Depth=1
                                        #     Child Loop BB30_3 Depth 2
	cmpl	$16, -8(%rbp)
	jge	.LBB30_8
# %bb.2:                                # %for.body
                                        #   in Loop: Header=BB30_1 Depth=1
	movl	$0, -4(%rbp)
.LBB30_3:                               # %for.cond1
                                        #   Parent Loop BB30_1 Depth=1
                                        # =>  This Inner Loop Header: Depth=2
	cmpl	$16, -4(%rbp)
	jge	.LBB30_6
# %bb.4:                                # %for.body3
                                        #   in Loop: Header=BB30_3 Depth=2
	movslq	-8(%rbp), %rax
	shlq	$6, %rax
	movabsq	$diffy, %rcx
	addq	%rax, %rcx
	movslq	-4(%rbp), %rax
	movl	(%rcx,%rax,4), %edi
	callq	abs
	addl	-12(%rbp), %eax
	movl	%eax, -12(%rbp)
# %bb.5:                                # %for.inc
                                        #   in Loop: Header=BB30_3 Depth=2
	movl	-4(%rbp), %eax
	addl	$1, %eax
	movl	%eax, -4(%rbp)
	jmp	.LBB30_3
.LBB30_6:                               # %for.end
                                        #   in Loop: Header=BB30_1 Depth=1
	jmp	.LBB30_7
.LBB30_7:                               # %for.inc6
                                        #   in Loop: Header=BB30_1 Depth=1
	movl	-8(%rbp), %eax
	addl	$1, %eax
	movl	%eax, -8(%rbp)
	jmp	.LBB30_1
.LBB30_8:                               # %for.end8
	vmovsd	.LCPI30_0(%rip), %xmm0  # xmm0 = mem[0],zero
	vmovsd	.LCPI30_1(%rip), %xmm1  # xmm1 = mem[0],zero
	vcvtsi2sdl	-12(%rbp), %xmm0, %xmm2
	vmulsd	%xmm1, %xmm2, %xmm1
	vdivsd	%xmm0, %xmm1, %xmm0
	vmovsd	%xmm0, -32(%rbp)
	vmovsd	-32(%rbp), %xmm0        # xmm0 = mem[0],zero
	cmpl	$1292073440, -16(%rbp)  # imm = 0x4D0379E0
	jne	.LBB30_10
.LBB30_9:
	addq	$32, %rsp
	popq	%rbp
	.cfi_def_cfa %rsp, 8
	retq
.LBB30_10:                              # %func_exit
	.cfi_def_cfa %rbp, 16
	vmovsd	%xmm0, -24(%rbp)        # 8-byte Spill
	callq	detect_breach
	vmovsd	-24(%rbp), %xmm0        # 8-byte Reload
                                        # xmm0 = mem[0],zero
	jmp	.LBB30_9
.Lfunc_end30:
	.size	calc_MAD.14, .Lfunc_end30-calc_MAD.14
	.cfi_endproc
                                        # -- End function
	.section	.rodata.cst8,"aM",@progbits,8
	.p2align	3               # -- Begin function MADModelEstimator.15
.LCPI31_0:
	.quad	4517329193108106637     # double 9.9999999999999995E-7
.LCPI31_2:
	.quad	4607182418800017408     # double 1
	.section	.rodata.cst16,"aM",@progbits,16
	.p2align	4
.LCPI31_1:
	.quad	9223372036854775807     # double NaN
	.quad	9223372036854775807     # double NaN
	.text
	.globl	MADModelEstimator.15
	.p2align	4, 0x90
	.type	MADModelEstimator.15,@function
MADModelEstimator.15:                   # @MADModelEstimator.15
	.cfi_startproc
# %bb.0:                                # %entry
	pushq	%rbp
	.cfi_def_cfa_offset 16
	.cfi_offset %rbp, -16
	movq	%rsp, %rbp
	.cfi_def_cfa_register %rbp
	subq	$96, %rsp
	movl	$443596784, -84(%rbp)   # imm = 0x1A70BFF0
	movl	%edi, -8(%rbp)
	movl	-8(%rbp), %eax
	movl	%eax, -12(%rbp)
	vxorps	%xmm0, %xmm0, %xmm0
	vmovsd	%xmm0, -48(%rbp)
	vmovsd	%xmm0, -24(%rbp)
	vmovsd	%xmm0, -72(%rbp)
	vmovsd	%xmm0, -64(%rbp)
	vmovsd	%xmm0, -32(%rbp)
	vmovsd	%xmm0, -56(%rbp)
	movl	$0, -36(%rbp)
	movl	$0, -4(%rbp)
.LBB31_1:                               # %for.cond
                                        # =>This Inner Loop Header: Depth=1
	movl	-4(%rbp), %eax
	cmpl	-8(%rbp), %eax
	jge	.LBB31_6
# %bb.2:                                # %for.body
                                        #   in Loop: Header=BB31_1 Depth=1
	movslq	-4(%rbp), %rax
	cmpl	$0, PictureRejected(,%rax,4)
	je	.LBB31_4
# %bb.3:                                # %if.then
                                        #   in Loop: Header=BB31_1 Depth=1
	movl	-12(%rbp), %eax
	addl	$-1, %eax
	movl	%eax, -12(%rbp)
.LBB31_4:                               # %if.end
                                        #   in Loop: Header=BB31_1 Depth=1
	jmp	.LBB31_5
.LBB31_5:                               # %for.inc
                                        #   in Loop: Header=BB31_1 Depth=1
	movl	-4(%rbp), %eax
	addl	$1, %eax
	movl	%eax, -4(%rbp)
	jmp	.LBB31_1
.LBB31_6:                               # %for.end
	vxorps	%xmm0, %xmm0, %xmm0
	vmovsd	%xmm0, MADPictureC2
	vmovsd	%xmm0, MADPictureC1
	movl	$0, -4(%rbp)
.LBB31_7:                               # %for.cond1
                                        # =>This Inner Loop Header: Depth=1
	movl	-4(%rbp), %eax
	cmpl	-8(%rbp), %eax
	jge	.LBB31_12
# %bb.8:                                # %for.body3
                                        #   in Loop: Header=BB31_7 Depth=1
	movslq	-4(%rbp), %rax
	cmpl	$0, PictureRejected(,%rax,4)
	jne	.LBB31_10
# %bb.9:                                # %if.then7
                                        #   in Loop: Header=BB31_7 Depth=1
	movslq	-4(%rbp), %rax
	vmovsd	PictureMAD(,%rax,8), %xmm0 # xmm0 = mem[0],zero
	vmovsd	%xmm0, -96(%rbp)
.LBB31_10:                              # %if.end10
                                        #   in Loop: Header=BB31_7 Depth=1
	jmp	.LBB31_11
.LBB31_11:                              # %for.inc11
                                        #   in Loop: Header=BB31_7 Depth=1
	movl	-4(%rbp), %eax
	addl	$1, %eax
	movl	%eax, -4(%rbp)
	jmp	.LBB31_7
.LBB31_12:                              # %for.end13
	movl	$0, -4(%rbp)
.LBB31_13:                              # %for.cond14
                                        # =>This Inner Loop Header: Depth=1
	movl	-4(%rbp), %eax
	cmpl	-8(%rbp), %eax
	jge	.LBB31_21
# %bb.14:                               # %for.body16
                                        #   in Loop: Header=BB31_13 Depth=1
	movslq	-4(%rbp), %rax
	vmovsd	PictureMAD(,%rax,8), %xmm0 # xmm0 = mem[0],zero
	vucomisd	-96(%rbp), %xmm0
	jne	.LBB31_15
	jp	.LBB31_15
	jmp	.LBB31_17
.LBB31_15:                              # %land.lhs.true
                                        #   in Loop: Header=BB31_13 Depth=1
	movslq	-4(%rbp), %rax
	cmpl	$0, PictureRejected(,%rax,4)
	jne	.LBB31_17
# %bb.16:                               # %if.then23
                                        #   in Loop: Header=BB31_13 Depth=1
	movl	$1, -36(%rbp)
.LBB31_17:                              # %if.end24
                                        #   in Loop: Header=BB31_13 Depth=1
	movslq	-4(%rbp), %rax
	cmpl	$0, PictureRejected(,%rax,4)
	jne	.LBB31_19
# %bb.18:                               # %if.then28
                                        #   in Loop: Header=BB31_13 Depth=1
	movslq	-4(%rbp), %rax
	vmovsd	PictureMAD(,%rax,8), %xmm0 # xmm0 = mem[0],zero
	movslq	-4(%rbp), %rax
	vmovsd	ReferenceMAD(,%rax,8), %xmm1 # xmm1 = mem[0],zero
	vcvtsi2sdl	-12(%rbp), %xmm0, %xmm2
	vmulsd	%xmm2, %xmm1, %xmm1
	vdivsd	%xmm1, %xmm0, %xmm0
	vaddsd	MADPictureC1, %xmm0, %xmm0
	vmovsd	%xmm0, MADPictureC1
.LBB31_19:                              # %if.end33
                                        #   in Loop: Header=BB31_13 Depth=1
	jmp	.LBB31_20
.LBB31_20:                              # %for.inc34
                                        #   in Loop: Header=BB31_13 Depth=1
	movl	-4(%rbp), %eax
	addl	$1, %eax
	movl	%eax, -4(%rbp)
	jmp	.LBB31_13
.LBB31_21:                              # %for.end36
	cmpl	$1, -12(%rbp)
	jl	.LBB31_33
# %bb.22:                               # %land.lhs.true39
	cmpl	$0, -36(%rbp)
	je	.LBB31_33
# %bb.23:                               # %if.then41
	movl	$0, -4(%rbp)
.LBB31_24:                              # %for.cond42
                                        # =>This Inner Loop Header: Depth=1
	movl	-4(%rbp), %eax
	cmpl	-8(%rbp), %eax
	jge	.LBB31_29
# %bb.25:                               # %for.body45
                                        #   in Loop: Header=BB31_24 Depth=1
	movslq	-4(%rbp), %rax
	cmpl	$0, PictureRejected(,%rax,4)
	jne	.LBB31_27
# %bb.26:                               # %if.then49
                                        #   in Loop: Header=BB31_24 Depth=1
	vmovsd	.LCPI31_2(%rip), %xmm0  # xmm0 = mem[0],zero
	vaddsd	-48(%rbp), %xmm0, %xmm0
	vmovsd	%xmm0, -48(%rbp)
	movslq	-4(%rbp), %rax
	vmovsd	ReferenceMAD(,%rax,8), %xmm0 # xmm0 = mem[0],zero
	vaddsd	-24(%rbp), %xmm0, %xmm0
	vmovsd	%xmm0, -24(%rbp)
	vmovsd	-24(%rbp), %xmm0        # xmm0 = mem[0],zero
	vmovsd	%xmm0, -72(%rbp)
	movslq	-4(%rbp), %rax
	vmovsd	ReferenceMAD(,%rax,8), %xmm0 # xmm0 = mem[0],zero
	movslq	-4(%rbp), %rax
	vmulsd	ReferenceMAD(,%rax,8), %xmm0, %xmm0
	vaddsd	-64(%rbp), %xmm0, %xmm0
	vmovsd	%xmm0, -64(%rbp)
	movslq	-4(%rbp), %rax
	vmovsd	PictureMAD(,%rax,8), %xmm0 # xmm0 = mem[0],zero
	vaddsd	-32(%rbp), %xmm0, %xmm0
	vmovsd	%xmm0, -32(%rbp)
	movslq	-4(%rbp), %rax
	vmovsd	PictureMAD(,%rax,8), %xmm0 # xmm0 = mem[0],zero
	movslq	-4(%rbp), %rax
	vmulsd	ReferenceMAD(,%rax,8), %xmm0, %xmm0
	vaddsd	-56(%rbp), %xmm0, %xmm0
	vmovsd	%xmm0, -56(%rbp)
.LBB31_27:                              # %if.end69
                                        #   in Loop: Header=BB31_24 Depth=1
	jmp	.LBB31_28
.LBB31_28:                              # %for.inc70
                                        #   in Loop: Header=BB31_24 Depth=1
	movl	-4(%rbp), %eax
	addl	$1, %eax
	movl	%eax, -4(%rbp)
	jmp	.LBB31_24
.LBB31_29:                              # %for.end72
	vmovsd	.LCPI31_0(%rip), %xmm0  # xmm0 = mem[0],zero
	vmovsd	-48(%rbp), %xmm1        # xmm1 = mem[0],zero
	vmulsd	-64(%rbp), %xmm1, %xmm1
	vmovsd	-24(%rbp), %xmm2        # xmm2 = mem[0],zero
	vmulsd	-72(%rbp), %xmm2, %xmm2
	vsubsd	%xmm2, %xmm1, %xmm1
	vmovsd	%xmm1, -80(%rbp)
	vmovsd	-80(%rbp), %xmm1        # xmm1 = mem[0],zero
	vmovdqa	.LCPI31_1(%rip), %xmm2  # xmm2 = [NaN,NaN]
	vpand	%xmm2, %xmm1, %xmm1
	vucomisd	%xmm0, %xmm1
	jbe	.LBB31_31
# %bb.30:                               # %if.then77
	vmovsd	-32(%rbp), %xmm0        # xmm0 = mem[0],zero
	vmulsd	-64(%rbp), %xmm0, %xmm0
	vmovsd	-56(%rbp), %xmm1        # xmm1 = mem[0],zero
	vmulsd	-24(%rbp), %xmm1, %xmm1
	vsubsd	%xmm1, %xmm0, %xmm0
	vdivsd	-80(%rbp), %xmm0, %xmm0
	vmovsd	%xmm0, MADPictureC2
	vmovsd	-56(%rbp), %xmm0        # xmm0 = mem[0],zero
	vmulsd	-48(%rbp), %xmm0, %xmm0
	vmovsd	-32(%rbp), %xmm1        # xmm1 = mem[0],zero
	vmulsd	-72(%rbp), %xmm1, %xmm1
	vsubsd	%xmm1, %xmm0, %xmm0
	vdivsd	-80(%rbp), %xmm0, %xmm0
	vmovsd	%xmm0, MADPictureC1
	jmp	.LBB31_32
.LBB31_31:                              # %if.else
	vmovsd	-32(%rbp), %xmm0        # xmm0 = mem[0],zero
	vdivsd	-24(%rbp), %xmm0, %xmm0
	vmovsd	%xmm0, MADPictureC1
	vxorps	%xmm0, %xmm0, %xmm0
	vmovsd	%xmm0, MADPictureC2
.LBB31_32:                              # %if.end87
	jmp	.LBB31_33
.LBB31_33:                              # %if.end88
	movq	img, %rax
	cmpl	$0, 24(%rax)
	jne	.LBB31_35
# %bb.34:                               # %if.then91
	vmovsd	MADPictureC1, %xmm0     # xmm0 = mem[0],zero
	vmovsd	%xmm0, PMADPictureC1
	vmovsd	MADPictureC2, %xmm0     # xmm0 = mem[0],zero
	vmovsd	%xmm0, PMADPictureC2
.LBB31_35:                              # %if.end92
	cmpl	$443596784, -84(%rbp)   # imm = 0x1A70BFF0
	jne	.LBB31_37
.LBB31_36:
	addq	$96, %rsp
	popq	%rbp
	.cfi_def_cfa %rsp, 8
	retq
.LBB31_37:                              # %func_exit
	.cfi_def_cfa %rbp, 16
	callq	detect_breach
	jmp	.LBB31_36
.Lfunc_end31:
	.size	MADModelEstimator.15, .Lfunc_end31-MADModelEstimator.15
	.cfi_endproc
                                        # -- End function
	.section	.rodata.cst8,"aM",@progbits,8
	.p2align	3               # -- Begin function rc_init_seq.16
.LCPI32_0:
	.quad	4605380978949069210     # double 0.80000000000000004
.LCPI32_1:
	.quad	4612947026323051643     # double 2.5600000000000001
.LCPI32_2:
	.quad	4616189618054758400     # double 4
.LCPI32_3:
	.quad	4602678819172646912     # double 0.5
.LCPI32_4:
	.quad	4606281698874543309     # double 0.90000000000000002
.LCPI32_5:
	.quad	4598175219545276416     # double 0.25
.LCPI32_6:
	.quad	4607182418800017408     # double 1
.LCPI32_7:
	.quad	4612586738352862003     # double 2.3999999999999999
.LCPI32_8:
	.quad	4608983858650965606     # double 1.3999999999999999
.LCPI32_9:
	.quad	4603579539098121011     # double 0.59999999999999998
.LCPI32_10:
	.quad	4608083138725491507     # double 1.2
.LCPI32_11:
	.quad	4596373779694328218     # double 0.20000000000000001
.LCPI32_12:
	.quad	4599075939470750515     # double 0.29999999999999999
.LCPI32_13:
	.quad	4591870180066957722     # double 0.10000000000000001
	.text
	.globl	rc_init_seq.16
	.p2align	4, 0x90
	.type	rc_init_seq.16,@function
rc_init_seq.16:                         # @rc_init_seq.16
	.cfi_startproc
# %bb.0:                                # %entry
	pushq	%rbp
	.cfi_def_cfa_offset 16
	.cfi_offset %rbp, -16
	movq	%rsp, %rbp
	.cfi_def_cfa_register %rbp
	subq	$48, %rsp
	movl	$1352691573, -44(%rbp)  # imm = 0x50A06F75
	movl	$0, Xp
	movl	$0, Xb
	movq	input, %rax
	vcvtsi2sdl	3240(%rax), %xmm0, %xmm0
	vmovsd	%xmm0, bit_rate
	movq	img, %rax
	vmovss	48(%rax), %xmm0         # xmm0 = mem[0],zero,zero,zero
	movq	input, %rax
	movl	1236(%rax), %eax
	addl	$1, %eax
	vcvtsi2ss	%eax, %xmm0, %xmm1
	vmulss	%xmm1, %xmm0, %xmm0
	movq	input, %rax
	movl	20(%rax), %eax
	addl	$1, %eax
	vcvtsi2ss	%eax, %xmm0, %xmm1
	vdivss	%xmm1, %xmm0, %xmm0
	vcvtss2sd	%xmm0, %xmm0, %xmm0
	vmovsd	%xmm0, frame_rate
	vmovsd	bit_rate, %xmm0         # xmm0 = mem[0],zero
	vmovsd	%xmm0, PreviousBit_Rate
	movq	img, %rax
	movl	60(%rax), %eax
	movq	img, %rcx
	imull	52(%rcx), %eax
	cltd
	movl	$256, %ecx              # imm = 0x100
	idivl	%ecx
	movq	img, %rcx
	movl	%eax, 72608(%rcx)
	movq	input, %rax
	movl	3248(%rax), %eax
	movq	img, %rcx
	cmpl	72608(%rcx), %eax
	jle	.LBB32_2
# %bb.1:                                # %if.then
	movq	img, %rax
	movl	72608(%rax), %eax
	movq	input, %rcx
	movl	%eax, 3248(%rcx)
.LBB32_2:                               # %if.end
	movq	input, %rax
	movl	3248(%rax), %eax
	movq	img, %rcx
	cmpl	72608(%rcx), %eax
	jge	.LBB32_4
# %bb.3:                                # %if.then15
	movq	img, %rax
	movl	72608(%rax), %eax
	movq	input, %rcx
	cltd
	idivl	3248(%rcx)
	movl	%eax, TotalNumberofBasicUnit
.LBB32_4:                               # %if.end19
	vmovsd	.LCPI32_0(%rip), %xmm0  # xmm0 = mem[0],zero
	vmovsd	.LCPI32_1(%rip), %xmm1  # xmm1 = mem[0],zero
	vmovsd	.LCPI32_2(%rip), %xmm2  # xmm2 = mem[0],zero
	vmovsd	%xmm2, MINVALUE
	vmulsd	bit_rate, %xmm1, %xmm1
	vmovsd	%xmm1, BufferSize
	vxorps	%xmm1, %xmm1, %xmm1
	vmovsd	%xmm1, CurrentBufferFullness
	vmovsd	CurrentBufferFullness, %xmm1 # xmm1 = mem[0],zero
	vmovsd	%xmm1, GOPTargetBufferLevel
	vmulsd	BufferSize, %xmm0, %xmm0
	vmovsd	%xmm0, InitialDelayOffset
	movl	$0, m_windowSize
	movl	$0, MADm_windowSize
	movq	img, %rax
	movl	$0, 72560(%rax)
	movq	img, %rax
	movl	$0, 72564(%rax)
	movq	img, %rax
	movl	$0, 72568(%rax)
	movl	$0, R
	movq	input, %rax
	cmpl	$0, 1236(%rax)
	jle	.LBB32_6
# %bb.5:                                # %if.then25
	vmovsd	.LCPI32_4(%rip), %xmm0  # xmm0 = mem[0],zero
	vmovsd	.LCPI32_5(%rip), %xmm1  # xmm1 = mem[0],zero
	vmovsd	%xmm1, GAMMAP
	vmovsd	%xmm0, BETAP
	jmp	.LBB32_7
.LBB32_6:                               # %if.else
	vmovsd	.LCPI32_3(%rip), %xmm0  # xmm0 = mem[0],zero
	vmovsd	%xmm0, GAMMAP
	vmovsd	%xmm0, BETAP
.LBB32_7:                               # %if.end26
	vmovsd	.LCPI32_6(%rip), %xmm0  # xmm0 = mem[0],zero
	movl	$0, PPreHeader
	vmulsd	bit_rate, %xmm0, %xmm1
	vmovsd	%xmm1, Pm_X1
	vxorps	%xmm1, %xmm1, %xmm1
	vmovsd	%xmm1, Pm_X2
	vmovsd	%xmm0, PMADPictureC1
	vmovsd	%xmm1, PMADPictureC2
	movl	$0, -4(%rbp)
.LBB32_8:                               # %for.cond
                                        # =>This Inner Loop Header: Depth=1
	cmpl	$20, -4(%rbp)
	jge	.LBB32_11
# %bb.9:                                # %for.body
                                        #   in Loop: Header=BB32_8 Depth=1
	movslq	-4(%rbp), %rax
	vxorps	%xmm0, %xmm0, %xmm0
	vmovsd	%xmm0, Pm_rgQp(,%rax,8)
	movslq	-4(%rbp), %rax
	vmovsd	%xmm0, Pm_rgRp(,%rax,8)
	movslq	-4(%rbp), %rax
	vmovsd	%xmm0, PPictureMAD(,%rax,8)
# %bb.10:                               # %for.inc
                                        #   in Loop: Header=BB32_8 Depth=1
	movl	-4(%rbp), %eax
	addl	$1, %eax
	movl	%eax, -4(%rbp)
	jmp	.LBB32_8
.LBB32_11:                              # %for.end
	vxorps	%xmm0, %xmm0, %xmm0
	vmovsd	%xmm0, PPictureMAD+160
	movl	$2, PDuantQp
	movl	$0, PAveHeaderBits1
	movl	$0, PAveHeaderBits3
	cmpl	$9, TotalNumberofBasicUnit
	jl	.LBB32_13
# %bb.12:                               # %if.then36
	movl	$1, DDquant
	jmp	.LBB32_14
.LBB32_13:                              # %if.else37
	movl	$2, DDquant
.LBB32_14:                              # %if.end38
	vmovsd	.LCPI32_6(%rip), %xmm0  # xmm0 = mem[0],zero
	movq	img, %rax
	movl	52(%rax), %eax
	cltd
	movl	$16, %ecx
	idivl	%ecx
	movl	%eax, MBPerRow
	movq	img, %rax
	movl	$0, 72600(%rax)
	movl	$51, RC_MAX_QUANT
	movl	$0, RC_MIN_QUANT
	vmulsd	bit_rate, %xmm0, %xmm0
	vmovsd	frame_rate, %xmm1       # xmm1 = mem[0],zero
	movq	img, %rax
	vcvtsi2sdl	52(%rax), %xmm0, %xmm2
	vmulsd	%xmm2, %xmm1, %xmm1
	movq	img, %rax
	vcvtsi2sdl	60(%rax), %xmm0, %xmm2
	vmulsd	%xmm2, %xmm1, %xmm1
	vdivsd	%xmm1, %xmm0, %xmm0
	vmovsd	%xmm0, -16(%rbp)
	movq	img, %rax
	cmpl	$176, 52(%rax)
	jne	.LBB32_16
# %bb.15:                               # %if.then52
	vmovsd	.LCPI32_9(%rip), %xmm0  # xmm0 = mem[0],zero
	vmovsd	.LCPI32_12(%rip), %xmm1 # xmm1 = mem[0],zero
	vmovsd	.LCPI32_13(%rip), %xmm2 # xmm2 = mem[0],zero
	vmovsd	%xmm2, -40(%rbp)
	vmovsd	%xmm1, -24(%rbp)
	vmovsd	%xmm0, -32(%rbp)
	jmp	.LBB32_20
.LBB32_16:                              # %if.else53
	movq	img, %rax
	cmpl	$352, 52(%rax)          # imm = 0x160
	jne	.LBB32_18
# %bb.17:                               # %if.then57
	vmovsd	.LCPI32_10(%rip), %xmm0 # xmm0 = mem[0],zero
	vmovsd	.LCPI32_9(%rip), %xmm1  # xmm1 = mem[0],zero
	vmovsd	.LCPI32_11(%rip), %xmm2 # xmm2 = mem[0],zero
	vmovsd	%xmm2, -40(%rbp)
	vmovsd	%xmm1, -24(%rbp)
	vmovsd	%xmm0, -32(%rbp)
	jmp	.LBB32_19
.LBB32_18:                              # %if.else58
	vmovsd	.LCPI32_7(%rip), %xmm0  # xmm0 = mem[0],zero
	vmovsd	.LCPI32_8(%rip), %xmm1  # xmm1 = mem[0],zero
	vmovsd	.LCPI32_9(%rip), %xmm2  # xmm2 = mem[0],zero
	vmovsd	%xmm2, -40(%rbp)
	vmovsd	%xmm1, -24(%rbp)
	vmovsd	%xmm0, -32(%rbp)
.LBB32_19:                              # %if.end59
	jmp	.LBB32_20
.LBB32_20:                              # %if.end60
	movq	input, %rax
	cmpl	$0, 3244(%rax)
	jne	.LBB32_31
# %bb.21:                               # %if.then63
	vmovsd	-16(%rbp), %xmm0        # xmm0 = mem[0],zero
	vmovsd	-40(%rbp), %xmm1        # xmm1 = mem[0],zero
	vucomisd	%xmm0, %xmm1
	jb	.LBB32_23
# %bb.22:                               # %if.then66
	movl	$35, -8(%rbp)
	jmp	.LBB32_30
.LBB32_23:                              # %if.else67
	vmovsd	-16(%rbp), %xmm0        # xmm0 = mem[0],zero
	vmovsd	-24(%rbp), %xmm1        # xmm1 = mem[0],zero
	vucomisd	%xmm0, %xmm1
	jb	.LBB32_25
# %bb.24:                               # %if.then70
	movl	$25, -8(%rbp)
	jmp	.LBB32_29
.LBB32_25:                              # %if.else71
	vmovsd	-16(%rbp), %xmm0        # xmm0 = mem[0],zero
	vmovsd	-32(%rbp), %xmm1        # xmm1 = mem[0],zero
	vucomisd	%xmm0, %xmm1
	jb	.LBB32_27
# %bb.26:                               # %if.then74
	movl	$20, -8(%rbp)
	jmp	.LBB32_28
.LBB32_27:                              # %if.else75
	movl	$10, -8(%rbp)
.LBB32_28:                              # %if.end76
	jmp	.LBB32_29
.LBB32_29:                              # %if.end77
	jmp	.LBB32_30
.LBB32_30:                              # %if.end78
	movl	-8(%rbp), %eax
	movq	input, %rcx
	movl	%eax, 3244(%rcx)
.LBB32_31:                              # %if.end80
	cmpl	$1352691573, -44(%rbp)  # imm = 0x50A06F75
	jne	.LBB32_33
.LBB32_32:
	addq	$48, %rsp
	popq	%rbp
	.cfi_def_cfa %rsp, 8
	retq
.LBB32_33:                              # %func_exit
	.cfi_def_cfa %rbp, 16
	callq	detect_breach
	jmp	.LBB32_32
.Lfunc_end32:
	.size	rc_init_seq.16, .Lfunc_end32-rc_init_seq.16
	.cfi_endproc
                                        # -- End function
	.section	.rodata.cst8,"aM",@progbits,8
	.p2align	3               # -- Begin function MADModelEstimator.17
.LCPI33_0:
	.quad	4517329193108106637     # double 9.9999999999999995E-7
.LCPI33_2:
	.quad	4607182418800017408     # double 1
	.section	.rodata.cst16,"aM",@progbits,16
	.p2align	4
.LCPI33_1:
	.quad	9223372036854775807     # double NaN
	.quad	9223372036854775807     # double NaN
	.text
	.globl	MADModelEstimator.17
	.p2align	4, 0x90
	.type	MADModelEstimator.17,@function
MADModelEstimator.17:                   # @MADModelEstimator.17
	.cfi_startproc
# %bb.0:                                # %entry
	pushq	%rbp
	.cfi_def_cfa_offset 16
	.cfi_offset %rbp, -16
	movq	%rsp, %rbp
	.cfi_def_cfa_register %rbp
	subq	$96, %rsp
	movl	$1642732993, -84(%rbp)  # imm = 0x61EA1DC1
	movl	%edi, -8(%rbp)
	movl	-8(%rbp), %eax
	movl	%eax, -12(%rbp)
	vxorps	%xmm0, %xmm0, %xmm0
	vmovsd	%xmm0, -56(%rbp)
	vmovsd	%xmm0, -24(%rbp)
	vmovsd	%xmm0, -80(%rbp)
	vmovsd	%xmm0, -64(%rbp)
	vmovsd	%xmm0, -32(%rbp)
	vmovsd	%xmm0, -48(%rbp)
	movl	$0, -36(%rbp)
	movl	$0, -4(%rbp)
.LBB33_1:                               # %for.cond
                                        # =>This Inner Loop Header: Depth=1
	movl	-4(%rbp), %eax
	cmpl	-8(%rbp), %eax
	jge	.LBB33_6
# %bb.2:                                # %for.body
                                        #   in Loop: Header=BB33_1 Depth=1
	movslq	-4(%rbp), %rax
	cmpl	$0, PictureRejected(,%rax,4)
	je	.LBB33_4
# %bb.3:                                # %if.then
                                        #   in Loop: Header=BB33_1 Depth=1
	movl	-12(%rbp), %eax
	addl	$-1, %eax
	movl	%eax, -12(%rbp)
.LBB33_4:                               # %if.end
                                        #   in Loop: Header=BB33_1 Depth=1
	jmp	.LBB33_5
.LBB33_5:                               # %for.inc
                                        #   in Loop: Header=BB33_1 Depth=1
	movl	-4(%rbp), %eax
	addl	$1, %eax
	movl	%eax, -4(%rbp)
	jmp	.LBB33_1
.LBB33_6:                               # %for.end
	vxorps	%xmm0, %xmm0, %xmm0
	vmovsd	%xmm0, MADPictureC2
	vmovsd	%xmm0, MADPictureC1
	movl	$0, -4(%rbp)
.LBB33_7:                               # %for.cond1
                                        # =>This Inner Loop Header: Depth=1
	movl	-4(%rbp), %eax
	cmpl	-8(%rbp), %eax
	jge	.LBB33_12
# %bb.8:                                # %for.body3
                                        #   in Loop: Header=BB33_7 Depth=1
	movslq	-4(%rbp), %rax
	cmpl	$0, PictureRejected(,%rax,4)
	jne	.LBB33_10
# %bb.9:                                # %if.then7
                                        #   in Loop: Header=BB33_7 Depth=1
	movslq	-4(%rbp), %rax
	vmovsd	PictureMAD(,%rax,8), %xmm0 # xmm0 = mem[0],zero
	vmovsd	%xmm0, -96(%rbp)
.LBB33_10:                              # %if.end10
                                        #   in Loop: Header=BB33_7 Depth=1
	jmp	.LBB33_11
.LBB33_11:                              # %for.inc11
                                        #   in Loop: Header=BB33_7 Depth=1
	movl	-4(%rbp), %eax
	addl	$1, %eax
	movl	%eax, -4(%rbp)
	jmp	.LBB33_7
.LBB33_12:                              # %for.end13
	movl	$0, -4(%rbp)
.LBB33_13:                              # %for.cond14
                                        # =>This Inner Loop Header: Depth=1
	movl	-4(%rbp), %eax
	cmpl	-8(%rbp), %eax
	jge	.LBB33_21
# %bb.14:                               # %for.body16
                                        #   in Loop: Header=BB33_13 Depth=1
	movslq	-4(%rbp), %rax
	vmovsd	PictureMAD(,%rax,8), %xmm0 # xmm0 = mem[0],zero
	vucomisd	-96(%rbp), %xmm0
	jne	.LBB33_15
	jp	.LBB33_15
	jmp	.LBB33_17
.LBB33_15:                              # %land.lhs.true
                                        #   in Loop: Header=BB33_13 Depth=1
	movslq	-4(%rbp), %rax
	cmpl	$0, PictureRejected(,%rax,4)
	jne	.LBB33_17
# %bb.16:                               # %if.then23
                                        #   in Loop: Header=BB33_13 Depth=1
	movl	$1, -36(%rbp)
.LBB33_17:                              # %if.end24
                                        #   in Loop: Header=BB33_13 Depth=1
	movslq	-4(%rbp), %rax
	cmpl	$0, PictureRejected(,%rax,4)
	jne	.LBB33_19
# %bb.18:                               # %if.then28
                                        #   in Loop: Header=BB33_13 Depth=1
	movslq	-4(%rbp), %rax
	vmovsd	PictureMAD(,%rax,8), %xmm0 # xmm0 = mem[0],zero
	movslq	-4(%rbp), %rax
	vmovsd	ReferenceMAD(,%rax,8), %xmm1 # xmm1 = mem[0],zero
	vcvtsi2sdl	-12(%rbp), %xmm0, %xmm2
	vmulsd	%xmm2, %xmm1, %xmm1
	vdivsd	%xmm1, %xmm0, %xmm0
	vaddsd	MADPictureC1, %xmm0, %xmm0
	vmovsd	%xmm0, MADPictureC1
.LBB33_19:                              # %if.end33
                                        #   in Loop: Header=BB33_13 Depth=1
	jmp	.LBB33_20
.LBB33_20:                              # %for.inc34
                                        #   in Loop: Header=BB33_13 Depth=1
	movl	-4(%rbp), %eax
	addl	$1, %eax
	movl	%eax, -4(%rbp)
	jmp	.LBB33_13
.LBB33_21:                              # %for.end36
	cmpl	$1, -12(%rbp)
	jl	.LBB33_33
# %bb.22:                               # %land.lhs.true39
	cmpl	$0, -36(%rbp)
	je	.LBB33_33
# %bb.23:                               # %if.then41
	movl	$0, -4(%rbp)
.LBB33_24:                              # %for.cond42
                                        # =>This Inner Loop Header: Depth=1
	movl	-4(%rbp), %eax
	cmpl	-8(%rbp), %eax
	jge	.LBB33_29
# %bb.25:                               # %for.body45
                                        #   in Loop: Header=BB33_24 Depth=1
	movslq	-4(%rbp), %rax
	cmpl	$0, PictureRejected(,%rax,4)
	jne	.LBB33_27
# %bb.26:                               # %if.then49
                                        #   in Loop: Header=BB33_24 Depth=1
	vmovsd	.LCPI33_2(%rip), %xmm0  # xmm0 = mem[0],zero
	vaddsd	-56(%rbp), %xmm0, %xmm0
	vmovsd	%xmm0, -56(%rbp)
	movslq	-4(%rbp), %rax
	vmovsd	ReferenceMAD(,%rax,8), %xmm0 # xmm0 = mem[0],zero
	vaddsd	-24(%rbp), %xmm0, %xmm0
	vmovsd	%xmm0, -24(%rbp)
	vmovsd	-24(%rbp), %xmm0        # xmm0 = mem[0],zero
	vmovsd	%xmm0, -80(%rbp)
	movslq	-4(%rbp), %rax
	vmovsd	ReferenceMAD(,%rax,8), %xmm0 # xmm0 = mem[0],zero
	movslq	-4(%rbp), %rax
	vmulsd	ReferenceMAD(,%rax,8), %xmm0, %xmm0
	vaddsd	-64(%rbp), %xmm0, %xmm0
	vmovsd	%xmm0, -64(%rbp)
	movslq	-4(%rbp), %rax
	vmovsd	PictureMAD(,%rax,8), %xmm0 # xmm0 = mem[0],zero
	vaddsd	-32(%rbp), %xmm0, %xmm0
	vmovsd	%xmm0, -32(%rbp)
	movslq	-4(%rbp), %rax
	vmovsd	PictureMAD(,%rax,8), %xmm0 # xmm0 = mem[0],zero
	movslq	-4(%rbp), %rax
	vmulsd	ReferenceMAD(,%rax,8), %xmm0, %xmm0
	vaddsd	-48(%rbp), %xmm0, %xmm0
	vmovsd	%xmm0, -48(%rbp)
.LBB33_27:                              # %if.end69
                                        #   in Loop: Header=BB33_24 Depth=1
	jmp	.LBB33_28
.LBB33_28:                              # %for.inc70
                                        #   in Loop: Header=BB33_24 Depth=1
	movl	-4(%rbp), %eax
	addl	$1, %eax
	movl	%eax, -4(%rbp)
	jmp	.LBB33_24
.LBB33_29:                              # %for.end72
	vmovsd	.LCPI33_0(%rip), %xmm0  # xmm0 = mem[0],zero
	vmovsd	-56(%rbp), %xmm1        # xmm1 = mem[0],zero
	vmulsd	-64(%rbp), %xmm1, %xmm1
	vmovsd	-24(%rbp), %xmm2        # xmm2 = mem[0],zero
	vmulsd	-80(%rbp), %xmm2, %xmm2
	vsubsd	%xmm2, %xmm1, %xmm1
	vmovsd	%xmm1, -72(%rbp)
	vmovsd	-72(%rbp), %xmm1        # xmm1 = mem[0],zero
	vmovdqa	.LCPI33_1(%rip), %xmm2  # xmm2 = [NaN,NaN]
	vpand	%xmm2, %xmm1, %xmm1
	vucomisd	%xmm0, %xmm1
	jbe	.LBB33_31
# %bb.30:                               # %if.then77
	vmovsd	-32(%rbp), %xmm0        # xmm0 = mem[0],zero
	vmulsd	-64(%rbp), %xmm0, %xmm0
	vmovsd	-48(%rbp), %xmm1        # xmm1 = mem[0],zero
	vmulsd	-24(%rbp), %xmm1, %xmm1
	vsubsd	%xmm1, %xmm0, %xmm0
	vdivsd	-72(%rbp), %xmm0, %xmm0
	vmovsd	%xmm0, MADPictureC2
	vmovsd	-48(%rbp), %xmm0        # xmm0 = mem[0],zero
	vmulsd	-56(%rbp), %xmm0, %xmm0
	vmovsd	-32(%rbp), %xmm1        # xmm1 = mem[0],zero
	vmulsd	-80(%rbp), %xmm1, %xmm1
	vsubsd	%xmm1, %xmm0, %xmm0
	vdivsd	-72(%rbp), %xmm0, %xmm0
	vmovsd	%xmm0, MADPictureC1
	jmp	.LBB33_32
.LBB33_31:                              # %if.else
	vmovsd	-32(%rbp), %xmm0        # xmm0 = mem[0],zero
	vdivsd	-24(%rbp), %xmm0, %xmm0
	vmovsd	%xmm0, MADPictureC1
	vxorps	%xmm0, %xmm0, %xmm0
	vmovsd	%xmm0, MADPictureC2
.LBB33_32:                              # %if.end87
	jmp	.LBB33_33
.LBB33_33:                              # %if.end88
	movq	img, %rax
	cmpl	$0, 24(%rax)
	jne	.LBB33_35
# %bb.34:                               # %if.then91
	vmovsd	MADPictureC1, %xmm0     # xmm0 = mem[0],zero
	vmovsd	%xmm0, PMADPictureC1
	vmovsd	MADPictureC2, %xmm0     # xmm0 = mem[0],zero
	vmovsd	%xmm0, PMADPictureC2
.LBB33_35:                              # %if.end92
	cmpl	$1642732993, -84(%rbp)  # imm = 0x61EA1DC1
	jne	.LBB33_37
.LBB33_36:
	addq	$96, %rsp
	popq	%rbp
	.cfi_def_cfa %rsp, 8
	retq
.LBB33_37:                              # %func_exit
	.cfi_def_cfa %rbp, 16
	callq	detect_breach
	jmp	.LBB33_36
.Lfunc_end33:
	.size	MADModelEstimator.17, .Lfunc_end33-MADModelEstimator.17
	.cfi_endproc
                                        # -- End function
	.section	.rodata.cst8,"aM",@progbits,8
	.p2align	3               # -- Begin function calc_MAD.18
.LCPI34_0:
	.quad	4643211215818981376     # double 256
.LCPI34_1:
	.quad	4607182418800017408     # double 1
	.text
	.globl	calc_MAD.18
	.p2align	4, 0x90
	.type	calc_MAD.18,@function
calc_MAD.18:                            # @calc_MAD.18
	.cfi_startproc
# %bb.0:                                # %entry
	pushq	%rbp
	.cfi_def_cfa_offset 16
	.cfi_offset %rbp, -16
	movq	%rsp, %rbp
	.cfi_def_cfa_register %rbp
	subq	$32, %rsp
	movl	$1415465028, -16(%rbp)  # imm = 0x545E4844
	movl	$0, -12(%rbp)
	movl	$0, -8(%rbp)
.LBB34_1:                               # %for.cond
                                        # =>This Loop Header: Depth=1
                                        #     Child Loop BB34_3 Depth 2
	cmpl	$16, -8(%rbp)
	jge	.LBB34_8
# %bb.2:                                # %for.body
                                        #   in Loop: Header=BB34_1 Depth=1
	movl	$0, -4(%rbp)
.LBB34_3:                               # %for.cond1
                                        #   Parent Loop BB34_1 Depth=1
                                        # =>  This Inner Loop Header: Depth=2
	cmpl	$16, -4(%rbp)
	jge	.LBB34_6
# %bb.4:                                # %for.body3
                                        #   in Loop: Header=BB34_3 Depth=2
	movslq	-8(%rbp), %rax
	shlq	$6, %rax
	movabsq	$diffy, %rcx
	addq	%rax, %rcx
	movslq	-4(%rbp), %rax
	movl	(%rcx,%rax,4), %edi
	callq	abs
	addl	-12(%rbp), %eax
	movl	%eax, -12(%rbp)
# %bb.5:                                # %for.inc
                                        #   in Loop: Header=BB34_3 Depth=2
	movl	-4(%rbp), %eax
	addl	$1, %eax
	movl	%eax, -4(%rbp)
	jmp	.LBB34_3
.LBB34_6:                               # %for.end
                                        #   in Loop: Header=BB34_1 Depth=1
	jmp	.LBB34_7
.LBB34_7:                               # %for.inc6
                                        #   in Loop: Header=BB34_1 Depth=1
	movl	-8(%rbp), %eax
	addl	$1, %eax
	movl	%eax, -8(%rbp)
	jmp	.LBB34_1
.LBB34_8:                               # %for.end8
	vmovsd	.LCPI34_0(%rip), %xmm0  # xmm0 = mem[0],zero
	vmovsd	.LCPI34_1(%rip), %xmm1  # xmm1 = mem[0],zero
	vcvtsi2sdl	-12(%rbp), %xmm0, %xmm2
	vmulsd	%xmm1, %xmm2, %xmm1
	vdivsd	%xmm0, %xmm1, %xmm0
	vmovsd	%xmm0, -32(%rbp)
	vmovsd	-32(%rbp), %xmm0        # xmm0 = mem[0],zero
	cmpl	$1415465028, -16(%rbp)  # imm = 0x545E4844
	jne	.LBB34_10
.LBB34_9:
	addq	$32, %rsp
	popq	%rbp
	.cfi_def_cfa %rsp, 8
	retq
.LBB34_10:                              # %func_exit
	.cfi_def_cfa %rbp, 16
	vmovsd	%xmm0, -24(%rbp)        # 8-byte Spill
	callq	detect_breach
	vmovsd	-24(%rbp), %xmm0        # 8-byte Reload
                                        # xmm0 = mem[0],zero
	jmp	.LBB34_9
.Lfunc_end34:
	.size	calc_MAD.18, .Lfunc_end34-calc_MAD.18
	.cfi_endproc
                                        # -- End function
	.section	.rodata.cst8,"aM",@progbits,8
	.p2align	3               # -- Begin function rc_init_seq.19
.LCPI35_0:
	.quad	4605380978949069210     # double 0.80000000000000004
.LCPI35_1:
	.quad	4612947026323051643     # double 2.5600000000000001
.LCPI35_2:
	.quad	4616189618054758400     # double 4
.LCPI35_3:
	.quad	4602678819172646912     # double 0.5
.LCPI35_4:
	.quad	4606281698874543309     # double 0.90000000000000002
.LCPI35_5:
	.quad	4598175219545276416     # double 0.25
.LCPI35_6:
	.quad	4607182418800017408     # double 1
.LCPI35_7:
	.quad	4612586738352862003     # double 2.3999999999999999
.LCPI35_8:
	.quad	4608983858650965606     # double 1.3999999999999999
.LCPI35_9:
	.quad	4603579539098121011     # double 0.59999999999999998
.LCPI35_10:
	.quad	4608083138725491507     # double 1.2
.LCPI35_11:
	.quad	4596373779694328218     # double 0.20000000000000001
.LCPI35_12:
	.quad	4599075939470750515     # double 0.29999999999999999
.LCPI35_13:
	.quad	4591870180066957722     # double 0.10000000000000001
	.text
	.globl	rc_init_seq.19
	.p2align	4, 0x90
	.type	rc_init_seq.19,@function
rc_init_seq.19:                         # @rc_init_seq.19
	.cfi_startproc
# %bb.0:                                # %entry
	pushq	%rbp
	.cfi_def_cfa_offset 16
	.cfi_offset %rbp, -16
	movq	%rsp, %rbp
	.cfi_def_cfa_register %rbp
	subq	$48, %rsp
	movl	$196424933, -44(%rbp)   # imm = 0xBB534E5
	movl	$0, Xp
	movl	$0, Xb
	movq	input, %rax
	vcvtsi2sdl	3240(%rax), %xmm0, %xmm0
	vmovsd	%xmm0, bit_rate
	movq	img, %rax
	vmovss	48(%rax), %xmm0         # xmm0 = mem[0],zero,zero,zero
	movq	input, %rax
	movl	1236(%rax), %eax
	addl	$1, %eax
	vcvtsi2ss	%eax, %xmm0, %xmm1
	vmulss	%xmm1, %xmm0, %xmm0
	movq	input, %rax
	movl	20(%rax), %eax
	addl	$1, %eax
	vcvtsi2ss	%eax, %xmm0, %xmm1
	vdivss	%xmm1, %xmm0, %xmm0
	vcvtss2sd	%xmm0, %xmm0, %xmm0
	vmovsd	%xmm0, frame_rate
	vmovsd	bit_rate, %xmm0         # xmm0 = mem[0],zero
	vmovsd	%xmm0, PreviousBit_Rate
	movq	img, %rax
	movl	60(%rax), %eax
	movq	img, %rcx
	imull	52(%rcx), %eax
	cltd
	movl	$256, %ecx              # imm = 0x100
	idivl	%ecx
	movq	img, %rcx
	movl	%eax, 72608(%rcx)
	movq	input, %rax
	movl	3248(%rax), %eax
	movq	img, %rcx
	cmpl	72608(%rcx), %eax
	jle	.LBB35_2
# %bb.1:                                # %if.then
	movq	img, %rax
	movl	72608(%rax), %eax
	movq	input, %rcx
	movl	%eax, 3248(%rcx)
.LBB35_2:                               # %if.end
	movq	input, %rax
	movl	3248(%rax), %eax
	movq	img, %rcx
	cmpl	72608(%rcx), %eax
	jge	.LBB35_4
# %bb.3:                                # %if.then15
	movq	img, %rax
	movl	72608(%rax), %eax
	movq	input, %rcx
	cltd
	idivl	3248(%rcx)
	movl	%eax, TotalNumberofBasicUnit
.LBB35_4:                               # %if.end19
	vmovsd	.LCPI35_0(%rip), %xmm0  # xmm0 = mem[0],zero
	vmovsd	.LCPI35_1(%rip), %xmm1  # xmm1 = mem[0],zero
	vmovsd	.LCPI35_2(%rip), %xmm2  # xmm2 = mem[0],zero
	vmovsd	%xmm2, MINVALUE
	vmulsd	bit_rate, %xmm1, %xmm1
	vmovsd	%xmm1, BufferSize
	vxorps	%xmm1, %xmm1, %xmm1
	vmovsd	%xmm1, CurrentBufferFullness
	vmovsd	CurrentBufferFullness, %xmm1 # xmm1 = mem[0],zero
	vmovsd	%xmm1, GOPTargetBufferLevel
	vmulsd	BufferSize, %xmm0, %xmm0
	vmovsd	%xmm0, InitialDelayOffset
	movl	$0, m_windowSize
	movl	$0, MADm_windowSize
	movq	img, %rax
	movl	$0, 72560(%rax)
	movq	img, %rax
	movl	$0, 72564(%rax)
	movq	img, %rax
	movl	$0, 72568(%rax)
	movl	$0, R
	movq	input, %rax
	cmpl	$0, 1236(%rax)
	jle	.LBB35_6
# %bb.5:                                # %if.then25
	vmovsd	.LCPI35_4(%rip), %xmm0  # xmm0 = mem[0],zero
	vmovsd	.LCPI35_5(%rip), %xmm1  # xmm1 = mem[0],zero
	vmovsd	%xmm1, GAMMAP
	vmovsd	%xmm0, BETAP
	jmp	.LBB35_7
.LBB35_6:                               # %if.else
	vmovsd	.LCPI35_3(%rip), %xmm0  # xmm0 = mem[0],zero
	vmovsd	%xmm0, GAMMAP
	vmovsd	%xmm0, BETAP
.LBB35_7:                               # %if.end26
	vmovsd	.LCPI35_6(%rip), %xmm0  # xmm0 = mem[0],zero
	movl	$0, PPreHeader
	vmulsd	bit_rate, %xmm0, %xmm1
	vmovsd	%xmm1, Pm_X1
	vxorps	%xmm1, %xmm1, %xmm1
	vmovsd	%xmm1, Pm_X2
	vmovsd	%xmm0, PMADPictureC1
	vmovsd	%xmm1, PMADPictureC2
	movl	$0, -4(%rbp)
.LBB35_8:                               # %for.cond
                                        # =>This Inner Loop Header: Depth=1
	cmpl	$20, -4(%rbp)
	jge	.LBB35_11
# %bb.9:                                # %for.body
                                        #   in Loop: Header=BB35_8 Depth=1
	movslq	-4(%rbp), %rax
	vxorps	%xmm0, %xmm0, %xmm0
	vmovsd	%xmm0, Pm_rgQp(,%rax,8)
	movslq	-4(%rbp), %rax
	vmovsd	%xmm0, Pm_rgRp(,%rax,8)
	movslq	-4(%rbp), %rax
	vmovsd	%xmm0, PPictureMAD(,%rax,8)
# %bb.10:                               # %for.inc
                                        #   in Loop: Header=BB35_8 Depth=1
	movl	-4(%rbp), %eax
	addl	$1, %eax
	movl	%eax, -4(%rbp)
	jmp	.LBB35_8
.LBB35_11:                              # %for.end
	vxorps	%xmm0, %xmm0, %xmm0
	vmovsd	%xmm0, PPictureMAD+160
	movl	$2, PDuantQp
	movl	$0, PAveHeaderBits1
	movl	$0, PAveHeaderBits3
	cmpl	$9, TotalNumberofBasicUnit
	jl	.LBB35_13
# %bb.12:                               # %if.then36
	movl	$1, DDquant
	jmp	.LBB35_14
.LBB35_13:                              # %if.else37
	movl	$2, DDquant
.LBB35_14:                              # %if.end38
	vmovsd	.LCPI35_6(%rip), %xmm0  # xmm0 = mem[0],zero
	movq	img, %rax
	movl	52(%rax), %eax
	cltd
	movl	$16, %ecx
	idivl	%ecx
	movl	%eax, MBPerRow
	movq	img, %rax
	movl	$0, 72600(%rax)
	movl	$51, RC_MAX_QUANT
	movl	$0, RC_MIN_QUANT
	vmulsd	bit_rate, %xmm0, %xmm0
	vmovsd	frame_rate, %xmm1       # xmm1 = mem[0],zero
	movq	img, %rax
	vcvtsi2sdl	52(%rax), %xmm0, %xmm2
	vmulsd	%xmm2, %xmm1, %xmm1
	movq	img, %rax
	vcvtsi2sdl	60(%rax), %xmm0, %xmm2
	vmulsd	%xmm2, %xmm1, %xmm1
	vdivsd	%xmm1, %xmm0, %xmm0
	vmovsd	%xmm0, -40(%rbp)
	movq	img, %rax
	cmpl	$176, 52(%rax)
	jne	.LBB35_16
# %bb.15:                               # %if.then52
	vmovsd	.LCPI35_9(%rip), %xmm0  # xmm0 = mem[0],zero
	vmovsd	.LCPI35_12(%rip), %xmm1 # xmm1 = mem[0],zero
	vmovsd	.LCPI35_13(%rip), %xmm2 # xmm2 = mem[0],zero
	vmovsd	%xmm2, -32(%rbp)
	vmovsd	%xmm1, -24(%rbp)
	vmovsd	%xmm0, -16(%rbp)
	jmp	.LBB35_20
.LBB35_16:                              # %if.else53
	movq	img, %rax
	cmpl	$352, 52(%rax)          # imm = 0x160
	jne	.LBB35_18
# %bb.17:                               # %if.then57
	vmovsd	.LCPI35_10(%rip), %xmm0 # xmm0 = mem[0],zero
	vmovsd	.LCPI35_9(%rip), %xmm1  # xmm1 = mem[0],zero
	vmovsd	.LCPI35_11(%rip), %xmm2 # xmm2 = mem[0],zero
	vmovsd	%xmm2, -32(%rbp)
	vmovsd	%xmm1, -24(%rbp)
	vmovsd	%xmm0, -16(%rbp)
	jmp	.LBB35_19
.LBB35_18:                              # %if.else58
	vmovsd	.LCPI35_7(%rip), %xmm0  # xmm0 = mem[0],zero
	vmovsd	.LCPI35_8(%rip), %xmm1  # xmm1 = mem[0],zero
	vmovsd	.LCPI35_9(%rip), %xmm2  # xmm2 = mem[0],zero
	vmovsd	%xmm2, -32(%rbp)
	vmovsd	%xmm1, -24(%rbp)
	vmovsd	%xmm0, -16(%rbp)
.LBB35_19:                              # %if.end59
	jmp	.LBB35_20
.LBB35_20:                              # %if.end60
	movq	input, %rax
	cmpl	$0, 3244(%rax)
	jne	.LBB35_31
# %bb.21:                               # %if.then63
	vmovsd	-40(%rbp), %xmm0        # xmm0 = mem[0],zero
	vmovsd	-32(%rbp), %xmm1        # xmm1 = mem[0],zero
	vucomisd	%xmm0, %xmm1
	jb	.LBB35_23
# %bb.22:                               # %if.then66
	movl	$35, -8(%rbp)
	jmp	.LBB35_30
.LBB35_23:                              # %if.else67
	vmovsd	-40(%rbp), %xmm0        # xmm0 = mem[0],zero
	vmovsd	-24(%rbp), %xmm1        # xmm1 = mem[0],zero
	vucomisd	%xmm0, %xmm1
	jb	.LBB35_25
# %bb.24:                               # %if.then70
	movl	$25, -8(%rbp)
	jmp	.LBB35_29
.LBB35_25:                              # %if.else71
	vmovsd	-40(%rbp), %xmm0        # xmm0 = mem[0],zero
	vmovsd	-16(%rbp), %xmm1        # xmm1 = mem[0],zero
	vucomisd	%xmm0, %xmm1
	jb	.LBB35_27
# %bb.26:                               # %if.then74
	movl	$20, -8(%rbp)
	jmp	.LBB35_28
.LBB35_27:                              # %if.else75
	movl	$10, -8(%rbp)
.LBB35_28:                              # %if.end76
	jmp	.LBB35_29
.LBB35_29:                              # %if.end77
	jmp	.LBB35_30
.LBB35_30:                              # %if.end78
	movl	-8(%rbp), %eax
	movq	input, %rcx
	movl	%eax, 3244(%rcx)
.LBB35_31:                              # %if.end80
	cmpl	$196424933, -44(%rbp)   # imm = 0xBB534E5
	jne	.LBB35_33
.LBB35_32:
	addq	$48, %rsp
	popq	%rbp
	.cfi_def_cfa %rsp, 8
	retq
.LBB35_33:                              # %func_exit
	.cfi_def_cfa %rbp, 16
	callq	detect_breach
	jmp	.LBB35_32
.Lfunc_end35:
	.size	rc_init_seq.19, .Lfunc_end35-rc_init_seq.19
	.cfi_endproc
                                        # -- End function
	.section	.rodata.cst8,"aM",@progbits,8
	.p2align	3               # -- Begin function QP2Qstep.20
.LCPI36_0:
	.quad	4611686018427387904     # double 2
	.text
	.globl	QP2Qstep.20
	.p2align	4, 0x90
	.type	QP2Qstep.20,@function
QP2Qstep.20:                            # @QP2Qstep.20
	.cfi_startproc
# %bb.0:                                # %entry
	pushq	%rbp
	.cfi_def_cfa_offset 16
	.cfi_offset %rbp, -16
	movq	%rsp, %rbp
	.cfi_def_cfa_register %rbp
	subq	$32, %rsp
	movl	$1103819197, -20(%rbp)  # imm = 0x41CAF1BD
	movl	%edi, -8(%rbp)
	movl	-8(%rbp), %eax
	cltd
	movl	$6, %ecx
	idivl	%ecx
	movslq	%edx, %rax
	vmovsd	QP2Qstep.QP2QSTEP(,%rax,8), %xmm0 # xmm0 = mem[0],zero
	vmovsd	%xmm0, -16(%rbp)
	movl	$0, -4(%rbp)
.LBB36_1:                               # %for.cond
                                        # =>This Inner Loop Header: Depth=1
	movl	-4(%rbp), %ecx
	movl	-8(%rbp), %eax
	cltd
	movl	$6, %esi
	idivl	%esi
	cmpl	%eax, %ecx
	jge	.LBB36_4
# %bb.2:                                # %for.body
                                        #   in Loop: Header=BB36_1 Depth=1
	vmovsd	.LCPI36_0(%rip), %xmm0  # xmm0 = mem[0],zero
	vmulsd	-16(%rbp), %xmm0, %xmm0
	vmovsd	%xmm0, -16(%rbp)
# %bb.3:                                # %for.inc
                                        #   in Loop: Header=BB36_1 Depth=1
	movl	-4(%rbp), %eax
	addl	$1, %eax
	movl	%eax, -4(%rbp)
	jmp	.LBB36_1
.LBB36_4:                               # %for.end
	vmovsd	-16(%rbp), %xmm0        # xmm0 = mem[0],zero
	cmpl	$1103819197, -20(%rbp)  # imm = 0x41CAF1BD
	jne	.LBB36_6
.LBB36_5:
	addq	$32, %rsp
	popq	%rbp
	.cfi_def_cfa %rsp, 8
	retq
.LBB36_6:                               # %func_exit
	.cfi_def_cfa %rbp, 16
	vmovsd	%xmm0, -32(%rbp)        # 8-byte Spill
	callq	detect_breach
	vmovsd	-32(%rbp), %xmm0        # 8-byte Reload
                                        # xmm0 = mem[0],zero
	jmp	.LBB36_5
.Lfunc_end36:
	.size	QP2Qstep.20, .Lfunc_end36-QP2Qstep.20
	.cfi_endproc
                                        # -- End function
	.section	.rodata.cst8,"aM",@progbits,8
	.p2align	3               # -- Begin function rc_init_GOP.21
.LCPI37_0:
	.quad	4602678819172646912     # double 0.5
.LCPI37_1:
	.quad	4624633867356078080     # double 15
.LCPI37_2:
	.quad	4607182418800017408     # double 1
	.text
	.globl	rc_init_GOP.21
	.p2align	4, 0x90
	.type	rc_init_GOP.21,@function
rc_init_GOP.21:                         # @rc_init_GOP.21
	.cfi_startproc
# %bb.0:                                # %entry
	pushq	%rbp
	.cfi_def_cfa_offset 16
	.cfi_offset %rbp, -16
	movq	%rsp, %rbp
	.cfi_def_cfa_register %rbp
	subq	$32, %rsp
	movl	$1730346526, -24(%rbp)  # imm = 0x6722FE1E
	movl	%edi, -4(%rbp)
	movl	%esi, -8(%rbp)
	movl	$0, -28(%rbp)
	cmpl	$0, R
	jge	.LBB37_2
# %bb.1:                                # %if.then
	movl	$1, -28(%rbp)
.LBB37_2:                               # %if.end
	vmovsd	.LCPI37_0(%rip), %xmm0  # xmm0 = mem[0],zero
	xorl	%eax, %eax
	subl	R, %eax
	movl	%eax, -20(%rbp)
	vcvtsi2sdl	R, %xmm0, %xmm1
	vmovsd	bit_rate, %xmm2         # xmm2 = mem[0],zero
	vdivsd	frame_rate, %xmm2, %xmm2
	vaddsd	%xmm2, %xmm1, %xmm1
	vcvttsd2si	%xmm1, %rax
	movq	%rax, LowerBound
	vcvtsi2sdl	R, %xmm0, %xmm1
	vaddsd	InitialDelayOffset, %xmm1, %xmm1
	vcvttsd2si	%xmm1, %rax
	movq	%rax, UpperBound1
	movl	-4(%rbp), %eax
	addl	$1, %eax
	addl	-8(%rbp), %eax
	vcvtsi2sd	%eax, %xmm0, %xmm1
	vmulsd	bit_rate, %xmm1, %xmm1
	vdivsd	frame_rate, %xmm1, %xmm1
	vaddsd	%xmm0, %xmm1, %xmm1
	vroundsd	$9, %xmm1, %xmm0, %xmm1
	vcvttsd2si	%xmm1, %eax
	movl	%eax, -16(%rbp)
	movl	-16(%rbp), %eax
	addl	R, %eax
	movl	%eax, R
	movl	-4(%rbp), %eax
	movl	%eax, Np
	movl	-8(%rbp), %eax
	movl	%eax, Nb
	movl	-20(%rbp), %eax
	shll	$3, %eax
	cltd
	idivl	-16(%rbp)
	vcvtsi2sd	%eax, %xmm0, %xmm1
	vaddsd	%xmm0, %xmm1, %xmm0
	vcvttsd2si	%xmm0, %eax
	movl	%eax, -32(%rbp)
	movl	$0, GOPOverdue
	movq	img, %rax
	movl	$1, 72612(%rax)
	movl	-4(%rbp), %eax
	movl	%eax, TotalPFrame
	movq	img, %rax
	movl	72568(%rax), %ecx
	addl	$1, %ecx
	movl	%ecx, 72568(%rax)
	movq	img, %rax
	cmpl	$1, 72568(%rax)
	jne	.LBB37_4
# %bb.3:                                # %if.then20
	movq	input, %rax
	movl	3244(%rax), %eax
	movl	%eax, MyInitialQp
	movl	MyInitialQp, %eax
	subl	$1, %eax
	movl	%eax, PreviousQp2
	movl	MyInitialQp, %eax
	movl	%eax, QPLastGOP
	jmp	.LBB37_27
.LBB37_4:                               # %if.else
	movq	input, %rax
	cmpl	$2, 2880(%rax)
	je	.LBB37_6
# %bb.5:                                # %lor.lhs.false
	movq	input, %rax
	cmpl	$0, 2884(%rax)
	je	.LBB37_10
.LBB37_6:                               # %if.then24
	movq	img, %rax
	cmpl	$1, 72604(%rax)
	jne	.LBB37_8
# %bb.7:                                # %if.then27
	movl	FrameQPBuffer, %eax
	movq	img, %rcx
	addl	72572(%rcx), %eax
	movl	%eax, 72572(%rcx)
	movl	FrameQPBuffer, %eax
	movl	%eax, QPLastPFrame
	jmp	.LBB37_9
.LBB37_8:                               # %if.else29
	movl	FieldQPBuffer, %eax
	movq	img, %rcx
	addl	72572(%rcx), %eax
	movl	%eax, 72572(%rcx)
	movl	FieldQPBuffer, %eax
	movl	%eax, QPLastPFrame
.LBB37_9:                               # %if.end32
	jmp	.LBB37_10
.LBB37_10:                              # %if.end33
	vmovsd	.LCPI37_0(%rip), %xmm0  # xmm0 = mem[0],zero
	vmovsd	.LCPI37_1(%rip), %xmm1  # xmm1 = mem[0],zero
	vmovsd	.LCPI37_2(%rip), %xmm2  # xmm2 = mem[0],zero
	movq	img, %rax
	vcvtsi2sdl	72572(%rax), %xmm0, %xmm3
	vmulsd	%xmm3, %xmm2, %xmm3
	movq	img, %rax
	vcvtsi2sdl	72576(%rax), %xmm0, %xmm4
	vdivsd	%xmm4, %xmm3, %xmm3
	vaddsd	%xmm0, %xmm3, %xmm3
	vcvttsd2si	%xmm3, %eax
	movl	%eax, PAverageQp
	movl	-4(%rbp), %eax
	addl	-8(%rbp), %eax
	addl	$1, %eax
	vcvtsi2sd	%eax, %xmm0, %xmm3
	vmulsd	%xmm3, %xmm2, %xmm2
	vdivsd	%xmm1, %xmm2, %xmm1
	vaddsd	%xmm1, %xmm0, %xmm0
	vcvttsd2si	%xmm0, %eax
	movl	%eax, -12(%rbp)
	cmpl	$2, -12(%rbp)
	jle	.LBB37_12
# %bb.11:                               # %if.then50
	movl	$2, -12(%rbp)
.LBB37_12:                              # %if.end51
	movl	-12(%rbp), %eax
	movl	PAverageQp, %ecx
	subl	%eax, %ecx
	movl	%ecx, PAverageQp
	movl	PAverageQp, %eax
	movl	QPLastPFrame, %ecx
	subl	$2, %ecx
	cmpl	%ecx, %eax
	jle	.LBB37_14
# %bb.13:                               # %if.then56
	movl	PAverageQp, %eax
	addl	$-1, %eax
	movl	%eax, PAverageQp
.LBB37_14:                              # %if.end57
	movl	QPLastGOP, %eax
	subl	$2, %eax
	cmpl	PAverageQp, %eax
	jge	.LBB37_16
# %bb.15:                               # %cond.true
	movl	PAverageQp, %eax
	jmp	.LBB37_17
.LBB37_16:                              # %cond.false
	movl	QPLastGOP, %eax
	subl	$2, %eax
.LBB37_17:                              # %cond.end
	movl	%eax, PAverageQp
	movl	QPLastGOP, %eax
	addl	$2, %eax
	cmpl	PAverageQp, %eax
	jge	.LBB37_19
# %bb.18:                               # %cond.true65
	movl	QPLastGOP, %eax
	addl	$2, %eax
	jmp	.LBB37_20
.LBB37_19:                              # %cond.false67
	movl	PAverageQp, %eax
.LBB37_20:                              # %cond.end68
	movl	%eax, PAverageQp
	movl	RC_MAX_QUANT, %eax
	cmpl	PAverageQp, %eax
	jge	.LBB37_22
# %bb.21:                               # %cond.true72
	movl	RC_MAX_QUANT, %eax
	jmp	.LBB37_23
.LBB37_22:                              # %cond.false73
	movl	PAverageQp, %eax
.LBB37_23:                              # %cond.end74
	movl	%eax, PAverageQp
	movl	RC_MIN_QUANT, %eax
	cmpl	PAverageQp, %eax
	jge	.LBB37_25
# %bb.24:                               # %cond.true78
	movl	PAverageQp, %eax
	jmp	.LBB37_26
.LBB37_25:                              # %cond.false79
	movl	RC_MIN_QUANT, %eax
.LBB37_26:                              # %cond.end80
	movl	%eax, PAverageQp
	movl	PAverageQp, %eax
	movl	%eax, MyInitialQp
	movl	MyInitialQp, %eax
	movl	%eax, QPLastGOP
	movl	PAverageQp, %eax
	movl	%eax, Pm_Qp
	movl	PAverageQp, %eax
	movl	%eax, PAveFrameQP
	movl	PreviousQp2, %eax
	movl	%eax, PreviousQp1
	movl	MyInitialQp, %eax
	subl	$1, %eax
	movl	%eax, PreviousQp2
.LBB37_27:                              # %if.end83
	movq	img, %rax
	movl	$0, 72572(%rax)
	movq	img, %rax
	movl	$0, 72576(%rax)
	movl	$0, NumberofBFrames
	cmpl	$1730346526, -24(%rbp)  # imm = 0x6722FE1E
	jne	.LBB37_29
.LBB37_28:
	addq	$32, %rsp
	popq	%rbp
	.cfi_def_cfa %rsp, 8
	retq
.LBB37_29:                              # %func_exit
	.cfi_def_cfa %rbp, 16
	callq	detect_breach
	jmp	.LBB37_28
.Lfunc_end37:
	.size	rc_init_GOP.21, .Lfunc_end37-rc_init_GOP.21
	.cfi_endproc
                                        # -- End function
	.section	.rodata.cst8,"aM",@progbits,8
	.p2align	3               # -- Begin function updateMADModel.22
.LCPI38_0:
	.quad	4626322717216342016     # double 20
	.section	.rodata.cst16,"aM",@progbits,16
	.p2align	4
.LCPI38_1:
	.quad	9223372036854775807     # double NaN
	.quad	9223372036854775807     # double NaN
	.text
	.globl	updateMADModel.22
	.p2align	4, 0x90
	.type	updateMADModel.22,@function
updateMADModel.22:                      # @updateMADModel.22
	.cfi_startproc
# %bb.0:                                # %entry
	pushq	%rbp
	.cfi_def_cfa_offset 16
	.cfi_offset %rbp, -16
	movq	%rsp, %rbp
	.cfi_def_cfa_register %rbp
	subq	$208, %rsp
	movl	$239515971, -28(%rbp)   # imm = 0xE46B943
	vxorps	%xmm0, %xmm0, %xmm0
	vmovsd	%xmm0, -24(%rbp)
	movq	img, %rax
	cmpl	$0, 72564(%rax)
	jle	.LBB38_51
# %bb.1:                                # %if.then
	movq	img, %rax
	movl	72620(%rax), %eax
	movq	img, %rcx
	cmpl	72608(%rcx), %eax
	jne	.LBB38_3
# %bb.2:                                # %if.then2
	movq	img, %rax
	movl	72564(%rax), %eax
	movl	%eax, -12(%rbp)
	jmp	.LBB38_4
.LBB38_3:                               # %if.else
	movq	img, %rax
	movl	72564(%rax), %eax
	imull	TotalNumberofBasicUnit, %eax
	addl	CodedBasicUnit, %eax
	movl	%eax, -12(%rbp)
.LBB38_4:                               # %if.end
	movl	$19, -4(%rbp)
.LBB38_5:                               # %for.cond
                                        # =>This Inner Loop Header: Depth=1
	cmpl	$0, -4(%rbp)
	jle	.LBB38_8
# %bb.6:                                # %for.body
                                        #   in Loop: Header=BB38_5 Depth=1
	movl	-4(%rbp), %eax
	subl	$1, %eax
	cltq
	vmovsd	PPictureMAD(,%rax,8), %xmm0 # xmm0 = mem[0],zero
	movslq	-4(%rbp), %rax
	vmovsd	%xmm0, PPictureMAD(,%rax,8)
	movslq	-4(%rbp), %rax
	vmovsd	PPictureMAD(,%rax,8), %xmm0 # xmm0 = mem[0],zero
	movslq	-4(%rbp), %rax
	vmovsd	%xmm0, PictureMAD(,%rax,8)
	movl	-4(%rbp), %eax
	subl	$1, %eax
	cltq
	vmovsd	ReferenceMAD(,%rax,8), %xmm0 # xmm0 = mem[0],zero
	movslq	-4(%rbp), %rax
	vmovsd	%xmm0, ReferenceMAD(,%rax,8)
# %bb.7:                                # %for.inc
                                        #   in Loop: Header=BB38_5 Depth=1
	movl	-4(%rbp), %eax
	addl	$-1, %eax
	movl	%eax, -4(%rbp)
	jmp	.LBB38_5
.LBB38_8:                               # %for.end
	vmovsd	CurrentFrameMAD, %xmm0  # xmm0 = mem[0],zero
	vmovsd	%xmm0, PPictureMAD
	vmovsd	PPictureMAD, %xmm0      # xmm0 = mem[0],zero
	vmovsd	%xmm0, PictureMAD
	movq	img, %rax
	movl	72620(%rax), %eax
	movq	img, %rcx
	cmpl	72608(%rcx), %eax
	jne	.LBB38_10
# %bb.9:                                # %if.then20
	vmovsd	PictureMAD+8, %xmm0     # xmm0 = mem[0],zero
	vmovsd	%xmm0, ReferenceMAD
	jmp	.LBB38_16
.LBB38_10:                              # %if.else21
	movq	input, %rax
	cmpl	$2, 2880(%rax)
	je	.LBB38_12
# %bb.11:                               # %lor.lhs.false
	movq	input, %rax
	cmpl	$0, 2884(%rax)
	je	.LBB38_14
.LBB38_12:                              # %land.lhs.true
	movq	img, %rax
	cmpl	$1, 72600(%rax)
	jne	.LBB38_14
# %bb.13:                               # %if.then24
	movq	FCBUPFMAD, %rax
	movl	TotalNumberofBasicUnit, %ecx
	subl	$1, %ecx
	subl	NumberofBasicUnit, %ecx
	movslq	%ecx, %rcx
	vmovsd	(%rax,%rcx,8), %xmm0    # xmm0 = mem[0],zero
	vmovsd	%xmm0, ReferenceMAD
	jmp	.LBB38_15
.LBB38_14:                              # %if.else29
	movq	BUPFMAD, %rax
	movl	TotalNumberofBasicUnit, %ecx
	subl	$1, %ecx
	subl	NumberofBasicUnit, %ecx
	movslq	%ecx, %rcx
	vmovsd	(%rax,%rcx,8), %xmm0    # xmm0 = mem[0],zero
	vmovsd	%xmm0, ReferenceMAD
.LBB38_15:                              # %if.end34
	jmp	.LBB38_16
.LBB38_16:                              # %if.end35
	vmovsd	PMADPictureC1, %xmm0    # xmm0 = mem[0],zero
	vmovsd	%xmm0, MADPictureC1
	vmovsd	PMADPictureC2, %xmm0    # xmm0 = mem[0],zero
	vmovsd	%xmm0, MADPictureC2
	vmovsd	CurrentFrameMAD, %xmm0  # xmm0 = mem[0],zero
	vucomisd	PreviousFrameMAD, %xmm0
	jbe	.LBB38_18
# %bb.17:                               # %cond.true
	vmovsd	.LCPI38_0(%rip), %xmm0  # xmm0 = mem[0],zero
	vmovsd	PreviousFrameMAD, %xmm1 # xmm1 = mem[0],zero
	vdivsd	CurrentFrameMAD, %xmm1, %xmm1
	vmulsd	%xmm0, %xmm1, %xmm0
	vcvttsd2si	%xmm0, %eax
	jmp	.LBB38_19
.LBB38_18:                              # %cond.false
	vmovsd	.LCPI38_0(%rip), %xmm0  # xmm0 = mem[0],zero
	vmovsd	CurrentFrameMAD, %xmm1  # xmm1 = mem[0],zero
	vdivsd	PreviousFrameMAD, %xmm1, %xmm1
	vmulsd	%xmm0, %xmm1, %xmm0
	vcvttsd2si	%xmm0, %eax
.LBB38_19:                              # %cond.end
	movl	%eax, -8(%rbp)
	movl	-8(%rbp), %eax
	movl	-12(%rbp), %ecx
	subl	$1, %ecx
	cmpl	%ecx, %eax
	jge	.LBB38_21
# %bb.20:                               # %cond.true44
	movl	-8(%rbp), %eax
	jmp	.LBB38_22
.LBB38_21:                              # %cond.false45
	movl	-12(%rbp), %eax
	subl	$1, %eax
.LBB38_22:                              # %cond.end47
	movl	%eax, -8(%rbp)
	cmpl	$1, -8(%rbp)
	jge	.LBB38_24
# %bb.23:                               # %cond.true51
	movl	$1, %eax
	jmp	.LBB38_25
.LBB38_24:                              # %cond.false52
	movl	-8(%rbp), %eax
.LBB38_25:                              # %cond.end53
	movl	%eax, -8(%rbp)
	movl	-8(%rbp), %eax
	movl	MADm_windowSize, %ecx
	addl	$1, %ecx
	cmpl	%ecx, %eax
	jge	.LBB38_27
# %bb.26:                               # %cond.true58
	movl	-8(%rbp), %eax
	jmp	.LBB38_28
.LBB38_27:                              # %cond.false59
	movl	MADm_windowSize, %eax
	addl	$1, %eax
.LBB38_28:                              # %cond.end61
	movl	%eax, -8(%rbp)
	movl	$20, %eax
	cmpl	-8(%rbp), %eax
	jge	.LBB38_30
# %bb.29:                               # %cond.true65
	movl	$20, %eax
	jmp	.LBB38_31
.LBB38_30:                              # %cond.false66
	movl	-8(%rbp), %eax
.LBB38_31:                              # %cond.end67
	movl	%eax, -8(%rbp)
	movl	-8(%rbp), %eax
	movl	%eax, MADm_windowSize
	movl	$0, -4(%rbp)
.LBB38_32:                              # %for.cond69
                                        # =>This Inner Loop Header: Depth=1
	cmpl	$20, -4(%rbp)
	jge	.LBB38_35
# %bb.33:                               # %for.body72
                                        #   in Loop: Header=BB38_32 Depth=1
	movslq	-4(%rbp), %rax
	movl	$0, PictureRejected(,%rax,4)
# %bb.34:                               # %for.inc75
                                        #   in Loop: Header=BB38_32 Depth=1
	movl	-4(%rbp), %eax
	addl	$1, %eax
	movl	%eax, -4(%rbp)
	jmp	.LBB38_32
.LBB38_35:                              # %for.end76
	movq	img, %rax
	cmpl	$0, 24(%rax)
	jne	.LBB38_37
# %bb.36:                               # %if.then79
	vmovsd	CurrentFrameMAD, %xmm0  # xmm0 = mem[0],zero
	vmovsd	%xmm0, PreviousFrameMAD
.LBB38_37:                              # %if.end80
	movl	-8(%rbp), %edi
	callq	MADModelEstimator
	movl	$0, -4(%rbp)
.LBB38_38:                              # %for.cond81
                                        # =>This Inner Loop Header: Depth=1
	movl	-4(%rbp), %eax
	cmpl	-8(%rbp), %eax
	jge	.LBB38_41
# %bb.39:                               # %for.body84
                                        #   in Loop: Header=BB38_38 Depth=1
	vmovsd	MADPictureC1, %xmm0     # xmm0 = mem[0],zero
	movslq	-4(%rbp), %rax
	vmulsd	ReferenceMAD(,%rax,8), %xmm0, %xmm0
	vaddsd	MADPictureC2, %xmm0, %xmm0
	movslq	-4(%rbp), %rax
	vsubsd	PictureMAD(,%rax,8), %xmm0, %xmm0
	movslq	-4(%rbp), %rax
	vmovsd	%xmm0, -208(%rbp,%rax,8)
	movslq	-4(%rbp), %rax
	vmovsd	-208(%rbp,%rax,8), %xmm0 # xmm0 = mem[0],zero
	movslq	-4(%rbp), %rax
	vmulsd	-208(%rbp,%rax,8), %xmm0, %xmm0
	vaddsd	-24(%rbp), %xmm0, %xmm0
	vmovsd	%xmm0, -24(%rbp)
# %bb.40:                               # %for.inc100
                                        #   in Loop: Header=BB38_38 Depth=1
	movl	-4(%rbp), %eax
	addl	$1, %eax
	movl	%eax, -4(%rbp)
	jmp	.LBB38_38
.LBB38_41:                              # %for.end102
	cmpl	$2, -8(%rbp)
	jne	.LBB38_43
# %bb.42:                               # %cond.true105
	vxorps	%xmm0, %xmm0, %xmm0
	jmp	.LBB38_44
.LBB38_43:                              # %cond.false106
	vmovsd	-24(%rbp), %xmm0        # xmm0 = mem[0],zero
	vcvtsi2sdl	-8(%rbp), %xmm0, %xmm1
	vdivsd	%xmm1, %xmm0, %xmm0
	callq	sqrt
.LBB38_44:                              # %cond.end109
	vmovsd	%xmm0, -40(%rbp)
	movl	$0, -4(%rbp)
.LBB38_45:                              # %for.cond111
                                        # =>This Inner Loop Header: Depth=1
	movl	-4(%rbp), %eax
	cmpl	-8(%rbp), %eax
	jge	.LBB38_50
# %bb.46:                               # %for.body114
                                        #   in Loop: Header=BB38_45 Depth=1
	movslq	-4(%rbp), %rax
	vmovsd	-208(%rbp,%rax,8), %xmm0 # xmm0 = mem[0],zero
	vmovdqa	.LCPI38_1(%rip), %xmm1  # xmm1 = [NaN,NaN]
	vpand	%xmm1, %xmm0, %xmm0
	vucomisd	-40(%rbp), %xmm0
	jbe	.LBB38_48
# %bb.47:                               # %if.then119
                                        #   in Loop: Header=BB38_45 Depth=1
	movslq	-4(%rbp), %rax
	movl	$1, PictureRejected(,%rax,4)
.LBB38_48:                              # %if.end122
                                        #   in Loop: Header=BB38_45 Depth=1
	jmp	.LBB38_49
.LBB38_49:                              # %for.inc123
                                        #   in Loop: Header=BB38_45 Depth=1
	movl	-4(%rbp), %eax
	addl	$1, %eax
	movl	%eax, -4(%rbp)
	jmp	.LBB38_45
.LBB38_50:                              # %for.end125
	movl	$0, PictureRejected
	movl	-8(%rbp), %edi
	callq	MADModelEstimator
.LBB38_51:                              # %if.end126
	cmpl	$239515971, -28(%rbp)   # imm = 0xE46B943
	jne	.LBB38_53
.LBB38_52:
	addq	$208, %rsp
	popq	%rbp
	.cfi_def_cfa %rsp, 8
	retq
.LBB38_53:                              # %func_exit
	.cfi_def_cfa %rbp, 16
	callq	detect_breach
	jmp	.LBB38_52
.Lfunc_end38:
	.size	updateMADModel.22, .Lfunc_end38-updateMADModel.22
	.cfi_endproc
                                        # -- End function
	.section	.rodata.cst8,"aM",@progbits,8
	.p2align	3               # -- Begin function calc_MAD.23
.LCPI39_0:
	.quad	4643211215818981376     # double 256
.LCPI39_1:
	.quad	4607182418800017408     # double 1
	.text
	.globl	calc_MAD.23
	.p2align	4, 0x90
	.type	calc_MAD.23,@function
calc_MAD.23:                            # @calc_MAD.23
	.cfi_startproc
# %bb.0:                                # %entry
	pushq	%rbp
	.cfi_def_cfa_offset 16
	.cfi_offset %rbp, -16
	movq	%rsp, %rbp
	.cfi_def_cfa_register %rbp
	subq	$32, %rsp
	movl	$193275532, -16(%rbp)   # imm = 0xB85268C
	movl	$0, -12(%rbp)
	movl	$0, -4(%rbp)
.LBB39_1:                               # %for.cond
                                        # =>This Loop Header: Depth=1
                                        #     Child Loop BB39_3 Depth 2
	cmpl	$16, -4(%rbp)
	jge	.LBB39_8
# %bb.2:                                # %for.body
                                        #   in Loop: Header=BB39_1 Depth=1
	movl	$0, -8(%rbp)
.LBB39_3:                               # %for.cond1
                                        #   Parent Loop BB39_1 Depth=1
                                        # =>  This Inner Loop Header: Depth=2
	cmpl	$16, -8(%rbp)
	jge	.LBB39_6
# %bb.4:                                # %for.body3
                                        #   in Loop: Header=BB39_3 Depth=2
	movslq	-4(%rbp), %rax
	shlq	$6, %rax
	movabsq	$diffy, %rcx
	addq	%rax, %rcx
	movslq	-8(%rbp), %rax
	movl	(%rcx,%rax,4), %edi
	callq	abs
	addl	-12(%rbp), %eax
	movl	%eax, -12(%rbp)
# %bb.5:                                # %for.inc
                                        #   in Loop: Header=BB39_3 Depth=2
	movl	-8(%rbp), %eax
	addl	$1, %eax
	movl	%eax, -8(%rbp)
	jmp	.LBB39_3
.LBB39_6:                               # %for.end
                                        #   in Loop: Header=BB39_1 Depth=1
	jmp	.LBB39_7
.LBB39_7:                               # %for.inc6
                                        #   in Loop: Header=BB39_1 Depth=1
	movl	-4(%rbp), %eax
	addl	$1, %eax
	movl	%eax, -4(%rbp)
	jmp	.LBB39_1
.LBB39_8:                               # %for.end8
	vmovsd	.LCPI39_0(%rip), %xmm0  # xmm0 = mem[0],zero
	vmovsd	.LCPI39_1(%rip), %xmm1  # xmm1 = mem[0],zero
	vcvtsi2sdl	-12(%rbp), %xmm0, %xmm2
	vmulsd	%xmm1, %xmm2, %xmm1
	vdivsd	%xmm0, %xmm1, %xmm0
	vmovsd	%xmm0, -32(%rbp)
	vmovsd	-32(%rbp), %xmm0        # xmm0 = mem[0],zero
	cmpl	$193275532, -16(%rbp)   # imm = 0xB85268C
	jne	.LBB39_10
.LBB39_9:
	addq	$32, %rsp
	popq	%rbp
	.cfi_def_cfa %rsp, 8
	retq
.LBB39_10:                              # %func_exit
	.cfi_def_cfa %rbp, 16
	vmovsd	%xmm0, -24(%rbp)        # 8-byte Spill
	callq	detect_breach
	vmovsd	-24(%rbp), %xmm0        # 8-byte Reload
                                        # xmm0 = mem[0],zero
	jmp	.LBB39_9
.Lfunc_end39:
	.size	calc_MAD.23, .Lfunc_end39-calc_MAD.23
	.cfi_endproc
                                        # -- End function
	.section	.rodata.cst8,"aM",@progbits,8
	.p2align	3               # -- Begin function QP2Qstep.24
.LCPI40_0:
	.quad	4611686018427387904     # double 2
	.text
	.globl	QP2Qstep.24
	.p2align	4, 0x90
	.type	QP2Qstep.24,@function
QP2Qstep.24:                            # @QP2Qstep.24
	.cfi_startproc
# %bb.0:                                # %entry
	pushq	%rbp
	.cfi_def_cfa_offset 16
	.cfi_offset %rbp, -16
	movq	%rsp, %rbp
	.cfi_def_cfa_register %rbp
	subq	$32, %rsp
	movl	$104974512, -20(%rbp)   # imm = 0x641C8B0
	movl	%edi, -8(%rbp)
	movl	-8(%rbp), %eax
	cltd
	movl	$6, %ecx
	idivl	%ecx
	movslq	%edx, %rax
	vmovsd	QP2Qstep.QP2QSTEP(,%rax,8), %xmm0 # xmm0 = mem[0],zero
	vmovsd	%xmm0, -16(%rbp)
	movl	$0, -4(%rbp)
.LBB40_1:                               # %for.cond
                                        # =>This Inner Loop Header: Depth=1
	movl	-4(%rbp), %ecx
	movl	-8(%rbp), %eax
	cltd
	movl	$6, %esi
	idivl	%esi
	cmpl	%eax, %ecx
	jge	.LBB40_4
# %bb.2:                                # %for.body
                                        #   in Loop: Header=BB40_1 Depth=1
	vmovsd	.LCPI40_0(%rip), %xmm0  # xmm0 = mem[0],zero
	vmulsd	-16(%rbp), %xmm0, %xmm0
	vmovsd	%xmm0, -16(%rbp)
# %bb.3:                                # %for.inc
                                        #   in Loop: Header=BB40_1 Depth=1
	movl	-4(%rbp), %eax
	addl	$1, %eax
	movl	%eax, -4(%rbp)
	jmp	.LBB40_1
.LBB40_4:                               # %for.end
	vmovsd	-16(%rbp), %xmm0        # xmm0 = mem[0],zero
	cmpl	$104974512, -20(%rbp)   # imm = 0x641C8B0
	jne	.LBB40_6
.LBB40_5:
	addq	$32, %rsp
	popq	%rbp
	.cfi_def_cfa %rsp, 8
	retq
.LBB40_6:                               # %func_exit
	.cfi_def_cfa %rbp, 16
	vmovsd	%xmm0, -32(%rbp)        # 8-byte Spill
	callq	detect_breach
	vmovsd	-32(%rbp), %xmm0        # 8-byte Reload
                                        # xmm0 = mem[0],zero
	jmp	.LBB40_5
.Lfunc_end40:
	.size	QP2Qstep.24, .Lfunc_end40-QP2Qstep.24
	.cfi_endproc
                                        # -- End function
	.section	.rodata.cst8,"aM",@progbits,8
	.p2align	3               # -- Begin function RCModelEstimator.25
.LCPI41_0:
	.quad	4517329193108106637     # double 9.9999999999999995E-7
.LCPI41_2:
	.quad	4607182418800017408     # double 1
	.section	.rodata.cst16,"aM",@progbits,16
	.p2align	4
.LCPI41_1:
	.quad	9223372036854775807     # double NaN
	.quad	9223372036854775807     # double NaN
	.text
	.globl	RCModelEstimator.25
	.p2align	4, 0x90
	.type	RCModelEstimator.25,@function
RCModelEstimator.25:                    # @RCModelEstimator.25
	.cfi_startproc
# %bb.0:                                # %entry
	pushq	%rbp
	.cfi_def_cfa_offset 16
	.cfi_offset %rbp, -16
	movq	%rsp, %rbp
	.cfi_def_cfa_register %rbp
	subq	$96, %rsp
	movl	$328603024, -84(%rbp)   # imm = 0x13961590
	movl	%edi, -8(%rbp)
	movl	-8(%rbp), %eax
	movl	%eax, -12(%rbp)
	vxorps	%xmm0, %xmm0, %xmm0
	vmovsd	%xmm0, -40(%rbp)
	vmovsd	%xmm0, -32(%rbp)
	vmovsd	%xmm0, -80(%rbp)
	vmovsd	%xmm0, -56(%rbp)
	vmovsd	%xmm0, -24(%rbp)
	vmovsd	%xmm0, -64(%rbp)
	movl	$0, -44(%rbp)
	movl	$0, -4(%rbp)
.LBB41_1:                               # %for.cond
                                        # =>This Inner Loop Header: Depth=1
	movl	-4(%rbp), %eax
	cmpl	-8(%rbp), %eax
	jge	.LBB41_6
# %bb.2:                                # %for.body
                                        #   in Loop: Header=BB41_1 Depth=1
	movslq	-4(%rbp), %rax
	cmpl	$0, m_rgRejected(,%rax,4)
	je	.LBB41_4
# %bb.3:                                # %if.then
                                        #   in Loop: Header=BB41_1 Depth=1
	movl	-12(%rbp), %eax
	addl	$-1, %eax
	movl	%eax, -12(%rbp)
.LBB41_4:                               # %if.end
                                        #   in Loop: Header=BB41_1 Depth=1
	jmp	.LBB41_5
.LBB41_5:                               # %for.inc
                                        #   in Loop: Header=BB41_1 Depth=1
	movl	-4(%rbp), %eax
	addl	$1, %eax
	movl	%eax, -4(%rbp)
	jmp	.LBB41_1
.LBB41_6:                               # %for.end
	vxorps	%xmm0, %xmm0, %xmm0
	vmovsd	%xmm0, m_X2
	vmovsd	%xmm0, m_X1
	movl	$0, -4(%rbp)
.LBB41_7:                               # %for.cond1
                                        # =>This Inner Loop Header: Depth=1
	movl	-4(%rbp), %eax
	cmpl	-8(%rbp), %eax
	jge	.LBB41_12
# %bb.8:                                # %for.body3
                                        #   in Loop: Header=BB41_7 Depth=1
	movslq	-4(%rbp), %rax
	cmpl	$0, m_rgRejected(,%rax,4)
	jne	.LBB41_10
# %bb.9:                                # %if.then7
                                        #   in Loop: Header=BB41_7 Depth=1
	movslq	-4(%rbp), %rax
	vmovsd	m_rgQp(,%rax,8), %xmm0  # xmm0 = mem[0],zero
	vmovsd	%xmm0, -96(%rbp)
.LBB41_10:                              # %if.end10
                                        #   in Loop: Header=BB41_7 Depth=1
	jmp	.LBB41_11
.LBB41_11:                              # %for.inc11
                                        #   in Loop: Header=BB41_7 Depth=1
	movl	-4(%rbp), %eax
	addl	$1, %eax
	movl	%eax, -4(%rbp)
	jmp	.LBB41_7
.LBB41_12:                              # %for.end13
	movl	$0, -4(%rbp)
.LBB41_13:                              # %for.cond14
                                        # =>This Inner Loop Header: Depth=1
	movl	-4(%rbp), %eax
	cmpl	-8(%rbp), %eax
	jge	.LBB41_21
# %bb.14:                               # %for.body16
                                        #   in Loop: Header=BB41_13 Depth=1
	movslq	-4(%rbp), %rax
	vmovsd	m_rgQp(,%rax,8), %xmm0  # xmm0 = mem[0],zero
	vucomisd	-96(%rbp), %xmm0
	jne	.LBB41_15
	jp	.LBB41_15
	jmp	.LBB41_17
.LBB41_15:                              # %land.lhs.true
                                        #   in Loop: Header=BB41_13 Depth=1
	movslq	-4(%rbp), %rax
	cmpl	$0, m_rgRejected(,%rax,4)
	jne	.LBB41_17
# %bb.16:                               # %if.then23
                                        #   in Loop: Header=BB41_13 Depth=1
	movl	$1, -44(%rbp)
.LBB41_17:                              # %if.end24
                                        #   in Loop: Header=BB41_13 Depth=1
	movslq	-4(%rbp), %rax
	cmpl	$0, m_rgRejected(,%rax,4)
	jne	.LBB41_19
# %bb.18:                               # %if.then28
                                        #   in Loop: Header=BB41_13 Depth=1
	movslq	-4(%rbp), %rax
	vmovsd	m_rgQp(,%rax,8), %xmm0  # xmm0 = mem[0],zero
	movslq	-4(%rbp), %rax
	vmulsd	m_rgRp(,%rax,8), %xmm0, %xmm0
	vcvtsi2sdl	-12(%rbp), %xmm0, %xmm1
	vdivsd	%xmm1, %xmm0, %xmm0
	vaddsd	m_X1, %xmm0, %xmm0
	vmovsd	%xmm0, m_X1
.LBB41_19:                              # %if.end33
                                        #   in Loop: Header=BB41_13 Depth=1
	jmp	.LBB41_20
.LBB41_20:                              # %for.inc34
                                        #   in Loop: Header=BB41_13 Depth=1
	movl	-4(%rbp), %eax
	addl	$1, %eax
	movl	%eax, -4(%rbp)
	jmp	.LBB41_13
.LBB41_21:                              # %for.end36
	cmpl	$1, -12(%rbp)
	jl	.LBB41_33
# %bb.22:                               # %land.lhs.true39
	cmpl	$0, -44(%rbp)
	je	.LBB41_33
# %bb.23:                               # %if.then41
	movl	$0, -4(%rbp)
.LBB41_24:                              # %for.cond42
                                        # =>This Inner Loop Header: Depth=1
	movl	-4(%rbp), %eax
	cmpl	-8(%rbp), %eax
	jge	.LBB41_29
# %bb.25:                               # %for.body45
                                        #   in Loop: Header=BB41_24 Depth=1
	movslq	-4(%rbp), %rax
	cmpl	$0, m_rgRejected(,%rax,4)
	jne	.LBB41_27
# %bb.26:                               # %if.then49
                                        #   in Loop: Header=BB41_24 Depth=1
	vmovsd	.LCPI41_2(%rip), %xmm0  # xmm0 = mem[0],zero
	vaddsd	-40(%rbp), %xmm0, %xmm1
	vmovsd	%xmm1, -40(%rbp)
	movslq	-4(%rbp), %rax
	vdivsd	m_rgQp(,%rax,8), %xmm0, %xmm1
	vaddsd	-32(%rbp), %xmm1, %xmm1
	vmovsd	%xmm1, -32(%rbp)
	vmovsd	-32(%rbp), %xmm1        # xmm1 = mem[0],zero
	vmovsd	%xmm1, -80(%rbp)
	movslq	-4(%rbp), %rax
	vmovsd	m_rgQp(,%rax,8), %xmm1  # xmm1 = mem[0],zero
	movslq	-4(%rbp), %rax
	vmulsd	m_rgQp(,%rax,8), %xmm1, %xmm1
	vdivsd	%xmm1, %xmm0, %xmm0
	vaddsd	-56(%rbp), %xmm0, %xmm0
	vmovsd	%xmm0, -56(%rbp)
	movslq	-4(%rbp), %rax
	vmovsd	m_rgQp(,%rax,8), %xmm0  # xmm0 = mem[0],zero
	movslq	-4(%rbp), %rax
	vmulsd	m_rgRp(,%rax,8), %xmm0, %xmm0
	vaddsd	-24(%rbp), %xmm0, %xmm0
	vmovsd	%xmm0, -24(%rbp)
	movslq	-4(%rbp), %rax
	vmovsd	m_rgRp(,%rax,8), %xmm0  # xmm0 = mem[0],zero
	vaddsd	-64(%rbp), %xmm0, %xmm0
	vmovsd	%xmm0, -64(%rbp)
.LBB41_27:                              # %if.end71
                                        #   in Loop: Header=BB41_24 Depth=1
	jmp	.LBB41_28
.LBB41_28:                              # %for.inc72
                                        #   in Loop: Header=BB41_24 Depth=1
	movl	-4(%rbp), %eax
	addl	$1, %eax
	movl	%eax, -4(%rbp)
	jmp	.LBB41_24
.LBB41_29:                              # %for.end74
	vmovsd	.LCPI41_0(%rip), %xmm0  # xmm0 = mem[0],zero
	vmovsd	-40(%rbp), %xmm1        # xmm1 = mem[0],zero
	vmulsd	-56(%rbp), %xmm1, %xmm1
	vmovsd	-32(%rbp), %xmm2        # xmm2 = mem[0],zero
	vmulsd	-80(%rbp), %xmm2, %xmm2
	vsubsd	%xmm2, %xmm1, %xmm1
	vmovsd	%xmm1, -72(%rbp)
	vmovsd	-72(%rbp), %xmm1        # xmm1 = mem[0],zero
	vmovdqa	.LCPI41_1(%rip), %xmm2  # xmm2 = [NaN,NaN]
	vpand	%xmm2, %xmm1, %xmm1
	vucomisd	%xmm0, %xmm1
	jbe	.LBB41_31
# %bb.30:                               # %if.then79
	vmovsd	-24(%rbp), %xmm0        # xmm0 = mem[0],zero
	vmulsd	-56(%rbp), %xmm0, %xmm0
	vmovsd	-64(%rbp), %xmm1        # xmm1 = mem[0],zero
	vmulsd	-32(%rbp), %xmm1, %xmm1
	vsubsd	%xmm1, %xmm0, %xmm0
	vdivsd	-72(%rbp), %xmm0, %xmm0
	vmovsd	%xmm0, m_X1
	vmovsd	-64(%rbp), %xmm0        # xmm0 = mem[0],zero
	vmulsd	-40(%rbp), %xmm0, %xmm0
	vmovsd	-24(%rbp), %xmm1        # xmm1 = mem[0],zero
	vmulsd	-80(%rbp), %xmm1, %xmm1
	vsubsd	%xmm1, %xmm0, %xmm0
	vdivsd	-72(%rbp), %xmm0, %xmm0
	vmovsd	%xmm0, m_X2
	jmp	.LBB41_32
.LBB41_31:                              # %if.else
	vmovsd	-24(%rbp), %xmm0        # xmm0 = mem[0],zero
	vdivsd	-40(%rbp), %xmm0, %xmm0
	vmovsd	%xmm0, m_X1
	vxorps	%xmm0, %xmm0, %xmm0
	vmovsd	%xmm0, m_X2
.LBB41_32:                              # %if.end89
	jmp	.LBB41_33
.LBB41_33:                              # %if.end90
	movq	img, %rax
	cmpl	$0, 24(%rax)
	jne	.LBB41_35
# %bb.34:                               # %if.then93
	vmovsd	m_X1, %xmm0             # xmm0 = mem[0],zero
	vmovsd	%xmm0, Pm_X1
	vmovsd	m_X2, %xmm0             # xmm0 = mem[0],zero
	vmovsd	%xmm0, Pm_X2
.LBB41_35:                              # %if.end94
	cmpl	$328603024, -84(%rbp)   # imm = 0x13961590
	jne	.LBB41_37
.LBB41_36:
	addq	$96, %rsp
	popq	%rbp
	.cfi_def_cfa %rsp, 8
	retq
.LBB41_37:                              # %func_exit
	.cfi_def_cfa %rbp, 16
	callq	detect_breach
	jmp	.LBB41_36
.Lfunc_end41:
	.size	RCModelEstimator.25, .Lfunc_end41-RCModelEstimator.25
	.cfi_endproc
                                        # -- End function
	.section	.rodata.cst8,"aM",@progbits,8
	.p2align	3               # -- Begin function RCModelEstimator.26
.LCPI42_0:
	.quad	4517329193108106637     # double 9.9999999999999995E-7
.LCPI42_2:
	.quad	4607182418800017408     # double 1
	.section	.rodata.cst16,"aM",@progbits,16
	.p2align	4
.LCPI42_1:
	.quad	9223372036854775807     # double NaN
	.quad	9223372036854775807     # double NaN
	.text
	.globl	RCModelEstimator.26
	.p2align	4, 0x90
	.type	RCModelEstimator.26,@function
RCModelEstimator.26:                    # @RCModelEstimator.26
	.cfi_startproc
# %bb.0:                                # %entry
	pushq	%rbp
	.cfi_def_cfa_offset 16
	.cfi_offset %rbp, -16
	movq	%rsp, %rbp
	.cfi_def_cfa_register %rbp
	subq	$96, %rsp
	movl	$878068563, -84(%rbp)   # imm = 0x34564353
	movl	%edi, -8(%rbp)
	movl	-8(%rbp), %eax
	movl	%eax, -12(%rbp)
	vxorps	%xmm0, %xmm0, %xmm0
	vmovsd	%xmm0, -32(%rbp)
	vmovsd	%xmm0, -24(%rbp)
	vmovsd	%xmm0, -80(%rbp)
	vmovsd	%xmm0, -56(%rbp)
	vmovsd	%xmm0, -40(%rbp)
	vmovsd	%xmm0, -64(%rbp)
	movl	$0, -44(%rbp)
	movl	$0, -4(%rbp)
.LBB42_1:                               # %for.cond
                                        # =>This Inner Loop Header: Depth=1
	movl	-4(%rbp), %eax
	cmpl	-8(%rbp), %eax
	jge	.LBB42_6
# %bb.2:                                # %for.body
                                        #   in Loop: Header=BB42_1 Depth=1
	movslq	-4(%rbp), %rax
	cmpl	$0, m_rgRejected(,%rax,4)
	je	.LBB42_4
# %bb.3:                                # %if.then
                                        #   in Loop: Header=BB42_1 Depth=1
	movl	-12(%rbp), %eax
	addl	$-1, %eax
	movl	%eax, -12(%rbp)
.LBB42_4:                               # %if.end
                                        #   in Loop: Header=BB42_1 Depth=1
	jmp	.LBB42_5
.LBB42_5:                               # %for.inc
                                        #   in Loop: Header=BB42_1 Depth=1
	movl	-4(%rbp), %eax
	addl	$1, %eax
	movl	%eax, -4(%rbp)
	jmp	.LBB42_1
.LBB42_6:                               # %for.end
	vxorps	%xmm0, %xmm0, %xmm0
	vmovsd	%xmm0, m_X2
	vmovsd	%xmm0, m_X1
	movl	$0, -4(%rbp)
.LBB42_7:                               # %for.cond1
                                        # =>This Inner Loop Header: Depth=1
	movl	-4(%rbp), %eax
	cmpl	-8(%rbp), %eax
	jge	.LBB42_12
# %bb.8:                                # %for.body3
                                        #   in Loop: Header=BB42_7 Depth=1
	movslq	-4(%rbp), %rax
	cmpl	$0, m_rgRejected(,%rax,4)
	jne	.LBB42_10
# %bb.9:                                # %if.then7
                                        #   in Loop: Header=BB42_7 Depth=1
	movslq	-4(%rbp), %rax
	vmovsd	m_rgQp(,%rax,8), %xmm0  # xmm0 = mem[0],zero
	vmovsd	%xmm0, -96(%rbp)
.LBB42_10:                              # %if.end10
                                        #   in Loop: Header=BB42_7 Depth=1
	jmp	.LBB42_11
.LBB42_11:                              # %for.inc11
                                        #   in Loop: Header=BB42_7 Depth=1
	movl	-4(%rbp), %eax
	addl	$1, %eax
	movl	%eax, -4(%rbp)
	jmp	.LBB42_7
.LBB42_12:                              # %for.end13
	movl	$0, -4(%rbp)
.LBB42_13:                              # %for.cond14
                                        # =>This Inner Loop Header: Depth=1
	movl	-4(%rbp), %eax
	cmpl	-8(%rbp), %eax
	jge	.LBB42_21
# %bb.14:                               # %for.body16
                                        #   in Loop: Header=BB42_13 Depth=1
	movslq	-4(%rbp), %rax
	vmovsd	m_rgQp(,%rax,8), %xmm0  # xmm0 = mem[0],zero
	vucomisd	-96(%rbp), %xmm0
	jne	.LBB42_15
	jp	.LBB42_15
	jmp	.LBB42_17
.LBB42_15:                              # %land.lhs.true
                                        #   in Loop: Header=BB42_13 Depth=1
	movslq	-4(%rbp), %rax
	cmpl	$0, m_rgRejected(,%rax,4)
	jne	.LBB42_17
# %bb.16:                               # %if.then23
                                        #   in Loop: Header=BB42_13 Depth=1
	movl	$1, -44(%rbp)
.LBB42_17:                              # %if.end24
                                        #   in Loop: Header=BB42_13 Depth=1
	movslq	-4(%rbp), %rax
	cmpl	$0, m_rgRejected(,%rax,4)
	jne	.LBB42_19
# %bb.18:                               # %if.then28
                                        #   in Loop: Header=BB42_13 Depth=1
	movslq	-4(%rbp), %rax
	vmovsd	m_rgQp(,%rax,8), %xmm0  # xmm0 = mem[0],zero
	movslq	-4(%rbp), %rax
	vmulsd	m_rgRp(,%rax,8), %xmm0, %xmm0
	vcvtsi2sdl	-12(%rbp), %xmm0, %xmm1
	vdivsd	%xmm1, %xmm0, %xmm0
	vaddsd	m_X1, %xmm0, %xmm0
	vmovsd	%xmm0, m_X1
.LBB42_19:                              # %if.end33
                                        #   in Loop: Header=BB42_13 Depth=1
	jmp	.LBB42_20
.LBB42_20:                              # %for.inc34
                                        #   in Loop: Header=BB42_13 Depth=1
	movl	-4(%rbp), %eax
	addl	$1, %eax
	movl	%eax, -4(%rbp)
	jmp	.LBB42_13
.LBB42_21:                              # %for.end36
	cmpl	$1, -12(%rbp)
	jl	.LBB42_33
# %bb.22:                               # %land.lhs.true39
	cmpl	$0, -44(%rbp)
	je	.LBB42_33
# %bb.23:                               # %if.then41
	movl	$0, -4(%rbp)
.LBB42_24:                              # %for.cond42
                                        # =>This Inner Loop Header: Depth=1
	movl	-4(%rbp), %eax
	cmpl	-8(%rbp), %eax
	jge	.LBB42_29
# %bb.25:                               # %for.body45
                                        #   in Loop: Header=BB42_24 Depth=1
	movslq	-4(%rbp), %rax
	cmpl	$0, m_rgRejected(,%rax,4)
	jne	.LBB42_27
# %bb.26:                               # %if.then49
                                        #   in Loop: Header=BB42_24 Depth=1
	vmovsd	.LCPI42_2(%rip), %xmm0  # xmm0 = mem[0],zero
	vaddsd	-32(%rbp), %xmm0, %xmm1
	vmovsd	%xmm1, -32(%rbp)
	movslq	-4(%rbp), %rax
	vdivsd	m_rgQp(,%rax,8), %xmm0, %xmm1
	vaddsd	-24(%rbp), %xmm1, %xmm1
	vmovsd	%xmm1, -24(%rbp)
	vmovsd	-24(%rbp), %xmm1        # xmm1 = mem[0],zero
	vmovsd	%xmm1, -80(%rbp)
	movslq	-4(%rbp), %rax
	vmovsd	m_rgQp(,%rax,8), %xmm1  # xmm1 = mem[0],zero
	movslq	-4(%rbp), %rax
	vmulsd	m_rgQp(,%rax,8), %xmm1, %xmm1
	vdivsd	%xmm1, %xmm0, %xmm0
	vaddsd	-56(%rbp), %xmm0, %xmm0
	vmovsd	%xmm0, -56(%rbp)
	movslq	-4(%rbp), %rax
	vmovsd	m_rgQp(,%rax,8), %xmm0  # xmm0 = mem[0],zero
	movslq	-4(%rbp), %rax
	vmulsd	m_rgRp(,%rax,8), %xmm0, %xmm0
	vaddsd	-40(%rbp), %xmm0, %xmm0
	vmovsd	%xmm0, -40(%rbp)
	movslq	-4(%rbp), %rax
	vmovsd	m_rgRp(,%rax,8), %xmm0  # xmm0 = mem[0],zero
	vaddsd	-64(%rbp), %xmm0, %xmm0
	vmovsd	%xmm0, -64(%rbp)
.LBB42_27:                              # %if.end71
                                        #   in Loop: Header=BB42_24 Depth=1
	jmp	.LBB42_28
.LBB42_28:                              # %for.inc72
                                        #   in Loop: Header=BB42_24 Depth=1
	movl	-4(%rbp), %eax
	addl	$1, %eax
	movl	%eax, -4(%rbp)
	jmp	.LBB42_24
.LBB42_29:                              # %for.end74
	vmovsd	.LCPI42_0(%rip), %xmm0  # xmm0 = mem[0],zero
	vmovsd	-32(%rbp), %xmm1        # xmm1 = mem[0],zero
	vmulsd	-56(%rbp), %xmm1, %xmm1
	vmovsd	-24(%rbp), %xmm2        # xmm2 = mem[0],zero
	vmulsd	-80(%rbp), %xmm2, %xmm2
	vsubsd	%xmm2, %xmm1, %xmm1
	vmovsd	%xmm1, -72(%rbp)
	vmovsd	-72(%rbp), %xmm1        # xmm1 = mem[0],zero
	vmovdqa	.LCPI42_1(%rip), %xmm2  # xmm2 = [NaN,NaN]
	vpand	%xmm2, %xmm1, %xmm1
	vucomisd	%xmm0, %xmm1
	jbe	.LBB42_31
# %bb.30:                               # %if.then79
	vmovsd	-40(%rbp), %xmm0        # xmm0 = mem[0],zero
	vmulsd	-56(%rbp), %xmm0, %xmm0
	vmovsd	-64(%rbp), %xmm1        # xmm1 = mem[0],zero
	vmulsd	-24(%rbp), %xmm1, %xmm1
	vsubsd	%xmm1, %xmm0, %xmm0
	vdivsd	-72(%rbp), %xmm0, %xmm0
	vmovsd	%xmm0, m_X1
	vmovsd	-64(%rbp), %xmm0        # xmm0 = mem[0],zero
	vmulsd	-32(%rbp), %xmm0, %xmm0
	vmovsd	-40(%rbp), %xmm1        # xmm1 = mem[0],zero
	vmulsd	-80(%rbp), %xmm1, %xmm1
	vsubsd	%xmm1, %xmm0, %xmm0
	vdivsd	-72(%rbp), %xmm0, %xmm0
	vmovsd	%xmm0, m_X2
	jmp	.LBB42_32
.LBB42_31:                              # %if.else
	vmovsd	-40(%rbp), %xmm0        # xmm0 = mem[0],zero
	vdivsd	-32(%rbp), %xmm0, %xmm0
	vmovsd	%xmm0, m_X1
	vxorps	%xmm0, %xmm0, %xmm0
	vmovsd	%xmm0, m_X2
.LBB42_32:                              # %if.end89
	jmp	.LBB42_33
.LBB42_33:                              # %if.end90
	movq	img, %rax
	cmpl	$0, 24(%rax)
	jne	.LBB42_35
# %bb.34:                               # %if.then93
	vmovsd	m_X1, %xmm0             # xmm0 = mem[0],zero
	vmovsd	%xmm0, Pm_X1
	vmovsd	m_X2, %xmm0             # xmm0 = mem[0],zero
	vmovsd	%xmm0, Pm_X2
.LBB42_35:                              # %if.end94
	cmpl	$878068563, -84(%rbp)   # imm = 0x34564353
	jne	.LBB42_37
.LBB42_36:
	addq	$96, %rsp
	popq	%rbp
	.cfi_def_cfa %rsp, 8
	retq
.LBB42_37:                              # %func_exit
	.cfi_def_cfa %rbp, 16
	callq	detect_breach
	jmp	.LBB42_36
.Lfunc_end42:
	.size	RCModelEstimator.26, .Lfunc_end42-RCModelEstimator.26
	.cfi_endproc
                                        # -- End function
	.section	.rodata.cst8,"aM",@progbits,8
	.p2align	3               # -- Begin function Qstep2QP.27
.LCPI43_0:
	.quad	4604086194056200192     # double 0.65625
.LCPI43_1:
	.quad	4604930618986332160     # double 0.75
.LCPI43_2:
	.quad	4605775043916464128     # double 0.84375
.LCPI43_3:
	.quad	4606619468846596096     # double 0.9375
.LCPI43_4:
	.quad	4607463893776728064     # double 1.0625
.LCPI43_5:
	.quad	4607745368753438720     # double 1.125
.LCPI43_6:
	.quad	4607182418800017408     # double 1
.LCPI43_7:
	.quad	4606056518893174784     # double 0.875
.LCPI43_8:
	.quad	4605493568939753472     # double 0.8125
.LCPI43_9:
	.quad	4604367669032910848     # double 0.6875
.LCPI43_10:
	.quad	4603804719079489536     # double 0.625
.LCPI43_11:
	.quad	4611686018427387904     # double 2
	.text
	.globl	Qstep2QP.27
	.p2align	4, 0x90
	.type	Qstep2QP.27,@function
Qstep2QP.27:                            # @Qstep2QP.27
	.cfi_startproc
# %bb.0:                                # %entry
	pushq	%rbp
	.cfi_def_cfa_offset 16
	.cfi_offset %rbp, -16
	movq	%rsp, %rbp
	.cfi_def_cfa_register %rbp
	pushq	%rbx
	subq	$56, %rsp
	.cfi_offset %rbx, -24
	movl	$1954534844, -32(%rbp)  # imm = 0x747FD5BC
	vmovsd	%xmm0, -16(%rbp)
	movl	$0, -28(%rbp)
	movl	$0, -20(%rbp)
	vmovsd	-16(%rbp), %xmm0        # xmm0 = mem[0],zero
	vmovsd	%xmm0, -40(%rbp)        # 8-byte Spill
	xorl	%edi, %edi
	callq	QP2Qstep
	vucomisd	-40(%rbp), %xmm0 # 8-byte Folded Reload
	jbe	.LBB43_2
# %bb.1:                                # %if.then
	movl	$0, -24(%rbp)
	jmp	.LBB43_24
.LBB43_2:                               # %if.else
	vmovsd	-16(%rbp), %xmm0        # xmm0 = mem[0],zero
	vmovsd	%xmm0, -56(%rbp)        # 8-byte Spill
	movl	$51, %edi
	callq	QP2Qstep
	vmovsd	-56(%rbp), %xmm1        # 8-byte Reload
                                        # xmm1 = mem[0],zero
	vucomisd	%xmm0, %xmm1
	jbe	.LBB43_4
# %bb.3:                                # %if.then3
	movl	$51, -24(%rbp)
	jmp	.LBB43_24
.LBB43_4:                               # %if.end
	jmp	.LBB43_5
.LBB43_5:                               # %if.end4
	jmp	.LBB43_6
.LBB43_6:                               # %while.cond
                                        # =>This Inner Loop Header: Depth=1
	vmovsd	-16(%rbp), %xmm0        # xmm0 = mem[0],zero
	vmovsd	%xmm0, -48(%rbp)        # 8-byte Spill
	movl	$5, %edi
	callq	QP2Qstep
	vmovsd	-48(%rbp), %xmm1        # 8-byte Reload
                                        # xmm1 = mem[0],zero
	vucomisd	%xmm0, %xmm1
	jbe	.LBB43_8
# %bb.7:                                # %while.body
                                        #   in Loop: Header=BB43_6 Depth=1
	vmovsd	.LCPI43_11(%rip), %xmm0 # xmm0 = mem[0],zero
	vmovsd	-16(%rbp), %xmm1        # xmm1 = mem[0],zero
	vdivsd	%xmm0, %xmm1, %xmm0
	vmovsd	%xmm0, -16(%rbp)
	movl	-28(%rbp), %eax
	addl	$1, %eax
	movl	%eax, -28(%rbp)
	jmp	.LBB43_6
.LBB43_8:                               # %while.end
	vmovsd	.LCPI43_0(%rip), %xmm0  # xmm0 = mem[0],zero
	vucomisd	-16(%rbp), %xmm0
	jb	.LBB43_10
# %bb.9:                                # %if.then8
	vmovsd	.LCPI43_10(%rip), %xmm0 # xmm0 = mem[0],zero
	vmovsd	%xmm0, -16(%rbp)
	movl	$0, -20(%rbp)
	jmp	.LBB43_23
.LBB43_10:                              # %if.else9
	vmovsd	.LCPI43_1(%rip), %xmm0  # xmm0 = mem[0],zero
	vucomisd	-16(%rbp), %xmm0
	jb	.LBB43_12
# %bb.11:                               # %if.then11
	vmovsd	.LCPI43_9(%rip), %xmm0  # xmm0 = mem[0],zero
	vmovsd	%xmm0, -16(%rbp)
	movl	$1, -20(%rbp)
	jmp	.LBB43_22
.LBB43_12:                              # %if.else12
	vmovsd	.LCPI43_2(%rip), %xmm0  # xmm0 = mem[0],zero
	vucomisd	-16(%rbp), %xmm0
	jb	.LBB43_14
# %bb.13:                               # %if.then14
	vmovsd	.LCPI43_8(%rip), %xmm0  # xmm0 = mem[0],zero
	vmovsd	%xmm0, -16(%rbp)
	movl	$2, -20(%rbp)
	jmp	.LBB43_21
.LBB43_14:                              # %if.else15
	vmovsd	.LCPI43_3(%rip), %xmm0  # xmm0 = mem[0],zero
	vucomisd	-16(%rbp), %xmm0
	jb	.LBB43_16
# %bb.15:                               # %if.then17
	vmovsd	.LCPI43_7(%rip), %xmm0  # xmm0 = mem[0],zero
	vmovsd	%xmm0, -16(%rbp)
	movl	$3, -20(%rbp)
	jmp	.LBB43_20
.LBB43_16:                              # %if.else18
	vmovsd	.LCPI43_4(%rip), %xmm0  # xmm0 = mem[0],zero
	vucomisd	-16(%rbp), %xmm0
	jb	.LBB43_18
# %bb.17:                               # %if.then20
	vmovsd	.LCPI43_6(%rip), %xmm0  # xmm0 = mem[0],zero
	vmovsd	%xmm0, -16(%rbp)
	movl	$4, -20(%rbp)
	jmp	.LBB43_19
.LBB43_18:                              # %if.else21
	vmovsd	.LCPI43_5(%rip), %xmm0  # xmm0 = mem[0],zero
	vmovsd	%xmm0, -16(%rbp)
	movl	$5, -20(%rbp)
.LBB43_19:                              # %if.end22
	jmp	.LBB43_20
.LBB43_20:                              # %if.end23
	jmp	.LBB43_21
.LBB43_21:                              # %if.end24
	jmp	.LBB43_22
.LBB43_22:                              # %if.end25
	jmp	.LBB43_23
.LBB43_23:                              # %if.end26
	imull	$6, -28(%rbp), %eax
	addl	-20(%rbp), %eax
	movl	%eax, -24(%rbp)
.LBB43_24:                              # %return
	movl	-24(%rbp), %ebx
	cmpl	$1954534844, -32(%rbp)  # imm = 0x747FD5BC
	jne	.LBB43_26
.LBB43_25:
	movl	%ebx, %eax
	addq	$56, %rsp
	popq	%rbx
	popq	%rbp
	.cfi_def_cfa %rsp, 8
	retq
.LBB43_26:                              # %func_exit
	.cfi_def_cfa %rbp, 16
	callq	detect_breach
	jmp	.LBB43_25
.Lfunc_end43:
	.size	Qstep2QP.27, .Lfunc_end43-Qstep2QP.27
	.cfi_endproc
                                        # -- End function
	.section	.rodata.cst8,"aM",@progbits,8
	.p2align	3               # -- Begin function rc_init_seq.28
.LCPI44_0:
	.quad	4605380978949069210     # double 0.80000000000000004
.LCPI44_1:
	.quad	4612947026323051643     # double 2.5600000000000001
.LCPI44_2:
	.quad	4616189618054758400     # double 4
.LCPI44_3:
	.quad	4602678819172646912     # double 0.5
.LCPI44_4:
	.quad	4606281698874543309     # double 0.90000000000000002
.LCPI44_5:
	.quad	4598175219545276416     # double 0.25
.LCPI44_6:
	.quad	4607182418800017408     # double 1
.LCPI44_7:
	.quad	4612586738352862003     # double 2.3999999999999999
.LCPI44_8:
	.quad	4608983858650965606     # double 1.3999999999999999
.LCPI44_9:
	.quad	4603579539098121011     # double 0.59999999999999998
.LCPI44_10:
	.quad	4608083138725491507     # double 1.2
.LCPI44_11:
	.quad	4596373779694328218     # double 0.20000000000000001
.LCPI44_12:
	.quad	4599075939470750515     # double 0.29999999999999999
.LCPI44_13:
	.quad	4591870180066957722     # double 0.10000000000000001
	.text
	.globl	rc_init_seq.28
	.p2align	4, 0x90
	.type	rc_init_seq.28,@function
rc_init_seq.28:                         # @rc_init_seq.28
	.cfi_startproc
# %bb.0:                                # %entry
	pushq	%rbp
	.cfi_def_cfa_offset 16
	.cfi_offset %rbp, -16
	movq	%rsp, %rbp
	.cfi_def_cfa_register %rbp
	subq	$48, %rsp
	movl	$1489306277, -44(%rbp)  # imm = 0x58C502A5
	movl	$0, Xp
	movl	$0, Xb
	movq	input, %rax
	vcvtsi2sdl	3240(%rax), %xmm0, %xmm0
	vmovsd	%xmm0, bit_rate
	movq	img, %rax
	vmovss	48(%rax), %xmm0         # xmm0 = mem[0],zero,zero,zero
	movq	input, %rax
	movl	1236(%rax), %eax
	addl	$1, %eax
	vcvtsi2ss	%eax, %xmm0, %xmm1
	vmulss	%xmm1, %xmm0, %xmm0
	movq	input, %rax
	movl	20(%rax), %eax
	addl	$1, %eax
	vcvtsi2ss	%eax, %xmm0, %xmm1
	vdivss	%xmm1, %xmm0, %xmm0
	vcvtss2sd	%xmm0, %xmm0, %xmm0
	vmovsd	%xmm0, frame_rate
	vmovsd	bit_rate, %xmm0         # xmm0 = mem[0],zero
	vmovsd	%xmm0, PreviousBit_Rate
	movq	img, %rax
	movl	60(%rax), %eax
	movq	img, %rcx
	imull	52(%rcx), %eax
	cltd
	movl	$256, %ecx              # imm = 0x100
	idivl	%ecx
	movq	img, %rcx
	movl	%eax, 72608(%rcx)
	movq	input, %rax
	movl	3248(%rax), %eax
	movq	img, %rcx
	cmpl	72608(%rcx), %eax
	jle	.LBB44_2
# %bb.1:                                # %if.then
	movq	img, %rax
	movl	72608(%rax), %eax
	movq	input, %rcx
	movl	%eax, 3248(%rcx)
.LBB44_2:                               # %if.end
	movq	input, %rax
	movl	3248(%rax), %eax
	movq	img, %rcx
	cmpl	72608(%rcx), %eax
	jge	.LBB44_4
# %bb.3:                                # %if.then15
	movq	img, %rax
	movl	72608(%rax), %eax
	movq	input, %rcx
	cltd
	idivl	3248(%rcx)
	movl	%eax, TotalNumberofBasicUnit
.LBB44_4:                               # %if.end19
	vmovsd	.LCPI44_0(%rip), %xmm0  # xmm0 = mem[0],zero
	vmovsd	.LCPI44_1(%rip), %xmm1  # xmm1 = mem[0],zero
	vmovsd	.LCPI44_2(%rip), %xmm2  # xmm2 = mem[0],zero
	vmovsd	%xmm2, MINVALUE
	vmulsd	bit_rate, %xmm1, %xmm1
	vmovsd	%xmm1, BufferSize
	vxorps	%xmm1, %xmm1, %xmm1
	vmovsd	%xmm1, CurrentBufferFullness
	vmovsd	CurrentBufferFullness, %xmm1 # xmm1 = mem[0],zero
	vmovsd	%xmm1, GOPTargetBufferLevel
	vmulsd	BufferSize, %xmm0, %xmm0
	vmovsd	%xmm0, InitialDelayOffset
	movl	$0, m_windowSize
	movl	$0, MADm_windowSize
	movq	img, %rax
	movl	$0, 72560(%rax)
	movq	img, %rax
	movl	$0, 72564(%rax)
	movq	img, %rax
	movl	$0, 72568(%rax)
	movl	$0, R
	movq	input, %rax
	cmpl	$0, 1236(%rax)
	jle	.LBB44_6
# %bb.5:                                # %if.then25
	vmovsd	.LCPI44_4(%rip), %xmm0  # xmm0 = mem[0],zero
	vmovsd	.LCPI44_5(%rip), %xmm1  # xmm1 = mem[0],zero
	vmovsd	%xmm1, GAMMAP
	vmovsd	%xmm0, BETAP
	jmp	.LBB44_7
.LBB44_6:                               # %if.else
	vmovsd	.LCPI44_3(%rip), %xmm0  # xmm0 = mem[0],zero
	vmovsd	%xmm0, GAMMAP
	vmovsd	%xmm0, BETAP
.LBB44_7:                               # %if.end26
	vmovsd	.LCPI44_6(%rip), %xmm0  # xmm0 = mem[0],zero
	movl	$0, PPreHeader
	vmulsd	bit_rate, %xmm0, %xmm1
	vmovsd	%xmm1, Pm_X1
	vxorps	%xmm1, %xmm1, %xmm1
	vmovsd	%xmm1, Pm_X2
	vmovsd	%xmm0, PMADPictureC1
	vmovsd	%xmm1, PMADPictureC2
	movl	$0, -4(%rbp)
.LBB44_8:                               # %for.cond
                                        # =>This Inner Loop Header: Depth=1
	cmpl	$20, -4(%rbp)
	jge	.LBB44_11
# %bb.9:                                # %for.body
                                        #   in Loop: Header=BB44_8 Depth=1
	movslq	-4(%rbp), %rax
	vxorps	%xmm0, %xmm0, %xmm0
	vmovsd	%xmm0, Pm_rgQp(,%rax,8)
	movslq	-4(%rbp), %rax
	vmovsd	%xmm0, Pm_rgRp(,%rax,8)
	movslq	-4(%rbp), %rax
	vmovsd	%xmm0, PPictureMAD(,%rax,8)
# %bb.10:                               # %for.inc
                                        #   in Loop: Header=BB44_8 Depth=1
	movl	-4(%rbp), %eax
	addl	$1, %eax
	movl	%eax, -4(%rbp)
	jmp	.LBB44_8
.LBB44_11:                              # %for.end
	vxorps	%xmm0, %xmm0, %xmm0
	vmovsd	%xmm0, PPictureMAD+160
	movl	$2, PDuantQp
	movl	$0, PAveHeaderBits1
	movl	$0, PAveHeaderBits3
	cmpl	$9, TotalNumberofBasicUnit
	jl	.LBB44_13
# %bb.12:                               # %if.then36
	movl	$1, DDquant
	jmp	.LBB44_14
.LBB44_13:                              # %if.else37
	movl	$2, DDquant
.LBB44_14:                              # %if.end38
	vmovsd	.LCPI44_6(%rip), %xmm0  # xmm0 = mem[0],zero
	movq	img, %rax
	movl	52(%rax), %eax
	cltd
	movl	$16, %ecx
	idivl	%ecx
	movl	%eax, MBPerRow
	movq	img, %rax
	movl	$0, 72600(%rax)
	movl	$51, RC_MAX_QUANT
	movl	$0, RC_MIN_QUANT
	vmulsd	bit_rate, %xmm0, %xmm0
	vmovsd	frame_rate, %xmm1       # xmm1 = mem[0],zero
	movq	img, %rax
	vcvtsi2sdl	52(%rax), %xmm0, %xmm2
	vmulsd	%xmm2, %xmm1, %xmm1
	movq	img, %rax
	vcvtsi2sdl	60(%rax), %xmm0, %xmm2
	vmulsd	%xmm2, %xmm1, %xmm1
	vdivsd	%xmm1, %xmm0, %xmm0
	vmovsd	%xmm0, -24(%rbp)
	movq	img, %rax
	cmpl	$176, 52(%rax)
	jne	.LBB44_16
# %bb.15:                               # %if.then52
	vmovsd	.LCPI44_9(%rip), %xmm0  # xmm0 = mem[0],zero
	vmovsd	.LCPI44_12(%rip), %xmm1 # xmm1 = mem[0],zero
	vmovsd	.LCPI44_13(%rip), %xmm2 # xmm2 = mem[0],zero
	vmovsd	%xmm2, -32(%rbp)
	vmovsd	%xmm1, -16(%rbp)
	vmovsd	%xmm0, -40(%rbp)
	jmp	.LBB44_20
.LBB44_16:                              # %if.else53
	movq	img, %rax
	cmpl	$352, 52(%rax)          # imm = 0x160
	jne	.LBB44_18
# %bb.17:                               # %if.then57
	vmovsd	.LCPI44_10(%rip), %xmm0 # xmm0 = mem[0],zero
	vmovsd	.LCPI44_9(%rip), %xmm1  # xmm1 = mem[0],zero
	vmovsd	.LCPI44_11(%rip), %xmm2 # xmm2 = mem[0],zero
	vmovsd	%xmm2, -32(%rbp)
	vmovsd	%xmm1, -16(%rbp)
	vmovsd	%xmm0, -40(%rbp)
	jmp	.LBB44_19
.LBB44_18:                              # %if.else58
	vmovsd	.LCPI44_7(%rip), %xmm0  # xmm0 = mem[0],zero
	vmovsd	.LCPI44_8(%rip), %xmm1  # xmm1 = mem[0],zero
	vmovsd	.LCPI44_9(%rip), %xmm2  # xmm2 = mem[0],zero
	vmovsd	%xmm2, -32(%rbp)
	vmovsd	%xmm1, -16(%rbp)
	vmovsd	%xmm0, -40(%rbp)
.LBB44_19:                              # %if.end59
	jmp	.LBB44_20
.LBB44_20:                              # %if.end60
	movq	input, %rax
	cmpl	$0, 3244(%rax)
	jne	.LBB44_31
# %bb.21:                               # %if.then63
	vmovsd	-24(%rbp), %xmm0        # xmm0 = mem[0],zero
	vmovsd	-32(%rbp), %xmm1        # xmm1 = mem[0],zero
	vucomisd	%xmm0, %xmm1
	jb	.LBB44_23
# %bb.22:                               # %if.then66
	movl	$35, -8(%rbp)
	jmp	.LBB44_30
.LBB44_23:                              # %if.else67
	vmovsd	-24(%rbp), %xmm0        # xmm0 = mem[0],zero
	vmovsd	-16(%rbp), %xmm1        # xmm1 = mem[0],zero
	vucomisd	%xmm0, %xmm1
	jb	.LBB44_25
# %bb.24:                               # %if.then70
	movl	$25, -8(%rbp)
	jmp	.LBB44_29
.LBB44_25:                              # %if.else71
	vmovsd	-24(%rbp), %xmm0        # xmm0 = mem[0],zero
	vmovsd	-40(%rbp), %xmm1        # xmm1 = mem[0],zero
	vucomisd	%xmm0, %xmm1
	jb	.LBB44_27
# %bb.26:                               # %if.then74
	movl	$20, -8(%rbp)
	jmp	.LBB44_28
.LBB44_27:                              # %if.else75
	movl	$10, -8(%rbp)
.LBB44_28:                              # %if.end76
	jmp	.LBB44_29
.LBB44_29:                              # %if.end77
	jmp	.LBB44_30
.LBB44_30:                              # %if.end78
	movl	-8(%rbp), %eax
	movq	input, %rcx
	movl	%eax, 3244(%rcx)
.LBB44_31:                              # %if.end80
	cmpl	$1489306277, -44(%rbp)  # imm = 0x58C502A5
	jne	.LBB44_33
.LBB44_32:
	addq	$48, %rsp
	popq	%rbp
	.cfi_def_cfa %rsp, 8
	retq
.LBB44_33:                              # %func_exit
	.cfi_def_cfa %rbp, 16
	callq	detect_breach
	jmp	.LBB44_32
.Lfunc_end44:
	.size	rc_init_seq.28, .Lfunc_end44-rc_init_seq.28
	.cfi_endproc
                                        # -- End function
	.section	.rodata.cst8,"aM",@progbits,8
	.p2align	3               # -- Begin function rc_update_pict_frame.29
.LCPI45_0:
	.quad	4602678819172646912     # double 0.5
.LCPI45_1:
	.quad	4608819927624529320     # double 1.3635999999999999
	.text
	.globl	rc_update_pict_frame.29
	.p2align	4, 0x90
	.type	rc_update_pict_frame.29,@function
rc_update_pict_frame.29:                # @rc_update_pict_frame.29
	.cfi_startproc
# %bb.0:                                # %entry
	pushq	%rbp
	.cfi_def_cfa_offset 16
	.cfi_offset %rbp, -16
	movq	%rsp, %rbp
	.cfi_def_cfa_register %rbp
	subq	$16, %rsp
	movl	$356948315, -16(%rbp)   # imm = 0x1546995B
	movl	%edi, -8(%rbp)
	movl	$0, -4(%rbp)
	movq	img, %rax
	movl	72620(%rax), %eax
	movq	img, %rcx
	cmpl	72608(%rcx), %eax
	jne	.LBB45_2
# %bb.1:                                # %if.then
	vmovsd	.LCPI45_0(%rip), %xmm0  # xmm0 = mem[0],zero
	movl	-8(%rbp), %eax
	imull	m_Qc, %eax
	vcvtsi2sd	%eax, %xmm0, %xmm1
	vaddsd	%xmm0, %xmm1, %xmm0
	vroundsd	$9, %xmm0, %xmm0, %xmm0
	vcvttsd2si	%xmm0, %eax
	movl	%eax, -4(%rbp)
	jmp	.LBB45_12
.LBB45_2:                               # %if.else
	movq	img, %rax
	cmpl	$0, 24(%rax)
	jne	.LBB45_8
# %bb.3:                                # %if.then4
	movq	img, %rax
	cmpl	$0, 72612(%rax)
	jne	.LBB45_5
# %bb.4:                                # %land.lhs.true
	movq	img, %rax
	cmpl	$1, 72600(%rax)
	je	.LBB45_6
.LBB45_5:                               # %lor.lhs.false
	movq	img, %rax
	cmpl	$0, 72600(%rax)
	jne	.LBB45_7
.LBB45_6:                               # %if.then12
	vmovsd	.LCPI45_0(%rip), %xmm0  # xmm0 = mem[0],zero
	movl	TotalFrameQP, %eax
	cltd
	idivl	TotalNumberofBasicUnit
	movl	%eax, -12(%rbp)
	movl	-8(%rbp), %eax
	imull	-12(%rbp), %eax
	vcvtsi2sd	%eax, %xmm0, %xmm1
	vaddsd	%xmm0, %xmm1, %xmm0
	vroundsd	$9, %xmm0, %xmm0, %xmm0
	vcvttsd2si	%xmm0, %eax
	movl	%eax, -4(%rbp)
.LBB45_7:                               # %if.end
	jmp	.LBB45_11
.LBB45_8:                               # %if.else17
	movq	img, %rax
	cmpl	$1, 24(%rax)
	jne	.LBB45_10
# %bb.9:                                # %if.then21
	vmovsd	.LCPI45_0(%rip), %xmm0  # xmm0 = mem[0],zero
	movl	-8(%rbp), %eax
	imull	m_Qc, %eax
	vcvtsi2sd	%eax, %xmm0, %xmm1
	vaddsd	%xmm0, %xmm1, %xmm0
	vroundsd	$9, %xmm0, %xmm0, %xmm0
	vcvttsd2si	%xmm0, %eax
	movl	%eax, -4(%rbp)
.LBB45_10:                              # %if.end26
	jmp	.LBB45_11
.LBB45_11:                              # %if.end27
	jmp	.LBB45_12
.LBB45_12:                              # %if.end28
	movq	img(%rip), %rax
	movl	24(%rax), %eax
	testl	%eax, %eax
	je	.LBB45_14
	jmp	.LBB45_13
.LBB45_13:                              # %if.end28
	subl	$1, %eax
	je	.LBB45_23
	jmp	.LBB45_24
.LBB45_14:                              # %sw.bb
	movq	img, %rax
	cmpl	$0, 72612(%rax)
	jne	.LBB45_16
# %bb.15:                               # %land.lhs.true33
	movq	img, %rax
	cmpl	$1, 72600(%rax)
	je	.LBB45_17
.LBB45_16:                              # %lor.lhs.false37
	movq	img, %rax
	cmpl	$0, 72600(%rax)
	jne	.LBB45_18
.LBB45_17:                              # %if.then41
	movl	-4(%rbp), %eax
	movl	%eax, Xp
	movl	Np, %eax
	addl	$-1, %eax
	movl	%eax, Np
	vcvtsi2sdl	Xp, %xmm0, %xmm0
	vmovsd	%xmm0, Wp
	movq	img, %rax
	movl	72524(%rax), %eax
	movl	%eax, Pm_Hp
	movq	img, %rax
	movl	72564(%rax), %ecx
	addl	$1, %ecx
	movl	%ecx, 72564(%rax)
	movq	img, %rax
	movl	72576(%rax), %ecx
	addl	$1, %ecx
	movl	%ecx, 72576(%rax)
	jmp	.LBB45_22
.LBB45_18:                              # %if.else44
	movq	img, %rax
	cmpl	$0, 72612(%rax)
	je	.LBB45_21
# %bb.19:                               # %land.lhs.true48
	movq	img, %rax
	cmpl	$1, 72600(%rax)
	jne	.LBB45_21
# %bb.20:                               # %if.then52
	movq	img, %rax
	movl	$0, 72612(%rax)
.LBB45_21:                              # %if.end54
	jmp	.LBB45_22
.LBB45_22:                              # %if.end55
	jmp	.LBB45_24
.LBB45_23:                              # %sw.bb56
	vmovsd	.LCPI45_1(%rip), %xmm0  # xmm0 = mem[0],zero
	movl	-4(%rbp), %eax
	movl	%eax, Xb
	movl	Nb, %eax
	addl	$-1, %eax
	movl	%eax, Nb
	vcvtsi2sdl	Xb, %xmm0, %xmm1
	vdivsd	%xmm0, %xmm1, %xmm0
	vmovsd	%xmm0, Wb
	movq	img, %rax
	movl	72560(%rax), %ecx
	addl	$1, %ecx
	movl	%ecx, 72560(%rax)
	movl	NumberofBFrames, %eax
	addl	$1, %eax
	movl	%eax, NumberofBFrames
.LBB45_24:                              # %sw.epilog
	cmpl	$356948315, -16(%rbp)   # imm = 0x1546995B
	jne	.LBB45_26
.LBB45_25:
	addq	$16, %rsp
	popq	%rbp
	.cfi_def_cfa %rsp, 8
	retq
.LBB45_26:                              # %func_exit
	.cfi_def_cfa %rbp, 16
	callq	detect_breach
	jmp	.LBB45_25
.Lfunc_end45:
	.size	rc_update_pict_frame.29, .Lfunc_end45-rc_update_pict_frame.29
	.cfi_endproc
                                        # -- End function
	.section	.rodata.cst8,"aM",@progbits,8
	.p2align	3               # -- Begin function updateMADModel.30
.LCPI46_0:
	.quad	4626322717216342016     # double 20
	.section	.rodata.cst16,"aM",@progbits,16
	.p2align	4
.LCPI46_1:
	.quad	9223372036854775807     # double NaN
	.quad	9223372036854775807     # double NaN
	.text
	.globl	updateMADModel.30
	.p2align	4, 0x90
	.type	updateMADModel.30,@function
updateMADModel.30:                      # @updateMADModel.30
	.cfi_startproc
# %bb.0:                                # %entry
	pushq	%rbp
	.cfi_def_cfa_offset 16
	.cfi_offset %rbp, -16
	movq	%rsp, %rbp
	.cfi_def_cfa_register %rbp
	subq	$208, %rsp
	movl	$1611693475, -28(%rbp)  # imm = 0x60107DA3
	vxorps	%xmm0, %xmm0, %xmm0
	vmovsd	%xmm0, -24(%rbp)
	movq	img, %rax
	cmpl	$0, 72564(%rax)
	jle	.LBB46_51
# %bb.1:                                # %if.then
	movq	img, %rax
	movl	72620(%rax), %eax
	movq	img, %rcx
	cmpl	72608(%rcx), %eax
	jne	.LBB46_3
# %bb.2:                                # %if.then2
	movq	img, %rax
	movl	72564(%rax), %eax
	movl	%eax, -12(%rbp)
	jmp	.LBB46_4
.LBB46_3:                               # %if.else
	movq	img, %rax
	movl	72564(%rax), %eax
	imull	TotalNumberofBasicUnit, %eax
	addl	CodedBasicUnit, %eax
	movl	%eax, -12(%rbp)
.LBB46_4:                               # %if.end
	movl	$19, -4(%rbp)
.LBB46_5:                               # %for.cond
                                        # =>This Inner Loop Header: Depth=1
	cmpl	$0, -4(%rbp)
	jle	.LBB46_8
# %bb.6:                                # %for.body
                                        #   in Loop: Header=BB46_5 Depth=1
	movl	-4(%rbp), %eax
	subl	$1, %eax
	cltq
	vmovsd	PPictureMAD(,%rax,8), %xmm0 # xmm0 = mem[0],zero
	movslq	-4(%rbp), %rax
	vmovsd	%xmm0, PPictureMAD(,%rax,8)
	movslq	-4(%rbp), %rax
	vmovsd	PPictureMAD(,%rax,8), %xmm0 # xmm0 = mem[0],zero
	movslq	-4(%rbp), %rax
	vmovsd	%xmm0, PictureMAD(,%rax,8)
	movl	-4(%rbp), %eax
	subl	$1, %eax
	cltq
	vmovsd	ReferenceMAD(,%rax,8), %xmm0 # xmm0 = mem[0],zero
	movslq	-4(%rbp), %rax
	vmovsd	%xmm0, ReferenceMAD(,%rax,8)
# %bb.7:                                # %for.inc
                                        #   in Loop: Header=BB46_5 Depth=1
	movl	-4(%rbp), %eax
	addl	$-1, %eax
	movl	%eax, -4(%rbp)
	jmp	.LBB46_5
.LBB46_8:                               # %for.end
	vmovsd	CurrentFrameMAD, %xmm0  # xmm0 = mem[0],zero
	vmovsd	%xmm0, PPictureMAD
	vmovsd	PPictureMAD, %xmm0      # xmm0 = mem[0],zero
	vmovsd	%xmm0, PictureMAD
	movq	img, %rax
	movl	72620(%rax), %eax
	movq	img, %rcx
	cmpl	72608(%rcx), %eax
	jne	.LBB46_10
# %bb.9:                                # %if.then20
	vmovsd	PictureMAD+8, %xmm0     # xmm0 = mem[0],zero
	vmovsd	%xmm0, ReferenceMAD
	jmp	.LBB46_16
.LBB46_10:                              # %if.else21
	movq	input, %rax
	cmpl	$2, 2880(%rax)
	je	.LBB46_12
# %bb.11:                               # %lor.lhs.false
	movq	input, %rax
	cmpl	$0, 2884(%rax)
	je	.LBB46_14
.LBB46_12:                              # %land.lhs.true
	movq	img, %rax
	cmpl	$1, 72600(%rax)
	jne	.LBB46_14
# %bb.13:                               # %if.then24
	movq	FCBUPFMAD, %rax
	movl	TotalNumberofBasicUnit, %ecx
	subl	$1, %ecx
	subl	NumberofBasicUnit, %ecx
	movslq	%ecx, %rcx
	vmovsd	(%rax,%rcx,8), %xmm0    # xmm0 = mem[0],zero
	vmovsd	%xmm0, ReferenceMAD
	jmp	.LBB46_15
.LBB46_14:                              # %if.else29
	movq	BUPFMAD, %rax
	movl	TotalNumberofBasicUnit, %ecx
	subl	$1, %ecx
	subl	NumberofBasicUnit, %ecx
	movslq	%ecx, %rcx
	vmovsd	(%rax,%rcx,8), %xmm0    # xmm0 = mem[0],zero
	vmovsd	%xmm0, ReferenceMAD
.LBB46_15:                              # %if.end34
	jmp	.LBB46_16
.LBB46_16:                              # %if.end35
	vmovsd	PMADPictureC1, %xmm0    # xmm0 = mem[0],zero
	vmovsd	%xmm0, MADPictureC1
	vmovsd	PMADPictureC2, %xmm0    # xmm0 = mem[0],zero
	vmovsd	%xmm0, MADPictureC2
	vmovsd	CurrentFrameMAD, %xmm0  # xmm0 = mem[0],zero
	vucomisd	PreviousFrameMAD, %xmm0
	jbe	.LBB46_18
# %bb.17:                               # %cond.true
	vmovsd	.LCPI46_0(%rip), %xmm0  # xmm0 = mem[0],zero
	vmovsd	PreviousFrameMAD, %xmm1 # xmm1 = mem[0],zero
	vdivsd	CurrentFrameMAD, %xmm1, %xmm1
	vmulsd	%xmm0, %xmm1, %xmm0
	vcvttsd2si	%xmm0, %eax
	jmp	.LBB46_19
.LBB46_18:                              # %cond.false
	vmovsd	.LCPI46_0(%rip), %xmm0  # xmm0 = mem[0],zero
	vmovsd	CurrentFrameMAD, %xmm1  # xmm1 = mem[0],zero
	vdivsd	PreviousFrameMAD, %xmm1, %xmm1
	vmulsd	%xmm0, %xmm1, %xmm0
	vcvttsd2si	%xmm0, %eax
.LBB46_19:                              # %cond.end
	movl	%eax, -8(%rbp)
	movl	-8(%rbp), %eax
	movl	-12(%rbp), %ecx
	subl	$1, %ecx
	cmpl	%ecx, %eax
	jge	.LBB46_21
# %bb.20:                               # %cond.true44
	movl	-8(%rbp), %eax
	jmp	.LBB46_22
.LBB46_21:                              # %cond.false45
	movl	-12(%rbp), %eax
	subl	$1, %eax
.LBB46_22:                              # %cond.end47
	movl	%eax, -8(%rbp)
	cmpl	$1, -8(%rbp)
	jge	.LBB46_24
# %bb.23:                               # %cond.true51
	movl	$1, %eax
	jmp	.LBB46_25
.LBB46_24:                              # %cond.false52
	movl	-8(%rbp), %eax
.LBB46_25:                              # %cond.end53
	movl	%eax, -8(%rbp)
	movl	-8(%rbp), %eax
	movl	MADm_windowSize, %ecx
	addl	$1, %ecx
	cmpl	%ecx, %eax
	jge	.LBB46_27
# %bb.26:                               # %cond.true58
	movl	-8(%rbp), %eax
	jmp	.LBB46_28
.LBB46_27:                              # %cond.false59
	movl	MADm_windowSize, %eax
	addl	$1, %eax
.LBB46_28:                              # %cond.end61
	movl	%eax, -8(%rbp)
	movl	$20, %eax
	cmpl	-8(%rbp), %eax
	jge	.LBB46_30
# %bb.29:                               # %cond.true65
	movl	$20, %eax
	jmp	.LBB46_31
.LBB46_30:                              # %cond.false66
	movl	-8(%rbp), %eax
.LBB46_31:                              # %cond.end67
	movl	%eax, -8(%rbp)
	movl	-8(%rbp), %eax
	movl	%eax, MADm_windowSize
	movl	$0, -4(%rbp)
.LBB46_32:                              # %for.cond69
                                        # =>This Inner Loop Header: Depth=1
	cmpl	$20, -4(%rbp)
	jge	.LBB46_35
# %bb.33:                               # %for.body72
                                        #   in Loop: Header=BB46_32 Depth=1
	movslq	-4(%rbp), %rax
	movl	$0, PictureRejected(,%rax,4)
# %bb.34:                               # %for.inc75
                                        #   in Loop: Header=BB46_32 Depth=1
	movl	-4(%rbp), %eax
	addl	$1, %eax
	movl	%eax, -4(%rbp)
	jmp	.LBB46_32
.LBB46_35:                              # %for.end76
	movq	img, %rax
	cmpl	$0, 24(%rax)
	jne	.LBB46_37
# %bb.36:                               # %if.then79
	vmovsd	CurrentFrameMAD, %xmm0  # xmm0 = mem[0],zero
	vmovsd	%xmm0, PreviousFrameMAD
.LBB46_37:                              # %if.end80
	movl	-8(%rbp), %edi
	callq	MADModelEstimator
	movl	$0, -4(%rbp)
.LBB46_38:                              # %for.cond81
                                        # =>This Inner Loop Header: Depth=1
	movl	-4(%rbp), %eax
	cmpl	-8(%rbp), %eax
	jge	.LBB46_41
# %bb.39:                               # %for.body84
                                        #   in Loop: Header=BB46_38 Depth=1
	vmovsd	MADPictureC1, %xmm0     # xmm0 = mem[0],zero
	movslq	-4(%rbp), %rax
	vmulsd	ReferenceMAD(,%rax,8), %xmm0, %xmm0
	vaddsd	MADPictureC2, %xmm0, %xmm0
	movslq	-4(%rbp), %rax
	vsubsd	PictureMAD(,%rax,8), %xmm0, %xmm0
	movslq	-4(%rbp), %rax
	vmovsd	%xmm0, -208(%rbp,%rax,8)
	movslq	-4(%rbp), %rax
	vmovsd	-208(%rbp,%rax,8), %xmm0 # xmm0 = mem[0],zero
	movslq	-4(%rbp), %rax
	vmulsd	-208(%rbp,%rax,8), %xmm0, %xmm0
	vaddsd	-24(%rbp), %xmm0, %xmm0
	vmovsd	%xmm0, -24(%rbp)
# %bb.40:                               # %for.inc100
                                        #   in Loop: Header=BB46_38 Depth=1
	movl	-4(%rbp), %eax
	addl	$1, %eax
	movl	%eax, -4(%rbp)
	jmp	.LBB46_38
.LBB46_41:                              # %for.end102
	cmpl	$2, -8(%rbp)
	jne	.LBB46_43
# %bb.42:                               # %cond.true105
	vxorps	%xmm0, %xmm0, %xmm0
	jmp	.LBB46_44
.LBB46_43:                              # %cond.false106
	vmovsd	-24(%rbp), %xmm0        # xmm0 = mem[0],zero
	vcvtsi2sdl	-8(%rbp), %xmm0, %xmm1
	vdivsd	%xmm1, %xmm0, %xmm0
	callq	sqrt
.LBB46_44:                              # %cond.end109
	vmovsd	%xmm0, -40(%rbp)
	movl	$0, -4(%rbp)
.LBB46_45:                              # %for.cond111
                                        # =>This Inner Loop Header: Depth=1
	movl	-4(%rbp), %eax
	cmpl	-8(%rbp), %eax
	jge	.LBB46_50
# %bb.46:                               # %for.body114
                                        #   in Loop: Header=BB46_45 Depth=1
	movslq	-4(%rbp), %rax
	vmovsd	-208(%rbp,%rax,8), %xmm0 # xmm0 = mem[0],zero
	vmovdqa	.LCPI46_1(%rip), %xmm1  # xmm1 = [NaN,NaN]
	vpand	%xmm1, %xmm0, %xmm0
	vucomisd	-40(%rbp), %xmm0
	jbe	.LBB46_48
# %bb.47:                               # %if.then119
                                        #   in Loop: Header=BB46_45 Depth=1
	movslq	-4(%rbp), %rax
	movl	$1, PictureRejected(,%rax,4)
.LBB46_48:                              # %if.end122
                                        #   in Loop: Header=BB46_45 Depth=1
	jmp	.LBB46_49
.LBB46_49:                              # %for.inc123
                                        #   in Loop: Header=BB46_45 Depth=1
	movl	-4(%rbp), %eax
	addl	$1, %eax
	movl	%eax, -4(%rbp)
	jmp	.LBB46_45
.LBB46_50:                              # %for.end125
	movl	$0, PictureRejected
	movl	-8(%rbp), %edi
	callq	MADModelEstimator
.LBB46_51:                              # %if.end126
	cmpl	$1611693475, -28(%rbp)  # imm = 0x60107DA3
	jne	.LBB46_53
.LBB46_52:
	addq	$208, %rsp
	popq	%rbp
	.cfi_def_cfa %rsp, 8
	retq
.LBB46_53:                              # %func_exit
	.cfi_def_cfa %rbp, 16
	callq	detect_breach
	jmp	.LBB46_52
.Lfunc_end46:
	.size	updateMADModel.30, .Lfunc_end46-updateMADModel.30
	.cfi_endproc
                                        # -- End function
	.section	.rodata.cst8,"aM",@progbits,8
	.p2align	3               # -- Begin function rc_init_seq.31
.LCPI47_0:
	.quad	4605380978949069210     # double 0.80000000000000004
.LCPI47_1:
	.quad	4612947026323051643     # double 2.5600000000000001
.LCPI47_2:
	.quad	4616189618054758400     # double 4
.LCPI47_3:
	.quad	4602678819172646912     # double 0.5
.LCPI47_4:
	.quad	4606281698874543309     # double 0.90000000000000002
.LCPI47_5:
	.quad	4598175219545276416     # double 0.25
.LCPI47_6:
	.quad	4607182418800017408     # double 1
.LCPI47_7:
	.quad	4612586738352862003     # double 2.3999999999999999
.LCPI47_8:
	.quad	4608983858650965606     # double 1.3999999999999999
.LCPI47_9:
	.quad	4603579539098121011     # double 0.59999999999999998
.LCPI47_10:
	.quad	4608083138725491507     # double 1.2
.LCPI47_11:
	.quad	4596373779694328218     # double 0.20000000000000001
.LCPI47_12:
	.quad	4599075939470750515     # double 0.29999999999999999
.LCPI47_13:
	.quad	4591870180066957722     # double 0.10000000000000001
	.text
	.globl	rc_init_seq.31
	.p2align	4, 0x90
	.type	rc_init_seq.31,@function
rc_init_seq.31:                         # @rc_init_seq.31
	.cfi_startproc
# %bb.0:                                # %entry
	pushq	%rbp
	.cfi_def_cfa_offset 16
	.cfi_offset %rbp, -16
	movq	%rsp, %rbp
	.cfi_def_cfa_register %rbp
	subq	$48, %rsp
	movl	$1254487562, -44(%rbp)  # imm = 0x4AC5F60A
	movl	$0, Xp
	movl	$0, Xb
	movq	input, %rax
	vcvtsi2sdl	3240(%rax), %xmm0, %xmm0
	vmovsd	%xmm0, bit_rate
	movq	img, %rax
	vmovss	48(%rax), %xmm0         # xmm0 = mem[0],zero,zero,zero
	movq	input, %rax
	movl	1236(%rax), %eax
	addl	$1, %eax
	vcvtsi2ss	%eax, %xmm0, %xmm1
	vmulss	%xmm1, %xmm0, %xmm0
	movq	input, %rax
	movl	20(%rax), %eax
	addl	$1, %eax
	vcvtsi2ss	%eax, %xmm0, %xmm1
	vdivss	%xmm1, %xmm0, %xmm0
	vcvtss2sd	%xmm0, %xmm0, %xmm0
	vmovsd	%xmm0, frame_rate
	vmovsd	bit_rate, %xmm0         # xmm0 = mem[0],zero
	vmovsd	%xmm0, PreviousBit_Rate
	movq	img, %rax
	movl	60(%rax), %eax
	movq	img, %rcx
	imull	52(%rcx), %eax
	cltd
	movl	$256, %ecx              # imm = 0x100
	idivl	%ecx
	movq	img, %rcx
	movl	%eax, 72608(%rcx)
	movq	input, %rax
	movl	3248(%rax), %eax
	movq	img, %rcx
	cmpl	72608(%rcx), %eax
	jle	.LBB47_2
# %bb.1:                                # %if.then
	movq	img, %rax
	movl	72608(%rax), %eax
	movq	input, %rcx
	movl	%eax, 3248(%rcx)
.LBB47_2:                               # %if.end
	movq	input, %rax
	movl	3248(%rax), %eax
	movq	img, %rcx
	cmpl	72608(%rcx), %eax
	jge	.LBB47_4
# %bb.3:                                # %if.then15
	movq	img, %rax
	movl	72608(%rax), %eax
	movq	input, %rcx
	cltd
	idivl	3248(%rcx)
	movl	%eax, TotalNumberofBasicUnit
.LBB47_4:                               # %if.end19
	vmovsd	.LCPI47_0(%rip), %xmm0  # xmm0 = mem[0],zero
	vmovsd	.LCPI47_1(%rip), %xmm1  # xmm1 = mem[0],zero
	vmovsd	.LCPI47_2(%rip), %xmm2  # xmm2 = mem[0],zero
	vmovsd	%xmm2, MINVALUE
	vmulsd	bit_rate, %xmm1, %xmm1
	vmovsd	%xmm1, BufferSize
	vxorps	%xmm1, %xmm1, %xmm1
	vmovsd	%xmm1, CurrentBufferFullness
	vmovsd	CurrentBufferFullness, %xmm1 # xmm1 = mem[0],zero
	vmovsd	%xmm1, GOPTargetBufferLevel
	vmulsd	BufferSize, %xmm0, %xmm0
	vmovsd	%xmm0, InitialDelayOffset
	movl	$0, m_windowSize
	movl	$0, MADm_windowSize
	movq	img, %rax
	movl	$0, 72560(%rax)
	movq	img, %rax
	movl	$0, 72564(%rax)
	movq	img, %rax
	movl	$0, 72568(%rax)
	movl	$0, R
	movq	input, %rax
	cmpl	$0, 1236(%rax)
	jle	.LBB47_6
# %bb.5:                                # %if.then25
	vmovsd	.LCPI47_4(%rip), %xmm0  # xmm0 = mem[0],zero
	vmovsd	.LCPI47_5(%rip), %xmm1  # xmm1 = mem[0],zero
	vmovsd	%xmm1, GAMMAP
	vmovsd	%xmm0, BETAP
	jmp	.LBB47_7
.LBB47_6:                               # %if.else
	vmovsd	.LCPI47_3(%rip), %xmm0  # xmm0 = mem[0],zero
	vmovsd	%xmm0, GAMMAP
	vmovsd	%xmm0, BETAP
.LBB47_7:                               # %if.end26
	vmovsd	.LCPI47_6(%rip), %xmm0  # xmm0 = mem[0],zero
	movl	$0, PPreHeader
	vmulsd	bit_rate, %xmm0, %xmm1
	vmovsd	%xmm1, Pm_X1
	vxorps	%xmm1, %xmm1, %xmm1
	vmovsd	%xmm1, Pm_X2
	vmovsd	%xmm0, PMADPictureC1
	vmovsd	%xmm1, PMADPictureC2
	movl	$0, -4(%rbp)
.LBB47_8:                               # %for.cond
                                        # =>This Inner Loop Header: Depth=1
	cmpl	$20, -4(%rbp)
	jge	.LBB47_11
# %bb.9:                                # %for.body
                                        #   in Loop: Header=BB47_8 Depth=1
	movslq	-4(%rbp), %rax
	vxorps	%xmm0, %xmm0, %xmm0
	vmovsd	%xmm0, Pm_rgQp(,%rax,8)
	movslq	-4(%rbp), %rax
	vmovsd	%xmm0, Pm_rgRp(,%rax,8)
	movslq	-4(%rbp), %rax
	vmovsd	%xmm0, PPictureMAD(,%rax,8)
# %bb.10:                               # %for.inc
                                        #   in Loop: Header=BB47_8 Depth=1
	movl	-4(%rbp), %eax
	addl	$1, %eax
	movl	%eax, -4(%rbp)
	jmp	.LBB47_8
.LBB47_11:                              # %for.end
	vxorps	%xmm0, %xmm0, %xmm0
	vmovsd	%xmm0, PPictureMAD+160
	movl	$2, PDuantQp
	movl	$0, PAveHeaderBits1
	movl	$0, PAveHeaderBits3
	cmpl	$9, TotalNumberofBasicUnit
	jl	.LBB47_13
# %bb.12:                               # %if.then36
	movl	$1, DDquant
	jmp	.LBB47_14
.LBB47_13:                              # %if.else37
	movl	$2, DDquant
.LBB47_14:                              # %if.end38
	vmovsd	.LCPI47_6(%rip), %xmm0  # xmm0 = mem[0],zero
	movq	img, %rax
	movl	52(%rax), %eax
	cltd
	movl	$16, %ecx
	idivl	%ecx
	movl	%eax, MBPerRow
	movq	img, %rax
	movl	$0, 72600(%rax)
	movl	$51, RC_MAX_QUANT
	movl	$0, RC_MIN_QUANT
	vmulsd	bit_rate, %xmm0, %xmm0
	vmovsd	frame_rate, %xmm1       # xmm1 = mem[0],zero
	movq	img, %rax
	vcvtsi2sdl	52(%rax), %xmm0, %xmm2
	vmulsd	%xmm2, %xmm1, %xmm1
	movq	img, %rax
	vcvtsi2sdl	60(%rax), %xmm0, %xmm2
	vmulsd	%xmm2, %xmm1, %xmm1
	vdivsd	%xmm1, %xmm0, %xmm0
	vmovsd	%xmm0, -16(%rbp)
	movq	img, %rax
	cmpl	$176, 52(%rax)
	jne	.LBB47_16
# %bb.15:                               # %if.then52
	vmovsd	.LCPI47_9(%rip), %xmm0  # xmm0 = mem[0],zero
	vmovsd	.LCPI47_12(%rip), %xmm1 # xmm1 = mem[0],zero
	vmovsd	.LCPI47_13(%rip), %xmm2 # xmm2 = mem[0],zero
	vmovsd	%xmm2, -24(%rbp)
	vmovsd	%xmm1, -40(%rbp)
	vmovsd	%xmm0, -32(%rbp)
	jmp	.LBB47_20
.LBB47_16:                              # %if.else53
	movq	img, %rax
	cmpl	$352, 52(%rax)          # imm = 0x160
	jne	.LBB47_18
# %bb.17:                               # %if.then57
	vmovsd	.LCPI47_10(%rip), %xmm0 # xmm0 = mem[0],zero
	vmovsd	.LCPI47_9(%rip), %xmm1  # xmm1 = mem[0],zero
	vmovsd	.LCPI47_11(%rip), %xmm2 # xmm2 = mem[0],zero
	vmovsd	%xmm2, -24(%rbp)
	vmovsd	%xmm1, -40(%rbp)
	vmovsd	%xmm0, -32(%rbp)
	jmp	.LBB47_19
.LBB47_18:                              # %if.else58
	vmovsd	.LCPI47_7(%rip), %xmm0  # xmm0 = mem[0],zero
	vmovsd	.LCPI47_8(%rip), %xmm1  # xmm1 = mem[0],zero
	vmovsd	.LCPI47_9(%rip), %xmm2  # xmm2 = mem[0],zero
	vmovsd	%xmm2, -24(%rbp)
	vmovsd	%xmm1, -40(%rbp)
	vmovsd	%xmm0, -32(%rbp)
.LBB47_19:                              # %if.end59
	jmp	.LBB47_20
.LBB47_20:                              # %if.end60
	movq	input, %rax
	cmpl	$0, 3244(%rax)
	jne	.LBB47_31
# %bb.21:                               # %if.then63
	vmovsd	-16(%rbp), %xmm0        # xmm0 = mem[0],zero
	vmovsd	-24(%rbp), %xmm1        # xmm1 = mem[0],zero
	vucomisd	%xmm0, %xmm1
	jb	.LBB47_23
# %bb.22:                               # %if.then66
	movl	$35, -8(%rbp)
	jmp	.LBB47_30
.LBB47_23:                              # %if.else67
	vmovsd	-16(%rbp), %xmm0        # xmm0 = mem[0],zero
	vmovsd	-40(%rbp), %xmm1        # xmm1 = mem[0],zero
	vucomisd	%xmm0, %xmm1
	jb	.LBB47_25
# %bb.24:                               # %if.then70
	movl	$25, -8(%rbp)
	jmp	.LBB47_29
.LBB47_25:                              # %if.else71
	vmovsd	-16(%rbp), %xmm0        # xmm0 = mem[0],zero
	vmovsd	-32(%rbp), %xmm1        # xmm1 = mem[0],zero
	vucomisd	%xmm0, %xmm1
	jb	.LBB47_27
# %bb.26:                               # %if.then74
	movl	$20, -8(%rbp)
	jmp	.LBB47_28
.LBB47_27:                              # %if.else75
	movl	$10, -8(%rbp)
.LBB47_28:                              # %if.end76
	jmp	.LBB47_29
.LBB47_29:                              # %if.end77
	jmp	.LBB47_30
.LBB47_30:                              # %if.end78
	movl	-8(%rbp), %eax
	movq	input, %rcx
	movl	%eax, 3244(%rcx)
.LBB47_31:                              # %if.end80
	cmpl	$1254487562, -44(%rbp)  # imm = 0x4AC5F60A
	jne	.LBB47_33
.LBB47_32:
	addq	$48, %rsp
	popq	%rbp
	.cfi_def_cfa %rsp, 8
	retq
.LBB47_33:                              # %func_exit
	.cfi_def_cfa %rbp, 16
	callq	detect_breach
	jmp	.LBB47_32
.Lfunc_end47:
	.size	rc_init_seq.31, .Lfunc_end47-rc_init_seq.31
	.cfi_endproc
                                        # -- End function
	.section	.rodata.cst8,"aM",@progbits,8
	.p2align	3               # -- Begin function updateQuantizationParameter.32
.LCPI48_0:
	.quad	4616189618054758400     # double 4
.LCPI48_1:
	.quad	4611686018427387904     # double 2
.LCPI48_2:
	.quad	4602678819172646912     # double 0.5
.LCPI48_3:
	.quad	4607182418800017408     # double 1
	.text
	.globl	updateQuantizationParameter.32
	.p2align	4, 0x90
	.type	updateQuantizationParameter.32,@function
updateQuantizationParameter.32:         # @updateQuantizationParameter.32
	.cfi_startproc
# %bb.0:                                # %entry
	pushq	%rbp
	.cfi_def_cfa_offset 16
	.cfi_offset %rbp, -16
	movq	%rsp, %rbp
	.cfi_def_cfa_register %rbp
	pushq	%rbx
	subq	$72, %rsp
	.cfi_offset %rbx, -24
	movl	$1888214493, -56(%rbp)  # imm = 0x708BDDDD
	movl	%edi, -36(%rbp)
	movq	img, %rax
	movl	72620(%rax), %eax
	movq	img, %rcx
	cmpl	72608(%rcx), %eax
	jne	.LBB48_123
# %bb.1:                                # %if.then
	cmpl	$0, -36(%rbp)
	jne	.LBB48_3
# %bb.2:                                # %lor.lhs.false
	movq	img, %rax
	cmpl	$0, 72600(%rax)
	jne	.LBB48_116
.LBB48_3:                               # %if.then2
	movq	img, %rax
	cmpl	$2, 24(%rax)
	jne	.LBB48_5
# %bb.4:                                # %if.then4
	movl	MyInitialQp, %eax
	movl	%eax, m_Qc
	movl	m_Qc, %eax
	movl	%eax, -20(%rbp)
	jmp	.LBB48_363
.LBB48_5:                               # %if.else
	movq	img, %rax
	cmpl	$1, 24(%rax)
	jne	.LBB48_69
# %bb.6:                                # %if.then7
	movq	input, %rax
	cmpl	$1, 1236(%rax)
	jne	.LBB48_25
# %bb.7:                                # %if.then9
	movq	input, %rax
	cmpl	$2, 2880(%rax)
	je	.LBB48_9
# %bb.8:                                # %lor.lhs.false11
	movq	input, %rax
	cmpl	$0, 2884(%rax)
	je	.LBB48_15
.LBB48_9:                               # %if.then13
	movq	img, %rax
	cmpl	$0, 72600(%rax)
	jne	.LBB48_14
# %bb.10:                               # %if.then16
	movq	img, %rax
	cmpl	$1, 72604(%rax)
	jne	.LBB48_12
# %bb.11:                               # %if.then18
	movl	PreviousQp2, %eax
	movl	%eax, PreviousQp1
	movl	FrameQPBuffer, %eax
	movl	%eax, PreviousQp2
	jmp	.LBB48_13
.LBB48_12:                              # %if.else19
	movl	PreviousQp2, %eax
	movl	%eax, PreviousQp1
	movl	FieldQPBuffer, %eax
	movl	%eax, PreviousQp2
.LBB48_13:                              # %if.end
	jmp	.LBB48_14
.LBB48_14:                              # %if.end20
	jmp	.LBB48_15
.LBB48_15:                              # %if.end21
	movl	PreviousQp1, %eax
	cmpl	PreviousQp2, %eax
	jne	.LBB48_17
# %bb.16:                               # %if.then23
	movl	PreviousQp1, %eax
	addl	$2, %eax
	movl	%eax, m_Qc
	jmp	.LBB48_18
.LBB48_17:                              # %if.else24
	movl	PreviousQp1, %eax
	addl	PreviousQp2, %eax
	cltd
	movl	$2, %ecx
	idivl	%ecx
	addl	$1, %eax
	movl	%eax, m_Qc
.LBB48_18:                              # %if.end27
	movl	m_Qc, %eax
	cmpl	RC_MAX_QUANT, %eax
	jge	.LBB48_20
# %bb.19:                               # %cond.true
	movl	m_Qc, %eax
	jmp	.LBB48_21
.LBB48_20:                              # %cond.false
	movl	RC_MAX_QUANT, %eax
.LBB48_21:                              # %cond.end
	movl	%eax, m_Qc
	movl	RC_MIN_QUANT, %eax
	cmpl	m_Qc, %eax
	jge	.LBB48_23
# %bb.22:                               # %cond.true30
	movl	m_Qc, %eax
	jmp	.LBB48_24
.LBB48_23:                              # %cond.false31
	movl	RC_MIN_QUANT, %eax
.LBB48_24:                              # %cond.end32
	movl	%eax, m_Qc
	jmp	.LBB48_68
.LBB48_25:                              # %if.else34
	movl	NumberofBFrames, %eax
	addl	$1, %eax
	movq	input, %rcx
	cltd
	idivl	1236(%rcx)
	movl	%edx, -12(%rbp)
	cmpl	$0, -12(%rbp)
	jne	.LBB48_27
# %bb.26:                               # %if.then38
	movq	input, %rax
	movl	1236(%rax), %eax
	movl	%eax, -12(%rbp)
.LBB48_27:                              # %if.end40
	cmpl	$1, -12(%rbp)
	jne	.LBB48_37
# %bb.28:                               # %if.then42
	movq	input, %rax
	cmpl	$2, 2880(%rax)
	je	.LBB48_30
# %bb.29:                               # %lor.lhs.false45
	movq	input, %rax
	cmpl	$0, 2884(%rax)
	je	.LBB48_36
.LBB48_30:                              # %if.then48
	movq	img, %rax
	cmpl	$0, 72600(%rax)
	jne	.LBB48_35
# %bb.31:                               # %if.then51
	movq	img, %rax
	cmpl	$1, 72604(%rax)
	jne	.LBB48_33
# %bb.32:                               # %if.then54
	movl	PreviousQp2, %eax
	movl	%eax, PreviousQp1
	movl	FrameQPBuffer, %eax
	movl	%eax, PreviousQp2
	jmp	.LBB48_34
.LBB48_33:                              # %if.else55
	movl	PreviousQp2, %eax
	movl	%eax, PreviousQp1
	movl	FieldQPBuffer, %eax
	movl	%eax, PreviousQp2
.LBB48_34:                              # %if.end56
	jmp	.LBB48_35
.LBB48_35:                              # %if.end57
	jmp	.LBB48_36
.LBB48_36:                              # %if.end58
	jmp	.LBB48_37
.LBB48_37:                              # %if.end59
	movl	PreviousQp2, %eax
	subl	PreviousQp1, %eax
	movq	input, %rcx
	imull	$4294967294, 1236(%rcx), %ecx # imm = 0xFFFFFFFE
	subl	$3, %ecx
	cmpl	%ecx, %eax
	jg	.LBB48_39
# %bb.38:                               # %if.then63
	movl	$-3, -24(%rbp)
	jmp	.LBB48_52
.LBB48_39:                              # %if.else64
	movl	PreviousQp2, %eax
	subl	PreviousQp1, %eax
	movq	input, %rcx
	imull	$4294967294, 1236(%rcx), %ecx # imm = 0xFFFFFFFE
	subl	$2, %ecx
	cmpl	%ecx, %eax
	jne	.LBB48_41
# %bb.40:                               # %if.then70
	movl	$-2, -24(%rbp)
	jmp	.LBB48_51
.LBB48_41:                              # %if.else71
	movl	PreviousQp2, %eax
	subl	PreviousQp1, %eax
	movq	input, %rcx
	imull	$4294967294, 1236(%rcx), %ecx # imm = 0xFFFFFFFE
	subl	$1, %ecx
	cmpl	%ecx, %eax
	jne	.LBB48_43
# %bb.42:                               # %if.then77
	movl	$-1, -24(%rbp)
	jmp	.LBB48_50
.LBB48_43:                              # %if.else78
	movl	PreviousQp2, %eax
	subl	PreviousQp1, %eax
	movq	input, %rcx
	imull	$4294967294, 1236(%rcx), %ecx # imm = 0xFFFFFFFE
	cmpl	%ecx, %eax
	jne	.LBB48_45
# %bb.44:                               # %if.then83
	movl	$0, -24(%rbp)
	jmp	.LBB48_49
.LBB48_45:                              # %if.else84
	movl	PreviousQp2, %eax
	subl	PreviousQp1, %eax
	movq	input, %rcx
	imull	$4294967294, 1236(%rcx), %ecx # imm = 0xFFFFFFFE
	addl	$1, %ecx
	cmpl	%ecx, %eax
	jne	.LBB48_47
# %bb.46:                               # %if.then90
	movl	$1, -24(%rbp)
	jmp	.LBB48_48
.LBB48_47:                              # %if.else91
	movl	$2, -24(%rbp)
.LBB48_48:                              # %if.end92
	jmp	.LBB48_49
.LBB48_49:                              # %if.end93
	jmp	.LBB48_50
.LBB48_50:                              # %if.end94
	jmp	.LBB48_51
.LBB48_51:                              # %if.end95
	jmp	.LBB48_52
.LBB48_52:                              # %if.end96
	movl	PreviousQp1, %eax
	addl	-24(%rbp), %eax
	movl	%eax, m_Qc
	movl	-12(%rbp), %ecx
	subl	$1, %ecx
	shll	$1, %ecx
	movl	-12(%rbp), %eax
	subl	$1, %eax
	imull	$4294967294, %eax, %esi # imm = 0xFFFFFFFE
	movl	-12(%rbp), %eax
	subl	$1, %eax
	movl	PreviousQp2, %edx
	subl	PreviousQp1, %edx
	imull	%edx, %eax
	movq	input, %rdx
	movl	1236(%rdx), %edi
	subl	$1, %edi
	cltd
	idivl	%edi
	cmpl	%eax, %esi
	jge	.LBB48_54
# %bb.53:                               # %cond.true109
	movl	-12(%rbp), %eax
	subl	$1, %eax
	movl	PreviousQp2, %edx
	subl	PreviousQp1, %edx
	imull	%edx, %eax
	movq	input, %rdx
	movl	1236(%rdx), %esi
	subl	$1, %esi
	cltd
	idivl	%esi
	jmp	.LBB48_55
.LBB48_54:                              # %cond.false116
	movl	-12(%rbp), %eax
	subl	$1, %eax
	imull	$4294967294, %eax, %eax # imm = 0xFFFFFFFE
.LBB48_55:                              # %cond.end119
	cmpl	%eax, %ecx
	jge	.LBB48_57
# %bb.56:                               # %cond.true122
	movl	-12(%rbp), %eax
	subl	$1, %eax
	shll	$1, %eax
	jmp	.LBB48_61
.LBB48_57:                              # %cond.false125
	movl	-12(%rbp), %eax
	subl	$1, %eax
	imull	$4294967294, %eax, %ecx # imm = 0xFFFFFFFE
	movl	-12(%rbp), %eax
	subl	$1, %eax
	movl	PreviousQp2, %edx
	subl	PreviousQp1, %edx
	imull	%edx, %eax
	movq	input, %rdx
	movl	1236(%rdx), %esi
	subl	$1, %esi
	cltd
	idivl	%esi
	cmpl	%eax, %ecx
	jge	.LBB48_59
# %bb.58:                               # %cond.true135
	movl	-12(%rbp), %eax
	subl	$1, %eax
	movl	PreviousQp2, %ecx
	subl	PreviousQp1, %ecx
	imull	%ecx, %eax
	movq	input, %rcx
	movl	1236(%rcx), %ecx
	subl	$1, %ecx
	cltd
	idivl	%ecx
	jmp	.LBB48_60
.LBB48_59:                              # %cond.false142
	movl	-12(%rbp), %eax
	subl	$1, %eax
	imull	$4294967294, %eax, %eax # imm = 0xFFFFFFFE
.LBB48_60:                              # %cond.end145
.LBB48_61:                              # %cond.end147
	addl	m_Qc, %eax
	movl	%eax, m_Qc
	movl	m_Qc, %eax
	cmpl	RC_MAX_QUANT, %eax
	jge	.LBB48_63
# %bb.62:                               # %cond.true151
	movl	m_Qc, %eax
	jmp	.LBB48_64
.LBB48_63:                              # %cond.false152
	movl	RC_MAX_QUANT, %eax
.LBB48_64:                              # %cond.end153
	movl	%eax, m_Qc
	movl	RC_MIN_QUANT, %eax
	cmpl	m_Qc, %eax
	jge	.LBB48_66
# %bb.65:                               # %cond.true156
	movl	m_Qc, %eax
	jmp	.LBB48_67
.LBB48_66:                              # %cond.false157
	movl	RC_MIN_QUANT, %eax
.LBB48_67:                              # %cond.end158
	movl	%eax, m_Qc
.LBB48_68:                              # %if.end160
	movl	m_Qc, %eax
	movl	%eax, -20(%rbp)
	jmp	.LBB48_363
.LBB48_69:                              # %if.else161
	movq	img, %rax
	cmpl	$0, 24(%rax)
	jne	.LBB48_77
# %bb.70:                               # %land.lhs.true
	movq	img, %rax
	cmpl	$0, 72576(%rax)
	jne	.LBB48_77
# %bb.71:                               # %if.then165
	movl	MyInitialQp, %eax
	movl	%eax, m_Qc
	movq	img, %rax
	cmpl	$0, 72600(%rax)
	jne	.LBB48_76
# %bb.72:                               # %if.then168
	movq	active_sps, %rax
	cmpl	$0, 1148(%rax)
	je	.LBB48_74
# %bb.73:                               # %if.then170
	movl	m_Qc, %eax
	movq	img, %rcx
	addl	72572(%rcx), %eax
	movl	%eax, 72572(%rcx)
	movl	PreviousQp2, %eax
	movl	%eax, PreviousQp1
	movl	m_Qc, %eax
	movl	%eax, PreviousQp2
	movl	m_Qc, %eax
	movl	%eax, Pm_Qp
	jmp	.LBB48_75
.LBB48_74:                              # %if.else172
	movl	m_Qc, %eax
