	.text
	.file	"ratectl.c"
	.globl	rc_alloc                # -- Begin function rc_alloc
	.p2align	4, 0x90
	.type	rc_alloc,@function
rc_alloc:                               # @rc_alloc
	.cfi_startproc
# %bb.0:                                # %entry
	pushq	%rbp
	.cfi_def_cfa_offset 16
	.cfi_offset %rbp, -16
	movq	%rsp, %rbp
	.cfi_def_cfa_register %rbp
	movq	img, %rax
	movl	72488(%rax), %edi
	movl	$8, %esi
	callq	calloc
	xorl	%ecx, %ecx
	movq	img, %rdx
	movq	%rax, 72584(%rdx)
	movq	img, %rax
	cmpq	72584(%rax), %rcx
	jne	.LBB0_2
# %bb.1:                                # %if.then
	movabsq	$.L.str, %rdi
	callq	no_mem_exit
.LBB0_2:                                # %if.end
	movq	img, %rax
	movl	72488(%rax), %eax
	movq	input, %rcx
	xorl	%edx, %edx
	divl	3248(%rcx)
	movl	%eax, %edi
	movl	$8, %esi
	callq	calloc
	xorl	%ecx, %ecx
	movq	%rax, BUPFMAD
	cmpq	BUPFMAD, %rcx
	jne	.LBB0_4
# %bb.3:                                # %if.then8
	movabsq	$.L.str.1, %rdi
	callq	no_mem_exit
.LBB0_4:                                # %if.end9
	movq	img, %rax
	movl	72488(%rax), %eax
	movq	input, %rcx
	xorl	%edx, %edx
	divl	3248(%rcx)
	movl	%eax, %edi
	movl	$8, %esi
	callq	calloc
	xorl	%ecx, %ecx
	movq	%rax, BUCFMAD
	cmpq	BUCFMAD, %rcx
	jne	.LBB0_6
# %bb.5:                                # %if.then17
	movabsq	$.L.str.2, %rdi
	callq	no_mem_exit
.LBB0_6:                                # %if.end18
	movq	img, %rax
	movl	72488(%rax), %eax
	movq	input, %rcx
	xorl	%edx, %edx
	divl	3248(%rcx)
	movl	%eax, %edi
	movl	$8, %esi
	callq	calloc
	xorl	%ecx, %ecx
	movq	%rax, FCBUCFMAD
	cmpq	FCBUCFMAD, %rcx
	jne	.LBB0_8
# %bb.7:                                # %if.then26
	movabsq	$.L.str.3, %rdi
	callq	no_mem_exit
.LBB0_8:                                # %if.end27
	movq	img, %rax
	movl	72488(%rax), %eax
	movq	input, %rcx
	xorl	%edx, %edx
	divl	3248(%rcx)
	movl	%eax, %edi
	movl	$8, %esi
	callq	calloc
	xorl	%ecx, %ecx
	movq	%rax, FCBUPFMAD
	cmpq	FCBUPFMAD, %rcx
	jne	.LBB0_10
# %bb.9:                                # %if.then35
	movabsq	$.L.str.4, %rdi
	callq	no_mem_exit
.LBB0_10:                               # %if.end36
	popq	%rbp
	.cfi_def_cfa %rsp, 8
	retq
.Lfunc_end0:
	.size	rc_alloc, .Lfunc_end0-rc_alloc
	.cfi_endproc
                                        # -- End function
	.globl	rc_free                 # -- Begin function rc_free
	.p2align	4, 0x90
	.type	rc_free,@function
rc_free:                                # @rc_free
	.cfi_startproc
# %bb.0:                                # %entry
	pushq	%rbp
	.cfi_def_cfa_offset 16
	.cfi_offset %rbp, -16
	movq	%rsp, %rbp
	.cfi_def_cfa_register %rbp
	xorl	%eax, %eax
	movq	img, %rcx
	cmpq	72584(%rcx), %rax
	je	.LBB1_2
# %bb.1:                                # %if.then
	movq	img, %rax
	movq	72584(%rax), %rdi
	callq	free
	movq	img, %rax
	movq	$0, 72584(%rax)
.LBB1_2:                                # %if.end
	xorl	%eax, %eax
	cmpq	BUPFMAD, %rax
	je	.LBB1_4
# %bb.3:                                # %if.then4
	movq	BUPFMAD, %rdi
	callq	free
	movq	$0, BUPFMAD
.LBB1_4:                                # %if.end5
	xorl	%eax, %eax
	cmpq	BUCFMAD, %rax
	je	.LBB1_6
# %bb.5:                                # %if.then7
	movq	BUCFMAD, %rdi
	callq	free
	movq	$0, BUCFMAD
.LBB1_6:                                # %if.end8
	xorl	%eax, %eax
	cmpq	FCBUCFMAD, %rax
	je	.LBB1_8
# %bb.7:                                # %if.then10
	movq	FCBUCFMAD, %rdi
	callq	free
	movq	$0, FCBUCFMAD
.LBB1_8:                                # %if.end11
	xorl	%eax, %eax
	cmpq	FCBUPFMAD, %rax
	je	.LBB1_10
# %bb.9:                                # %if.then13
	movq	FCBUPFMAD, %rdi
	callq	free
	movq	$0, FCBUPFMAD
.LBB1_10:                               # %if.end14
	popq	%rbp
	.cfi_def_cfa %rsp, 8
	retq
.Lfunc_end1:
	.size	rc_free, .Lfunc_end1-rc_free
	.cfi_endproc
                                        # -- End function
	.globl	rc_init_seq             # -- Begin function rc_init_seq
	.p2align	4, 0x90
	.type	rc_init_seq,@function
rc_init_seq:                            # @rc_init_seq
	.cfi_startproc
# %bb.0:                                # %rand_bb
	pushq	%rbp
	.cfi_def_cfa_offset 16
	.cfi_offset %rbp, -16
	movq	%rsp, %rbp
	.cfi_def_cfa_register %rbp
	callq	get_urand
	cmpl	$0, %eax
	jne	.LBB2_5
# %bb.1:                                # %func_rc_init_seq.13
	callq	rc_init_seq.13
	popq	%rbp
	.cfi_def_cfa %rsp, 8
	retq
.LBB2_2:                                # %func_rc_init_seq.16
	.cfi_def_cfa %rbp, 16
	callq	rc_init_seq.16
	popq	%rbp
	.cfi_def_cfa %rsp, 8
	retq
.LBB2_3:                                # %func_rc_init_seq.34
	.cfi_def_cfa %rbp, 16
	callq	rc_init_seq.34
	popq	%rbp
	.cfi_def_cfa %rsp, 8
	retq
.LBB2_4:                                # %func_rc_init_seq.45
	.cfi_def_cfa %rbp, 16
	callq	rc_init_seq.45
	popq	%rbp
	.cfi_def_cfa %rsp, 8
	retq
.LBB2_5:                                # %ctrl0
	.cfi_def_cfa %rbp, 16
	cmpl	$1, %eax
	je	.LBB2_2
# %bb.6:                                # %ctrl1
	cmpl	$2, %eax
	je	.LBB2_3
	jmp	.LBB2_4
.Lfunc_end2:
	.size	rc_init_seq, .Lfunc_end2-rc_init_seq
	.cfi_endproc
                                        # -- End function
	.globl	rc_init_GOP             # -- Begin function rc_init_GOP
	.p2align	4, 0x90
	.type	rc_init_GOP,@function
rc_init_GOP:                            # @rc_init_GOP
	.cfi_startproc
# %bb.0:                                # %rand_bb
	pushq	%rbp
	.cfi_def_cfa_offset 16
	.cfi_offset %rbp, -16
	movq	%rsp, %rbp
	.cfi_def_cfa_register %rbp
	pushq	%r14
	pushq	%rbx
	.cfi_offset %rbx, -32
	.cfi_offset %r14, -24
	movl	%esi, %r14d
	movl	%edi, %ebx
	callq	get_urand
	cmpl	$0, %eax
	jne	.LBB3_5
# %bb.1:                                # %func_rc_init_GOP.1
	movl	%ebx, %edi
	movl	%r14d, %esi
	callq	rc_init_GOP.1
	popq	%rbx
	popq	%r14
	popq	%rbp
	.cfi_def_cfa %rsp, 8
	retq
.LBB3_2:                                # %func_rc_init_GOP.25
	.cfi_def_cfa %rbp, 16
	movl	%ebx, %edi
	movl	%r14d, %esi
	callq	rc_init_GOP.25
	popq	%rbx
	popq	%r14
	popq	%rbp
	.cfi_def_cfa %rsp, 8
	retq
.LBB3_3:                                # %func_rc_init_GOP.27
	.cfi_def_cfa %rbp, 16
	movl	%ebx, %edi
	movl	%r14d, %esi
	callq	rc_init_GOP.27
	popq	%rbx
	popq	%r14
	popq	%rbp
	.cfi_def_cfa %rsp, 8
	retq
.LBB3_4:                                # %func_rc_init_GOP.48
	.cfi_def_cfa %rbp, 16
	movl	%ebx, %edi
	movl	%r14d, %esi
	callq	rc_init_GOP.48
	popq	%rbx
	popq	%r14
	popq	%rbp
	.cfi_def_cfa %rsp, 8
	retq
.LBB3_5:                                # %ctrl0
	.cfi_def_cfa %rbp, 16
	cmpl	$1, %eax
	je	.LBB3_2
# %bb.6:                                # %ctrl1
	cmpl	$2, %eax
	je	.LBB3_3
	jmp	.LBB3_4
.Lfunc_end3:
	.size	rc_init_GOP, .Lfunc_end3-rc_init_GOP
	.cfi_endproc
                                        # -- End function
	.globl	rc_init_pict            # -- Begin function rc_init_pict
	.p2align	4, 0x90
	.type	rc_init_pict,@function
rc_init_pict:                           # @rc_init_pict
	.cfi_startproc
# %bb.0:                                # %rand_bb
	pushq	%rbp
	.cfi_def_cfa_offset 16
	.cfi_offset %rbp, -16
	movq	%rsp, %rbp
	.cfi_def_cfa_register %rbp
	pushq	%r15
	pushq	%r14
	pushq	%rbx
	pushq	%rax
	.cfi_offset %rbx, -40
	.cfi_offset %r14, -32
	.cfi_offset %r15, -24
	movl	%edx, %r14d
	movl	%esi, %r15d
	movl	%edi, %ebx
	callq	get_urand
	cmpl	$0, %eax
	jne	.LBB4_5
# %bb.1:                                # %func_rc_init_pict.29
	movl	%ebx, %edi
	movl	%r15d, %esi
	movl	%r14d, %edx
	callq	rc_init_pict.29
	addq	$8, %rsp
	popq	%rbx
	popq	%r14
	popq	%r15
	popq	%rbp
	.cfi_def_cfa %rsp, 8
	retq
.LBB4_2:                                # %func_rc_init_pict.37
	.cfi_def_cfa %rbp, 16
	movl	%ebx, %edi
	movl	%r15d, %esi
	movl	%r14d, %edx
	callq	rc_init_pict.37
	addq	$8, %rsp
	popq	%rbx
	popq	%r14
	popq	%r15
	popq	%rbp
	.cfi_def_cfa %rsp, 8
	retq
.LBB4_3:                                # %func_rc_init_pict.46
	.cfi_def_cfa %rbp, 16
	movl	%ebx, %edi
	movl	%r15d, %esi
	movl	%r14d, %edx
	callq	rc_init_pict.46
	addq	$8, %rsp
	popq	%rbx
	popq	%r14
	popq	%r15
	popq	%rbp
	.cfi_def_cfa %rsp, 8
	retq
.LBB4_4:                                # %func_rc_init_pict.49
	.cfi_def_cfa %rbp, 16
	movl	%ebx, %edi
	movl	%r15d, %esi
	movl	%r14d, %edx
	callq	rc_init_pict.49
	addq	$8, %rsp
	popq	%rbx
	popq	%r14
	popq	%r15
	popq	%rbp
	.cfi_def_cfa %rsp, 8
	retq
.LBB4_5:                                # %ctrl0
	.cfi_def_cfa %rbp, 16
	cmpl	$1, %eax
	je	.LBB4_2
# %bb.6:                                # %ctrl1
	cmpl	$2, %eax
	je	.LBB4_3
	jmp	.LBB4_4
.Lfunc_end4:
	.size	rc_init_pict, .Lfunc_end4-rc_init_pict
	.cfi_endproc
                                        # -- End function
	.globl	calc_MAD                # -- Begin function calc_MAD
	.p2align	4, 0x90
	.type	calc_MAD,@function
calc_MAD:                               # @calc_MAD
	.cfi_startproc
# %bb.0:                                # %rand_bb
	pushq	%rbp
	.cfi_def_cfa_offset 16
	.cfi_offset %rbp, -16
	movq	%rsp, %rbp
	.cfi_def_cfa_register %rbp
	callq	get_urand
	cmpl	$0, %eax
	jne	.LBB5_5
# %bb.1:                                # %func_calc_MAD.19
	callq	calc_MAD.19
	popq	%rbp
	.cfi_def_cfa %rsp, 8
	retq
.LBB5_2:                                # %func_calc_MAD.23
	.cfi_def_cfa %rbp, 16
	callq	calc_MAD.23
	popq	%rbp
	.cfi_def_cfa %rsp, 8
	retq
.LBB5_3:                                # %func_calc_MAD.24
	.cfi_def_cfa %rbp, 16
	callq	calc_MAD.24
	popq	%rbp
	.cfi_def_cfa %rsp, 8
	retq
.LBB5_4:                                # %func_calc_MAD.41
	.cfi_def_cfa %rbp, 16
	callq	calc_MAD.41
	popq	%rbp
	.cfi_def_cfa %rsp, 8
	retq
.LBB5_5:                                # %ctrl0
	.cfi_def_cfa %rbp, 16
	cmpl	$1, %eax
	je	.LBB5_2
# %bb.6:                                # %ctrl1
	cmpl	$2, %eax
	je	.LBB5_3
	jmp	.LBB5_4
.Lfunc_end5:
	.size	calc_MAD, .Lfunc_end5-calc_MAD
	.cfi_endproc
                                        # -- End function
	.section	.rodata.cst8,"aM",@progbits,8
	.p2align	3               # -- Begin function rc_update_pict
.LCPI6_0:
	.quad	4606281698874543309     # double 0.90000000000000002
	.text
	.globl	rc_update_pict
	.p2align	4, 0x90
	.type	rc_update_pict,@function
rc_update_pict:                         # @rc_update_pict
	.cfi_startproc
# %bb.0:                                # %entry
	pushq	%rbp
	.cfi_def_cfa_offset 16
	.cfi_offset %rbp, -16
	movq	%rsp, %rbp
	.cfi_def_cfa_register %rbp
	vmovsd	.LCPI6_0(%rip), %xmm0   # xmm0 = mem[0],zero
	movl	%edi, -4(%rbp)
	movl	-4(%rbp), %eax
	movl	R, %ecx
	subl	%eax, %ecx
	movl	%ecx, R
	vcvtsi2sdl	-4(%rbp), %xmm0, %xmm1
	vmovsd	bit_rate, %xmm2         # xmm2 = mem[0],zero
	vdivsd	frame_rate, %xmm2, %xmm2
	vsubsd	%xmm2, %xmm1, %xmm1
	vaddsd	CurrentBufferFullness, %xmm1, %xmm1
	vmovsd	%xmm1, CurrentBufferFullness
	vmovsd	bit_rate, %xmm1         # xmm1 = mem[0],zero
	vdivsd	frame_rate, %xmm1, %xmm1
	vcvtsi2sdl	-4(%rbp), %xmm0, %xmm2
	vsubsd	%xmm2, %xmm1, %xmm1
	vcvttsd2si	%xmm1, %rax
	addq	LowerBound, %rax
	movq	%rax, LowerBound
	vmovsd	bit_rate, %xmm1         # xmm1 = mem[0],zero
	vdivsd	frame_rate, %xmm1, %xmm1
	vcvtsi2sdl	-4(%rbp), %xmm0, %xmm2
	vsubsd	%xmm2, %xmm1, %xmm1
	vcvttsd2si	%xmm1, %rax
	addq	UpperBound1, %rax
	movq	%rax, UpperBound1
	vcvtsi2sdq	UpperBound1, %xmm0, %xmm1
	vmulsd	%xmm1, %xmm0, %xmm0
	vcvttsd2si	%xmm0, %rax
	movq	%rax, UpperBound2
	popq	%rbp
	.cfi_def_cfa %rsp, 8
	retq
.Lfunc_end6:
	.size	rc_update_pict, .Lfunc_end6-rc_update_pict
	.cfi_endproc
                                        # -- End function
	.globl	rc_update_pict_frame    # -- Begin function rc_update_pict_frame
	.p2align	4, 0x90
	.type	rc_update_pict_frame,@function
rc_update_pict_frame:                   # @rc_update_pict_frame
	.cfi_startproc
# %bb.0:                                # %rand_bb
	pushq	%rbp
	.cfi_def_cfa_offset 16
	.cfi_offset %rbp, -16
	movq	%rsp, %rbp
	.cfi_def_cfa_register %rbp
	pushq	%rbx
	pushq	%rax
	.cfi_offset %rbx, -24
	movl	%edi, %ebx
	callq	get_urand
	cmpl	$0, %eax
	jne	.LBB7_5
# %bb.1:                                # %func_rc_update_pict_frame.6
	movl	%ebx, %edi
	callq	rc_update_pict_frame.6
	addq	$8, %rsp
	popq	%rbx
	popq	%rbp
	.cfi_def_cfa %rsp, 8
	retq
.LBB7_2:                                # %func_rc_update_pict_frame.7
	.cfi_def_cfa %rbp, 16
	movl	%ebx, %edi
	callq	rc_update_pict_frame.7
	addq	$8, %rsp
	popq	%rbx
	popq	%rbp
	.cfi_def_cfa %rsp, 8
	retq
.LBB7_3:                                # %func_rc_update_pict_frame.9
	.cfi_def_cfa %rbp, 16
	movl	%ebx, %edi
	callq	rc_update_pict_frame.9
	addq	$8, %rsp
	popq	%rbx
	popq	%rbp
	.cfi_def_cfa %rsp, 8
	retq
.LBB7_4:                                # %func_rc_update_pict_frame.30
	.cfi_def_cfa %rbp, 16
	movl	%ebx, %edi
	callq	rc_update_pict_frame.30
	addq	$8, %rsp
	popq	%rbx
	popq	%rbp
	.cfi_def_cfa %rsp, 8
	retq
.LBB7_5:                                # %ctrl0
	.cfi_def_cfa %rbp, 16
	cmpl	$1, %eax
	je	.LBB7_2
# %bb.6:                                # %ctrl1
	cmpl	$2, %eax
	je	.LBB7_3
	jmp	.LBB7_4
.Lfunc_end7:
	.size	rc_update_pict_frame, .Lfunc_end7-rc_update_pict_frame
	.cfi_endproc
                                        # -- End function
	.globl	setbitscount            # -- Begin function setbitscount
	.p2align	4, 0x90
	.type	setbitscount,@function
setbitscount:                           # @setbitscount
	.cfi_startproc
# %bb.0:                                # %entry
	pushq	%rbp
	.cfi_def_cfa_offset 16
	.cfi_offset %rbp, -16
	movq	%rsp, %rbp
	.cfi_def_cfa_register %rbp
	movl	%edi, -4(%rbp)
	movl	-4(%rbp), %eax
	movl	%eax, bits_topfield
	popq	%rbp
	.cfi_def_cfa %rsp, 8
	retq
.Lfunc_end8:
	.size	setbitscount, .Lfunc_end8-setbitscount
	.cfi_endproc
                                        # -- End function
	.globl	updateQuantizationParameter # -- Begin function updateQuantizationParameter
	.p2align	4, 0x90
	.type	updateQuantizationParameter,@function
updateQuantizationParameter:            # @updateQuantizationParameter
	.cfi_startproc
# %bb.0:                                # %rand_bb
	pushq	%rbp
	.cfi_def_cfa_offset 16
	.cfi_offset %rbp, -16
	movq	%rsp, %rbp
	.cfi_def_cfa_register %rbp
	pushq	%rbx
	pushq	%rax
	.cfi_offset %rbx, -24
	movl	%edi, %ebx
	callq	get_urand
	cmpl	$0, %eax
	jne	.LBB9_5
# %bb.1:                                # %func_updateQuantizationParameter.3
	movl	%ebx, %edi
	callq	updateQuantizationParameter.3
	addq	$8, %rsp
	popq	%rbx
	popq	%rbp
	.cfi_def_cfa %rsp, 8
	retq
.LBB9_2:                                # %func_updateQuantizationParameter.8
	.cfi_def_cfa %rbp, 16
	movl	%ebx, %edi
	callq	updateQuantizationParameter.8
	addq	$8, %rsp
	popq	%rbx
	popq	%rbp
	.cfi_def_cfa %rsp, 8
	retq
.LBB9_3:                                # %func_updateQuantizationParameter.14
	.cfi_def_cfa %rbp, 16
	movl	%ebx, %edi
	callq	updateQuantizationParameter.14
	addq	$8, %rsp
	popq	%rbx
	popq	%rbp
	.cfi_def_cfa %rsp, 8
	retq
.LBB9_4:                                # %func_updateQuantizationParameter.17
	.cfi_def_cfa %rbp, 16
	movl	%ebx, %edi
	callq	updateQuantizationParameter.17
	addq	$8, %rsp
	popq	%rbx
	popq	%rbp
	.cfi_def_cfa %rsp, 8
	retq
.LBB9_5:                                # %ctrl0
	.cfi_def_cfa %rbp, 16
	cmpl	$1, %eax
	je	.LBB9_2
# %bb.6:                                # %ctrl1
	cmpl	$2, %eax
	je	.LBB9_3
	jmp	.LBB9_4
.Lfunc_end9:
	.size	updateQuantizationParameter, .Lfunc_end9-updateQuantizationParameter
	.cfi_endproc
                                        # -- End function
	.globl	Qstep2QP                # -- Begin function Qstep2QP
	.p2align	4, 0x90
	.type	Qstep2QP,@function
Qstep2QP:                               # @Qstep2QP
	.cfi_startproc
# %bb.0:                                # %rand_bb
	pushq	%rbp
	.cfi_def_cfa_offset 16
	.cfi_offset %rbp, -16
	movq	%rsp, %rbp
	.cfi_def_cfa_register %rbp
	subq	$16, %rsp
	vmovsd	%xmm0, -8(%rbp)         # 8-byte Spill
	callq	get_urand
	cmpl	$0, %eax
	jne	.LBB10_5
# %bb.1:                                # %func_Qstep2QP.20
	vmovsd	-8(%rbp), %xmm0         # 8-byte Reload
                                        # xmm0 = mem[0],zero
	callq	Qstep2QP.20
	addq	$16, %rsp
	popq	%rbp
	.cfi_def_cfa %rsp, 8
	retq
.LBB10_2:                               # %func_Qstep2QP.22
	.cfi_def_cfa %rbp, 16
	callq	Qstep2QP.22
	addq	$16, %rsp
	popq	%rbp
	.cfi_def_cfa %rsp, 8
	retq
.LBB10_3:                               # %func_Qstep2QP.36
	.cfi_def_cfa %rbp, 16
	callq	Qstep2QP.36
	addq	$16, %rsp
	popq	%rbp
	.cfi_def_cfa %rsp, 8
	retq
.LBB10_4:                               # %func_Qstep2QP.40
	.cfi_def_cfa %rbp, 16
	callq	Qstep2QP.40
	addq	$16, %rsp
	popq	%rbp
	.cfi_def_cfa %rsp, 8
	retq
.LBB10_5:                               # %ctrl0
	.cfi_def_cfa %rbp, 16
	vmovsd	-8(%rbp), %xmm0         # 8-byte Reload
                                        # xmm0 = mem[0],zero
	cmpl	$1, %eax
	je	.LBB10_2
# %bb.6:                                # %ctrl1
	cmpl	$2, %eax
	je	.LBB10_3
	jmp	.LBB10_4
.Lfunc_end10:
	.size	Qstep2QP, .Lfunc_end10-Qstep2QP
	.cfi_endproc
                                        # -- End function
	.globl	updateRCModel           # -- Begin function updateRCModel
	.p2align	4, 0x90
	.type	updateRCModel,@function
updateRCModel:                          # @updateRCModel
	.cfi_startproc
# %bb.0:                                # %rand_bb
	pushq	%rbp
	.cfi_def_cfa_offset 16
	.cfi_offset %rbp, -16
	movq	%rsp, %rbp
	.cfi_def_cfa_register %rbp
	callq	get_urand
	cmpl	$0, %eax
	jne	.LBB11_5
# %bb.1:                                # %func_updateRCModel.2
	callq	updateRCModel.2
	popq	%rbp
	.cfi_def_cfa %rsp, 8
	retq
.LBB11_2:                               # %func_updateRCModel.15
	.cfi_def_cfa %rbp, 16
	callq	updateRCModel.15
	popq	%rbp
	.cfi_def_cfa %rsp, 8
	retq
.LBB11_3:                               # %func_updateRCModel.39
	.cfi_def_cfa %rbp, 16
	callq	updateRCModel.39
	popq	%rbp
	.cfi_def_cfa %rsp, 8
	retq
.LBB11_4:                               # %func_updateRCModel.42
	.cfi_def_cfa %rbp, 16
	callq	updateRCModel.42
	popq	%rbp
	.cfi_def_cfa %rsp, 8
	retq
.LBB11_5:                               # %ctrl0
	.cfi_def_cfa %rbp, 16
	cmpl	$1, %eax
	je	.LBB11_2
# %bb.6:                                # %ctrl1
	cmpl	$2, %eax
	je	.LBB11_3
	jmp	.LBB11_4
.Lfunc_end11:
	.size	updateRCModel, .Lfunc_end11-updateRCModel
	.cfi_endproc
                                        # -- End function
	.globl	QP2Qstep                # -- Begin function QP2Qstep
	.p2align	4, 0x90
	.type	QP2Qstep,@function
QP2Qstep:                               # @QP2Qstep
	.cfi_startproc
# %bb.0:                                # %rand_bb
	pushq	%rbp
	.cfi_def_cfa_offset 16
	.cfi_offset %rbp, -16
	movq	%rsp, %rbp
	.cfi_def_cfa_register %rbp
	pushq	%rbx
	pushq	%rax
	.cfi_offset %rbx, -24
	movl	%edi, %ebx
	callq	get_urand
	cmpl	$0, %eax
	jne	.LBB12_5
# %bb.1:                                # %func_QP2Qstep.18
	movl	%ebx, %edi
	callq	QP2Qstep.18
	addq	$8, %rsp
	popq	%rbx
	popq	%rbp
	.cfi_def_cfa %rsp, 8
	retq
.LBB12_2:                               # %func_QP2Qstep.26
	.cfi_def_cfa %rbp, 16
	movl	%ebx, %edi
	callq	QP2Qstep.26
	addq	$8, %rsp
	popq	%rbx
	popq	%rbp
	.cfi_def_cfa %rsp, 8
	retq
.LBB12_3:                               # %func_QP2Qstep.32
	.cfi_def_cfa %rbp, 16
	movl	%ebx, %edi
	callq	QP2Qstep.32
	addq	$8, %rsp
	popq	%rbx
	popq	%rbp
	.cfi_def_cfa %rsp, 8
	retq
.LBB12_4:                               # %func_QP2Qstep.35
	.cfi_def_cfa %rbp, 16
	movl	%ebx, %edi
	callq	QP2Qstep.35
	addq	$8, %rsp
	popq	%rbx
	popq	%rbp
	.cfi_def_cfa %rsp, 8
	retq
.LBB12_5:                               # %ctrl0
	.cfi_def_cfa %rbp, 16
	cmpl	$1, %eax
	je	.LBB12_2
# %bb.6:                                # %ctrl1
	cmpl	$2, %eax
	je	.LBB12_3
	jmp	.LBB12_4
.Lfunc_end12:
	.size	QP2Qstep, .Lfunc_end12-QP2Qstep
	.cfi_endproc
                                        # -- End function
	.globl	RCModelEstimator        # -- Begin function RCModelEstimator
	.p2align	4, 0x90
	.type	RCModelEstimator,@function
RCModelEstimator:                       # @RCModelEstimator
	.cfi_startproc
# %bb.0:                                # %rand_bb
	pushq	%rbp
	.cfi_def_cfa_offset 16
	.cfi_offset %rbp, -16
	movq	%rsp, %rbp
	.cfi_def_cfa_register %rbp
	pushq	%rbx
	pushq	%rax
	.cfi_offset %rbx, -24
	movl	%edi, %ebx
	callq	get_urand
	cmpl	$0, %eax
	jne	.LBB13_5
# %bb.1:                                # %func_RCModelEstimator.4
	movl	%ebx, %edi
	callq	RCModelEstimator.4
	addq	$8, %rsp
	popq	%rbx
	popq	%rbp
	.cfi_def_cfa %rsp, 8
	retq
.LBB13_2:                               # %func_RCModelEstimator.11
	.cfi_def_cfa %rbp, 16
	movl	%ebx, %edi
	callq	RCModelEstimator.11
	addq	$8, %rsp
	popq	%rbx
	popq	%rbp
	.cfi_def_cfa %rsp, 8
	retq
.LBB13_3:                               # %func_RCModelEstimator.38
	.cfi_def_cfa %rbp, 16
	movl	%ebx, %edi
	callq	RCModelEstimator.38
	addq	$8, %rsp
	popq	%rbx
	popq	%rbp
	.cfi_def_cfa %rsp, 8
	retq
.LBB13_4:                               # %func_RCModelEstimator.43
	.cfi_def_cfa %rbp, 16
	movl	%ebx, %edi
	callq	RCModelEstimator.43
	addq	$8, %rsp
	popq	%rbx
	popq	%rbp
	.cfi_def_cfa %rsp, 8
	retq
.LBB13_5:                               # %ctrl0
	.cfi_def_cfa %rbp, 16
	cmpl	$1, %eax
	je	.LBB13_2
# %bb.6:                                # %ctrl1
	cmpl	$2, %eax
	je	.LBB13_3
	jmp	.LBB13_4
.Lfunc_end13:
	.size	RCModelEstimator, .Lfunc_end13-RCModelEstimator
	.cfi_endproc
                                        # -- End function
	.globl	ComputeFrameMAD         # -- Begin function ComputeFrameMAD
	.p2align	4, 0x90
	.type	ComputeFrameMAD,@function
ComputeFrameMAD:                        # @ComputeFrameMAD
	.cfi_startproc
# %bb.0:                                # %rand_bb
	pushq	%rbp
	.cfi_def_cfa_offset 16
	.cfi_offset %rbp, -16
	movq	%rsp, %rbp
	.cfi_def_cfa_register %rbp
	callq	get_urand
	cmpl	$0, %eax
	jne	.LBB14_2
# %bb.1:                                # %func_ComputeFrameMAD.28
	callq	ComputeFrameMAD.28
	popq	%rbp
	.cfi_def_cfa %rsp, 8
	retq
.LBB14_2:                               # %func_ComputeFrameMAD.33
	.cfi_def_cfa %rbp, 16
	callq	ComputeFrameMAD.33
	popq	%rbp
	.cfi_def_cfa %rsp, 8
	retq
.Lfunc_end14:
	.size	ComputeFrameMAD, .Lfunc_end14-ComputeFrameMAD
	.cfi_endproc
                                        # -- End function
	.globl	updateMADModel          # -- Begin function updateMADModel
	.p2align	4, 0x90
	.type	updateMADModel,@function
updateMADModel:                         # @updateMADModel
	.cfi_startproc
# %bb.0:                                # %rand_bb
	pushq	%rbp
	.cfi_def_cfa_offset 16
	.cfi_offset %rbp, -16
	movq	%rsp, %rbp
	.cfi_def_cfa_register %rbp
	callq	get_urand
	cmpl	$0, %eax
	jne	.LBB15_5
# %bb.1:                                # %func_updateMADModel.31
	callq	updateMADModel.31
	popq	%rbp
	.cfi_def_cfa %rsp, 8
	retq
.LBB15_2:                               # %func_updateMADModel.44
	.cfi_def_cfa %rbp, 16
	callq	updateMADModel.44
	popq	%rbp
	.cfi_def_cfa %rsp, 8
	retq
.LBB15_3:                               # %func_updateMADModel.47
	.cfi_def_cfa %rbp, 16
	callq	updateMADModel.47
	popq	%rbp
	.cfi_def_cfa %rsp, 8
	retq
.LBB15_4:                               # %func_updateMADModel.50
	.cfi_def_cfa %rbp, 16
	callq	updateMADModel.50
	popq	%rbp
	.cfi_def_cfa %rsp, 8
	retq
.LBB15_5:                               # %ctrl0
	.cfi_def_cfa %rbp, 16
	cmpl	$1, %eax
	je	.LBB15_2
# %bb.6:                                # %ctrl1
	cmpl	$2, %eax
	je	.LBB15_3
	jmp	.LBB15_4
.Lfunc_end15:
	.size	updateMADModel, .Lfunc_end15-updateMADModel
	.cfi_endproc
                                        # -- End function
	.globl	MADModelEstimator       # -- Begin function MADModelEstimator
	.p2align	4, 0x90
	.type	MADModelEstimator,@function
MADModelEstimator:                      # @MADModelEstimator
	.cfi_startproc
# %bb.0:                                # %rand_bb
	pushq	%rbp
	.cfi_def_cfa_offset 16
	.cfi_offset %rbp, -16
	movq	%rsp, %rbp
	.cfi_def_cfa_register %rbp
	pushq	%rbx
	pushq	%rax
	.cfi_offset %rbx, -24
	movl	%edi, %ebx
	callq	get_urand
	cmpl	$0, %eax
	jne	.LBB16_5
# %bb.1:                                # %func_MADModelEstimator.5
	movl	%ebx, %edi
	callq	MADModelEstimator.5
	addq	$8, %rsp
	popq	%rbx
	popq	%rbp
	.cfi_def_cfa %rsp, 8
	retq
.LBB16_2:                               # %func_MADModelEstimator.10
	.cfi_def_cfa %rbp, 16
	movl	%ebx, %edi
	callq	MADModelEstimator.10
	addq	$8, %rsp
	popq	%rbx
	popq	%rbp
	.cfi_def_cfa %rsp, 8
	retq
.LBB16_3:                               # %func_MADModelEstimator.12
	.cfi_def_cfa %rbp, 16
	movl	%ebx, %edi
	callq	MADModelEstimator.12
	addq	$8, %rsp
	popq	%rbx
	popq	%rbp
	.cfi_def_cfa %rsp, 8
	retq
.LBB16_4:                               # %func_MADModelEstimator.21
	.cfi_def_cfa %rbp, 16
	movl	%ebx, %edi
	callq	MADModelEstimator.21
	addq	$8, %rsp
	popq	%rbx
	popq	%rbp
	.cfi_def_cfa %rsp, 8
	retq
.LBB16_5:                               # %ctrl0
	.cfi_def_cfa %rbp, 16
	cmpl	$1, %eax
	je	.LBB16_2
# %bb.6:                                # %ctrl1
	cmpl	$2, %eax
	je	.LBB16_3
	jmp	.LBB16_4
.Lfunc_end16:
	.size	MADModelEstimator, .Lfunc_end16-MADModelEstimator
	.cfi_endproc
                                        # -- End function
	.section	.rodata.cst8,"aM",@progbits,8
	.p2align	3               # -- Begin function rc_init_GOP.1
.LCPI17_0:
	.quad	4602678819172646912     # double 0.5
.LCPI17_1:
	.quad	4624633867356078080     # double 15
.LCPI17_2:
	.quad	4607182418800017408     # double 1
	.text
	.globl	rc_init_GOP.1
	.p2align	4, 0x90
	.type	rc_init_GOP.1,@function
rc_init_GOP.1:                          # @rc_init_GOP.1
	.cfi_startproc
# %bb.0:                                # %entry
	pushq	%rbp
	.cfi_def_cfa_offset 16
	.cfi_offset %rbp, -16
	movq	%rsp, %rbp
	.cfi_def_cfa_register %rbp
	subq	$32, %rsp
	movl	$1857118496, -24(%rbp)  # imm = 0x6EB16120
	movl	%edi, -4(%rbp)
	movl	%esi, -8(%rbp)
	movl	$0, -20(%rbp)
	cmpl	$0, R
	jge	.LBB17_2
# %bb.1:                                # %if.then
	movl	$1, -20(%rbp)
.LBB17_2:                               # %if.end
	vmovsd	.LCPI17_0(%rip), %xmm0  # xmm0 = mem[0],zero
	xorl	%eax, %eax
	subl	R, %eax
	movl	%eax, -28(%rbp)
	vcvtsi2sdl	R, %xmm0, %xmm1
	vmovsd	bit_rate, %xmm2         # xmm2 = mem[0],zero
	vdivsd	frame_rate, %xmm2, %xmm2
	vaddsd	%xmm2, %xmm1, %xmm1
	vcvttsd2si	%xmm1, %rax
	movq	%rax, LowerBound
	vcvtsi2sdl	R, %xmm0, %xmm1
	vaddsd	InitialDelayOffset, %xmm1, %xmm1
	vcvttsd2si	%xmm1, %rax
	movq	%rax, UpperBound1
	movl	-4(%rbp), %eax
	addl	$1, %eax
	addl	-8(%rbp), %eax
	vcvtsi2sd	%eax, %xmm0, %xmm1
	vmulsd	bit_rate, %xmm1, %xmm1
	vdivsd	frame_rate, %xmm1, %xmm1
	vaddsd	%xmm0, %xmm1, %xmm1
	vroundsd	$9, %xmm1, %xmm0, %xmm1
	vcvttsd2si	%xmm1, %eax
	movl	%eax, -16(%rbp)
	movl	-16(%rbp), %eax
	addl	R, %eax
	movl	%eax, R
	movl	-4(%rbp), %eax
	movl	%eax, Np
	movl	-8(%rbp), %eax
	movl	%eax, Nb
	movl	-28(%rbp), %eax
	shll	$3, %eax
	cltd
	idivl	-16(%rbp)
	vcvtsi2sd	%eax, %xmm0, %xmm1
	vaddsd	%xmm0, %xmm1, %xmm0
	vcvttsd2si	%xmm0, %eax
	movl	%eax, -32(%rbp)
	movl	$0, GOPOverdue
	movq	img, %rax
	movl	$1, 72612(%rax)
	movl	-4(%rbp), %eax
	movl	%eax, TotalPFrame
	movq	img, %rax
	movl	72568(%rax), %ecx
	addl	$1, %ecx
	movl	%ecx, 72568(%rax)
	movq	img, %rax
	cmpl	$1, 72568(%rax)
	jne	.LBB17_4
# %bb.3:                                # %if.then20
	movq	input, %rax
	movl	3244(%rax), %eax
	movl	%eax, MyInitialQp
	movl	MyInitialQp, %eax
	subl	$1, %eax
	movl	%eax, PreviousQp2
	movl	MyInitialQp, %eax
	movl	%eax, QPLastGOP
	jmp	.LBB17_27
.LBB17_4:                               # %if.else
	movq	input, %rax
	cmpl	$2, 2880(%rax)
	je	.LBB17_6
# %bb.5:                                # %lor.lhs.false
	movq	input, %rax
	cmpl	$0, 2884(%rax)
	je	.LBB17_10
.LBB17_6:                               # %if.then24
	movq	img, %rax
	cmpl	$1, 72604(%rax)
	jne	.LBB17_8
# %bb.7:                                # %if.then27
	movl	FrameQPBuffer, %eax
	movq	img, %rcx
	addl	72572(%rcx), %eax
	movl	%eax, 72572(%rcx)
	movl	FrameQPBuffer, %eax
	movl	%eax, QPLastPFrame
	jmp	.LBB17_9
.LBB17_8:                               # %if.else29
	movl	FieldQPBuffer, %eax
	movq	img, %rcx
	addl	72572(%rcx), %eax
	movl	%eax, 72572(%rcx)
	movl	FieldQPBuffer, %eax
	movl	%eax, QPLastPFrame
.LBB17_9:                               # %if.end32
	jmp	.LBB17_10
.LBB17_10:                              # %if.end33
	vmovsd	.LCPI17_0(%rip), %xmm0  # xmm0 = mem[0],zero
	vmovsd	.LCPI17_1(%rip), %xmm1  # xmm1 = mem[0],zero
	vmovsd	.LCPI17_2(%rip), %xmm2  # xmm2 = mem[0],zero
	movq	img, %rax
	vcvtsi2sdl	72572(%rax), %xmm0, %xmm3
	vmulsd	%xmm3, %xmm2, %xmm3
	movq	img, %rax
	vcvtsi2sdl	72576(%rax), %xmm0, %xmm4
	vdivsd	%xmm4, %xmm3, %xmm3
	vaddsd	%xmm0, %xmm3, %xmm3
	vcvttsd2si	%xmm3, %eax
	movl	%eax, PAverageQp
	movl	-4(%rbp), %eax
	addl	-8(%rbp), %eax
	addl	$1, %eax
	vcvtsi2sd	%eax, %xmm0, %xmm3
	vmulsd	%xmm3, %xmm2, %xmm2
	vdivsd	%xmm1, %xmm2, %xmm1
	vaddsd	%xmm1, %xmm0, %xmm0
	vcvttsd2si	%xmm0, %eax
	movl	%eax, -12(%rbp)
	cmpl	$2, -12(%rbp)
	jle	.LBB17_12
# %bb.11:                               # %if.then50
	movl	$2, -12(%rbp)
.LBB17_12:                              # %if.end51
	movl	-12(%rbp), %eax
	movl	PAverageQp, %ecx
	subl	%eax, %ecx
	movl	%ecx, PAverageQp
	movl	PAverageQp, %eax
	movl	QPLastPFrame, %ecx
	subl	$2, %ecx
	cmpl	%ecx, %eax
	jle	.LBB17_14
# %bb.13:                               # %if.then56
	movl	PAverageQp, %eax
	addl	$-1, %eax
	movl	%eax, PAverageQp
.LBB17_14:                              # %if.end57
	movl	QPLastGOP, %eax
	subl	$2, %eax
	cmpl	PAverageQp, %eax
	jge	.LBB17_16
# %bb.15:                               # %cond.true
	movl	PAverageQp, %eax
	jmp	.LBB17_17
.LBB17_16:                              # %cond.false
	movl	QPLastGOP, %eax
	subl	$2, %eax
.LBB17_17:                              # %cond.end
	movl	%eax, PAverageQp
	movl	QPLastGOP, %eax
	addl	$2, %eax
	cmpl	PAverageQp, %eax
	jge	.LBB17_19
# %bb.18:                               # %cond.true65
	movl	QPLastGOP, %eax
	addl	$2, %eax
	jmp	.LBB17_20
.LBB17_19:                              # %cond.false67
	movl	PAverageQp, %eax
.LBB17_20:                              # %cond.end68
	movl	%eax, PAverageQp
	movl	RC_MAX_QUANT, %eax
	cmpl	PAverageQp, %eax
	jge	.LBB17_22
# %bb.21:                               # %cond.true72
	movl	RC_MAX_QUANT, %eax
	jmp	.LBB17_23
.LBB17_22:                              # %cond.false73
	movl	PAverageQp, %eax
.LBB17_23:                              # %cond.end74
	movl	%eax, PAverageQp
	movl	RC_MIN_QUANT, %eax
	cmpl	PAverageQp, %eax
	jge	.LBB17_25
# %bb.24:                               # %cond.true78
	movl	PAverageQp, %eax
	jmp	.LBB17_26
.LBB17_25:                              # %cond.false79
	movl	RC_MIN_QUANT, %eax
.LBB17_26:                              # %cond.end80
	movl	%eax, PAverageQp
	movl	PAverageQp, %eax
	movl	%eax, MyInitialQp
	movl	MyInitialQp, %eax
	movl	%eax, QPLastGOP
	movl	PAverageQp, %eax
	movl	%eax, Pm_Qp
	movl	PAverageQp, %eax
	movl	%eax, PAveFrameQP
	movl	PreviousQp2, %eax
	movl	%eax, PreviousQp1
	movl	MyInitialQp, %eax
	subl	$1, %eax
	movl	%eax, PreviousQp2
.LBB17_27:                              # %if.end83
	movq	img, %rax
	movl	$0, 72572(%rax)
	movq	img, %rax
	movl	$0, 72576(%rax)
	movl	$0, NumberofBFrames
	cmpl	$1857118496, -24(%rbp)  # imm = 0x6EB16120
	jne	.LBB17_29
.LBB17_28:
	addq	$32, %rsp
	popq	%rbp
	.cfi_def_cfa %rsp, 8
	retq
.LBB17_29:                              # %func_exit
	.cfi_def_cfa %rbp, 16
	callq	detect_breach
	jmp	.LBB17_28
.Lfunc_end17:
	.size	rc_init_GOP.1, .Lfunc_end17-rc_init_GOP.1
	.cfi_endproc
                                        # -- End function
	.section	.rodata.cst8,"aM",@progbits,8
	.p2align	3               # -- Begin function updateRCModel.2
.LCPI18_0:
	.quad	4611686018427387904     # double 2
.LCPI18_1:
	.quad	4602678819172646912     # double 0.5
.LCPI18_2:
	.quad	4607182418800017408     # double 1
.LCPI18_3:
	.quad	4626322717216342016     # double 20
	.section	.rodata.cst16,"aM",@progbits,16
	.p2align	4
.LCPI18_4:
	.quad	9223372036854775807     # double NaN
	.quad	9223372036854775807     # double NaN
	.text
	.globl	updateRCModel.2
	.p2align	4, 0x90
	.type	updateRCModel.2,@function
updateRCModel.2:                        # @updateRCModel.2
	.cfi_startproc
# %bb.0:                                # %entry
	pushq	%rbp
	.cfi_def_cfa_offset 16
	.cfi_offset %rbp, -16
	movq	%rsp, %rbp
	.cfi_def_cfa_register %rbp
	subq	$208, %rsp
	movl	$876768753, -28(%rbp)   # imm = 0x34426DF1
	vxorps	%xmm0, %xmm0, %xmm0
	vmovsd	%xmm0, -24(%rbp)
	movl	$0, -16(%rbp)
	movq	img, %rax
	cmpl	$0, 24(%rax)
	jne	.LBB18_68
# %bb.1:                                # %if.then
	movq	img, %rax
	movl	72620(%rax), %eax
	movq	img, %rcx
	cmpl	72608(%rcx), %eax
	jne	.LBB18_3
# %bb.2:                                # %if.then2
	callq	ComputeFrameMAD
	vmovsd	%xmm0, CurrentFrameMAD
	movq	img, %rax
	movl	72564(%rax), %eax
	movl	%eax, -12(%rbp)
	jmp	.LBB18_21
.LBB18_3:                               # %if.else
	movq	input, %rax
	cmpl	$0, 2884(%rax)
	je	.LBB18_6
# %bb.4:                                # %land.lhs.true
	movq	img, %rax
	cmpl	$0, 72600(%rax)
	jne	.LBB18_6
# %bb.5:                                # %if.then4
	vmovsd	.LCPI18_0(%rip), %xmm0  # xmm0 = mem[0],zero
	movq	img, %rax
	vmovsd	72544(%rax), %xmm1      # xmm1 = mem[0],zero
	movq	img, %rax
	vcvtsi2sdl	72620(%rax), %xmm0, %xmm2
	vdivsd	%xmm2, %xmm1, %xmm1
	vdivsd	%xmm0, %xmm1, %xmm0
	vmovsd	%xmm0, CurrentFrameMAD
	jmp	.LBB18_7
.LBB18_6:                               # %if.else7
	movq	img, %rax
	vmovsd	72544(%rax), %xmm0      # xmm0 = mem[0],zero
	movq	img, %rax
	vcvtsi2sdl	72620(%rax), %xmm0, %xmm1
	vdivsd	%xmm1, %xmm0, %xmm0
	vmovsd	%xmm0, CurrentFrameMAD
.LBB18_7:                               # %if.end
	movq	img, %rax
	vxorps	%xmm0, %xmm0, %xmm0
	vmovsd	%xmm0, 72544(%rax)
	movl	TotalNumberofBasicUnit, %eax
	subl	NumberofBasicUnit, %eax
	movl	%eax, CodedBasicUnit
	cmpl	$0, CodedBasicUnit
	jle	.LBB18_12
# %bb.8:                                # %if.then15
	vmovsd	.LCPI18_1(%rip), %xmm0  # xmm0 = mem[0],zero
	vmovsd	.LCPI18_2(%rip), %xmm1  # xmm1 = mem[0],zero
	movl	PAveHeaderBits1, %eax
	movl	CodedBasicUnit, %ecx
	subl	$1, %ecx
	imull	%ecx, %eax
	movq	img, %rcx
	addl	72532(%rcx), %eax
	vcvtsi2sd	%eax, %xmm0, %xmm2
	vmulsd	%xmm2, %xmm1, %xmm1
	vcvtsi2sdl	CodedBasicUnit, %xmm0, %xmm2
	vdivsd	%xmm2, %xmm1, %xmm1
	vaddsd	%xmm0, %xmm1, %xmm0
	vcvttsd2si	%xmm0, %eax
	movl	%eax, PAveHeaderBits1
	cmpl	$0, PAveHeaderBits3
	jne	.LBB18_10
# %bb.9:                                # %if.then25
	movl	PAveHeaderBits1, %eax
	movl	%eax, PAveHeaderBits2
	jmp	.LBB18_11
.LBB18_10:                              # %if.else26
	vmovsd	.LCPI18_1(%rip), %xmm0  # xmm0 = mem[0],zero
	vmovsd	.LCPI18_2(%rip), %xmm1  # xmm1 = mem[0],zero
	movl	PAveHeaderBits1, %eax
	imull	CodedBasicUnit, %eax
	movl	PAveHeaderBits3, %ecx
	imull	NumberofBasicUnit, %ecx
	addl	%ecx, %eax
	vcvtsi2sd	%eax, %xmm0, %xmm2
	vmulsd	%xmm2, %xmm1, %xmm1
	vcvtsi2sdl	TotalNumberofBasicUnit, %xmm0, %xmm2
	vdivsd	%xmm2, %xmm1, %xmm1
	vaddsd	%xmm0, %xmm1, %xmm0
	vcvttsd2si	%xmm0, %eax
	movl	%eax, PAveHeaderBits2
.LBB18_11:                              # %if.end36
	jmp	.LBB18_12
.LBB18_12:                              # %if.end37
	movq	input, %rax
	cmpl	$2, 2880(%rax)
	je	.LBB18_14
# %bb.13:                               # %lor.lhs.false
	movq	input, %rax
	cmpl	$0, 2884(%rax)
	je	.LBB18_16
.LBB18_14:                              # %land.lhs.true42
	movq	img, %rax
	cmpl	$1, 72600(%rax)
	jne	.LBB18_16
# %bb.15:                               # %if.then46
	vmovsd	CurrentFrameMAD, %xmm0  # xmm0 = mem[0],zero
	movq	FCBUCFMAD, %rax
	movl	TotalNumberofBasicUnit, %ecx
	subl	$1, %ecx
	subl	NumberofBasicUnit, %ecx
	movslq	%ecx, %rcx
	vmovsd	%xmm0, (%rax,%rcx,8)
	jmp	.LBB18_17
.LBB18_16:                              # %if.else49
	vmovsd	CurrentFrameMAD, %xmm0  # xmm0 = mem[0],zero
	movq	BUCFMAD, %rax
	movl	TotalNumberofBasicUnit, %ecx
	subl	$1, %ecx
	subl	NumberofBasicUnit, %ecx
	movslq	%ecx, %rcx
	vmovsd	%xmm0, (%rax,%rcx,8)
.LBB18_17:                              # %if.end54
	cmpl	$0, NumberofBasicUnit
	je	.LBB18_19
# %bb.18:                               # %if.then57
	movq	img, %rax
	movl	72564(%rax), %eax
	imull	TotalNumberofBasicUnit, %eax
	addl	CodedBasicUnit, %eax
	movl	%eax, -12(%rbp)
	jmp	.LBB18_20
.LBB18_19:                              # %if.else61
	movq	img, %rax
	movl	72564(%rax), %eax
	subl	$1, %eax
	imull	TotalNumberofBasicUnit, %eax
	addl	CodedBasicUnit, %eax
	movl	%eax, -12(%rbp)
.LBB18_20:                              # %if.end66
	jmp	.LBB18_21
.LBB18_21:                              # %if.end67
	cmpl	$1, -12(%rbp)
	jle	.LBB18_23
# %bb.22:                               # %if.then70
	movl	$1, -16(%rbp)
.LBB18_23:                              # %if.end71
	movq	img, %rax
	movl	72524(%rax), %eax
	movl	%eax, PPreHeader
	movl	$19, -4(%rbp)
.LBB18_24:                              # %for.cond
                                        # =>This Inner Loop Header: Depth=1
	cmpl	$0, -4(%rbp)
	jle	.LBB18_27
# %bb.25:                               # %for.body
                                        #   in Loop: Header=BB18_24 Depth=1
	movl	-4(%rbp), %eax
	subl	$1, %eax
	cltq
	vmovsd	Pm_rgQp(,%rax,8), %xmm0 # xmm0 = mem[0],zero
	movslq	-4(%rbp), %rax
	vmovsd	%xmm0, Pm_rgQp(,%rax,8)
	movslq	-4(%rbp), %rax
	vmovsd	Pm_rgQp(,%rax,8), %xmm0 # xmm0 = mem[0],zero
	movslq	-4(%rbp), %rax
	vmovsd	%xmm0, m_rgQp(,%rax,8)
	movl	-4(%rbp), %eax
	subl	$1, %eax
	cltq
	vmovsd	Pm_rgRp(,%rax,8), %xmm0 # xmm0 = mem[0],zero
	movslq	-4(%rbp), %rax
	vmovsd	%xmm0, Pm_rgRp(,%rax,8)
	movslq	-4(%rbp), %rax
	vmovsd	Pm_rgRp(,%rax,8), %xmm0 # xmm0 = mem[0],zero
	movslq	-4(%rbp), %rax
	vmovsd	%xmm0, m_rgRp(,%rax,8)
# %bb.26:                               # %for.inc
                                        #   in Loop: Header=BB18_24 Depth=1
	movl	-4(%rbp), %eax
	addl	$-1, %eax
	movl	%eax, -4(%rbp)
	jmp	.LBB18_24
.LBB18_27:                              # %for.end
	movl	m_Qc, %edi
	callq	QP2Qstep
	vmovsd	%xmm0, Pm_rgQp
	movq	img, %rax
	movl	72620(%rax), %eax
	movq	img, %rcx
	cmpl	72608(%rcx), %eax
	jne	.LBB18_29
# %bb.28:                               # %if.then97
	vmovsd	.LCPI18_2(%rip), %xmm0  # xmm0 = mem[0],zero
	movq	img, %rax
	vcvtsi2sdl	72528(%rax), %xmm0, %xmm1
	vmulsd	%xmm0, %xmm1, %xmm0
	vdivsd	CurrentFrameMAD, %xmm0, %xmm0
	vmovsd	%xmm0, Pm_rgRp
	jmp	.LBB18_30
.LBB18_29:                              # %if.else101
	vmovsd	.LCPI18_2(%rip), %xmm0  # xmm0 = mem[0],zero
	movq	img, %rax
	vcvtsi2sdl	72536(%rax), %xmm0, %xmm1
	vmulsd	%xmm0, %xmm1, %xmm0
	vdivsd	CurrentFrameMAD, %xmm0, %xmm0
	vmovsd	%xmm0, Pm_rgRp
.LBB18_30:                              # %if.end105
	vmovsd	Pm_rgQp, %xmm0          # xmm0 = mem[0],zero
	vmovsd	%xmm0, m_rgQp
	vmovsd	Pm_rgRp, %xmm0          # xmm0 = mem[0],zero
	vmovsd	%xmm0, m_rgRp
	vmovsd	Pm_X1, %xmm0            # xmm0 = mem[0],zero
	vmovsd	%xmm0, m_X1
	vmovsd	Pm_X2, %xmm0            # xmm0 = mem[0],zero
	vmovsd	%xmm0, m_X2
	vmovsd	CurrentFrameMAD, %xmm0  # xmm0 = mem[0],zero
	vucomisd	PreviousFrameMAD, %xmm0
	jbe	.LBB18_32
# %bb.31:                               # %cond.true
	vmovsd	.LCPI18_3(%rip), %xmm0  # xmm0 = mem[0],zero
	vmovsd	PreviousFrameMAD, %xmm1 # xmm1 = mem[0],zero
	vdivsd	CurrentFrameMAD, %xmm1, %xmm1
	vmulsd	%xmm0, %xmm1, %xmm0
	vcvttsd2si	%xmm0, %eax
	jmp	.LBB18_33
.LBB18_32:                              # %cond.false
	vmovsd	.LCPI18_3(%rip), %xmm0  # xmm0 = mem[0],zero
	vmovsd	CurrentFrameMAD, %xmm1  # xmm1 = mem[0],zero
	vdivsd	PreviousFrameMAD, %xmm1, %xmm1
	vmulsd	%xmm0, %xmm1, %xmm0
	vcvttsd2si	%xmm0, %eax
.LBB18_33:                              # %cond.end
	movl	%eax, -8(%rbp)
	cmpl	$1, -8(%rbp)
	jge	.LBB18_35
# %bb.34:                               # %cond.true116
	movl	$1, %eax
	jmp	.LBB18_36
.LBB18_35:                              # %cond.false117
	movl	-8(%rbp), %eax
.LBB18_36:                              # %cond.end118
	movl	%eax, -8(%rbp)
	movl	-8(%rbp), %eax
	cmpl	-12(%rbp), %eax
	jge	.LBB18_38
# %bb.37:                               # %cond.true122
	movl	-8(%rbp), %eax
	jmp	.LBB18_39
.LBB18_38:                              # %cond.false123
	movl	-12(%rbp), %eax
.LBB18_39:                              # %cond.end124
	movl	%eax, -8(%rbp)
	movl	-8(%rbp), %eax
	movl	m_windowSize, %ecx
	addl	$1, %ecx
	cmpl	%ecx, %eax
	jge	.LBB18_41
# %bb.40:                               # %cond.true129
	movl	-8(%rbp), %eax
	jmp	.LBB18_42
.LBB18_41:                              # %cond.false130
	movl	m_windowSize, %eax
	addl	$1, %eax
.LBB18_42:                              # %cond.end132
	movl	%eax, -8(%rbp)
	cmpl	$20, -8(%rbp)
	jge	.LBB18_44
# %bb.43:                               # %cond.true136
	movl	-8(%rbp), %eax
	jmp	.LBB18_45
.LBB18_44:                              # %cond.false137
	movl	$20, %eax
	jmp	.LBB18_45
.LBB18_45:                              # %cond.end138
	movl	%eax, -8(%rbp)
	movl	-8(%rbp), %eax
	movl	%eax, m_windowSize
	movl	$0, -4(%rbp)
.LBB18_46:                              # %for.cond140
                                        # =>This Inner Loop Header: Depth=1
	cmpl	$20, -4(%rbp)
	jge	.LBB18_49
# %bb.47:                               # %for.body143
                                        #   in Loop: Header=BB18_46 Depth=1
	movslq	-4(%rbp), %rax
	movl	$0, m_rgRejected(,%rax,4)
# %bb.48:                               # %for.inc146
                                        #   in Loop: Header=BB18_46 Depth=1
	movl	-4(%rbp), %eax
	addl	$1, %eax
	movl	%eax, -4(%rbp)
	jmp	.LBB18_46
.LBB18_49:                              # %for.end147
	movl	-8(%rbp), %edi
	callq	RCModelEstimator
	movl	m_windowSize, %eax
	movl	%eax, -8(%rbp)
	movl	$0, -4(%rbp)
.LBB18_50:                              # %for.cond148
                                        # =>This Inner Loop Header: Depth=1
	movl	-4(%rbp), %eax
	cmpl	-8(%rbp), %eax
	jge	.LBB18_53
# %bb.51:                               # %for.body151
                                        #   in Loop: Header=BB18_50 Depth=1
	vmovsd	m_X1, %xmm0             # xmm0 = mem[0],zero
	movslq	-4(%rbp), %rax
	vdivsd	m_rgQp(,%rax,8), %xmm0, %xmm0
	vmovsd	m_X2, %xmm1             # xmm1 = mem[0],zero
	movslq	-4(%rbp), %rax
	vmovsd	m_rgQp(,%rax,8), %xmm2  # xmm2 = mem[0],zero
	movslq	-4(%rbp), %rax
	vmulsd	m_rgQp(,%rax,8), %xmm2, %xmm2
	vdivsd	%xmm2, %xmm1, %xmm1
	vaddsd	%xmm1, %xmm0, %xmm0
	movslq	-4(%rbp), %rax
	vsubsd	m_rgRp(,%rax,8), %xmm0, %xmm0
	movslq	-4(%rbp), %rax
	vmovsd	%xmm0, -208(%rbp,%rax,8)
	movslq	-4(%rbp), %rax
	vmovsd	-208(%rbp,%rax,8), %xmm0 # xmm0 = mem[0],zero
	movslq	-4(%rbp), %rax
	vmulsd	-208(%rbp,%rax,8), %xmm0, %xmm0
	vaddsd	-24(%rbp), %xmm0, %xmm0
	vmovsd	%xmm0, -24(%rbp)
# %bb.52:                               # %for.inc173
                                        #   in Loop: Header=BB18_50 Depth=1
	movl	-4(%rbp), %eax
	addl	$1, %eax
	movl	%eax, -4(%rbp)
	jmp	.LBB18_50
.LBB18_53:                              # %for.end175
	cmpl	$2, -8(%rbp)
	jne	.LBB18_55
# %bb.54:                               # %cond.true178
	vxorps	%xmm0, %xmm0, %xmm0
	jmp	.LBB18_56
.LBB18_55:                              # %cond.false179
	vmovsd	-24(%rbp), %xmm0        # xmm0 = mem[0],zero
	vcvtsi2sdl	-8(%rbp), %xmm0, %xmm1
	vdivsd	%xmm1, %xmm0, %xmm0
	callq	sqrt
.LBB18_56:                              # %cond.end183
	vmovsd	%xmm0, -40(%rbp)
	movl	$0, -4(%rbp)
.LBB18_57:                              # %for.cond185
                                        # =>This Inner Loop Header: Depth=1
	movl	-4(%rbp), %eax
	cmpl	-8(%rbp), %eax
	jge	.LBB18_62
# %bb.58:                               # %for.body188
                                        #   in Loop: Header=BB18_57 Depth=1
	movslq	-4(%rbp), %rax
	vmovsd	-208(%rbp,%rax,8), %xmm0 # xmm0 = mem[0],zero
	vmovdqa	.LCPI18_4(%rip), %xmm1  # xmm1 = [NaN,NaN]
	vpand	%xmm1, %xmm0, %xmm0
	vucomisd	-40(%rbp), %xmm0
	jbe	.LBB18_60
# %bb.59:                               # %if.then193
                                        #   in Loop: Header=BB18_57 Depth=1
	movslq	-4(%rbp), %rax
	movl	$1, m_rgRejected(,%rax,4)
.LBB18_60:                              # %if.end196
                                        #   in Loop: Header=BB18_57 Depth=1
	jmp	.LBB18_61
.LBB18_61:                              # %for.inc197
                                        #   in Loop: Header=BB18_57 Depth=1
	movl	-4(%rbp), %eax
	addl	$1, %eax
	movl	%eax, -4(%rbp)
	jmp	.LBB18_57
.LBB18_62:                              # %for.end199
	movl	$0, m_rgRejected
	movl	-8(%rbp), %edi
	callq	RCModelEstimator
	cmpl	$0, -16(%rbp)
	je	.LBB18_64
# %bb.63:                               # %if.then201
	callq	updateMADModel
	jmp	.LBB18_67
.LBB18_64:                              # %if.else202
	movq	img, %rax
	cmpl	$0, 24(%rax)
	jne	.LBB18_66
# %bb.65:                               # %if.then206
	vmovsd	CurrentFrameMAD, %xmm0  # xmm0 = mem[0],zero
	vmovsd	%xmm0, PPictureMAD
.LBB18_66:                              # %if.end207
	jmp	.LBB18_67
.LBB18_67:                              # %if.end208
	jmp	.LBB18_68
.LBB18_68:                              # %if.end209
	cmpl	$876768753, -28(%rbp)   # imm = 0x34426DF1
	jne	.LBB18_70
.LBB18_69:
	addq	$208, %rsp
	popq	%rbp
	.cfi_def_cfa %rsp, 8
	retq
.LBB18_70:                              # %func_exit
	.cfi_def_cfa %rbp, 16
	callq	detect_breach
	jmp	.LBB18_69
.Lfunc_end18:
	.size	updateRCModel.2, .Lfunc_end18-updateRCModel.2
	.cfi_endproc
                                        # -- End function
	.section	.rodata.cst8,"aM",@progbits,8
	.p2align	3               # -- Begin function updateQuantizationParameter.3
.LCPI19_0:
	.quad	4616189618054758400     # double 4
.LCPI19_1:
	.quad	4611686018427387904     # double 2
.LCPI19_2:
	.quad	4602678819172646912     # double 0.5
.LCPI19_3:
	.quad	4607182418800017408     # double 1
	.text
	.globl	updateQuantizationParameter.3
	.p2align	4, 0x90
	.type	updateQuantizationParameter.3,@function
updateQuantizationParameter.3:          # @updateQuantizationParameter.3
	.cfi_startproc
# %bb.0:                                # %entry
	pushq	%rbp
	.cfi_def_cfa_offset 16
	.cfi_offset %rbp, -16
	movq	%rsp, %rbp
	.cfi_def_cfa_register %rbp
	pushq	%rbx
	subq	$72, %rsp
	.cfi_offset %rbx, -24
	movl	$143072048, -56(%rbp)   # imm = 0x8871B30
	movl	%edi, -36(%rbp)
	movq	img, %rax
	movl	72620(%rax), %eax
	movq	img, %rcx
	cmpl	72608(%rcx), %eax
	jne	.LBB19_123
# %bb.1:                                # %if.then
	cmpl	$0, -36(%rbp)
	jne	.LBB19_3
# %bb.2:                                # %lor.lhs.false
	movq	img, %rax
	cmpl	$0, 72600(%rax)
	jne	.LBB19_116
.LBB19_3:                               # %if.then2
	movq	img, %rax
	cmpl	$2, 24(%rax)
	jne	.LBB19_5
# %bb.4:                                # %if.then4
	movl	MyInitialQp, %eax
	movl	%eax, m_Qc
	movl	m_Qc, %eax
	movl	%eax, -20(%rbp)
	jmp	.LBB19_363
.LBB19_5:                               # %if.else
	movq	img, %rax
	cmpl	$1, 24(%rax)
	jne	.LBB19_69
# %bb.6:                                # %if.then7
	movq	input, %rax
	cmpl	$1, 1236(%rax)
	jne	.LBB19_25
# %bb.7:                                # %if.then9
	movq	input, %rax
	cmpl	$2, 2880(%rax)
	je	.LBB19_9
# %bb.8:                                # %lor.lhs.false11
	movq	input, %rax
	cmpl	$0, 2884(%rax)
	je	.LBB19_15
.LBB19_9:                               # %if.then13
	movq	img, %rax
	cmpl	$0, 72600(%rax)
	jne	.LBB19_14
# %bb.10:                               # %if.then16
	movq	img, %rax
	cmpl	$1, 72604(%rax)
	jne	.LBB19_12
# %bb.11:                               # %if.then18
	movl	PreviousQp2, %eax
	movl	%eax, PreviousQp1
	movl	FrameQPBuffer, %eax
	movl	%eax, PreviousQp2
	jmp	.LBB19_13
.LBB19_12:                              # %if.else19
	movl	PreviousQp2, %eax
	movl	%eax, PreviousQp1
	movl	FieldQPBuffer, %eax
	movl	%eax, PreviousQp2
.LBB19_13:                              # %if.end
	jmp	.LBB19_14
.LBB19_14:                              # %if.end20
	jmp	.LBB19_15
.LBB19_15:                              # %if.end21
	movl	PreviousQp1, %eax
	cmpl	PreviousQp2, %eax
	jne	.LBB19_17
# %bb.16:                               # %if.then23
	movl	PreviousQp1, %eax
	addl	$2, %eax
	movl	%eax, m_Qc
	jmp	.LBB19_18
.LBB19_17:                              # %if.else24
	movl	PreviousQp1, %eax
	addl	PreviousQp2, %eax
	cltd
	movl	$2, %ecx
	idivl	%ecx
	addl	$1, %eax
	movl	%eax, m_Qc
.LBB19_18:                              # %if.end27
	movl	m_Qc, %eax
	cmpl	RC_MAX_QUANT, %eax
	jge	.LBB19_20
# %bb.19:                               # %cond.true
	movl	m_Qc, %eax
	jmp	.LBB19_21
.LBB19_20:                              # %cond.false
	movl	RC_MAX_QUANT, %eax
.LBB19_21:                              # %cond.end
	movl	%eax, m_Qc
	movl	RC_MIN_QUANT, %eax
	cmpl	m_Qc, %eax
	jge	.LBB19_23
# %bb.22:                               # %cond.true30
	movl	m_Qc, %eax
	jmp	.LBB19_24
.LBB19_23:                              # %cond.false31
	movl	RC_MIN_QUANT, %eax
.LBB19_24:                              # %cond.end32
	movl	%eax, m_Qc
	jmp	.LBB19_68
.LBB19_25:                              # %if.else34
	movl	NumberofBFrames, %eax
	addl	$1, %eax
	movq	input, %rcx
	cltd
	idivl	1236(%rcx)
	movl	%edx, -12(%rbp)
	cmpl	$0, -12(%rbp)
	jne	.LBB19_27
# %bb.26:                               # %if.then38
	movq	input, %rax
	movl	1236(%rax), %eax
	movl	%eax, -12(%rbp)
.LBB19_27:                              # %if.end40
	cmpl	$1, -12(%rbp)
	jne	.LBB19_37
# %bb.28:                               # %if.then42
	movq	input, %rax
	cmpl	$2, 2880(%rax)
	je	.LBB19_30
# %bb.29:                               # %lor.lhs.false45
	movq	input, %rax
	cmpl	$0, 2884(%rax)
	je	.LBB19_36
.LBB19_30:                              # %if.then48
	movq	img, %rax
	cmpl	$0, 72600(%rax)
	jne	.LBB19_35
# %bb.31:                               # %if.then51
	movq	img, %rax
	cmpl	$1, 72604(%rax)
	jne	.LBB19_33
# %bb.32:                               # %if.then54
	movl	PreviousQp2, %eax
	movl	%eax, PreviousQp1
	movl	FrameQPBuffer, %eax
	movl	%eax, PreviousQp2
	jmp	.LBB19_34
.LBB19_33:                              # %if.else55
	movl	PreviousQp2, %eax
	movl	%eax, PreviousQp1
	movl	FieldQPBuffer, %eax
	movl	%eax, PreviousQp2
.LBB19_34:                              # %if.end56
	jmp	.LBB19_35
.LBB19_35:                              # %if.end57
	jmp	.LBB19_36
.LBB19_36:                              # %if.end58
	jmp	.LBB19_37
.LBB19_37:                              # %if.end59
	movl	PreviousQp2, %eax
	subl	PreviousQp1, %eax
	movq	input, %rcx
	imull	$4294967294, 1236(%rcx), %ecx # imm = 0xFFFFFFFE
	subl	$3, %ecx
	cmpl	%ecx, %eax
	jg	.LBB19_39
# %bb.38:                               # %if.then63
	movl	$-3, -24(%rbp)
	jmp	.LBB19_52
.LBB19_39:                              # %if.else64
	movl	PreviousQp2, %eax
	subl	PreviousQp1, %eax
	movq	input, %rcx
	imull	$4294967294, 1236(%rcx), %ecx # imm = 0xFFFFFFFE
	subl	$2, %ecx
	cmpl	%ecx, %eax
	jne	.LBB19_41
# %bb.40:                               # %if.then70
	movl	$-2, -24(%rbp)
	jmp	.LBB19_51
.LBB19_41:                              # %if.else71
	movl	PreviousQp2, %eax
	subl	PreviousQp1, %eax
	movq	input, %rcx
	imull	$4294967294, 1236(%rcx), %ecx # imm = 0xFFFFFFFE
	subl	$1, %ecx
	cmpl	%ecx, %eax
	jne	.LBB19_43
# %bb.42:                               # %if.then77
	movl	$-1, -24(%rbp)
	jmp	.LBB19_50
.LBB19_43:                              # %if.else78
	movl	PreviousQp2, %eax
	subl	PreviousQp1, %eax
	movq	input, %rcx
	imull	$4294967294, 1236(%rcx), %ecx # imm = 0xFFFFFFFE
	cmpl	%ecx, %eax
	jne	.LBB19_45
# %bb.44:                               # %if.then83
	movl	$0, -24(%rbp)
	jmp	.LBB19_49
.LBB19_45:                              # %if.else84
	movl	PreviousQp2, %eax
	subl	PreviousQp1, %eax
	movq	input, %rcx
	imull	$4294967294, 1236(%rcx), %ecx # imm = 0xFFFFFFFE
	addl	$1, %ecx
	cmpl	%ecx, %eax
	jne	.LBB19_47
# %bb.46:                               # %if.then90
	movl	$1, -24(%rbp)
	jmp	.LBB19_48
.LBB19_47:                              # %if.else91
	movl	$2, -24(%rbp)
.LBB19_48:                              # %if.end92
	jmp	.LBB19_49
.LBB19_49:                              # %if.end93
	jmp	.LBB19_50
.LBB19_50:                              # %if.end94
	jmp	.LBB19_51
.LBB19_51:                              # %if.end95
	jmp	.LBB19_52
.LBB19_52:                              # %if.end96
	movl	PreviousQp1, %eax
	addl	-24(%rbp), %eax
	movl	%eax, m_Qc
	movl	-12(%rbp), %ecx
	subl	$1, %ecx
	shll	$1, %ecx
	movl	-12(%rbp), %eax
	subl	$1, %eax
	imull	$4294967294, %eax, %esi # imm = 0xFFFFFFFE
	movl	-12(%rbp), %eax
	subl	$1, %eax
	movl	PreviousQp2, %edx
	subl	PreviousQp1, %edx
	imull	%edx, %eax
	movq	input, %rdx
	movl	1236(%rdx), %edi
	subl	$1, %edi
	cltd
	idivl	%edi
	cmpl	%eax, %esi
	jge	.LBB19_54
# %bb.53:                               # %cond.true109
	movl	-12(%rbp), %eax
	subl	$1, %eax
	movl	PreviousQp2, %edx
	subl	PreviousQp1, %edx
	imull	%edx, %eax
	movq	input, %rdx
	movl	1236(%rdx), %esi
	subl	$1, %esi
	cltd
	idivl	%esi
	jmp	.LBB19_55
.LBB19_54:                              # %cond.false116
	movl	-12(%rbp), %eax
	subl	$1, %eax
	imull	$4294967294, %eax, %eax # imm = 0xFFFFFFFE
.LBB19_55:                              # %cond.end119
	cmpl	%eax, %ecx
	jge	.LBB19_57
# %bb.56:                               # %cond.true122
	movl	-12(%rbp), %eax
	subl	$1, %eax
	shll	$1, %eax
	jmp	.LBB19_61
.LBB19_57:                              # %cond.false125
	movl	-12(%rbp), %eax
	subl	$1, %eax
	imull	$4294967294, %eax, %ecx # imm = 0xFFFFFFFE
	movl	-12(%rbp), %eax
	subl	$1, %eax
	movl	PreviousQp2, %edx
	subl	PreviousQp1, %edx
	imull	%edx, %eax
	movq	input, %rdx
	movl	1236(%rdx), %esi
	subl	$1, %esi
	cltd
	idivl	%esi
	cmpl	%eax, %ecx
	jge	.LBB19_59
# %bb.58:                               # %cond.true135
	movl	-12(%rbp), %eax
	subl	$1, %eax
	movl	PreviousQp2, %ecx
	subl	PreviousQp1, %ecx
	imull	%ecx, %eax
	movq	input, %rcx
	movl	1236(%rcx), %ecx
	subl	$1, %ecx
	cltd
	idivl	%ecx
	jmp	.LBB19_60
.LBB19_59:                              # %cond.false142
	movl	-12(%rbp), %eax
	subl	$1, %eax
	imull	$4294967294, %eax, %eax # imm = 0xFFFFFFFE
.LBB19_60:                              # %cond.end145
.LBB19_61:                              # %cond.end147
	addl	m_Qc, %eax
	movl	%eax, m_Qc
	movl	m_Qc, %eax
	cmpl	RC_MAX_QUANT, %eax
	jge	.LBB19_63
# %bb.62:                               # %cond.true151
	movl	m_Qc, %eax
	jmp	.LBB19_64
.LBB19_63:                              # %cond.false152
	movl	RC_MAX_QUANT, %eax
.LBB19_64:                              # %cond.end153
	movl	%eax, m_Qc
	movl	RC_MIN_QUANT, %eax
	cmpl	m_Qc, %eax
	jge	.LBB19_66
# %bb.65:                               # %cond.true156
	movl	m_Qc, %eax
	jmp	.LBB19_67
.LBB19_66:                              # %cond.false157
	movl	RC_MIN_QUANT, %eax
.LBB19_67:                              # %cond.end158
	movl	%eax, m_Qc
.LBB19_68:                              # %if.end160
	movl	m_Qc, %eax
	movl	%eax, -20(%rbp)
	jmp	.LBB19_363
.LBB19_69:                              # %if.else161
	movq	img, %rax
	cmpl	$0, 24(%rax)
	jne	.LBB19_77
# %bb.70:                               # %land.lhs.true
	movq	img, %rax
	cmpl	$0, 72576(%rax)
	jne	.LBB19_77
# %bb.71:                               # %if.then165
	movl	MyInitialQp, %eax
	movl	%eax, m_Qc
	movq	img, %rax
	cmpl	$0, 72600(%rax)
	jne	.LBB19_76
# %bb.72:                               # %if.then168
	movq	active_sps, %rax
	cmpl	$0, 1148(%rax)
	je	.LBB19_74
# %bb.73:                               # %if.then170
	movl	m_Qc, %eax
	movq	img, %rcx
	addl	72572(%rcx), %eax
	movl	%eax, 72572(%rcx)
	movl	PreviousQp2, %eax
	movl	%eax, PreviousQp1
	movl	m_Qc, %eax
	movl	%eax, PreviousQp2
	movl	m_Qc, %eax
	movl	%eax, Pm_Qp
	jmp	.LBB19_75
.LBB19_74:                              # %if.else172
	movl	m_Qc, %eax
	movl	%eax, FrameQPBuffer
.LBB19_75:                              # %if.end173
	jmp	.LBB19_76
.LBB19_76:                              # %if.end174
	movl	m_Qc, %eax
	movl	%eax, -20(%rbp)
	jmp	.LBB19_363
.LBB19_77:                              # %if.else175
	movq	input, %rax
	cmpl	$2, 2880(%rax)
	je	.LBB19_79
# %bb.78:                               # %lor.lhs.false178
	movq	input, %rax
	cmpl	$0, 2884(%rax)
	je	.LBB19_84
.LBB19_79:                              # %land.lhs.true181
	movq	img, %rax
	cmpl	$0, 72600(%rax)
	jne	.LBB19_84
# %bb.80:                               # %if.then184
	movq	img, %rax
	cmpl	$1, 72604(%rax)
	jne	.LBB19_82
# %bb.81:                               # %if.then187
	movl	FrameQPBuffer, %eax
	movq	img, %rcx
	addl	72572(%rcx), %eax
	movl	%eax, 72572(%rcx)
	movl	FrameQPBuffer, %eax
	movl	%eax, Pm_Qp
	jmp	.LBB19_83
.LBB19_82:                              # %if.else190
	movl	FieldQPBuffer, %eax
	movq	img, %rcx
	addl	72572(%rcx), %eax
	movl	%eax, 72572(%rcx)
	movl	FieldQPBuffer, %eax
	movl	%eax, Pm_Qp
.LBB19_83:                              # %if.end193
	jmp	.LBB19_84
.LBB19_84:                              # %if.end194
	vmovsd	Pm_X1, %xmm0            # xmm0 = mem[0],zero
	vmovsd	%xmm0, m_X1
	vmovsd	Pm_X2, %xmm0            # xmm0 = mem[0],zero
	vmovsd	%xmm0, m_X2
	movl	PPreHeader, %eax
	movl	%eax, m_Hp
	movl	Pm_Qp, %eax
	movl	%eax, m_Qp
	movl	PDuantQp, %eax
	movl	%eax, DuantQp
	vmovsd	PMADPictureC1, %xmm0    # xmm0 = mem[0],zero
	vmovsd	%xmm0, MADPictureC1
	vmovsd	PMADPictureC2, %xmm0    # xmm0 = mem[0],zero
	vmovsd	%xmm0, MADPictureC2
	vmovsd	PPictureMAD, %xmm0      # xmm0 = mem[0],zero
	vmovsd	%xmm0, PreviousPictureMAD
	vmovsd	MADPictureC1, %xmm0     # xmm0 = mem[0],zero
	vmulsd	PreviousPictureMAD, %xmm0, %xmm0
	vaddsd	MADPictureC2, %xmm0, %xmm0
	vmovsd	%xmm0, CurrentFrameMAD
	cmpq	$0, T
	jge	.LBB19_89
# %bb.85:                               # %if.then198
	movl	m_Qp, %eax
	addl	DuantQp, %eax
	movl	%eax, m_Qc
	movl	m_Qc, %eax
	cmpl	RC_MAX_QUANT, %eax
	jge	.LBB19_87
# %bb.86:                               # %cond.true201
	movl	m_Qc, %eax
	jmp	.LBB19_88
.LBB19_87:                              # %cond.false202
	movl	RC_MAX_QUANT, %eax
.LBB19_88:                              # %cond.end203
	movl	%eax, m_Qc
	jmp	.LBB19_110
.LBB19_89:                              # %if.else205
	movq	T, %rax
	movslq	m_Hp, %rcx
	subq	%rcx, %rax
	movl	%eax, -28(%rbp)
	movl	-28(%rbp), %eax
	vmovsd	bit_rate, %xmm0         # xmm0 = mem[0],zero
	vmovsd	MINVALUE, %xmm1         # xmm1 = mem[0],zero
	vmulsd	frame_rate, %xmm1, %xmm1
	vdivsd	%xmm1, %xmm0, %xmm0
	vcvttsd2si	%xmm0, %ecx
	cmpl	%ecx, %eax
	jge	.LBB19_91
# %bb.90:                               # %cond.true213
	vmovsd	bit_rate, %xmm0         # xmm0 = mem[0],zero
	vmovsd	MINVALUE, %xmm1         # xmm1 = mem[0],zero
	vmulsd	frame_rate, %xmm1, %xmm1
	vdivsd	%xmm1, %xmm0, %xmm0
	vcvttsd2si	%xmm0, %eax
	jmp	.LBB19_92
.LBB19_91:                              # %cond.false217
	movl	-28(%rbp), %eax
.LBB19_92:                              # %cond.end218
	vmovsd	.LCPI19_0(%rip), %xmm0  # xmm0 = mem[0],zero
	movl	%eax, -28(%rbp)
	vmovsd	CurrentFrameMAD, %xmm1  # xmm1 = mem[0],zero
	vmulsd	m_X1, %xmm1, %xmm1
	vmulsd	CurrentFrameMAD, %xmm1, %xmm1
	vmulsd	m_X1, %xmm1, %xmm1
	vmulsd	m_X2, %xmm0, %xmm0
	vmulsd	CurrentFrameMAD, %xmm0, %xmm0
	vcvtsi2sdl	-28(%rbp), %xmm0, %xmm2
	vmulsd	%xmm2, %xmm0, %xmm0
	vaddsd	%xmm0, %xmm1, %xmm0
	vmovsd	%xmm0, -48(%rbp)
	vmovsd	m_X2, %xmm0             # xmm0 = mem[0],zero
	vxorps	%xmm1, %xmm1, %xmm1
	vucomisd	%xmm1, %xmm0
	jne	.LBB19_93
	jp	.LBB19_93
	jmp	.LBB19_95
.LBB19_93:                              # %lor.lhs.false230
	vxorps	%xmm0, %xmm0, %xmm0
	vucomisd	-48(%rbp), %xmm0
	ja	.LBB19_95
# %bb.94:                               # %lor.lhs.false233
	vmovsd	-48(%rbp), %xmm0        # xmm0 = mem[0],zero
	callq	sqrt
	vmovsd	m_X1, %xmm1             # xmm1 = mem[0],zero
	vmulsd	CurrentFrameMAD, %xmm1, %xmm1
	vsubsd	%xmm1, %xmm0, %xmm0
	vxorps	%xmm1, %xmm1, %xmm1
	vucomisd	%xmm0, %xmm1
	jb	.LBB19_96
.LBB19_95:                              # %if.then238
	vmovsd	m_X1, %xmm0             # xmm0 = mem[0],zero
	vmulsd	CurrentFrameMAD, %xmm0, %xmm0
	vcvtsi2sdl	-28(%rbp), %xmm0, %xmm1
	vdivsd	%xmm1, %xmm0, %xmm0
	vcvtsd2ss	%xmm0, %xmm0, %xmm0
	vcvtss2sd	%xmm0, %xmm0, %xmm0
	vmovsd	%xmm0, m_Qstep
	jmp	.LBB19_97
.LBB19_96:                              # %if.else244
	vmovsd	.LCPI19_1(%rip), %xmm0  # xmm0 = mem[0],zero
	vmulsd	m_X2, %xmm0, %xmm0
	vmulsd	CurrentFrameMAD, %xmm0, %xmm0
	vmovsd	%xmm0, -64(%rbp)        # 8-byte Spill
	vmovsd	-48(%rbp), %xmm0        # xmm0 = mem[0],zero
	callq	sqrt
	vmovsd	m_X1, %xmm1             # xmm1 = mem[0],zero
	vmulsd	CurrentFrameMAD, %xmm1, %xmm1
	vsubsd	%xmm1, %xmm0, %xmm0
	vmovsd	-64(%rbp), %xmm1        # 8-byte Reload
                                        # xmm1 = mem[0],zero
	vdivsd	%xmm0, %xmm1, %xmm0
	vcvtsd2ss	%xmm0, %xmm0, %xmm0
	vcvtss2sd	%xmm0, %xmm0, %xmm0
	vmovsd	%xmm0, m_Qstep
.LBB19_97:                              # %if.end253
	vmovsd	m_Qstep, %xmm0          # xmm0 = mem[0],zero
	callq	Qstep2QP
	movl	%eax, m_Qc
	movl	m_Qp, %eax
	addl	DuantQp, %eax
	cmpl	m_Qc, %eax
	jge	.LBB19_99
# %bb.98:                               # %cond.true258
	movl	m_Qp, %eax
	addl	DuantQp, %eax
	jmp	.LBB19_100
.LBB19_99:                              # %cond.false260
	movl	m_Qc, %eax
.LBB19_100:                             # %cond.end261
	movl	%eax, m_Qc
	movl	m_Qc, %eax
	cmpl	RC_MAX_QUANT, %eax
	jge	.LBB19_102
# %bb.101:                              # %cond.true265
	movl	m_Qc, %eax
	jmp	.LBB19_103
.LBB19_102:                             # %cond.false266
	movl	RC_MAX_QUANT, %eax
.LBB19_103:                             # %cond.end267
	movl	%eax, m_Qc
	movl	m_Qp, %eax
	subl	DuantQp, %eax
	cmpl	m_Qc, %eax
	jge	.LBB19_105
# %bb.104:                              # %cond.true272
	movl	m_Qc, %eax
	jmp	.LBB19_106
.LBB19_105:                             # %cond.false273
	movl	m_Qp, %eax
	subl	DuantQp, %eax
.LBB19_106:                             # %cond.end275
	movl	%eax, m_Qc
	movl	RC_MIN_QUANT, %eax
	cmpl	m_Qc, %eax
	jge	.LBB19_108
# %bb.107:                              # %cond.true279
	movl	m_Qc, %eax
	jmp	.LBB19_109
.LBB19_108:                             # %cond.false280
	movl	RC_MIN_QUANT, %eax
.LBB19_109:                             # %cond.end281
	movl	%eax, m_Qc
.LBB19_110:                             # %if.end283
	movq	img, %rax
	cmpl	$0, 72600(%rax)
	jne	.LBB19_115
# %bb.111:                              # %if.then287
	movq	active_sps, %rax
	cmpl	$0, 1148(%rax)
	je	.LBB19_113
# %bb.112:                              # %if.then290
	movl	m_Qc, %eax
	movq	img, %rcx
	addl	72572(%rcx), %eax
	movl	%eax, 72572(%rcx)
	movl	PreviousQp2, %eax
	movl	%eax, PreviousQp1
	movl	m_Qc, %eax
	movl	%eax, PreviousQp2
	movl	m_Qc, %eax
	movl	%eax, Pm_Qp
	jmp	.LBB19_114
.LBB19_113:                             # %if.else293
	movl	m_Qc, %eax
	movl	%eax, FrameQPBuffer
.LBB19_114:                             # %if.end294
	jmp	.LBB19_115
.LBB19_115:                             # %if.end295
	movl	m_Qc, %eax
	movl	%eax, -20(%rbp)
	jmp	.LBB19_363
.LBB19_116:                             # %if.else296
	movq	img, %rax
	cmpl	$0, 24(%rax)
	jne	.LBB19_122
# %bb.117:                              # %land.lhs.true300
	movq	img, %rax
	cmpl	$0, 72612(%rax)
	jne	.LBB19_122
# %bb.118:                              # %if.then303
	movq	input, %rax
	cmpl	$1, 2880(%rax)
	jne	.LBB19_120
# %bb.119:                              # %if.then307
	movl	m_Qc, %eax
	movq	img, %rcx
	addl	72572(%rcx), %eax
	movl	%eax, 72572(%rcx)
	movl	PreviousQp2, %eax
	addl	$1, %eax
	movl	%eax, PreviousQp1
	movl	m_Qc, %eax
	movl	%eax, PreviousQp2
	movl	m_Qc, %eax
	movl	%eax, Pm_Qp
	jmp	.LBB19_121
.LBB19_120:                             # %if.else311
	movl	m_Qc, %eax
	movl	%eax, FieldQPBuffer
.LBB19_121:                             # %if.end312
	jmp	.LBB19_122
.LBB19_122:                             # %if.end313
	movl	m_Qc, %eax
	movl	%eax, -20(%rbp)
	jmp	.LBB19_363
.LBB19_123:                             # %if.else314
	movq	img, %rax
	cmpl	$2, 24(%rax)
	jne	.LBB19_125
# %bb.124:                              # %if.then318
	movl	MyInitialQp, %eax
	movl	%eax, m_Qc
	movl	m_Qc, %eax
	movl	%eax, -20(%rbp)
	jmp	.LBB19_363
.LBB19_125:                             # %if.else319
	movq	img, %rax
	cmpl	$0, 24(%rax)
	jne	.LBB19_129
# %bb.126:                              # %land.lhs.true323
	movq	img, %rax
	cmpl	$1, 72612(%rax)
	jne	.LBB19_129
# %bb.127:                              # %land.lhs.true327
	movq	img, %rax
	cmpl	$1, 72600(%rax)
	jne	.LBB19_129
# %bb.128:                              # %if.then331
	movl	MyInitialQp, %eax
	movl	%eax, m_Qc
	movl	m_Qc, %eax
	movl	%eax, -20(%rbp)
	jmp	.LBB19_363
.LBB19_129:                             # %if.else332
	movq	img, %rax
	cmpl	$1, 24(%rax)
	jne	.LBB19_196
# %bb.130:                              # %if.then336
	cmpl	$0, -36(%rbp)
	jne	.LBB19_132
# %bb.131:                              # %lor.lhs.false338
	movq	img, %rax
	cmpl	$0, 72600(%rax)
	jne	.LBB19_195
.LBB19_132:                             # %if.then342
	movq	input, %rax
	cmpl	$1, 1236(%rax)
	jne	.LBB19_151
# %bb.133:                              # %if.then346
	movq	input, %rax
	cmpl	$2, 2880(%rax)
	je	.LBB19_135
# %bb.134:                              # %lor.lhs.false350
	movq	input, %rax
	cmpl	$0, 2884(%rax)
	je	.LBB19_141
.LBB19_135:                             # %if.then353
	movq	img, %rax
	cmpl	$0, 72600(%rax)
	jne	.LBB19_140
# %bb.136:                              # %if.then357
	movq	img, %rax
	cmpl	$1, 72604(%rax)
	jne	.LBB19_138
# %bb.137:                              # %if.then361
	movl	PreviousQp2, %eax
	movl	%eax, PreviousQp1
	movl	FrameQPBuffer, %eax
	movl	%eax, PreviousQp2
	jmp	.LBB19_139
.LBB19_138:                             # %if.else362
	movl	PreviousQp2, %eax
	movl	%eax, PreviousQp1
	movl	FieldQPBuffer, %eax
	movl	%eax, PreviousQp2
.LBB19_139:                             # %if.end363
	jmp	.LBB19_140
.LBB19_140:                             # %if.end364
	jmp	.LBB19_141
.LBB19_141:                             # %if.end365
	movl	PreviousQp1, %eax
	cmpl	PreviousQp2, %eax
	jne	.LBB19_143
# %bb.142:                              # %if.then368
	movl	PreviousQp1, %eax
	addl	$2, %eax
	movl	%eax, m_Qc
	jmp	.LBB19_144
.LBB19_143:                             # %if.else370
	movl	PreviousQp1, %eax
	addl	PreviousQp2, %eax
	cltd
	movl	$2, %ecx
	idivl	%ecx
	addl	$1, %eax
	movl	%eax, m_Qc
.LBB19_144:                             # %if.end374
	movl	m_Qc, %eax
	cmpl	RC_MAX_QUANT, %eax
	jge	.LBB19_146
# %bb.145:                              # %cond.true377
	movl	m_Qc, %eax
	jmp	.LBB19_147
.LBB19_146:                             # %cond.false378
	movl	RC_MAX_QUANT, %eax
.LBB19_147:                             # %cond.end379
	movl	%eax, m_Qc
	movl	RC_MIN_QUANT, %eax
	cmpl	m_Qc, %eax
	jge	.LBB19_149
# %bb.148:                              # %cond.true383
	movl	m_Qc, %eax
	jmp	.LBB19_150
.LBB19_149:                             # %cond.false384
	movl	RC_MIN_QUANT, %eax
.LBB19_150:                             # %cond.end385
	movl	%eax, m_Qc
	jmp	.LBB19_194
.LBB19_151:                             # %if.else387
	movl	NumberofBFrames, %eax
	addl	$1, %eax
	movq	input, %rcx
	cltd
	idivl	1236(%rcx)
	movl	%edx, -12(%rbp)
	cmpl	$0, -12(%rbp)
	jne	.LBB19_153
# %bb.152:                              # %if.then393
	movq	input, %rax
	movl	1236(%rax), %eax
	movl	%eax, -12(%rbp)
.LBB19_153:                             # %if.end395
	cmpl	$1, -12(%rbp)
	jne	.LBB19_163
# %bb.154:                              # %if.then398
	movq	input, %rax
	cmpl	$2, 2880(%rax)
	je	.LBB19_156
# %bb.155:                              # %lor.lhs.false402
	movq	input, %rax
	cmpl	$0, 2884(%rax)
	je	.LBB19_162
.LBB19_156:                             # %if.then405
	movq	img, %rax
	cmpl	$0, 72600(%rax)
	jne	.LBB19_161
# %bb.157:                              # %if.then409
	movq	img, %rax
	cmpl	$1, 72604(%rax)
	jne	.LBB19_159
# %bb.158:                              # %if.then413
	movl	PreviousQp2, %eax
	movl	%eax, PreviousQp1
	movl	FrameQPBuffer, %eax
	movl	%eax, PreviousQp2
	jmp	.LBB19_160
.LBB19_159:                             # %if.else414
	movl	PreviousQp2, %eax
	movl	%eax, PreviousQp1
	movl	FieldQPBuffer, %eax
	movl	%eax, PreviousQp2
.LBB19_160:                             # %if.end415
	jmp	.LBB19_161
.LBB19_161:                             # %if.end416
	jmp	.LBB19_162
.LBB19_162:                             # %if.end417
	jmp	.LBB19_163
.LBB19_163:                             # %if.end418
	movl	PreviousQp2, %eax
	subl	PreviousQp1, %eax
	movq	input, %rcx
	imull	$4294967294, 1236(%rcx), %ecx # imm = 0xFFFFFFFE
	subl	$3, %ecx
	cmpl	%ecx, %eax
	jg	.LBB19_165
# %bb.164:                              # %if.then425
	movl	$-3, -24(%rbp)
	jmp	.LBB19_178
.LBB19_165:                             # %if.else426
	movl	PreviousQp2, %eax
	subl	PreviousQp1, %eax
	movq	input, %rcx
	imull	$4294967294, 1236(%rcx), %ecx # imm = 0xFFFFFFFE
	subl	$2, %ecx
	cmpl	%ecx, %eax
	jne	.LBB19_167
# %bb.166:                              # %if.then433
	movl	$-2, -24(%rbp)
	jmp	.LBB19_177
.LBB19_167:                             # %if.else434
	movl	PreviousQp2, %eax
	subl	PreviousQp1, %eax
	movq	input, %rcx
	imull	$4294967294, 1236(%rcx), %ecx # imm = 0xFFFFFFFE
	subl	$1, %ecx
	cmpl	%ecx, %eax
	jne	.LBB19_169
# %bb.168:                              # %if.then441
	movl	$-1, -24(%rbp)
	jmp	.LBB19_176
.LBB19_169:                             # %if.else442
	movl	PreviousQp2, %eax
	subl	PreviousQp1, %eax
	movq	input, %rcx
	imull	$4294967294, 1236(%rcx), %ecx # imm = 0xFFFFFFFE
	cmpl	%ecx, %eax
	jne	.LBB19_171
# %bb.170:                              # %if.then448
	movl	$0, -24(%rbp)
	jmp	.LBB19_175
.LBB19_171:                             # %if.else449
	movl	PreviousQp2, %eax
	subl	PreviousQp1, %eax
	movq	input, %rcx
	imull	$4294967294, 1236(%rcx), %ecx # imm = 0xFFFFFFFE
	addl	$1, %ecx
	cmpl	%ecx, %eax
	jne	.LBB19_173
# %bb.172:                              # %if.then456
	movl	$1, -24(%rbp)
	jmp	.LBB19_174
.LBB19_173:                             # %if.else457
	movl	$2, -24(%rbp)
.LBB19_174:                             # %if.end458
	jmp	.LBB19_175
.LBB19_175:                             # %if.end459
	jmp	.LBB19_176
.LBB19_176:                             # %if.end460
	jmp	.LBB19_177
.LBB19_177:                             # %if.end461
	jmp	.LBB19_178
.LBB19_178:                             # %if.end462
	movl	PreviousQp1, %eax
	addl	-24(%rbp), %eax
	movl	%eax, m_Qc
	movl	-12(%rbp), %ecx
	subl	$1, %ecx
	shll	$1, %ecx
	movl	-12(%rbp), %eax
	subl	$1, %eax
	imull	$4294967294, %eax, %esi # imm = 0xFFFFFFFE
	movl	-12(%rbp), %eax
	subl	$1, %eax
	movl	PreviousQp2, %edx
	subl	PreviousQp1, %edx
	imull	%edx, %eax
	movq	input, %rdx
	movl	1236(%rdx), %edi
	subl	$1, %edi
	cltd
	idivl	%edi
	cmpl	%eax, %esi
	jge	.LBB19_180
# %bb.179:                              # %cond.true476
	movl	-12(%rbp), %eax
	subl	$1, %eax
	movl	PreviousQp2, %edx
	subl	PreviousQp1, %edx
	imull	%edx, %eax
	movq	input, %rdx
	movl	1236(%rdx), %esi
	subl	$1, %esi
	cltd
	idivl	%esi
	jmp	.LBB19_181
.LBB19_180:                             # %cond.false483
	movl	-12(%rbp), %eax
	subl	$1, %eax
	imull	$4294967294, %eax, %eax # imm = 0xFFFFFFFE
.LBB19_181:                             # %cond.end486
	cmpl	%eax, %ecx
	jge	.LBB19_183
# %bb.182:                              # %cond.true490
	movl	-12(%rbp), %eax
	subl	$1, %eax
	shll	$1, %eax
	jmp	.LBB19_187
.LBB19_183:                             # %cond.false493
	movl	-12(%rbp), %eax
	subl	$1, %eax
	imull	$4294967294, %eax, %ecx # imm = 0xFFFFFFFE
	movl	-12(%rbp), %eax
	subl	$1, %eax
	movl	PreviousQp2, %edx
	subl	PreviousQp1, %edx
	imull	%edx, %eax
	movq	input, %rdx
	movl	1236(%rdx), %esi
	subl	$1, %esi
	cltd
	idivl	%esi
	cmpl	%eax, %ecx
	jge	.LBB19_185
# %bb.184:                              # %cond.true504
	movl	-12(%rbp), %eax
	subl	$1, %eax
	movl	PreviousQp2, %ecx
	subl	PreviousQp1, %ecx
	imull	%ecx, %eax
	movq	input, %rcx
	movl	1236(%rcx), %ecx
	subl	$1, %ecx
	cltd
	idivl	%ecx
	jmp	.LBB19_186
.LBB19_185:                             # %cond.false511
	movl	-12(%rbp), %eax
	subl	$1, %eax
	imull	$4294967294, %eax, %eax # imm = 0xFFFFFFFE
.LBB19_186:                             # %cond.end514
.LBB19_187:                             # %cond.end516
	addl	m_Qc, %eax
	movl	%eax, m_Qc
	movl	m_Qc, %eax
	cmpl	RC_MAX_QUANT, %eax
	jge	.LBB19_189
# %bb.188:                              # %cond.true521
	movl	m_Qc, %eax
	jmp	.LBB19_190
.LBB19_189:                             # %cond.false522
	movl	RC_MAX_QUANT, %eax
.LBB19_190:                             # %cond.end523
	movl	%eax, m_Qc
	movl	RC_MIN_QUANT, %eax
	cmpl	m_Qc, %eax
	jge	.LBB19_192
# %bb.191:                              # %cond.true527
	movl	m_Qc, %eax
	jmp	.LBB19_193
.LBB19_192:                             # %cond.false528
	movl	RC_MIN_QUANT, %eax
.LBB19_193:                             # %cond.end529
	movl	%eax, m_Qc
.LBB19_194:                             # %if.end531
	movl	m_Qc, %eax
	movl	%eax, -20(%rbp)
	jmp	.LBB19_363
.LBB19_195:                             # %if.else532
	movl	m_Qc, %eax
	movl	%eax, -20(%rbp)
	jmp	.LBB19_363
.LBB19_196:                             # %if.else533
	movq	img, %rax
	cmpl	$0, 24(%rax)
	jne	.LBB19_358
# %bb.197:                              # %if.then537
	movq	img, %rax
	cmpl	$1, 72568(%rax)
	jne	.LBB19_217
# %bb.198:                              # %land.lhs.true540
	movq	img, %rax
	cmpl	$0, 72576(%rax)
	jne	.LBB19_217
# %bb.199:                              # %if.then544
	movq	img, %rax
	cmpl	$0, 72600(%rax)
	je	.LBB19_202
# %bb.200:                              # %lor.lhs.false548
	movq	img, %rax
	cmpl	$1, 72600(%rax)
	jne	.LBB19_216
# %bb.201:                              # %land.lhs.true552
	movq	img, %rax
	cmpl	$0, 72612(%rax)
	jne	.LBB19_216
.LBB19_202:                             # %if.then556
	movl	MyInitialQp, %eax
	movl	%eax, m_Qc
	movq	img, %rax
	movl	$0, 72532(%rax)
	movq	img, %rax
	movl	$0, 72536(%rax)
	movl	NumberofBasicUnit, %eax
	addl	$-1, %eax
	movl	%eax, NumberofBasicUnit
	cmpl	$0, -36(%rbp)
	jne	.LBB19_215
# %bb.203:                              # %land.lhs.true558
	cmpl	$0, NumberofBasicUnit
	jne	.LBB19_215
# %bb.204:                              # %if.then561
	movq	active_sps, %rax
	cmpl	$0, 1148(%rax)
	jne	.LBB19_206
# %bb.205:                              # %lor.lhs.false564
	movq	input, %rax
	cmpl	$1, 2880(%rax)
	jne	.LBB19_207
.LBB19_206:                             # %if.then568
	movl	m_Qc, %eax
	movq	img, %rcx
	addl	72572(%rcx), %eax
	movl	%eax, 72572(%rcx)
	movl	PreviousQp2, %eax
	movl	%eax, PreviousQp1
	movl	m_Qc, %eax
	movl	%eax, PreviousQp2
	movl	m_Qc, %eax
	movl	%eax, PAveFrameQP
	movl	PAveHeaderBits2, %eax
	movl	%eax, PAveHeaderBits3
	jmp	.LBB19_214
.LBB19_207:                             # %if.else571
	movq	input, %rax
	cmpl	$2, 2880(%rax)
	je	.LBB19_209
# %bb.208:                              # %lor.lhs.false575
	movq	input, %rax
	cmpl	$0, 2884(%rax)
	je	.LBB19_213
.LBB19_209:                             # %if.then578
	movq	img, %rax
	cmpl	$0, 72600(%rax)
	jne	.LBB19_211
# %bb.210:                              # %if.then582
	movl	m_Qc, %eax
	movl	%eax, FrameQPBuffer
	movl	PAveHeaderBits2, %eax
	movl	%eax, FrameAveHeaderBits
	jmp	.LBB19_212
.LBB19_211:                             # %if.else583
	movl	m_Qc, %eax
	movl	%eax, FieldQPBuffer
	movl	PAveHeaderBits2, %eax
	movl	%eax, FieldAveHeaderBits
.LBB19_212:                             # %if.end584
	jmp	.LBB19_213
.LBB19_213:                             # %if.end585
	jmp	.LBB19_214
.LBB19_214:                             # %if.end586
	jmp	.LBB19_215
.LBB19_215:                             # %if.end587
	movl	m_Qc, %eax
	movl	%eax, Pm_Qp
	movl	m_Qc, %eax
	addl	TotalFrameQP, %eax
	movl	%eax, TotalFrameQP
	movl	m_Qc, %eax
	movl	%eax, -20(%rbp)
	jmp	.LBB19_363
.LBB19_216:                             # %if.end589
	jmp	.LBB19_357
.LBB19_217:                             # %if.else590
	vmovsd	Pm_X1, %xmm0            # xmm0 = mem[0],zero
	vmovsd	%xmm0, m_X1
	vmovsd	Pm_X2, %xmm0            # xmm0 = mem[0],zero
	vmovsd	%xmm0, m_X2
	movl	PPreHeader, %eax
	movl	%eax, m_Hp
	movl	Pm_Qp, %eax
	movl	%eax, m_Qp
	movl	PDuantQp, %eax
	movl	%eax, DuantQp
	vmovsd	PMADPictureC1, %xmm0    # xmm0 = mem[0],zero
	vmovsd	%xmm0, MADPictureC1
	vmovsd	PMADPictureC2, %xmm0    # xmm0 = mem[0],zero
	vmovsd	%xmm0, MADPictureC2
	movq	img, %rax
	cmpl	$0, 72600(%rax)
	jne	.LBB19_219
# %bb.218:                              # %if.then594
	movl	TotalNumberofBasicUnit, %eax
	movl	%eax, -52(%rbp)
	jmp	.LBB19_220
.LBB19_219:                             # %if.else595
	movl	TotalNumberofBasicUnit, %eax
	cltd
	movl	$2, %ecx
	idivl	%ecx
	movl	%eax, -52(%rbp)
.LBB19_220:                             # %if.end597
	movl	NumberofBasicUnit, %eax
	cmpl	-52(%rbp), %eax
	jne	.LBB19_241
# %bb.221:                              # %if.then600
	movq	input, %rax
	cmpl	$2, 2880(%rax)
	je	.LBB19_223
# %bb.222:                              # %lor.lhs.false604
	movq	input, %rax
	cmpl	$0, 2884(%rax)
	je	.LBB19_232
.LBB19_223:                             # %land.lhs.true607
	movq	img, %rax
	cmpl	$0, 72600(%rax)
	jne	.LBB19_232
# %bb.224:                              # %if.then611
	movq	img, %rax
	cmpl	$1, 72604(%rax)
	jne	.LBB19_228
# %bb.225:                              # %if.then615
	movq	img, %rax
	cmpl	$0, 72576(%rax)
	jle	.LBB19_227
# %bb.226:                              # %if.then619
	movl	FrameQPBuffer, %eax
	movq	img, %rcx
	addl	72572(%rcx), %eax
	movl	%eax, 72572(%rcx)
.LBB19_227:                             # %if.end622
	movl	FrameQPBuffer, %eax
	movl	%eax, PAveFrameQP
	movl	FrameAveHeaderBits, %eax
	movl	%eax, PAveHeaderBits3
	jmp	.LBB19_231
.LBB19_228:                             # %if.else623
	movq	img, %rax
	cmpl	$0, 72576(%rax)
	jle	.LBB19_230
# %bb.229:                              # %if.then627
	movl	FieldQPBuffer, %eax
	movq	img, %rcx
	addl	72572(%rcx), %eax
	movl	%eax, 72572(%rcx)
.LBB19_230:                             # %if.end630
	movl	FieldQPBuffer, %eax
	movl	%eax, PAveFrameQP
	movl	FieldAveHeaderBits, %eax
	movl	%eax, PAveHeaderBits3
.LBB19_231:                             # %if.end631
	jmp	.LBB19_232
.LBB19_232:                             # %if.end632
	cmpq	$0, T
	jg	.LBB19_239
# %bb.233:                              # %if.then635
	movl	PAveFrameQP, %eax
	addl	$2, %eax
	movl	%eax, m_Qc
	movl	m_Qc, %eax
	cmpl	RC_MAX_QUANT, %eax
	jle	.LBB19_235
# %bb.234:                              # %if.then639
	movl	RC_MAX_QUANT, %eax
	movl	%eax, m_Qc
.LBB19_235:                             # %if.end640
	cmpl	$0, -36(%rbp)
	jne	.LBB19_237
# %bb.236:                              # %lor.lhs.false642
	movq	img, %rax
	cmpl	$0, 72600(%rax)
	jne	.LBB19_238
.LBB19_237:                             # %if.then646
	movl	$1, GOPOverdue
.LBB19_238:                             # %if.end647
	jmp	.LBB19_240
.LBB19_239:                             # %if.else648
	movl	PAveFrameQP, %eax
	movl	%eax, m_Qc
.LBB19_240:                             # %if.end649
	movl	m_Qc, %eax
	addl	TotalFrameQP, %eax
	movl	%eax, TotalFrameQP
	movl	NumberofBasicUnit, %eax
	addl	$-1, %eax
	movl	%eax, NumberofBasicUnit
	movl	PAveFrameQP, %eax
	movl	%eax, Pm_Qp
	movl	m_Qc, %eax
	movl	%eax, -20(%rbp)
	jmp	.LBB19_363
.LBB19_241:                             # %if.else652
	movq	img, %rax
	movl	72532(%rax), %eax
	movq	img, %rcx
	addl	72536(%rcx), %eax
	movl	%eax, TotalBasicUnitBits
	movslq	TotalBasicUnitBits, %rax
	movq	T, %rcx
	subq	%rax, %rcx
	movq	%rcx, T
	movq	img, %rax
	movl	$0, 72532(%rax)
	movq	img, %rax
	movl	$0, 72536(%rax)
	cmpq	$0, T
	jge	.LBB19_287
# %bb.242:                              # %if.then662
	cmpl	$1, GOPOverdue
	jne	.LBB19_244
# %bb.243:                              # %if.then665
	movl	m_Qp, %eax
	addl	$2, %eax
	movl	%eax, m_Qc
	jmp	.LBB19_245
.LBB19_244:                             # %if.else667
	movl	m_Qp, %eax
	addl	DDquant, %eax
	movl	%eax, m_Qc
.LBB19_245:                             # %if.end669
	movl	m_Qc, %eax
	cmpl	RC_MAX_QUANT, %eax
	jge	.LBB19_247
# %bb.246:                              # %cond.true672
	movl	m_Qc, %eax
	jmp	.LBB19_248
.LBB19_247:                             # %cond.false673
	movl	RC_MAX_QUANT, %eax
.LBB19_248:                             # %cond.end674
	movl	%eax, m_Qc
	movq	input, %rax
	movl	3248(%rax), %eax
	cmpl	MBPerRow, %eax
	jl	.LBB19_253
# %bb.249:                              # %if.then678
	movl	m_Qc, %eax
	movl	PAveFrameQP, %ecx
	addl	$6, %ecx
	cmpl	%ecx, %eax
	jge	.LBB19_251
# %bb.250:                              # %cond.true682
	movl	m_Qc, %eax
	jmp	.LBB19_252
.LBB19_251:                             # %cond.false683
	movl	PAveFrameQP, %eax
	addl	$6, %eax
.LBB19_252:                             # %cond.end685
	movl	%eax, m_Qc
	jmp	.LBB19_257
.LBB19_253:                             # %if.else687
	movl	m_Qc, %eax
	movl	PAveFrameQP, %ecx
	addl	$3, %ecx
	cmpl	%ecx, %eax
	jge	.LBB19_255
# %bb.254:                              # %cond.true691
	movl	m_Qc, %eax
	jmp	.LBB19_256
.LBB19_255:                             # %cond.false692
	movl	PAveFrameQP, %eax
	addl	$3, %eax
.LBB19_256:                             # %cond.end694
	movl	%eax, m_Qc
.LBB19_257:                             # %if.end696
	movl	m_Qc, %eax
	addl	TotalFrameQP, %eax
	movl	%eax, TotalFrameQP
	movl	NumberofBasicUnit, %eax
	addl	$-1, %eax
	movl	%eax, NumberofBasicUnit
	cmpl	$0, NumberofBasicUnit
	jne	.LBB19_283
# %bb.258:                              # %if.then701
	cmpl	$0, -36(%rbp)
	je	.LBB19_260
# %bb.259:                              # %lor.lhs.false703
	movq	img, %rax
	cmpl	$0, 72600(%rax)
	jne	.LBB19_282
.LBB19_260:                             # %if.then707
	movq	active_sps, %rax
	cmpl	$0, 1148(%rax)
	jne	.LBB19_262
# %bb.261:                              # %lor.lhs.false710
	movq	input, %rax
	cmpl	$1, 2880(%rax)
	jne	.LBB19_274
.LBB19_262:                             # %if.then714
	vmovsd	.LCPI19_2(%rip), %xmm0  # xmm0 = mem[0],zero
	vmovsd	.LCPI19_3(%rip), %xmm1  # xmm1 = mem[0],zero
	vcvtsi2sdl	TotalFrameQP, %xmm0, %xmm2
	vmulsd	%xmm2, %xmm1, %xmm1
	vcvtsi2sdl	TotalNumberofBasicUnit, %xmm0, %xmm2
	vdivsd	%xmm2, %xmm1, %xmm1
	vaddsd	%xmm0, %xmm1, %xmm0
	vcvttsd2si	%xmm0, %eax
	movl	%eax, -16(%rbp)
	movq	img, %rax
	movl	72576(%rax), %eax
	movq	input, %rcx
	movl	1224(%rcx), %ecx
	subl	$2, %ecx
	cmpl	%ecx, %eax
	jne	.LBB19_264
# %bb.263:                              # %if.then725
	movl	-16(%rbp), %eax
	movl	%eax, QPLastPFrame
.LBB19_264:                             # %if.end726
	movl	-16(%rbp), %eax
	movq	img, %rcx
	addl	72572(%rcx), %eax
	movl	%eax, 72572(%rcx)
	cmpl	$1, GOPOverdue
	jne	.LBB19_266
# %bb.265:                              # %if.then731
	movl	PreviousQp2, %eax
	addl	$1, %eax
	movl	%eax, PreviousQp1
	movl	-16(%rbp), %eax
	movl	%eax, PreviousQp2
	jmp	.LBB19_273
.LBB19_266:                             # %if.else733
	movq	img, %rax
	cmpl	$0, 72576(%rax)
	jne	.LBB19_269
# %bb.267:                              # %land.lhs.true737
	movq	img, %rax
	cmpl	$1, 72568(%rax)
	jle	.LBB19_269
# %bb.268:                              # %if.then741
	movl	PreviousQp2, %eax
	movl	%eax, PreviousQp1
	movl	-16(%rbp), %eax
	movl	%eax, PreviousQp2
	jmp	.LBB19_272
.LBB19_269:                             # %if.else742
	movq	img, %rax
	cmpl	$0, 72576(%rax)
	jle	.LBB19_271
# %bb.270:                              # %if.then746
	movl	PreviousQp2, %eax
	addl	$1, %eax
	movl	%eax, PreviousQp1
	movl	-16(%rbp), %eax
	movl	%eax, PreviousQp2
.LBB19_271:                             # %if.end748
	jmp	.LBB19_272
.LBB19_272:                             # %if.end749
	jmp	.LBB19_273
.LBB19_273:                             # %if.end750
	movl	-16(%rbp), %eax
	movl	%eax, PAveFrameQP
	movl	PAveHeaderBits2, %eax
	movl	%eax, PAveHeaderBits3
	jmp	.LBB19_281
.LBB19_274:                             # %if.else751
	movq	input, %rax
	cmpl	$2, 2880(%rax)
	je	.LBB19_276
# %bb.275:                              # %lor.lhs.false755
	movq	input, %rax
	cmpl	$0, 2884(%rax)
	je	.LBB19_280
.LBB19_276:                             # %if.then758
	movq	img, %rax
	cmpl	$0, 72600(%rax)
	jne	.LBB19_278
# %bb.277:                              # %if.then762
	vmovsd	.LCPI19_2(%rip), %xmm0  # xmm0 = mem[0],zero
	vmovsd	.LCPI19_3(%rip), %xmm1  # xmm1 = mem[0],zero
	vcvtsi2sdl	TotalFrameQP, %xmm0, %xmm2
	vmulsd	%xmm2, %xmm1, %xmm1
	vcvtsi2sdl	TotalNumberofBasicUnit, %xmm0, %xmm2
	vdivsd	%xmm2, %xmm1, %xmm1
	vaddsd	%xmm0, %xmm1, %xmm0
	vcvttsd2si	%xmm0, %eax
	movl	%eax, -16(%rbp)
	movl	-16(%rbp), %eax
	movl	%eax, FrameQPBuffer
	movl	PAveHeaderBits2, %eax
	movl	%eax, FrameAveHeaderBits
	jmp	.LBB19_279
.LBB19_278:                             # %if.else769
	vmovsd	.LCPI19_2(%rip), %xmm0  # xmm0 = mem[0],zero
	vmovsd	.LCPI19_3(%rip), %xmm1  # xmm1 = mem[0],zero
	vcvtsi2sdl	TotalFrameQP, %xmm0, %xmm2
	vmulsd	%xmm2, %xmm1, %xmm1
	vcvtsi2sdl	TotalNumberofBasicUnit, %xmm0, %xmm2
	vdivsd	%xmm2, %xmm1, %xmm1
	vaddsd	%xmm0, %xmm1, %xmm0
	vcvttsd2si	%xmm0, %eax
	movl	%eax, -16(%rbp)
	movl	-16(%rbp), %eax
	movl	%eax, FieldQPBuffer
	movl	PAveHeaderBits2, %eax
	movl	%eax, FieldAveHeaderBits
.LBB19_279:                             # %if.end776
	jmp	.LBB19_280
.LBB19_280:                             # %if.end777
	jmp	.LBB19_281
.LBB19_281:                             # %if.end778
	jmp	.LBB19_282
.LBB19_282:                             # %if.end779
	jmp	.LBB19_283
.LBB19_283:                             # %if.end780
	cmpl	$1, GOPOverdue
	jne	.LBB19_285
# %bb.284:                              # %if.then783
	movl	PAveFrameQP, %eax
	movl	%eax, Pm_Qp
	jmp	.LBB19_286
.LBB19_285:                             # %if.else784
	movl	m_Qc, %eax
	movl	%eax, Pm_Qp
.LBB19_286:                             # %if.end785
	movl	m_Qc, %eax
	movl	%eax, -20(%rbp)
	jmp	.LBB19_363
.LBB19_287:                             # %if.else786
	movq	input, %rax
	cmpl	$2, 2880(%rax)
	je	.LBB19_289
# %bb.288:                              # %lor.lhs.false790
	movq	input, %rax
	cmpl	$0, 2884(%rax)
	je	.LBB19_295
.LBB19_289:                             # %land.lhs.true793
	movq	img, %rax
	cmpl	$1, 72600(%rax)
	jne	.LBB19_295
# %bb.290:                              # %if.then797
	vmovsd	MADPictureC1, %xmm0     # xmm0 = mem[0],zero
	movq	FCBUPFMAD, %rax
	movl	TotalNumberofBasicUnit, %ecx
	subl	NumberofBasicUnit, %ecx
	movslq	%ecx, %rcx
	vmulsd	(%rax,%rcx,8), %xmm0, %xmm0
	vaddsd	MADPictureC2, %xmm0, %xmm0
	vmovsd	%xmm0, CurrentFrameMAD
	vxorps	%xmm0, %xmm0, %xmm0
	vmovsd	%xmm0, TotalBUMAD
	movl	TotalNumberofBasicUnit, %eax
	subl	$1, %eax
	movl	%eax, -32(%rbp)
.LBB19_291:                             # %for.cond
                                        # =>This Inner Loop Header: Depth=1
	movl	-32(%rbp), %eax
	movl	TotalNumberofBasicUnit, %ecx
	subl	NumberofBasicUnit, %ecx
	cmpl	%ecx, %eax
	jl	.LBB19_294
# %bb.292:                              # %for.body
                                        #   in Loop: Header=BB19_291 Depth=1
	vmovsd	MADPictureC1, %xmm0     # xmm0 = mem[0],zero
	movq	FCBUPFMAD, %rax
	movslq	-32(%rbp), %rcx
	vmulsd	(%rax,%rcx,8), %xmm0, %xmm0
	vaddsd	MADPictureC2, %xmm0, %xmm0
	vmovsd	%xmm0, CurrentBUMAD
	vmovsd	CurrentBUMAD, %xmm0     # xmm0 = mem[0],zero
	vmulsd	CurrentBUMAD, %xmm0, %xmm0
	vaddsd	TotalBUMAD, %xmm0, %xmm0
	vmovsd	%xmm0, TotalBUMAD
# %bb.293:                              # %for.inc
                                        #   in Loop: Header=BB19_291 Depth=1
	movl	-32(%rbp), %eax
	addl	$-1, %eax
	movl	%eax, -32(%rbp)
	jmp	.LBB19_291
.LBB19_294:                             # %for.end
	jmp	.LBB19_300
.LBB19_295:                             # %if.else812
	vmovsd	MADPictureC1, %xmm0     # xmm0 = mem[0],zero
	movq	BUPFMAD, %rax
	movl	TotalNumberofBasicUnit, %ecx
	subl	NumberofBasicUnit, %ecx
	movslq	%ecx, %rcx
	vmulsd	(%rax,%rcx,8), %xmm0, %xmm0
	vaddsd	MADPictureC2, %xmm0, %xmm0
	vmovsd	%xmm0, CurrentFrameMAD
	vxorps	%xmm0, %xmm0, %xmm0
	vmovsd	%xmm0, TotalBUMAD
	movl	TotalNumberofBasicUnit, %eax
	subl	$1, %eax
	movl	%eax, -32(%rbp)
.LBB19_296:                             # %for.cond819
                                        # =>This Inner Loop Header: Depth=1
	movl	-32(%rbp), %eax
	movl	TotalNumberofBasicUnit, %ecx
	subl	NumberofBasicUnit, %ecx
	cmpl	%ecx, %eax
	jl	.LBB19_299
# %bb.297:                              # %for.body823
                                        #   in Loop: Header=BB19_296 Depth=1
	vmovsd	MADPictureC1, %xmm0     # xmm0 = mem[0],zero
	movq	BUPFMAD, %rax
	movslq	-32(%rbp), %rcx
	vmulsd	(%rax,%rcx,8), %xmm0, %xmm0
	vaddsd	MADPictureC2, %xmm0, %xmm0
	vmovsd	%xmm0, CurrentBUMAD
	vmovsd	CurrentBUMAD, %xmm0     # xmm0 = mem[0],zero
	vmulsd	CurrentBUMAD, %xmm0, %xmm0
	vaddsd	TotalBUMAD, %xmm0, %xmm0
	vmovsd	%xmm0, TotalBUMAD
# %bb.298:                              # %for.inc830
                                        #   in Loop: Header=BB19_296 Depth=1
	movl	-32(%rbp), %eax
	addl	$-1, %eax
	movl	%eax, -32(%rbp)
	jmp	.LBB19_296
.LBB19_299:                             # %for.end832
	jmp	.LBB19_300
.LBB19_300:                             # %if.end833
	vcvtsi2sdq	T, %xmm0, %xmm0
	vmulsd	CurrentFrameMAD, %xmm0, %xmm0
	vmulsd	CurrentFrameMAD, %xmm0, %xmm0
	vdivsd	TotalBUMAD, %xmm0, %xmm0
	vcvttsd2si	%xmm0, %eax
	movl	%eax, -28(%rbp)
	movl	PAveHeaderBits2, %eax
	movl	-28(%rbp), %ecx
	subl	%eax, %ecx
	movl	%ecx, -28(%rbp)
	movl	-28(%rbp), %eax
	vmovsd	bit_rate, %xmm0         # xmm0 = mem[0],zero
	vmovsd	MINVALUE, %xmm1         # xmm1 = mem[0],zero
	vmulsd	frame_rate, %xmm1, %xmm1
	vcvtsi2sdl	TotalNumberofBasicUnit, %xmm0, %xmm2
	vmulsd	%xmm2, %xmm1, %xmm1
	vdivsd	%xmm1, %xmm0, %xmm0
	vcvttsd2si	%xmm0, %ecx
	cmpl	%ecx, %eax
	jge	.LBB19_302
# %bb.301:                              # %cond.true847
	vmovsd	bit_rate, %xmm0         # xmm0 = mem[0],zero
	vmovsd	MINVALUE, %xmm1         # xmm1 = mem[0],zero
	vmulsd	frame_rate, %xmm1, %xmm1
	vcvtsi2sdl	TotalNumberofBasicUnit, %xmm0, %xmm2
	vmulsd	%xmm2, %xmm1, %xmm1
	vdivsd	%xmm1, %xmm0, %xmm0
	vcvttsd2si	%xmm0, %eax
	jmp	.LBB19_303
.LBB19_302:                             # %cond.false853
	movl	-28(%rbp), %eax
.LBB19_303:                             # %cond.end854
	vmovsd	.LCPI19_0(%rip), %xmm0  # xmm0 = mem[0],zero
	movl	%eax, -28(%rbp)
	vmovsd	CurrentFrameMAD, %xmm1  # xmm1 = mem[0],zero
	vmulsd	m_X1, %xmm1, %xmm1
	vmulsd	CurrentFrameMAD, %xmm1, %xmm1
	vmulsd	m_X1, %xmm1, %xmm1
	vmulsd	m_X2, %xmm0, %xmm0
	vmulsd	CurrentFrameMAD, %xmm0, %xmm0
	vcvtsi2sdl	-28(%rbp), %xmm0, %xmm2
	vmulsd	%xmm2, %xmm0, %xmm0
	vaddsd	%xmm0, %xmm1, %xmm0
	vmovsd	%xmm0, -48(%rbp)
	vmovsd	m_X2, %xmm0             # xmm0 = mem[0],zero
	vxorps	%xmm1, %xmm1, %xmm1
	vucomisd	%xmm1, %xmm0
	jne	.LBB19_304
	jp	.LBB19_304
	jmp	.LBB19_306
.LBB19_304:                             # %lor.lhs.false866
	vxorps	%xmm0, %xmm0, %xmm0
	vucomisd	-48(%rbp), %xmm0
	ja	.LBB19_306
# %bb.305:                              # %lor.lhs.false869
	vmovsd	-48(%rbp), %xmm0        # xmm0 = mem[0],zero
	callq	sqrt
	vmovsd	m_X1, %xmm1             # xmm1 = mem[0],zero
	vmulsd	CurrentFrameMAD, %xmm1, %xmm1
	vsubsd	%xmm1, %xmm0, %xmm0
	vxorps	%xmm1, %xmm1, %xmm1
	vucomisd	%xmm0, %xmm1
	jb	.LBB19_307
.LBB19_306:                             # %if.then875
	vmovsd	m_X1, %xmm0             # xmm0 = mem[0],zero
	vmulsd	CurrentFrameMAD, %xmm0, %xmm0
	vcvtsi2sdl	-28(%rbp), %xmm0, %xmm1
	vdivsd	%xmm1, %xmm0, %xmm0
	vcvtsd2ss	%xmm0, %xmm0, %xmm0
	vcvtss2sd	%xmm0, %xmm0, %xmm0
	vmovsd	%xmm0, m_Qstep
	jmp	.LBB19_308
.LBB19_307:                             # %if.else881
	vmovsd	.LCPI19_1(%rip), %xmm0  # xmm0 = mem[0],zero
	vmulsd	m_X2, %xmm0, %xmm0
	vmulsd	CurrentFrameMAD, %xmm0, %xmm0
	vmovsd	%xmm0, -72(%rbp)        # 8-byte Spill
	vmovsd	-48(%rbp), %xmm0        # xmm0 = mem[0],zero
	callq	sqrt
	vmovsd	m_X1, %xmm1             # xmm1 = mem[0],zero
	vmulsd	CurrentFrameMAD, %xmm1, %xmm1
	vsubsd	%xmm1, %xmm0, %xmm0
	vmovsd	-72(%rbp), %xmm1        # 8-byte Reload
                                        # xmm1 = mem[0],zero
	vdivsd	%xmm0, %xmm1, %xmm0
	vcvtsd2ss	%xmm0, %xmm0, %xmm0
	vcvtss2sd	%xmm0, %xmm0, %xmm0
	vmovsd	%xmm0, m_Qstep
.LBB19_308:                             # %if.end890
	vmovsd	m_Qstep, %xmm0          # xmm0 = mem[0],zero
	callq	Qstep2QP
	movl	%eax, m_Qc
	movl	m_Qp, %eax
	addl	DDquant, %eax
	cmpl	m_Qc, %eax
	jge	.LBB19_310
# %bb.309:                              # %cond.true895
	movl	m_Qp, %eax
	addl	DDquant, %eax
	jmp	.LBB19_311
.LBB19_310:                             # %cond.false897
	movl	m_Qc, %eax
.LBB19_311:                             # %cond.end898
	movl	%eax, m_Qc
	movq	input, %rax
	movl	3248(%rax), %eax
	cmpl	MBPerRow, %eax
	jl	.LBB19_316
# %bb.312:                              # %if.then903
	movl	PAveFrameQP, %eax
	addl	$6, %eax
	cmpl	m_Qc, %eax
	jge	.LBB19_314
# %bb.313:                              # %cond.true907
	movl	PAveFrameQP, %eax
	addl	$6, %eax
	jmp	.LBB19_315
.LBB19_314:                             # %cond.false909
	movl	m_Qc, %eax
.LBB19_315:                             # %cond.end910
	movl	%eax, m_Qc
	jmp	.LBB19_320
.LBB19_316:                             # %if.else912
	movl	PAveFrameQP, %eax
	addl	$3, %eax
	cmpl	m_Qc, %eax
	jge	.LBB19_318
# %bb.317:                              # %cond.true916
	movl	PAveFrameQP, %eax
	addl	$3, %eax
	jmp	.LBB19_319
.LBB19_318:                             # %cond.false918
	movl	m_Qc, %eax
.LBB19_319:                             # %cond.end919
	movl	%eax, m_Qc
.LBB19_320:                             # %if.end921
	movl	m_Qc, %eax
	cmpl	RC_MAX_QUANT, %eax
	jge	.LBB19_322
# %bb.321:                              # %cond.true924
	movl	m_Qc, %eax
	jmp	.LBB19_323
.LBB19_322:                             # %cond.false925
	movl	RC_MAX_QUANT, %eax
.LBB19_323:                             # %cond.end926
	movl	%eax, m_Qc
	movl	m_Qp, %eax
	subl	DDquant, %eax
	cmpl	m_Qc, %eax
	jge	.LBB19_325
# %bb.324:                              # %cond.true931
	movl	m_Qc, %eax
	jmp	.LBB19_326
.LBB19_325:                             # %cond.false932
	movl	m_Qp, %eax
	subl	DDquant, %eax
.LBB19_326:                             # %cond.end934
	movl	%eax, m_Qc
	movq	input, %rax
	movl	3248(%rax), %eax
	cmpl	MBPerRow, %eax
	jl	.LBB19_331
# %bb.327:                              # %if.then939
	movl	PAveFrameQP, %eax
	subl	$6, %eax
	cmpl	m_Qc, %eax
	jge	.LBB19_329
# %bb.328:                              # %cond.true943
	movl	m_Qc, %eax
	jmp	.LBB19_330
.LBB19_329:                             # %cond.false944
	movl	PAveFrameQP, %eax
	subl	$6, %eax
.LBB19_330:                             # %cond.end946
	movl	%eax, m_Qc
	jmp	.LBB19_335
.LBB19_331:                             # %if.else948
	movl	PAveFrameQP, %eax
	subl	$3, %eax
	cmpl	m_Qc, %eax
	jge	.LBB19_333
# %bb.332:                              # %cond.true952
	movl	m_Qc, %eax
	jmp	.LBB19_334
.LBB19_333:                             # %cond.false953
	movl	PAveFrameQP, %eax
	subl	$3, %eax
.LBB19_334:                             # %cond.end955
	movl	%eax, m_Qc
.LBB19_335:                             # %if.end957
	movl	RC_MIN_QUANT, %eax
	cmpl	m_Qc, %eax
	jge	.LBB19_337
# %bb.336:                              # %cond.true960
	movl	m_Qc, %eax
	jmp	.LBB19_338
.LBB19_337:                             # %cond.false961
	movl	RC_MIN_QUANT, %eax
.LBB19_338:                             # %cond.end962
	movl	%eax, m_Qc
	movl	m_Qc, %eax
	addl	TotalFrameQP, %eax
	movl	%eax, TotalFrameQP
	movl	m_Qc, %eax
	movl	%eax, Pm_Qp
	movl	NumberofBasicUnit, %eax
	addl	$-1, %eax
	movl	%eax, NumberofBasicUnit
	cmpl	$0, NumberofBasicUnit
	jne	.LBB19_356
# %bb.339:                              # %land.lhs.true968
	movq	img, %rax
	cmpl	$0, 24(%rax)
	jne	.LBB19_356
# %bb.340:                              # %if.then972
	cmpl	$0, -36(%rbp)
	je	.LBB19_342
# %bb.341:                              # %lor.lhs.false974
	movq	img, %rax
	cmpl	$0, 72600(%rax)
	jne	.LBB19_355
.LBB19_342:                             # %if.then978
	movq	active_sps, %rax
	cmpl	$0, 1148(%rax)
	jne	.LBB19_344
# %bb.343:                              # %lor.lhs.false981
	movq	input, %rax
	cmpl	$1, 2880(%rax)
	jne	.LBB19_347
.LBB19_344:                             # %if.then985
	vmovsd	.LCPI19_2(%rip), %xmm0  # xmm0 = mem[0],zero
	vmovsd	.LCPI19_3(%rip), %xmm1  # xmm1 = mem[0],zero
	vcvtsi2sdl	TotalFrameQP, %xmm0, %xmm2
	vmulsd	%xmm2, %xmm1, %xmm1
	vcvtsi2sdl	TotalNumberofBasicUnit, %xmm0, %xmm2
	vdivsd	%xmm2, %xmm1, %xmm1
	vaddsd	%xmm0, %xmm1, %xmm0
	vcvttsd2si	%xmm0, %eax
	movl	%eax, -16(%rbp)
	movq	img, %rax
	movl	72576(%rax), %eax
	movq	input, %rcx
	movl	1224(%rcx), %ecx
	subl	$2, %ecx
	cmpl	%ecx, %eax
	jne	.LBB19_346
# %bb.345:                              # %if.then997
	movl	-16(%rbp), %eax
	movl	%eax, QPLastPFrame
.LBB19_346:                             # %if.end998
	movl	-16(%rbp), %eax
	movq	img, %rcx
	addl	72572(%rcx), %eax
	movl	%eax, 72572(%rcx)
	movl	PreviousQp2, %eax
	movl	%eax, PreviousQp1
	movl	-16(%rbp), %eax
	movl	%eax, PreviousQp2
	movl	-16(%rbp), %eax
	movl	%eax, PAveFrameQP
	movl	PAveHeaderBits2, %eax
	movl	%eax, PAveHeaderBits3
	jmp	.LBB19_354
.LBB19_347:                             # %if.else1001
	movq	input, %rax
	cmpl	$2, 2880(%rax)
	je	.LBB19_349
# %bb.348:                              # %lor.lhs.false1005
	movq	input, %rax
	cmpl	$0, 2884(%rax)
	je	.LBB19_353
.LBB19_349:                             # %if.then1008
	movq	img, %rax
	cmpl	$0, 72600(%rax)
	jne	.LBB19_351
# %bb.350:                              # %if.then1012
	vmovsd	.LCPI19_2(%rip), %xmm0  # xmm0 = mem[0],zero
	vmovsd	.LCPI19_3(%rip), %xmm1  # xmm1 = mem[0],zero
	vcvtsi2sdl	TotalFrameQP, %xmm0, %xmm2
	vmulsd	%xmm2, %xmm1, %xmm1
	vcvtsi2sdl	TotalNumberofBasicUnit, %xmm0, %xmm2
	vdivsd	%xmm2, %xmm1, %xmm1
	vaddsd	%xmm0, %xmm1, %xmm0
	vcvttsd2si	%xmm0, %eax
	movl	%eax, -16(%rbp)
	movl	-16(%rbp), %eax
	movl	%eax, FrameQPBuffer
	movl	PAveHeaderBits2, %eax
	movl	%eax, FrameAveHeaderBits
	jmp	.LBB19_352
.LBB19_351:                             # %if.else1019
	vmovsd	.LCPI19_2(%rip), %xmm0  # xmm0 = mem[0],zero
	vmovsd	.LCPI19_3(%rip), %xmm1  # xmm1 = mem[0],zero
	vcvtsi2sdl	TotalFrameQP, %xmm0, %xmm2
	vmulsd	%xmm2, %xmm1, %xmm1
	vcvtsi2sdl	TotalNumberofBasicUnit, %xmm0, %xmm2
	vdivsd	%xmm2, %xmm1, %xmm1
	vaddsd	%xmm0, %xmm1, %xmm0
	vcvttsd2si	%xmm0, %eax
	movl	%eax, -16(%rbp)
	movl	-16(%rbp), %eax
	movl	%eax, FieldQPBuffer
	movl	PAveHeaderBits2, %eax
	movl	%eax, FieldAveHeaderBits
.LBB19_352:                             # %if.end1026
	jmp	.LBB19_353
.LBB19_353:                             # %if.end1027
	jmp	.LBB19_354
.LBB19_354:                             # %if.end1028
	jmp	.LBB19_355
.LBB19_355:                             # %if.end1029
	jmp	.LBB19_356
.LBB19_356:                             # %if.end1030
	movl	m_Qc, %eax
	movl	%eax, -20(%rbp)
	jmp	.LBB19_363
.LBB19_357:                             # %if.end1031
	jmp	.LBB19_358
.LBB19_358:                             # %if.end1032
	jmp	.LBB19_359
.LBB19_359:                             # %if.end1033
	jmp	.LBB19_360
.LBB19_360:                             # %if.end1034
	jmp	.LBB19_361
.LBB19_361:                             # %if.end1035
	jmp	.LBB19_362
.LBB19_362:                             # %if.end1036
	movl	m_Qc, %eax
	movl	%eax, -20(%rbp)
.LBB19_363:                             # %return
	movl	-20(%rbp), %ebx
	cmpl	$143072048, -56(%rbp)   # imm = 0x8871B30
	jne	.LBB19_365
.LBB19_364:
	movl	%ebx, %eax
	addq	$72, %rsp
	popq	%rbx
	popq	%rbp
	.cfi_def_cfa %rsp, 8
	retq
.LBB19_365:                             # %func_exit
	.cfi_def_cfa %rbp, 16
	callq	detect_breach
	jmp	.LBB19_364
.Lfunc_end19:
	.size	updateQuantizationParameter.3, .Lfunc_end19-updateQuantizationParameter.3
	.cfi_endproc
                                        # -- End function
	.section	.rodata.cst8,"aM",@progbits,8
	.p2align	3               # -- Begin function RCModelEstimator.4
.LCPI20_0:
	.quad	4517329193108106637     # double 9.9999999999999995E-7
.LCPI20_2:
	.quad	4607182418800017408     # double 1
	.section	.rodata.cst16,"aM",@progbits,16
	.p2align	4
.LCPI20_1:
	.quad	9223372036854775807     # double NaN
	.quad	9223372036854775807     # double NaN
	.text
	.globl	RCModelEstimator.4
	.p2align	4, 0x90
	.type	RCModelEstimator.4,@function
RCModelEstimator.4:                     # @RCModelEstimator.4
	.cfi_startproc
# %bb.0:                                # %entry
	pushq	%rbp
	.cfi_def_cfa_offset 16
	.cfi_offset %rbp, -16
	movq	%rsp, %rbp
	.cfi_def_cfa_register %rbp
	subq	$96, %rsp
	movl	$1158835745, -84(%rbp)  # imm = 0x45126E21
	movl	%edi, -8(%rbp)
	movl	-8(%rbp), %eax
	movl	%eax, -12(%rbp)
	vxorps	%xmm0, %xmm0, %xmm0
	vmovsd	%xmm0, -24(%rbp)
	vmovsd	%xmm0, -32(%rbp)
	vmovsd	%xmm0, -72(%rbp)
	vmovsd	%xmm0, -64(%rbp)
	vmovsd	%xmm0, -40(%rbp)
	vmovsd	%xmm0, -56(%rbp)
	movl	$0, -44(%rbp)
	movl	$0, -4(%rbp)
.LBB20_1:                               # %for.cond
                                        # =>This Inner Loop Header: Depth=1
	movl	-4(%rbp), %eax
	cmpl	-8(%rbp), %eax
	jge	.LBB20_6
# %bb.2:                                # %for.body
                                        #   in Loop: Header=BB20_1 Depth=1
	movslq	-4(%rbp), %rax
	cmpl	$0, m_rgRejected(,%rax,4)
	je	.LBB20_4
# %bb.3:                                # %if.then
                                        #   in Loop: Header=BB20_1 Depth=1
	movl	-12(%rbp), %eax
	addl	$-1, %eax
	movl	%eax, -12(%rbp)
.LBB20_4:                               # %if.end
                                        #   in Loop: Header=BB20_1 Depth=1
	jmp	.LBB20_5
.LBB20_5:                               # %for.inc
                                        #   in Loop: Header=BB20_1 Depth=1
	movl	-4(%rbp), %eax
	addl	$1, %eax
	movl	%eax, -4(%rbp)
	jmp	.LBB20_1
.LBB20_6:                               # %for.end
	vxorps	%xmm0, %xmm0, %xmm0
	vmovsd	%xmm0, m_X2
	vmovsd	%xmm0, m_X1
	movl	$0, -4(%rbp)
.LBB20_7:                               # %for.cond1
                                        # =>This Inner Loop Header: Depth=1
	movl	-4(%rbp), %eax
	cmpl	-8(%rbp), %eax
	jge	.LBB20_12
# %bb.8:                                # %for.body3
                                        #   in Loop: Header=BB20_7 Depth=1
	movslq	-4(%rbp), %rax
	cmpl	$0, m_rgRejected(,%rax,4)
	jne	.LBB20_10
# %bb.9:                                # %if.then7
                                        #   in Loop: Header=BB20_7 Depth=1
	movslq	-4(%rbp), %rax
	vmovsd	m_rgQp(,%rax,8), %xmm0  # xmm0 = mem[0],zero
	vmovsd	%xmm0, -96(%rbp)
.LBB20_10:                              # %if.end10
                                        #   in Loop: Header=BB20_7 Depth=1
	jmp	.LBB20_11
.LBB20_11:                              # %for.inc11
                                        #   in Loop: Header=BB20_7 Depth=1
	movl	-4(%rbp), %eax
	addl	$1, %eax
	movl	%eax, -4(%rbp)
	jmp	.LBB20_7
.LBB20_12:                              # %for.end13
	movl	$0, -4(%rbp)
.LBB20_13:                              # %for.cond14
                                        # =>This Inner Loop Header: Depth=1
	movl	-4(%rbp), %eax
	cmpl	-8(%rbp), %eax
	jge	.LBB20_21
# %bb.14:                               # %for.body16
                                        #   in Loop: Header=BB20_13 Depth=1
	movslq	-4(%rbp), %rax
	vmovsd	m_rgQp(,%rax,8), %xmm0  # xmm0 = mem[0],zero
	vucomisd	-96(%rbp), %xmm0
	jne	.LBB20_15
	jp	.LBB20_15
	jmp	.LBB20_17
.LBB20_15:                              # %land.lhs.true
                                        #   in Loop: Header=BB20_13 Depth=1
	movslq	-4(%rbp), %rax
	cmpl	$0, m_rgRejected(,%rax,4)
	jne	.LBB20_17
# %bb.16:                               # %if.then23
                                        #   in Loop: Header=BB20_13 Depth=1
	movl	$1, -44(%rbp)
.LBB20_17:                              # %if.end24
                                        #   in Loop: Header=BB20_13 Depth=1
	movslq	-4(%rbp), %rax
	cmpl	$0, m_rgRejected(,%rax,4)
	jne	.LBB20_19
# %bb.18:                               # %if.then28
                                        #   in Loop: Header=BB20_13 Depth=1
	movslq	-4(%rbp), %rax
	vmovsd	m_rgQp(,%rax,8), %xmm0  # xmm0 = mem[0],zero
	movslq	-4(%rbp), %rax
	vmulsd	m_rgRp(,%rax,8), %xmm0, %xmm0
	vcvtsi2sdl	-12(%rbp), %xmm0, %xmm1
	vdivsd	%xmm1, %xmm0, %xmm0
	vaddsd	m_X1, %xmm0, %xmm0
	vmovsd	%xmm0, m_X1
.LBB20_19:                              # %if.end33
                                        #   in Loop: Header=BB20_13 Depth=1
	jmp	.LBB20_20
.LBB20_20:                              # %for.inc34
                                        #   in Loop: Header=BB20_13 Depth=1
	movl	-4(%rbp), %eax
	addl	$1, %eax
	movl	%eax, -4(%rbp)
	jmp	.LBB20_13
.LBB20_21:                              # %for.end36
	cmpl	$1, -12(%rbp)
	jl	.LBB20_33
# %bb.22:                               # %land.lhs.true39
	cmpl	$0, -44(%rbp)
	je	.LBB20_33
# %bb.23:                               # %if.then41
	movl	$0, -4(%rbp)
.LBB20_24:                              # %for.cond42
                                        # =>This Inner Loop Header: Depth=1
	movl	-4(%rbp), %eax
	cmpl	-8(%rbp), %eax
	jge	.LBB20_29
# %bb.25:                               # %for.body45
                                        #   in Loop: Header=BB20_24 Depth=1
	movslq	-4(%rbp), %rax
	cmpl	$0, m_rgRejected(,%rax,4)
	jne	.LBB20_27
# %bb.26:                               # %if.then49
                                        #   in Loop: Header=BB20_24 Depth=1
	vmovsd	.LCPI20_2(%rip), %xmm0  # xmm0 = mem[0],zero
	vaddsd	-24(%rbp), %xmm0, %xmm1
	vmovsd	%xmm1, -24(%rbp)
	movslq	-4(%rbp), %rax
	vdivsd	m_rgQp(,%rax,8), %xmm0, %xmm1
	vaddsd	-32(%rbp), %xmm1, %xmm1
	vmovsd	%xmm1, -32(%rbp)
	vmovsd	-32(%rbp), %xmm1        # xmm1 = mem[0],zero
	vmovsd	%xmm1, -72(%rbp)
	movslq	-4(%rbp), %rax
	vmovsd	m_rgQp(,%rax,8), %xmm1  # xmm1 = mem[0],zero
	movslq	-4(%rbp), %rax
	vmulsd	m_rgQp(,%rax,8), %xmm1, %xmm1
	vdivsd	%xmm1, %xmm0, %xmm0
	vaddsd	-64(%rbp), %xmm0, %xmm0
	vmovsd	%xmm0, -64(%rbp)
	movslq	-4(%rbp), %rax
	vmovsd	m_rgQp(,%rax,8), %xmm0  # xmm0 = mem[0],zero
	movslq	-4(%rbp), %rax
	vmulsd	m_rgRp(,%rax,8), %xmm0, %xmm0
	vaddsd	-40(%rbp), %xmm0, %xmm0
	vmovsd	%xmm0, -40(%rbp)
	movslq	-4(%rbp), %rax
	vmovsd	m_rgRp(,%rax,8), %xmm0  # xmm0 = mem[0],zero
	vaddsd	-56(%rbp), %xmm0, %xmm0
	vmovsd	%xmm0, -56(%rbp)
.LBB20_27:                              # %if.end71
                                        #   in Loop: Header=BB20_24 Depth=1
	jmp	.LBB20_28
.LBB20_28:                              # %for.inc72
                                        #   in Loop: Header=BB20_24 Depth=1
	movl	-4(%rbp), %eax
	addl	$1, %eax
	movl	%eax, -4(%rbp)
	jmp	.LBB20_24
.LBB20_29:                              # %for.end74
	vmovsd	.LCPI20_0(%rip), %xmm0  # xmm0 = mem[0],zero
	vmovsd	-24(%rbp), %xmm1        # xmm1 = mem[0],zero
	vmulsd	-64(%rbp), %xmm1, %xmm1
	vmovsd	-32(%rbp), %xmm2        # xmm2 = mem[0],zero
	vmulsd	-72(%rbp), %xmm2, %xmm2
	vsubsd	%xmm2, %xmm1, %xmm1
	vmovsd	%xmm1, -80(%rbp)
	vmovsd	-80(%rbp), %xmm1        # xmm1 = mem[0],zero
	vmovdqa	.LCPI20_1(%rip), %xmm2  # xmm2 = [NaN,NaN]
	vpand	%xmm2, %xmm1, %xmm1
	vucomisd	%xmm0, %xmm1
	jbe	.LBB20_31
# %bb.30:                               # %if.then79
	vmovsd	-40(%rbp), %xmm0        # xmm0 = mem[0],zero
	vmulsd	-64(%rbp), %xmm0, %xmm0
	vmovsd	-56(%rbp), %xmm1        # xmm1 = mem[0],zero
	vmulsd	-32(%rbp), %xmm1, %xmm1
	vsubsd	%xmm1, %xmm0, %xmm0
	vdivsd	-80(%rbp), %xmm0, %xmm0
	vmovsd	%xmm0, m_X1
	vmovsd	-56(%rbp), %xmm0        # xmm0 = mem[0],zero
	vmulsd	-24(%rbp), %xmm0, %xmm0
	vmovsd	-40(%rbp), %xmm1        # xmm1 = mem[0],zero
	vmulsd	-72(%rbp), %xmm1, %xmm1
	vsubsd	%xmm1, %xmm0, %xmm0
	vdivsd	-80(%rbp), %xmm0, %xmm0
	vmovsd	%xmm0, m_X2
	jmp	.LBB20_32
.LBB20_31:                              # %if.else
	vmovsd	-40(%rbp), %xmm0        # xmm0 = mem[0],zero
	vdivsd	-24(%rbp), %xmm0, %xmm0
	vmovsd	%xmm0, m_X1
	vxorps	%xmm0, %xmm0, %xmm0
	vmovsd	%xmm0, m_X2
.LBB20_32:                              # %if.end89
	jmp	.LBB20_33
.LBB20_33:                              # %if.end90
	movq	img, %rax
	cmpl	$0, 24(%rax)
	jne	.LBB20_35
# %bb.34:                               # %if.then93
	vmovsd	m_X1, %xmm0             # xmm0 = mem[0],zero
	vmovsd	%xmm0, Pm_X1
	vmovsd	m_X2, %xmm0             # xmm0 = mem[0],zero
	vmovsd	%xmm0, Pm_X2
.LBB20_35:                              # %if.end94
	cmpl	$1158835745, -84(%rbp)  # imm = 0x45126E21
	jne	.LBB20_37
.LBB20_36:
	addq	$96, %rsp
	popq	%rbp
	.cfi_def_cfa %rsp, 8
	retq
.LBB20_37:                              # %func_exit
	.cfi_def_cfa %rbp, 16
	callq	detect_breach
	jmp	.LBB20_36
.Lfunc_end20:
	.size	RCModelEstimator.4, .Lfunc_end20-RCModelEstimator.4
	.cfi_endproc
                                        # -- End function
	.section	.rodata.cst8,"aM",@progbits,8
	.p2align	3               # -- Begin function MADModelEstimator.5
.LCPI21_0:
	.quad	4517329193108106637     # double 9.9999999999999995E-7
.LCPI21_2:
	.quad	4607182418800017408     # double 1
	.section	.rodata.cst16,"aM",@progbits,16
	.p2align	4
.LCPI21_1:
	.quad	9223372036854775807     # double NaN
	.quad	9223372036854775807     # double NaN
	.text
	.globl	MADModelEstimator.5
	.p2align	4, 0x90
	.type	MADModelEstimator.5,@function
MADModelEstimator.5:                    # @MADModelEstimator.5
	.cfi_startproc
# %bb.0:                                # %entry
	pushq	%rbp
	.cfi_def_cfa_offset 16
	.cfi_offset %rbp, -16
	movq	%rsp, %rbp
	.cfi_def_cfa_register %rbp
	subq	$96, %rsp
	movl	$781617767, -84(%rbp)   # imm = 0x2E968A67
	movl	%edi, -8(%rbp)
	movl	-8(%rbp), %eax
	movl	%eax, -12(%rbp)
	vxorps	%xmm0, %xmm0, %xmm0
	vmovsd	%xmm0, -56(%rbp)
	vmovsd	%xmm0, -24(%rbp)
	vmovsd	%xmm0, -72(%rbp)
	vmovsd	%xmm0, -48(%rbp)
	vmovsd	%xmm0, -32(%rbp)
	vmovsd	%xmm0, -64(%rbp)
	movl	$0, -36(%rbp)
	movl	$0, -4(%rbp)
.LBB21_1:                               # %for.cond
                                        # =>This Inner Loop Header: Depth=1
	movl	-4(%rbp), %eax
	cmpl	-8(%rbp), %eax
	jge	.LBB21_6
# %bb.2:                                # %for.body
                                        #   in Loop: Header=BB21_1 Depth=1
	movslq	-4(%rbp), %rax
	cmpl	$0, PictureRejected(,%rax,4)
	je	.LBB21_4
# %bb.3:                                # %if.then
                                        #   in Loop: Header=BB21_1 Depth=1
	movl	-12(%rbp), %eax
	addl	$-1, %eax
	movl	%eax, -12(%rbp)
.LBB21_4:                               # %if.end
                                        #   in Loop: Header=BB21_1 Depth=1
	jmp	.LBB21_5
.LBB21_5:                               # %for.inc
                                        #   in Loop: Header=BB21_1 Depth=1
	movl	-4(%rbp), %eax
	addl	$1, %eax
	movl	%eax, -4(%rbp)
	jmp	.LBB21_1
.LBB21_6:                               # %for.end
	vxorps	%xmm0, %xmm0, %xmm0
	vmovsd	%xmm0, MADPictureC2
	vmovsd	%xmm0, MADPictureC1
	movl	$0, -4(%rbp)
.LBB21_7:                               # %for.cond1
                                        # =>This Inner Loop Header: Depth=1
	movl	-4(%rbp), %eax
	cmpl	-8(%rbp), %eax
	jge	.LBB21_12
# %bb.8:                                # %for.body3
                                        #   in Loop: Header=BB21_7 Depth=1
	movslq	-4(%rbp), %rax
	cmpl	$0, PictureRejected(,%rax,4)
	jne	.LBB21_10
# %bb.9:                                # %if.then7
                                        #   in Loop: Header=BB21_7 Depth=1
	movslq	-4(%rbp), %rax
	vmovsd	PictureMAD(,%rax,8), %xmm0 # xmm0 = mem[0],zero
	vmovsd	%xmm0, -96(%rbp)
.LBB21_10:                              # %if.end10
                                        #   in Loop: Header=BB21_7 Depth=1
	jmp	.LBB21_11
.LBB21_11:                              # %for.inc11
                                        #   in Loop: Header=BB21_7 Depth=1
	movl	-4(%rbp), %eax
	addl	$1, %eax
	movl	%eax, -4(%rbp)
	jmp	.LBB21_7
.LBB21_12:                              # %for.end13
	movl	$0, -4(%rbp)
.LBB21_13:                              # %for.cond14
                                        # =>This Inner Loop Header: Depth=1
	movl	-4(%rbp), %eax
	cmpl	-8(%rbp), %eax
	jge	.LBB21_21
# %bb.14:                               # %for.body16
                                        #   in Loop: Header=BB21_13 Depth=1
	movslq	-4(%rbp), %rax
	vmovsd	PictureMAD(,%rax,8), %xmm0 # xmm0 = mem[0],zero
	vucomisd	-96(%rbp), %xmm0
	jne	.LBB21_15
	jp	.LBB21_15
	jmp	.LBB21_17
.LBB21_15:                              # %land.lhs.true
                                        #   in Loop: Header=BB21_13 Depth=1
	movslq	-4(%rbp), %rax
	cmpl	$0, PictureRejected(,%rax,4)
	jne	.LBB21_17
# %bb.16:                               # %if.then23
                                        #   in Loop: Header=BB21_13 Depth=1
	movl	$1, -36(%rbp)
.LBB21_17:                              # %if.end24
                                        #   in Loop: Header=BB21_13 Depth=1
	movslq	-4(%rbp), %rax
	cmpl	$0, PictureRejected(,%rax,4)
	jne	.LBB21_19
# %bb.18:                               # %if.then28
                                        #   in Loop: Header=BB21_13 Depth=1
	movslq	-4(%rbp), %rax
	vmovsd	PictureMAD(,%rax,8), %xmm0 # xmm0 = mem[0],zero
	movslq	-4(%rbp), %rax
	vmovsd	ReferenceMAD(,%rax,8), %xmm1 # xmm1 = mem[0],zero
	vcvtsi2sdl	-12(%rbp), %xmm0, %xmm2
	vmulsd	%xmm2, %xmm1, %xmm1
	vdivsd	%xmm1, %xmm0, %xmm0
	vaddsd	MADPictureC1, %xmm0, %xmm0
	vmovsd	%xmm0, MADPictureC1
.LBB21_19:                              # %if.end33
                                        #   in Loop: Header=BB21_13 Depth=1
	jmp	.LBB21_20
.LBB21_20:                              # %for.inc34
                                        #   in Loop: Header=BB21_13 Depth=1
	movl	-4(%rbp), %eax
	addl	$1, %eax
	movl	%eax, -4(%rbp)
	jmp	.LBB21_13
.LBB21_21:                              # %for.end36
	cmpl	$1, -12(%rbp)
	jl	.LBB21_33
# %bb.22:                               # %land.lhs.true39
	cmpl	$0, -36(%rbp)
	je	.LBB21_33
# %bb.23:                               # %if.then41
	movl	$0, -4(%rbp)
.LBB21_24:                              # %for.cond42
                                        # =>This Inner Loop Header: Depth=1
	movl	-4(%rbp), %eax
	cmpl	-8(%rbp), %eax
	jge	.LBB21_29
# %bb.25:                               # %for.body45
                                        #   in Loop: Header=BB21_24 Depth=1
	movslq	-4(%rbp), %rax
	cmpl	$0, PictureRejected(,%rax,4)
	jne	.LBB21_27
# %bb.26:                               # %if.then49
                                        #   in Loop: Header=BB21_24 Depth=1
	vmovsd	.LCPI21_2(%rip), %xmm0  # xmm0 = mem[0],zero
	vaddsd	-56(%rbp), %xmm0, %xmm0
	vmovsd	%xmm0, -56(%rbp)
	movslq	-4(%rbp), %rax
	vmovsd	ReferenceMAD(,%rax,8), %xmm0 # xmm0 = mem[0],zero
	vaddsd	-24(%rbp), %xmm0, %xmm0
	vmovsd	%xmm0, -24(%rbp)
	vmovsd	-24(%rbp), %xmm0        # xmm0 = mem[0],zero
	vmovsd	%xmm0, -72(%rbp)
	movslq	-4(%rbp), %rax
	vmovsd	ReferenceMAD(,%rax,8), %xmm0 # xmm0 = mem[0],zero
	movslq	-4(%rbp), %rax
	vmulsd	ReferenceMAD(,%rax,8), %xmm0, %xmm0
	vaddsd	-48(%rbp), %xmm0, %xmm0
	vmovsd	%xmm0, -48(%rbp)
	movslq	-4(%rbp), %rax
	vmovsd	PictureMAD(,%rax,8), %xmm0 # xmm0 = mem[0],zero
	vaddsd	-32(%rbp), %xmm0, %xmm0
	vmovsd	%xmm0, -32(%rbp)
	movslq	-4(%rbp), %rax
	vmovsd	PictureMAD(,%rax,8), %xmm0 # xmm0 = mem[0],zero
	movslq	-4(%rbp), %rax
	vmulsd	ReferenceMAD(,%rax,8), %xmm0, %xmm0
	vaddsd	-64(%rbp), %xmm0, %xmm0
	vmovsd	%xmm0, -64(%rbp)
.LBB21_27:                              # %if.end69
                                        #   in Loop: Header=BB21_24 Depth=1
	jmp	.LBB21_28
.LBB21_28:                              # %for.inc70
                                        #   in Loop: Header=BB21_24 Depth=1
	movl	-4(%rbp), %eax
	addl	$1, %eax
	movl	%eax, -4(%rbp)
	jmp	.LBB21_24
.LBB21_29:                              # %for.end72
	vmovsd	.LCPI21_0(%rip), %xmm0  # xmm0 = mem[0],zero
	vmovsd	-56(%rbp), %xmm1        # xmm1 = mem[0],zero
	vmulsd	-48(%rbp), %xmm1, %xmm1
	vmovsd	-24(%rbp), %xmm2        # xmm2 = mem[0],zero
	vmulsd	-72(%rbp), %xmm2, %xmm2
	vsubsd	%xmm2, %xmm1, %xmm1
	vmovsd	%xmm1, -80(%rbp)
	vmovsd	-80(%rbp), %xmm1        # xmm1 = mem[0],zero
	vmovdqa	.LCPI21_1(%rip), %xmm2  # xmm2 = [NaN,NaN]
	vpand	%xmm2, %xmm1, %xmm1
	vucomisd	%xmm0, %xmm1
	jbe	.LBB21_31
# %bb.30:                               # %if.then77
	vmovsd	-32(%rbp), %xmm0        # xmm0 = mem[0],zero
	vmulsd	-48(%rbp), %xmm0, %xmm0
	vmovsd	-64(%rbp), %xmm1        # xmm1 = mem[0],zero
	vmulsd	-24(%rbp), %xmm1, %xmm1
	vsubsd	%xmm1, %xmm0, %xmm0
	vdivsd	-80(%rbp), %xmm0, %xmm0
	vmovsd	%xmm0, MADPictureC2
	vmovsd	-64(%rbp), %xmm0        # xmm0 = mem[0],zero
	vmulsd	-56(%rbp), %xmm0, %xmm0
	vmovsd	-32(%rbp), %xmm1        # xmm1 = mem[0],zero
	vmulsd	-72(%rbp), %xmm1, %xmm1
	vsubsd	%xmm1, %xmm0, %xmm0
	vdivsd	-80(%rbp), %xmm0, %xmm0
	vmovsd	%xmm0, MADPictureC1
	jmp	.LBB21_32
.LBB21_31:                              # %if.else
	vmovsd	-32(%rbp), %xmm0        # xmm0 = mem[0],zero
	vdivsd	-24(%rbp), %xmm0, %xmm0
	vmovsd	%xmm0, MADPictureC1
	vxorps	%xmm0, %xmm0, %xmm0
	vmovsd	%xmm0, MADPictureC2
.LBB21_32:                              # %if.end87
	jmp	.LBB21_33
.LBB21_33:                              # %if.end88
	movq	img, %rax
	cmpl	$0, 24(%rax)
	jne	.LBB21_35
# %bb.34:                               # %if.then91
	vmovsd	MADPictureC1, %xmm0     # xmm0 = mem[0],zero
	vmovsd	%xmm0, PMADPictureC1
	vmovsd	MADPictureC2, %xmm0     # xmm0 = mem[0],zero
	vmovsd	%xmm0, PMADPictureC2
.LBB21_35:                              # %if.end92
	cmpl	$781617767, -84(%rbp)   # imm = 0x2E968A67
	jne	.LBB21_37
.LBB21_36:
	addq	$96, %rsp
	popq	%rbp
	.cfi_def_cfa %rsp, 8
	retq
.LBB21_37:                              # %func_exit
	.cfi_def_cfa %rbp, 16
	callq	detect_breach
	jmp	.LBB21_36
.Lfunc_end21:
	.size	MADModelEstimator.5, .Lfunc_end21-MADModelEstimator.5
	.cfi_endproc
                                        # -- End function
	.section	.rodata.cst8,"aM",@progbits,8
	.p2align	3               # -- Begin function rc_update_pict_frame.6
.LCPI22_0:
	.quad	4602678819172646912     # double 0.5
.LCPI22_1:
	.quad	4608819927624529320     # double 1.3635999999999999
	.text
	.globl	rc_update_pict_frame.6
	.p2align	4, 0x90
	.type	rc_update_pict_frame.6,@function
rc_update_pict_frame.6:                 # @rc_update_pict_frame.6
	.cfi_startproc
# %bb.0:                                # %entry
	pushq	%rbp
	.cfi_def_cfa_offset 16
	.cfi_offset %rbp, -16
	movq	%rsp, %rbp
	.cfi_def_cfa_register %rbp
	subq	$16, %rsp
	movl	$510203102, -16(%rbp)   # imm = 0x1E6914DE
	movl	%edi, -8(%rbp)
	movl	$0, -4(%rbp)
	movq	img, %rax
	movl	72620(%rax), %eax
	movq	img, %rcx
	cmpl	72608(%rcx), %eax
	jne	.LBB22_2
# %bb.1:                                # %if.then
	vmovsd	.LCPI22_0(%rip), %xmm0  # xmm0 = mem[0],zero
	movl	-8(%rbp), %eax
	imull	m_Qc, %eax
	vcvtsi2sd	%eax, %xmm0, %xmm1
	vaddsd	%xmm0, %xmm1, %xmm0
	vroundsd	$9, %xmm0, %xmm0, %xmm0
	vcvttsd2si	%xmm0, %eax
	movl	%eax, -4(%rbp)
	jmp	.LBB22_12
.LBB22_2:                               # %if.else
	movq	img, %rax
	cmpl	$0, 24(%rax)
	jne	.LBB22_8
# %bb.3:                                # %if.then4
	movq	img, %rax
	cmpl	$0, 72612(%rax)
	jne	.LBB22_5
# %bb.4:                                # %land.lhs.true
	movq	img, %rax
	cmpl	$1, 72600(%rax)
	je	.LBB22_6
.LBB22_5:                               # %lor.lhs.false
	movq	img, %rax
	cmpl	$0, 72600(%rax)
	jne	.LBB22_7
.LBB22_6:                               # %if.then12
	vmovsd	.LCPI22_0(%rip), %xmm0  # xmm0 = mem[0],zero
	movl	TotalFrameQP, %eax
	cltd
	idivl	TotalNumberofBasicUnit
	movl	%eax, -12(%rbp)
	movl	-8(%rbp), %eax
	imull	-12(%rbp), %eax
	vcvtsi2sd	%eax, %xmm0, %xmm1
	vaddsd	%xmm0, %xmm1, %xmm0
	vroundsd	$9, %xmm0, %xmm0, %xmm0
	vcvttsd2si	%xmm0, %eax
	movl	%eax, -4(%rbp)
.LBB22_7:                               # %if.end
	jmp	.LBB22_11
.LBB22_8:                               # %if.else17
	movq	img, %rax
	cmpl	$1, 24(%rax)
	jne	.LBB22_10
# %bb.9:                                # %if.then21
	vmovsd	.LCPI22_0(%rip), %xmm0  # xmm0 = mem[0],zero
	movl	-8(%rbp), %eax
	imull	m_Qc, %eax
	vcvtsi2sd	%eax, %xmm0, %xmm1
	vaddsd	%xmm0, %xmm1, %xmm0
	vroundsd	$9, %xmm0, %xmm0, %xmm0
	vcvttsd2si	%xmm0, %eax
	movl	%eax, -4(%rbp)
.LBB22_10:                              # %if.end26
	jmp	.LBB22_11
.LBB22_11:                              # %if.end27
	jmp	.LBB22_12
.LBB22_12:                              # %if.end28
	movq	img(%rip), %rax
	movl	24(%rax), %eax
	testl	%eax, %eax
	je	.LBB22_14
	jmp	.LBB22_13
.LBB22_13:                              # %if.end28
	subl	$1, %eax
	je	.LBB22_23
	jmp	.LBB22_24
.LBB22_14:                              # %sw.bb
	movq	img, %rax
	cmpl	$0, 72612(%rax)
	jne	.LBB22_16
# %bb.15:                               # %land.lhs.true33
	movq	img, %rax
	cmpl	$1, 72600(%rax)
	je	.LBB22_17
.LBB22_16:                              # %lor.lhs.false37
	movq	img, %rax
	cmpl	$0, 72600(%rax)
	jne	.LBB22_18
.LBB22_17:                              # %if.then41
	movl	-4(%rbp), %eax
	movl	%eax, Xp
	movl	Np, %eax
	addl	$-1, %eax
	movl	%eax, Np
	vcvtsi2sdl	Xp, %xmm0, %xmm0
	vmovsd	%xmm0, Wp
	movq	img, %rax
	movl	72524(%rax), %eax
	movl	%eax, Pm_Hp
	movq	img, %rax
	movl	72564(%rax), %ecx
	addl	$1, %ecx
	movl	%ecx, 72564(%rax)
	movq	img, %rax
	movl	72576(%rax), %ecx
	addl	$1, %ecx
	movl	%ecx, 72576(%rax)
	jmp	.LBB22_22
.LBB22_18:                              # %if.else44
	movq	img, %rax
	cmpl	$0, 72612(%rax)
	je	.LBB22_21
# %bb.19:                               # %land.lhs.true48
	movq	img, %rax
	cmpl	$1, 72600(%rax)
	jne	.LBB22_21
# %bb.20:                               # %if.then52
	movq	img, %rax
	movl	$0, 72612(%rax)
.LBB22_21:                              # %if.end54
	jmp	.LBB22_22
.LBB22_22:                              # %if.end55
	jmp	.LBB22_24
.LBB22_23:                              # %sw.bb56
	vmovsd	.LCPI22_1(%rip), %xmm0  # xmm0 = mem[0],zero
	movl	-4(%rbp), %eax
	movl	%eax, Xb
	movl	Nb, %eax
	addl	$-1, %eax
	movl	%eax, Nb
	vcvtsi2sdl	Xb, %xmm0, %xmm1
	vdivsd	%xmm0, %xmm1, %xmm0
	vmovsd	%xmm0, Wb
	movq	img, %rax
	movl	72560(%rax), %ecx
	addl	$1, %ecx
	movl	%ecx, 72560(%rax)
	movl	NumberofBFrames, %eax
	addl	$1, %eax
	movl	%eax, NumberofBFrames
.LBB22_24:                              # %sw.epilog
	cmpl	$510203102, -16(%rbp)   # imm = 0x1E6914DE
	jne	.LBB22_26
.LBB22_25:
	addq	$16, %rsp
	popq	%rbp
	.cfi_def_cfa %rsp, 8
	retq
.LBB22_26:                              # %func_exit
	.cfi_def_cfa %rbp, 16
	callq	detect_breach
	jmp	.LBB22_25
.Lfunc_end22:
	.size	rc_update_pict_frame.6, .Lfunc_end22-rc_update_pict_frame.6
	.cfi_endproc
                                        # -- End function
	.section	.rodata.cst8,"aM",@progbits,8
	.p2align	3               # -- Begin function rc_update_pict_frame.7
.LCPI23_0:
	.quad	4602678819172646912     # double 0.5
.LCPI23_1:
	.quad	4608819927624529320     # double 1.3635999999999999
	.text
	.globl	rc_update_pict_frame.7
	.p2align	4, 0x90
	.type	rc_update_pict_frame.7,@function
rc_update_pict_frame.7:                 # @rc_update_pict_frame.7
	.cfi_startproc
# %bb.0:                                # %entry
	pushq	%rbp
	.cfi_def_cfa_offset 16
	.cfi_offset %rbp, -16
	movq	%rsp, %rbp
	.cfi_def_cfa_register %rbp
	subq	$16, %rsp
	movl	$934246417, -16(%rbp)   # imm = 0x37AF7811
	movl	%edi, -8(%rbp)
	movl	$0, -4(%rbp)
	movq	img, %rax
	movl	72620(%rax), %eax
	movq	img, %rcx
	cmpl	72608(%rcx), %eax
	jne	.LBB23_2
# %bb.1:                                # %if.then
	vmovsd	.LCPI23_0(%rip), %xmm0  # xmm0 = mem[0],zero
	movl	-8(%rbp), %eax
	imull	m_Qc, %eax
	vcvtsi2sd	%eax, %xmm0, %xmm1
	vaddsd	%xmm0, %xmm1, %xmm0
	vroundsd	$9, %xmm0, %xmm0, %xmm0
	vcvttsd2si	%xmm0, %eax
	movl	%eax, -4(%rbp)
	jmp	.LBB23_12
.LBB23_2:                               # %if.else
	movq	img, %rax
	cmpl	$0, 24(%rax)
	jne	.LBB23_8
# %bb.3:                                # %if.then4
	movq	img, %rax
	cmpl	$0, 72612(%rax)
	jne	.LBB23_5
# %bb.4:                                # %land.lhs.true
	movq	img, %rax
	cmpl	$1, 72600(%rax)
	je	.LBB23_6
.LBB23_5:                               # %lor.lhs.false
	movq	img, %rax
	cmpl	$0, 72600(%rax)
	jne	.LBB23_7
.LBB23_6:                               # %if.then12
	vmovsd	.LCPI23_0(%rip), %xmm0  # xmm0 = mem[0],zero
	movl	TotalFrameQP, %eax
	cltd
	idivl	TotalNumberofBasicUnit
	movl	%eax, -12(%rbp)
	movl	-8(%rbp), %eax
	imull	-12(%rbp), %eax
	vcvtsi2sd	%eax, %xmm0, %xmm1
	vaddsd	%xmm0, %xmm1, %xmm0
	vroundsd	$9, %xmm0, %xmm0, %xmm0
	vcvttsd2si	%xmm0, %eax
	movl	%eax, -4(%rbp)
.LBB23_7:                               # %if.end
	jmp	.LBB23_11
.LBB23_8:                               # %if.else17
	movq	img, %rax
	cmpl	$1, 24(%rax)
	jne	.LBB23_10
# %bb.9:                                # %if.then21
	vmovsd	.LCPI23_0(%rip), %xmm0  # xmm0 = mem[0],zero
	movl	-8(%rbp), %eax
	imull	m_Qc, %eax
	vcvtsi2sd	%eax, %xmm0, %xmm1
	vaddsd	%xmm0, %xmm1, %xmm0
	vroundsd	$9, %xmm0, %xmm0, %xmm0
	vcvttsd2si	%xmm0, %eax
	movl	%eax, -4(%rbp)
.LBB23_10:                              # %if.end26
	jmp	.LBB23_11
.LBB23_11:                              # %if.end27
	jmp	.LBB23_12
.LBB23_12:                              # %if.end28
	movq	img(%rip), %rax
	movl	24(%rax), %eax
	testl	%eax, %eax
	je	.LBB23_14
	jmp	.LBB23_13
.LBB23_13:                              # %if.end28
	subl	$1, %eax
	je	.LBB23_23
	jmp	.LBB23_24
.LBB23_14:                              # %sw.bb
	movq	img, %rax
	cmpl	$0, 72612(%rax)
	jne	.LBB23_16
# %bb.15:                               # %land.lhs.true33
	movq	img, %rax
	cmpl	$1, 72600(%rax)
	je	.LBB23_17
.LBB23_16:                              # %lor.lhs.false37
	movq	img, %rax
	cmpl	$0, 72600(%rax)
	jne	.LBB23_18
.LBB23_17:                              # %if.then41
	movl	-4(%rbp), %eax
	movl	%eax, Xp
	movl	Np, %eax
	addl	$-1, %eax
	movl	%eax, Np
	vcvtsi2sdl	Xp, %xmm0, %xmm0
	vmovsd	%xmm0, Wp
	movq	img, %rax
	movl	72524(%rax), %eax
	movl	%eax, Pm_Hp
	movq	img, %rax
	movl	72564(%rax), %ecx
	addl	$1, %ecx
	movl	%ecx, 72564(%rax)
	movq	img, %rax
	movl	72576(%rax), %ecx
	addl	$1, %ecx
	movl	%ecx, 72576(%rax)
	jmp	.LBB23_22
.LBB23_18:                              # %if.else44
	movq	img, %rax
	cmpl	$0, 72612(%rax)
	je	.LBB23_21
# %bb.19:                               # %land.lhs.true48
	movq	img, %rax
	cmpl	$1, 72600(%rax)
	jne	.LBB23_21
# %bb.20:                               # %if.then52
	movq	img, %rax
	movl	$0, 72612(%rax)
.LBB23_21:                              # %if.end54
	jmp	.LBB23_22
.LBB23_22:                              # %if.end55
	jmp	.LBB23_24
.LBB23_23:                              # %sw.bb56
	vmovsd	.LCPI23_1(%rip), %xmm0  # xmm0 = mem[0],zero
	movl	-4(%rbp), %eax
	movl	%eax, Xb
	movl	Nb, %eax
	addl	$-1, %eax
	movl	%eax, Nb
	vcvtsi2sdl	Xb, %xmm0, %xmm1
	vdivsd	%xmm0, %xmm1, %xmm0
	vmovsd	%xmm0, Wb
	movq	img, %rax
	movl	72560(%rax), %ecx
	addl	$1, %ecx
	movl	%ecx, 72560(%rax)
	movl	NumberofBFrames, %eax
	addl	$1, %eax
	movl	%eax, NumberofBFrames
.LBB23_24:                              # %sw.epilog
	cmpl	$934246417, -16(%rbp)   # imm = 0x37AF7811
	jne	.LBB23_26
.LBB23_25:
	addq	$16, %rsp
	popq	%rbp
	.cfi_def_cfa %rsp, 8
	retq
.LBB23_26:                              # %func_exit
	.cfi_def_cfa %rbp, 16
	callq	detect_breach
	jmp	.LBB23_25
.Lfunc_end23:
	.size	rc_update_pict_frame.7, .Lfunc_end23-rc_update_pict_frame.7
	.cfi_endproc
                                        # -- End function
	.section	.rodata.cst8,"aM",@progbits,8
	.p2align	3               # -- Begin function updateQuantizationParameter.8
.LCPI24_0:
	.quad	4616189618054758400     # double 4
.LCPI24_1:
	.quad	4611686018427387904     # double 2
.LCPI24_2:
	.quad	4602678819172646912     # double 0.5
.LCPI24_3:
	.quad	4607182418800017408     # double 1
	.text
	.globl	updateQuantizationParameter.8
	.p2align	4, 0x90
	.type	updateQuantizationParameter.8,@function
updateQuantizationParameter.8:          # @updateQuantizationParameter.8
	.cfi_startproc
# %bb.0:                                # %entry
	pushq	%rbp
	.cfi_def_cfa_offset 16
	.cfi_offset %rbp, -16
	movq	%rsp, %rbp
	.cfi_def_cfa_register %rbp
	pushq	%rbx
	subq	$72, %rsp
	.cfi_offset %rbx, -24
	movl	$1580432784, -56(%rbp)  # imm = 0x5E337D90
	movl	%edi, -36(%rbp)
	movq	img, %rax
	movl	72620(%rax), %eax
	movq	img, %rcx
	cmpl	72608(%rcx), %eax
	jne	.LBB24_123
# %bb.1:                                # %if.then
	cmpl	$0, -36(%rbp)
	jne	.LBB24_3
# %bb.2:                                # %lor.lhs.false
	movq	img, %rax
	cmpl	$0, 72600(%rax)
	jne	.LBB24_116
.LBB24_3:                               # %if.then2
	movq	img, %rax
	cmpl	$2, 24(%rax)
	jne	.LBB24_5
# %bb.4:                                # %if.then4
	movl	MyInitialQp, %eax
	movl	%eax, m_Qc
	movl	m_Qc, %eax
	movl	%eax, -20(%rbp)
	jmp	.LBB24_363
.LBB24_5:                               # %if.else
	movq	img, %rax
	cmpl	$1, 24(%rax)
	jne	.LBB24_69
# %bb.6:                                # %if.then7
	movq	input, %rax
	cmpl	$1, 1236(%rax)
	jne	.LBB24_25
# %bb.7:                                # %if.then9
	movq	input, %rax
	cmpl	$2, 2880(%rax)
	je	.LBB24_9
# %bb.8:                                # %lor.lhs.false11
	movq	input, %rax
	cmpl	$0, 2884(%rax)
	je	.LBB24_15
.LBB24_9:                               # %if.then13
	movq	img, %rax
	cmpl	$0, 72600(%rax)
	jne	.LBB24_14
# %bb.10:                               # %if.then16
	movq	img, %rax
	cmpl	$1, 72604(%rax)
	jne	.LBB24_12
# %bb.11:                               # %if.then18
	movl	PreviousQp2, %eax
	movl	%eax, PreviousQp1
	movl	FrameQPBuffer, %eax
	movl	%eax, PreviousQp2
	jmp	.LBB24_13
.LBB24_12:                              # %if.else19
	movl	PreviousQp2, %eax
	movl	%eax, PreviousQp1
	movl	FieldQPBuffer, %eax
	movl	%eax, PreviousQp2
.LBB24_13:                              # %if.end
	jmp	.LBB24_14
.LBB24_14:                              # %if.end20
	jmp	.LBB24_15
.LBB24_15:                              # %if.end21
	movl	PreviousQp1, %eax
	cmpl	PreviousQp2, %eax
	jne	.LBB24_17
# %bb.16:                               # %if.then23
	movl	PreviousQp1, %eax
	addl	$2, %eax
	movl	%eax, m_Qc
	jmp	.LBB24_18
.LBB24_17:                              # %if.else24
	movl	PreviousQp1, %eax
	addl	PreviousQp2, %eax
	cltd
	movl	$2, %ecx
	idivl	%ecx
	addl	$1, %eax
	movl	%eax, m_Qc
.LBB24_18:                              # %if.end27
	movl	m_Qc, %eax
	cmpl	RC_MAX_QUANT, %eax
	jge	.LBB24_20
# %bb.19:                               # %cond.true
	movl	m_Qc, %eax
	jmp	.LBB24_21
.LBB24_20:                              # %cond.false
	movl	RC_MAX_QUANT, %eax
.LBB24_21:                              # %cond.end
	movl	%eax, m_Qc
	movl	RC_MIN_QUANT, %eax
	cmpl	m_Qc, %eax
	jge	.LBB24_23
# %bb.22:                               # %cond.true30
	movl	m_Qc, %eax
	jmp	.LBB24_24
.LBB24_23:                              # %cond.false31
	movl	RC_MIN_QUANT, %eax
.LBB24_24:                              # %cond.end32
	movl	%eax, m_Qc
	jmp	.LBB24_68
.LBB24_25:                              # %if.else34
	movl	NumberofBFrames, %eax
	addl	$1, %eax
	movq	input, %rcx
	cltd
	idivl	1236(%rcx)
	movl	%edx, -12(%rbp)
	cmpl	$0, -12(%rbp)
	jne	.LBB24_27
# %bb.26:                               # %if.then38
	movq	input, %rax
	movl	1236(%rax), %eax
	movl	%eax, -12(%rbp)
.LBB24_27:                              # %if.end40
	cmpl	$1, -12(%rbp)
	jne	.LBB24_37
# %bb.28:                               # %if.then42
	movq	input, %rax
	cmpl	$2, 2880(%rax)
	je	.LBB24_30
# %bb.29:                               # %lor.lhs.false45
	movq	input, %rax
	cmpl	$0, 2884(%rax)
	je	.LBB24_36
.LBB24_30:                              # %if.then48
	movq	img, %rax
	cmpl	$0, 72600(%rax)
	jne	.LBB24_35
# %bb.31:                               # %if.then51
	movq	img, %rax
	cmpl	$1, 72604(%rax)
	jne	.LBB24_33
# %bb.32:                               # %if.then54
	movl	PreviousQp2, %eax
	movl	%eax, PreviousQp1
	movl	FrameQPBuffer, %eax
	movl	%eax, PreviousQp2
	jmp	.LBB24_34
.LBB24_33:                              # %if.else55
	movl	PreviousQp2, %eax
	movl	%eax, PreviousQp1
	movl	FieldQPBuffer, %eax
	movl	%eax, PreviousQp2
.LBB24_34:                              # %if.end56
	jmp	.LBB24_35
.LBB24_35:                              # %if.end57
	jmp	.LBB24_36
.LBB24_36:                              # %if.end58
	jmp	.LBB24_37
.LBB24_37:                              # %if.end59
	movl	PreviousQp2, %eax
	subl	PreviousQp1, %eax
	movq	input, %rcx
	imull	$4294967294, 1236(%rcx), %ecx # imm = 0xFFFFFFFE
	subl	$3, %ecx
	cmpl	%ecx, %eax
	jg	.LBB24_39
# %bb.38:                               # %if.then63
	movl	$-3, -28(%rbp)
	jmp	.LBB24_52
.LBB24_39:                              # %if.else64
	movl	PreviousQp2, %eax
	subl	PreviousQp1, %eax
	movq	input, %rcx
	imull	$4294967294, 1236(%rcx), %ecx # imm = 0xFFFFFFFE
	subl	$2, %ecx
	cmpl	%ecx, %eax
	jne	.LBB24_41
# %bb.40:                               # %if.then70
	movl	$-2, -28(%rbp)
	jmp	.LBB24_51
.LBB24_41:                              # %if.else71
	movl	PreviousQp2, %eax
	subl	PreviousQp1, %eax
	movq	input, %rcx
	imull	$4294967294, 1236(%rcx), %ecx # imm = 0xFFFFFFFE
	subl	$1, %ecx
	cmpl	%ecx, %eax
	jne	.LBB24_43
# %bb.42:                               # %if.then77
	movl	$-1, -28(%rbp)
	jmp	.LBB24_50
.LBB24_43:                              # %if.else78
	movl	PreviousQp2, %eax
	subl	PreviousQp1, %eax
	movq	input, %rcx
	imull	$4294967294, 1236(%rcx), %ecx # imm = 0xFFFFFFFE
	cmpl	%ecx, %eax
	jne	.LBB24_45
# %bb.44:                               # %if.then83
	movl	$0, -28(%rbp)
	jmp	.LBB24_49
.LBB24_45:                              # %if.else84
	movl	PreviousQp2, %eax
	subl	PreviousQp1, %eax
	movq	input, %rcx
	imull	$4294967294, 1236(%rcx), %ecx # imm = 0xFFFFFFFE
	addl	$1, %ecx
	cmpl	%ecx, %eax
	jne	.LBB24_47
# %bb.46:                               # %if.then90
	movl	$1, -28(%rbp)
	jmp	.LBB24_48
.LBB24_47:                              # %if.else91
	movl	$2, -28(%rbp)
.LBB24_48:                              # %if.end92
	jmp	.LBB24_49
.LBB24_49:                              # %if.end93
	jmp	.LBB24_50
.LBB24_50:                              # %if.end94
	jmp	.LBB24_51
.LBB24_51:                              # %if.end95
	jmp	.LBB24_52
.LBB24_52:                              # %if.end96
	movl	PreviousQp1, %eax
	addl	-28(%rbp), %eax
	movl	%eax, m_Qc
	movl	-12(%rbp), %ecx
	subl	$1, %ecx
	shll	$1, %ecx
	movl	-12(%rbp), %eax
	subl	$1, %eax
	imull	$4294967294, %eax, %esi # imm = 0xFFFFFFFE
	movl	-12(%rbp), %eax
	subl	$1, %eax
	movl	PreviousQp2, %edx
	subl	PreviousQp1, %edx
	imull	%edx, %eax
	movq	input, %rdx
	movl	1236(%rdx), %edi
	subl	$1, %edi
	cltd
	idivl	%edi
	cmpl	%eax, %esi
	jge	.LBB24_54
# %bb.53:                               # %cond.true109
	movl	-12(%rbp), %eax
	subl	$1, %eax
	movl	PreviousQp2, %edx
	subl	PreviousQp1, %edx
	imull	%edx, %eax
	movq	input, %rdx
	movl	1236(%rdx), %esi
	subl	$1, %esi
	cltd
	idivl	%esi
	jmp	.LBB24_55
.LBB24_54:                              # %cond.false116
	movl	-12(%rbp), %eax
	subl	$1, %eax
	imull	$4294967294, %eax, %eax # imm = 0xFFFFFFFE
.LBB24_55:                              # %cond.end119
	cmpl	%eax, %ecx
	jge	.LBB24_57
# %bb.56:                               # %cond.true122
	movl	-12(%rbp), %eax
	subl	$1, %eax
	shll	$1, %eax
	jmp	.LBB24_61
.LBB24_57:                              # %cond.false125
	movl	-12(%rbp), %eax
	subl	$1, %eax
	imull	$4294967294, %eax, %ecx # imm = 0xFFFFFFFE
	movl	-12(%rbp), %eax
	subl	$1, %eax
	movl	PreviousQp2, %edx
	subl	PreviousQp1, %edx
	imull	%edx, %eax
	movq	input, %rdx
	movl	1236(%rdx), %esi
	subl	$1, %esi
	cltd
	idivl	%esi
	cmpl	%eax, %ecx
	jge	.LBB24_59
# %bb.58:                               # %cond.true135
	movl	-12(%rbp), %eax
	subl	$1, %eax
	movl	PreviousQp2, %ecx
	subl	PreviousQp1, %ecx
	imull	%ecx, %eax
	movq	input, %rcx
	movl	1236(%rcx), %ecx
	subl	$1, %ecx
	cltd
	idivl	%ecx
	jmp	.LBB24_60
.LBB24_59:                              # %cond.false142
	movl	-12(%rbp), %eax
	subl	$1, %eax
	imull	$4294967294, %eax, %eax # imm = 0xFFFFFFFE
.LBB24_60:                              # %cond.end145
.LBB24_61:                              # %cond.end147
	addl	m_Qc, %eax
	movl	%eax, m_Qc
	movl	m_Qc, %eax
	cmpl	RC_MAX_QUANT, %eax
	jge	.LBB24_63
# %bb.62:                               # %cond.true151
	movl	m_Qc, %eax
	jmp	.LBB24_64
.LBB24_63:                              # %cond.false152
	movl	RC_MAX_QUANT, %eax
.LBB24_64:                              # %cond.end153
	movl	%eax, m_Qc
	movl	RC_MIN_QUANT, %eax
	cmpl	m_Qc, %eax
	jge	.LBB24_66
# %bb.65:                               # %cond.true156
	movl	m_Qc, %eax
	jmp	.LBB24_67
.LBB24_66:                              # %cond.false157
	movl	RC_MIN_QUANT, %eax
.LBB24_67:                              # %cond.end158
	movl	%eax, m_Qc
.LBB24_68:                              # %if.end160
	movl	m_Qc, %eax
	movl	%eax, -20(%rbp)
	jmp	.LBB24_363
.LBB24_69:                              # %if.else161
	movq	img, %rax
	cmpl	$0, 24(%rax)
	jne	.LBB24_77
# %bb.70:                               # %land.lhs.true
	movq	img, %rax
	cmpl	$0, 72576(%rax)
	jne	.LBB24_77
# %bb.71:                               # %if.then165
	movl	MyInitialQp, %eax
	movl	%eax, m_Qc
	movq	img, %rax
	cmpl	$0, 72600(%rax)
	jne	.LBB24_76
# %bb.72:                               # %if.then168
	movq	active_sps, %rax
	cmpl	$0, 1148(%rax)
	je	.LBB24_74
# %bb.73:                               # %if.then170
	movl	m_Qc, %eax
	movq	img, %rcx
	addl	72572(%rcx), %eax
	movl	%eax, 72572(%rcx)
	movl	PreviousQp2, %eax
	movl	%eax, PreviousQp1
	movl	m_Qc, %eax
	movl	%eax, PreviousQp2
	movl	m_Qc, %eax
	movl	%eax, Pm_Qp
	jmp	.LBB24_75
.LBB24_74:                              # %if.else172
	movl	m_Qc, %eax
	movl	%eax, FrameQPBuffer
.LBB24_75:                              # %if.end173
	jmp	.LBB24_76
.LBB24_76:                              # %if.end174
	movl	m_Qc, %eax
	movl	%eax, -20(%rbp)
	jmp	.LBB24_363
.LBB24_77:                              # %if.else175
	movq	input, %rax
	cmpl	$2, 2880(%rax)
	je	.LBB24_79
# %bb.78:                               # %lor.lhs.false178
	movq	input, %rax
	cmpl	$0, 2884(%rax)
	je	.LBB24_84
.LBB24_79:                              # %land.lhs.true181
	movq	img, %rax
	cmpl	$0, 72600(%rax)
	jne	.LBB24_84
# %bb.80:                               # %if.then184
	movq	img, %rax
	cmpl	$1, 72604(%rax)
	jne	.LBB24_82
# %bb.81:                               # %if.then187
	movl	FrameQPBuffer, %eax
	movq	img, %rcx
	addl	72572(%rcx), %eax
	movl	%eax, 72572(%rcx)
	movl	FrameQPBuffer, %eax
	movl	%eax, Pm_Qp
	jmp	.LBB24_83
.LBB24_82:                              # %if.else190
	movl	FieldQPBuffer, %eax
	movq	img, %rcx
	addl	72572(%rcx), %eax
	movl	%eax, 72572(%rcx)
	movl	FieldQPBuffer, %eax
	movl	%eax, Pm_Qp
.LBB24_83:                              # %if.end193
	jmp	.LBB24_84
.LBB24_84:                              # %if.end194
	vmovsd	Pm_X1, %xmm0            # xmm0 = mem[0],zero
	vmovsd	%xmm0, m_X1
	vmovsd	Pm_X2, %xmm0            # xmm0 = mem[0],zero
	vmovsd	%xmm0, m_X2
	movl	PPreHeader, %eax
	movl	%eax, m_Hp
	movl	Pm_Qp, %eax
	movl	%eax, m_Qp
	movl	PDuantQp, %eax
	movl	%eax, DuantQp
	vmovsd	PMADPictureC1, %xmm0    # xmm0 = mem[0],zero
	vmovsd	%xmm0, MADPictureC1
	vmovsd	PMADPictureC2, %xmm0    # xmm0 = mem[0],zero
	vmovsd	%xmm0, MADPictureC2
	vmovsd	PPictureMAD, %xmm0      # xmm0 = mem[0],zero
	vmovsd	%xmm0, PreviousPictureMAD
	vmovsd	MADPictureC1, %xmm0     # xmm0 = mem[0],zero
	vmulsd	PreviousPictureMAD, %xmm0, %xmm0
	vaddsd	MADPictureC2, %xmm0, %xmm0
	vmovsd	%xmm0, CurrentFrameMAD
	cmpq	$0, T
	jge	.LBB24_89
# %bb.85:                               # %if.then198
	movl	m_Qp, %eax
	addl	DuantQp, %eax
	movl	%eax, m_Qc
	movl	m_Qc, %eax
	cmpl	RC_MAX_QUANT, %eax
	jge	.LBB24_87
# %bb.86:                               # %cond.true201
	movl	m_Qc, %eax
	jmp	.LBB24_88
.LBB24_87:                              # %cond.false202
	movl	RC_MAX_QUANT, %eax
.LBB24_88:                              # %cond.end203
	movl	%eax, m_Qc
	jmp	.LBB24_110
.LBB24_89:                              # %if.else205
	movq	T, %rax
	movslq	m_Hp, %rcx
	subq	%rcx, %rax
	movl	%eax, -24(%rbp)
	movl	-24(%rbp), %eax
	vmovsd	bit_rate, %xmm0         # xmm0 = mem[0],zero
	vmovsd	MINVALUE, %xmm1         # xmm1 = mem[0],zero
	vmulsd	frame_rate, %xmm1, %xmm1
	vdivsd	%xmm1, %xmm0, %xmm0
	vcvttsd2si	%xmm0, %ecx
	cmpl	%ecx, %eax
	jge	.LBB24_91
# %bb.90:                               # %cond.true213
	vmovsd	bit_rate, %xmm0         # xmm0 = mem[0],zero
	vmovsd	MINVALUE, %xmm1         # xmm1 = mem[0],zero
	vmulsd	frame_rate, %xmm1, %xmm1
	vdivsd	%xmm1, %xmm0, %xmm0
	vcvttsd2si	%xmm0, %eax
	jmp	.LBB24_92
.LBB24_91:                              # %cond.false217
	movl	-24(%rbp), %eax
.LBB24_92:                              # %cond.end218
	vmovsd	.LCPI24_0(%rip), %xmm0  # xmm0 = mem[0],zero
	movl	%eax, -24(%rbp)
	vmovsd	CurrentFrameMAD, %xmm1  # xmm1 = mem[0],zero
	vmulsd	m_X1, %xmm1, %xmm1
	vmulsd	CurrentFrameMAD, %xmm1, %xmm1
	vmulsd	m_X1, %xmm1, %xmm1
	vmulsd	m_X2, %xmm0, %xmm0
	vmulsd	CurrentFrameMAD, %xmm0, %xmm0
	vcvtsi2sdl	-24(%rbp), %xmm0, %xmm2
	vmulsd	%xmm2, %xmm0, %xmm0
	vaddsd	%xmm0, %xmm1, %xmm0
	vmovsd	%xmm0, -48(%rbp)
	vmovsd	m_X2, %xmm0             # xmm0 = mem[0],zero
	vxorps	%xmm1, %xmm1, %xmm1
	vucomisd	%xmm1, %xmm0
	jne	.LBB24_93
	jp	.LBB24_93
	jmp	.LBB24_95
.LBB24_93:                              # %lor.lhs.false230
	vxorps	%xmm0, %xmm0, %xmm0
	vucomisd	-48(%rbp), %xmm0
	ja	.LBB24_95
# %bb.94:                               # %lor.lhs.false233
	vmovsd	-48(%rbp), %xmm0        # xmm0 = mem[0],zero
	callq	sqrt
	vmovsd	m_X1, %xmm1             # xmm1 = mem[0],zero
	vmulsd	CurrentFrameMAD, %xmm1, %xmm1
	vsubsd	%xmm1, %xmm0, %xmm0
	vxorps	%xmm1, %xmm1, %xmm1
	vucomisd	%xmm0, %xmm1
	jb	.LBB24_96
.LBB24_95:                              # %if.then238
	vmovsd	m_X1, %xmm0             # xmm0 = mem[0],zero
	vmulsd	CurrentFrameMAD, %xmm0, %xmm0
	vcvtsi2sdl	-24(%rbp), %xmm0, %xmm1
	vdivsd	%xmm1, %xmm0, %xmm0
	vcvtsd2ss	%xmm0, %xmm0, %xmm0
	vcvtss2sd	%xmm0, %xmm0, %xmm0
	vmovsd	%xmm0, m_Qstep
	jmp	.LBB24_97
.LBB24_96:                              # %if.else244
	vmovsd	.LCPI24_1(%rip), %xmm0  # xmm0 = mem[0],zero
	vmulsd	m_X2, %xmm0, %xmm0
	vmulsd	CurrentFrameMAD, %xmm0, %xmm0
	vmovsd	%xmm0, -64(%rbp)        # 8-byte Spill
	vmovsd	-48(%rbp), %xmm0        # xmm0 = mem[0],zero
	callq	sqrt
	vmovsd	m_X1, %xmm1             # xmm1 = mem[0],zero
	vmulsd	CurrentFrameMAD, %xmm1, %xmm1
	vsubsd	%xmm1, %xmm0, %xmm0
	vmovsd	-64(%rbp), %xmm1        # 8-byte Reload
                                        # xmm1 = mem[0],zero
	vdivsd	%xmm0, %xmm1, %xmm0
	vcvtsd2ss	%xmm0, %xmm0, %xmm0
	vcvtss2sd	%xmm0, %xmm0, %xmm0
	vmovsd	%xmm0, m_Qstep
.LBB24_97:                              # %if.end253
	vmovsd	m_Qstep, %xmm0          # xmm0 = mem[0],zero
	callq	Qstep2QP
	movl	%eax, m_Qc
	movl	m_Qp, %eax
	addl	DuantQp, %eax
	cmpl	m_Qc, %eax
	jge	.LBB24_99
# %bb.98:                               # %cond.true258
	movl	m_Qp, %eax
	addl	DuantQp, %eax
	jmp	.LBB24_100
.LBB24_99:                              # %cond.false260
	movl	m_Qc, %eax
.LBB24_100:                             # %cond.end261
	movl	%eax, m_Qc
	movl	m_Qc, %eax
	cmpl	RC_MAX_QUANT, %eax
	jge	.LBB24_102
# %bb.101:                              # %cond.true265
	movl	m_Qc, %eax
	jmp	.LBB24_103
.LBB24_102:                             # %cond.false266
	movl	RC_MAX_QUANT, %eax
.LBB24_103:                             # %cond.end267
	movl	%eax, m_Qc
	movl	m_Qp, %eax
	subl	DuantQp, %eax
	cmpl	m_Qc, %eax
	jge	.LBB24_105
# %bb.104:                              # %cond.true272
	movl	m_Qc, %eax
	jmp	.LBB24_106
.LBB24_105:                             # %cond.false273
	movl	m_Qp, %eax
	subl	DuantQp, %eax
.LBB24_106:                             # %cond.end275
	movl	%eax, m_Qc
	movl	RC_MIN_QUANT, %eax
	cmpl	m_Qc, %eax
	jge	.LBB24_108
# %bb.107:                              # %cond.true279
	movl	m_Qc, %eax
	jmp	.LBB24_109
.LBB24_108:                             # %cond.false280
	movl	RC_MIN_QUANT, %eax
.LBB24_109:                             # %cond.end281
	movl	%eax, m_Qc
.LBB24_110:                             # %if.end283
	movq	img, %rax
	cmpl	$0, 72600(%rax)
	jne	.LBB24_115
# %bb.111:                              # %if.then287
	movq	active_sps, %rax
	cmpl	$0, 1148(%rax)
	je	.LBB24_113
# %bb.112:                              # %if.then290
	movl	m_Qc, %eax
	movq	img, %rcx
	addl	72572(%rcx), %eax
	movl	%eax, 72572(%rcx)
	movl	PreviousQp2, %eax
	movl	%eax, PreviousQp1
	movl	m_Qc, %eax
	movl	%eax, PreviousQp2
	movl	m_Qc, %eax
	movl	%eax, Pm_Qp
	jmp	.LBB24_114
.LBB24_113:                             # %if.else293
	movl	m_Qc, %eax
	movl	%eax, FrameQPBuffer
.LBB24_114:                             # %if.end294
	jmp	.LBB24_115
.LBB24_115:                             # %if.end295
	movl	m_Qc, %eax
	movl	%eax, -20(%rbp)
	jmp	.LBB24_363
.LBB24_116:                             # %if.else296
	movq	img, %rax
	cmpl	$0, 24(%rax)
	jne	.LBB24_122
# %bb.117:                              # %land.lhs.true300
	movq	img, %rax
	cmpl	$0, 72612(%rax)
	jne	.LBB24_122
# %bb.118:                              # %if.then303
	movq	input, %rax
	cmpl	$1, 2880(%rax)
	jne	.LBB24_120
# %bb.119:                              # %if.then307
	movl	m_Qc, %eax
	movq	img, %rcx
	addl	72572(%rcx), %eax
	movl	%eax, 72572(%rcx)
	movl	PreviousQp2, %eax
	addl	$1, %eax
	movl	%eax, PreviousQp1
	movl	m_Qc, %eax
	movl	%eax, PreviousQp2
	movl	m_Qc, %eax
	movl	%eax, Pm_Qp
	jmp	.LBB24_121
.LBB24_120:                             # %if.else311
	movl	m_Qc, %eax
	movl	%eax, FieldQPBuffer
.LBB24_121:                             # %if.end312
	jmp	.LBB24_122
.LBB24_122:                             # %if.end313
	movl	m_Qc, %eax
	movl	%eax, -20(%rbp)
	jmp	.LBB24_363
.LBB24_123:                             # %if.else314
	movq	img, %rax
	cmpl	$2, 24(%rax)
	jne	.LBB24_125
# %bb.124:                              # %if.then318
	movl	MyInitialQp, %eax
	movl	%eax, m_Qc
	movl	m_Qc, %eax
	movl	%eax, -20(%rbp)
	jmp	.LBB24_363
.LBB24_125:                             # %if.else319
	movq	img, %rax
	cmpl	$0, 24(%rax)
	jne	.LBB24_129
# %bb.126:                              # %land.lhs.true323
	movq	img, %rax
	cmpl	$1, 72612(%rax)
	jne	.LBB24_129
# %bb.127:                              # %land.lhs.true327
	movq	img, %rax
	cmpl	$1, 72600(%rax)
	jne	.LBB24_129
# %bb.128:                              # %if.then331
	movl	MyInitialQp, %eax
	movl	%eax, m_Qc
	movl	m_Qc, %eax
	movl	%eax, -20(%rbp)
	jmp	.LBB24_363
.LBB24_129:                             # %if.else332
	movq	img, %rax
	cmpl	$1, 24(%rax)
	jne	.LBB24_196
# %bb.130:                              # %if.then336
	cmpl	$0, -36(%rbp)
	jne	.LBB24_132
# %bb.131:                              # %lor.lhs.false338
	movq	img, %rax
	cmpl	$0, 72600(%rax)
	jne	.LBB24_195
.LBB24_132:                             # %if.then342
	movq	input, %rax
	cmpl	$1, 1236(%rax)
	jne	.LBB24_151
# %bb.133:                              # %if.then346
	movq	input, %rax
	cmpl	$2, 2880(%rax)
	je	.LBB24_135
# %bb.134:                              # %lor.lhs.false350
	movq	input, %rax
	cmpl	$0, 2884(%rax)
	je	.LBB24_141
.LBB24_135:                             # %if.then353
	movq	img, %rax
	cmpl	$0, 72600(%rax)
	jne	.LBB24_140
# %bb.136:                              # %if.then357
	movq	img, %rax
	cmpl	$1, 72604(%rax)
	jne	.LBB24_138
# %bb.137:                              # %if.then361
	movl	PreviousQp2, %eax
	movl	%eax, PreviousQp1
	movl	FrameQPBuffer, %eax
	movl	%eax, PreviousQp2
	jmp	.LBB24_139
.LBB24_138:                             # %if.else362
	movl	PreviousQp2, %eax
	movl	%eax, PreviousQp1
	movl	FieldQPBuffer, %eax
	movl	%eax, PreviousQp2
.LBB24_139:                             # %if.end363
	jmp	.LBB24_140
.LBB24_140:                             # %if.end364
	jmp	.LBB24_141
.LBB24_141:                             # %if.end365
	movl	PreviousQp1, %eax
	cmpl	PreviousQp2, %eax
	jne	.LBB24_143
# %bb.142:                              # %if.then368
	movl	PreviousQp1, %eax
	addl	$2, %eax
	movl	%eax, m_Qc
	jmp	.LBB24_144
.LBB24_143:                             # %if.else370
	movl	PreviousQp1, %eax
	addl	PreviousQp2, %eax
	cltd
	movl	$2, %ecx
	idivl	%ecx
	addl	$1, %eax
	movl	%eax, m_Qc
.LBB24_144:                             # %if.end374
	movl	m_Qc, %eax
	cmpl	RC_MAX_QUANT, %eax
	jge	.LBB24_146
# %bb.145:                              # %cond.true377
	movl	m_Qc, %eax
	jmp	.LBB24_147
.LBB24_146:                             # %cond.false378
	movl	RC_MAX_QUANT, %eax
.LBB24_147:                             # %cond.end379
	movl	%eax, m_Qc
	movl	RC_MIN_QUANT, %eax
	cmpl	m_Qc, %eax
	jge	.LBB24_149
# %bb.148:                              # %cond.true383
	movl	m_Qc, %eax
	jmp	.LBB24_150
.LBB24_149:                             # %cond.false384
	movl	RC_MIN_QUANT, %eax
.LBB24_150:                             # %cond.end385
	movl	%eax, m_Qc
	jmp	.LBB24_194
.LBB24_151:                             # %if.else387
	movl	NumberofBFrames, %eax
	addl	$1, %eax
	movq	input, %rcx
	cltd
	idivl	1236(%rcx)
	movl	%edx, -12(%rbp)
	cmpl	$0, -12(%rbp)
	jne	.LBB24_153
# %bb.152:                              # %if.then393
	movq	input, %rax
	movl	1236(%rax), %eax
	movl	%eax, -12(%rbp)
.LBB24_153:                             # %if.end395
	cmpl	$1, -12(%rbp)
	jne	.LBB24_163
# %bb.154:                              # %if.then398
	movq	input, %rax
	cmpl	$2, 2880(%rax)
	je	.LBB24_156
# %bb.155:                              # %lor.lhs.false402
	movq	input, %rax
	cmpl	$0, 2884(%rax)
	je	.LBB24_162
.LBB24_156:                             # %if.then405
	movq	img, %rax
	cmpl	$0, 72600(%rax)
	jne	.LBB24_161
# %bb.157:                              # %if.then409
	movq	img, %rax
	cmpl	$1, 72604(%rax)
	jne	.LBB24_159
# %bb.158:                              # %if.then413
	movl	PreviousQp2, %eax
	movl	%eax, PreviousQp1
	movl	FrameQPBuffer, %eax
	movl	%eax, PreviousQp2
	jmp	.LBB24_160
.LBB24_159:                             # %if.else414
	movl	PreviousQp2, %eax
	movl	%eax, PreviousQp1
	movl	FieldQPBuffer, %eax
	movl	%eax, PreviousQp2
.LBB24_160:                             # %if.end415
	jmp	.LBB24_161
.LBB24_161:                             # %if.end416
	jmp	.LBB24_162
.LBB24_162:                             # %if.end417
	jmp	.LBB24_163
.LBB24_163:                             # %if.end418
	movl	PreviousQp2, %eax
	subl	PreviousQp1, %eax
	movq	input, %rcx
	imull	$4294967294, 1236(%rcx), %ecx # imm = 0xFFFFFFFE
	subl	$3, %ecx
	cmpl	%ecx, %eax
	jg	.LBB24_165
# %bb.164:                              # %if.then425
	movl	$-3, -28(%rbp)
	jmp	.LBB24_178
.LBB24_165:                             # %if.else426
	movl	PreviousQp2, %eax
	subl	PreviousQp1, %eax
	movq	input, %rcx
	imull	$4294967294, 1236(%rcx), %ecx # imm = 0xFFFFFFFE
	subl	$2, %ecx
	cmpl	%ecx, %eax
	jne	.LBB24_167
# %bb.166:                              # %if.then433
	movl	$-2, -28(%rbp)
	jmp	.LBB24_177
.LBB24_167:                             # %if.else434
	movl	PreviousQp2, %eax
	subl	PreviousQp1, %eax
	movq	input, %rcx
	imull	$4294967294, 1236(%rcx), %ecx # imm = 0xFFFFFFFE
	subl	$1, %ecx
	cmpl	%ecx, %eax
	jne	.LBB24_169
# %bb.168:                              # %if.then441
	movl	$-1, -28(%rbp)
	jmp	.LBB24_176
.LBB24_169:                             # %if.else442
	movl	PreviousQp2, %eax
	subl	PreviousQp1, %eax
	movq	input, %rcx
	imull	$4294967294, 1236(%rcx), %ecx # imm = 0xFFFFFFFE
	cmpl	%ecx, %eax
	jne	.LBB24_171
# %bb.170:                              # %if.then448
	movl	$0, -28(%rbp)
	jmp	.LBB24_175
.LBB24_171:                             # %if.else449
	movl	PreviousQp2, %eax
	subl	PreviousQp1, %eax
	movq	input, %rcx
	imull	$4294967294, 1236(%rcx), %ecx # imm = 0xFFFFFFFE
	addl	$1, %ecx
	cmpl	%ecx, %eax
	jne	.LBB24_173
# %bb.172:                              # %if.then456
	movl	$1, -28(%rbp)
	jmp	.LBB24_174
.LBB24_173:                             # %if.else457
	movl	$2, -28(%rbp)
.LBB24_174:                             # %if.end458
	jmp	.LBB24_175
.LBB24_175:                             # %if.end459
	jmp	.LBB24_176
.LBB24_176:                             # %if.end460
	jmp	.LBB24_177
.LBB24_177:                             # %if.end461
	jmp	.LBB24_178
.LBB24_178:                             # %if.end462
	movl	PreviousQp1, %eax
	addl	-28(%rbp), %eax
	movl	%eax, m_Qc
	movl	-12(%rbp), %ecx
	subl	$1, %ecx
	shll	$1, %ecx
	movl	-12(%rbp), %eax
	subl	$1, %eax
	imull	$4294967294, %eax, %esi # imm = 0xFFFFFFFE
	movl	-12(%rbp), %eax
	subl	$1, %eax
	movl	PreviousQp2, %edx
	subl	PreviousQp1, %edx
	imull	%edx, %eax
	movq	input, %rdx
	movl	1236(%rdx), %edi
	subl	$1, %edi
	cltd
	idivl	%edi
	cmpl	%eax, %esi
	jge	.LBB24_180
# %bb.179:                              # %cond.true476
	movl	-12(%rbp), %eax
	subl	$1, %eax
	movl	PreviousQp2, %edx
	subl	PreviousQp1, %edx
	imull	%edx, %eax
	movq	input, %rdx
	movl	1236(%rdx), %esi
	subl	$1, %esi
	cltd
	idivl	%esi
	jmp	.LBB24_181
.LBB24_180:                             # %cond.false483
	movl	-12(%rbp), %eax
	subl	$1, %eax
	imull	$4294967294, %eax, %eax # imm = 0xFFFFFFFE
.LBB24_181:                             # %cond.end486
	cmpl	%eax, %ecx
	jge	.LBB24_183
# %bb.182:                              # %cond.true490
	movl	-12(%rbp), %eax
	subl	$1, %eax
	shll	$1, %eax
	jmp	.LBB24_187
.LBB24_183:                             # %cond.false493
	movl	-12(%rbp), %eax
	subl	$1, %eax
	imull	$4294967294, %eax, %ecx # imm = 0xFFFFFFFE
	movl	-12(%rbp), %eax
	subl	$1, %eax
	movl	PreviousQp2, %edx
	subl	PreviousQp1, %edx
	imull	%edx, %eax
	movq	input, %rdx
	movl	1236(%rdx), %esi
	subl	$1, %esi
	cltd
	idivl	%esi
	cmpl	%eax, %ecx
	jge	.LBB24_185
# %bb.184:                              # %cond.true504
	movl	-12(%rbp), %eax
	subl	$1, %eax
	movl	PreviousQp2, %ecx
	subl	PreviousQp1, %ecx
	imull	%ecx, %eax
	movq	input, %rcx
	movl	1236(%rcx), %ecx
	subl	$1, %ecx
	cltd
	idivl	%ecx
	jmp	.LBB24_186
.LBB24_185:                             # %cond.false511
	movl	-12(%rbp), %eax
	subl	$1, %eax
	imull	$4294967294, %eax, %eax # imm = 0xFFFFFFFE
.LBB24_186:                             # %cond.end514
.LBB24_187:                             # %cond.end516
	addl	m_Qc, %eax
	movl	%eax, m_Qc
	movl	m_Qc, %eax
	cmpl	RC_MAX_QUANT, %eax
	jge	.LBB24_189
# %bb.188:                              # %cond.true521
	movl	m_Qc, %eax
	jmp	.LBB24_190
.LBB24_189:                             # %cond.false522
	movl	RC_MAX_QUANT, %eax
.LBB24_190:                             # %cond.end523
	movl	%eax, m_Qc
	movl	RC_MIN_QUANT, %eax
	cmpl	m_Qc, %eax
	jge	.LBB24_192
# %bb.191:                              # %cond.true527
	movl	m_Qc, %eax
	jmp	.LBB24_193
.LBB24_192:                             # %cond.false528
	movl	RC_MIN_QUANT, %eax
.LBB24_193:                             # %cond.end529
	movl	%eax, m_Qc
.LBB24_194:                             # %if.end531
	movl	m_Qc, %eax
	movl	%eax, -20(%rbp)
	jmp	.LBB24_363
.LBB24_195:                             # %if.else532
	movl	m_Qc, %eax
	movl	%eax, -20(%rbp)
	jmp	.LBB24_363
.LBB24_196:                             # %if.else533
	movq	img, %rax
	cmpl	$0, 24(%rax)
	jne	.LBB24_358
# %bb.197:                              # %if.then537
	movq	img, %rax
	cmpl	$1, 72568(%rax)
	jne	.LBB24_217
# %bb.198:                              # %land.lhs.true540
	movq	img, %rax
	cmpl	$0, 72576(%rax)
	jne	.LBB24_217
# %bb.199:                              # %if.then544
	movq	img, %rax
	cmpl	$0, 72600(%rax)
	je	.LBB24_202
# %bb.200:                              # %lor.lhs.false548
	movq	img, %rax
	cmpl	$1, 72600(%rax)
	jne	.LBB24_216
# %bb.201:                              # %land.lhs.true552
	movq	img, %rax
	cmpl	$0, 72612(%rax)
	jne	.LBB24_216
.LBB24_202:                             # %if.then556
	movl	MyInitialQp, %eax
	movl	%eax, m_Qc
	movq	img, %rax
	movl	$0, 72532(%rax)
	movq	img, %rax
	movl	$0, 72536(%rax)
	movl	NumberofBasicUnit, %eax
	addl	$-1, %eax
	movl	%eax, NumberofBasicUnit
	cmpl	$0, -36(%rbp)
	jne	.LBB24_215
# %bb.203:                              # %land.lhs.true558
	cmpl	$0, NumberofBasicUnit
	jne	.LBB24_215
# %bb.204:                              # %if.then561
	movq	active_sps, %rax
	cmpl	$0, 1148(%rax)
	jne	.LBB24_206
# %bb.205:                              # %lor.lhs.false564
	movq	input, %rax
	cmpl	$1, 2880(%rax)
	jne	.LBB24_207
.LBB24_206:                             # %if.then568
	movl	m_Qc, %eax
	movq	img, %rcx
	addl	72572(%rcx), %eax
	movl	%eax, 72572(%rcx)
	movl	PreviousQp2, %eax
	movl	%eax, PreviousQp1
	movl	m_Qc, %eax
	movl	%eax, PreviousQp2
	movl	m_Qc, %eax
	movl	%eax, PAveFrameQP
	movl	PAveHeaderBits2, %eax
	movl	%eax, PAveHeaderBits3
	jmp	.LBB24_214
.LBB24_207:                             # %if.else571
	movq	input, %rax
	cmpl	$2, 2880(%rax)
	je	.LBB24_209
# %bb.208:                              # %lor.lhs.false575
	movq	input, %rax
	cmpl	$0, 2884(%rax)
	je	.LBB24_213
.LBB24_209:                             # %if.then578
	movq	img, %rax
	cmpl	$0, 72600(%rax)
	jne	.LBB24_211
# %bb.210:                              # %if.then582
	movl	m_Qc, %eax
	movl	%eax, FrameQPBuffer
	movl	PAveHeaderBits2, %eax
	movl	%eax, FrameAveHeaderBits
	jmp	.LBB24_212
.LBB24_211:                             # %if.else583
	movl	m_Qc, %eax
	movl	%eax, FieldQPBuffer
	movl	PAveHeaderBits2, %eax
	movl	%eax, FieldAveHeaderBits
.LBB24_212:                             # %if.end584
	jmp	.LBB24_213
.LBB24_213:                             # %if.end585
	jmp	.LBB24_214
.LBB24_214:                             # %if.end586
	jmp	.LBB24_215
.LBB24_215:                             # %if.end587
	movl	m_Qc, %eax
	movl	%eax, Pm_Qp
	movl	m_Qc, %eax
	addl	TotalFrameQP, %eax
	movl	%eax, TotalFrameQP
	movl	m_Qc, %eax
	movl	%eax, -20(%rbp)
	jmp	.LBB24_363
.LBB24_216:                             # %if.end589
	jmp	.LBB24_357
.LBB24_217:                             # %if.else590
	vmovsd	Pm_X1, %xmm0            # xmm0 = mem[0],zero
	vmovsd	%xmm0, m_X1
	vmovsd	Pm_X2, %xmm0            # xmm0 = mem[0],zero
	vmovsd	%xmm0, m_X2
	movl	PPreHeader, %eax
	movl	%eax, m_Hp
	movl	Pm_Qp, %eax
	movl	%eax, m_Qp
	movl	PDuantQp, %eax
	movl	%eax, DuantQp
	vmovsd	PMADPictureC1, %xmm0    # xmm0 = mem[0],zero
	vmovsd	%xmm0, MADPictureC1
	vmovsd	PMADPictureC2, %xmm0    # xmm0 = mem[0],zero
	vmovsd	%xmm0, MADPictureC2
	movq	img, %rax
	cmpl	$0, 72600(%rax)
	jne	.LBB24_219
# %bb.218:                              # %if.then594
	movl	TotalNumberofBasicUnit, %eax
	movl	%eax, -52(%rbp)
	jmp	.LBB24_220
.LBB24_219:                             # %if.else595
	movl	TotalNumberofBasicUnit, %eax
	cltd
	movl	$2, %ecx
	idivl	%ecx
	movl	%eax, -52(%rbp)
.LBB24_220:                             # %if.end597
	movl	NumberofBasicUnit, %eax
	cmpl	-52(%rbp), %eax
	jne	.LBB24_241
# %bb.221:                              # %if.then600
	movq	input, %rax
	cmpl	$2, 2880(%rax)
	je	.LBB24_223
# %bb.222:                              # %lor.lhs.false604
	movq	input, %rax
	cmpl	$0, 2884(%rax)
	je	.LBB24_232
.LBB24_223:                             # %land.lhs.true607
	movq	img, %rax
	cmpl	$0, 72600(%rax)
	jne	.LBB24_232
# %bb.224:                              # %if.then611
	movq	img, %rax
	cmpl	$1, 72604(%rax)
	jne	.LBB24_228
# %bb.225:                              # %if.then615
	movq	img, %rax
	cmpl	$0, 72576(%rax)
	jle	.LBB24_227
# %bb.226:                              # %if.then619
	movl	FrameQPBuffer, %eax
	movq	img, %rcx
	addl	72572(%rcx), %eax
	movl	%eax, 72572(%rcx)
.LBB24_227:                             # %if.end622
	movl	FrameQPBuffer, %eax
	movl	%eax, PAveFrameQP
	movl	FrameAveHeaderBits, %eax
	movl	%eax, PAveHeaderBits3
	jmp	.LBB24_231
.LBB24_228:                             # %if.else623
	movq	img, %rax
	cmpl	$0, 72576(%rax)
	jle	.LBB24_230
# %bb.229:                              # %if.then627
	movl	FieldQPBuffer, %eax
	movq	img, %rcx
	addl	72572(%rcx), %eax
	movl	%eax, 72572(%rcx)
.LBB24_230:                             # %if.end630
	movl	FieldQPBuffer, %eax
	movl	%eax, PAveFrameQP
	movl	FieldAveHeaderBits, %eax
	movl	%eax, PAveHeaderBits3
.LBB24_231:                             # %if.end631
	jmp	.LBB24_232
.LBB24_232:                             # %if.end632
	cmpq	$0, T
	jg	.LBB24_239
# %bb.233:                              # %if.then635
	movl	PAveFrameQP, %eax
	addl	$2, %eax
	movl	%eax, m_Qc
	movl	m_Qc, %eax
	cmpl	RC_MAX_QUANT, %eax
	jle	.LBB24_235
# %bb.234:                              # %if.then639
	movl	RC_MAX_QUANT, %eax
	movl	%eax, m_Qc
.LBB24_235:                             # %if.end640
	cmpl	$0, -36(%rbp)
	jne	.LBB24_237
# %bb.236:                              # %lor.lhs.false642
	movq	img, %rax
	cmpl	$0, 72600(%rax)
	jne	.LBB24_238
.LBB24_237:                             # %if.then646
	movl	$1, GOPOverdue
.LBB24_238:                             # %if.end647
	jmp	.LBB24_240
.LBB24_239:                             # %if.else648
	movl	PAveFrameQP, %eax
	movl	%eax, m_Qc
.LBB24_240:                             # %if.end649
	movl	m_Qc, %eax
	addl	TotalFrameQP, %eax
	movl	%eax, TotalFrameQP
	movl	NumberofBasicUnit, %eax
	addl	$-1, %eax
	movl	%eax, NumberofBasicUnit
	movl	PAveFrameQP, %eax
	movl	%eax, Pm_Qp
	movl	m_Qc, %eax
	movl	%eax, -20(%rbp)
	jmp	.LBB24_363
.LBB24_241:                             # %if.else652
	movq	img, %rax
	movl	72532(%rax), %eax
	movq	img, %rcx
	addl	72536(%rcx), %eax
	movl	%eax, TotalBasicUnitBits
	movslq	TotalBasicUnitBits, %rax
	movq	T, %rcx
	subq	%rax, %rcx
	movq	%rcx, T
	movq	img, %rax
	movl	$0, 72532(%rax)
	movq	img, %rax
	movl	$0, 72536(%rax)
	cmpq	$0, T
	jge	.LBB24_287
# %bb.242:                              # %if.then662
	cmpl	$1, GOPOverdue
	jne	.LBB24_244
# %bb.243:                              # %if.then665
	movl	m_Qp, %eax
	addl	$2, %eax
	movl	%eax, m_Qc
	jmp	.LBB24_245
.LBB24_244:                             # %if.else667
	movl	m_Qp, %eax
	addl	DDquant, %eax
	movl	%eax, m_Qc
.LBB24_245:                             # %if.end669
	movl	m_Qc, %eax
	cmpl	RC_MAX_QUANT, %eax
	jge	.LBB24_247
# %bb.246:                              # %cond.true672
	movl	m_Qc, %eax
	jmp	.LBB24_248
.LBB24_247:                             # %cond.false673
	movl	RC_MAX_QUANT, %eax
.LBB24_248:                             # %cond.end674
	movl	%eax, m_Qc
	movq	input, %rax
	movl	3248(%rax), %eax
	cmpl	MBPerRow, %eax
	jl	.LBB24_253
# %bb.249:                              # %if.then678
	movl	m_Qc, %eax
	movl	PAveFrameQP, %ecx
	addl	$6, %ecx
	cmpl	%ecx, %eax
	jge	.LBB24_251
# %bb.250:                              # %cond.true682
	movl	m_Qc, %eax
	jmp	.LBB24_252
.LBB24_251:                             # %cond.false683
	movl	PAveFrameQP, %eax
	addl	$6, %eax
.LBB24_252:                             # %cond.end685
	movl	%eax, m_Qc
	jmp	.LBB24_257
.LBB24_253:                             # %if.else687
	movl	m_Qc, %eax
	movl	PAveFrameQP, %ecx
	addl	$3, %ecx
	cmpl	%ecx, %eax
	jge	.LBB24_255
# %bb.254:                              # %cond.true691
	movl	m_Qc, %eax
	jmp	.LBB24_256
.LBB24_255:                             # %cond.false692
	movl	PAveFrameQP, %eax
	addl	$3, %eax
.LBB24_256:                             # %cond.end694
	movl	%eax, m_Qc
.LBB24_257:                             # %if.end696
	movl	m_Qc, %eax
	addl	TotalFrameQP, %eax
	movl	%eax, TotalFrameQP
	movl	NumberofBasicUnit, %eax
	addl	$-1, %eax
	movl	%eax, NumberofBasicUnit
	cmpl	$0, NumberofBasicUnit
	jne	.LBB24_283
# %bb.258:                              # %if.then701
	cmpl	$0, -36(%rbp)
	je	.LBB24_260
# %bb.259:                              # %lor.lhs.false703
	movq	img, %rax
	cmpl	$0, 72600(%rax)
	jne	.LBB24_282
.LBB24_260:                             # %if.then707
	movq	active_sps, %rax
	cmpl	$0, 1148(%rax)
	jne	.LBB24_262
# %bb.261:                              # %lor.lhs.false710
	movq	input, %rax
	cmpl	$1, 2880(%rax)
	jne	.LBB24_274
.LBB24_262:                             # %if.then714
	vmovsd	.LCPI24_2(%rip), %xmm0  # xmm0 = mem[0],zero
	vmovsd	.LCPI24_3(%rip), %xmm1  # xmm1 = mem[0],zero
	vcvtsi2sdl	TotalFrameQP, %xmm0, %xmm2
	vmulsd	%xmm2, %xmm1, %xmm1
	vcvtsi2sdl	TotalNumberofBasicUnit, %xmm0, %xmm2
	vdivsd	%xmm2, %xmm1, %xmm1
	vaddsd	%xmm0, %xmm1, %xmm0
	vcvttsd2si	%xmm0, %eax
	movl	%eax, -16(%rbp)
	movq	img, %rax
	movl	72576(%rax), %eax
	movq	input, %rcx
	movl	1224(%rcx), %ecx
	subl	$2, %ecx
	cmpl	%ecx, %eax
	jne	.LBB24_264
# %bb.263:                              # %if.then725
	movl	-16(%rbp), %eax
	movl	%eax, QPLastPFrame
.LBB24_264:                             # %if.end726
	movl	-16(%rbp), %eax
	movq	img, %rcx
	addl	72572(%rcx), %eax
	movl	%eax, 72572(%rcx)
	cmpl	$1, GOPOverdue
	jne	.LBB24_266
# %bb.265:                              # %if.then731
	movl	PreviousQp2, %eax
	addl	$1, %eax
	movl	%eax, PreviousQp1
	movl	-16(%rbp), %eax
	movl	%eax, PreviousQp2
	jmp	.LBB24_273
.LBB24_266:                             # %if.else733
	movq	img, %rax
	cmpl	$0, 72576(%rax)
	jne	.LBB24_269
# %bb.267:                              # %land.lhs.true737
	movq	img, %rax
	cmpl	$1, 72568(%rax)
	jle	.LBB24_269
# %bb.268:                              # %if.then741
	movl	PreviousQp2, %eax
	movl	%eax, PreviousQp1
	movl	-16(%rbp), %eax
	movl	%eax, PreviousQp2
	jmp	.LBB24_272
.LBB24_269:                             # %if.else742
	movq	img, %rax
	cmpl	$0, 72576(%rax)
	jle	.LBB24_271
# %bb.270:                              # %if.then746
	movl	PreviousQp2, %eax
	addl	$1, %eax
	movl	%eax, PreviousQp1
	movl	-16(%rbp), %eax
	movl	%eax, PreviousQp2
.LBB24_271:                             # %if.end748
	jmp	.LBB24_272
.LBB24_272:                             # %if.end749
	jmp	.LBB24_273
.LBB24_273:                             # %if.end750
	movl	-16(%rbp), %eax
	movl	%eax, PAveFrameQP
	movl	PAveHeaderBits2, %eax
	movl	%eax, PAveHeaderBits3
	jmp	.LBB24_281
.LBB24_274:                             # %if.else751
	movq	input, %rax
	cmpl	$2, 2880(%rax)
	je	.LBB24_276
# %bb.275:                              # %lor.lhs.false755
	movq	input, %rax
	cmpl	$0, 2884(%rax)
	je	.LBB24_280
.LBB24_276:                             # %if.then758
	movq	img, %rax
	cmpl	$0, 72600(%rax)
	jne	.LBB24_278
# %bb.277:                              # %if.then762
	vmovsd	.LCPI24_2(%rip), %xmm0  # xmm0 = mem[0],zero
	vmovsd	.LCPI24_3(%rip), %xmm1  # xmm1 = mem[0],zero
	vcvtsi2sdl	TotalFrameQP, %xmm0, %xmm2
	vmulsd	%xmm2, %xmm1, %xmm1
	vcvtsi2sdl	TotalNumberofBasicUnit, %xmm0, %xmm2
	vdivsd	%xmm2, %xmm1, %xmm1
	vaddsd	%xmm0, %xmm1, %xmm0
	vcvttsd2si	%xmm0, %eax
	movl	%eax, -16(%rbp)
	movl	-16(%rbp), %eax
	movl	%eax, FrameQPBuffer
	movl	PAveHeaderBits2, %eax
	movl	%eax, FrameAveHeaderBits
	jmp	.LBB24_279
.LBB24_278:                             # %if.else769
	vmovsd	.LCPI24_2(%rip), %xmm0  # xmm0 = mem[0],zero
	vmovsd	.LCPI24_3(%rip), %xmm1  # xmm1 = mem[0],zero
	vcvtsi2sdl	TotalFrameQP, %xmm0, %xmm2
	vmulsd	%xmm2, %xmm1, %xmm1
	vcvtsi2sdl	TotalNumberofBasicUnit, %xmm0, %xmm2
	vdivsd	%xmm2, %xmm1, %xmm1
	vaddsd	%xmm0, %xmm1, %xmm0
	vcvttsd2si	%xmm0, %eax
	movl	%eax, -16(%rbp)
	movl	-16(%rbp), %eax
	movl	%eax, FieldQPBuffer
	movl	PAveHeaderBits2, %eax
	movl	%eax, FieldAveHeaderBits
.LBB24_279:                             # %if.end776
	jmp	.LBB24_280
.LBB24_280:                             # %if.end777
	jmp	.LBB24_281
.LBB24_281:                             # %if.end778
	jmp	.LBB24_282
.LBB24_282:                             # %if.end779
	jmp	.LBB24_283
.LBB24_283:                             # %if.end780
	cmpl	$1, GOPOverdue
	jne	.LBB24_285
# %bb.284:                              # %if.then783
	movl	PAveFrameQP, %eax
	movl	%eax, Pm_Qp
	jmp	.LBB24_286
.LBB24_285:                             # %if.else784
	movl	m_Qc, %eax
	movl	%eax, Pm_Qp
.LBB24_286:                             # %if.end785
	movl	m_Qc, %eax
	movl	%eax, -20(%rbp)
	jmp	.LBB24_363
.LBB24_287:                             # %if.else786
	movq	input, %rax
	cmpl	$2, 2880(%rax)
	je	.LBB24_289
# %bb.288:                              # %lor.lhs.false790
	movq	input, %rax
	cmpl	$0, 2884(%rax)
	je	.LBB24_295
.LBB24_289:                             # %land.lhs.true793
	movq	img, %rax
	cmpl	$1, 72600(%rax)
	jne	.LBB24_295
# %bb.290:                              # %if.then797
	vmovsd	MADPictureC1, %xmm0     # xmm0 = mem[0],zero
	movq	FCBUPFMAD, %rax
	movl	TotalNumberofBasicUnit, %ecx
	subl	NumberofBasicUnit, %ecx
	movslq	%ecx, %rcx
	vmulsd	(%rax,%rcx,8), %xmm0, %xmm0
	vaddsd	MADPictureC2, %xmm0, %xmm0
	vmovsd	%xmm0, CurrentFrameMAD
	vxorps	%xmm0, %xmm0, %xmm0
	vmovsd	%xmm0, TotalBUMAD
	movl	TotalNumberofBasicUnit, %eax
	subl	$1, %eax
	movl	%eax, -32(%rbp)
.LBB24_291:                             # %for.cond
                                        # =>This Inner Loop Header: Depth=1
	movl	-32(%rbp), %eax
	movl	TotalNumberofBasicUnit, %ecx
	subl	NumberofBasicUnit, %ecx
	cmpl	%ecx, %eax
	jl	.LBB24_294
# %bb.292:                              # %for.body
                                        #   in Loop: Header=BB24_291 Depth=1
	vmovsd	MADPictureC1, %xmm0     # xmm0 = mem[0],zero
	movq	FCBUPFMAD, %rax
	movslq	-32(%rbp), %rcx
	vmulsd	(%rax,%rcx,8), %xmm0, %xmm0
	vaddsd	MADPictureC2, %xmm0, %xmm0
	vmovsd	%xmm0, CurrentBUMAD
	vmovsd	CurrentBUMAD, %xmm0     # xmm0 = mem[0],zero
	vmulsd	CurrentBUMAD, %xmm0, %xmm0
	vaddsd	TotalBUMAD, %xmm0, %xmm0
	vmovsd	%xmm0, TotalBUMAD
# %bb.293:                              # %for.inc
                                        #   in Loop: Header=BB24_291 Depth=1
	movl	-32(%rbp), %eax
	addl	$-1, %eax
	movl	%eax, -32(%rbp)
	jmp	.LBB24_291
.LBB24_294:                             # %for.end
	jmp	.LBB24_300
.LBB24_295:                             # %if.else812
	vmovsd	MADPictureC1, %xmm0     # xmm0 = mem[0],zero
	movq	BUPFMAD, %rax
	movl	TotalNumberofBasicUnit, %ecx
	subl	NumberofBasicUnit, %ecx
	movslq	%ecx, %rcx
	vmulsd	(%rax,%rcx,8), %xmm0, %xmm0
	vaddsd	MADPictureC2, %xmm0, %xmm0
	vmovsd	%xmm0, CurrentFrameMAD
	vxorps	%xmm0, %xmm0, %xmm0
	vmovsd	%xmm0, TotalBUMAD
	movl	TotalNumberofBasicUnit, %eax
	subl	$1, %eax
	movl	%eax, -32(%rbp)
.LBB24_296:                             # %for.cond819
                                        # =>This Inner Loop Header: Depth=1
	movl	-32(%rbp), %eax
	movl	TotalNumberofBasicUnit, %ecx
	subl	NumberofBasicUnit, %ecx
	cmpl	%ecx, %eax
	jl	.LBB24_299
# %bb.297:                              # %for.body823
                                        #   in Loop: Header=BB24_296 Depth=1
	vmovsd	MADPictureC1, %xmm0     # xmm0 = mem[0],zero
	movq	BUPFMAD, %rax
	movslq	-32(%rbp), %rcx
	vmulsd	(%rax,%rcx,8), %xmm0, %xmm0
	vaddsd	MADPictureC2, %xmm0, %xmm0
	vmovsd	%xmm0, CurrentBUMAD
	vmovsd	CurrentBUMAD, %xmm0     # xmm0 = mem[0],zero
	vmulsd	CurrentBUMAD, %xmm0, %xmm0
	vaddsd	TotalBUMAD, %xmm0, %xmm0
	vmovsd	%xmm0, TotalBUMAD
# %bb.298:                              # %for.inc830
                                        #   in Loop: Header=BB24_296 Depth=1
	movl	-32(%rbp), %eax
	addl	$-1, %eax
	movl	%eax, -32(%rbp)
	jmp	.LBB24_296
.LBB24_299:                             # %for.end832
	jmp	.LBB24_300
.LBB24_300:                             # %if.end833
	vcvtsi2sdq	T, %xmm0, %xmm0
	vmulsd	CurrentFrameMAD, %xmm0, %xmm0
	vmulsd	CurrentFrameMAD, %xmm0, %xmm0
	vdivsd	TotalBUMAD, %xmm0, %xmm0
	vcvttsd2si	%xmm0, %eax
	movl	%eax, -24(%rbp)
	movl	PAveHeaderBits2, %eax
	movl	-24(%rbp), %ecx
	subl	%eax, %ecx
	movl	%ecx, -24(%rbp)
	movl	-24(%rbp), %eax
	vmovsd	bit_rate, %xmm0         # xmm0 = mem[0],zero
	vmovsd	MINVALUE, %xmm1         # xmm1 = mem[0],zero
	vmulsd	frame_rate, %xmm1, %xmm1
	vcvtsi2sdl	TotalNumberofBasicUnit, %xmm0, %xmm2
	vmulsd	%xmm2, %xmm1, %xmm1
	vdivsd	%xmm1, %xmm0, %xmm0
	vcvttsd2si	%xmm0, %ecx
	cmpl	%ecx, %eax
	jge	.LBB24_302
# %bb.301:                              # %cond.true847
	vmovsd	bit_rate, %xmm0         # xmm0 = mem[0],zero
	vmovsd	MINVALUE, %xmm1         # xmm1 = mem[0],zero
	vmulsd	frame_rate, %xmm1, %xmm1
	vcvtsi2sdl	TotalNumberofBasicUnit, %xmm0, %xmm2
	vmulsd	%xmm2, %xmm1, %xmm1
	vdivsd	%xmm1, %xmm0, %xmm0
	vcvttsd2si	%xmm0, %eax
	jmp	.LBB24_303
.LBB24_302:                             # %cond.false853
	movl	-24(%rbp), %eax
.LBB24_303:                             # %cond.end854
	vmovsd	.LCPI24_0(%rip), %xmm0  # xmm0 = mem[0],zero
	movl	%eax, -24(%rbp)
	vmovsd	CurrentFrameMAD, %xmm1  # xmm1 = mem[0],zero
	vmulsd	m_X1, %xmm1, %xmm1
	vmulsd	CurrentFrameMAD, %xmm1, %xmm1
	vmulsd	m_X1, %xmm1, %xmm1
	vmulsd	m_X2, %xmm0, %xmm0
	vmulsd	CurrentFrameMAD, %xmm0, %xmm0
	vcvtsi2sdl	-24(%rbp), %xmm0, %xmm2
	vmulsd	%xmm2, %xmm0, %xmm0
	vaddsd	%xmm0, %xmm1, %xmm0
	vmovsd	%xmm0, -48(%rbp)
	vmovsd	m_X2, %xmm0             # xmm0 = mem[0],zero
	vxorps	%xmm1, %xmm1, %xmm1
	vucomisd	%xmm1, %xmm0
	jne	.LBB24_304
	jp	.LBB24_304
	jmp	.LBB24_306
.LBB24_304:                             # %lor.lhs.false866
	vxorps	%xmm0, %xmm0, %xmm0
	vucomisd	-48(%rbp), %xmm0
	ja	.LBB24_306
# %bb.305:                              # %lor.lhs.false869
	vmovsd	-48(%rbp), %xmm0        # xmm0 = mem[0],zero
	callq	sqrt
	vmovsd	m_X1, %xmm1             # xmm1 = mem[0],zero
	vmulsd	CurrentFrameMAD, %xmm1, %xmm1
	vsubsd	%xmm1, %xmm0, %xmm0
	vxorps	%xmm1, %xmm1, %xmm1
	vucomisd	%xmm0, %xmm1
	jb	.LBB24_307
.LBB24_306:                             # %if.then875
	vmovsd	m_X1, %xmm0             # xmm0 = mem[0],zero
	vmulsd	CurrentFrameMAD, %xmm0, %xmm0
	vcvtsi2sdl	-24(%rbp), %xmm0, %xmm1
	vdivsd	%xmm1, %xmm0, %xmm0
	vcvtsd2ss	%xmm0, %xmm0, %xmm0
	vcvtss2sd	%xmm0, %xmm0, %xmm0
	vmovsd	%xmm0, m_Qstep
	jmp	.LBB24_308
.LBB24_307:                             # %if.else881
	vmovsd	.LCPI24_1(%rip), %xmm0  # xmm0 = mem[0],zero
	vmulsd	m_X2, %xmm0, %xmm0
	vmulsd	CurrentFrameMAD, %xmm0, %xmm0
	vmovsd	%xmm0, -72(%rbp)        # 8-byte Spill
	vmovsd	-48(%rbp), %xmm0        # xmm0 = mem[0],zero
	callq	sqrt
	vmovsd	m_X1, %xmm1             # xmm1 = mem[0],zero
	vmulsd	CurrentFrameMAD, %xmm1, %xmm1
	vsubsd	%xmm1, %xmm0, %xmm0
	vmovsd	-72(%rbp), %xmm1        # 8-byte Reload
                                        # xmm1 = mem[0],zero
	vdivsd	%xmm0, %xmm1, %xmm0
	vcvtsd2ss	%xmm0, %xmm0, %xmm0
	vcvtss2sd	%xmm0, %xmm0, %xmm0
	vmovsd	%xmm0, m_Qstep
.LBB24_308:                             # %if.end890
	vmovsd	m_Qstep, %xmm0          # xmm0 = mem[0],zero
	callq	Qstep2QP
	movl	%eax, m_Qc
	movl	m_Qp, %eax
	addl	DDquant, %eax
	cmpl	m_Qc, %eax
	jge	.LBB24_310
# %bb.309:                              # %cond.true895
	movl	m_Qp, %eax
	addl	DDquant, %eax
	jmp	.LBB24_311
.LBB24_310:                             # %cond.false897
	movl	m_Qc, %eax
.LBB24_311:                             # %cond.end898
	movl	%eax, m_Qc
	movq	input, %rax
	movl	3248(%rax), %eax
	cmpl	MBPerRow, %eax
	jl	.LBB24_316
# %bb.312:                              # %if.then903
	movl	PAveFrameQP, %eax
	addl	$6, %eax
	cmpl	m_Qc, %eax
	jge	.LBB24_314
# %bb.313:                              # %cond.true907
	movl	PAveFrameQP, %eax
	addl	$6, %eax
	jmp	.LBB24_315
.LBB24_314:                             # %cond.false909
	movl	m_Qc, %eax
.LBB24_315:                             # %cond.end910
	movl	%eax, m_Qc
	jmp	.LBB24_320
.LBB24_316:                             # %if.else912
	movl	PAveFrameQP, %eax
	addl	$3, %eax
	cmpl	m_Qc, %eax
	jge	.LBB24_318
# %bb.317:                              # %cond.true916
	movl	PAveFrameQP, %eax
	addl	$3, %eax
	jmp	.LBB24_319
.LBB24_318:                             # %cond.false918
	movl	m_Qc, %eax
.LBB24_319:                             # %cond.end919
	movl	%eax, m_Qc
.LBB24_320:                             # %if.end921
	movl	m_Qc, %eax
	cmpl	RC_MAX_QUANT, %eax
	jge	.LBB24_322
# %bb.321:                              # %cond.true924
	movl	m_Qc, %eax
	jmp	.LBB24_323
.LBB24_322:                             # %cond.false925
	movl	RC_MAX_QUANT, %eax
.LBB24_323:                             # %cond.end926
	movl	%eax, m_Qc
	movl	m_Qp, %eax
	subl	DDquant, %eax
	cmpl	m_Qc, %eax
	jge	.LBB24_325
# %bb.324:                              # %cond.true931
	movl	m_Qc, %eax
	jmp	.LBB24_326
.LBB24_325:                             # %cond.false932
	movl	m_Qp, %eax
	subl	DDquant, %eax
.LBB24_326:                             # %cond.end934
	movl	%eax, m_Qc
	movq	input, %rax
	movl	3248(%rax), %eax
	cmpl	MBPerRow, %eax
	jl	.LBB24_331
# %bb.327:                              # %if.then939
	movl	PAveFrameQP, %eax
	subl	$6, %eax
	cmpl	m_Qc, %eax
	jge	.LBB24_329
# %bb.328:                              # %cond.true943
	movl	m_Qc, %eax
	jmp	.LBB24_330
.LBB24_329:                             # %cond.false944
	movl	PAveFrameQP, %eax
	subl	$6, %eax
.LBB24_330:                             # %cond.end946
	movl	%eax, m_Qc
	jmp	.LBB24_335
.LBB24_331:                             # %if.else948
	movl	PAveFrameQP, %eax
	subl	$3, %eax
	cmpl	m_Qc, %eax
	jge	.LBB24_333
# %bb.332:                              # %cond.true952
	movl	m_Qc, %eax
	jmp	.LBB24_334
.LBB24_333:                             # %cond.false953
	movl	PAveFrameQP, %eax
	subl	$3, %eax
.LBB24_334:                             # %cond.end955
	movl	%eax, m_Qc
.LBB24_335:                             # %if.end957
	movl	RC_MIN_QUANT, %eax
	cmpl	m_Qc, %eax
	jge	.LBB24_337
# %bb.336:                              # %cond.true960
	movl	m_Qc, %eax
	jmp	.LBB24_338
.LBB24_337:                             # %cond.false961
	movl	RC_MIN_QUANT, %eax
.LBB24_338:                             # %cond.end962
	movl	%eax, m_Qc
	movl	m_Qc, %eax
	addl	TotalFrameQP, %eax
	movl	%eax, TotalFrameQP
	movl	m_Qc, %eax
	movl	%eax, Pm_Qp
	movl	NumberofBasicUnit, %eax
	addl	$-1, %eax
	movl	%eax, NumberofBasicUnit
	cmpl	$0, NumberofBasicUnit
	jne	.LBB24_356
# %bb.339:                              # %land.lhs.true968
	movq	img, %rax
	cmpl	$0, 24(%rax)
	jne	.LBB24_356
# %bb.340:                              # %if.then972
	cmpl	$0, -36(%rbp)
	je	.LBB24_342
# %bb.341:                              # %lor.lhs.false974
	movq	img, %rax
	cmpl	$0, 72600(%rax)
	jne	.LBB24_355
.LBB24_342:                             # %if.then978
	movq	active_sps, %rax
	cmpl	$0, 1148(%rax)
	jne	.LBB24_344
# %bb.343:                              # %lor.lhs.false981
	movq	input, %rax
	cmpl	$1, 2880(%rax)
	jne	.LBB24_347
.LBB24_344:                             # %if.then985
	vmovsd	.LCPI24_2(%rip), %xmm0  # xmm0 = mem[0],zero
	vmovsd	.LCPI24_3(%rip), %xmm1  # xmm1 = mem[0],zero
	vcvtsi2sdl	TotalFrameQP, %xmm0, %xmm2
	vmulsd	%xmm2, %xmm1, %xmm1
	vcvtsi2sdl	TotalNumberofBasicUnit, %xmm0, %xmm2
	vdivsd	%xmm2, %xmm1, %xmm1
	vaddsd	%xmm0, %xmm1, %xmm0
	vcvttsd2si	%xmm0, %eax
	movl	%eax, -16(%rbp)
	movq	img, %rax
	movl	72576(%rax), %eax
	movq	input, %rcx
	movl	1224(%rcx), %ecx
	subl	$2, %ecx
	cmpl	%ecx, %eax
	jne	.LBB24_346
# %bb.345:                              # %if.then997
	movl	-16(%rbp), %eax
	movl	%eax, QPLastPFrame
.LBB24_346:                             # %if.end998
	movl	-16(%rbp), %eax
	movq	img, %rcx
	addl	72572(%rcx), %eax
	movl	%eax, 72572(%rcx)
	movl	PreviousQp2, %eax
	movl	%eax, PreviousQp1
	movl	-16(%rbp), %eax
	movl	%eax, PreviousQp2
	movl	-16(%rbp), %eax
	movl	%eax, PAveFrameQP
	movl	PAveHeaderBits2, %eax
	movl	%eax, PAveHeaderBits3
	jmp	.LBB24_354
.LBB24_347:                             # %if.else1001
	movq	input, %rax
	cmpl	$2, 2880(%rax)
	je	.LBB24_349
# %bb.348:                              # %lor.lhs.false1005
	movq	input, %rax
	cmpl	$0, 2884(%rax)
	je	.LBB24_353
.LBB24_349:                             # %if.then1008
	movq	img, %rax
	cmpl	$0, 72600(%rax)
	jne	.LBB24_351
# %bb.350:                              # %if.then1012
	vmovsd	.LCPI24_2(%rip), %xmm0  # xmm0 = mem[0],zero
	vmovsd	.LCPI24_3(%rip), %xmm1  # xmm1 = mem[0],zero
	vcvtsi2sdl	TotalFrameQP, %xmm0, %xmm2
	vmulsd	%xmm2, %xmm1, %xmm1
	vcvtsi2sdl	TotalNumberofBasicUnit, %xmm0, %xmm2
	vdivsd	%xmm2, %xmm1, %xmm1
	vaddsd	%xmm0, %xmm1, %xmm0
	vcvttsd2si	%xmm0, %eax
	movl	%eax, -16(%rbp)
	movl	-16(%rbp), %eax
	movl	%eax, FrameQPBuffer
	movl	PAveHeaderBits2, %eax
	movl	%eax, FrameAveHeaderBits
	jmp	.LBB24_352
.LBB24_351:                             # %if.else1019
	vmovsd	.LCPI24_2(%rip), %xmm0  # xmm0 = mem[0],zero
	vmovsd	.LCPI24_3(%rip), %xmm1  # xmm1 = mem[0],zero
	vcvtsi2sdl	TotalFrameQP, %xmm0, %xmm2
	vmulsd	%xmm2, %xmm1, %xmm1
	vcvtsi2sdl	TotalNumberofBasicUnit, %xmm0, %xmm2
	vdivsd	%xmm2, %xmm1, %xmm1
	vaddsd	%xmm0, %xmm1, %xmm0
	vcvttsd2si	%xmm0, %eax
	movl	%eax, -16(%rbp)
	movl	-16(%rbp), %eax
	movl	%eax, FieldQPBuffer
	movl	PAveHeaderBits2, %eax
	movl	%eax, FieldAveHeaderBits
.LBB24_352:                             # %if.end1026
	jmp	.LBB24_353
.LBB24_353:                             # %if.end1027
	jmp	.LBB24_354
.LBB24_354:                             # %if.end1028
	jmp	.LBB24_355
.LBB24_355:                             # %if.end1029
	jmp	.LBB24_356
.LBB24_356:                             # %if.end1030
	movl	m_Qc, %eax
	movl	%eax, -20(%rbp)
	jmp	.LBB24_363
.LBB24_357:                             # %if.end1031
	jmp	.LBB24_358
.LBB24_358:                             # %if.end1032
	jmp	.LBB24_359
.LBB24_359:                             # %if.end1033
	jmp	.LBB24_360
.LBB24_360:                             # %if.end1034
	jmp	.LBB24_361
.LBB24_361:                             # %if.end1035
	jmp	.LBB24_362
.LBB24_362:                             # %if.end1036
	movl	m_Qc, %eax
	movl	%eax, -20(%rbp)
.LBB24_363:                             # %return
	movl	-20(%rbp), %ebx
	cmpl	$1580432784, -56(%rbp)  # imm = 0x5E337D90
	jne	.LBB24_365
.LBB24_364:
	movl	%ebx, %eax
	addq	$72, %rsp
	popq	%rbx
	popq	%rbp
	.cfi_def_cfa %rsp, 8
	retq
.LBB24_365:                             # %func_exit
	.cfi_def_cfa %rbp, 16
	callq	detect_breach
	jmp	.LBB24_364
.Lfunc_end24:
	.size	updateQuantizationParameter.8, .Lfunc_end24-updateQuantizationParameter.8
	.cfi_endproc
                                        # -- End function
	.section	.rodata.cst8,"aM",@progbits,8
	.p2align	3               # -- Begin function rc_update_pict_frame.9
.LCPI25_0:
	.quad	4602678819172646912     # double 0.5
.LCPI25_1:
	.quad	4608819927624529320     # double 1.3635999999999999
	.text
	.globl	rc_update_pict_frame.9
	.p2align	4, 0x90
	.type	rc_update_pict_frame.9,@function
rc_update_pict_frame.9:                 # @rc_update_pict_frame.9
	.cfi_startproc
# %bb.0:                                # %entry
	pushq	%rbp
	.cfi_def_cfa_offset 16
	.cfi_offset %rbp, -16
	movq	%rsp, %rbp
	.cfi_def_cfa_register %rbp
	subq	$16, %rsp
	movl	$1237075859, -16(%rbp)  # imm = 0x49BC4793
	movl	%edi, -8(%rbp)
	movl	$0, -4(%rbp)
	movq	img, %rax
	movl	72620(%rax), %eax
	movq	img, %rcx
	cmpl	72608(%rcx), %eax
	jne	.LBB25_2
# %bb.1:                                # %if.then
	vmovsd	.LCPI25_0(%rip), %xmm0  # xmm0 = mem[0],zero
	movl	-8(%rbp), %eax
	imull	m_Qc, %eax
	vcvtsi2sd	%eax, %xmm0, %xmm1
	vaddsd	%xmm0, %xmm1, %xmm0
	vroundsd	$9, %xmm0, %xmm0, %xmm0
	vcvttsd2si	%xmm0, %eax
	movl	%eax, -4(%rbp)
	jmp	.LBB25_12
.LBB25_2:                               # %if.else
	movq	img, %rax
	cmpl	$0, 24(%rax)
	jne	.LBB25_8
# %bb.3:                                # %if.then4
	movq	img, %rax
	cmpl	$0, 72612(%rax)
	jne	.LBB25_5
# %bb.4:                                # %land.lhs.true
	movq	img, %rax
	cmpl	$1, 72600(%rax)
	je	.LBB25_6
.LBB25_5:                               # %lor.lhs.false
	movq	img, %rax
	cmpl	$0, 72600(%rax)
	jne	.LBB25_7
.LBB25_6:                               # %if.then12
	vmovsd	.LCPI25_0(%rip), %xmm0  # xmm0 = mem[0],zero
	movl	TotalFrameQP, %eax
	cltd
	idivl	TotalNumberofBasicUnit
	movl	%eax, -12(%rbp)
	movl	-8(%rbp), %eax
	imull	-12(%rbp), %eax
	vcvtsi2sd	%eax, %xmm0, %xmm1
	vaddsd	%xmm0, %xmm1, %xmm0
	vroundsd	$9, %xmm0, %xmm0, %xmm0
	vcvttsd2si	%xmm0, %eax
	movl	%eax, -4(%rbp)
.LBB25_7:                               # %if.end
	jmp	.LBB25_11
.LBB25_8:                               # %if.else17
	movq	img, %rax
	cmpl	$1, 24(%rax)
	jne	.LBB25_10
# %bb.9:                                # %if.then21
	vmovsd	.LCPI25_0(%rip), %xmm0  # xmm0 = mem[0],zero
	movl	-8(%rbp), %eax
	imull	m_Qc, %eax
	vcvtsi2sd	%eax, %xmm0, %xmm1
	vaddsd	%xmm0, %xmm1, %xmm0
	vroundsd	$9, %xmm0, %xmm0, %xmm0
	vcvttsd2si	%xmm0, %eax
	movl	%eax, -4(%rbp)
.LBB25_10:                              # %if.end26
	jmp	.LBB25_11
.LBB25_11:                              # %if.end27
	jmp	.LBB25_12
.LBB25_12:                              # %if.end28
	movq	img(%rip), %rax
	movl	24(%rax), %eax
	testl	%eax, %eax
	je	.LBB25_14
	jmp	.LBB25_13
.LBB25_13:                              # %if.end28
	subl	$1, %eax
	je	.LBB25_23
	jmp	.LBB25_24
.LBB25_14:                              # %sw.bb
	movq	img, %rax
	cmpl	$0, 72612(%rax)
	jne	.LBB25_16
# %bb.15:                               # %land.lhs.true33
	movq	img, %rax
	cmpl	$1, 72600(%rax)
	je	.LBB25_17
.LBB25_16:                              # %lor.lhs.false37
	movq	img, %rax
	cmpl	$0, 72600(%rax)
	jne	.LBB25_18
.LBB25_17:                              # %if.then41
	movl	-4(%rbp), %eax
	movl	%eax, Xp
	movl	Np, %eax
	addl	$-1, %eax
	movl	%eax, Np
	vcvtsi2sdl	Xp, %xmm0, %xmm0
	vmovsd	%xmm0, Wp
	movq	img, %rax
	movl	72524(%rax), %eax
	movl	%eax, Pm_Hp
	movq	img, %rax
	movl	72564(%rax), %ecx
	addl	$1, %ecx
	movl	%ecx, 72564(%rax)
	movq	img, %rax
	movl	72576(%rax), %ecx
	addl	$1, %ecx
	movl	%ecx, 72576(%rax)
	jmp	.LBB25_22
.LBB25_18:                              # %if.else44
	movq	img, %rax
	cmpl	$0, 72612(%rax)
	je	.LBB25_21
# %bb.19:                               # %land.lhs.true48
	movq	img, %rax
	cmpl	$1, 72600(%rax)
	jne	.LBB25_21
# %bb.20:                               # %if.then52
	movq	img, %rax
	movl	$0, 72612(%rax)
.LBB25_21:                              # %if.end54
	jmp	.LBB25_22
.LBB25_22:                              # %if.end55
	jmp	.LBB25_24
.LBB25_23:                              # %sw.bb56
	vmovsd	.LCPI25_1(%rip), %xmm0  # xmm0 = mem[0],zero
	movl	-4(%rbp), %eax
	movl	%eax, Xb
	movl	Nb, %eax
	addl	$-1, %eax
	movl	%eax, Nb
	vcvtsi2sdl	Xb, %xmm0, %xmm1
	vdivsd	%xmm0, %xmm1, %xmm0
	vmovsd	%xmm0, Wb
	movq	img, %rax
	movl	72560(%rax), %ecx
	addl	$1, %ecx
	movl	%ecx, 72560(%rax)
	movl	NumberofBFrames, %eax
	addl	$1, %eax
	movl	%eax, NumberofBFrames
.LBB25_24:                              # %sw.epilog
	cmpl	$1237075859, -16(%rbp)  # imm = 0x49BC4793
	jne	.LBB25_26
.LBB25_25:
	addq	$16, %rsp
	popq	%rbp
	.cfi_def_cfa %rsp, 8
	retq
.LBB25_26:                              # %func_exit
	.cfi_def_cfa %rbp, 16
	callq	detect_breach
	jmp	.LBB25_25
.Lfunc_end25:
	.size	rc_update_pict_frame.9, .Lfunc_end25-rc_update_pict_frame.9
	.cfi_endproc
                                        # -- End function
	.section	.rodata.cst8,"aM",@progbits,8
	.p2align	3               # -- Begin function MADModelEstimator.10
.LCPI26_0:
	.quad	4517329193108106637     # double 9.9999999999999995E-7
.LCPI26_2:
	.quad	4607182418800017408     # double 1
	.section	.rodata.cst16,"aM",@progbits,16
	.p2align	4
.LCPI26_1:
	.quad	9223372036854775807     # double NaN
	.quad	9223372036854775807     # double NaN
	.text
	.globl	MADModelEstimator.10
	.p2align	4, 0x90
	.type	MADModelEstimator.10,@function
MADModelEstimator.10:                   # @MADModelEstimator.10
	.cfi_startproc
# %bb.0:                                # %entry
	pushq	%rbp
	.cfi_def_cfa_offset 16
	.cfi_offset %rbp, -16
	movq	%rsp, %rbp
	.cfi_def_cfa_register %rbp
	subq	$96, %rsp
	movl	$518192325, -84(%rbp)   # imm = 0x1EE2FCC5
	movl	%edi, -8(%rbp)
	movl	-8(%rbp), %eax
	movl	%eax, -12(%rbp)
	vxorps	%xmm0, %xmm0, %xmm0
	vmovsd	%xmm0, -64(%rbp)
	vmovsd	%xmm0, -24(%rbp)
	vmovsd	%xmm0, -80(%rbp)
	vmovsd	%xmm0, -48(%rbp)
	vmovsd	%xmm0, -32(%rbp)
	vmovsd	%xmm0, -56(%rbp)
	movl	$0, -36(%rbp)
	movl	$0, -4(%rbp)
.LBB26_1:                               # %for.cond
                                        # =>This Inner Loop Header: Depth=1
	movl	-4(%rbp), %eax
	cmpl	-8(%rbp), %eax
	jge	.LBB26_6
# %bb.2:                                # %for.body
                                        #   in Loop: Header=BB26_1 Depth=1
	movslq	-4(%rbp), %rax
	cmpl	$0, PictureRejected(,%rax,4)
	je	.LBB26_4
# %bb.3:                                # %if.then
                                        #   in Loop: Header=BB26_1 Depth=1
	movl	-12(%rbp), %eax
	addl	$-1, %eax
	movl	%eax, -12(%rbp)
.LBB26_4:                               # %if.end
                                        #   in Loop: Header=BB26_1 Depth=1
	jmp	.LBB26_5
.LBB26_5:                               # %for.inc
                                        #   in Loop: Header=BB26_1 Depth=1
	movl	-4(%rbp), %eax
	addl	$1, %eax
	movl	%eax, -4(%rbp)
	jmp	.LBB26_1
.LBB26_6:                               # %for.end
	vxorps	%xmm0, %xmm0, %xmm0
	vmovsd	%xmm0, MADPictureC2
	vmovsd	%xmm0, MADPictureC1
	movl	$0, -4(%rbp)
.LBB26_7:                               # %for.cond1
                                        # =>This Inner Loop Header: Depth=1
	movl	-4(%rbp), %eax
	cmpl	-8(%rbp), %eax
	jge	.LBB26_12
# %bb.8:                                # %for.body3
                                        #   in Loop: Header=BB26_7 Depth=1
	movslq	-4(%rbp), %rax
	cmpl	$0, PictureRejected(,%rax,4)
	jne	.LBB26_10
# %bb.9:                                # %if.then7
                                        #   in Loop: Header=BB26_7 Depth=1
	movslq	-4(%rbp), %rax
	vmovsd	PictureMAD(,%rax,8), %xmm0 # xmm0 = mem[0],zero
	vmovsd	%xmm0, -96(%rbp)
.LBB26_10:                              # %if.end10
                                        #   in Loop: Header=BB26_7 Depth=1
	jmp	.LBB26_11
.LBB26_11:                              # %for.inc11
                                        #   in Loop: Header=BB26_7 Depth=1
	movl	-4(%rbp), %eax
	addl	$1, %eax
	movl	%eax, -4(%rbp)
	jmp	.LBB26_7
.LBB26_12:                              # %for.end13
	movl	$0, -4(%rbp)
.LBB26_13:                              # %for.cond14
                                        # =>This Inner Loop Header: Depth=1
	movl	-4(%rbp), %eax
	cmpl	-8(%rbp), %eax
	jge	.LBB26_21
# %bb.14:                               # %for.body16
                                        #   in Loop: Header=BB26_13 Depth=1
	movslq	-4(%rbp), %rax
	vmovsd	PictureMAD(,%rax,8), %xmm0 # xmm0 = mem[0],zero
	vucomisd	-96(%rbp), %xmm0
	jne	.LBB26_15
	jp	.LBB26_15
	jmp	.LBB26_17
.LBB26_15:                              # %land.lhs.true
                                        #   in Loop: Header=BB26_13 Depth=1
	movslq	-4(%rbp), %rax
	cmpl	$0, PictureRejected(,%rax,4)
	jne	.LBB26_17
# %bb.16:                               # %if.then23
                                        #   in Loop: Header=BB26_13 Depth=1
	movl	$1, -36(%rbp)
.LBB26_17:                              # %if.end24
                                        #   in Loop: Header=BB26_13 Depth=1
	movslq	-4(%rbp), %rax
	cmpl	$0, PictureRejected(,%rax,4)
	jne	.LBB26_19
# %bb.18:                               # %if.then28
                                        #   in Loop: Header=BB26_13 Depth=1
	movslq	-4(%rbp), %rax
	vmovsd	PictureMAD(,%rax,8), %xmm0 # xmm0 = mem[0],zero
	movslq	-4(%rbp), %rax
	vmovsd	ReferenceMAD(,%rax,8), %xmm1 # xmm1 = mem[0],zero
	vcvtsi2sdl	-12(%rbp), %xmm0, %xmm2
	vmulsd	%xmm2, %xmm1, %xmm1
	vdivsd	%xmm1, %xmm0, %xmm0
	vaddsd	MADPictureC1, %xmm0, %xmm0
	vmovsd	%xmm0, MADPictureC1
.LBB26_19:                              # %if.end33
                                        #   in Loop: Header=BB26_13 Depth=1
	jmp	.LBB26_20
.LBB26_20:                              # %for.inc34
                                        #   in Loop: Header=BB26_13 Depth=1
	movl	-4(%rbp), %eax
	addl	$1, %eax
	movl	%eax, -4(%rbp)
	jmp	.LBB26_13
.LBB26_21:                              # %for.end36
	cmpl	$1, -12(%rbp)
	jl	.LBB26_33
# %bb.22:                               # %land.lhs.true39
	cmpl	$0, -36(%rbp)
	je	.LBB26_33
# %bb.23:                               # %if.then41
	movl	$0, -4(%rbp)
.LBB26_24:                              # %for.cond42
                                        # =>This Inner Loop Header: Depth=1
	movl	-4(%rbp), %eax
	cmpl	-8(%rbp), %eax
	jge	.LBB26_29
# %bb.25:                               # %for.body45
                                        #   in Loop: Header=BB26_24 Depth=1
	movslq	-4(%rbp), %rax
	cmpl	$0, PictureRejected(,%rax,4)
	jne	.LBB26_27
# %bb.26:                               # %if.then49
                                        #   in Loop: Header=BB26_24 Depth=1
	vmovsd	.LCPI26_2(%rip), %xmm0  # xmm0 = mem[0],zero
	vaddsd	-64(%rbp), %xmm0, %xmm0
	vmovsd	%xmm0, -64(%rbp)
	movslq	-4(%rbp), %rax
	vmovsd	ReferenceMAD(,%rax,8), %xmm0 # xmm0 = mem[0],zero
	vaddsd	-24(%rbp), %xmm0, %xmm0
	vmovsd	%xmm0, -24(%rbp)
	vmovsd	-24(%rbp), %xmm0        # xmm0 = mem[0],zero
	vmovsd	%xmm0, -80(%rbp)
	movslq	-4(%rbp), %rax
	vmovsd	ReferenceMAD(,%rax,8), %xmm0 # xmm0 = mem[0],zero
	movslq	-4(%rbp), %rax
	vmulsd	ReferenceMAD(,%rax,8), %xmm0, %xmm0
	vaddsd	-48(%rbp), %xmm0, %xmm0
	vmovsd	%xmm0, -48(%rbp)
	movslq	-4(%rbp), %rax
	vmovsd	PictureMAD(,%rax,8), %xmm0 # xmm0 = mem[0],zero
	vaddsd	-32(%rbp), %xmm0, %xmm0
	vmovsd	%xmm0, -32(%rbp)
	movslq	-4(%rbp), %rax
	vmovsd	PictureMAD(,%rax,8), %xmm0 # xmm0 = mem[0],zero
	movslq	-4(%rbp), %rax
	vmulsd	ReferenceMAD(,%rax,8), %xmm0, %xmm0
	vaddsd	-56(%rbp), %xmm0, %xmm0
	vmovsd	%xmm0, -56(%rbp)
.LBB26_27:                              # %if.end69
                                        #   in Loop: Header=BB26_24 Depth=1
	jmp	.LBB26_28
.LBB26_28:                              # %for.inc70
                                        #   in Loop: Header=BB26_24 Depth=1
	movl	-4(%rbp), %eax
	addl	$1, %eax
	movl	%eax, -4(%rbp)
	jmp	.LBB26_24
.LBB26_29:                              # %for.end72
	vmovsd	.LCPI26_0(%rip), %xmm0  # xmm0 = mem[0],zero
	vmovsd	-64(%rbp), %xmm1        # xmm1 = mem[0],zero
	vmulsd	-48(%rbp), %xmm1, %xmm1
	vmovsd	-24(%rbp), %xmm2        # xmm2 = mem[0],zero
	vmulsd	-80(%rbp), %xmm2, %xmm2
	vsubsd	%xmm2, %xmm1, %xmm1
	vmovsd	%xmm1, -72(%rbp)
	vmovsd	-72(%rbp), %xmm1        # xmm1 = mem[0],zero
	vmovdqa	.LCPI26_1(%rip), %xmm2  # xmm2 = [NaN,NaN]
	vpand	%xmm2, %xmm1, %xmm1
	vucomisd	%xmm0, %xmm1
	jbe	.LBB26_31
# %bb.30:                               # %if.then77
	vmovsd	-32(%rbp), %xmm0        # xmm0 = mem[0],zero
	vmulsd	-48(%rbp), %xmm0, %xmm0
	vmovsd	-56(%rbp), %xmm1        # xmm1 = mem[0],zero
	vmulsd	-24(%rbp), %xmm1, %xmm1
	vsubsd	%xmm1, %xmm0, %xmm0
	vdivsd	-72(%rbp), %xmm0, %xmm0
	vmovsd	%xmm0, MADPictureC2
	vmovsd	-56(%rbp), %xmm0        # xmm0 = mem[0],zero
	vmulsd	-64(%rbp), %xmm0, %xmm0
	vmovsd	-32(%rbp), %xmm1        # xmm1 = mem[0],zero
	vmulsd	-80(%rbp), %xmm1, %xmm1
	vsubsd	%xmm1, %xmm0, %xmm0
	vdivsd	-72(%rbp), %xmm0, %xmm0
	vmovsd	%xmm0, MADPictureC1
	jmp	.LBB26_32
.LBB26_31:                              # %if.else
	vmovsd	-32(%rbp), %xmm0        # xmm0 = mem[0],zero
	vdivsd	-24(%rbp), %xmm0, %xmm0
	vmovsd	%xmm0, MADPictureC1
	vxorps	%xmm0, %xmm0, %xmm0
	vmovsd	%xmm0, MADPictureC2
.LBB26_32:                              # %if.end87
	jmp	.LBB26_33
.LBB26_33:                              # %if.end88
	movq	img, %rax
	cmpl	$0, 24(%rax)
	jne	.LBB26_35
# %bb.34:                               # %if.then91
	vmovsd	MADPictureC1, %xmm0     # xmm0 = mem[0],zero
	vmovsd	%xmm0, PMADPictureC1
	vmovsd	MADPictureC2, %xmm0     # xmm0 = mem[0],zero
	vmovsd	%xmm0, PMADPictureC2
.LBB26_35:                              # %if.end92
	cmpl	$518192325, -84(%rbp)   # imm = 0x1EE2FCC5
	jne	.LBB26_37
.LBB26_36:
	addq	$96, %rsp
	popq	%rbp
	.cfi_def_cfa %rsp, 8
	retq
.LBB26_37:                              # %func_exit
	.cfi_def_cfa %rbp, 16
	callq	detect_breach
	jmp	.LBB26_36
.Lfunc_end26:
	.size	MADModelEstimator.10, .Lfunc_end26-MADModelEstimator.10
	.cfi_endproc
                                        # -- End function
	.section	.rodata.cst8,"aM",@progbits,8
	.p2align	3               # -- Begin function RCModelEstimator.11
.LCPI27_0:
	.quad	4517329193108106637     # double 9.9999999999999995E-7
.LCPI27_2:
	.quad	4607182418800017408     # double 1
	.section	.rodata.cst16,"aM",@progbits,16
	.p2align	4
.LCPI27_1:
	.quad	9223372036854775807     # double NaN
	.quad	9223372036854775807     # double NaN
	.text
	.globl	RCModelEstimator.11
	.p2align	4, 0x90
	.type	RCModelEstimator.11,@function
RCModelEstimator.11:                    # @RCModelEstimator.11
	.cfi_startproc
# %bb.0:                                # %entry
	pushq	%rbp
	.cfi_def_cfa_offset 16
	.cfi_offset %rbp, -16
	movq	%rsp, %rbp
	.cfi_def_cfa_register %rbp
	subq	$96, %rsp
	movl	$770607037, -84(%rbp)   # imm = 0x2DEE87BD
	movl	%edi, -8(%rbp)
	movl	-8(%rbp), %eax
	movl	%eax, -12(%rbp)
	vxorps	%xmm0, %xmm0, %xmm0
	vmovsd	%xmm0, -40(%rbp)
	vmovsd	%xmm0, -24(%rbp)
	vmovsd	%xmm0, -80(%rbp)
	vmovsd	%xmm0, -64(%rbp)
	vmovsd	%xmm0, -32(%rbp)
	vmovsd	%xmm0, -56(%rbp)
	movl	$0, -44(%rbp)
	movl	$0, -4(%rbp)
.LBB27_1:                               # %for.cond
                                        # =>This Inner Loop Header: Depth=1
	movl	-4(%rbp), %eax
	cmpl	-8(%rbp), %eax
	jge	.LBB27_6
# %bb.2:                                # %for.body
                                        #   in Loop: Header=BB27_1 Depth=1
	movslq	-4(%rbp), %rax
	cmpl	$0, m_rgRejected(,%rax,4)
	je	.LBB27_4
# %bb.3:                                # %if.then
                                        #   in Loop: Header=BB27_1 Depth=1
	movl	-12(%rbp), %eax
	addl	$-1, %eax
	movl	%eax, -12(%rbp)
.LBB27_4:                               # %if.end
                                        #   in Loop: Header=BB27_1 Depth=1
	jmp	.LBB27_5
.LBB27_5:                               # %for.inc
                                        #   in Loop: Header=BB27_1 Depth=1
	movl	-4(%rbp), %eax
	addl	$1, %eax
	movl	%eax, -4(%rbp)
	jmp	.LBB27_1
.LBB27_6:                               # %for.end
	vxorps	%xmm0, %xmm0, %xmm0
	vmovsd	%xmm0, m_X2
	vmovsd	%xmm0, m_X1
	movl	$0, -4(%rbp)
.LBB27_7:                               # %for.cond1
                                        # =>This Inner Loop Header: Depth=1
	movl	-4(%rbp), %eax
	cmpl	-8(%rbp), %eax
	jge	.LBB27_12
# %bb.8:                                # %for.body3
                                        #   in Loop: Header=BB27_7 Depth=1
	movslq	-4(%rbp), %rax
	cmpl	$0, m_rgRejected(,%rax,4)
	jne	.LBB27_10
# %bb.9:                                # %if.then7
                                        #   in Loop: Header=BB27_7 Depth=1
	movslq	-4(%rbp), %rax
	vmovsd	m_rgQp(,%rax,8), %xmm0  # xmm0 = mem[0],zero
	vmovsd	%xmm0, -96(%rbp)
.LBB27_10:                              # %if.end10
                                        #   in Loop: Header=BB27_7 Depth=1
	jmp	.LBB27_11
.LBB27_11:                              # %for.inc11
                                        #   in Loop: Header=BB27_7 Depth=1
	movl	-4(%rbp), %eax
	addl	$1, %eax
	movl	%eax, -4(%rbp)
	jmp	.LBB27_7
.LBB27_12:                              # %for.end13
	movl	$0, -4(%rbp)
.LBB27_13:                              # %for.cond14
                                        # =>This Inner Loop Header: Depth=1
	movl	-4(%rbp), %eax
	cmpl	-8(%rbp), %eax
	jge	.LBB27_21
# %bb.14:                               # %for.body16
                                        #   in Loop: Header=BB27_13 Depth=1
	movslq	-4(%rbp), %rax
	vmovsd	m_rgQp(,%rax,8), %xmm0  # xmm0 = mem[0],zero
	vucomisd	-96(%rbp), %xmm0
	jne	.LBB27_15
	jp	.LBB27_15
	jmp	.LBB27_17
.LBB27_15:                              # %land.lhs.true
                                        #   in Loop: Header=BB27_13 Depth=1
	movslq	-4(%rbp), %rax
	cmpl	$0, m_rgRejected(,%rax,4)
	jne	.LBB27_17
# %bb.16:                               # %if.then23
                                        #   in Loop: Header=BB27_13 Depth=1
	movl	$1, -44(%rbp)
.LBB27_17:                              # %if.end24
                                        #   in Loop: Header=BB27_13 Depth=1
	movslq	-4(%rbp), %rax
	cmpl	$0, m_rgRejected(,%rax,4)
	jne	.LBB27_19
# %bb.18:                               # %if.then28
                                        #   in Loop: Header=BB27_13 Depth=1
	movslq	-4(%rbp), %rax
	vmovsd	m_rgQp(,%rax,8), %xmm0  # xmm0 = mem[0],zero
	movslq	-4(%rbp), %rax
	vmulsd	m_rgRp(,%rax,8), %xmm0, %xmm0
	vcvtsi2sdl	-12(%rbp), %xmm0, %xmm1
	vdivsd	%xmm1, %xmm0, %xmm0
	vaddsd	m_X1, %xmm0, %xmm0
	vmovsd	%xmm0, m_X1
.LBB27_19:                              # %if.end33
                                        #   in Loop: Header=BB27_13 Depth=1
	jmp	.LBB27_20
.LBB27_20:                              # %for.inc34
                                        #   in Loop: Header=BB27_13 Depth=1
	movl	-4(%rbp), %eax
	addl	$1, %eax
	movl	%eax, -4(%rbp)
	jmp	.LBB27_13
.LBB27_21:                              # %for.end36
	cmpl	$1, -12(%rbp)
	jl	.LBB27_33
# %bb.22:                               # %land.lhs.true39
	cmpl	$0, -44(%rbp)
	je	.LBB27_33
# %bb.23:                               # %if.then41
	movl	$0, -4(%rbp)
.LBB27_24:                              # %for.cond42
                                        # =>This Inner Loop Header: Depth=1
	movl	-4(%rbp), %eax
	cmpl	-8(%rbp), %eax
	jge	.LBB27_29
# %bb.25:                               # %for.body45
                                        #   in Loop: Header=BB27_24 Depth=1
	movslq	-4(%rbp), %rax
	cmpl	$0, m_rgRejected(,%rax,4)
	jne	.LBB27_27
# %bb.26:                               # %if.then49
                                        #   in Loop: Header=BB27_24 Depth=1
	vmovsd	.LCPI27_2(%rip), %xmm0  # xmm0 = mem[0],zero
	vaddsd	-40(%rbp), %xmm0, %xmm1
	vmovsd	%xmm1, -40(%rbp)
	movslq	-4(%rbp), %rax
	vdivsd	m_rgQp(,%rax,8), %xmm0, %xmm1
	vaddsd	-24(%rbp), %xmm1, %xmm1
	vmovsd	%xmm1, -24(%rbp)
	vmovsd	-24(%rbp), %xmm1        # xmm1 = mem[0],zero
	vmovsd	%xmm1, -80(%rbp)
	movslq	-4(%rbp), %rax
	vmovsd	m_rgQp(,%rax,8), %xmm1  # xmm1 = mem[0],zero
	movslq	-4(%rbp), %rax
	vmulsd	m_rgQp(,%rax,8), %xmm1, %xmm1
	vdivsd	%xmm1, %xmm0, %xmm0
	vaddsd	-64(%rbp), %xmm0, %xmm0
	vmovsd	%xmm0, -64(%rbp)
	movslq	-4(%rbp), %rax
	vmovsd	m_rgQp(,%rax,8), %xmm0  # xmm0 = mem[0],zero
	movslq	-4(%rbp), %rax
	vmulsd	m_rgRp(,%rax,8), %xmm0, %xmm0
	vaddsd	-32(%rbp), %xmm0, %xmm0
	vmovsd	%xmm0, -32(%rbp)
	movslq	-4(%rbp), %rax
	vmovsd	m_rgRp(,%rax,8), %xmm0  # xmm0 = mem[0],zero
	vaddsd	-56(%rbp), %xmm0, %xmm0
	vmovsd	%xmm0, -56(%rbp)
.LBB27_27:                              # %if.end71
                                        #   in Loop: Header=BB27_24 Depth=1
	jmp	.LBB27_28
.LBB27_28:                              # %for.inc72
                                        #   in Loop: Header=BB27_24 Depth=1
	movl	-4(%rbp), %eax
	addl	$1, %eax
	movl	%eax, -4(%rbp)
	jmp	.LBB27_24
.LBB27_29:                              # %for.end74
	vmovsd	.LCPI27_0(%rip), %xmm0  # xmm0 = mem[0],zero
	vmovsd	-40(%rbp), %xmm1        # xmm1 = mem[0],zero
	vmulsd	-64(%rbp), %xmm1, %xmm1
	vmovsd	-24(%rbp), %xmm2        # xmm2 = mem[0],zero
	vmulsd	-80(%rbp), %xmm2, %xmm2
	vsubsd	%xmm2, %xmm1, %xmm1
	vmovsd	%xmm1, -72(%rbp)
	vmovsd	-72(%rbp), %xmm1        # xmm1 = mem[0],zero
	vmovdqa	.LCPI27_1(%rip), %xmm2  # xmm2 = [NaN,NaN]
	vpand	%xmm2, %xmm1, %xmm1
	vucomisd	%xmm0, %xmm1
	jbe	.LBB27_31
# %bb.30:                               # %if.then79
	vmovsd	-32(%rbp), %xmm0        # xmm0 = mem[0],zero
	vmulsd	-64(%rbp), %xmm0, %xmm0
	vmovsd	-56(%rbp), %xmm1        # xmm1 = mem[0],zero
	vmulsd	-24(%rbp), %xmm1, %xmm1
	vsubsd	%xmm1, %xmm0, %xmm0
	vdivsd	-72(%rbp), %xmm0, %xmm0
	vmovsd	%xmm0, m_X1
	vmovsd	-56(%rbp), %xmm0        # xmm0 = mem[0],zero
	vmulsd	-40(%rbp), %xmm0, %xmm0
	vmovsd	-32(%rbp), %xmm1        # xmm1 = mem[0],zero
	vmulsd	-80(%rbp), %xmm1, %xmm1
	vsubsd	%xmm1, %xmm0, %xmm0
	vdivsd	-72(%rbp), %xmm0, %xmm0
	vmovsd	%xmm0, m_X2
	jmp	.LBB27_32
.LBB27_31:                              # %if.else
	vmovsd	-32(%rbp), %xmm0        # xmm0 = mem[0],zero
	vdivsd	-40(%rbp), %xmm0, %xmm0
	vmovsd	%xmm0, m_X1
	vxorps	%xmm0, %xmm0, %xmm0
	vmovsd	%xmm0, m_X2
.LBB27_32:                              # %if.end89
	jmp	.LBB27_33
.LBB27_33:                              # %if.end90
	movq	img, %rax
	cmpl	$0, 24(%rax)
	jne	.LBB27_35
# %bb.34:                               # %if.then93
	vmovsd	m_X1, %xmm0             # xmm0 = mem[0],zero
	vmovsd	%xmm0, Pm_X1
	vmovsd	m_X2, %xmm0             # xmm0 = mem[0],zero
	vmovsd	%xmm0, Pm_X2
.LBB27_35:                              # %if.end94
	cmpl	$770607037, -84(%rbp)   # imm = 0x2DEE87BD
	jne	.LBB27_37
.LBB27_36:
	addq	$96, %rsp
	popq	%rbp
	.cfi_def_cfa %rsp, 8
	retq
.LBB27_37:                              # %func_exit
	.cfi_def_cfa %rbp, 16
	callq	detect_breach
	jmp	.LBB27_36
.Lfunc_end27:
	.size	RCModelEstimator.11, .Lfunc_end27-RCModelEstimator.11
	.cfi_endproc
                                        # -- End function
	.section	.rodata.cst8,"aM",@progbits,8
	.p2align	3               # -- Begin function MADModelEstimator.12
.LCPI28_0:
	.quad	4517329193108106637     # double 9.9999999999999995E-7
.LCPI28_2:
	.quad	4607182418800017408     # double 1
	.section	.rodata.cst16,"aM",@progbits,16
	.p2align	4
.LCPI28_1:
	.quad	9223372036854775807     # double NaN
	.quad	9223372036854775807     # double NaN
	.text
	.globl	MADModelEstimator.12
	.p2align	4, 0x90
	.type	MADModelEstimator.12,@function
MADModelEstimator.12:                   # @MADModelEstimator.12
	.cfi_startproc
# %bb.0:                                # %entry
	pushq	%rbp
	.cfi_def_cfa_offset 16
	.cfi_offset %rbp, -16
	movq	%rsp, %rbp
	.cfi_def_cfa_register %rbp
	subq	$96, %rsp
	movl	$1210555779, -84(%rbp)  # imm = 0x48279D83
	movl	%edi, -8(%rbp)
	movl	-8(%rbp), %eax
	movl	%eax, -12(%rbp)
	vxorps	%xmm0, %xmm0, %xmm0
	vmovsd	%xmm0, -64(%rbp)
	vmovsd	%xmm0, -24(%rbp)
	vmovsd	%xmm0, -72(%rbp)
	vmovsd	%xmm0, -56(%rbp)
	vmovsd	%xmm0, -32(%rbp)
	vmovsd	%xmm0, -48(%rbp)
	movl	$0, -36(%rbp)
	movl	$0, -4(%rbp)
.LBB28_1:                               # %for.cond
                                        # =>This Inner Loop Header: Depth=1
	movl	-4(%rbp), %eax
	cmpl	-8(%rbp), %eax
	jge	.LBB28_6
# %bb.2:                                # %for.body
                                        #   in Loop: Header=BB28_1 Depth=1
	movslq	-4(%rbp), %rax
	cmpl	$0, PictureRejected(,%rax,4)
	je	.LBB28_4
# %bb.3:                                # %if.then
                                        #   in Loop: Header=BB28_1 Depth=1
	movl	-12(%rbp), %eax
	addl	$-1, %eax
	movl	%eax, -12(%rbp)
.LBB28_4:                               # %if.end
                                        #   in Loop: Header=BB28_1 Depth=1
	jmp	.LBB28_5
.LBB28_5:                               # %for.inc
                                        #   in Loop: Header=BB28_1 Depth=1
	movl	-4(%rbp), %eax
	addl	$1, %eax
	movl	%eax, -4(%rbp)
	jmp	.LBB28_1
.LBB28_6:                               # %for.end
	vxorps	%xmm0, %xmm0, %xmm0
	vmovsd	%xmm0, MADPictureC2
	vmovsd	%xmm0, MADPictureC1
	movl	$0, -4(%rbp)
.LBB28_7:                               # %for.cond1
                                        # =>This Inner Loop Header: Depth=1
	movl	-4(%rbp), %eax
	cmpl	-8(%rbp), %eax
	jge	.LBB28_12
# %bb.8:                                # %for.body3
                                        #   in Loop: Header=BB28_7 Depth=1
	movslq	-4(%rbp), %rax
	cmpl	$0, PictureRejected(,%rax,4)
	jne	.LBB28_10
# %bb.9:                                # %if.then7
                                        #   in Loop: Header=BB28_7 Depth=1
	movslq	-4(%rbp), %rax
	vmovsd	PictureMAD(,%rax,8), %xmm0 # xmm0 = mem[0],zero
	vmovsd	%xmm0, -96(%rbp)
.LBB28_10:                              # %if.end10
                                        #   in Loop: Header=BB28_7 Depth=1
	jmp	.LBB28_11
.LBB28_11:                              # %for.inc11
                                        #   in Loop: Header=BB28_7 Depth=1
	movl	-4(%rbp), %eax
	addl	$1, %eax
	movl	%eax, -4(%rbp)
	jmp	.LBB28_7
.LBB28_12:                              # %for.end13
	movl	$0, -4(%rbp)
.LBB28_13:                              # %for.cond14
                                        # =>This Inner Loop Header: Depth=1
	movl	-4(%rbp), %eax
	cmpl	-8(%rbp), %eax
	jge	.LBB28_21
# %bb.14:                               # %for.body16
                                        #   in Loop: Header=BB28_13 Depth=1
	movslq	-4(%rbp), %rax
	vmovsd	PictureMAD(,%rax,8), %xmm0 # xmm0 = mem[0],zero
	vucomisd	-96(%rbp), %xmm0
	jne	.LBB28_15
	jp	.LBB28_15
	jmp	.LBB28_17
.LBB28_15:                              # %land.lhs.true
                                        #   in Loop: Header=BB28_13 Depth=1
	movslq	-4(%rbp), %rax
	cmpl	$0, PictureRejected(,%rax,4)
	jne	.LBB28_17
# %bb.16:                               # %if.then23
                                        #   in Loop: Header=BB28_13 Depth=1
	movl	$1, -36(%rbp)
.LBB28_17:                              # %if.end24
                                        #   in Loop: Header=BB28_13 Depth=1
	movslq	-4(%rbp), %rax
	cmpl	$0, PictureRejected(,%rax,4)
	jne	.LBB28_19
# %bb.18:                               # %if.then28
                                        #   in Loop: Header=BB28_13 Depth=1
	movslq	-4(%rbp), %rax
	vmovsd	PictureMAD(,%rax,8), %xmm0 # xmm0 = mem[0],zero
	movslq	-4(%rbp), %rax
	vmovsd	ReferenceMAD(,%rax,8), %xmm1 # xmm1 = mem[0],zero
	vcvtsi2sdl	-12(%rbp), %xmm0, %xmm2
	vmulsd	%xmm2, %xmm1, %xmm1
	vdivsd	%xmm1, %xmm0, %xmm0
	vaddsd	MADPictureC1, %xmm0, %xmm0
	vmovsd	%xmm0, MADPictureC1
.LBB28_19:                              # %if.end33
                                        #   in Loop: Header=BB28_13 Depth=1
	jmp	.LBB28_20
.LBB28_20:                              # %for.inc34
                                        #   in Loop: Header=BB28_13 Depth=1
	movl	-4(%rbp), %eax
	addl	$1, %eax
	movl	%eax, -4(%rbp)
	jmp	.LBB28_13
.LBB28_21:                              # %for.end36
	cmpl	$1, -12(%rbp)
	jl	.LBB28_33
# %bb.22:                               # %land.lhs.true39
	cmpl	$0, -36(%rbp)
	je	.LBB28_33
# %bb.23:                               # %if.then41
	movl	$0, -4(%rbp)
.LBB28_24:                              # %for.cond42
                                        # =>This Inner Loop Header: Depth=1
	movl	-4(%rbp), %eax
	cmpl	-8(%rbp), %eax
	jge	.LBB28_29
# %bb.25:                               # %for.body45
                                        #   in Loop: Header=BB28_24 Depth=1
	movslq	-4(%rbp), %rax
	cmpl	$0, PictureRejected(,%rax,4)
	jne	.LBB28_27
# %bb.26:                               # %if.then49
                                        #   in Loop: Header=BB28_24 Depth=1
	vmovsd	.LCPI28_2(%rip), %xmm0  # xmm0 = mem[0],zero
	vaddsd	-64(%rbp), %xmm0, %xmm0
	vmovsd	%xmm0, -64(%rbp)
	movslq	-4(%rbp), %rax
	vmovsd	ReferenceMAD(,%rax,8), %xmm0 # xmm0 = mem[0],zero
	vaddsd	-24(%rbp), %xmm0, %xmm0
	vmovsd	%xmm0, -24(%rbp)
	vmovsd	-24(%rbp), %xmm0        # xmm0 = mem[0],zero
	vmovsd	%xmm0, -72(%rbp)
	movslq	-4(%rbp), %rax
	vmovsd	ReferenceMAD(,%rax,8), %xmm0 # xmm0 = mem[0],zero
	movslq	-4(%rbp), %rax
	vmulsd	ReferenceMAD(,%rax,8), %xmm0, %xmm0
	vaddsd	-56(%rbp), %xmm0, %xmm0
	vmovsd	%xmm0, -56(%rbp)
	movslq	-4(%rbp), %rax
	vmovsd	PictureMAD(,%rax,8), %xmm0 # xmm0 = mem[0],zero
	vaddsd	-32(%rbp), %xmm0, %xmm0
	vmovsd	%xmm0, -32(%rbp)
	movslq	-4(%rbp), %rax
	vmovsd	PictureMAD(,%rax,8), %xmm0 # xmm0 = mem[0],zero
	movslq	-4(%rbp), %rax
	vmulsd	ReferenceMAD(,%rax,8), %xmm0, %xmm0
	vaddsd	-48(%rbp), %xmm0, %xmm0
	vmovsd	%xmm0, -48(%rbp)
.LBB28_27:                              # %if.end69
                                        #   in Loop: Header=BB28_24 Depth=1
	jmp	.LBB28_28
.LBB28_28:                              # %for.inc70
                                        #   in Loop: Header=BB28_24 Depth=1
	movl	-4(%rbp), %eax
	addl	$1, %eax
	movl	%eax, -4(%rbp)
	jmp	.LBB28_24
.LBB28_29:                              # %for.end72
	vmovsd	.LCPI28_0(%rip), %xmm0  # xmm0 = mem[0],zero
	vmovsd	-64(%rbp), %xmm1        # xmm1 = mem[0],zero
	vmulsd	-56(%rbp), %xmm1, %xmm1
	vmovsd	-24(%rbp), %xmm2        # xmm2 = mem[0],zero
	vmulsd	-72(%rbp), %xmm2, %xmm2
	vsubsd	%xmm2, %xmm1, %xmm1
	vmovsd	%xmm1, -80(%rbp)
	vmovsd	-80(%rbp), %xmm1        # xmm1 = mem[0],zero
	vmovdqa	.LCPI28_1(%rip), %xmm2  # xmm2 = [NaN,NaN]
	vpand	%xmm2, %xmm1, %xmm1
	vucomisd	%xmm0, %xmm1
	jbe	.LBB28_31
# %bb.30:                               # %if.then77
	vmovsd	-32(%rbp), %xmm0        # xmm0 = mem[0],zero
	vmulsd	-56(%rbp), %xmm0, %xmm0
	vmovsd	-48(%rbp), %xmm1        # xmm1 = mem[0],zero
	vmulsd	-24(%rbp), %xmm1, %xmm1
	vsubsd	%xmm1, %xmm0, %xmm0
	vdivsd	-80(%rbp), %xmm0, %xmm0
	vmovsd	%xmm0, MADPictureC2
	vmovsd	-48(%rbp), %xmm0        # xmm0 = mem[0],zero
	vmulsd	-64(%rbp), %xmm0, %xmm0
	vmovsd	-32(%rbp), %xmm1        # xmm1 = mem[0],zero
	vmulsd	-72(%rbp), %xmm1, %xmm1
	vsubsd	%xmm1, %xmm0, %xmm0
	vdivsd	-80(%rbp), %xmm0, %xmm0
	vmovsd	%xmm0, MADPictureC1
	jmp	.LBB28_32
.LBB28_31:                              # %if.else
	vmovsd	-32(%rbp), %xmm0        # xmm0 = mem[0],zero
	vdivsd	-24(%rbp), %xmm0, %xmm0
	vmovsd	%xmm0, MADPictureC1
	vxorps	%xmm0, %xmm0, %xmm0
	vmovsd	%xmm0, MADPictureC2
.LBB28_32:                              # %if.end87
	jmp	.LBB28_33
.LBB28_33:                              # %if.end88
	movq	img, %rax
	cmpl	$0, 24(%rax)
	jne	.LBB28_35
# %bb.34:                               # %if.then91
	vmovsd	MADPictureC1, %xmm0     # xmm0 = mem[0],zero
	vmovsd	%xmm0, PMADPictureC1
	vmovsd	MADPictureC2, %xmm0     # xmm0 = mem[0],zero
	vmovsd	%xmm0, PMADPictureC2
.LBB28_35:                              # %if.end92
	cmpl	$1210555779, -84(%rbp)  # imm = 0x48279D83
	jne	.LBB28_37
.LBB28_36:
	addq	$96, %rsp
	popq	%rbp
	.cfi_def_cfa %rsp, 8
	retq
.LBB28_37:                              # %func_exit
	.cfi_def_cfa %rbp, 16
	callq	detect_breach
	jmp	.LBB28_36
.Lfunc_end28:
	.size	MADModelEstimator.12, .Lfunc_end28-MADModelEstimator.12
	.cfi_endproc
                                        # -- End function
	.section	.rodata.cst8,"aM",@progbits,8
	.p2align	3               # -- Begin function rc_init_seq.13
.LCPI29_0:
	.quad	4605380978949069210     # double 0.80000000000000004
.LCPI29_1:
	.quad	4612947026323051643     # double 2.5600000000000001
.LCPI29_2:
	.quad	4616189618054758400     # double 4
.LCPI29_3:
	.quad	4602678819172646912     # double 0.5
.LCPI29_4:
	.quad	4606281698874543309     # double 0.90000000000000002
.LCPI29_5:
	.quad	4598175219545276416     # double 0.25
.LCPI29_6:
	.quad	4607182418800017408     # double 1
.LCPI29_7:
	.quad	4612586738352862003     # double 2.3999999999999999
.LCPI29_8:
	.quad	4608983858650965606     # double 1.3999999999999999
.LCPI29_9:
	.quad	4603579539098121011     # double 0.59999999999999998
.LCPI29_10:
	.quad	4608083138725491507     # double 1.2
.LCPI29_11:
	.quad	4596373779694328218     # double 0.20000000000000001
.LCPI29_12:
	.quad	4599075939470750515     # double 0.29999999999999999
.LCPI29_13:
	.quad	4591870180066957722     # double 0.10000000000000001
	.text
	.globl	rc_init_seq.13
	.p2align	4, 0x90
	.type	rc_init_seq.13,@function
rc_init_seq.13:                         # @rc_init_seq.13
	.cfi_startproc
# %bb.0:                                # %entry
	pushq	%rbp
	.cfi_def_cfa_offset 16
	.cfi_offset %rbp, -16
	movq	%rsp, %rbp
	.cfi_def_cfa_register %rbp
	subq	$48, %rsp
	movl	$1368230205, -44(%rbp)  # imm = 0x518D893D
	movl	$0, Xp
	movl	$0, Xb
	movq	input, %rax
	vcvtsi2sdl	3240(%rax), %xmm0, %xmm0
	vmovsd	%xmm0, bit_rate
	movq	img, %rax
	vmovss	48(%rax), %xmm0         # xmm0 = mem[0],zero,zero,zero
	movq	input, %rax
	movl	1236(%rax), %eax
	addl	$1, %eax
	vcvtsi2ss	%eax, %xmm0, %xmm1
	vmulss	%xmm1, %xmm0, %xmm0
	movq	input, %rax
	movl	20(%rax), %eax
	addl	$1, %eax
	vcvtsi2ss	%eax, %xmm0, %xmm1
	vdivss	%xmm1, %xmm0, %xmm0
	vcvtss2sd	%xmm0, %xmm0, %xmm0
	vmovsd	%xmm0, frame_rate
	vmovsd	bit_rate, %xmm0         # xmm0 = mem[0],zero
	vmovsd	%xmm0, PreviousBit_Rate
	movq	img, %rax
	movl	60(%rax), %eax
	movq	img, %rcx
	imull	52(%rcx), %eax
	cltd
	movl	$256, %ecx              # imm = 0x100
	idivl	%ecx
	movq	img, %rcx
	movl	%eax, 72608(%rcx)
	movq	input, %rax
	movl	3248(%rax), %eax
	movq	img, %rcx
	cmpl	72608(%rcx), %eax
	jle	.LBB29_2
# %bb.1:                                # %if.then
	movq	img, %rax
	movl	72608(%rax), %eax
	movq	input, %rcx
	movl	%eax, 3248(%rcx)
.LBB29_2:                               # %if.end
	movq	input, %rax
	movl	3248(%rax), %eax
	movq	img, %rcx
	cmpl	72608(%rcx), %eax
	jge	.LBB29_4
# %bb.3:                                # %if.then15
	movq	img, %rax
	movl	72608(%rax), %eax
	movq	input, %rcx
	cltd
	idivl	3248(%rcx)
	movl	%eax, TotalNumberofBasicUnit
.LBB29_4:                               # %if.end19
	vmovsd	.LCPI29_0(%rip), %xmm0  # xmm0 = mem[0],zero
	vmovsd	.LCPI29_1(%rip), %xmm1  # xmm1 = mem[0],zero
	vmovsd	.LCPI29_2(%rip), %xmm2  # xmm2 = mem[0],zero
	vmovsd	%xmm2, MINVALUE
	vmulsd	bit_rate, %xmm1, %xmm1
	vmovsd	%xmm1, BufferSize
	vxorps	%xmm1, %xmm1, %xmm1
	vmovsd	%xmm1, CurrentBufferFullness
	vmovsd	CurrentBufferFullness, %xmm1 # xmm1 = mem[0],zero
	vmovsd	%xmm1, GOPTargetBufferLevel
	vmulsd	BufferSize, %xmm0, %xmm0
	vmovsd	%xmm0, InitialDelayOffset
	movl	$0, m_windowSize
	movl	$0, MADm_windowSize
	movq	img, %rax
	movl	$0, 72560(%rax)
	movq	img, %rax
	movl	$0, 72564(%rax)
	movq	img, %rax
	movl	$0, 72568(%rax)
	movl	$0, R
	movq	input, %rax
	cmpl	$0, 1236(%rax)
	jle	.LBB29_6
# %bb.5:                                # %if.then25
	vmovsd	.LCPI29_4(%rip), %xmm0  # xmm0 = mem[0],zero
	vmovsd	.LCPI29_5(%rip), %xmm1  # xmm1 = mem[0],zero
	vmovsd	%xmm1, GAMMAP
	vmovsd	%xmm0, BETAP
	jmp	.LBB29_7
.LBB29_6:                               # %if.else
	vmovsd	.LCPI29_3(%rip), %xmm0  # xmm0 = mem[0],zero
	vmovsd	%xmm0, GAMMAP
	vmovsd	%xmm0, BETAP
.LBB29_7:                               # %if.end26
	vmovsd	.LCPI29_6(%rip), %xmm0  # xmm0 = mem[0],zero
	movl	$0, PPreHeader
	vmulsd	bit_rate, %xmm0, %xmm1
	vmovsd	%xmm1, Pm_X1
	vxorps	%xmm1, %xmm1, %xmm1
	vmovsd	%xmm1, Pm_X2
	vmovsd	%xmm0, PMADPictureC1
	vmovsd	%xmm1, PMADPictureC2
	movl	$0, -4(%rbp)
.LBB29_8:                               # %for.cond
                                        # =>This Inner Loop Header: Depth=1
	cmpl	$20, -4(%rbp)
	jge	.LBB29_11
# %bb.9:                                # %for.body
                                        #   in Loop: Header=BB29_8 Depth=1
	movslq	-4(%rbp), %rax
	vxorps	%xmm0, %xmm0, %xmm0
	vmovsd	%xmm0, Pm_rgQp(,%rax,8)
	movslq	-4(%rbp), %rax
	vmovsd	%xmm0, Pm_rgRp(,%rax,8)
	movslq	-4(%rbp), %rax
	vmovsd	%xmm0, PPictureMAD(,%rax,8)
# %bb.10:                               # %for.inc
                                        #   in Loop: Header=BB29_8 Depth=1
	movl	-4(%rbp), %eax
	addl	$1, %eax
	movl	%eax, -4(%rbp)
	jmp	.LBB29_8
.LBB29_11:                              # %for.end
	vxorps	%xmm0, %xmm0, %xmm0
	vmovsd	%xmm0, PPictureMAD+160
	movl	$2, PDuantQp
	movl	$0, PAveHeaderBits1
	movl	$0, PAveHeaderBits3
	cmpl	$9, TotalNumberofBasicUnit
	jl	.LBB29_13
# %bb.12:                               # %if.then36
	movl	$1, DDquant
	jmp	.LBB29_14
.LBB29_13:                              # %if.else37
	movl	$2, DDquant
.LBB29_14:                              # %if.end38
	vmovsd	.LCPI29_6(%rip), %xmm0  # xmm0 = mem[0],zero
	movq	img, %rax
	movl	52(%rax), %eax
	cltd
	movl	$16, %ecx
	idivl	%ecx
	movl	%eax, MBPerRow
	movq	img, %rax
	movl	$0, 72600(%rax)
	movl	$51, RC_MAX_QUANT
	movl	$0, RC_MIN_QUANT
	vmulsd	bit_rate, %xmm0, %xmm0
	vmovsd	frame_rate, %xmm1       # xmm1 = mem[0],zero
	movq	img, %rax
	vcvtsi2sdl	52(%rax), %xmm0, %xmm2
	vmulsd	%xmm2, %xmm1, %xmm1
	movq	img, %rax
	vcvtsi2sdl	60(%rax), %xmm0, %xmm2
	vmulsd	%xmm2, %xmm1, %xmm1
	vdivsd	%xmm1, %xmm0, %xmm0
	vmovsd	%xmm0, -32(%rbp)
	movq	img, %rax
	cmpl	$176, 52(%rax)
	jne	.LBB29_16
# %bb.15:                               # %if.then52
	vmovsd	.LCPI29_9(%rip), %xmm0  # xmm0 = mem[0],zero
	vmovsd	.LCPI29_12(%rip), %xmm1 # xmm1 = mem[0],zero
	vmovsd	.LCPI29_13(%rip), %xmm2 # xmm2 = mem[0],zero
	vmovsd	%xmm2, -24(%rbp)
	vmovsd	%xmm1, -16(%rbp)
	vmovsd	%xmm0, -40(%rbp)
	jmp	.LBB29_20
.LBB29_16:                              # %if.else53
	movq	img, %rax
	cmpl	$352, 52(%rax)          # imm = 0x160
	jne	.LBB29_18
# %bb.17:                               # %if.then57
	vmovsd	.LCPI29_10(%rip), %xmm0 # xmm0 = mem[0],zero
	vmovsd	.LCPI29_9(%rip), %xmm1  # xmm1 = mem[0],zero
	vmovsd	.LCPI29_11(%rip), %xmm2 # xmm2 = mem[0],zero
	vmovsd	%xmm2, -24(%rbp)
	vmovsd	%xmm1, -16(%rbp)
	vmovsd	%xmm0, -40(%rbp)
	jmp	.LBB29_19
.LBB29_18:                              # %if.else58
	vmovsd	.LCPI29_7(%rip), %xmm0  # xmm0 = mem[0],zero
	vmovsd	.LCPI29_8(%rip), %xmm1  # xmm1 = mem[0],zero
	vmovsd	.LCPI29_9(%rip), %xmm2  # xmm2 = mem[0],zero
	vmovsd	%xmm2, -24(%rbp)
	vmovsd	%xmm1, -16(%rbp)
	vmovsd	%xmm0, -40(%rbp)
.LBB29_19:                              # %if.end59
	jmp	.LBB29_20
.LBB29_20:                              # %if.end60
	movq	input, %rax
	cmpl	$0, 3244(%rax)
	jne	.LBB29_31
# %bb.21:                               # %if.then63
	vmovsd	-32(%rbp), %xmm0        # xmm0 = mem[0],zero
	vmovsd	-24(%rbp), %xmm1        # xmm1 = mem[0],zero
	vucomisd	%xmm0, %xmm1
	jb	.LBB29_23
# %bb.22:                               # %if.then66
	movl	$35, -8(%rbp)
	jmp	.LBB29_30
.LBB29_23:                              # %if.else67
	vmovsd	-32(%rbp), %xmm0        # xmm0 = mem[0],zero
	vmovsd	-16(%rbp), %xmm1        # xmm1 = mem[0],zero
	vucomisd	%xmm0, %xmm1
	jb	.LBB29_25
# %bb.24:                               # %if.then70
	movl	$25, -8(%rbp)
	jmp	.LBB29_29
.LBB29_25:                              # %if.else71
	vmovsd	-32(%rbp), %xmm0        # xmm0 = mem[0],zero
	vmovsd	-40(%rbp), %xmm1        # xmm1 = mem[0],zero
	vucomisd	%xmm0, %xmm1
	jb	.LBB29_27
# %bb.26:                               # %if.then74
	movl	$20, -8(%rbp)
	jmp	.LBB29_28
.LBB29_27:                              # %if.else75
	movl	$10, -8(%rbp)
.LBB29_28:                              # %if.end76
	jmp	.LBB29_29
.LBB29_29:                              # %if.end77
	jmp	.LBB29_30
.LBB29_30:                              # %if.end78
	movl	-8(%rbp), %eax
	movq	input, %rcx
	movl	%eax, 3244(%rcx)
.LBB29_31:                              # %if.end80
	cmpl	$1368230205, -44(%rbp)  # imm = 0x518D893D
	jne	.LBB29_33
.LBB29_32:
	addq	$48, %rsp
	popq	%rbp
	.cfi_def_cfa %rsp, 8
	retq
.LBB29_33:                              # %func_exit
	.cfi_def_cfa %rbp, 16
	callq	detect_breach
	jmp	.LBB29_32
.Lfunc_end29:
	.size	rc_init_seq.13, .Lfunc_end29-rc_init_seq.13
	.cfi_endproc
                                        # -- End function
	.section	.rodata.cst8,"aM",@progbits,8
	.p2align	3               # -- Begin function updateQuantizationParameter.14
.LCPI30_0:
	.quad	4616189618054758400     # double 4
.LCPI30_1:
	.quad	4611686018427387904     # double 2
.LCPI30_2:
	.quad	4602678819172646912     # double 0.5
.LCPI30_3:
	.quad	4607182418800017408     # double 1
	.text
	.globl	updateQuantizationParameter.14
	.p2align	4, 0x90
	.type	updateQuantizationParameter.14,@function
updateQuantizationParameter.14:         # @updateQuantizationParameter.14
	.cfi_startproc
# %bb.0:                                # %entry
	pushq	%rbp
	.cfi_def_cfa_offset 16
	.cfi_offset %rbp, -16
	movq	%rsp, %rbp
	.cfi_def_cfa_register %rbp
	pushq	%rbx
	subq	$72, %rsp
	.cfi_offset %rbx, -24
	movl	$174657906, -56(%rbp)   # imm = 0xA691172
	movl	%edi, -36(%rbp)
	movq	img, %rax
	movl	72620(%rax), %eax
	movq	img, %rcx
	cmpl	72608(%rcx), %eax
	jne	.LBB30_123
# %bb.1:                                # %if.then
	cmpl	$0, -36(%rbp)
	jne	.LBB30_3
# %bb.2:                                # %lor.lhs.false
	movq	img, %rax
	cmpl	$0, 72600(%rax)
	jne	.LBB30_116
.LBB30_3:                               # %if.then2
	movq	img, %rax
	cmpl	$2, 24(%rax)
	jne	.LBB30_5
# %bb.4:                                # %if.then4
	movl	MyInitialQp, %eax
	movl	%eax, m_Qc
	movl	m_Qc, %eax
	movl	%eax, -20(%rbp)
	jmp	.LBB30_363
.LBB30_5:                               # %if.else
	movq	img, %rax
	cmpl	$1, 24(%rax)
	jne	.LBB30_69
# %bb.6:                                # %if.then7
	movq	input, %rax
	cmpl	$1, 1236(%rax)
	jne	.LBB30_25
# %bb.7:                                # %if.then9
	movq	input, %rax
	cmpl	$2, 2880(%rax)
	je	.LBB30_9
# %bb.8:                                # %lor.lhs.false11
	movq	input, %rax
	cmpl	$0, 2884(%rax)
	je	.LBB30_15
.LBB30_9:                               # %if.then13
	movq	img, %rax
	cmpl	$0, 72600(%rax)
	jne	.LBB30_14
# %bb.10:                               # %if.then16
	movq	img, %rax
	cmpl	$1, 72604(%rax)
	jne	.LBB30_12
# %bb.11:                               # %if.then18
	movl	PreviousQp2, %eax
	movl	%eax, PreviousQp1
	movl	FrameQPBuffer, %eax
	movl	%eax, PreviousQp2
	jmp	.LBB30_13
.LBB30_12:                              # %if.else19
	movl	PreviousQp2, %eax
	movl	%eax, PreviousQp1
	movl	FieldQPBuffer, %eax
	movl	%eax, PreviousQp2
.LBB30_13:                              # %if.end
	jmp	.LBB30_14
.LBB30_14:                              # %if.end20
	jmp	.LBB30_15
.LBB30_15:                              # %if.end21
	movl	PreviousQp1, %eax
	cmpl	PreviousQp2, %eax
	jne	.LBB30_17
# %bb.16:                               # %if.then23
	movl	PreviousQp1, %eax
	addl	$2, %eax
	movl	%eax, m_Qc
	jmp	.LBB30_18
.LBB30_17:                              # %if.else24
	movl	PreviousQp1, %eax
	addl	PreviousQp2, %eax
	cltd
	movl	$2, %ecx
	idivl	%ecx
	addl	$1, %eax
	movl	%eax, m_Qc
.LBB30_18:                              # %if.end27
	movl	m_Qc, %eax
	cmpl	RC_MAX_QUANT, %eax
	jge	.LBB30_20
# %bb.19:                               # %cond.true
	movl	m_Qc, %eax
	jmp	.LBB30_21
.LBB30_20:                              # %cond.false
	movl	RC_MAX_QUANT, %eax
.LBB30_21:                              # %cond.end
	movl	%eax, m_Qc
	movl	RC_MIN_QUANT, %eax
	cmpl	m_Qc, %eax
	jge	.LBB30_23
# %bb.22:                               # %cond.true30
	movl	m_Qc, %eax
	jmp	.LBB30_24
.LBB30_23:                              # %cond.false31
	movl	RC_MIN_QUANT, %eax
.LBB30_24:                              # %cond.end32
	movl	%eax, m_Qc
	jmp	.LBB30_68
.LBB30_25:                              # %if.else34
	movl	NumberofBFrames, %eax
	addl	$1, %eax
	movq	input, %rcx
	cltd
	idivl	1236(%rcx)
	movl	%edx, -12(%rbp)
	cmpl	$0, -12(%rbp)
	jne	.LBB30_27
# %bb.26:                               # %if.then38
	movq	input, %rax
	movl	1236(%rax), %eax
	movl	%eax, -12(%rbp)
.LBB30_27:                              # %if.end40
	cmpl	$1, -12(%rbp)
	jne	.LBB30_37
# %bb.28:                               # %if.then42
	movq	input, %rax
	cmpl	$2, 2880(%rax)
	je	.LBB30_30
# %bb.29:                               # %lor.lhs.false45
	movq	input, %rax
	cmpl	$0, 2884(%rax)
	je	.LBB30_36
.LBB30_30:                              # %if.then48
	movq	img, %rax
	cmpl	$0, 72600(%rax)
	jne	.LBB30_35
# %bb.31:                               # %if.then51
	movq	img, %rax
	cmpl	$1, 72604(%rax)
	jne	.LBB30_33
# %bb.32:                               # %if.then54
	movl	PreviousQp2, %eax
	movl	%eax, PreviousQp1
	movl	FrameQPBuffer, %eax
	movl	%eax, PreviousQp2
	jmp	.LBB30_34
.LBB30_33:                              # %if.else55
	movl	PreviousQp2, %eax
	movl	%eax, PreviousQp1
	movl	FieldQPBuffer, %eax
	movl	%eax, PreviousQp2
.LBB30_34:                              # %if.end56
	jmp	.LBB30_35
.LBB30_35:                              # %if.end57
	jmp	.LBB30_36
.LBB30_36:                              # %if.end58
	jmp	.LBB30_37
.LBB30_37:                              # %if.end59
	movl	PreviousQp2, %eax
	subl	PreviousQp1, %eax
	movq	input, %rcx
	imull	$4294967294, 1236(%rcx), %ecx # imm = 0xFFFFFFFE
	subl	$3, %ecx
	cmpl	%ecx, %eax
	jg	.LBB30_39
# %bb.38:                               # %if.then63
	movl	$-3, -24(%rbp)
	jmp	.LBB30_52
.LBB30_39:                              # %if.else64
	movl	PreviousQp2, %eax
	subl	PreviousQp1, %eax
	movq	input, %rcx
	imull	$4294967294, 1236(%rcx), %ecx # imm = 0xFFFFFFFE
	subl	$2, %ecx
	cmpl	%ecx, %eax
	jne	.LBB30_41
# %bb.40:                               # %if.then70
	movl	$-2, -24(%rbp)
	jmp	.LBB30_51
.LBB30_41:                              # %if.else71
	movl	PreviousQp2, %eax
	subl	PreviousQp1, %eax
	movq	input, %rcx
	imull	$4294967294, 1236(%rcx), %ecx # imm = 0xFFFFFFFE
	subl	$1, %ecx
	cmpl	%ecx, %eax
	jne	.LBB30_43
# %bb.42:                               # %if.then77
	movl	$-1, -24(%rbp)
	jmp	.LBB30_50
.LBB30_43:                              # %if.else78
	movl	PreviousQp2, %eax
	subl	PreviousQp1, %eax
	movq	input, %rcx
	imull	$4294967294, 1236(%rcx), %ecx # imm = 0xFFFFFFFE
	cmpl	%ecx, %eax
	jne	.LBB30_45
# %bb.44:                               # %if.then83
	movl	$0, -24(%rbp)
	jmp	.LBB30_49
.LBB30_45:                              # %if.else84
	movl	PreviousQp2, %eax
	subl	PreviousQp1, %eax
	movq	input, %rcx
	imull	$4294967294, 1236(%rcx), %ecx # imm = 0xFFFFFFFE
	addl	$1, %ecx
	cmpl	%ecx, %eax
	jne	.LBB30_47
# %bb.46:                               # %if.then90
	movl	$1, -24(%rbp)
	jmp	.LBB30_48
.LBB30_47:                              # %if.else91
	movl	$2, -24(%rbp)
.LBB30_48:                              # %if.end92
	jmp	.LBB30_49
.LBB30_49:                              # %if.end93
	jmp	.LBB30_50
.LBB30_50:                              # %if.end94
	jmp	.LBB30_51
.LBB30_51:                              # %if.end95
	jmp	.LBB30_52
.LBB30_52:                              # %if.end96
	movl	PreviousQp1, %eax
	addl	-24(%rbp), %eax
	movl	%eax, m_Qc
	movl	-12(%rbp), %ecx
	subl	$1, %ecx
	shll	$1, %ecx
	movl	-12(%rbp), %eax
	subl	$1, %eax
	imull	$4294967294, %eax, %esi # imm = 0xFFFFFFFE
	movl	-12(%rbp), %eax
	subl	$1, %eax
	movl	PreviousQp2, %edx
	subl	PreviousQp1, %edx
	imull	%edx, %eax
	movq	input, %rdx
	movl	1236(%rdx), %edi
	subl	$1, %edi
	cltd
	idivl	%edi
	cmpl	%eax, %esi
	jge	.LBB30_54
# %bb.53:                               # %cond.true109
	movl	-12(%rbp), %eax
	subl	$1, %eax
	movl	PreviousQp2, %edx
	subl	PreviousQp1, %edx
	imull	%edx, %eax
	movq	input, %rdx
	movl	1236(%rdx), %esi
	subl	$1, %esi
	cltd
	idivl	%esi
	jmp	.LBB30_55
.LBB30_54:                              # %cond.false116
	movl	-12(%rbp), %eax
	subl	$1, %eax
	imull	$4294967294, %eax, %eax # imm = 0xFFFFFFFE
.LBB30_55:                              # %cond.end119
	cmpl	%eax, %ecx
	jge	.LBB30_57
# %bb.56:                               # %cond.true122
	movl	-12(%rbp), %eax
	subl	$1, %eax
	shll	$1, %eax
	jmp	.LBB30_61
.LBB30_57:                              # %cond.false125
	movl	-12(%rbp), %eax
	subl	$1, %eax
	imull	$4294967294, %eax, %ecx # imm = 0xFFFFFFFE
	movl	-12(%rbp), %eax
	subl	$1, %eax
	movl	PreviousQp2, %edx
	subl	PreviousQp1, %edx
	imull	%edx, %eax
	movq	input, %rdx
	movl	1236(%rdx), %esi
	subl	$1, %esi
	cltd
	idivl	%esi
	cmpl	%eax, %ecx
	jge	.LBB30_59
# %bb.58:                               # %cond.true135
	movl	-12(%rbp), %eax
	subl	$1, %eax
	movl	PreviousQp2, %ecx
	subl	PreviousQp1, %ecx
	imull	%ecx, %eax
	movq	input, %rcx
	movl	1236(%rcx), %ecx
	subl	$1, %ecx
	cltd
	idivl	%ecx
	jmp	.LBB30_60
.LBB30_59:                              # %cond.false142
	movl	-12(%rbp), %eax
	subl	$1, %eax
	imull	$4294967294, %eax, %eax # imm = 0xFFFFFFFE
.LBB30_60:                              # %cond.end145
.LBB30_61:                              # %cond.end147
	addl	m_Qc, %eax
	movl	%eax, m_Qc
	movl	m_Qc, %eax
	cmpl	RC_MAX_QUANT, %eax
	jge	.LBB30_63
# %bb.62:                               # %cond.true151
	movl	m_Qc, %eax
	jmp	.LBB30_64
.LBB30_63:                              # %cond.false152
	movl	RC_MAX_QUANT, %eax
.LBB30_64:                              # %cond.end153
	movl	%eax, m_Qc
	movl	RC_MIN_QUANT, %eax
	cmpl	m_Qc, %eax
	jge	.LBB30_66
# %bb.65:                               # %cond.true156
	movl	m_Qc, %eax
	jmp	.LBB30_67
.LBB30_66:                              # %cond.false157
	movl	RC_MIN_QUANT, %eax
.LBB30_67:                              # %cond.end158
	movl	%eax, m_Qc
.LBB30_68:                              # %if.end160
	movl	m_Qc, %eax
	movl	%eax, -20(%rbp)
	jmp	.LBB30_363
.LBB30_69:                              # %if.else161
	movq	img, %rax
	cmpl	$0, 24(%rax)
	jne	.LBB30_77
# %bb.70:                               # %land.lhs.true
	movq	img, %rax
	cmpl	$0, 72576(%rax)
	jne	.LBB30_77
# %bb.71:                               # %if.then165
	movl	MyInitialQp, %eax
	movl	%eax, m_Qc
	movq	img, %rax
	cmpl	$0, 72600(%rax)
	jne	.LBB30_76
# %bb.72:                               # %if.then168
	movq	active_sps, %rax
	cmpl	$0, 1148(%rax)
	je	.LBB30_74
# %bb.73:                               # %if.then170
	movl	m_Qc, %eax
	movq	img, %rcx
	addl	72572(%rcx), %eax
	movl	%eax, 72572(%rcx)
	movl	PreviousQp2, %eax
	movl	%eax, PreviousQp1
	movl	m_Qc, %eax
	movl	%eax, PreviousQp2
	movl	m_Qc, %eax
	movl	%eax, Pm_Qp
	jmp	.LBB30_75
.LBB30_74:                              # %if.else172
	movl	m_Qc, %eax
	movl	%eax, FrameQPBuffer
.LBB30_75:                              # %if.end173
	jmp	.LBB30_76
.LBB30_76:                              # %if.end174
	movl	m_Qc, %eax
	movl	%eax, -20(%rbp)
	jmp	.LBB30_363
.LBB30_77:                              # %if.else175
	movq	input, %rax
	cmpl	$2, 2880(%rax)
	je	.LBB30_79
# %bb.78:                               # %lor.lhs.false178
	movq	input, %rax
	cmpl	$0, 2884(%rax)
	je	.LBB30_84
.LBB30_79:                              # %land.lhs.true181
	movq	img, %rax
	cmpl	$0, 72600(%rax)
	jne	.LBB30_84
# %bb.80:                               # %if.then184
	movq	img, %rax
	cmpl	$1, 72604(%rax)
	jne	.LBB30_82
# %bb.81:                               # %if.then187
	movl	FrameQPBuffer, %eax
	movq	img, %rcx
	addl	72572(%rcx), %eax
	movl	%eax, 72572(%rcx)
	movl	FrameQPBuffer, %eax
	movl	%eax, Pm_Qp
	jmp	.LBB30_83
.LBB30_82:                              # %if.else190
	movl	FieldQPBuffer, %eax
	movq	img, %rcx
	addl	72572(%rcx), %eax
	movl	%eax, 72572(%rcx)
	movl	FieldQPBuffer, %eax
	movl	%eax, Pm_Qp
.LBB30_83:                              # %if.end193
	jmp	.LBB30_84
.LBB30_84:                              # %if.end194
	vmovsd	Pm_X1, %xmm0            # xmm0 = mem[0],zero
	vmovsd	%xmm0, m_X1
	vmovsd	Pm_X2, %xmm0            # xmm0 = mem[0],zero
	vmovsd	%xmm0, m_X2
	movl	PPreHeader, %eax
	movl	%eax, m_Hp
	movl	Pm_Qp, %eax
	movl	%eax, m_Qp
	movl	PDuantQp, %eax
	movl	%eax, DuantQp
	vmovsd	PMADPictureC1, %xmm0    # xmm0 = mem[0],zero
	vmovsd	%xmm0, MADPictureC1
	vmovsd	PMADPictureC2, %xmm0    # xmm0 = mem[0],zero
	vmovsd	%xmm0, MADPictureC2
	vmovsd	PPictureMAD, %xmm0      # xmm0 = mem[0],zero
	vmovsd	%xmm0, PreviousPictureMAD
	vmovsd	MADPictureC1, %xmm0     # xmm0 = mem[0],zero
	vmulsd	PreviousPictureMAD, %xmm0, %xmm0
	vaddsd	MADPictureC2, %xmm0, %xmm0
	vmovsd	%xmm0, CurrentFrameMAD
	cmpq	$0, T
	jge	.LBB30_89
# %bb.85:                               # %if.then198
	movl	m_Qp, %eax
	addl	DuantQp, %eax
	movl	%eax, m_Qc
	movl	m_Qc, %eax
	cmpl	RC_MAX_QUANT, %eax
	jge	.LBB30_87
# %bb.86:                               # %cond.true201
	movl	m_Qc, %eax
	jmp	.LBB30_88
.LBB30_87:                              # %cond.false202
	movl	RC_MAX_QUANT, %eax
.LBB30_88:                              # %cond.end203
	movl	%eax, m_Qc
	jmp	.LBB30_110
.LBB30_89:                              # %if.else205
	movq	T, %rax
	movslq	m_Hp, %rcx
	subq	%rcx, %rax
	movl	%eax, -28(%rbp)
	movl	-28(%rbp), %eax
	vmovsd	bit_rate, %xmm0         # xmm0 = mem[0],zero
	vmovsd	MINVALUE, %xmm1         # xmm1 = mem[0],zero
	vmulsd	frame_rate, %xmm1, %xmm1
	vdivsd	%xmm1, %xmm0, %xmm0
	vcvttsd2si	%xmm0, %ecx
	cmpl	%ecx, %eax
	jge	.LBB30_91
# %bb.90:                               # %cond.true213
	vmovsd	bit_rate, %xmm0         # xmm0 = mem[0],zero
	vmovsd	MINVALUE, %xmm1         # xmm1 = mem[0],zero
	vmulsd	frame_rate, %xmm1, %xmm1
	vdivsd	%xmm1, %xmm0, %xmm0
	vcvttsd2si	%xmm0, %eax
	jmp	.LBB30_92
.LBB30_91:                              # %cond.false217
	movl	-28(%rbp), %eax
.LBB30_92:                              # %cond.end218
	vmovsd	.LCPI30_0(%rip), %xmm0  # xmm0 = mem[0],zero
	movl	%eax, -28(%rbp)
	vmovsd	CurrentFrameMAD, %xmm1  # xmm1 = mem[0],zero
	vmulsd	m_X1, %xmm1, %xmm1
	vmulsd	CurrentFrameMAD, %xmm1, %xmm1
	vmulsd	m_X1, %xmm1, %xmm1
	vmulsd	m_X2, %xmm0, %xmm0
	vmulsd	CurrentFrameMAD, %xmm0, %xmm0
	vcvtsi2sdl	-28(%rbp), %xmm0, %xmm2
	vmulsd	%xmm2, %xmm0, %xmm0
	vaddsd	%xmm0, %xmm1, %xmm0
	vmovsd	%xmm0, -48(%rbp)
	vmovsd	m_X2, %xmm0             # xmm0 = mem[0],zero
	vxorps	%xmm1, %xmm1, %xmm1
	vucomisd	%xmm1, %xmm0
	jne	.LBB30_93
	jp	.LBB30_93
	jmp	.LBB30_95
.LBB30_93:                              # %lor.lhs.false230
	vxorps	%xmm0, %xmm0, %xmm0
	vucomisd	-48(%rbp), %xmm0
	ja	.LBB30_95
# %bb.94:                               # %lor.lhs.false233
	vmovsd	-48(%rbp), %xmm0        # xmm0 = mem[0],zero
	callq	sqrt
	vmovsd	m_X1, %xmm1             # xmm1 = mem[0],zero
	vmulsd	CurrentFrameMAD, %xmm1, %xmm1
	vsubsd	%xmm1, %xmm0, %xmm0
	vxorps	%xmm1, %xmm1, %xmm1
	vucomisd	%xmm0, %xmm1
	jb	.LBB30_96
.LBB30_95:                              # %if.then238
	vmovsd	m_X1, %xmm0             # xmm0 = mem[0],zero
	vmulsd	CurrentFrameMAD, %xmm0, %xmm0
	vcvtsi2sdl	-28(%rbp), %xmm0, %xmm1
	vdivsd	%xmm1, %xmm0, %xmm0
	vcvtsd2ss	%xmm0, %xmm0, %xmm0
	vcvtss2sd	%xmm0, %xmm0, %xmm0
	vmovsd	%xmm0, m_Qstep
	jmp	.LBB30_97
.LBB30_96:                              # %if.else244
	vmovsd	.LCPI30_1(%rip), %xmm0  # xmm0 = mem[0],zero
	vmulsd	m_X2, %xmm0, %xmm0
	vmulsd	CurrentFrameMAD, %xmm0, %xmm0
	vmovsd	%xmm0, -64(%rbp)        # 8-byte Spill
	vmovsd	-48(%rbp), %xmm0        # xmm0 = mem[0],zero
	callq	sqrt
	vmovsd	m_X1, %xmm1             # xmm1 = mem[0],zero
	vmulsd	CurrentFrameMAD, %xmm1, %xmm1
	vsubsd	%xmm1, %xmm0, %xmm0
	vmovsd	-64(%rbp), %xmm1        # 8-byte Reload
                                        # xmm1 = mem[0],zero
	vdivsd	%xmm0, %xmm1, %xmm0
	vcvtsd2ss	%xmm0, %xmm0, %xmm0
	vcvtss2sd	%xmm0, %xmm0, %xmm0
	vmovsd	%xmm0, m_Qstep
.LBB30_97:                              # %if.end253
	vmovsd	m_Qstep, %xmm0          # xmm0 = mem[0],zero
	callq	Qstep2QP
	movl	%eax, m_Qc
	movl	m_Qp, %eax
	addl	DuantQp, %eax
	cmpl	m_Qc, %eax
	jge	.LBB30_99
# %bb.98:                               # %cond.true258
	movl	m_Qp, %eax
	addl	DuantQp, %eax
	jmp	.LBB30_100
.LBB30_99:                              # %cond.false260
	movl	m_Qc, %eax
.LBB30_100:                             # %cond.end261
	movl	%eax, m_Qc
	movl	m_Qc, %eax
	cmpl	RC_MAX_QUANT, %eax
	jge	.LBB30_102
# %bb.101:                              # %cond.true265
	movl	m_Qc, %eax
	jmp	.LBB30_103
.LBB30_102:                             # %cond.false266
	movl	RC_MAX_QUANT, %eax
.LBB30_103:                             # %cond.end267
	movl	%eax, m_Qc
	movl	m_Qp, %eax
	subl	DuantQp, %eax
	cmpl	m_Qc, %eax
	jge	.LBB30_105
# %bb.104:                              # %cond.true272
	movl	m_Qc, %eax
	jmp	.LBB30_106
.LBB30_105:                             # %cond.false273
	movl	m_Qp, %eax
	subl	DuantQp, %eax
.LBB30_106:                             # %cond.end275
	movl	%eax, m_Qc
	movl	RC_MIN_QUANT, %eax
	cmpl	m_Qc, %eax
	jge	.LBB30_108
# %bb.107:                              # %cond.true279
	movl	m_Qc, %eax
	jmp	.LBB30_109
.LBB30_108:                             # %cond.false280
	movl	RC_MIN_QUANT, %eax
.LBB30_109:                             # %cond.end281
	movl	%eax, m_Qc
.LBB30_110:                             # %if.end283
	movq	img, %rax
	cmpl	$0, 72600(%rax)
	jne	.LBB30_115
# %bb.111:                              # %if.then287
	movq	active_sps, %rax
	cmpl	$0, 1148(%rax)
	je	.LBB30_113
# %bb.112:                              # %if.then290
	movl	m_Qc, %eax
	movq	img, %rcx
	addl	72572(%rcx), %eax
	movl	%eax, 72572(%rcx)
	movl	PreviousQp2, %eax
	movl	%eax, PreviousQp1
	movl	m_Qc, %eax
	movl	%eax, PreviousQp2
	movl	m_Qc, %eax
	movl	%eax, Pm_Qp
	jmp	.LBB30_114
.LBB30_113:                             # %if.else293
	movl	m_Qc, %eax
	movl	%eax, FrameQPBuffer
.LBB30_114:                             # %if.end294
	jmp	.LBB30_115
.LBB30_115:                             # %if.end295
	movl	m_Qc, %eax
	movl	%eax, -20(%rbp)
	jmp	.LBB30_363
.LBB30_116:                             # %if.else296
	movq	img, %rax
	cmpl	$0, 24(%rax)
	jne	.LBB30_122
# %bb.117:                              # %land.lhs.true300
	movq	img, %rax
	cmpl	$0, 72612(%rax)
	jne	.LBB30_122
# %bb.118:                              # %if.then303
	movq	input, %rax
	cmpl	$1, 2880(%rax)
	jne	.LBB30_120
# %bb.119:                              # %if.then307
	movl	m_Qc, %eax
	movq	img, %rcx
	addl	72572(%rcx), %eax
	movl	%eax, 72572(%rcx)
	movl	PreviousQp2, %eax
	addl	$1, %eax
	movl	%eax, PreviousQp1
	movl	m_Qc, %eax
	movl	%eax, PreviousQp2
	movl	m_Qc, %eax
	movl	%eax, Pm_Qp
	jmp	.LBB30_121
.LBB30_120:                             # %if.else311
	movl	m_Qc, %eax
	movl	%eax, FieldQPBuffer
.LBB30_121:                             # %if.end312
	jmp	.LBB30_122
.LBB30_122:                             # %if.end313
	movl	m_Qc, %eax
	movl	%eax, -20(%rbp)
	jmp	.LBB30_363
.LBB30_123:                             # %if.else314
	movq	img, %rax
	cmpl	$2, 24(%rax)
	jne	.LBB30_125
# %bb.124:                              # %if.then318
	movl	MyInitialQp, %eax
	movl	%eax, m_Qc
	movl	m_Qc, %eax
	movl	%eax, -20(%rbp)
	jmp	.LBB30_363
.LBB30_125:                             # %if.else319
	movq	img, %rax
	cmpl	$0, 24(%rax)
	jne	.LBB30_129
# %bb.126:                              # %land.lhs.true323
	movq	img, %rax
	cmpl	$1, 72612(%rax)
	jne	.LBB30_129
# %bb.127:                              # %land.lhs.true327
	movq	img, %rax
	cmpl	$1, 72600(%rax)
	jne	.LBB30_129
# %bb.128:                              # %if.then331
	movl	MyInitialQp, %eax
	movl	%eax, m_Qc
	movl	m_Qc, %eax
	movl	%eax, -20(%rbp)
	jmp	.LBB30_363
.LBB30_129:                             # %if.else332
	movq	img, %rax
	cmpl	$1, 24(%rax)
	jne	.LBB30_196
# %bb.130:                              # %if.then336
	cmpl	$0, -36(%rbp)
	jne	.LBB30_132
# %bb.131:                              # %lor.lhs.false338
	movq	img, %rax
	cmpl	$0, 72600(%rax)
	jne	.LBB30_195
.LBB30_132:                             # %if.then342
	movq	input, %rax
	cmpl	$1, 1236(%rax)
	jne	.LBB30_151
# %bb.133:                              # %if.then346
	movq	input, %rax
	cmpl	$2, 2880(%rax)
	je	.LBB30_135
# %bb.134:                              # %lor.lhs.false350
	movq	input, %rax
	cmpl	$0, 2884(%rax)
	je	.LBB30_141
.LBB30_135:                             # %if.then353
	movq	img, %rax
	cmpl	$0, 72600(%rax)
	jne	.LBB30_140
# %bb.136:                              # %if.then357
	movq	img, %rax
	cmpl	$1, 72604(%rax)
	jne	.LBB30_138
# %bb.137:                              # %if.then361
	movl	PreviousQp2, %eax
	movl	%eax, PreviousQp1
	movl	FrameQPBuffer, %eax
	movl	%eax, PreviousQp2
	jmp	.LBB30_139
.LBB30_138:                             # %if.else362
	movl	PreviousQp2, %eax
	movl	%eax, PreviousQp1
	movl	FieldQPBuffer, %eax
	movl	%eax, PreviousQp2
.LBB30_139:                             # %if.end363
	jmp	.LBB30_140
.LBB30_140:                             # %if.end364
	jmp	.LBB30_141
.LBB30_141:                             # %if.end365
	movl	PreviousQp1, %eax
	cmpl	PreviousQp2, %eax
	jne	.LBB30_143
# %bb.142:                              # %if.then368
	movl	PreviousQp1, %eax
	addl	$2, %eax
	movl	%eax, m_Qc
	jmp	.LBB30_144
.LBB30_143:                             # %if.else370
	movl	PreviousQp1, %eax
	addl	PreviousQp2, %eax
	cltd
	movl	$2, %ecx
	idivl	%ecx
	addl	$1, %eax
	movl	%eax, m_Qc
.LBB30_144:                             # %if.end374
	movl	m_Qc, %eax
	cmpl	RC_MAX_QUANT, %eax
	jge	.LBB30_146
# %bb.145:                              # %cond.true377
	movl	m_Qc, %eax
	jmp	.LBB30_147
.LBB30_146:                             # %cond.false378
	movl	RC_MAX_QUANT, %eax
.LBB30_147:                             # %cond.end379
	movl	%eax, m_Qc
	movl	RC_MIN_QUANT, %eax
	cmpl	m_Qc, %eax
	jge	.LBB30_149
# %bb.148:                              # %cond.true383
	movl	m_Qc, %eax
	jmp	.LBB30_150
.LBB30_149:                             # %cond.false384
	movl	RC_MIN_QUANT, %eax
.LBB30_150:                             # %cond.end385
	movl	%eax, m_Qc
	jmp	.LBB30_194
.LBB30_151:                             # %if.else387
	movl	NumberofBFrames, %eax
	addl	$1, %eax
	movq	input, %rcx
	cltd
	idivl	1236(%rcx)
	movl	%edx, -12(%rbp)
	cmpl	$0, -12(%rbp)
	jne	.LBB30_153
# %bb.152:                              # %if.then393
	movq	input, %rax
	movl	1236(%rax), %eax
	movl	%eax, -12(%rbp)
.LBB30_153:                             # %if.end395
	cmpl	$1, -12(%rbp)
	jne	.LBB30_163
# %bb.154:                              # %if.then398
	movq	input, %rax
	cmpl	$2, 2880(%rax)
	je	.LBB30_156
# %bb.155:                              # %lor.lhs.false402
	movq	input, %rax
	cmpl	$0, 2884(%rax)
	je	.LBB30_162
.LBB30_156:                             # %if.then405
	movq	img, %rax
	cmpl	$0, 72600(%rax)
	jne	.LBB30_161
# %bb.157:                              # %if.then409
	movq	img, %rax
	cmpl	$1, 72604(%rax)
	jne	.LBB30_159
# %bb.158:                              # %if.then413
	movl	PreviousQp2, %eax
	movl	%eax, PreviousQp1
	movl	FrameQPBuffer, %eax
	movl	%eax, PreviousQp2
	jmp	.LBB30_160
.LBB30_159:                             # %if.else414
	movl	PreviousQp2, %eax
	movl	%eax, PreviousQp1
	movl	FieldQPBuffer, %eax
	movl	%eax, PreviousQp2
.LBB30_160:                             # %if.end415
	jmp	.LBB30_161
.LBB30_161:                             # %if.end416
	jmp	.LBB30_162
.LBB30_162:                             # %if.end417
	jmp	.LBB30_163
.LBB30_163:                             # %if.end418
	movl	PreviousQp2, %eax
	subl	PreviousQp1, %eax
	movq	input, %rcx
	imull	$4294967294, 1236(%rcx), %ecx # imm = 0xFFFFFFFE
	subl	$3, %ecx
	cmpl	%ecx, %eax
	jg	.LBB30_165
# %bb.164:                              # %if.then425
	movl	$-3, -24(%rbp)
	jmp	.LBB30_178
.LBB30_165:                             # %if.else426
	movl	PreviousQp2, %eax
	subl	PreviousQp1, %eax
	movq	input, %rcx
	imull	$4294967294, 1236(%rcx), %ecx # imm = 0xFFFFFFFE
	subl	$2, %ecx
	cmpl	%ecx, %eax
	jne	.LBB30_167
# %bb.166:                              # %if.then433
	movl	$-2, -24(%rbp)
	jmp	.LBB30_177
.LBB30_167:                             # %if.else434
	movl	PreviousQp2, %eax
	subl	PreviousQp1, %eax
	movq	input, %rcx
	imull	$4294967294, 1236(%rcx), %ecx # imm = 0xFFFFFFFE
	subl	$1, %ecx
	cmpl	%ecx, %eax
	jne	.LBB30_169
# %bb.168:                              # %if.then441
	movl	$-1, -24(%rbp)
	jmp	.LBB30_176
.LBB30_169:                             # %if.else442
	movl	PreviousQp2, %eax
	subl	PreviousQp1, %eax
	movq	input, %rcx
	imull	$4294967294, 1236(%rcx), %ecx # imm = 0xFFFFFFFE
	cmpl	%ecx, %eax
	jne	.LBB30_171
# %bb.170:                              # %if.then448
	movl	$0, -24(%rbp)
	jmp	.LBB30_175
.LBB30_171:                             # %if.else449
	movl	PreviousQp2, %eax
	subl	PreviousQp1, %eax
	movq	input, %rcx
	imull	$4294967294, 1236(%rcx), %ecx # imm = 0xFFFFFFFE
	addl	$1, %ecx
	cmpl	%ecx, %eax
	jne	.LBB30_173
# %bb.172:                              # %if.then456
	movl	$1, -24(%rbp)
	jmp	.LBB30_174
.LBB30_173:                             # %if.else457
	movl	$2, -24(%rbp)
.LBB30_174:                             # %if.end458
	jmp	.LBB30_175
.LBB30_175:                             # %if.end459
	jmp	.LBB30_176
.LBB30_176:                             # %if.end460
	jmp	.LBB30_177
.LBB30_177:                             # %if.end461
	jmp	.LBB30_178
.LBB30_178:                             # %if.end462
	movl	PreviousQp1, %eax
	addl	-24(%rbp), %eax
	movl	%eax, m_Qc
	movl	-12(%rbp), %ecx
	subl	$1, %ecx
	shll	$1, %ecx
	movl	-12(%rbp), %eax
	subl	$1, %eax
	imull	$4294967294, %eax, %esi # imm = 0xFFFFFFFE
	movl	-12(%rbp), %eax
	subl	$1, %eax
	movl	PreviousQp2, %edx
	subl	PreviousQp1, %edx
	imull	%edx, %eax
	movq	input, %rdx
	movl	1236(%rdx), %edi
	subl	$1, %edi
	cltd
	idivl	%edi
	cmpl	%eax, %esi
	jge	.LBB30_180
# %bb.179:                              # %cond.true476
	movl	-12(%rbp), %eax
	subl	$1, %eax
	movl	PreviousQp2, %edx
	subl	PreviousQp1, %edx
	imull	%edx, %eax
	movq	input, %rdx
	movl	1236(%rdx), %esi
	subl	$1, %esi
	cltd
	idivl	%esi
	jmp	.LBB30_181
.LBB30_180:                             # %cond.false483
	movl	-12(%rbp), %eax
	subl	$1, %eax
	imull	$4294967294, %eax, %eax # imm = 0xFFFFFFFE
.LBB30_181:                             # %cond.end486
	cmpl	%eax, %ecx
	jge	.LBB30_183
# %bb.182:                              # %cond.true490
	movl	-12(%rbp), %eax
	subl	$1, %eax
	shll	$1, %eax
	jmp	.LBB30_187
.LBB30_183:                             # %cond.false493
	movl	-12(%rbp), %eax
	subl	$1, %eax
	imull	$4294967294, %eax, %ecx # imm = 0xFFFFFFFE
	movl	-12(%rbp), %eax
	subl	$1, %eax
	movl	PreviousQp2, %edx
	subl	PreviousQp1, %edx
	imull	%edx, %eax
	movq	input, %rdx
	movl	1236(%rdx), %esi
	subl	$1, %esi
	cltd
	idivl	%esi
	cmpl	%eax, %ecx
	jge	.LBB30_185
# %bb.184:                              # %cond.true504
	movl	-12(%rbp), %eax
	subl	$1, %eax
	movl	PreviousQp2, %ecx
	subl	PreviousQp1, %ecx
	imull	%ecx, %eax
	movq	input, %rcx
	movl	1236(%rcx), %ecx
	subl	$1, %ecx
	cltd
	idivl	%ecx
	jmp	.LBB30_186
.LBB30_185:                             # %cond.false511
	movl	-12(%rbp), %eax
	subl	$1, %eax
	imull	$4294967294, %eax, %eax # imm = 0xFFFFFFFE
.LBB30_186:                             # %cond.end514
.LBB30_187:                             # %cond.end516
	addl	m_Qc, %eax
	movl	%eax, m_Qc
	movl	m_Qc, %eax
	cmpl	RC_MAX_QUANT, %eax
	jge	.LBB30_189
# %bb.188:                              # %cond.true521
	movl	m_Qc, %eax
	jmp	.LBB30_190
.LBB30_189:                             # %cond.false522
	movl	RC_MAX_QUANT, %eax
.LBB30_190:                             # %cond.end523
	movl	%eax, m_Qc
	movl	RC_MIN_QUANT, %eax
	cmpl	m_Qc, %eax
	jge	.LBB30_192
# %bb.191:                              # %cond.true527
	movl	m_Qc, %eax
	jmp	.LBB30_193
.LBB30_192:                             # %cond.false528
	movl	RC_MIN_QUANT, %eax
.LBB30_193:                             # %cond.end529
	movl	%eax, m_Qc
.LBB30_194:                             # %if.end531
	movl	m_Qc, %eax
	movl	%eax, -20(%rbp)
	jmp	.LBB30_363
.LBB30_195:                             # %if.else532
	movl	m_Qc, %eax
	movl	%eax, -20(%rbp)
	jmp	.LBB30_363
.LBB30_196:                             # %if.else533
	movq	img, %rax
	cmpl	$0, 24(%rax)
	jne	.LBB30_358
# %bb.197:                              # %if.then537
	movq	img, %rax
	cmpl	$1, 72568(%rax)
	jne	.LBB30_217
# %bb.198:                              # %land.lhs.true540
	movq	img, %rax
	cmpl	$0, 72576(%rax)
	jne	.LBB30_217
# %bb.199:                              # %if.then544
	movq	img, %rax
	cmpl	$0, 72600(%rax)
	je	.LBB30_202
# %bb.200:                              # %lor.lhs.false548
	movq	img, %rax
	cmpl	$1, 72600(%rax)
	jne	.LBB30_216
# %bb.201:                              # %land.lhs.true552
	movq	img, %rax
	cmpl	$0, 72612(%rax)
	jne	.LBB30_216
.LBB30_202:                             # %if.then556
	movl	MyInitialQp, %eax
	movl	%eax, m_Qc
	movq	img, %rax
	movl	$0, 72532(%rax)
	movq	img, %rax
	movl	$0, 72536(%rax)
	movl	NumberofBasicUnit, %eax
	addl	$-1, %eax
	movl	%eax, NumberofBasicUnit
	cmpl	$0, -36(%rbp)
	jne	.LBB30_215
# %bb.203:                              # %land.lhs.true558
	cmpl	$0, NumberofBasicUnit
	jne	.LBB30_215
# %bb.204:                              # %if.then561
	movq	active_sps, %rax
	cmpl	$0, 1148(%rax)
	jne	.LBB30_206
# %bb.205:                              # %lor.lhs.false564
	movq	input, %rax
	cmpl	$1, 2880(%rax)
	jne	.LBB30_207
.LBB30_206:                             # %if.then568
	movl	m_Qc, %eax
	movq	img, %rcx
	addl	72572(%rcx), %eax
	movl	%eax, 72572(%rcx)
	movl	PreviousQp2, %eax
	movl	%eax, PreviousQp1
	movl	m_Qc, %eax
	movl	%eax, PreviousQp2
	movl	m_Qc, %eax
	movl	%eax, PAveFrameQP
	movl	PAveHeaderBits2, %eax
	movl	%eax, PAveHeaderBits3
	jmp	.LBB30_214
.LBB30_207:                             # %if.else571
	movq	input, %rax
	cmpl	$2, 2880(%rax)
	je	.LBB30_209
# %bb.208:                              # %lor.lhs.false575
	movq	input, %rax
	cmpl	$0, 2884(%rax)
	je	.LBB30_213
.LBB30_209:                             # %if.then578
	movq	img, %rax
	cmpl	$0, 72600(%rax)
	jne	.LBB30_211
# %bb.210:                              # %if.then582
	movl	m_Qc, %eax
	movl	%eax, FrameQPBuffer
	movl	PAveHeaderBits2, %eax
