	.text
	.file	"ratectl.c"
	.globl	rc_alloc                # -- Begin function rc_alloc
	.p2align	4, 0x90
	.type	rc_alloc,@function
rc_alloc:                               # @rc_alloc
	.cfi_startproc
# %bb.0:                                # %entry
	pushq	%rbp
	.cfi_def_cfa_offset 16
	.cfi_offset %rbp, -16
	movq	%rsp, %rbp
	.cfi_def_cfa_register %rbp
	movq	img, %rax
	movl	72488(%rax), %edi
	movl	$8, %esi
	callq	calloc
	xorl	%ecx, %ecx
	movq	img, %rdx
	movq	%rax, 72584(%rdx)
	movq	img, %rax
	cmpq	72584(%rax), %rcx
	jne	.LBB0_2
# %bb.1:                                # %if.then
	movabsq	$.L.str, %rdi
	callq	no_mem_exit
.LBB0_2:                                # %if.end
	movq	img, %rax
	movl	72488(%rax), %eax
	movq	input, %rcx
	xorl	%edx, %edx
	divl	3248(%rcx)
	movl	%eax, %edi
	movl	$8, %esi
	callq	calloc
	xorl	%ecx, %ecx
	movq	%rax, BUPFMAD
	cmpq	BUPFMAD, %rcx
	jne	.LBB0_4
# %bb.3:                                # %if.then8
	movabsq	$.L.str.1, %rdi
	callq	no_mem_exit
.LBB0_4:                                # %if.end9
	movq	img, %rax
	movl	72488(%rax), %eax
	movq	input, %rcx
	xorl	%edx, %edx
	divl	3248(%rcx)
	movl	%eax, %edi
	movl	$8, %esi
	callq	calloc
	xorl	%ecx, %ecx
	movq	%rax, BUCFMAD
	cmpq	BUCFMAD, %rcx
	jne	.LBB0_6
# %bb.5:                                # %if.then17
	movabsq	$.L.str.2, %rdi
	callq	no_mem_exit
.LBB0_6:                                # %if.end18
	movq	img, %rax
	movl	72488(%rax), %eax
	movq	input, %rcx
	xorl	%edx, %edx
	divl	3248(%rcx)
	movl	%eax, %edi
	movl	$8, %esi
	callq	calloc
	xorl	%ecx, %ecx
	movq	%rax, FCBUCFMAD
	cmpq	FCBUCFMAD, %rcx
	jne	.LBB0_8
# %bb.7:                                # %if.then26
	movabsq	$.L.str.3, %rdi
	callq	no_mem_exit
.LBB0_8:                                # %if.end27
	movq	img, %rax
	movl	72488(%rax), %eax
	movq	input, %rcx
	xorl	%edx, %edx
	divl	3248(%rcx)
	movl	%eax, %edi
	movl	$8, %esi
	callq	calloc
	xorl	%ecx, %ecx
	movq	%rax, FCBUPFMAD
	cmpq	FCBUPFMAD, %rcx
	jne	.LBB0_10
# %bb.9:                                # %if.then35
	movabsq	$.L.str.4, %rdi
	callq	no_mem_exit
.LBB0_10:                               # %if.end36
	popq	%rbp
	.cfi_def_cfa %rsp, 8
	retq
.Lfunc_end0:
	.size	rc_alloc, .Lfunc_end0-rc_alloc
	.cfi_endproc
                                        # -- End function
	.globl	rc_free                 # -- Begin function rc_free
	.p2align	4, 0x90
	.type	rc_free,@function
rc_free:                                # @rc_free
	.cfi_startproc
# %bb.0:                                # %entry
	pushq	%rbp
	.cfi_def_cfa_offset 16
	.cfi_offset %rbp, -16
	movq	%rsp, %rbp
	.cfi_def_cfa_register %rbp
	xorl	%eax, %eax
	movq	img, %rcx
	cmpq	72584(%rcx), %rax
	je	.LBB1_2
# %bb.1:                                # %if.then
	movq	img, %rax
	movq	72584(%rax), %rdi
	callq	free
	movq	img, %rax
	movq	$0, 72584(%rax)
.LBB1_2:                                # %if.end
	xorl	%eax, %eax
	cmpq	BUPFMAD, %rax
	je	.LBB1_4
# %bb.3:                                # %if.then4
	movq	BUPFMAD, %rdi
	callq	free
	movq	$0, BUPFMAD
.LBB1_4:                                # %if.end5
	xorl	%eax, %eax
	cmpq	BUCFMAD, %rax
	je	.LBB1_6
# %bb.5:                                # %if.then7
	movq	BUCFMAD, %rdi
	callq	free
	movq	$0, BUCFMAD
.LBB1_6:                                # %if.end8
	xorl	%eax, %eax
	cmpq	FCBUCFMAD, %rax
	je	.LBB1_8
# %bb.7:                                # %if.then10
	movq	FCBUCFMAD, %rdi
	callq	free
	movq	$0, FCBUCFMAD
.LBB1_8:                                # %if.end11
	xorl	%eax, %eax
	cmpq	FCBUPFMAD, %rax
	je	.LBB1_10
# %bb.9:                                # %if.then13
	movq	FCBUPFMAD, %rdi
	callq	free
	movq	$0, FCBUPFMAD
.LBB1_10:                               # %if.end14
	popq	%rbp
	.cfi_def_cfa %rsp, 8
	retq
.Lfunc_end1:
	.size	rc_free, .Lfunc_end1-rc_free
	.cfi_endproc
                                        # -- End function
	.globl	rc_init_seq             # -- Begin function rc_init_seq
	.p2align	4, 0x90
	.type	rc_init_seq,@function
rc_init_seq:                            # @rc_init_seq
	.cfi_startproc
# %bb.0:                                # %rand_bb
	pushq	%rbp
	.cfi_def_cfa_offset 16
	.cfi_offset %rbp, -16
	movq	%rsp, %rbp
	.cfi_def_cfa_register %rbp
	callq	get_rand
	cmpl	$0, %eax
	jne	.LBB2_9
# %bb.1:                                # %func_rc_init_seq.2
	callq	rc_init_seq.2
	popq	%rbp
	.cfi_def_cfa %rsp, 8
	retq
.LBB2_2:                                # %func_rc_init_seq.18
	.cfi_def_cfa %rbp, 16
	callq	rc_init_seq.18
	popq	%rbp
	.cfi_def_cfa %rsp, 8
	retq
.LBB2_3:                                # %func_rc_init_seq.26
	.cfi_def_cfa %rbp, 16
	callq	rc_init_seq.26
	popq	%rbp
	.cfi_def_cfa %rsp, 8
	retq
.LBB2_4:                                # %func_rc_init_seq.34
	.cfi_def_cfa %rbp, 16
	callq	rc_init_seq.34
	popq	%rbp
	.cfi_def_cfa %rsp, 8
	retq
.LBB2_5:                                # %func_rc_init_seq.47
	.cfi_def_cfa %rbp, 16
	callq	rc_init_seq.47
	popq	%rbp
	.cfi_def_cfa %rsp, 8
	retq
.LBB2_6:                                # %func_rc_init_seq.50
	.cfi_def_cfa %rbp, 16
	callq	rc_init_seq.50
	popq	%rbp
	.cfi_def_cfa %rsp, 8
	retq
.LBB2_7:                                # %func_rc_init_seq.52
	.cfi_def_cfa %rbp, 16
	callq	rc_init_seq.52
	popq	%rbp
	.cfi_def_cfa %rsp, 8
	retq
.LBB2_8:                                # %func_rc_init_seq.64
	.cfi_def_cfa %rbp, 16
	callq	rc_init_seq.64
	popq	%rbp
	.cfi_def_cfa %rsp, 8
	retq
.LBB2_9:                                # %ctrl0
	.cfi_def_cfa %rbp, 16
	cmpl	$1, %eax
	je	.LBB2_2
# %bb.10:                               # %ctrl1
	cmpl	$2, %eax
	je	.LBB2_3
# %bb.11:                               # %ctrl2
	cmpl	$3, %eax
	je	.LBB2_4
# %bb.12:                               # %ctrl3
	cmpl	$4, %eax
	je	.LBB2_5
# %bb.13:                               # %ctrl4
	cmpl	$5, %eax
	je	.LBB2_6
# %bb.14:                               # %ctrl5
	cmpl	$6, %eax
	je	.LBB2_7
	jmp	.LBB2_8
.Lfunc_end2:
	.size	rc_init_seq, .Lfunc_end2-rc_init_seq
	.cfi_endproc
                                        # -- End function
	.globl	rc_init_GOP             # -- Begin function rc_init_GOP
	.p2align	4, 0x90
	.type	rc_init_GOP,@function
rc_init_GOP:                            # @rc_init_GOP
	.cfi_startproc
# %bb.0:                                # %rand_bb
	pushq	%rbp
	.cfi_def_cfa_offset 16
	.cfi_offset %rbp, -16
	movq	%rsp, %rbp
	.cfi_def_cfa_register %rbp
	pushq	%r14
	pushq	%rbx
	.cfi_offset %rbx, -32
	.cfi_offset %r14, -24
	movl	%esi, %r14d
	movl	%edi, %ebx
	callq	get_rand
	cmpl	$0, %eax
	jne	.LBB3_9
# %bb.1:                                # %func_rc_init_GOP.16
	movl	%ebx, %edi
	movl	%r14d, %esi
	callq	rc_init_GOP.16
	popq	%rbx
	popq	%r14
	popq	%rbp
	.cfi_def_cfa %rsp, 8
	retq
.LBB3_2:                                # %func_rc_init_GOP.28
	.cfi_def_cfa %rbp, 16
	movl	%ebx, %edi
	movl	%r14d, %esi
	callq	rc_init_GOP.28
	popq	%rbx
	popq	%r14
	popq	%rbp
	.cfi_def_cfa %rsp, 8
	retq
.LBB3_3:                                # %func_rc_init_GOP.29
	.cfi_def_cfa %rbp, 16
	movl	%ebx, %edi
	movl	%r14d, %esi
	callq	rc_init_GOP.29
	popq	%rbx
	popq	%r14
	popq	%rbp
	.cfi_def_cfa %rsp, 8
	retq
.LBB3_4:                                # %func_rc_init_GOP.48
	.cfi_def_cfa %rbp, 16
	movl	%ebx, %edi
	movl	%r14d, %esi
	callq	rc_init_GOP.48
	popq	%rbx
	popq	%r14
	popq	%rbp
	.cfi_def_cfa %rsp, 8
	retq
.LBB3_5:                                # %func_rc_init_GOP.69
	.cfi_def_cfa %rbp, 16
	movl	%ebx, %edi
	movl	%r14d, %esi
	callq	rc_init_GOP.69
	popq	%rbx
	popq	%r14
	popq	%rbp
	.cfi_def_cfa %rsp, 8
	retq
.LBB3_6:                                # %func_rc_init_GOP.72
	.cfi_def_cfa %rbp, 16
	movl	%ebx, %edi
	movl	%r14d, %esi
	callq	rc_init_GOP.72
	popq	%rbx
	popq	%r14
	popq	%rbp
	.cfi_def_cfa %rsp, 8
	retq
.LBB3_7:                                # %func_rc_init_GOP.75
	.cfi_def_cfa %rbp, 16
	movl	%ebx, %edi
	movl	%r14d, %esi
	callq	rc_init_GOP.75
	popq	%rbx
	popq	%r14
	popq	%rbp
	.cfi_def_cfa %rsp, 8
	retq
.LBB3_8:                                # %func_rc_init_GOP.83
	.cfi_def_cfa %rbp, 16
	movl	%ebx, %edi
	movl	%r14d, %esi
	callq	rc_init_GOP.83
	popq	%rbx
	popq	%r14
	popq	%rbp
	.cfi_def_cfa %rsp, 8
	retq
.LBB3_9:                                # %ctrl0
	.cfi_def_cfa %rbp, 16
	cmpl	$1, %eax
	je	.LBB3_2
# %bb.10:                               # %ctrl1
	cmpl	$2, %eax
	je	.LBB3_3
# %bb.11:                               # %ctrl2
	cmpl	$3, %eax
	je	.LBB3_4
# %bb.12:                               # %ctrl3
	cmpl	$4, %eax
	je	.LBB3_5
# %bb.13:                               # %ctrl4
	cmpl	$5, %eax
	je	.LBB3_6
# %bb.14:                               # %ctrl5
	cmpl	$6, %eax
	je	.LBB3_7
	jmp	.LBB3_8
.Lfunc_end3:
	.size	rc_init_GOP, .Lfunc_end3-rc_init_GOP
	.cfi_endproc
                                        # -- End function
	.globl	rc_init_pict            # -- Begin function rc_init_pict
	.p2align	4, 0x90
	.type	rc_init_pict,@function
rc_init_pict:                           # @rc_init_pict
	.cfi_startproc
# %bb.0:                                # %rand_bb
	pushq	%rbp
	.cfi_def_cfa_offset 16
	.cfi_offset %rbp, -16
	movq	%rsp, %rbp
	.cfi_def_cfa_register %rbp
	pushq	%r15
	pushq	%r14
	pushq	%rbx
	pushq	%rax
	.cfi_offset %rbx, -40
	.cfi_offset %r14, -32
	.cfi_offset %r15, -24
	movl	%edx, %r14d
	movl	%esi, %r15d
	movl	%edi, %ebx
	callq	get_rand
	cmpl	$0, %eax
	jne	.LBB4_9
# %bb.1:                                # %func_rc_init_pict.35
	movl	%ebx, %edi
	movl	%r15d, %esi
	movl	%r14d, %edx
	callq	rc_init_pict.35
	addq	$8, %rsp
	popq	%rbx
	popq	%r14
	popq	%r15
	popq	%rbp
	.cfi_def_cfa %rsp, 8
	retq
.LBB4_2:                                # %func_rc_init_pict.43
	.cfi_def_cfa %rbp, 16
	movl	%ebx, %edi
	movl	%r15d, %esi
	movl	%r14d, %edx
	callq	rc_init_pict.43
	addq	$8, %rsp
	popq	%rbx
	popq	%r14
	popq	%r15
	popq	%rbp
	.cfi_def_cfa %rsp, 8
	retq
.LBB4_3:                                # %func_rc_init_pict.89
	.cfi_def_cfa %rbp, 16
	movl	%ebx, %edi
	movl	%r15d, %esi
	movl	%r14d, %edx
	callq	rc_init_pict.89
	addq	$8, %rsp
	popq	%rbx
	popq	%r14
	popq	%r15
	popq	%rbp
	.cfi_def_cfa %rsp, 8
	retq
.LBB4_4:                                # %func_rc_init_pict.90
	.cfi_def_cfa %rbp, 16
	movl	%ebx, %edi
	movl	%r15d, %esi
	movl	%r14d, %edx
	callq	rc_init_pict.90
	addq	$8, %rsp
	popq	%rbx
	popq	%r14
	popq	%r15
	popq	%rbp
	.cfi_def_cfa %rsp, 8
	retq
.LBB4_5:                                # %func_rc_init_pict.91
	.cfi_def_cfa %rbp, 16
	movl	%ebx, %edi
	movl	%r15d, %esi
	movl	%r14d, %edx
	callq	rc_init_pict.91
	addq	$8, %rsp
	popq	%rbx
	popq	%r14
	popq	%r15
	popq	%rbp
	.cfi_def_cfa %rsp, 8
	retq
.LBB4_6:                                # %func_rc_init_pict.92
	.cfi_def_cfa %rbp, 16
	movl	%ebx, %edi
	movl	%r15d, %esi
	movl	%r14d, %edx
	callq	rc_init_pict.92
	addq	$8, %rsp
	popq	%rbx
	popq	%r14
	popq	%r15
	popq	%rbp
	.cfi_def_cfa %rsp, 8
	retq
.LBB4_7:                                # %func_rc_init_pict.93
	.cfi_def_cfa %rbp, 16
	movl	%ebx, %edi
	movl	%r15d, %esi
	movl	%r14d, %edx
	callq	rc_init_pict.93
	addq	$8, %rsp
	popq	%rbx
	popq	%r14
	popq	%r15
	popq	%rbp
	.cfi_def_cfa %rsp, 8
	retq
.LBB4_8:                                # %func_rc_init_pict.94
	.cfi_def_cfa %rbp, 16
	movl	%ebx, %edi
	movl	%r15d, %esi
	movl	%r14d, %edx
	callq	rc_init_pict.94
	addq	$8, %rsp
	popq	%rbx
	popq	%r14
	popq	%r15
	popq	%rbp
	.cfi_def_cfa %rsp, 8
	retq
.LBB4_9:                                # %ctrl0
	.cfi_def_cfa %rbp, 16
	cmpl	$1, %eax
	je	.LBB4_2
# %bb.10:                               # %ctrl1
	cmpl	$2, %eax
	je	.LBB4_3
# %bb.11:                               # %ctrl2
	cmpl	$3, %eax
	je	.LBB4_4
# %bb.12:                               # %ctrl3
	cmpl	$4, %eax
	je	.LBB4_5
# %bb.13:                               # %ctrl4
	cmpl	$5, %eax
	je	.LBB4_6
# %bb.14:                               # %ctrl5
	cmpl	$6, %eax
	je	.LBB4_7
	jmp	.LBB4_8
.Lfunc_end4:
	.size	rc_init_pict, .Lfunc_end4-rc_init_pict
	.cfi_endproc
                                        # -- End function
	.globl	calc_MAD                # -- Begin function calc_MAD
	.p2align	4, 0x90
	.type	calc_MAD,@function
calc_MAD:                               # @calc_MAD
	.cfi_startproc
# %bb.0:                                # %rand_bb
	pushq	%rbp
	.cfi_def_cfa_offset 16
	.cfi_offset %rbp, -16
	movq	%rsp, %rbp
	.cfi_def_cfa_register %rbp
	callq	get_rand
	cmpl	$0, %eax
	jne	.LBB5_9
# %bb.1:                                # %func_calc_MAD.24
	callq	calc_MAD.24
	popq	%rbp
	.cfi_def_cfa %rsp, 8
	retq
.LBB5_2:                                # %func_calc_MAD.30
	.cfi_def_cfa %rbp, 16
	callq	calc_MAD.30
	popq	%rbp
	.cfi_def_cfa %rsp, 8
	retq
.LBB5_3:                                # %func_calc_MAD.56
	.cfi_def_cfa %rbp, 16
	callq	calc_MAD.56
	popq	%rbp
	.cfi_def_cfa %rsp, 8
	retq
.LBB5_4:                                # %func_calc_MAD.58
	.cfi_def_cfa %rbp, 16
	callq	calc_MAD.58
	popq	%rbp
	.cfi_def_cfa %rsp, 8
	retq
.LBB5_5:                                # %func_calc_MAD.59
	.cfi_def_cfa %rbp, 16
	callq	calc_MAD.59
	popq	%rbp
	.cfi_def_cfa %rsp, 8
	retq
.LBB5_6:                                # %func_calc_MAD.71
	.cfi_def_cfa %rbp, 16
	callq	calc_MAD.71
	popq	%rbp
	.cfi_def_cfa %rsp, 8
	retq
.LBB5_7:                                # %func_calc_MAD.76
	.cfi_def_cfa %rbp, 16
	callq	calc_MAD.76
	popq	%rbp
	.cfi_def_cfa %rsp, 8
	retq
.LBB5_8:                                # %func_calc_MAD.78
	.cfi_def_cfa %rbp, 16
	callq	calc_MAD.78
	popq	%rbp
	.cfi_def_cfa %rsp, 8
	retq
.LBB5_9:                                # %ctrl0
	.cfi_def_cfa %rbp, 16
	cmpl	$1, %eax
	je	.LBB5_2
# %bb.10:                               # %ctrl1
	cmpl	$2, %eax
	je	.LBB5_3
# %bb.11:                               # %ctrl2
	cmpl	$3, %eax
	je	.LBB5_4
# %bb.12:                               # %ctrl3
	cmpl	$4, %eax
	je	.LBB5_5
# %bb.13:                               # %ctrl4
	cmpl	$5, %eax
	je	.LBB5_6
# %bb.14:                               # %ctrl5
	cmpl	$6, %eax
	je	.LBB5_7
	jmp	.LBB5_8
.Lfunc_end5:
	.size	calc_MAD, .Lfunc_end5-calc_MAD
	.cfi_endproc
                                        # -- End function
	.section	.rodata.cst8,"aM",@progbits,8
	.p2align	3               # -- Begin function rc_update_pict
.LCPI6_0:
	.quad	4606281698874543309     # double 0.90000000000000002
	.text
	.globl	rc_update_pict
	.p2align	4, 0x90
	.type	rc_update_pict,@function
rc_update_pict:                         # @rc_update_pict
	.cfi_startproc
# %bb.0:                                # %entry
	pushq	%rbp
	.cfi_def_cfa_offset 16
	.cfi_offset %rbp, -16
	movq	%rsp, %rbp
	.cfi_def_cfa_register %rbp
	vmovsd	.LCPI6_0(%rip), %xmm0   # xmm0 = mem[0],zero
	movl	%edi, -4(%rbp)
	movl	-4(%rbp), %eax
	movl	R, %ecx
	subl	%eax, %ecx
	movl	%ecx, R
	vcvtsi2sdl	-4(%rbp), %xmm0, %xmm1
	vmovsd	bit_rate, %xmm2         # xmm2 = mem[0],zero
	vdivsd	frame_rate, %xmm2, %xmm2
	vsubsd	%xmm2, %xmm1, %xmm1
	vaddsd	CurrentBufferFullness, %xmm1, %xmm1
	vmovsd	%xmm1, CurrentBufferFullness
	vmovsd	bit_rate, %xmm1         # xmm1 = mem[0],zero
	vdivsd	frame_rate, %xmm1, %xmm1
	vcvtsi2sdl	-4(%rbp), %xmm0, %xmm2
	vsubsd	%xmm2, %xmm1, %xmm1
	vcvttsd2si	%xmm1, %rax
	addq	LowerBound, %rax
	movq	%rax, LowerBound
	vmovsd	bit_rate, %xmm1         # xmm1 = mem[0],zero
	vdivsd	frame_rate, %xmm1, %xmm1
	vcvtsi2sdl	-4(%rbp), %xmm0, %xmm2
	vsubsd	%xmm2, %xmm1, %xmm1
	vcvttsd2si	%xmm1, %rax
	addq	UpperBound1, %rax
	movq	%rax, UpperBound1
	vcvtsi2sdq	UpperBound1, %xmm0, %xmm1
	vmulsd	%xmm1, %xmm0, %xmm0
	vcvttsd2si	%xmm0, %rax
	movq	%rax, UpperBound2
	popq	%rbp
	.cfi_def_cfa %rsp, 8
	retq
.Lfunc_end6:
	.size	rc_update_pict, .Lfunc_end6-rc_update_pict
	.cfi_endproc
                                        # -- End function
	.globl	rc_update_pict_frame    # -- Begin function rc_update_pict_frame
	.p2align	4, 0x90
	.type	rc_update_pict_frame,@function
rc_update_pict_frame:                   # @rc_update_pict_frame
	.cfi_startproc
# %bb.0:                                # %rand_bb
	pushq	%rbp
	.cfi_def_cfa_offset 16
	.cfi_offset %rbp, -16
	movq	%rsp, %rbp
	.cfi_def_cfa_register %rbp
	pushq	%rbx
	pushq	%rax
	.cfi_offset %rbx, -24
	movl	%edi, %ebx
	callq	get_rand
	cmpl	$0, %eax
	jne	.LBB7_7
# %bb.1:                                # %func_rc_update_pict_frame.27
	movl	%ebx, %edi
	callq	rc_update_pict_frame.27
	addq	$8, %rsp
	popq	%rbx
	popq	%rbp
	.cfi_def_cfa %rsp, 8
	retq
.LBB7_2:                                # %func_rc_update_pict_frame.31
	.cfi_def_cfa %rbp, 16
	movl	%ebx, %edi
	callq	rc_update_pict_frame.31
	addq	$8, %rsp
	popq	%rbx
	popq	%rbp
	.cfi_def_cfa %rsp, 8
	retq
.LBB7_3:                                # %func_rc_update_pict_frame.33
	.cfi_def_cfa %rbp, 16
	movl	%ebx, %edi
	callq	rc_update_pict_frame.33
	addq	$8, %rsp
	popq	%rbx
	popq	%rbp
	.cfi_def_cfa %rsp, 8
	retq
.LBB7_4:                                # %func_rc_update_pict_frame.36
	.cfi_def_cfa %rbp, 16
	movl	%ebx, %edi
	callq	rc_update_pict_frame.36
	addq	$8, %rsp
	popq	%rbx
	popq	%rbp
	.cfi_def_cfa %rsp, 8
	retq
.LBB7_5:                                # %func_rc_update_pict_frame.53
	.cfi_def_cfa %rbp, 16
	movl	%ebx, %edi
	callq	rc_update_pict_frame.53
	addq	$8, %rsp
	popq	%rbx
	popq	%rbp
	.cfi_def_cfa %rsp, 8
	retq
.LBB7_6:                                # %func_rc_update_pict_frame.62
	.cfi_def_cfa %rbp, 16
	movl	%ebx, %edi
	callq	rc_update_pict_frame.62
	addq	$8, %rsp
	popq	%rbx
	popq	%rbp
	.cfi_def_cfa %rsp, 8
	retq
.LBB7_7:                                # %ctrl0
	.cfi_def_cfa %rbp, 16
	cmpl	$1, %eax
	je	.LBB7_2
# %bb.8:                                # %ctrl1
	cmpl	$2, %eax
	je	.LBB7_3
# %bb.9:                                # %ctrl2
	cmpl	$3, %eax
	je	.LBB7_4
# %bb.10:                               # %ctrl3
	cmpl	$4, %eax
	je	.LBB7_5
	jmp	.LBB7_6
.Lfunc_end7:
	.size	rc_update_pict_frame, .Lfunc_end7-rc_update_pict_frame
	.cfi_endproc
                                        # -- End function
	.globl	setbitscount            # -- Begin function setbitscount
	.p2align	4, 0x90
	.type	setbitscount,@function
setbitscount:                           # @setbitscount
	.cfi_startproc
# %bb.0:                                # %entry
	pushq	%rbp
	.cfi_def_cfa_offset 16
	.cfi_offset %rbp, -16
	movq	%rsp, %rbp
	.cfi_def_cfa_register %rbp
	movl	%edi, -4(%rbp)
	movl	-4(%rbp), %eax
	movl	%eax, bits_topfield
	popq	%rbp
	.cfi_def_cfa %rsp, 8
	retq
.Lfunc_end8:
	.size	setbitscount, .Lfunc_end8-setbitscount
	.cfi_endproc
                                        # -- End function
	.globl	updateQuantizationParameter # -- Begin function updateQuantizationParameter
	.p2align	4, 0x90
	.type	updateQuantizationParameter,@function
updateQuantizationParameter:            # @updateQuantizationParameter
	.cfi_startproc
# %bb.0:                                # %rand_bb
	pushq	%rbp
	.cfi_def_cfa_offset 16
	.cfi_offset %rbp, -16
	movq	%rsp, %rbp
	.cfi_def_cfa_register %rbp
	pushq	%rbx
	pushq	%rax
	.cfi_offset %rbx, -24
	movl	%edi, %ebx
	callq	get_rand
	cmpl	$0, %eax
	jne	.LBB9_9
# %bb.1:                                # %func_updateQuantizationParameter.4
	movl	%ebx, %edi
	callq	updateQuantizationParameter.4
	addq	$8, %rsp
	popq	%rbx
	popq	%rbp
	.cfi_def_cfa %rsp, 8
	retq
.LBB9_2:                                # %func_updateQuantizationParameter.13
	.cfi_def_cfa %rbp, 16
	movl	%ebx, %edi
	callq	updateQuantizationParameter.13
	addq	$8, %rsp
	popq	%rbx
	popq	%rbp
	.cfi_def_cfa %rsp, 8
	retq
.LBB9_3:                                # %func_updateQuantizationParameter.17
	.cfi_def_cfa %rbp, 16
	movl	%ebx, %edi
	callq	updateQuantizationParameter.17
	addq	$8, %rsp
	popq	%rbx
	popq	%rbp
	.cfi_def_cfa %rsp, 8
	retq
.LBB9_4:                                # %func_updateQuantizationParameter.46
	.cfi_def_cfa %rbp, 16
	movl	%ebx, %edi
	callq	updateQuantizationParameter.46
	addq	$8, %rsp
	popq	%rbx
	popq	%rbp
	.cfi_def_cfa %rsp, 8
	retq
.LBB9_5:                                # %func_updateQuantizationParameter.57
	.cfi_def_cfa %rbp, 16
	movl	%ebx, %edi
	callq	updateQuantizationParameter.57
	addq	$8, %rsp
	popq	%rbx
	popq	%rbp
	.cfi_def_cfa %rsp, 8
	retq
.LBB9_6:                                # %func_updateQuantizationParameter.66
	.cfi_def_cfa %rbp, 16
	movl	%ebx, %edi
	callq	updateQuantizationParameter.66
	addq	$8, %rsp
	popq	%rbx
	popq	%rbp
	.cfi_def_cfa %rsp, 8
	retq
.LBB9_7:                                # %func_updateQuantizationParameter.81
	.cfi_def_cfa %rbp, 16
	movl	%ebx, %edi
	callq	updateQuantizationParameter.81
	addq	$8, %rsp
	popq	%rbx
	popq	%rbp
	.cfi_def_cfa %rsp, 8
	retq
.LBB9_8:                                # %func_updateQuantizationParameter.84
	.cfi_def_cfa %rbp, 16
	movl	%ebx, %edi
	callq	updateQuantizationParameter.84
	addq	$8, %rsp
	popq	%rbx
	popq	%rbp
	.cfi_def_cfa %rsp, 8
	retq
.LBB9_9:                                # %ctrl0
	.cfi_def_cfa %rbp, 16
	cmpl	$1, %eax
	je	.LBB9_2
# %bb.10:                               # %ctrl1
	cmpl	$2, %eax
	je	.LBB9_3
# %bb.11:                               # %ctrl2
	cmpl	$3, %eax
	je	.LBB9_4
# %bb.12:                               # %ctrl3
	cmpl	$4, %eax
	je	.LBB9_5
# %bb.13:                               # %ctrl4
	cmpl	$5, %eax
	je	.LBB9_6
# %bb.14:                               # %ctrl5
	cmpl	$6, %eax
	je	.LBB9_7
	jmp	.LBB9_8
.Lfunc_end9:
	.size	updateQuantizationParameter, .Lfunc_end9-updateQuantizationParameter
	.cfi_endproc
                                        # -- End function
	.globl	Qstep2QP                # -- Begin function Qstep2QP
	.p2align	4, 0x90
	.type	Qstep2QP,@function
Qstep2QP:                               # @Qstep2QP
	.cfi_startproc
# %bb.0:                                # %rand_bb
	pushq	%rbp
	.cfi_def_cfa_offset 16
	.cfi_offset %rbp, -16
	movq	%rsp, %rbp
	.cfi_def_cfa_register %rbp
	subq	$16, %rsp
	vmovsd	%xmm0, -8(%rbp)         # 8-byte Spill
	callq	get_rand
	cmpl	$0, %eax
	jne	.LBB10_9
# %bb.1:                                # %func_Qstep2QP.1
	vmovsd	-8(%rbp), %xmm0         # 8-byte Reload
                                        # xmm0 = mem[0],zero
	callq	Qstep2QP.1
	addq	$16, %rsp
	popq	%rbp
	.cfi_def_cfa %rsp, 8
	retq
.LBB10_2:                               # %func_Qstep2QP.8
	.cfi_def_cfa %rbp, 16
	callq	Qstep2QP.8
	addq	$16, %rsp
	popq	%rbp
	.cfi_def_cfa %rsp, 8
	retq
.LBB10_3:                               # %func_Qstep2QP.65
	.cfi_def_cfa %rbp, 16
	callq	Qstep2QP.65
	addq	$16, %rsp
	popq	%rbp
	.cfi_def_cfa %rsp, 8
	retq
.LBB10_4:                               # %func_Qstep2QP.70
	.cfi_def_cfa %rbp, 16
	callq	Qstep2QP.70
	addq	$16, %rsp
	popq	%rbp
	.cfi_def_cfa %rsp, 8
	retq
.LBB10_5:                               # %func_Qstep2QP.73
	.cfi_def_cfa %rbp, 16
	callq	Qstep2QP.73
	addq	$16, %rsp
	popq	%rbp
	.cfi_def_cfa %rsp, 8
	retq
.LBB10_6:                               # %func_Qstep2QP.79
	.cfi_def_cfa %rbp, 16
	callq	Qstep2QP.79
	addq	$16, %rsp
	popq	%rbp
	.cfi_def_cfa %rsp, 8
	retq
.LBB10_7:                               # %func_Qstep2QP.82
	.cfi_def_cfa %rbp, 16
	callq	Qstep2QP.82
	addq	$16, %rsp
	popq	%rbp
	.cfi_def_cfa %rsp, 8
	retq
.LBB10_8:                               # %func_Qstep2QP.88
	.cfi_def_cfa %rbp, 16
	callq	Qstep2QP.88
	addq	$16, %rsp
	popq	%rbp
	.cfi_def_cfa %rsp, 8
	retq
.LBB10_9:                               # %ctrl0
	.cfi_def_cfa %rbp, 16
	vmovsd	-8(%rbp), %xmm0         # 8-byte Reload
                                        # xmm0 = mem[0],zero
	cmpl	$1, %eax
	je	.LBB10_2
# %bb.10:                               # %ctrl1
	cmpl	$2, %eax
	je	.LBB10_3
# %bb.11:                               # %ctrl2
	cmpl	$3, %eax
	je	.LBB10_4
# %bb.12:                               # %ctrl3
	cmpl	$4, %eax
	je	.LBB10_5
# %bb.13:                               # %ctrl4
	cmpl	$5, %eax
	je	.LBB10_6
# %bb.14:                               # %ctrl5
	cmpl	$6, %eax
	je	.LBB10_7
	jmp	.LBB10_8
.Lfunc_end10:
	.size	Qstep2QP, .Lfunc_end10-Qstep2QP
	.cfi_endproc
                                        # -- End function
	.globl	updateRCModel           # -- Begin function updateRCModel
	.p2align	4, 0x90
	.type	updateRCModel,@function
updateRCModel:                          # @updateRCModel
	.cfi_startproc
# %bb.0:                                # %rand_bb
	pushq	%rbp
	.cfi_def_cfa_offset 16
	.cfi_offset %rbp, -16
	movq	%rsp, %rbp
	.cfi_def_cfa_register %rbp
	callq	get_rand
	cmpl	$0, %eax
	jne	.LBB11_9
# %bb.1:                                # %func_updateRCModel.9
	callq	updateRCModel.9
	popq	%rbp
	.cfi_def_cfa %rsp, 8
	retq
.LBB11_2:                               # %func_updateRCModel.14
	.cfi_def_cfa %rbp, 16
	callq	updateRCModel.14
	popq	%rbp
	.cfi_def_cfa %rsp, 8
	retq
.LBB11_3:                               # %func_updateRCModel.23
	.cfi_def_cfa %rbp, 16
	callq	updateRCModel.23
	popq	%rbp
	.cfi_def_cfa %rsp, 8
	retq
.LBB11_4:                               # %func_updateRCModel.32
	.cfi_def_cfa %rbp, 16
	callq	updateRCModel.32
	popq	%rbp
	.cfi_def_cfa %rsp, 8
	retq
.LBB11_5:                               # %func_updateRCModel.39
	.cfi_def_cfa %rbp, 16
	callq	updateRCModel.39
	popq	%rbp
	.cfi_def_cfa %rsp, 8
	retq
.LBB11_6:                               # %func_updateRCModel.51
	.cfi_def_cfa %rbp, 16
	callq	updateRCModel.51
	popq	%rbp
	.cfi_def_cfa %rsp, 8
	retq
.LBB11_7:                               # %func_updateRCModel.61
	.cfi_def_cfa %rbp, 16
	callq	updateRCModel.61
	popq	%rbp
	.cfi_def_cfa %rsp, 8
	retq
.LBB11_8:                               # %func_updateRCModel.74
	.cfi_def_cfa %rbp, 16
	callq	updateRCModel.74
	popq	%rbp
	.cfi_def_cfa %rsp, 8
	retq
.LBB11_9:                               # %ctrl0
	.cfi_def_cfa %rbp, 16
	cmpl	$1, %eax
	je	.LBB11_2
# %bb.10:                               # %ctrl1
	cmpl	$2, %eax
	je	.LBB11_3
# %bb.11:                               # %ctrl2
	cmpl	$3, %eax
	je	.LBB11_4
# %bb.12:                               # %ctrl3
	cmpl	$4, %eax
	je	.LBB11_5
# %bb.13:                               # %ctrl4
	cmpl	$5, %eax
	je	.LBB11_6
# %bb.14:                               # %ctrl5
	cmpl	$6, %eax
	je	.LBB11_7
	jmp	.LBB11_8
.Lfunc_end11:
	.size	updateRCModel, .Lfunc_end11-updateRCModel
	.cfi_endproc
                                        # -- End function
	.globl	QP2Qstep                # -- Begin function QP2Qstep
	.p2align	4, 0x90
	.type	QP2Qstep,@function
QP2Qstep:                               # @QP2Qstep
	.cfi_startproc
# %bb.0:                                # %rand_bb
	pushq	%rbp
	.cfi_def_cfa_offset 16
	.cfi_offset %rbp, -16
	movq	%rsp, %rbp
	.cfi_def_cfa_register %rbp
	pushq	%rbx
	pushq	%rax
	.cfi_offset %rbx, -24
	movl	%edi, %ebx
	callq	get_rand
	cmpl	$0, %eax
	jne	.LBB12_7
# %bb.1:                                # %func_QP2Qstep.7
	movl	%ebx, %edi
	callq	QP2Qstep.7
	addq	$8, %rsp
	popq	%rbx
	popq	%rbp
	.cfi_def_cfa %rsp, 8
	retq
.LBB12_2:                               # %func_QP2Qstep.25
	.cfi_def_cfa %rbp, 16
	movl	%ebx, %edi
	callq	QP2Qstep.25
	addq	$8, %rsp
	popq	%rbx
	popq	%rbp
	.cfi_def_cfa %rsp, 8
	retq
.LBB12_3:                               # %func_QP2Qstep.40
	.cfi_def_cfa %rbp, 16
	movl	%ebx, %edi
	callq	QP2Qstep.40
	addq	$8, %rsp
	popq	%rbx
	popq	%rbp
	.cfi_def_cfa %rsp, 8
	retq
.LBB12_4:                               # %func_QP2Qstep.44
	.cfi_def_cfa %rbp, 16
	movl	%ebx, %edi
	callq	QP2Qstep.44
	addq	$8, %rsp
	popq	%rbx
	popq	%rbp
	.cfi_def_cfa %rsp, 8
	retq
.LBB12_5:                               # %func_QP2Qstep.45
	.cfi_def_cfa %rbp, 16
	movl	%ebx, %edi
	callq	QP2Qstep.45
	addq	$8, %rsp
	popq	%rbx
	popq	%rbp
	.cfi_def_cfa %rsp, 8
	retq
.LBB12_6:                               # %func_QP2Qstep.80
	.cfi_def_cfa %rbp, 16
	movl	%ebx, %edi
	callq	QP2Qstep.80
	addq	$8, %rsp
	popq	%rbx
	popq	%rbp
	.cfi_def_cfa %rsp, 8
	retq
.LBB12_7:                               # %ctrl0
	.cfi_def_cfa %rbp, 16
	cmpl	$1, %eax
	je	.LBB12_2
# %bb.8:                                # %ctrl1
	cmpl	$2, %eax
	je	.LBB12_3
# %bb.9:                                # %ctrl2
	cmpl	$3, %eax
	je	.LBB12_4
# %bb.10:                               # %ctrl3
	cmpl	$4, %eax
	je	.LBB12_5
	jmp	.LBB12_6
.Lfunc_end12:
	.size	QP2Qstep, .Lfunc_end12-QP2Qstep
	.cfi_endproc
                                        # -- End function
	.globl	RCModelEstimator        # -- Begin function RCModelEstimator
	.p2align	4, 0x90
	.type	RCModelEstimator,@function
RCModelEstimator:                       # @RCModelEstimator
	.cfi_startproc
# %bb.0:                                # %rand_bb
	pushq	%rbp
	.cfi_def_cfa_offset 16
	.cfi_offset %rbp, -16
	movq	%rsp, %rbp
	.cfi_def_cfa_register %rbp
	pushq	%rbx
	pushq	%rax
	.cfi_offset %rbx, -24
	movl	%edi, %ebx
	callq	get_rand
	cmpl	$0, %eax
	jne	.LBB13_9
# %bb.1:                                # %func_RCModelEstimator.3
	movl	%ebx, %edi
	callq	RCModelEstimator.3
	addq	$8, %rsp
	popq	%rbx
	popq	%rbp
	.cfi_def_cfa %rsp, 8
	retq
.LBB13_2:                               # %func_RCModelEstimator.10
	.cfi_def_cfa %rbp, 16
	movl	%ebx, %edi
	callq	RCModelEstimator.10
	addq	$8, %rsp
	popq	%rbx
	popq	%rbp
	.cfi_def_cfa %rsp, 8
	retq
.LBB13_3:                               # %func_RCModelEstimator.19
	.cfi_def_cfa %rbp, 16
	movl	%ebx, %edi
	callq	RCModelEstimator.19
	addq	$8, %rsp
	popq	%rbx
	popq	%rbp
	.cfi_def_cfa %rsp, 8
	retq
.LBB13_4:                               # %func_RCModelEstimator.22
	.cfi_def_cfa %rbp, 16
	movl	%ebx, %edi
	callq	RCModelEstimator.22
	addq	$8, %rsp
	popq	%rbx
	popq	%rbp
	.cfi_def_cfa %rsp, 8
	retq
.LBB13_5:                               # %func_RCModelEstimator.42
	.cfi_def_cfa %rbp, 16
	movl	%ebx, %edi
	callq	RCModelEstimator.42
	addq	$8, %rsp
	popq	%rbx
	popq	%rbp
	.cfi_def_cfa %rsp, 8
	retq
.LBB13_6:                               # %func_RCModelEstimator.60
	.cfi_def_cfa %rbp, 16
	movl	%ebx, %edi
	callq	RCModelEstimator.60
	addq	$8, %rsp
	popq	%rbx
	popq	%rbp
	.cfi_def_cfa %rsp, 8
	retq
.LBB13_7:                               # %func_RCModelEstimator.63
	.cfi_def_cfa %rbp, 16
	movl	%ebx, %edi
	callq	RCModelEstimator.63
	addq	$8, %rsp
	popq	%rbx
	popq	%rbp
	.cfi_def_cfa %rsp, 8
	retq
.LBB13_8:                               # %func_RCModelEstimator.67
	.cfi_def_cfa %rbp, 16
	movl	%ebx, %edi
	callq	RCModelEstimator.67
	addq	$8, %rsp
	popq	%rbx
	popq	%rbp
	.cfi_def_cfa %rsp, 8
	retq
.LBB13_9:                               # %ctrl0
	.cfi_def_cfa %rbp, 16
	cmpl	$1, %eax
	je	.LBB13_2
# %bb.10:                               # %ctrl1
	cmpl	$2, %eax
	je	.LBB13_3
# %bb.11:                               # %ctrl2
	cmpl	$3, %eax
	je	.LBB13_4
# %bb.12:                               # %ctrl3
	cmpl	$4, %eax
	je	.LBB13_5
# %bb.13:                               # %ctrl4
	cmpl	$5, %eax
	je	.LBB13_6
# %bb.14:                               # %ctrl5
	cmpl	$6, %eax
	je	.LBB13_7
	jmp	.LBB13_8
.Lfunc_end13:
	.size	RCModelEstimator, .Lfunc_end13-RCModelEstimator
	.cfi_endproc
                                        # -- End function
	.globl	ComputeFrameMAD         # -- Begin function ComputeFrameMAD
	.p2align	4, 0x90
	.type	ComputeFrameMAD,@function
ComputeFrameMAD:                        # @ComputeFrameMAD
	.cfi_startproc
# %bb.0:                                # %rand_bb
	pushq	%rbp
	.cfi_def_cfa_offset 16
	.cfi_offset %rbp, -16
	movq	%rsp, %rbp
	.cfi_def_cfa_register %rbp
	callq	get_rand
	cmpl	$0, %eax
	jne	.LBB14_2
# %bb.1:                                # %func_ComputeFrameMAD.20
	callq	ComputeFrameMAD.20
	popq	%rbp
	.cfi_def_cfa %rsp, 8
	retq
.LBB14_2:                               # %func_ComputeFrameMAD.21
	.cfi_def_cfa %rbp, 16
	callq	ComputeFrameMAD.21
	popq	%rbp
	.cfi_def_cfa %rsp, 8
	retq
.Lfunc_end14:
	.size	ComputeFrameMAD, .Lfunc_end14-ComputeFrameMAD
	.cfi_endproc
                                        # -- End function
	.globl	updateMADModel          # -- Begin function updateMADModel
	.p2align	4, 0x90
	.type	updateMADModel,@function
updateMADModel:                         # @updateMADModel
	.cfi_startproc
# %bb.0:                                # %rand_bb
	pushq	%rbp
	.cfi_def_cfa_offset 16
	.cfi_offset %rbp, -16
	movq	%rsp, %rbp
	.cfi_def_cfa_register %rbp
	callq	get_rand
	cmpl	$0, %eax
	jne	.LBB15_9
# %bb.1:                                # %func_updateMADModel.5
	callq	updateMADModel.5
	popq	%rbp
	.cfi_def_cfa %rsp, 8
	retq
.LBB15_2:                               # %func_updateMADModel.6
	.cfi_def_cfa %rbp, 16
	callq	updateMADModel.6
	popq	%rbp
	.cfi_def_cfa %rsp, 8
	retq
.LBB15_3:                               # %func_updateMADModel.37
	.cfi_def_cfa %rbp, 16
	callq	updateMADModel.37
	popq	%rbp
	.cfi_def_cfa %rsp, 8
	retq
.LBB15_4:                               # %func_updateMADModel.49
	.cfi_def_cfa %rbp, 16
	callq	updateMADModel.49
	popq	%rbp
	.cfi_def_cfa %rsp, 8
	retq
.LBB15_5:                               # %func_updateMADModel.55
	.cfi_def_cfa %rbp, 16
	callq	updateMADModel.55
	popq	%rbp
	.cfi_def_cfa %rsp, 8
	retq
.LBB15_6:                               # %func_updateMADModel.68
	.cfi_def_cfa %rbp, 16
	callq	updateMADModel.68
	popq	%rbp
	.cfi_def_cfa %rsp, 8
	retq
.LBB15_7:                               # %func_updateMADModel.77
	.cfi_def_cfa %rbp, 16
	callq	updateMADModel.77
	popq	%rbp
	.cfi_def_cfa %rsp, 8
	retq
.LBB15_8:                               # %func_updateMADModel.86
	.cfi_def_cfa %rbp, 16
	callq	updateMADModel.86
	popq	%rbp
	.cfi_def_cfa %rsp, 8
	retq
.LBB15_9:                               # %ctrl0
	.cfi_def_cfa %rbp, 16
	cmpl	$1, %eax
	je	.LBB15_2
# %bb.10:                               # %ctrl1
	cmpl	$2, %eax
	je	.LBB15_3
# %bb.11:                               # %ctrl2
	cmpl	$3, %eax
	je	.LBB15_4
# %bb.12:                               # %ctrl3
	cmpl	$4, %eax
	je	.LBB15_5
# %bb.13:                               # %ctrl4
	cmpl	$5, %eax
	je	.LBB15_6
# %bb.14:                               # %ctrl5
	cmpl	$6, %eax
	je	.LBB15_7
	jmp	.LBB15_8
.Lfunc_end15:
	.size	updateMADModel, .Lfunc_end15-updateMADModel
	.cfi_endproc
                                        # -- End function
	.globl	MADModelEstimator       # -- Begin function MADModelEstimator
	.p2align	4, 0x90
	.type	MADModelEstimator,@function
MADModelEstimator:                      # @MADModelEstimator
	.cfi_startproc
# %bb.0:                                # %rand_bb
	pushq	%rbp
	.cfi_def_cfa_offset 16
	.cfi_offset %rbp, -16
	movq	%rsp, %rbp
	.cfi_def_cfa_register %rbp
	pushq	%rbx
	pushq	%rax
	.cfi_offset %rbx, -24
	movl	%edi, %ebx
	callq	get_rand
	cmpl	$0, %eax
	jne	.LBB16_9
# %bb.1:                                # %func_MADModelEstimator.11
	movl	%ebx, %edi
	callq	MADModelEstimator.11
	addq	$8, %rsp
	popq	%rbx
	popq	%rbp
	.cfi_def_cfa %rsp, 8
	retq
.LBB16_2:                               # %func_MADModelEstimator.12
	.cfi_def_cfa %rbp, 16
	movl	%ebx, %edi
	callq	MADModelEstimator.12
	addq	$8, %rsp
	popq	%rbx
	popq	%rbp
	.cfi_def_cfa %rsp, 8
	retq
.LBB16_3:                               # %func_MADModelEstimator.15
	.cfi_def_cfa %rbp, 16
	movl	%ebx, %edi
	callq	MADModelEstimator.15
	addq	$8, %rsp
	popq	%rbx
	popq	%rbp
	.cfi_def_cfa %rsp, 8
	retq
.LBB16_4:                               # %func_MADModelEstimator.38
	.cfi_def_cfa %rbp, 16
	movl	%ebx, %edi
	callq	MADModelEstimator.38
	addq	$8, %rsp
	popq	%rbx
	popq	%rbp
	.cfi_def_cfa %rsp, 8
	retq
.LBB16_5:                               # %func_MADModelEstimator.41
	.cfi_def_cfa %rbp, 16
	movl	%ebx, %edi
	callq	MADModelEstimator.41
	addq	$8, %rsp
	popq	%rbx
	popq	%rbp
	.cfi_def_cfa %rsp, 8
	retq
.LBB16_6:                               # %func_MADModelEstimator.54
	.cfi_def_cfa %rbp, 16
	movl	%ebx, %edi
	callq	MADModelEstimator.54
	addq	$8, %rsp
	popq	%rbx
	popq	%rbp
	.cfi_def_cfa %rsp, 8
	retq
.LBB16_7:                               # %func_MADModelEstimator.85
	.cfi_def_cfa %rbp, 16
	movl	%ebx, %edi
	callq	MADModelEstimator.85
	addq	$8, %rsp
	popq	%rbx
	popq	%rbp
	.cfi_def_cfa %rsp, 8
	retq
.LBB16_8:                               # %func_MADModelEstimator.87
	.cfi_def_cfa %rbp, 16
	movl	%ebx, %edi
	callq	MADModelEstimator.87
	addq	$8, %rsp
	popq	%rbx
	popq	%rbp
	.cfi_def_cfa %rsp, 8
	retq
.LBB16_9:                               # %ctrl0
	.cfi_def_cfa %rbp, 16
	cmpl	$1, %eax
	je	.LBB16_2
# %bb.10:                               # %ctrl1
	cmpl	$2, %eax
	je	.LBB16_3
# %bb.11:                               # %ctrl2
	cmpl	$3, %eax
	je	.LBB16_4
# %bb.12:                               # %ctrl3
	cmpl	$4, %eax
	je	.LBB16_5
# %bb.13:                               # %ctrl4
	cmpl	$5, %eax
	je	.LBB16_6
# %bb.14:                               # %ctrl5
	cmpl	$6, %eax
	je	.LBB16_7
	jmp	.LBB16_8
.Lfunc_end16:
	.size	MADModelEstimator, .Lfunc_end16-MADModelEstimator
	.cfi_endproc
                                        # -- End function
	.section	.rodata.cst8,"aM",@progbits,8
	.p2align	3               # -- Begin function Qstep2QP.1
.LCPI17_0:
	.quad	4604086194056200192     # double 0.65625
.LCPI17_1:
	.quad	4604930618986332160     # double 0.75
.LCPI17_2:
	.quad	4605775043916464128     # double 0.84375
.LCPI17_3:
	.quad	4606619468846596096     # double 0.9375
.LCPI17_4:
	.quad	4607463893776728064     # double 1.0625
.LCPI17_5:
	.quad	4607745368753438720     # double 1.125
.LCPI17_6:
	.quad	4607182418800017408     # double 1
.LCPI17_7:
	.quad	4606056518893174784     # double 0.875
.LCPI17_8:
	.quad	4605493568939753472     # double 0.8125
.LCPI17_9:
	.quad	4604367669032910848     # double 0.6875
.LCPI17_10:
	.quad	4603804719079489536     # double 0.625
.LCPI17_11:
	.quad	4611686018427387904     # double 2
	.text
	.globl	Qstep2QP.1
	.p2align	4, 0x90
	.type	Qstep2QP.1,@function
Qstep2QP.1:                             # @Qstep2QP.1
	.cfi_startproc
# %bb.0:                                # %entry
	pushq	%rbp
	.cfi_def_cfa_offset 16
	.cfi_offset %rbp, -16
	movq	%rsp, %rbp
	.cfi_def_cfa_register %rbp
	pushq	%rbx
	subq	$56, %rsp
	.cfi_offset %rbx, -24
	movl	$1347445834, -32(%rbp)  # imm = 0x5050644A
	vmovsd	%xmm0, -16(%rbp)
	movl	$0, -24(%rbp)
	movl	$0, -20(%rbp)
	vmovsd	-16(%rbp), %xmm0        # xmm0 = mem[0],zero
	vmovsd	%xmm0, -40(%rbp)        # 8-byte Spill
	xorl	%edi, %edi
	callq	QP2Qstep
	vucomisd	-40(%rbp), %xmm0 # 8-byte Folded Reload
	jbe	.LBB17_2
# %bb.1:                                # %if.then
	movl	$0, -28(%rbp)
	jmp	.LBB17_24
.LBB17_2:                               # %if.else
	vmovsd	-16(%rbp), %xmm0        # xmm0 = mem[0],zero
	vmovsd	%xmm0, -56(%rbp)        # 8-byte Spill
	movl	$51, %edi
	callq	QP2Qstep
	vmovsd	-56(%rbp), %xmm1        # 8-byte Reload
                                        # xmm1 = mem[0],zero
	vucomisd	%xmm0, %xmm1
	jbe	.LBB17_4
# %bb.3:                                # %if.then3
	movl	$51, -28(%rbp)
	jmp	.LBB17_24
.LBB17_4:                               # %if.end
	jmp	.LBB17_5
.LBB17_5:                               # %if.end4
	jmp	.LBB17_6
.LBB17_6:                               # %while.cond
                                        # =>This Inner Loop Header: Depth=1
	vmovsd	-16(%rbp), %xmm0        # xmm0 = mem[0],zero
	vmovsd	%xmm0, -48(%rbp)        # 8-byte Spill
	movl	$5, %edi
	callq	QP2Qstep
	vmovsd	-48(%rbp), %xmm1        # 8-byte Reload
                                        # xmm1 = mem[0],zero
	vucomisd	%xmm0, %xmm1
	jbe	.LBB17_8
# %bb.7:                                # %while.body
                                        #   in Loop: Header=BB17_6 Depth=1
	vmovsd	.LCPI17_11(%rip), %xmm0 # xmm0 = mem[0],zero
	vmovsd	-16(%rbp), %xmm1        # xmm1 = mem[0],zero
	vdivsd	%xmm0, %xmm1, %xmm0
	vmovsd	%xmm0, -16(%rbp)
	movl	-24(%rbp), %eax
	addl	$1, %eax
	movl	%eax, -24(%rbp)
	jmp	.LBB17_6
.LBB17_8:                               # %while.end
	vmovsd	.LCPI17_0(%rip), %xmm0  # xmm0 = mem[0],zero
	vucomisd	-16(%rbp), %xmm0
	jb	.LBB17_10
# %bb.9:                                # %if.then8
	vmovsd	.LCPI17_10(%rip), %xmm0 # xmm0 = mem[0],zero
	vmovsd	%xmm0, -16(%rbp)
	movl	$0, -20(%rbp)
	jmp	.LBB17_23
.LBB17_10:                              # %if.else9
	vmovsd	.LCPI17_1(%rip), %xmm0  # xmm0 = mem[0],zero
	vucomisd	-16(%rbp), %xmm0
	jb	.LBB17_12
# %bb.11:                               # %if.then11
	vmovsd	.LCPI17_9(%rip), %xmm0  # xmm0 = mem[0],zero
	vmovsd	%xmm0, -16(%rbp)
	movl	$1, -20(%rbp)
	jmp	.LBB17_22
.LBB17_12:                              # %if.else12
	vmovsd	.LCPI17_2(%rip), %xmm0  # xmm0 = mem[0],zero
	vucomisd	-16(%rbp), %xmm0
	jb	.LBB17_14
# %bb.13:                               # %if.then14
	vmovsd	.LCPI17_8(%rip), %xmm0  # xmm0 = mem[0],zero
	vmovsd	%xmm0, -16(%rbp)
	movl	$2, -20(%rbp)
	jmp	.LBB17_21
.LBB17_14:                              # %if.else15
	vmovsd	.LCPI17_3(%rip), %xmm0  # xmm0 = mem[0],zero
	vucomisd	-16(%rbp), %xmm0
	jb	.LBB17_16
# %bb.15:                               # %if.then17
	vmovsd	.LCPI17_7(%rip), %xmm0  # xmm0 = mem[0],zero
	vmovsd	%xmm0, -16(%rbp)
	movl	$3, -20(%rbp)
	jmp	.LBB17_20
.LBB17_16:                              # %if.else18
	vmovsd	.LCPI17_4(%rip), %xmm0  # xmm0 = mem[0],zero
	vucomisd	-16(%rbp), %xmm0
	jb	.LBB17_18
# %bb.17:                               # %if.then20
	vmovsd	.LCPI17_6(%rip), %xmm0  # xmm0 = mem[0],zero
	vmovsd	%xmm0, -16(%rbp)
	movl	$4, -20(%rbp)
	jmp	.LBB17_19
.LBB17_18:                              # %if.else21
	vmovsd	.LCPI17_5(%rip), %xmm0  # xmm0 = mem[0],zero
	vmovsd	%xmm0, -16(%rbp)
	movl	$5, -20(%rbp)
.LBB17_19:                              # %if.end22
	jmp	.LBB17_20
.LBB17_20:                              # %if.end23
	jmp	.LBB17_21
.LBB17_21:                              # %if.end24
	jmp	.LBB17_22
.LBB17_22:                              # %if.end25
	jmp	.LBB17_23
.LBB17_23:                              # %if.end26
	imull	$6, -24(%rbp), %eax
	addl	-20(%rbp), %eax
	movl	%eax, -28(%rbp)
.LBB17_24:                              # %return
	movl	-28(%rbp), %ebx
	cmpl	$1347445834, -32(%rbp)  # imm = 0x5050644A
	jne	.LBB17_26
.LBB17_25:
	movl	%ebx, %eax
	addq	$56, %rsp
	popq	%rbx
	popq	%rbp
	.cfi_def_cfa %rsp, 8
	retq
.LBB17_26:                              # %func_exit
	.cfi_def_cfa %rbp, 16
	callq	detect_breach
	jmp	.LBB17_25
.Lfunc_end17:
	.size	Qstep2QP.1, .Lfunc_end17-Qstep2QP.1
	.cfi_endproc
                                        # -- End function
	.section	.rodata.cst8,"aM",@progbits,8
	.p2align	3               # -- Begin function rc_init_seq.2
.LCPI18_0:
	.quad	4605380978949069210     # double 0.80000000000000004
.LCPI18_1:
	.quad	4612947026323051643     # double 2.5600000000000001
.LCPI18_2:
	.quad	4616189618054758400     # double 4
.LCPI18_3:
	.quad	4602678819172646912     # double 0.5
.LCPI18_4:
	.quad	4606281698874543309     # double 0.90000000000000002
.LCPI18_5:
	.quad	4598175219545276416     # double 0.25
.LCPI18_6:
	.quad	4607182418800017408     # double 1
.LCPI18_7:
	.quad	4612586738352862003     # double 2.3999999999999999
.LCPI18_8:
	.quad	4608983858650965606     # double 1.3999999999999999
.LCPI18_9:
	.quad	4603579539098121011     # double 0.59999999999999998
.LCPI18_10:
	.quad	4608083138725491507     # double 1.2
.LCPI18_11:
	.quad	4596373779694328218     # double 0.20000000000000001
.LCPI18_12:
	.quad	4599075939470750515     # double 0.29999999999999999
.LCPI18_13:
	.quad	4591870180066957722     # double 0.10000000000000001
	.text
	.globl	rc_init_seq.2
	.p2align	4, 0x90
	.type	rc_init_seq.2,@function
rc_init_seq.2:                          # @rc_init_seq.2
	.cfi_startproc
# %bb.0:                                # %entry
	pushq	%rbp
	.cfi_def_cfa_offset 16
	.cfi_offset %rbp, -16
	movq	%rsp, %rbp
	.cfi_def_cfa_register %rbp
	subq	$48, %rsp
	movl	$703631991, -44(%rbp)   # imm = 0x29F09277
	movl	$0, Xp
	movl	$0, Xb
	movq	input, %rax
	vcvtsi2sdl	3240(%rax), %xmm0, %xmm0
	vmovsd	%xmm0, bit_rate
	movq	img, %rax
	vmovss	48(%rax), %xmm0         # xmm0 = mem[0],zero,zero,zero
	movq	input, %rax
	movl	1236(%rax), %eax
	addl	$1, %eax
	vcvtsi2ss	%eax, %xmm0, %xmm1
	vmulss	%xmm1, %xmm0, %xmm0
	movq	input, %rax
	movl	20(%rax), %eax
	addl	$1, %eax
	vcvtsi2ss	%eax, %xmm0, %xmm1
	vdivss	%xmm1, %xmm0, %xmm0
	vcvtss2sd	%xmm0, %xmm0, %xmm0
	vmovsd	%xmm0, frame_rate
	vmovsd	bit_rate, %xmm0         # xmm0 = mem[0],zero
	vmovsd	%xmm0, PreviousBit_Rate
	movq	img, %rax
	movl	60(%rax), %eax
	movq	img, %rcx
	imull	52(%rcx), %eax
	cltd
	movl	$256, %ecx              # imm = 0x100
	idivl	%ecx
	movq	img, %rcx
	movl	%eax, 72608(%rcx)
	movq	input, %rax
	movl	3248(%rax), %eax
	movq	img, %rcx
	cmpl	72608(%rcx), %eax
	jle	.LBB18_2
# %bb.1:                                # %if.then
	movq	img, %rax
	movl	72608(%rax), %eax
	movq	input, %rcx
	movl	%eax, 3248(%rcx)
.LBB18_2:                               # %if.end
	movq	input, %rax
	movl	3248(%rax), %eax
	movq	img, %rcx
	cmpl	72608(%rcx), %eax
	jge	.LBB18_4
# %bb.3:                                # %if.then15
	movq	img, %rax
	movl	72608(%rax), %eax
	movq	input, %rcx
	cltd
	idivl	3248(%rcx)
	movl	%eax, TotalNumberofBasicUnit
.LBB18_4:                               # %if.end19
	vmovsd	.LCPI18_0(%rip), %xmm0  # xmm0 = mem[0],zero
	vmovsd	.LCPI18_1(%rip), %xmm1  # xmm1 = mem[0],zero
	vmovsd	.LCPI18_2(%rip), %xmm2  # xmm2 = mem[0],zero
	vmovsd	%xmm2, MINVALUE
	vmulsd	bit_rate, %xmm1, %xmm1
	vmovsd	%xmm1, BufferSize
	vxorps	%xmm1, %xmm1, %xmm1
	vmovsd	%xmm1, CurrentBufferFullness
	vmovsd	CurrentBufferFullness, %xmm1 # xmm1 = mem[0],zero
	vmovsd	%xmm1, GOPTargetBufferLevel
	vmulsd	BufferSize, %xmm0, %xmm0
	vmovsd	%xmm0, InitialDelayOffset
	movl	$0, m_windowSize
	movl	$0, MADm_windowSize
	movq	img, %rax
	movl	$0, 72560(%rax)
	movq	img, %rax
	movl	$0, 72564(%rax)
	movq	img, %rax
	movl	$0, 72568(%rax)
	movl	$0, R
	movq	input, %rax
	cmpl	$0, 1236(%rax)
	jle	.LBB18_6
# %bb.5:                                # %if.then25
	vmovsd	.LCPI18_4(%rip), %xmm0  # xmm0 = mem[0],zero
	vmovsd	.LCPI18_5(%rip), %xmm1  # xmm1 = mem[0],zero
	vmovsd	%xmm1, GAMMAP
	vmovsd	%xmm0, BETAP
	jmp	.LBB18_7
.LBB18_6:                               # %if.else
	vmovsd	.LCPI18_3(%rip), %xmm0  # xmm0 = mem[0],zero
	vmovsd	%xmm0, GAMMAP
	vmovsd	%xmm0, BETAP
.LBB18_7:                               # %if.end26
	vmovsd	.LCPI18_6(%rip), %xmm0  # xmm0 = mem[0],zero
	movl	$0, PPreHeader
	vmulsd	bit_rate, %xmm0, %xmm1
	vmovsd	%xmm1, Pm_X1
	vxorps	%xmm1, %xmm1, %xmm1
	vmovsd	%xmm1, Pm_X2
	vmovsd	%xmm0, PMADPictureC1
	vmovsd	%xmm1, PMADPictureC2
	movl	$0, -4(%rbp)
.LBB18_8:                               # %for.cond
                                        # =>This Inner Loop Header: Depth=1
	cmpl	$20, -4(%rbp)
	jge	.LBB18_11
# %bb.9:                                # %for.body
                                        #   in Loop: Header=BB18_8 Depth=1
	movslq	-4(%rbp), %rax
	vxorps	%xmm0, %xmm0, %xmm0
	vmovsd	%xmm0, Pm_rgQp(,%rax,8)
	movslq	-4(%rbp), %rax
	vmovsd	%xmm0, Pm_rgRp(,%rax,8)
	movslq	-4(%rbp), %rax
	vmovsd	%xmm0, PPictureMAD(,%rax,8)
# %bb.10:                               # %for.inc
                                        #   in Loop: Header=BB18_8 Depth=1
	movl	-4(%rbp), %eax
	addl	$1, %eax
	movl	%eax, -4(%rbp)
	jmp	.LBB18_8
.LBB18_11:                              # %for.end
	vxorps	%xmm0, %xmm0, %xmm0
	vmovsd	%xmm0, PPictureMAD+160
	movl	$2, PDuantQp
	movl	$0, PAveHeaderBits1
	movl	$0, PAveHeaderBits3
	cmpl	$9, TotalNumberofBasicUnit
	jl	.LBB18_13
# %bb.12:                               # %if.then36
	movl	$1, DDquant
	jmp	.LBB18_14
.LBB18_13:                              # %if.else37
	movl	$2, DDquant
.LBB18_14:                              # %if.end38
	vmovsd	.LCPI18_6(%rip), %xmm0  # xmm0 = mem[0],zero
	movq	img, %rax
	movl	52(%rax), %eax
	cltd
	movl	$16, %ecx
	idivl	%ecx
	movl	%eax, MBPerRow
	movq	img, %rax
	movl	$0, 72600(%rax)
	movl	$51, RC_MAX_QUANT
	movl	$0, RC_MIN_QUANT
	vmulsd	bit_rate, %xmm0, %xmm0
	vmovsd	frame_rate, %xmm1       # xmm1 = mem[0],zero
	movq	img, %rax
	vcvtsi2sdl	52(%rax), %xmm0, %xmm2
	vmulsd	%xmm2, %xmm1, %xmm1
	movq	img, %rax
	vcvtsi2sdl	60(%rax), %xmm0, %xmm2
	vmulsd	%xmm2, %xmm1, %xmm1
	vdivsd	%xmm1, %xmm0, %xmm0
	vmovsd	%xmm0, -16(%rbp)
	movq	img, %rax
	cmpl	$176, 52(%rax)
	jne	.LBB18_16
# %bb.15:                               # %if.then52
	vmovsd	.LCPI18_9(%rip), %xmm0  # xmm0 = mem[0],zero
	vmovsd	.LCPI18_12(%rip), %xmm1 # xmm1 = mem[0],zero
	vmovsd	.LCPI18_13(%rip), %xmm2 # xmm2 = mem[0],zero
	vmovsd	%xmm2, -40(%rbp)
	vmovsd	%xmm1, -32(%rbp)
	vmovsd	%xmm0, -24(%rbp)
	jmp	.LBB18_20
.LBB18_16:                              # %if.else53
	movq	img, %rax
	cmpl	$352, 52(%rax)          # imm = 0x160
	jne	.LBB18_18
# %bb.17:                               # %if.then57
	vmovsd	.LCPI18_10(%rip), %xmm0 # xmm0 = mem[0],zero
	vmovsd	.LCPI18_9(%rip), %xmm1  # xmm1 = mem[0],zero
	vmovsd	.LCPI18_11(%rip), %xmm2 # xmm2 = mem[0],zero
	vmovsd	%xmm2, -40(%rbp)
	vmovsd	%xmm1, -32(%rbp)
	vmovsd	%xmm0, -24(%rbp)
	jmp	.LBB18_19
.LBB18_18:                              # %if.else58
	vmovsd	.LCPI18_7(%rip), %xmm0  # xmm0 = mem[0],zero
	vmovsd	.LCPI18_8(%rip), %xmm1  # xmm1 = mem[0],zero
	vmovsd	.LCPI18_9(%rip), %xmm2  # xmm2 = mem[0],zero
	vmovsd	%xmm2, -40(%rbp)
	vmovsd	%xmm1, -32(%rbp)
	vmovsd	%xmm0, -24(%rbp)
.LBB18_19:                              # %if.end59
	jmp	.LBB18_20
.LBB18_20:                              # %if.end60
	movq	input, %rax
	cmpl	$0, 3244(%rax)
	jne	.LBB18_31
# %bb.21:                               # %if.then63
	vmovsd	-16(%rbp), %xmm0        # xmm0 = mem[0],zero
	vmovsd	-40(%rbp), %xmm1        # xmm1 = mem[0],zero
	vucomisd	%xmm0, %xmm1
	jb	.LBB18_23
# %bb.22:                               # %if.then66
	movl	$35, -8(%rbp)
	jmp	.LBB18_30
.LBB18_23:                              # %if.else67
	vmovsd	-16(%rbp), %xmm0        # xmm0 = mem[0],zero
	vmovsd	-32(%rbp), %xmm1        # xmm1 = mem[0],zero
	vucomisd	%xmm0, %xmm1
	jb	.LBB18_25
# %bb.24:                               # %if.then70
	movl	$25, -8(%rbp)
	jmp	.LBB18_29
.LBB18_25:                              # %if.else71
	vmovsd	-16(%rbp), %xmm0        # xmm0 = mem[0],zero
	vmovsd	-24(%rbp), %xmm1        # xmm1 = mem[0],zero
	vucomisd	%xmm0, %xmm1
	jb	.LBB18_27
# %bb.26:                               # %if.then74
	movl	$20, -8(%rbp)
	jmp	.LBB18_28
.LBB18_27:                              # %if.else75
	movl	$10, -8(%rbp)
.LBB18_28:                              # %if.end76
	jmp	.LBB18_29
.LBB18_29:                              # %if.end77
	jmp	.LBB18_30
.LBB18_30:                              # %if.end78
	movl	-8(%rbp), %eax
	movq	input, %rcx
	movl	%eax, 3244(%rcx)
.LBB18_31:                              # %if.end80
	cmpl	$703631991, -44(%rbp)   # imm = 0x29F09277
	jne	.LBB18_33
.LBB18_32:
	addq	$48, %rsp
	popq	%rbp
	.cfi_def_cfa %rsp, 8
	retq
.LBB18_33:                              # %func_exit
	.cfi_def_cfa %rbp, 16
	callq	detect_breach
	jmp	.LBB18_32
.Lfunc_end18:
	.size	rc_init_seq.2, .Lfunc_end18-rc_init_seq.2
	.cfi_endproc
                                        # -- End function
	.section	.rodata.cst8,"aM",@progbits,8
	.p2align	3               # -- Begin function RCModelEstimator.3
.LCPI19_0:
	.quad	4517329193108106637     # double 9.9999999999999995E-7
.LCPI19_2:
	.quad	4607182418800017408     # double 1
	.section	.rodata.cst16,"aM",@progbits,16
	.p2align	4
.LCPI19_1:
	.quad	9223372036854775807     # double NaN
	.quad	9223372036854775807     # double NaN
	.text
	.globl	RCModelEstimator.3
	.p2align	4, 0x90
	.type	RCModelEstimator.3,@function
RCModelEstimator.3:                     # @RCModelEstimator.3
	.cfi_startproc
# %bb.0:                                # %entry
	pushq	%rbp
	.cfi_def_cfa_offset 16
	.cfi_offset %rbp, -16
	movq	%rsp, %rbp
	.cfi_def_cfa_register %rbp
	subq	$96, %rsp
	movl	$311004115, -84(%rbp)   # imm = 0x12898BD3
	movl	%edi, -8(%rbp)
	movl	-8(%rbp), %eax
	movl	%eax, -12(%rbp)
	vxorps	%xmm0, %xmm0, %xmm0
	vmovsd	%xmm0, -32(%rbp)
	vmovsd	%xmm0, -40(%rbp)
	vmovsd	%xmm0, -80(%rbp)
	vmovsd	%xmm0, -64(%rbp)
	vmovsd	%xmm0, -24(%rbp)
	vmovsd	%xmm0, -56(%rbp)
	movl	$0, -44(%rbp)
	movl	$0, -4(%rbp)
.LBB19_1:                               # %for.cond
                                        # =>This Inner Loop Header: Depth=1
	movl	-4(%rbp), %eax
	cmpl	-8(%rbp), %eax
	jge	.LBB19_6
# %bb.2:                                # %for.body
                                        #   in Loop: Header=BB19_1 Depth=1
	movslq	-4(%rbp), %rax
	cmpl	$0, m_rgRejected(,%rax,4)
	je	.LBB19_4
# %bb.3:                                # %if.then
                                        #   in Loop: Header=BB19_1 Depth=1
	movl	-12(%rbp), %eax
	addl	$-1, %eax
	movl	%eax, -12(%rbp)
.LBB19_4:                               # %if.end
                                        #   in Loop: Header=BB19_1 Depth=1
	jmp	.LBB19_5
.LBB19_5:                               # %for.inc
                                        #   in Loop: Header=BB19_1 Depth=1
	movl	-4(%rbp), %eax
	addl	$1, %eax
	movl	%eax, -4(%rbp)
	jmp	.LBB19_1
.LBB19_6:                               # %for.end
	vxorps	%xmm0, %xmm0, %xmm0
	vmovsd	%xmm0, m_X2
	vmovsd	%xmm0, m_X1
	movl	$0, -4(%rbp)
.LBB19_7:                               # %for.cond1
                                        # =>This Inner Loop Header: Depth=1
	movl	-4(%rbp), %eax
	cmpl	-8(%rbp), %eax
	jge	.LBB19_12
# %bb.8:                                # %for.body3
                                        #   in Loop: Header=BB19_7 Depth=1
	movslq	-4(%rbp), %rax
	cmpl	$0, m_rgRejected(,%rax,4)
	jne	.LBB19_10
# %bb.9:                                # %if.then7
                                        #   in Loop: Header=BB19_7 Depth=1
	movslq	-4(%rbp), %rax
	vmovsd	m_rgQp(,%rax,8), %xmm0  # xmm0 = mem[0],zero
	vmovsd	%xmm0, -96(%rbp)
.LBB19_10:                              # %if.end10
                                        #   in Loop: Header=BB19_7 Depth=1
	jmp	.LBB19_11
.LBB19_11:                              # %for.inc11
                                        #   in Loop: Header=BB19_7 Depth=1
	movl	-4(%rbp), %eax
	addl	$1, %eax
	movl	%eax, -4(%rbp)
	jmp	.LBB19_7
.LBB19_12:                              # %for.end13
	movl	$0, -4(%rbp)
.LBB19_13:                              # %for.cond14
                                        # =>This Inner Loop Header: Depth=1
	movl	-4(%rbp), %eax
	cmpl	-8(%rbp), %eax
	jge	.LBB19_21
# %bb.14:                               # %for.body16
                                        #   in Loop: Header=BB19_13 Depth=1
	movslq	-4(%rbp), %rax
	vmovsd	m_rgQp(,%rax,8), %xmm0  # xmm0 = mem[0],zero
	vucomisd	-96(%rbp), %xmm0
	jne	.LBB19_15
	jp	.LBB19_15
	jmp	.LBB19_17
.LBB19_15:                              # %land.lhs.true
                                        #   in Loop: Header=BB19_13 Depth=1
	movslq	-4(%rbp), %rax
	cmpl	$0, m_rgRejected(,%rax,4)
	jne	.LBB19_17
# %bb.16:                               # %if.then23
                                        #   in Loop: Header=BB19_13 Depth=1
	movl	$1, -44(%rbp)
.LBB19_17:                              # %if.end24
                                        #   in Loop: Header=BB19_13 Depth=1
	movslq	-4(%rbp), %rax
	cmpl	$0, m_rgRejected(,%rax,4)
	jne	.LBB19_19
# %bb.18:                               # %if.then28
                                        #   in Loop: Header=BB19_13 Depth=1
	movslq	-4(%rbp), %rax
	vmovsd	m_rgQp(,%rax,8), %xmm0  # xmm0 = mem[0],zero
	movslq	-4(%rbp), %rax
	vmulsd	m_rgRp(,%rax,8), %xmm0, %xmm0
	vcvtsi2sdl	-12(%rbp), %xmm0, %xmm1
	vdivsd	%xmm1, %xmm0, %xmm0
	vaddsd	m_X1, %xmm0, %xmm0
	vmovsd	%xmm0, m_X1
.LBB19_19:                              # %if.end33
                                        #   in Loop: Header=BB19_13 Depth=1
	jmp	.LBB19_20
.LBB19_20:                              # %for.inc34
                                        #   in Loop: Header=BB19_13 Depth=1
	movl	-4(%rbp), %eax
	addl	$1, %eax
	movl	%eax, -4(%rbp)
	jmp	.LBB19_13
.LBB19_21:                              # %for.end36
	cmpl	$1, -12(%rbp)
	jl	.LBB19_33
# %bb.22:                               # %land.lhs.true39
	cmpl	$0, -44(%rbp)
	je	.LBB19_33
# %bb.23:                               # %if.then41
	movl	$0, -4(%rbp)
.LBB19_24:                              # %for.cond42
                                        # =>This Inner Loop Header: Depth=1
	movl	-4(%rbp), %eax
	cmpl	-8(%rbp), %eax
	jge	.LBB19_29
# %bb.25:                               # %for.body45
                                        #   in Loop: Header=BB19_24 Depth=1
	movslq	-4(%rbp), %rax
	cmpl	$0, m_rgRejected(,%rax,4)
	jne	.LBB19_27
# %bb.26:                               # %if.then49
                                        #   in Loop: Header=BB19_24 Depth=1
	vmovsd	.LCPI19_2(%rip), %xmm0  # xmm0 = mem[0],zero
	vaddsd	-32(%rbp), %xmm0, %xmm1
	vmovsd	%xmm1, -32(%rbp)
	movslq	-4(%rbp), %rax
	vdivsd	m_rgQp(,%rax,8), %xmm0, %xmm1
	vaddsd	-40(%rbp), %xmm1, %xmm1
	vmovsd	%xmm1, -40(%rbp)
	vmovsd	-40(%rbp), %xmm1        # xmm1 = mem[0],zero
	vmovsd	%xmm1, -80(%rbp)
	movslq	-4(%rbp), %rax
	vmovsd	m_rgQp(,%rax,8), %xmm1  # xmm1 = mem[0],zero
	movslq	-4(%rbp), %rax
	vmulsd	m_rgQp(,%rax,8), %xmm1, %xmm1
	vdivsd	%xmm1, %xmm0, %xmm0
	vaddsd	-64(%rbp), %xmm0, %xmm0
	vmovsd	%xmm0, -64(%rbp)
	movslq	-4(%rbp), %rax
	vmovsd	m_rgQp(,%rax,8), %xmm0  # xmm0 = mem[0],zero
	movslq	-4(%rbp), %rax
	vmulsd	m_rgRp(,%rax,8), %xmm0, %xmm0
	vaddsd	-24(%rbp), %xmm0, %xmm0
	vmovsd	%xmm0, -24(%rbp)
	movslq	-4(%rbp), %rax
	vmovsd	m_rgRp(,%rax,8), %xmm0  # xmm0 = mem[0],zero
	vaddsd	-56(%rbp), %xmm0, %xmm0
	vmovsd	%xmm0, -56(%rbp)
.LBB19_27:                              # %if.end71
                                        #   in Loop: Header=BB19_24 Depth=1
	jmp	.LBB19_28
.LBB19_28:                              # %for.inc72
                                        #   in Loop: Header=BB19_24 Depth=1
	movl	-4(%rbp), %eax
	addl	$1, %eax
	movl	%eax, -4(%rbp)
	jmp	.LBB19_24
.LBB19_29:                              # %for.end74
	vmovsd	.LCPI19_0(%rip), %xmm0  # xmm0 = mem[0],zero
	vmovsd	-32(%rbp), %xmm1        # xmm1 = mem[0],zero
	vmulsd	-64(%rbp), %xmm1, %xmm1
	vmovsd	-40(%rbp), %xmm2        # xmm2 = mem[0],zero
	vmulsd	-80(%rbp), %xmm2, %xmm2
	vsubsd	%xmm2, %xmm1, %xmm1
	vmovsd	%xmm1, -72(%rbp)
	vmovsd	-72(%rbp), %xmm1        # xmm1 = mem[0],zero
	vmovdqa	.LCPI19_1(%rip), %xmm2  # xmm2 = [NaN,NaN]
	vpand	%xmm2, %xmm1, %xmm1
	vucomisd	%xmm0, %xmm1
	jbe	.LBB19_31
# %bb.30:                               # %if.then79
	vmovsd	-24(%rbp), %xmm0        # xmm0 = mem[0],zero
	vmulsd	-64(%rbp), %xmm0, %xmm0
	vmovsd	-56(%rbp), %xmm1        # xmm1 = mem[0],zero
	vmulsd	-40(%rbp), %xmm1, %xmm1
	vsubsd	%xmm1, %xmm0, %xmm0
	vdivsd	-72(%rbp), %xmm0, %xmm0
	vmovsd	%xmm0, m_X1
	vmovsd	-56(%rbp), %xmm0        # xmm0 = mem[0],zero
	vmulsd	-32(%rbp), %xmm0, %xmm0
	vmovsd	-24(%rbp), %xmm1        # xmm1 = mem[0],zero
	vmulsd	-80(%rbp), %xmm1, %xmm1
	vsubsd	%xmm1, %xmm0, %xmm0
	vdivsd	-72(%rbp), %xmm0, %xmm0
	vmovsd	%xmm0, m_X2
	jmp	.LBB19_32
.LBB19_31:                              # %if.else
	vmovsd	-24(%rbp), %xmm0        # xmm0 = mem[0],zero
	vdivsd	-32(%rbp), %xmm0, %xmm0
	vmovsd	%xmm0, m_X1
	vxorps	%xmm0, %xmm0, %xmm0
	vmovsd	%xmm0, m_X2
.LBB19_32:                              # %if.end89
	jmp	.LBB19_33
.LBB19_33:                              # %if.end90
	movq	img, %rax
	cmpl	$0, 24(%rax)
	jne	.LBB19_35
# %bb.34:                               # %if.then93
	vmovsd	m_X1, %xmm0             # xmm0 = mem[0],zero
	vmovsd	%xmm0, Pm_X1
	vmovsd	m_X2, %xmm0             # xmm0 = mem[0],zero
	vmovsd	%xmm0, Pm_X2
.LBB19_35:                              # %if.end94
	cmpl	$311004115, -84(%rbp)   # imm = 0x12898BD3
	jne	.LBB19_37
.LBB19_36:
	addq	$96, %rsp
	popq	%rbp
	.cfi_def_cfa %rsp, 8
	retq
.LBB19_37:                              # %func_exit
	.cfi_def_cfa %rbp, 16
	callq	detect_breach
	jmp	.LBB19_36
.Lfunc_end19:
	.size	RCModelEstimator.3, .Lfunc_end19-RCModelEstimator.3
	.cfi_endproc
                                        # -- End function
	.section	.rodata.cst8,"aM",@progbits,8
	.p2align	3               # -- Begin function updateQuantizationParameter.4
.LCPI20_0:
	.quad	4616189618054758400     # double 4
.LCPI20_1:
	.quad	4611686018427387904     # double 2
.LCPI20_2:
	.quad	4602678819172646912     # double 0.5
.LCPI20_3:
	.quad	4607182418800017408     # double 1
	.text
	.globl	updateQuantizationParameter.4
	.p2align	4, 0x90
	.type	updateQuantizationParameter.4,@function
updateQuantizationParameter.4:          # @updateQuantizationParameter.4
	.cfi_startproc
# %bb.0:                                # %entry
	pushq	%rbp
	.cfi_def_cfa_offset 16
	.cfi_offset %rbp, -16
	movq	%rsp, %rbp
	.cfi_def_cfa_register %rbp
	pushq	%rbx
	subq	$72, %rsp
	.cfi_offset %rbx, -24
	movl	$192572623, -56(%rbp)   # imm = 0xB7A6CCF
	movl	%edi, -36(%rbp)
	movq	img, %rax
	movl	72620(%rax), %eax
	movq	img, %rcx
	cmpl	72608(%rcx), %eax
	jne	.LBB20_123
# %bb.1:                                # %if.then
	cmpl	$0, -36(%rbp)
	jne	.LBB20_3
# %bb.2:                                # %lor.lhs.false
	movq	img, %rax
	cmpl	$0, 72600(%rax)
	jne	.LBB20_116
.LBB20_3:                               # %if.then2
	movq	img, %rax
	cmpl	$2, 24(%rax)
	jne	.LBB20_5
# %bb.4:                                # %if.then4
	movl	MyInitialQp, %eax
	movl	%eax, m_Qc
	movl	m_Qc, %eax
	movl	%eax, -20(%rbp)
	jmp	.LBB20_363
.LBB20_5:                               # %if.else
	movq	img, %rax
	cmpl	$1, 24(%rax)
	jne	.LBB20_69
# %bb.6:                                # %if.then7
	movq	input, %rax
	cmpl	$1, 1236(%rax)
	jne	.LBB20_25
# %bb.7:                                # %if.then9
	movq	input, %rax
	cmpl	$2, 2880(%rax)
	je	.LBB20_9
# %bb.8:                                # %lor.lhs.false11
	movq	input, %rax
	cmpl	$0, 2884(%rax)
	je	.LBB20_15
.LBB20_9:                               # %if.then13
	movq	img, %rax
	cmpl	$0, 72600(%rax)
	jne	.LBB20_14
# %bb.10:                               # %if.then16
	movq	img, %rax
	cmpl	$1, 72604(%rax)
	jne	.LBB20_12
# %bb.11:                               # %if.then18
	movl	PreviousQp2, %eax
	movl	%eax, PreviousQp1
	movl	FrameQPBuffer, %eax
	movl	%eax, PreviousQp2
	jmp	.LBB20_13
.LBB20_12:                              # %if.else19
	movl	PreviousQp2, %eax
	movl	%eax, PreviousQp1
	movl	FieldQPBuffer, %eax
	movl	%eax, PreviousQp2
.LBB20_13:                              # %if.end
	jmp	.LBB20_14
.LBB20_14:                              # %if.end20
	jmp	.LBB20_15
.LBB20_15:                              # %if.end21
	movl	PreviousQp1, %eax
	cmpl	PreviousQp2, %eax
	jne	.LBB20_17
# %bb.16:                               # %if.then23
	movl	PreviousQp1, %eax
	addl	$2, %eax
	movl	%eax, m_Qc
	jmp	.LBB20_18
.LBB20_17:                              # %if.else24
	movl	PreviousQp1, %eax
	addl	PreviousQp2, %eax
	cltd
	movl	$2, %ecx
	idivl	%ecx
	addl	$1, %eax
	movl	%eax, m_Qc
.LBB20_18:                              # %if.end27
	movl	m_Qc, %eax
	cmpl	RC_MAX_QUANT, %eax
	jge	.LBB20_20
# %bb.19:                               # %cond.true
	movl	m_Qc, %eax
	jmp	.LBB20_21
.LBB20_20:                              # %cond.false
	movl	RC_MAX_QUANT, %eax
.LBB20_21:                              # %cond.end
	movl	%eax, m_Qc
	movl	RC_MIN_QUANT, %eax
	cmpl	m_Qc, %eax
	jge	.LBB20_23
# %bb.22:                               # %cond.true30
	movl	m_Qc, %eax
	jmp	.LBB20_24
.LBB20_23:                              # %cond.false31
	movl	RC_MIN_QUANT, %eax
.LBB20_24:                              # %cond.end32
	movl	%eax, m_Qc
	jmp	.LBB20_68
.LBB20_25:                              # %if.else34
	movl	NumberofBFrames, %eax
	addl	$1, %eax
	movq	input, %rcx
	cltd
	idivl	1236(%rcx)
	movl	%edx, -12(%rbp)
	cmpl	$0, -12(%rbp)
	jne	.LBB20_27
# %bb.26:                               # %if.then38
	movq	input, %rax
	movl	1236(%rax), %eax
	movl	%eax, -12(%rbp)
.LBB20_27:                              # %if.end40
	cmpl	$1, -12(%rbp)
	jne	.LBB20_37
# %bb.28:                               # %if.then42
	movq	input, %rax
	cmpl	$2, 2880(%rax)
	je	.LBB20_30
# %bb.29:                               # %lor.lhs.false45
	movq	input, %rax
	cmpl	$0, 2884(%rax)
	je	.LBB20_36
.LBB20_30:                              # %if.then48
	movq	img, %rax
	cmpl	$0, 72600(%rax)
	jne	.LBB20_35
# %bb.31:                               # %if.then51
	movq	img, %rax
	cmpl	$1, 72604(%rax)
	jne	.LBB20_33
# %bb.32:                               # %if.then54
	movl	PreviousQp2, %eax
	movl	%eax, PreviousQp1
	movl	FrameQPBuffer, %eax
	movl	%eax, PreviousQp2
	jmp	.LBB20_34
.LBB20_33:                              # %if.else55
	movl	PreviousQp2, %eax
	movl	%eax, PreviousQp1
	movl	FieldQPBuffer, %eax
	movl	%eax, PreviousQp2
.LBB20_34:                              # %if.end56
	jmp	.LBB20_35
.LBB20_35:                              # %if.end57
	jmp	.LBB20_36
.LBB20_36:                              # %if.end58
	jmp	.LBB20_37
.LBB20_37:                              # %if.end59
	movl	PreviousQp2, %eax
	subl	PreviousQp1, %eax
	movq	input, %rcx
	imull	$4294967294, 1236(%rcx), %ecx # imm = 0xFFFFFFFE
	subl	$3, %ecx
	cmpl	%ecx, %eax
	jg	.LBB20_39
# %bb.38:                               # %if.then63
	movl	$-3, -24(%rbp)
	jmp	.LBB20_52
.LBB20_39:                              # %if.else64
	movl	PreviousQp2, %eax
	subl	PreviousQp1, %eax
	movq	input, %rcx
	imull	$4294967294, 1236(%rcx), %ecx # imm = 0xFFFFFFFE
	subl	$2, %ecx
	cmpl	%ecx, %eax
	jne	.LBB20_41
# %bb.40:                               # %if.then70
	movl	$-2, -24(%rbp)
	jmp	.LBB20_51
.LBB20_41:                              # %if.else71
	movl	PreviousQp2, %eax
	subl	PreviousQp1, %eax
	movq	input, %rcx
	imull	$4294967294, 1236(%rcx), %ecx # imm = 0xFFFFFFFE
	subl	$1, %ecx
	cmpl	%ecx, %eax
	jne	.LBB20_43
# %bb.42:                               # %if.then77
	movl	$-1, -24(%rbp)
	jmp	.LBB20_50
.LBB20_43:                              # %if.else78
	movl	PreviousQp2, %eax
	subl	PreviousQp1, %eax
	movq	input, %rcx
	imull	$4294967294, 1236(%rcx), %ecx # imm = 0xFFFFFFFE
	cmpl	%ecx, %eax
	jne	.LBB20_45
# %bb.44:                               # %if.then83
	movl	$0, -24(%rbp)
	jmp	.LBB20_49
.LBB20_45:                              # %if.else84
	movl	PreviousQp2, %eax
	subl	PreviousQp1, %eax
	movq	input, %rcx
	imull	$4294967294, 1236(%rcx), %ecx # imm = 0xFFFFFFFE
	addl	$1, %ecx
	cmpl	%ecx, %eax
	jne	.LBB20_47
# %bb.46:                               # %if.then90
	movl	$1, -24(%rbp)
	jmp	.LBB20_48
.LBB20_47:                              # %if.else91
	movl	$2, -24(%rbp)
.LBB20_48:                              # %if.end92
	jmp	.LBB20_49
.LBB20_49:                              # %if.end93
	jmp	.LBB20_50
.LBB20_50:                              # %if.end94
	jmp	.LBB20_51
.LBB20_51:                              # %if.end95
	jmp	.LBB20_52
.LBB20_52:                              # %if.end96
	movl	PreviousQp1, %eax
	addl	-24(%rbp), %eax
	movl	%eax, m_Qc
	movl	-12(%rbp), %ecx
	subl	$1, %ecx
	shll	$1, %ecx
	movl	-12(%rbp), %eax
	subl	$1, %eax
	imull	$4294967294, %eax, %esi # imm = 0xFFFFFFFE
	movl	-12(%rbp), %eax
	subl	$1, %eax
	movl	PreviousQp2, %edx
	subl	PreviousQp1, %edx
	imull	%edx, %eax
	movq	input, %rdx
	movl	1236(%rdx), %edi
	subl	$1, %edi
	cltd
	idivl	%edi
	cmpl	%eax, %esi
	jge	.LBB20_54
# %bb.53:                               # %cond.true109
	movl	-12(%rbp), %eax
	subl	$1, %eax
	movl	PreviousQp2, %edx
	subl	PreviousQp1, %edx
	imull	%edx, %eax
	movq	input, %rdx
	movl	1236(%rdx), %esi
	subl	$1, %esi
	cltd
	idivl	%esi
	jmp	.LBB20_55
.LBB20_54:                              # %cond.false116
	movl	-12(%rbp), %eax
	subl	$1, %eax
	imull	$4294967294, %eax, %eax # imm = 0xFFFFFFFE
.LBB20_55:                              # %cond.end119
	cmpl	%eax, %ecx
	jge	.LBB20_57
# %bb.56:                               # %cond.true122
	movl	-12(%rbp), %eax
	subl	$1, %eax
	shll	$1, %eax
	jmp	.LBB20_61
.LBB20_57:                              # %cond.false125
	movl	-12(%rbp), %eax
	subl	$1, %eax
	imull	$4294967294, %eax, %ecx # imm = 0xFFFFFFFE
	movl	-12(%rbp), %eax
	subl	$1, %eax
	movl	PreviousQp2, %edx
	subl	PreviousQp1, %edx
	imull	%edx, %eax
	movq	input, %rdx
	movl	1236(%rdx), %esi
	subl	$1, %esi
	cltd
	idivl	%esi
	cmpl	%eax, %ecx
	jge	.LBB20_59
# %bb.58:                               # %cond.true135
	movl	-12(%rbp), %eax
	subl	$1, %eax
	movl	PreviousQp2, %ecx
	subl	PreviousQp1, %ecx
	imull	%ecx, %eax
	movq	input, %rcx
	movl	1236(%rcx), %ecx
	subl	$1, %ecx
	cltd
	idivl	%ecx
	jmp	.LBB20_60
.LBB20_59:                              # %cond.false142
	movl	-12(%rbp), %eax
	subl	$1, %eax
	imull	$4294967294, %eax, %eax # imm = 0xFFFFFFFE
.LBB20_60:                              # %cond.end145
.LBB20_61:                              # %cond.end147
	addl	m_Qc, %eax
	movl	%eax, m_Qc
	movl	m_Qc, %eax
	cmpl	RC_MAX_QUANT, %eax
	jge	.LBB20_63
# %bb.62:                               # %cond.true151
	movl	m_Qc, %eax
	jmp	.LBB20_64
.LBB20_63:                              # %cond.false152
	movl	RC_MAX_QUANT, %eax
.LBB20_64:                              # %cond.end153
	movl	%eax, m_Qc
	movl	RC_MIN_QUANT, %eax
	cmpl	m_Qc, %eax
	jge	.LBB20_66
# %bb.65:                               # %cond.true156
	movl	m_Qc, %eax
	jmp	.LBB20_67
.LBB20_66:                              # %cond.false157
	movl	RC_MIN_QUANT, %eax
.LBB20_67:                              # %cond.end158
	movl	%eax, m_Qc
.LBB20_68:                              # %if.end160
	movl	m_Qc, %eax
	movl	%eax, -20(%rbp)
	jmp	.LBB20_363
.LBB20_69:                              # %if.else161
	movq	img, %rax
	cmpl	$0, 24(%rax)
	jne	.LBB20_77
# %bb.70:                               # %land.lhs.true
	movq	img, %rax
	cmpl	$0, 72576(%rax)
	jne	.LBB20_77
# %bb.71:                               # %if.then165
	movl	MyInitialQp, %eax
	movl	%eax, m_Qc
	movq	img, %rax
	cmpl	$0, 72600(%rax)
	jne	.LBB20_76
# %bb.72:                               # %if.then168
	movq	active_sps, %rax
	cmpl	$0, 1148(%rax)
	je	.LBB20_74
# %bb.73:                               # %if.then170
	movl	m_Qc, %eax
	movq	img, %rcx
	addl	72572(%rcx), %eax
	movl	%eax, 72572(%rcx)
	movl	PreviousQp2, %eax
	movl	%eax, PreviousQp1
	movl	m_Qc, %eax
	movl	%eax, PreviousQp2
	movl	m_Qc, %eax
	movl	%eax, Pm_Qp
	jmp	.LBB20_75
.LBB20_74:                              # %if.else172
	movl	m_Qc, %eax
	movl	%eax, FrameQPBuffer
.LBB20_75:                              # %if.end173
	jmp	.LBB20_76
.LBB20_76:                              # %if.end174
	movl	m_Qc, %eax
	movl	%eax, -20(%rbp)
	jmp	.LBB20_363
.LBB20_77:                              # %if.else175
	movq	input, %rax
	cmpl	$2, 2880(%rax)
	je	.LBB20_79
# %bb.78:                               # %lor.lhs.false178
	movq	input, %rax
	cmpl	$0, 2884(%rax)
	je	.LBB20_84
.LBB20_79:                              # %land.lhs.true181
	movq	img, %rax
	cmpl	$0, 72600(%rax)
	jne	.LBB20_84
# %bb.80:                               # %if.then184
	movq	img, %rax
	cmpl	$1, 72604(%rax)
	jne	.LBB20_82
# %bb.81:                               # %if.then187
	movl	FrameQPBuffer, %eax
	movq	img, %rcx
	addl	72572(%rcx), %eax
	movl	%eax, 72572(%rcx)
	movl	FrameQPBuffer, %eax
	movl	%eax, Pm_Qp
	jmp	.LBB20_83
.LBB20_82:                              # %if.else190
	movl	FieldQPBuffer, %eax
	movq	img, %rcx
	addl	72572(%rcx), %eax
	movl	%eax, 72572(%rcx)
	movl	FieldQPBuffer, %eax
	movl	%eax, Pm_Qp
.LBB20_83:                              # %if.end193
	jmp	.LBB20_84
.LBB20_84:                              # %if.end194
	vmovsd	Pm_X1, %xmm0            # xmm0 = mem[0],zero
	vmovsd	%xmm0, m_X1
	vmovsd	Pm_X2, %xmm0            # xmm0 = mem[0],zero
	vmovsd	%xmm0, m_X2
	movl	PPreHeader, %eax
	movl	%eax, m_Hp
	movl	Pm_Qp, %eax
	movl	%eax, m_Qp
	movl	PDuantQp, %eax
	movl	%eax, DuantQp
	vmovsd	PMADPictureC1, %xmm0    # xmm0 = mem[0],zero
	vmovsd	%xmm0, MADPictureC1
	vmovsd	PMADPictureC2, %xmm0    # xmm0 = mem[0],zero
	vmovsd	%xmm0, MADPictureC2
	vmovsd	PPictureMAD, %xmm0      # xmm0 = mem[0],zero
	vmovsd	%xmm0, PreviousPictureMAD
	vmovsd	MADPictureC1, %xmm0     # xmm0 = mem[0],zero
	vmulsd	PreviousPictureMAD, %xmm0, %xmm0
	vaddsd	MADPictureC2, %xmm0, %xmm0
	vmovsd	%xmm0, CurrentFrameMAD
	cmpq	$0, T
	jge	.LBB20_89
# %bb.85:                               # %if.then198
	movl	m_Qp, %eax
	addl	DuantQp, %eax
	movl	%eax, m_Qc
	movl	m_Qc, %eax
	cmpl	RC_MAX_QUANT, %eax
	jge	.LBB20_87
# %bb.86:                               # %cond.true201
	movl	m_Qc, %eax
	jmp	.LBB20_88
.LBB20_87:                              # %cond.false202
	movl	RC_MAX_QUANT, %eax
.LBB20_88:                              # %cond.end203
	movl	%eax, m_Qc
	jmp	.LBB20_110
.LBB20_89:                              # %if.else205
	movq	T, %rax
	movslq	m_Hp, %rcx
	subq	%rcx, %rax
	movl	%eax, -28(%rbp)
	movl	-28(%rbp), %eax
	vmovsd	bit_rate, %xmm0         # xmm0 = mem[0],zero
	vmovsd	MINVALUE, %xmm1         # xmm1 = mem[0],zero
	vmulsd	frame_rate, %xmm1, %xmm1
	vdivsd	%xmm1, %xmm0, %xmm0
	vcvttsd2si	%xmm0, %ecx
	cmpl	%ecx, %eax
	jge	.LBB20_91
# %bb.90:                               # %cond.true213
	vmovsd	bit_rate, %xmm0         # xmm0 = mem[0],zero
	vmovsd	MINVALUE, %xmm1         # xmm1 = mem[0],zero
	vmulsd	frame_rate, %xmm1, %xmm1
	vdivsd	%xmm1, %xmm0, %xmm0
	vcvttsd2si	%xmm0, %eax
	jmp	.LBB20_92
.LBB20_91:                              # %cond.false217
	movl	-28(%rbp), %eax
.LBB20_92:                              # %cond.end218
	vmovsd	.LCPI20_0(%rip), %xmm0  # xmm0 = mem[0],zero
	movl	%eax, -28(%rbp)
	vmovsd	CurrentFrameMAD, %xmm1  # xmm1 = mem[0],zero
	vmulsd	m_X1, %xmm1, %xmm1
	vmulsd	CurrentFrameMAD, %xmm1, %xmm1
	vmulsd	m_X1, %xmm1, %xmm1
	vmulsd	m_X2, %xmm0, %xmm0
	vmulsd	CurrentFrameMAD, %xmm0, %xmm0
	vcvtsi2sdl	-28(%rbp), %xmm0, %xmm2
	vmulsd	%xmm2, %xmm0, %xmm0
	vaddsd	%xmm0, %xmm1, %xmm0
	vmovsd	%xmm0, -48(%rbp)
	vmovsd	m_X2, %xmm0             # xmm0 = mem[0],zero
	vxorps	%xmm1, %xmm1, %xmm1
	vucomisd	%xmm1, %xmm0
	jne	.LBB20_93
	jp	.LBB20_93
	jmp	.LBB20_95
.LBB20_93:                              # %lor.lhs.false230
	vxorps	%xmm0, %xmm0, %xmm0
	vucomisd	-48(%rbp), %xmm0
	ja	.LBB20_95
# %bb.94:                               # %lor.lhs.false233
	vmovsd	-48(%rbp), %xmm0        # xmm0 = mem[0],zero
	callq	sqrt
	vmovsd	m_X1, %xmm1             # xmm1 = mem[0],zero
	vmulsd	CurrentFrameMAD, %xmm1, %xmm1
	vsubsd	%xmm1, %xmm0, %xmm0
	vxorps	%xmm1, %xmm1, %xmm1
	vucomisd	%xmm0, %xmm1
	jb	.LBB20_96
.LBB20_95:                              # %if.then238
	vmovsd	m_X1, %xmm0             # xmm0 = mem[0],zero
	vmulsd	CurrentFrameMAD, %xmm0, %xmm0
	vcvtsi2sdl	-28(%rbp), %xmm0, %xmm1
	vdivsd	%xmm1, %xmm0, %xmm0
	vcvtsd2ss	%xmm0, %xmm0, %xmm0
	vcvtss2sd	%xmm0, %xmm0, %xmm0
	vmovsd	%xmm0, m_Qstep
	jmp	.LBB20_97
.LBB20_96:                              # %if.else244
	vmovsd	.LCPI20_1(%rip), %xmm0  # xmm0 = mem[0],zero
	vmulsd	m_X2, %xmm0, %xmm0
	vmulsd	CurrentFrameMAD, %xmm0, %xmm0
	vmovsd	%xmm0, -64(%rbp)        # 8-byte Spill
	vmovsd	-48(%rbp), %xmm0        # xmm0 = mem[0],zero
	callq	sqrt
	vmovsd	m_X1, %xmm1             # xmm1 = mem[0],zero
	vmulsd	CurrentFrameMAD, %xmm1, %xmm1
	vsubsd	%xmm1, %xmm0, %xmm0
	vmovsd	-64(%rbp), %xmm1        # 8-byte Reload
                                        # xmm1 = mem[0],zero
	vdivsd	%xmm0, %xmm1, %xmm0
	vcvtsd2ss	%xmm0, %xmm0, %xmm0
	vcvtss2sd	%xmm0, %xmm0, %xmm0
	vmovsd	%xmm0, m_Qstep
.LBB20_97:                              # %if.end253
	vmovsd	m_Qstep, %xmm0          # xmm0 = mem[0],zero
	callq	Qstep2QP
	movl	%eax, m_Qc
	movl	m_Qp, %eax
	addl	DuantQp, %eax
	cmpl	m_Qc, %eax
	jge	.LBB20_99
# %bb.98:                               # %cond.true258
	movl	m_Qp, %eax
	addl	DuantQp, %eax
	jmp	.LBB20_100
.LBB20_99:                              # %cond.false260
	movl	m_Qc, %eax
.LBB20_100:                             # %cond.end261
	movl	%eax, m_Qc
	movl	m_Qc, %eax
	cmpl	RC_MAX_QUANT, %eax
	jge	.LBB20_102
# %bb.101:                              # %cond.true265
	movl	m_Qc, %eax
	jmp	.LBB20_103
.LBB20_102:                             # %cond.false266
	movl	RC_MAX_QUANT, %eax
.LBB20_103:                             # %cond.end267
	movl	%eax, m_Qc
	movl	m_Qp, %eax
	subl	DuantQp, %eax
	cmpl	m_Qc, %eax
	jge	.LBB20_105
# %bb.104:                              # %cond.true272
	movl	m_Qc, %eax
	jmp	.LBB20_106
.LBB20_105:                             # %cond.false273
	movl	m_Qp, %eax
	subl	DuantQp, %eax
.LBB20_106:                             # %cond.end275
	movl	%eax, m_Qc
	movl	RC_MIN_QUANT, %eax
	cmpl	m_Qc, %eax
	jge	.LBB20_108
# %bb.107:                              # %cond.true279
	movl	m_Qc, %eax
	jmp	.LBB20_109
.LBB20_108:                             # %cond.false280
	movl	RC_MIN_QUANT, %eax
.LBB20_109:                             # %cond.end281
	movl	%eax, m_Qc
.LBB20_110:                             # %if.end283
	movq	img, %rax
	cmpl	$0, 72600(%rax)
	jne	.LBB20_115
# %bb.111:                              # %if.then287
	movq	active_sps, %rax
	cmpl	$0, 1148(%rax)
	je	.LBB20_113
# %bb.112:                              # %if.then290
	movl	m_Qc, %eax
	movq	img, %rcx
	addl	72572(%rcx), %eax
	movl	%eax, 72572(%rcx)
	movl	PreviousQp2, %eax
	movl	%eax, PreviousQp1
	movl	m_Qc, %eax
	movl	%eax, PreviousQp2
	movl	m_Qc, %eax
	movl	%eax, Pm_Qp
	jmp	.LBB20_114
.LBB20_113:                             # %if.else293
	movl	m_Qc, %eax
	movl	%eax, FrameQPBuffer
.LBB20_114:                             # %if.end294
	jmp	.LBB20_115
.LBB20_115:                             # %if.end295
	movl	m_Qc, %eax
	movl	%eax, -20(%rbp)
	jmp	.LBB20_363
.LBB20_116:                             # %if.else296
	movq	img, %rax
	cmpl	$0, 24(%rax)
	jne	.LBB20_122
# %bb.117:                              # %land.lhs.true300
	movq	img, %rax
	cmpl	$0, 72612(%rax)
	jne	.LBB20_122
# %bb.118:                              # %if.then303
	movq	input, %rax
	cmpl	$1, 2880(%rax)
	jne	.LBB20_120
# %bb.119:                              # %if.then307
	movl	m_Qc, %eax
	movq	img, %rcx
	addl	72572(%rcx), %eax
	movl	%eax, 72572(%rcx)
	movl	PreviousQp2, %eax
	addl	$1, %eax
	movl	%eax, PreviousQp1
	movl	m_Qc, %eax
	movl	%eax, PreviousQp2
	movl	m_Qc, %eax
	movl	%eax, Pm_Qp
	jmp	.LBB20_121
.LBB20_120:                             # %if.else311
	movl	m_Qc, %eax
	movl	%eax, FieldQPBuffer
.LBB20_121:                             # %if.end312
	jmp	.LBB20_122
.LBB20_122:                             # %if.end313
	movl	m_Qc, %eax
	movl	%eax, -20(%rbp)
	jmp	.LBB20_363
.LBB20_123:                             # %if.else314
	movq	img, %rax
	cmpl	$2, 24(%rax)
	jne	.LBB20_125
# %bb.124:                              # %if.then318
	movl	MyInitialQp, %eax
	movl	%eax, m_Qc
	movl	m_Qc, %eax
	movl	%eax, -20(%rbp)
	jmp	.LBB20_363
.LBB20_125:                             # %if.else319
	movq	img, %rax
	cmpl	$0, 24(%rax)
	jne	.LBB20_129
# %bb.126:                              # %land.lhs.true323
	movq	img, %rax
	cmpl	$1, 72612(%rax)
	jne	.LBB20_129
# %bb.127:                              # %land.lhs.true327
	movq	img, %rax
	cmpl	$1, 72600(%rax)
	jne	.LBB20_129
# %bb.128:                              # %if.then331
	movl	MyInitialQp, %eax
	movl	%eax, m_Qc
	movl	m_Qc, %eax
	movl	%eax, -20(%rbp)
	jmp	.LBB20_363
.LBB20_129:                             # %if.else332
	movq	img, %rax
	cmpl	$1, 24(%rax)
	jne	.LBB20_196
# %bb.130:                              # %if.then336
	cmpl	$0, -36(%rbp)
	jne	.LBB20_132
# %bb.131:                              # %lor.lhs.false338
	movq	img, %rax
	cmpl	$0, 72600(%rax)
	jne	.LBB20_195
.LBB20_132:                             # %if.then342
	movq	input, %rax
	cmpl	$1, 1236(%rax)
	jne	.LBB20_151
# %bb.133:                              # %if.then346
	movq	input, %rax
	cmpl	$2, 2880(%rax)
	je	.LBB20_135
# %bb.134:                              # %lor.lhs.false350
	movq	input, %rax
	cmpl	$0, 2884(%rax)
	je	.LBB20_141
.LBB20_135:                             # %if.then353
	movq	img, %rax
	cmpl	$0, 72600(%rax)
	jne	.LBB20_140
# %bb.136:                              # %if.then357
	movq	img, %rax
	cmpl	$1, 72604(%rax)
	jne	.LBB20_138
# %bb.137:                              # %if.then361
	movl	PreviousQp2, %eax
	movl	%eax, PreviousQp1
	movl	FrameQPBuffer, %eax
	movl	%eax, PreviousQp2
	jmp	.LBB20_139
.LBB20_138:                             # %if.else362
	movl	PreviousQp2, %eax
	movl	%eax, PreviousQp1
	movl	FieldQPBuffer, %eax
	movl	%eax, PreviousQp2
.LBB20_139:                             # %if.end363
	jmp	.LBB20_140
.LBB20_140:                             # %if.end364
	jmp	.LBB20_141
.LBB20_141:                             # %if.end365
	movl	PreviousQp1, %eax
	cmpl	PreviousQp2, %eax
	jne	.LBB20_143
# %bb.142:                              # %if.then368
	movl	PreviousQp1, %eax
	addl	$2, %eax
	movl	%eax, m_Qc
	jmp	.LBB20_144
.LBB20_143:                             # %if.else370
	movl	PreviousQp1, %eax
	addl	PreviousQp2, %eax
	cltd
	movl	$2, %ecx
	idivl	%ecx
	addl	$1, %eax
	movl	%eax, m_Qc
.LBB20_144:                             # %if.end374
	movl	m_Qc, %eax
	cmpl	RC_MAX_QUANT, %eax
	jge	.LBB20_146
# %bb.145:                              # %cond.true377
	movl	m_Qc, %eax
	jmp	.LBB20_147
.LBB20_146:                             # %cond.false378
	movl	RC_MAX_QUANT, %eax
.LBB20_147:                             # %cond.end379
	movl	%eax, m_Qc
	movl	RC_MIN_QUANT, %eax
	cmpl	m_Qc, %eax
	jge	.LBB20_149
# %bb.148:                              # %cond.true383
	movl	m_Qc, %eax
	jmp	.LBB20_150
.LBB20_149:                             # %cond.false384
	movl	RC_MIN_QUANT, %eax
.LBB20_150:                             # %cond.end385
	movl	%eax, m_Qc
	jmp	.LBB20_194
.LBB20_151:                             # %if.else387
	movl	NumberofBFrames, %eax
	addl	$1, %eax
	movq	input, %rcx
	cltd
	idivl	1236(%rcx)
	movl	%edx, -12(%rbp)
	cmpl	$0, -12(%rbp)
	jne	.LBB20_153
# %bb.152:                              # %if.then393
	movq	input, %rax
	movl	1236(%rax), %eax
	movl	%eax, -12(%rbp)
.LBB20_153:                             # %if.end395
	cmpl	$1, -12(%rbp)
	jne	.LBB20_163
# %bb.154:                              # %if.then398
	movq	input, %rax
	cmpl	$2, 2880(%rax)
	je	.LBB20_156
# %bb.155:                              # %lor.lhs.false402
	movq	input, %rax
	cmpl	$0, 2884(%rax)
	je	.LBB20_162
.LBB20_156:                             # %if.then405
	movq	img, %rax
	cmpl	$0, 72600(%rax)
	jne	.LBB20_161
# %bb.157:                              # %if.then409
	movq	img, %rax
	cmpl	$1, 72604(%rax)
	jne	.LBB20_159
# %bb.158:                              # %if.then413
	movl	PreviousQp2, %eax
	movl	%eax, PreviousQp1
	movl	FrameQPBuffer, %eax
	movl	%eax, PreviousQp2
	jmp	.LBB20_160
.LBB20_159:                             # %if.else414
	movl	PreviousQp2, %eax
	movl	%eax, PreviousQp1
	movl	FieldQPBuffer, %eax
	movl	%eax, PreviousQp2
.LBB20_160:                             # %if.end415
	jmp	.LBB20_161
.LBB20_161:                             # %if.end416
	jmp	.LBB20_162
.LBB20_162:                             # %if.end417
	jmp	.LBB20_163
.LBB20_163:                             # %if.end418
	movl	PreviousQp2, %eax
	subl	PreviousQp1, %eax
	movq	input, %rcx
	imull	$4294967294, 1236(%rcx), %ecx # imm = 0xFFFFFFFE
	subl	$3, %ecx
	cmpl	%ecx, %eax
	jg	.LBB20_165
# %bb.164:                              # %if.then425
	movl	$-3, -24(%rbp)
	jmp	.LBB20_178
.LBB20_165:                             # %if.else426
	movl	PreviousQp2, %eax
	subl	PreviousQp1, %eax
	movq	input, %rcx
	imull	$4294967294, 1236(%rcx), %ecx # imm = 0xFFFFFFFE
	subl	$2, %ecx
	cmpl	%ecx, %eax
	jne	.LBB20_167
# %bb.166:                              # %if.then433
	movl	$-2, -24(%rbp)
	jmp	.LBB20_177
.LBB20_167:                             # %if.else434
	movl	PreviousQp2, %eax
	subl	PreviousQp1, %eax
	movq	input, %rcx
	imull	$4294967294, 1236(%rcx), %ecx # imm = 0xFFFFFFFE
	subl	$1, %ecx
	cmpl	%ecx, %eax
	jne	.LBB20_169
# %bb.168:                              # %if.then441
	movl	$-1, -24(%rbp)
	jmp	.LBB20_176
.LBB20_169:                             # %if.else442
	movl	PreviousQp2, %eax
	subl	PreviousQp1, %eax
	movq	input, %rcx
	imull	$4294967294, 1236(%rcx), %ecx # imm = 0xFFFFFFFE
	cmpl	%ecx, %eax
	jne	.LBB20_171
# %bb.170:                              # %if.then448
	movl	$0, -24(%rbp)
	jmp	.LBB20_175
.LBB20_171:                             # %if.else449
	movl	PreviousQp2, %eax
	subl	PreviousQp1, %eax
	movq	input, %rcx
	imull	$4294967294, 1236(%rcx), %ecx # imm = 0xFFFFFFFE
	addl	$1, %ecx
	cmpl	%ecx, %eax
	jne	.LBB20_173
# %bb.172:                              # %if.then456
	movl	$1, -24(%rbp)
	jmp	.LBB20_174
.LBB20_173:                             # %if.else457
	movl	$2, -24(%rbp)
.LBB20_174:                             # %if.end458
	jmp	.LBB20_175
.LBB20_175:                             # %if.end459
	jmp	.LBB20_176
.LBB20_176:                             # %if.end460
	jmp	.LBB20_177
.LBB20_177:                             # %if.end461
	jmp	.LBB20_178
.LBB20_178:                             # %if.end462
	movl	PreviousQp1, %eax
	addl	-24(%rbp), %eax
	movl	%eax, m_Qc
	movl	-12(%rbp), %ecx
	subl	$1, %ecx
	shll	$1, %ecx
	movl	-12(%rbp), %eax
	subl	$1, %eax
	imull	$4294967294, %eax, %esi # imm = 0xFFFFFFFE
	movl	-12(%rbp), %eax
	subl	$1, %eax
	movl	PreviousQp2, %edx
	subl	PreviousQp1, %edx
	imull	%edx, %eax
	movq	input, %rdx
	movl	1236(%rdx), %edi
	subl	$1, %edi
	cltd
	idivl	%edi
	cmpl	%eax, %esi
	jge	.LBB20_180
# %bb.179:                              # %cond.true476
	movl	-12(%rbp), %eax
	subl	$1, %eax
	movl	PreviousQp2, %edx
	subl	PreviousQp1, %edx
	imull	%edx, %eax
	movq	input, %rdx
	movl	1236(%rdx), %esi
	subl	$1, %esi
	cltd
	idivl	%esi
	jmp	.LBB20_181
.LBB20_180:                             # %cond.false483
	movl	-12(%rbp), %eax
	subl	$1, %eax
	imull	$4294967294, %eax, %eax # imm = 0xFFFFFFFE
.LBB20_181:                             # %cond.end486
	cmpl	%eax, %ecx
	jge	.LBB20_183
# %bb.182:                              # %cond.true490
	movl	-12(%rbp), %eax
	subl	$1, %eax
	shll	$1, %eax
	jmp	.LBB20_187
.LBB20_183:                             # %cond.false493
	movl	-12(%rbp), %eax
	subl	$1, %eax
	imull	$4294967294, %eax, %ecx # imm = 0xFFFFFFFE
	movl	-12(%rbp), %eax
	subl	$1, %eax
	movl	PreviousQp2, %edx
	subl	PreviousQp1, %edx
	imull	%edx, %eax
	movq	input, %rdx
	movl	1236(%rdx), %esi
	subl	$1, %esi
	cltd
	idivl	%esi
	cmpl	%eax, %ecx
	jge	.LBB20_185
# %bb.184:                              # %cond.true504
	movl	-12(%rbp), %eax
	subl	$1, %eax
	movl	PreviousQp2, %ecx
	subl	PreviousQp1, %ecx
	imull	%ecx, %eax
	movq	input, %rcx
	movl	1236(%rcx), %ecx
	subl	$1, %ecx
	cltd
	idivl	%ecx
	jmp	.LBB20_186
.LBB20_185:                             # %cond.false511
	movl	-12(%rbp), %eax
	subl	$1, %eax
	imull	$4294967294, %eax, %eax # imm = 0xFFFFFFFE
.LBB20_186:                             # %cond.end514
.LBB20_187:                             # %cond.end516
	addl	m_Qc, %eax
	movl	%eax, m_Qc
	movl	m_Qc, %eax
	cmpl	RC_MAX_QUANT, %eax
	jge	.LBB20_189
# %bb.188:                              # %cond.true521
	movl	m_Qc, %eax
	jmp	.LBB20_190
.LBB20_189:                             # %cond.false522
	movl	RC_MAX_QUANT, %eax
.LBB20_190:                             # %cond.end523
	movl	%eax, m_Qc
	movl	RC_MIN_QUANT, %eax
	cmpl	m_Qc, %eax
	jge	.LBB20_192
# %bb.191:                              # %cond.true527
	movl	m_Qc, %eax
	jmp	.LBB20_193
.LBB20_192:                             # %cond.false528
	movl	RC_MIN_QUANT, %eax
.LBB20_193:                             # %cond.end529
	movl	%eax, m_Qc
.LBB20_194:                             # %if.end531
	movl	m_Qc, %eax
	movl	%eax, -20(%rbp)
	jmp	.LBB20_363
.LBB20_195:                             # %if.else532
	movl	m_Qc, %eax
	movl	%eax, -20(%rbp)
	jmp	.LBB20_363
.LBB20_196:                             # %if.else533
	movq	img, %rax
	cmpl	$0, 24(%rax)
	jne	.LBB20_358
# %bb.197:                              # %if.then537
	movq	img, %rax
	cmpl	$1, 72568(%rax)
	jne	.LBB20_217
# %bb.198:                              # %land.lhs.true540
	movq	img, %rax
	cmpl	$0, 72576(%rax)
	jne	.LBB20_217
# %bb.199:                              # %if.then544
	movq	img, %rax
	cmpl	$0, 72600(%rax)
	je	.LBB20_202
# %bb.200:                              # %lor.lhs.false548
	movq	img, %rax
	cmpl	$1, 72600(%rax)
	jne	.LBB20_216
# %bb.201:                              # %land.lhs.true552
	movq	img, %rax
	cmpl	$0, 72612(%rax)
	jne	.LBB20_216
.LBB20_202:                             # %if.then556
	movl	MyInitialQp, %eax
	movl	%eax, m_Qc
	movq	img, %rax
	movl	$0, 72532(%rax)
	movq	img, %rax
	movl	$0, 72536(%rax)
	movl	NumberofBasicUnit, %eax
	addl	$-1, %eax
	movl	%eax, NumberofBasicUnit
	cmpl	$0, -36(%rbp)
	jne	.LBB20_215
# %bb.203:                              # %land.lhs.true558
	cmpl	$0, NumberofBasicUnit
	jne	.LBB20_215
# %bb.204:                              # %if.then561
	movq	active_sps, %rax
	cmpl	$0, 1148(%rax)
	jne	.LBB20_206
# %bb.205:                              # %lor.lhs.false564
	movq	input, %rax
	cmpl	$1, 2880(%rax)
	jne	.LBB20_207
.LBB20_206:                             # %if.then568
	movl	m_Qc, %eax
	movq	img, %rcx
	addl	72572(%rcx), %eax
	movl	%eax, 72572(%rcx)
	movl	PreviousQp2, %eax
	movl	%eax, PreviousQp1
	movl	m_Qc, %eax
	movl	%eax, PreviousQp2
	movl	m_Qc, %eax
	movl	%eax, PAveFrameQP
	movl	PAveHeaderBits2, %eax
	movl	%eax, PAveHeaderBits3
	jmp	.LBB20_214
.LBB20_207:                             # %if.else571
	movq	input, %rax
	cmpl	$2, 2880(%rax)
	je	.LBB20_209
# %bb.208:                              # %lor.lhs.false575
	movq	input, %rax
	cmpl	$0, 2884(%rax)
	je	.LBB20_213
.LBB20_209:                             # %if.then578
	movq	img, %rax
	cmpl	$0, 72600(%rax)
	jne	.LBB20_211
# %bb.210:                              # %if.then582
	movl	m_Qc, %eax
	movl	%eax, FrameQPBuffer
	movl	PAveHeaderBits2, %eax
	movl	%eax, FrameAveHeaderBits
	jmp	.LBB20_212
.LBB20_211:                             # %if.else583
	movl	m_Qc, %eax
	movl	%eax, FieldQPBuffer
	movl	PAveHeaderBits2, %eax
	movl	%eax, FieldAveHeaderBits
.LBB20_212:                             # %if.end584
	jmp	.LBB20_213
.LBB20_213:                             # %if.end585
	jmp	.LBB20_214
.LBB20_214:                             # %if.end586
	jmp	.LBB20_215
.LBB20_215:                             # %if.end587
	movl	m_Qc, %eax
	movl	%eax, Pm_Qp
	movl	m_Qc, %eax
	addl	TotalFrameQP, %eax
	movl	%eax, TotalFrameQP
	movl	m_Qc, %eax
	movl	%eax, -20(%rbp)
	jmp	.LBB20_363
.LBB20_216:                             # %if.end589
	jmp	.LBB20_357
.LBB20_217:                             # %if.else590
	vmovsd	Pm_X1, %xmm0            # xmm0 = mem[0],zero
	vmovsd	%xmm0, m_X1
	vmovsd	Pm_X2, %xmm0            # xmm0 = mem[0],zero
	vmovsd	%xmm0, m_X2
	movl	PPreHeader, %eax
	movl	%eax, m_Hp
	movl	Pm_Qp, %eax
	movl	%eax, m_Qp
	movl	PDuantQp, %eax
	movl	%eax, DuantQp
	vmovsd	PMADPictureC1, %xmm0    # xmm0 = mem[0],zero
	vmovsd	%xmm0, MADPictureC1
	vmovsd	PMADPictureC2, %xmm0    # xmm0 = mem[0],zero
	vmovsd	%xmm0, MADPictureC2
	movq	img, %rax
	cmpl	$0, 72600(%rax)
	jne	.LBB20_219
# %bb.218:                              # %if.then594
	movl	TotalNumberofBasicUnit, %eax
	movl	%eax, -52(%rbp)
	jmp	.LBB20_220
.LBB20_219:                             # %if.else595
	movl	TotalNumberofBasicUnit, %eax
	cltd
	movl	$2, %ecx
	idivl	%ecx
	movl	%eax, -52(%rbp)
.LBB20_220:                             # %if.end597
	movl	NumberofBasicUnit, %eax
	cmpl	-52(%rbp), %eax
	jne	.LBB20_241
# %bb.221:                              # %if.then600
	movq	input, %rax
	cmpl	$2, 2880(%rax)
	je	.LBB20_223
# %bb.222:                              # %lor.lhs.false604
	movq	input, %rax
	cmpl	$0, 2884(%rax)
	je	.LBB20_232
.LBB20_223:                             # %land.lhs.true607
	movq	img, %rax
	cmpl	$0, 72600(%rax)
	jne	.LBB20_232
# %bb.224:                              # %if.then611
	movq	img, %rax
	cmpl	$1, 72604(%rax)
	jne	.LBB20_228
# %bb.225:                              # %if.then615
	movq	img, %rax
	cmpl	$0, 72576(%rax)
	jle	.LBB20_227
# %bb.226:                              # %if.then619
	movl	FrameQPBuffer, %eax
	movq	img, %rcx
	addl	72572(%rcx), %eax
	movl	%eax, 72572(%rcx)
.LBB20_227:                             # %if.end622
	movl	FrameQPBuffer, %eax
	movl	%eax, PAveFrameQP
	movl	FrameAveHeaderBits, %eax
	movl	%eax, PAveHeaderBits3
	jmp	.LBB20_231
.LBB20_228:                             # %if.else623
	movq	img, %rax
	cmpl	$0, 72576(%rax)
	jle	.LBB20_230
# %bb.229:                              # %if.then627
	movl	FieldQPBuffer, %eax
	movq	img, %rcx
	addl	72572(%rcx), %eax
	movl	%eax, 72572(%rcx)
.LBB20_230:                             # %if.end630
	movl	FieldQPBuffer, %eax
	movl	%eax, PAveFrameQP
	movl	FieldAveHeaderBits, %eax
	movl	%eax, PAveHeaderBits3
.LBB20_231:                             # %if.end631
	jmp	.LBB20_232
.LBB20_232:                             # %if.end632
	cmpq	$0, T
	jg	.LBB20_239
# %bb.233:                              # %if.then635
	movl	PAveFrameQP, %eax
	addl	$2, %eax
	movl	%eax, m_Qc
	movl	m_Qc, %eax
	cmpl	RC_MAX_QUANT, %eax
	jle	.LBB20_235
# %bb.234:                              # %if.then639
	movl	RC_MAX_QUANT, %eax
	movl	%eax, m_Qc
.LBB20_235:                             # %if.end640
	cmpl	$0, -36(%rbp)
	jne	.LBB20_237
# %bb.236:                              # %lor.lhs.false642
	movq	img, %rax
	cmpl	$0, 72600(%rax)
	jne	.LBB20_238
.LBB20_237:                             # %if.then646
	movl	$1, GOPOverdue
.LBB20_238:                             # %if.end647
	jmp	.LBB20_240
.LBB20_239:                             # %if.else648
	movl	PAveFrameQP, %eax
	movl	%eax, m_Qc
.LBB20_240:                             # %if.end649
	movl	m_Qc, %eax
	addl	TotalFrameQP, %eax
	movl	%eax, TotalFrameQP
	movl	NumberofBasicUnit, %eax
	addl	$-1, %eax
	movl	%eax, NumberofBasicUnit
	movl	PAveFrameQP, %eax
	movl	%eax, Pm_Qp
	movl	m_Qc, %eax
	movl	%eax, -20(%rbp)
	jmp	.LBB20_363
.LBB20_241:                             # %if.else652
	movq	img, %rax
	movl	72532(%rax), %eax
	movq	img, %rcx
	addl	72536(%rcx), %eax
	movl	%eax, TotalBasicUnitBits
	movslq	TotalBasicUnitBits, %rax
	movq	T, %rcx
	subq	%rax, %rcx
	movq	%rcx, T
	movq	img, %rax
	movl	$0, 72532(%rax)
	movq	img, %rax
	movl	$0, 72536(%rax)
	cmpq	$0, T
	jge	.LBB20_287
# %bb.242:                              # %if.then662
	cmpl	$1, GOPOverdue
	jne	.LBB20_244
# %bb.243:                              # %if.then665
	movl	m_Qp, %eax
	addl	$2, %eax
	movl	%eax, m_Qc
	jmp	.LBB20_245
.LBB20_244:                             # %if.else667
	movl	m_Qp, %eax
	addl	DDquant, %eax
	movl	%eax, m_Qc
.LBB20_245:                             # %if.end669
	movl	m_Qc, %eax
	cmpl	RC_MAX_QUANT, %eax
	jge	.LBB20_247
# %bb.246:                              # %cond.true672
	movl	m_Qc, %eax
	jmp	.LBB20_248
.LBB20_247:                             # %cond.false673
	movl	RC_MAX_QUANT, %eax
.LBB20_248:                             # %cond.end674
	movl	%eax, m_Qc
	movq	input, %rax
	movl	3248(%rax), %eax
	cmpl	MBPerRow, %eax
	jl	.LBB20_253
# %bb.249:                              # %if.then678
	movl	m_Qc, %eax
	movl	PAveFrameQP, %ecx
	addl	$6, %ecx
	cmpl	%ecx, %eax
	jge	.LBB20_251
# %bb.250:                              # %cond.true682
	movl	m_Qc, %eax
	jmp	.LBB20_252
.LBB20_251:                             # %cond.false683
	movl	PAveFrameQP, %eax
	addl	$6, %eax
.LBB20_252:                             # %cond.end685
	movl	%eax, m_Qc
	jmp	.LBB20_257
.LBB20_253:                             # %if.else687
	movl	m_Qc, %eax
	movl	PAveFrameQP, %ecx
	addl	$3, %ecx
	cmpl	%ecx, %eax
	jge	.LBB20_255
# %bb.254:                              # %cond.true691
	movl	m_Qc, %eax
	jmp	.LBB20_256
.LBB20_255:                             # %cond.false692
	movl	PAveFrameQP, %eax
	addl	$3, %eax
.LBB20_256:                             # %cond.end694
	movl	%eax, m_Qc
.LBB20_257:                             # %if.end696
	movl	m_Qc, %eax
	addl	TotalFrameQP, %eax
	movl	%eax, TotalFrameQP
	movl	NumberofBasicUnit, %eax
	addl	$-1, %eax
	movl	%eax, NumberofBasicUnit
	cmpl	$0, NumberofBasicUnit
	jne	.LBB20_283
# %bb.258:                              # %if.then701
	cmpl	$0, -36(%rbp)
	je	.LBB20_260
# %bb.259:                              # %lor.lhs.false703
	movq	img, %rax
	cmpl	$0, 72600(%rax)
	jne	.LBB20_282
.LBB20_260:                             # %if.then707
	movq	active_sps, %rax
	cmpl	$0, 1148(%rax)
	jne	.LBB20_262
# %bb.261:                              # %lor.lhs.false710
	movq	input, %rax
	cmpl	$1, 2880(%rax)
	jne	.LBB20_274
.LBB20_262:                             # %if.then714
	vmovsd	.LCPI20_2(%rip), %xmm0  # xmm0 = mem[0],zero
	vmovsd	.LCPI20_3(%rip), %xmm1  # xmm1 = mem[0],zero
	vcvtsi2sdl	TotalFrameQP, %xmm0, %xmm2
	vmulsd	%xmm2, %xmm1, %xmm1
	vcvtsi2sdl	TotalNumberofBasicUnit, %xmm0, %xmm2
	vdivsd	%xmm2, %xmm1, %xmm1
	vaddsd	%xmm0, %xmm1, %xmm0
	vcvttsd2si	%xmm0, %eax
	movl	%eax, -16(%rbp)
	movq	img, %rax
	movl	72576(%rax), %eax
	movq	input, %rcx
	movl	1224(%rcx), %ecx
	subl	$2, %ecx
	cmpl	%ecx, %eax
	jne	.LBB20_264
# %bb.263:                              # %if.then725
	movl	-16(%rbp), %eax
	movl	%eax, QPLastPFrame
.LBB20_264:                             # %if.end726
	movl	-16(%rbp), %eax
	movq	img, %rcx
	addl	72572(%rcx), %eax
	movl	%eax, 72572(%rcx)
	cmpl	$1, GOPOverdue
	jne	.LBB20_266
# %bb.265:                              # %if.then731
	movl	PreviousQp2, %eax
	addl	$1, %eax
	movl	%eax, PreviousQp1
	movl	-16(%rbp), %eax
	movl	%eax, PreviousQp2
	jmp	.LBB20_273
.LBB20_266:                             # %if.else733
	movq	img, %rax
	cmpl	$0, 72576(%rax)
	jne	.LBB20_269
# %bb.267:                              # %land.lhs.true737
	movq	img, %rax
	cmpl	$1, 72568(%rax)
	jle	.LBB20_269
# %bb.268:                              # %if.then741
	movl	PreviousQp2, %eax
	movl	%eax, PreviousQp1
	movl	-16(%rbp), %eax
	movl	%eax, PreviousQp2
	jmp	.LBB20_272
.LBB20_269:                             # %if.else742
	movq	img, %rax
	cmpl	$0, 72576(%rax)
	jle	.LBB20_271
# %bb.270:                              # %if.then746
	movl	PreviousQp2, %eax
	addl	$1, %eax
	movl	%eax, PreviousQp1
	movl	-16(%rbp), %eax
	movl	%eax, PreviousQp2
.LBB20_271:                             # %if.end748
	jmp	.LBB20_272
.LBB20_272:                             # %if.end749
	jmp	.LBB20_273
.LBB20_273:                             # %if.end750
	movl	-16(%rbp), %eax
	movl	%eax, PAveFrameQP
	movl	PAveHeaderBits2, %eax
	movl	%eax, PAveHeaderBits3
	jmp	.LBB20_281
.LBB20_274:                             # %if.else751
	movq	input, %rax
	cmpl	$2, 2880(%rax)
	je	.LBB20_276
# %bb.275:                              # %lor.lhs.false755
	movq	input, %rax
	cmpl	$0, 2884(%rax)
	je	.LBB20_280
.LBB20_276:                             # %if.then758
	movq	img, %rax
	cmpl	$0, 72600(%rax)
	jne	.LBB20_278
# %bb.277:                              # %if.then762
	vmovsd	.LCPI20_2(%rip), %xmm0  # xmm0 = mem[0],zero
	vmovsd	.LCPI20_3(%rip), %xmm1  # xmm1 = mem[0],zero
	vcvtsi2sdl	TotalFrameQP, %xmm0, %xmm2
	vmulsd	%xmm2, %xmm1, %xmm1
	vcvtsi2sdl	TotalNumberofBasicUnit, %xmm0, %xmm2
	vdivsd	%xmm2, %xmm1, %xmm1
	vaddsd	%xmm0, %xmm1, %xmm0
	vcvttsd2si	%xmm0, %eax
	movl	%eax, -16(%rbp)
	movl	-16(%rbp), %eax
	movl	%eax, FrameQPBuffer
	movl	PAveHeaderBits2, %eax
	movl	%eax, FrameAveHeaderBits
	jmp	.LBB20_279
.LBB20_278:                             # %if.else769
	vmovsd	.LCPI20_2(%rip), %xmm0  # xmm0 = mem[0],zero
	vmovsd	.LCPI20_3(%rip), %xmm1  # xmm1 = mem[0],zero
	vcvtsi2sdl	TotalFrameQP, %xmm0, %xmm2
	vmulsd	%xmm2, %xmm1, %xmm1
	vcvtsi2sdl	TotalNumberofBasicUnit, %xmm0, %xmm2
	vdivsd	%xmm2, %xmm1, %xmm1
	vaddsd	%xmm0, %xmm1, %xmm0
	vcvttsd2si	%xmm0, %eax
	movl	%eax, -16(%rbp)
	movl	-16(%rbp), %eax
	movl	%eax, FieldQPBuffer
	movl	PAveHeaderBits2, %eax
	movl	%eax, FieldAveHeaderBits
.LBB20_279:                             # %if.end776
	jmp	.LBB20_280
.LBB20_280:                             # %if.end777
	jmp	.LBB20_281
.LBB20_281:                             # %if.end778
	jmp	.LBB20_282
.LBB20_282:                             # %if.end779
	jmp	.LBB20_283
.LBB20_283:                             # %if.end780
	cmpl	$1, GOPOverdue
	jne	.LBB20_285
# %bb.284:                              # %if.then783
	movl	PAveFrameQP, %eax
	movl	%eax, Pm_Qp
	jmp	.LBB20_286
.LBB20_285:                             # %if.else784
	movl	m_Qc, %eax
	movl	%eax, Pm_Qp
.LBB20_286:                             # %if.end785
	movl	m_Qc, %eax
	movl	%eax, -20(%rbp)
	jmp	.LBB20_363
.LBB20_287:                             # %if.else786
	movq	input, %rax
	cmpl	$2, 2880(%rax)
	je	.LBB20_289
# %bb.288:                              # %lor.lhs.false790
	movq	input, %rax
	cmpl	$0, 2884(%rax)
	je	.LBB20_295
.LBB20_289:                             # %land.lhs.true793
	movq	img, %rax
	cmpl	$1, 72600(%rax)
	jne	.LBB20_295
# %bb.290:                              # %if.then797
	vmovsd	MADPictureC1, %xmm0     # xmm0 = mem[0],zero
	movq	FCBUPFMAD, %rax
	movl	TotalNumberofBasicUnit, %ecx
	subl	NumberofBasicUnit, %ecx
	movslq	%ecx, %rcx
	vmulsd	(%rax,%rcx,8), %xmm0, %xmm0
	vaddsd	MADPictureC2, %xmm0, %xmm0
	vmovsd	%xmm0, CurrentFrameMAD
	vxorps	%xmm0, %xmm0, %xmm0
	vmovsd	%xmm0, TotalBUMAD
	movl	TotalNumberofBasicUnit, %eax
	subl	$1, %eax
	movl	%eax, -32(%rbp)
.LBB20_291:                             # %for.cond
                                        # =>This Inner Loop Header: Depth=1
	movl	-32(%rbp), %eax
	movl	TotalNumberofBasicUnit, %ecx
	subl	NumberofBasicUnit, %ecx
	cmpl	%ecx, %eax
	jl	.LBB20_294
# %bb.292:                              # %for.body
                                        #   in Loop: Header=BB20_291 Depth=1
	vmovsd	MADPictureC1, %xmm0     # xmm0 = mem[0],zero
	movq	FCBUPFMAD, %rax
	movslq	-32(%rbp), %rcx
	vmulsd	(%rax,%rcx,8), %xmm0, %xmm0
	vaddsd	MADPictureC2, %xmm0, %xmm0
	vmovsd	%xmm0, CurrentBUMAD
	vmovsd	CurrentBUMAD, %xmm0     # xmm0 = mem[0],zero
	vmulsd	CurrentBUMAD, %xmm0, %xmm0
	vaddsd	TotalBUMAD, %xmm0, %xmm0
	vmovsd	%xmm0, TotalBUMAD
# %bb.293:                              # %for.inc
                                        #   in Loop: Header=BB20_291 Depth=1
	movl	-32(%rbp), %eax
	addl	$-1, %eax
	movl	%eax, -32(%rbp)
	jmp	.LBB20_291
.LBB20_294:                             # %for.end
	jmp	.LBB20_300
.LBB20_295:                             # %if.else812
	vmovsd	MADPictureC1, %xmm0     # xmm0 = mem[0],zero
	movq	BUPFMAD, %rax
	movl	TotalNumberofBasicUnit, %ecx
	subl	NumberofBasicUnit, %ecx
	movslq	%ecx, %rcx
	vmulsd	(%rax,%rcx,8), %xmm0, %xmm0
	vaddsd	MADPictureC2, %xmm0, %xmm0
	vmovsd	%xmm0, CurrentFrameMAD
	vxorps	%xmm0, %xmm0, %xmm0
	vmovsd	%xmm0, TotalBUMAD
	movl	TotalNumberofBasicUnit, %eax
	subl	$1, %eax
	movl	%eax, -32(%rbp)
.LBB20_296:                             # %for.cond819
                                        # =>This Inner Loop Header: Depth=1
	movl	-32(%rbp), %eax
	movl	TotalNumberofBasicUnit, %ecx
	subl	NumberofBasicUnit, %ecx
	cmpl	%ecx, %eax
	jl	.LBB20_299
# %bb.297:                              # %for.body823
                                        #   in Loop: Header=BB20_296 Depth=1
	vmovsd	MADPictureC1, %xmm0     # xmm0 = mem[0],zero
	movq	BUPFMAD, %rax
	movslq	-32(%rbp), %rcx
	vmulsd	(%rax,%rcx,8), %xmm0, %xmm0
	vaddsd	MADPictureC2, %xmm0, %xmm0
	vmovsd	%xmm0, CurrentBUMAD
	vmovsd	CurrentBUMAD, %xmm0     # xmm0 = mem[0],zero
	vmulsd	CurrentBUMAD, %xmm0, %xmm0
	vaddsd	TotalBUMAD, %xmm0, %xmm0
	vmovsd	%xmm0, TotalBUMAD
# %bb.298:                              # %for.inc830
                                        #   in Loop: Header=BB20_296 Depth=1
	movl	-32(%rbp), %eax
	addl	$-1, %eax
	movl	%eax, -32(%rbp)
	jmp	.LBB20_296
.LBB20_299:                             # %for.end832
	jmp	.LBB20_300
.LBB20_300:                             # %if.end833
	vcvtsi2sdq	T, %xmm0, %xmm0
	vmulsd	CurrentFrameMAD, %xmm0, %xmm0
	vmulsd	CurrentFrameMAD, %xmm0, %xmm0
	vdivsd	TotalBUMAD, %xmm0, %xmm0
	vcvttsd2si	%xmm0, %eax
	movl	%eax, -28(%rbp)
	movl	PAveHeaderBits2, %eax
	movl	-28(%rbp), %ecx
	subl	%eax, %ecx
	movl	%ecx, -28(%rbp)
	movl	-28(%rbp), %eax
	vmovsd	bit_rate, %xmm0         # xmm0 = mem[0],zero
	vmovsd	MINVALUE, %xmm1         # xmm1 = mem[0],zero
	vmulsd	frame_rate, %xmm1, %xmm1
	vcvtsi2sdl	TotalNumberofBasicUnit, %xmm0, %xmm2
	vmulsd	%xmm2, %xmm1, %xmm1
	vdivsd	%xmm1, %xmm0, %xmm0
	vcvttsd2si	%xmm0, %ecx
	cmpl	%ecx, %eax
	jge	.LBB20_302
# %bb.301:                              # %cond.true847
	vmovsd	bit_rate, %xmm0         # xmm0 = mem[0],zero
	vmovsd	MINVALUE, %xmm1         # xmm1 = mem[0],zero
	vmulsd	frame_rate, %xmm1, %xmm1
	vcvtsi2sdl	TotalNumberofBasicUnit, %xmm0, %xmm2
	vmulsd	%xmm2, %xmm1, %xmm1
	vdivsd	%xmm1, %xmm0, %xmm0
	vcvttsd2si	%xmm0, %eax
	jmp	.LBB20_303
.LBB20_302:                             # %cond.false853
	movl	-28(%rbp), %eax
.LBB20_303:                             # %cond.end854
	vmovsd	.LCPI20_0(%rip), %xmm0  # xmm0 = mem[0],zero
	movl	%eax, -28(%rbp)
	vmovsd	CurrentFrameMAD, %xmm1  # xmm1 = mem[0],zero
	vmulsd	m_X1, %xmm1, %xmm1
	vmulsd	CurrentFrameMAD, %xmm1, %xmm1
	vmulsd	m_X1, %xmm1, %xmm1
	vmulsd	m_X2, %xmm0, %xmm0
	vmulsd	CurrentFrameMAD, %xmm0, %xmm0
	vcvtsi2sdl	-28(%rbp), %xmm0, %xmm2
	vmulsd	%xmm2, %xmm0, %xmm0
	vaddsd	%xmm0, %xmm1, %xmm0
	vmovsd	%xmm0, -48(%rbp)
	vmovsd	m_X2, %xmm0             # xmm0 = mem[0],zero
	vxorps	%xmm1, %xmm1, %xmm1
	vucomisd	%xmm1, %xmm0
	jne	.LBB20_304
	jp	.LBB20_304
	jmp	.LBB20_306
.LBB20_304:                             # %lor.lhs.false866
	vxorps	%xmm0, %xmm0, %xmm0
	vucomisd	-48(%rbp), %xmm0
	ja	.LBB20_306
# %bb.305:                              # %lor.lhs.false869
	vmovsd	-48(%rbp), %xmm0        # xmm0 = mem[0],zero
	callq	sqrt
	vmovsd	m_X1, %xmm1             # xmm1 = mem[0],zero
	vmulsd	CurrentFrameMAD, %xmm1, %xmm1
	vsubsd	%xmm1, %xmm0, %xmm0
	vxorps	%xmm1, %xmm1, %xmm1
	vucomisd	%xmm0, %xmm1
	jb	.LBB20_307
.LBB20_306:                             # %if.then875
	vmovsd	m_X1, %xmm0             # xmm0 = mem[0],zero
	vmulsd	CurrentFrameMAD, %xmm0, %xmm0
	vcvtsi2sdl	-28(%rbp), %xmm0, %xmm1
	vdivsd	%xmm1, %xmm0, %xmm0
	vcvtsd2ss	%xmm0, %xmm0, %xmm0
	vcvtss2sd	%xmm0, %xmm0, %xmm0
	vmovsd	%xmm0, m_Qstep
	jmp	.LBB20_308
.LBB20_307:                             # %if.else881
	vmovsd	.LCPI20_1(%rip), %xmm0  # xmm0 = mem[0],zero
	vmulsd	m_X2, %xmm0, %xmm0
	vmulsd	CurrentFrameMAD, %xmm0, %xmm0
	vmovsd	%xmm0, -72(%rbp)        # 8-byte Spill
	vmovsd	-48(%rbp), %xmm0        # xmm0 = mem[0],zero
	callq	sqrt
	vmovsd	m_X1, %xmm1             # xmm1 = mem[0],zero
	vmulsd	CurrentFrameMAD, %xmm1, %xmm1
	vsubsd	%xmm1, %xmm0, %xmm0
	vmovsd	-72(%rbp), %xmm1        # 8-byte Reload
                                        # xmm1 = mem[0],zero
	vdivsd	%xmm0, %xmm1, %xmm0
	vcvtsd2ss	%xmm0, %xmm0, %xmm0
	vcvtss2sd	%xmm0, %xmm0, %xmm0
	vmovsd	%xmm0, m_Qstep
.LBB20_308:                             # %if.end890
	vmovsd	m_Qstep, %xmm0          # xmm0 = mem[0],zero
	callq	Qstep2QP
	movl	%eax, m_Qc
	movl	m_Qp, %eax
	addl	DDquant, %eax
	cmpl	m_Qc, %eax
	jge	.LBB20_310
# %bb.309:                              # %cond.true895
	movl	m_Qp, %eax
	addl	DDquant, %eax
	jmp	.LBB20_311
.LBB20_310:                             # %cond.false897
	movl	m_Qc, %eax
.LBB20_311:                             # %cond.end898
	movl	%eax, m_Qc
	movq	input, %rax
	movl	3248(%rax), %eax
	cmpl	MBPerRow, %eax
	jl	.LBB20_316
# %bb.312:                              # %if.then903
	movl	PAveFrameQP, %eax
	addl	$6, %eax
	cmpl	m_Qc, %eax
	jge	.LBB20_314
# %bb.313:                              # %cond.true907
	movl	PAveFrameQP, %eax
	addl	$6, %eax
	jmp	.LBB20_315
.LBB20_314:                             # %cond.false909
	movl	m_Qc, %eax
.LBB20_315:                             # %cond.end910
	movl	%eax, m_Qc
	jmp	.LBB20_320
.LBB20_316:                             # %if.else912
	movl	PAveFrameQP, %eax
	addl	$3, %eax
	cmpl	m_Qc, %eax
	jge	.LBB20_318
# %bb.317:                              # %cond.true916
	movl	PAveFrameQP, %eax
	addl	$3, %eax
	jmp	.LBB20_319
.LBB20_318:                             # %cond.false918
	movl	m_Qc, %eax
.LBB20_319:                             # %cond.end919
	movl	%eax, m_Qc
.LBB20_320:                             # %if.end921
	movl	m_Qc, %eax
	cmpl	RC_MAX_QUANT, %eax
	jge	.LBB20_322
# %bb.321:                              # %cond.true924
	movl	m_Qc, %eax
	jmp	.LBB20_323
.LBB20_322:                             # %cond.false925
	movl	RC_MAX_QUANT, %eax
.LBB20_323:                             # %cond.end926
	movl	%eax, m_Qc
	movl	m_Qp, %eax
	subl	DDquant, %eax
	cmpl	m_Qc, %eax
	jge	.LBB20_325
# %bb.324:                              # %cond.true931
	movl	m_Qc, %eax
	jmp	.LBB20_326
.LBB20_325:                             # %cond.false932
	movl	m_Qp, %eax
	subl	DDquant, %eax
.LBB20_326:                             # %cond.end934
	movl	%eax, m_Qc
	movq	input, %rax
	movl	3248(%rax), %eax
	cmpl	MBPerRow, %eax
	jl	.LBB20_331
# %bb.327:                              # %if.then939
	movl	PAveFrameQP, %eax
	subl	$6, %eax
	cmpl	m_Qc, %eax
	jge	.LBB20_329
# %bb.328:                              # %cond.true943
	movl	m_Qc, %eax
	jmp	.LBB20_330
.LBB20_329:                             # %cond.false944
	movl	PAveFrameQP, %eax
	subl	$6, %eax
.LBB20_330:                             # %cond.end946
	movl	%eax, m_Qc
	jmp	.LBB20_335
.LBB20_331:                             # %if.else948
	movl	PAveFrameQP, %eax
	subl	$3, %eax
	cmpl	m_Qc, %eax
	jge	.LBB20_333
# %bb.332:                              # %cond.true952
	movl	m_Qc, %eax
	jmp	.LBB20_334
.LBB20_333:                             # %cond.false953
	movl	PAveFrameQP, %eax
	subl	$3, %eax
.LBB20_334:                             # %cond.end955
	movl	%eax, m_Qc
.LBB20_335:                             # %if.end957
	movl	RC_MIN_QUANT, %eax
	cmpl	m_Qc, %eax
	jge	.LBB20_337
# %bb.336:                              # %cond.true960
	movl	m_Qc, %eax
	jmp	.LBB20_338
.LBB20_337:                             # %cond.false961
	movl	RC_MIN_QUANT, %eax
.LBB20_338:                             # %cond.end962
	movl	%eax, m_Qc
	movl	m_Qc, %eax
	addl	TotalFrameQP, %eax
	movl	%eax, TotalFrameQP
	movl	m_Qc, %eax
	movl	%eax, Pm_Qp
	movl	NumberofBasicUnit, %eax
	addl	$-1, %eax
	movl	%eax, NumberofBasicUnit
	cmpl	$0, NumberofBasicUnit
	jne	.LBB20_356
# %bb.339:                              # %land.lhs.true968
	movq	img, %rax
	cmpl	$0, 24(%rax)
	jne	.LBB20_356
# %bb.340:                              # %if.then972
	cmpl	$0, -36(%rbp)
	je	.LBB20_342
# %bb.341:                              # %lor.lhs.false974
	movq	img, %rax
	cmpl	$0, 72600(%rax)
	jne	.LBB20_355
.LBB20_342:                             # %if.then978
	movq	active_sps, %rax
	cmpl	$0, 1148(%rax)
	jne	.LBB20_344
# %bb.343:                              # %lor.lhs.false981
	movq	input, %rax
	cmpl	$1, 2880(%rax)
	jne	.LBB20_347
.LBB20_344:                             # %if.then985
	vmovsd	.LCPI20_2(%rip), %xmm0  # xmm0 = mem[0],zero
	vmovsd	.LCPI20_3(%rip), %xmm1  # xmm1 = mem[0],zero
	vcvtsi2sdl	TotalFrameQP, %xmm0, %xmm2
	vmulsd	%xmm2, %xmm1, %xmm1
	vcvtsi2sdl	TotalNumberofBasicUnit, %xmm0, %xmm2
	vdivsd	%xmm2, %xmm1, %xmm1
	vaddsd	%xmm0, %xmm1, %xmm0
	vcvttsd2si	%xmm0, %eax
	movl	%eax, -16(%rbp)
	movq	img, %rax
	movl	72576(%rax), %eax
	movq	input, %rcx
	movl	1224(%rcx), %ecx
	subl	$2, %ecx
	cmpl	%ecx, %eax
	jne	.LBB20_346
# %bb.345:                              # %if.then997
	movl	-16(%rbp), %eax
	movl	%eax, QPLastPFrame
.LBB20_346:                             # %if.end998
	movl	-16(%rbp), %eax
	movq	img, %rcx
	addl	72572(%rcx), %eax
	movl	%eax, 72572(%rcx)
	movl	PreviousQp2, %eax
	movl	%eax, PreviousQp1
	movl	-16(%rbp), %eax
	movl	%eax, PreviousQp2
	movl	-16(%rbp), %eax
	movl	%eax, PAveFrameQP
	movl	PAveHeaderBits2, %eax
	movl	%eax, PAveHeaderBits3
	jmp	.LBB20_354
.LBB20_347:                             # %if.else1001
	movq	input, %rax
	cmpl	$2, 2880(%rax)
	je	.LBB20_349
# %bb.348:                              # %lor.lhs.false1005
	movq	input, %rax
	cmpl	$0, 2884(%rax)
	je	.LBB20_353
.LBB20_349:                             # %if.then1008
	movq	img, %rax
	cmpl	$0, 72600(%rax)
	jne	.LBB20_351
# %bb.350:                              # %if.then1012
	vmovsd	.LCPI20_2(%rip), %xmm0  # xmm0 = mem[0],zero
	vmovsd	.LCPI20_3(%rip), %xmm1  # xmm1 = mem[0],zero
	vcvtsi2sdl	TotalFrameQP, %xmm0, %xmm2
	vmulsd	%xmm2, %xmm1, %xmm1
	vcvtsi2sdl	TotalNumberofBasicUnit, %xmm0, %xmm2
	vdivsd	%xmm2, %xmm1, %xmm1
	vaddsd	%xmm0, %xmm1, %xmm0
	vcvttsd2si	%xmm0, %eax
	movl	%eax, -16(%rbp)
	movl	-16(%rbp), %eax
	movl	%eax, FrameQPBuffer
	movl	PAveHeaderBits2, %eax
	movl	%eax, FrameAveHeaderBits
	jmp	.LBB20_352
.LBB20_351:                             # %if.else1019
	vmovsd	.LCPI20_2(%rip), %xmm0  # xmm0 = mem[0],zero
	vmovsd	.LCPI20_3(%rip), %xmm1  # xmm1 = mem[0],zero
	vcvtsi2sdl	TotalFrameQP, %xmm0, %xmm2
	vmulsd	%xmm2, %xmm1, %xmm1
	vcvtsi2sdl	TotalNumberofBasicUnit, %xmm0, %xmm2
	vdivsd	%xmm2, %xmm1, %xmm1
	vaddsd	%xmm0, %xmm1, %xmm0
	vcvttsd2si	%xmm0, %eax
	movl	%eax, -16(%rbp)
	movl	-16(%rbp), %eax
	movl	%eax, FieldQPBuffer
	movl	PAveHeaderBits2, %eax
	movl	%eax, FieldAveHeaderBits
.LBB20_352:                             # %if.end1026
	jmp	.LBB20_353
.LBB20_353:                             # %if.end1027
	jmp	.LBB20_354
.LBB20_354:                             # %if.end1028
	jmp	.LBB20_355
.LBB20_355:                             # %if.end1029
	jmp	.LBB20_356
.LBB20_356:                             # %if.end1030
	movl	m_Qc, %eax
	movl	%eax, -20(%rbp)
	jmp	.LBB20_363
.LBB20_357:                             # %if.end1031
	jmp	.LBB20_358
.LBB20_358:                             # %if.end1032
	jmp	.LBB20_359
.LBB20_359:                             # %if.end1033
	jmp	.LBB20_360
.LBB20_360:                             # %if.end1034
	jmp	.LBB20_361
.LBB20_361:                             # %if.end1035
	jmp	.LBB20_362
.LBB20_362:                             # %if.end1036
	movl	m_Qc, %eax
	movl	%eax, -20(%rbp)
.LBB20_363:                             # %return
	movl	-20(%rbp), %ebx
	cmpl	$192572623, -56(%rbp)   # imm = 0xB7A6CCF
	jne	.LBB20_365
.LBB20_364:
	movl	%ebx, %eax
	addq	$72, %rsp
	popq	%rbx
	popq	%rbp
	.cfi_def_cfa %rsp, 8
	retq
.LBB20_365:                             # %func_exit
	.cfi_def_cfa %rbp, 16
	callq	detect_breach
	jmp	.LBB20_364
.Lfunc_end20:
	.size	updateQuantizationParameter.4, .Lfunc_end20-updateQuantizationParameter.4
	.cfi_endproc
                                        # -- End function
	.section	.rodata.cst8,"aM",@progbits,8
	.p2align	3               # -- Begin function updateMADModel.5
.LCPI21_0:
	.quad	4626322717216342016     # double 20
	.section	.rodata.cst16,"aM",@progbits,16
	.p2align	4
.LCPI21_1:
	.quad	9223372036854775807     # double NaN
	.quad	9223372036854775807     # double NaN
	.text
	.globl	updateMADModel.5
	.p2align	4, 0x90
	.type	updateMADModel.5,@function
updateMADModel.5:                       # @updateMADModel.5
	.cfi_startproc
# %bb.0:                                # %entry
	pushq	%rbp
	.cfi_def_cfa_offset 16
	.cfi_offset %rbp, -16
	movq	%rsp, %rbp
	.cfi_def_cfa_register %rbp
	subq	$208, %rsp
	movl	$37307611, -28(%rbp)    # imm = 0x23944DB
	vxorps	%xmm0, %xmm0, %xmm0
	vmovsd	%xmm0, -24(%rbp)
	movq	img, %rax
	cmpl	$0, 72564(%rax)
	jle	.LBB21_51
# %bb.1:                                # %if.then
	movq	img, %rax
	movl	72620(%rax), %eax
	movq	img, %rcx
	cmpl	72608(%rcx), %eax
	jne	.LBB21_3
# %bb.2:                                # %if.then2
	movq	img, %rax
	movl	72564(%rax), %eax
	movl	%eax, -12(%rbp)
	jmp	.LBB21_4
.LBB21_3:                               # %if.else
	movq	img, %rax
	movl	72564(%rax), %eax
	imull	TotalNumberofBasicUnit, %eax
	addl	CodedBasicUnit, %eax
	movl	%eax, -12(%rbp)
.LBB21_4:                               # %if.end
	movl	$19, -4(%rbp)
.LBB21_5:                               # %for.cond
                                        # =>This Inner Loop Header: Depth=1
	cmpl	$0, -4(%rbp)
	jle	.LBB21_8
# %bb.6:                                # %for.body
                                        #   in Loop: Header=BB21_5 Depth=1
	movl	-4(%rbp), %eax
	subl	$1, %eax
	cltq
	vmovsd	PPictureMAD(,%rax,8), %xmm0 # xmm0 = mem[0],zero
	movslq	-4(%rbp), %rax
	vmovsd	%xmm0, PPictureMAD(,%rax,8)
	movslq	-4(%rbp), %rax
	vmovsd	PPictureMAD(,%rax,8), %xmm0 # xmm0 = mem[0],zero
	movslq	-4(%rbp), %rax
	vmovsd	%xmm0, PictureMAD(,%rax,8)
	movl	-4(%rbp), %eax
	subl	$1, %eax
	cltq
	vmovsd	ReferenceMAD(,%rax,8), %xmm0 # xmm0 = mem[0],zero
	movslq	-4(%rbp), %rax
	vmovsd	%xmm0, ReferenceMAD(,%rax,8)
# %bb.7:                                # %for.inc
                                        #   in Loop: Header=BB21_5 Depth=1
	movl	-4(%rbp), %eax
	addl	$-1, %eax
	movl	%eax, -4(%rbp)
	jmp	.LBB21_5
.LBB21_8:                               # %for.end
	vmovsd	CurrentFrameMAD, %xmm0  # xmm0 = mem[0],zero
	vmovsd	%xmm0, PPictureMAD
	vmovsd	PPictureMAD, %xmm0      # xmm0 = mem[0],zero
	vmovsd	%xmm0, PictureMAD
	movq	img, %rax
	movl	72620(%rax), %eax
	movq	img, %rcx
	cmpl	72608(%rcx), %eax
	jne	.LBB21_10
# %bb.9:                                # %if.then20
	vmovsd	PictureMAD+8, %xmm0     # xmm0 = mem[0],zero
	vmovsd	%xmm0, ReferenceMAD
	jmp	.LBB21_16
.LBB21_10:                              # %if.else21
	movq	input, %rax
	cmpl	$2, 2880(%rax)
	je	.LBB21_12
# %bb.11:                               # %lor.lhs.false
	movq	input, %rax
	cmpl	$0, 2884(%rax)
	je	.LBB21_14
.LBB21_12:                              # %land.lhs.true
	movq	img, %rax
	cmpl	$1, 72600(%rax)
	jne	.LBB21_14
# %bb.13:                               # %if.then24
	movq	FCBUPFMAD, %rax
	movl	TotalNumberofBasicUnit, %ecx
	subl	$1, %ecx
	subl	NumberofBasicUnit, %ecx
	movslq	%ecx, %rcx
	vmovsd	(%rax,%rcx,8), %xmm0    # xmm0 = mem[0],zero
	vmovsd	%xmm0, ReferenceMAD
	jmp	.LBB21_15
.LBB21_14:                              # %if.else29
	movq	BUPFMAD, %rax
	movl	TotalNumberofBasicUnit, %ecx
	subl	$1, %ecx
	subl	NumberofBasicUnit, %ecx
	movslq	%ecx, %rcx
	vmovsd	(%rax,%rcx,8), %xmm0    # xmm0 = mem[0],zero
	vmovsd	%xmm0, ReferenceMAD
.LBB21_15:                              # %if.end34
	jmp	.LBB21_16
.LBB21_16:                              # %if.end35
	vmovsd	PMADPictureC1, %xmm0    # xmm0 = mem[0],zero
	vmovsd	%xmm0, MADPictureC1
	vmovsd	PMADPictureC2, %xmm0    # xmm0 = mem[0],zero
	vmovsd	%xmm0, MADPictureC2
	vmovsd	CurrentFrameMAD, %xmm0  # xmm0 = mem[0],zero
	vucomisd	PreviousFrameMAD, %xmm0
	jbe	.LBB21_18
# %bb.17:                               # %cond.true
	vmovsd	.LCPI21_0(%rip), %xmm0  # xmm0 = mem[0],zero
	vmovsd	PreviousFrameMAD, %xmm1 # xmm1 = mem[0],zero
	vdivsd	CurrentFrameMAD, %xmm1, %xmm1
	vmulsd	%xmm0, %xmm1, %xmm0
	vcvttsd2si	%xmm0, %eax
	jmp	.LBB21_19
.LBB21_18:                              # %cond.false
	vmovsd	.LCPI21_0(%rip), %xmm0  # xmm0 = mem[0],zero
	vmovsd	CurrentFrameMAD, %xmm1  # xmm1 = mem[0],zero
	vdivsd	PreviousFrameMAD, %xmm1, %xmm1
	vmulsd	%xmm0, %xmm1, %xmm0
	vcvttsd2si	%xmm0, %eax
.LBB21_19:                              # %cond.end
	movl	%eax, -8(%rbp)
	movl	-8(%rbp), %eax
	movl	-12(%rbp), %ecx
	subl	$1, %ecx
	cmpl	%ecx, %eax
	jge	.LBB21_21
# %bb.20:                               # %cond.true44
	movl	-8(%rbp), %eax
	jmp	.LBB21_22
.LBB21_21:                              # %cond.false45
	movl	-12(%rbp), %eax
	subl	$1, %eax
.LBB21_22:                              # %cond.end47
	movl	%eax, -8(%rbp)
	cmpl	$1, -8(%rbp)
	jge	.LBB21_24
# %bb.23:                               # %cond.true51
	movl	$1, %eax
	jmp	.LBB21_25
.LBB21_24:                              # %cond.false52
	movl	-8(%rbp), %eax
.LBB21_25:                              # %cond.end53
	movl	%eax, -8(%rbp)
	movl	-8(%rbp), %eax
	movl	MADm_windowSize, %ecx
	addl	$1, %ecx
	cmpl	%ecx, %eax
	jge	.LBB21_27
# %bb.26:                               # %cond.true58
	movl	-8(%rbp), %eax
	jmp	.LBB21_28
.LBB21_27:                              # %cond.false59
	movl	MADm_windowSize, %eax
	addl	$1, %eax
.LBB21_28:                              # %cond.end61
	movl	%eax, -8(%rbp)
	movl	$20, %eax
	cmpl	-8(%rbp), %eax
	jge	.LBB21_30
# %bb.29:                               # %cond.true65
	movl	$20, %eax
	jmp	.LBB21_31
.LBB21_30:                              # %cond.false66
	movl	-8(%rbp), %eax
.LBB21_31:                              # %cond.end67
	movl	%eax, -8(%rbp)
	movl	-8(%rbp), %eax
	movl	%eax, MADm_windowSize
	movl	$0, -4(%rbp)
.LBB21_32:                              # %for.cond69
                                        # =>This Inner Loop Header: Depth=1
	cmpl	$20, -4(%rbp)
	jge	.LBB21_35
# %bb.33:                               # %for.body72
                                        #   in Loop: Header=BB21_32 Depth=1
	movslq	-4(%rbp), %rax
	movl	$0, PictureRejected(,%rax,4)
# %bb.34:                               # %for.inc75
                                        #   in Loop: Header=BB21_32 Depth=1
	movl	-4(%rbp), %eax
	addl	$1, %eax
	movl	%eax, -4(%rbp)
	jmp	.LBB21_32
.LBB21_35:                              # %for.end76
	movq	img, %rax
	cmpl	$0, 24(%rax)
	jne	.LBB21_37
# %bb.36:                               # %if.then79
	vmovsd	CurrentFrameMAD, %xmm0  # xmm0 = mem[0],zero
	vmovsd	%xmm0, PreviousFrameMAD
.LBB21_37:                              # %if.end80
	movl	-8(%rbp), %edi
	callq	MADModelEstimator
	movl	$0, -4(%rbp)
.LBB21_38:                              # %for.cond81
                                        # =>This Inner Loop Header: Depth=1
	movl	-4(%rbp), %eax
	cmpl	-8(%rbp), %eax
	jge	.LBB21_41
# %bb.39:                               # %for.body84
                                        #   in Loop: Header=BB21_38 Depth=1
	vmovsd	MADPictureC1, %xmm0     # xmm0 = mem[0],zero
	movslq	-4(%rbp), %rax
	vmulsd	ReferenceMAD(,%rax,8), %xmm0, %xmm0
	vaddsd	MADPictureC2, %xmm0, %xmm0
	movslq	-4(%rbp), %rax
	vsubsd	PictureMAD(,%rax,8), %xmm0, %xmm0
	movslq	-4(%rbp), %rax
	vmovsd	%xmm0, -208(%rbp,%rax,8)
	movslq	-4(%rbp), %rax
	vmovsd	-208(%rbp,%rax,8), %xmm0 # xmm0 = mem[0],zero
	movslq	-4(%rbp), %rax
	vmulsd	-208(%rbp,%rax,8), %xmm0, %xmm0
	vaddsd	-24(%rbp), %xmm0, %xmm0
	vmovsd	%xmm0, -24(%rbp)
# %bb.40:                               # %for.inc100
                                        #   in Loop: Header=BB21_38 Depth=1
	movl	-4(%rbp), %eax
	addl	$1, %eax
	movl	%eax, -4(%rbp)
	jmp	.LBB21_38
.LBB21_41:                              # %for.end102
	cmpl	$2, -8(%rbp)
	jne	.LBB21_43
# %bb.42:                               # %cond.true105
	vxorps	%xmm0, %xmm0, %xmm0
	jmp	.LBB21_44
.LBB21_43:                              # %cond.false106
	vmovsd	-24(%rbp), %xmm0        # xmm0 = mem[0],zero
	vcvtsi2sdl	-8(%rbp), %xmm0, %xmm1
	vdivsd	%xmm1, %xmm0, %xmm0
	callq	sqrt
.LBB21_44:                              # %cond.end109
	vmovsd	%xmm0, -40(%rbp)
	movl	$0, -4(%rbp)
.LBB21_45:                              # %for.cond111
                                        # =>This Inner Loop Header: Depth=1
	movl	-4(%rbp), %eax
	cmpl	-8(%rbp), %eax
	jge	.LBB21_50
# %bb.46:                               # %for.body114
                                        #   in Loop: Header=BB21_45 Depth=1
	movslq	-4(%rbp), %rax
	vmovsd	-208(%rbp,%rax,8), %xmm0 # xmm0 = mem[0],zero
	vmovdqa	.LCPI21_1(%rip), %xmm1  # xmm1 = [NaN,NaN]
	vpand	%xmm1, %xmm0, %xmm0
	vucomisd	-40(%rbp), %xmm0
	jbe	.LBB21_48
# %bb.47:                               # %if.then119
                                        #   in Loop: Header=BB21_45 Depth=1
	movslq	-4(%rbp), %rax
	movl	$1, PictureRejected(,%rax,4)
.LBB21_48:                              # %if.end122
                                        #   in Loop: Header=BB21_45 Depth=1
	jmp	.LBB21_49
.LBB21_49:                              # %for.inc123
                                        #   in Loop: Header=BB21_45 Depth=1
	movl	-4(%rbp), %eax
	addl	$1, %eax
	movl	%eax, -4(%rbp)
	jmp	.LBB21_45
.LBB21_50:                              # %for.end125
	movl	$0, PictureRejected
	movl	-8(%rbp), %edi
	callq	MADModelEstimator
.LBB21_51:                              # %if.end126
	cmpl	$37307611, -28(%rbp)    # imm = 0x23944DB
	jne	.LBB21_53
.LBB21_52:
	addq	$208, %rsp
	popq	%rbp
	.cfi_def_cfa %rsp, 8
	retq
.LBB21_53:                              # %func_exit
	.cfi_def_cfa %rbp, 16
	callq	detect_breach
	jmp	.LBB21_52
.Lfunc_end21:
	.size	updateMADModel.5, .Lfunc_end21-updateMADModel.5
	.cfi_endproc
                                        # -- End function
	.section	.rodata.cst8,"aM",@progbits,8
	.p2align	3               # -- Begin function updateMADModel.6
.LCPI22_0:
	.quad	4626322717216342016     # double 20
	.section	.rodata.cst16,"aM",@progbits,16
	.p2align	4
.LCPI22_1:
	.quad	9223372036854775807     # double NaN
	.quad	9223372036854775807     # double NaN
	.text
	.globl	updateMADModel.6
	.p2align	4, 0x90
	.type	updateMADModel.6,@function
updateMADModel.6:                       # @updateMADModel.6
	.cfi_startproc
# %bb.0:                                # %entry
	pushq	%rbp
	.cfi_def_cfa_offset 16
	.cfi_offset %rbp, -16
	movq	%rsp, %rbp
	.cfi_def_cfa_register %rbp
	subq	$208, %rsp
	movl	$918053361, -28(%rbp)   # imm = 0x36B861F1
	vxorps	%xmm0, %xmm0, %xmm0
	vmovsd	%xmm0, -24(%rbp)
	movq	img, %rax
	cmpl	$0, 72564(%rax)
	jle	.LBB22_51
# %bb.1:                                # %if.then
	movq	img, %rax
	movl	72620(%rax), %eax
	movq	img, %rcx
	cmpl	72608(%rcx), %eax
	jne	.LBB22_3
# %bb.2:                                # %if.then2
	movq	img, %rax
	movl	72564(%rax), %eax
	movl	%eax, -12(%rbp)
	jmp	.LBB22_4
.LBB22_3:                               # %if.else
	movq	img, %rax
	movl	72564(%rax), %eax
	imull	TotalNumberofBasicUnit, %eax
	addl	CodedBasicUnit, %eax
	movl	%eax, -12(%rbp)
.LBB22_4:                               # %if.end
	movl	$19, -4(%rbp)
.LBB22_5:                               # %for.cond
                                        # =>This Inner Loop Header: Depth=1
	cmpl	$0, -4(%rbp)
	jle	.LBB22_8
# %bb.6:                                # %for.body
                                        #   in Loop: Header=BB22_5 Depth=1
	movl	-4(%rbp), %eax
	subl	$1, %eax
	cltq
	vmovsd	PPictureMAD(,%rax,8), %xmm0 # xmm0 = mem[0],zero
	movslq	-4(%rbp), %rax
	vmovsd	%xmm0, PPictureMAD(,%rax,8)
	movslq	-4(%rbp), %rax
	vmovsd	PPictureMAD(,%rax,8), %xmm0 # xmm0 = mem[0],zero
	movslq	-4(%rbp), %rax
	vmovsd	%xmm0, PictureMAD(,%rax,8)
	movl	-4(%rbp), %eax
	subl	$1, %eax
	cltq
	vmovsd	ReferenceMAD(,%rax,8), %xmm0 # xmm0 = mem[0],zero
	movslq	-4(%rbp), %rax
	vmovsd	%xmm0, ReferenceMAD(,%rax,8)
# %bb.7:                                # %for.inc
                                        #   in Loop: Header=BB22_5 Depth=1
	movl	-4(%rbp), %eax
	addl	$-1, %eax
	movl	%eax, -4(%rbp)
	jmp	.LBB22_5
.LBB22_8:                               # %for.end
	vmovsd	CurrentFrameMAD, %xmm0  # xmm0 = mem[0],zero
	vmovsd	%xmm0, PPictureMAD
	vmovsd	PPictureMAD, %xmm0      # xmm0 = mem[0],zero
	vmovsd	%xmm0, PictureMAD
	movq	img, %rax
	movl	72620(%rax), %eax
	movq	img, %rcx
	cmpl	72608(%rcx), %eax
	jne	.LBB22_10
# %bb.9:                                # %if.then20
	vmovsd	PictureMAD+8, %xmm0     # xmm0 = mem[0],zero
	vmovsd	%xmm0, ReferenceMAD
	jmp	.LBB22_16
.LBB22_10:                              # %if.else21
	movq	input, %rax
	cmpl	$2, 2880(%rax)
	je	.LBB22_12
# %bb.11:                               # %lor.lhs.false
	movq	input, %rax
	cmpl	$0, 2884(%rax)
	je	.LBB22_14
.LBB22_12:                              # %land.lhs.true
	movq	img, %rax
	cmpl	$1, 72600(%rax)
	jne	.LBB22_14
# %bb.13:                               # %if.then24
	movq	FCBUPFMAD, %rax
	movl	TotalNumberofBasicUnit, %ecx
	subl	$1, %ecx
	subl	NumberofBasicUnit, %ecx
	movslq	%ecx, %rcx
	vmovsd	(%rax,%rcx,8), %xmm0    # xmm0 = mem[0],zero
	vmovsd	%xmm0, ReferenceMAD
	jmp	.LBB22_15
.LBB22_14:                              # %if.else29
	movq	BUPFMAD, %rax
	movl	TotalNumberofBasicUnit, %ecx
	subl	$1, %ecx
	subl	NumberofBasicUnit, %ecx
	movslq	%ecx, %rcx
	vmovsd	(%rax,%rcx,8), %xmm0    # xmm0 = mem[0],zero
	vmovsd	%xmm0, ReferenceMAD
.LBB22_15:                              # %if.end34
	jmp	.LBB22_16
.LBB22_16:                              # %if.end35
	vmovsd	PMADPictureC1, %xmm0    # xmm0 = mem[0],zero
	vmovsd	%xmm0, MADPictureC1
	vmovsd	PMADPictureC2, %xmm0    # xmm0 = mem[0],zero
	vmovsd	%xmm0, MADPictureC2
	vmovsd	CurrentFrameMAD, %xmm0  # xmm0 = mem[0],zero
	vucomisd	PreviousFrameMAD, %xmm0
	jbe	.LBB22_18
# %bb.17:                               # %cond.true
	vmovsd	.LCPI22_0(%rip), %xmm0  # xmm0 = mem[0],zero
	vmovsd	PreviousFrameMAD, %xmm1 # xmm1 = mem[0],zero
	vdivsd	CurrentFrameMAD, %xmm1, %xmm1
	vmulsd	%xmm0, %xmm1, %xmm0
	vcvttsd2si	%xmm0, %eax
	jmp	.LBB22_19
.LBB22_18:                              # %cond.false
	vmovsd	.LCPI22_0(%rip), %xmm0  # xmm0 = mem[0],zero
	vmovsd	CurrentFrameMAD, %xmm1  # xmm1 = mem[0],zero
	vdivsd	PreviousFrameMAD, %xmm1, %xmm1
	vmulsd	%xmm0, %xmm1, %xmm0
	vcvttsd2si	%xmm0, %eax
.LBB22_19:                              # %cond.end
	movl	%eax, -8(%rbp)
	movl	-8(%rbp), %eax
	movl	-12(%rbp), %ecx
	subl	$1, %ecx
	cmpl	%ecx, %eax
	jge	.LBB22_21
# %bb.20:                               # %cond.true44
	movl	-8(%rbp), %eax
	jmp	.LBB22_22
.LBB22_21:                              # %cond.false45
	movl	-12(%rbp), %eax
	subl	$1, %eax
.LBB22_22:                              # %cond.end47
	movl	%eax, -8(%rbp)
	cmpl	$1, -8(%rbp)
	jge	.LBB22_24
# %bb.23:                               # %cond.true51
	movl	$1, %eax
	jmp	.LBB22_25
.LBB22_24:                              # %cond.false52
	movl	-8(%rbp), %eax
.LBB22_25:                              # %cond.end53
	movl	%eax, -8(%rbp)
	movl	-8(%rbp), %eax
	movl	MADm_windowSize, %ecx
	addl	$1, %ecx
	cmpl	%ecx, %eax
	jge	.LBB22_27
# %bb.26:                               # %cond.true58
	movl	-8(%rbp), %eax
	jmp	.LBB22_28
.LBB22_27:                              # %cond.false59
	movl	MADm_windowSize, %eax
	addl	$1, %eax
.LBB22_28:                              # %cond.end61
	movl	%eax, -8(%rbp)
	movl	$20, %eax
	cmpl	-8(%rbp), %eax
	jge	.LBB22_30
# %bb.29:                               # %cond.true65
	movl	$20, %eax
	jmp	.LBB22_31
.LBB22_30:                              # %cond.false66
	movl	-8(%rbp), %eax
.LBB22_31:                              # %cond.end67
	movl	%eax, -8(%rbp)
	movl	-8(%rbp), %eax
	movl	%eax, MADm_windowSize
	movl	$0, -4(%rbp)
.LBB22_32:                              # %for.cond69
                                        # =>This Inner Loop Header: Depth=1
	cmpl	$20, -4(%rbp)
	jge	.LBB22_35
# %bb.33:                               # %for.body72
                                        #   in Loop: Header=BB22_32 Depth=1
	movslq	-4(%rbp), %rax
	movl	$0, PictureRejected(,%rax,4)
# %bb.34:                               # %for.inc75
                                        #   in Loop: Header=BB22_32 Depth=1
	movl	-4(%rbp), %eax
	addl	$1, %eax
	movl	%eax, -4(%rbp)
	jmp	.LBB22_32
.LBB22_35:                              # %for.end76
	movq	img, %rax
	cmpl	$0, 24(%rax)
	jne	.LBB22_37
# %bb.36:                               # %if.then79
	vmovsd	CurrentFrameMAD, %xmm0  # xmm0 = mem[0],zero
	vmovsd	%xmm0, PreviousFrameMAD
.LBB22_37:                              # %if.end80
	movl	-8(%rbp), %edi
	callq	MADModelEstimator
	movl	$0, -4(%rbp)
.LBB22_38:                              # %for.cond81
                                        # =>This Inner Loop Header: Depth=1
	movl	-4(%rbp), %eax
	cmpl	-8(%rbp), %eax
	jge	.LBB22_41
# %bb.39:                               # %for.body84
                                        #   in Loop: Header=BB22_38 Depth=1
	vmovsd	MADPictureC1, %xmm0     # xmm0 = mem[0],zero
	movslq	-4(%rbp), %rax
	vmulsd	ReferenceMAD(,%rax,8), %xmm0, %xmm0
	vaddsd	MADPictureC2, %xmm0, %xmm0
	movslq	-4(%rbp), %rax
	vsubsd	PictureMAD(,%rax,8), %xmm0, %xmm0
	movslq	-4(%rbp), %rax
	vmovsd	%xmm0, -208(%rbp,%rax,8)
	movslq	-4(%rbp), %rax
	vmovsd	-208(%rbp,%rax,8), %xmm0 # xmm0 = mem[0],zero
	movslq	-4(%rbp), %rax
	vmulsd	-208(%rbp,%rax,8), %xmm0, %xmm0
	vaddsd	-24(%rbp), %xmm0, %xmm0
	vmovsd	%xmm0, -24(%rbp)
# %bb.40:                               # %for.inc100
                                        #   in Loop: Header=BB22_38 Depth=1
	movl	-4(%rbp), %eax
	addl	$1, %eax
	movl	%eax, -4(%rbp)
	jmp	.LBB22_38
.LBB22_41:                              # %for.end102
	cmpl	$2, -8(%rbp)
	jne	.LBB22_43
# %bb.42:                               # %cond.true105
	vxorps	%xmm0, %xmm0, %xmm0
	jmp	.LBB22_44
.LBB22_43:                              # %cond.false106
	vmovsd	-24(%rbp), %xmm0        # xmm0 = mem[0],zero
	vcvtsi2sdl	-8(%rbp), %xmm0, %xmm1
	vdivsd	%xmm1, %xmm0, %xmm0
	callq	sqrt
.LBB22_44:                              # %cond.end109
	vmovsd	%xmm0, -40(%rbp)
	movl	$0, -4(%rbp)
.LBB22_45:                              # %for.cond111
                                        # =>This Inner Loop Header: Depth=1
	movl	-4(%rbp), %eax
	cmpl	-8(%rbp), %eax
	jge	.LBB22_50
# %bb.46:                               # %for.body114
                                        #   in Loop: Header=BB22_45 Depth=1
	movslq	-4(%rbp), %rax
	vmovsd	-208(%rbp,%rax,8), %xmm0 # xmm0 = mem[0],zero
	vmovdqa	.LCPI22_1(%rip), %xmm1  # xmm1 = [NaN,NaN]
	vpand	%xmm1, %xmm0, %xmm0
	vucomisd	-40(%rbp), %xmm0
	jbe	.LBB22_48
# %bb.47:                               # %if.then119
                                        #   in Loop: Header=BB22_45 Depth=1
	movslq	-4(%rbp), %rax
	movl	$1, PictureRejected(,%rax,4)
.LBB22_48:                              # %if.end122
                                        #   in Loop: Header=BB22_45 Depth=1
	jmp	.LBB22_49
.LBB22_49:                              # %for.inc123
                                        #   in Loop: Header=BB22_45 Depth=1
	movl	-4(%rbp), %eax
	addl	$1, %eax
	movl	%eax, -4(%rbp)
	jmp	.LBB22_45
.LBB22_50:                              # %for.end125
	movl	$0, PictureRejected
	movl	-8(%rbp), %edi
	callq	MADModelEstimator
.LBB22_51:                              # %if.end126
	cmpl	$918053361, -28(%rbp)   # imm = 0x36B861F1
	jne	.LBB22_53
.LBB22_52:
	addq	$208, %rsp
	popq	%rbp
	.cfi_def_cfa %rsp, 8
	retq
.LBB22_53:                              # %func_exit
	.cfi_def_cfa %rbp, 16
	callq	detect_breach
	jmp	.LBB22_52
.Lfunc_end22:
	.size	updateMADModel.6, .Lfunc_end22-updateMADModel.6
	.cfi_endproc
                                        # -- End function
	.section	.rodata.cst8,"aM",@progbits,8
	.p2align	3               # -- Begin function QP2Qstep.7
.LCPI23_0:
	.quad	4611686018427387904     # double 2
	.text
	.globl	QP2Qstep.7
	.p2align	4, 0x90
	.type	QP2Qstep.7,@function
QP2Qstep.7:                             # @QP2Qstep.7
	.cfi_startproc
# %bb.0:                                # %entry
	pushq	%rbp
	.cfi_def_cfa_offset 16
	.cfi_offset %rbp, -16
	movq	%rsp, %rbp
	.cfi_def_cfa_register %rbp
	subq	$32, %rsp
	movl	$1328811754, -20(%rbp)  # imm = 0x4F340EEA
	movl	%edi, -8(%rbp)
	movl	-8(%rbp), %eax
	cltd
	movl	$6, %ecx
	idivl	%ecx
	movslq	%edx, %rax
	vmovsd	QP2Qstep.QP2QSTEP(,%rax,8), %xmm0 # xmm0 = mem[0],zero
	vmovsd	%xmm0, -16(%rbp)
	movl	$0, -4(%rbp)
.LBB23_1:                               # %for.cond
                                        # =>This Inner Loop Header: Depth=1
	movl	-4(%rbp), %ecx
	movl	-8(%rbp), %eax
	cltd
	movl	$6, %esi
	idivl	%esi
	cmpl	%eax, %ecx
	jge	.LBB23_4
# %bb.2:                                # %for.body
                                        #   in Loop: Header=BB23_1 Depth=1
	vmovsd	.LCPI23_0(%rip), %xmm0  # xmm0 = mem[0],zero
	vmulsd	-16(%rbp), %xmm0, %xmm0
	vmovsd	%xmm0, -16(%rbp)
# %bb.3:                                # %for.inc
                                        #   in Loop: Header=BB23_1 Depth=1
	movl	-4(%rbp), %eax
	addl	$1, %eax
	movl	%eax, -4(%rbp)
	jmp	.LBB23_1
.LBB23_4:                               # %for.end
	vmovsd	-16(%rbp), %xmm0        # xmm0 = mem[0],zero
	cmpl	$1328811754, -20(%rbp)  # imm = 0x4F340EEA
	jne	.LBB23_6
.LBB23_5:
	addq	$32, %rsp
	popq	%rbp
	.cfi_def_cfa %rsp, 8
	retq
.LBB23_6:                               # %func_exit
	.cfi_def_cfa %rbp, 16
	vmovsd	%xmm0, -32(%rbp)        # 8-byte Spill
	callq	detect_breach
	vmovsd	-32(%rbp), %xmm0        # 8-byte Reload
                                        # xmm0 = mem[0],zero
	jmp	.LBB23_5
.Lfunc_end23:
	.size	QP2Qstep.7, .Lfunc_end23-QP2Qstep.7
	.cfi_endproc
                                        # -- End function
	.section	.rodata.cst8,"aM",@progbits,8
	.p2align	3               # -- Begin function Qstep2QP.8
.LCPI24_0:
	.quad	4604086194056200192     # double 0.65625
.LCPI24_1:
	.quad	4604930618986332160     # double 0.75
.LCPI24_2:
	.quad	4605775043916464128     # double 0.84375
.LCPI24_3:
	.quad	4606619468846596096     # double 0.9375
.LCPI24_4:
	.quad	4607463893776728064     # double 1.0625
.LCPI24_5:
	.quad	4607745368753438720     # double 1.125
.LCPI24_6:
	.quad	4607182418800017408     # double 1
.LCPI24_7:
	.quad	4606056518893174784     # double 0.875
.LCPI24_8:
	.quad	4605493568939753472     # double 0.8125
.LCPI24_9:
	.quad	4604367669032910848     # double 0.6875
.LCPI24_10:
	.quad	4603804719079489536     # double 0.625
.LCPI24_11:
	.quad	4611686018427387904     # double 2
	.text
	.globl	Qstep2QP.8
	.p2align	4, 0x90
	.type	Qstep2QP.8,@function
Qstep2QP.8:                             # @Qstep2QP.8
	.cfi_startproc
# %bb.0:                                # %entry
	pushq	%rbp
	.cfi_def_cfa_offset 16
	.cfi_offset %rbp, -16
	movq	%rsp, %rbp
	.cfi_def_cfa_register %rbp
	pushq	%rbx
	subq	$56, %rsp
	.cfi_offset %rbx, -24
	movl	$724050855, -32(%rbp)   # imm = 0x2B2823A7
	vmovsd	%xmm0, -16(%rbp)
	movl	$0, -28(%rbp)
	movl	$0, -20(%rbp)
	vmovsd	-16(%rbp), %xmm0        # xmm0 = mem[0],zero
	vmovsd	%xmm0, -40(%rbp)        # 8-byte Spill
	xorl	%edi, %edi
	callq	QP2Qstep
	vucomisd	-40(%rbp), %xmm0 # 8-byte Folded Reload
	jbe	.LBB24_2
# %bb.1:                                # %if.then
	movl	$0, -24(%rbp)
	jmp	.LBB24_24
.LBB24_2:                               # %if.else
	vmovsd	-16(%rbp), %xmm0        # xmm0 = mem[0],zero
	vmovsd	%xmm0, -56(%rbp)        # 8-byte Spill
	movl	$51, %edi
	callq	QP2Qstep
	vmovsd	-56(%rbp), %xmm1        # 8-byte Reload
                                        # xmm1 = mem[0],zero
	vucomisd	%xmm0, %xmm1
	jbe	.LBB24_4
# %bb.3:                                # %if.then3
	movl	$51, -24(%rbp)
	jmp	.LBB24_24
.LBB24_4:                               # %if.end
	jmp	.LBB24_5
.LBB24_5:                               # %if.end4
	jmp	.LBB24_6
.LBB24_6:                               # %while.cond
                                        # =>This Inner Loop Header: Depth=1
	vmovsd	-16(%rbp), %xmm0        # xmm0 = mem[0],zero
	vmovsd	%xmm0, -48(%rbp)        # 8-byte Spill
	movl	$5, %edi
	callq	QP2Qstep
	vmovsd	-48(%rbp), %xmm1        # 8-byte Reload
                                        # xmm1 = mem[0],zero
	vucomisd	%xmm0, %xmm1
	jbe	.LBB24_8
# %bb.7:                                # %while.body
                                        #   in Loop: Header=BB24_6 Depth=1
	vmovsd	.LCPI24_11(%rip), %xmm0 # xmm0 = mem[0],zero
	vmovsd	-16(%rbp), %xmm1        # xmm1 = mem[0],zero
	vdivsd	%xmm0, %xmm1, %xmm0
	vmovsd	%xmm0, -16(%rbp)
	movl	-28(%rbp), %eax
	addl	$1, %eax
	movl	%eax, -28(%rbp)
	jmp	.LBB24_6
.LBB24_8:                               # %while.end
	vmovsd	.LCPI24_0(%rip), %xmm0  # xmm0 = mem[0],zero
	vucomisd	-16(%rbp), %xmm0
	jb	.LBB24_10
# %bb.9:                                # %if.then8
	vmovsd	.LCPI24_10(%rip), %xmm0 # xmm0 = mem[0],zero
	vmovsd	%xmm0, -16(%rbp)
	movl	$0, -20(%rbp)
	jmp	.LBB24_23
.LBB24_10:                              # %if.else9
	vmovsd	.LCPI24_1(%rip), %xmm0  # xmm0 = mem[0],zero
	vucomisd	-16(%rbp), %xmm0
	jb	.LBB24_12
# %bb.11:                               # %if.then11
	vmovsd	.LCPI24_9(%rip), %xmm0  # xmm0 = mem[0],zero
	vmovsd	%xmm0, -16(%rbp)
	movl	$1, -20(%rbp)
	jmp	.LBB24_22
.LBB24_12:                              # %if.else12
	vmovsd	.LCPI24_2(%rip), %xmm0  # xmm0 = mem[0],zero
	vucomisd	-16(%rbp), %xmm0
	jb	.LBB24_14
# %bb.13:                               # %if.then14
	vmovsd	.LCPI24_8(%rip), %xmm0  # xmm0 = mem[0],zero
	vmovsd	%xmm0, -16(%rbp)
	movl	$2, -20(%rbp)
	jmp	.LBB24_21
.LBB24_14:                              # %if.else15
	vmovsd	.LCPI24_3(%rip), %xmm0  # xmm0 = mem[0],zero
	vucomisd	-16(%rbp), %xmm0
	jb	.LBB24_16
# %bb.15:                               # %if.then17
	vmovsd	.LCPI24_7(%rip), %xmm0  # xmm0 = mem[0],zero
	vmovsd	%xmm0, -16(%rbp)
	movl	$3, -20(%rbp)
	jmp	.LBB24_20
.LBB24_16:                              # %if.else18
	vmovsd	.LCPI24_4(%rip), %xmm0  # xmm0 = mem[0],zero
	vucomisd	-16(%rbp), %xmm0
	jb	.LBB24_18
# %bb.17:                               # %if.then20
	vmovsd	.LCPI24_6(%rip), %xmm0  # xmm0 = mem[0],zero
	vmovsd	%xmm0, -16(%rbp)
	movl	$4, -20(%rbp)
	jmp	.LBB24_19
.LBB24_18:                              # %if.else21
	vmovsd	.LCPI24_5(%rip), %xmm0  # xmm0 = mem[0],zero
	vmovsd	%xmm0, -16(%rbp)
	movl	$5, -20(%rbp)
.LBB24_19:                              # %if.end22
	jmp	.LBB24_20
.LBB24_20:                              # %if.end23
	jmp	.LBB24_21
.LBB24_21:                              # %if.end24
	jmp	.LBB24_22
.LBB24_22:                              # %if.end25
	jmp	.LBB24_23
.LBB24_23:                              # %if.end26
	imull	$6, -28(%rbp), %eax
	addl	-20(%rbp), %eax
	movl	%eax, -24(%rbp)
.LBB24_24:                              # %return
	movl	-24(%rbp), %ebx
	cmpl	$724050855, -32(%rbp)   # imm = 0x2B2823A7
	jne	.LBB24_26
.LBB24_25:
	movl	%ebx, %eax
	addq	$56, %rsp
	popq	%rbx
	popq	%rbp
	.cfi_def_cfa %rsp, 8
	retq
.LBB24_26:                              # %func_exit
	.cfi_def_cfa %rbp, 16
	callq	detect_breach
	jmp	.LBB24_25
.Lfunc_end24:
	.size	Qstep2QP.8, .Lfunc_end24-Qstep2QP.8
	.cfi_endproc
                                        # -- End function
	.section	.rodata.cst8,"aM",@progbits,8
	.p2align	3               # -- Begin function updateRCModel.9
.LCPI25_0:
	.quad	4611686018427387904     # double 2
.LCPI25_1:
	.quad	4602678819172646912     # double 0.5
.LCPI25_2:
	.quad	4607182418800017408     # double 1
.LCPI25_3:
	.quad	4626322717216342016     # double 20
	.section	.rodata.cst16,"aM",@progbits,16
	.p2align	4
.LCPI25_4:
	.quad	9223372036854775807     # double NaN
	.quad	9223372036854775807     # double NaN
	.text
	.globl	updateRCModel.9
	.p2align	4, 0x90
	.type	updateRCModel.9,@function
updateRCModel.9:                        # @updateRCModel.9
	.cfi_startproc
# %bb.0:                                # %entry
	pushq	%rbp
	.cfi_def_cfa_offset 16
	.cfi_offset %rbp, -16
	movq	%rsp, %rbp
	.cfi_def_cfa_register %rbp
	subq	$208, %rsp
	movl	$995087636, -28(%rbp)   # imm = 0x3B4FD514
	vxorps	%xmm0, %xmm0, %xmm0
	vmovsd	%xmm0, -24(%rbp)
	movl	$0, -16(%rbp)
	movq	img, %rax
	cmpl	$0, 24(%rax)
	jne	.LBB25_68
# %bb.1:                                # %if.then
	movq	img, %rax
	movl	72620(%rax), %eax
	movq	img, %rcx
	cmpl	72608(%rcx), %eax
	jne	.LBB25_3
# %bb.2:                                # %if.then2
	callq	ComputeFrameMAD
	vmovsd	%xmm0, CurrentFrameMAD
	movq	img, %rax
	movl	72564(%rax), %eax
	movl	%eax, -12(%rbp)
	jmp	.LBB25_21
.LBB25_3:                               # %if.else
	movq	input, %rax
	cmpl	$0, 2884(%rax)
	je	.LBB25_6
# %bb.4:                                # %land.lhs.true
	movq	img, %rax
	cmpl	$0, 72600(%rax)
	jne	.LBB25_6
# %bb.5:                                # %if.then4
	vmovsd	.LCPI25_0(%rip), %xmm0  # xmm0 = mem[0],zero
	movq	img, %rax
	vmovsd	72544(%rax), %xmm1      # xmm1 = mem[0],zero
	movq	img, %rax
	vcvtsi2sdl	72620(%rax), %xmm0, %xmm2
	vdivsd	%xmm2, %xmm1, %xmm1
	vdivsd	%xmm0, %xmm1, %xmm0
	vmovsd	%xmm0, CurrentFrameMAD
	jmp	.LBB25_7
.LBB25_6:                               # %if.else7
	movq	img, %rax
	vmovsd	72544(%rax), %xmm0      # xmm0 = mem[0],zero
	movq	img, %rax
	vcvtsi2sdl	72620(%rax), %xmm0, %xmm1
	vdivsd	%xmm1, %xmm0, %xmm0
	vmovsd	%xmm0, CurrentFrameMAD
.LBB25_7:                               # %if.end
	movq	img, %rax
	vxorps	%xmm0, %xmm0, %xmm0
	vmovsd	%xmm0, 72544(%rax)
	movl	TotalNumberofBasicUnit, %eax
	subl	NumberofBasicUnit, %eax
	movl	%eax, CodedBasicUnit
	cmpl	$0, CodedBasicUnit
	jle	.LBB25_12
# %bb.8:                                # %if.then15
	vmovsd	.LCPI25_1(%rip), %xmm0  # xmm0 = mem[0],zero
	vmovsd	.LCPI25_2(%rip), %xmm1  # xmm1 = mem[0],zero
	movl	PAveHeaderBits1, %eax
	movl	CodedBasicUnit, %ecx
	subl	$1, %ecx
	imull	%ecx, %eax
	movq	img, %rcx
	addl	72532(%rcx), %eax
	vcvtsi2sd	%eax, %xmm0, %xmm2
	vmulsd	%xmm2, %xmm1, %xmm1
	vcvtsi2sdl	CodedBasicUnit, %xmm0, %xmm2
	vdivsd	%xmm2, %xmm1, %xmm1
	vaddsd	%xmm0, %xmm1, %xmm0
	vcvttsd2si	%xmm0, %eax
	movl	%eax, PAveHeaderBits1
	cmpl	$0, PAveHeaderBits3
	jne	.LBB25_10
# %bb.9:                                # %if.then25
	movl	PAveHeaderBits1, %eax
	movl	%eax, PAveHeaderBits2
	jmp	.LBB25_11
.LBB25_10:                              # %if.else26
	vmovsd	.LCPI25_1(%rip), %xmm0  # xmm0 = mem[0],zero
	vmovsd	.LCPI25_2(%rip), %xmm1  # xmm1 = mem[0],zero
	movl	PAveHeaderBits1, %eax
	imull	CodedBasicUnit, %eax
	movl	PAveHeaderBits3, %ecx
	imull	NumberofBasicUnit, %ecx
	addl	%ecx, %eax
	vcvtsi2sd	%eax, %xmm0, %xmm2
	vmulsd	%xmm2, %xmm1, %xmm1
	vcvtsi2sdl	TotalNumberofBasicUnit, %xmm0, %xmm2
	vdivsd	%xmm2, %xmm1, %xmm1
	vaddsd	%xmm0, %xmm1, %xmm0
	vcvttsd2si	%xmm0, %eax
	movl	%eax, PAveHeaderBits2
.LBB25_11:                              # %if.end36
	jmp	.LBB25_12
.LBB25_12:                              # %if.end37
	movq	input, %rax
	cmpl	$2, 2880(%rax)
	je	.LBB25_14
# %bb.13:                               # %lor.lhs.false
	movq	input, %rax
	cmpl	$0, 2884(%rax)
	je	.LBB25_16
.LBB25_14:                              # %land.lhs.true42
	movq	img, %rax
	cmpl	$1, 72600(%rax)
	jne	.LBB25_16
# %bb.15:                               # %if.then46
	vmovsd	CurrentFrameMAD, %xmm0  # xmm0 = mem[0],zero
	movq	FCBUCFMAD, %rax
	movl	TotalNumberofBasicUnit, %ecx
	subl	$1, %ecx
	subl	NumberofBasicUnit, %ecx
	movslq	%ecx, %rcx
	vmovsd	%xmm0, (%rax,%rcx,8)
	jmp	.LBB25_17
.LBB25_16:                              # %if.else49
	vmovsd	CurrentFrameMAD, %xmm0  # xmm0 = mem[0],zero
	movq	BUCFMAD, %rax
	movl	TotalNumberofBasicUnit, %ecx
	subl	$1, %ecx
	subl	NumberofBasicUnit, %ecx
	movslq	%ecx, %rcx
	vmovsd	%xmm0, (%rax,%rcx,8)
.LBB25_17:                              # %if.end54
	cmpl	$0, NumberofBasicUnit
	je	.LBB25_19
# %bb.18:                               # %if.then57
	movq	img, %rax
	movl	72564(%rax), %eax
	imull	TotalNumberofBasicUnit, %eax
	addl	CodedBasicUnit, %eax
	movl	%eax, -12(%rbp)
	jmp	.LBB25_20
.LBB25_19:                              # %if.else61
	movq	img, %rax
	movl	72564(%rax), %eax
	subl	$1, %eax
	imull	TotalNumberofBasicUnit, %eax
	addl	CodedBasicUnit, %eax
	movl	%eax, -12(%rbp)
.LBB25_20:                              # %if.end66
	jmp	.LBB25_21
.LBB25_21:                              # %if.end67
	cmpl	$1, -12(%rbp)
	jle	.LBB25_23
# %bb.22:                               # %if.then70
	movl	$1, -16(%rbp)
.LBB25_23:                              # %if.end71
	movq	img, %rax
	movl	72524(%rax), %eax
	movl	%eax, PPreHeader
	movl	$19, -4(%rbp)
.LBB25_24:                              # %for.cond
                                        # =>This Inner Loop Header: Depth=1
	cmpl	$0, -4(%rbp)
	jle	.LBB25_27
# %bb.25:                               # %for.body
                                        #   in Loop: Header=BB25_24 Depth=1
	movl	-4(%rbp), %eax
	subl	$1, %eax
	cltq
	vmovsd	Pm_rgQp(,%rax,8), %xmm0 # xmm0 = mem[0],zero
	movslq	-4(%rbp), %rax
	vmovsd	%xmm0, Pm_rgQp(,%rax,8)
	movslq	-4(%rbp), %rax
	vmovsd	Pm_rgQp(,%rax,8), %xmm0 # xmm0 = mem[0],zero
	movslq	-4(%rbp), %rax
	vmovsd	%xmm0, m_rgQp(,%rax,8)
	movl	-4(%rbp), %eax
	subl	$1, %eax
	cltq
	vmovsd	Pm_rgRp(,%rax,8), %xmm0 # xmm0 = mem[0],zero
	movslq	-4(%rbp), %rax
	vmovsd	%xmm0, Pm_rgRp(,%rax,8)
	movslq	-4(%rbp), %rax
	vmovsd	Pm_rgRp(,%rax,8), %xmm0 # xmm0 = mem[0],zero
	movslq	-4(%rbp), %rax
	vmovsd	%xmm0, m_rgRp(,%rax,8)
# %bb.26:                               # %for.inc
                                        #   in Loop: Header=BB25_24 Depth=1
	movl	-4(%rbp), %eax
	addl	$-1, %eax
	movl	%eax, -4(%rbp)
	jmp	.LBB25_24
.LBB25_27:                              # %for.end
	movl	m_Qc, %edi
	callq	QP2Qstep
	vmovsd	%xmm0, Pm_rgQp
	movq	img, %rax
	movl	72620(%rax), %eax
	movq	img, %rcx
	cmpl	72608(%rcx), %eax
	jne	.LBB25_29
# %bb.28:                               # %if.then97
	vmovsd	.LCPI25_2(%rip), %xmm0  # xmm0 = mem[0],zero
	movq	img, %rax
	vcvtsi2sdl	72528(%rax), %xmm0, %xmm1
	vmulsd	%xmm0, %xmm1, %xmm0
	vdivsd	CurrentFrameMAD, %xmm0, %xmm0
	vmovsd	%xmm0, Pm_rgRp
	jmp	.LBB25_30
.LBB25_29:                              # %if.else101
	vmovsd	.LCPI25_2(%rip), %xmm0  # xmm0 = mem[0],zero
	movq	img, %rax
	vcvtsi2sdl	72536(%rax), %xmm0, %xmm1
	vmulsd	%xmm0, %xmm1, %xmm0
	vdivsd	CurrentFrameMAD, %xmm0, %xmm0
	vmovsd	%xmm0, Pm_rgRp
.LBB25_30:                              # %if.end105
	vmovsd	Pm_rgQp, %xmm0          # xmm0 = mem[0],zero
	vmovsd	%xmm0, m_rgQp
	vmovsd	Pm_rgRp, %xmm0          # xmm0 = mem[0],zero
	vmovsd	%xmm0, m_rgRp
	vmovsd	Pm_X1, %xmm0            # xmm0 = mem[0],zero
	vmovsd	%xmm0, m_X1
	vmovsd	Pm_X2, %xmm0            # xmm0 = mem[0],zero
	vmovsd	%xmm0, m_X2
	vmovsd	CurrentFrameMAD, %xmm0  # xmm0 = mem[0],zero
	vucomisd	PreviousFrameMAD, %xmm0
	jbe	.LBB25_32
# %bb.31:                               # %cond.true
	vmovsd	.LCPI25_3(%rip), %xmm0  # xmm0 = mem[0],zero
	vmovsd	PreviousFrameMAD, %xmm1 # xmm1 = mem[0],zero
	vdivsd	CurrentFrameMAD, %xmm1, %xmm1
	vmulsd	%xmm0, %xmm1, %xmm0
	vcvttsd2si	%xmm0, %eax
	jmp	.LBB25_33
.LBB25_32:                              # %cond.false
	vmovsd	.LCPI25_3(%rip), %xmm0  # xmm0 = mem[0],zero
	vmovsd	CurrentFrameMAD, %xmm1  # xmm1 = mem[0],zero
	vdivsd	PreviousFrameMAD, %xmm1, %xmm1
	vmulsd	%xmm0, %xmm1, %xmm0
	vcvttsd2si	%xmm0, %eax
.LBB25_33:                              # %cond.end
	movl	%eax, -8(%rbp)
	cmpl	$1, -8(%rbp)
	jge	.LBB25_35
# %bb.34:                               # %cond.true116
	movl	$1, %eax
	jmp	.LBB25_36
.LBB25_35:                              # %cond.false117
	movl	-8(%rbp), %eax
.LBB25_36:                              # %cond.end118
	movl	%eax, -8(%rbp)
	movl	-8(%rbp), %eax
	cmpl	-12(%rbp), %eax
	jge	.LBB25_38
# %bb.37:                               # %cond.true122
	movl	-8(%rbp), %eax
	jmp	.LBB25_39
.LBB25_38:                              # %cond.false123
	movl	-12(%rbp), %eax
.LBB25_39:                              # %cond.end124
	movl	%eax, -8(%rbp)
	movl	-8(%rbp), %eax
	movl	m_windowSize, %ecx
	addl	$1, %ecx
	cmpl	%ecx, %eax
	jge	.LBB25_41
# %bb.40:                               # %cond.true129
	movl	-8(%rbp), %eax
	jmp	.LBB25_42
.LBB25_41:                              # %cond.false130
	movl	m_windowSize, %eax
	addl	$1, %eax
.LBB25_42:                              # %cond.end132
	movl	%eax, -8(%rbp)
	cmpl	$20, -8(%rbp)
	jge	.LBB25_44
# %bb.43:                               # %cond.true136
	movl	-8(%rbp), %eax
	jmp	.LBB25_45
.LBB25_44:                              # %cond.false137
	movl	$20, %eax
	jmp	.LBB25_45
.LBB25_45:                              # %cond.end138
	movl	%eax, -8(%rbp)
	movl	-8(%rbp), %eax
	movl	%eax, m_windowSize
	movl	$0, -4(%rbp)
.LBB25_46:                              # %for.cond140
                                        # =>This Inner Loop Header: Depth=1
	cmpl	$20, -4(%rbp)
	jge	.LBB25_49
# %bb.47:                               # %for.body143
                                        #   in Loop: Header=BB25_46 Depth=1
	movslq	-4(%rbp), %rax
	movl	$0, m_rgRejected(,%rax,4)
# %bb.48:                               # %for.inc146
                                        #   in Loop: Header=BB25_46 Depth=1
	movl	-4(%rbp), %eax
	addl	$1, %eax
	movl	%eax, -4(%rbp)
	jmp	.LBB25_46
.LBB25_49:                              # %for.end147
	movl	-8(%rbp), %edi
	callq	RCModelEstimator
	movl	m_windowSize, %eax
	movl	%eax, -8(%rbp)
	movl	$0, -4(%rbp)
.LBB25_50:                              # %for.cond148
                                        # =>This Inner Loop Header: Depth=1
	movl	-4(%rbp), %eax
	cmpl	-8(%rbp), %eax
	jge	.LBB25_53
# %bb.51:                               # %for.body151
                                        #   in Loop: Header=BB25_50 Depth=1
	vmovsd	m_X1, %xmm0             # xmm0 = mem[0],zero
	movslq	-4(%rbp), %rax
	vdivsd	m_rgQp(,%rax,8), %xmm0, %xmm0
	vmovsd	m_X2, %xmm1             # xmm1 = mem[0],zero
	movslq	-4(%rbp), %rax
	vmovsd	m_rgQp(,%rax,8), %xmm2  # xmm2 = mem[0],zero
	movslq	-4(%rbp), %rax
	vmulsd	m_rgQp(,%rax,8), %xmm2, %xmm2
	vdivsd	%xmm2, %xmm1, %xmm1
	vaddsd	%xmm1, %xmm0, %xmm0
	movslq	-4(%rbp), %rax
	vsubsd	m_rgRp(,%rax,8), %xmm0, %xmm0
	movslq	-4(%rbp), %rax
	vmovsd	%xmm0, -208(%rbp,%rax,8)
	movslq	-4(%rbp), %rax
	vmovsd	-208(%rbp,%rax,8), %xmm0 # xmm0 = mem[0],zero
	movslq	-4(%rbp), %rax
	vmulsd	-208(%rbp,%rax,8), %xmm0, %xmm0
	vaddsd	-24(%rbp), %xmm0, %xmm0
	vmovsd	%xmm0, -24(%rbp)
# %bb.52:                               # %for.inc173
                                        #   in Loop: Header=BB25_50 Depth=1
	movl	-4(%rbp), %eax
	addl	$1, %eax
	movl	%eax, -4(%rbp)
	jmp	.LBB25_50
.LBB25_53:                              # %for.end175
	cmpl	$2, -8(%rbp)
	jne	.LBB25_55
# %bb.54:                               # %cond.true178
	vxorps	%xmm0, %xmm0, %xmm0
	jmp	.LBB25_56
.LBB25_55:                              # %cond.false179
	vmovsd	-24(%rbp), %xmm0        # xmm0 = mem[0],zero
	vcvtsi2sdl	-8(%rbp), %xmm0, %xmm1
	vdivsd	%xmm1, %xmm0, %xmm0
	callq	sqrt
.LBB25_56:                              # %cond.end183
	vmovsd	%xmm0, -40(%rbp)
	movl	$0, -4(%rbp)
.LBB25_57:                              # %for.cond185
                                        # =>This Inner Loop Header: Depth=1
	movl	-4(%rbp), %eax
	cmpl	-8(%rbp), %eax
	jge	.LBB25_62
# %bb.58:                               # %for.body188
                                        #   in Loop: Header=BB25_57 Depth=1
	movslq	-4(%rbp), %rax
	vmovsd	-208(%rbp,%rax,8), %xmm0 # xmm0 = mem[0],zero
	vmovdqa	.LCPI25_4(%rip), %xmm1  # xmm1 = [NaN,NaN]
	vpand	%xmm1, %xmm0, %xmm0
	vucomisd	-40(%rbp), %xmm0
	jbe	.LBB25_60
# %bb.59:                               # %if.then193
                                        #   in Loop: Header=BB25_57 Depth=1
	movslq	-4(%rbp), %rax
	movl	$1, m_rgRejected(,%rax,4)
.LBB25_60:                              # %if.end196
                                        #   in Loop: Header=BB25_57 Depth=1
	jmp	.LBB25_61
.LBB25_61:                              # %for.inc197
                                        #   in Loop: Header=BB25_57 Depth=1
	movl	-4(%rbp), %eax
	addl	$1, %eax
	movl	%eax, -4(%rbp)
	jmp	.LBB25_57
.LBB25_62:                              # %for.end199
	movl	$0, m_rgRejected
	movl	-8(%rbp), %edi
	callq	RCModelEstimator
	cmpl	$0, -16(%rbp)
	je	.LBB25_64
# %bb.63:                               # %if.then201
	callq	updateMADModel
	jmp	.LBB25_67
.LBB25_64:                              # %if.else202
	movq	img, %rax
	cmpl	$0, 24(%rax)
	jne	.LBB25_66
# %bb.65:                               # %if.then206
	vmovsd	CurrentFrameMAD, %xmm0  # xmm0 = mem[0],zero
	vmovsd	%xmm0, PPictureMAD
.LBB25_66:                              # %if.end207
	jmp	.LBB25_67
.LBB25_67:                              # %if.end208
	jmp	.LBB25_68
.LBB25_68:                              # %if.end209
	cmpl	$995087636, -28(%rbp)   # imm = 0x3B4FD514
	jne	.LBB25_70
.LBB25_69:
	addq	$208, %rsp
	popq	%rbp
	.cfi_def_cfa %rsp, 8
	retq
.LBB25_70:                              # %func_exit
	.cfi_def_cfa %rbp, 16
	callq	detect_breach
	jmp	.LBB25_69
.Lfunc_end25:
	.size	updateRCModel.9, .Lfunc_end25-updateRCModel.9
	.cfi_endproc
                                        # -- End function
	.section	.rodata.cst8,"aM",@progbits,8
	.p2align	3               # -- Begin function RCModelEstimator.10
.LCPI26_0:
	.quad	4517329193108106637     # double 9.9999999999999995E-7
.LCPI26_2:
	.quad	4607182418800017408     # double 1
	.section	.rodata.cst16,"aM",@progbits,16
	.p2align	4
.LCPI26_1:
	.quad	9223372036854775807     # double NaN
	.quad	9223372036854775807     # double NaN
	.text
	.globl	RCModelEstimator.10
	.p2align	4, 0x90
	.type	RCModelEstimator.10,@function
RCModelEstimator.10:                    # @RCModelEstimator.10
	.cfi_startproc
# %bb.0:                                # %entry
	pushq	%rbp
	.cfi_def_cfa_offset 16
	.cfi_offset %rbp, -16
	movq	%rsp, %rbp
	.cfi_def_cfa_register %rbp
	subq	$96, %rsp
	movl	$590041538, -84(%rbp)   # imm = 0x232B51C2
	movl	%edi, -8(%rbp)
	movl	-8(%rbp), %eax
	movl	%eax, -12(%rbp)
	vxorps	%xmm0, %xmm0, %xmm0
	vmovsd	%xmm0, -32(%rbp)
	vmovsd	%xmm0, -24(%rbp)
	vmovsd	%xmm0, -80(%rbp)
	vmovsd	%xmm0, -64(%rbp)
	vmovsd	%xmm0, -40(%rbp)
	vmovsd	%xmm0, -56(%rbp)
	movl	$0, -44(%rbp)
	movl	$0, -4(%rbp)
.LBB26_1:                               # %for.cond
                                        # =>This Inner Loop Header: Depth=1
	movl	-4(%rbp), %eax
	cmpl	-8(%rbp), %eax
	jge	.LBB26_6
# %bb.2:                                # %for.body
                                        #   in Loop: Header=BB26_1 Depth=1
	movslq	-4(%rbp), %rax
	cmpl	$0, m_rgRejected(,%rax,4)
	je	.LBB26_4
# %bb.3:                                # %if.then
                                        #   in Loop: Header=BB26_1 Depth=1
	movl	-12(%rbp), %eax
	addl	$-1, %eax
	movl	%eax, -12(%rbp)
.LBB26_4:                               # %if.end
                                        #   in Loop: Header=BB26_1 Depth=1
	jmp	.LBB26_5
.LBB26_5:                               # %for.inc
                                        #   in Loop: Header=BB26_1 Depth=1
	movl	-4(%rbp), %eax
	addl	$1, %eax
	movl	%eax, -4(%rbp)
	jmp	.LBB26_1
.LBB26_6:                               # %for.end
	vxorps	%xmm0, %xmm0, %xmm0
	vmovsd	%xmm0, m_X2
	vmovsd	%xmm0, m_X1
	movl	$0, -4(%rbp)
.LBB26_7:                               # %for.cond1
                                        # =>This Inner Loop Header: Depth=1
	movl	-4(%rbp), %eax
	cmpl	-8(%rbp), %eax
	jge	.LBB26_12
# %bb.8:                                # %for.body3
                                        #   in Loop: Header=BB26_7 Depth=1
	movslq	-4(%rbp), %rax
	cmpl	$0, m_rgRejected(,%rax,4)
	jne	.LBB26_10
# %bb.9:                                # %if.then7
                                        #   in Loop: Header=BB26_7 Depth=1
	movslq	-4(%rbp), %rax
	vmovsd	m_rgQp(,%rax,8), %xmm0  # xmm0 = mem[0],zero
	vmovsd	%xmm0, -96(%rbp)
.LBB26_10:                              # %if.end10
                                        #   in Loop: Header=BB26_7 Depth=1
	jmp	.LBB26_11
.LBB26_11:                              # %for.inc11
                                        #   in Loop: Header=BB26_7 Depth=1
	movl	-4(%rbp), %eax
	addl	$1, %eax
	movl	%eax, -4(%rbp)
	jmp	.LBB26_7
.LBB26_12:                              # %for.end13
	movl	$0, -4(%rbp)
.LBB26_13:                              # %for.cond14
                                        # =>This Inner Loop Header: Depth=1
	movl	-4(%rbp), %eax
	cmpl	-8(%rbp), %eax
	jge	.LBB26_21
# %bb.14:                               # %for.body16
                                        #   in Loop: Header=BB26_13 Depth=1
	movslq	-4(%rbp), %rax
	vmovsd	m_rgQp(,%rax,8), %xmm0  # xmm0 = mem[0],zero
	vucomisd	-96(%rbp), %xmm0
	jne	.LBB26_15
	jp	.LBB26_15
	jmp	.LBB26_17
.LBB26_15:                              # %land.lhs.true
                                        #   in Loop: Header=BB26_13 Depth=1
	movslq	-4(%rbp), %rax
	cmpl	$0, m_rgRejected(,%rax,4)
	jne	.LBB26_17
# %bb.16:                               # %if.then23
                                        #   in Loop: Header=BB26_13 Depth=1
	movl	$1, -44(%rbp)
.LBB26_17:                              # %if.end24
                                        #   in Loop: Header=BB26_13 Depth=1
	movslq	-4(%rbp), %rax
	cmpl	$0, m_rgRejected(,%rax,4)
	jne	.LBB26_19
# %bb.18:                               # %if.then28
                                        #   in Loop: Header=BB26_13 Depth=1
	movslq	-4(%rbp), %rax
	vmovsd	m_rgQp(,%rax,8), %xmm0  # xmm0 = mem[0],zero
	movslq	-4(%rbp), %rax
	vmulsd	m_rgRp(,%rax,8), %xmm0, %xmm0
	vcvtsi2sdl	-12(%rbp), %xmm0, %xmm1
	vdivsd	%xmm1, %xmm0, %xmm0
	vaddsd	m_X1, %xmm0, %xmm0
	vmovsd	%xmm0, m_X1
.LBB26_19:                              # %if.end33
                                        #   in Loop: Header=BB26_13 Depth=1
	jmp	.LBB26_20
.LBB26_20:                              # %for.inc34
                                        #   in Loop: Header=BB26_13 Depth=1
	movl	-4(%rbp), %eax
	addl	$1, %eax
	movl	%eax, -4(%rbp)
	jmp	.LBB26_13
.LBB26_21:                              # %for.end36
	cmpl	$1, -12(%rbp)
	jl	.LBB26_33
# %bb.22:                               # %land.lhs.true39
	cmpl	$0, -44(%rbp)
	je	.LBB26_33
# %bb.23:                               # %if.then41
	movl	$0, -4(%rbp)
.LBB26_24:                              # %for.cond42
                                        # =>This Inner Loop Header: Depth=1
	movl	-4(%rbp), %eax
	cmpl	-8(%rbp), %eax
	jge	.LBB26_29
# %bb.25:                               # %for.body45
                                        #   in Loop: Header=BB26_24 Depth=1
	movslq	-4(%rbp), %rax
	cmpl	$0, m_rgRejected(,%rax,4)
	jne	.LBB26_27
# %bb.26:                               # %if.then49
                                        #   in Loop: Header=BB26_24 Depth=1
	vmovsd	.LCPI26_2(%rip), %xmm0  # xmm0 = mem[0],zero
	vaddsd	-32(%rbp), %xmm0, %xmm1
	vmovsd	%xmm1, -32(%rbp)
	movslq	-4(%rbp), %rax
	vdivsd	m_rgQp(,%rax,8), %xmm0, %xmm1
	vaddsd	-24(%rbp), %xmm1, %xmm1
	vmovsd	%xmm1, -24(%rbp)
	vmovsd	-24(%rbp), %xmm1        # xmm1 = mem[0],zero
	vmovsd	%xmm1, -80(%rbp)
	movslq	-4(%rbp), %rax
	vmovsd	m_rgQp(,%rax,8), %xmm1  # xmm1 = mem[0],zero
	movslq	-4(%rbp), %rax
	vmulsd	m_rgQp(,%rax,8), %xmm1, %xmm1
	vdivsd	%xmm1, %xmm0, %xmm0
	vaddsd	-64(%rbp), %xmm0, %xmm0
	vmovsd	%xmm0, -64(%rbp)
	movslq	-4(%rbp), %rax
	vmovsd	m_rgQp(,%rax,8), %xmm0  # xmm0 = mem[0],zero
	movslq	-4(%rbp), %rax
	vmulsd	m_rgRp(,%rax,8), %xmm0, %xmm0
	vaddsd	-40(%rbp), %xmm0, %xmm0
	vmovsd	%xmm0, -40(%rbp)
	movslq	-4(%rbp), %rax
	vmovsd	m_rgRp(,%rax,8), %xmm0  # xmm0 = mem[0],zero
	vaddsd	-56(%rbp), %xmm0, %xmm0
	vmovsd	%xmm0, -56(%rbp)
.LBB26_27:                              # %if.end71
                                        #   in Loop: Header=BB26_24 Depth=1
	jmp	.LBB26_28
.LBB26_28:                              # %for.inc72
                                        #   in Loop: Header=BB26_24 Depth=1
	movl	-4(%rbp), %eax
	addl	$1, %eax
	movl	%eax, -4(%rbp)
	jmp	.LBB26_24
.LBB26_29:                              # %for.end74
	vmovsd	.LCPI26_0(%rip), %xmm0  # xmm0 = mem[0],zero
	vmovsd	-32(%rbp), %xmm1        # xmm1 = mem[0],zero
	vmulsd	-64(%rbp), %xmm1, %xmm1
	vmovsd	-24(%rbp), %xmm2        # xmm2 = mem[0],zero
	vmulsd	-80(%rbp), %xmm2, %xmm2
	vsubsd	%xmm2, %xmm1, %xmm1
	vmovsd	%xmm1, -72(%rbp)
	vmovsd	-72(%rbp), %xmm1        # xmm1 = mem[0],zero
	vmovdqa	.LCPI26_1(%rip), %xmm2  # xmm2 = [NaN,NaN]
	vpand	%xmm2, %xmm1, %xmm1
	vucomisd	%xmm0, %xmm1
	jbe	.LBB26_31
# %bb.30:                               # %if.then79
	vmovsd	-40(%rbp), %xmm0        # xmm0 = mem[0],zero
	vmulsd	-64(%rbp), %xmm0, %xmm0
	vmovsd	-56(%rbp), %xmm1        # xmm1 = mem[0],zero
	vmulsd	-24(%rbp), %xmm1, %xmm1
	vsubsd	%xmm1, %xmm0, %xmm0
	vdivsd	-72(%rbp), %xmm0, %xmm0
	vmovsd	%xmm0, m_X1
	vmovsd	-56(%rbp), %xmm0        # xmm0 = mem[0],zero
	vmulsd	-32(%rbp), %xmm0, %xmm0
	vmovsd	-40(%rbp), %xmm1        # xmm1 = mem[0],zero
	vmulsd	-80(%rbp), %xmm1, %xmm1
	vsubsd	%xmm1, %xmm0, %xmm0
	vdivsd	-72(%rbp), %xmm0, %xmm0
	vmovsd	%xmm0, m_X2
	jmp	.LBB26_32
.LBB26_31:                              # %if.else
	vmovsd	-40(%rbp), %xmm0        # xmm0 = mem[0],zero
	vdivsd	-32(%rbp), %xmm0, %xmm0
	vmovsd	%xmm0, m_X1
	vxorps	%xmm0, %xmm0, %xmm0
	vmovsd	%xmm0, m_X2
.LBB26_32:                              # %if.end89
	jmp	.LBB26_33
.LBB26_33:                              # %if.end90
	movq	img, %rax
	cmpl	$0, 24(%rax)
	jne	.LBB26_35
# %bb.34:                               # %if.then93
	vmovsd	m_X1, %xmm0             # xmm0 = mem[0],zero
	vmovsd	%xmm0, Pm_X1
	vmovsd	m_X2, %xmm0             # xmm0 = mem[0],zero
	vmovsd	%xmm0, Pm_X2
.LBB26_35:                              # %if.end94
	cmpl	$590041538, -84(%rbp)   # imm = 0x232B51C2
	jne	.LBB26_37
.LBB26_36:
	addq	$96, %rsp
	popq	%rbp
	.cfi_def_cfa %rsp, 8
	retq
.LBB26_37:                              # %func_exit
	.cfi_def_cfa %rbp, 16
	callq	detect_breach
	jmp	.LBB26_36
.Lfunc_end26:
	.size	RCModelEstimator.10, .Lfunc_end26-RCModelEstimator.10
	.cfi_endproc
                                        # -- End function
	.section	.rodata.cst8,"aM",@progbits,8
	.p2align	3               # -- Begin function MADModelEstimator.11
.LCPI27_0:
	.quad	4517329193108106637     # double 9.9999999999999995E-7
.LCPI27_2:
	.quad	4607182418800017408     # double 1
	.section	.rodata.cst16,"aM",@progbits,16
	.p2align	4
.LCPI27_1:
	.quad	9223372036854775807     # double NaN
	.quad	9223372036854775807     # double NaN
	.text
	.globl	MADModelEstimator.11
	.p2align	4, 0x90
	.type	MADModelEstimator.11,@function
MADModelEstimator.11:                   # @MADModelEstimator.11
	.cfi_startproc
# %bb.0:                                # %entry
	pushq	%rbp
	.cfi_def_cfa_offset 16
	.cfi_offset %rbp, -16
	movq	%rsp, %rbp
	.cfi_def_cfa_register %rbp
	subq	$96, %rsp
	movl	$2071661363, -84(%rbp)  # imm = 0x7B7B0B33
	movl	%edi, -8(%rbp)
	movl	-8(%rbp), %eax
	movl	%eax, -12(%rbp)
	vxorps	%xmm0, %xmm0, %xmm0
	vmovsd	%xmm0, -56(%rbp)
	vmovsd	%xmm0, -24(%rbp)
	vmovsd	%xmm0, -80(%rbp)
	vmovsd	%xmm0, -48(%rbp)
	vmovsd	%xmm0, -32(%rbp)
	vmovsd	%xmm0, -64(%rbp)
	movl	$0, -36(%rbp)
	movl	$0, -4(%rbp)
.LBB27_1:                               # %for.cond
                                        # =>This Inner Loop Header: Depth=1
	movl	-4(%rbp), %eax
	cmpl	-8(%rbp), %eax
	jge	.LBB27_6
# %bb.2:                                # %for.body
                                        #   in Loop: Header=BB27_1 Depth=1
	movslq	-4(%rbp), %rax
	cmpl	$0, PictureRejected(,%rax,4)
	je	.LBB27_4
# %bb.3:                                # %if.then
                                        #   in Loop: Header=BB27_1 Depth=1
	movl	-12(%rbp), %eax
	addl	$-1, %eax
	movl	%eax, -12(%rbp)
.LBB27_4:                               # %if.end
                                        #   in Loop: Header=BB27_1 Depth=1
	jmp	.LBB27_5
.LBB27_5:                               # %for.inc
                                        #   in Loop: Header=BB27_1 Depth=1
	movl	-4(%rbp), %eax
	addl	$1, %eax
	movl	%eax, -4(%rbp)
	jmp	.LBB27_1
.LBB27_6:                               # %for.end
	vxorps	%xmm0, %xmm0, %xmm0
	vmovsd	%xmm0, MADPictureC2
	vmovsd	%xmm0, MADPictureC1
	movl	$0, -4(%rbp)
.LBB27_7:                               # %for.cond1
                                        # =>This Inner Loop Header: Depth=1
	movl	-4(%rbp), %eax
	cmpl	-8(%rbp), %eax
	jge	.LBB27_12
# %bb.8:                                # %for.body3
                                        #   in Loop: Header=BB27_7 Depth=1
	movslq	-4(%rbp), %rax
	cmpl	$0, PictureRejected(,%rax,4)
	jne	.LBB27_10
# %bb.9:                                # %if.then7
                                        #   in Loop: Header=BB27_7 Depth=1
	movslq	-4(%rbp), %rax
	vmovsd	PictureMAD(,%rax,8), %xmm0 # xmm0 = mem[0],zero
	vmovsd	%xmm0, -96(%rbp)
.LBB27_10:                              # %if.end10
                                        #   in Loop: Header=BB27_7 Depth=1
	jmp	.LBB27_11
.LBB27_11:                              # %for.inc11
                                        #   in Loop: Header=BB27_7 Depth=1
	movl	-4(%rbp), %eax
	addl	$1, %eax
	movl	%eax, -4(%rbp)
	jmp	.LBB27_7
.LBB27_12:                              # %for.end13
	movl	$0, -4(%rbp)
.LBB27_13:                              # %for.cond14
                                        # =>This Inner Loop Header: Depth=1
	movl	-4(%rbp), %eax
	cmpl	-8(%rbp), %eax
	jge	.LBB27_21
# %bb.14:                               # %for.body16
                                        #   in Loop: Header=BB27_13 Depth=1
	movslq	-4(%rbp), %rax
	vmovsd	PictureMAD(,%rax,8), %xmm0 # xmm0 = mem[0],zero
	vucomisd	-96(%rbp), %xmm0
	jne	.LBB27_15
	jp	.LBB27_15
	jmp	.LBB27_17
.LBB27_15:                              # %land.lhs.true
                                        #   in Loop: Header=BB27_13 Depth=1
	movslq	-4(%rbp), %rax
	cmpl	$0, PictureRejected(,%rax,4)
	jne	.LBB27_17
# %bb.16:                               # %if.then23
                                        #   in Loop: Header=BB27_13 Depth=1
	movl	$1, -36(%rbp)
.LBB27_17:                              # %if.end24
                                        #   in Loop: Header=BB27_13 Depth=1
	movslq	-4(%rbp), %rax
	cmpl	$0, PictureRejected(,%rax,4)
	jne	.LBB27_19
# %bb.18:                               # %if.then28
                                        #   in Loop: Header=BB27_13 Depth=1
	movslq	-4(%rbp), %rax
	vmovsd	PictureMAD(,%rax,8), %xmm0 # xmm0 = mem[0],zero
	movslq	-4(%rbp), %rax
	vmovsd	ReferenceMAD(,%rax,8), %xmm1 # xmm1 = mem[0],zero
	vcvtsi2sdl	-12(%rbp), %xmm0, %xmm2
	vmulsd	%xmm2, %xmm1, %xmm1
	vdivsd	%xmm1, %xmm0, %xmm0
	vaddsd	MADPictureC1, %xmm0, %xmm0
	vmovsd	%xmm0, MADPictureC1
.LBB27_19:                              # %if.end33
                                        #   in Loop: Header=BB27_13 Depth=1
	jmp	.LBB27_20
.LBB27_20:                              # %for.inc34
                                        #   in Loop: Header=BB27_13 Depth=1
	movl	-4(%rbp), %eax
	addl	$1, %eax
	movl	%eax, -4(%rbp)
	jmp	.LBB27_13
.LBB27_21:                              # %for.end36
	cmpl	$1, -12(%rbp)
	jl	.LBB27_33
# %bb.22:                               # %land.lhs.true39
	cmpl	$0, -36(%rbp)
	je	.LBB27_33
# %bb.23:                               # %if.then41
	movl	$0, -4(%rbp)
.LBB27_24:                              # %for.cond42
                                        # =>This Inner Loop Header: Depth=1
	movl	-4(%rbp), %eax
	cmpl	-8(%rbp), %eax
	jge	.LBB27_29
# %bb.25:                               # %for.body45
                                        #   in Loop: Header=BB27_24 Depth=1
	movslq	-4(%rbp), %rax
	cmpl	$0, PictureRejected(,%rax,4)
	jne	.LBB27_27
# %bb.26:                               # %if.then49
                                        #   in Loop: Header=BB27_24 Depth=1
	vmovsd	.LCPI27_2(%rip), %xmm0  # xmm0 = mem[0],zero
	vaddsd	-56(%rbp), %xmm0, %xmm0
	vmovsd	%xmm0, -56(%rbp)
	movslq	-4(%rbp), %rax
	vmovsd	ReferenceMAD(,%rax,8), %xmm0 # xmm0 = mem[0],zero
	vaddsd	-24(%rbp), %xmm0, %xmm0
	vmovsd	%xmm0, -24(%rbp)
	vmovsd	-24(%rbp), %xmm0        # xmm0 = mem[0],zero
	vmovsd	%xmm0, -80(%rbp)
	movslq	-4(%rbp), %rax
	vmovsd	ReferenceMAD(,%rax,8), %xmm0 # xmm0 = mem[0],zero
	movslq	-4(%rbp), %rax
	vmulsd	ReferenceMAD(,%rax,8), %xmm0, %xmm0
	vaddsd	-48(%rbp), %xmm0, %xmm0
	vmovsd	%xmm0, -48(%rbp)
	movslq	-4(%rbp), %rax
	vmovsd	PictureMAD(,%rax,8), %xmm0 # xmm0 = mem[0],zero
	vaddsd	-32(%rbp), %xmm0, %xmm0
	vmovsd	%xmm0, -32(%rbp)
	movslq	-4(%rbp), %rax
	vmovsd	PictureMAD(,%rax,8), %xmm0 # xmm0 = mem[0],zero
	movslq	-4(%rbp), %rax
	vmulsd	ReferenceMAD(,%rax,8), %xmm0, %xmm0
	vaddsd	-64(%rbp), %xmm0, %xmm0
	vmovsd	%xmm0, -64(%rbp)
.LBB27_27:                              # %if.end69
                                        #   in Loop: Header=BB27_24 Depth=1
	jmp	.LBB27_28
.LBB27_28:                              # %for.inc70
                                        #   in Loop: Header=BB27_24 Depth=1
	movl	-4(%rbp), %eax
	addl	$1, %eax
	movl	%eax, -4(%rbp)
	jmp	.LBB27_24
.LBB27_29:                              # %for.end72
	vmovsd	.LCPI27_0(%rip), %xmm0  # xmm0 = mem[0],zero
	vmovsd	-56(%rbp), %xmm1        # xmm1 = mem[0],zero
	vmulsd	-48(%rbp), %xmm1, %xmm1
	vmovsd	-24(%rbp), %xmm2        # xmm2 = mem[0],zero
	vmulsd	-80(%rbp), %xmm2, %xmm2
	vsubsd	%xmm2, %xmm1, %xmm1
	vmovsd	%xmm1, -72(%rbp)
	vmovsd	-72(%rbp), %xmm1        # xmm1 = mem[0],zero
	vmovdqa	.LCPI27_1(%rip), %xmm2  # xmm2 = [NaN,NaN]
	vpand	%xmm2, %xmm1, %xmm1
	vucomisd	%xmm0, %xmm1
	jbe	.LBB27_31
# %bb.30:                               # %if.then77
	vmovsd	-32(%rbp), %xmm0        # xmm0 = mem[0],zero
	vmulsd	-48(%rbp), %xmm0, %xmm0
	vmovsd	-64(%rbp), %xmm1        # xmm1 = mem[0],zero
	vmulsd	-24(%rbp), %xmm1, %xmm1
	vsubsd	%xmm1, %xmm0, %xmm0
	vdivsd	-72(%rbp), %xmm0, %xmm0
	vmovsd	%xmm0, MADPictureC2
	vmovsd	-64(%rbp), %xmm0        # xmm0 = mem[0],zero
	vmulsd	-56(%rbp), %xmm0, %xmm0
	vmovsd	-32(%rbp), %xmm1        # xmm1 = mem[0],zero
	vmulsd	-80(%rbp), %xmm1, %xmm1
	vsubsd	%xmm1, %xmm0, %xmm0
	vdivsd	-72(%rbp), %xmm0, %xmm0
	vmovsd	%xmm0, MADPictureC1
	jmp	.LBB27_32
.LBB27_31:                              # %if.else
	vmovsd	-32(%rbp), %xmm0        # xmm0 = mem[0],zero
	vdivsd	-24(%rbp), %xmm0, %xmm0
	vmovsd	%xmm0, MADPictureC1
	vxorps	%xmm0, %xmm0, %xmm0
	vmovsd	%xmm0, MADPictureC2
.LBB27_32:                              # %if.end87
	jmp	.LBB27_33
.LBB27_33:                              # %if.end88
	movq	img, %rax
	cmpl	$0, 24(%rax)
	jne	.LBB27_35
# %bb.34:                               # %if.then91
	vmovsd	MADPictureC1, %xmm0     # xmm0 = mem[0],zero
	vmovsd	%xmm0, PMADPictureC1
	vmovsd	MADPictureC2, %xmm0     # xmm0 = mem[0],zero
	vmovsd	%xmm0, PMADPictureC2
.LBB27_35:                              # %if.end92
	cmpl	$2071661363, -84(%rbp)  # imm = 0x7B7B0B33
	jne	.LBB27_37
.LBB27_36:
	addq	$96, %rsp
	popq	%rbp
	.cfi_def_cfa %rsp, 8
	retq
.LBB27_37:                              # %func_exit
	.cfi_def_cfa %rbp, 16
	callq	detect_breach
	jmp	.LBB27_36
.Lfunc_end27:
	.size	MADModelEstimator.11, .Lfunc_end27-MADModelEstimator.11
	.cfi_endproc
                                        # -- End function
	.section	.rodata.cst8,"aM",@progbits,8
	.p2align	3               # -- Begin function MADModelEstimator.12
.LCPI28_0:
	.quad	4517329193108106637     # double 9.9999999999999995E-7
.LCPI28_2:
	.quad	4607182418800017408     # double 1
	.section	.rodata.cst16,"aM",@progbits,16
	.p2align	4
.LCPI28_1:
	.quad	9223372036854775807     # double NaN
	.quad	9223372036854775807     # double NaN
	.text
	.globl	MADModelEstimator.12
	.p2align	4, 0x90
	.type	MADModelEstimator.12,@function
MADModelEstimator.12:                   # @MADModelEstimator.12
	.cfi_startproc
# %bb.0:                                # %entry
	pushq	%rbp
	.cfi_def_cfa_offset 16
	.cfi_offset %rbp, -16
	movq	%rsp, %rbp
	.cfi_def_cfa_register %rbp
	subq	$96, %rsp
	movl	$1331324813, -84(%rbp)  # imm = 0x4F5A678D
	movl	%edi, -8(%rbp)
	movl	-8(%rbp), %eax
	movl	%eax, -12(%rbp)
	vxorps	%xmm0, %xmm0, %xmm0
	vmovsd	%xmm0, -64(%rbp)
	vmovsd	%xmm0, -24(%rbp)
	vmovsd	%xmm0, -80(%rbp)
	vmovsd	%xmm0, -56(%rbp)
	vmovsd	%xmm0, -32(%rbp)
	vmovsd	%xmm0, -48(%rbp)
	movl	$0, -36(%rbp)
	movl	$0, -4(%rbp)
.LBB28_1:                               # %for.cond
                                        # =>This Inner Loop Header: Depth=1
	movl	-4(%rbp), %eax
	cmpl	-8(%rbp), %eax
	jge	.LBB28_6
# %bb.2:                                # %for.body
                                        #   in Loop: Header=BB28_1 Depth=1
	movslq	-4(%rbp), %rax
	cmpl	$0, PictureRejected(,%rax,4)
	je	.LBB28_4
# %bb.3:                                # %if.then
                                        #   in Loop: Header=BB28_1 Depth=1
	movl	-12(%rbp), %eax
	addl	$-1, %eax
	movl	%eax, -12(%rbp)
.LBB28_4:                               # %if.end
                                        #   in Loop: Header=BB28_1 Depth=1
	jmp	.LBB28_5
.LBB28_5:                               # %for.inc
                                        #   in Loop: Header=BB28_1 Depth=1
	movl	-4(%rbp), %eax
	addl	$1, %eax
	movl	%eax, -4(%rbp)
	jmp	.LBB28_1
.LBB28_6:                               # %for.end
	vxorps	%xmm0, %xmm0, %xmm0
	vmovsd	%xmm0, MADPictureC2
	vmovsd	%xmm0, MADPictureC1
	movl	$0, -4(%rbp)
.LBB28_7:                               # %for.cond1
                                        # =>This Inner Loop Header: Depth=1
	movl	-4(%rbp), %eax
	cmpl	-8(%rbp), %eax
	jge	.LBB28_12
# %bb.8:                                # %for.body3
                                        #   in Loop: Header=BB28_7 Depth=1
	movslq	-4(%rbp), %rax
	cmpl	$0, PictureRejected(,%rax,4)
	jne	.LBB28_10
# %bb.9:                                # %if.then7
                                        #   in Loop: Header=BB28_7 Depth=1
	movslq	-4(%rbp), %rax
	vmovsd	PictureMAD(,%rax,8), %xmm0 # xmm0 = mem[0],zero
	vmovsd	%xmm0, -96(%rbp)
.LBB28_10:                              # %if.end10
                                        #   in Loop: Header=BB28_7 Depth=1
	jmp	.LBB28_11
.LBB28_11:                              # %for.inc11
                                        #   in Loop: Header=BB28_7 Depth=1
	movl	-4(%rbp), %eax
	addl	$1, %eax
	movl	%eax, -4(%rbp)
	jmp	.LBB28_7
.LBB28_12:                              # %for.end13
	movl	$0, -4(%rbp)
.LBB28_13:                              # %for.cond14
                                        # =>This Inner Loop Header: Depth=1
	movl	-4(%rbp), %eax
	cmpl	-8(%rbp), %eax
	jge	.LBB28_21
# %bb.14:                               # %for.body16
                                        #   in Loop: Header=BB28_13 Depth=1
	movslq	-4(%rbp), %rax
	vmovsd	PictureMAD(,%rax,8), %xmm0 # xmm0 = mem[0],zero
	vucomisd	-96(%rbp), %xmm0
	jne	.LBB28_15
	jp	.LBB28_15
	jmp	.LBB28_17
.LBB28_15:                              # %land.lhs.true
                                        #   in Loop: Header=BB28_13 Depth=1
	movslq	-4(%rbp), %rax
	cmpl	$0, PictureRejected(,%rax,4)
	jne	.LBB28_17
# %bb.16:                               # %if.then23
                                        #   in Loop: Header=BB28_13 Depth=1
	movl	$1, -36(%rbp)
.LBB28_17:                              # %if.end24
                                        #   in Loop: Header=BB28_13 Depth=1
	movslq	-4(%rbp), %rax
	cmpl	$0, PictureRejected(,%rax,4)
	jne	.LBB28_19
# %bb.18:                               # %if.then28
                                        #   in Loop: Header=BB28_13 Depth=1
	movslq	-4(%rbp), %rax
	vmovsd	PictureMAD(,%rax,8), %xmm0 # xmm0 = mem[0],zero
	movslq	-4(%rbp), %rax
	vmovsd	ReferenceMAD(,%rax,8), %xmm1 # xmm1 = mem[0],zero
	vcvtsi2sdl	-12(%rbp), %xmm0, %xmm2
	vmulsd	%xmm2, %xmm1, %xmm1
	vdivsd	%xmm1, %xmm0, %xmm0
	vaddsd	MADPictureC1, %xmm0, %xmm0
	vmovsd	%xmm0, MADPictureC1
.LBB28_19:                              # %if.end33
                                        #   in Loop: Header=BB28_13 Depth=1
	jmp	.LBB28_20
.LBB28_20:                              # %for.inc34
                                        #   in Loop: Header=BB28_13 Depth=1
	movl	-4(%rbp), %eax
	addl	$1, %eax
	movl	%eax, -4(%rbp)
	jmp	.LBB28_13
.LBB28_21:                              # %for.end36
	cmpl	$1, -12(%rbp)
	jl	.LBB28_33
# %bb.22:                               # %land.lhs.true39
	cmpl	$0, -36(%rbp)
	je	.LBB28_33
# %bb.23:                               # %if.then41
	movl	$0, -4(%rbp)
.LBB28_24:                              # %for.cond42
                                        # =>This Inner Loop Header: Depth=1
	movl	-4(%rbp), %eax
	cmpl	-8(%rbp), %eax
	jge	.LBB28_29
# %bb.25:                               # %for.body45
                                        #   in Loop: Header=BB28_24 Depth=1
	movslq	-4(%rbp), %rax
	cmpl	$0, PictureRejected(,%rax,4)
	jne	.LBB28_27
# %bb.26:                               # %if.then49
                                        #   in Loop: Header=BB28_24 Depth=1
	vmovsd	.LCPI28_2(%rip), %xmm0  # xmm0 = mem[0],zero
	vaddsd	-64(%rbp), %xmm0, %xmm0
	vmovsd	%xmm0, -64(%rbp)
	movslq	-4(%rbp), %rax
	vmovsd	ReferenceMAD(,%rax,8), %xmm0 # xmm0 = mem[0],zero
	vaddsd	-24(%rbp), %xmm0, %xmm0
	vmovsd	%xmm0, -24(%rbp)
	vmovsd	-24(%rbp), %xmm0        # xmm0 = mem[0],zero
	vmovsd	%xmm0, -80(%rbp)
	movslq	-4(%rbp), %rax
	vmovsd	ReferenceMAD(,%rax,8), %xmm0 # xmm0 = mem[0],zero
	movslq	-4(%rbp), %rax
	vmulsd	ReferenceMAD(,%rax,8), %xmm0, %xmm0
	vaddsd	-56(%rbp), %xmm0, %xmm0
	vmovsd	%xmm0, -56(%rbp)
	movslq	-4(%rbp), %rax
	vmovsd	PictureMAD(,%rax,8), %xmm0 # xmm0 = mem[0],zero
	vaddsd	-32(%rbp), %xmm0, %xmm0
	vmovsd	%xmm0, -32(%rbp)
	movslq	-4(%rbp), %rax
	vmovsd	PictureMAD(,%rax,8), %xmm0 # xmm0 = mem[0],zero
	movslq	-4(%rbp), %rax
	vmulsd	ReferenceMAD(,%rax,8), %xmm0, %xmm0
	vaddsd	-48(%rbp), %xmm0, %xmm0
	vmovsd	%xmm0, -48(%rbp)
.LBB28_27:                              # %if.end69
                                        #   in Loop: Header=BB28_24 Depth=1
	jmp	.LBB28_28
.LBB28_28:                              # %for.inc70
                                        #   in Loop: Header=BB28_24 Depth=1
	movl	-4(%rbp), %eax
	addl	$1, %eax
	movl	%eax, -4(%rbp)
	jmp	.LBB28_24
.LBB28_29:                              # %for.end72
	vmovsd	.LCPI28_0(%rip), %xmm0  # xmm0 = mem[0],zero
	vmovsd	-64(%rbp), %xmm1        # xmm1 = mem[0],zero
	vmulsd	-56(%rbp), %xmm1, %xmm1
	vmovsd	-24(%rbp), %xmm2        # xmm2 = mem[0],zero
	vmulsd	-80(%rbp), %xmm2, %xmm2
	vsubsd	%xmm2, %xmm1, %xmm1
	vmovsd	%xmm1, -72(%rbp)
	vmovsd	-72(%rbp), %xmm1        # xmm1 = mem[0],zero
	vmovdqa	.LCPI28_1(%rip), %xmm2  # xmm2 = [NaN,NaN]
	vpand	%xmm2, %xmm1, %xmm1
	vucomisd	%xmm0, %xmm1
	jbe	.LBB28_31
# %bb.30:                               # %if.then77
	vmovsd	-32(%rbp), %xmm0        # xmm0 = mem[0],zero
	vmulsd	-56(%rbp), %xmm0, %xmm0
	vmovsd	-48(%rbp), %xmm1        # xmm1 = mem[0],zero
	vmulsd	-24(%rbp), %xmm1, %xmm1
	vsubsd	%xmm1, %xmm0, %xmm0
	vdivsd	-72(%rbp), %xmm0, %xmm0
	vmovsd	%xmm0, MADPictureC2
	vmovsd	-48(%rbp), %xmm0        # xmm0 = mem[0],zero
	vmulsd	-64(%rbp), %xmm0, %xmm0
	vmovsd	-32(%rbp), %xmm1        # xmm1 = mem[0],zero
	vmulsd	-80(%rbp), %xmm1, %xmm1
	vsubsd	%xmm1, %xmm0, %xmm0
	vdivsd	-72(%rbp), %xmm0, %xmm0
	vmovsd	%xmm0, MADPictureC1
	jmp	.LBB28_32
.LBB28_31:                              # %if.else
	vmovsd	-32(%rbp), %xmm0        # xmm0 = mem[0],zero
	vdivsd	-24(%rbp), %xmm0, %xmm0
	vmovsd	%xmm0, MADPictureC1
	vxorps	%xmm0, %xmm0, %xmm0
	vmovsd	%xmm0, MADPictureC2
.LBB28_32:                              # %if.end87
	jmp	.LBB28_33
.LBB28_33:                              # %if.end88
	movq	img, %rax
	cmpl	$0, 24(%rax)
	jne	.LBB28_35
# %bb.34:                               # %if.then91
	vmovsd	MADPictureC1, %xmm0     # xmm0 = mem[0],zero
	vmovsd	%xmm0, PMADPictureC1
	vmovsd	MADPictureC2, %xmm0     # xmm0 = mem[0],zero
	vmovsd	%xmm0, PMADPictureC2
.LBB28_35:                              # %if.end92
	cmpl	$1331324813, -84(%rbp)  # imm = 0x4F5A678D
	jne	.LBB28_37
.LBB28_36:
	addq	$96, %rsp
	popq	%rbp
	.cfi_def_cfa %rsp, 8
	retq
.LBB28_37:                              # %func_exit
	.cfi_def_cfa %rbp, 16
	callq	detect_breach
	jmp	.LBB28_36
.Lfunc_end28:
	.size	MADModelEstimator.12, .Lfunc_end28-MADModelEstimator.12
	.cfi_endproc
                                        # -- End function
	.section	.rodata.cst8,"aM",@progbits,8
	.p2align	3               # -- Begin function updateQuantizationParameter.13
.LCPI29_0:
	.quad	4616189618054758400     # double 4
.LCPI29_1:
	.quad	4611686018427387904     # double 2
.LCPI29_2:
	.quad	4602678819172646912     # double 0.5
.LCPI29_3:
	.quad	4607182418800017408     # double 1
	.text
	.globl	updateQuantizationParameter.13
	.p2align	4, 0x90
	.type	updateQuantizationParameter.13,@function
updateQuantizationParameter.13:         # @updateQuantizationParameter.13
	.cfi_startproc
# %bb.0:                                # %entry
	pushq	%rbp
	.cfi_def_cfa_offset 16
	.cfi_offset %rbp, -16
	movq	%rsp, %rbp
	.cfi_def_cfa_register %rbp
	pushq	%rbx
	subq	$72, %rsp
	.cfi_offset %rbx, -24
	movl	$563021561, -56(%rbp)   # imm = 0x218F06F9
	movl	%edi, -36(%rbp)
	movq	img, %rax
	movl	72620(%rax), %eax
	movq	img, %rcx
	cmpl	72608(%rcx), %eax
	jne	.LBB29_123
# %bb.1:                                # %if.then
	cmpl	$0, -36(%rbp)
	jne	.LBB29_3
# %bb.2:                                # %lor.lhs.false
	movq	img, %rax
	cmpl	$0, 72600(%rax)
	jne	.LBB29_116
.LBB29_3:                               # %if.then2
	movq	img, %rax
	cmpl	$2, 24(%rax)
	jne	.LBB29_5
# %bb.4:                                # %if.then4
	movl	MyInitialQp, %eax
	movl	%eax, m_Qc
	movl	m_Qc, %eax
	movl	%eax, -20(%rbp)
	jmp	.LBB29_363
.LBB29_5:                               # %if.else
	movq	img, %rax
	cmpl	$1, 24(%rax)
	jne	.LBB29_69
# %bb.6:                                # %if.then7
	movq	input, %rax
	cmpl	$1, 1236(%rax)
	jne	.LBB29_25
# %bb.7:                                # %if.then9
	movq	input, %rax
	cmpl	$2, 2880(%rax)
	je	.LBB29_9
# %bb.8:                                # %lor.lhs.false11
	movq	input, %rax
	cmpl	$0, 2884(%rax)
	je	.LBB29_15
.LBB29_9:                               # %if.then13
	movq	img, %rax
	cmpl	$0, 72600(%rax)
	jne	.LBB29_14
# %bb.10:                               # %if.then16
	movq	img, %rax
	cmpl	$1, 72604(%rax)
	jne	.LBB29_12
# %bb.11:                               # %if.then18
	movl	PreviousQp2, %eax
	movl	%eax, PreviousQp1
	movl	FrameQPBuffer, %eax
	movl	%eax, PreviousQp2
	jmp	.LBB29_13
.LBB29_12:                              # %if.else19
	movl	PreviousQp2, %eax
	movl	%eax, PreviousQp1
	movl	FieldQPBuffer, %eax
	movl	%eax, PreviousQp2
.LBB29_13:                              # %if.end
	jmp	.LBB29_14
.LBB29_14:                              # %if.end20
	jmp	.LBB29_15
.LBB29_15:                              # %if.end21
	movl	PreviousQp1, %eax
	cmpl	PreviousQp2, %eax
	jne	.LBB29_17
# %bb.16:                               # %if.then23
	movl	PreviousQp1, %eax
	addl	$2, %eax
	movl	%eax, m_Qc
	jmp	.LBB29_18
.LBB29_17:                              # %if.else24
	movl	PreviousQp1, %eax
	addl	PreviousQp2, %eax
	cltd
	movl	$2, %ecx
	idivl	%ecx
	addl	$1, %eax
	movl	%eax, m_Qc
.LBB29_18:                              # %if.end27
	movl	m_Qc, %eax
	cmpl	RC_MAX_QUANT, %eax
	jge	.LBB29_20
# %bb.19:                               # %cond.true
	movl	m_Qc, %eax
	jmp	.LBB29_21
.LBB29_20:                              # %cond.false
	movl	RC_MAX_QUANT, %eax
.LBB29_21:                              # %cond.end
	movl	%eax, m_Qc
	movl	RC_MIN_QUANT, %eax
	cmpl	m_Qc, %eax
	jge	.LBB29_23
# %bb.22:                               # %cond.true30
	movl	m_Qc, %eax
	jmp	.LBB29_24
.LBB29_23:                              # %cond.false31
	movl	RC_MIN_QUANT, %eax
.LBB29_24:                              # %cond.end32
	movl	%eax, m_Qc
	jmp	.LBB29_68
.LBB29_25:                              # %if.else34
	movl	NumberofBFrames, %eax
	addl	$1, %eax
	movq	input, %rcx
	cltd
	idivl	1236(%rcx)
	movl	%edx, -12(%rbp)
	cmpl	$0, -12(%rbp)
	jne	.LBB29_27
# %bb.26:                               # %if.then38
	movq	input, %rax
	movl	1236(%rax), %eax
	movl	%eax, -12(%rbp)
.LBB29_27:                              # %if.end40
	cmpl	$1, -12(%rbp)
	jne	.LBB29_37
# %bb.28:                               # %if.then42
	movq	input, %rax
	cmpl	$2, 2880(%rax)
	je	.LBB29_30
# %bb.29:                               # %lor.lhs.false45
	movq	input, %rax
	cmpl	$0, 2884(%rax)
	je	.LBB29_36
.LBB29_30:                              # %if.then48
	movq	img, %rax
	cmpl	$0, 72600(%rax)
	jne	.LBB29_35
# %bb.31:                               # %if.then51
	movq	img, %rax
	cmpl	$1, 72604(%rax)
	jne	.LBB29_33
# %bb.32:                               # %if.then54
	movl	PreviousQp2, %eax
	movl	%eax, PreviousQp1
	movl	FrameQPBuffer, %eax
	movl	%eax, PreviousQp2
	jmp	.LBB29_34
.LBB29_33:                              # %if.else55
	movl	PreviousQp2, %eax
	movl	%eax, PreviousQp1
	movl	FieldQPBuffer, %eax
	movl	%eax, PreviousQp2
.LBB29_34:                              # %if.end56
	jmp	.LBB29_35
.LBB29_35:                              # %if.end57
	jmp	.LBB29_36
.LBB29_36:                              # %if.end58
	jmp	.LBB29_37
.LBB29_37:                              # %if.end59
	movl	PreviousQp2, %eax
	subl	PreviousQp1, %eax
	movq	input, %rcx
	imull	$4294967294, 1236(%rcx), %ecx # imm = 0xFFFFFFFE
	subl	$3, %ecx
	cmpl	%ecx, %eax
	jg	.LBB29_39
# %bb.38:                               # %if.then63
	movl	$-3, -28(%rbp)
	jmp	.LBB29_52
.LBB29_39:                              # %if.else64
	movl	PreviousQp2, %eax
	subl	PreviousQp1, %eax
	movq	input, %rcx
	imull	$4294967294, 1236(%rcx), %ecx # imm = 0xFFFFFFFE
	subl	$2, %ecx
	cmpl	%ecx, %eax
	jne	.LBB29_41
# %bb.40:                               # %if.then70
	movl	$-2, -28(%rbp)
	jmp	.LBB29_51
.LBB29_41:                              # %if.else71
	movl	PreviousQp2, %eax
	subl	PreviousQp1, %eax
	movq	input, %rcx
	imull	$4294967294, 1236(%rcx), %ecx # imm = 0xFFFFFFFE
	subl	$1, %ecx
	cmpl	%ecx, %eax
	jne	.LBB29_43
# %bb.42:                               # %if.then77
	movl	$-1, -28(%rbp)
	jmp	.LBB29_50
.LBB29_43:                              # %if.else78
	movl	PreviousQp2, %eax
	subl	PreviousQp1, %eax
	movq	input, %rcx
	imull	$4294967294, 1236(%rcx), %ecx # imm = 0xFFFFFFFE
	cmpl	%ecx, %eax
	jne	.LBB29_45
# %bb.44:                               # %if.then83
	movl	$0, -28(%rbp)
	jmp	.LBB29_49
.LBB29_45:                              # %if.else84
	movl	PreviousQp2, %eax
	subl	PreviousQp1, %eax
	movq	input, %rcx
	imull	$4294967294, 1236(%rcx), %ecx # imm = 0xFFFFFFFE
	addl	$1, %ecx
	cmpl	%ecx, %eax
	jne	.LBB29_47
# %bb.46:                               # %if.then90
	movl	$1, -28(%rbp)
	jmp	.LBB29_48
.LBB29_47:                              # %if.else91
	movl	$2, -28(%rbp)
.LBB29_48:                              # %if.end92
	jmp	.LBB29_49
.LBB29_49:                              # %if.end93
	jmp	.LBB29_50
.LBB29_50:                              # %if.end94
	jmp	.LBB29_51
.LBB29_51:                              # %if.end95
	jmp	.LBB29_52
.LBB29_52:                              # %if.end96
	movl	PreviousQp1, %eax
	addl	-28(%rbp), %eax
	movl	%eax, m_Qc
	movl	-12(%rbp), %ecx
	subl	$1, %ecx
	shll	$1, %ecx
	movl	-12(%rbp), %eax
	subl	$1, %eax
	imull	$4294967294, %eax, %esi # imm = 0xFFFFFFFE
	movl	-12(%rbp), %eax
	subl	$1, %eax
	movl	PreviousQp2, %edx
	subl	PreviousQp1, %edx
	imull	%edx, %eax
	movq	input, %rdx
	movl	1236(%rdx), %edi
	subl	$1, %edi
	cltd
	idivl	%edi
	cmpl	%eax, %esi
	jge	.LBB29_54
# %bb.53:                               # %cond.true109
	movl	-12(%rbp), %eax
	subl	$1, %eax
	movl	PreviousQp2, %edx
	subl	PreviousQp1, %edx
	imull	%edx, %eax
	movq	input, %rdx
	movl	1236(%rdx), %esi
	subl	$1, %esi
	cltd
	idivl	%esi
	jmp	.LBB29_55
.LBB29_54:                              # %cond.false116
	movl	-12(%rbp), %eax
	subl	$1, %eax
	imull	$4294967294, %eax, %eax # imm = 0xFFFFFFFE
.LBB29_55:                              # %cond.end119
	cmpl	%eax, %ecx
	jge	.LBB29_57
# %bb.56:                               # %cond.true122
	movl	-12(%rbp), %eax
	subl	$1, %eax
	shll	$1, %eax
	jmp	.LBB29_61
.LBB29_57:                              # %cond.false125
	movl	-12(%rbp), %eax
	subl	$1, %eax
	imull	$4294967294, %eax, %ecx # imm = 0xFFFFFFFE
	movl	-12(%rbp), %eax
	subl	$1, %eax
	movl	PreviousQp2, %edx
	subl	PreviousQp1, %edx
	imull	%edx, %eax
	movq	input, %rdx
	movl	1236(%rdx), %esi
	subl	$1, %esi
	cltd
	idivl	%esi
	cmpl	%eax, %ecx
	jge	.LBB29_59
# %bb.58:                               # %cond.true135
	movl	-12(%rbp), %eax
	subl	$1, %eax
	movl	PreviousQp2, %ecx
	subl	PreviousQp1, %ecx
	imull	%ecx, %eax
	movq	input, %rcx
	movl	1236(%rcx), %ecx
	subl	$1, %ecx
	cltd
	idivl	%ecx
	jmp	.LBB29_60
.LBB29_59:                              # %cond.false142
	movl	-12(%rbp), %eax
	subl	$1, %eax
	imull	$4294967294, %eax, %eax # imm = 0xFFFFFFFE
.LBB29_60:                              # %cond.end145
.LBB29_61:                              # %cond.end147
	addl	m_Qc, %eax
	movl	%eax, m_Qc
	movl	m_Qc, %eax
	cmpl	RC_MAX_QUANT, %eax
	jge	.LBB29_63
# %bb.62:                               # %cond.true151
	movl	m_Qc, %eax
	jmp	.LBB29_64
.LBB29_63:                              # %cond.false152
	movl	RC_MAX_QUANT, %eax
.LBB29_64:                              # %cond.end153
	movl	%eax, m_Qc
	movl	RC_MIN_QUANT, %eax
	cmpl	m_Qc, %eax
	jge	.LBB29_66
# %bb.65:                               # %cond.true156
	movl	m_Qc, %eax
	jmp	.LBB29_67
.LBB29_66:                              # %cond.false157
	movl	RC_MIN_QUANT, %eax
.LBB29_67:                              # %cond.end158
	movl	%eax, m_Qc
.LBB29_68:                              # %if.end160
	movl	m_Qc, %eax
	movl	%eax, -20(%rbp)
	jmp	.LBB29_363
.LBB29_69:                              # %if.else161
	movq	img, %rax
	cmpl	$0, 24(%rax)
	jne	.LBB29_77
# %bb.70:                               # %land.lhs.true
	movq	img, %rax
	cmpl	$0, 72576(%rax)
	jne	.LBB29_77
# %bb.71:                               # %if.then165
	movl	MyInitialQp, %eax
	movl	%eax, m_Qc
	movq	img, %rax
	cmpl	$0, 72600(%rax)
	jne	.LBB29_76
# %bb.72:                               # %if.then168
	movq	active_sps, %rax
	cmpl	$0, 1148(%rax)
	je	.LBB29_74
# %bb.73:                               # %if.then170
	movl	m_Qc, %eax
	movq	img, %rcx
	addl	72572(%rcx), %eax
	movl	%eax, 72572(%rcx)
	movl	PreviousQp2, %eax
	movl	%eax, PreviousQp1
	movl	m_Qc, %eax
	movl	%eax, PreviousQp2
	movl	m_Qc, %eax
	movl	%eax, Pm_Qp
	jmp	.LBB29_75
.LBB29_74:                              # %if.else172
	movl	m_Qc, %eax
	movl	%eax, FrameQPBuffer
.LBB29_75:                              # %if.end173
	jmp	.LBB29_76
.LBB29_76:                              # %if.end174
	movl	m_Qc, %eax
	movl	%eax, -20(%rbp)
	jmp	.LBB29_363
.LBB29_77:                              # %if.else175
	movq	input, %rax
	cmpl	$2, 2880(%rax)
	je	.LBB29_79
# %bb.78:                               # %lor.lhs.false178
	movq	input, %rax
	cmpl	$0, 2884(%rax)
	je	.LBB29_84
.LBB29_79:                              # %land.lhs.true181
	movq	img, %rax
	cmpl	$0, 72600(%rax)
	jne	.LBB29_84
# %bb.80:                               # %if.then184
	movq	img, %rax
	cmpl	$1, 72604(%rax)
	jne	.LBB29_82
# %bb.81:                               # %if.then187
	movl	FrameQPBuffer, %eax
	movq	img, %rcx
	addl	72572(%rcx), %eax
	movl	%eax, 72572(%rcx)
	movl	FrameQPBuffer, %eax
	movl	%eax, Pm_Qp
	jmp	.LBB29_83
.LBB29_82:                              # %if.else190
	movl	FieldQPBuffer, %eax
	movq	img, %rcx
	addl	72572(%rcx), %eax
	movl	%eax, 72572(%rcx)
	movl	FieldQPBuffer, %eax
	movl	%eax, Pm_Qp
.LBB29_83:                              # %if.end193
	jmp	.LBB29_84
.LBB29_84:                              # %if.end194
	vmovsd	Pm_X1, %xmm0            # xmm0 = mem[0],zero
	vmovsd	%xmm0, m_X1
	vmovsd	Pm_X2, %xmm0            # xmm0 = mem[0],zero
	vmovsd	%xmm0, m_X2
	movl	PPreHeader, %eax
	movl	%eax, m_Hp
	movl	Pm_Qp, %eax
	movl	%eax, m_Qp
	movl	PDuantQp, %eax
	movl	%eax, DuantQp
	vmovsd	PMADPictureC1, %xmm0    # xmm0 = mem[0],zero
	vmovsd	%xmm0, MADPictureC1
	vmovsd	PMADPictureC2, %xmm0    # xmm0 = mem[0],zero
	vmovsd	%xmm0, MADPictureC2
	vmovsd	PPictureMAD, %xmm0      # xmm0 = mem[0],zero
	vmovsd	%xmm0, PreviousPictureMAD
	vmovsd	MADPictureC1, %xmm0     # xmm0 = mem[0],zero
	vmulsd	PreviousPictureMAD, %xmm0, %xmm0
	vaddsd	MADPictureC2, %xmm0, %xmm0
	vmovsd	%xmm0, CurrentFrameMAD
	cmpq	$0, T
	jge	.LBB29_89
# %bb.85:                               # %if.then198
	movl	m_Qp, %eax
	addl	DuantQp, %eax
	movl	%eax, m_Qc
	movl	m_Qc, %eax
	cmpl	RC_MAX_QUANT, %eax
	jge	.LBB29_87
# %bb.86:                               # %cond.true201
	movl	m_Qc, %eax
	jmp	.LBB29_88
.LBB29_87:                              # %cond.false202
	movl	RC_MAX_QUANT, %eax
.LBB29_88:                              # %cond.end203
	movl	%eax, m_Qc
	jmp	.LBB29_110
.LBB29_89:                              # %if.else205
	movq	T, %rax
	movslq	m_Hp, %rcx
	subq	%rcx, %rax
	movl	%eax, -24(%rbp)
	movl	-24(%rbp), %eax
	vmovsd	bit_rate, %xmm0         # xmm0 = mem[0],zero
	vmovsd	MINVALUE, %xmm1         # xmm1 = mem[0],zero
	vmulsd	frame_rate, %xmm1, %xmm1
	vdivsd	%xmm1, %xmm0, %xmm0
	vcvttsd2si	%xmm0, %ecx
	cmpl	%ecx, %eax
	jge	.LBB29_91
# %bb.90:                               # %cond.true213
	vmovsd	bit_rate, %xmm0         # xmm0 = mem[0],zero
	vmovsd	MINVALUE, %xmm1         # xmm1 = mem[0],zero
	vmulsd	frame_rate, %xmm1, %xmm1
	vdivsd	%xmm1, %xmm0, %xmm0
	vcvttsd2si	%xmm0, %eax
	jmp	.LBB29_92
.LBB29_91:                              # %cond.false217
	movl	-24(%rbp), %eax
.LBB29_92:                              # %cond.end218
	vmovsd	.LCPI29_0(%rip), %xmm0  # xmm0 = mem[0],zero
	movl	%eax, -24(%rbp)
	vmovsd	CurrentFrameMAD, %xmm1  # xmm1 = mem[0],zero
	vmulsd	m_X1, %xmm1, %xmm1
	vmulsd	CurrentFrameMAD, %xmm1, %xmm1
	vmulsd	m_X1, %xmm1, %xmm1
	vmulsd	m_X2, %xmm0, %xmm0
	vmulsd	CurrentFrameMAD, %xmm0, %xmm0
	vcvtsi2sdl	-24(%rbp), %xmm0, %xmm2
	vmulsd	%xmm2, %xmm0, %xmm0
	vaddsd	%xmm0, %xmm1, %xmm0
	vmovsd	%xmm0, -48(%rbp)
	vmovsd	m_X2, %xmm0             # xmm0 = mem[0],zero
	vxorps	%xmm1, %xmm1, %xmm1
	vucomisd	%xmm1, %xmm0
	jne	.LBB29_93
	jp	.LBB29_93
	jmp	.LBB29_95
.LBB29_93:                              # %lor.lhs.false230
	vxorps	%xmm0, %xmm0, %xmm0
	vucomisd	-48(%rbp), %xmm0
	ja	.LBB29_95
# %bb.94:                               # %lor.lhs.false233
	vmovsd	-48(%rbp), %xmm0        # xmm0 = mem[0],zero
	callq	sqrt
	vmovsd	m_X1, %xmm1             # xmm1 = mem[0],zero
	vmulsd	CurrentFrameMAD, %xmm1, %xmm1
	vsubsd	%xmm1, %xmm0, %xmm0
	vxorps	%xmm1, %xmm1, %xmm1
	vucomisd	%xmm0, %xmm1
	jb	.LBB29_96
.LBB29_95:                              # %if.then238
	vmovsd	m_X1, %xmm0             # xmm0 = mem[0],zero
	vmulsd	CurrentFrameMAD, %xmm0, %xmm0
	vcvtsi2sdl	-24(%rbp), %xmm0, %xmm1
	vdivsd	%xmm1, %xmm0, %xmm0
	vcvtsd2ss	%xmm0, %xmm0, %xmm0
	vcvtss2sd	%xmm0, %xmm0, %xmm0
	vmovsd	%xmm0, m_Qstep
	jmp	.LBB29_97
.LBB29_96:                              # %if.else244
	vmovsd	.LCPI29_1(%rip), %xmm0  # xmm0 = mem[0],zero
	vmulsd	m_X2, %xmm0, %xmm0
	vmulsd	CurrentFrameMAD, %xmm0, %xmm0
	vmovsd	%xmm0, -64(%rbp)        # 8-byte Spill
	vmovsd	-48(%rbp), %xmm0        # xmm0 = mem[0],zero
	callq	sqrt
	vmovsd	m_X1, %xmm1             # xmm1 = mem[0],zero
	vmulsd	CurrentFrameMAD, %xmm1, %xmm1
	vsubsd	%xmm1, %xmm0, %xmm0
	vmovsd	-64(%rbp), %xmm1        # 8-byte Reload
                                        # xmm1 = mem[0],zero
	vdivsd	%xmm0, %xmm1, %xmm0
	vcvtsd2ss	%xmm0, %xmm0, %xmm0
	vcvtss2sd	%xmm0, %xmm0, %xmm0
	vmovsd	%xmm0, m_Qstep
.LBB29_97:                              # %if.end253
	vmovsd	m_Qstep, %xmm0          # xmm0 = mem[0],zero
	callq	Qstep2QP
	movl	%eax, m_Qc
	movl	m_Qp, %eax
	addl	DuantQp, %eax
	cmpl	m_Qc, %eax
	jge	.LBB29_99
# %bb.98:                               # %cond.true258
	movl	m_Qp, %eax
	addl	DuantQp, %eax
	jmp	.LBB29_100
.LBB29_99:                              # %cond.false260
	movl	m_Qc, %eax
.LBB29_100:                             # %cond.end261
	movl	%eax, m_Qc
	movl	m_Qc, %eax
	cmpl	RC_MAX_QUANT, %eax
	jge	.LBB29_102
# %bb.101:                              # %cond.true265
	movl	m_Qc, %eax
	jmp	.LBB29_103
.LBB29_102:                             # %cond.false266
	movl	RC_MAX_QUANT, %eax
.LBB29_103:                             # %cond.end267
	movl	%eax, m_Qc
	movl	m_Qp, %eax
	subl	DuantQp, %eax
	cmpl	m_Qc, %eax
	jge	.LBB29_105
# %bb.104:                              # %cond.true272
	movl	m_Qc, %eax
	jmp	.LBB29_106
.LBB29_105:                             # %cond.false273
	movl	m_Qp, %eax
	subl	DuantQp, %eax
.LBB29_106:                             # %cond.end275
	movl	%eax, m_Qc
	movl	RC_MIN_QUANT, %eax
	cmpl	m_Qc, %eax
	jge	.LBB29_108
# %bb.107:                              # %cond.true279
	movl	m_Qc, %eax
	jmp	.LBB29_109
.LBB29_108:                             # %cond.false280
	movl	RC_MIN_QUANT, %eax
.LBB29_109:                             # %cond.end281
	movl	%eax, m_Qc
.LBB29_110:                             # %if.end283
	movq	img, %rax
	cmpl	$0, 72600(%rax)
	jne	.LBB29_115
# %bb.111:                              # %if.then287
	movq	active_sps, %rax
	cmpl	$0, 1148(%rax)
	je	.LBB29_113
# %bb.112:                              # %if.then290
	movl	m_Qc, %eax
	movq	img, %rcx
	addl	72572(%rcx), %eax
	movl	%eax, 72572(%rcx)
	movl	PreviousQp2, %eax
	movl	%eax, PreviousQp1
	movl	m_Qc, %eax
	movl	%eax, PreviousQp2
	movl	m_Qc, %eax
	movl	%eax, Pm_Qp
	jmp	.LBB29_114
.LBB29_113:                             # %if.else293
	movl	m_Qc, %eax
	movl	%eax, FrameQPBuffer
.LBB29_114:                             # %if.end294
	jmp	.LBB29_115
.LBB29_115:                             # %if.end295
	movl	m_Qc, %eax
	movl	%eax, -20(%rbp)
	jmp	.LBB29_363
.LBB29_116:                             # %if.else296
	movq	img, %rax
	cmpl	$0, 24(%rax)
	jne	.LBB29_122
# %bb.117:                              # %land.lhs.true300
	movq	img, %rax
	cmpl	$0, 72612(%rax)
	jne	.LBB29_122
# %bb.118:                              # %if.then303
	movq	input, %rax
	cmpl	$1, 2880(%rax)
	jne	.LBB29_120
# %bb.119:                              # %if.then307
	movl	m_Qc, %eax
	movq	img, %rcx
	addl	72572(%rcx), %eax
	movl	%eax, 72572(%rcx)
	movl	PreviousQp2, %eax
	addl	$1, %eax
	movl	%eax, PreviousQp1
	movl	m_Qc, %eax
	movl	%eax, PreviousQp2
	movl	m_Qc, %eax
	movl	%eax, Pm_Qp
	jmp	.LBB29_121
.LBB29_120:                             # %if.else311
	movl	m_Qc, %eax
	movl	%eax, FieldQPBuffer
.LBB29_121:                             # %if.end312
	jmp	.LBB29_122
.LBB29_122:                             # %if.end313
	movl	m_Qc, %eax
	movl	%eax, -20(%rbp)
	jmp	.LBB29_363
.LBB29_123:                             # %if.else314
	movq	img, %rax
	cmpl	$2, 24(%rax)
	jne	.LBB29_125
# %bb.124:                              # %if.then318
	movl	MyInitialQp, %eax
	movl	%eax, m_Qc
	movl	m_Qc, %eax
	movl	%eax, -20(%rbp)
	jmp	.LBB29_363
.LBB29_125:                             # %if.else319
	movq	img, %rax
	cmpl	$0, 24(%rax)
	jne	.LBB29_129
# %bb.126:                              # %land.lhs.true323
	movq	img, %rax
	cmpl	$1, 72612(%rax)
	jne	.LBB29_129
# %bb.127:                              # %land.lhs.true327
	movq	img, %rax
	cmpl	$1, 72600(%rax)
	jne	.LBB29_129
# %bb.128:                              # %if.then331
	movl	MyInitialQp, %eax
	movl	%eax, m_Qc
	movl	m_Qc, %eax
	movl	%eax, -20(%rbp)
	jmp	.LBB29_363
.LBB29_129:                             # %if.else332
	movq	img, %rax
	cmpl	$1, 24(%rax)
	jne	.LBB29_196
# %bb.130:                              # %if.then336
	cmpl	$0, -36(%rbp)
	jne	.LBB29_132
# %bb.131:                              # %lor.lhs.false338
	movq	img, %rax
	cmpl	$0, 72600(%rax)
	jne	.LBB29_195
.LBB29_132:                             # %if.then342
	movq	input, %rax
	cmpl	$1, 1236(%rax)
	jne	.LBB29_151
# %bb.133:                              # %if.then346
	movq	input, %rax
	cmpl	$2, 2880(%rax)
	je	.LBB29_135
# %bb.134:                              # %lor.lhs.false350
	movq	input, %rax
	cmpl	$0, 2884(%rax)
	je	.LBB29_141
.LBB29_135:                             # %if.then353
	movq	img, %rax
	cmpl	$0, 72600(%rax)
	jne	.LBB29_140
# %bb.136:                              # %if.then357
	movq	img, %rax
	cmpl	$1, 72604(%rax)
	jne	.LBB29_138
# %bb.137:                              # %if.then361
	movl	PreviousQp2, %eax
	movl	%eax, PreviousQp1
	movl	FrameQPBuffer, %eax
	movl	%eax, PreviousQp2
	jmp	.LBB29_139
.LBB29_138:                             # %if.else362
	movl	PreviousQp2, %eax
	movl	%eax, PreviousQp1
	movl	FieldQPBuffer, %eax
	movl	%eax, PreviousQp2
.LBB29_139:                             # %if.end363
	jmp	.LBB29_140
.LBB29_140:                             # %if.end364
	jmp	.LBB29_141
.LBB29_141:                             # %if.end365
	movl	PreviousQp1, %eax
	cmpl	PreviousQp2, %eax
	jne	.LBB29_143
# %bb.142:                              # %if.then368
	movl	PreviousQp1, %eax
	addl	$2, %eax
	movl	%eax, m_Qc
	jmp	.LBB29_144
.LBB29_143:                             # %if.else370
	movl	PreviousQp1, %eax
	addl	PreviousQp2, %eax
	cltd
	movl	$2, %ecx
	idivl	%ecx
	addl	$1, %eax
	movl	%eax, m_Qc
.LBB29_144:                             # %if.end374
	movl	m_Qc, %eax
	cmpl	RC_MAX_QUANT, %eax
	jge	.LBB29_146
# %bb.145:                              # %cond.true377
	movl	m_Qc, %eax
	jmp	.LBB29_147
.LBB29_146:                             # %cond.false378
	movl	RC_MAX_QUANT, %eax
.LBB29_147:                             # %cond.end379
	movl	%eax, m_Qc
	movl	RC_MIN_QUANT, %eax
	cmpl	m_Qc, %eax
	jge	.LBB29_149
# %bb.148:                              # %cond.true383
	movl	m_Qc, %eax
	jmp	.LBB29_150
.LBB29_149:                             # %cond.false384
	movl	RC_MIN_QUANT, %eax
.LBB29_150:                             # %cond.end385
	movl	%eax, m_Qc
	jmp	.LBB29_194
.LBB29_151:                             # %if.else387
	movl	NumberofBFrames, %eax
	addl	$1, %eax
	movq	input, %rcx
	cltd
	idivl	1236(%rcx)
	movl	%edx, -12(%rbp)
	cmpl	$0, -12(%rbp)
	jne	.LBB29_153
# %bb.152:                              # %if.then393
	movq	input, %rax
	movl	1236(%rax), %eax
	movl	%eax, -12(%rbp)
.LBB29_153:                             # %if.end395
	cmpl	$1, -12(%rbp)
	jne	.LBB29_163
# %bb.154:                              # %if.then398
	movq	input, %rax
	cmpl	$2, 2880(%rax)
	je	.LBB29_156
# %bb.155:                              # %lor.lhs.false402
	movq	input, %rax
	cmpl	$0, 2884(%rax)
	je	.LBB29_162
.LBB29_156:                             # %if.then405
	movq	img, %rax
	cmpl	$0, 72600(%rax)
	jne	.LBB29_161
# %bb.157:                              # %if.then409
	movq	img, %rax
	cmpl	$1, 72604(%rax)
	jne	.LBB29_159
# %bb.158:                              # %if.then413
	movl	PreviousQp2, %eax
	movl	%eax, PreviousQp1
	movl	FrameQPBuffer, %eax
	movl	%eax, PreviousQp2
	jmp	.LBB29_160
.LBB29_159:                             # %if.else414
	movl	PreviousQp2, %eax
	movl	%eax, PreviousQp1
	movl	FieldQPBuffer, %eax
	movl	%eax, PreviousQp2
.LBB29_160:                             # %if.end415
	jmp	.LBB29_161
.LBB29_161:                             # %if.end416
	jmp	.LBB29_162
.LBB29_162:                             # %if.end417
	jmp	.LBB29_163
.LBB29_163:                             # %if.end418
	movl	PreviousQp2, %eax
	subl	PreviousQp1, %eax
	movq	input, %rcx
	imull	$4294967294, 1236(%rcx), %ecx # imm = 0xFFFFFFFE
	subl	$3, %ecx
	cmpl	%ecx, %eax
	jg	.LBB29_165
# %bb.164:                              # %if.then425
	movl	$-3, -28(%rbp)
	jmp	.LBB29_178
.LBB29_165:                             # %if.else426
	movl	PreviousQp2, %eax
	subl	PreviousQp1, %eax
	movq	input, %rcx
	imull	$4294967294, 1236(%rcx), %ecx # imm = 0xFFFFFFFE
	subl	$2, %ecx
	cmpl	%ecx, %eax
	jne	.LBB29_167
# %bb.166:                              # %if.then433
	movl	$-2, -28(%rbp)
	jmp	.LBB29_177
.LBB29_167:                             # %if.else434
	movl	PreviousQp2, %eax
	subl	PreviousQp1, %eax
	movq	input, %rcx
	imull	$4294967294, 1236(%rcx), %ecx # imm = 0xFFFFFFFE
	subl	$1, %ecx
	cmpl	%ecx, %eax
	jne	.LBB29_169
# %bb.168:                              # %if.then441
	movl	$-1, -28(%rbp)
	jmp	.LBB29_176
.LBB29_169:                             # %if.else442
	movl	PreviousQp2, %eax
	subl	PreviousQp1, %eax
	movq	input, %rcx
	imull	$4294967294, 1236(%rcx), %ecx # imm = 0xFFFFFFFE
	cmpl	%ecx, %eax
	jne	.LBB29_171
# %bb.170:                              # %if.then448
	movl	$0, -28(%rbp)
	jmp	.LBB29_175
.LBB29_171:                             # %if.else449
	movl	PreviousQp2, %eax
	subl	PreviousQp1, %eax
	movq	input, %rcx
	imull	$4294967294, 1236(%rcx), %ecx # imm = 0xFFFFFFFE
	addl	$1, %ecx
	cmpl	%ecx, %eax
	jne	.LBB29_173
# %bb.172:                              # %if.then456
	movl	$1, -28(%rbp)
	jmp	.LBB29_174
.LBB29_173:                             # %if.else457
	movl	$2, -28(%rbp)
.LBB29_174:                             # %if.end458
	jmp	.LBB29_175
.LBB29_175:                             # %if.end459
	jmp	.LBB29_176
.LBB29_176:                             # %if.end460
	jmp	.LBB29_177
.LBB29_177:                             # %if.end461
	jmp	.LBB29_178
.LBB29_178:                             # %if.end462
	movl	PreviousQp1, %eax
	addl	-28(%rbp), %eax
	movl	%eax, m_Qc
	movl	-12(%rbp), %ecx
	subl	$1, %ecx
	shll	$1, %ecx
	movl	-12(%rbp), %eax
	subl	$1, %eax
	imull	$4294967294, %eax, %esi # imm = 0xFFFFFFFE
	movl	-12(%rbp), %eax
	subl	$1, %eax
	movl	PreviousQp2, %edx
	subl	PreviousQp1, %edx
	imull	%edx, %eax
	movq	input, %rdx
	movl	1236(%rdx), %edi
	subl	$1, %edi
	cltd
	idivl	%edi
	cmpl	%eax, %esi
	jge	.LBB29_180
# %bb.179:                              # %cond.true476
	movl	-12(%rbp), %eax
	subl	$1, %eax
	movl	PreviousQp2, %edx
	subl	PreviousQp1, %edx
	imull	%edx, %eax
	movq	input, %rdx
	movl	1236(%rdx), %esi
	subl	$1, %esi
	cltd
	idivl	%esi
	jmp	.LBB29_181
.LBB29_180:                             # %cond.false483
	movl	-12(%rbp), %eax
	subl	$1, %eax
	imull	$4294967294, %eax, %eax # imm = 0xFFFFFFFE
.LBB29_181:                             # %cond.end486
	cmpl	%eax, %ecx
	jge	.LBB29_183
# %bb.182:                              # %cond.true490
	movl	-12(%rbp), %eax
	subl	$1, %eax
	shll	$1, %eax
	jmp	.LBB29_187
.LBB29_183:                             # %cond.false493
	movl	-12(%rbp), %eax
	subl	$1, %eax
	imull	$4294967294, %eax, %ecx # imm = 0xFFFFFFFE
	movl	-12(%rbp), %eax
	subl	$1, %eax
	movl	PreviousQp2, %edx
	subl	PreviousQp1, %edx
	imull	%edx, %eax
	movq	input, %rdx
	movl	1236(%rdx), %esi
	subl	$1, %esi
	cltd
	idivl	%esi
	cmpl	%eax, %ecx
	jge	.LBB29_185
# %bb.184:                              # %cond.true504
	movl	-12(%rbp), %eax
	subl	$1, %eax
	movl	PreviousQp2, %ecx
	subl	PreviousQp1, %ecx
	imull	%ecx, %eax
	movq	input, %rcx
	movl	1236(%rcx), %ecx
	subl	$1, %ecx
	cltd
	idivl	%ecx
	jmp	.LBB29_186
.LBB29_185:                             # %cond.false511
	movl	-12(%rbp), %eax
	subl	$1, %eax
	imull	$4294967294, %eax, %eax # imm = 0xFFFFFFFE
.LBB29_186:                             # %cond.end514
.LBB29_187:                             # %cond.end516
	addl	m_Qc, %eax
	movl	%eax, m_Qc
	movl	m_Qc, %eax
	cmpl	RC_MAX_QUANT, %eax
	jge	.LBB29_189
# %bb.188:                              # %cond.true521
	movl	m_Qc, %eax
	jmp	.LBB29_190
.LBB29_189:                             # %cond.false522
	movl	RC_MAX_QUANT, %eax
.LBB29_190:                             # %cond.end523
	movl	%eax, m_Qc
	movl	RC_MIN_QUANT, %eax
	cmpl	m_Qc, %eax
	jge	.LBB29_192
# %bb.191:                              # %cond.true527
	movl	m_Qc, %eax
	jmp	.LBB29_193
.LBB29_192:                             # %cond.false528
	movl	RC_MIN_QUANT, %eax
.LBB29_193:                             # %cond.end529
	movl	%eax, m_Qc
.LBB29_194:                             # %if.end531
	movl	m_Qc, %eax
	movl	%eax, -20(%rbp)
	jmp	.LBB29_363
.LBB29_195:                             # %if.else532
	movl	m_Qc, %eax
	movl	%eax, -20(%rbp)
	jmp	.LBB29_363
.LBB29_196:                             # %if.else533
	movq	img, %rax
	cmpl	$0, 24(%rax)
	jne	.LBB29_358
# %bb.197:                              # %if.then537
	movq	img, %rax
	cmpl	$1, 72568(%rax)
	jne	.LBB29_217
# %bb.198:                              # %land.lhs.true540
	movq	img, %rax
	cmpl	$0, 72576(%rax)
	jne	.LBB29_217
# %bb.199:                              # %if.then544
	movq	img, %rax
	cmpl	$0, 72600(%rax)
	je	.LBB29_202
# %bb.200:                              # %lor.lhs.false548
	movq	img, %rax
	cmpl	$1, 72600(%rax)
	jne	.LBB29_216
# %bb.201:                              # %land.lhs.true552
	movq	img, %rax
	cmpl	$0, 72612(%rax)
	jne	.LBB29_216
.LBB29_202:                             # %if.then556
	movl	MyInitialQp, %eax
	movl	%eax, m_Qc
	movq	img, %rax
	movl	$0, 72532(%rax)
	movq	img, %rax
	movl	$0, 72536(%rax)
	movl	NumberofBasicUnit, %eax
	addl	$-1, %eax
	movl	%eax, NumberofBasicUnit
	cmpl	$0, -36(%rbp)
	jne	.LBB29_215
# %bb.203:                              # %land.lhs.true558
	cmpl	$0, NumberofBasicUnit
	jne	.LBB29_215
# %bb.204:                              # %if.then561
	movq	active_sps, %rax
	cmpl	$0, 1148(%rax)
	jne	.LBB29_206
# %bb.205:                              # %lor.lhs.false564
	movq	input, %rax
	cmpl	$1, 2880(%rax)
	jne	.LBB29_207
.LBB29_206:                             # %if.then568
	movl	m_Qc, %eax
	movq	img, %rcx
	addl	72572(%rcx), %eax
	movl	%eax, 72572(%rcx)
	movl	PreviousQp2, %eax
	movl	%eax, PreviousQp1
	movl	m_Qc, %eax
	movl	%eax, PreviousQp2
	movl	m_Qc, %eax
	movl	%eax, PAveFrameQP
	movl	PAveHeaderBits2, %eax
	movl	%eax, PAveHeaderBits3
	jmp	.LBB29_214
.LBB29_207:                             # %if.else571
	movq	input, %rax
	cmpl	$2, 2880(%rax)
	je	.LBB29_209
# %bb.208:                              # %lor.lhs.false575
	movq	input, %rax
	cmpl	$0, 2884(%rax)
	je	.LBB29_213
.LBB29_209:                             # %if.then578
	movq	img, %rax
	cmpl	$0, 72600(%rax)
	jne	.LBB29_211
# %bb.210:                              # %if.then582
	movl	m_Qc, %eax
	movl	%eax, FrameQPBuffer
	movl	PAveHeaderBits2, %eax
	movl	%eax, FrameAveHeaderBits
	jmp	.LBB29_212
.LBB29_211:                             # %if.else583
	movl	m_Qc, %eax
	movl	%eax, FieldQPBuffer
	movl	PAveHeaderBits2, %eax
	movl	%eax, FieldAveHeaderBits
.LBB29_212:                             # %if.end584
	jmp	.LBB29_213
.LBB29_213:                             # %if.end585
	jmp	.LBB29_214
.LBB29_214:                             # %if.end586
	jmp	.LBB29_215
.LBB29_215:                             # %if.end587
	movl	m_Qc, %eax
	movl	%eax, Pm_Qp
	movl	m_Qc, %eax
	addl	TotalFrameQP, %eax
	movl	%eax, TotalFrameQP
	movl	m_Qc, %eax
	movl	%eax, -20(%rbp)
	jmp	.LBB29_363
.LBB29_216:                             # %if.end589
	jmp	.LBB29_357
.LBB29_217:                             # %if.else590
	vmovsd	Pm_X1, %xmm0            # xmm0 = mem[0],zero
	vmovsd	%xmm0, m_X1
	vmovsd	Pm_X2, %xmm0            # xmm0 = mem[0],zero
	vmovsd	%xmm0, m_X2
	movl	PPreHeader, %eax
	movl	%eax, m_Hp
	movl	Pm_Qp, %eax
	movl	%eax, m_Qp
	movl	PDuantQp, %eax
	movl	%eax, DuantQp
	vmovsd	PMADPictureC1, %xmm0    # xmm0 = mem[0],zero
	vmovsd	%xmm0, MADPictureC1
	vmovsd	PMADPictureC2, %xmm0    # xmm0 = mem[0],zero
	vmovsd	%xmm0, MADPictureC2
	movq	img, %rax
	cmpl	$0, 72600(%rax)
	jne	.LBB29_219
# %bb.218:                              # %if.then594
	movl	TotalNumberofBasicUnit, %eax
	movl	%eax, -52(%rbp)
	jmp	.LBB29_220
.LBB29_219:                             # %if.else595
	movl	TotalNumberofBasicUnit, %eax
	cltd
	movl	$2, %ecx
	idivl	%ecx
	movl	%eax, -52(%rbp)
.LBB29_220:                             # %if.end597
	movl	NumberofBasicUnit, %eax
	cmpl	-52(%rbp), %eax
	jne	.LBB29_241
# %bb.221:                              # %if.then600
	movq	input, %rax
	cmpl	$2, 2880(%rax)
	je	.LBB29_223
# %bb.222:                              # %lor.lhs.false604
	movq	input, %rax
	cmpl	$0, 2884(%rax)
	je	.LBB29_232
.LBB29_223:                             # %land.lhs.true607
	movq	img, %rax
	cmpl	$0, 72600(%rax)
	jne	.LBB29_232
# %bb.224:                              # %if.then611
	movq	img, %rax
	cmpl	$1, 72604(%rax)
	jne	.LBB29_228
# %bb.225:                              # %if.then615
	movq	img, %rax
	cmpl	$0, 72576(%rax)
	jle	.LBB29_227
# %bb.226:                              # %if.then619
	movl	FrameQPBuffer, %eax
	movq	img, %rcx
	addl	72572(%rcx), %eax
	movl	%eax, 72572(%rcx)
.LBB29_227:                             # %if.end622
	movl	FrameQPBuffer, %eax
	movl	%eax, PAveFrameQP
	movl	FrameAveHeaderBits, %eax
	movl	%eax, PAveHeaderBits3
	jmp	.LBB29_231
.LBB29_228:                             # %if.else623
	movq	img, %rax
	cmpl	$0, 72576(%rax)
	jle	.LBB29_230
# %bb.229:                              # %if.then627
	movl	FieldQPBuffer, %eax
	movq	img, %rcx
	addl	72572(%rcx), %eax
	movl	%eax, 72572(%rcx)
.LBB29_230:                             # %if.end630
	movl	FieldQPBuffer, %eax
	movl	%eax, PAveFrameQP
	movl	FieldAveHeaderBits, %eax
	movl	%eax, PAveHeaderBits3
.LBB29_231:                             # %if.end631
	jmp	.LBB29_232
.LBB29_232:                             # %if.end632
	cmpq	$0, T
	jg	.LBB29_239
# %bb.233:                              # %if.then635
	movl	PAveFrameQP, %eax
	addl	$2, %eax
	movl	%eax, m_Qc
	movl	m_Qc, %eax
	cmpl	RC_MAX_QUANT, %eax
	jle	.LBB29_235
# %bb.234:                              # %if.then639
	movl	RC_MAX_QUANT, %eax
	movl	%eax, m_Qc
.LBB29_235:                             # %if.end640
	cmpl	$0, -36(%rbp)
	jne	.LBB29_237
# %bb.236:                              # %lor.lhs.false642
	movq	img, %rax
	cmpl	$0, 72600(%rax)
	jne	.LBB29_238
.LBB29_237:                             # %if.then646
	movl	$1, GOPOverdue
.LBB29_238:                             # %if.end647
	jmp	.LBB29_240
.LBB29_239:                             # %if.else648
	movl	PAveFrameQP, %eax
	movl	%eax, m_Qc
.LBB29_240:                             # %if.end649
	movl	m_Qc, %eax
	addl	TotalFrameQP, %eax
	movl	%eax, TotalFrameQP
	movl	NumberofBasicUnit, %eax
	addl	$-1, %eax
	movl	%eax, NumberofBasicUnit
	movl	PAveFrameQP, %eax
	movl	%eax, Pm_Qp
	movl	m_Qc, %eax
	movl	%eax, -20(%rbp)
	jmp	.LBB29_363
.LBB29_241:                             # %if.else652
	movq	img, %rax
	movl	72532(%rax), %eax
	movq	img, %rcx
	addl	72536(%rcx), %eax
	movl	%eax, TotalBasicUnitBits
	movslq	TotalBasicUnitBits, %rax
	movq	T, %rcx
	subq	%rax, %rcx
	movq	%rcx, T
	movq	img, %rax
	movl	$0, 72532(%rax)
	movq	img, %rax
	movl	$0, 72536(%rax)
	cmpq	$0, T
	jge	.LBB29_287
# %bb.242:                              # %if.then662
	cmpl	$1, GOPOverdue
	jne	.LBB29_244
# %bb.243:                              # %if.then665
	movl	m_Qp, %eax
	addl	$2, %eax
	movl	%eax, m_Qc
	jmp	.LBB29_245
.LBB29_244:                             # %if.else667
	movl	m_Qp, %eax
	addl	DDquant, %eax
	movl	%eax, m_Qc
.LBB29_245:                             # %if.end669
	movl	m_Qc, %eax
	cmpl	RC_MAX_QUANT, %eax
	jge	.LBB29_247
# %bb.246:                              # %cond.true672
	movl	m_Qc, %eax
	jmp	.LBB29_248
.LBB29_247:                             # %cond.false673
	movl	RC_MAX_QUANT, %eax
.LBB29_248:                             # %cond.end674
	movl	%eax, m_Qc
	movq	input, %rax
	movl	3248(%rax), %eax
	cmpl	MBPerRow, %eax
	jl	.LBB29_253
# %bb.249:                              # %if.then678
	movl	m_Qc, %eax
	movl	PAveFrameQP, %ecx
	addl	$6, %ecx
	cmpl	%ecx, %eax
	jge	.LBB29_251
# %bb.250:                              # %cond.true682
	movl	m_Qc, %eax
	jmp	.LBB29_252
.LBB29_251:                             # %cond.false683
	movl	PAveFrameQP, %eax
	addl	$6, %eax
.LBB29_252:                             # %cond.end685
	movl	%eax, m_Qc
	jmp	.LBB29_257
.LBB29_253:                             # %if.else687
	movl	m_Qc, %eax
	movl	PAveFrameQP, %ecx
	addl	$3, %ecx
	cmpl	%ecx, %eax
	jge	.LBB29_255
# %bb.254:                              # %cond.true691
	movl	m_Qc, %eax
	jmp	.LBB29_256
.LBB29_255:                             # %cond.false692
	movl	PAveFrameQP, %eax
	addl	$3, %eax
.LBB29_256:                             # %cond.end694
	movl	%eax, m_Qc
.LBB29_257:                             # %if.end696
	movl	m_Qc, %eax
	addl	TotalFrameQP, %eax
	movl	%eax, TotalFrameQP
	movl	NumberofBasicUnit, %eax
	addl	$-1, %eax
	movl	%eax, NumberofBasicUnit
	cmpl	$0, NumberofBasicUnit
	jne	.LBB29_283
# %bb.258:                              # %if.then701
	cmpl	$0, -36(%rbp)
	je	.LBB29_260
# %bb.259:                              # %lor.lhs.false703
	movq	img, %rax
	cmpl	$0, 72600(%rax)
	jne	.LBB29_282
.LBB29_260:                             # %if.then707
	movq	active_sps, %rax
	cmpl	$0, 1148(%rax)
	jne	.LBB29_262
# %bb.261:                              # %lor.lhs.false710
	movq	input, %rax
	cmpl	$1, 2880(%rax)
	jne	.LBB29_274
.LBB29_262:                             # %if.then714
	vmovsd	.LCPI29_2(%rip), %xmm0  # xmm0 = mem[0],zero
	vmovsd	.LCPI29_3(%rip), %xmm1  # xmm1 = mem[0],zero
	vcvtsi2sdl	TotalFrameQP, %xmm0, %xmm2
	vmulsd	%xmm2, %xmm1, %xmm1
	vcvtsi2sdl	TotalNumberofBasicUnit, %xmm0, %xmm2
	vdivsd	%xmm2, %xmm1, %xmm1
	vaddsd	%xmm0, %xmm1, %xmm0
	vcvttsd2si	%xmm0, %eax
	movl	%eax, -16(%rbp)
	movq	img, %rax
	movl	72576(%rax), %eax
	movq	input, %rcx
	movl	1224(%rcx), %ecx
	subl	$2, %ecx
	cmpl	%ecx, %eax
	jne	.LBB29_264
# %bb.263:                              # %if.then725
	movl	-16(%rbp), %eax
	movl	%eax, QPLastPFrame
.LBB29_264:                             # %if.end726
	movl	-16(%rbp), %eax
	movq	img, %rcx
	addl	72572(%rcx), %eax
	movl	%eax, 72572(%rcx)
	cmpl	$1, GOPOverdue
	jne	.LBB29_266
# %bb.265:                              # %if.then731
	movl	PreviousQp2, %eax
	addl	$1, %eax
	movl	%eax, PreviousQp1
	movl	-16(%rbp), %eax
	movl	%eax, PreviousQp2
	jmp	.LBB29_273
.LBB29_266:                             # %if.else733
	movq	img, %rax
	cmpl	$0, 72576(%rax)
	jne	.LBB29_269
# %bb.267:                              # %land.lhs.true737
	movq	img, %rax
	cmpl	$1, 72568(%rax)
	jle	.LBB29_269
# %bb.268:                              # %if.then741
	movl	PreviousQp2, %eax
	movl	%eax, PreviousQp1
	movl	-16(%rbp), %eax
	movl	%eax, PreviousQp2
	jmp	.LBB29_272
.LBB29_269:                             # %if.else742
	movq	img, %rax
	cmpl	$0, 72576(%rax)
	jle	.LBB29_271
# %bb.270:                              # %if.then746
	movl	PreviousQp2, %eax
	addl	$1, %eax
	movl	%eax, PreviousQp1
	movl	-16(%rbp), %eax
	movl	%eax, PreviousQp2
.LBB29_271:                             # %if.end748
	jmp	.LBB29_272
.LBB29_272:                             # %if.end749
	jmp	.LBB29_273
.LBB29_273:                             # %if.end750
	movl	-16(%rbp), %eax
	movl	%eax, PAveFrameQP
	movl	PAveHeaderBits2, %eax
	movl	%eax, PAveHeaderBits3
	jmp	.LBB29_281
.LBB29_274:                             # %if.else751
	movq	input, %rax
	cmpl	$2, 2880(%rax)
	je	.LBB29_276
# %bb.275:                              # %lor.lhs.false755
	movq	input, %rax
	cmpl	$0, 2884(%rax)
	je	.LBB29_280
.LBB29_276:                             # %if.then758
	movq	img, %rax
	cmpl	$0, 72600(%rax)
	jne	.LBB29_278
# %bb.277:                              # %if.then762
	vmovsd	.LCPI29_2(%rip), %xmm0  # xmm0 = mem[0],zero
	vmovsd	.LCPI29_3(%rip), %xmm1  # xmm1 = mem[0],zero
	vcvtsi2sdl	TotalFrameQP, %xmm0, %xmm2
	vmulsd	%xmm2, %xmm1, %xmm1
	vcvtsi2sdl	TotalNumberofBasicUnit, %xmm0, %xmm2
	vdivsd	%xmm2, %xmm1, %xmm1
	vaddsd	%xmm0, %xmm1, %xmm0
	vcvttsd2si	%xmm0, %eax
	movl	%eax, -16(%rbp)
	movl	-16(%rbp), %eax
	movl	%eax, FrameQPBuffer
	movl	PAveHeaderBits2, %eax
	movl	%eax, FrameAveHeaderBits
	jmp	.LBB29_279
.LBB29_278:                             # %if.else769
	vmovsd	.LCPI29_2(%rip), %xmm0  # xmm0 = mem[0],zero
	vmovsd	.LCPI29_3(%rip), %xmm1  # xmm1 = mem[0],zero
	vcvtsi2sdl	TotalFrameQP, %xmm0, %xmm2
	vmulsd	%xmm2, %xmm1, %xmm1
	vcvtsi2sdl	TotalNumberofBasicUnit, %xmm0, %xmm2
	vdivsd	%xmm2, %xmm1, %xmm1
	vaddsd	%xmm0, %xmm1, %xmm0
	vcvttsd2si	%xmm0, %eax
	movl	%eax, -16(%rbp)
	movl	-16(%rbp), %eax
	movl	%eax, FieldQPBuffer
	movl	PAveHeaderBits2, %eax
	movl	%eax, FieldAveHeaderBits
.LBB29_279:                             # %if.end776
	jmp	.LBB29_280
.LBB29_280:                             # %if.end777
	jmp	.LBB29_281
.LBB29_281:                             # %if.end778
	jmp	.LBB29_282
.LBB29_282:                             # %if.end779
	jmp	.LBB29_283
.LBB29_283:                             # %if.end780
	cmpl	$1, GOPOverdue
	jne	.LBB29_285
# %bb.284:                              # %if.then783
	movl	PAveFrameQP, %eax
	movl	%eax, Pm_Qp
	jmp	.LBB29_286
.LBB29_285:                             # %if.else784
	movl	m_Qc, %eax
	movl	%eax, Pm_Qp
.LBB29_286:                             # %if.end785
	movl	m_Qc, %eax
	movl	%eax, -20(%rbp)
	jmp	.LBB29_363
.LBB29_287:                             # %if.else786
	movq	input, %rax
	cmpl	$2, 2880(%rax)
	je	.LBB29_289
# %bb.288:                              # %lor.lhs.false790
	movq	input, %rax
	cmpl	$0, 2884(%rax)
	je	.LBB29_295
.LBB29_289:                             # %land.lhs.true793
	movq	img, %rax
	cmpl	$1, 72600(%rax)
	jne	.LBB29_295
# %bb.290:                              # %if.then797
	vmovsd	MADPictureC1, %xmm0     # xmm0 = mem[0],zero
	movq	FCBUPFMAD, %rax
	movl	TotalNumberofBasicUnit, %ecx
	subl	NumberofBasicUnit, %ecx
	movslq	%ecx, %rcx
	vmulsd	(%rax,%rcx,8), %xmm0, %xmm0
	vaddsd	MADPictureC2, %xmm0, %xmm0
	vmovsd	%xmm0, CurrentFrameMAD
	vxorps	%xmm0, %xmm0, %xmm0
	vmovsd	%xmm0, TotalBUMAD
	movl	TotalNumberofBasicUnit, %eax
	subl	$1, %eax
	movl	%eax, -32(%rbp)
.LBB29_291:                             # %for.cond
                                        # =>This Inner Loop Header: Depth=1
	movl	-32(%rbp), %eax
	movl	TotalNumberofBasicUnit, %ecx
	subl	NumberofBasicUnit, %ecx
	cmpl	%ecx, %eax
	jl	.LBB29_294
# %bb.292:                              # %for.body
                                        #   in Loop: Header=BB29_291 Depth=1
	vmovsd	MADPictureC1, %xmm0     # xmm0 = mem[0],zero
	movq	FCBUPFMAD, %rax
	movslq	-32(%rbp), %rcx
	vmulsd	(%rax,%rcx,8), %xmm0, %xmm0
	vaddsd	MADPictureC2, %xmm0, %xmm0
	vmovsd	%xmm0, CurrentBUMAD
	vmovsd	CurrentBUMAD, %xmm0     # xmm0 = mem[0],zero
	vmulsd	CurrentBUMAD, %xmm0, %xmm0
	vaddsd	TotalBUMAD, %xmm0, %xmm0
	vmovsd	%xmm0, TotalBUMAD
# %bb.293:                              # %for.inc
                                        #   in Loop: Header=BB29_291 Depth=1
	movl	-32(%rbp), %eax
	addl	$-1, %eax
	movl	%eax, -32(%rbp)
	jmp	.LBB29_291
.LBB29_294:                             # %for.end
	jmp	.LBB29_300
.LBB29_295:                             # %if.else812
	vmovsd	MADPictureC1, %xmm0     # xmm0 = mem[0],zero
	movq	BUPFMAD, %rax
	movl	TotalNumberofBasicUnit, %ecx
	subl	NumberofBasicUnit, %ecx
	movslq	%ecx, %rcx
	vmulsd	(%rax,%rcx,8), %xmm0, %xmm0
	vaddsd	MADPictureC2, %xmm0, %xmm0
	vmovsd	%xmm0, CurrentFrameMAD
	vxorps	%xmm0, %xmm0, %xmm0
	vmovsd	%xmm0, TotalBUMAD
	movl	TotalNumberofBasicUnit, %eax
	subl	$1, %eax
	movl	%eax, -32(%rbp)
.LBB29_296:                             # %for.cond819
                                        # =>This Inner Loop Header: Depth=1
	movl	-32(%rbp), %eax
	movl	TotalNumberofBasicUnit, %ecx
	subl	NumberofBasicUnit, %ecx
	cmpl	%ecx, %eax
	jl	.LBB29_299
# %bb.297:                              # %for.body823
                                        #   in Loop: Header=BB29_296 Depth=1
	vmovsd	MADPictureC1, %xmm0     # xmm0 = mem[0],zero
	movq	BUPFMAD, %rax
	movslq	-32(%rbp), %rcx
	vmulsd	(%rax,%rcx,8), %xmm0, %xmm0
	vaddsd	MADPictureC2, %xmm0, %xmm0
	vmovsd	%xmm0, CurrentBUMAD
	vmovsd	CurrentBUMAD, %xmm0     # xmm0 = mem[0],zero
	vmulsd	CurrentBUMAD, %xmm0, %xmm0
	vaddsd	TotalBUMAD, %xmm0, %xmm0
	vmovsd	%xmm0, TotalBUMAD
# %bb.298:                              # %for.inc830
                                        #   in Loop: Header=BB29_296 Depth=1
	movl	-32(%rbp), %eax
	addl	$-1, %eax
	movl	%eax, -32(%rbp)
	jmp	.LBB29_296
.LBB29_299:                             # %for.end832
	jmp	.LBB29_300
.LBB29_300:                             # %if.end833
	vcvtsi2sdq	T, %xmm0, %xmm0
	vmulsd	CurrentFrameMAD, %xmm0, %xmm0
	vmulsd	CurrentFrameMAD, %xmm0, %xmm0
	vdivsd	TotalBUMAD, %xmm0, %xmm0
	vcvttsd2si	%xmm0, %eax
	movl	%eax, -24(%rbp)
	movl	PAveHeaderBits2, %eax
	movl	-24(%rbp), %ecx
	subl	%eax, %ecx
	movl	%ecx, -24(%rbp)
	movl	-24(%rbp), %eax
	vmovsd	bit_rate, %xmm0         # xmm0 = mem[0],zero
	vmovsd	MINVALUE, %xmm1         # xmm1 = mem[0],zero
	vmulsd	frame_rate, %xmm1, %xmm1
	vcvtsi2sdl	TotalNumberofBasicUnit, %xmm0, %xmm2
	vmulsd	%xmm2, %xmm1, %xmm1
	vdivsd	%xmm1, %xmm0, %xmm0
	vcvttsd2si	%xmm0, %ecx
	cmpl	%ecx, %eax
	jge	.LBB29_302
# %bb.301:                              # %cond.true847
	vmovsd	bit_rate, %xmm0         # xmm0 = mem[0],zero
	vmovsd	MINVALUE, %xmm1         # xmm1 = mem[0],zero
	vmulsd	frame_rate, %xmm1, %xmm1
	vcvtsi2sdl	TotalNumberofBasicUnit, %xmm0, %xmm2
	vmulsd	%xmm2, %xmm1, %xmm1
	vdivsd	%xmm1, %xmm0, %xmm0
	vcvttsd2si	%xmm0, %eax
	jmp	.LBB29_303
.LBB29_302:                             # %cond.false853
	movl	-24(%rbp), %eax
.LBB29_303:                             # %cond.end854
	vmovsd	.LCPI29_0(%rip), %xmm0  # xmm0 = mem[0],zero
	movl	%eax, -24(%rbp)
	vmovsd	CurrentFrameMAD, %xmm1  # xmm1 = mem[0],zero
	vmulsd	m_X1, %xmm1, %xmm1
	vmulsd	CurrentFrameMAD, %xmm1, %xmm1
	vmulsd	m_X1, %xmm1, %xmm1
	vmulsd	m_X2, %xmm0, %xmm0
	vmulsd	CurrentFrameMAD, %xmm0, %xmm0
	vcvtsi2sdl	-24(%rbp), %xmm0, %xmm2
	vmulsd	%xmm2, %xmm0, %xmm0
	vaddsd	%xmm0, %xmm1, %xmm0
	vmovsd	%xmm0, -48(%rbp)
	vmovsd	m_X2, %xmm0             # xmm0 = mem[0],zero
	vxorps	%xmm1, %xmm1, %xmm1
	vucomisd	%xmm1, %xmm0
	jne	.LBB29_304
	jp	.LBB29_304
	jmp	.LBB29_306
.LBB29_304:                             # %lor.lhs.false866
	vxorps	%xmm0, %xmm0, %xmm0
	vucomisd	-48(%rbp), %xmm0
	ja	.LBB29_306
# %bb.305:                              # %lor.lhs.false869
	vmovsd	-48(%rbp), %xmm0        # xmm0 = mem[0],zero
	callq	sqrt
	vmovsd	m_X1, %xmm1             # xmm1 = mem[0],zero
	vmulsd	CurrentFrameMAD, %xmm1, %xmm1
	vsubsd	%xmm1, %xmm0, %xmm0
	vxorps	%xmm1, %xmm1, %xmm1
	vucomisd	%xmm0, %xmm1
	jb	.LBB29_307
.LBB29_306:                             # %if.then875
	vmovsd	m_X1, %xmm0             # xmm0 = mem[0],zero
	vmulsd	CurrentFrameMAD, %xmm0, %xmm0
	vcvtsi2sdl	-24(%rbp), %xmm0, %xmm1
	vdivsd	%xmm1, %xmm0, %xmm0
	vcvtsd2ss	%xmm0, %xmm0, %xmm0
	vcvtss2sd	%xmm0, %xmm0, %xmm0
	vmovsd	%xmm0, m_Qstep
	jmp	.LBB29_308
.LBB29_307:                             # %if.else881
	vmovsd	.LCPI29_1(%rip), %xmm0  # xmm0 = mem[0],zero
	vmulsd	m_X2, %xmm0, %xmm0
	vmulsd	CurrentFrameMAD, %xmm0, %xmm0
	vmovsd	%xmm0, -72(%rbp)        # 8-byte Spill
	vmovsd	-48(%rbp), %xmm0        # xmm0 = mem[0],zero
	callq	sqrt
	vmovsd	m_X1, %xmm1             # xmm1 = mem[0],zero
	vmulsd	CurrentFrameMAD, %xmm1, %xmm1
	vsubsd	%xmm1, %xmm0, %xmm0
	vmovsd	-72(%rbp), %xmm1        # 8-byte Reload
                                        # xmm1 = mem[0],zero
	vdivsd	%xmm0, %xmm1, %xmm0
	vcvtsd2ss	%xmm0, %xmm0, %xmm0
	vcvtss2sd	%xmm0, %xmm0, %xmm0
	vmovsd	%xmm0, m_Qstep
.LBB29_308:                             # %if.end890
	vmovsd	m_Qstep, %xmm0          # xmm0 = mem[0],zero
	callq	Qstep2QP
	movl	%eax, m_Qc
	movl	m_Qp, %eax
	addl	DDquant, %eax
	cmpl	m_Qc, %eax
	jge	.LBB29_310
# %bb.309:                              # %cond.true895
	movl	m_Qp, %eax
	addl	DDquant, %eax
	jmp	.LBB29_311
.LBB29_310:                             # %cond.false897
	movl	m_Qc, %eax
.LBB29_311:                             # %cond.end898
	movl	%eax, m_Qc
	movq	input, %rax
	movl	3248(%rax), %eax
	cmpl	MBPerRow, %eax
	jl	.LBB29_316
# %bb.312:                              # %if.then903
	movl	PAveFrameQP, %eax
	addl	$6, %eax
	cmpl	m_Qc, %eax
	jge	.LBB29_314
# %bb.313:                              # %cond.true907
	movl	PAveFrameQP, %eax
	addl	$6, %eax
	jmp	.LBB29_315
.LBB29_314:                             # %cond.false909
	movl	m_Qc, %eax
.LBB29_315:                             # %cond.end910
	movl	%eax, m_Qc
	jmp	.LBB29_320
.LBB29_316:                             # %if.else912
	movl	PAveFrameQP, %eax
	addl	$3, %eax
	cmpl	m_Qc, %eax
	jge	.LBB29_318
# %bb.317:                              # %cond.true916
	movl	PAveFrameQP, %eax
	addl	$3, %eax
	jmp	.LBB29_319
.LBB29_318:                             # %cond.false918
	movl	m_Qc, %eax
.LBB29_319:                             # %cond.end919
	movl	%eax, m_Qc
.LBB29_320:                             # %if.end921
	movl	m_Qc, %eax
	cmpl	RC_MAX_QUANT, %eax
	jge	.LBB29_322
# %bb.321:                              # %cond.true924
	movl	m_Qc, %eax
	jmp	.LBB29_323
.LBB29_322:                             # %cond.false925
	movl	RC_MAX_QUANT, %eax
.LBB29_323:                             # %cond.end926
	movl	%eax, m_Qc
	movl	m_Qp, %eax
	subl	DDquant, %eax
	cmpl	m_Qc, %eax
	jge	.LBB29_325
# %bb.324:                              # %cond.true931
	movl	m_Qc, %eax
	jmp	.LBB29_326
.LBB29_325:                             # %cond.false932
	movl	m_Qp, %eax
	subl	DDquant, %eax
.LBB29_326:                             # %cond.end934
	movl	%eax, m_Qc
	movq	input, %rax
	movl	3248(%rax), %eax
	cmpl	MBPerRow, %eax
	jl	.LBB29_331
# %bb.327:                              # %if.then939
	movl	PAveFrameQP, %eax
	subl	$6, %eax
	cmpl	m_Qc, %eax
	jge	.LBB29_329
# %bb.328:                              # %cond.true943
	movl	m_Qc, %eax
	jmp	.LBB29_330
.LBB29_329:                             # %cond.false944
	movl	PAveFrameQP, %eax
	subl	$6, %eax
.LBB29_330:                             # %cond.end946
	movl	%eax, m_Qc
	jmp	.LBB29_335
.LBB29_331:                             # %if.else948
	movl	PAveFrameQP, %eax
	subl	$3, %eax
	cmpl	m_Qc, %eax
	jge	.LBB29_333
# %bb.332:                              # %cond.true952
	movl	m_Qc, %eax
	jmp	.LBB29_334
.LBB29_333:                             # %cond.false953
	movl	PAveFrameQP, %eax
	subl	$3, %eax
.LBB29_334:                             # %cond.end955
	movl	%eax, m_Qc
.LBB29_335:                             # %if.end957
	movl	RC_MIN_QUANT, %eax
	cmpl	m_Qc, %eax
	jge	.LBB29_337
# %bb.336:                              # %cond.true960
	movl	m_Qc, %eax
	jmp	.LBB29_338
.LBB29_337:                             # %cond.false961
	movl	RC_MIN_QUANT, %eax
.LBB29_338:                             # %cond.end962
	movl	%eax, m_Qc
	movl	m_Qc, %eax
	addl	TotalFrameQP, %eax
	movl	%eax, TotalFrameQP
	movl	m_Qc, %eax
	movl	%eax, Pm_Qp
	movl	NumberofBasicUnit, %eax
	addl	$-1, %eax
	movl	%eax, NumberofBasicUnit
	cmpl	$0, NumberofBasicUnit
	jne	.LBB29_356
# %bb.339:                              # %land.lhs.true968
	movq	img, %rax
	cmpl	$0, 24(%rax)
	jne	.LBB29_356
# %bb.340:                              # %if.then972
	cmpl	$0, -36(%rbp)
	je	.LBB29_342
# %bb.341:                              # %lor.lhs.false974
	movq	img, %rax
	cmpl	$0, 72600(%rax)
	jne	.LBB29_355
.LBB29_342:                             # %if.then978
	movq	active_sps, %rax
	cmpl	$0, 1148(%rax)
	jne	.LBB29_344
# %bb.343:                              # %lor.lhs.false981
	movq	input, %rax
	cmpl	$1, 2880(%rax)
	jne	.LBB29_347
.LBB29_344:                             # %if.then985
	vmovsd	.LCPI29_2(%rip), %xmm0  # xmm0 = mem[0],zero
	vmovsd	.LCPI29_3(%rip), %xmm1  # xmm1 = mem[0],zero
	vcvtsi2sdl	TotalFrameQP, %xmm0, %xmm2
	vmulsd	%xmm2, %xmm1, %xmm1
	vcvtsi2sdl	TotalNumberofBasicUnit, %xmm0, %xmm2
	vdivsd	%xmm2, %xmm1, %xmm1
	vaddsd	%xmm0, %xmm1, %xmm0
	vcvttsd2si	%xmm0, %eax
	movl	%eax, -16(%rbp)
	movq	img, %rax
	movl	72576(%rax), %eax
	movq	input, %rcx
	movl	1224(%rcx), %ecx
	subl	$2, %ecx
	cmpl	%ecx, %eax
	jne	.LBB29_346
# %bb.345:                              # %if.then997
	movl	-16(%rbp), %eax
	movl	%eax, QPLastPFrame
.LBB29_346:                             # %if.end998
	movl	-16(%rbp), %eax
	movq	img, %rcx
	addl	72572(%rcx), %eax
	movl	%eax, 72572(%rcx)
	movl	PreviousQp2, %eax
	movl	%eax, PreviousQp1
	movl	-16(%rbp), %eax
	movl	%eax, PreviousQp2
	movl	-16(%rbp), %eax
	movl	%eax, PAveFrameQP
	movl	PAveHeaderBits2, %eax
	movl	%eax, PAveHeaderBits3
	jmp	.LBB29_354
.LBB29_347:                             # %if.else1001
	movq	input, %rax
	cmpl	$2, 2880(%rax)
	je	.LBB29_349
# %bb.348:                              # %lor.lhs.false1005
	movq	input, %rax
	cmpl	$0, 2884(%rax)
	je	.LBB29_353
.LBB29_349:                             # %if.then1008
	movq	img, %rax
	cmpl	$0, 72600(%rax)
	jne	.LBB29_351
# %bb.350:                              # %if.then1012
	vmovsd	.LCPI29_2(%rip), %xmm0  # xmm0 = mem[0],zero
	vmovsd	.LCPI29_3(%rip), %xmm1  # xmm1 = mem[0],zero
	vcvtsi2sdl	TotalFrameQP, %xmm0, %xmm2
	vmulsd	%xmm2, %xmm1, %xmm1
	vcvtsi2sdl	TotalNumberofBasicUnit, %xmm0, %xmm2
	vdivsd	%xmm2, %xmm1, %xmm1
	vaddsd	%xmm0, %xmm1, %xmm0
	vcvttsd2si	%xmm0, %eax
	movl	%eax, -16(%rbp)
	movl	-16(%rbp), %eax
	movl	%eax, FrameQPBuffer
	movl	PAveHeaderBits2, %eax
	movl	%eax, FrameAveHeaderBits
	jmp	.LBB29_352
.LBB29_351:                             # %if.else1019
	vmovsd	.LCPI29_2(%rip), %xmm0  # xmm0 = mem[0],zero
	vmovsd	.LCPI29_3(%rip), %xmm1  # xmm1 = mem[0],zero
	vcvtsi2sdl	TotalFrameQP, %xmm0, %xmm2
	vmulsd	%xmm2, %xmm1, %xmm1
	vcvtsi2sdl	TotalNumberofBasicUnit, %xmm0, %xmm2
	vdivsd	%xmm2, %xmm1, %xmm1
	vaddsd	%xmm0, %xmm1, %xmm0
	vcvttsd2si	%xmm0, %eax
	movl	%eax, -16(%rbp)
	movl	-16(%rbp), %eax
	movl	%eax, FieldQPBuffer
	movl	PAveHeaderBits2, %eax
	movl	%eax, FieldAveHeaderBits
.LBB29_352:                             # %if.end1026
	jmp	.LBB29_353
.LBB29_353:                             # %if.end1027
	jmp	.LBB29_354
.LBB29_354:                             # %if.end1028
	jmp	.LBB29_355
.LBB29_355:                             # %if.end1029
	jmp	.LBB29_356
.LBB29_356:                             # %if.end1030
	movl	m_Qc, %eax
	movl	%eax, -20(%rbp)
	jmp	.LBB29_363
.LBB29_357:                             # %if.end1031
	jmp	.LBB29_358
.LBB29_358:                             # %if.end1032
	jmp	.LBB29_359
.LBB29_359:                             # %if.end1033
	jmp	.LBB29_360
.LBB29_360:                             # %if.end1034
	jmp	.LBB29_361
.LBB29_361:                             # %if.end1035
	jmp	.LBB29_362
.LBB29_362:                             # %if.end1036
	movl	m_Qc, %eax
	movl	%eax, -20(%rbp)
.LBB29_363:                             # %return
	movl	-20(%rbp), %ebx
	cmpl	$563021561, -56(%rbp)   # imm = 0x218F06F9
	jne	.LBB29_365
.LBB29_364:
	movl	%ebx, %eax
	addq	$72, %rsp
	popq	%rbx
	popq	%rbp
	.cfi_def_cfa %rsp, 8
	retq
.LBB29_365:                             # %func_exit
	.cfi_def_cfa %rbp, 16
	callq	detect_breach
	jmp	.LBB29_364
.Lfunc_end29:
	.size	updateQuantizationParameter.13, .Lfunc_end29-updateQuantizationParameter.13
	.cfi_endproc
                                        # -- End function
	.section	.rodata.cst8,"aM",@progbits,8
	.p2align	3               # -- Begin function updateRCModel.14
.LCPI30_0:
	.quad	4611686018427387904     # double 2
.LCPI30_1:
	.quad	4602678819172646912     # double 0.5
.LCPI30_2:
	.quad	4607182418800017408     # double 1
.LCPI30_3:
	.quad	4626322717216342016     # double 20
	.section	.rodata.cst16,"aM",@progbits,16
	.p2align	4
.LCPI30_4:
	.quad	9223372036854775807     # double NaN
	.quad	9223372036854775807     # double NaN
	.text
	.globl	updateRCModel.14
	.p2align	4, 0x90
	.type	updateRCModel.14,@function
updateRCModel.14:                       # @updateRCModel.14
	.cfi_startproc
# %bb.0:                                # %entry
	pushq	%rbp
	.cfi_def_cfa_offset 16
	.cfi_offset %rbp, -16
	movq	%rsp, %rbp
	.cfi_def_cfa_register %rbp
	subq	$208, %rsp
	movl	$1039688329, -28(%rbp)  # imm = 0x3DF86289
	vxorps	%xmm0, %xmm0, %xmm0
	vmovsd	%xmm0, -24(%rbp)
	movl	$0, -16(%rbp)
	movq	img, %rax
	cmpl	$0, 24(%rax)
	jne	.LBB30_68
# %bb.1:                                # %if.then
	movq	img, %rax
	movl	72620(%rax), %eax
	movq	img, %rcx
	cmpl	72608(%rcx), %eax
	jne	.LBB30_3
# %bb.2:                                # %if.then2
	callq	ComputeFrameMAD
	vmovsd	%xmm0, CurrentFrameMAD
	movq	img, %rax
	movl	72564(%rax), %eax
	movl	%eax, -12(%rbp)
	jmp	.LBB30_21
.LBB30_3:                               # %if.else
	movq	input, %rax
	cmpl	$0, 2884(%rax)
	je	.LBB30_6
# %bb.4:                                # %land.lhs.true
	movq	img, %rax
	cmpl	$0, 72600(%rax)
	jne	.LBB30_6
# %bb.5:                                # %if.then4
	vmovsd	.LCPI30_0(%rip), %xmm0  # xmm0 = mem[0],zero
	movq	img, %rax
	vmovsd	72544(%rax), %xmm1      # xmm1 = mem[0],zero
	movq	img, %rax
	vcvtsi2sdl	72620(%rax), %xmm0, %xmm2
	vdivsd	%xmm2, %xmm1, %xmm1
	vdivsd	%xmm0, %xmm1, %xmm0
	vmovsd	%xmm0, CurrentFrameMAD
	jmp	.LBB30_7
.LBB30_6:                               # %if.else7
	movq	img, %rax
	vmovsd	72544(%rax), %xmm0      # xmm0 = mem[0],zero
	movq	img, %rax
	vcvtsi2sdl	72620(%rax), %xmm0, %xmm1
	vdivsd	%xmm1, %xmm0, %xmm0
	vmovsd	%xmm0, CurrentFrameMAD
.LBB30_7:                               # %if.end
	movq	img, %rax
	vxorps	%xmm0, %xmm0, %xmm0
	vmovsd	%xmm0, 72544(%rax)
	movl	TotalNumberofBasicUnit, %eax
	subl	NumberofBasicUnit, %eax
	movl	%eax, CodedBasicUnit
	cmpl	$0, CodedBasicUnit
	jle	.LBB30_12
# %bb.8:                                # %if.then15
	vmovsd	.LCPI30_1(%rip), %xmm0  # xmm0 = mem[0],zero
	vmovsd	.LCPI30_2(%rip), %xmm1  # xmm1 = mem[0],zero
	movl	PAveHeaderBits1, %eax
	movl	CodedBasicUnit, %ecx
	subl	$1, %ecx
	imull	%ecx, %eax
	movq	img, %rcx
	addl	72532(%rcx), %eax
	vcvtsi2sd	%eax, %xmm0, %xmm2
	vmulsd	%xmm2, %xmm1, %xmm1
	vcvtsi2sdl	CodedBasicUnit, %xmm0, %xmm2
	vdivsd	%xmm2, %xmm1, %xmm1
	vaddsd	%xmm0, %xmm1, %xmm0
	vcvttsd2si	%xmm0, %eax
	movl	%eax, PAveHeaderBits1
	cmpl	$0, PAveHeaderBits3
	jne	.LBB30_10
# %bb.9:                                # %if.then25
	movl	PAveHeaderBits1, %eax
	movl	%eax, PAveHeaderBits2
	jmp	.LBB30_11
.LBB30_10:                              # %if.else26
	vmovsd	.LCPI30_1(%rip), %xmm0  # xmm0 = mem[0],zero
	vmovsd	.LCPI30_2(%rip), %xmm1  # xmm1 = mem[0],zero
	movl	PAveHeaderBits1, %eax
	imull	CodedBasicUnit, %eax
	movl	PAveHeaderBits3, %ecx
	imull	NumberofBasicUnit, %ecx
	addl	%ecx, %eax
	vcvtsi2sd	%eax, %xmm0, %xmm2
	vmulsd	%xmm2, %xmm1, %xmm1
	vcvtsi2sdl	TotalNumberofBasicUnit, %xmm0, %xmm2
	vdivsd	%xmm2, %xmm1, %xmm1
	vaddsd	%xmm0, %xmm1, %xmm0
	vcvttsd2si	%xmm0, %eax
	movl	%eax, PAveHeaderBits2
.LBB30_11:                              # %if.end36
	jmp	.LBB30_12
.LBB30_12:                              # %if.end37
	movq	input, %rax
	cmpl	$2, 2880(%rax)
	je	.LBB30_14
# %bb.13:                               # %lor.lhs.false
	movq	input, %rax
	cmpl	$0, 2884(%rax)
	je	.LBB30_16
.LBB30_14:                              # %land.lhs.true42
	movq	img, %rax
	cmpl	$1, 72600(%rax)
	jne	.LBB30_16
# %bb.15:                               # %if.then46
	vmovsd	CurrentFrameMAD, %xmm0  # xmm0 = mem[0],zero
	movq	FCBUCFMAD, %rax
	movl	TotalNumberofBasicUnit, %ecx
	subl	$1, %ecx
	subl	NumberofBasicUnit, %ecx
	movslq	%ecx, %rcx
	vmovsd	%xmm0, (%rax,%rcx,8)
	jmp	.LBB30_17
.LBB30_16:                              # %if.else49
	vmovsd	CurrentFrameMAD, %xmm0  # xmm0 = mem[0],zero
	movq	BUCFMAD, %rax
	movl	TotalNumberofBasicUnit, %ecx
	subl	$1, %ecx
	subl	NumberofBasicUnit, %ecx
	movslq	%ecx, %rcx
	vmovsd	%xmm0, (%rax,%rcx,8)
.LBB30_17:                              # %if.end54
	cmpl	$0, NumberofBasicUnit
	je	.LBB30_19
# %bb.18:                               # %if.then57
	movq	img, %rax
	movl	72564(%rax), %eax
	imull	TotalNumberofBasicUnit, %eax
	addl	CodedBasicUnit, %eax
	movl	%eax, -12(%rbp)
	jmp	.LBB30_20
.LBB30_19:                              # %if.else61
	movq	img, %rax
	movl	72564(%rax), %eax
	subl	$1, %eax
	imull	TotalNumberofBasicUnit, %eax
	addl	CodedBasicUnit, %eax
	movl	%eax, -12(%rbp)
.LBB30_20:                              # %if.end66
	jmp	.LBB30_21
.LBB30_21:                              # %if.end67
	cmpl	$1, -12(%rbp)
	jle	.LBB30_23
# %bb.22:                               # %if.then70
	movl	$1, -16(%rbp)
.LBB30_23:                              # %if.end71
	movq	img, %rax
	movl	72524(%rax), %eax
	movl	%eax, PPreHeader
	movl	$19, -4(%rbp)
.LBB30_24:                              # %for.cond
                                        # =>This Inner Loop Header: Depth=1
	cmpl	$0, -4(%rbp)
	jle	.LBB30_27
# %bb.25:                               # %for.body
                                        #   in Loop: Header=BB30_24 Depth=1
	movl	-4(%rbp), %eax
	subl	$1, %eax
	cltq
	vmovsd	Pm_rgQp(,%rax,8), %xmm0 # xmm0 = mem[0],zero
	movslq	-4(%rbp), %rax
	vmovsd	%xmm0, Pm_rgQp(,%rax,8)
	movslq	-4(%rbp), %rax
	vmovsd	Pm_rgQp(,%rax,8), %xmm0 # xmm0 = mem[0],zero
	movslq	-4(%rbp), %rax
	vmovsd	%xmm0, m_rgQp(,%rax,8)
	movl	-4(%rbp), %eax
	subl	$1, %eax
	cltq
	vmovsd	Pm_rgRp(,%rax,8), %xmm0 # xmm0 = mem[0],zero
	movslq	-4(%rbp), %rax
	vmovsd	%xmm0, Pm_rgRp(,%rax,8)
	movslq	-4(%rbp), %rax
	vmovsd	Pm_rgRp(,%rax,8), %xmm0 # xmm0 = mem[0],zero
	movslq	-4(%rbp), %rax
	vmovsd	%xmm0, m_rgRp(,%rax,8)
# %bb.26:                               # %for.inc
                                        #   in Loop: Header=BB30_24 Depth=1
	movl	-4(%rbp), %eax
	addl	$-1, %eax
	movl	%eax, -4(%rbp)
	jmp	.LBB30_24
.LBB30_27:                              # %for.end
	movl	m_Qc, %edi
	callq	QP2Qstep
	vmovsd	%xmm0, Pm_rgQp
	movq	img, %rax
	movl	72620(%rax), %eax
	movq	img, %rcx
	cmpl	72608(%rcx), %eax
	jne	.LBB30_29
# %bb.28:                               # %if.then97
	vmovsd	.LCPI30_2(%rip), %xmm0  # xmm0 = mem[0],zero
	movq	img, %rax
	vcvtsi2sdl	72528(%rax), %xmm0, %xmm1
	vmulsd	%xmm0, %xmm1, %xmm0
	vdivsd	CurrentFrameMAD, %xmm0, %xmm0
	vmovsd	%xmm0, Pm_rgRp
	jmp	.LBB30_30
.LBB30_29:                              # %if.else101
	vmovsd	.LCPI30_2(%rip), %xmm0  # xmm0 = mem[0],zero
	movq	img, %rax
	vcvtsi2sdl	72536(%rax), %xmm0, %xmm1
	vmulsd	%xmm0, %xmm1, %xmm0
	vdivsd	CurrentFrameMAD, %xmm0, %xmm0
	vmovsd	%xmm0, Pm_rgRp
.LBB30_30:                              # %if.end105
	vmovsd	Pm_rgQp, %xmm0          # xmm0 = mem[0],zero
	vmovsd	%xmm0, m_rgQp
	vmovsd	Pm_rgRp, %xmm0          # xmm0 = mem[0],zero
	vmovsd	%xmm0, m_rgRp
	vmovsd	Pm_X1, %xmm0            # xmm0 = mem[0],zero
	vmovsd	%xmm0, m_X1
	vmovsd	Pm_X2, %xmm0            # xmm0 = mem[0],zero
	vmovsd	%xmm0, m_X2
	vmovsd	CurrentFrameMAD, %xmm0  # xmm0 = mem[0],zero
	vucomisd	PreviousFrameMAD, %xmm0
	jbe	.LBB30_32
# %bb.31:                               # %cond.true
	vmovsd	.LCPI30_3(%rip), %xmm0  # xmm0 = mem[0],zero
	vmovsd	PreviousFrameMAD, %xmm1 # xmm1 = mem[0],zero
	vdivsd	CurrentFrameMAD, %xmm1, %xmm1
	vmulsd	%xmm0, %xmm1, %xmm0
	vcvttsd2si	%xmm0, %eax
	jmp	.LBB30_33
.LBB30_32:                              # %cond.false
	vmovsd	.LCPI30_3(%rip), %xmm0  # xmm0 = mem[0],zero
	vmovsd	CurrentFrameMAD, %xmm1  # xmm1 = mem[0],zero
	vdivsd	PreviousFrameMAD, %xmm1, %xmm1
	vmulsd	%xmm0, %xmm1, %xmm0
	vcvttsd2si	%xmm0, %eax
.LBB30_33:                              # %cond.end
	movl	%eax, -8(%rbp)
	cmpl	$1, -8(%rbp)
	jge	.LBB30_35
# %bb.34:                               # %cond.true116
	movl	$1, %eax
	jmp	.LBB30_36
.LBB30_35:                              # %cond.false117
	movl	-8(%rbp), %eax
.LBB30_36:                              # %cond.end118
	movl	%eax, -8(%rbp)
	movl	-8(%rbp), %eax
	cmpl	-12(%rbp), %eax
	jge	.LBB30_38
# %bb.37:                               # %cond.true122
	movl	-8(%rbp), %eax
	jmp	.LBB30_39
.LBB30_38:                              # %cond.false123
	movl	-12(%rbp), %eax
.LBB30_39:                              # %cond.end124
	movl	%eax, -8(%rbp)
	movl	-8(%rbp), %eax
	movl	m_windowSize, %ecx
	addl	$1, %ecx
	cmpl	%ecx, %eax
	jge	.LBB30_41
# %bb.40:                               # %cond.true129
	movl	-8(%rbp), %eax
	jmp	.LBB30_42
.LBB30_41:                              # %cond.false130
	movl	m_windowSize, %eax
	addl	$1, %eax
.LBB30_42:                              # %cond.end132
	movl	%eax, -8(%rbp)
	cmpl	$20, -8(%rbp)
	jge	.LBB30_44
# %bb.43:                               # %cond.true136
	movl	-8(%rbp), %eax
	jmp	.LBB30_45
.LBB30_44:                              # %cond.false137
	movl	$20, %eax
	jmp	.LBB30_45
.LBB30_45:                              # %cond.end138
	movl	%eax, -8(%rbp)
	movl	-8(%rbp), %eax
	movl	%eax, m_windowSize
	movl	$0, -4(%rbp)
.LBB30_46:                              # %for.cond140
                                        # =>This Inner Loop Header: Depth=1
	cmpl	$20, -4(%rbp)
	jge	.LBB30_49
# %bb.47:                               # %for.body143
                                        #   in Loop: Header=BB30_46 Depth=1
	movslq	-4(%rbp), %rax
	movl	$0, m_rgRejected(,%rax,4)
# %bb.48:                               # %for.inc146
                                        #   in Loop: Header=BB30_46 Depth=1
	movl	-4(%rbp), %eax
	addl	$1, %eax
	movl	%eax, -4(%rbp)
	jmp	.LBB30_46
.LBB30_49:                              # %for.end147
	movl	-8(%rbp), %edi
	callq	RCModelEstimator
	movl	m_windowSize, %eax
	movl	%eax, -8(%rbp)
	movl	$0, -4(%rbp)
.LBB30_50:                              # %for.cond148
                                        # =>This Inner Loop Header: Depth=1
	movl	-4(%rbp), %eax
	cmpl	-8(%rbp), %eax
	jge	.LBB30_53
# %bb.51:                               # %for.body151
                                        #   in Loop: Header=BB30_50 Depth=1
	vmovsd	m_X1, %xmm0             # xmm0 = mem[0],zero
	movslq	-4(%rbp), %rax
	vdivsd	m_rgQp(,%rax,8), %xmm0, %xmm0
	vmovsd	m_X2, %xmm1             # xmm1 = mem[0],zero
	movslq	-4(%rbp), %rax
	vmovsd	m_rgQp(,%rax,8), %xmm2  # xmm2 = mem[0],zero
	movslq	-4(%rbp), %rax
	vmulsd	m_rgQp(,%rax,8), %xmm2, %xmm2
	vdivsd	%xmm2, %xmm1, %xmm1
	vaddsd	%xmm1, %xmm0, %xmm0
	movslq	-4(%rbp), %rax
	vsubsd	m_rgRp(,%rax,8), %xmm0, %xmm0
	movslq	-4(%rbp), %rax
	vmovsd	%xmm0, -208(%rbp,%rax,8)
	movslq	-4(%rbp), %rax
	vmovsd	-208(%rbp,%rax,8), %xmm0 # xmm0 = mem[0],zero
	movslq	-4(%rbp), %rax
	vmulsd	-208(%rbp,%rax,8), %xmm0, %xmm0
	vaddsd	-24(%rbp), %xmm0, %xmm0
	vmovsd	%xmm0, -24(%rbp)
# %bb.52:                               # %for.inc173
                                        #   in Loop: Header=BB30_50 Depth=1
	movl	-4(%rbp), %eax
	addl	$1, %eax
	movl	%eax, -4(%rbp)
	jmp	.LBB30_50
.LBB30_53:                              # %for.end175
	cmpl	$2, -8(%rbp)
	jne	.LBB30_55
# %bb.54:                               # %cond.true178
	vxorps	%xmm0, %xmm0, %xmm0
	jmp	.LBB30_56
.LBB30_55:                              # %cond.false179
	vmovsd	-24(%rbp), %xmm0        # xmm0 = mem[0],zero
	vcvtsi2sdl	-8(%rbp), %xmm0, %xmm1
	vdivsd	%xmm1, %xmm0, %xmm0
	callq	sqrt
.LBB30_56:                              # %cond.end183
	vmovsd	%xmm0, -40(%rbp)
	movl	$0, -4(%rbp)
.LBB30_57:                              # %for.cond185
                                        # =>This Inner Loop Header: Depth=1
	movl	-4(%rbp), %eax
	cmpl	-8(%rbp), %eax
	jge	.LBB30_62
# %bb.58:                               # %for.body188
                                        #   in Loop: Header=BB30_57 Depth=1
	movslq	-4(%rbp), %rax
	vmovsd	-208(%rbp,%rax,8), %xmm0 # xmm0 = mem[0],zero
	vmovdqa	.LCPI30_4(%rip), %xmm1  # xmm1 = [NaN,NaN]
	vpand	%xmm1, %xmm0, %xmm0
	vucomisd	-40(%rbp), %xmm0
	jbe	.LBB30_60
# %bb.59:                               # %if.then193
                                        #   in Loop: Header=BB30_57 Depth=1
	movslq	-4(%rbp), %rax
	movl	$1, m_rgRejected(,%rax,4)
.LBB30_60:                              # %if.end196
                                        #   in Loop: Header=BB30_57 Depth=1
	jmp	.LBB30_61
.LBB30_61:                              # %for.inc197
                                        #   in Loop: Header=BB30_57 Depth=1
	movl	-4(%rbp), %eax
	addl	$1, %eax
	movl	%eax, -4(%rbp)
	jmp	.LBB30_57
.LBB30_62:                              # %for.end199
	movl	$0, m_rgRejected
	movl	-8(%rbp), %edi
	callq	RCModelEstimator
	cmpl	$0, -16(%rbp)
	je	.LBB30_64
# %bb.63:                               # %if.then201
	callq	updateMADModel
	jmp	.LBB30_67
.LBB30_64:                              # %if.else202
	movq	img, %rax
	cmpl	$0, 24(%rax)
	jne	.LBB30_66
# %bb.65:                               # %if.then206
	vmovsd	CurrentFrameMAD, %xmm0  # xmm0 = mem[0],zero
	vmovsd	%xmm0, PPictureMAD
.LBB30_66:                              # %if.end207
	jmp	.LBB30_67
.LBB30_67:                              # %if.end208
	jmp	.LBB30_68
.LBB30_68:                              # %if.end209
	cmpl	$1039688329, -28(%rbp)  # imm = 0x3DF86289
	jne	.LBB30_70
.LBB30_69:
	addq	$208, %rsp
	popq	%rbp
	.cfi_def_cfa %rsp, 8
	retq
.LBB30_70:                              # %func_exit
	.cfi_def_cfa %rbp, 16
	callq	detect_breach
	jmp	.LBB30_69
.Lfunc_end30:
	.size	updateRCModel.14, .Lfunc_end30-updateRCModel.14
	.cfi_endproc
                                        # -- End function
	.section	.rodata.cst8,"aM",@progbits,8
	.p2align	3               # -- Begin function MADModelEstimator.15
.LCPI31_0:
	.quad	4517329193108106637     # double 9.9999999999999995E-7
.LCPI31_2:
	.quad	4607182418800017408     # double 1
	.section	.rodata.cst16,"aM",@progbits,16
	.p2align	4
.LCPI31_1:
	.quad	9223372036854775807     # double NaN
	.quad	9223372036854775807     # double NaN
	.text
	.globl	MADModelEstimator.15
	.p2align	4, 0x90
	.type	MADModelEstimator.15,@function
MADModelEstimator.15:                   # @MADModelEstimator.15
	.cfi_startproc
# %bb.0:                                # %entry
	pushq	%rbp
	.cfi_def_cfa_offset 16
	.cfi_offset %rbp, -16
	movq	%rsp, %rbp
	.cfi_def_cfa_register %rbp
	subq	$96, %rsp
	movl	$1892123780, -84(%rbp)  # imm = 0x70C78484
	movl	%edi, -8(%rbp)
	movl	-8(%rbp), %eax
	movl	%eax, -12(%rbp)
	vxorps	%xmm0, %xmm0, %xmm0
	vmovsd	%xmm0, -48(%rbp)
	vmovsd	%xmm0, -24(%rbp)
	vmovsd	%xmm0, -80(%rbp)
	vmovsd	%xmm0, -56(%rbp)
	vmovsd	%xmm0, -32(%rbp)
	vmovsd	%xmm0, -64(%rbp)
	movl	$0, -36(%rbp)
	movl	$0, -4(%rbp)
.LBB31_1:                               # %for.cond
                                        # =>This Inner Loop Header: Depth=1
