	.text
	.file	"rdopt.c"
	.globl	clear_rdopt             # -- Begin function clear_rdopt
	.p2align	4, 0x90
	.type	clear_rdopt,@function
clear_rdopt:                            # @clear_rdopt
	.cfi_startproc
# %bb.0:                                # %entry
	pushq	%rbp
	.cfi_def_cfa_offset 16
	.cfi_offset %rbp, -16
	movq	%rsp, %rbp
	.cfi_def_cfa_register %rbp
	movq	cofDC, %rdi
	callq	free_mem_DCcoeff
	movq	cofAC, %rdi
	callq	free_mem_ACcoeff
	movq	cofAC8x8, %rdi
	callq	free_mem_ACcoeff
	movq	cofAC4x4intern, %rdi
	callq	free_mem_ACcoeff
	movq	input, %rax
	cmpl	$0, 3220(%rax)
	je	.LBB0_2
# %bb.1:                                # %if.then
	movq	cofAC_8x8ts, %rdi
	callq	free_mem_ACcoeff
.LBB0_2:                                # %if.end
	movq	cs_mb, %rdi
	callq	delete_coding_state
	movq	cs_b8, %rdi
	callq	delete_coding_state
	movq	cs_cm, %rdi
	callq	delete_coding_state
	movq	cs_imb, %rdi
	callq	delete_coding_state
	movq	cs_ib8, %rdi
	callq	delete_coding_state
	movq	cs_ib4, %rdi
	callq	delete_coding_state
	movq	cs_pc, %rdi
	callq	delete_coding_state
	popq	%rbp
	.cfi_def_cfa %rsp, 8
	retq
.Lfunc_end0:
	.size	clear_rdopt, .Lfunc_end0-clear_rdopt
	.cfi_endproc
                                        # -- End function
	.globl	init_rdopt              # -- Begin function init_rdopt
	.p2align	4, 0x90
	.type	init_rdopt,@function
init_rdopt:                             # @init_rdopt
	.cfi_startproc
# %bb.0:                                # %entry
	pushq	%rbp
	.cfi_def_cfa_offset 16
	.cfi_offset %rbp, -16
	movq	%rsp, %rbp
	.cfi_def_cfa_register %rbp
	movq	$0, rdopt
	movabsq	$cofDC, %rdi
	callq	get_mem_DCcoeff
	movabsq	$cofAC, %rdi
	callq	get_mem_ACcoeff
	movabsq	$cofAC8x8, %rdi
	callq	get_mem_ACcoeff
	movabsq	$cofAC4x4intern, %rdi
	callq	get_mem_ACcoeff
	movq	cofAC4x4intern, %rax
	movq	(%rax), %rax
	movq	(%rax), %rax
	movq	%rax, cofAC4x4
	movq	input, %rax
	cmpl	$0, 3220(%rax)
	je	.LBB1_2
# %bb.1:                                # %if.then
	movabsq	$cofAC_8x8ts, %rdi
	callq	get_mem_ACcoeff
.LBB1_2:                                # %if.end
	movb	$0, %al
	callq	create_coding_state
	movq	%rax, cs_mb
	movb	$0, %al
	callq	create_coding_state
	movq	%rax, cs_b8
	movb	$0, %al
	callq	create_coding_state
	movq	%rax, cs_cm
	movb	$0, %al
	callq	create_coding_state
	movq	%rax, cs_imb
	movb	$0, %al
	callq	create_coding_state
	movq	%rax, cs_ib8
	movb	$0, %al
	callq	create_coding_state
	movq	%rax, cs_ib4
	movb	$0, %al
	callq	create_coding_state
	movq	%rax, cs_pc
	popq	%rbp
	.cfi_def_cfa %rsp, 8
	retq
.Lfunc_end1:
	.size	init_rdopt, .Lfunc_end1-init_rdopt
	.cfi_endproc
                                        # -- End function
	.globl	UpdatePixelMap          # -- Begin function UpdatePixelMap
	.p2align	4, 0x90
	.type	UpdatePixelMap,@function
UpdatePixelMap:                         # @UpdatePixelMap
	.cfi_startproc
# %bb.0:                                # %entry
	pushq	%rbp
	.cfi_def_cfa_offset 16
	.cfi_offset %rbp, -16
	movq	%rsp, %rbp
	.cfi_def_cfa_register %rbp
	movq	img, %rax
	cmpl	$2, 24(%rax)
	jne	.LBB2_10
# %bb.1:                                # %if.then
	movl	$0, -8(%rbp)
.LBB2_2:                                # %for.cond
                                        # =>This Loop Header: Depth=1
                                        #     Child Loop BB2_4 Depth 2
	movl	-8(%rbp), %eax
	movq	img, %rcx
	cmpl	60(%rcx), %eax
	jge	.LBB2_9
# %bb.3:                                # %for.body
                                        #   in Loop: Header=BB2_2 Depth=1
	movl	$0, -4(%rbp)
.LBB2_4:                                # %for.cond2
                                        #   Parent Loop BB2_2 Depth=1
                                        # =>  This Inner Loop Header: Depth=2
	movl	-4(%rbp), %eax
	movq	img, %rcx
	cmpl	52(%rcx), %eax
	jge	.LBB2_7
# %bb.5:                                # %for.body4
                                        #   in Loop: Header=BB2_4 Depth=2
	movq	pixel_map, %rax
	movslq	-8(%rbp), %rcx
	movq	(%rax,%rcx,8), %rax
	movslq	-4(%rbp), %rcx
	movb	$1, (%rax,%rcx)
# %bb.6:                                # %for.inc
                                        #   in Loop: Header=BB2_4 Depth=2
	movl	-4(%rbp), %eax
	addl	$1, %eax
	movl	%eax, -4(%rbp)
	jmp	.LBB2_4
.LBB2_7:                                # %for.end
                                        #   in Loop: Header=BB2_2 Depth=1
	jmp	.LBB2_8
.LBB2_8:                                # %for.inc7
                                        #   in Loop: Header=BB2_2 Depth=1
	movl	-8(%rbp), %eax
	addl	$1, %eax
	movl	%eax, -8(%rbp)
	jmp	.LBB2_2
.LBB2_9:                                # %for.end9
	jmp	.LBB2_41
.LBB2_10:                               # %if.else
	movl	$0, -12(%rbp)
.LBB2_11:                               # %for.cond10
                                        # =>This Loop Header: Depth=1
                                        #     Child Loop BB2_13 Depth 2
                                        #       Child Loop BB2_16 Depth 3
                                        #         Child Loop BB2_18 Depth 4
                                        #       Child Loop BB2_25 Depth 3
                                        #         Child Loop BB2_27 Depth 4
	movl	-12(%rbp), %ecx
	movq	img, %rax
	movl	60(%rax), %eax
	cltd
	movl	$8, %esi
	idivl	%esi
	cmpl	%eax, %ecx
	jge	.LBB2_40
# %bb.12:                               # %for.body13
                                        #   in Loop: Header=BB2_11 Depth=1
	movl	$0, -16(%rbp)
.LBB2_13:                               # %for.cond14
                                        #   Parent Loop BB2_11 Depth=1
                                        # =>  This Loop Header: Depth=2
                                        #       Child Loop BB2_16 Depth 3
                                        #         Child Loop BB2_18 Depth 4
                                        #       Child Loop BB2_25 Depth 3
                                        #         Child Loop BB2_27 Depth 4
	movl	-16(%rbp), %ecx
	movq	img, %rax
	movl	52(%rax), %eax
	cltd
	movl	$8, %esi
	idivl	%esi
	cmpl	%eax, %ecx
	jge	.LBB2_38
# %bb.14:                               # %for.body18
                                        #   in Loop: Header=BB2_13 Depth=2
	movl	-12(%rbp), %eax
	shll	$3, %eax
	addl	$8, %eax
	movl	%eax, -20(%rbp)
	movl	-16(%rbp), %eax
	shll	$3, %eax
	addl	$8, %eax
	movl	%eax, -24(%rbp)
	movq	refresh_map, %rax
	movslq	-12(%rbp), %rcx
	movq	(%rax,%rcx,8), %rax
	movslq	-16(%rbp), %rcx
	cmpb	$0, (%rax,%rcx)
	je	.LBB2_24
# %bb.15:                               # %if.then25
                                        #   in Loop: Header=BB2_13 Depth=2
	movl	-12(%rbp), %eax
	shll	$3, %eax
	movl	%eax, -8(%rbp)
.LBB2_16:                               # %for.cond27
                                        #   Parent Loop BB2_11 Depth=1
                                        #     Parent Loop BB2_13 Depth=2
                                        # =>    This Loop Header: Depth=3
                                        #         Child Loop BB2_18 Depth 4
	movl	-8(%rbp), %eax
	cmpl	-20(%rbp), %eax
	jge	.LBB2_23
# %bb.17:                               # %for.body29
                                        #   in Loop: Header=BB2_16 Depth=3
	movl	-16(%rbp), %eax
	shll	$3, %eax
	movl	%eax, -4(%rbp)
.LBB2_18:                               # %for.cond31
                                        #   Parent Loop BB2_11 Depth=1
                                        #     Parent Loop BB2_13 Depth=2
                                        #       Parent Loop BB2_16 Depth=3
                                        # =>      This Inner Loop Header: Depth=4
	movl	-4(%rbp), %eax
	cmpl	-24(%rbp), %eax
	jge	.LBB2_21
# %bb.19:                               # %for.body33
                                        #   in Loop: Header=BB2_18 Depth=4
	movq	pixel_map, %rax
	movslq	-8(%rbp), %rcx
	movq	(%rax,%rcx,8), %rax
	movslq	-4(%rbp), %rcx
	movb	$1, (%rax,%rcx)
# %bb.20:                               # %for.inc38
                                        #   in Loop: Header=BB2_18 Depth=4
	movl	-4(%rbp), %eax
	addl	$1, %eax
	movl	%eax, -4(%rbp)
	jmp	.LBB2_18
.LBB2_21:                               # %for.end40
                                        #   in Loop: Header=BB2_16 Depth=3
	jmp	.LBB2_22
.LBB2_22:                               # %for.inc41
                                        #   in Loop: Header=BB2_16 Depth=3
	movl	-8(%rbp), %eax
	addl	$1, %eax
	movl	%eax, -8(%rbp)
	jmp	.LBB2_16
.LBB2_23:                               # %for.end43
                                        #   in Loop: Header=BB2_13 Depth=2
	jmp	.LBB2_36
.LBB2_24:                               # %if.else44
                                        #   in Loop: Header=BB2_13 Depth=2
	movl	-12(%rbp), %eax
	shll	$3, %eax
	movl	%eax, -8(%rbp)
.LBB2_25:                               # %for.cond46
                                        #   Parent Loop BB2_11 Depth=1
                                        #     Parent Loop BB2_13 Depth=2
                                        # =>    This Loop Header: Depth=3
                                        #         Child Loop BB2_27 Depth 4
	movl	-8(%rbp), %eax
	cmpl	-20(%rbp), %eax
	jge	.LBB2_35
# %bb.26:                               # %for.body48
                                        #   in Loop: Header=BB2_25 Depth=3
	movl	-16(%rbp), %eax
	shll	$3, %eax
	movl	%eax, -4(%rbp)
.LBB2_27:                               # %for.cond50
                                        #   Parent Loop BB2_11 Depth=1
                                        #     Parent Loop BB2_13 Depth=2
                                        #       Parent Loop BB2_25 Depth=3
                                        # =>      This Inner Loop Header: Depth=4
	movl	-4(%rbp), %eax
	cmpl	-24(%rbp), %eax
	jge	.LBB2_33
# %bb.28:                               # %for.body52
                                        #   in Loop: Header=BB2_27 Depth=4
	movq	pixel_map, %rax
	movslq	-8(%rbp), %rcx
	movq	(%rax,%rcx,8), %rax
	movslq	-4(%rbp), %rcx
	movzbl	(%rax,%rcx), %eax
	addl	$1, %eax
	movq	input, %rcx
	movl	36(%rcx), %ecx
	addl	$1, %ecx
	cmpl	%ecx, %eax
	jge	.LBB2_30
# %bb.29:                               # %cond.true
                                        #   in Loop: Header=BB2_27 Depth=4
	movq	pixel_map, %rax
	movslq	-8(%rbp), %rcx
	movq	(%rax,%rcx,8), %rax
	movslq	-4(%rbp), %rcx
	movzbl	(%rax,%rcx), %eax
	addl	$1, %eax
	jmp	.LBB2_31
.LBB2_30:                               # %cond.false
                                        #   in Loop: Header=BB2_27 Depth=4
	movq	input, %rax
	movl	36(%rax), %eax
	addl	$1, %eax
.LBB2_31:                               # %cond.end
                                        #   in Loop: Header=BB2_27 Depth=4
	movq	pixel_map, %rcx
	movslq	-8(%rbp), %rdx
	movq	(%rcx,%rdx,8), %rcx
	movslq	-4(%rbp), %rdx
	movb	%al, (%rcx,%rdx)
# %bb.32:                               # %for.inc74
                                        #   in Loop: Header=BB2_27 Depth=4
	movl	-4(%rbp), %eax
	addl	$1, %eax
	movl	%eax, -4(%rbp)
	jmp	.LBB2_27
.LBB2_33:                               # %for.end76
                                        #   in Loop: Header=BB2_25 Depth=3
	jmp	.LBB2_34
.LBB2_34:                               # %for.inc77
                                        #   in Loop: Header=BB2_25 Depth=3
	movl	-8(%rbp), %eax
	addl	$1, %eax
	movl	%eax, -8(%rbp)
	jmp	.LBB2_25
.LBB2_35:                               # %for.end79
                                        #   in Loop: Header=BB2_13 Depth=2
	jmp	.LBB2_36
.LBB2_36:                               # %if.end
                                        #   in Loop: Header=BB2_13 Depth=2
	jmp	.LBB2_37
.LBB2_37:                               # %for.inc80
                                        #   in Loop: Header=BB2_13 Depth=2
	movl	-16(%rbp), %eax
	addl	$1, %eax
	movl	%eax, -16(%rbp)
	jmp	.LBB2_13
.LBB2_38:                               # %for.end82
                                        #   in Loop: Header=BB2_11 Depth=1
	jmp	.LBB2_39
.LBB2_39:                               # %for.inc83
                                        #   in Loop: Header=BB2_11 Depth=1
	movl	-12(%rbp), %eax
	addl	$1, %eax
	movl	%eax, -12(%rbp)
	jmp	.LBB2_11
.LBB2_40:                               # %for.end85
	jmp	.LBB2_41
.LBB2_41:                               # %if.end86
	popq	%rbp
	.cfi_def_cfa %rsp, 8
	retq
.Lfunc_end2:
	.size	UpdatePixelMap, .Lfunc_end2-UpdatePixelMap
	.cfi_endproc
                                        # -- End function
	.globl	CheckReliabilityOfRef   # -- Begin function CheckReliabilityOfRef
	.p2align	4, 0x90
	.type	CheckReliabilityOfRef,@function
CheckReliabilityOfRef:                  # @CheckReliabilityOfRef
	.cfi_startproc
# %bb.0:                                # %entry
	pushq	%rbp
	.cfi_def_cfa_offset 16
	.cfi_offset %rbp, -16
	movq	%rsp, %rbp
	.cfi_def_cfa_register %rbp
	movl	%edi, -72(%rbp)
	movl	%esi, -88(%rbp)
	movl	%edx, -76(%rbp)
	movl	%ecx, -44(%rbp)
	movq	img, %rax
	movl	52(%rax), %eax
	subl	$1, %eax
	movl	%eax, -32(%rbp)
	movq	img, %rax
	movl	60(%rax), %eax
	subl	$1, %eax
	movl	%eax, -28(%rbp)
	movl	-76(%rbp), %eax
	addl	$1, %eax
	movl	%eax, -52(%rbp)
	cmpl	$4, -44(%rbp)
	jl	.LBB3_2
# %bb.1:                                # %cond.true
	movl	-72(%rbp), %eax
	cltd
	movl	$2, %ecx
	idivl	%ecx
	shll	$1, %eax
	jmp	.LBB3_6
.LBB3_2:                                # %cond.false
	cmpl	$2, -44(%rbp)
	jne	.LBB3_4
# %bb.3:                                # %cond.true3
	movl	-72(%rbp), %eax
	shll	$1, %eax
	jmp	.LBB3_5
.LBB3_4:                                # %cond.false5
	xorl	%eax, %eax
	jmp	.LBB3_5
.LBB3_5:                                # %cond.end
.LBB3_6:                                # %cond.end6
	movl	%eax, -84(%rbp)
	movl	-84(%rbp), %eax
	cmpl	$4, -44(%rbp)
	movb	$1, %cl
	jge	.LBB3_8
# %bb.7:                                # %lor.rhs
	cmpl	$2, -44(%rbp)
	sete	%cl
.LBB3_8:                                # %lor.end
	testb	$1, %cl
	movl	$2, %ecx
	movl	$4, %edx
	cmovnel	%ecx, %edx
	addl	%edx, %eax
	movl	%eax, -96(%rbp)
	cmpl	$4, -44(%rbp)
	jl	.LBB3_10
# %bb.9:                                # %cond.true13
	movl	-72(%rbp), %eax
	cltd
	movl	$2, %ecx
	idivl	%ecx
	shll	$1, %edx
	jmp	.LBB3_14
.LBB3_10:                               # %cond.false15
	cmpl	$3, -44(%rbp)
	jne	.LBB3_12
# %bb.11:                               # %cond.true17
	movl	-72(%rbp), %edx
	shll	$1, %edx
	jmp	.LBB3_13
.LBB3_12:                               # %cond.false19
	xorl	%edx, %edx
	jmp	.LBB3_13
.LBB3_13:                               # %cond.end20
.LBB3_14:                               # %cond.end22
	movl	%edx, -80(%rbp)
	movl	-80(%rbp), %eax
	cmpl	$4, -44(%rbp)
	movb	$1, %cl
	jge	.LBB3_16
# %bb.15:                               # %lor.rhs25
	cmpl	$3, -44(%rbp)
	sete	%cl
.LBB3_16:                               # %lor.end27
	testb	$1, %cl
	movl	$2, %ecx
	movl	$4, %edx
	cmovnel	%ecx, %edx
	addl	%edx, %eax
	movl	%eax, -92(%rbp)
	movl	-84(%rbp), %eax
	movl	%eax, -60(%rbp)
.LBB3_17:                               # %for.cond
                                        # =>This Loop Header: Depth=1
                                        #     Child Loop BB3_19 Depth 2
                                        #       Child Loop BB3_23 Depth 3
                                        #         Child Loop BB3_25 Depth 4
                                        #       Child Loop BB3_53 Depth 3
                                        #         Child Loop BB3_55 Depth 4
                                        #           Child Loop BB3_66 Depth 5
                                        #       Child Loop BB3_87 Depth 3
                                        #         Child Loop BB3_89 Depth 4
                                        #           Child Loop BB3_100 Depth 5
                                        #       Child Loop BB3_121 Depth 3
                                        #         Child Loop BB3_123 Depth 4
                                        #           Child Loop BB3_125 Depth 5
                                        #             Child Loop BB3_136 Depth 6
                                        #       Child Loop BB3_159 Depth 3
                                        #         Child Loop BB3_161 Depth 4
                                        #           Child Loop BB3_163 Depth 5
                                        #             Child Loop BB3_174 Depth 6
                                        #       Child Loop BB3_196 Depth 3
                                        #         Child Loop BB3_198 Depth 4
                                        #           Child Loop BB3_212 Depth 5
                                        #           Child Loop BB3_239 Depth 5
	movl	-60(%rbp), %eax
	cmpl	-96(%rbp), %eax
	jge	.LBB3_266
# %bb.18:                               # %for.body
                                        #   in Loop: Header=BB3_17 Depth=1
	movl	-80(%rbp), %eax
	movl	%eax, -56(%rbp)
.LBB3_19:                               # %for.cond31
                                        #   Parent Loop BB3_17 Depth=1
                                        # =>  This Loop Header: Depth=2
                                        #       Child Loop BB3_23 Depth 3
                                        #         Child Loop BB3_25 Depth 4
                                        #       Child Loop BB3_53 Depth 3
                                        #         Child Loop BB3_55 Depth 4
                                        #           Child Loop BB3_66 Depth 5
                                        #       Child Loop BB3_87 Depth 3
                                        #         Child Loop BB3_89 Depth 4
                                        #           Child Loop BB3_100 Depth 5
                                        #       Child Loop BB3_121 Depth 3
                                        #         Child Loop BB3_123 Depth 4
                                        #           Child Loop BB3_125 Depth 5
                                        #             Child Loop BB3_136 Depth 6
                                        #       Child Loop BB3_159 Depth 3
                                        #         Child Loop BB3_161 Depth 4
                                        #           Child Loop BB3_163 Depth 5
                                        #             Child Loop BB3_174 Depth 6
                                        #       Child Loop BB3_196 Depth 3
                                        #         Child Loop BB3_198 Depth 4
                                        #           Child Loop BB3_212 Depth 5
                                        #           Child Loop BB3_239 Depth 5
	movl	-56(%rbp), %eax
	cmpl	-92(%rbp), %eax
	jge	.LBB3_264
# %bb.20:                               # %for.body33
                                        #   in Loop: Header=BB3_19 Depth=2
	movq	img, %rax
	movq	71928(%rax), %rax
	movslq	-56(%rbp), %rcx
	movq	(%rax,%rcx,8), %rax
	movslq	-60(%rbp), %rcx
	movq	(%rax,%rcx,8), %rax
	movslq	-88(%rbp), %rcx
	movq	(%rax,%rcx,8), %rax
	movslq	-76(%rbp), %rcx
	movq	(%rax,%rcx,8), %rax
	movslq	-44(%rbp), %rcx
	movq	(%rax,%rcx,8), %rax
	movswl	2(%rax), %eax
	movl	%eax, -24(%rbp)
	movq	img, %rax
	movl	148(%rax), %eax
	addl	-60(%rbp), %eax
	shll	$2, %eax
	shll	$2, %eax
	addl	-24(%rbp), %eax
	movl	%eax, -24(%rbp)
	movq	img, %rax
	movq	71928(%rax), %rax
	movslq	-56(%rbp), %rcx
	movq	(%rax,%rcx,8), %rax
	movslq	-60(%rbp), %rcx
	movq	(%rax,%rcx,8), %rax
	movslq	-88(%rbp), %rcx
	movq	(%rax,%rcx,8), %rax
	movslq	-76(%rbp), %rcx
	movq	(%rax,%rcx,8), %rax
	movslq	-44(%rbp), %rcx
	movq	(%rax,%rcx,8), %rax
	movswl	(%rax), %eax
	movl	%eax, -20(%rbp)
	movq	img, %rax
	movl	144(%rax), %eax
	addl	-56(%rbp), %eax
	shll	$2, %eax
	shll	$2, %eax
	addl	-20(%rbp), %eax
	movl	%eax, -20(%rbp)
	movl	-24(%rbp), %eax
	andl	$3, %eax
	movl	%eax, -68(%rbp)
	movl	-20(%rbp), %eax
	andl	$3, %eax
	movl	%eax, -64(%rbp)
	movl	-24(%rbp), %eax
	subl	-68(%rbp), %eax
	cltd
	movl	$4, %ecx
	idivl	%ecx
	movl	%eax, -24(%rbp)
	movl	-20(%rbp), %eax
	subl	-64(%rbp), %eax
	cltd
	idivl	%ecx
	movl	%eax, -20(%rbp)
	cmpl	$0, -68(%rbp)
	jne	.LBB3_51
# %bb.21:                               # %land.lhs.true
                                        #   in Loop: Header=BB3_19 Depth=2
	cmpl	$0, -64(%rbp)
	jne	.LBB3_51
# %bb.22:                               # %if.then
                                        #   in Loop: Header=BB3_19 Depth=2
	movl	$0, -8(%rbp)
.LBB3_23:                               # %for.cond75
                                        #   Parent Loop BB3_17 Depth=1
                                        #     Parent Loop BB3_19 Depth=2
                                        # =>    This Loop Header: Depth=3
                                        #         Child Loop BB3_25 Depth 4
	cmpl	$4, -8(%rbp)
	jge	.LBB3_50
# %bb.24:                               # %for.body78
                                        #   in Loop: Header=BB3_23 Depth=3
	movl	$0, -4(%rbp)
.LBB3_25:                               # %for.cond79
                                        #   Parent Loop BB3_17 Depth=1
                                        #     Parent Loop BB3_19 Depth=2
                                        #       Parent Loop BB3_23 Depth=3
                                        # =>      This Inner Loop Header: Depth=4
	cmpl	$4, -4(%rbp)
	jge	.LBB3_48
# %bb.26:                               # %for.body82
                                        #   in Loop: Header=BB3_25 Depth=4
	movq	pixel_map, %rax
	movl	-28(%rbp), %ecx
	movl	-24(%rbp), %edx
	addl	-8(%rbp), %edx
	cmpl	%edx, %ecx
	jge	.LBB3_28
# %bb.27:                               # %cond.true86
                                        #   in Loop: Header=BB3_25 Depth=4
	movl	-28(%rbp), %ecx
	jmp	.LBB3_29
.LBB3_28:                               # %cond.false87
                                        #   in Loop: Header=BB3_25 Depth=4
	movl	-24(%rbp), %ecx
	addl	-8(%rbp), %ecx
.LBB3_29:                               # %cond.end89
                                        #   in Loop: Header=BB3_25 Depth=4
	xorl	%edx, %edx
	cmpl	%ecx, %edx
	jle	.LBB3_31
# %bb.30:                               # %cond.true93
                                        #   in Loop: Header=BB3_25 Depth=4
	xorl	%ecx, %ecx
	jmp	.LBB3_35
.LBB3_31:                               # %cond.false94
                                        #   in Loop: Header=BB3_25 Depth=4
	movl	-28(%rbp), %ecx
	movl	-24(%rbp), %edx
	addl	-8(%rbp), %edx
	cmpl	%edx, %ecx
	jge	.LBB3_33
# %bb.32:                               # %cond.true98
                                        #   in Loop: Header=BB3_25 Depth=4
	movl	-28(%rbp), %ecx
	jmp	.LBB3_34
.LBB3_33:                               # %cond.false99
                                        #   in Loop: Header=BB3_25 Depth=4
	movl	-24(%rbp), %ecx
	addl	-8(%rbp), %ecx
.LBB3_34:                               # %cond.end101
                                        #   in Loop: Header=BB3_25 Depth=4
.LBB3_35:                               # %cond.end103
                                        #   in Loop: Header=BB3_25 Depth=4
	movslq	%ecx, %rcx
	movq	(%rax,%rcx,8), %rax
	movl	-32(%rbp), %ecx
	movl	-20(%rbp), %edx
	addl	-4(%rbp), %edx
	cmpl	%edx, %ecx
	jge	.LBB3_37
# %bb.36:                               # %cond.true110
                                        #   in Loop: Header=BB3_25 Depth=4
	movl	-32(%rbp), %ecx
	jmp	.LBB3_38
.LBB3_37:                               # %cond.false111
                                        #   in Loop: Header=BB3_25 Depth=4
	movl	-20(%rbp), %ecx
	addl	-4(%rbp), %ecx
.LBB3_38:                               # %cond.end113
                                        #   in Loop: Header=BB3_25 Depth=4
	xorl	%edx, %edx
	cmpl	%ecx, %edx
	jle	.LBB3_40
# %bb.39:                               # %cond.true117
                                        #   in Loop: Header=BB3_25 Depth=4
	xorl	%ecx, %ecx
	jmp	.LBB3_44
.LBB3_40:                               # %cond.false118
                                        #   in Loop: Header=BB3_25 Depth=4
	movl	-32(%rbp), %ecx
	movl	-20(%rbp), %edx
	addl	-4(%rbp), %edx
	cmpl	%edx, %ecx
	jge	.LBB3_42
# %bb.41:                               # %cond.true122
                                        #   in Loop: Header=BB3_25 Depth=4
	movl	-32(%rbp), %ecx
	jmp	.LBB3_43
.LBB3_42:                               # %cond.false123
                                        #   in Loop: Header=BB3_25 Depth=4
	movl	-20(%rbp), %ecx
	addl	-4(%rbp), %ecx
.LBB3_43:                               # %cond.end125
                                        #   in Loop: Header=BB3_25 Depth=4
.LBB3_44:                               # %cond.end127
                                        #   in Loop: Header=BB3_25 Depth=4
	movslq	%ecx, %rcx
	movzbl	(%rax,%rcx), %eax
	cmpl	-52(%rbp), %eax
	jge	.LBB3_46
# %bb.45:                               # %if.then134
	movl	$0, -48(%rbp)
	jmp	.LBB3_267
.LBB3_46:                               # %if.end
                                        #   in Loop: Header=BB3_25 Depth=4
	jmp	.LBB3_47
.LBB3_47:                               # %for.inc
                                        #   in Loop: Header=BB3_25 Depth=4
	movl	-4(%rbp), %eax
	addl	$1, %eax
	movl	%eax, -4(%rbp)
	jmp	.LBB3_25
.LBB3_48:                               # %for.end
                                        #   in Loop: Header=BB3_23 Depth=3
	jmp	.LBB3_49
.LBB3_49:                               # %for.inc135
                                        #   in Loop: Header=BB3_23 Depth=3
	movl	-8(%rbp), %eax
	addl	$1, %eax
	movl	%eax, -8(%rbp)
	jmp	.LBB3_23
.LBB3_50:                               # %for.end137
                                        #   in Loop: Header=BB3_19 Depth=2
	jmp	.LBB3_262
.LBB3_51:                               # %if.else
                                        #   in Loop: Header=BB3_19 Depth=2
	cmpl	$0, -68(%rbp)
	jne	.LBB3_85
# %bb.52:                               # %if.then140
                                        #   in Loop: Header=BB3_19 Depth=2
	movl	$0, -8(%rbp)
.LBB3_53:                               # %for.cond141
                                        #   Parent Loop BB3_17 Depth=1
                                        #     Parent Loop BB3_19 Depth=2
                                        # =>    This Loop Header: Depth=3
                                        #         Child Loop BB3_55 Depth 4
                                        #           Child Loop BB3_66 Depth 5
	cmpl	$4, -8(%rbp)
	jge	.LBB3_84
# %bb.54:                               # %for.body144
                                        #   in Loop: Header=BB3_53 Depth=3
	movl	$0, -4(%rbp)
.LBB3_55:                               # %for.cond145
                                        #   Parent Loop BB3_17 Depth=1
                                        #     Parent Loop BB3_19 Depth=2
                                        #       Parent Loop BB3_53 Depth=3
                                        # =>      This Loop Header: Depth=4
                                        #           Child Loop BB3_66 Depth 5
	cmpl	$4, -4(%rbp)
	jge	.LBB3_82
# %bb.56:                               # %for.body148
                                        #   in Loop: Header=BB3_55 Depth=4
	movl	-28(%rbp), %eax
	movl	-24(%rbp), %ecx
	addl	-8(%rbp), %ecx
	cmpl	%ecx, %eax
	jge	.LBB3_58
# %bb.57:                               # %cond.true152
                                        #   in Loop: Header=BB3_55 Depth=4
	movl	-28(%rbp), %eax
	jmp	.LBB3_59
.LBB3_58:                               # %cond.false153
                                        #   in Loop: Header=BB3_55 Depth=4
	movl	-24(%rbp), %eax
	addl	-8(%rbp), %eax
.LBB3_59:                               # %cond.end155
                                        #   in Loop: Header=BB3_55 Depth=4
	xorl	%ecx, %ecx
	cmpl	%eax, %ecx
	jle	.LBB3_61
# %bb.60:                               # %cond.true159
                                        #   in Loop: Header=BB3_55 Depth=4
	xorl	%eax, %eax
	jmp	.LBB3_65
.LBB3_61:                               # %cond.false160
                                        #   in Loop: Header=BB3_55 Depth=4
	movl	-28(%rbp), %eax
	movl	-24(%rbp), %ecx
	addl	-8(%rbp), %ecx
	cmpl	%ecx, %eax
	jge	.LBB3_63
# %bb.62:                               # %cond.true164
                                        #   in Loop: Header=BB3_55 Depth=4
	movl	-28(%rbp), %eax
	jmp	.LBB3_64
.LBB3_63:                               # %cond.false165
                                        #   in Loop: Header=BB3_55 Depth=4
	movl	-24(%rbp), %eax
	addl	-8(%rbp), %eax
.LBB3_64:                               # %cond.end167
                                        #   in Loop: Header=BB3_55 Depth=4
.LBB3_65:                               # %cond.end169
                                        #   in Loop: Header=BB3_55 Depth=4
	movl	%eax, -36(%rbp)
	movl	$-2, -12(%rbp)
.LBB3_66:                               # %for.cond171
                                        #   Parent Loop BB3_17 Depth=1
                                        #     Parent Loop BB3_19 Depth=2
                                        #       Parent Loop BB3_53 Depth=3
                                        #         Parent Loop BB3_55 Depth=4
                                        # =>        This Inner Loop Header: Depth=5
	cmpl	$4, -12(%rbp)
	jge	.LBB3_80
# %bb.67:                               # %for.body174
                                        #   in Loop: Header=BB3_66 Depth=5
	movl	-32(%rbp), %eax
	movl	-20(%rbp), %ecx
	addl	-4(%rbp), %ecx
	addl	-12(%rbp), %ecx
	cmpl	%ecx, %eax
	jge	.LBB3_69
# %bb.68:                               # %cond.true179
                                        #   in Loop: Header=BB3_66 Depth=5
	movl	-32(%rbp), %eax
	jmp	.LBB3_70
.LBB3_69:                               # %cond.false180
                                        #   in Loop: Header=BB3_66 Depth=5
	movl	-20(%rbp), %eax
	addl	-4(%rbp), %eax
	addl	-12(%rbp), %eax
.LBB3_70:                               # %cond.end183
                                        #   in Loop: Header=BB3_66 Depth=5
	xorl	%ecx, %ecx
	cmpl	%eax, %ecx
	jle	.LBB3_72
# %bb.71:                               # %cond.true187
                                        #   in Loop: Header=BB3_66 Depth=5
	xorl	%eax, %eax
	jmp	.LBB3_76
.LBB3_72:                               # %cond.false188
                                        #   in Loop: Header=BB3_66 Depth=5
	movl	-32(%rbp), %eax
	movl	-20(%rbp), %ecx
	addl	-4(%rbp), %ecx
	addl	-12(%rbp), %ecx
	cmpl	%ecx, %eax
	jge	.LBB3_74
# %bb.73:                               # %cond.true193
                                        #   in Loop: Header=BB3_66 Depth=5
	movl	-32(%rbp), %eax
	jmp	.LBB3_75
.LBB3_74:                               # %cond.false194
                                        #   in Loop: Header=BB3_66 Depth=5
	movl	-20(%rbp), %eax
	addl	-4(%rbp), %eax
	addl	-12(%rbp), %eax
.LBB3_75:                               # %cond.end197
                                        #   in Loop: Header=BB3_66 Depth=5
.LBB3_76:                               # %cond.end199
                                        #   in Loop: Header=BB3_66 Depth=5
	movl	%eax, -40(%rbp)
	movq	pixel_map, %rax
	movslq	-36(%rbp), %rcx
	movq	(%rax,%rcx,8), %rax
	movslq	-40(%rbp), %rcx
	movzbl	(%rax,%rcx), %eax
	cmpl	-52(%rbp), %eax
	jge	.LBB3_78
# %bb.77:                               # %if.then208
	movl	$0, -48(%rbp)
	jmp	.LBB3_267
.LBB3_78:                               # %if.end209
                                        #   in Loop: Header=BB3_66 Depth=5
	jmp	.LBB3_79
.LBB3_79:                               # %for.inc210
                                        #   in Loop: Header=BB3_66 Depth=5
	movl	-12(%rbp), %eax
	addl	$1, %eax
	movl	%eax, -12(%rbp)
	jmp	.LBB3_66
.LBB3_80:                               # %for.end212
                                        #   in Loop: Header=BB3_55 Depth=4
	jmp	.LBB3_81
.LBB3_81:                               # %for.inc213
                                        #   in Loop: Header=BB3_55 Depth=4
	movl	-4(%rbp), %eax
	addl	$1, %eax
	movl	%eax, -4(%rbp)
	jmp	.LBB3_55
.LBB3_82:                               # %for.end215
                                        #   in Loop: Header=BB3_53 Depth=3
	jmp	.LBB3_83
.LBB3_83:                               # %for.inc216
                                        #   in Loop: Header=BB3_53 Depth=3
	movl	-8(%rbp), %eax
	addl	$1, %eax
	movl	%eax, -8(%rbp)
	jmp	.LBB3_53
.LBB3_84:                               # %for.end218
                                        #   in Loop: Header=BB3_19 Depth=2
	jmp	.LBB3_261
.LBB3_85:                               # %if.else219
                                        #   in Loop: Header=BB3_19 Depth=2
	cmpl	$0, -64(%rbp)
	jne	.LBB3_119
# %bb.86:                               # %if.then222
                                        #   in Loop: Header=BB3_19 Depth=2
	movl	$0, -8(%rbp)
.LBB3_87:                               # %for.cond223
                                        #   Parent Loop BB3_17 Depth=1
                                        #     Parent Loop BB3_19 Depth=2
                                        # =>    This Loop Header: Depth=3
                                        #         Child Loop BB3_89 Depth 4
                                        #           Child Loop BB3_100 Depth 5
	cmpl	$4, -8(%rbp)
	jge	.LBB3_118
# %bb.88:                               # %for.body226
                                        #   in Loop: Header=BB3_87 Depth=3
	movl	$0, -4(%rbp)
.LBB3_89:                               # %for.cond227
                                        #   Parent Loop BB3_17 Depth=1
                                        #     Parent Loop BB3_19 Depth=2
                                        #       Parent Loop BB3_87 Depth=3
                                        # =>      This Loop Header: Depth=4
                                        #           Child Loop BB3_100 Depth 5
	cmpl	$4, -4(%rbp)
	jge	.LBB3_116
# %bb.90:                               # %for.body230
                                        #   in Loop: Header=BB3_89 Depth=4
	movl	-32(%rbp), %eax
	movl	-20(%rbp), %ecx
	addl	-4(%rbp), %ecx
	cmpl	%ecx, %eax
	jge	.LBB3_92
# %bb.91:                               # %cond.true234
                                        #   in Loop: Header=BB3_89 Depth=4
	movl	-32(%rbp), %eax
	jmp	.LBB3_93
.LBB3_92:                               # %cond.false235
                                        #   in Loop: Header=BB3_89 Depth=4
	movl	-20(%rbp), %eax
	addl	-4(%rbp), %eax
.LBB3_93:                               # %cond.end237
                                        #   in Loop: Header=BB3_89 Depth=4
	xorl	%ecx, %ecx
	cmpl	%eax, %ecx
	jle	.LBB3_95
# %bb.94:                               # %cond.true241
                                        #   in Loop: Header=BB3_89 Depth=4
	xorl	%eax, %eax
	jmp	.LBB3_99
.LBB3_95:                               # %cond.false242
                                        #   in Loop: Header=BB3_89 Depth=4
	movl	-32(%rbp), %eax
	movl	-20(%rbp), %ecx
	addl	-4(%rbp), %ecx
	cmpl	%ecx, %eax
	jge	.LBB3_97
# %bb.96:                               # %cond.true246
                                        #   in Loop: Header=BB3_89 Depth=4
	movl	-32(%rbp), %eax
	jmp	.LBB3_98
.LBB3_97:                               # %cond.false247
                                        #   in Loop: Header=BB3_89 Depth=4
	movl	-20(%rbp), %eax
	addl	-4(%rbp), %eax
.LBB3_98:                               # %cond.end249
                                        #   in Loop: Header=BB3_89 Depth=4
.LBB3_99:                               # %cond.end251
                                        #   in Loop: Header=BB3_89 Depth=4
	movl	%eax, -40(%rbp)
	movl	$-2, -16(%rbp)
.LBB3_100:                              # %for.cond253
                                        #   Parent Loop BB3_17 Depth=1
                                        #     Parent Loop BB3_19 Depth=2
                                        #       Parent Loop BB3_87 Depth=3
                                        #         Parent Loop BB3_89 Depth=4
                                        # =>        This Inner Loop Header: Depth=5
	cmpl	$4, -16(%rbp)
	jge	.LBB3_114
# %bb.101:                              # %for.body256
                                        #   in Loop: Header=BB3_100 Depth=5
	movl	-28(%rbp), %eax
	movl	-24(%rbp), %ecx
	addl	-16(%rbp), %ecx
	addl	-8(%rbp), %ecx
	cmpl	%ecx, %eax
	jge	.LBB3_103
# %bb.102:                              # %cond.true261
                                        #   in Loop: Header=BB3_100 Depth=5
	movl	-28(%rbp), %eax
	jmp	.LBB3_104
.LBB3_103:                              # %cond.false262
                                        #   in Loop: Header=BB3_100 Depth=5
	movl	-24(%rbp), %eax
	addl	-16(%rbp), %eax
	addl	-8(%rbp), %eax
.LBB3_104:                              # %cond.end265
                                        #   in Loop: Header=BB3_100 Depth=5
	xorl	%ecx, %ecx
	cmpl	%eax, %ecx
	jle	.LBB3_106
# %bb.105:                              # %cond.true269
                                        #   in Loop: Header=BB3_100 Depth=5
	xorl	%eax, %eax
	jmp	.LBB3_110
.LBB3_106:                              # %cond.false270
                                        #   in Loop: Header=BB3_100 Depth=5
	movl	-28(%rbp), %eax
	movl	-24(%rbp), %ecx
	addl	-16(%rbp), %ecx
	addl	-8(%rbp), %ecx
	cmpl	%ecx, %eax
	jge	.LBB3_108
# %bb.107:                              # %cond.true275
                                        #   in Loop: Header=BB3_100 Depth=5
	movl	-28(%rbp), %eax
	jmp	.LBB3_109
.LBB3_108:                              # %cond.false276
                                        #   in Loop: Header=BB3_100 Depth=5
	movl	-24(%rbp), %eax
	addl	-16(%rbp), %eax
	addl	-8(%rbp), %eax
.LBB3_109:                              # %cond.end279
                                        #   in Loop: Header=BB3_100 Depth=5
.LBB3_110:                              # %cond.end281
                                        #   in Loop: Header=BB3_100 Depth=5
	movl	%eax, -36(%rbp)
	movq	pixel_map, %rax
	movslq	-36(%rbp), %rcx
	movq	(%rax,%rcx,8), %rax
	movslq	-40(%rbp), %rcx
	movzbl	(%rax,%rcx), %eax
	cmpl	-52(%rbp), %eax
	jge	.LBB3_112
# %bb.111:                              # %if.then290
	movl	$0, -48(%rbp)
	jmp	.LBB3_267
.LBB3_112:                              # %if.end291
                                        #   in Loop: Header=BB3_100 Depth=5
	jmp	.LBB3_113
.LBB3_113:                              # %for.inc292
                                        #   in Loop: Header=BB3_100 Depth=5
	movl	-16(%rbp), %eax
	addl	$1, %eax
	movl	%eax, -16(%rbp)
	jmp	.LBB3_100
.LBB3_114:                              # %for.end294
                                        #   in Loop: Header=BB3_89 Depth=4
	jmp	.LBB3_115
.LBB3_115:                              # %for.inc295
                                        #   in Loop: Header=BB3_89 Depth=4
	movl	-4(%rbp), %eax
	addl	$1, %eax
	movl	%eax, -4(%rbp)
	jmp	.LBB3_89
.LBB3_116:                              # %for.end297
                                        #   in Loop: Header=BB3_87 Depth=3
	jmp	.LBB3_117
.LBB3_117:                              # %for.inc298
                                        #   in Loop: Header=BB3_87 Depth=3
	movl	-8(%rbp), %eax
	addl	$1, %eax
	movl	%eax, -8(%rbp)
	jmp	.LBB3_87
.LBB3_118:                              # %for.end300
                                        #   in Loop: Header=BB3_19 Depth=2
	jmp	.LBB3_260
.LBB3_119:                              # %if.else301
                                        #   in Loop: Header=BB3_19 Depth=2
	cmpl	$2, -64(%rbp)
	jne	.LBB3_157
# %bb.120:                              # %if.then304
                                        #   in Loop: Header=BB3_19 Depth=2
	movl	$0, -8(%rbp)
.LBB3_121:                              # %for.cond305
                                        #   Parent Loop BB3_17 Depth=1
                                        #     Parent Loop BB3_19 Depth=2
                                        # =>    This Loop Header: Depth=3
                                        #         Child Loop BB3_123 Depth 4
                                        #           Child Loop BB3_125 Depth 5
                                        #             Child Loop BB3_136 Depth 6
	cmpl	$4, -8(%rbp)
	jge	.LBB3_156
# %bb.122:                              # %for.body308
                                        #   in Loop: Header=BB3_121 Depth=3
	movl	$0, -4(%rbp)
.LBB3_123:                              # %for.cond309
                                        #   Parent Loop BB3_17 Depth=1
                                        #     Parent Loop BB3_19 Depth=2
                                        #       Parent Loop BB3_121 Depth=3
                                        # =>      This Loop Header: Depth=4
                                        #           Child Loop BB3_125 Depth 5
                                        #             Child Loop BB3_136 Depth 6
	cmpl	$4, -4(%rbp)
	jge	.LBB3_154
# %bb.124:                              # %for.body312
                                        #   in Loop: Header=BB3_123 Depth=4
	movl	$-2, -16(%rbp)
.LBB3_125:                              # %for.cond313
                                        #   Parent Loop BB3_17 Depth=1
                                        #     Parent Loop BB3_19 Depth=2
                                        #       Parent Loop BB3_121 Depth=3
                                        #         Parent Loop BB3_123 Depth=4
                                        # =>        This Loop Header: Depth=5
                                        #             Child Loop BB3_136 Depth 6
	cmpl	$4, -16(%rbp)
	jge	.LBB3_152
# %bb.126:                              # %for.body316
                                        #   in Loop: Header=BB3_125 Depth=5
	movl	-28(%rbp), %eax
	movl	-24(%rbp), %ecx
	addl	-16(%rbp), %ecx
	addl	-8(%rbp), %ecx
	cmpl	%ecx, %eax
	jge	.LBB3_128
# %bb.127:                              # %cond.true321
                                        #   in Loop: Header=BB3_125 Depth=5
	movl	-28(%rbp), %eax
	jmp	.LBB3_129
.LBB3_128:                              # %cond.false322
                                        #   in Loop: Header=BB3_125 Depth=5
	movl	-24(%rbp), %eax
	addl	-16(%rbp), %eax
	addl	-8(%rbp), %eax
.LBB3_129:                              # %cond.end325
                                        #   in Loop: Header=BB3_125 Depth=5
	xorl	%ecx, %ecx
	cmpl	%eax, %ecx
	jle	.LBB3_131
# %bb.130:                              # %cond.true329
                                        #   in Loop: Header=BB3_125 Depth=5
	xorl	%eax, %eax
	jmp	.LBB3_135
.LBB3_131:                              # %cond.false330
                                        #   in Loop: Header=BB3_125 Depth=5
	movl	-28(%rbp), %eax
	movl	-24(%rbp), %ecx
	addl	-16(%rbp), %ecx
	addl	-8(%rbp), %ecx
	cmpl	%ecx, %eax
	jge	.LBB3_133
# %bb.132:                              # %cond.true335
                                        #   in Loop: Header=BB3_125 Depth=5
	movl	-28(%rbp), %eax
	jmp	.LBB3_134
.LBB3_133:                              # %cond.false336
                                        #   in Loop: Header=BB3_125 Depth=5
	movl	-24(%rbp), %eax
	addl	-16(%rbp), %eax
	addl	-8(%rbp), %eax
.LBB3_134:                              # %cond.end339
                                        #   in Loop: Header=BB3_125 Depth=5
.LBB3_135:                              # %cond.end341
                                        #   in Loop: Header=BB3_125 Depth=5
	movl	%eax, -36(%rbp)
	movl	$-2, -12(%rbp)
.LBB3_136:                              # %for.cond343
                                        #   Parent Loop BB3_17 Depth=1
                                        #     Parent Loop BB3_19 Depth=2
                                        #       Parent Loop BB3_121 Depth=3
                                        #         Parent Loop BB3_123 Depth=4
                                        #           Parent Loop BB3_125 Depth=5
                                        # =>          This Inner Loop Header: Depth=6
	cmpl	$4, -12(%rbp)
	jge	.LBB3_150
# %bb.137:                              # %for.body346
                                        #   in Loop: Header=BB3_136 Depth=6
	movl	-32(%rbp), %eax
	movl	-20(%rbp), %ecx
	addl	-12(%rbp), %ecx
	addl	-4(%rbp), %ecx
	cmpl	%ecx, %eax
	jge	.LBB3_139
# %bb.138:                              # %cond.true351
                                        #   in Loop: Header=BB3_136 Depth=6
	movl	-32(%rbp), %eax
	jmp	.LBB3_140
.LBB3_139:                              # %cond.false352
                                        #   in Loop: Header=BB3_136 Depth=6
	movl	-20(%rbp), %eax
	addl	-12(%rbp), %eax
	addl	-4(%rbp), %eax
.LBB3_140:                              # %cond.end355
                                        #   in Loop: Header=BB3_136 Depth=6
	xorl	%ecx, %ecx
	cmpl	%eax, %ecx
	jle	.LBB3_142
# %bb.141:                              # %cond.true359
                                        #   in Loop: Header=BB3_136 Depth=6
	xorl	%eax, %eax
	jmp	.LBB3_146
.LBB3_142:                              # %cond.false360
                                        #   in Loop: Header=BB3_136 Depth=6
	movl	-32(%rbp), %eax
	movl	-20(%rbp), %ecx
	addl	-12(%rbp), %ecx
	addl	-4(%rbp), %ecx
	cmpl	%ecx, %eax
	jge	.LBB3_144
# %bb.143:                              # %cond.true365
                                        #   in Loop: Header=BB3_136 Depth=6
	movl	-32(%rbp), %eax
	jmp	.LBB3_145
.LBB3_144:                              # %cond.false366
                                        #   in Loop: Header=BB3_136 Depth=6
	movl	-20(%rbp), %eax
	addl	-12(%rbp), %eax
	addl	-4(%rbp), %eax
.LBB3_145:                              # %cond.end369
                                        #   in Loop: Header=BB3_136 Depth=6
.LBB3_146:                              # %cond.end371
                                        #   in Loop: Header=BB3_136 Depth=6
	movl	%eax, -40(%rbp)
	movq	pixel_map, %rax
	movslq	-36(%rbp), %rcx
	movq	(%rax,%rcx,8), %rax
	movslq	-40(%rbp), %rcx
	movzbl	(%rax,%rcx), %eax
	cmpl	-52(%rbp), %eax
	jge	.LBB3_148
# %bb.147:                              # %if.then380
	movl	$0, -48(%rbp)
	jmp	.LBB3_267
.LBB3_148:                              # %if.end381
                                        #   in Loop: Header=BB3_136 Depth=6
	jmp	.LBB3_149
.LBB3_149:                              # %for.inc382
                                        #   in Loop: Header=BB3_136 Depth=6
	movl	-12(%rbp), %eax
	addl	$1, %eax
	movl	%eax, -12(%rbp)
	jmp	.LBB3_136
.LBB3_150:                              # %for.end384
                                        #   in Loop: Header=BB3_125 Depth=5
	jmp	.LBB3_151
.LBB3_151:                              # %for.inc385
                                        #   in Loop: Header=BB3_125 Depth=5
	movl	-16(%rbp), %eax
	addl	$1, %eax
	movl	%eax, -16(%rbp)
	jmp	.LBB3_125
.LBB3_152:                              # %for.end387
                                        #   in Loop: Header=BB3_123 Depth=4
	jmp	.LBB3_153
.LBB3_153:                              # %for.inc388
                                        #   in Loop: Header=BB3_123 Depth=4
	movl	-4(%rbp), %eax
	addl	$1, %eax
	movl	%eax, -4(%rbp)
	jmp	.LBB3_123
.LBB3_154:                              # %for.end390
                                        #   in Loop: Header=BB3_121 Depth=3
	jmp	.LBB3_155
.LBB3_155:                              # %for.inc391
                                        #   in Loop: Header=BB3_121 Depth=3
	movl	-8(%rbp), %eax
	addl	$1, %eax
	movl	%eax, -8(%rbp)
	jmp	.LBB3_121
.LBB3_156:                              # %for.end393
                                        #   in Loop: Header=BB3_19 Depth=2
	jmp	.LBB3_259
.LBB3_157:                              # %if.else394
                                        #   in Loop: Header=BB3_19 Depth=2
	cmpl	$2, -68(%rbp)
	jne	.LBB3_195
# %bb.158:                              # %if.then397
                                        #   in Loop: Header=BB3_19 Depth=2
	movl	$0, -8(%rbp)
.LBB3_159:                              # %for.cond398
                                        #   Parent Loop BB3_17 Depth=1
                                        #     Parent Loop BB3_19 Depth=2
                                        # =>    This Loop Header: Depth=3
                                        #         Child Loop BB3_161 Depth 4
                                        #           Child Loop BB3_163 Depth 5
                                        #             Child Loop BB3_174 Depth 6
	cmpl	$4, -8(%rbp)
	jge	.LBB3_194
# %bb.160:                              # %for.body401
                                        #   in Loop: Header=BB3_159 Depth=3
	movl	$0, -4(%rbp)
.LBB3_161:                              # %for.cond402
                                        #   Parent Loop BB3_17 Depth=1
                                        #     Parent Loop BB3_19 Depth=2
                                        #       Parent Loop BB3_159 Depth=3
                                        # =>      This Loop Header: Depth=4
                                        #           Child Loop BB3_163 Depth 5
                                        #             Child Loop BB3_174 Depth 6
	cmpl	$4, -4(%rbp)
	jge	.LBB3_192
# %bb.162:                              # %for.body405
                                        #   in Loop: Header=BB3_161 Depth=4
	movl	$-2, -12(%rbp)
.LBB3_163:                              # %for.cond406
                                        #   Parent Loop BB3_17 Depth=1
                                        #     Parent Loop BB3_19 Depth=2
                                        #       Parent Loop BB3_159 Depth=3
                                        #         Parent Loop BB3_161 Depth=4
                                        # =>        This Loop Header: Depth=5
                                        #             Child Loop BB3_174 Depth 6
	cmpl	$4, -12(%rbp)
	jge	.LBB3_190
# %bb.164:                              # %for.body409
                                        #   in Loop: Header=BB3_163 Depth=5
	movl	-32(%rbp), %eax
	movl	-20(%rbp), %ecx
	addl	-12(%rbp), %ecx
	addl	-4(%rbp), %ecx
	cmpl	%ecx, %eax
	jge	.LBB3_166
# %bb.165:                              # %cond.true414
                                        #   in Loop: Header=BB3_163 Depth=5
	movl	-32(%rbp), %eax
	jmp	.LBB3_167
.LBB3_166:                              # %cond.false415
                                        #   in Loop: Header=BB3_163 Depth=5
	movl	-20(%rbp), %eax
	addl	-12(%rbp), %eax
	addl	-4(%rbp), %eax
.LBB3_167:                              # %cond.end418
                                        #   in Loop: Header=BB3_163 Depth=5
	xorl	%ecx, %ecx
	cmpl	%eax, %ecx
	jle	.LBB3_169
# %bb.168:                              # %cond.true422
                                        #   in Loop: Header=BB3_163 Depth=5
	xorl	%eax, %eax
	jmp	.LBB3_173
.LBB3_169:                              # %cond.false423
                                        #   in Loop: Header=BB3_163 Depth=5
	movl	-32(%rbp), %eax
	movl	-20(%rbp), %ecx
	addl	-12(%rbp), %ecx
	addl	-4(%rbp), %ecx
	cmpl	%ecx, %eax
	jge	.LBB3_171
# %bb.170:                              # %cond.true428
                                        #   in Loop: Header=BB3_163 Depth=5
	movl	-32(%rbp), %eax
	jmp	.LBB3_172
.LBB3_171:                              # %cond.false429
                                        #   in Loop: Header=BB3_163 Depth=5
	movl	-20(%rbp), %eax
	addl	-12(%rbp), %eax
	addl	-4(%rbp), %eax
.LBB3_172:                              # %cond.end432
                                        #   in Loop: Header=BB3_163 Depth=5
.LBB3_173:                              # %cond.end434
                                        #   in Loop: Header=BB3_163 Depth=5
	movl	%eax, -40(%rbp)
	movl	$-2, -16(%rbp)
.LBB3_174:                              # %for.cond436
                                        #   Parent Loop BB3_17 Depth=1
                                        #     Parent Loop BB3_19 Depth=2
                                        #       Parent Loop BB3_159 Depth=3
                                        #         Parent Loop BB3_161 Depth=4
                                        #           Parent Loop BB3_163 Depth=5
                                        # =>          This Inner Loop Header: Depth=6
	cmpl	$4, -16(%rbp)
	jge	.LBB3_188
# %bb.175:                              # %for.body439
                                        #   in Loop: Header=BB3_174 Depth=6
	movl	-28(%rbp), %eax
	movl	-24(%rbp), %ecx
	addl	-16(%rbp), %ecx
	addl	-8(%rbp), %ecx
	cmpl	%ecx, %eax
	jge	.LBB3_177
# %bb.176:                              # %cond.true444
                                        #   in Loop: Header=BB3_174 Depth=6
	movl	-28(%rbp), %eax
	jmp	.LBB3_178
.LBB3_177:                              # %cond.false445
                                        #   in Loop: Header=BB3_174 Depth=6
	movl	-24(%rbp), %eax
	addl	-16(%rbp), %eax
	addl	-8(%rbp), %eax
.LBB3_178:                              # %cond.end448
                                        #   in Loop: Header=BB3_174 Depth=6
	xorl	%ecx, %ecx
	cmpl	%eax, %ecx
	jle	.LBB3_180
# %bb.179:                              # %cond.true452
                                        #   in Loop: Header=BB3_174 Depth=6
	xorl	%eax, %eax
	jmp	.LBB3_184
.LBB3_180:                              # %cond.false453
                                        #   in Loop: Header=BB3_174 Depth=6
	movl	-28(%rbp), %eax
	movl	-24(%rbp), %ecx
	addl	-16(%rbp), %ecx
	addl	-8(%rbp), %ecx
	cmpl	%ecx, %eax
	jge	.LBB3_182
# %bb.181:                              # %cond.true458
                                        #   in Loop: Header=BB3_174 Depth=6
	movl	-28(%rbp), %eax
	jmp	.LBB3_183
.LBB3_182:                              # %cond.false459
                                        #   in Loop: Header=BB3_174 Depth=6
	movl	-24(%rbp), %eax
	addl	-16(%rbp), %eax
	addl	-8(%rbp), %eax
.LBB3_183:                              # %cond.end462
                                        #   in Loop: Header=BB3_174 Depth=6
.LBB3_184:                              # %cond.end464
                                        #   in Loop: Header=BB3_174 Depth=6
	movl	%eax, -36(%rbp)
	movq	pixel_map, %rax
	movslq	-36(%rbp), %rcx
	movq	(%rax,%rcx,8), %rax
	movslq	-40(%rbp), %rcx
	movzbl	(%rax,%rcx), %eax
	cmpl	-52(%rbp), %eax
	jge	.LBB3_186
# %bb.185:                              # %if.then473
	movl	$0, -48(%rbp)
	jmp	.LBB3_267
.LBB3_186:                              # %if.end474
                                        #   in Loop: Header=BB3_174 Depth=6
	jmp	.LBB3_187
.LBB3_187:                              # %for.inc475
                                        #   in Loop: Header=BB3_174 Depth=6
	movl	-16(%rbp), %eax
	addl	$1, %eax
	movl	%eax, -16(%rbp)
	jmp	.LBB3_174
.LBB3_188:                              # %for.end477
                                        #   in Loop: Header=BB3_163 Depth=5
	jmp	.LBB3_189
.LBB3_189:                              # %for.inc478
                                        #   in Loop: Header=BB3_163 Depth=5
	movl	-12(%rbp), %eax
	addl	$1, %eax
	movl	%eax, -12(%rbp)
	jmp	.LBB3_163
.LBB3_190:                              # %for.end480
                                        #   in Loop: Header=BB3_161 Depth=4
	jmp	.LBB3_191
.LBB3_191:                              # %for.inc481
                                        #   in Loop: Header=BB3_161 Depth=4
	movl	-4(%rbp), %eax
	addl	$1, %eax
	movl	%eax, -4(%rbp)
	jmp	.LBB3_161
.LBB3_192:                              # %for.end483
                                        #   in Loop: Header=BB3_159 Depth=3
	jmp	.LBB3_193
.LBB3_193:                              # %for.inc484
                                        #   in Loop: Header=BB3_159 Depth=3
	movl	-8(%rbp), %eax
	addl	$1, %eax
	movl	%eax, -8(%rbp)
	jmp	.LBB3_159
.LBB3_194:                              # %for.end486
                                        #   in Loop: Header=BB3_19 Depth=2
	jmp	.LBB3_258
.LBB3_195:                              # %if.else487
                                        #   in Loop: Header=BB3_19 Depth=2
	movl	$0, -8(%rbp)
.LBB3_196:                              # %for.cond488
                                        #   Parent Loop BB3_17 Depth=1
                                        #     Parent Loop BB3_19 Depth=2
                                        # =>    This Loop Header: Depth=3
                                        #         Child Loop BB3_198 Depth 4
                                        #           Child Loop BB3_212 Depth 5
                                        #           Child Loop BB3_239 Depth 5
	cmpl	$4, -8(%rbp)
	jge	.LBB3_257
# %bb.197:                              # %for.body491
                                        #   in Loop: Header=BB3_196 Depth=3
	movl	$0, -4(%rbp)
.LBB3_198:                              # %for.cond492
                                        #   Parent Loop BB3_17 Depth=1
                                        #     Parent Loop BB3_19 Depth=2
                                        #       Parent Loop BB3_196 Depth=3
                                        # =>      This Loop Header: Depth=4
                                        #           Child Loop BB3_212 Depth 5
                                        #           Child Loop BB3_239 Depth 5
	cmpl	$4, -4(%rbp)
	jge	.LBB3_255
# %bb.199:                              # %for.body495
                                        #   in Loop: Header=BB3_198 Depth=4
	cmpl	$1, -68(%rbp)
	jne	.LBB3_201
# %bb.200:                              # %cond.true498
                                        #   in Loop: Header=BB3_198 Depth=4
	movl	-24(%rbp), %eax
	addl	-8(%rbp), %eax
	jmp	.LBB3_202
.LBB3_201:                              # %cond.false500
                                        #   in Loop: Header=BB3_198 Depth=4
	movl	-24(%rbp), %eax
	addl	-8(%rbp), %eax
	addl	$1, %eax
.LBB3_202:                              # %cond.end503
                                        #   in Loop: Header=BB3_198 Depth=4
	movl	%eax, -36(%rbp)
	movl	-28(%rbp), %eax
	cmpl	-36(%rbp), %eax
	jge	.LBB3_204
# %bb.203:                              # %cond.true507
                                        #   in Loop: Header=BB3_198 Depth=4
	movl	-28(%rbp), %eax
	jmp	.LBB3_205
.LBB3_204:                              # %cond.false508
                                        #   in Loop: Header=BB3_198 Depth=4
	movl	-36(%rbp), %eax
.LBB3_205:                              # %cond.end509
                                        #   in Loop: Header=BB3_198 Depth=4
	xorl	%ecx, %ecx
	cmpl	%eax, %ecx
	jle	.LBB3_207
# %bb.206:                              # %cond.true513
                                        #   in Loop: Header=BB3_198 Depth=4
	xorl	%eax, %eax
	jmp	.LBB3_211
.LBB3_207:                              # %cond.false514
                                        #   in Loop: Header=BB3_198 Depth=4
	movl	-28(%rbp), %eax
	cmpl	-36(%rbp), %eax
	jge	.LBB3_209
# %bb.208:                              # %cond.true517
                                        #   in Loop: Header=BB3_198 Depth=4
	movl	-28(%rbp), %eax
	jmp	.LBB3_210
.LBB3_209:                              # %cond.false518
                                        #   in Loop: Header=BB3_198 Depth=4
	movl	-36(%rbp), %eax
.LBB3_210:                              # %cond.end519
                                        #   in Loop: Header=BB3_198 Depth=4
.LBB3_211:                              # %cond.end521
                                        #   in Loop: Header=BB3_198 Depth=4
	movl	%eax, -36(%rbp)
	movl	$-2, -12(%rbp)
.LBB3_212:                              # %for.cond523
                                        #   Parent Loop BB3_17 Depth=1
                                        #     Parent Loop BB3_19 Depth=2
                                        #       Parent Loop BB3_196 Depth=3
                                        #         Parent Loop BB3_198 Depth=4
                                        # =>        This Inner Loop Header: Depth=5
	cmpl	$4, -12(%rbp)
	jge	.LBB3_226
# %bb.213:                              # %for.body526
                                        #   in Loop: Header=BB3_212 Depth=5
	movl	-32(%rbp), %eax
	movl	-20(%rbp), %ecx
	addl	-12(%rbp), %ecx
	addl	-4(%rbp), %ecx
	cmpl	%ecx, %eax
	jge	.LBB3_215
# %bb.214:                              # %cond.true531
                                        #   in Loop: Header=BB3_212 Depth=5
	movl	-32(%rbp), %eax
	jmp	.LBB3_216
.LBB3_215:                              # %cond.false532
                                        #   in Loop: Header=BB3_212 Depth=5
	movl	-20(%rbp), %eax
	addl	-12(%rbp), %eax
	addl	-4(%rbp), %eax
.LBB3_216:                              # %cond.end535
                                        #   in Loop: Header=BB3_212 Depth=5
	xorl	%ecx, %ecx
	cmpl	%eax, %ecx
	jle	.LBB3_218
# %bb.217:                              # %cond.true539
                                        #   in Loop: Header=BB3_212 Depth=5
	xorl	%eax, %eax
	jmp	.LBB3_222
.LBB3_218:                              # %cond.false540
                                        #   in Loop: Header=BB3_212 Depth=5
	movl	-32(%rbp), %eax
	movl	-20(%rbp), %ecx
	addl	-12(%rbp), %ecx
	addl	-4(%rbp), %ecx
	cmpl	%ecx, %eax
	jge	.LBB3_220
# %bb.219:                              # %cond.true545
                                        #   in Loop: Header=BB3_212 Depth=5
	movl	-32(%rbp), %eax
	jmp	.LBB3_221
.LBB3_220:                              # %cond.false546
                                        #   in Loop: Header=BB3_212 Depth=5
	movl	-20(%rbp), %eax
	addl	-12(%rbp), %eax
	addl	-4(%rbp), %eax
.LBB3_221:                              # %cond.end549
                                        #   in Loop: Header=BB3_212 Depth=5
.LBB3_222:                              # %cond.end551
                                        #   in Loop: Header=BB3_212 Depth=5
	movl	%eax, -40(%rbp)
	movq	pixel_map, %rax
	movslq	-36(%rbp), %rcx
	movq	(%rax,%rcx,8), %rax
	movslq	-40(%rbp), %rcx
	movzbl	(%rax,%rcx), %eax
	cmpl	-52(%rbp), %eax
	jge	.LBB3_224
# %bb.223:                              # %if.then560
	movl	$0, -48(%rbp)
	jmp	.LBB3_267
.LBB3_224:                              # %if.end561
                                        #   in Loop: Header=BB3_212 Depth=5
	jmp	.LBB3_225
.LBB3_225:                              # %for.inc562
                                        #   in Loop: Header=BB3_212 Depth=5
	movl	-12(%rbp), %eax
	addl	$1, %eax
	movl	%eax, -12(%rbp)
	jmp	.LBB3_212
.LBB3_226:                              # %for.end564
                                        #   in Loop: Header=BB3_198 Depth=4
	cmpl	$1, -64(%rbp)
	jne	.LBB3_228
# %bb.227:                              # %cond.true567
                                        #   in Loop: Header=BB3_198 Depth=4
	movl	-20(%rbp), %eax
	addl	-4(%rbp), %eax
	jmp	.LBB3_229
.LBB3_228:                              # %cond.false569
                                        #   in Loop: Header=BB3_198 Depth=4
	movl	-20(%rbp), %eax
	addl	-4(%rbp), %eax
	addl	$1, %eax
.LBB3_229:                              # %cond.end572
                                        #   in Loop: Header=BB3_198 Depth=4
	movl	%eax, -40(%rbp)
	movl	-32(%rbp), %eax
	cmpl	-40(%rbp), %eax
	jge	.LBB3_231
# %bb.230:                              # %cond.true576
                                        #   in Loop: Header=BB3_198 Depth=4
	movl	-32(%rbp), %eax
	jmp	.LBB3_232
.LBB3_231:                              # %cond.false577
                                        #   in Loop: Header=BB3_198 Depth=4
	movl	-40(%rbp), %eax
.LBB3_232:                              # %cond.end578
                                        #   in Loop: Header=BB3_198 Depth=4
	xorl	%ecx, %ecx
	cmpl	%eax, %ecx
	jle	.LBB3_234
# %bb.233:                              # %cond.true582
                                        #   in Loop: Header=BB3_198 Depth=4
	xorl	%eax, %eax
	jmp	.LBB3_238
.LBB3_234:                              # %cond.false583
                                        #   in Loop: Header=BB3_198 Depth=4
	movl	-32(%rbp), %eax
	cmpl	-40(%rbp), %eax
	jge	.LBB3_236
# %bb.235:                              # %cond.true586
                                        #   in Loop: Header=BB3_198 Depth=4
	movl	-32(%rbp), %eax
	jmp	.LBB3_237
.LBB3_236:                              # %cond.false587
                                        #   in Loop: Header=BB3_198 Depth=4
	movl	-40(%rbp), %eax
.LBB3_237:                              # %cond.end588
                                        #   in Loop: Header=BB3_198 Depth=4
.LBB3_238:                              # %cond.end590
                                        #   in Loop: Header=BB3_198 Depth=4
	movl	%eax, -40(%rbp)
	movl	$-2, -16(%rbp)
.LBB3_239:                              # %for.cond592
                                        #   Parent Loop BB3_17 Depth=1
                                        #     Parent Loop BB3_19 Depth=2
                                        #       Parent Loop BB3_196 Depth=3
                                        #         Parent Loop BB3_198 Depth=4
                                        # =>        This Inner Loop Header: Depth=5
	cmpl	$4, -16(%rbp)
	jge	.LBB3_253
# %bb.240:                              # %for.body595
                                        #   in Loop: Header=BB3_239 Depth=5
	movl	-28(%rbp), %eax
	movl	-24(%rbp), %ecx
	addl	-16(%rbp), %ecx
	addl	-8(%rbp), %ecx
	cmpl	%ecx, %eax
	jge	.LBB3_242
# %bb.241:                              # %cond.true600
                                        #   in Loop: Header=BB3_239 Depth=5
	movl	-28(%rbp), %eax
	jmp	.LBB3_243
.LBB3_242:                              # %cond.false601
                                        #   in Loop: Header=BB3_239 Depth=5
	movl	-24(%rbp), %eax
	addl	-16(%rbp), %eax
	addl	-8(%rbp), %eax
.LBB3_243:                              # %cond.end604
                                        #   in Loop: Header=BB3_239 Depth=5
	xorl	%ecx, %ecx
	cmpl	%eax, %ecx
	jle	.LBB3_245
# %bb.244:                              # %cond.true608
                                        #   in Loop: Header=BB3_239 Depth=5
	xorl	%eax, %eax
	jmp	.LBB3_249
.LBB3_245:                              # %cond.false609
                                        #   in Loop: Header=BB3_239 Depth=5
	movl	-28(%rbp), %eax
	movl	-24(%rbp), %ecx
	addl	-16(%rbp), %ecx
	addl	-8(%rbp), %ecx
	cmpl	%ecx, %eax
	jge	.LBB3_247
# %bb.246:                              # %cond.true614
                                        #   in Loop: Header=BB3_239 Depth=5
	movl	-28(%rbp), %eax
	jmp	.LBB3_248
.LBB3_247:                              # %cond.false615
                                        #   in Loop: Header=BB3_239 Depth=5
	movl	-24(%rbp), %eax
	addl	-16(%rbp), %eax
	addl	-8(%rbp), %eax
.LBB3_248:                              # %cond.end618
                                        #   in Loop: Header=BB3_239 Depth=5
.LBB3_249:                              # %cond.end620
                                        #   in Loop: Header=BB3_239 Depth=5
	movl	%eax, -36(%rbp)
	movq	pixel_map, %rax
	movslq	-36(%rbp), %rcx
	movq	(%rax,%rcx,8), %rax
	movslq	-40(%rbp), %rcx
	movzbl	(%rax,%rcx), %eax
	cmpl	-52(%rbp), %eax
	jge	.LBB3_251
# %bb.250:                              # %if.then629
	movl	$0, -48(%rbp)
	jmp	.LBB3_267
.LBB3_251:                              # %if.end630
                                        #   in Loop: Header=BB3_239 Depth=5
	jmp	.LBB3_252
.LBB3_252:                              # %for.inc631
                                        #   in Loop: Header=BB3_239 Depth=5
	movl	-16(%rbp), %eax
	addl	$1, %eax
	movl	%eax, -16(%rbp)
	jmp	.LBB3_239
.LBB3_253:                              # %for.end633
                                        #   in Loop: Header=BB3_198 Depth=4
	jmp	.LBB3_254
.LBB3_254:                              # %for.inc634
                                        #   in Loop: Header=BB3_198 Depth=4
	movl	-4(%rbp), %eax
	addl	$1, %eax
	movl	%eax, -4(%rbp)
	jmp	.LBB3_198
.LBB3_255:                              # %for.end636
                                        #   in Loop: Header=BB3_196 Depth=3
	jmp	.LBB3_256
.LBB3_256:                              # %for.inc637
                                        #   in Loop: Header=BB3_196 Depth=3
	movl	-8(%rbp), %eax
	addl	$1, %eax
	movl	%eax, -8(%rbp)
	jmp	.LBB3_196
.LBB3_257:                              # %for.end639
                                        #   in Loop: Header=BB3_19 Depth=2
	jmp	.LBB3_258
.LBB3_258:                              # %if.end640
                                        #   in Loop: Header=BB3_19 Depth=2
	jmp	.LBB3_259
.LBB3_259:                              # %if.end641
                                        #   in Loop: Header=BB3_19 Depth=2
	jmp	.LBB3_260
.LBB3_260:                              # %if.end642
                                        #   in Loop: Header=BB3_19 Depth=2
	jmp	.LBB3_261
.LBB3_261:                              # %if.end643
                                        #   in Loop: Header=BB3_19 Depth=2
	jmp	.LBB3_262
.LBB3_262:                              # %if.end644
                                        #   in Loop: Header=BB3_19 Depth=2
	jmp	.LBB3_263
.LBB3_263:                              # %for.inc645
                                        #   in Loop: Header=BB3_19 Depth=2
	movl	-56(%rbp), %eax
	addl	$1, %eax
	movl	%eax, -56(%rbp)
	jmp	.LBB3_19
.LBB3_264:                              # %for.end647
                                        #   in Loop: Header=BB3_17 Depth=1
	jmp	.LBB3_265
.LBB3_265:                              # %for.inc648
                                        #   in Loop: Header=BB3_17 Depth=1
	movl	-60(%rbp), %eax
	addl	$1, %eax
	movl	%eax, -60(%rbp)
	jmp	.LBB3_17
.LBB3_266:                              # %for.end650
	movl	$1, -48(%rbp)
.LBB3_267:                              # %return
	movl	-48(%rbp), %eax
	popq	%rbp
	.cfi_def_cfa %rsp, 8
	retq
.Lfunc_end3:
	.size	CheckReliabilityOfRef, .Lfunc_end3-CheckReliabilityOfRef
	.cfi_endproc
                                        # -- End function
	.globl	RDCost_for_4x4IntraBlocks # -- Begin function RDCost_for_4x4IntraBlocks
	.p2align	4, 0x90
	.type	RDCost_for_4x4IntraBlocks,@function
RDCost_for_4x4IntraBlocks:              # @RDCost_for_4x4IntraBlocks
	.cfi_startproc
# %bb.0:                                # %entry
	pushq	%rbp
	.cfi_def_cfa_offset 16
	.cfi_offset %rbp, -16
	movq	%rsp, %rbp
	.cfi_def_cfa_register %rbp
	subq	$160, %rsp
	movq	%rdi, -144(%rbp)
	movl	%esi, -20(%rbp)
	movl	%edx, -16(%rbp)
	movl	%ecx, -36(%rbp)
	vmovsd	%xmm0, -136(%rbp)
	vmovsd	%xmm1, -152(%rbp)
	movl	%r8d, -56(%rbp)
	movl	$0, -44(%rbp)
	movl	-20(%rbp), %eax
	cltd
	movl	$2, %esi
	idivl	%esi
	movl	%edx, %ecx
	shll	$3, %ecx
	movl	-16(%rbp), %eax
	cltd
	idivl	%esi
	shll	$2, %edx
	addl	%edx, %ecx
	movl	%ecx, -52(%rbp)
	movl	-20(%rbp), %eax
	cltd
	idivl	%esi
	movl	%eax, %ecx
	shll	$3, %ecx
	movl	-16(%rbp), %eax
	cltd
	idivl	%esi
	shll	$2, %eax
	addl	%eax, %ecx
	movl	%ecx, -40(%rbp)
	movq	img, %rax
	movl	152(%rax), %eax
	addl	-52(%rbp), %eax
	movl	%eax, -48(%rbp)
	movq	img, %rax
	movl	156(%rax), %eax
	addl	-40(%rbp), %eax
	movl	%eax, -72(%rbp)
	movq	img, %rax
	movl	172(%rax), %eax
	addl	-40(%rbp), %eax
	movl	%eax, -68(%rbp)
	movq	enc_picture, %rax
	movq	6424(%rax), %rax
	movq	%rax, -120(%rbp)
	movq	img, %rax
	movq	14160(%rax), %rax
	movq	%rax, -112(%rbp)
	movq	img, %rax
	movq	14168(%rax), %rax
	movq	img, %rcx
	movslq	12(%rcx), %rcx
	imulq	$632, %rcx, %rcx        # imm = 0x278
	addq	%rcx, %rax
	movq	%rax, -88(%rbp)
	movq	img, %rax
	addq	$14176, %rax            # imm = 0x3760
	movq	-88(%rbp), %rcx
	movslq	(%rcx), %rcx
	imulq	$48, %rcx, %rcx
	addq	%rcx, %rax
	movq	%rax, -32(%rbp)
	movq	input, %rax
	movslq	2364(%rax), %rax
	movq	assignSE2partition(,%rax,8), %rax
	movq	%rax, -104(%rbp)
	movl	$0, -76(%rbp)
	movl	-52(%rbp), %edi
	movl	-40(%rbp), %esi
	leaq	-76(%rbp), %rdx
	movl	$1, %ecx
	callq	dct_luma
	movq	-144(%rbp), %rcx
	movl	%eax, (%rcx)
	movq	img, %rax
	cmpl	$0, 72724(%rax)
	jne	.LBB4_10
# %bb.1:                                # %if.then
	movl	$0, -8(%rbp)
.LBB4_2:                                # %for.cond
                                        # =>This Loop Header: Depth=1
                                        #     Child Loop BB4_4 Depth 2
	cmpl	$4, -8(%rbp)
	jge	.LBB4_9
# %bb.3:                                # %for.body
                                        #   in Loop: Header=BB4_2 Depth=1
	movl	-48(%rbp), %eax
	movl	%eax, -12(%rbp)
.LBB4_4:                                # %for.cond15
                                        #   Parent Loop BB4_2 Depth=1
                                        # =>  This Inner Loop Header: Depth=2
	movl	-12(%rbp), %eax
	movl	-48(%rbp), %ecx
	addl	$4, %ecx
	cmpl	%ecx, %eax
	jge	.LBB4_7
# %bb.5:                                # %for.body18
                                        #   in Loop: Header=BB4_4 Depth=2
	movq	img, %rax
	movq	71776(%rax), %rax
	movq	imgY_org, %rcx
	movl	-68(%rbp), %edx
	addl	-8(%rbp), %edx
	movslq	%edx, %rdx
	movq	(%rcx,%rdx,8), %rcx
	movslq	-12(%rbp), %rdx
	movzwl	(%rcx,%rdx,2), %ecx
	movq	-120(%rbp), %rdx
	movl	-72(%rbp), %esi
	addl	-8(%rbp), %esi
	movslq	%esi, %rsi
	movq	(%rdx,%rsi,8), %rdx
	movslq	-12(%rbp), %rsi
	movzwl	(%rdx,%rsi,2), %edx
	subl	%edx, %ecx
	movslq	%ecx, %rcx
	movl	(%rax,%rcx,4), %eax
	addl	-44(%rbp), %eax
	movl	%eax, -44(%rbp)
# %bb.6:                                # %for.inc
                                        #   in Loop: Header=BB4_4 Depth=2
	movl	-12(%rbp), %eax
	addl	$1, %eax
	movl	%eax, -12(%rbp)
	jmp	.LBB4_4
.LBB4_7:                                # %for.end
                                        #   in Loop: Header=BB4_2 Depth=1
	jmp	.LBB4_8
.LBB4_8:                                # %for.inc33
                                        #   in Loop: Header=BB4_2 Depth=1
	movl	-8(%rbp), %eax
	addl	$1, %eax
	movl	%eax, -8(%rbp)
	jmp	.LBB4_2
.LBB4_9:                                # %for.end35
	jmp	.LBB4_10
.LBB4_10:                               # %if.end
	movq	cs_cm, %rdi
	callq	store_coding_state
	movl	-56(%rbp), %eax
	cmpl	-36(%rbp), %eax
	jne	.LBB4_12
# %bb.11:                               # %cond.true
	movl	$4294967295, %eax       # imm = 0xFFFFFFFF
	jmp	.LBB4_16
.LBB4_12:                               # %cond.false
	movl	-36(%rbp), %eax
	cmpl	-56(%rbp), %eax
	jge	.LBB4_14
# %bb.13:                               # %cond.true40
	movl	-36(%rbp), %eax
	jmp	.LBB4_15
.LBB4_14:                               # %cond.false41
	movl	-36(%rbp), %eax
	subl	$1, %eax
.LBB4_15:                               # %cond.end
.LBB4_16:                               # %cond.end43
	movq	-32(%rbp), %rcx
	movl	%eax, 4(%rcx)
	movl	-20(%rbp), %eax
	shll	$2, %eax
	addl	-16(%rbp), %eax
	movq	-32(%rbp), %rcx
	movl	%eax, 24(%rcx)
	movq	-32(%rbp), %rax
	movl	$4, (%rax)
	movq	input, %rax
	cmpl	$0, 2356(%rax)
	je	.LBB4_18
# %bb.17:                               # %if.then49
	movq	-32(%rbp), %rax
	movabsq	$writeIntraPredMode_CABAC, %rcx
	movq	%rcx, 40(%rax)
.LBB4_18:                               # %if.end50
	movq	-112(%rbp), %rax
	movq	24(%rax), %rax
	movq	-104(%rbp), %rcx
	movslq	16(%rcx), %rcx
	imulq	$120, %rcx, %rcx
	addq	%rcx, %rax
	movq	%rax, -64(%rbp)
	movq	input, %rax
	cmpl	$0, 2356(%rax)
	jne	.LBB4_20
# %bb.19:                               # %if.then57
	movq	-32(%rbp), %rdi
	movq	-64(%rbp), %rsi
	callq	writeSyntaxElement_Intra4x4PredictionMode
	jmp	.LBB4_21
.LBB4_20:                               # %if.else
	movq	-64(%rbp), %rax
	movq	112(%rax), %rax
	movq	-32(%rbp), %rdi
	movq	-64(%rbp), %rsi
	callq	*%rax
.LBB4_21:                               # %if.end60
	movq	-32(%rbp), %rax
	movl	12(%rax), %eax
	movl	%eax, -4(%rbp)
	movq	-32(%rbp), %rax
	addq	$48, %rax
	movq	%rax, -32(%rbp)
	movq	-88(%rbp), %rax
	movl	(%rax), %ecx
	addl	$1, %ecx
	movl	%ecx, (%rax)
	movq	input, %rax
	cmpl	$0, 2356(%rax)
	jne	.LBB4_23
# %bb.22:                               # %if.then66
	movl	-20(%rbp), %esi
	movl	-16(%rbp), %edx
	xorl	%edi, %edi
	xorl	%ecx, %ecx
	callq	writeCoeff4x4_CAVLC
	addl	-4(%rbp), %eax
	movl	%eax, -4(%rbp)
	jmp	.LBB4_24
.LBB4_23:                               # %if.else69
	movl	-20(%rbp), %edi
	movl	-16(%rbp), %esi
	movl	$1, %edx
	callq	writeLumaCoeff4x4_CABAC
	addl	-4(%rbp), %eax
	movl	%eax, -4(%rbp)
.LBB4_24:                               # %if.end72
	movq	cs_cm, %rdi
	callq	reset_coding_state
	vcvtsi2sdl	-44(%rbp), %xmm0, %xmm0
	vmovsd	-136(%rbp), %xmm1       # xmm1 = mem[0],zero
	vcvtsi2sdl	-4(%rbp), %xmm0, %xmm2
	vmulsd	%xmm2, %xmm1, %xmm1
	vaddsd	%xmm1, %xmm0, %xmm0
	vmovsd	%xmm0, -128(%rbp)
	movq	img, %rax
	cmpl	$0, 72724(%rax)
	je	.LBB4_26
# %bb.25:                               # %if.then79
	vcvtsi2sdl	-4(%rbp), %xmm0, %xmm0
	vmovsd	%xmm0, -96(%rbp)
	jmp	.LBB4_27
.LBB4_26:                               # %if.else81
	vmovsd	-128(%rbp), %xmm0       # xmm0 = mem[0],zero
	vmovsd	%xmm0, -96(%rbp)
.LBB4_27:                               # %return
	vmovsd	-96(%rbp), %xmm0        # xmm0 = mem[0],zero
	addq	$160, %rsp
	popq	%rbp
	.cfi_def_cfa %rsp, 8
	retq
.Lfunc_end4:
	.size	RDCost_for_4x4IntraBlocks, .Lfunc_end4-RDCost_for_4x4IntraBlocks
	.cfi_endproc
                                        # -- End function
	.globl	RDCost_for_4x4Blocks_Chroma # -- Begin function RDCost_for_4x4Blocks_Chroma
	.p2align	4, 0x90
	.type	RDCost_for_4x4Blocks_Chroma,@function
RDCost_for_4x4Blocks_Chroma:            # @RDCost_for_4x4Blocks_Chroma
	.cfi_startproc
# %bb.0:                                # %entry
	pushq	%rbp
	.cfi_def_cfa_offset 16
	.cfi_offset %rbp, -16
	movq	%rsp, %rbp
	.cfi_def_cfa_register %rbp
	subq	$112, %rsp
	movl	%edi, -8(%rbp)
	movl	%esi, -4(%rbp)
	movl	%edx, -48(%rbp)
	movl	$0, -28(%rbp)
	movq	img, %rax
	movq	14160(%rax), %rax
	movq	%rax, -96(%rbp)
	movq	img, %rax
	movq	14168(%rax), %rax
	movq	img, %rcx
	movslq	12(%rcx), %rcx
	imulq	$632, %rcx, %rcx        # imm = 0x278
	addq	%rcx, %rax
	movq	%rax, -40(%rbp)
	movq	img, %rax
	addq	$14176, %rax            # imm = 0x3760
	movq	-40(%rbp), %rcx
	movslq	(%rcx), %rcx
	imulq	$48, %rcx, %rcx
	addq	%rcx, %rax
	movq	%rax, -16(%rbp)
	movq	input, %rax
	movslq	2364(%rax), %rax
	movq	assignSE2partition(,%rax,8), %rax
	movq	%rax, -88(%rbp)
	cmpl	$7, -8(%rbp)
	jle	.LBB5_2
# %bb.1:                                # %if.then
	movl	$1, -24(%rbp)
	jmp	.LBB5_3
.LBB5_2:                                # %if.else
	movl	$0, -24(%rbp)
.LBB5_3:                                # %if.end
	movl	-48(%rbp), %edi
	movl	-8(%rbp), %esi
	movl	-4(%rbp), %edx
	callq	dct_chroma4x4
	movl	%eax, %r8d
	movslq	-24(%rbp), %rax
	shlq	$6, %rax
	movabsq	$cbp_chroma_block_temp, %rdi
	addq	%rax, %rdi
	movl	-8(%rbp), %eax
	movl	-24(%rbp), %ecx
	addl	$1, %ecx
	shll	$2, %ecx
	subl	%ecx, %eax
	cltd
	movl	$2, %ecx
	idivl	%ecx
	movl	%edx, %esi
	shll	$1, %esi
	movl	-4(%rbp), %eax
	cltd
	idivl	%ecx
	addl	%edx, %esi
	movslq	%esi, %rax
	shlq	$4, %rax
	addq	%rax, %rdi
	movl	-8(%rbp), %eax
	movl	-24(%rbp), %edx
	addl	$1, %edx
	shll	$2, %edx
	subl	%edx, %eax
	cltd
	idivl	%ecx
	movl	%eax, %esi
	shll	$1, %esi
	movl	-4(%rbp), %eax
	cltd
	idivl	%ecx
	addl	%eax, %esi
	movslq	%esi, %rax
	movl	%r8d, (%rdi,%rax,4)
	movq	cs_cm, %rdi
	callq	store_coding_state
	movq	input, %rax
	cmpl	$0, 2356(%rax)
	jne	.LBB5_5
# %bb.4:                                # %if.then21
	movl	-8(%rbp), %esi
	movl	-4(%rbp), %r8d
	movl	-8(%rbp), %eax
	cltd
	movl	$2, %r9d
	idivl	%r9d
	movl	%edx, %ecx
	shll	$1, %ecx
	movl	-4(%rbp), %eax
	cltd
	idivl	%r9d
	addl	%edx, %ecx
	shll	$4, %ecx
	movl	-8(%rbp), %eax
	cltd
	idivl	%r9d
	movl	%eax, %edi
	shll	$1, %edi
	movl	-4(%rbp), %eax
	cltd
	idivl	%r9d
	addl	%eax, %edi
	orl	%edi, %ecx
	movl	$7, %edi
	movl	%r8d, %edx
	callq	writeCoeff4x4_CAVLC
	movl	%eax, -28(%rbp)
	jmp	.LBB5_18
.LBB5_5:                                # %if.else31
	movq	-40(%rbp), %rax
	addq	$20, %rax
	movq	%rax, -64(%rbp)
	movq	img, %rax
	movq	14136(%rax), %rax
	movslq	-8(%rbp), %rcx
	movq	(%rax,%rcx,8), %rax
	movslq	-4(%rbp), %rcx
	movq	(%rax,%rcx,8), %rax
	movq	(%rax), %rax
	movq	%rax, -80(%rbp)
	movq	img, %rax
	movq	14136(%rax), %rax
	movslq	-8(%rbp), %rcx
	movq	(%rax,%rcx,8), %rax
	movslq	-4(%rbp), %rcx
	movq	(%rax,%rcx,8), %rax
	movq	8(%rax), %rax
	movq	%rax, -72(%rbp)
	movl	$1, -44(%rbp)
	movl	-4(%rbp), %eax
	cltd
	movl	$2, %ecx
	idivl	%ecx
	movq	img, %rdx
	movl	%eax, 76(%rdx)
	movl	-4(%rbp), %eax
	cltd
	idivl	%ecx
	movq	img, %rax
	movl	%edx, 72(%rax)
	movl	$0, -20(%rbp)
.LBB5_6:                                # %for.cond
                                        # =>This Inner Loop Header: Depth=1
	xorl	%eax, %eax
	cmpl	$17, -20(%rbp)
	jge	.LBB5_8
# %bb.7:                                # %land.rhs
                                        #   in Loop: Header=BB5_6 Depth=1
	cmpl	$0, -44(%rbp)
	setne	%al
.LBB5_8:                                # %land.end
                                        #   in Loop: Header=BB5_6 Depth=1
	testb	$1, %al
	jne	.LBB5_9
	jmp	.LBB5_17
.LBB5_9:                                # %for.body
                                        #   in Loop: Header=BB5_6 Depth=1
	movq	-80(%rbp), %rax
	movslq	-20(%rbp), %rcx
	movl	(%rax,%rcx,4), %eax
	movq	-16(%rbp), %rcx
	movl	%eax, 4(%rcx)
	movl	%eax, -44(%rbp)
	movq	-72(%rbp), %rax
	movslq	-20(%rbp), %rcx
	movl	(%rax,%rcx,4), %eax
	movq	-16(%rbp), %rcx
	movl	%eax, 8(%rcx)
	movl	%eax, -100(%rbp)
	movq	input, %rax
	cmpl	$0, 2356(%rax)
	jne	.LBB5_11
# %bb.10:                               # %if.then53
                                        #   in Loop: Header=BB5_6 Depth=1
	movq	-16(%rbp), %rax
	movabsq	$levrun_linfo_inter, %rcx
	movq	%rcx, 32(%rax)
	jmp	.LBB5_12
.LBB5_11:                               # %if.else54
                                        #   in Loop: Header=BB5_6 Depth=1
	movq	-16(%rbp), %rax
	movabsq	$writeRunLevel_CABAC, %rcx
	movq	%rcx, 40(%rax)
.LBB5_12:                               # %if.end55
                                        #   in Loop: Header=BB5_6 Depth=1
	movq	-16(%rbp), %rax
	movl	$7, 24(%rax)
	movq	-16(%rbp), %rax
	movl	$10, (%rax)
	movq	-40(%rbp), %rax
	cmpl	$9, 72(%rax)
	movb	$1, %al
	je	.LBB5_15
# %bb.13:                               # %lor.lhs.false
                                        #   in Loop: Header=BB5_6 Depth=1
	movq	-40(%rbp), %rax
	cmpl	$10, 72(%rax)
	movb	$1, %al
	je	.LBB5_15
# %bb.14:                               # %lor.rhs
                                        #   in Loop: Header=BB5_6 Depth=1
	movq	-40(%rbp), %rax
	cmpl	$13, 72(%rax)
	sete	%al
.LBB5_15:                               # %lor.end
                                        #   in Loop: Header=BB5_6 Depth=1
	andb	$1, %al
	movzbl	%al, %eax
	movq	img, %rcx
	movl	%eax, 80(%rcx)
	movl	-24(%rbp), %eax
	movq	img, %rcx
	movl	%eax, 84(%rcx)
	movq	-96(%rbp), %rax
	movq	24(%rax), %rax
	movq	-88(%rbp), %rcx
	movq	-16(%rbp), %rdx
	movslq	(%rdx), %rdx
	movslq	(%rcx,%rdx,4), %rcx
	imulq	$120, %rcx, %rcx
	addq	%rcx, %rax
	movq	%rax, -56(%rbp)
	movq	-56(%rbp), %rax
	movq	112(%rax), %rax
	movq	-16(%rbp), %rdi
	movq	-56(%rbp), %rsi
	callq	*%rax
	movq	-16(%rbp), %rax
	movl	12(%rax), %eax
	movq	-64(%rbp), %rcx
	addl	24(%rcx), %eax
	movl	%eax, 24(%rcx)
	movq	-16(%rbp), %rax
	movl	12(%rax), %eax
	addl	-28(%rbp), %eax
	movl	%eax, -28(%rbp)
	movq	-16(%rbp), %rax
	addq	$48, %rax
	movq	%rax, -16(%rbp)
	movq	-40(%rbp), %rax
	movl	(%rax), %ecx
	addl	$1, %ecx
	movl	%ecx, (%rax)
# %bb.16:                               # %for.inc
                                        #   in Loop: Header=BB5_6 Depth=1
	movl	-20(%rbp), %eax
	addl	$1, %eax
	movl	%eax, -20(%rbp)
	jmp	.LBB5_6
.LBB5_17:                               # %for.end
	jmp	.LBB5_18
.LBB5_18:                               # %if.end73
	movq	cs_cm, %rdi
	callq	reset_coding_state
	movl	-28(%rbp), %eax
	addq	$112, %rsp
	popq	%rbp
	.cfi_def_cfa %rsp, 8
	retq
.Lfunc_end5:
	.size	RDCost_for_4x4Blocks_Chroma, .Lfunc_end5-RDCost_for_4x4Blocks_Chroma
	.cfi_endproc
                                        # -- End function
	.section	.rodata.cst8,"aM",@progbits,8
	.p2align	3               # -- Begin function Mode_Decision_for_4x4IntraBlocks
.LCPI6_0:
	.quad	5055640609639927018     # double 1.0E+30
.LCPI6_1:
	.quad	4616189618054758400     # double 4
	.text
	.globl	Mode_Decision_for_4x4IntraBlocks
	.p2align	4, 0x90
	.type	Mode_Decision_for_4x4IntraBlocks,@function
Mode_Decision_for_4x4IntraBlocks:       # @Mode_Decision_for_4x4IntraBlocks
	.cfi_startproc
# %bb.0:                                # %entry
	pushq	%rbp
	.cfi_def_cfa_offset 16
	.cfi_offset %rbp, -16
	movq	%rsp, %rbp
	.cfi_def_cfa_register %rbp
	subq	$480, %rsp              # imm = 0x1E0
	vmovsd	.LCPI6_0(%rip), %xmm1   # xmm1 = mem[0],zero
	movl	%edi, -24(%rbp)
	movl	%esi, -20(%rbp)
	vmovsd	%xmm0, -136(%rbp)
	movq	%rdx, -144(%rbp)
	movl	$0, -52(%rbp)
	movl	$0, -92(%rbp)
	movl	-24(%rbp), %eax
	cltd
	movl	$2, %esi
	idivl	%esi
	movl	%edx, %ecx
	shll	$3, %ecx
	movl	-20(%rbp), %eax
	cltd
	idivl	%esi
	shll	$2, %edx
	addl	%edx, %ecx
	movl	%ecx, -32(%rbp)
	movl	-24(%rbp), %eax
	cltd
	idivl	%esi
	movl	%eax, %ecx
	shll	$3, %ecx
	movl	-20(%rbp), %eax
	cltd
	idivl	%esi
	shll	$2, %eax
	addl	%eax, %ecx
	movl	%ecx, -28(%rbp)
	movq	img, %rax
	movl	152(%rax), %eax
	addl	-32(%rbp), %eax
	movl	%eax, -56(%rbp)
	movq	img, %rax
	movl	156(%rax), %eax
	addl	-28(%rbp), %eax
	movl	%eax, -40(%rbp)
	movq	img, %rax
	movl	168(%rax), %eax
	addl	-32(%rbp), %eax
	movl	%eax, -76(%rbp)
	movq	img, %rax
	movl	172(%rax), %eax
	addl	-28(%rbp), %eax
	movl	%eax, -72(%rbp)
	movl	-56(%rbp), %eax
	cltd
	movl	$4, %ecx
	idivl	%ecx
	movl	%eax, -168(%rbp)
	movl	-40(%rbp), %eax
	cltd
	idivl	%ecx
	movl	%eax, -164(%rbp)
	vmovsd	%xmm1, -120(%rbp)
	movq	img, %rax
	movq	14168(%rax), %rax
	movq	img, %rdx
	movslq	12(%rdx), %rdx
	imulq	$632, %rdx, %rdx        # imm = 0x278
	addq	%rdx, %rax
	movl	524(%rax), %eax
	movl	%eax, -44(%rbp)
	movq	img, %rax
	movl	12(%rax), %edi
	movl	-32(%rbp), %eax
	cltd
	idivl	%ecx
	movl	%eax, %esi
	movl	-28(%rbp), %eax
	cltd
	idivl	%ecx
	movl	%eax, %edx
	movl	$4294967295, %ecx       # imm = 0xFFFFFFFF
	xorl	%r8d, %r8d
	leaq	-224(%rbp), %r9
	callq	getLuma4x4Neighbour
	movq	img, %rax
	movl	12(%rax), %edi
	movl	-32(%rbp), %eax
	cltd
	movl	$4, %ecx
	idivl	%ecx
	movl	%eax, %esi
	movl	-28(%rbp), %eax
	cltd
	idivl	%ecx
	movl	%eax, %edx
	movl	$0, %ecx
	movl	$4294967295, %r8d       # imm = 0xFFFFFFFF
	leaq	-200(%rbp), %r9
	callq	getLuma4x4Neighbour
	movq	input, %rax
	cmpl	$0, 216(%rax)
	je	.LBB6_8
# %bb.1:                                # %if.then
	cmpl	$0, -224(%rbp)
	je	.LBB6_3
# %bb.2:                                # %cond.true
	movq	img, %rax
	movq	71784(%rax), %rax
	movslq	-220(%rbp), %rcx
	movl	(%rax,%rcx,4), %eax
	jmp	.LBB6_4
.LBB6_3:                                # %cond.false
	xorl	%eax, %eax
	jmp	.LBB6_4
.LBB6_4:                                # %cond.end
	movl	%eax, -224(%rbp)
	cmpl	$0, -200(%rbp)
	je	.LBB6_6
# %bb.5:                                # %cond.true25
	movq	img, %rax
	movq	71784(%rax), %rax
	movslq	-196(%rbp), %rcx
	movl	(%rax,%rcx,4), %eax
	jmp	.LBB6_7
.LBB6_6:                                # %cond.false30
	xorl	%eax, %eax
	jmp	.LBB6_7
.LBB6_7:                                # %cond.end31
	movl	%eax, -200(%rbp)
.LBB6_8:                                # %if.end
	cmpl	$0, -200(%rbp)
	je	.LBB6_10
# %bb.9:                                # %cond.true36
	movq	img, %rax
	movq	104(%rax), %rax
	movslq	-184(%rbp), %rcx
	movq	(%rax,%rcx,8), %rax
	movslq	-180(%rbp), %rcx
	movl	(%rax,%rcx,4), %eax
	jmp	.LBB6_11
.LBB6_10:                               # %cond.false41
	movl	$4294967295, %eax       # imm = 0xFFFFFFFF
	jmp	.LBB6_11
.LBB6_11:                               # %cond.end42
	movl	%eax, -104(%rbp)
	cmpl	$0, -224(%rbp)
	je	.LBB6_13
# %bb.12:                               # %cond.true46
	movq	img, %rax
	movq	104(%rax), %rax
	movslq	-208(%rbp), %rcx
	movq	(%rax,%rcx,8), %rax
	movslq	-204(%rbp), %rcx
	movl	(%rax,%rcx,4), %eax
	jmp	.LBB6_14
.LBB6_13:                               # %cond.false54
	movl	$4294967295, %eax       # imm = 0xFFFFFFFF
	jmp	.LBB6_14
.LBB6_14:                               # %cond.end55
	movl	%eax, -100(%rbp)
	cmpl	$0, -104(%rbp)
	jl	.LBB6_16
# %bb.15:                               # %lor.lhs.false
	cmpl	$0, -100(%rbp)
	jge	.LBB6_17
.LBB6_16:                               # %cond.true58
	movl	$2, %eax
	jmp	.LBB6_21
.LBB6_17:                               # %cond.false59
	movl	-104(%rbp), %eax
	cmpl	-100(%rbp), %eax
	jge	.LBB6_19
# %bb.18:                               # %cond.true61
	movl	-104(%rbp), %eax
	jmp	.LBB6_20
.LBB6_19:                               # %cond.false62
	movl	-100(%rbp), %eax
.LBB6_20:                               # %cond.end63
.LBB6_21:                               # %cond.end65
	movl	%eax, -88(%rbp)
	movq	-144(%rbp), %rax
	movl	$2147483647, (%rax)     # imm = 0x7FFFFFFF
	movl	-56(%rbp), %edi
	movl	-40(%rbp), %esi
	leaq	-160(%rbp), %rdx
	leaq	-156(%rbp), %rcx
	leaq	-152(%rbp), %r8
	callq	intrapred_luma
	movl	$0, -36(%rbp)
.LBB6_22:                               # %for.cond
                                        # =>This Loop Header: Depth=1
                                        #     Child Loop BB6_49 Depth 2
                                        #       Child Loop BB6_51 Depth 3
                                        #     Child Loop BB6_64 Depth 2
                                        #       Child Loop BB6_66 Depth 3
                                        #     Child Loop BB6_73 Depth 2
                                        #       Child Loop BB6_75 Depth 3
                                        #     Child Loop BB6_81 Depth 2
                                        #       Child Loop BB6_83 Depth 3
                                        #     Child Loop BB6_91 Depth 2
                                        #       Child Loop BB6_93 Depth 3
                                        #     Child Loop BB6_99 Depth 2
                                        #       Child Loop BB6_101 Depth 3
                                        #     Child Loop BB6_107 Depth 2
                                        #       Child Loop BB6_109 Depth 3
                                        #     Child Loop BB6_115 Depth 2
                                        #       Child Loop BB6_117 Depth 3
                                        #     Child Loop BB6_123 Depth 2
                                        #       Child Loop BB6_125 Depth 3
                                        #     Child Loop BB6_131 Depth 2
                                        #       Child Loop BB6_133 Depth 3
                                        #     Child Loop BB6_166 Depth 2
                                        #       Child Loop BB6_168 Depth 3
                                        #     Child Loop BB6_175 Depth 2
                                        #       Child Loop BB6_177 Depth 3
                                        #     Child Loop BB6_183 Depth 2
                                        #       Child Loop BB6_185 Depth 3
                                        #     Child Loop BB6_191 Depth 2
                                        #       Child Loop BB6_193 Depth 3
                                        #     Child Loop BB6_199 Depth 2
                                        #       Child Loop BB6_201 Depth 3
                                        #         Child Loop BB6_203 Depth 4
                                        #     Child Loop BB6_211 Depth 2
                                        #       Child Loop BB6_213 Depth 3
	cmpl	$9, -36(%rbp)
	jge	.LBB6_224
# %bb.23:                               # %for.body
                                        #   in Loop: Header=BB6_22 Depth=1
	cmpl	$2, -36(%rbp)
	movb	$1, %al
	je	.LBB6_32
# %bb.24:                               # %lor.lhs.false69
                                        #   in Loop: Header=BB6_22 Depth=1
	cmpl	$0, -36(%rbp)
	je	.LBB6_27
# %bb.25:                               # %lor.lhs.false71
                                        #   in Loop: Header=BB6_22 Depth=1
	cmpl	$7, -36(%rbp)
	je	.LBB6_27
# %bb.26:                               # %lor.lhs.false73
                                        #   in Loop: Header=BB6_22 Depth=1
	cmpl	$3, -36(%rbp)
	jne	.LBB6_28
.LBB6_27:                               # %land.lhs.true
                                        #   in Loop: Header=BB6_22 Depth=1
	cmpl	$0, -156(%rbp)
	movb	$1, %al
	jne	.LBB6_32
.LBB6_28:                               # %lor.lhs.false76
                                        #   in Loop: Header=BB6_22 Depth=1
	cmpl	$1, -36(%rbp)
	je	.LBB6_30
# %bb.29:                               # %lor.lhs.false78
                                        #   in Loop: Header=BB6_22 Depth=1
	cmpl	$8, -36(%rbp)
	jne	.LBB6_31
.LBB6_30:                               # %land.lhs.true80
                                        #   in Loop: Header=BB6_22 Depth=1
	cmpl	$0, -160(%rbp)
	movb	$1, %al
	jne	.LBB6_32
.LBB6_31:                               # %lor.rhs
                                        #   in Loop: Header=BB6_22 Depth=1
	cmpl	$0, -152(%rbp)
	setne	%al
.LBB6_32:                               # %lor.end
                                        #   in Loop: Header=BB6_22 Depth=1
	andb	$1, %al
	movzbl	%al, %eax
	movl	%eax, -148(%rbp)
	movq	input, %rax
	cmpl	$0, 2396(%rax)
	je	.LBB6_34
# %bb.33:                               # %lor.lhs.false84
                                        #   in Loop: Header=BB6_22 Depth=1
	movq	img, %rax
	cmpl	$2, 24(%rax)
	je	.LBB6_46
.LBB6_34:                               # %if.then86
                                        #   in Loop: Header=BB6_22 Depth=1
	movq	input, %rax
	cmpl	$0, 2400(%rax)
	je	.LBB6_38
# %bb.35:                               # %land.lhs.true88
                                        #   in Loop: Header=BB6_22 Depth=1
	cmpl	$0, -36(%rbp)
	je	.LBB6_37
# %bb.36:                               # %lor.lhs.false90
                                        #   in Loop: Header=BB6_22 Depth=1
	cmpl	$1, -36(%rbp)
	jne	.LBB6_38
.LBB6_37:                               # %if.then92
                                        #   in Loop: Header=BB6_22 Depth=1
	jmp	.LBB6_223
.LBB6_38:                               # %if.end93
                                        #   in Loop: Header=BB6_22 Depth=1
	movq	input, %rax
	cmpl	$0, 2404(%rax)
	je	.LBB6_42
# %bb.39:                               # %land.lhs.true95
                                        #   in Loop: Header=BB6_22 Depth=1
	cmpl	$3, -36(%rbp)
	je	.LBB6_41
# %bb.40:                               # %lor.lhs.false97
                                        #   in Loop: Header=BB6_22 Depth=1
	cmpl	$4, -36(%rbp)
	jne	.LBB6_42
.LBB6_41:                               # %if.then99
                                        #   in Loop: Header=BB6_22 Depth=1
	jmp	.LBB6_223
.LBB6_42:                               # %if.end100
                                        #   in Loop: Header=BB6_22 Depth=1
	movq	input, %rax
	cmpl	$0, 2408(%rax)
	je	.LBB6_45
# %bb.43:                               # %land.lhs.true102
                                        #   in Loop: Header=BB6_22 Depth=1
	cmpl	$5, -36(%rbp)
	jl	.LBB6_45
# %bb.44:                               # %if.then104
                                        #   in Loop: Header=BB6_22 Depth=1
	jmp	.LBB6_223
.LBB6_45:                               # %if.end105
                                        #   in Loop: Header=BB6_22 Depth=1
	jmp	.LBB6_46
.LBB6_46:                               # %if.end106
                                        #   in Loop: Header=BB6_22 Depth=1
	cmpl	$0, -148(%rbp)
	je	.LBB6_222
# %bb.47:                               # %if.then108
                                        #   in Loop: Header=BB6_22 Depth=1
	movq	input, %rax
	cmpl	$0, 2464(%rax)
	jne	.LBB6_62
# %bb.48:                               # %if.then110
                                        #   in Loop: Header=BB6_22 Depth=1
	movl	$0, -8(%rbp)
	movl	$0, -112(%rbp)
.LBB6_49:                               # %for.cond111
                                        #   Parent Loop BB6_22 Depth=1
                                        # =>  This Loop Header: Depth=2
                                        #       Child Loop BB6_51 Depth 3
	cmpl	$4, -8(%rbp)
	jge	.LBB6_56
# %bb.50:                               # %for.body113
                                        #   in Loop: Header=BB6_49 Depth=2
	movl	$0, -4(%rbp)
.LBB6_51:                               # %for.cond114
                                        #   Parent Loop BB6_22 Depth=1
                                        #     Parent Loop BB6_49 Depth=2
                                        # =>    This Inner Loop Header: Depth=3
	cmpl	$4, -4(%rbp)
	jge	.LBB6_54
# %bb.52:                               # %for.body116
                                        #   in Loop: Header=BB6_51 Depth=3
	movq	imgY_org, %rax
	movl	-72(%rbp), %ecx
	addl	-8(%rbp), %ecx
	movslq	%ecx, %rcx
	movq	(%rax,%rcx,8), %rax
	movl	-76(%rbp), %ecx
	addl	-4(%rbp), %ecx
	movslq	%ecx, %rcx
	movzwl	(%rax,%rcx,2), %eax
	movq	img, %rcx
	addq	$184, %rcx
	movslq	-36(%rbp), %rdx
	shlq	$9, %rdx
	addq	%rdx, %rcx
	movslq	-8(%rbp), %rdx
	shlq	$5, %rdx
	addq	%rdx, %rcx
	movslq	-4(%rbp), %rdx
	movzwl	(%rcx,%rdx,2), %ecx
	subl	%ecx, %eax
	movslq	-112(%rbp), %rcx
	movl	%eax, -352(%rbp,%rcx,4)
# %bb.53:                               # %for.inc
                                        #   in Loop: Header=BB6_51 Depth=3
	movl	-4(%rbp), %eax
	addl	$1, %eax
	movl	%eax, -4(%rbp)
	movl	-112(%rbp), %eax
	addl	$1, %eax
	movl	%eax, -112(%rbp)
	jmp	.LBB6_51
.LBB6_54:                               # %for.end
                                        #   in Loop: Header=BB6_49 Depth=2
	jmp	.LBB6_55
.LBB6_55:                               # %for.inc133
                                        #   in Loop: Header=BB6_49 Depth=2
	movl	-8(%rbp), %eax
	addl	$1, %eax
	movl	%eax, -8(%rbp)
	jmp	.LBB6_49
.LBB6_56:                               # %for.end135
                                        #   in Loop: Header=BB6_22 Depth=1
	movl	-36(%rbp), %eax
	cmpl	-88(%rbp), %eax
	jne	.LBB6_58
# %bb.57:                               # %cond.true138
                                        #   in Loop: Header=BB6_22 Depth=1
	xorl	%eax, %eax
	jmp	.LBB6_59
.LBB6_58:                               # %cond.false139
                                        #   in Loop: Header=BB6_22 Depth=1
	vmovsd	.LCPI6_1(%rip), %xmm0   # xmm0 = mem[0],zero
	vmulsd	-136(%rbp), %xmm0, %xmm0
	vroundsd	$9, %xmm0, %xmm0, %xmm0
	vcvttsd2si	%xmm0, %eax
.LBB6_59:                               # %cond.end142
                                        #   in Loop: Header=BB6_22 Depth=1
	leaq	-352(%rbp), %rdi
	movl	%eax, -96(%rbp)
	movq	input, %rax
	movl	24(%rax), %esi
	callq	SATD
	addl	-96(%rbp), %eax
	movl	%eax, -96(%rbp)
	movl	-96(%rbp), %eax
	movq	-144(%rbp), %rcx
	cmpl	(%rcx), %eax
	jge	.LBB6_61
# %bb.60:                               # %if.then147
                                        #   in Loop: Header=BB6_22 Depth=1
	movl	-36(%rbp), %eax
	movl	%eax, -52(%rbp)
	movl	-96(%rbp), %eax
	movq	-144(%rbp), %rcx
	movl	%eax, (%rcx)
.LBB6_61:                               # %if.end148
                                        #   in Loop: Header=BB6_22 Depth=1
	jmp	.LBB6_221
.LBB6_62:                               # %if.else
                                        #   in Loop: Header=BB6_22 Depth=1
	movq	img, %rax
	cmpl	$0, 72724(%rax)
	jne	.LBB6_90
# %bb.63:                               # %if.then150
                                        #   in Loop: Header=BB6_22 Depth=1
	movl	$0, -8(%rbp)
.LBB6_64:                               # %for.cond151
                                        #   Parent Loop BB6_22 Depth=1
                                        # =>  This Loop Header: Depth=2
                                        #       Child Loop BB6_66 Depth 3
	cmpl	$4, -8(%rbp)
	jge	.LBB6_71
# %bb.65:                               # %for.body154
                                        #   in Loop: Header=BB6_64 Depth=2
	movl	$0, -4(%rbp)
.LBB6_66:                               # %for.cond155
                                        #   Parent Loop BB6_22 Depth=1
                                        #     Parent Loop BB6_64 Depth=2
                                        # =>    This Inner Loop Header: Depth=3
	cmpl	$4, -4(%rbp)
	jge	.LBB6_69
# %bb.67:                               # %for.body158
                                        #   in Loop: Header=BB6_66 Depth=3
	movq	img, %rax
	addq	$184, %rax
	movslq	-36(%rbp), %rcx
	shlq	$9, %rcx
	addq	%rcx, %rax
	movslq	-8(%rbp), %rcx
	shlq	$5, %rcx
	addq	%rcx, %rax
	movslq	-4(%rbp), %rcx
	movw	(%rax,%rcx,2), %ax
	movq	img, %rcx
	addq	$12600, %rcx            # imm = 0x3138
	movl	-32(%rbp), %edx
	addl	-4(%rbp), %edx
	movslq	%edx, %rdx
	shlq	$5, %rdx
	addq	%rdx, %rcx
	movl	-28(%rbp), %edx
	addl	-8(%rbp), %edx
	movslq	%edx, %rdx
	movw	%ax, (%rcx,%rdx,2)
	movq	imgY_org, %rax
	movl	-72(%rbp), %ecx
	addl	-8(%rbp), %ecx
	movslq	%ecx, %rcx
	movq	(%rax,%rcx,8), %rax
	movl	-76(%rbp), %ecx
	addl	-4(%rbp), %ecx
	movslq	%ecx, %rcx
	movzwl	(%rax,%rcx,2), %eax
	movq	img, %rcx
	addq	$184, %rcx
	movslq	-36(%rbp), %rdx
	shlq	$9, %rdx
	addq	%rdx, %rcx
	movslq	-8(%rbp), %rdx
	shlq	$5, %rdx
	addq	%rdx, %rcx
	movslq	-4(%rbp), %rdx
	movzwl	(%rcx,%rdx,2), %ecx
	subl	%ecx, %eax
	movq	img, %rcx
	addq	$13112, %rcx            # imm = 0x3338
	movslq	-4(%rbp), %rdx
	shlq	$6, %rdx
	addq	%rdx, %rcx
	movslq	-8(%rbp), %rdx
	movl	%eax, (%rcx,%rdx,4)
# %bb.68:                               # %for.inc192
                                        #   in Loop: Header=BB6_66 Depth=3
	movl	-4(%rbp), %eax
	addl	$1, %eax
	movl	%eax, -4(%rbp)
	jmp	.LBB6_66
.LBB6_69:                               # %for.end194
                                        #   in Loop: Header=BB6_64 Depth=2
	jmp	.LBB6_70
.LBB6_70:                               # %for.inc195
                                        #   in Loop: Header=BB6_64 Depth=2
	movl	-8(%rbp), %eax
	addl	$1, %eax
	movl	%eax, -8(%rbp)
	jmp	.LBB6_64
.LBB6_71:                               # %for.end197
                                        #   in Loop: Header=BB6_22 Depth=1
	movq	cs_cm, %rdi
	callq	store_coding_state
	movl	-24(%rbp), %esi
	movl	-20(%rbp), %edx
	movl	-36(%rbp), %ecx
	vmovsd	-136(%rbp), %xmm0       # xmm0 = mem[0],zero
	vmovsd	-120(%rbp), %xmm1       # xmm1 = mem[0],zero
	movl	-88(%rbp), %r8d
	leaq	-108(%rbp), %rdi
	callq	RDCost_for_4x4IntraBlocks
	vmovsd	%xmm0, -128(%rbp)
	vmovsd	-120(%rbp), %xmm1       # xmm1 = mem[0],zero
	vucomisd	%xmm0, %xmm1
	jbe	.LBB6_89
# %bb.72:                               # %if.then201
                                        #   in Loop: Header=BB6_22 Depth=1
	movl	$0, -8(%rbp)
.LBB6_73:                               # %for.cond202
                                        #   Parent Loop BB6_22 Depth=1
                                        # =>  This Loop Header: Depth=2
                                        #       Child Loop BB6_75 Depth 3
	cmpl	$2, -8(%rbp)
	jge	.LBB6_80
# %bb.74:                               # %for.body205
                                        #   in Loop: Header=BB6_73 Depth=2
	movl	$0, -4(%rbp)
.LBB6_75:                               # %for.cond206
                                        #   Parent Loop BB6_22 Depth=1
                                        #     Parent Loop BB6_73 Depth=2
                                        # =>    This Inner Loop Header: Depth=3
	cmpl	$18, -4(%rbp)
	jge	.LBB6_78
# %bb.76:                               # %for.body209
                                        #   in Loop: Header=BB6_75 Depth=3
	movq	img, %rax
	movq	14136(%rax), %rax
	movslq	-24(%rbp), %rcx
	movq	(%rax,%rcx,8), %rax
	movslq	-20(%rbp), %rcx
	movq	(%rax,%rcx,8), %rax
	movslq	-8(%rbp), %rcx
	movq	(%rax,%rcx,8), %rax
	movslq	-4(%rbp), %rcx
	movl	(%rax,%rcx,4), %eax
	movq	cofAC4x4, %rcx
	movslq	-8(%rbp), %rdx
	movq	(%rcx,%rdx,8), %rcx
	movslq	-4(%rbp), %rdx
	movl	%eax, (%rcx,%rdx,4)
# %bb.77:                               # %for.inc222
                                        #   in Loop: Header=BB6_75 Depth=3
	movl	-4(%rbp), %eax
	addl	$1, %eax
	movl	%eax, -4(%rbp)
	jmp	.LBB6_75
.LBB6_78:                               # %for.end224
                                        #   in Loop: Header=BB6_73 Depth=2
	jmp	.LBB6_79
.LBB6_79:                               # %for.inc225
                                        #   in Loop: Header=BB6_73 Depth=2
	movl	-8(%rbp), %eax
	addl	$1, %eax
	movl	%eax, -8(%rbp)
	jmp	.LBB6_73
.LBB6_80:                               # %for.end227
                                        #   in Loop: Header=BB6_22 Depth=1
	movl	$0, -12(%rbp)
.LBB6_81:                               # %for.cond228
                                        #   Parent Loop BB6_22 Depth=1
                                        # =>  This Loop Header: Depth=2
                                        #       Child Loop BB6_83 Depth 3
	cmpl	$4, -12(%rbp)
	jge	.LBB6_88
# %bb.82:                               # %for.body231
                                        #   in Loop: Header=BB6_81 Depth=2
	movl	$0, -16(%rbp)
.LBB6_83:                               # %for.cond232
                                        #   Parent Loop BB6_22 Depth=1
                                        #     Parent Loop BB6_81 Depth=2
                                        # =>    This Inner Loop Header: Depth=3
	cmpl	$4, -16(%rbp)
	jge	.LBB6_86
# %bb.84:                               # %for.body235
                                        #   in Loop: Header=BB6_83 Depth=3
	movq	enc_picture, %rax
	movq	6424(%rax), %rax
	movl	-40(%rbp), %ecx
	addl	-12(%rbp), %ecx
	movslq	%ecx, %rcx
	movq	(%rax,%rcx,8), %rax
	movl	-56(%rbp), %ecx
	addl	-16(%rbp), %ecx
	movslq	%ecx, %rcx
	movzwl	(%rax,%rcx,2), %eax
	movslq	-12(%rbp), %rcx
	shlq	$4, %rcx
	leaq	-288(%rbp), %rdx
	addq	%rcx, %rdx
	movslq	-16(%rbp), %rcx
	movl	%eax, (%rdx,%rcx,4)
# %bb.85:                               # %for.inc247
                                        #   in Loop: Header=BB6_83 Depth=3
	movl	-16(%rbp), %eax
	addl	$1, %eax
	movl	%eax, -16(%rbp)
	jmp	.LBB6_83
.LBB6_86:                               # %for.end249
                                        #   in Loop: Header=BB6_81 Depth=2
	jmp	.LBB6_87
.LBB6_87:                               # %for.inc250
                                        #   in Loop: Header=BB6_81 Depth=2
	movl	-12(%rbp), %eax
	addl	$1, %eax
	movl	%eax, -12(%rbp)
	jmp	.LBB6_81
.LBB6_88:                               # %for.end252
                                        #   in Loop: Header=BB6_22 Depth=1
	movl	-108(%rbp), %eax
	movl	%eax, -92(%rbp)
	vmovsd	-128(%rbp), %xmm0       # xmm0 = mem[0],zero
	vmovsd	%xmm0, -120(%rbp)
	movl	-36(%rbp), %eax
	movl	%eax, -52(%rbp)
.LBB6_89:                               # %if.end253
                                        #   in Loop: Header=BB6_22 Depth=1
	movq	cs_cm, %rdi
	callq	reset_coding_state
	jmp	.LBB6_220
.LBB6_90:                               # %if.else254
                                        #   in Loop: Header=BB6_22 Depth=1
	movl	$0, -8(%rbp)
.LBB6_91:                               # %for.cond255
                                        #   Parent Loop BB6_22 Depth=1
                                        # =>  This Loop Header: Depth=2
                                        #       Child Loop BB6_93 Depth 3
	cmpl	$4, -8(%rbp)
	jge	.LBB6_98
# %bb.92:                               # %for.body258
                                        #   in Loop: Header=BB6_91 Depth=2
	movl	$0, -4(%rbp)
.LBB6_93:                               # %for.cond259
                                        #   Parent Loop BB6_22 Depth=1
                                        #     Parent Loop BB6_91 Depth=2
                                        # =>    This Inner Loop Header: Depth=3
	cmpl	$4, -4(%rbp)
	jge	.LBB6_96
# %bb.94:                               # %for.body262
                                        #   in Loop: Header=BB6_93 Depth=3
	movq	imgUV_org, %rax
	movq	(%rax), %rax
	movl	-72(%rbp), %ecx
	addl	-8(%rbp), %ecx
	movslq	%ecx, %rcx
	movq	(%rax,%rcx,8), %rax
	movl	-76(%rbp), %ecx
	addl	-4(%rbp), %ecx
	movslq	%ecx, %rcx
	movzwl	(%rax,%rcx,2), %eax
	movq	img, %rcx
	addq	$8504, %rcx             # imm = 0x2138
	movslq	-44(%rbp), %rdx
	shlq	$9, %rdx
	addq	%rdx, %rcx
	movl	-32(%rbp), %edx
	addl	-4(%rbp), %edx
	movslq	%edx, %rdx
	shlq	$5, %rdx
	addq	%rdx, %rcx
	movl	-28(%rbp), %edx
	addl	-8(%rbp), %edx
	movslq	%edx, %rdx
	movzwl	(%rcx,%rdx,2), %ecx
	subl	%ecx, %eax
	movl	%eax, -48(%rbp)
	movq	imgY_org, %rax
	movl	-72(%rbp), %ecx
	addl	-8(%rbp), %ecx
	movslq	%ecx, %rcx
	movq	(%rax,%rcx,8), %rax
	movl	-76(%rbp), %ecx
	addl	-4(%rbp), %ecx
	movslq	%ecx, %rcx
	movzwl	(%rax,%rcx,2), %eax
	movq	img, %rcx
	addq	$184, %rcx
	movslq	-36(%rbp), %rdx
	shlq	$9, %rdx
	addq	%rdx, %rcx
	movslq	-8(%rbp), %rdx
	shlq	$5, %rdx
	addq	%rdx, %rcx
	movslq	-4(%rbp), %rdx
	movzwl	(%rcx,%rdx,2), %ecx
	subl	%ecx, %eax
	movl	%eax, -60(%rbp)
	movq	imgUV_org, %rax
	movq	8(%rax), %rax
	movl	-72(%rbp), %ecx
	addl	-8(%rbp), %ecx
	movslq	%ecx, %rcx
	movq	(%rax,%rcx,8), %rax
	movl	-76(%rbp), %ecx
	addl	-4(%rbp), %ecx
	movslq	%ecx, %rcx
	movzwl	(%rax,%rcx,2), %eax
	movq	img, %rcx
	addq	$8504, %rcx             # imm = 0x2138
	addq	$2048, %rcx             # imm = 0x800
	movslq	-44(%rbp), %rdx
	shlq	$9, %rdx
	addq	%rdx, %rcx
	movl	-32(%rbp), %edx
	addl	-4(%rbp), %edx
	movslq	%edx, %rdx
	shlq	$5, %rdx
	addq	%rdx, %rcx
	movl	-28(%rbp), %edx
	addl	-8(%rbp), %edx
	movslq	%edx, %rdx
	movzwl	(%rcx,%rdx,2), %ecx
	subl	%ecx, %eax
	movl	%eax, -64(%rbp)
	movl	-64(%rbp), %eax
	subl	-48(%rbp), %eax
	movslq	-4(%rbp), %rcx
	shlq	$6, %rcx
	movabsq	$resTrans_R, %rdx
	movq	%rdx, %rsi
	addq	%rcx, %rsi
	movslq	-8(%rbp), %rcx
	movl	%eax, (%rsi,%rcx,4)
	movl	-48(%rbp), %eax
	movslq	-4(%rbp), %rcx
	shlq	$6, %rcx
	addq	%rcx, %rdx
	movslq	-8(%rbp), %rcx
	movl	(%rdx,%rcx,4), %ecx
	sarl	$1, %ecx
	addl	%ecx, %eax
	movl	%eax, -68(%rbp)
	movl	-60(%rbp), %eax
	subl	-68(%rbp), %eax
	movslq	-4(%rbp), %rcx
	shlq	$6, %rcx
	movabsq	$resTrans_B, %rdx
	movq	%rdx, %rsi
	addq	%rcx, %rsi
	movslq	-8(%rbp), %rcx
	movl	%eax, (%rsi,%rcx,4)
	movl	-68(%rbp), %eax
	movslq	-4(%rbp), %rcx
	shlq	$6, %rcx
	addq	%rcx, %rdx
	movslq	-8(%rbp), %rcx
	movl	(%rdx,%rcx,4), %ecx
	sarl	$1, %ecx
	addl	%ecx, %eax
	movslq	-4(%rbp), %rcx
	shlq	$6, %rcx
	movabsq	$resTrans_G, %rdx
	addq	%rcx, %rdx
	movslq	-8(%rbp), %rcx
	movl	%eax, (%rdx,%rcx,4)
# %bb.95:                               # %for.inc343
                                        #   in Loop: Header=BB6_93 Depth=3
	movl	-4(%rbp), %eax
	addl	$1, %eax
	movl	%eax, -4(%rbp)
	jmp	.LBB6_93
.LBB6_96:                               # %for.end345
                                        #   in Loop: Header=BB6_91 Depth=2
	jmp	.LBB6_97
.LBB6_97:                               # %for.inc346
                                        #   in Loop: Header=BB6_91 Depth=2
	movl	-8(%rbp), %eax
	addl	$1, %eax
	movl	%eax, -8(%rbp)
	jmp	.LBB6_91
.LBB6_98:                               # %for.end348
                                        #   in Loop: Header=BB6_22 Depth=1
	movl	$0, -8(%rbp)
.LBB6_99:                               # %for.cond349
                                        #   Parent Loop BB6_22 Depth=1
                                        # =>  This Loop Header: Depth=2
                                        #       Child Loop BB6_101 Depth 3
	cmpl	$4, -8(%rbp)
	jge	.LBB6_106
# %bb.100:                              # %for.body352
                                        #   in Loop: Header=BB6_99 Depth=2
	movl	$0, -4(%rbp)
.LBB6_101:                              # %for.cond353
                                        #   Parent Loop BB6_22 Depth=1
                                        #     Parent Loop BB6_99 Depth=2
                                        # =>    This Inner Loop Header: Depth=3
	cmpl	$4, -4(%rbp)
	jge	.LBB6_104
# %bb.102:                              # %for.body356
                                        #   in Loop: Header=BB6_101 Depth=3
	movslq	-4(%rbp), %rax
	shlq	$6, %rax
	movabsq	$resTrans_G, %rcx
	addq	%rax, %rcx
	movslq	-8(%rbp), %rax
	movl	(%rcx,%rax,4), %eax
	movq	img, %rcx
	addq	$13112, %rcx            # imm = 0x3338
	movslq	-4(%rbp), %rdx
	shlq	$6, %rdx
	addq	%rdx, %rcx
	movslq	-8(%rbp), %rdx
	movl	%eax, (%rcx,%rdx,4)
# %bb.103:                              # %for.inc366
                                        #   in Loop: Header=BB6_101 Depth=3
	movl	-4(%rbp), %eax
	addl	$1, %eax
	movl	%eax, -4(%rbp)
	jmp	.LBB6_101
.LBB6_104:                              # %for.end368
                                        #   in Loop: Header=BB6_99 Depth=2
	jmp	.LBB6_105
.LBB6_105:                              # %for.inc369
                                        #   in Loop: Header=BB6_99 Depth=2
	movl	-8(%rbp), %eax
	addl	$1, %eax
	movl	%eax, -8(%rbp)
	jmp	.LBB6_99
.LBB6_106:                              # %for.end371
                                        #   in Loop: Header=BB6_22 Depth=1
	movq	cs_cm, %rdi
	callq	store_coding_state
	movl	-24(%rbp), %esi
	movl	-20(%rbp), %edx
	movl	-36(%rbp), %ecx
	vmovsd	-136(%rbp), %xmm0       # xmm0 = mem[0],zero
	vmovsd	-120(%rbp), %xmm1       # xmm1 = mem[0],zero
	movl	-88(%rbp), %r8d
	leaq	-108(%rbp), %rdi
	callq	RDCost_for_4x4IntraBlocks
	vcvttsd2si	%xmm0, %eax
	movl	%eax, -84(%rbp)
	movq	cs_cm, %rdi
	callq	reset_coding_state
	movl	$0, -8(%rbp)
.LBB6_107:                              # %for.cond374
                                        #   Parent Loop BB6_22 Depth=1
                                        # =>  This Loop Header: Depth=2
                                        #       Child Loop BB6_109 Depth 3
	cmpl	$4, -8(%rbp)
	jge	.LBB6_114
# %bb.108:                              # %for.body377
                                        #   in Loop: Header=BB6_107 Depth=2
	movl	$0, -4(%rbp)
.LBB6_109:                              # %for.cond378
                                        #   Parent Loop BB6_22 Depth=1
                                        #     Parent Loop BB6_107 Depth=2
                                        # =>    This Inner Loop Header: Depth=3
	cmpl	$4, -4(%rbp)
	jge	.LBB6_112
# %bb.110:                              # %for.body381
                                        #   in Loop: Header=BB6_109 Depth=3
	movq	img, %rax
	addq	$13112, %rax            # imm = 0x3338
	movslq	-4(%rbp), %rcx
	shlq	$6, %rcx
	addq	%rcx, %rax
	movslq	-8(%rbp), %rcx
	movl	(%rax,%rcx,4), %eax
	movslq	-4(%rbp), %rcx
	shlq	$6, %rcx
	movabsq	$rec_resG, %rdx
	addq	%rcx, %rdx
	movslq	-8(%rbp), %rcx
	movl	%eax, (%rdx,%rcx,4)
	movslq	-4(%rbp), %rax
	shlq	$6, %rax
	movabsq	$resTrans_R, %rcx
	addq	%rax, %rcx
	movslq	-8(%rbp), %rax
	movl	(%rcx,%rax,4), %eax
	movq	img, %rcx
	addq	$13112, %rcx            # imm = 0x3338
	movslq	-4(%rbp), %rdx
	shlq	$6, %rdx
	addq	%rdx, %rcx
	movslq	-8(%rbp), %rdx
	movl	%eax, (%rcx,%rdx,4)
# %bb.111:                              # %for.inc400
                                        #   in Loop: Header=BB6_109 Depth=3
	movl	-4(%rbp), %eax
	addl	$1, %eax
	movl	%eax, -4(%rbp)
	jmp	.LBB6_109
.LBB6_112:                              # %for.end402
                                        #   in Loop: Header=BB6_107 Depth=2
	jmp	.LBB6_113
.LBB6_113:                              # %for.inc403
                                        #   in Loop: Header=BB6_107 Depth=2
	movl	-8(%rbp), %eax
	addl	$1, %eax
	movl	%eax, -8(%rbp)
	jmp	.LBB6_107
.LBB6_114:                              # %for.end405
                                        #   in Loop: Header=BB6_22 Depth=1
	movq	cs_cm, %rdi
	callq	store_coding_state
	movl	-24(%rbp), %edi
	addl	$4, %edi
	movl	-20(%rbp), %esi
	xorl	%edx, %edx
	callq	RDCost_for_4x4Blocks_Chroma
	addl	-84(%rbp), %eax
	movl	%eax, -84(%rbp)
	movl	$0, -8(%rbp)
.LBB6_115:                              # %for.cond409
                                        #   Parent Loop BB6_22 Depth=1
                                        # =>  This Loop Header: Depth=2
                                        #       Child Loop BB6_117 Depth 3
	cmpl	$4, -8(%rbp)
	jge	.LBB6_122
# %bb.116:                              # %for.body412
                                        #   in Loop: Header=BB6_115 Depth=2
	movl	$0, -4(%rbp)
.LBB6_117:                              # %for.cond413
                                        #   Parent Loop BB6_22 Depth=1
                                        #     Parent Loop BB6_115 Depth=2
                                        # =>    This Inner Loop Header: Depth=3
	cmpl	$4, -4(%rbp)
	jge	.LBB6_120
# %bb.118:                              # %for.body416
                                        #   in Loop: Header=BB6_117 Depth=3
	movq	img, %rax
	addq	$13112, %rax            # imm = 0x3338
	movslq	-4(%rbp), %rcx
	shlq	$6, %rcx
	addq	%rcx, %rax
	movslq	-8(%rbp), %rcx
	movl	(%rax,%rcx,4), %eax
	movslq	-4(%rbp), %rcx
	shlq	$6, %rcx
	movabsq	$rec_resR, %rdx
	addq	%rcx, %rdx
	movslq	-8(%rbp), %rcx
	movl	%eax, (%rdx,%rcx,4)
	movslq	-4(%rbp), %rax
	shlq	$6, %rax
	movabsq	$resTrans_B, %rcx
	addq	%rax, %rcx
	movslq	-8(%rbp), %rax
	movl	(%rcx,%rax,4), %eax
	movq	img, %rcx
	addq	$13112, %rcx            # imm = 0x3338
	movslq	-4(%rbp), %rdx
	shlq	$6, %rdx
	addq	%rdx, %rcx
	movslq	-8(%rbp), %rdx
	movl	%eax, (%rcx,%rdx,4)
# %bb.119:                              # %for.inc435
                                        #   in Loop: Header=BB6_117 Depth=3
	movl	-4(%rbp), %eax
	addl	$1, %eax
	movl	%eax, -4(%rbp)
	jmp	.LBB6_117
.LBB6_120:                              # %for.end437
                                        #   in Loop: Header=BB6_115 Depth=2
	jmp	.LBB6_121
.LBB6_121:                              # %for.inc438
                                        #   in Loop: Header=BB6_115 Depth=2
	movl	-8(%rbp), %eax
	addl	$1, %eax
	movl	%eax, -8(%rbp)
	jmp	.LBB6_115
.LBB6_122:                              # %for.end440
                                        #   in Loop: Header=BB6_22 Depth=1
	movl	-24(%rbp), %edi
	addl	$8, %edi
	movl	-20(%rbp), %esi
	movl	$1, %edx
	callq	RDCost_for_4x4Blocks_Chroma
	addl	-84(%rbp), %eax
	movl	%eax, -84(%rbp)
	movq	cs_cm, %rdi
	callq	reset_coding_state
	movl	$0, -8(%rbp)
.LBB6_123:                              # %for.cond444
                                        #   Parent Loop BB6_22 Depth=1
                                        # =>  This Loop Header: Depth=2
                                        #       Child Loop BB6_125 Depth 3
	cmpl	$4, -8(%rbp)
	jge	.LBB6_130
# %bb.124:                              # %for.body447
                                        #   in Loop: Header=BB6_123 Depth=2
	movl	$0, -4(%rbp)
.LBB6_125:                              # %for.cond448
                                        #   Parent Loop BB6_22 Depth=1
                                        #     Parent Loop BB6_123 Depth=2
                                        # =>    This Inner Loop Header: Depth=3
	cmpl	$4, -4(%rbp)
	jge	.LBB6_128
# %bb.126:                              # %for.body451
                                        #   in Loop: Header=BB6_125 Depth=3
	movq	img, %rax
	addq	$13112, %rax            # imm = 0x3338
	movslq	-4(%rbp), %rcx
	shlq	$6, %rcx
	addq	%rcx, %rax
	movslq	-8(%rbp), %rcx
	movl	(%rax,%rcx,4), %eax
	movslq	-4(%rbp), %rcx
	shlq	$6, %rcx
	movabsq	$rec_resB, %rdx
	addq	%rcx, %rdx
	movslq	-8(%rbp), %rcx
	movl	%eax, (%rdx,%rcx,4)
# %bb.127:                              # %for.inc461
                                        #   in Loop: Header=BB6_125 Depth=3
	movl	-4(%rbp), %eax
	addl	$1, %eax
	movl	%eax, -4(%rbp)
	jmp	.LBB6_125
.LBB6_128:                              # %for.end463
                                        #   in Loop: Header=BB6_123 Depth=2
	jmp	.LBB6_129
.LBB6_129:                              # %for.inc464
                                        #   in Loop: Header=BB6_123 Depth=2
	movl	-8(%rbp), %eax
	addl	$1, %eax
	movl	%eax, -8(%rbp)
	jmp	.LBB6_123
.LBB6_130:                              # %for.end466
                                        #   in Loop: Header=BB6_22 Depth=1
	movl	$0, -8(%rbp)
.LBB6_131:                              # %for.cond467
                                        #   Parent Loop BB6_22 Depth=1
                                        # =>  This Loop Header: Depth=2
                                        #       Child Loop BB6_133 Depth 3
	cmpl	$4, -8(%rbp)
	jge	.LBB6_165
# %bb.132:                              # %for.body470
                                        #   in Loop: Header=BB6_131 Depth=2
	movl	$0, -4(%rbp)
.LBB6_133:                              # %for.cond471
                                        #   Parent Loop BB6_22 Depth=1
                                        #     Parent Loop BB6_131 Depth=2
                                        # =>    This Inner Loop Header: Depth=3
	cmpl	$4, -4(%rbp)
	jge	.LBB6_163
# %bb.134:                              # %for.body474
                                        #   in Loop: Header=BB6_133 Depth=3
	xorl	%eax, %eax
	movslq	-4(%rbp), %rcx
	shlq	$6, %rcx
	movabsq	$rec_resG, %rdx
	addq	%rcx, %rdx
	movslq	-8(%rbp), %rcx
	movl	(%rdx,%rcx,4), %ecx
	movslq	-4(%rbp), %rdx
	shlq	$6, %rdx
	movabsq	$rec_resB, %rsi
	movq	%rsi, %rdi
	addq	%rdx, %rdi
	movslq	-8(%rbp), %rdx
	movl	(%rdi,%rdx,4), %edx
	sarl	$1, %edx
	subl	%edx, %ecx
	movl	%ecx, -68(%rbp)
	movslq	-4(%rbp), %rcx
	shlq	$6, %rcx
	addq	%rcx, %rsi
	movslq	-8(%rbp), %rcx
	movl	(%rsi,%rcx,4), %ecx
	addl	-68(%rbp), %ecx
	movl	%ecx, -60(%rbp)
	movl	-68(%rbp), %ecx
	movslq	-4(%rbp), %rdx
	shlq	$6, %rdx
	movabsq	$rec_resR, %rsi
	movq	%rsi, %rdi
	addq	%rdx, %rdi
	movslq	-8(%rbp), %rdx
	movl	(%rdi,%rdx,4), %edx
	sarl	$1, %edx
	subl	%edx, %ecx
	movl	%ecx, -48(%rbp)
	movl	-48(%rbp), %ecx
	movslq	-4(%rbp), %rdx
	shlq	$6, %rdx
	addq	%rdx, %rsi
	movslq	-8(%rbp), %rdx
	addl	(%rsi,%rdx,4), %ecx
	movl	%ecx, -64(%rbp)
	movq	img, %rcx
	movl	72688(%rcx), %ecx
	movl	-48(%rbp), %edx
	movq	img, %rsi
	addq	$8504, %rsi             # imm = 0x2138
	movslq	-44(%rbp), %rdi
	shlq	$9, %rdi
	addq	%rdi, %rsi
	movl	-32(%rbp), %edi
	addl	-4(%rbp), %edi
	movslq	%edi, %rdi
	shlq	$5, %rdi
	addq	%rdi, %rsi
	movl	-28(%rbp), %edi
	addl	-8(%rbp), %edi
	movslq	%edi, %rdi
	movzwl	(%rsi,%rdi,2), %esi
	addl	%esi, %edx
	cmpl	%edx, %eax
	jle	.LBB6_136
# %bb.135:                              # %cond.true515
                                        #   in Loop: Header=BB6_133 Depth=3
	xorl	%eax, %eax
	jmp	.LBB6_137
.LBB6_136:                              # %cond.false516
                                        #   in Loop: Header=BB6_133 Depth=3
	movl	-48(%rbp), %eax
	movq	img, %rdx
	addq	$8504, %rdx             # imm = 0x2138
	movslq	-44(%rbp), %rsi
	shlq	$9, %rsi
	addq	%rsi, %rdx
	movl	-32(%rbp), %esi
	addl	-4(%rbp), %esi
	movslq	%esi, %rsi
	shlq	$5, %rsi
	addq	%rsi, %rdx
	movl	-28(%rbp), %esi
	addl	-8(%rbp), %esi
	movslq	%esi, %rsi
	movzwl	(%rdx,%rsi,2), %edx
	addl	%edx, %eax
.LBB6_137:                              # %cond.end529
                                        #   in Loop: Header=BB6_133 Depth=3
	cmpl	%eax, %ecx
	jge	.LBB6_139
# %bb.138:                              # %cond.true533
                                        #   in Loop: Header=BB6_133 Depth=3
	movq	img, %rax
	movl	72688(%rax), %eax
	jmp	.LBB6_143
.LBB6_139:                              # %cond.false535
                                        #   in Loop: Header=BB6_133 Depth=3
	xorl	%eax, %eax
	movl	-48(%rbp), %ecx
	movq	img, %rdx
	addq	$8504, %rdx             # imm = 0x2138
	movslq	-44(%rbp), %rsi
	shlq	$9, %rsi
	addq	%rsi, %rdx
	movl	-32(%rbp), %esi
	addl	-4(%rbp), %esi
	movslq	%esi, %rsi
	shlq	$5, %rsi
	addq	%rsi, %rdx
	movl	-28(%rbp), %esi
	addl	-8(%rbp), %esi
	movslq	%esi, %rsi
	movzwl	(%rdx,%rsi,2), %edx
	addl	%edx, %ecx
	cmpl	%ecx, %eax
	jle	.LBB6_141
# %bb.140:                              # %cond.true550
                                        #   in Loop: Header=BB6_133 Depth=3
	xorl	%eax, %eax
	jmp	.LBB6_142
.LBB6_141:                              # %cond.false551
                                        #   in Loop: Header=BB6_133 Depth=3
	movl	-48(%rbp), %eax
	movq	img, %rcx
	addq	$8504, %rcx             # imm = 0x2138
	movslq	-44(%rbp), %rdx
	shlq	$9, %rdx
	addq	%rdx, %rcx
	movl	-32(%rbp), %edx
	addl	-4(%rbp), %edx
	movslq	%edx, %rdx
	shlq	$5, %rdx
	addq	%rdx, %rcx
	movl	-28(%rbp), %edx
	addl	-8(%rbp), %edx
	movslq	%edx, %rdx
	movzwl	(%rcx,%rdx,2), %ecx
	addl	%ecx, %eax
.LBB6_142:                              # %cond.end564
                                        #   in Loop: Header=BB6_133 Depth=3
.LBB6_143:                              # %cond.end566
                                        #   in Loop: Header=BB6_133 Depth=3
	xorl	%ecx, %ecx
	movq	enc_picture, %rdx
	movq	6464(%rdx), %rdx
	movq	(%rdx), %rdx
	movl	-40(%rbp), %esi
	addl	-8(%rbp), %esi
	movslq	%esi, %rsi
	movq	(%rdx,%rsi,8), %rdx
	movl	-56(%rbp), %esi
	addl	-4(%rbp), %esi
	movslq	%esi, %rsi
	movw	%ax, (%rdx,%rsi,2)
	movq	img, %rax
	movl	72684(%rax), %eax
	movl	-60(%rbp), %edx
	movq	img, %rsi
	addq	$184, %rsi
	movslq	-36(%rbp), %rdi
	shlq	$9, %rdi
	addq	%rdi, %rsi
	movslq	-8(%rbp), %rdi
	shlq	$5, %rdi
	addq	%rdi, %rsi
	movslq	-4(%rbp), %rdi
	movzwl	(%rsi,%rdi,2), %esi
	addl	%esi, %edx
	cmpl	%edx, %ecx
	jle	.LBB6_145
# %bb.144:                              # %cond.true587
                                        #   in Loop: Header=BB6_133 Depth=3
	xorl	%ecx, %ecx
	jmp	.LBB6_146
.LBB6_145:                              # %cond.false588
                                        #   in Loop: Header=BB6_133 Depth=3
	movl	-60(%rbp), %ecx
	movq	img, %rdx
	addq	$184, %rdx
	movslq	-36(%rbp), %rsi
	shlq	$9, %rsi
	addq	%rsi, %rdx
	movslq	-8(%rbp), %rsi
	shlq	$5, %rsi
	addq	%rsi, %rdx
	movslq	-4(%rbp), %rsi
	movzwl	(%rdx,%rsi,2), %edx
	addl	%edx, %ecx
.LBB6_146:                              # %cond.end598
                                        #   in Loop: Header=BB6_133 Depth=3
	cmpl	%ecx, %eax
	jge	.LBB6_148
# %bb.147:                              # %cond.true602
                                        #   in Loop: Header=BB6_133 Depth=3
	movq	img, %rax
	movl	72684(%rax), %eax
	jmp	.LBB6_152
.LBB6_148:                              # %cond.false604
                                        #   in Loop: Header=BB6_133 Depth=3
	xorl	%eax, %eax
	movl	-60(%rbp), %ecx
	movq	img, %rdx
	addq	$184, %rdx
	movslq	-36(%rbp), %rsi
	shlq	$9, %rsi
	addq	%rsi, %rdx
	movslq	-8(%rbp), %rsi
	shlq	$5, %rsi
	addq	%rsi, %rdx
	movslq	-4(%rbp), %rsi
	movzwl	(%rdx,%rsi,2), %edx
	addl	%edx, %ecx
	cmpl	%ecx, %eax
	jle	.LBB6_150
# %bb.149:                              # %cond.true616
                                        #   in Loop: Header=BB6_133 Depth=3
	xorl	%eax, %eax
	jmp	.LBB6_151
.LBB6_150:                              # %cond.false617
                                        #   in Loop: Header=BB6_133 Depth=3
	movl	-60(%rbp), %eax
	movq	img, %rcx
	addq	$184, %rcx
	movslq	-36(%rbp), %rdx
	shlq	$9, %rdx
	addq	%rdx, %rcx
	movslq	-8(%rbp), %rdx
	shlq	$5, %rdx
	addq	%rdx, %rcx
	movslq	-4(%rbp), %rdx
	movzwl	(%rcx,%rdx,2), %ecx
	addl	%ecx, %eax
.LBB6_151:                              # %cond.end627
                                        #   in Loop: Header=BB6_133 Depth=3
.LBB6_152:                              # %cond.end629
                                        #   in Loop: Header=BB6_133 Depth=3
	xorl	%ecx, %ecx
	movq	enc_picture, %rdx
	movq	6424(%rdx), %rdx
	movl	-40(%rbp), %esi
	addl	-8(%rbp), %esi
	movslq	%esi, %rsi
	movq	(%rdx,%rsi,8), %rdx
	movl	-56(%rbp), %esi
	addl	-4(%rbp), %esi
	movslq	%esi, %rsi
	movw	%ax, (%rdx,%rsi,2)
	movq	img, %rax
	movl	72688(%rax), %eax
	movl	-64(%rbp), %edx
	movq	img, %rsi
	addq	$8504, %rsi             # imm = 0x2138
	addq	$2048, %rsi             # imm = 0x800
	movslq	-44(%rbp), %rdi
	shlq	$9, %rdi
	addq	%rdi, %rsi
	movl	-32(%rbp), %edi
	addl	-4(%rbp), %edi
	movslq	%edi, %rdi
	shlq	$5, %rdi
	addq	%rdi, %rsi
	movl	-28(%rbp), %edi
	addl	-8(%rbp), %edi
	movslq	%edi, %rdi
	movzwl	(%rsi,%rdi,2), %esi
	addl	%esi, %edx
	cmpl	%edx, %ecx
	jle	.LBB6_154
# %bb.153:                              # %cond.true654
                                        #   in Loop: Header=BB6_133 Depth=3
	xorl	%ecx, %ecx
	jmp	.LBB6_155
.LBB6_154:                              # %cond.false655
                                        #   in Loop: Header=BB6_133 Depth=3
	movl	-64(%rbp), %ecx
	movq	img, %rdx
	addq	$8504, %rdx             # imm = 0x2138
	addq	$2048, %rdx             # imm = 0x800
	movslq	-44(%rbp), %rsi
	shlq	$9, %rsi
	addq	%rsi, %rdx
	movl	-32(%rbp), %esi
	addl	-4(%rbp), %esi
	movslq	%esi, %rsi
	shlq	$5, %rsi
	addq	%rsi, %rdx
	movl	-28(%rbp), %esi
	addl	-8(%rbp), %esi
	movslq	%esi, %rsi
	movzwl	(%rdx,%rsi,2), %edx
	addl	%edx, %ecx
.LBB6_155:                              # %cond.end668
                                        #   in Loop: Header=BB6_133 Depth=3
	cmpl	%ecx, %eax
	jge	.LBB6_157
# %bb.156:                              # %cond.true672
                                        #   in Loop: Header=BB6_133 Depth=3
	movq	img, %rax
	movl	72688(%rax), %eax
	jmp	.LBB6_161
.LBB6_157:                              # %cond.false674
                                        #   in Loop: Header=BB6_133 Depth=3
	xorl	%eax, %eax
	movl	-64(%rbp), %ecx
	movq	img, %rdx
	addq	$8504, %rdx             # imm = 0x2138
	addq	$2048, %rdx             # imm = 0x800
	movslq	-44(%rbp), %rsi
	shlq	$9, %rsi
	addq	%rsi, %rdx
	movl	-32(%rbp), %esi
	addl	-4(%rbp), %esi
	movslq	%esi, %rsi
	shlq	$5, %rsi
	addq	%rsi, %rdx
	movl	-28(%rbp), %esi
	addl	-8(%rbp), %esi
	movslq	%esi, %rsi
	movzwl	(%rdx,%rsi,2), %edx
	addl	%edx, %ecx
	cmpl	%ecx, %eax
	jle	.LBB6_159
# %bb.158:                              # %cond.true689
                                        #   in Loop: Header=BB6_133 Depth=3
	xorl	%eax, %eax
	jmp	.LBB6_160
.LBB6_159:                              # %cond.false690
                                        #   in Loop: Header=BB6_133 Depth=3
	movl	-64(%rbp), %eax
	movq	img, %rcx
	addq	$8504, %rcx             # imm = 0x2138
	addq	$2048, %rcx             # imm = 0x800
	movslq	-44(%rbp), %rdx
	shlq	$9, %rdx
	addq	%rdx, %rcx
	movl	-32(%rbp), %edx
	addl	-4(%rbp), %edx
	movslq	%edx, %rdx
	shlq	$5, %rdx
	addq	%rdx, %rcx
	movl	-28(%rbp), %edx
	addl	-8(%rbp), %edx
	movslq	%edx, %rdx
	movzwl	(%rcx,%rdx,2), %ecx
	addl	%ecx, %eax
.LBB6_160:                              # %cond.end703
                                        #   in Loop: Header=BB6_133 Depth=3
.LBB6_161:                              # %cond.end705
                                        #   in Loop: Header=BB6_133 Depth=3
	movq	enc_picture, %rcx
	movq	6464(%rcx), %rcx
	movq	8(%rcx), %rcx
	movl	-40(%rbp), %edx
	addl	-8(%rbp), %edx
	movslq	%edx, %rdx
	movq	(%rcx,%rdx,8), %rcx
	movl	-56(%rbp), %edx
	addl	-4(%rbp), %edx
	movslq	%edx, %rdx
	movw	%ax, (%rcx,%rdx,2)
# %bb.162:                              # %for.inc716
                                        #   in Loop: Header=BB6_133 Depth=3
	movl	-4(%rbp), %eax
	addl	$1, %eax
	movl	%eax, -4(%rbp)
	jmp	.LBB6_133
.LBB6_163:                              # %for.end718
                                        #   in Loop: Header=BB6_131 Depth=2
	jmp	.LBB6_164
.LBB6_164:                              # %for.inc719
                                        #   in Loop: Header=BB6_131 Depth=2
	movl	-8(%rbp), %eax
	addl	$1, %eax
	movl	%eax, -8(%rbp)
	jmp	.LBB6_131
.LBB6_165:                              # %for.end721
                                        #   in Loop: Header=BB6_22 Depth=1
	movl	$0, -80(%rbp)
	movl	$0, -12(%rbp)
.LBB6_166:                              # %for.cond722
                                        #   Parent Loop BB6_22 Depth=1
                                        # =>  This Loop Header: Depth=2
                                        #       Child Loop BB6_168 Depth 3
	cmpl	$4, -12(%rbp)
	jge	.LBB6_173
# %bb.167:                              # %for.body725
                                        #   in Loop: Header=BB6_166 Depth=2
	movl	-56(%rbp), %eax
	movl	%eax, -16(%rbp)
.LBB6_168:                              # %for.cond726
                                        #   Parent Loop BB6_22 Depth=1
                                        #     Parent Loop BB6_166 Depth=2
                                        # =>    This Inner Loop Header: Depth=3
	movl	-16(%rbp), %eax
	movl	-56(%rbp), %ecx
	addl	$4, %ecx
	cmpl	%ecx, %eax
	jge	.LBB6_171
# %bb.169:                              # %for.body730
                                        #   in Loop: Header=BB6_168 Depth=3
	movq	imgY_org, %rax
	movl	-40(%rbp), %ecx
	addl	-12(%rbp), %ecx
	movslq	%ecx, %rcx
	movq	(%rax,%rcx,8), %rax
	movslq	-16(%rbp), %rcx
	movzwl	(%rax,%rcx,2), %eax
	movq	enc_picture, %rcx
	movq	6424(%rcx), %rcx
	movl	-40(%rbp), %edx
	addl	-12(%rbp), %edx
	movslq	%edx, %rdx
	movq	(%rcx,%rdx,8), %rcx
	movslq	-16(%rbp), %rdx
	movzwl	(%rcx,%rdx,2), %ecx
	subl	%ecx, %eax
	movq	imgY_org, %rcx
	movl	-40(%rbp), %edx
	addl	-12(%rbp), %edx
	movslq	%edx, %rdx
	movq	(%rcx,%rdx,8), %rcx
	movslq	-16(%rbp), %rdx
	movzwl	(%rcx,%rdx,2), %ecx
	movq	enc_picture, %rdx
	movq	6424(%rdx), %rdx
	movl	-40(%rbp), %esi
	addl	-12(%rbp), %esi
	movslq	%esi, %rsi
	movq	(%rdx,%rsi,8), %rdx
	movslq	-16(%rbp), %rsi
	movzwl	(%rdx,%rsi,2), %edx
	subl	%edx, %ecx
	imull	%ecx, %eax
	addl	-80(%rbp), %eax
	movl	%eax, -80(%rbp)
	movq	imgUV_org, %rax
	movq	(%rax), %rax
	movl	-40(%rbp), %ecx
	addl	-12(%rbp), %ecx
	movslq	%ecx, %rcx
	movq	(%rax,%rcx,8), %rax
	movslq	-16(%rbp), %rcx
	movzwl	(%rax,%rcx,2), %eax
	movq	enc_picture, %rcx
	movq	6464(%rcx), %rcx
	movq	(%rcx), %rcx
	movl	-40(%rbp), %edx
	addl	-12(%rbp), %edx
	movslq	%edx, %rdx
	movq	(%rcx,%rdx,8), %rcx
	movslq	-16(%rbp), %rdx
	movzwl	(%rcx,%rdx,2), %ecx
	subl	%ecx, %eax
	movq	imgUV_org, %rcx
	movq	(%rcx), %rcx
	movl	-40(%rbp), %edx
	addl	-12(%rbp), %edx
	movslq	%edx, %rdx
	movq	(%rcx,%rdx,8), %rcx
	movslq	-16(%rbp), %rdx
	movzwl	(%rcx,%rdx,2), %ecx
	movq	enc_picture, %rdx
	movq	6464(%rdx), %rdx
	movq	(%rdx), %rdx
	movl	-40(%rbp), %esi
	addl	-12(%rbp), %esi
	movslq	%esi, %rsi
	movq	(%rdx,%rsi,8), %rdx
	movslq	-16(%rbp), %rsi
	movzwl	(%rdx,%rsi,2), %edx
	subl	%edx, %ecx
	imull	%ecx, %eax
	addl	-80(%rbp), %eax
	movl	%eax, -80(%rbp)
	movq	imgUV_org, %rax
	movq	8(%rax), %rax
	movl	-40(%rbp), %ecx
	addl	-12(%rbp), %ecx
	movslq	%ecx, %rcx
	movq	(%rax,%rcx,8), %rax
	movslq	-16(%rbp), %rcx
	movzwl	(%rax,%rcx,2), %eax
	movq	enc_picture, %rcx
	movq	6464(%rcx), %rcx
	movq	8(%rcx), %rcx
	movl	-40(%rbp), %edx
	addl	-12(%rbp), %edx
	movslq	%edx, %rdx
	movq	(%rcx,%rdx,8), %rcx
	movslq	-16(%rbp), %rdx
	movzwl	(%rcx,%rdx,2), %ecx
	subl	%ecx, %eax
	movq	imgUV_org, %rcx
	movq	8(%rcx), %rcx
	movl	-40(%rbp), %edx
	addl	-12(%rbp), %edx
	movslq	%edx, %rdx
	movq	(%rcx,%rdx,8), %rcx
	movslq	-16(%rbp), %rdx
	movzwl	(%rcx,%rdx,2), %ecx
	movq	enc_picture, %rdx
	movq	6464(%rdx), %rdx
	movq	8(%rdx), %rdx
	movl	-40(%rbp), %esi
	addl	-12(%rbp), %esi
	movslq	%esi, %rsi
	movq	(%rdx,%rsi,8), %rdx
	movslq	-16(%rbp), %rsi
	movzwl	(%rdx,%rsi,2), %edx
	subl	%edx, %ecx
	imull	%ecx, %eax
	addl	-80(%rbp), %eax
	movl	%eax, -80(%rbp)
# %bb.170:                              # %for.inc829
                                        #   in Loop: Header=BB6_168 Depth=3
	movl	-16(%rbp), %eax
	addl	$1, %eax
	movl	%eax, -16(%rbp)
	jmp	.LBB6_168
.LBB6_171:                              # %for.end831
                                        #   in Loop: Header=BB6_166 Depth=2
	jmp	.LBB6_172
.LBB6_172:                              # %for.inc832
                                        #   in Loop: Header=BB6_166 Depth=2
	movl	-12(%rbp), %eax
	addl	$1, %eax
	movl	%eax, -12(%rbp)
	jmp	.LBB6_166
.LBB6_173:                              # %for.end834
                                        #   in Loop: Header=BB6_22 Depth=1
	vcvtsi2sdl	-80(%rbp), %xmm0, %xmm0
	vmovsd	-136(%rbp), %xmm1       # xmm1 = mem[0],zero
	vcvtsi2sdl	-84(%rbp), %xmm0, %xmm2
	vmulsd	%xmm2, %xmm1, %xmm1
	vaddsd	%xmm1, %xmm0, %xmm0
	vmovsd	%xmm0, -128(%rbp)
	vmovsd	-128(%rbp), %xmm0       # xmm0 = mem[0],zero
	vmovsd	-120(%rbp), %xmm1       # xmm1 = mem[0],zero
	vucomisd	%xmm0, %xmm1
	jbe	.LBB6_219
# %bb.174:                              # %if.then841
                                        #   in Loop: Header=BB6_22 Depth=1
	movl	$0, -8(%rbp)
.LBB6_175:                              # %for.cond842
                                        #   Parent Loop BB6_22 Depth=1
                                        # =>  This Loop Header: Depth=2
                                        #       Child Loop BB6_177 Depth 3
	cmpl	$2, -8(%rbp)
	jge	.LBB6_182
# %bb.176:                              # %for.body845
                                        #   in Loop: Header=BB6_175 Depth=2
	movl	$0, -4(%rbp)
.LBB6_177:                              # %for.cond846
                                        #   Parent Loop BB6_22 Depth=1
                                        #     Parent Loop BB6_175 Depth=2
                                        # =>    This Inner Loop Header: Depth=3
	cmpl	$18, -4(%rbp)
	jge	.LBB6_180
# %bb.178:                              # %for.body849
                                        #   in Loop: Header=BB6_177 Depth=3
	movq	img, %rax
	movq	14136(%rax), %rax
	movslq	-24(%rbp), %rcx
	movq	(%rax,%rcx,8), %rax
	movslq	-20(%rbp), %rcx
	movq	(%rax,%rcx,8), %rax
	movslq	-8(%rbp), %rcx
	movq	(%rax,%rcx,8), %rax
	movslq	-4(%rbp), %rcx
	movl	(%rax,%rcx,4), %eax
	movq	cofAC4x4, %rcx
	movslq	-8(%rbp), %rdx
	movq	(%rcx,%rdx,8), %rcx
	movslq	-4(%rbp), %rdx
	movl	%eax, (%rcx,%rdx,4)
# %bb.179:                              # %for.inc863
                                        #   in Loop: Header=BB6_177 Depth=3
	movl	-4(%rbp), %eax
	addl	$1, %eax
	movl	%eax, -4(%rbp)
	jmp	.LBB6_177
.LBB6_180:                              # %for.end865
                                        #   in Loop: Header=BB6_175 Depth=2
	jmp	.LBB6_181
.LBB6_181:                              # %for.inc866
                                        #   in Loop: Header=BB6_175 Depth=2
	movl	-8(%rbp), %eax
	addl	$1, %eax
	movl	%eax, -8(%rbp)
	jmp	.LBB6_175
.LBB6_182:                              # %for.end868
                                        #   in Loop: Header=BB6_22 Depth=1
	movl	$0, -8(%rbp)
.LBB6_183:                              # %for.cond869
                                        #   Parent Loop BB6_22 Depth=1
                                        # =>  This Loop Header: Depth=2
                                        #       Child Loop BB6_185 Depth 3
	cmpl	$2, -8(%rbp)
	jge	.LBB6_190
# %bb.184:                              # %for.body872
                                        #   in Loop: Header=BB6_183 Depth=2
	movl	$0, -4(%rbp)
.LBB6_185:                              # %for.cond873
                                        #   Parent Loop BB6_22 Depth=1
                                        #     Parent Loop BB6_183 Depth=2
                                        # =>    This Inner Loop Header: Depth=3
	cmpl	$18, -4(%rbp)
	jge	.LBB6_188
# %bb.186:                              # %for.body876
                                        #   in Loop: Header=BB6_185 Depth=3
	movq	img, %rax
	movq	14136(%rax), %rax
	movl	-24(%rbp), %ecx
	addl	$4, %ecx
	movslq	%ecx, %rcx
	movq	(%rax,%rcx,8), %rax
	movslq	-20(%rbp), %rcx
	movq	(%rax,%rcx,8), %rax
	movslq	-8(%rbp), %rcx
	movq	(%rax,%rcx,8), %rax
	movslq	-4(%rbp), %rcx
	movl	(%rax,%rcx,4), %eax
	movslq	-8(%rbp), %rcx
	imulq	$72, %rcx, %rcx
	movabsq	$cofAC4x4_chroma, %rdx
	addq	%rcx, %rdx
	movslq	-4(%rbp), %rcx
	movl	%eax, (%rdx,%rcx,4)
# %bb.187:                              # %for.inc891
                                        #   in Loop: Header=BB6_185 Depth=3
	movl	-4(%rbp), %eax
	addl	$1, %eax
	movl	%eax, -4(%rbp)
	jmp	.LBB6_185
.LBB6_188:                              # %for.end893
                                        #   in Loop: Header=BB6_183 Depth=2
	jmp	.LBB6_189
.LBB6_189:                              # %for.inc894
                                        #   in Loop: Header=BB6_183 Depth=2
	movl	-8(%rbp), %eax
	addl	$1, %eax
	movl	%eax, -8(%rbp)
	jmp	.LBB6_183
.LBB6_190:                              # %for.end896
                                        #   in Loop: Header=BB6_22 Depth=1
	movl	$0, -8(%rbp)
.LBB6_191:                              # %for.cond897
                                        #   Parent Loop BB6_22 Depth=1
                                        # =>  This Loop Header: Depth=2
                                        #       Child Loop BB6_193 Depth 3
	cmpl	$2, -8(%rbp)
	jge	.LBB6_198
# %bb.192:                              # %for.body900
                                        #   in Loop: Header=BB6_191 Depth=2
	movl	$0, -4(%rbp)
.LBB6_193:                              # %for.cond901
                                        #   Parent Loop BB6_22 Depth=1
                                        #     Parent Loop BB6_191 Depth=2
                                        # =>    This Inner Loop Header: Depth=3
	cmpl	$18, -4(%rbp)
	jge	.LBB6_196
# %bb.194:                              # %for.body904
                                        #   in Loop: Header=BB6_193 Depth=3
	movabsq	$cofAC4x4_chroma, %rax
	addq	$144, %rax
	movq	img, %rcx
	movq	14136(%rcx), %rcx
	movl	-24(%rbp), %edx
	addl	$8, %edx
	movslq	%edx, %rdx
	movq	(%rcx,%rdx,8), %rcx
	movslq	-20(%rbp), %rdx
	movq	(%rcx,%rdx,8), %rcx
	movslq	-8(%rbp), %rdx
	movq	(%rcx,%rdx,8), %rcx
	movslq	-4(%rbp), %rdx
	movl	(%rcx,%rdx,4), %ecx
	movslq	-8(%rbp), %rdx
	imulq	$72, %rdx, %rdx
	addq	%rdx, %rax
	movslq	-4(%rbp), %rdx
	movl	%ecx, (%rax,%rdx,4)
# %bb.195:                              # %for.inc919
                                        #   in Loop: Header=BB6_193 Depth=3
	movl	-4(%rbp), %eax
	addl	$1, %eax
	movl	%eax, -4(%rbp)
	jmp	.LBB6_193
.LBB6_196:                              # %for.end921
                                        #   in Loop: Header=BB6_191 Depth=2
	jmp	.LBB6_197
.LBB6_197:                              # %for.inc922
                                        #   in Loop: Header=BB6_191 Depth=2
	movl	-8(%rbp), %eax
	addl	$1, %eax
	movl	%eax, -8(%rbp)
	jmp	.LBB6_191
.LBB6_198:                              # %for.end924
                                        #   in Loop: Header=BB6_22 Depth=1
	movl	$0, -4(%rbp)
.LBB6_199:                              # %for.cond925
                                        #   Parent Loop BB6_22 Depth=1
                                        # =>  This Loop Header: Depth=2
                                        #       Child Loop BB6_201 Depth 3
                                        #         Child Loop BB6_203 Depth 4
	cmpl	$2, -4(%rbp)
	jge	.LBB6_210
# %bb.200:                              # %for.body928
                                        #   in Loop: Header=BB6_199 Depth=2
	movslq	-4(%rbp), %rax
	shlq	$6, %rax
	movabsq	$dc_level_temp, %rdi
	addq	%rax, %rdi
	movl	-24(%rbp), %eax
	cltd
	movl	$2, %esi
	idivl	%esi
	movl	%edx, %ecx
	shll	$1, %ecx
	movl	-20(%rbp), %eax
	cltd
	idivl	%esi
	addl	%edx, %ecx
	movslq	%ecx, %rax
	shlq	$4, %rax
	addq	%rax, %rdi
	movl	-24(%rbp), %eax
	cltd
	idivl	%esi
	movl	%eax, %ecx
	shll	$1, %ecx
	movl	-20(%rbp), %eax
	cltd
	idivl	%esi
	addl	%eax, %ecx
	movslq	%ecx, %rax
	movl	(%rdi,%rax,4), %r8d
	movslq	-4(%rbp), %rax
	shlq	$6, %rax
	movabsq	$dc_level, %rdi
	addq	%rax, %rdi
	movl	-24(%rbp), %eax
	cltd
	idivl	%esi
	movl	%edx, %ecx
	shll	$1, %ecx
	movl	-20(%rbp), %eax
	cltd
	idivl	%esi
	addl	%edx, %ecx
	movslq	%ecx, %rax
	shlq	$4, %rax
	addq	%rax, %rdi
	movl	-24(%rbp), %eax
	cltd
	idivl	%esi
	movl	%eax, %ecx
	shll	$1, %ecx
	movl	-20(%rbp), %eax
	cltd
	idivl	%esi
	addl	%eax, %ecx
	movslq	%ecx, %rax
	movl	%r8d, (%rdi,%rax,4)
	movslq	-4(%rbp), %rax
	shlq	$6, %rax
	movabsq	$cbp_chroma_block_temp, %rdi
	addq	%rax, %rdi
	movl	-24(%rbp), %eax
	cltd
	idivl	%esi
	movl	%edx, %ecx
	shll	$1, %ecx
	movl	-20(%rbp), %eax
	cltd
	idivl	%esi
	addl	%edx, %ecx
	movslq	%ecx, %rax
	shlq	$4, %rax
	addq	%rax, %rdi
	movl	-24(%rbp), %eax
	cltd
	idivl	%esi
	movl	%eax, %ecx
	shll	$1, %ecx
	movl	-20(%rbp), %eax
	cltd
	idivl	%esi
	addl	%eax, %ecx
	movslq	%ecx, %rax
	movl	(%rdi,%rax,4), %r8d
	movslq	-4(%rbp), %rax
	shlq	$6, %rax
	movabsq	$cbp_chroma_block, %rdi
	addq	%rax, %rdi
	movl	-24(%rbp), %eax
	cltd
	idivl	%esi
	movl	%edx, %ecx
	shll	$1, %ecx
	movl	-20(%rbp), %eax
	cltd
	idivl	%esi
	addl	%edx, %ecx
	movslq	%ecx, %rax
	shlq	$4, %rax
	addq	%rax, %rdi
	movl	-24(%rbp), %eax
	cltd
	idivl	%esi
	movl	%eax, %ecx
	shll	$1, %ecx
	movl	-20(%rbp), %eax
	cltd
	idivl	%esi
	addl	%eax, %ecx
	movslq	%ecx, %rax
	movl	%r8d, (%rdi,%rax,4)
	movl	$0, -12(%rbp)
.LBB6_201:                              # %for.cond985
                                        #   Parent Loop BB6_22 Depth=1
                                        #     Parent Loop BB6_199 Depth=2
                                        # =>    This Loop Header: Depth=3
                                        #         Child Loop BB6_203 Depth 4
	cmpl	$4, -12(%rbp)
	jge	.LBB6_208
# %bb.202:                              # %for.body988
                                        #   in Loop: Header=BB6_201 Depth=3
	movl	$0, -16(%rbp)
.LBB6_203:                              # %for.cond989
                                        #   Parent Loop BB6_22 Depth=1
                                        #     Parent Loop BB6_199 Depth=2
                                        #       Parent Loop BB6_201 Depth=3
                                        # =>      This Inner Loop Header: Depth=4
	cmpl	$4, -16(%rbp)
	jge	.LBB6_206
# %bb.204:                              # %for.body992
                                        #   in Loop: Header=BB6_203 Depth=4
	movq	enc_picture, %rax
	movq	6464(%rax), %rax
	movslq	-4(%rbp), %rcx
	movq	(%rax,%rcx,8), %rax
	movl	-40(%rbp), %ecx
	addl	-12(%rbp), %ecx
	movslq	%ecx, %rcx
	movq	(%rax,%rcx,8), %rax
	movl	-56(%rbp), %ecx
	addl	-16(%rbp), %ecx
	movslq	%ecx, %rcx
	movzwl	(%rax,%rcx,2), %eax
	movslq	-4(%rbp), %rcx
	shlq	$6, %rcx
	leaq	-480(%rbp), %rdx
	addq	%rcx, %rdx
	movslq	-12(%rbp), %rcx
	shlq	$4, %rcx
	addq	%rcx, %rdx
	movslq	-16(%rbp), %rcx
	movl	%eax, (%rdx,%rcx,4)
# %bb.205:                              # %for.inc1009
                                        #   in Loop: Header=BB6_203 Depth=4
	movl	-16(%rbp), %eax
	addl	$1, %eax
	movl	%eax, -16(%rbp)
	jmp	.LBB6_203
.LBB6_206:                              # %for.end1011
                                        #   in Loop: Header=BB6_201 Depth=3
	jmp	.LBB6_207
.LBB6_207:                              # %for.inc1012
                                        #   in Loop: Header=BB6_201 Depth=3
	movl	-12(%rbp), %eax
	addl	$1, %eax
	movl	%eax, -12(%rbp)
	jmp	.LBB6_201
.LBB6_208:                              # %for.end1014
                                        #   in Loop: Header=BB6_199 Depth=2
	jmp	.LBB6_209
.LBB6_209:                              # %for.inc1015
                                        #   in Loop: Header=BB6_199 Depth=2
	movl	-4(%rbp), %eax
	addl	$1, %eax
	movl	%eax, -4(%rbp)
	jmp	.LBB6_199
.LBB6_210:                              # %for.end1017
                                        #   in Loop: Header=BB6_22 Depth=1
	movl	$0, -12(%rbp)
.LBB6_211:                              # %for.cond1018
                                        #   Parent Loop BB6_22 Depth=1
                                        # =>  This Loop Header: Depth=2
                                        #       Child Loop BB6_213 Depth 3
	cmpl	$4, -12(%rbp)
	jge	.LBB6_218
# %bb.212:                              # %for.body1021
                                        #   in Loop: Header=BB6_211 Depth=2
	movl	$0, -16(%rbp)
.LBB6_213:                              # %for.cond1022
                                        #   Parent Loop BB6_22 Depth=1
                                        #     Parent Loop BB6_211 Depth=2
                                        # =>    This Inner Loop Header: Depth=3
	cmpl	$4, -16(%rbp)
	jge	.LBB6_216
# %bb.214:                              # %for.body1025
                                        #   in Loop: Header=BB6_213 Depth=3
	movq	enc_picture, %rax
	movq	6424(%rax), %rax
	movl	-40(%rbp), %ecx
	addl	-12(%rbp), %ecx
	movslq	%ecx, %rcx
	movq	(%rax,%rcx,8), %rax
	movl	-56(%rbp), %ecx
	addl	-16(%rbp), %ecx
	movslq	%ecx, %rcx
	movzwl	(%rax,%rcx,2), %eax
	movslq	-12(%rbp), %rcx
	shlq	$4, %rcx
	leaq	-288(%rbp), %rdx
	addq	%rcx, %rdx
	movslq	-16(%rbp), %rcx
	movl	%eax, (%rdx,%rcx,4)
# %bb.215:                              # %for.inc1038
                                        #   in Loop: Header=BB6_213 Depth=3
	movl	-16(%rbp), %eax
	addl	$1, %eax
	movl	%eax, -16(%rbp)
	jmp	.LBB6_213
.LBB6_216:                              # %for.end1040
                                        #   in Loop: Header=BB6_211 Depth=2
	jmp	.LBB6_217
.LBB6_217:                              # %for.inc1041
                                        #   in Loop: Header=BB6_211 Depth=2
	movl	-12(%rbp), %eax
	addl	$1, %eax
	movl	%eax, -12(%rbp)
	jmp	.LBB6_211
.LBB6_218:                              # %for.end1043
                                        #   in Loop: Header=BB6_22 Depth=1
	movl	-108(%rbp), %eax
	movl	%eax, -92(%rbp)
	vmovsd	-128(%rbp), %xmm0       # xmm0 = mem[0],zero
	vmovsd	%xmm0, -120(%rbp)
	movl	-36(%rbp), %eax
	movl	%eax, -52(%rbp)
.LBB6_219:                              # %if.end1044
                                        #   in Loop: Header=BB6_22 Depth=1
	jmp	.LBB6_220
.LBB6_220:                              # %if.end1045
                                        #   in Loop: Header=BB6_22 Depth=1
	jmp	.LBB6_221
.LBB6_221:                              # %if.end1046
                                        #   in Loop: Header=BB6_22 Depth=1
	jmp	.LBB6_222
.LBB6_222:                              # %if.end1047
                                        #   in Loop: Header=BB6_22 Depth=1
	jmp	.LBB6_223
.LBB6_223:                              # %for.inc1048
                                        #   in Loop: Header=BB6_22 Depth=1
	movl	-36(%rbp), %eax
	addl	$1, %eax
	movl	%eax, -36(%rbp)
	jmp	.LBB6_22
.LBB6_224:                              # %for.end1050
	movl	-52(%rbp), %eax
	movq	img, %rcx
	movq	104(%rcx), %rcx
	movslq	-168(%rbp), %rdx
	movq	(%rcx,%rdx,8), %rcx
	movslq	-164(%rbp), %rdx
	movl	%eax, (%rcx,%rdx,4)
	movl	-88(%rbp), %eax
	cmpl	-52(%rbp), %eax
	jne	.LBB6_226
# %bb.225:                              # %cond.true1058
	movl	$4294967295, %eax       # imm = 0xFFFFFFFF
	jmp	.LBB6_230
.LBB6_226:                              # %cond.false1059
	movl	-52(%rbp), %eax
	cmpl	-88(%rbp), %eax
	jge	.LBB6_228
# %bb.227:                              # %cond.true1062
	movl	-52(%rbp), %eax
	jmp	.LBB6_229
.LBB6_228:                              # %cond.false1063
	movl	-52(%rbp), %eax
	subl	$1, %eax
.LBB6_229:                              # %cond.end1065
.LBB6_230:                              # %cond.end1067
	movq	img, %rcx
	movq	14168(%rcx), %rcx
	movq	img, %rdx
	movslq	12(%rdx), %rdx
	imulq	$632, %rdx, %rdx        # imm = 0x278
	addq	%rdx, %rcx
	movl	-24(%rbp), %edx
	shll	$2, %edx
	addl	-20(%rbp), %edx
	movslq	%edx, %rdx
	movl	%eax, 332(%rcx,%rdx,4)
	movq	input, %rax
	cmpl	$0, 2464(%rax)
	jne	.LBB6_318
# %bb.231:                              # %if.then1079
	movq	img, %rax
	cmpl	$0, 72724(%rax)
	jne	.LBB6_241
# %bb.232:                              # %if.then1082
	movl	$0, -8(%rbp)
.LBB6_233:                              # %for.cond1083
                                        # =>This Loop Header: Depth=1
                                        #     Child Loop BB6_235 Depth 2
	cmpl	$4, -8(%rbp)
	jge	.LBB6_240
# %bb.234:                              # %for.body1086
                                        #   in Loop: Header=BB6_233 Depth=1
	movl	$0, -4(%rbp)
.LBB6_235:                              # %for.cond1087
                                        #   Parent Loop BB6_233 Depth=1
                                        # =>  This Inner Loop Header: Depth=2
	cmpl	$4, -4(%rbp)
	jge	.LBB6_238
# %bb.236:                              # %for.body1090
                                        #   in Loop: Header=BB6_235 Depth=2
	movq	img, %rax
	addq	$184, %rax
	movslq	-52(%rbp), %rcx
	shlq	$9, %rcx
	addq	%rcx, %rax
	movslq	-8(%rbp), %rcx
	shlq	$5, %rcx
	addq	%rcx, %rax
	movslq	-4(%rbp), %rcx
	movw	(%rax,%rcx,2), %ax
	movq	img, %rcx
	addq	$12600, %rcx            # imm = 0x3138
	movl	-32(%rbp), %edx
	addl	-4(%rbp), %edx
	movslq	%edx, %rdx
	shlq	$5, %rdx
	addq	%rdx, %rcx
	movl	-28(%rbp), %edx
	addl	-8(%rbp), %edx
	movslq	%edx, %rdx
	movw	%ax, (%rcx,%rdx,2)
	movq	imgY_org, %rax
	movl	-72(%rbp), %ecx
	addl	-8(%rbp), %ecx
	movslq	%ecx, %rcx
	movq	(%rax,%rcx,8), %rax
	movl	-76(%rbp), %ecx
	addl	-4(%rbp), %ecx
	movslq	%ecx, %rcx
	movzwl	(%rax,%rcx,2), %eax
	movq	img, %rcx
	addq	$184, %rcx
	movslq	-52(%rbp), %rdx
	shlq	$9, %rdx
	addq	%rdx, %rcx
	movslq	-8(%rbp), %rdx
	shlq	$5, %rdx
	addq	%rdx, %rcx
	movslq	-4(%rbp), %rdx
	movzwl	(%rcx,%rdx,2), %ecx
	subl	%ecx, %eax
	movq	img, %rcx
	addq	$13112, %rcx            # imm = 0x3338
	movslq	-4(%rbp), %rdx
	shlq	$6, %rdx
	addq	%rdx, %rcx
	movslq	-8(%rbp), %rdx
	movl	%eax, (%rcx,%rdx,4)
# %bb.237:                              # %for.inc1126
                                        #   in Loop: Header=BB6_235 Depth=2
	movl	-4(%rbp), %eax
	addl	$1, %eax
	movl	%eax, -4(%rbp)
	jmp	.LBB6_235
.LBB6_238:                              # %for.end1128
                                        #   in Loop: Header=BB6_233 Depth=1
	jmp	.LBB6_239
.LBB6_239:                              # %for.inc1129
                                        #   in Loop: Header=BB6_233 Depth=1
	movl	-8(%rbp), %eax
	addl	$1, %eax
	movl	%eax, -8(%rbp)
	jmp	.LBB6_233
.LBB6_240:                              # %for.end1131
	movl	-32(%rbp), %edi
	movl	-28(%rbp), %esi
	leaq	-172(%rbp), %rdx
	movl	$1, %ecx
	callq	dct_luma
	movl	%eax, -92(%rbp)
	jmp	.LBB6_317
.LBB6_241:                              # %if.else1133
	movl	$0, -8(%rbp)
.LBB6_242:                              # %for.cond1134
                                        # =>This Loop Header: Depth=1
                                        #     Child Loop BB6_244 Depth 2
	cmpl	$4, -8(%rbp)
	jge	.LBB6_249
# %bb.243:                              # %for.body1137
                                        #   in Loop: Header=BB6_242 Depth=1
	movl	$0, -4(%rbp)
.LBB6_244:                              # %for.cond1138
                                        #   Parent Loop BB6_242 Depth=1
                                        # =>  This Inner Loop Header: Depth=2
	cmpl	$4, -4(%rbp)
	jge	.LBB6_247
# %bb.245:                              # %for.body1141
                                        #   in Loop: Header=BB6_244 Depth=2
	movq	imgUV_org, %rax
	movq	(%rax), %rax
	movl	-72(%rbp), %ecx
	addl	-8(%rbp), %ecx
	movslq	%ecx, %rcx
	movq	(%rax,%rcx,8), %rax
	movl	-76(%rbp), %ecx
	addl	-4(%rbp), %ecx
	movslq	%ecx, %rcx
	movzwl	(%rax,%rcx,2), %eax
	movq	img, %rcx
	addq	$8504, %rcx             # imm = 0x2138
	movslq	-44(%rbp), %rdx
	shlq	$9, %rdx
	addq	%rdx, %rcx
	movl	-32(%rbp), %edx
	addl	-4(%rbp), %edx
	movslq	%edx, %rdx
	shlq	$5, %rdx
	addq	%rdx, %rcx
	movl	-28(%rbp), %edx
	addl	-8(%rbp), %edx
	movslq	%edx, %rdx
	movzwl	(%rcx,%rdx,2), %ecx
	subl	%ecx, %eax
	movl	%eax, -48(%rbp)
	movq	imgY_org, %rax
	movl	-72(%rbp), %ecx
	addl	-8(%rbp), %ecx
	movslq	%ecx, %rcx
	movq	(%rax,%rcx,8), %rax
	movl	-76(%rbp), %ecx
	addl	-4(%rbp), %ecx
	movslq	%ecx, %rcx
	movzwl	(%rax,%rcx,2), %eax
	movq	img, %rcx
	addq	$184, %rcx
	movslq	-52(%rbp), %rdx
	shlq	$9, %rdx
	addq	%rdx, %rcx
	movslq	-8(%rbp), %rdx
	shlq	$5, %rdx
	addq	%rdx, %rcx
	movslq	-4(%rbp), %rdx
	movzwl	(%rcx,%rdx,2), %ecx
	subl	%ecx, %eax
	movl	%eax, -60(%rbp)
	movq	imgUV_org, %rax
	movq	8(%rax), %rax
	movl	-72(%rbp), %ecx
	addl	-8(%rbp), %ecx
	movslq	%ecx, %rcx
	movq	(%rax,%rcx,8), %rax
	movl	-76(%rbp), %ecx
	addl	-4(%rbp), %ecx
	movslq	%ecx, %rcx
	movzwl	(%rax,%rcx,2), %eax
	movq	img, %rcx
	addq	$8504, %rcx             # imm = 0x2138
	addq	$2048, %rcx             # imm = 0x800
	movslq	-44(%rbp), %rdx
	shlq	$9, %rdx
	addq	%rdx, %rcx
	movl	-32(%rbp), %edx
	addl	-4(%rbp), %edx
	movslq	%edx, %rdx
	shlq	$5, %rdx
	addq	%rdx, %rcx
	movl	-28(%rbp), %edx
	addl	-8(%rbp), %edx
	movslq	%edx, %rdx
	movzwl	(%rcx,%rdx,2), %ecx
	subl	%ecx, %eax
	movl	%eax, -64(%rbp)
	movl	-64(%rbp), %eax
	subl	-48(%rbp), %eax
	movslq	-4(%rbp), %rcx
	shlq	$6, %rcx
	movabsq	$resTrans_R, %rdx
	movq	%rdx, %rsi
	addq	%rcx, %rsi
	movslq	-8(%rbp), %rcx
	movl	%eax, (%rsi,%rcx,4)
	movl	-48(%rbp), %eax
	movslq	-4(%rbp), %rcx
	shlq	$6, %rcx
	addq	%rcx, %rdx
	movslq	-8(%rbp), %rcx
	movl	(%rdx,%rcx,4), %ecx
	sarl	$1, %ecx
	addl	%ecx, %eax
	movl	%eax, -68(%rbp)
	movl	-60(%rbp), %eax
	subl	-68(%rbp), %eax
	movslq	-4(%rbp), %rcx
	shlq	$6, %rcx
	movabsq	$resTrans_B, %rdx
	movq	%rdx, %rsi
	addq	%rcx, %rsi
	movslq	-8(%rbp), %rcx
	movl	%eax, (%rsi,%rcx,4)
	movl	-68(%rbp), %eax
	movslq	-4(%rbp), %rcx
	shlq	$6, %rcx
	addq	%rcx, %rdx
	movslq	-8(%rbp), %rcx
	movl	(%rdx,%rcx,4), %ecx
	sarl	$1, %ecx
	addl	%ecx, %eax
	movslq	-4(%rbp), %rcx
	shlq	$6, %rcx
	movabsq	$resTrans_G, %rdx
	addq	%rcx, %rdx
	movslq	-8(%rbp), %rcx
	movl	%eax, (%rdx,%rcx,4)
# %bb.246:                              # %for.inc1224
                                        #   in Loop: Header=BB6_244 Depth=2
	movl	-4(%rbp), %eax
	addl	$1, %eax
	movl	%eax, -4(%rbp)
	jmp	.LBB6_244
.LBB6_247:                              # %for.end1226
                                        #   in Loop: Header=BB6_242 Depth=1
	jmp	.LBB6_248
.LBB6_248:                              # %for.inc1227
                                        #   in Loop: Header=BB6_242 Depth=1
	movl	-8(%rbp), %eax
	addl	$1, %eax
	movl	%eax, -8(%rbp)
	jmp	.LBB6_242
.LBB6_249:                              # %for.end1229
	movl	$0, -8(%rbp)
.LBB6_250:                              # %for.cond1230
                                        # =>This Loop Header: Depth=1
                                        #     Child Loop BB6_252 Depth 2
	cmpl	$4, -8(%rbp)
	jge	.LBB6_257
# %bb.251:                              # %for.body1233
                                        #   in Loop: Header=BB6_250 Depth=1
	movl	$0, -4(%rbp)
.LBB6_252:                              # %for.cond1234
                                        #   Parent Loop BB6_250 Depth=1
                                        # =>  This Inner Loop Header: Depth=2
	cmpl	$4, -4(%rbp)
	jge	.LBB6_255
# %bb.253:                              # %for.body1237
                                        #   in Loop: Header=BB6_252 Depth=2
	movslq	-4(%rbp), %rax
	shlq	$6, %rax
	movabsq	$resTrans_G, %rcx
	addq	%rax, %rcx
	movslq	-8(%rbp), %rax
	movl	(%rcx,%rax,4), %eax
	movq	img, %rcx
	addq	$13112, %rcx            # imm = 0x3338
	movslq	-4(%rbp), %rdx
	shlq	$6, %rdx
	addq	%rdx, %rcx
	movslq	-8(%rbp), %rdx
	movl	%eax, (%rcx,%rdx,4)
# %bb.254:                              # %for.inc1247
                                        #   in Loop: Header=BB6_252 Depth=2
	movl	-4(%rbp), %eax
	addl	$1, %eax
	movl	%eax, -4(%rbp)
	jmp	.LBB6_252
.LBB6_255:                              # %for.end1249
                                        #   in Loop: Header=BB6_250 Depth=1
	jmp	.LBB6_256
.LBB6_256:                              # %for.inc1250
                                        #   in Loop: Header=BB6_250 Depth=1
	movl	-8(%rbp), %eax
	addl	$1, %eax
	movl	%eax, -8(%rbp)
	jmp	.LBB6_250
.LBB6_257:                              # %for.end1252
	movl	-32(%rbp), %edi
	movl	-28(%rbp), %esi
	leaq	-172(%rbp), %rdx
	movl	$1, %ecx
	callq	dct_luma
	movl	%eax, -92(%rbp)
	movl	$0, -8(%rbp)
.LBB6_258:                              # %for.cond1254
                                        # =>This Loop Header: Depth=1
                                        #     Child Loop BB6_260 Depth 2
	cmpl	$4, -8(%rbp)
	jge	.LBB6_265
# %bb.259:                              # %for.body1257
                                        #   in Loop: Header=BB6_258 Depth=1
	movl	$0, -4(%rbp)
.LBB6_260:                              # %for.cond1258
                                        #   Parent Loop BB6_258 Depth=1
                                        # =>  This Inner Loop Header: Depth=2
	cmpl	$4, -4(%rbp)
	jge	.LBB6_263
# %bb.261:                              # %for.body1261
                                        #   in Loop: Header=BB6_260 Depth=2
	movq	img, %rax
	addq	$13112, %rax            # imm = 0x3338
	movslq	-4(%rbp), %rcx
	shlq	$6, %rcx
	addq	%rcx, %rax
	movslq	-8(%rbp), %rcx
	movl	(%rax,%rcx,4), %eax
	movslq	-4(%rbp), %rcx
	shlq	$6, %rcx
	movabsq	$rec_resG, %rdx
	addq	%rcx, %rdx
	movslq	-8(%rbp), %rcx
	movl	%eax, (%rdx,%rcx,4)
	movslq	-4(%rbp), %rax
	shlq	$6, %rax
	movabsq	$resTrans_R, %rcx
	addq	%rax, %rcx
	movslq	-8(%rbp), %rax
	movl	(%rcx,%rax,4), %eax
	movq	img, %rcx
	addq	$13112, %rcx            # imm = 0x3338
	movslq	-4(%rbp), %rdx
	shlq	$6, %rdx
	addq	%rdx, %rcx
	movslq	-8(%rbp), %rdx
	movl	%eax, (%rcx,%rdx,4)
# %bb.262:                              # %for.inc1280
                                        #   in Loop: Header=BB6_260 Depth=2
	movl	-4(%rbp), %eax
	addl	$1, %eax
	movl	%eax, -4(%rbp)
	jmp	.LBB6_260
.LBB6_263:                              # %for.end1282
                                        #   in Loop: Header=BB6_258 Depth=1
	jmp	.LBB6_264
.LBB6_264:                              # %for.inc1283
                                        #   in Loop: Header=BB6_258 Depth=1
	movl	-8(%rbp), %eax
	addl	$1, %eax
	movl	%eax, -8(%rbp)
	jmp	.LBB6_258
.LBB6_265:                              # %for.end1285
	movl	-24(%rbp), %esi
	addl	$4, %esi
	movl	-20(%rbp), %edx
	xorl	%edi, %edi
	callq	dct_chroma4x4
	movl	%eax, %r8d
	movl	-24(%rbp), %eax
	cltd
	movl	$2, %edi
	idivl	%edi
	movl	%edx, %esi
	shll	$1, %esi
	movl	-20(%rbp), %eax
	cltd
	idivl	%edi
	addl	%edx, %esi
	movslq	%esi, %rax
	shlq	$4, %rax
	movabsq	$cbp_chroma_block, %rcx
	addq	%rax, %rcx
	movl	-24(%rbp), %eax
	cltd
	idivl	%edi
	movl	%eax, %esi
	shll	$1, %esi
	movl	-20(%rbp), %eax
	cltd
	idivl	%edi
	addl	%eax, %esi
	movslq	%esi, %rax
	movl	%r8d, (%rcx,%rax,4)
	movl	-24(%rbp), %eax
	cltd
	idivl	%edi
	movl	%edx, %ecx
	shll	$1, %ecx
	movl	-20(%rbp), %eax
	cltd
	idivl	%edi
	addl	%edx, %ecx
	movslq	%ecx, %rax
	shlq	$4, %rax
	movabsq	$dc_level_temp, %rsi
	addq	%rax, %rsi
	movl	-24(%rbp), %eax
	cltd
	idivl	%edi
	movl	%eax, %ecx
	shll	$1, %ecx
	movl	-20(%rbp), %eax
	cltd
	idivl	%edi
	addl	%eax, %ecx
	movslq	%ecx, %rax
	movl	(%rsi,%rax,4), %r8d
	movl	-24(%rbp), %eax
	cltd
	idivl	%edi
	movl	%edx, %ecx
	shll	$1, %ecx
	movl	-20(%rbp), %eax
	cltd
	idivl	%edi
	addl	%edx, %ecx
	movslq	%ecx, %rax
	shlq	$4, %rax
	movabsq	$dc_level, %rsi
	addq	%rax, %rsi
	movl	-24(%rbp), %eax
	cltd
	idivl	%edi
	movl	%eax, %ecx
	shll	$1, %ecx
	movl	-20(%rbp), %eax
	cltd
	idivl	%edi
	addl	%eax, %ecx
	movslq	%ecx, %rax
	movl	%r8d, (%rsi,%rax,4)
	movl	$0, -8(%rbp)
.LBB6_266:                              # %for.cond1324
                                        # =>This Loop Header: Depth=1
                                        #     Child Loop BB6_268 Depth 2
	cmpl	$4, -8(%rbp)
	jge	.LBB6_273
# %bb.267:                              # %for.body1327
                                        #   in Loop: Header=BB6_266 Depth=1
	movl	$0, -4(%rbp)
.LBB6_268:                              # %for.cond1328
                                        #   Parent Loop BB6_266 Depth=1
                                        # =>  This Inner Loop Header: Depth=2
	cmpl	$4, -4(%rbp)
	jge	.LBB6_271
# %bb.269:                              # %for.body1331
                                        #   in Loop: Header=BB6_268 Depth=2
	movq	img, %rax
	addq	$13112, %rax            # imm = 0x3338
	movslq	-4(%rbp), %rcx
	shlq	$6, %rcx
	addq	%rcx, %rax
	movslq	-8(%rbp), %rcx
	movl	(%rax,%rcx,4), %eax
	movslq	-4(%rbp), %rcx
	shlq	$6, %rcx
	movabsq	$rec_resR, %rdx
	addq	%rcx, %rdx
	movslq	-8(%rbp), %rcx
	movl	%eax, (%rdx,%rcx,4)
	movslq	-4(%rbp), %rax
	shlq	$6, %rax
	movabsq	$resTrans_B, %rcx
	addq	%rax, %rcx
	movslq	-8(%rbp), %rax
	movl	(%rcx,%rax,4), %eax
	movq	img, %rcx
	addq	$13112, %rcx            # imm = 0x3338
	movslq	-4(%rbp), %rdx
	shlq	$6, %rdx
	addq	%rdx, %rcx
	movslq	-8(%rbp), %rdx
	movl	%eax, (%rcx,%rdx,4)
# %bb.270:                              # %for.inc1350
                                        #   in Loop: Header=BB6_268 Depth=2
	movl	-4(%rbp), %eax
	addl	$1, %eax
	movl	%eax, -4(%rbp)
	jmp	.LBB6_268
.LBB6_271:                              # %for.end1352
                                        #   in Loop: Header=BB6_266 Depth=1
	jmp	.LBB6_272
.LBB6_272:                              # %for.inc1353
                                        #   in Loop: Header=BB6_266 Depth=1
	movl	-8(%rbp), %eax
	addl	$1, %eax
	movl	%eax, -8(%rbp)
	jmp	.LBB6_266
.LBB6_273:                              # %for.end1355
	movl	-24(%rbp), %esi
	addl	$8, %esi
	movl	-20(%rbp), %edx
	movl	$1, %edi
	callq	dct_chroma4x4
	movl	%eax, %r10d
	movabsq	$dc_level, %r8
	addq	$64, %r8
	movabsq	$dc_level_temp, %rdi
	addq	$64, %rdi
	movabsq	$cbp_chroma_block, %rcx
	addq	$64, %rcx
	movl	-24(%rbp), %eax
	cltd
	movl	$2, %r9d
	idivl	%r9d
	movl	%edx, %esi
	shll	$1, %esi
	movl	-20(%rbp), %eax
	cltd
	idivl	%r9d
	addl	%edx, %esi
	movslq	%esi, %rax
	shlq	$4, %rax
	addq	%rax, %rcx
	movl	-24(%rbp), %eax
	cltd
	idivl	%r9d
	movl	%eax, %esi
	shll	$1, %esi
	movl	-20(%rbp), %eax
	cltd
	idivl	%r9d
	addl	%eax, %esi
	movslq	%esi, %rax
	movl	%r10d, (%rcx,%rax,4)
	movl	-24(%rbp), %eax
	cltd
	idivl	%r9d
	movl	%edx, %ecx
	shll	$1, %ecx
	movl	-20(%rbp), %eax
	cltd
	idivl	%r9d
	addl	%edx, %ecx
	movslq	%ecx, %rax
	shlq	$4, %rax
	addq	%rax, %rdi
	movl	-24(%rbp), %eax
	cltd
	idivl	%r9d
	movl	%eax, %ecx
	shll	$1, %ecx
	movl	-20(%rbp), %eax
	cltd
	idivl	%r9d
	addl	%eax, %ecx
	movslq	%ecx, %rax
	movl	(%rdi,%rax,4), %esi
	movl	-24(%rbp), %eax
	cltd
	idivl	%r9d
	movl	%edx, %ecx
	shll	$1, %ecx
	movl	-20(%rbp), %eax
	cltd
	idivl	%r9d
	addl	%edx, %ecx
	movslq	%ecx, %rax
	shlq	$4, %rax
	addq	%rax, %r8
	movl	-24(%rbp), %eax
	cltd
	idivl	%r9d
	movl	%eax, %ecx
	shll	$1, %ecx
	movl	-20(%rbp), %eax
	cltd
	idivl	%r9d
	addl	%eax, %ecx
	movslq	%ecx, %rax
	movl	%esi, (%r8,%rax,4)
	movl	$0, -8(%rbp)
.LBB6_274:                              # %for.cond1394
                                        # =>This Loop Header: Depth=1
                                        #     Child Loop BB6_276 Depth 2
	cmpl	$4, -8(%rbp)
	jge	.LBB6_281
# %bb.275:                              # %for.body1397
                                        #   in Loop: Header=BB6_274 Depth=1
	movl	$0, -4(%rbp)
.LBB6_276:                              # %for.cond1398
                                        #   Parent Loop BB6_274 Depth=1
                                        # =>  This Inner Loop Header: Depth=2
	cmpl	$4, -4(%rbp)
	jge	.LBB6_279
# %bb.277:                              # %for.body1401
                                        #   in Loop: Header=BB6_276 Depth=2
	movq	img, %rax
	addq	$13112, %rax            # imm = 0x3338
	movslq	-4(%rbp), %rcx
	shlq	$6, %rcx
	addq	%rcx, %rax
	movslq	-8(%rbp), %rcx
	movl	(%rax,%rcx,4), %eax
	movslq	-4(%rbp), %rcx
	shlq	$6, %rcx
	movabsq	$rec_resB, %rdx
	addq	%rcx, %rdx
	movslq	-8(%rbp), %rcx
	movl	%eax, (%rdx,%rcx,4)
# %bb.278:                              # %for.inc1411
                                        #   in Loop: Header=BB6_276 Depth=2
	movl	-4(%rbp), %eax
	addl	$1, %eax
	movl	%eax, -4(%rbp)
	jmp	.LBB6_276
.LBB6_279:                              # %for.end1413
                                        #   in Loop: Header=BB6_274 Depth=1
	jmp	.LBB6_280
.LBB6_280:                              # %for.inc1414
                                        #   in Loop: Header=BB6_274 Depth=1
	movl	-8(%rbp), %eax
	addl	$1, %eax
	movl	%eax, -8(%rbp)
	jmp	.LBB6_274
.LBB6_281:                              # %for.end1416
	movl	$0, -8(%rbp)
.LBB6_282:                              # %for.cond1417
                                        # =>This Loop Header: Depth=1
                                        #     Child Loop BB6_284 Depth 2
	cmpl	$4, -8(%rbp)
	jge	.LBB6_316
# %bb.283:                              # %for.body1420
                                        #   in Loop: Header=BB6_282 Depth=1
	movl	$0, -4(%rbp)
.LBB6_284:                              # %for.cond1421
                                        #   Parent Loop BB6_282 Depth=1
                                        # =>  This Inner Loop Header: Depth=2
	cmpl	$4, -4(%rbp)
	jge	.LBB6_314
# %bb.285:                              # %for.body1424
                                        #   in Loop: Header=BB6_284 Depth=2
	xorl	%eax, %eax
	movslq	-4(%rbp), %rcx
	shlq	$6, %rcx
	movabsq	$rec_resG, %rdx
	addq	%rcx, %rdx
	movslq	-8(%rbp), %rcx
	movl	(%rdx,%rcx,4), %ecx
	movslq	-4(%rbp), %rdx
	shlq	$6, %rdx
	movabsq	$rec_resB, %rsi
	movq	%rsi, %rdi
	addq	%rdx, %rdi
	movslq	-8(%rbp), %rdx
	movl	(%rdi,%rdx,4), %edx
	sarl	$1, %edx
	subl	%edx, %ecx
	movl	%ecx, -68(%rbp)
	movslq	-4(%rbp), %rcx
	shlq	$6, %rcx
	addq	%rcx, %rsi
	movslq	-8(%rbp), %rcx
	movl	(%rsi,%rcx,4), %ecx
	addl	-68(%rbp), %ecx
	movl	%ecx, -60(%rbp)
	movl	-68(%rbp), %ecx
	movslq	-4(%rbp), %rdx
	shlq	$6, %rdx
	movabsq	$rec_resR, %rsi
	movq	%rsi, %rdi
	addq	%rdx, %rdi
	movslq	-8(%rbp), %rdx
	movl	(%rdi,%rdx,4), %edx
	sarl	$1, %edx
	subl	%edx, %ecx
	movl	%ecx, -48(%rbp)
	movl	-48(%rbp), %ecx
	movslq	-4(%rbp), %rdx
	shlq	$6, %rdx
	addq	%rdx, %rsi
	movslq	-8(%rbp), %rdx
	addl	(%rsi,%rdx,4), %ecx
	movl	%ecx, -64(%rbp)
	movq	img, %rcx
	movl	72688(%rcx), %ecx
	movl	-48(%rbp), %edx
	movq	img, %rsi
	addq	$8504, %rsi             # imm = 0x2138
	movslq	-44(%rbp), %rdi
	shlq	$9, %rdi
	addq	%rdi, %rsi
	movl	-32(%rbp), %edi
	addl	-4(%rbp), %edi
	movslq	%edi, %rdi
	shlq	$5, %rdi
	addq	%rdi, %rsi
	movl	-28(%rbp), %edi
	addl	-8(%rbp), %edi
	movslq	%edi, %rdi
	movzwl	(%rsi,%rdi,2), %esi
	addl	%esi, %edx
	cmpl	%edx, %eax
	jle	.LBB6_287
# %bb.286:                              # %cond.true1466
                                        #   in Loop: Header=BB6_284 Depth=2
	xorl	%eax, %eax
	jmp	.LBB6_288
.LBB6_287:                              # %cond.false1467
                                        #   in Loop: Header=BB6_284 Depth=2
	movl	-48(%rbp), %eax
	movq	img, %rdx
	addq	$8504, %rdx             # imm = 0x2138
	movslq	-44(%rbp), %rsi
	shlq	$9, %rsi
	addq	%rsi, %rdx
	movl	-32(%rbp), %esi
	addl	-4(%rbp), %esi
	movslq	%esi, %rsi
	shlq	$5, %rsi
	addq	%rsi, %rdx
	movl	-28(%rbp), %esi
	addl	-8(%rbp), %esi
	movslq	%esi, %rsi
	movzwl	(%rdx,%rsi,2), %edx
	addl	%edx, %eax
.LBB6_288:                              # %cond.end1480
                                        #   in Loop: Header=BB6_284 Depth=2
	cmpl	%eax, %ecx
	jge	.LBB6_290
# %bb.289:                              # %cond.true1484
                                        #   in Loop: Header=BB6_284 Depth=2
	movq	img, %rax
	movl	72688(%rax), %eax
	jmp	.LBB6_294
.LBB6_290:                              # %cond.false1486
                                        #   in Loop: Header=BB6_284 Depth=2
	xorl	%eax, %eax
	movl	-48(%rbp), %ecx
	movq	img, %rdx
	addq	$8504, %rdx             # imm = 0x2138
	movslq	-44(%rbp), %rsi
	shlq	$9, %rsi
	addq	%rsi, %rdx
	movl	-32(%rbp), %esi
	addl	-4(%rbp), %esi
	movslq	%esi, %rsi
	shlq	$5, %rsi
	addq	%rsi, %rdx
	movl	-28(%rbp), %esi
	addl	-8(%rbp), %esi
	movslq	%esi, %rsi
	movzwl	(%rdx,%rsi,2), %edx
	addl	%edx, %ecx
	cmpl	%ecx, %eax
	jle	.LBB6_292
# %bb.291:                              # %cond.true1501
                                        #   in Loop: Header=BB6_284 Depth=2
	xorl	%eax, %eax
	jmp	.LBB6_293
.LBB6_292:                              # %cond.false1502
                                        #   in Loop: Header=BB6_284 Depth=2
	movl	-48(%rbp), %eax
	movq	img, %rcx
	addq	$8504, %rcx             # imm = 0x2138
	movslq	-44(%rbp), %rdx
	shlq	$9, %rdx
	addq	%rdx, %rcx
	movl	-32(%rbp), %edx
	addl	-4(%rbp), %edx
	movslq	%edx, %rdx
	shlq	$5, %rdx
	addq	%rdx, %rcx
	movl	-28(%rbp), %edx
	addl	-8(%rbp), %edx
	movslq	%edx, %rdx
	movzwl	(%rcx,%rdx,2), %ecx
	addl	%ecx, %eax
.LBB6_293:                              # %cond.end1515
                                        #   in Loop: Header=BB6_284 Depth=2
.LBB6_294:                              # %cond.end1517
                                        #   in Loop: Header=BB6_284 Depth=2
	xorl	%ecx, %ecx
	movq	enc_picture, %rdx
	movq	6464(%rdx), %rdx
	movq	(%rdx), %rdx
	movl	-40(%rbp), %esi
	addl	-8(%rbp), %esi
	movslq	%esi, %rsi
	movq	(%rdx,%rsi,8), %rdx
	movl	-56(%rbp), %esi
	addl	-4(%rbp), %esi
	movslq	%esi, %rsi
	movw	%ax, (%rdx,%rsi,2)
	movq	img, %rax
	movl	72684(%rax), %eax
	movl	-60(%rbp), %edx
	movq	img, %rsi
	addq	$184, %rsi
	movslq	-52(%rbp), %rdi
	shlq	$9, %rdi
	addq	%rdi, %rsi
	movslq	-8(%rbp), %rdi
	shlq	$5, %rdi
	addq	%rdi, %rsi
	movslq	-4(%rbp), %rdi
	movzwl	(%rsi,%rdi,2), %esi
	addl	%esi, %edx
	cmpl	%edx, %ecx
	jle	.LBB6_296
# %bb.295:                              # %cond.true1540
                                        #   in Loop: Header=BB6_284 Depth=2
	xorl	%ecx, %ecx
	jmp	.LBB6_297
.LBB6_296:                              # %cond.false1541
                                        #   in Loop: Header=BB6_284 Depth=2
	movl	-60(%rbp), %ecx
	movq	img, %rdx
	addq	$184, %rdx
	movslq	-52(%rbp), %rsi
	shlq	$9, %rsi
	addq	%rsi, %rdx
	movslq	-8(%rbp), %rsi
	shlq	$5, %rsi
	addq	%rsi, %rdx
	movslq	-4(%rbp), %rsi
	movzwl	(%rdx,%rsi,2), %edx
	addl	%edx, %ecx
.LBB6_297:                              # %cond.end1551
                                        #   in Loop: Header=BB6_284 Depth=2
	cmpl	%ecx, %eax
	jge	.LBB6_299
# %bb.298:                              # %cond.true1555
                                        #   in Loop: Header=BB6_284 Depth=2
	movq	img, %rax
	movl	72684(%rax), %eax
	jmp	.LBB6_303
.LBB6_299:                              # %cond.false1557
                                        #   in Loop: Header=BB6_284 Depth=2
	xorl	%eax, %eax
	movl	-60(%rbp), %ecx
	movq	img, %rdx
	addq	$184, %rdx
	movslq	-52(%rbp), %rsi
	shlq	$9, %rsi
	addq	%rsi, %rdx
	movslq	-8(%rbp), %rsi
	shlq	$5, %rsi
	addq	%rsi, %rdx
	movslq	-4(%rbp), %rsi
	movzwl	(%rdx,%rsi,2), %edx
	addl	%edx, %ecx
	cmpl	%ecx, %eax
	jle	.LBB6_301
# %bb.300:                              # %cond.true1569
                                        #   in Loop: Header=BB6_284 Depth=2
	xorl	%eax, %eax
	jmp	.LBB6_302
.LBB6_301:                              # %cond.false1570
                                        #   in Loop: Header=BB6_284 Depth=2
	movl	-60(%rbp), %eax
	movq	img, %rcx
	addq	$184, %rcx
	movslq	-52(%rbp), %rdx
	shlq	$9, %rdx
	addq	%rdx, %rcx
	movslq	-8(%rbp), %rdx
	shlq	$5, %rdx
	addq	%rdx, %rcx
	movslq	-4(%rbp), %rdx
	movzwl	(%rcx,%rdx,2), %ecx
	addl	%ecx, %eax
.LBB6_302:                              # %cond.end1580
                                        #   in Loop: Header=BB6_284 Depth=2
.LBB6_303:                              # %cond.end1582
                                        #   in Loop: Header=BB6_284 Depth=2
	xorl	%ecx, %ecx
	movq	enc_picture, %rdx
	movq	6424(%rdx), %rdx
	movl	-40(%rbp), %esi
	addl	-8(%rbp), %esi
	movslq	%esi, %rsi
	movq	(%rdx,%rsi,8), %rdx
	movl	-56(%rbp), %esi
	addl	-4(%rbp), %esi
	movslq	%esi, %rsi
	movw	%ax, (%rdx,%rsi,2)
	movq	img, %rax
	movl	72688(%rax), %eax
	movl	-64(%rbp), %edx
	movq	img, %rsi
	addq	$8504, %rsi             # imm = 0x2138
	addq	$2048, %rsi             # imm = 0x800
	movslq	-44(%rbp), %rdi
	shlq	$9, %rdi
	addq	%rdi, %rsi
	movl	-32(%rbp), %edi
	addl	-4(%rbp), %edi
	movslq	%edi, %rdi
	shlq	$5, %rdi
	addq	%rdi, %rsi
	movl	-28(%rbp), %edi
	addl	-8(%rbp), %edi
	movslq	%edi, %rdi
	movzwl	(%rsi,%rdi,2), %esi
	addl	%esi, %edx
	cmpl	%edx, %ecx
	jle	.LBB6_305
# %bb.304:                              # %cond.true1607
                                        #   in Loop: Header=BB6_284 Depth=2
	xorl	%ecx, %ecx
	jmp	.LBB6_306
.LBB6_305:                              # %cond.false1608
                                        #   in Loop: Header=BB6_284 Depth=2
	movl	-64(%rbp), %ecx
	movq	img, %rdx
	addq	$8504, %rdx             # imm = 0x2138
	addq	$2048, %rdx             # imm = 0x800
	movslq	-44(%rbp), %rsi
	shlq	$9, %rsi
	addq	%rsi, %rdx
	movl	-32(%rbp), %esi
	addl	-4(%rbp), %esi
	movslq	%esi, %rsi
	shlq	$5, %rsi
	addq	%rsi, %rdx
	movl	-28(%rbp), %esi
	addl	-8(%rbp), %esi
	movslq	%esi, %rsi
	movzwl	(%rdx,%rsi,2), %edx
	addl	%edx, %ecx
.LBB6_306:                              # %cond.end1621
                                        #   in Loop: Header=BB6_284 Depth=2
	cmpl	%ecx, %eax
	jge	.LBB6_308
# %bb.307:                              # %cond.true1625
                                        #   in Loop: Header=BB6_284 Depth=2
	movq	img, %rax
	movl	72688(%rax), %eax
	jmp	.LBB6_312
.LBB6_308:                              # %cond.false1627
                                        #   in Loop: Header=BB6_284 Depth=2
	xorl	%eax, %eax
	movl	-64(%rbp), %ecx
	movq	img, %rdx
	addq	$8504, %rdx             # imm = 0x2138
	addq	$2048, %rdx             # imm = 0x800
	movslq	-44(%rbp), %rsi
	shlq	$9, %rsi
	addq	%rsi, %rdx
	movl	-32(%rbp), %esi
	addl	-4(%rbp), %esi
	movslq	%esi, %rsi
	shlq	$5, %rsi
	addq	%rsi, %rdx
	movl	-28(%rbp), %esi
	addl	-8(%rbp), %esi
	movslq	%esi, %rsi
	movzwl	(%rdx,%rsi,2), %edx
	addl	%edx, %ecx
	cmpl	%ecx, %eax
	jle	.LBB6_310
# %bb.309:                              # %cond.true1642
                                        #   in Loop: Header=BB6_284 Depth=2
	xorl	%eax, %eax
	jmp	.LBB6_311
.LBB6_310:                              # %cond.false1643
                                        #   in Loop: Header=BB6_284 Depth=2
	movl	-64(%rbp), %eax
	movq	img, %rcx
	addq	$8504, %rcx             # imm = 0x2138
	addq	$2048, %rcx             # imm = 0x800
	movslq	-44(%rbp), %rdx
	shlq	$9, %rdx
	addq	%rdx, %rcx
	movl	-32(%rbp), %edx
	addl	-4(%rbp), %edx
	movslq	%edx, %rdx
	shlq	$5, %rdx
	addq	%rdx, %rcx
	movl	-28(%rbp), %edx
	addl	-8(%rbp), %edx
	movslq	%edx, %rdx
	movzwl	(%rcx,%rdx,2), %ecx
	addl	%ecx, %eax
.LBB6_311:                              # %cond.end1656
                                        #   in Loop: Header=BB6_284 Depth=2
.LBB6_312:                              # %cond.end1658
                                        #   in Loop: Header=BB6_284 Depth=2
	movq	enc_picture, %rcx
	movq	6464(%rcx), %rcx
	movq	8(%rcx), %rcx
	movl	-40(%rbp), %edx
	addl	-8(%rbp), %edx
	movslq	%edx, %rdx
	movq	(%rcx,%rdx,8), %rcx
	movl	-56(%rbp), %edx
	addl	-4(%rbp), %edx
	movslq	%edx, %rdx
	movw	%ax, (%rcx,%rdx,2)
# %bb.313:                              # %for.inc1669
                                        #   in Loop: Header=BB6_284 Depth=2
	movl	-4(%rbp), %eax
	addl	$1, %eax
	movl	%eax, -4(%rbp)
	jmp	.LBB6_284
.LBB6_314:                              # %for.end1671
                                        #   in Loop: Header=BB6_282 Depth=1
	jmp	.LBB6_315
.LBB6_315:                              # %for.inc1672
                                        #   in Loop: Header=BB6_282 Depth=1
	movl	-8(%rbp), %eax
	addl	$1, %eax
	movl	%eax, -8(%rbp)
	jmp	.LBB6_282
.LBB6_316:                              # %for.end1674
	jmp	.LBB6_317
.LBB6_317:                              # %if.end1675
	jmp	.LBB6_367
.LBB6_318:                              # %if.else1676
	movl	$0, -8(%rbp)
.LBB6_319:                              # %for.cond1677
                                        # =>This Loop Header: Depth=1
                                        #     Child Loop BB6_321 Depth 2
	cmpl	$2, -8(%rbp)
	jge	.LBB6_326
# %bb.320:                              # %for.body1680
                                        #   in Loop: Header=BB6_319 Depth=1
	movl	$0, -4(%rbp)
.LBB6_321:                              # %for.cond1681
                                        #   Parent Loop BB6_319 Depth=1
                                        # =>  This Inner Loop Header: Depth=2
	cmpl	$18, -4(%rbp)
	jge	.LBB6_324
# %bb.322:                              # %for.body1684
                                        #   in Loop: Header=BB6_321 Depth=2
	movq	cofAC4x4, %rax
	movslq	-8(%rbp), %rcx
	movq	(%rax,%rcx,8), %rax
	movslq	-4(%rbp), %rcx
	movl	(%rax,%rcx,4), %eax
	movq	img, %rcx
	movq	14136(%rcx), %rcx
	movslq	-24(%rbp), %rdx
	movq	(%rcx,%rdx,8), %rcx
	movslq	-20(%rbp), %rdx
	movq	(%rcx,%rdx,8), %rcx
	movslq	-8(%rbp), %rdx
	movq	(%rcx,%rdx,8), %rcx
	movslq	-4(%rbp), %rdx
	movl	%eax, (%rcx,%rdx,4)
# %bb.323:                              # %for.inc1698
                                        #   in Loop: Header=BB6_321 Depth=2
	movl	-4(%rbp), %eax
	addl	$1, %eax
	movl	%eax, -4(%rbp)
	jmp	.LBB6_321
.LBB6_324:                              # %for.end1700
                                        #   in Loop: Header=BB6_319 Depth=1
	jmp	.LBB6_325
.LBB6_325:                              # %for.inc1701
                                        #   in Loop: Header=BB6_319 Depth=1
	movl	-8(%rbp), %eax
	addl	$1, %eax
	movl	%eax, -8(%rbp)
	jmp	.LBB6_319
.LBB6_326:                              # %for.end1703
	movq	img, %rax
	cmpl	$0, 72724(%rax)
	je	.LBB6_344
# %bb.327:                              # %if.then1706
	movl	$0, -8(%rbp)
.LBB6_328:                              # %for.cond1707
                                        # =>This Loop Header: Depth=1
                                        #     Child Loop BB6_330 Depth 2
	cmpl	$2, -8(%rbp)
	jge	.LBB6_335
# %bb.329:                              # %for.body1710
                                        #   in Loop: Header=BB6_328 Depth=1
	movl	$0, -4(%rbp)
.LBB6_330:                              # %for.cond1711
                                        #   Parent Loop BB6_328 Depth=1
                                        # =>  This Inner Loop Header: Depth=2
	cmpl	$18, -4(%rbp)
	jge	.LBB6_333
# %bb.331:                              # %for.body1714
                                        #   in Loop: Header=BB6_330 Depth=2
	movslq	-8(%rbp), %rax
	imulq	$72, %rax, %rax
	movabsq	$cofAC4x4_chroma, %rcx
	addq	%rax, %rcx
	movslq	-4(%rbp), %rax
	movl	(%rcx,%rax,4), %eax
	movq	img, %rcx
	movq	14136(%rcx), %rcx
	movl	-24(%rbp), %edx
	addl	$4, %edx
	movslq	%edx, %rdx
	movq	(%rcx,%rdx,8), %rcx
	movslq	-20(%rbp), %rdx
	movq	(%rcx,%rdx,8), %rcx
	movslq	-8(%rbp), %rdx
	movq	(%rcx,%rdx,8), %rcx
	movslq	-4(%rbp), %rdx
	movl	%eax, (%rcx,%rdx,4)
# %bb.332:                              # %for.inc1729
                                        #   in Loop: Header=BB6_330 Depth=2
	movl	-4(%rbp), %eax
	addl	$1, %eax
	movl	%eax, -4(%rbp)
	jmp	.LBB6_330
.LBB6_333:                              # %for.end1731
                                        #   in Loop: Header=BB6_328 Depth=1
	jmp	.LBB6_334
.LBB6_334:                              # %for.inc1732
                                        #   in Loop: Header=BB6_328 Depth=1
	movl	-8(%rbp), %eax
	addl	$1, %eax
	movl	%eax, -8(%rbp)
	jmp	.LBB6_328
.LBB6_335:                              # %for.end1734
	movl	$0, -8(%rbp)
.LBB6_336:                              # %for.cond1735
                                        # =>This Loop Header: Depth=1
                                        #     Child Loop BB6_338 Depth 2
	cmpl	$2, -8(%rbp)
	jge	.LBB6_343
# %bb.337:                              # %for.body1738
                                        #   in Loop: Header=BB6_336 Depth=1
	movl	$0, -4(%rbp)
.LBB6_338:                              # %for.cond1739
                                        #   Parent Loop BB6_336 Depth=1
                                        # =>  This Inner Loop Header: Depth=2
	cmpl	$18, -4(%rbp)
	jge	.LBB6_341
# %bb.339:                              # %for.body1742
                                        #   in Loop: Header=BB6_338 Depth=2
	movabsq	$cofAC4x4_chroma, %rax
	addq	$144, %rax
	movslq	-8(%rbp), %rcx
	imulq	$72, %rcx, %rcx
	addq	%rcx, %rax
	movslq	-4(%rbp), %rcx
	movl	(%rax,%rcx,4), %eax
	movq	img, %rcx
	movq	14136(%rcx), %rcx
	movl	-24(%rbp), %edx
	addl	$8, %edx
	movslq	%edx, %rdx
	movq	(%rcx,%rdx,8), %rcx
	movslq	-20(%rbp), %rdx
	movq	(%rcx,%rdx,8), %rcx
	movslq	-8(%rbp), %rdx
	movq	(%rcx,%rdx,8), %rcx
	movslq	-4(%rbp), %rdx
	movl	%eax, (%rcx,%rdx,4)
# %bb.340:                              # %for.inc1757
                                        #   in Loop: Header=BB6_338 Depth=2
	movl	-4(%rbp), %eax
	addl	$1, %eax
	movl	%eax, -4(%rbp)
	jmp	.LBB6_338
.LBB6_341:                              # %for.end1759
                                        #   in Loop: Header=BB6_336 Depth=1
	jmp	.LBB6_342
.LBB6_342:                              # %for.inc1760
                                        #   in Loop: Header=BB6_336 Depth=1
	movl	-8(%rbp), %eax
	addl	$1, %eax
	movl	%eax, -8(%rbp)
	jmp	.LBB6_336
.LBB6_343:                              # %for.end1762
	jmp	.LBB6_344
.LBB6_344:                              # %if.end1763
	movl	$0, -12(%rbp)
.LBB6_345:                              # %for.cond1764
                                        # =>This Loop Header: Depth=1
                                        #     Child Loop BB6_347 Depth 2
	cmpl	$4, -12(%rbp)
	jge	.LBB6_352
# %bb.346:                              # %for.body1767
                                        #   in Loop: Header=BB6_345 Depth=1
	movl	$0, -16(%rbp)
.LBB6_347:                              # %for.cond1768
                                        #   Parent Loop BB6_345 Depth=1
                                        # =>  This Inner Loop Header: Depth=2
	cmpl	$4, -16(%rbp)
	jge	.LBB6_350
# %bb.348:                              # %for.body1771
                                        #   in Loop: Header=BB6_347 Depth=2
	movslq	-12(%rbp), %rax
	shlq	$4, %rax
	leaq	-288(%rbp), %rcx
	addq	%rax, %rcx
	movslq	-16(%rbp), %rax
	movl	(%rcx,%rax,4), %eax
	movq	enc_picture, %rcx
	movq	6424(%rcx), %rcx
	movl	-40(%rbp), %edx
	addl	-12(%rbp), %edx
	movslq	%edx, %rdx
	movq	(%rcx,%rdx,8), %rcx
	movl	-56(%rbp), %edx
	addl	-16(%rbp), %edx
	movslq	%edx, %rdx
	movw	%ax, (%rcx,%rdx,2)
	movq	img, %rax
	addq	$184, %rax
	movslq	-52(%rbp), %rcx
	shlq	$9, %rcx
	addq	%rcx, %rax
	movslq	-12(%rbp), %rcx
	shlq	$5, %rcx
	addq	%rcx, %rax
	movslq	-16(%rbp), %rcx
	movw	(%rax,%rcx,2), %ax
	movq	img, %rcx
	addq	$12600, %rcx            # imm = 0x3138
	movl	-32(%rbp), %edx
	addl	-16(%rbp), %edx
	movslq	%edx, %rdx
	shlq	$5, %rdx
	addq	%rdx, %rcx
	movl	-28(%rbp), %edx
	addl	-12(%rbp), %edx
	movslq	%edx, %rdx
	movw	%ax, (%rcx,%rdx,2)
# %bb.349:                              # %for.inc1798
                                        #   in Loop: Header=BB6_347 Depth=2
	movl	-16(%rbp), %eax
	addl	$1, %eax
	movl	%eax, -16(%rbp)
	jmp	.LBB6_347
.LBB6_350:                              # %for.end1800
                                        #   in Loop: Header=BB6_345 Depth=1
	jmp	.LBB6_351
.LBB6_351:                              # %for.inc1801
                                        #   in Loop: Header=BB6_345 Depth=1
	movl	-12(%rbp), %eax
	addl	$1, %eax
	movl	%eax, -12(%rbp)
	jmp	.LBB6_345
.LBB6_352:                              # %for.end1803
	movq	img, %rax
	cmpl	$0, 72724(%rax)
	je	.LBB6_366
# %bb.353:                              # %if.then1806
	movl	$0, -4(%rbp)
.LBB6_354:                              # %for.cond1807
                                        # =>This Loop Header: Depth=1
                                        #     Child Loop BB6_356 Depth 2
                                        #       Child Loop BB6_358 Depth 3
	cmpl	$2, -4(%rbp)
	jge	.LBB6_365
# %bb.355:                              # %for.body1810
                                        #   in Loop: Header=BB6_354 Depth=1
	movl	$0, -12(%rbp)
.LBB6_356:                              # %for.cond1811
                                        #   Parent Loop BB6_354 Depth=1
                                        # =>  This Loop Header: Depth=2
                                        #       Child Loop BB6_358 Depth 3
	cmpl	$4, -12(%rbp)
	jge	.LBB6_363
# %bb.357:                              # %for.body1814
                                        #   in Loop: Header=BB6_356 Depth=2
	movl	$0, -16(%rbp)
.LBB6_358:                              # %for.cond1815
                                        #   Parent Loop BB6_354 Depth=1
                                        #     Parent Loop BB6_356 Depth=2
                                        # =>    This Inner Loop Header: Depth=3
	cmpl	$4, -16(%rbp)
	jge	.LBB6_361
# %bb.359:                              # %for.body1818
                                        #   in Loop: Header=BB6_358 Depth=3
	movslq	-4(%rbp), %rax
	shlq	$6, %rax
	leaq	-480(%rbp), %rcx
	addq	%rax, %rcx
	movslq	-12(%rbp), %rax
	shlq	$4, %rax
	addq	%rax, %rcx
	movslq	-16(%rbp), %rax
	movl	(%rcx,%rax,4), %eax
	movq	enc_picture, %rcx
	movq	6464(%rcx), %rcx
	movslq	-4(%rbp), %rdx
	movq	(%rcx,%rdx,8), %rcx
	movl	-40(%rbp), %edx
	addl	-12(%rbp), %edx
	movslq	%edx, %rdx
	movq	(%rcx,%rdx,8), %rcx
	movl	-56(%rbp), %edx
	addl	-16(%rbp), %edx
	movslq	%edx, %rdx
	movw	%ax, (%rcx,%rdx,2)
# %bb.360:                              # %for.inc1835
                                        #   in Loop: Header=BB6_358 Depth=3
	movl	-16(%rbp), %eax
	addl	$1, %eax
	movl	%eax, -16(%rbp)
	jmp	.LBB6_358
.LBB6_361:                              # %for.end1837
                                        #   in Loop: Header=BB6_356 Depth=2
	jmp	.LBB6_362
.LBB6_362:                              # %for.inc1838
                                        #   in Loop: Header=BB6_356 Depth=2
	movl	-12(%rbp), %eax
	addl	$1, %eax
	movl	%eax, -12(%rbp)
	jmp	.LBB6_356
.LBB6_363:                              # %for.end1840
                                        #   in Loop: Header=BB6_354 Depth=1
	jmp	.LBB6_364
.LBB6_364:                              # %for.inc1841
                                        #   in Loop: Header=BB6_354 Depth=1
	movl	-4(%rbp), %eax
	addl	$1, %eax
	movl	%eax, -4(%rbp)
	jmp	.LBB6_354
.LBB6_365:                              # %for.end1843
	jmp	.LBB6_366
.LBB6_366:                              # %if.end1844
	jmp	.LBB6_367
.LBB6_367:                              # %if.end1845
	movl	-92(%rbp), %eax
	addq	$480, %rsp              # imm = 0x1E0
	popq	%rbp
	.cfi_def_cfa %rsp, 8
	retq
.Lfunc_end6:
	.size	Mode_Decision_for_4x4IntraBlocks, .Lfunc_end6-Mode_Decision_for_4x4IntraBlocks
	.cfi_endproc
                                        # -- End function
	.section	.rodata.cst8,"aM",@progbits,8
	.p2align	3               # -- Begin function Mode_Decision_for_8x8IntraBlocks
.LCPI7_0:
	.quad	4602677017732795964     # double 0.49990000000000001
.LCPI7_1:
	.quad	4618441417868443648     # double 6
	.text
	.globl	Mode_Decision_for_8x8IntraBlocks
	.p2align	4, 0x90
	.type	Mode_Decision_for_8x8IntraBlocks,@function
Mode_Decision_for_8x8IntraBlocks:       # @Mode_Decision_for_8x8IntraBlocks
	.cfi_startproc
# %bb.0:                                # %entry
	pushq	%rbp
	.cfi_def_cfa_offset 16
	.cfi_offset %rbp, -16
	movq	%rsp, %rbp
	.cfi_def_cfa_register %rbp
	subq	$32, %rsp
	vmovsd	.LCPI7_0(%rip), %xmm1   # xmm1 = mem[0],zero
	vmovsd	.LCPI7_1(%rip), %xmm2   # xmm2 = mem[0],zero
	movl	%edi, -16(%rbp)
	vmovsd	%xmm0, -32(%rbp)
	movq	%rsi, -24(%rbp)
	movl	$0, -8(%rbp)
	vmulsd	-32(%rbp), %xmm2, %xmm0
	vaddsd	%xmm1, %xmm0, %xmm0
	vroundsd	$9, %xmm0, %xmm0, %xmm0
	vcvttsd2si	%xmm0, %eax
	movq	-24(%rbp), %rcx
	movl	%eax, (%rcx)
	movl	$0, -4(%rbp)
.LBB7_1:                                # %for.cond
                                        # =>This Inner Loop Header: Depth=1
	cmpl	$4, -4(%rbp)
	jge	.LBB7_6
# %bb.2:                                # %for.body
                                        #   in Loop: Header=BB7_1 Depth=1
	movl	-16(%rbp), %edi
	movl	-4(%rbp), %esi
	vmovsd	-32(%rbp), %xmm0        # xmm0 = mem[0],zero
	leaq	-12(%rbp), %rdx
	callq	Mode_Decision_for_4x4IntraBlocks
	cmpl	$0, %eax
	je	.LBB7_4
# %bb.3:                                # %if.then
                                        #   in Loop: Header=BB7_1 Depth=1
	movl	$1, -8(%rbp)
.LBB7_4:                                # %if.end
                                        #   in Loop: Header=BB7_1 Depth=1
	movl	-12(%rbp), %eax
	movq	-24(%rbp), %rcx
	addl	(%rcx), %eax
	movl	%eax, (%rcx)
# %bb.5:                                # %for.inc
                                        #   in Loop: Header=BB7_1 Depth=1
	movl	-4(%rbp), %eax
	addl	$1, %eax
	movl	%eax, -4(%rbp)
	jmp	.LBB7_1
.LBB7_6:                                # %for.end
	movl	-8(%rbp), %eax
	addq	$32, %rsp
	popq	%rbp
	.cfi_def_cfa %rsp, 8
	retq
.Lfunc_end7:
	.size	Mode_Decision_for_8x8IntraBlocks, .Lfunc_end7-Mode_Decision_for_8x8IntraBlocks
	.cfi_endproc
                                        # -- End function
	.globl	Mode_Decision_for_Intra4x4Macroblock # -- Begin function Mode_Decision_for_Intra4x4Macroblock
	.p2align	4, 0x90
	.type	Mode_Decision_for_Intra4x4Macroblock,@function
Mode_Decision_for_Intra4x4Macroblock:   # @Mode_Decision_for_Intra4x4Macroblock
	.cfi_startproc
# %bb.0:                                # %entry
	pushq	%rbp
	.cfi_def_cfa_offset 16
	.cfi_offset %rbp, -16
	movq	%rsp, %rbp
	.cfi_def_cfa_register %rbp
	subq	$32, %rsp
	vmovsd	%xmm0, -32(%rbp)
	movq	%rdi, -24(%rbp)
	movl	$0, -8(%rbp)
	movq	-24(%rbp), %rax
	movl	$0, (%rax)
	movl	$0, -4(%rbp)
.LBB8_1:                                # %for.cond
                                        # =>This Inner Loop Header: Depth=1
	cmpl	$4, -4(%rbp)
	jge	.LBB8_6
# %bb.2:                                # %for.body
                                        #   in Loop: Header=BB8_1 Depth=1
	movl	-4(%rbp), %edi
	vmovsd	-32(%rbp), %xmm0        # xmm0 = mem[0],zero
	leaq	-12(%rbp), %rsi
	callq	Mode_Decision_for_8x8IntraBlocks
	cmpl	$0, %eax
	je	.LBB8_4
# %bb.3:                                # %if.then
                                        #   in Loop: Header=BB8_1 Depth=1
	movl	-4(%rbp), %ecx
                                        # kill: def $cl killed $ecx
	movl	$1, %eax
	shll	%cl, %eax
	orl	-8(%rbp), %eax
	movl	%eax, -8(%rbp)
.LBB8_4:                                # %if.end
                                        #   in Loop: Header=BB8_1 Depth=1
	movl	-12(%rbp), %eax
	movq	-24(%rbp), %rcx
	addl	(%rcx), %eax
	movl	%eax, (%rcx)
# %bb.5:                                # %for.inc
                                        #   in Loop: Header=BB8_1 Depth=1
	movl	-4(%rbp), %eax
	addl	$1, %eax
	movl	%eax, -4(%rbp)
	jmp	.LBB8_1
.LBB8_6:                                # %for.end
	movl	-8(%rbp), %eax
	addq	$32, %rsp
	popq	%rbp
	.cfi_def_cfa %rsp, 8
	retq
.Lfunc_end8:
	.size	Mode_Decision_for_Intra4x4Macroblock, .Lfunc_end8-Mode_Decision_for_Intra4x4Macroblock
	.cfi_endproc
                                        # -- End function
	.section	.rodata.cst8,"aM",@progbits,8
	.p2align	3               # -- Begin function RDCost_for_8x8blocks
.LCPI9_0:
	.quad	4906019910204099648     # double 1.0E+20
	.text
	.globl	RDCost_for_8x8blocks
	.p2align	4, 0x90
	.type	RDCost_for_8x8blocks,@function
RDCost_for_8x8blocks:                   # @RDCost_for_8x8blocks
	.cfi_startproc
# %bb.0:                                # %entry
	pushq	%rbp
	.cfi_def_cfa_offset 16
	.cfi_offset %rbp, -16
	movq	%rsp, %rbp
	.cfi_def_cfa_register %rbp
	pushq	%rbx
	subq	$216, %rsp
	.cfi_offset %rbx, -24
	movw	16(%rbp), %ax
	xorl	%r10d, %r10d
	movq	%rdi, -144(%rbp)
	movq	%rsi, -192(%rbp)
	vmovsd	%xmm0, -208(%rbp)
	movl	%edx, -40(%rbp)
	movl	%ecx, -36(%rbp)
	movw	%r8w, -18(%rbp)
	movw	%r9w, -42(%rbp)
	movl	$0, -24(%rbp)
	movq	$0, -64(%rbp)
	movl	$0, -128(%rbp)
	movl	-40(%rbp), %eax
	cltd
	movl	$2, %ecx
	idivl	%ecx
	shll	$3, %edx
	movl	%edx, -52(%rbp)
	movl	-40(%rbp), %eax
	cltd
	idivl	%ecx
	shll	$3, %eax
	movl	%eax, -48(%rbp)
	movl	-52(%rbp), %eax
	cltd
	movl	$4, %ecx
	idivl	%ecx
	movl	%eax, -32(%rbp)
	movl	-48(%rbp), %eax
	cltd
	idivl	%ecx
	movl	%eax, -28(%rbp)
	movq	img, %rax
	cmpl	$1, 24(%rax)
	sete	%al
	andb	$1, %al
	movzbl	%al, %eax
	movl	%eax, -156(%rbp)
	cmpl	$0, -156(%rbp)
	je	.LBB9_2
# %bb.1:                                # %land.rhs
	cmpl	$0, -36(%rbp)
	sete	%r10b
.LBB9_2:                                # %land.end
	andb	$1, %r10b
	movzbl	%r10b, %eax
	movl	%eax, -124(%rbp)
	movl	-36(%rbp), %edi
	movswl	-18(%rbp), %esi
	callq	B8Mode2Value
	movl	%eax, -120(%rbp)
	movq	img, %rax
	movq	14168(%rax), %rax
	movq	img, %rcx
	movslq	12(%rcx), %rcx
	imulq	$632, %rcx, %rcx        # imm = 0x278
	addq	%rcx, %rax
	movq	%rax, -112(%rbp)
	movq	img, %rax
	addq	$14176, %rax            # imm = 0x3760
	movq	-112(%rbp), %rcx
	movslq	(%rcx), %rcx
	imulq	$48, %rcx, %rcx
	addq	%rcx, %rax
	movq	%rax, -104(%rbp)
	movq	img, %rax
	movq	14160(%rax), %rax
	movq	%rax, -184(%rbp)
	movq	input, %rax
	movslq	2364(%rax), %rax
	movq	assignSE2partition(,%rax,8), %rax
	movq	%rax, -176(%rbp)
	movq	-112(%rbp), %rax
	movl	$0, 580(%rax)
	cmpl	$0, -124(%rbp)
	je	.LBB9_10
# %bb.3:                                # %if.then
	movq	direct_pdir, %rax
	movq	img, %rcx
	movl	144(%rcx), %ecx
	addl	-32(%rbp), %ecx
	movslq	%ecx, %rcx
	movq	(%rax,%rcx,8), %rax
	movq	img, %rcx
	movl	148(%rcx), %ecx
	addl	-28(%rbp), %ecx
	movslq	%ecx, %rcx
	movswl	(%rax,%rcx,2), %eax
	cmpl	$0, %eax
	jge	.LBB9_5
# %bb.4:                                # %if.then20
	vmovsd	.LCPI9_0(%rip), %xmm0   # xmm0 = mem[0],zero
	vmovsd	%xmm0, -200(%rbp)
	jmp	.LBB9_139
.LBB9_5:                                # %if.else
	xorl	%r8d, %r8d
	movq	-192(%rbp), %rsi
	movl	-40(%rbp), %edx
	movq	direct_pdir, %rcx
	movq	img, %rdi
	movl	144(%rdi), %edi
	addl	-32(%rbp), %edi
	movslq	%edi, %rdi
	movq	(%rcx,%rdi,8), %rcx
	movq	img, %rdi
	movl	148(%rdi), %edi
	addl	-28(%rbp), %edi
	movslq	%edi, %rdi
	movw	(%rcx,%rdi,2), %r9w
	movq	direct_ref_idx, %rdi
	movq	(%rdi), %rdi
	movq	img, %rax
	movl	144(%rax), %eax
	addl	-32(%rbp), %eax
	cltq
	movq	(%rdi,%rax,8), %rax
	movq	img, %rdi
	movl	148(%rdi), %edi
	addl	-28(%rbp), %edi
	movslq	%edi, %rdi
	movswl	(%rax,%rdi,2), %eax
	cmpl	%eax, %r8d
	jle	.LBB9_7
# %bb.6:                                # %cond.true
	xorl	%r10d, %r10d
	jmp	.LBB9_8
.LBB9_7:                                # %cond.false
	movq	direct_ref_idx, %rax
	movq	(%rax), %rax
	movq	img, %rdi
	movl	144(%rdi), %edi
	addl	-32(%rbp), %edi
	movslq	%edi, %rdi
	movq	(%rax,%rdi,8), %rax
	movq	img, %rdi
	movl	148(%rdi), %edi
	addl	-28(%rbp), %edi
	movslq	%edi, %rdi
	movswl	(%rax,%rdi,2), %r10d
.LBB9_8:                                # %cond.end
	movq	direct_ref_idx, %rdi
	movq	8(%rdi), %rdi
	movq	img, %rcx
	movl	144(%rcx), %ecx
	addl	-32(%rbp), %ecx
	movslq	%ecx, %rcx
	movq	(%rdi,%rcx,8), %r11
	movq	img, %rcx
	movl	148(%rcx), %ecx
	addl	-28(%rbp), %ecx
	movslq	%ecx, %rbx
	leaq	-128(%rbp), %rdi
	movswl	%r9w, %ecx
	movl	$0, %r8d
	movl	$0, %r9d
	movswl	%r10w, %eax
	movl	%eax, (%rsp)
	movswl	(%r11,%rbx,2), %eax
	movl	%eax, 8(%rsp)
	callq	LumaResidualCoding8x8
	movq	-144(%rbp), %rcx
	movl	%eax, (%rcx)
# %bb.9:                                # %if.end
	jmp	.LBB9_19
.LBB9_10:                               # %if.else62
	movswl	-18(%rbp), %eax
	cmpl	$0, %eax
	je	.LBB9_12
# %bb.11:                               # %lor.lhs.false
	movswl	-18(%rbp), %eax
	cmpl	$2, %eax
	jne	.LBB9_13
.LBB9_12:                               # %cond.true69
	movl	-36(%rbp), %eax
	jmp	.LBB9_14
.LBB9_13:                               # %cond.false70
	xorl	%eax, %eax
	jmp	.LBB9_14
.LBB9_14:                               # %cond.end71
	movl	%eax, -164(%rbp)
	movswl	-18(%rbp), %eax
	cmpl	$1, %eax
	je	.LBB9_16
# %bb.15:                               # %lor.lhs.false76
	movswl	-18(%rbp), %eax
	cmpl	$2, %eax
	jne	.LBB9_17
.LBB9_16:                               # %cond.true80
	movl	-36(%rbp), %eax
	jmp	.LBB9_18
.LBB9_17:                               # %cond.false81
	xorl	%eax, %eax
	jmp	.LBB9_18
.LBB9_18:                               # %cond.end82
	movl	%eax, -160(%rbp)
	movq	-192(%rbp), %rsi
	movl	-40(%rbp), %edx
	movw	-18(%rbp), %ax
	movl	-164(%rbp), %r8d
	movl	-160(%rbp), %r9d
	movw	-42(%rbp), %bx
	leaq	-128(%rbp), %rdi
	movswl	%ax, %ecx
	movswl	%bx, %eax
	movl	%eax, (%rsp)
	movswl	16(%rbp), %eax
	movl	%eax, 8(%rsp)
	callq	LumaResidualCoding8x8
	movq	-144(%rbp), %rcx
	movl	%eax, (%rcx)
.LBB9_19:                               # %if.end85
	movq	img, %rax
	cmpl	$0, 72724(%rax)
	je	.LBB9_84
# %bb.20:                               # %if.then87
	movl	$0, -56(%rbp)
.LBB9_21:                               # %for.cond
                                        # =>This Loop Header: Depth=1
                                        #     Child Loop BB9_23 Depth 2
                                        #       Child Loop BB9_25 Depth 3
                                        #     Child Loop BB9_31 Depth 2
                                        #       Child Loop BB9_33 Depth 3
                                        #     Child Loop BB9_39 Depth 2
                                        #       Child Loop BB9_41 Depth 3
	cmpl	$4, -56(%rbp)
	jge	.LBB9_48
# %bb.22:                               # %for.body
                                        #   in Loop: Header=BB9_21 Depth=1
	movl	-52(%rbp), %ecx
	movl	-56(%rbp), %eax
	cltd
	movl	$2, %esi
	idivl	%esi
	shll	$2, %edx
	addl	%edx, %ecx
	movl	%ecx, -84(%rbp)
	movl	-48(%rbp), %ecx
	movl	-56(%rbp), %eax
	cltd
	idivl	%esi
	shll	$2, %eax
	addl	%eax, %ecx
	movl	%ecx, -80(%rbp)
	movl	$0, -12(%rbp)
.LBB9_23:                               # %for.cond96
                                        #   Parent Loop BB9_21 Depth=1
                                        # =>  This Loop Header: Depth=2
                                        #       Child Loop BB9_25 Depth 3
	cmpl	$4, -12(%rbp)
	jge	.LBB9_30
# %bb.24:                               # %for.body99
                                        #   in Loop: Header=BB9_23 Depth=2
	movl	$0, -16(%rbp)
.LBB9_25:                               # %for.cond100
                                        #   Parent Loop BB9_21 Depth=1
                                        #     Parent Loop BB9_23 Depth=2
                                        # =>    This Inner Loop Header: Depth=3
	cmpl	$4, -16(%rbp)
	jge	.LBB9_28
# %bb.26:                               # %for.body103
                                        #   in Loop: Header=BB9_25 Depth=3
	movl	-16(%rbp), %eax
	addl	-84(%rbp), %eax
	cltq
	shlq	$6, %rax
	movabsq	$resTrans_R, %rcx
	addq	%rax, %rcx
	movl	-12(%rbp), %eax
	addl	-80(%rbp), %eax
	cltq
	movl	(%rcx,%rax,4), %eax
	movq	img, %rcx
	addq	$13112, %rcx            # imm = 0x3338
	movslq	-16(%rbp), %rdx
	shlq	$6, %rdx
	addq	%rdx, %rcx
	movslq	-12(%rbp), %rdx
	movl	%eax, (%rcx,%rdx,4)
# %bb.27:                               # %for.inc
                                        #   in Loop: Header=BB9_25 Depth=3
	movl	-16(%rbp), %eax
	addl	$1, %eax
	movl	%eax, -16(%rbp)
	jmp	.LBB9_25
.LBB9_28:                               # %for.end
                                        #   in Loop: Header=BB9_23 Depth=2
	jmp	.LBB9_29
.LBB9_29:                               # %for.inc114
                                        #   in Loop: Header=BB9_23 Depth=2
	movl	-12(%rbp), %eax
	addl	$1, %eax
	movl	%eax, -12(%rbp)
	jmp	.LBB9_23
.LBB9_30:                               # %for.end116
                                        #   in Loop: Header=BB9_21 Depth=1
	movl	-40(%rbp), %edi
	addl	$4, %edi
	movl	-56(%rbp), %esi
	xorl	%edx, %edx
	callq	RDCost_for_4x4Blocks_Chroma
	addl	-24(%rbp), %eax
	movl	%eax, -24(%rbp)
	movl	$0, -12(%rbp)
.LBB9_31:                               # %for.cond120
                                        #   Parent Loop BB9_21 Depth=1
                                        # =>  This Loop Header: Depth=2
                                        #       Child Loop BB9_33 Depth 3
	cmpl	$4, -12(%rbp)
	jge	.LBB9_38
# %bb.32:                               # %for.body123
                                        #   in Loop: Header=BB9_31 Depth=2
	movl	$0, -16(%rbp)
.LBB9_33:                               # %for.cond124
                                        #   Parent Loop BB9_21 Depth=1
                                        #     Parent Loop BB9_31 Depth=2
                                        # =>    This Inner Loop Header: Depth=3
	cmpl	$4, -16(%rbp)
	jge	.LBB9_36
# %bb.34:                               # %for.body127
                                        #   in Loop: Header=BB9_33 Depth=3
	movq	img, %rax
	addq	$13112, %rax            # imm = 0x3338
	movslq	-16(%rbp), %rcx
	shlq	$6, %rcx
	addq	%rcx, %rax
	movslq	-12(%rbp), %rcx
	movl	(%rax,%rcx,4), %eax
	movl	-16(%rbp), %ecx
	addl	-84(%rbp), %ecx
	movslq	%ecx, %rcx
	shlq	$6, %rcx
	movabsq	$rec_resR, %rdx
	addq	%rcx, %rdx
	movl	-12(%rbp), %ecx
	addl	-80(%rbp), %ecx
	movslq	%ecx, %rcx
	movl	%eax, (%rdx,%rcx,4)
	movl	-16(%rbp), %eax
	addl	-84(%rbp), %eax
	cltq
	shlq	$6, %rax
	movabsq	$resTrans_B, %rcx
	addq	%rax, %rcx
	movl	-12(%rbp), %eax
	addl	-80(%rbp), %eax
	cltq
	movl	(%rcx,%rax,4), %eax
	movq	img, %rcx
	addq	$13112, %rcx            # imm = 0x3338
	movslq	-16(%rbp), %rdx
	shlq	$6, %rdx
	addq	%rdx, %rcx
	movslq	-12(%rbp), %rdx
	movl	%eax, (%rcx,%rdx,4)
# %bb.35:                               # %for.inc150
                                        #   in Loop: Header=BB9_33 Depth=3
	movl	-16(%rbp), %eax
	addl	$1, %eax
	movl	%eax, -16(%rbp)
	jmp	.LBB9_33
.LBB9_36:                               # %for.end152
                                        #   in Loop: Header=BB9_31 Depth=2
	jmp	.LBB9_37
.LBB9_37:                               # %for.inc153
                                        #   in Loop: Header=BB9_31 Depth=2
	movl	-12(%rbp), %eax
	addl	$1, %eax
	movl	%eax, -12(%rbp)
	jmp	.LBB9_31
.LBB9_38:                               # %for.end155
                                        #   in Loop: Header=BB9_21 Depth=1
	movl	-40(%rbp), %edi
	addl	$8, %edi
	movl	-56(%rbp), %esi
	movl	$1, %edx
	callq	RDCost_for_4x4Blocks_Chroma
	addl	-24(%rbp), %eax
	movl	%eax, -24(%rbp)
	movl	$0, -12(%rbp)
.LBB9_39:                               # %for.cond159
                                        #   Parent Loop BB9_21 Depth=1
                                        # =>  This Loop Header: Depth=2
                                        #       Child Loop BB9_41 Depth 3
	cmpl	$4, -12(%rbp)
	jge	.LBB9_46
# %bb.40:                               # %for.body162
                                        #   in Loop: Header=BB9_39 Depth=2
	movl	$0, -16(%rbp)
.LBB9_41:                               # %for.cond163
                                        #   Parent Loop BB9_21 Depth=1
                                        #     Parent Loop BB9_39 Depth=2
                                        # =>    This Inner Loop Header: Depth=3
	cmpl	$4, -16(%rbp)
	jge	.LBB9_44
# %bb.42:                               # %for.body166
                                        #   in Loop: Header=BB9_41 Depth=3
	movq	img, %rax
	addq	$13112, %rax            # imm = 0x3338
	movslq	-16(%rbp), %rcx
	shlq	$6, %rcx
	addq	%rcx, %rax
	movslq	-12(%rbp), %rcx
	movl	(%rax,%rcx,4), %eax
	movl	-16(%rbp), %ecx
	addl	-84(%rbp), %ecx
	movslq	%ecx, %rcx
	shlq	$6, %rcx
	movabsq	$rec_resB, %rdx
	addq	%rcx, %rdx
	movl	-12(%rbp), %ecx
	addl	-80(%rbp), %ecx
	movslq	%ecx, %rcx
	movl	%eax, (%rdx,%rcx,4)
# %bb.43:                               # %for.inc178
                                        #   in Loop: Header=BB9_41 Depth=3
	movl	-16(%rbp), %eax
	addl	$1, %eax
	movl	%eax, -16(%rbp)
	jmp	.LBB9_41
.LBB9_44:                               # %for.end180
                                        #   in Loop: Header=BB9_39 Depth=2
	jmp	.LBB9_45
.LBB9_45:                               # %for.inc181
                                        #   in Loop: Header=BB9_39 Depth=2
	movl	-12(%rbp), %eax
	addl	$1, %eax
	movl	%eax, -12(%rbp)
	jmp	.LBB9_39
.LBB9_46:                               # %for.end183
                                        #   in Loop: Header=BB9_21 Depth=1
	jmp	.LBB9_47
.LBB9_47:                               # %for.inc184
                                        #   in Loop: Header=BB9_21 Depth=1
	movl	-56(%rbp), %eax
	addl	$1, %eax
	movl	%eax, -56(%rbp)
	jmp	.LBB9_21
.LBB9_48:                               # %for.end186
	movl	-48(%rbp), %eax
	movl	%eax, -12(%rbp)
.LBB9_49:                               # %for.cond187
                                        # =>This Loop Header: Depth=1
                                        #     Child Loop BB9_51 Depth 2
	movl	-12(%rbp), %eax
	movl	-48(%rbp), %ecx
	addl	$8, %ecx
	cmpl	%ecx, %eax
	jge	.LBB9_83
# %bb.50:                               # %for.body191
                                        #   in Loop: Header=BB9_49 Depth=1
	movl	-52(%rbp), %eax
	movl	%eax, -16(%rbp)
.LBB9_51:                               # %for.cond192
                                        #   Parent Loop BB9_49 Depth=1
                                        # =>  This Inner Loop Header: Depth=2
	movl	-16(%rbp), %eax
	movl	-52(%rbp), %ecx
	addl	$8, %ecx
	cmpl	%ecx, %eax
	jge	.LBB9_81
# %bb.52:                               # %for.body196
                                        #   in Loop: Header=BB9_51 Depth=2
	xorl	%eax, %eax
	movabsq	$mprRGB, %rcx
	addq	$1024, %rcx             # imm = 0x400
	movslq	-16(%rbp), %rdx
	shlq	$6, %rdx
	movabsq	$rec_resG, %rsi
	addq	%rdx, %rsi
	movslq	-12(%rbp), %rdx
	movl	(%rsi,%rdx,4), %edx
	movslq	-16(%rbp), %rsi
	shlq	$6, %rsi
	movabsq	$rec_resB, %rbx
	movq	%rbx, %rdi
	addq	%rsi, %rdi
	movslq	-12(%rbp), %rsi
	movl	(%rdi,%rsi,4), %esi
	sarl	$1, %esi
	subl	%esi, %edx
	movl	%edx, -116(%rbp)
	movslq	-16(%rbp), %rdx
	shlq	$6, %rdx
	addq	%rdx, %rbx
	movslq	-12(%rbp), %rdx
	movl	(%rbx,%rdx,4), %edx
	addl	-116(%rbp), %edx
	movl	%edx, -88(%rbp)
	movl	-116(%rbp), %edx
	movslq	-16(%rbp), %rsi
	shlq	$6, %rsi
	movabsq	$rec_resR, %rbx
	movq	%rbx, %rdi
	addq	%rsi, %rdi
	movslq	-12(%rbp), %rsi
	movl	(%rdi,%rsi,4), %esi
	sarl	$1, %esi
	subl	%esi, %edx
	movl	%edx, -68(%rbp)
	movl	-68(%rbp), %edx
	movslq	-16(%rbp), %rsi
	shlq	$6, %rsi
	addq	%rsi, %rbx
	movslq	-12(%rbp), %rsi
	addl	(%rbx,%rsi,4), %edx
	movl	%edx, -92(%rbp)
	movq	img, %rdx
	movl	72688(%rdx), %edx
	movl	-68(%rbp), %esi
	movslq	-16(%rbp), %rdi
	shlq	$6, %rdi
	addq	%rdi, %rcx
	movslq	-12(%rbp), %rdi
	addl	(%rcx,%rdi,4), %esi
	cmpl	%esi, %eax
	jle	.LBB9_54
# %bb.53:                               # %cond.true228
                                        #   in Loop: Header=BB9_51 Depth=2
	xorl	%eax, %eax
	jmp	.LBB9_55
.LBB9_54:                               # %cond.false229
                                        #   in Loop: Header=BB9_51 Depth=2
	movabsq	$mprRGB, %rcx
	addq	$1024, %rcx             # imm = 0x400
	movl	-68(%rbp), %eax
	movslq	-16(%rbp), %rsi
	shlq	$6, %rsi
	addq	%rsi, %rcx
	movslq	-12(%rbp), %rsi
	addl	(%rcx,%rsi,4), %eax
.LBB9_55:                               # %cond.end235
                                        #   in Loop: Header=BB9_51 Depth=2
	cmpl	%eax, %edx
	jge	.LBB9_57
# %bb.56:                               # %cond.true239
                                        #   in Loop: Header=BB9_51 Depth=2
	movq	img, %rax
	movl	72688(%rax), %eax
	jmp	.LBB9_61
.LBB9_57:                               # %cond.false241
                                        #   in Loop: Header=BB9_51 Depth=2
	xorl	%eax, %eax
	movabsq	$mprRGB, %rcx
	addq	$1024, %rcx             # imm = 0x400
	movl	-68(%rbp), %edx
	movslq	-16(%rbp), %rsi
	shlq	$6, %rsi
	addq	%rsi, %rcx
	movslq	-12(%rbp), %rsi
	addl	(%rcx,%rsi,4), %edx
	cmpl	%edx, %eax
	jle	.LBB9_59
# %bb.58:                               # %cond.true249
                                        #   in Loop: Header=BB9_51 Depth=2
	xorl	%eax, %eax
	jmp	.LBB9_60
.LBB9_59:                               # %cond.false250
                                        #   in Loop: Header=BB9_51 Depth=2
	movabsq	$mprRGB, %rcx
	addq	$1024, %rcx             # imm = 0x400
	movl	-68(%rbp), %eax
	movslq	-16(%rbp), %rdx
	shlq	$6, %rdx
	addq	%rdx, %rcx
	movslq	-12(%rbp), %rdx
	addl	(%rcx,%rdx,4), %eax
.LBB9_60:                               # %cond.end256
                                        #   in Loop: Header=BB9_51 Depth=2
.LBB9_61:                               # %cond.end258
                                        #   in Loop: Header=BB9_51 Depth=2
	xorl	%ecx, %ecx
	movq	enc_picture, %rdx
	movq	6464(%rdx), %rdx
	movq	(%rdx), %rdx
	movq	img, %rsi
	movl	156(%rsi), %esi
	addl	-12(%rbp), %esi
	movslq	%esi, %rsi
	movq	(%rdx,%rsi,8), %rdx
	movq	img, %rsi
	movl	152(%rsi), %esi
	addl	-16(%rbp), %esi
	movslq	%esi, %rsi
	movw	%ax, (%rdx,%rsi,2)
	movq	img, %rax
	movl	72684(%rax), %eax
	movl	-88(%rbp), %edx
	movslq	-16(%rbp), %rsi
	shlq	$6, %rsi
	movabsq	$mprRGB, %rdi
	addq	%rsi, %rdi
	movslq	-12(%rbp), %rsi
	addl	(%rdi,%rsi,4), %edx
	cmpl	%edx, %ecx
	jle	.LBB9_63
# %bb.62:                               # %cond.true275
                                        #   in Loop: Header=BB9_51 Depth=2
	xorl	%ecx, %ecx
	jmp	.LBB9_64
.LBB9_63:                               # %cond.false276
                                        #   in Loop: Header=BB9_51 Depth=2
	movl	-88(%rbp), %ecx
	movslq	-16(%rbp), %rdx
	shlq	$6, %rdx
	movabsq	$mprRGB, %rsi
	addq	%rdx, %rsi
	movslq	-12(%rbp), %rdx
	addl	(%rsi,%rdx,4), %ecx
.LBB9_64:                               # %cond.end282
                                        #   in Loop: Header=BB9_51 Depth=2
	cmpl	%ecx, %eax
	jge	.LBB9_66
# %bb.65:                               # %cond.true286
                                        #   in Loop: Header=BB9_51 Depth=2
	movq	img, %rax
	movl	72684(%rax), %eax
	jmp	.LBB9_70
.LBB9_66:                               # %cond.false288
                                        #   in Loop: Header=BB9_51 Depth=2
	xorl	%eax, %eax
	movl	-88(%rbp), %ecx
	movslq	-16(%rbp), %rdx
	shlq	$6, %rdx
	movabsq	$mprRGB, %rsi
	addq	%rdx, %rsi
	movslq	-12(%rbp), %rdx
	addl	(%rsi,%rdx,4), %ecx
	cmpl	%ecx, %eax
	jle	.LBB9_68
# %bb.67:                               # %cond.true296
                                        #   in Loop: Header=BB9_51 Depth=2
	xorl	%eax, %eax
	jmp	.LBB9_69
.LBB9_68:                               # %cond.false297
                                        #   in Loop: Header=BB9_51 Depth=2
	movl	-88(%rbp), %eax
	movslq	-16(%rbp), %rcx
	shlq	$6, %rcx
	movabsq	$mprRGB, %rdx
	addq	%rcx, %rdx
	movslq	-12(%rbp), %rcx
	addl	(%rdx,%rcx,4), %eax
.LBB9_69:                               # %cond.end303
                                        #   in Loop: Header=BB9_51 Depth=2
.LBB9_70:                               # %cond.end305
                                        #   in Loop: Header=BB9_51 Depth=2
	xorl	%ecx, %ecx
	movabsq	$mprRGB, %rdx
	addq	$2048, %rdx             # imm = 0x800
	movq	enc_picture, %rsi
	movq	6424(%rsi), %rsi
	movq	img, %rdi
	movl	156(%rdi), %edi
	addl	-12(%rbp), %edi
	movslq	%edi, %rdi
	movq	(%rsi,%rdi,8), %rsi
	movq	img, %rdi
	movl	152(%rdi), %edi
	addl	-16(%rbp), %edi
	movslq	%edi, %rdi
	movw	%ax, (%rsi,%rdi,2)
	movq	img, %rax
	movl	72688(%rax), %eax
	movl	-92(%rbp), %esi
	movslq	-16(%rbp), %rdi
	shlq	$6, %rdi
	addq	%rdi, %rdx
	movslq	-12(%rbp), %rdi
	addl	(%rdx,%rdi,4), %esi
	cmpl	%esi, %ecx
	jle	.LBB9_72
# %bb.71:                               # %cond.true324
                                        #   in Loop: Header=BB9_51 Depth=2
	xorl	%ecx, %ecx
	jmp	.LBB9_73
.LBB9_72:                               # %cond.false325
                                        #   in Loop: Header=BB9_51 Depth=2
	movabsq	$mprRGB, %rdx
	addq	$2048, %rdx             # imm = 0x800
	movl	-92(%rbp), %ecx
	movslq	-16(%rbp), %rsi
	shlq	$6, %rsi
	addq	%rsi, %rdx
	movslq	-12(%rbp), %rsi
	addl	(%rdx,%rsi,4), %ecx
.LBB9_73:                               # %cond.end331
                                        #   in Loop: Header=BB9_51 Depth=2
	cmpl	%ecx, %eax
	jge	.LBB9_75
# %bb.74:                               # %cond.true335
                                        #   in Loop: Header=BB9_51 Depth=2
	movq	img, %rax
	movl	72688(%rax), %eax
	jmp	.LBB9_79
.LBB9_75:                               # %cond.false337
                                        #   in Loop: Header=BB9_51 Depth=2
	xorl	%eax, %eax
	movabsq	$mprRGB, %rcx
	addq	$2048, %rcx             # imm = 0x800
	movl	-92(%rbp), %edx
	movslq	-16(%rbp), %rsi
	shlq	$6, %rsi
	addq	%rsi, %rcx
	movslq	-12(%rbp), %rsi
	addl	(%rcx,%rsi,4), %edx
	cmpl	%edx, %eax
	jle	.LBB9_77
# %bb.76:                               # %cond.true345
                                        #   in Loop: Header=BB9_51 Depth=2
	xorl	%eax, %eax
	jmp	.LBB9_78
.LBB9_77:                               # %cond.false346
                                        #   in Loop: Header=BB9_51 Depth=2
	movabsq	$mprRGB, %rcx
	addq	$2048, %rcx             # imm = 0x800
	movl	-92(%rbp), %eax
	movslq	-16(%rbp), %rdx
	shlq	$6, %rdx
	addq	%rdx, %rcx
	movslq	-12(%rbp), %rdx
	addl	(%rcx,%rdx,4), %eax
.LBB9_78:                               # %cond.end352
                                        #   in Loop: Header=BB9_51 Depth=2
.LBB9_79:                               # %cond.end354
                                        #   in Loop: Header=BB9_51 Depth=2
	movq	enc_picture, %rcx
	movq	6464(%rcx), %rcx
	movq	8(%rcx), %rcx
	movq	img, %rdx
	movl	156(%rdx), %edx
	addl	-12(%rbp), %edx
	movslq	%edx, %rdx
	movq	(%rcx,%rdx,8), %rcx
	movq	img, %rdx
	movl	152(%rdx), %edx
	addl	-16(%rbp), %edx
	movslq	%edx, %rdx
	movw	%ax, (%rcx,%rdx,2)
# %bb.80:                               # %for.inc367
                                        #   in Loop: Header=BB9_51 Depth=2
	movl	-16(%rbp), %eax
	addl	$1, %eax
	movl	%eax, -16(%rbp)
	jmp	.LBB9_51
.LBB9_81:                               # %for.end369
                                        #   in Loop: Header=BB9_49 Depth=1
	jmp	.LBB9_82
.LBB9_82:                               # %for.inc370
                                        #   in Loop: Header=BB9_49 Depth=1
	movl	-12(%rbp), %eax
	addl	$1, %eax
	movl	%eax, -12(%rbp)
	jmp	.LBB9_49
.LBB9_83:                               # %for.end372
	jmp	.LBB9_84
.LBB9_84:                               # %if.end373
	movq	input, %rax
	cmpl	$2, 2464(%rax)
	jne	.LBB9_87
# %bb.85:                               # %land.lhs.true
	movq	img, %rax
	cmpl	$1, 24(%rax)
	je	.LBB9_87
# %bb.86:                               # %if.then379
	movl	-40(%rbp), %edi
	movl	$4294967295, %esi       # imm = 0xFFFFFFFF
	callq	compute_residue_b8block
.LBB9_87:                               # %if.end380
	movq	input, %rax
	cmpl	$2, 2464(%rax)
	jne	.LBB9_102
# %bb.88:                               # %land.lhs.true384
	movq	img, %rax
	cmpl	$1, 24(%rax)
	je	.LBB9_102
# %bb.89:                               # %if.then388
	movl	$0, -76(%rbp)
.LBB9_90:                               # %for.cond389
                                        # =>This Loop Header: Depth=1
                                        #     Child Loop BB9_92 Depth 2
                                        #       Child Loop BB9_94 Depth 3
	movl	-76(%rbp), %eax
	movq	input, %rcx
	cmpl	2904(%rcx), %eax
	jge	.LBB9_101
# %bb.91:                               # %for.body392
                                        #   in Loop: Header=BB9_90 Depth=1
	movl	-76(%rbp), %edi
	movl	-40(%rbp), %edx
	movl	-36(%rbp), %ecx
	movswl	-42(%rbp), %r8d
	movl	$8, %esi
	callq	decode_one_b8block
	movq	img, %rax
	movl	172(%rax), %eax
	addl	-48(%rbp), %eax
	movl	%eax, -12(%rbp)
.LBB9_92:                               # %for.cond395
                                        #   Parent Loop BB9_90 Depth=1
                                        # =>  This Loop Header: Depth=2
                                        #       Child Loop BB9_94 Depth 3
	movl	-12(%rbp), %eax
	movq	img, %rcx
	movl	172(%rcx), %ecx
	addl	-48(%rbp), %ecx
	addl	$8, %ecx
	cmpl	%ecx, %eax
	jge	.LBB9_99
# %bb.93:                               # %for.body401
                                        #   in Loop: Header=BB9_92 Depth=2
	movq	img, %rax
	movl	168(%rax), %eax
	addl	-52(%rbp), %eax
	movl	%eax, -16(%rbp)
.LBB9_94:                               # %for.cond403
                                        #   Parent Loop BB9_90 Depth=1
                                        #     Parent Loop BB9_92 Depth=2
                                        # =>    This Inner Loop Header: Depth=3
	movl	-16(%rbp), %eax
	movq	img, %rcx
	movl	168(%rcx), %ecx
	addl	-52(%rbp), %ecx
	addl	$8, %ecx
	cmpl	%ecx, %eax
	jge	.LBB9_97
# %bb.95:                               # %for.body409
                                        #   in Loop: Header=BB9_94 Depth=3
	movq	img, %rax
	movq	71776(%rax), %rax
	movq	imgY_org, %rcx
	movslq	-12(%rbp), %rdx
	movq	(%rcx,%rdx,8), %rcx
	movslq	-16(%rbp), %rdx
	movzwl	(%rcx,%rdx,2), %ecx
	movq	decs, %rdx
	movq	8(%rdx), %rdx
	movslq	-76(%rbp), %rsi
	movq	(%rdx,%rsi,8), %rdx
	movslq	-12(%rbp), %rsi
	movq	(%rdx,%rsi,8), %rdx
	movslq	-16(%rbp), %rsi
	movzwl	(%rdx,%rsi,2), %edx
	subl	%edx, %ecx
	movslq	%ecx, %rcx
	movslq	(%rax,%rcx,4), %rax
	addq	-64(%rbp), %rax
	movq	%rax, -64(%rbp)
# %bb.96:                               # %for.inc427
                                        #   in Loop: Header=BB9_94 Depth=3
	movl	-16(%rbp), %eax
	addl	$1, %eax
	movl	%eax, -16(%rbp)
	jmp	.LBB9_94
.LBB9_97:                               # %for.end429
                                        #   in Loop: Header=BB9_92 Depth=2
	jmp	.LBB9_98
.LBB9_98:                               # %for.inc430
                                        #   in Loop: Header=BB9_92 Depth=2
	movl	-12(%rbp), %eax
	addl	$1, %eax
	movl	%eax, -12(%rbp)
	jmp	.LBB9_92
.LBB9_99:                               # %for.end432
                                        #   in Loop: Header=BB9_90 Depth=1
	jmp	.LBB9_100
.LBB9_100:                              # %for.inc433
                                        #   in Loop: Header=BB9_90 Depth=1
	movl	-76(%rbp), %eax
	addl	$1, %eax
	movl	%eax, -76(%rbp)
	jmp	.LBB9_90
.LBB9_101:                              # %for.end435
	movq	input, %rax
	movslq	2904(%rax), %rcx
	movq	-64(%rbp), %rax
	cqto
	idivq	%rcx
	movq	%rax, -64(%rbp)
	jmp	.LBB9_113
.LBB9_102:                              # %if.else439
	movl	-48(%rbp), %eax
	movl	%eax, -12(%rbp)
.LBB9_103:                              # %for.cond440
                                        # =>This Loop Header: Depth=1
                                        #     Child Loop BB9_105 Depth 2
	movl	-12(%rbp), %eax
	movl	-48(%rbp), %ecx
	addl	$8, %ecx
	cmpl	%ecx, %eax
	jge	.LBB9_112
# %bb.104:                              # %for.body444
                                        #   in Loop: Header=BB9_103 Depth=1
	movq	img, %rax
	movl	152(%rax), %eax
	addl	-52(%rbp), %eax
	movl	%eax, -16(%rbp)
.LBB9_105:                              # %for.cond447
                                        #   Parent Loop BB9_103 Depth=1
                                        # =>  This Inner Loop Header: Depth=2
	movl	-16(%rbp), %eax
	movq	img, %rcx
	movl	152(%rcx), %ecx
	addl	-52(%rbp), %ecx
	addl	$8, %ecx
	cmpl	%ecx, %eax
	jge	.LBB9_110
# %bb.106:                              # %for.body453
                                        #   in Loop: Header=BB9_105 Depth=2
	movq	img, %rax
	movq	71776(%rax), %rax
	movq	imgY_org, %rcx
	movq	img, %rdx
	movl	172(%rdx), %edx
	addl	-12(%rbp), %edx
	movslq	%edx, %rdx
	movq	(%rcx,%rdx,8), %rcx
	movslq	-16(%rbp), %rdx
	movzwl	(%rcx,%rdx,2), %ecx
	movq	enc_picture, %rdx
	movq	6424(%rdx), %rdx
	movq	img, %rsi
	movl	156(%rsi), %esi
	addl	-12(%rbp), %esi
	movslq	%esi, %rsi
	movq	(%rdx,%rsi,8), %rdx
	movslq	-16(%rbp), %rsi
	movzwl	(%rdx,%rsi,2), %edx
	subl	%edx, %ecx
	movslq	%ecx, %rcx
	movslq	(%rax,%rcx,4), %rax
	addq	-64(%rbp), %rax
	movq	%rax, -64(%rbp)
	movq	img, %rax
	cmpl	$0, 72724(%rax)
	je	.LBB9_108
# %bb.107:                              # %if.then477
                                        #   in Loop: Header=BB9_105 Depth=2
	movq	img, %rax
	movq	71776(%rax), %rax
	movq	imgUV_org, %rcx
	movq	(%rcx), %rcx
	movq	img, %rdx
	movl	172(%rdx), %edx
	addl	-12(%rbp), %edx
	movslq	%edx, %rdx
	movq	(%rcx,%rdx,8), %rcx
	movslq	-16(%rbp), %rdx
	movzwl	(%rcx,%rdx,2), %ecx
	movq	enc_picture, %rdx
	movq	6464(%rdx), %rdx
	movq	(%rdx), %rdx
	movq	img, %rsi
	movl	156(%rsi), %esi
	addl	-12(%rbp), %esi
	movslq	%esi, %rsi
	movq	(%rdx,%rsi,8), %rdx
	movslq	-16(%rbp), %rsi
	movzwl	(%rdx,%rsi,2), %edx
	subl	%edx, %ecx
	movslq	%ecx, %rcx
	movslq	(%rax,%rcx,4), %rax
	addq	-64(%rbp), %rax
	movq	%rax, -64(%rbp)
	movq	img, %rax
	movq	71776(%rax), %rax
	movq	imgUV_org, %rcx
	movq	8(%rcx), %rcx
	movq	img, %rdx
	movl	172(%rdx), %edx
	addl	-12(%rbp), %edx
	movslq	%edx, %rdx
	movq	(%rcx,%rdx,8), %rcx
	movslq	-16(%rbp), %rdx
	movzwl	(%rcx,%rdx,2), %ecx
	movq	enc_picture, %rdx
	movq	6464(%rdx), %rdx
	movq	8(%rdx), %rdx
	movq	img, %rsi
	movl	156(%rsi), %esi
	addl	-12(%rbp), %esi
	movslq	%esi, %rsi
	movq	(%rdx,%rsi,8), %rdx
	movslq	-16(%rbp), %rsi
	movzwl	(%rdx,%rsi,2), %edx
	subl	%edx, %ecx
	movslq	%ecx, %rcx
	movslq	(%rax,%rcx,4), %rax
	addq	-64(%rbp), %rax
	movq	%rax, -64(%rbp)
.LBB9_108:                              # %if.end524
                                        #   in Loop: Header=BB9_105 Depth=2
	jmp	.LBB9_109
.LBB9_109:                              # %for.inc525
                                        #   in Loop: Header=BB9_105 Depth=2
	movl	-16(%rbp), %eax
	addl	$1, %eax
	movl	%eax, -16(%rbp)
	jmp	.LBB9_105
.LBB9_110:                              # %for.end527
                                        #   in Loop: Header=BB9_103 Depth=1
	jmp	.LBB9_111
.LBB9_111:                              # %for.inc528
                                        #   in Loop: Header=BB9_103 Depth=1
	movl	-12(%rbp), %eax
	addl	$1, %eax
	movl	%eax, -12(%rbp)
	jmp	.LBB9_103
.LBB9_112:                              # %for.end530
	jmp	.LBB9_113
.LBB9_113:                              # %if.end531
	movq	input, %rax
	cmpl	$0, 2356(%rax)
	jne	.LBB9_115
# %bb.114:                              # %if.then534
	movl	-120(%rbp), %edi
	movl	-168(%rbp), %esi
	leaq	-72(%rbp), %rdx
	leaq	-168(%rbp), %rcx
	callq	ue_linfo
	movl	-72(%rbp), %eax
	addl	-24(%rbp), %eax
	movl	%eax, -24(%rbp)
	jmp	.LBB9_116
.LBB9_115:                              # %if.else536
	movl	-120(%rbp), %eax
	movq	-104(%rbp), %rcx
	movl	%eax, 4(%rcx)
	movq	-104(%rbp), %rax
	movabsq	$writeB8_typeInfo_CABAC, %rcx
	movq	%rcx, 40(%rax)
	movq	-104(%rbp), %rax
	movl	$2, (%rax)
	movq	-184(%rbp), %rax
	movq	24(%rax), %rax
	movq	-176(%rbp), %rcx
	movq	-104(%rbp), %rdx
	movslq	(%rdx), %rdx
	movslq	(%rcx,%rdx,4), %rcx
	imulq	$120, %rcx, %rcx
	addq	%rcx, %rax
	movq	%rax, -136(%rbp)
	movq	-136(%rbp), %rax
	movq	112(%rax), %rax
	movq	-104(%rbp), %rdi
	movq	-136(%rbp), %rsi
	callq	*%rax
	movq	-104(%rbp), %rax
	movl	12(%rax), %eax
	addl	-24(%rbp), %eax
	movl	%eax, -24(%rbp)
	movq	-104(%rbp), %rax
	addq	$48, %rax
	movq	%rax, -104(%rbp)
	movq	-112(%rbp), %rax
	movl	(%rax), %ecx
	addl	$1, %ecx
	movl	%ecx, (%rax)
.LBB9_116:                              # %if.end547
	cmpl	$0, -124(%rbp)
	jne	.LBB9_134
# %bb.117:                              # %if.then549
	movq	img, %rax
	cmpl	$1, 72000(%rax)
	jle	.LBB9_121
# %bb.118:                              # %land.lhs.true552
	movswl	-18(%rbp), %eax
	cmpl	$0, %eax
	je	.LBB9_120
# %bb.119:                              # %lor.lhs.false556
	movswl	-18(%rbp), %eax
	cmpl	$2, %eax
	jne	.LBB9_121
.LBB9_120:                              # %if.then560
	movl	-36(%rbp), %edi
	movl	-32(%rbp), %esi
	movl	-28(%rbp), %edx
	movswl	-42(%rbp), %r8d
	movl	$1, %ecx
	callq	writeReferenceFrame
	addl	-24(%rbp), %eax
	movl	%eax, -24(%rbp)
.LBB9_121:                              # %if.end564
	movq	img, %rax
	cmpl	$1, 72004(%rax)
	jle	.LBB9_127
# %bb.122:                              # %land.lhs.true567
	movq	img, %rax
	cmpl	$1, 24(%rax)
	jne	.LBB9_127
# %bb.123:                              # %if.then571
	movswl	-18(%rbp), %eax
	cmpl	$1, %eax
	je	.LBB9_125
# %bb.124:                              # %lor.lhs.false575
	movswl	-18(%rbp), %eax
	cmpl	$2, %eax
	jne	.LBB9_126
.LBB9_125:                              # %if.then579
	movl	-36(%rbp), %edi
	movl	-32(%rbp), %esi
	movl	-28(%rbp), %edx
	movswl	16(%rbp), %r8d
	xorl	%ecx, %ecx
	callq	writeReferenceFrame
	addl	-24(%rbp), %eax
	movl	%eax, -24(%rbp)
.LBB9_126:                              # %if.end583
	jmp	.LBB9_127
.LBB9_127:                              # %if.end584
	movswl	-18(%rbp), %eax
	cmpl	$0, %eax
	je	.LBB9_129
# %bb.128:                              # %lor.lhs.false588
	movswl	-18(%rbp), %eax
	cmpl	$2, %eax
	jne	.LBB9_130
.LBB9_129:                              # %if.then592
	movl	-32(%rbp), %edi
	movl	-28(%rbp), %esi
	movl	-32(%rbp), %edx
	addl	$2, %edx
	movl	-28(%rbp), %ecx
	addl	$2, %ecx
	movswl	-42(%rbp), %r8d
	movl	-36(%rbp), %eax
	xorl	%r9d, %r9d
	movl	%eax, (%rsp)
	callq	writeMotionVector8x8
	addl	-24(%rbp), %eax
	movl	%eax, -24(%rbp)
.LBB9_130:                              # %if.end598
	movswl	-18(%rbp), %eax
	cmpl	$1, %eax
	je	.LBB9_132
# %bb.131:                              # %lor.lhs.false602
	movswl	-18(%rbp), %eax
	cmpl	$2, %eax
	jne	.LBB9_133
.LBB9_132:                              # %if.then606
	movl	-32(%rbp), %edi
	movl	-28(%rbp), %esi
	movl	-32(%rbp), %edx
	addl	$2, %edx
	movl	-28(%rbp), %ecx
	addl	$2, %ecx
	movswl	16(%rbp), %r8d
	movl	-36(%rbp), %eax
	movl	$1, %r9d
	movl	%eax, (%rsp)
	callq	writeMotionVector8x8
	addl	-24(%rbp), %eax
	movl	%eax, -24(%rbp)
.LBB9_133:                              # %if.end612
	jmp	.LBB9_134
.LBB9_134:                              # %if.end613
	movq	input, %rax
	cmpl	$1, 2356(%rax)
	jne	.LBB9_136
# %bb.135:                              # %if.then617
	movq	-184(%rbp), %rax
	movq	24(%rax), %rax
	movq	-176(%rbp), %rcx
	movslq	44(%rcx), %rcx
	imulq	$120, %rcx, %rcx
	addq	%rcx, %rax
	movq	%rax, -136(%rbp)
	movq	-136(%rbp), %rax
	addq	$8, %rax
	movq	%rax, -152(%rbp)
	movq	-152(%rbp), %rdi
	callq	arienco_bits_written
	xorl	%esi, %esi
	movl	%eax, -72(%rbp)
	movl	-40(%rbp), %edi
	movq	-144(%rbp), %rax
	movl	(%rax), %eax
	cmpl	$0, %eax
	movl	$1, %eax
	cmovgl	%eax, %esi
	movl	cbp8x8, %edx
	movq	-112(%rbp), %rcx
	movq	-152(%rbp), %r9
	movl	$1, %r8d
	callq	writeCBP_BIT_CABAC
	movq	-152(%rbp), %rdi
	callq	arienco_bits_written
	subl	-72(%rbp), %eax
	movl	%eax, -72(%rbp)
	movl	-72(%rbp), %eax
	addl	-24(%rbp), %eax
	movl	%eax, -24(%rbp)
.LBB9_136:                              # %if.end629
	movq	-144(%rbp), %rax
	cmpl	$0, (%rax)
	je	.LBB9_138
# %bb.137:                              # %if.then631
	movl	-40(%rbp), %edi
	movl	-36(%rbp), %esi
	movq	-112(%rbp), %rax
	movl	572(%rax), %edx
	callq	writeLumaCoeff8x8
	addl	-24(%rbp), %eax
	movl	%eax, -24(%rbp)
.LBB9_138:                              # %if.end634
	vcvtsi2sdq	-64(%rbp), %xmm0, %xmm0
	vmovsd	-208(%rbp), %xmm1       # xmm1 = mem[0],zero
	vcvtsi2sdl	-24(%rbp), %xmm0, %xmm2
	vmulsd	%xmm2, %xmm1, %xmm1
	vaddsd	%xmm1, %xmm0, %xmm0
	vmovsd	%xmm0, -200(%rbp)
.LBB9_139:                              # %return
	vmovsd	-200(%rbp), %xmm0       # xmm0 = mem[0],zero
	addq	$216, %rsp
	popq	%rbx
	popq	%rbp
	.cfi_def_cfa %rsp, 8
	retq
.Lfunc_end9:
	.size	RDCost_for_8x8blocks, .Lfunc_end9-RDCost_for_8x8blocks
	.cfi_endproc
                                        # -- End function
	.globl	I16Offset               # -- Begin function I16Offset
	.p2align	4, 0x90
	.type	I16Offset,@function
I16Offset:                              # @I16Offset
	.cfi_startproc
# %bb.0:                                # %entry
	pushq	%rbp
	.cfi_def_cfa_offset 16
	.cfi_offset %rbp, -16
	movq	%rsp, %rbp
	.cfi_def_cfa_register %rbp
	movl	%edi, -4(%rbp)
	movl	%esi, -8(%rbp)
	movl	-4(%rbp), %eax
	andl	$15, %eax
	cmpl	$0, %eax
	movl	$13, %ecx
	movl	$1, %eax
	cmovnel	%ecx, %eax
	addl	-8(%rbp), %eax
	movl	-4(%rbp), %ecx
	andl	$48, %ecx
	sarl	$2, %ecx
	addl	%ecx, %eax
	popq	%rbp
	.cfi_def_cfa %rsp, 8
	retq
.Lfunc_end10:
	.size	I16Offset, .Lfunc_end10-I16Offset
	.cfi_endproc
                                        # -- End function
	.globl	SetModesAndRefframeForBlocks # -- Begin function SetModesAndRefframeForBlocks
	.p2align	4, 0x90
	.type	SetModesAndRefframeForBlocks,@function
SetModesAndRefframeForBlocks:           # @SetModesAndRefframeForBlocks
	.cfi_startproc
# %bb.0:                                # %entry
	pushq	%rbp
	.cfi_def_cfa_offset 16
	.cfi_offset %rbp, -16
	movq	%rsp, %rbp
	.cfi_def_cfa_register %rbp
	subq	$48, %rsp
	movl	%edi, -12(%rbp)
	movq	img, %rax
	movq	14168(%rax), %rax
	movq	img, %rcx
	movslq	12(%rcx), %rcx
	imulq	$632, %rcx, %rcx        # imm = 0x278
	addq	%rcx, %rax
	movq	%rax, -24(%rbp)
	movq	img, %rax
	cmpl	$1, 24(%rax)
	sete	%al
	andb	$1, %al
	movzbl	%al, %eax
	movl	%eax, -28(%rbp)
	movq	img, %rax
	cmpl	$0, 72400(%rax)
	je	.LBB11_3
# %bb.1:                                # %land.lhs.true
	movq	-24(%rbp), %rax
	cmpl	$0, 532(%rax)
	je	.LBB11_3
# %bb.2:                                # %cond.true
	movq	img, %rax
	movl	12(%rax), %eax
	cltd
	movl	$2, %ecx
	idivl	%ecx
	cmpl	$0, %edx
	movl	$4, %eax
	cmovnel	%eax, %ecx
	jmp	.LBB11_4
.LBB11_3:                               # %cond.false
	xorl	%ecx, %ecx
	jmp	.LBB11_4
.LBB11_4:                               # %cond.end
	movl	%ecx, -32(%rbp)
	movl	-12(%rbp), %eax
	movq	-24(%rbp), %rcx
	movl	%eax, 72(%rcx)
	cmpl	$1, -12(%rbp)
	jne	.LBB11_6
# %bb.5:                                # %if.then
	movq	img, %rax
	movslq	-12(%rbp), %rcx
	movswl	71952(%rax,%rcx,2), %eax
	movq	-24(%rbp), %rcx
	movl	%eax, 580(%rcx)
	jmp	.LBB11_7
.LBB11_6:                               # %if.else
	movq	-24(%rbp), %rax
	movl	$0, 580(%rax)
.LBB11_7:                               # %if.end
	movl	-12(%rbp), %eax
	movq	%rax, %rcx
	subq	$13, %rcx
	ja	.LBB11_42
# %bb.8:                                # %if.end
	movq	.LJTI11_0(,%rax,8), %rax
	jmpq	*%rax
.LBB11_9:                               # %sw.bb
	movl	$0, -4(%rbp)
.LBB11_10:                              # %for.cond
                                        # =>This Inner Loop Header: Depth=1
	cmpl	$4, -4(%rbp)
	jge	.LBB11_16
# %bb.11:                               # %for.body
                                        #   in Loop: Header=BB11_10 Depth=1
	movq	-24(%rbp), %rax
	movslq	-4(%rbp), %rcx
	movl	$0, 472(%rax,%rcx,4)
	cmpl	$0, -28(%rbp)
	je	.LBB11_13
# %bb.12:                               # %cond.true17
                                        #   in Loop: Header=BB11_10 Depth=1
	movq	direct_pdir, %rcx
	movq	img, %rax
	movl	144(%rax), %esi
	movl	-4(%rbp), %eax
	cltd
	movl	$2, %edi
	idivl	%edi
	shll	$1, %edx
	addl	%edx, %esi
	movslq	%esi, %rax
	movq	(%rcx,%rax,8), %rcx
	movq	img, %rax
	movl	148(%rax), %esi
	movl	-4(%rbp), %eax
	cltd
	idivl	%edi
	shll	$1, %eax
	addl	%eax, %esi
	movslq	%esi, %rax
	movswl	(%rcx,%rax,2), %eax
	jmp	.LBB11_14
.LBB11_13:                              # %cond.false26
                                        #   in Loop: Header=BB11_10 Depth=1
	xorl	%eax, %eax
	jmp	.LBB11_14
.LBB11_14:                              # %cond.end27
                                        #   in Loop: Header=BB11_10 Depth=1
	movq	-24(%rbp), %rcx
	movslq	-4(%rbp), %rdx
	movl	%eax, 488(%rcx,%rdx,4)
# %bb.15:                               # %for.inc
                                        #   in Loop: Header=BB11_10 Depth=1
	movl	-4(%rbp), %eax
	addl	$1, %eax
	movl	%eax, -4(%rbp)
	jmp	.LBB11_10
.LBB11_16:                              # %for.end
	jmp	.LBB11_43
.LBB11_17:                              # %sw.bb31
	movl	$0, -4(%rbp)
.LBB11_18:                              # %for.cond32
                                        # =>This Inner Loop Header: Depth=1
	cmpl	$4, -4(%rbp)
	jge	.LBB11_21
# %bb.19:                               # %for.body35
                                        #   in Loop: Header=BB11_18 Depth=1
	movl	-12(%rbp), %eax
	movq	-24(%rbp), %rcx
	movslq	-4(%rbp), %rdx
	movl	%eax, 472(%rcx,%rdx,4)
	movslq	-12(%rbp), %rax
	shlq	$3, %rax
	movabsq	$best8x8pdir, %rcx
	addq	%rax, %rcx
	movslq	-4(%rbp), %rax
	movswl	(%rcx,%rax,2), %eax
	movq	-24(%rbp), %rcx
	movslq	-4(%rbp), %rdx
	movl	%eax, 488(%rcx,%rdx,4)
# %bb.20:                               # %for.inc47
                                        #   in Loop: Header=BB11_18 Depth=1
	movl	-4(%rbp), %eax
	addl	$1, %eax
	movl	%eax, -4(%rbp)
	jmp	.LBB11_18
.LBB11_21:                              # %for.end49
	jmp	.LBB11_43
.LBB11_22:                              # %sw.bb50
	movl	$0, -4(%rbp)
.LBB11_23:                              # %for.cond51
                                        # =>This Inner Loop Header: Depth=1
	cmpl	$4, -4(%rbp)
	jge	.LBB11_26
# %bb.24:                               # %for.body54
                                        #   in Loop: Header=BB11_23 Depth=1
	movslq	-4(%rbp), %rax
	movswl	best8x8mode(,%rax,2), %eax
	movq	-24(%rbp), %rcx
	movslq	-4(%rbp), %rdx
	movl	%eax, 472(%rcx,%rdx,4)
	movslq	-12(%rbp), %rax
	shlq	$3, %rax
	movabsq	$best8x8pdir, %rcx
	addq	%rax, %rcx
	movslq	-4(%rbp), %rax
	movswl	(%rcx,%rax,2), %eax
	movq	-24(%rbp), %rcx
	movslq	-4(%rbp), %rdx
	movl	%eax, 488(%rcx,%rdx,4)
# %bb.25:                               # %for.inc69
                                        #   in Loop: Header=BB11_23 Depth=1
	movl	-4(%rbp), %eax
	addl	$1, %eax
	movl	%eax, -4(%rbp)
	jmp	.LBB11_23
.LBB11_26:                              # %for.end71
	jmp	.LBB11_43
.LBB11_27:                              # %sw.bb72
	movl	$0, -4(%rbp)
.LBB11_28:                              # %for.cond73
                                        # =>This Inner Loop Header: Depth=1
	cmpl	$4, -4(%rbp)
	jge	.LBB11_31
# %bb.29:                               # %for.body76
                                        #   in Loop: Header=BB11_28 Depth=1
	movq	-24(%rbp), %rax
	movslq	-4(%rbp), %rcx
	movl	$11, 472(%rax,%rcx,4)
	movq	-24(%rbp), %rax
	movslq	-4(%rbp), %rcx
	movl	$-1, 488(%rax,%rcx,4)
# %bb.30:                               # %for.inc83
                                        #   in Loop: Header=BB11_28 Depth=1
	movl	-4(%rbp), %eax
	addl	$1, %eax
	movl	%eax, -4(%rbp)
	jmp	.LBB11_28
.LBB11_31:                              # %for.end85
	jmp	.LBB11_43
.LBB11_32:                              # %sw.bb86
	movl	$0, -4(%rbp)
.LBB11_33:                              # %for.cond87
                                        # =>This Inner Loop Header: Depth=1
	cmpl	$4, -4(%rbp)
	jge	.LBB11_36
# %bb.34:                               # %for.body90
                                        #   in Loop: Header=BB11_33 Depth=1
	movq	-24(%rbp), %rax
	movslq	-4(%rbp), %rcx
	movl	$0, 472(%rax,%rcx,4)
	movq	-24(%rbp), %rax
	movslq	-4(%rbp), %rcx
	movl	$-1, 488(%rax,%rcx,4)
# %bb.35:                               # %for.inc97
                                        #   in Loop: Header=BB11_33 Depth=1
	movl	-4(%rbp), %eax
	addl	$1, %eax
	movl	%eax, -4(%rbp)
	jmp	.LBB11_33
.LBB11_36:                              # %for.end99
	jmp	.LBB11_43
.LBB11_37:                              # %sw.bb100
	movl	$0, -4(%rbp)
.LBB11_38:                              # %for.cond101
                                        # =>This Inner Loop Header: Depth=1
	cmpl	$4, -4(%rbp)
	jge	.LBB11_41
# %bb.39:                               # %for.body104
                                        #   in Loop: Header=BB11_38 Depth=1
	movq	-24(%rbp), %rax
	movslq	-4(%rbp), %rcx
	movl	$13, 472(%rax,%rcx,4)
	movq	-24(%rbp), %rax
	movslq	-4(%rbp), %rcx
	movl	$-1, 488(%rax,%rcx,4)
# %bb.40:                               # %for.inc111
                                        #   in Loop: Header=BB11_38 Depth=1
	movl	-4(%rbp), %eax
	addl	$1, %eax
	movl	%eax, -4(%rbp)
	jmp	.LBB11_38
.LBB11_41:                              # %for.end113
	movq	-24(%rbp), %rax
	movl	$1, 572(%rax)
	jmp	.LBB11_43
.LBB11_42:                              # %sw.default
	movabsq	$.L.str, %rdi
	movb	$0, %al
	callq	printf
	movl	$1, %edi
	callq	exit
.LBB11_43:                              # %sw.epilog
	cmpl	$0, -12(%rbp)
	je	.LBB11_47
# %bb.44:                               # %lor.lhs.false
	cmpl	$9, -12(%rbp)
	je	.LBB11_47
# %bb.45:                               # %lor.lhs.false118
	cmpl	$10, -12(%rbp)
	je	.LBB11_47
# %bb.46:                               # %lor.lhs.false121
	cmpl	$13, -12(%rbp)
	jne	.LBB11_70
.LBB11_47:                              # %if.then124
	cmpl	$0, -28(%rbp)
	je	.LBB11_60
# %bb.48:                               # %if.then126
	movl	$0, -8(%rbp)
.LBB11_49:                              # %for.cond127
                                        # =>This Loop Header: Depth=1
                                        #     Child Loop BB11_51 Depth 2
	cmpl	$4, -8(%rbp)
	jge	.LBB11_59
# %bb.50:                               # %for.body130
                                        #   in Loop: Header=BB11_49 Depth=1
	movl	$0, -4(%rbp)
.LBB11_51:                              # %for.cond131
                                        #   Parent Loop BB11_49 Depth=1
                                        # =>  This Inner Loop Header: Depth=2
	cmpl	$4, -4(%rbp)
	jge	.LBB11_57
# %bb.52:                               # %for.body134
                                        #   in Loop: Header=BB11_51 Depth=2
	cmpl	$0, -12(%rbp)
	jne	.LBB11_54
# %bb.53:                               # %if.then136
                                        #   in Loop: Header=BB11_51 Depth=2
	movq	direct_ref_idx, %rax
	movq	(%rax), %rax
	movq	img, %rcx
	movl	144(%rcx), %ecx
	addl	-4(%rbp), %ecx
	movslq	%ecx, %rcx
	movq	(%rax,%rcx,8), %rax
	movq	img, %rcx
	movl	148(%rcx), %ecx
	addl	-8(%rbp), %ecx
	movslq	%ecx, %rcx
	movw	(%rax,%rcx,2), %ax
	movq	enc_picture, %rcx
	movq	6480(%rcx), %rcx
	movq	(%rcx), %rcx
	movq	img, %rdx
	movl	144(%rdx), %edx
	addl	-4(%rbp), %edx
	movslq	%edx, %rdx
	movq	(%rcx,%rdx,8), %rcx
	movq	img, %rdx
	movl	148(%rdx), %edx
	addl	-8(%rbp), %edx
	movslq	%edx, %rdx
	movw	%ax, (%rcx,%rdx,2)
	movq	direct_ref_idx, %rax
	movq	8(%rax), %rax
	movq	img, %rcx
	movl	144(%rcx), %ecx
	addl	-4(%rbp), %ecx
	movslq	%ecx, %rcx
	movq	(%rax,%rcx,8), %rax
	movq	img, %rcx
	movl	148(%rcx), %ecx
	addl	-8(%rbp), %ecx
	movslq	%ecx, %rcx
	movw	(%rax,%rcx,2), %ax
	movq	enc_picture, %rcx
	movq	6480(%rcx), %rcx
	movq	8(%rcx), %rcx
	movq	img, %rdx
	movl	144(%rdx), %edx
	addl	-4(%rbp), %edx
	movslq	%edx, %rdx
	movq	(%rcx,%rdx,8), %rcx
	movq	img, %rdx
	movl	148(%rdx), %edx
	addl	-8(%rbp), %edx
	movslq	%edx, %rdx
	movw	%ax, (%rcx,%rdx,2)
	jmp	.LBB11_55
.LBB11_54:                              # %if.else174
                                        #   in Loop: Header=BB11_51 Depth=2
	movq	enc_picture, %rax
	movq	6480(%rax), %rax
	movq	(%rax), %rax
	movq	img, %rcx
	movl	144(%rcx), %ecx
	addl	-4(%rbp), %ecx
	movslq	%ecx, %rcx
	movq	(%rax,%rcx,8), %rax
	movq	img, %rcx
	movl	148(%rcx), %ecx
	addl	-8(%rbp), %ecx
	movslq	%ecx, %rcx
	movw	$-1, (%rax,%rcx,2)
	movq	enc_picture, %rax
	movq	6480(%rax), %rax
	movq	8(%rax), %rax
	movq	img, %rcx
	movl	144(%rcx), %ecx
	addl	-4(%rbp), %ecx
	movslq	%ecx, %rcx
	movq	(%rax,%rcx,8), %rax
	movq	img, %rcx
	movl	148(%rcx), %ecx
	addl	-8(%rbp), %ecx
	movslq	%ecx, %rcx
	movw	$-1, (%rax,%rcx,2)
.LBB11_55:                              # %if.end195
                                        #   in Loop: Header=BB11_51 Depth=2
	jmp	.LBB11_56
.LBB11_56:                              # %for.inc196
                                        #   in Loop: Header=BB11_51 Depth=2
	movl	-4(%rbp), %eax
	addl	$1, %eax
	movl	%eax, -4(%rbp)
	jmp	.LBB11_51
.LBB11_57:                              # %for.end198
                                        #   in Loop: Header=BB11_49 Depth=1
	jmp	.LBB11_58
.LBB11_58:                              # %for.inc199
                                        #   in Loop: Header=BB11_49 Depth=1
	movl	-8(%rbp), %eax
	addl	$1, %eax
	movl	%eax, -8(%rbp)
	jmp	.LBB11_49
.LBB11_59:                              # %for.end201
	jmp	.LBB11_69
.LBB11_60:                              # %if.else202
	movl	$0, -8(%rbp)
.LBB11_61:                              # %for.cond203
                                        # =>This Loop Header: Depth=1
                                        #     Child Loop BB11_63 Depth 2
	cmpl	$4, -8(%rbp)
	jge	.LBB11_68
# %bb.62:                               # %for.body206
                                        #   in Loop: Header=BB11_61 Depth=1
	movl	$0, -4(%rbp)
.LBB11_63:                              # %for.cond207
                                        #   Parent Loop BB11_61 Depth=1
                                        # =>  This Inner Loop Header: Depth=2
	cmpl	$4, -4(%rbp)
	jge	.LBB11_66
# %bb.64:                               # %for.body210
                                        #   in Loop: Header=BB11_63 Depth=2
	xorl	%eax, %eax
	movl	-12(%rbp), %ecx
	cmpl	$0, %ecx
	movl	$4294967295, %ecx       # imm = 0xFFFFFFFF
	cmovel	%eax, %ecx
	movq	enc_picture, %rax
	movq	6480(%rax), %rax
	movq	(%rax), %rax
	movq	img, %rdx
	movl	144(%rdx), %edx
	addl	-4(%rbp), %edx
	movslq	%edx, %rdx
	movq	(%rax,%rdx,8), %rax
	movq	img, %rdx
	movl	148(%rdx), %edx
	addl	-8(%rbp), %edx
	movslq	%edx, %rdx
	movw	%cx, (%rax,%rdx,2)
# %bb.65:                               # %for.inc225
                                        #   in Loop: Header=BB11_63 Depth=2
	movl	-4(%rbp), %eax
	addl	$1, %eax
	movl	%eax, -4(%rbp)
	jmp	.LBB11_63
.LBB11_66:                              # %for.end227
                                        #   in Loop: Header=BB11_61 Depth=1
	jmp	.LBB11_67
.LBB11_67:                              # %for.inc228
                                        #   in Loop: Header=BB11_61 Depth=1
	movl	-8(%rbp), %eax
	addl	$1, %eax
	movl	%eax, -8(%rbp)
	jmp	.LBB11_61
.LBB11_68:                              # %for.end230
	jmp	.LBB11_69
.LBB11_69:                              # %if.end231
	jmp	.LBB11_127
.LBB11_70:                              # %if.else232
	cmpl	$0, -28(%rbp)
	je	.LBB11_110
# %bb.71:                               # %if.then234
	movl	$0, -8(%rbp)
.LBB11_72:                              # %for.cond235
                                        # =>This Loop Header: Depth=1
                                        #     Child Loop BB11_74 Depth 2
	cmpl	$4, -8(%rbp)
	jge	.LBB11_109
# %bb.73:                               # %for.body238
                                        #   in Loop: Header=BB11_72 Depth=1
	movl	$0, -4(%rbp)
.LBB11_74:                              # %for.cond239
                                        #   Parent Loop BB11_72 Depth=1
                                        # =>  This Inner Loop Header: Depth=2
	cmpl	$4, -4(%rbp)
	jge	.LBB11_107
# %bb.75:                               # %for.body242
                                        #   in Loop: Header=BB11_74 Depth=2
	movl	-8(%rbp), %eax
	cltd
	movl	$2, %esi
	idivl	%esi
	movl	%eax, %ecx
	shll	$1, %ecx
	movl	-4(%rbp), %eax
	cltd
	idivl	%esi
	addl	%eax, %ecx
	movl	%ecx, -16(%rbp)
	movl	-8(%rbp), %eax
	cltd
	idivl	%esi
	movl	%edx, %ecx
	shll	$1, %ecx
	movl	-4(%rbp), %eax
	cltd
	idivl	%esi
	addl	%edx, %ecx
	movl	%ecx, -36(%rbp)
	cmpl	$8, -12(%rbp)
	jne	.LBB11_78
# %bb.76:                               # %land.lhs.true253
                                        #   in Loop: Header=BB11_74 Depth=2
	movslq	-16(%rbp), %rax
	movswl	best8x8mode(,%rax,2), %eax
	cmpl	$0, %eax
	jne	.LBB11_78
# %bb.77:                               # %if.then259
                                        #   in Loop: Header=BB11_74 Depth=2
	movq	direct_ref_idx, %rax
	movq	(%rax), %rax
	movq	img, %rcx
	movl	144(%rcx), %ecx
	addl	-4(%rbp), %ecx
	movslq	%ecx, %rcx
	movq	(%rax,%rcx,8), %rax
	movq	img, %rcx
	movl	148(%rcx), %ecx
	addl	-8(%rbp), %ecx
	movslq	%ecx, %rcx
	movw	(%rax,%rcx,2), %ax
	movq	enc_picture, %rcx
	movq	6480(%rcx), %rcx
	movq	(%rcx), %rcx
	movq	img, %rdx
	movl	144(%rdx), %edx
	addl	-4(%rbp), %edx
	movslq	%edx, %rdx
	movq	(%rcx,%rdx,8), %rcx
	movq	img, %rdx
	movl	148(%rdx), %edx
	addl	-8(%rbp), %edx
	movslq	%edx, %rdx
	movw	%ax, (%rcx,%rdx,2)
	movq	direct_ref_idx, %rax
	movq	8(%rax), %rax
	movq	img, %rcx
	movl	144(%rcx), %ecx
	addl	-4(%rbp), %ecx
	movslq	%ecx, %rcx
	movq	(%rax,%rcx,8), %rax
	movq	img, %rcx
	movl	148(%rcx), %ecx
	addl	-8(%rbp), %ecx
	movslq	%ecx, %rcx
	movw	(%rax,%rcx,2), %ax
	movq	enc_picture, %rcx
	movq	6480(%rcx), %rcx
	movq	8(%rcx), %rcx
	movq	img, %rdx
	movl	144(%rdx), %edx
	addl	-4(%rbp), %edx
	movslq	%edx, %rdx
	movq	(%rcx,%rdx,8), %rcx
	movq	img, %rdx
	movl	148(%rdx), %edx
	addl	-8(%rbp), %edx
	movslq	%edx, %rdx
	movw	%ax, (%rcx,%rdx,2)
	jmp	.LBB11_105
.LBB11_78:                              # %if.else298
                                        #   in Loop: Header=BB11_74 Depth=2
	cmpl	$1, -12(%rbp)
	jne	.LBB11_90
# %bb.79:                               # %land.lhs.true301
                                        #   in Loop: Header=BB11_74 Depth=2
	movq	-24(%rbp), %rax
	cmpl	$0, 580(%rax)
	je	.LBB11_90
# %bb.80:                               # %land.lhs.true304
                                        #   in Loop: Header=BB11_74 Depth=2
	movslq	-12(%rbp), %rax
	shlq	$3, %rax
	movabsq	$best8x8pdir, %rcx
	addq	%rax, %rcx
	movslq	-16(%rbp), %rax
	movswl	(%rcx,%rax,2), %eax
	cmpl	$0, %eax
	je	.LBB11_82
# %bb.81:                               # %lor.lhs.false312
                                        #   in Loop: Header=BB11_74 Depth=2
	movslq	-12(%rbp), %rax
	shlq	$3, %rax
	movabsq	$best8x8pdir, %rcx
	addq	%rax, %rcx
	movslq	-16(%rbp), %rax
	movswl	(%rcx,%rax,2), %eax
	cmpl	$2, %eax
	jne	.LBB11_90
.LBB11_82:                              # %land.lhs.true320
                                        #   in Loop: Header=BB11_74 Depth=2
	cmpl	$8, -12(%rbp)
	jne	.LBB11_85
# %bb.83:                               # %lor.lhs.false323
                                        #   in Loop: Header=BB11_74 Depth=2
	movslq	-16(%rbp), %rax
	movswl	best8x8mode(,%rax,2), %eax
	cmpl	$0, %eax
	jne	.LBB11_85
# %bb.84:                               # %lor.lhs.false329
                                        #   in Loop: Header=BB11_74 Depth=2
	cmpl	$0, -28(%rbp)
	jne	.LBB11_90
.LBB11_85:                              # %land.lhs.true331
                                        #   in Loop: Header=BB11_74 Depth=2
	movslq	-12(%rbp), %rax
	shlq	$3, %rax
	movabsq	$best8x8pdir, %rcx
	addq	%rax, %rcx
	movslq	-16(%rbp), %rax
	movswl	(%rcx,%rax,2), %eax
	cmpl	$1, %eax
	je	.LBB11_87
# %bb.86:                               # %lor.lhs.false339
