	.text
	.file	"rdopt.c"
	.globl	clear_rdopt             # -- Begin function clear_rdopt
	.p2align	4, 0x90
	.type	clear_rdopt,@function
clear_rdopt:                            # @clear_rdopt
	.cfi_startproc
# %bb.0:                                # %entry
	pushq	%rbp
	.cfi_def_cfa_offset 16
	.cfi_offset %rbp, -16
	movq	%rsp, %rbp
	.cfi_def_cfa_register %rbp
	movq	cofDC, %rdi
	callq	free_mem_DCcoeff
	movq	cofAC, %rdi
	callq	free_mem_ACcoeff
	movq	cofAC8x8, %rdi
	callq	free_mem_ACcoeff
	movq	cofAC4x4intern, %rdi
	callq	free_mem_ACcoeff
	movq	input, %rax
	cmpl	$0, 3220(%rax)
	je	.LBB0_2
# %bb.1:                                # %if.then
	movq	cofAC_8x8ts, %rdi
	callq	free_mem_ACcoeff
.LBB0_2:                                # %if.end
	movq	cs_mb, %rdi
	callq	delete_coding_state
	movq	cs_b8, %rdi
	callq	delete_coding_state
	movq	cs_cm, %rdi
	callq	delete_coding_state
	movq	cs_imb, %rdi
	callq	delete_coding_state
	movq	cs_ib8, %rdi
	callq	delete_coding_state
	movq	cs_ib4, %rdi
	callq	delete_coding_state
	movq	cs_pc, %rdi
	callq	delete_coding_state
	popq	%rbp
	.cfi_def_cfa %rsp, 8
	retq
.Lfunc_end0:
	.size	clear_rdopt, .Lfunc_end0-clear_rdopt
	.cfi_endproc
                                        # -- End function
	.globl	init_rdopt              # -- Begin function init_rdopt
	.p2align	4, 0x90
	.type	init_rdopt,@function
init_rdopt:                             # @init_rdopt
	.cfi_startproc
# %bb.0:                                # %entry
	pushq	%rbp
	.cfi_def_cfa_offset 16
	.cfi_offset %rbp, -16
	movq	%rsp, %rbp
	.cfi_def_cfa_register %rbp
	movq	$0, rdopt
	movabsq	$cofDC, %rdi
	callq	get_mem_DCcoeff
	movabsq	$cofAC, %rdi
	callq	get_mem_ACcoeff
	movabsq	$cofAC8x8, %rdi
	callq	get_mem_ACcoeff
	movabsq	$cofAC4x4intern, %rdi
	callq	get_mem_ACcoeff
	movq	cofAC4x4intern, %rax
	movq	(%rax), %rax
	movq	(%rax), %rax
	movq	%rax, cofAC4x4
	movq	input, %rax
	cmpl	$0, 3220(%rax)
	je	.LBB1_2
# %bb.1:                                # %if.then
	movabsq	$cofAC_8x8ts, %rdi
	callq	get_mem_ACcoeff
.LBB1_2:                                # %if.end
	movb	$0, %al
	callq	create_coding_state
	movq	%rax, cs_mb
	movb	$0, %al
	callq	create_coding_state
	movq	%rax, cs_b8
	movb	$0, %al
	callq	create_coding_state
	movq	%rax, cs_cm
	movb	$0, %al
	callq	create_coding_state
	movq	%rax, cs_imb
	movb	$0, %al
	callq	create_coding_state
	movq	%rax, cs_ib8
	movb	$0, %al
	callq	create_coding_state
	movq	%rax, cs_ib4
	movb	$0, %al
	callq	create_coding_state
	movq	%rax, cs_pc
	popq	%rbp
	.cfi_def_cfa %rsp, 8
	retq
.Lfunc_end1:
	.size	init_rdopt, .Lfunc_end1-init_rdopt
	.cfi_endproc
                                        # -- End function
	.globl	UpdatePixelMap          # -- Begin function UpdatePixelMap
	.p2align	4, 0x90
	.type	UpdatePixelMap,@function
UpdatePixelMap:                         # @UpdatePixelMap
	.cfi_startproc
# %bb.0:                                # %rand_bb
	pushq	%rbp
	.cfi_def_cfa_offset 16
	.cfi_offset %rbp, -16
	movq	%rsp, %rbp
	.cfi_def_cfa_register %rbp
	callq	get_urand
	cmpl	$0, %eax
	jne	.LBB2_5
# %bb.1:                                # %func_UpdatePixelMap.19
	callq	UpdatePixelMap.19
	popq	%rbp
	.cfi_def_cfa %rsp, 8
	retq
.LBB2_2:                                # %func_UpdatePixelMap.31
	.cfi_def_cfa %rbp, 16
	callq	UpdatePixelMap.31
	popq	%rbp
	.cfi_def_cfa %rsp, 8
	retq
.LBB2_3:                                # %func_UpdatePixelMap.34
	.cfi_def_cfa %rbp, 16
	callq	UpdatePixelMap.34
	popq	%rbp
	.cfi_def_cfa %rsp, 8
	retq
.LBB2_4:                                # %func_UpdatePixelMap.74
	.cfi_def_cfa %rbp, 16
	callq	UpdatePixelMap.74
	popq	%rbp
	.cfi_def_cfa %rsp, 8
	retq
.LBB2_5:                                # %ctrl0
	.cfi_def_cfa %rbp, 16
	cmpl	$1, %eax
	je	.LBB2_2
# %bb.6:                                # %ctrl1
	cmpl	$2, %eax
	je	.LBB2_3
	jmp	.LBB2_4
.Lfunc_end2:
	.size	UpdatePixelMap, .Lfunc_end2-UpdatePixelMap
	.cfi_endproc
                                        # -- End function
	.globl	CheckReliabilityOfRef   # -- Begin function CheckReliabilityOfRef
	.p2align	4, 0x90
	.type	CheckReliabilityOfRef,@function
CheckReliabilityOfRef:                  # @CheckReliabilityOfRef
	.cfi_startproc
# %bb.0:                                # %rand_bb
	pushq	%rbp
	.cfi_def_cfa_offset 16
	.cfi_offset %rbp, -16
	movq	%rsp, %rbp
	.cfi_def_cfa_register %rbp
	pushq	%r15
	pushq	%r14
	pushq	%r12
	pushq	%rbx
	.cfi_offset %rbx, -48
	.cfi_offset %r12, -40
	.cfi_offset %r14, -32
	.cfi_offset %r15, -24
	movl	%ecx, %r14d
	movl	%edx, %r15d
	movl	%esi, %r12d
	movl	%edi, %ebx
	callq	get_urand
	cmpl	$0, %eax
	jne	.LBB3_5
# %bb.1:                                # %func_CheckReliabilityOfRef.58
	movl	%ebx, %edi
	movl	%r12d, %esi
	movl	%r15d, %edx
	movl	%r14d, %ecx
	callq	CheckReliabilityOfRef.58
	popq	%rbx
	popq	%r12
	popq	%r14
	popq	%r15
	popq	%rbp
	.cfi_def_cfa %rsp, 8
	retq
.LBB3_2:                                # %func_CheckReliabilityOfRef.61
	.cfi_def_cfa %rbp, 16
	movl	%ebx, %edi
	movl	%r12d, %esi
	movl	%r15d, %edx
	movl	%r14d, %ecx
	callq	CheckReliabilityOfRef.61
	popq	%rbx
	popq	%r12
	popq	%r14
	popq	%r15
	popq	%rbp
	.cfi_def_cfa %rsp, 8
	retq
.LBB3_3:                                # %func_CheckReliabilityOfRef.64
	.cfi_def_cfa %rbp, 16
	movl	%ebx, %edi
	movl	%r12d, %esi
	movl	%r15d, %edx
	movl	%r14d, %ecx
	callq	CheckReliabilityOfRef.64
	popq	%rbx
	popq	%r12
	popq	%r14
	popq	%r15
	popq	%rbp
	.cfi_def_cfa %rsp, 8
	retq
.LBB3_4:                                # %func_CheckReliabilityOfRef.87
	.cfi_def_cfa %rbp, 16
	movl	%ebx, %edi
	movl	%r12d, %esi
	movl	%r15d, %edx
	movl	%r14d, %ecx
	callq	CheckReliabilityOfRef.87
	popq	%rbx
	popq	%r12
	popq	%r14
	popq	%r15
	popq	%rbp
	.cfi_def_cfa %rsp, 8
	retq
.LBB3_5:                                # %ctrl0
	.cfi_def_cfa %rbp, 16
	cmpl	$1, %eax
	je	.LBB3_2
# %bb.6:                                # %ctrl1
	cmpl	$2, %eax
	je	.LBB3_3
	jmp	.LBB3_4
.Lfunc_end3:
	.size	CheckReliabilityOfRef, .Lfunc_end3-CheckReliabilityOfRef
	.cfi_endproc
                                        # -- End function
	.globl	RDCost_for_4x4IntraBlocks # -- Begin function RDCost_for_4x4IntraBlocks
	.p2align	4, 0x90
	.type	RDCost_for_4x4IntraBlocks,@function
RDCost_for_4x4IntraBlocks:              # @RDCost_for_4x4IntraBlocks
	.cfi_startproc
# %bb.0:                                # %rand_bb
	pushq	%rbp
	.cfi_def_cfa_offset 16
	.cfi_offset %rbp, -16
	movq	%rsp, %rbp
	.cfi_def_cfa_register %rbp
	pushq	%r15
	pushq	%r14
	pushq	%r13
	pushq	%r12
	pushq	%rbx
	subq	$24, %rsp
	.cfi_offset %rbx, -56
	.cfi_offset %r12, -48
	.cfi_offset %r13, -40
	.cfi_offset %r14, -32
	.cfi_offset %r15, -24
	movl	%r8d, %r14d
	vmovsd	%xmm1, -56(%rbp)        # 8-byte Spill
	vmovsd	%xmm0, -48(%rbp)        # 8-byte Spill
	movl	%ecx, %r15d
	movl	%edx, %r12d
	movl	%esi, %r13d
	movq	%rdi, %rbx
	callq	get_urand
	cmpl	$0, %eax
	jne	.LBB4_5
# %bb.1:                                # %func_RDCost_for_4x4IntraBlocks.4
	movq	%rbx, %rdi
	movl	%r13d, %esi
	movl	%r12d, %edx
	movl	%r15d, %ecx
	vmovsd	-48(%rbp), %xmm0        # 8-byte Reload
                                        # xmm0 = mem[0],zero
	vmovsd	-56(%rbp), %xmm1        # 8-byte Reload
                                        # xmm1 = mem[0],zero
	movl	%r14d, %r8d
	callq	RDCost_for_4x4IntraBlocks.4
	addq	$24, %rsp
	popq	%rbx
	popq	%r12
	popq	%r13
	popq	%r14
	popq	%r15
	popq	%rbp
	.cfi_def_cfa %rsp, 8
	retq
.LBB4_2:                                # %func_RDCost_for_4x4IntraBlocks.33
	.cfi_def_cfa %rbp, 16
	movq	%rbx, %rdi
	movl	%r13d, %esi
	movl	%r12d, %edx
	movl	%r15d, %ecx
	movl	%r14d, %r8d
	callq	RDCost_for_4x4IntraBlocks.33
	addq	$24, %rsp
	popq	%rbx
	popq	%r12
	popq	%r13
	popq	%r14
	popq	%r15
	popq	%rbp
	.cfi_def_cfa %rsp, 8
	retq
.LBB4_3:                                # %func_RDCost_for_4x4IntraBlocks.51
	.cfi_def_cfa %rbp, 16
	movq	%rbx, %rdi
	movl	%r13d, %esi
	movl	%r12d, %edx
	movl	%r15d, %ecx
	movl	%r14d, %r8d
	callq	RDCost_for_4x4IntraBlocks.51
	addq	$24, %rsp
	popq	%rbx
	popq	%r12
	popq	%r13
	popq	%r14
	popq	%r15
	popq	%rbp
	.cfi_def_cfa %rsp, 8
	retq
.LBB4_4:                                # %func_RDCost_for_4x4IntraBlocks.52
	.cfi_def_cfa %rbp, 16
	movq	%rbx, %rdi
	movl	%r13d, %esi
	movl	%r12d, %edx
	movl	%r15d, %ecx
	movl	%r14d, %r8d
	callq	RDCost_for_4x4IntraBlocks.52
	addq	$24, %rsp
	popq	%rbx
	popq	%r12
	popq	%r13
	popq	%r14
	popq	%r15
	popq	%rbp
	.cfi_def_cfa %rsp, 8
	retq
.LBB4_5:                                # %ctrl0
	.cfi_def_cfa %rbp, 16
	vmovsd	-48(%rbp), %xmm0        # 8-byte Reload
                                        # xmm0 = mem[0],zero
	vmovsd	-56(%rbp), %xmm1        # 8-byte Reload
                                        # xmm1 = mem[0],zero
	cmpl	$1, %eax
	je	.LBB4_2
# %bb.6:                                # %ctrl1
	cmpl	$2, %eax
	je	.LBB4_3
	jmp	.LBB4_4
.Lfunc_end4:
	.size	RDCost_for_4x4IntraBlocks, .Lfunc_end4-RDCost_for_4x4IntraBlocks
	.cfi_endproc
                                        # -- End function
	.globl	RDCost_for_4x4Blocks_Chroma # -- Begin function RDCost_for_4x4Blocks_Chroma
	.p2align	4, 0x90
	.type	RDCost_for_4x4Blocks_Chroma,@function
RDCost_for_4x4Blocks_Chroma:            # @RDCost_for_4x4Blocks_Chroma
	.cfi_startproc
# %bb.0:                                # %rand_bb
	pushq	%rbp
	.cfi_def_cfa_offset 16
	.cfi_offset %rbp, -16
	movq	%rsp, %rbp
	.cfi_def_cfa_register %rbp
	pushq	%r15
	pushq	%r14
	pushq	%rbx
	pushq	%rax
	.cfi_offset %rbx, -40
	.cfi_offset %r14, -32
	.cfi_offset %r15, -24
	movl	%edx, %r14d
	movl	%esi, %r15d
	movl	%edi, %ebx
	callq	get_urand
	cmpl	$0, %eax
	jne	.LBB5_5
# %bb.1:                                # %func_RDCost_for_4x4Blocks_Chroma.40
	movl	%ebx, %edi
	movl	%r15d, %esi
	movl	%r14d, %edx
	callq	RDCost_for_4x4Blocks_Chroma.40
	addq	$8, %rsp
	popq	%rbx
	popq	%r14
	popq	%r15
	popq	%rbp
	.cfi_def_cfa %rsp, 8
	retq
.LBB5_2:                                # %func_RDCost_for_4x4Blocks_Chroma.59
	.cfi_def_cfa %rbp, 16
	movl	%ebx, %edi
	movl	%r15d, %esi
	movl	%r14d, %edx
	callq	RDCost_for_4x4Blocks_Chroma.59
	addq	$8, %rsp
	popq	%rbx
	popq	%r14
	popq	%r15
	popq	%rbp
	.cfi_def_cfa %rsp, 8
	retq
.LBB5_3:                                # %func_RDCost_for_4x4Blocks_Chroma.75
	.cfi_def_cfa %rbp, 16
	movl	%ebx, %edi
	movl	%r15d, %esi
	movl	%r14d, %edx
	callq	RDCost_for_4x4Blocks_Chroma.75
	addq	$8, %rsp
	popq	%rbx
	popq	%r14
	popq	%r15
	popq	%rbp
	.cfi_def_cfa %rsp, 8
	retq
.LBB5_4:                                # %func_RDCost_for_4x4Blocks_Chroma.93
	.cfi_def_cfa %rbp, 16
	movl	%ebx, %edi
	movl	%r15d, %esi
	movl	%r14d, %edx
	callq	RDCost_for_4x4Blocks_Chroma.93
	addq	$8, %rsp
	popq	%rbx
	popq	%r14
	popq	%r15
	popq	%rbp
	.cfi_def_cfa %rsp, 8
	retq
.LBB5_5:                                # %ctrl0
	.cfi_def_cfa %rbp, 16
	cmpl	$1, %eax
	je	.LBB5_2
# %bb.6:                                # %ctrl1
	cmpl	$2, %eax
	je	.LBB5_3
	jmp	.LBB5_4
.Lfunc_end5:
	.size	RDCost_for_4x4Blocks_Chroma, .Lfunc_end5-RDCost_for_4x4Blocks_Chroma
	.cfi_endproc
                                        # -- End function
	.globl	Mode_Decision_for_4x4IntraBlocks # -- Begin function Mode_Decision_for_4x4IntraBlocks
	.p2align	4, 0x90
	.type	Mode_Decision_for_4x4IntraBlocks,@function
Mode_Decision_for_4x4IntraBlocks:       # @Mode_Decision_for_4x4IntraBlocks
	.cfi_startproc
# %bb.0:                                # %rand_bb
	pushq	%rbp
	.cfi_def_cfa_offset 16
	.cfi_offset %rbp, -16
	movq	%rsp, %rbp
	.cfi_def_cfa_register %rbp
	pushq	%r15
	pushq	%r14
	pushq	%rbx
	pushq	%rax
	.cfi_offset %rbx, -40
	.cfi_offset %r14, -32
	.cfi_offset %r15, -24
	movq	%rdx, %r14
	vmovsd	%xmm0, -32(%rbp)        # 8-byte Spill
	movl	%esi, %r15d
	movl	%edi, %ebx
	callq	get_urand
	cmpl	$0, %eax
	jne	.LBB6_5
# %bb.1:                                # %func_Mode_Decision_for_4x4IntraBlocks.12
	movl	%ebx, %edi
	movl	%r15d, %esi
	vmovsd	-32(%rbp), %xmm0        # 8-byte Reload
                                        # xmm0 = mem[0],zero
	movq	%r14, %rdx
	callq	Mode_Decision_for_4x4IntraBlocks.12
	addq	$8, %rsp
	popq	%rbx
	popq	%r14
	popq	%r15
	popq	%rbp
	.cfi_def_cfa %rsp, 8
	retq
.LBB6_2:                                # %func_Mode_Decision_for_4x4IntraBlocks.46
	.cfi_def_cfa %rbp, 16
	movl	%ebx, %edi
	movl	%r15d, %esi
	movq	%r14, %rdx
	callq	Mode_Decision_for_4x4IntraBlocks.46
	addq	$8, %rsp
	popq	%rbx
	popq	%r14
	popq	%r15
	popq	%rbp
	.cfi_def_cfa %rsp, 8
	retq
.LBB6_3:                                # %func_Mode_Decision_for_4x4IntraBlocks.50
	.cfi_def_cfa %rbp, 16
	movl	%ebx, %edi
	movl	%r15d, %esi
	movq	%r14, %rdx
	callq	Mode_Decision_for_4x4IntraBlocks.50
	addq	$8, %rsp
	popq	%rbx
	popq	%r14
	popq	%r15
	popq	%rbp
	.cfi_def_cfa %rsp, 8
	retq
.LBB6_4:                                # %func_Mode_Decision_for_4x4IntraBlocks.73
	.cfi_def_cfa %rbp, 16
	movl	%ebx, %edi
	movl	%r15d, %esi
	movq	%r14, %rdx
	callq	Mode_Decision_for_4x4IntraBlocks.73
	addq	$8, %rsp
	popq	%rbx
	popq	%r14
	popq	%r15
	popq	%rbp
	.cfi_def_cfa %rsp, 8
	retq
.LBB6_5:                                # %ctrl0
	.cfi_def_cfa %rbp, 16
	vmovsd	-32(%rbp), %xmm0        # 8-byte Reload
                                        # xmm0 = mem[0],zero
	cmpl	$1, %eax
	je	.LBB6_2
# %bb.6:                                # %ctrl1
	cmpl	$2, %eax
	je	.LBB6_3
	jmp	.LBB6_4
.Lfunc_end6:
	.size	Mode_Decision_for_4x4IntraBlocks, .Lfunc_end6-Mode_Decision_for_4x4IntraBlocks
	.cfi_endproc
                                        # -- End function
	.globl	Mode_Decision_for_8x8IntraBlocks # -- Begin function Mode_Decision_for_8x8IntraBlocks
	.p2align	4, 0x90
	.type	Mode_Decision_for_8x8IntraBlocks,@function
Mode_Decision_for_8x8IntraBlocks:       # @Mode_Decision_for_8x8IntraBlocks
	.cfi_startproc
# %bb.0:                                # %rand_bb
	pushq	%rbp
	.cfi_def_cfa_offset 16
	.cfi_offset %rbp, -16
	movq	%rsp, %rbp
	.cfi_def_cfa_register %rbp
	pushq	%r14
	pushq	%rbx
	subq	$16, %rsp
	.cfi_offset %rbx, -32
	.cfi_offset %r14, -24
	movq	%rsi, %r14
	vmovsd	%xmm0, -24(%rbp)        # 8-byte Spill
	movl	%edi, %ebx
	callq	get_urand
	cmpl	$0, %eax
	jne	.LBB7_5
# %bb.1:                                # %func_Mode_Decision_for_8x8IntraBlocks.22
	movl	%ebx, %edi
	vmovsd	-24(%rbp), %xmm0        # 8-byte Reload
                                        # xmm0 = mem[0],zero
	movq	%r14, %rsi
	callq	Mode_Decision_for_8x8IntraBlocks.22
	addq	$16, %rsp
	popq	%rbx
	popq	%r14
	popq	%rbp
	.cfi_def_cfa %rsp, 8
	retq
.LBB7_2:                                # %func_Mode_Decision_for_8x8IntraBlocks.32
	.cfi_def_cfa %rbp, 16
	movl	%ebx, %edi
	movq	%r14, %rsi
	callq	Mode_Decision_for_8x8IntraBlocks.32
	addq	$16, %rsp
	popq	%rbx
	popq	%r14
	popq	%rbp
	.cfi_def_cfa %rsp, 8
	retq
.LBB7_3:                                # %func_Mode_Decision_for_8x8IntraBlocks.42
	.cfi_def_cfa %rbp, 16
	movl	%ebx, %edi
	movq	%r14, %rsi
	callq	Mode_Decision_for_8x8IntraBlocks.42
	addq	$16, %rsp
	popq	%rbx
	popq	%r14
	popq	%rbp
	.cfi_def_cfa %rsp, 8
	retq
.LBB7_4:                                # %func_Mode_Decision_for_8x8IntraBlocks.60
	.cfi_def_cfa %rbp, 16
	movl	%ebx, %edi
	movq	%r14, %rsi
	callq	Mode_Decision_for_8x8IntraBlocks.60
	addq	$16, %rsp
	popq	%rbx
	popq	%r14
	popq	%rbp
	.cfi_def_cfa %rsp, 8
	retq
.LBB7_5:                                # %ctrl0
	.cfi_def_cfa %rbp, 16
	vmovsd	-24(%rbp), %xmm0        # 8-byte Reload
                                        # xmm0 = mem[0],zero
	cmpl	$1, %eax
	je	.LBB7_2
# %bb.6:                                # %ctrl1
	cmpl	$2, %eax
	je	.LBB7_3
	jmp	.LBB7_4
.Lfunc_end7:
	.size	Mode_Decision_for_8x8IntraBlocks, .Lfunc_end7-Mode_Decision_for_8x8IntraBlocks
	.cfi_endproc
                                        # -- End function
	.globl	Mode_Decision_for_Intra4x4Macroblock # -- Begin function Mode_Decision_for_Intra4x4Macroblock
	.p2align	4, 0x90
	.type	Mode_Decision_for_Intra4x4Macroblock,@function
Mode_Decision_for_Intra4x4Macroblock:   # @Mode_Decision_for_Intra4x4Macroblock
	.cfi_startproc
# %bb.0:                                # %rand_bb
	pushq	%rbp
	.cfi_def_cfa_offset 16
	.cfi_offset %rbp, -16
	movq	%rsp, %rbp
	.cfi_def_cfa_register %rbp
	pushq	%rbx
	pushq	%rax
	.cfi_offset %rbx, -24
	movq	%rdi, %rbx
	vmovsd	%xmm0, -16(%rbp)        # 8-byte Spill
	callq	get_urand
	cmpl	$0, %eax
	jne	.LBB8_5
# %bb.1:                                # %func_Mode_Decision_for_Intra4x4Macroblock.30
	vmovsd	-16(%rbp), %xmm0        # 8-byte Reload
                                        # xmm0 = mem[0],zero
	movq	%rbx, %rdi
	callq	Mode_Decision_for_Intra4x4Macroblock.30
	addq	$8, %rsp
	popq	%rbx
	popq	%rbp
	.cfi_def_cfa %rsp, 8
	retq
.LBB8_2:                                # %func_Mode_Decision_for_Intra4x4Macroblock.39
	.cfi_def_cfa %rbp, 16
	movq	%rbx, %rdi
	callq	Mode_Decision_for_Intra4x4Macroblock.39
	addq	$8, %rsp
	popq	%rbx
	popq	%rbp
	.cfi_def_cfa %rsp, 8
	retq
.LBB8_3:                                # %func_Mode_Decision_for_Intra4x4Macroblock.47
	.cfi_def_cfa %rbp, 16
	movq	%rbx, %rdi
	callq	Mode_Decision_for_Intra4x4Macroblock.47
	addq	$8, %rsp
	popq	%rbx
	popq	%rbp
	.cfi_def_cfa %rsp, 8
	retq
.LBB8_4:                                # %func_Mode_Decision_for_Intra4x4Macroblock.100
	.cfi_def_cfa %rbp, 16
	movq	%rbx, %rdi
	callq	Mode_Decision_for_Intra4x4Macroblock.100
	addq	$8, %rsp
	popq	%rbx
	popq	%rbp
	.cfi_def_cfa %rsp, 8
	retq
.LBB8_5:                                # %ctrl0
	.cfi_def_cfa %rbp, 16
	vmovsd	-16(%rbp), %xmm0        # 8-byte Reload
                                        # xmm0 = mem[0],zero
	cmpl	$1, %eax
	je	.LBB8_2
# %bb.6:                                # %ctrl1
	cmpl	$2, %eax
	je	.LBB8_3
	jmp	.LBB8_4
.Lfunc_end8:
	.size	Mode_Decision_for_Intra4x4Macroblock, .Lfunc_end8-Mode_Decision_for_Intra4x4Macroblock
	.cfi_endproc
                                        # -- End function
	.globl	RDCost_for_8x8blocks    # -- Begin function RDCost_for_8x8blocks
	.p2align	4, 0x90
	.type	RDCost_for_8x8blocks,@function
RDCost_for_8x8blocks:                   # @RDCost_for_8x8blocks
	.cfi_startproc
# %bb.0:                                # %rand_bb
	pushq	%rbp
	.cfi_def_cfa_offset 16
	.cfi_offset %rbp, -16
	movq	%rsp, %rbp
	.cfi_def_cfa_register %rbp
	pushq	%r15
	pushq	%r14
	pushq	%r13
	pushq	%r12
	pushq	%rbx
	subq	$24, %rsp
	.cfi_offset %rbx, -56
	.cfi_offset %r12, -48
	.cfi_offset %r13, -40
	.cfi_offset %r14, -32
	.cfi_offset %r15, -24
	movl	%r9d, -44(%rbp)         # 4-byte Spill
	movl	%r8d, %r12d
	movl	%ecx, %r13d
	movl	%edx, %ebx
	vmovsd	%xmm0, -56(%rbp)        # 8-byte Spill
	movq	%rsi, %r15
	movq	%rdi, %r14
	callq	get_urand
	cmpl	$0, %eax
	jne	.LBB9_5
# %bb.1:                                # %func_RDCost_for_8x8blocks.43
	movq	%r14, %rdi
	movq	%r15, %rsi
	vmovsd	-56(%rbp), %xmm0        # 8-byte Reload
                                        # xmm0 = mem[0],zero
	movl	%ebx, %edx
	movl	%r13d, %ecx
	movswl	%r12w, %r8d
	movswl	-44(%rbp), %r9d         # 2-byte Folded Reload
	movswl	16(%rbp), %eax
	movl	%eax, (%rsp)
	callq	RDCost_for_8x8blocks.43
	addq	$24, %rsp
	popq	%rbx
	popq	%r12
	popq	%r13
	popq	%r14
	popq	%r15
	popq	%rbp
	.cfi_def_cfa %rsp, 8
	retq
.LBB9_2:                                # %func_RDCost_for_8x8blocks.68
	.cfi_def_cfa %rbp, 16
	movq	%r14, %rdi
	movl	%ebx, %edx
	movl	%r13d, %ecx
	movswl	%r12w, %r8d
	movswl	%r15w, %r9d
	movswl	%r10w, %eax
	movl	%eax, (%rsp)
	callq	RDCost_for_8x8blocks.68
	addq	$24, %rsp
	popq	%rbx
	popq	%r12
	popq	%r13
	popq	%r14
	popq	%r15
	popq	%rbp
	.cfi_def_cfa %rsp, 8
	retq
.LBB9_3:                                # %func_RDCost_for_8x8blocks.81
	.cfi_def_cfa %rbp, 16
	movq	%r14, %rdi
	movswl	%r12w, %r8d
	movswl	%r15w, %r9d
	movswl	%r10w, %eax
	movl	%eax, (%rsp)
	callq	RDCost_for_8x8blocks.81
	addq	$24, %rsp
	popq	%rbx
	popq	%r12
	popq	%r13
	popq	%r14
	popq	%r15
	popq	%rbp
	.cfi_def_cfa %rsp, 8
	retq
.LBB9_4:                                # %func_RDCost_for_8x8blocks.84
	.cfi_def_cfa %rbp, 16
	movq	%r14, %rdi
	movswl	%r12w, %r8d
	movswl	%r15w, %r9d
	movswl	%r10w, %eax
	movl	%eax, (%rsp)
	callq	RDCost_for_8x8blocks.84
	addq	$24, %rsp
	popq	%rbx
	popq	%r12
	popq	%r13
	popq	%r14
	popq	%r15
	popq	%rbp
	.cfi_def_cfa %rsp, 8
	retq
.LBB9_5:                                # %ctrl0
	.cfi_def_cfa %rbp, 16
	movq	%r15, %rsi
	vmovsd	-56(%rbp), %xmm0        # 8-byte Reload
                                        # xmm0 = mem[0],zero
	movw	16(%rbp), %r10w
	movl	-44(%rbp), %r15d        # 4-byte Reload
	cmpl	$1, %eax
	je	.LBB9_2
# %bb.6:                                # %ctrl1
	cmpl	$2, %eax
	movl	%r13d, %ecx
	movl	%ebx, %edx
	je	.LBB9_3
	jmp	.LBB9_4
.Lfunc_end9:
	.size	RDCost_for_8x8blocks, .Lfunc_end9-RDCost_for_8x8blocks
	.cfi_endproc
                                        # -- End function
	.globl	I16Offset               # -- Begin function I16Offset
	.p2align	4, 0x90
	.type	I16Offset,@function
I16Offset:                              # @I16Offset
	.cfi_startproc
# %bb.0:                                # %rand_bb
	pushq	%rbp
	.cfi_def_cfa_offset 16
	.cfi_offset %rbp, -16
	movq	%rsp, %rbp
	.cfi_def_cfa_register %rbp
	pushq	%r14
	pushq	%rbx
	.cfi_offset %rbx, -32
	.cfi_offset %r14, -24
	movl	%esi, %r14d
	movl	%edi, %ebx
	callq	get_urand
	cmpl	$0, %eax
	jne	.LBB10_2
# %bb.1:                                # %func_I16Offset.5
	movl	%ebx, %edi
	movl	%r14d, %esi
	callq	I16Offset.5
	popq	%rbx
	popq	%r14
	popq	%rbp
	.cfi_def_cfa %rsp, 8
	retq
.LBB10_2:                               # %func_I16Offset.35
	.cfi_def_cfa %rbp, 16
	movl	%ebx, %edi
	movl	%r14d, %esi
	callq	I16Offset.35
	popq	%rbx
	popq	%r14
	popq	%rbp
	.cfi_def_cfa %rsp, 8
	retq
.Lfunc_end10:
	.size	I16Offset, .Lfunc_end10-I16Offset
	.cfi_endproc
                                        # -- End function
	.globl	SetModesAndRefframeForBlocks # -- Begin function SetModesAndRefframeForBlocks
	.p2align	4, 0x90
	.type	SetModesAndRefframeForBlocks,@function
SetModesAndRefframeForBlocks:           # @SetModesAndRefframeForBlocks
	.cfi_startproc
# %bb.0:                                # %rand_bb
	pushq	%rbp
	.cfi_def_cfa_offset 16
	.cfi_offset %rbp, -16
	movq	%rsp, %rbp
	.cfi_def_cfa_register %rbp
	pushq	%rbx
	pushq	%rax
	.cfi_offset %rbx, -24
	movl	%edi, %ebx
	callq	get_urand
	cmpl	$0, %eax
	jne	.LBB11_5
# %bb.1:                                # %func_SetModesAndRefframeForBlocks.6
	movl	%ebx, %edi
	callq	SetModesAndRefframeForBlocks.6
	addq	$8, %rsp
	popq	%rbx
	popq	%rbp
	.cfi_def_cfa %rsp, 8
	retq
.LBB11_2:                               # %func_SetModesAndRefframeForBlocks.37
	.cfi_def_cfa %rbp, 16
	movl	%ebx, %edi
	callq	SetModesAndRefframeForBlocks.37
	addq	$8, %rsp
	popq	%rbx
	popq	%rbp
	.cfi_def_cfa %rsp, 8
	retq
.LBB11_3:                               # %func_SetModesAndRefframeForBlocks.70
	.cfi_def_cfa %rbp, 16
	movl	%ebx, %edi
	callq	SetModesAndRefframeForBlocks.70
	addq	$8, %rsp
	popq	%rbx
	popq	%rbp
	.cfi_def_cfa %rsp, 8
	retq
.LBB11_4:                               # %func_SetModesAndRefframeForBlocks.83
	.cfi_def_cfa %rbp, 16
	movl	%ebx, %edi
	callq	SetModesAndRefframeForBlocks.83
	addq	$8, %rsp
	popq	%rbx
	popq	%rbp
	.cfi_def_cfa %rsp, 8
	retq
.LBB11_5:                               # %ctrl0
	.cfi_def_cfa %rbp, 16
	cmpl	$1, %eax
	je	.LBB11_2
# %bb.6:                                # %ctrl1
	cmpl	$2, %eax
	je	.LBB11_3
	jmp	.LBB11_4
.Lfunc_end11:
	.size	SetModesAndRefframeForBlocks, .Lfunc_end11-SetModesAndRefframeForBlocks
	.cfi_endproc
                                        # -- End function
	.globl	Intra16x16_Mode_Decision # -- Begin function Intra16x16_Mode_Decision
	.p2align	4, 0x90
	.type	Intra16x16_Mode_Decision,@function
Intra16x16_Mode_Decision:               # @Intra16x16_Mode_Decision
	.cfi_startproc
# %bb.0:                                # %rand_bb
	pushq	%rbp
	.cfi_def_cfa_offset 16
	.cfi_offset %rbp, -16
	movq	%rsp, %rbp
	.cfi_def_cfa_register %rbp
	pushq	%r14
	pushq	%rbx
	.cfi_offset %rbx, -32
	.cfi_offset %r14, -24
	movq	%rsi, %r14
	movq	%rdi, %rbx
	callq	get_urand
	cmpl	$0, %eax
	jne	.LBB12_5
# %bb.1:                                # %func_Intra16x16_Mode_Decision.36
	movq	%rbx, %rdi
	movq	%r14, %rsi
	callq	Intra16x16_Mode_Decision.36
	popq	%rbx
	popq	%r14
	popq	%rbp
	.cfi_def_cfa %rsp, 8
	retq
.LBB12_2:                               # %func_Intra16x16_Mode_Decision.69
	.cfi_def_cfa %rbp, 16
	movq	%rbx, %rdi
	movq	%r14, %rsi
	callq	Intra16x16_Mode_Decision.69
	popq	%rbx
	popq	%r14
	popq	%rbp
	.cfi_def_cfa %rsp, 8
	retq
.LBB12_3:                               # %func_Intra16x16_Mode_Decision.90
	.cfi_def_cfa %rbp, 16
	movq	%rbx, %rdi
	movq	%r14, %rsi
	callq	Intra16x16_Mode_Decision.90
	popq	%rbx
	popq	%r14
	popq	%rbp
	.cfi_def_cfa %rsp, 8
	retq
.LBB12_4:                               # %func_Intra16x16_Mode_Decision.94
	.cfi_def_cfa %rbp, 16
	movq	%rbx, %rdi
	movq	%r14, %rsi
	callq	Intra16x16_Mode_Decision.94
	popq	%rbx
	popq	%r14
	popq	%rbp
	.cfi_def_cfa %rsp, 8
	retq
.LBB12_5:                               # %ctrl0
	.cfi_def_cfa %rbp, 16
	cmpl	$1, %eax
	je	.LBB12_2
# %bb.6:                                # %ctrl1
	cmpl	$2, %eax
	je	.LBB12_3
	jmp	.LBB12_4
.Lfunc_end12:
	.size	Intra16x16_Mode_Decision, .Lfunc_end12-Intra16x16_Mode_Decision
	.cfi_endproc
                                        # -- End function
	.globl	SetCoeffAndReconstruction8x8 # -- Begin function SetCoeffAndReconstruction8x8
	.p2align	4, 0x90
	.type	SetCoeffAndReconstruction8x8,@function
SetCoeffAndReconstruction8x8:           # @SetCoeffAndReconstruction8x8
	.cfi_startproc
# %bb.0:                                # %rand_bb
	pushq	%rbp
	.cfi_def_cfa_offset 16
	.cfi_offset %rbp, -16
	movq	%rsp, %rbp
	.cfi_def_cfa_register %rbp
	pushq	%rbx
	pushq	%rax
	.cfi_offset %rbx, -24
	movq	%rdi, %rbx
	callq	get_urand
	cmpl	$0, %eax
	jne	.LBB13_5
# %bb.1:                                # %func_SetCoeffAndReconstruction8x8.21
	movq	%rbx, %rdi
	callq	SetCoeffAndReconstruction8x8.21
	addq	$8, %rsp
	popq	%rbx
	popq	%rbp
	.cfi_def_cfa %rsp, 8
	retq
.LBB13_2:                               # %func_SetCoeffAndReconstruction8x8.55
	.cfi_def_cfa %rbp, 16
	movq	%rbx, %rdi
	callq	SetCoeffAndReconstruction8x8.55
	addq	$8, %rsp
	popq	%rbx
	popq	%rbp
	.cfi_def_cfa %rsp, 8
	retq
.LBB13_3:                               # %func_SetCoeffAndReconstruction8x8.89
	.cfi_def_cfa %rbp, 16
	movq	%rbx, %rdi
	callq	SetCoeffAndReconstruction8x8.89
	addq	$8, %rsp
	popq	%rbx
	popq	%rbp
	.cfi_def_cfa %rsp, 8
	retq
.LBB13_4:                               # %func_SetCoeffAndReconstruction8x8.99
	.cfi_def_cfa %rbp, 16
	movq	%rbx, %rdi
	callq	SetCoeffAndReconstruction8x8.99
	addq	$8, %rsp
	popq	%rbx
	popq	%rbp
	.cfi_def_cfa %rsp, 8
	retq
.LBB13_5:                               # %ctrl0
	.cfi_def_cfa %rbp, 16
	cmpl	$1, %eax
	je	.LBB13_2
# %bb.6:                                # %ctrl1
	cmpl	$2, %eax
	je	.LBB13_3
	jmp	.LBB13_4
.Lfunc_end13:
	.size	SetCoeffAndReconstruction8x8, .Lfunc_end13-SetCoeffAndReconstruction8x8
	.cfi_endproc
                                        # -- End function
	.globl	StoreMV8x8              # -- Begin function StoreMV8x8
	.p2align	4, 0x90
	.type	StoreMV8x8,@function
StoreMV8x8:                             # @StoreMV8x8
	.cfi_startproc
# %bb.0:                                # %rand_bb
	pushq	%rbp
	.cfi_def_cfa_offset 16
	.cfi_offset %rbp, -16
	movq	%rsp, %rbp
	.cfi_def_cfa_register %rbp
	pushq	%rbx
	pushq	%rax
	.cfi_offset %rbx, -24
	movl	%edi, %ebx
	callq	get_urand
	cmpl	$0, %eax
	jne	.LBB14_5
# %bb.1:                                # %func_StoreMV8x8.49
	movl	%ebx, %edi
	callq	StoreMV8x8.49
	addq	$8, %rsp
	popq	%rbx
	popq	%rbp
	.cfi_def_cfa %rsp, 8
	retq
.LBB14_2:                               # %func_StoreMV8x8.66
	.cfi_def_cfa %rbp, 16
	movl	%ebx, %edi
	callq	StoreMV8x8.66
	addq	$8, %rsp
	popq	%rbx
	popq	%rbp
	.cfi_def_cfa %rsp, 8
	retq
.LBB14_3:                               # %func_StoreMV8x8.71
	.cfi_def_cfa %rbp, 16
	movl	%ebx, %edi
	callq	StoreMV8x8.71
	addq	$8, %rsp
	popq	%rbx
	popq	%rbp
	.cfi_def_cfa %rsp, 8
	retq
.LBB14_4:                               # %func_StoreMV8x8.72
	.cfi_def_cfa %rbp, 16
	movl	%ebx, %edi
	callq	StoreMV8x8.72
	addq	$8, %rsp
	popq	%rbx
	popq	%rbp
	.cfi_def_cfa %rsp, 8
	retq
.LBB14_5:                               # %ctrl0
	.cfi_def_cfa %rbp, 16
	cmpl	$1, %eax
	je	.LBB14_2
# %bb.6:                                # %ctrl1
	cmpl	$2, %eax
	je	.LBB14_3
	jmp	.LBB14_4
.Lfunc_end14:
	.size	StoreMV8x8, .Lfunc_end14-StoreMV8x8
	.cfi_endproc
                                        # -- End function
	.globl	RestoreMV8x8            # -- Begin function RestoreMV8x8
	.p2align	4, 0x90
	.type	RestoreMV8x8,@function
RestoreMV8x8:                           # @RestoreMV8x8
	.cfi_startproc
# %bb.0:                                # %rand_bb
	pushq	%rbp
	.cfi_def_cfa_offset 16
	.cfi_offset %rbp, -16
	movq	%rsp, %rbp
	.cfi_def_cfa_register %rbp
	pushq	%rbx
	pushq	%rax
	.cfi_offset %rbx, -24
	movl	%edi, %ebx
	callq	get_urand
	cmpl	$0, %eax
	jne	.LBB15_5
# %bb.1:                                # %func_RestoreMV8x8.18
	movl	%ebx, %edi
	callq	RestoreMV8x8.18
	addq	$8, %rsp
	popq	%rbx
	popq	%rbp
	.cfi_def_cfa %rsp, 8
	retq
.LBB15_2:                               # %func_RestoreMV8x8.24
	.cfi_def_cfa %rbp, 16
	movl	%ebx, %edi
	callq	RestoreMV8x8.24
	addq	$8, %rsp
	popq	%rbx
	popq	%rbp
	.cfi_def_cfa %rsp, 8
	retq
.LBB15_3:                               # %func_RestoreMV8x8.29
	.cfi_def_cfa %rbp, 16
	movl	%ebx, %edi
	callq	RestoreMV8x8.29
	addq	$8, %rsp
	popq	%rbx
	popq	%rbp
	.cfi_def_cfa %rsp, 8
	retq
.LBB15_4:                               # %func_RestoreMV8x8.44
	.cfi_def_cfa %rbp, 16
	movl	%ebx, %edi
	callq	RestoreMV8x8.44
	addq	$8, %rsp
	popq	%rbx
	popq	%rbp
	.cfi_def_cfa %rsp, 8
	retq
.LBB15_5:                               # %ctrl0
	.cfi_def_cfa %rbp, 16
	cmpl	$1, %eax
	je	.LBB15_2
# %bb.6:                                # %ctrl1
	cmpl	$2, %eax
	je	.LBB15_3
	jmp	.LBB15_4
.Lfunc_end15:
	.size	RestoreMV8x8, .Lfunc_end15-RestoreMV8x8
	.cfi_endproc
                                        # -- End function
	.globl	SetMotionVectorsMB      # -- Begin function SetMotionVectorsMB
	.p2align	4, 0x90
	.type	SetMotionVectorsMB,@function
SetMotionVectorsMB:                     # @SetMotionVectorsMB
	.cfi_startproc
# %bb.0:                                # %rand_bb
	pushq	%rbp
	.cfi_def_cfa_offset 16
	.cfi_offset %rbp, -16
	movq	%rsp, %rbp
	.cfi_def_cfa_register %rbp
	pushq	%r14
	pushq	%rbx
	.cfi_offset %rbx, -32
	.cfi_offset %r14, -24
	movl	%esi, %r14d
	movq	%rdi, %rbx
	callq	get_urand
	cmpl	$0, %eax
	jne	.LBB16_5
# %bb.1:                                # %func_SetMotionVectorsMB.7
	movq	%rbx, %rdi
	movl	%r14d, %esi
	callq	SetMotionVectorsMB.7
	popq	%rbx
	popq	%r14
	popq	%rbp
	.cfi_def_cfa %rsp, 8
	retq
.LBB16_2:                               # %func_SetMotionVectorsMB.23
	.cfi_def_cfa %rbp, 16
	movq	%rbx, %rdi
	movl	%r14d, %esi
	callq	SetMotionVectorsMB.23
	popq	%rbx
	popq	%r14
	popq	%rbp
	.cfi_def_cfa %rsp, 8
	retq
.LBB16_3:                               # %func_SetMotionVectorsMB.25
	.cfi_def_cfa %rbp, 16
	movq	%rbx, %rdi
	movl	%r14d, %esi
	callq	SetMotionVectorsMB.25
	popq	%rbx
	popq	%r14
	popq	%rbp
	.cfi_def_cfa %rsp, 8
	retq
.LBB16_4:                               # %func_SetMotionVectorsMB.28
	.cfi_def_cfa %rbp, 16
	movq	%rbx, %rdi
	movl	%r14d, %esi
	callq	SetMotionVectorsMB.28
	popq	%rbx
	popq	%r14
	popq	%rbp
	.cfi_def_cfa %rsp, 8
	retq
.LBB16_5:                               # %ctrl0
	.cfi_def_cfa %rbp, 16
	cmpl	$1, %eax
	je	.LBB16_2
# %bb.6:                                # %ctrl1
	cmpl	$2, %eax
	je	.LBB16_3
	jmp	.LBB16_4
.Lfunc_end16:
	.size	SetMotionVectorsMB, .Lfunc_end16-SetMotionVectorsMB
	.cfi_endproc
                                        # -- End function
	.globl	RDCost_for_macroblocks  # -- Begin function RDCost_for_macroblocks
	.p2align	4, 0x90
	.type	RDCost_for_macroblocks,@function
RDCost_for_macroblocks:                 # @RDCost_for_macroblocks
	.cfi_startproc
# %bb.0:                                # %rand_bb
	pushq	%rbp
	.cfi_def_cfa_offset 16
	.cfi_offset %rbp, -16
	movq	%rsp, %rbp
	.cfi_def_cfa_register %rbp
	pushq	%r15
	pushq	%r14
	pushq	%rbx
	pushq	%rax
	.cfi_offset %rbx, -40
	.cfi_offset %r14, -32
	.cfi_offset %r15, -24
	movl	%edx, %r14d
	movq	%rsi, %r15
	movl	%edi, %ebx
	vmovsd	%xmm0, -32(%rbp)        # 8-byte Spill
	callq	get_urand
	cmpl	$0, %eax
	jne	.LBB17_5
# %bb.1:                                # %func_RDCost_for_macroblocks.41
	vmovsd	-32(%rbp), %xmm0        # 8-byte Reload
                                        # xmm0 = mem[0],zero
	movl	%ebx, %edi
	movq	%r15, %rsi
	movl	%r14d, %edx
	callq	RDCost_for_macroblocks.41
	addq	$8, %rsp
	popq	%rbx
	popq	%r14
	popq	%r15
	popq	%rbp
	.cfi_def_cfa %rsp, 8
	retq
.LBB17_2:                               # %func_RDCost_for_macroblocks.77
	.cfi_def_cfa %rbp, 16
	movl	%ebx, %edi
	movq	%r15, %rsi
	movl	%r14d, %edx
	callq	RDCost_for_macroblocks.77
	addq	$8, %rsp
	popq	%rbx
	popq	%r14
	popq	%r15
	popq	%rbp
	.cfi_def_cfa %rsp, 8
	retq
.LBB17_3:                               # %func_RDCost_for_macroblocks.79
	.cfi_def_cfa %rbp, 16
	movl	%ebx, %edi
	movq	%r15, %rsi
	movl	%r14d, %edx
	callq	RDCost_for_macroblocks.79
	addq	$8, %rsp
	popq	%rbx
	popq	%r14
	popq	%r15
	popq	%rbp
	.cfi_def_cfa %rsp, 8
	retq
.LBB17_4:                               # %func_RDCost_for_macroblocks.97
	.cfi_def_cfa %rbp, 16
	movl	%ebx, %edi
	movq	%r15, %rsi
	movl	%r14d, %edx
	callq	RDCost_for_macroblocks.97
	addq	$8, %rsp
	popq	%rbx
	popq	%r14
	popq	%r15
	popq	%rbp
	.cfi_def_cfa %rsp, 8
	retq
.LBB17_5:                               # %ctrl0
	.cfi_def_cfa %rbp, 16
	vmovsd	-32(%rbp), %xmm0        # 8-byte Reload
                                        # xmm0 = mem[0],zero
	cmpl	$1, %eax
	je	.LBB17_2
# %bb.6:                                # %ctrl1
	cmpl	$2, %eax
	je	.LBB17_3
	jmp	.LBB17_4
.Lfunc_end17:
	.size	RDCost_for_macroblocks, .Lfunc_end17-RDCost_for_macroblocks
	.cfi_endproc
                                        # -- End function
	.globl	store_macroblock_parameters # -- Begin function store_macroblock_parameters
	.p2align	4, 0x90
	.type	store_macroblock_parameters,@function
store_macroblock_parameters:            # @store_macroblock_parameters
	.cfi_startproc
# %bb.0:                                # %rand_bb
	pushq	%rbp
	.cfi_def_cfa_offset 16
	.cfi_offset %rbp, -16
	movq	%rsp, %rbp
	.cfi_def_cfa_register %rbp
	pushq	%rbx
	pushq	%rax
	.cfi_offset %rbx, -24
	movl	%edi, %ebx
	callq	get_urand
	cmpl	$0, %eax
	jne	.LBB18_5
# %bb.1:                                # %func_store_macroblock_parameters.63
	movl	%ebx, %edi
	callq	store_macroblock_parameters.63
	addq	$8, %rsp
	popq	%rbx
	popq	%rbp
	.cfi_def_cfa %rsp, 8
	retq
.LBB18_2:                               # %func_store_macroblock_parameters.78
	.cfi_def_cfa %rbp, 16
	movl	%ebx, %edi
	callq	store_macroblock_parameters.78
	addq	$8, %rsp
	popq	%rbx
	popq	%rbp
	.cfi_def_cfa %rsp, 8
	retq
.LBB18_3:                               # %func_store_macroblock_parameters.82
	.cfi_def_cfa %rbp, 16
	movl	%ebx, %edi
	callq	store_macroblock_parameters.82
	addq	$8, %rsp
	popq	%rbx
	popq	%rbp
	.cfi_def_cfa %rsp, 8
	retq
.LBB18_4:                               # %func_store_macroblock_parameters.95
	.cfi_def_cfa %rbp, 16
	movl	%ebx, %edi
	callq	store_macroblock_parameters.95
	addq	$8, %rsp
	popq	%rbx
	popq	%rbp
	.cfi_def_cfa %rsp, 8
	retq
.LBB18_5:                               # %ctrl0
	.cfi_def_cfa %rbp, 16
	cmpl	$1, %eax
	je	.LBB18_2
# %bb.6:                                # %ctrl1
	cmpl	$2, %eax
	je	.LBB18_3
	jmp	.LBB18_4
.Lfunc_end18:
	.size	store_macroblock_parameters, .Lfunc_end18-store_macroblock_parameters
	.cfi_endproc
                                        # -- End function
	.globl	set_stored_macroblock_parameters # -- Begin function set_stored_macroblock_parameters
	.p2align	4, 0x90
	.type	set_stored_macroblock_parameters,@function
set_stored_macroblock_parameters:       # @set_stored_macroblock_parameters
	.cfi_startproc
# %bb.0:                                # %rand_bb
	pushq	%rbp
	.cfi_def_cfa_offset 16
	.cfi_offset %rbp, -16
	movq	%rsp, %rbp
	.cfi_def_cfa_register %rbp
	callq	get_urand
	cmpl	$0, %eax
	jne	.LBB19_5
# %bb.1:                                # %func_set_stored_macroblock_parameters.9
	callq	set_stored_macroblock_parameters.9
	popq	%rbp
	.cfi_def_cfa %rsp, 8
	retq
.LBB19_2:                               # %func_set_stored_macroblock_parameters.10
	.cfi_def_cfa %rbp, 16
	callq	set_stored_macroblock_parameters.10
	popq	%rbp
	.cfi_def_cfa %rsp, 8
	retq
.LBB19_3:                               # %func_set_stored_macroblock_parameters.14
	.cfi_def_cfa %rbp, 16
	callq	set_stored_macroblock_parameters.14
	popq	%rbp
	.cfi_def_cfa %rsp, 8
	retq
.LBB19_4:                               # %func_set_stored_macroblock_parameters.16
	.cfi_def_cfa %rbp, 16
	callq	set_stored_macroblock_parameters.16
	popq	%rbp
	.cfi_def_cfa %rsp, 8
	retq
.LBB19_5:                               # %ctrl0
	.cfi_def_cfa %rbp, 16
	cmpl	$1, %eax
	je	.LBB19_2
# %bb.6:                                # %ctrl1
	cmpl	$2, %eax
	je	.LBB19_3
	jmp	.LBB19_4
.Lfunc_end19:
	.size	set_stored_macroblock_parameters, .Lfunc_end19-set_stored_macroblock_parameters
	.cfi_endproc
                                        # -- End function
	.globl	SetRefAndMotionVectors  # -- Begin function SetRefAndMotionVectors
	.p2align	4, 0x90
	.type	SetRefAndMotionVectors,@function
SetRefAndMotionVectors:                 # @SetRefAndMotionVectors
	.cfi_startproc
# %bb.0:                                # %rand_bb
	pushq	%rbp
	.cfi_def_cfa_offset 16
	.cfi_offset %rbp, -16
	movq	%rsp, %rbp
	.cfi_def_cfa_register %rbp
	pushq	%r15
	pushq	%r14
	pushq	%r13
	pushq	%r12
	pushq	%rbx
	pushq	%rax
	.cfi_offset %rbx, -56
	.cfi_offset %r12, -48
	.cfi_offset %r13, -40
	.cfi_offset %r14, -32
	.cfi_offset %r15, -24
	movl	%r8d, %r14d
	movl	%ecx, %r15d
	movl	%edx, %r12d
	movl	%esi, %r13d
	movl	%edi, %ebx
	callq	get_urand
	cmpl	$0, %eax
	jne	.LBB20_5
# %bb.1:                                # %func_SetRefAndMotionVectors.1
	movl	%ebx, %edi
	movl	%r13d, %esi
	movl	%r12d, %edx
	movl	%r15d, %ecx
	movl	%r14d, %r8d
	callq	SetRefAndMotionVectors.1
	addq	$8, %rsp
	popq	%rbx
	popq	%r12
	popq	%r13
	popq	%r14
	popq	%r15
	popq	%rbp
	.cfi_def_cfa %rsp, 8
	retq
.LBB20_2:                               # %func_SetRefAndMotionVectors.20
	.cfi_def_cfa %rbp, 16
	movl	%ebx, %edi
	movl	%r13d, %esi
	movl	%r12d, %edx
	movl	%r15d, %ecx
	movl	%r14d, %r8d
	callq	SetRefAndMotionVectors.20
	addq	$8, %rsp
	popq	%rbx
	popq	%r12
	popq	%r13
	popq	%r14
	popq	%r15
	popq	%rbp
	.cfi_def_cfa %rsp, 8
	retq
.LBB20_3:                               # %func_SetRefAndMotionVectors.48
	.cfi_def_cfa %rbp, 16
	movl	%ebx, %edi
	movl	%r13d, %esi
	movl	%r12d, %edx
	movl	%r15d, %ecx
	movl	%r14d, %r8d
	callq	SetRefAndMotionVectors.48
	addq	$8, %rsp
	popq	%rbx
	popq	%r12
	popq	%r13
	popq	%r14
	popq	%r15
	popq	%rbp
	.cfi_def_cfa %rsp, 8
	retq
.LBB20_4:                               # %func_SetRefAndMotionVectors.54
	.cfi_def_cfa %rbp, 16
	movl	%ebx, %edi
	movl	%r13d, %esi
	movl	%r12d, %edx
	movl	%r15d, %ecx
	movl	%r14d, %r8d
	callq	SetRefAndMotionVectors.54
	addq	$8, %rsp
	popq	%rbx
	popq	%r12
	popq	%r13
	popq	%r14
	popq	%r15
	popq	%rbp
	.cfi_def_cfa %rsp, 8
	retq
.LBB20_5:                               # %ctrl0
	.cfi_def_cfa %rbp, 16
	cmpl	$1, %eax
	je	.LBB20_2
# %bb.6:                                # %ctrl1
	cmpl	$2, %eax
	je	.LBB20_3
	jmp	.LBB20_4
.Lfunc_end20:
	.size	SetRefAndMotionVectors, .Lfunc_end20-SetRefAndMotionVectors
	.cfi_endproc
                                        # -- End function
	.globl	field_flag_inference    # -- Begin function field_flag_inference
	.p2align	4, 0x90
	.type	field_flag_inference,@function
field_flag_inference:                   # @field_flag_inference
	.cfi_startproc
# %bb.0:                                # %rand_bb
	pushq	%rbp
	.cfi_def_cfa_offset 16
	.cfi_offset %rbp, -16
	movq	%rsp, %rbp
	.cfi_def_cfa_register %rbp
	callq	get_urand
	cmpl	$0, %eax
	jne	.LBB21_2
# %bb.1:                                # %func_field_flag_inference.26
	callq	field_flag_inference.26
	popq	%rbp
	.cfi_def_cfa %rsp, 8
	retq
.LBB21_2:                               # %func_field_flag_inference.57
	.cfi_def_cfa %rbp, 16
	callq	field_flag_inference.57
	popq	%rbp
	.cfi_def_cfa %rsp, 8
	retq
.Lfunc_end21:
	.size	field_flag_inference, .Lfunc_end21-field_flag_inference
	.cfi_endproc
                                        # -- End function
	.globl	StoreMVBlock8x8         # -- Begin function StoreMVBlock8x8
	.p2align	4, 0x90
	.type	StoreMVBlock8x8,@function
StoreMVBlock8x8:                        # @StoreMVBlock8x8
	.cfi_startproc
# %bb.0:                                # %rand_bb
	pushq	%rbp
	.cfi_def_cfa_offset 16
	.cfi_offset %rbp, -16
	movq	%rsp, %rbp
	.cfi_def_cfa_register %rbp
	pushq	%r15
	pushq	%r14
	pushq	%r13
	pushq	%r12
	pushq	%rbx
	subq	$24, %rsp
	.cfi_offset %rbx, -56
	.cfi_offset %r12, -48
	.cfi_offset %r13, -40
	.cfi_offset %r14, -32
	.cfi_offset %r15, -24
	movl	%r9d, -44(%rbp)         # 4-byte Spill
	movl	%r8d, %r12d
	movl	%ecx, %r13d
	movl	%edx, %ebx
	movl	%esi, %r14d
	movl	%edi, %r15d
	callq	get_urand
	cmpl	$0, %eax
	jne	.LBB22_5
# %bb.1:                                # %func_StoreMVBlock8x8.8
	movl	%r15d, %edi
	movl	%r14d, %esi
	movl	%ebx, %edx
	movl	%r13d, %ecx
	movl	%r12d, %r8d
	movl	-44(%rbp), %r9d         # 4-byte Reload
	movl	16(%rbp), %eax
	movl	%eax, (%rsp)
	callq	StoreMVBlock8x8.8
	addq	$24, %rsp
	popq	%rbx
	popq	%r12
	popq	%r13
	popq	%r14
	popq	%r15
	popq	%rbp
	.cfi_def_cfa %rsp, 8
	retq
.LBB22_2:                               # %func_StoreMVBlock8x8.15
	.cfi_def_cfa %rbp, 16
	movl	%r15d, %edi
	movl	%r14d, %esi
	movl	%ebx, %edx
	movl	%r13d, %ecx
	movl	%r12d, %r8d
	movl	%r10d, (%rsp)
	callq	StoreMVBlock8x8.15
	addq	$24, %rsp
	popq	%rbx
	popq	%r12
	popq	%r13
	popq	%r14
	popq	%r15
	popq	%rbp
	.cfi_def_cfa %rsp, 8
	retq
.LBB22_3:                               # %func_StoreMVBlock8x8.62
	.cfi_def_cfa %rbp, 16
	movl	%eax, (%rsp)
	callq	StoreMVBlock8x8.62
	addq	$24, %rsp
	popq	%rbx
	popq	%r12
	popq	%r13
	popq	%r14
	popq	%r15
	popq	%rbp
	.cfi_def_cfa %rsp, 8
	retq
.LBB22_4:                               # %func_StoreMVBlock8x8.67
	.cfi_def_cfa %rbp, 16
	movl	%eax, (%rsp)
	callq	StoreMVBlock8x8.67
	addq	$24, %rsp
	popq	%rbx
	popq	%r12
	popq	%r13
	popq	%r14
	popq	%r15
	popq	%rbp
	.cfi_def_cfa %rsp, 8
	retq
.LBB22_5:                               # %ctrl0
	.cfi_def_cfa %rbp, 16
	movl	16(%rbp), %r10d
	movl	-44(%rbp), %r9d         # 4-byte Reload
	cmpl	$1, %eax
	je	.LBB22_2
# %bb.6:                                # %ctrl1
	cmpl	$2, %eax
	movl	%r10d, %eax
	movl	%r12d, %r8d
	movl	%r13d, %ecx
	movl	%ebx, %edx
	movl	%r14d, %esi
	movl	%r15d, %edi
	je	.LBB22_3
	jmp	.LBB22_4
.Lfunc_end22:
	.size	StoreMVBlock8x8, .Lfunc_end22-StoreMVBlock8x8
	.cfi_endproc
                                        # -- End function
	.globl	RestoreMVBlock8x8       # -- Begin function RestoreMVBlock8x8
	.p2align	4, 0x90
	.type	RestoreMVBlock8x8,@function
RestoreMVBlock8x8:                      # @RestoreMVBlock8x8
	.cfi_startproc
# %bb.0:                                # %rand_bb
	pushq	%rbp
	.cfi_def_cfa_offset 16
	.cfi_offset %rbp, -16
	movq	%rsp, %rbp
	.cfi_def_cfa_register %rbp
	pushq	%r15
	pushq	%r14
	pushq	%r13
	pushq	%r12
	pushq	%rbx
	subq	$24, %rsp
	.cfi_offset %rbx, -56
	.cfi_offset %r12, -48
	.cfi_offset %r13, -40
	.cfi_offset %r14, -32
	.cfi_offset %r15, -24
	movl	%r9d, -44(%rbp)         # 4-byte Spill
	movl	%r8d, %r12d
	movl	%ecx, %r13d
	movl	%edx, %ebx
	movl	%esi, %r14d
	movl	%edi, %r15d
	callq	get_urand
	cmpl	$0, %eax
	jne	.LBB23_5
# %bb.1:                                # %func_RestoreMVBlock8x8.13
	movl	%r15d, %edi
	movl	%r14d, %esi
	movl	%ebx, %edx
	movl	%r13d, %ecx
	movl	%r12d, %r8d
	movl	-44(%rbp), %r9d         # 4-byte Reload
	movl	16(%rbp), %eax
	movl	%eax, (%rsp)
	callq	RestoreMVBlock8x8.13
	addq	$24, %rsp
	popq	%rbx
	popq	%r12
	popq	%r13
	popq	%r14
	popq	%r15
	popq	%rbp
	.cfi_def_cfa %rsp, 8
	retq
.LBB23_2:                               # %func_RestoreMVBlock8x8.17
	.cfi_def_cfa %rbp, 16
	movl	%r15d, %edi
	movl	%r14d, %esi
	movl	%ebx, %edx
	movl	%r13d, %ecx
	movl	%r12d, %r8d
	movl	%r10d, (%rsp)
	callq	RestoreMVBlock8x8.17
	addq	$24, %rsp
	popq	%rbx
	popq	%r12
	popq	%r13
	popq	%r14
	popq	%r15
	popq	%rbp
	.cfi_def_cfa %rsp, 8
	retq
.LBB23_3:                               # %func_RestoreMVBlock8x8.65
	.cfi_def_cfa %rbp, 16
	movl	%eax, (%rsp)
	callq	RestoreMVBlock8x8.65
	addq	$24, %rsp
	popq	%rbx
	popq	%r12
	popq	%r13
	popq	%r14
	popq	%r15
	popq	%rbp
	.cfi_def_cfa %rsp, 8
	retq
.LBB23_4:                               # %func_RestoreMVBlock8x8.76
	.cfi_def_cfa %rbp, 16
	movl	%eax, (%rsp)
	callq	RestoreMVBlock8x8.76
	addq	$24, %rsp
	popq	%rbx
	popq	%r12
	popq	%r13
	popq	%r14
	popq	%r15
	popq	%rbp
	.cfi_def_cfa %rsp, 8
	retq
.LBB23_5:                               # %ctrl0
	.cfi_def_cfa %rbp, 16
	movl	16(%rbp), %r10d
	movl	-44(%rbp), %r9d         # 4-byte Reload
	cmpl	$1, %eax
	je	.LBB23_2
# %bb.6:                                # %ctrl1
	cmpl	$2, %eax
	movl	%r10d, %eax
	movl	%r12d, %r8d
	movl	%r13d, %ecx
	movl	%ebx, %edx
	movl	%r14d, %esi
	movl	%r15d, %edi
	je	.LBB23_3
	jmp	.LBB23_4
.Lfunc_end23:
	.size	RestoreMVBlock8x8, .Lfunc_end23-RestoreMVBlock8x8
	.cfi_endproc
                                        # -- End function
	.globl	StoreNewMotionVectorsBlock8x8 # -- Begin function StoreNewMotionVectorsBlock8x8
	.p2align	4, 0x90
	.type	StoreNewMotionVectorsBlock8x8,@function
StoreNewMotionVectorsBlock8x8:          # @StoreNewMotionVectorsBlock8x8
	.cfi_startproc
# %bb.0:                                # %rand_bb
	pushq	%rbp
	.cfi_def_cfa_offset 16
	.cfi_offset %rbp, -16
	movq	%rsp, %rbp
	.cfi_def_cfa_register %rbp
	pushq	%r15
	pushq	%r14
	pushq	%r13
	pushq	%r12
	pushq	%rbx
	subq	$24, %rsp
	.cfi_offset %rbx, -56
	.cfi_offset %r12, -48
	.cfi_offset %r13, -40
	.cfi_offset %r14, -32
	.cfi_offset %r15, -24
	movl	%r9d, -44(%rbp)         # 4-byte Spill
	movl	%r8d, %r12d
	movl	%ecx, %r13d
	movl	%edx, %ebx
	movl	%esi, %r14d
	movl	%edi, %r15d
	callq	get_urand
	cmpl	$0, %eax
	jne	.LBB24_5
# %bb.1:                                # %func_StoreNewMotionVectorsBlock8x8.2
	movl	%r15d, %edi
	movl	%r14d, %esi
	movl	%ebx, %edx
	movl	%r13d, %ecx
	movl	%r12d, %r8d
	movl	-44(%rbp), %r9d         # 4-byte Reload
	movl	16(%rbp), %eax
	movl	%eax, (%rsp)
	callq	StoreNewMotionVectorsBlock8x8.2
	addq	$24, %rsp
	popq	%rbx
	popq	%r12
	popq	%r13
	popq	%r14
	popq	%r15
	popq	%rbp
	.cfi_def_cfa %rsp, 8
	retq
.LBB24_2:                               # %func_StoreNewMotionVectorsBlock8x8.53
	.cfi_def_cfa %rbp, 16
	movl	%r15d, %edi
	movl	%r14d, %esi
	movl	%ebx, %edx
	movl	%r13d, %ecx
	movl	%r12d, %r8d
	movl	%r10d, (%rsp)
	callq	StoreNewMotionVectorsBlock8x8.53
	addq	$24, %rsp
	popq	%rbx
	popq	%r12
	popq	%r13
	popq	%r14
	popq	%r15
	popq	%rbp
	.cfi_def_cfa %rsp, 8
	retq
.LBB24_3:                               # %func_StoreNewMotionVectorsBlock8x8.85
	.cfi_def_cfa %rbp, 16
	movl	%eax, (%rsp)
	callq	StoreNewMotionVectorsBlock8x8.85
	addq	$24, %rsp
	popq	%rbx
	popq	%r12
	popq	%r13
	popq	%r14
	popq	%r15
	popq	%rbp
	.cfi_def_cfa %rsp, 8
	retq
.LBB24_4:                               # %func_StoreNewMotionVectorsBlock8x8.92
	.cfi_def_cfa %rbp, 16
	movl	%eax, (%rsp)
	callq	StoreNewMotionVectorsBlock8x8.92
	addq	$24, %rsp
	popq	%rbx
	popq	%r12
	popq	%r13
	popq	%r14
	popq	%r15
	popq	%rbp
	.cfi_def_cfa %rsp, 8
	retq
.LBB24_5:                               # %ctrl0
	.cfi_def_cfa %rbp, 16
	movl	16(%rbp), %r10d
	movl	-44(%rbp), %r9d         # 4-byte Reload
	cmpl	$1, %eax
	je	.LBB24_2
# %bb.6:                                # %ctrl1
	cmpl	$2, %eax
	movl	%r10d, %eax
	movl	%r12d, %r8d
	movl	%r13d, %ecx
	movl	%ebx, %edx
	movl	%r14d, %esi
	movl	%r15d, %edi
	je	.LBB24_3
	jmp	.LBB24_4
.Lfunc_end24:
	.size	StoreNewMotionVectorsBlock8x8, .Lfunc_end24-StoreNewMotionVectorsBlock8x8
	.cfi_endproc
                                        # -- End function
	.globl	GetBestTransformP8x8    # -- Begin function GetBestTransformP8x8
	.p2align	4, 0x90
	.type	GetBestTransformP8x8,@function
GetBestTransformP8x8:                   # @GetBestTransformP8x8
	.cfi_startproc
# %bb.0:                                # %rand_bb
	pushq	%rbp
	.cfi_def_cfa_offset 16
	.cfi_offset %rbp, -16
	movq	%rsp, %rbp
	.cfi_def_cfa_register %rbp
	callq	get_urand
	cmpl	$0, %eax
	jne	.LBB25_5
# %bb.1:                                # %func_GetBestTransformP8x8.11
	callq	GetBestTransformP8x8.11
	popq	%rbp
	.cfi_def_cfa %rsp, 8
	retq
.LBB25_2:                               # %func_GetBestTransformP8x8.45
	.cfi_def_cfa %rbp, 16
	callq	GetBestTransformP8x8.45
	popq	%rbp
	.cfi_def_cfa %rsp, 8
	retq
.LBB25_3:                               # %func_GetBestTransformP8x8.80
	.cfi_def_cfa %rbp, 16
	callq	GetBestTransformP8x8.80
	popq	%rbp
	.cfi_def_cfa %rsp, 8
	retq
.LBB25_4:                               # %func_GetBestTransformP8x8.88
	.cfi_def_cfa %rbp, 16
	callq	GetBestTransformP8x8.88
	popq	%rbp
	.cfi_def_cfa %rsp, 8
	retq
.LBB25_5:                               # %ctrl0
	.cfi_def_cfa %rbp, 16
	cmpl	$1, %eax
	je	.LBB25_2
# %bb.6:                                # %ctrl1
	cmpl	$2, %eax
	je	.LBB25_3
	jmp	.LBB25_4
.Lfunc_end25:
	.size	GetBestTransformP8x8, .Lfunc_end25-GetBestTransformP8x8
	.cfi_endproc
                                        # -- End function
	.globl	encode_one_macroblock   # -- Begin function encode_one_macroblock
	.p2align	4, 0x90
	.type	encode_one_macroblock,@function
encode_one_macroblock:                  # @encode_one_macroblock
	.cfi_startproc
# %bb.0:                                # %rand_bb
	pushq	%rbp
	.cfi_def_cfa_offset 16
	.cfi_offset %rbp, -16
	movq	%rsp, %rbp
	.cfi_def_cfa_register %rbp
	callq	get_urand
	cmpl	$0, %eax
	jne	.LBB26_5
# %bb.1:                                # %func_encode_one_macroblock.3
	callq	encode_one_macroblock.3
	popq	%rbp
	.cfi_def_cfa %rsp, 8
	retq
.LBB26_2:                               # %func_encode_one_macroblock.27
	.cfi_def_cfa %rbp, 16
	callq	encode_one_macroblock.27
	popq	%rbp
	.cfi_def_cfa %rsp, 8
	retq
.LBB26_3:                               # %func_encode_one_macroblock.38
	.cfi_def_cfa %rbp, 16
	callq	encode_one_macroblock.38
	popq	%rbp
	.cfi_def_cfa %rsp, 8
	retq
.LBB26_4:                               # %func_encode_one_macroblock.56
	.cfi_def_cfa %rbp, 16
	callq	encode_one_macroblock.56
	popq	%rbp
	.cfi_def_cfa %rsp, 8
	retq
.LBB26_5:                               # %ctrl0
	.cfi_def_cfa %rbp, 16
	cmpl	$1, %eax
	je	.LBB26_2
# %bb.6:                                # %ctrl1
	cmpl	$2, %eax
	je	.LBB26_3
	jmp	.LBB26_4
.Lfunc_end26:
	.size	encode_one_macroblock, .Lfunc_end26-encode_one_macroblock
	.cfi_endproc
                                        # -- End function
	.globl	set_mbaff_parameters    # -- Begin function set_mbaff_parameters
	.p2align	4, 0x90
	.type	set_mbaff_parameters,@function
set_mbaff_parameters:                   # @set_mbaff_parameters
	.cfi_startproc
# %bb.0:                                # %rand_bb
	pushq	%rbp
	.cfi_def_cfa_offset 16
	.cfi_offset %rbp, -16
	movq	%rsp, %rbp
	.cfi_def_cfa_register %rbp
	callq	get_urand
	cmpl	$0, %eax
	jne	.LBB27_5
# %bb.1:                                # %func_set_mbaff_parameters.86
	callq	set_mbaff_parameters.86
	popq	%rbp
	.cfi_def_cfa %rsp, 8
	retq
.LBB27_2:                               # %func_set_mbaff_parameters.91
	.cfi_def_cfa %rbp, 16
	callq	set_mbaff_parameters.91
	popq	%rbp
	.cfi_def_cfa %rsp, 8
	retq
.LBB27_3:                               # %func_set_mbaff_parameters.96
	.cfi_def_cfa %rbp, 16
	callq	set_mbaff_parameters.96
	popq	%rbp
	.cfi_def_cfa %rsp, 8
	retq
.LBB27_4:                               # %func_set_mbaff_parameters.98
	.cfi_def_cfa %rbp, 16
	callq	set_mbaff_parameters.98
	popq	%rbp
	.cfi_def_cfa %rsp, 8
	retq
.LBB27_5:                               # %ctrl0
	.cfi_def_cfa %rbp, 16
	cmpl	$1, %eax
	je	.LBB27_2
# %bb.6:                                # %ctrl1
	cmpl	$2, %eax
	je	.LBB27_3
	jmp	.LBB27_4
.Lfunc_end27:
	.size	set_mbaff_parameters, .Lfunc_end27-set_mbaff_parameters
	.cfi_endproc
                                        # -- End function
	.globl	store_coding_state_cs_cm # -- Begin function store_coding_state_cs_cm
	.p2align	4, 0x90
	.type	store_coding_state_cs_cm,@function
store_coding_state_cs_cm:               # @store_coding_state_cs_cm
	.cfi_startproc
# %bb.0:                                # %entry
	pushq	%rbp
	.cfi_def_cfa_offset 16
	.cfi_offset %rbp, -16
	movq	%rsp, %rbp
	.cfi_def_cfa_register %rbp
	movq	cs_cm, %rdi
	callq	store_coding_state
	popq	%rbp
	.cfi_def_cfa %rsp, 8
	retq
.Lfunc_end28:
	.size	store_coding_state_cs_cm, .Lfunc_end28-store_coding_state_cs_cm
	.cfi_endproc
                                        # -- End function
	.globl	reset_coding_state_cs_cm # -- Begin function reset_coding_state_cs_cm
	.p2align	4, 0x90
	.type	reset_coding_state_cs_cm,@function
reset_coding_state_cs_cm:               # @reset_coding_state_cs_cm
	.cfi_startproc
# %bb.0:                                # %entry
	pushq	%rbp
	.cfi_def_cfa_offset 16
	.cfi_offset %rbp, -16
	movq	%rsp, %rbp
	.cfi_def_cfa_register %rbp
	movq	cs_cm, %rdi
	callq	reset_coding_state
	popq	%rbp
	.cfi_def_cfa %rsp, 8
	retq
.Lfunc_end29:
	.size	reset_coding_state_cs_cm, .Lfunc_end29-reset_coding_state_cs_cm
	.cfi_endproc
                                        # -- End function
	.globl	SetRefAndMotionVectors.1 # -- Begin function SetRefAndMotionVectors.1
	.p2align	4, 0x90
	.type	SetRefAndMotionVectors.1,@function
SetRefAndMotionVectors.1:               # @SetRefAndMotionVectors.1
	.cfi_startproc
# %bb.0:                                # %entry
	pushq	%rbp
	.cfi_def_cfa_offset 16
	.cfi_offset %rbp, -16
	movq	%rsp, %rbp
	.cfi_def_cfa_register %rbp
	subq	$96, %rsp
	movl	$1900861114, -68(%rbp)  # imm = 0x714CD6BA
	movl	%edi, -48(%rbp)
	movl	%esi, -12(%rbp)
	movl	%edx, -16(%rbp)
	movl	%ecx, -20(%rbp)
	movl	%r8d, -32(%rbp)
	movl	$0, -4(%rbp)
	movq	img, %rax
	cmpl	$1, 24(%rax)
	sete	%al
	andb	$1, %al
	movzbl	%al, %eax
	movl	%eax, -72(%rbp)
	cmpl	$1, -12(%rbp)
	je	.LBB30_3
# %bb.1:                                # %lor.lhs.false
	cmpl	$2, -12(%rbp)
	je	.LBB30_3
# %bb.2:                                # %lor.lhs.false5
	cmpl	$3, -12(%rbp)
	jne	.LBB30_4
.LBB30_3:                               # %cond.true
	movl	-12(%rbp), %eax
	jmp	.LBB30_5
.LBB30_4:                               # %cond.false
	movl	$4, %eax
	jmp	.LBB30_5
.LBB30_5:                               # %cond.end
	movl	%eax, -52(%rbp)
	movl	-48(%rbp), %eax
	cltd
	movl	$2, %ecx
	idivl	%ecx
	shll	$1, %eax
	movl	%eax, -28(%rbp)
	movl	-48(%rbp), %eax
	cltd
	idivl	%ecx
	shll	$1, %edx
	movl	%edx, -36(%rbp)
	movl	-28(%rbp), %eax
	movq	input, %rcx
	movslq	-52(%rbp), %rdx
	addl	148(%rcx,%rdx,8), %eax
	movl	%eax, -44(%rbp)
	movl	-36(%rbp), %eax
	movq	input, %rcx
	movslq	-52(%rbp), %rdx
	addl	144(%rcx,%rdx,8), %eax
	movl	%eax, -40(%rbp)
	movq	img, %rax
	cmpl	$0, 72400(%rax)
	je	.LBB30_8
# %bb.6:                                # %land.lhs.true
	movq	img, %rax
	movq	14168(%rax), %rax
	movq	img, %rcx
	movslq	12(%rcx), %rcx
	imulq	$632, %rcx, %rcx        # imm = 0x278
	addq	%rcx, %rax
	cmpl	$0, 532(%rax)
	je	.LBB30_8
# %bb.7:                                # %cond.true18
	movq	img, %rax
	movl	12(%rax), %eax
	cltd
	movl	$2, %ecx
	idivl	%ecx
	cmpl	$0, %edx
	movl	$4, %eax
	cmovnel	%eax, %ecx
	jmp	.LBB30_9
.LBB30_8:                               # %cond.false23
	xorl	%ecx, %ecx
	jmp	.LBB30_9
.LBB30_9:                               # %cond.end24
	movl	%ecx, -24(%rbp)
	movq	img, %rax
	movq	14168(%rax), %rax
	movq	img, %rcx
	movslq	12(%rcx), %rcx
	imulq	$632, %rcx, %rcx        # imm = 0x278
	addq	%rcx, %rax
	movq	%rax, -64(%rbp)
	cmpl	$0, -16(%rbp)
	jge	.LBB30_19
# %bb.10:                               # %if.then
	movl	-28(%rbp), %eax
	movl	%eax, -4(%rbp)
.LBB30_11:                              # %for.cond
                                        # =>This Loop Header: Depth=1
                                        #     Child Loop BB30_13 Depth 2
	movl	-4(%rbp), %eax
	cmpl	-44(%rbp), %eax
	jge	.LBB30_18
# %bb.12:                               # %for.body
                                        #   in Loop: Header=BB30_11 Depth=1
	movl	-36(%rbp), %eax
	movl	%eax, -8(%rbp)
.LBB30_13:                              # %for.cond34
                                        #   Parent Loop BB30_11 Depth=1
                                        # =>  This Inner Loop Header: Depth=2
	movl	-8(%rbp), %eax
	cmpl	-40(%rbp), %eax
	jge	.LBB30_16
# %bb.14:                               # %for.body37
                                        #   in Loop: Header=BB30_13 Depth=2
	movq	enc_picture, %rax
	movq	6504(%rax), %rax
	movq	(%rax), %rax
	movq	img, %rcx
	movl	144(%rcx), %ecx
	addl	-8(%rbp), %ecx
	movslq	%ecx, %rcx
	movq	(%rax,%rcx,8), %rax
	movq	img, %rcx
	movl	148(%rcx), %ecx
	addl	-4(%rbp), %ecx
	movslq	%ecx, %rcx
	movq	(%rax,%rcx,8), %rax
	movw	$0, (%rax)
	movq	enc_picture, %rax
	movq	6504(%rax), %rax
	movq	(%rax), %rax
	movq	img, %rcx
	movl	144(%rcx), %ecx
	addl	-8(%rbp), %ecx
	movslq	%ecx, %rcx
	movq	(%rax,%rcx,8), %rax
	movq	img, %rcx
	movl	148(%rcx), %ecx
	addl	-4(%rbp), %ecx
	movslq	%ecx, %rcx
	movq	(%rax,%rcx,8), %rax
	movw	$0, 2(%rax)
	movq	enc_picture, %rax
	movq	6504(%rax), %rax
	movq	8(%rax), %rax
	movq	img, %rcx
	movl	144(%rcx), %ecx
	addl	-8(%rbp), %ecx
	movslq	%ecx, %rcx
	movq	(%rax,%rcx,8), %rax
	movq	img, %rcx
	movl	148(%rcx), %ecx
	addl	-4(%rbp), %ecx
	movslq	%ecx, %rcx
	movq	(%rax,%rcx,8), %rax
	movw	$0, (%rax)
	movq	enc_picture, %rax
	movq	6504(%rax), %rax
	movq	8(%rax), %rax
	movq	img, %rcx
	movl	144(%rcx), %ecx
	addl	-8(%rbp), %ecx
	movslq	%ecx, %rcx
	movq	(%rax,%rcx,8), %rax
	movq	img, %rcx
	movl	148(%rcx), %ecx
	addl	-4(%rbp), %ecx
	movslq	%ecx, %rcx
	movq	(%rax,%rcx,8), %rax
	movw	$0, 2(%rax)
	movq	enc_picture, %rax
	movq	6480(%rax), %rax
	movq	(%rax), %rax
	movq	img, %rcx
	movl	144(%rcx), %ecx
	addl	-8(%rbp), %ecx
	movslq	%ecx, %rcx
	movq	(%rax,%rcx,8), %rax
	movq	img, %rcx
	movl	148(%rcx), %ecx
	addl	-4(%rbp), %ecx
	movslq	%ecx, %rcx
	movw	$-1, (%rax,%rcx,2)
	movq	enc_picture, %rax
	movq	6480(%rax), %rax
	movq	8(%rax), %rax
	movq	img, %rcx
	movl	144(%rcx), %ecx
	addl	-8(%rbp), %ecx
	movslq	%ecx, %rcx
	movq	(%rax,%rcx,8), %rax
	movq	img, %rcx
	movl	148(%rcx), %ecx
	addl	-4(%rbp), %ecx
	movslq	%ecx, %rcx
	movw	$-1, (%rax,%rcx,2)
	movq	enc_picture, %rax
	movq	6488(%rax), %rax
	movq	(%rax), %rax
	movq	img, %rcx
	movl	144(%rcx), %ecx
	addl	-8(%rbp), %ecx
	movslq	%ecx, %rcx
	movq	(%rax,%rcx,8), %rax
	movq	img, %rcx
	movl	148(%rcx), %ecx
	addl	-4(%rbp), %ecx
	movslq	%ecx, %rcx
	movq	$-1, (%rax,%rcx,8)
	movq	enc_picture, %rax
	movq	6488(%rax), %rax
	movq	8(%rax), %rax
	movq	img, %rcx
	movl	144(%rcx), %ecx
	addl	-8(%rbp), %ecx
	movslq	%ecx, %rcx
	movq	(%rax,%rcx,8), %rax
	movq	img, %rcx
	movl	148(%rcx), %ecx
	addl	-4(%rbp), %ecx
	movslq	%ecx, %rcx
	movq	$-1, (%rax,%rcx,8)
# %bb.15:                               # %for.inc
                                        #   in Loop: Header=BB30_13 Depth=2
	movl	-8(%rbp), %eax
	addl	$1, %eax
	movl	%eax, -8(%rbp)
	jmp	.LBB30_13
.LBB30_16:                              # %for.end
                                        #   in Loop: Header=BB30_11 Depth=1
	jmp	.LBB30_17
.LBB30_17:                              # %for.inc117
                                        #   in Loop: Header=BB30_11 Depth=1
	movl	-4(%rbp), %eax
	addl	$1, %eax
	movl	%eax, -4(%rbp)
	jmp	.LBB30_11
.LBB30_18:                              # %for.end119
	jmp	.LBB30_64
.LBB30_19:                              # %if.end
	cmpl	$0, -72(%rbp)
	jne	.LBB30_29
# %bb.20:                               # %if.then121
	movl	-28(%rbp), %eax
	movl	%eax, -4(%rbp)
.LBB30_21:                              # %for.cond122
                                        # =>This Loop Header: Depth=1
                                        #     Child Loop BB30_23 Depth 2
	movl	-4(%rbp), %eax
	cmpl	-44(%rbp), %eax
	jge	.LBB30_28
# %bb.22:                               # %for.body125
                                        #   in Loop: Header=BB30_21 Depth=1
	movl	-36(%rbp), %eax
	movl	%eax, -8(%rbp)
.LBB30_23:                              # %for.cond126
                                        #   Parent Loop BB30_21 Depth=1
                                        # =>  This Inner Loop Header: Depth=2
	movl	-8(%rbp), %eax
	cmpl	-40(%rbp), %eax
	jge	.LBB30_26
# %bb.24:                               # %for.body129
                                        #   in Loop: Header=BB30_23 Depth=2
	movq	img, %rax
	movq	71928(%rax), %rax
	movslq	-8(%rbp), %rcx
	movq	(%rax,%rcx,8), %rax
	movslq	-4(%rbp), %rcx
	movq	(%rax,%rcx,8), %rax
	movq	(%rax), %rax
	movslq	-20(%rbp), %rcx
	movq	(%rax,%rcx,8), %rax
	movslq	-12(%rbp), %rcx
	movq	(%rax,%rcx,8), %rax
	movw	(%rax), %ax
	movq	enc_picture, %rcx
	movq	6504(%rcx), %rcx
	movq	(%rcx), %rcx
	movq	img, %rdx
	movl	144(%rdx), %edx
	addl	-8(%rbp), %edx
	movslq	%edx, %rdx
	movq	(%rcx,%rdx,8), %rcx
	movq	img, %rdx
	movl	148(%rdx), %edx
	addl	-4(%rbp), %edx
	movslq	%edx, %rdx
	movq	(%rcx,%rdx,8), %rcx
	movw	%ax, (%rcx)
	movq	img, %rax
	movq	71928(%rax), %rax
	movslq	-8(%rbp), %rcx
	movq	(%rax,%rcx,8), %rax
	movslq	-4(%rbp), %rcx
	movq	(%rax,%rcx,8), %rax
	movq	(%rax), %rax
	movslq	-20(%rbp), %rcx
	movq	(%rax,%rcx,8), %rax
	movslq	-12(%rbp), %rcx
	movq	(%rax,%rcx,8), %rax
	movw	2(%rax), %ax
	movq	enc_picture, %rcx
	movq	6504(%rcx), %rcx
	movq	(%rcx), %rcx
	movq	img, %rdx
	movl	144(%rdx), %edx
	addl	-8(%rbp), %edx
	movslq	%edx, %rdx
	movq	(%rcx,%rdx,8), %rcx
	movq	img, %rdx
	movl	148(%rdx), %edx
	addl	-4(%rbp), %edx
	movslq	%edx, %rdx
	movq	(%rcx,%rdx,8), %rcx
	movw	%ax, 2(%rcx)
	movl	-20(%rbp), %eax
	movq	enc_picture, %rcx
	movq	6480(%rcx), %rcx
	movq	(%rcx), %rcx
	movq	img, %rdx
	movl	144(%rdx), %edx
	addl	-8(%rbp), %edx
	movslq	%edx, %rdx
	movq	(%rcx,%rdx,8), %rcx
	movq	img, %rdx
	movl	148(%rdx), %edx
	addl	-4(%rbp), %edx
	movslq	%edx, %rdx
	movw	%ax, (%rcx,%rdx,2)
	movq	enc_picture, %rax
	addq	$24, %rax
	movl	-24(%rbp), %ecx
	addl	$0, %ecx
	movslq	%ecx, %rcx
	imulq	$264, %rcx, %rcx        # imm = 0x108
	addq	%rcx, %rax
	movq	enc_picture, %rcx
	movq	6480(%rcx), %rcx
	movq	(%rcx), %rcx
	movq	img, %rdx
	movl	144(%rdx), %edx
	addl	-8(%rbp), %edx
	movslq	%edx, %rdx
	movq	(%rcx,%rdx,8), %rcx
	movq	img, %rdx
	movl	148(%rdx), %edx
	addl	-4(%rbp), %edx
	movslq	%edx, %rdx
	movswq	(%rcx,%rdx,2), %rcx
	movq	(%rax,%rcx,8), %rax
	movq	enc_picture, %rcx
	movq	6488(%rcx), %rcx
	movq	(%rcx), %rcx
	movq	img, %rdx
	movl	144(%rdx), %edx
	addl	-8(%rbp), %edx
	movslq	%edx, %rdx
	movq	(%rcx,%rdx,8), %rcx
	movq	img, %rdx
	movl	148(%rdx), %edx
	addl	-4(%rbp), %edx
	movslq	%edx, %rdx
	movq	%rax, (%rcx,%rdx,8)
# %bb.25:                               # %for.inc209
                                        #   in Loop: Header=BB30_23 Depth=2
	movl	-8(%rbp), %eax
	addl	$1, %eax
	movl	%eax, -8(%rbp)
	jmp	.LBB30_23
.LBB30_26:                              # %for.end211
                                        #   in Loop: Header=BB30_21 Depth=1
	jmp	.LBB30_27
.LBB30_27:                              # %for.inc212
                                        #   in Loop: Header=BB30_21 Depth=1
	movl	-4(%rbp), %eax
	addl	$1, %eax
	movl	%eax, -4(%rbp)
	jmp	.LBB30_21
.LBB30_28:                              # %for.end214
	jmp	.LBB30_64
.LBB30_29:                              # %if.else
	movl	-28(%rbp), %eax
	movl	%eax, -4(%rbp)
.LBB30_30:                              # %for.cond215
                                        # =>This Loop Header: Depth=1
                                        #     Child Loop BB30_32 Depth 2
	movl	-4(%rbp), %eax
	cmpl	-44(%rbp), %eax
	jge	.LBB30_63
# %bb.31:                               # %for.body218
                                        #   in Loop: Header=BB30_30 Depth=1
	movl	-36(%rbp), %eax
	movl	%eax, -8(%rbp)
.LBB30_32:                              # %for.cond219
                                        #   Parent Loop BB30_30 Depth=1
                                        # =>  This Inner Loop Header: Depth=2
	movl	-8(%rbp), %eax
	cmpl	-40(%rbp), %eax
	jge	.LBB30_61
# %bb.33:                               # %for.body222
                                        #   in Loop: Header=BB30_32 Depth=2
	cmpl	$0, -12(%rbp)
	jne	.LBB30_35
# %bb.34:                               # %if.then225
                                        #   in Loop: Header=BB30_32 Depth=2
	movq	direct_pdir, %rax
	movq	img, %rcx
	movl	144(%rcx), %ecx
	addl	-8(%rbp), %ecx
	movslq	%ecx, %rcx
	movq	(%rax,%rcx,8), %rax
	movq	img, %rcx
	movl	148(%rcx), %ecx
	addl	-4(%rbp), %ecx
	movslq	%ecx, %rcx
	movswl	(%rax,%rcx,2), %eax
	movl	%eax, -16(%rbp)
	movq	direct_ref_idx, %rax
	movq	(%rax), %rax
	movq	img, %rcx
	movl	144(%rcx), %ecx
	addl	-8(%rbp), %ecx
	movslq	%ecx, %rcx
	movq	(%rax,%rcx,8), %rax
	movq	img, %rcx
	movl	148(%rcx), %ecx
	addl	-4(%rbp), %ecx
	movslq	%ecx, %rcx
	movswl	(%rax,%rcx,2), %eax
	movl	%eax, -20(%rbp)
	movq	direct_ref_idx, %rax
	movq	8(%rax), %rax
	movq	img, %rcx
	movl	144(%rcx), %ecx
	addl	-8(%rbp), %ecx
	movslq	%ecx, %rcx
	movq	(%rax,%rcx,8), %rax
	movq	img, %rcx
	movl	148(%rcx), %ecx
	addl	-4(%rbp), %ecx
	movslq	%ecx, %rcx
	movswl	(%rax,%rcx,2), %eax
	movl	%eax, -32(%rbp)
.LBB30_35:                              # %if.end255
                                        #   in Loop: Header=BB30_32 Depth=2
	cmpl	$0, -16(%rbp)
	je	.LBB30_37
# %bb.36:                               # %lor.lhs.false258
                                        #   in Loop: Header=BB30_32 Depth=2
	cmpl	$2, -16(%rbp)
	jne	.LBB30_46
.LBB30_37:                              # %if.then261
                                        #   in Loop: Header=BB30_32 Depth=2
	movq	-64(%rbp), %rax
	cmpl	$0, 580(%rax)
	je	.LBB30_44
# %bb.38:                               # %land.lhs.true263
                                        #   in Loop: Header=BB30_32 Depth=2
	cmpl	$2, -16(%rbp)
	jne	.LBB30_44
# %bb.39:                               # %land.lhs.true266
                                        #   in Loop: Header=BB30_32 Depth=2
	cmpl	$1, -12(%rbp)
	jne	.LBB30_44
# %bb.40:                               # %if.then269
                                        #   in Loop: Header=BB30_32 Depth=2
	movq	-64(%rbp), %rax
	cmpl	$1, 580(%rax)
	jne	.LBB30_42
# %bb.41:                               # %cond.true273
                                        #   in Loop: Header=BB30_32 Depth=2
	movq	img, %rax
	movq	71936(%rax), %rax
	jmp	.LBB30_43
.LBB30_42:                              # %cond.false274
                                        #   in Loop: Header=BB30_32 Depth=2
	movq	img, %rax
	movq	71944(%rax), %rax
.LBB30_43:                              # %cond.end275
                                        #   in Loop: Header=BB30_32 Depth=2
	movq	%rax, -80(%rbp)
	movq	-80(%rbp), %rax
	movslq	-8(%rbp), %rcx
	movq	(%rax,%rcx,8), %rax
	movslq	-4(%rbp), %rcx
	movq	(%rax,%rcx,8), %rax
	movq	(%rax), %rax
	movq	(%rax), %rax
	movslq	-12(%rbp), %rcx
	movq	(%rax,%rcx,8), %rax
	movw	(%rax), %ax
	movq	enc_picture, %rcx
	movq	6504(%rcx), %rcx
	movq	(%rcx), %rcx
	movq	img, %rdx
	movl	144(%rdx), %edx
	addl	-8(%rbp), %edx
	movslq	%edx, %rdx
	movq	(%rcx,%rdx,8), %rcx
	movq	img, %rdx
	movl	148(%rdx), %edx
	addl	-4(%rbp), %edx
	movslq	%edx, %rdx
	movq	(%rcx,%rdx,8), %rcx
	movw	%ax, (%rcx)
	movq	-80(%rbp), %rax
	movslq	-8(%rbp), %rcx
	movq	(%rax,%rcx,8), %rax
	movslq	-4(%rbp), %rcx
	movq	(%rax,%rcx,8), %rax
	movq	(%rax), %rax
	movq	(%rax), %rax
	movslq	-12(%rbp), %rcx
	movq	(%rax,%rcx,8), %rax
	movw	2(%rax), %ax
	movq	enc_picture, %rcx
	movq	6504(%rcx), %rcx
	movq	(%rcx), %rcx
	movq	img, %rdx
	movl	144(%rdx), %edx
	addl	-8(%rbp), %edx
	movslq	%edx, %rdx
	movq	(%rcx,%rdx,8), %rcx
	movq	img, %rdx
	movl	148(%rdx), %edx
	addl	-4(%rbp), %edx
	movslq	%edx, %rdx
	movq	(%rcx,%rdx,8), %rcx
	movw	%ax, 2(%rcx)
	movq	enc_picture, %rax
	movq	6480(%rax), %rax
	movq	(%rax), %rax
	movq	img, %rcx
	movl	144(%rcx), %ecx
	addl	-8(%rbp), %ecx
	movslq	%ecx, %rcx
	movq	(%rax,%rcx,8), %rax
	movq	img, %rcx
	movl	148(%rcx), %ecx
	addl	-4(%rbp), %ecx
	movslq	%ecx, %rcx
	movw	$0, (%rax,%rcx,2)
	movq	enc_picture, %rax
	addq	$24, %rax
	movl	-24(%rbp), %ecx
	addl	$0, %ecx
	movslq	%ecx, %rcx
	imulq	$264, %rcx, %rcx        # imm = 0x108
	addq	%rcx, %rax
	movq	(%rax), %rax
	movq	enc_picture, %rcx
	movq	6488(%rcx), %rcx
	movq	(%rcx), %rcx
	movq	img, %rdx
	movl	144(%rdx), %edx
	addl	-8(%rbp), %edx
	movslq	%edx, %rdx
	movq	(%rcx,%rdx,8), %rcx
	movq	img, %rdx
	movl	148(%rdx), %edx
	addl	-4(%rbp), %edx
	movslq	%edx, %rdx
	movq	%rax, (%rcx,%rdx,8)
	jmp	.LBB30_45
.LBB30_44:                              # %if.else342
                                        #   in Loop: Header=BB30_32 Depth=2
	movq	img, %rax
	movq	71928(%rax), %rax
	movslq	-8(%rbp), %rcx
	movq	(%rax,%rcx,8), %rax
	movslq	-4(%rbp), %rcx
	movq	(%rax,%rcx,8), %rax
	movq	(%rax), %rax
	movslq	-20(%rbp), %rcx
	movq	(%rax,%rcx,8), %rax
	movslq	-12(%rbp), %rcx
	movq	(%rax,%rcx,8), %rax
	movw	(%rax), %ax
	movq	enc_picture, %rcx
	movq	6504(%rcx), %rcx
	movq	(%rcx), %rcx
	movq	img, %rdx
	movl	144(%rdx), %edx
	addl	-8(%rbp), %edx
	movslq	%edx, %rdx
	movq	(%rcx,%rdx,8), %rcx
	movq	img, %rdx
	movl	148(%rdx), %edx
	addl	-4(%rbp), %edx
	movslq	%edx, %rdx
	movq	(%rcx,%rdx,8), %rcx
	movw	%ax, (%rcx)
	movq	img, %rax
	movq	71928(%rax), %rax
	movslq	-8(%rbp), %rcx
	movq	(%rax,%rcx,8), %rax
	movslq	-4(%rbp), %rcx
	movq	(%rax,%rcx,8), %rax
	movq	(%rax), %rax
	movslq	-20(%rbp), %rcx
	movq	(%rax,%rcx,8), %rax
	movslq	-12(%rbp), %rcx
	movq	(%rax,%rcx,8), %rax
	movw	2(%rax), %ax
	movq	enc_picture, %rcx
	movq	6504(%rcx), %rcx
	movq	(%rcx), %rcx
	movq	img, %rdx
	movl	144(%rdx), %edx
	addl	-8(%rbp), %edx
	movslq	%edx, %rdx
	movq	(%rcx,%rdx,8), %rcx
	movq	img, %rdx
	movl	148(%rdx), %edx
	addl	-4(%rbp), %edx
	movslq	%edx, %rdx
	movq	(%rcx,%rdx,8), %rcx
	movw	%ax, 2(%rcx)
	movl	-20(%rbp), %eax
	movq	enc_picture, %rcx
	movq	6480(%rcx), %rcx
	movq	(%rcx), %rcx
	movq	img, %rdx
	movl	144(%rdx), %edx
	addl	-8(%rbp), %edx
	movslq	%edx, %rdx
	movq	(%rcx,%rdx,8), %rcx
	movq	img, %rdx
	movl	148(%rdx), %edx
	addl	-4(%rbp), %edx
	movslq	%edx, %rdx
	movw	%ax, (%rcx,%rdx,2)
	movq	enc_picture, %rax
	addq	$24, %rax
	movl	-24(%rbp), %ecx
	addl	$0, %ecx
	movslq	%ecx, %rcx
	imulq	$264, %rcx, %rcx        # imm = 0x108
	addq	%rcx, %rax
	movq	enc_picture, %rcx
	movq	6480(%rcx), %rcx
	movq	(%rcx), %rcx
	movq	img, %rdx
	movl	144(%rdx), %edx
	addl	-8(%rbp), %edx
	movslq	%edx, %rdx
	movq	(%rcx,%rdx,8), %rcx
	movq	img, %rdx
	movl	148(%rdx), %edx
	addl	-4(%rbp), %edx
	movslq	%edx, %rdx
	movswq	(%rcx,%rdx,2), %rcx
	movq	(%rax,%rcx,8), %rax
	movq	enc_picture, %rcx
	movq	6488(%rcx), %rcx
	movq	(%rcx), %rcx
	movq	img, %rdx
	movl	144(%rdx), %edx
	addl	-8(%rbp), %edx
	movslq	%edx, %rdx
	movq	(%rcx,%rdx,8), %rcx
	movq	img, %rdx
	movl	148(%rdx), %edx
	addl	-4(%rbp), %edx
	movslq	%edx, %rdx
	movq	%rax, (%rcx,%rdx,8)
.LBB30_45:                              # %if.end424
                                        #   in Loop: Header=BB30_32 Depth=2
	jmp	.LBB30_47
.LBB30_46:                              # %if.else425
                                        #   in Loop: Header=BB30_32 Depth=2
	movq	enc_picture, %rax
	movq	6504(%rax), %rax
	movq	(%rax), %rax
	movq	img, %rcx
	movl	144(%rcx), %ecx
	addl	-8(%rbp), %ecx
	movslq	%ecx, %rcx
	movq	(%rax,%rcx,8), %rax
	movq	img, %rcx
	movl	148(%rcx), %ecx
	addl	-4(%rbp), %ecx
	movslq	%ecx, %rcx
	movq	(%rax,%rcx,8), %rax
	movw	$0, (%rax)
	movq	enc_picture, %rax
	movq	6504(%rax), %rax
	movq	(%rax), %rax
	movq	img, %rcx
	movl	144(%rcx), %ecx
	addl	-8(%rbp), %ecx
	movslq	%ecx, %rcx
	movq	(%rax,%rcx,8), %rax
	movq	img, %rcx
	movl	148(%rcx), %ecx
	addl	-4(%rbp), %ecx
	movslq	%ecx, %rcx
	movq	(%rax,%rcx,8), %rax
	movw	$0, 2(%rax)
	movq	enc_picture, %rax
	movq	6480(%rax), %rax
	movq	(%rax), %rax
	movq	img, %rcx
	movl	144(%rcx), %ecx
	addl	-8(%rbp), %ecx
	movslq	%ecx, %rcx
	movq	(%rax,%rcx,8), %rax
	movq	img, %rcx
	movl	148(%rcx), %ecx
	addl	-4(%rbp), %ecx
	movslq	%ecx, %rcx
	movw	$-1, (%rax,%rcx,2)
	movq	enc_picture, %rax
	movq	6488(%rax), %rax
	movq	(%rax), %rax
	movq	img, %rcx
	movl	144(%rcx), %ecx
	addl	-8(%rbp), %ecx
	movslq	%ecx, %rcx
	movq	(%rax,%rcx,8), %rax
	movq	img, %rcx
	movl	148(%rcx), %ecx
	addl	-4(%rbp), %ecx
	movslq	%ecx, %rcx
	movq	$-1, (%rax,%rcx,8)
.LBB30_47:                              # %if.end468
                                        #   in Loop: Header=BB30_32 Depth=2
	cmpl	$1, -16(%rbp)
	je	.LBB30_49
# %bb.48:                               # %lor.lhs.false471
                                        #   in Loop: Header=BB30_32 Depth=2
	cmpl	$2, -16(%rbp)
	jne	.LBB30_58
.LBB30_49:                              # %if.then474
                                        #   in Loop: Header=BB30_32 Depth=2
	movq	-64(%rbp), %rax
	cmpl	$0, 580(%rax)
	je	.LBB30_56
# %bb.50:                               # %land.lhs.true477
                                        #   in Loop: Header=BB30_32 Depth=2
	cmpl	$2, -16(%rbp)
	jne	.LBB30_56
# %bb.51:                               # %land.lhs.true480
                                        #   in Loop: Header=BB30_32 Depth=2
	cmpl	$1, -12(%rbp)
	jne	.LBB30_56
# %bb.52:                               # %if.then483
                                        #   in Loop: Header=BB30_32 Depth=2
	movq	-64(%rbp), %rax
	cmpl	$1, 580(%rax)
	jne	.LBB30_54
# %bb.53:                               # %cond.true488
                                        #   in Loop: Header=BB30_32 Depth=2
	movq	img, %rax
	movq	71936(%rax), %rax
	jmp	.LBB30_55
.LBB30_54:                              # %cond.false490
                                        #   in Loop: Header=BB30_32 Depth=2
	movq	img, %rax
	movq	71944(%rax), %rax
.LBB30_55:                              # %cond.end492
                                        #   in Loop: Header=BB30_32 Depth=2
	movq	%rax, -88(%rbp)
	movq	-88(%rbp), %rax
	movslq	-8(%rbp), %rcx
	movq	(%rax,%rcx,8), %rax
	movslq	-4(%rbp), %rcx
	movq	(%rax,%rcx,8), %rax
	movq	8(%rax), %rax
	movq	(%rax), %rax
	movslq	-12(%rbp), %rcx
	movq	(%rax,%rcx,8), %rax
	movw	(%rax), %ax
	movq	enc_picture, %rcx
	movq	6504(%rcx), %rcx
	movq	8(%rcx), %rcx
	movq	img, %rdx
	movl	144(%rdx), %edx
	addl	-8(%rbp), %edx
	movslq	%edx, %rdx
	movq	(%rcx,%rdx,8), %rcx
	movq	img, %rdx
	movl	148(%rdx), %edx
	addl	-4(%rbp), %edx
	movslq	%edx, %rdx
	movq	(%rcx,%rdx,8), %rcx
	movw	%ax, (%rcx)
	movq	-88(%rbp), %rax
	movslq	-8(%rbp), %rcx
	movq	(%rax,%rcx,8), %rax
	movslq	-4(%rbp), %rcx
	movq	(%rax,%rcx,8), %rax
	movq	8(%rax), %rax
	movq	(%rax), %rax
	movslq	-12(%rbp), %rcx
	movq	(%rax,%rcx,8), %rax
	movw	2(%rax), %ax
	movq	enc_picture, %rcx
	movq	6504(%rcx), %rcx
	movq	8(%rcx), %rcx
	movq	img, %rdx
	movl	144(%rdx), %edx
	addl	-8(%rbp), %edx
	movslq	%edx, %rdx
	movq	(%rcx,%rdx,8), %rcx
	movq	img, %rdx
	movl	148(%rdx), %edx
	addl	-4(%rbp), %edx
	movslq	%edx, %rdx
	movq	(%rcx,%rdx,8), %rcx
	movw	%ax, 2(%rcx)
	movq	enc_picture, %rax
	movq	6480(%rax), %rax
	movq	8(%rax), %rax
	movq	img, %rcx
	movl	144(%rcx), %ecx
	addl	-8(%rbp), %ecx
	movslq	%ecx, %rcx
	movq	(%rax,%rcx,8), %rax
	movq	img, %rcx
	movl	148(%rcx), %ecx
	addl	-4(%rbp), %ecx
	movslq	%ecx, %rcx
	movw	$0, (%rax,%rcx,2)
	movq	enc_picture, %rax
	addq	$24, %rax
	movl	-24(%rbp), %ecx
	addl	$1, %ecx
	movslq	%ecx, %rcx
	imulq	$264, %rcx, %rcx        # imm = 0x108
	addq	%rcx, %rax
	movq	(%rax), %rax
	movq	enc_picture, %rcx
	movq	6488(%rcx), %rcx
	movq	8(%rcx), %rcx
	movq	img, %rdx
	movl	144(%rdx), %edx
	addl	-8(%rbp), %edx
	movslq	%edx, %rdx
	movq	(%rcx,%rdx,8), %rcx
	movq	img, %rdx
	movl	148(%rdx), %edx
	addl	-4(%rbp), %edx
	movslq	%edx, %rdx
	movq	%rax, (%rcx,%rdx,8)
	jmp	.LBB30_57
.LBB30_56:                              # %if.else559
                                        #   in Loop: Header=BB30_32 Depth=2
	movq	img, %rax
	movq	71928(%rax), %rax
	movslq	-8(%rbp), %rcx
	movq	(%rax,%rcx,8), %rax
	movslq	-4(%rbp), %rcx
	movq	(%rax,%rcx,8), %rax
	movq	8(%rax), %rax
	movslq	-32(%rbp), %rcx
	movq	(%rax,%rcx,8), %rax
	movslq	-12(%rbp), %rcx
	movq	(%rax,%rcx,8), %rax
	movw	(%rax), %ax
	movq	enc_picture, %rcx
	movq	6504(%rcx), %rcx
	movq	8(%rcx), %rcx
	movq	img, %rdx
	movl	144(%rdx), %edx
	addl	-8(%rbp), %edx
	movslq	%edx, %rdx
	movq	(%rcx,%rdx,8), %rcx
	movq	img, %rdx
	movl	148(%rdx), %edx
	addl	-4(%rbp), %edx
	movslq	%edx, %rdx
	movq	(%rcx,%rdx,8), %rcx
	movw	%ax, (%rcx)
	movq	img, %rax
	movq	71928(%rax), %rax
	movslq	-8(%rbp), %rcx
	movq	(%rax,%rcx,8), %rax
	movslq	-4(%rbp), %rcx
	movq	(%rax,%rcx,8), %rax
	movq	8(%rax), %rax
	movslq	-32(%rbp), %rcx
	movq	(%rax,%rcx,8), %rax
	movslq	-12(%rbp), %rcx
	movq	(%rax,%rcx,8), %rax
	movw	2(%rax), %ax
	movq	enc_picture, %rcx
	movq	6504(%rcx), %rcx
	movq	8(%rcx), %rcx
	movq	img, %rdx
	movl	144(%rdx), %edx
	addl	-8(%rbp), %edx
	movslq	%edx, %rdx
	movq	(%rcx,%rdx,8), %rcx
	movq	img, %rdx
	movl	148(%rdx), %edx
	addl	-4(%rbp), %edx
	movslq	%edx, %rdx
	movq	(%rcx,%rdx,8), %rcx
	movw	%ax, 2(%rcx)
	movl	-32(%rbp), %eax
	movq	enc_picture, %rcx
	movq	6480(%rcx), %rcx
	movq	8(%rcx), %rcx
	movq	img, %rdx
	movl	144(%rdx), %edx
	addl	-8(%rbp), %edx
	movslq	%edx, %rdx
	movq	(%rcx,%rdx,8), %rcx
	movq	img, %rdx
	movl	148(%rdx), %edx
	addl	-4(%rbp), %edx
	movslq	%edx, %rdx
	movw	%ax, (%rcx,%rdx,2)
	movq	enc_picture, %rax
	addq	$24, %rax
	movl	-24(%rbp), %ecx
	addl	$1, %ecx
	movslq	%ecx, %rcx
	imulq	$264, %rcx, %rcx        # imm = 0x108
	addq	%rcx, %rax
	movq	enc_picture, %rcx
	movq	6480(%rcx), %rcx
	movq	8(%rcx), %rcx
	movq	img, %rdx
	movl	144(%rdx), %edx
	addl	-8(%rbp), %edx
	movslq	%edx, %rdx
	movq	(%rcx,%rdx,8), %rcx
	movq	img, %rdx
	movl	148(%rdx), %edx
	addl	-4(%rbp), %edx
	movslq	%edx, %rdx
	movswq	(%rcx,%rdx,2), %rcx
	movq	(%rax,%rcx,8), %rax
	movq	enc_picture, %rcx
	movq	6488(%rcx), %rcx
	movq	8(%rcx), %rcx
	movq	img, %rdx
	movl	144(%rdx), %edx
	addl	-8(%rbp), %edx
	movslq	%edx, %rdx
	movq	(%rcx,%rdx,8), %rcx
	movq	img, %rdx
	movl	148(%rdx), %edx
	addl	-4(%rbp), %edx
	movslq	%edx, %rdx
	movq	%rax, (%rcx,%rdx,8)
.LBB30_57:                              # %if.end641
                                        #   in Loop: Header=BB30_32 Depth=2
	jmp	.LBB30_59
.LBB30_58:                              # %if.else642
                                        #   in Loop: Header=BB30_32 Depth=2
	movq	enc_picture, %rax
	movq	6504(%rax), %rax
	movq	8(%rax), %rax
	movq	img, %rcx
	movl	144(%rcx), %ecx
	addl	-8(%rbp), %ecx
	movslq	%ecx, %rcx
	movq	(%rax,%rcx,8), %rax
	movq	img, %rcx
	movl	148(%rcx), %ecx
	addl	-4(%rbp), %ecx
	movslq	%ecx, %rcx
	movq	(%rax,%rcx,8), %rax
	movw	$0, (%rax)
	movq	enc_picture, %rax
	movq	6504(%rax), %rax
	movq	8(%rax), %rax
	movq	img, %rcx
	movl	144(%rcx), %ecx
	addl	-8(%rbp), %ecx
	movslq	%ecx, %rcx
	movq	(%rax,%rcx,8), %rax
	movq	img, %rcx
	movl	148(%rcx), %ecx
	addl	-4(%rbp), %ecx
	movslq	%ecx, %rcx
	movq	(%rax,%rcx,8), %rax
	movw	$0, 2(%rax)
	movq	enc_picture, %rax
	movq	6480(%rax), %rax
	movq	8(%rax), %rax
	movq	img, %rcx
	movl	144(%rcx), %ecx
	addl	-8(%rbp), %ecx
	movslq	%ecx, %rcx
	movq	(%rax,%rcx,8), %rax
	movq	img, %rcx
	movl	148(%rcx), %ecx
	addl	-4(%rbp), %ecx
	movslq	%ecx, %rcx
	movw	$-1, (%rax,%rcx,2)
	movq	enc_picture, %rax
	movq	6488(%rax), %rax
	movq	8(%rax), %rax
	movq	img, %rcx
	movl	144(%rcx), %ecx
	addl	-8(%rbp), %ecx
	movslq	%ecx, %rcx
	movq	(%rax,%rcx,8), %rax
	movq	img, %rcx
	movl	148(%rcx), %ecx
	addl	-4(%rbp), %ecx
	movslq	%ecx, %rcx
	movq	$-1, (%rax,%rcx,8)
.LBB30_59:                              # %if.end685
                                        #   in Loop: Header=BB30_32 Depth=2
	jmp	.LBB30_60
.LBB30_60:                              # %for.inc686
                                        #   in Loop: Header=BB30_32 Depth=2
	movl	-8(%rbp), %eax
	addl	$1, %eax
	movl	%eax, -8(%rbp)
	jmp	.LBB30_32
.LBB30_61:                              # %for.end688
                                        #   in Loop: Header=BB30_30 Depth=1
	jmp	.LBB30_62
.LBB30_62:                              # %for.inc689
                                        #   in Loop: Header=BB30_30 Depth=1
	movl	-4(%rbp), %eax
	addl	$1, %eax
	movl	%eax, -4(%rbp)
	jmp	.LBB30_30
.LBB30_63:                              # %for.end691
	jmp	.LBB30_64
.LBB30_64:                              # %if.end692
	cmpl	$1900861114, -68(%rbp)  # imm = 0x714CD6BA
	jne	.LBB30_66
.LBB30_65:
	addq	$96, %rsp
	popq	%rbp
	.cfi_def_cfa %rsp, 8
	retq
.LBB30_66:                              # %func_exit
	.cfi_def_cfa %rbp, 16
	callq	detect_breach
	jmp	.LBB30_65
.Lfunc_end30:
	.size	SetRefAndMotionVectors.1, .Lfunc_end30-SetRefAndMotionVectors.1
	.cfi_endproc
                                        # -- End function
	.globl	StoreNewMotionVectorsBlock8x8.2 # -- Begin function StoreNewMotionVectorsBlock8x8.2
	.p2align	4, 0x90
	.type	StoreNewMotionVectorsBlock8x8.2,@function
StoreNewMotionVectorsBlock8x8.2:        # @StoreNewMotionVectorsBlock8x8.2
	.cfi_startproc
# %bb.0:                                # %entry
	pushq	%rbp
	.cfi_def_cfa_offset 16
	.cfi_offset %rbp, -16
	movq	%rsp, %rbp
	.cfi_def_cfa_register %rbp
	subq	$80, %rsp
	movl	16(%rbp), %eax
	movl	$1323441156, -72(%rbp)  # imm = 0x4EE21C04
	movl	%edi, -12(%rbp)
	movl	%esi, -68(%rbp)
	movl	%edx, -16(%rbp)
	movl	%ecx, -20(%rbp)
	movl	%r8d, -44(%rbp)
	movl	%r9d, -40(%rbp)
	movq	img, %rax
	movq	71928(%rax), %rax
	movq	%rax, -64(%rbp)
	movq	img, %rax
	movq	71920(%rax), %rax
	movq	%rax, -56(%rbp)
	movl	-68(%rbp), %eax
	cltd
	movl	$2, %ecx
	idivl	%ecx
	shll	$1, %edx
	movl	%edx, -28(%rbp)
	movl	-68(%rbp), %eax
	cltd
	idivl	%ecx
	shll	$1, %eax
	movl	%eax, -24(%rbp)
	movl	-28(%rbp), %eax
	addl	$2, %eax
	movl	%eax, -32(%rbp)
	movl	-24(%rbp), %eax
	addl	$2, %eax
	movl	%eax, -36(%rbp)
	cmpl	$0, -40(%rbp)
	jge	.LBB31_10
# %bb.1:                                # %if.then
	movl	-24(%rbp), %eax
	movl	%eax, -8(%rbp)
.LBB31_2:                               # %for.cond
                                        # =>This Loop Header: Depth=1
                                        #     Child Loop BB31_4 Depth 2
	movl	-8(%rbp), %eax
	cmpl	-36(%rbp), %eax
	jge	.LBB31_9
# %bb.3:                                # %for.body
                                        #   in Loop: Header=BB31_2 Depth=1
	movl	-28(%rbp), %eax
	movl	%eax, -4(%rbp)
.LBB31_4:                               # %for.cond6
                                        #   Parent Loop BB31_2 Depth=1
                                        # =>  This Inner Loop Header: Depth=2
	movl	-4(%rbp), %eax
	cmpl	-32(%rbp), %eax
	jge	.LBB31_7
# %bb.5:                                # %for.body8
                                        #   in Loop: Header=BB31_4 Depth=2
	movslq	-12(%rbp), %rcx
	shlq	$7, %rcx
	movabsq	$all_mv8x8, %rax
	movq	%rax, %rdx
	addq	%rcx, %rdx
	movslq	-4(%rbp), %rcx
	shlq	$4, %rcx
	addq	%rcx, %rdx
	movslq	-8(%rbp), %rcx
	movw	$0, (%rdx,%rcx,4)
	movslq	-12(%rbp), %rcx
	shlq	$7, %rcx
	movq	%rax, %rdx
	addq	%rcx, %rdx
	movslq	-4(%rbp), %rcx
	shlq	$4, %rcx
	addq	%rcx, %rdx
	movslq	-8(%rbp), %rcx
	movw	$0, 2(%rdx,%rcx,4)
	movslq	-12(%rbp), %rcx
	shlq	$7, %rcx
	movq	%rax, %rdx
	addq	%rcx, %rdx
	addq	$64, %rdx
	movslq	-4(%rbp), %rcx
	shlq	$4, %rcx
	addq	%rcx, %rdx
	movslq	-8(%rbp), %rcx
	movw	$0, (%rdx,%rcx,4)
	movslq	-12(%rbp), %rcx
	shlq	$7, %rcx
	addq	%rcx, %rax
	addq	$64, %rax
	movslq	-4(%rbp), %rcx
	shlq	$4, %rcx
	addq	%rcx, %rax
	movslq	-8(%rbp), %rcx
	movw	$0, 2(%rax,%rcx,4)
# %bb.6:                                # %for.inc
                                        #   in Loop: Header=BB31_4 Depth=2
	movl	-4(%rbp), %eax
	addl	$1, %eax
	movl	%eax, -4(%rbp)
	jmp	.LBB31_4
.LBB31_7:                               # %for.end
                                        #   in Loop: Header=BB31_2 Depth=1
	jmp	.LBB31_8
.LBB31_8:                               # %for.inc39
                                        #   in Loop: Header=BB31_2 Depth=1
	movl	-8(%rbp), %eax
	addl	$1, %eax
	movl	%eax, -8(%rbp)
	jmp	.LBB31_2
.LBB31_9:                               # %for.end41
	jmp	.LBB31_61
.LBB31_10:                              # %if.end
	cmpl	$0, 16(%rbp)
	jne	.LBB31_20
# %bb.11:                               # %if.then42
	movl	-24(%rbp), %eax
	movl	%eax, -8(%rbp)
.LBB31_12:                              # %for.cond43
                                        # =>This Loop Header: Depth=1
                                        #     Child Loop BB31_14 Depth 2
	movl	-8(%rbp), %eax
	cmpl	-36(%rbp), %eax
	jge	.LBB31_19
# %bb.13:                               # %for.body45
                                        #   in Loop: Header=BB31_12 Depth=1
	movl	-28(%rbp), %eax
	movl	%eax, -4(%rbp)
.LBB31_14:                              # %for.cond46
                                        #   Parent Loop BB31_12 Depth=1
                                        # =>  This Inner Loop Header: Depth=2
	movl	-4(%rbp), %eax
	cmpl	-32(%rbp), %eax
	jge	.LBB31_17
# %bb.15:                               # %for.body48
                                        #   in Loop: Header=BB31_14 Depth=2
	movq	-64(%rbp), %rax
	movslq	-4(%rbp), %rcx
	movq	(%rax,%rcx,8), %rax
	movslq	-8(%rbp), %rcx
	movq	(%rax,%rcx,8), %rax
	movq	(%rax), %rax
	movslq	-20(%rbp), %rcx
	movq	(%rax,%rcx,8), %rax
	movq	32(%rax), %rax
	movw	(%rax), %ax
	movslq	-12(%rbp), %rcx
	shlq	$7, %rcx
	movabsq	$all_mv8x8, %rdx
	movq	%rdx, %rsi
	addq	%rcx, %rsi
	movslq	-4(%rbp), %rcx
	shlq	$4, %rcx
	addq	%rcx, %rsi
	movslq	-8(%rbp), %rcx
	movw	%ax, (%rsi,%rcx,4)
	movq	-64(%rbp), %rax
	movslq	-4(%rbp), %rcx
	movq	(%rax,%rcx,8), %rax
	movslq	-8(%rbp), %rcx
	movq	(%rax,%rcx,8), %rax
	movq	(%rax), %rax
	movslq	-20(%rbp), %rcx
	movq	(%rax,%rcx,8), %rax
	movq	32(%rax), %rax
	movw	2(%rax), %ax
	movslq	-12(%rbp), %rcx
	shlq	$7, %rcx
	addq	%rcx, %rdx
	movslq	-4(%rbp), %rcx
	shlq	$4, %rcx
	addq	%rcx, %rdx
	movslq	-8(%rbp), %rcx
	movw	%ax, 2(%rdx,%rcx,4)
	movq	-56(%rbp), %rax
	movslq	-4(%rbp), %rcx
	movq	(%rax,%rcx,8), %rax
	movslq	-8(%rbp), %rcx
	movq	(%rax,%rcx,8), %rax
	movq	(%rax), %rax
	movslq	-20(%rbp), %rcx
	movq	(%rax,%rcx,8), %rax
	movq	32(%rax), %rax
	movw	(%rax), %ax
	movslq	-12(%rbp), %rcx
	shlq	$7, %rcx
	movabsq	$pred_mv8x8, %rdx
	movq	%rdx, %rsi
	addq	%rcx, %rsi
	movslq	-4(%rbp), %rcx
	shlq	$4, %rcx
	addq	%rcx, %rsi
	movslq	-8(%rbp), %rcx
	movw	%ax, (%rsi,%rcx,4)
	movq	-56(%rbp), %rax
	movslq	-4(%rbp), %rcx
	movq	(%rax,%rcx,8), %rax
	movslq	-8(%rbp), %rcx
	movq	(%rax,%rcx,8), %rax
	movq	(%rax), %rax
	movslq	-20(%rbp), %rcx
	movq	(%rax,%rcx,8), %rax
	movq	32(%rax), %rax
	movw	2(%rax), %ax
	movslq	-12(%rbp), %rcx
	shlq	$7, %rcx
	addq	%rcx, %rdx
	movslq	-4(%rbp), %rcx
	shlq	$4, %rcx
	addq	%rcx, %rdx
	movslq	-8(%rbp), %rcx
	movw	%ax, 2(%rdx,%rcx,4)
# %bb.16:                               # %for.inc117
                                        #   in Loop: Header=BB31_14 Depth=2
	movl	-4(%rbp), %eax
	addl	$1, %eax
	movl	%eax, -4(%rbp)
	jmp	.LBB31_14
.LBB31_17:                              # %for.end119
                                        #   in Loop: Header=BB31_12 Depth=1
	jmp	.LBB31_18
.LBB31_18:                              # %for.inc120
                                        #   in Loop: Header=BB31_12 Depth=1
	movl	-8(%rbp), %eax
	addl	$1, %eax
	movl	%eax, -8(%rbp)
	jmp	.LBB31_12
.LBB31_19:                              # %for.end122
	jmp	.LBB31_61
.LBB31_20:                              # %if.else
	cmpl	$0, -40(%rbp)
	je	.LBB31_22
# %bb.21:                               # %lor.lhs.false
	cmpl	$2, -40(%rbp)
	jne	.LBB31_31
.LBB31_22:                              # %if.then125
	movl	-24(%rbp), %eax
	movl	%eax, -8(%rbp)
.LBB31_23:                              # %for.cond126
                                        # =>This Loop Header: Depth=1
                                        #     Child Loop BB31_25 Depth 2
	movl	-8(%rbp), %eax
	cmpl	-36(%rbp), %eax
	jge	.LBB31_30
# %bb.24:                               # %for.body128
                                        #   in Loop: Header=BB31_23 Depth=1
	movl	-28(%rbp), %eax
	movl	%eax, -4(%rbp)
.LBB31_25:                              # %for.cond129
                                        #   Parent Loop BB31_23 Depth=1
                                        # =>  This Inner Loop Header: Depth=2
	movl	-4(%rbp), %eax
	cmpl	-32(%rbp), %eax
	jge	.LBB31_28
# %bb.26:                               # %for.body131
                                        #   in Loop: Header=BB31_25 Depth=2
	movq	-64(%rbp), %rax
	movslq	-4(%rbp), %rcx
	movq	(%rax,%rcx,8), %rax
	movslq	-8(%rbp), %rcx
	movq	(%rax,%rcx,8), %rax
	movq	(%rax), %rax
	movslq	-20(%rbp), %rcx
	movq	(%rax,%rcx,8), %rax
	movslq	-16(%rbp), %rcx
	movq	(%rax,%rcx,8), %rax
	movw	(%rax), %ax
	movslq	-12(%rbp), %rcx
	shlq	$7, %rcx
	movabsq	$all_mv8x8, %rdx
	movq	%rdx, %rsi
	addq	%rcx, %rsi
	movslq	-4(%rbp), %rcx
	shlq	$4, %rcx
	addq	%rcx, %rsi
	movslq	-8(%rbp), %rcx
	movw	%ax, (%rsi,%rcx,4)
	movq	-64(%rbp), %rax
	movslq	-4(%rbp), %rcx
	movq	(%rax,%rcx,8), %rax
	movslq	-8(%rbp), %rcx
	movq	(%rax,%rcx,8), %rax
	movq	(%rax), %rax
	movslq	-20(%rbp), %rcx
	movq	(%rax,%rcx,8), %rax
	movslq	-16(%rbp), %rcx
	movq	(%rax,%rcx,8), %rax
	movw	2(%rax), %ax
	movslq	-12(%rbp), %rcx
	shlq	$7, %rcx
	addq	%rcx, %rdx
	movslq	-4(%rbp), %rcx
	shlq	$4, %rcx
	addq	%rcx, %rdx
	movslq	-8(%rbp), %rcx
	movw	%ax, 2(%rdx,%rcx,4)
	movq	-56(%rbp), %rax
	movslq	-4(%rbp), %rcx
	movq	(%rax,%rcx,8), %rax
	movslq	-8(%rbp), %rcx
	movq	(%rax,%rcx,8), %rax
	movq	(%rax), %rax
	movslq	-20(%rbp), %rcx
	movq	(%rax,%rcx,8), %rax
	movslq	-16(%rbp), %rcx
	movq	(%rax,%rcx,8), %rax
	movw	(%rax), %ax
	movslq	-12(%rbp), %rcx
	shlq	$7, %rcx
	movabsq	$pred_mv8x8, %rdx
	movq	%rdx, %rsi
	addq	%rcx, %rsi
	movslq	-4(%rbp), %rcx
	shlq	$4, %rcx
	addq	%rcx, %rsi
	movslq	-8(%rbp), %rcx
	movw	%ax, (%rsi,%rcx,4)
	movq	-56(%rbp), %rax
	movslq	-4(%rbp), %rcx
	movq	(%rax,%rcx,8), %rax
	movslq	-8(%rbp), %rcx
	movq	(%rax,%rcx,8), %rax
	movq	(%rax), %rax
	movslq	-20(%rbp), %rcx
	movq	(%rax,%rcx,8), %rax
	movslq	-16(%rbp), %rcx
	movq	(%rax,%rcx,8), %rax
	movw	2(%rax), %ax
	movslq	-12(%rbp), %rcx
	shlq	$7, %rcx
	addq	%rcx, %rdx
	movslq	-4(%rbp), %rcx
	shlq	$4, %rcx
	addq	%rcx, %rdx
	movslq	-8(%rbp), %rcx
	movw	%ax, 2(%rdx,%rcx,4)
# %bb.27:                               # %for.inc204
                                        #   in Loop: Header=BB31_25 Depth=2
	movl	-4(%rbp), %eax
	addl	$1, %eax
	movl	%eax, -4(%rbp)
	jmp	.LBB31_25
.LBB31_28:                              # %for.end206
                                        #   in Loop: Header=BB31_23 Depth=1
	jmp	.LBB31_29
.LBB31_29:                              # %for.inc207
                                        #   in Loop: Header=BB31_23 Depth=1
	movl	-8(%rbp), %eax
	addl	$1, %eax
	movl	%eax, -8(%rbp)
	jmp	.LBB31_23
.LBB31_30:                              # %for.end209
	jmp	.LBB31_40
.LBB31_31:                              # %if.else210
	movl	-24(%rbp), %eax
	movl	%eax, -8(%rbp)
.LBB31_32:                              # %for.cond211
                                        # =>This Loop Header: Depth=1
                                        #     Child Loop BB31_34 Depth 2
	movl	-8(%rbp), %eax
	cmpl	-36(%rbp), %eax
	jge	.LBB31_39
# %bb.33:                               # %for.body213
                                        #   in Loop: Header=BB31_32 Depth=1
	movl	-28(%rbp), %eax
	movl	%eax, -4(%rbp)
.LBB31_34:                              # %for.cond214
                                        #   Parent Loop BB31_32 Depth=1
                                        # =>  This Inner Loop Header: Depth=2
	movl	-4(%rbp), %eax
	cmpl	-32(%rbp), %eax
	jge	.LBB31_37
# %bb.35:                               # %for.body216
                                        #   in Loop: Header=BB31_34 Depth=2
	movslq	-12(%rbp), %rax
	shlq	$7, %rax
	movabsq	$all_mv8x8, %rcx
	movq	%rcx, %rdx
	addq	%rax, %rdx
	movslq	-4(%rbp), %rax
	shlq	$4, %rax
	addq	%rax, %rdx
	movslq	-8(%rbp), %rax
	movw	$0, (%rdx,%rax,4)
	movslq	-12(%rbp), %rax
	shlq	$7, %rax
	addq	%rax, %rcx
	movslq	-4(%rbp), %rax
	shlq	$4, %rax
	addq	%rax, %rcx
	movslq	-8(%rbp), %rax
	movw	$0, 2(%rcx,%rax,4)
# %bb.36:                               # %for.inc233
                                        #   in Loop: Header=BB31_34 Depth=2
	movl	-4(%rbp), %eax
	addl	$1, %eax
	movl	%eax, -4(%rbp)
	jmp	.LBB31_34
.LBB31_37:                              # %for.end235
                                        #   in Loop: Header=BB31_32 Depth=1
	jmp	.LBB31_38
.LBB31_38:                              # %for.inc236
                                        #   in Loop: Header=BB31_32 Depth=1
	movl	-8(%rbp), %eax
	addl	$1, %eax
	movl	%eax, -8(%rbp)
	jmp	.LBB31_32
.LBB31_39:                              # %for.end238
	jmp	.LBB31_40
.LBB31_40:                              # %if.end239
	cmpl	$1, -40(%rbp)
	je	.LBB31_42
# %bb.41:                               # %lor.lhs.false241
	cmpl	$2, -40(%rbp)
	jne	.LBB31_51
.LBB31_42:                              # %if.then243
	movl	-24(%rbp), %eax
	movl	%eax, -8(%rbp)
.LBB31_43:                              # %for.cond244
                                        # =>This Loop Header: Depth=1
                                        #     Child Loop BB31_45 Depth 2
	movl	-8(%rbp), %eax
	cmpl	-36(%rbp), %eax
	jge	.LBB31_50
# %bb.44:                               # %for.body246
                                        #   in Loop: Header=BB31_43 Depth=1
	movl	-28(%rbp), %eax
	movl	%eax, -4(%rbp)
.LBB31_45:                              # %for.cond247
                                        #   Parent Loop BB31_43 Depth=1
                                        # =>  This Inner Loop Header: Depth=2
	movl	-4(%rbp), %eax
	cmpl	-32(%rbp), %eax
	jge	.LBB31_48
# %bb.46:                               # %for.body249
                                        #   in Loop: Header=BB31_45 Depth=2
	movq	-64(%rbp), %rax
	movslq	-4(%rbp), %rcx
	movq	(%rax,%rcx,8), %rax
	movslq	-8(%rbp), %rcx
	movq	(%rax,%rcx,8), %rax
	movq	8(%rax), %rax
	movslq	-44(%rbp), %rcx
	movq	(%rax,%rcx,8), %rax
	movslq	-16(%rbp), %rcx
	movq	(%rax,%rcx,8), %rax
	movw	(%rax), %cx
	movslq	-12(%rbp), %rdx
	shlq	$7, %rdx
	movabsq	$all_mv8x8, %rax
	movq	%rax, %rsi
	addq	%rdx, %rsi
	addq	$64, %rsi
	movslq	-4(%rbp), %rdx
	shlq	$4, %rdx
	addq	%rdx, %rsi
	movslq	-8(%rbp), %rdx
	movw	%cx, (%rsi,%rdx,4)
	movq	-64(%rbp), %rcx
	movslq	-4(%rbp), %rdx
	movq	(%rcx,%rdx,8), %rcx
	movslq	-8(%rbp), %rdx
	movq	(%rcx,%rdx,8), %rcx
	movq	8(%rcx), %rcx
	movslq	-44(%rbp), %rdx
	movq	(%rcx,%rdx,8), %rcx
	movslq	-16(%rbp), %rdx
	movq	(%rcx,%rdx,8), %rcx
	movw	2(%rcx), %cx
	movslq	-12(%rbp), %rdx
	shlq	$7, %rdx
	addq	%rdx, %rax
	addq	$64, %rax
	movslq	-4(%rbp), %rdx
	shlq	$4, %rdx
	addq	%rdx, %rax
	movslq	-8(%rbp), %rdx
	movw	%cx, 2(%rax,%rdx,4)
	movq	-56(%rbp), %rax
	movslq	-4(%rbp), %rcx
	movq	(%rax,%rcx,8), %rax
	movslq	-8(%rbp), %rcx
	movq	(%rax,%rcx,8), %rax
	movq	8(%rax), %rax
	movslq	-44(%rbp), %rcx
	movq	(%rax,%rcx,8), %rax
	movslq	-16(%rbp), %rcx
	movq	(%rax,%rcx,8), %rax
	movw	(%rax), %cx
	movslq	-12(%rbp), %rdx
	shlq	$7, %rdx
	movabsq	$pred_mv8x8, %rax
	movq	%rax, %rsi
	addq	%rdx, %rsi
	addq	$64, %rsi
	movslq	-4(%rbp), %rdx
	shlq	$4, %rdx
	addq	%rdx, %rsi
	movslq	-8(%rbp), %rdx
	movw	%cx, (%rsi,%rdx,4)
	movq	-56(%rbp), %rcx
	movslq	-4(%rbp), %rdx
	movq	(%rcx,%rdx,8), %rcx
	movslq	-8(%rbp), %rdx
	movq	(%rcx,%rdx,8), %rcx
	movq	8(%rcx), %rcx
	movslq	-44(%rbp), %rdx
	movq	(%rcx,%rdx,8), %rcx
	movslq	-16(%rbp), %rdx
	movq	(%rcx,%rdx,8), %rcx
	movw	2(%rcx), %cx
	movslq	-12(%rbp), %rdx
	shlq	$7, %rdx
	addq	%rdx, %rax
	addq	$64, %rax
	movslq	-4(%rbp), %rdx
	shlq	$4, %rdx
	addq	%rdx, %rax
	movslq	-8(%rbp), %rdx
	movw	%cx, 2(%rax,%rdx,4)
# %bb.47:                               # %for.inc322
                                        #   in Loop: Header=BB31_45 Depth=2
	movl	-4(%rbp), %eax
	addl	$1, %eax
	movl	%eax, -4(%rbp)
	jmp	.LBB31_45
.LBB31_48:                              # %for.end324
                                        #   in Loop: Header=BB31_43 Depth=1
	jmp	.LBB31_49
.LBB31_49:                              # %for.inc325
                                        #   in Loop: Header=BB31_43 Depth=1
	movl	-8(%rbp), %eax
	addl	$1, %eax
	movl	%eax, -8(%rbp)
	jmp	.LBB31_43
.LBB31_50:                              # %for.end327
	jmp	.LBB31_60
.LBB31_51:                              # %if.else328
	movl	-24(%rbp), %eax
	movl	%eax, -8(%rbp)
.LBB31_52:                              # %for.cond329
                                        # =>This Loop Header: Depth=1
                                        #     Child Loop BB31_54 Depth 2
	movl	-8(%rbp), %eax
	cmpl	-36(%rbp), %eax
	jge	.LBB31_59
# %bb.53:                               # %for.body331
                                        #   in Loop: Header=BB31_52 Depth=1
	movl	-28(%rbp), %eax
	movl	%eax, -4(%rbp)
.LBB31_54:                              # %for.cond332
                                        #   Parent Loop BB31_52 Depth=1
                                        # =>  This Inner Loop Header: Depth=2
	movl	-4(%rbp), %eax
	cmpl	-32(%rbp), %eax
	jge	.LBB31_57
# %bb.55:                               # %for.body334
                                        #   in Loop: Header=BB31_54 Depth=2
	movslq	-12(%rbp), %rax
	shlq	$7, %rax
	movabsq	$all_mv8x8, %rcx
	movq	%rcx, %rdx
	addq	%rax, %rdx
	addq	$64, %rdx
	movslq	-4(%rbp), %rax
	shlq	$4, %rax
	addq	%rax, %rdx
	movslq	-8(%rbp), %rax
	movw	$0, (%rdx,%rax,4)
	movslq	-12(%rbp), %rax
	shlq	$7, %rax
	addq	%rax, %rcx
	addq	$64, %rcx
	movslq	-4(%rbp), %rax
	shlq	$4, %rax
	addq	%rax, %rcx
	movslq	-8(%rbp), %rax
	movw	$0, 2(%rcx,%rax,4)
# %bb.56:                               # %for.inc351
                                        #   in Loop: Header=BB31_54 Depth=2
	movl	-4(%rbp), %eax
	addl	$1, %eax
	movl	%eax, -4(%rbp)
	jmp	.LBB31_54
.LBB31_57:                              # %for.end353
                                        #   in Loop: Header=BB31_52 Depth=1
	jmp	.LBB31_58
.LBB31_58:                              # %for.inc354
                                        #   in Loop: Header=BB31_52 Depth=1
	movl	-8(%rbp), %eax
	addl	$1, %eax
	movl	%eax, -8(%rbp)
	jmp	.LBB31_52
.LBB31_59:                              # %for.end356
	jmp	.LBB31_60
.LBB31_60:                              # %if.end357
	jmp	.LBB31_61
.LBB31_61:                              # %if.end358
	cmpl	$1323441156, -72(%rbp)  # imm = 0x4EE21C04
	jne	.LBB31_63
.LBB31_62:
	addq	$80, %rsp
	popq	%rbp
	.cfi_def_cfa %rsp, 8
	retq
.LBB31_63:                              # %func_exit
	.cfi_def_cfa %rbp, 16
	callq	detect_breach
	jmp	.LBB31_62
.Lfunc_end31:
	.size	StoreNewMotionVectorsBlock8x8.2, .Lfunc_end31-StoreNewMotionVectorsBlock8x8.2
	.cfi_endproc
                                        # -- End function
	.section	.rodata.cst8,"aM",@progbits,8
	.p2align	3               # -- Begin function encode_one_macroblock.3
.LCPI32_0:
	.quad	5055640609639927018     # double 1.0E+30
.LCPI32_1:
	.quad	4622945017495814144     # double 12
.LCPI32_2:
	.quad	4607182418800017408     # double 1
.LCPI32_3:
	.quad	4587366580439587226     # double 0.050000000000000003
.LCPI32_4:
	.quad	4605831338911806259     # double 0.84999999999999998
.LCPI32_5:
	.quad	4611686018427387904     # double 2
.LCPI32_6:
	.quad	4613937818241073152     # double 3
.LCPI32_7:
	.quad	4608983858650965606     # double 1.3999999999999999
.LCPI32_8:
	.quad	4616189618054758400     # double 4
.LCPI32_9:
	.quad	4604300115038500291     # double 0.68000000000000005
.LCPI32_10:
	.quad	4618441417868443648     # double 6
.LCPI32_11:
	.quad	4605380978949069210     # double 0.80000000000000004
.LCPI32_12:
	.quad	4600877379321698714     # double 0.40000000000000002
.LCPI32_13:
	.quad	4596373779694328218     # double 0.20000000000000001
.LCPI32_14:
	.quad	4606732058837280358     # double 0.94999999999999996
.LCPI32_15:
	.quad	4602678819172646912     # double 0.5
.LCPI32_16:
	.quad	4679240012837945344     # double 65536
.LCPI32_17:
	.quad	4602677017732795964     # double 0.49990000000000001
.LCPI32_18:
	.quad	4625196817309499392     # double 16
	.text
	.globl	encode_one_macroblock.3
	.p2align	4, 0x90
	.type	encode_one_macroblock.3,@function
encode_one_macroblock.3:                # @encode_one_macroblock.3
	.cfi_startproc
# %bb.0:                                # %entry
	pushq	%rbp
	.cfi_def_cfa_offset 16
	.cfi_offset %rbp, -16
	movq	%rsp, %rbp
	.cfi_def_cfa_register %rbp
	pushq	%r14
	pushq	%rbx
	subq	$480, %rsp              # imm = 0x1E0
	.cfi_offset %rbx, -32
	.cfi_offset %r14, -24
	vmovsd	.LCPI32_0(%rip), %xmm0  # xmm0 = mem[0],zero
	movl	$1049517294, -412(%rbp) # imm = 0x3E8E5CEE
	vxorps	%xmm1, %xmm1, %xmm1
	vmovsd	%xmm1, -296(%rbp)
	vmovsd	%xmm0, -480(%rbp)
	movl	$2147483647, -208(%rbp) # imm = 0x7FFFFFFF
	movl	$0, -272(%rbp)
	movl	$0, -180(%rbp)
	movw	$0, -36(%rbp)
	movl	$0, -60(%rbp)
	movl	-208(%rbp), %eax
	movl	%eax, -112(%rbp)
	movl	$0, -140(%rbp)
	movl	$0, -264(%rbp)
	movl	$0, -260(%rbp)
	movl	$0, -188(%rbp)
	movl	$0, -320(%rbp)
	movl	$0, -204(%rbp)
	movq	img, %rax
	cmpl	$0, 24(%rax)
	je	.LBB32_2
# %bb.1:                                # %lor.lhs.false
	movq	img, %rax
	cmpl	$3, 24(%rax)
	jne	.LBB32_4
.LBB32_2:                               # %land.lhs.true
	movq	img, %rax
	movl	140(%rax), %eax
	movq	img, %rcx
	cmpl	88(%rcx), %eax
	jne	.LBB32_4
# %bb.3:                                # %land.lhs.true4
	movq	img, %rax
	movl	88(%rax), %eax
	movq	img, %rcx
	cmpl	92(%rcx), %eax
	movb	$1, %cl
	jne	.LBB32_5
.LBB32_4:                               # %lor.rhs
	movq	img, %rax
	cmpl	$2, 24(%rax)
	sete	%cl
.LBB32_5:                               # %lor.end
	xorl	%eax, %eax
	andb	$1, %cl
	movzbl	%cl, %ecx
	movl	%ecx, -136(%rbp)
	movq	img, %rcx
	cmpl	$3, 24(%rcx)
	sete	%cl
	andb	$1, %cl
	movzbl	%cl, %ecx
	movl	%ecx, -300(%rbp)
	movq	img, %rcx
	cmpl	$4, 24(%rcx)
	sete	%cl
	andb	$1, %cl
	movzbl	%cl, %ecx
	movl	%ecx, -416(%rbp)
	movq	img, %rcx
	cmpl	$1, 24(%rcx)
	sete	%cl
	andb	$1, %cl
	movzbl	%cl, %ecx
	movl	%ecx, -108(%rbp)
	movq	input, %rcx
	cmpl	$1, 2908(%rcx)
	jne	.LBB32_13
# %bb.6:                                # %land.lhs.true19
	xorl	%eax, %eax
	movq	input, %rcx
	cmpl	$2, 2464(%rcx)
	jne	.LBB32_13
# %bb.7:                                # %land.rhs
	movq	img, %rax
	cmpl	$0, 24(%rax)
	movb	$1, %al
	je	.LBB32_12
# %bb.8:                                # %lor.lhs.false25
	movq	img, %rax
	cmpl	$3, 24(%rax)
	movb	$1, %al
	je	.LBB32_12
# %bb.9:                                # %lor.rhs29
	xorl	%eax, %eax
	movq	img, %rcx
	cmpl	$1, 24(%rcx)
	jne	.LBB32_11
# %bb.10:                               # %land.rhs33
	movq	img, %rax
	cmpl	$0, 72496(%rax)
	setg	%al
.LBB32_11:                              # %land.end
.LBB32_12:                              # %lor.end36
.LBB32_13:                              # %land.end38
	xorl	%ecx, %ecx
	testb	$1, %al
	movl	$2, %eax
	movl	$1, %edx
	cmovnel	%eax, %edx
	movl	%edx, -312(%rbp)
	movq	input, %rax
	cmpl	$0, 2464(%rax)
	je	.LBB32_18
# %bb.14:                               # %land.lhs.true40
	xorl	%ecx, %ecx
	movq	input, %rax
	cmpl	$0, 2908(%rax)
	je	.LBB32_18
# %bb.15:                               # %land.rhs43
	movq	img, %rax
	cmpl	$0, 24(%rax)
	movb	$1, %cl
	je	.LBB32_17
# %bb.16:                               # %lor.rhs47
	movq	img, %rax
	cmpl	$3, 24(%rax)
	sete	%cl
.LBB32_17:                              # %lor.end51
.LBB32_18:                              # %land.end53
	andb	$1, %cl
	movzbl	%cl, %eax
	movl	%eax, -280(%rbp)
	movq	img, %rax
	movq	14168(%rax), %rax
	movq	img, %rcx
	movslq	12(%rcx), %rcx
	imulq	$632, %rcx, %rcx        # imm = 0x278
	addq	%rcx, %rax
	movq	%rax, -48(%rbp)
	movq	img, %rax
	cmpl	$0, 12(%rax)
	je	.LBB32_20
# %bb.19:                               # %cond.true
	movq	img, %rax
	movq	14168(%rax), %rcx
	movq	img, %rax
	movl	12(%rax), %eax
	subl	$1, %eax
	cltq
	imulq	$632, %rax, %rax        # imm = 0x278
	addq	%rax, %rcx
	jmp	.LBB32_21
.LBB32_20:                              # %cond.false
	xorl	%ecx, %ecx
	jmp	.LBB32_21
.LBB32_21:                              # %cond.end
	xorl	%eax, %eax
	movq	%rcx, -448(%rbp)
	movq	img, %rcx
	movq	104(%rcx), %rcx
	movq	%rcx, -392(%rbp)
	movw	$-1, -38(%rbp)
	movq	img, %rcx
	movq	71928(%rcx), %rcx
	movq	%rcx, -424(%rbp)
	movq	img, %rcx
	cmpl	$0, 72400(%rcx)
	je	.LBB32_23
# %bb.22:                               # %land.rhs62
	movq	-48(%rbp), %rax
	cmpl	$0, 532(%rax)
	setne	%al
.LBB32_23:                              # %land.end64
	andb	$1, %al
	movzbl	%al, %eax
	movl	%eax, -288(%rbp)
	movl	$0, -132(%rbp)
	cmpl	$0, -288(%rbp)
	je	.LBB32_28
# %bb.24:                               # %if.then
	movq	img, %rax
	movl	12(%rax), %eax
	cltd
	movl	$2, %ecx
	idivl	%ecx
	cmpl	$0, %edx
	je	.LBB32_26
# %bb.25:                               # %if.then69
	movl	$4, -64(%rbp)
	jmp	.LBB32_27
.LBB32_26:                              # %if.else
	movl	$2, -64(%rbp)
.LBB32_27:                              # %if.end
	jmp	.LBB32_29
.LBB32_28:                              # %if.else70
	movl	$0, -64(%rbp)
.LBB32_29:                              # %if.end71
	movq	input, %rax
	cmpl	$0, 3292(%rax)
	je	.LBB32_31
# %bb.30:                               # %if.then73
	movb	$0, %al
	callq	decide_intrabk_SAD
.LBB32_31:                              # %if.end74
	movq	img, %rax
	movl	12(%rax), %edi
	callq	RandomIntra
	xorl	%ecx, %ecx
	xorl	%edx, %edx
	orl	-136(%rbp), %eax
	movl	%eax, -136(%rbp)
	movq	input, %rax
	movl	3220(%rax), %eax
	movl	%eax, -332(%rbp)
	movq	input, %rax
	movl	3220(%rax), %eax
	cmpl	$2, %eax
	movl	$1, %eax
	cmovel	%edx, %eax
	movl	%eax, -348(%rbp)
	movl	$1, -344(%rbp)
	cmpl	$0, -136(%rbp)
	setne	%al
	xorb	$-1, %al
	andb	$1, %al
	movzbl	%al, %eax
	movl	%eax, -384(%rbp)
	cmpl	$0, -136(%rbp)
	jne	.LBB32_33
# %bb.32:                               # %land.rhs86
	movq	input, %rax
	cmpl	$0, 2368(%rax)
	setne	%cl
.LBB32_33:                              # %land.end88
	xorl	%eax, %eax
	andb	$1, %cl
	movzbl	%cl, %ecx
	movl	%ecx, -380(%rbp)
	cmpl	$0, -136(%rbp)
	jne	.LBB32_35
# %bb.34:                               # %land.rhs92
	movq	input, %rax
	cmpl	$0, 2372(%rax)
	setne	%al
.LBB32_35:                              # %land.end94
	xorl	%ecx, %ecx
	andb	$1, %al
	movzbl	%al, %eax
	movl	%eax, -376(%rbp)
	cmpl	$0, -136(%rbp)
	jne	.LBB32_37
# %bb.36:                               # %land.rhs98
	movq	input, %rax
	cmpl	$0, 2376(%rax)
	setne	%cl
.LBB32_37:                              # %land.end100
	xorl	%eax, %eax
	andb	$1, %cl
	movzbl	%cl, %ecx
	movl	%ecx, -372(%rbp)
	cmpl	$0, -136(%rbp)
	jne	.LBB32_39
# %bb.38:                               # %land.rhs104
	movq	input, %rax
	cmpl	$0, 2380(%rax)
	setne	%al
.LBB32_39:                              # %land.end106
	xorl	%ecx, %ecx
	andb	$1, %al
	movzbl	%al, %eax
	movl	%eax, -368(%rbp)
	cmpl	$0, -136(%rbp)
	jne	.LBB32_41
# %bb.40:                               # %land.rhs110
	movq	input, %rax
	cmpl	$0, 2384(%rax)
	setne	%cl
.LBB32_41:                              # %land.end112
	xorl	%eax, %eax
	andb	$1, %cl
	movzbl	%cl, %ecx
	movl	%ecx, -364(%rbp)
	cmpl	$0, -136(%rbp)
	jne	.LBB32_43
# %bb.42:                               # %land.rhs116
	movq	input, %rax
	cmpl	$0, 2388(%rax)
	setne	%al
.LBB32_43:                              # %land.end118
	xorl	%ecx, %ecx
	andb	$1, %al
	movzbl	%al, %eax
	movl	%eax, -360(%rbp)
	cmpl	$0, -136(%rbp)
	jne	.LBB32_45
# %bb.44:                               # %land.rhs122
	movq	input, %rax
	cmpl	$0, 2392(%rax)
	setne	%cl
.LBB32_45:                              # %land.end124
	andb	$1, %cl
	movzbl	%cl, %eax
	movl	%eax, -356(%rbp)
	movq	input, %rax
	cmpl	$2, 3220(%rax)
	jne	.LBB32_47
# %bb.46:                               # %if.then130
	movl	$0, -356(%rbp)
	movl	$0, -360(%rbp)
	movl	$0, -364(%rbp)
.LBB32_47:                              # %if.end134
	cmpl	$0, -368(%rbp)
	movb	$1, %al
	jne	.LBB32_51
# %bb.48:                               # %lor.lhs.false137
	cmpl	$0, -364(%rbp)
	movb	$1, %al
	jne	.LBB32_51
# %bb.49:                               # %lor.lhs.false140
	cmpl	$0, -360(%rbp)
	movb	$1, %al
	jne	.LBB32_51
# %bb.50:                               # %lor.rhs143
	cmpl	$0, -356(%rbp)
	setne	%al
.LBB32_51:                              # %lor.end146
	andb	$1, %al
	movzbl	%al, %eax
	movl	%eax, -352(%rbp)
	movl	-416(%rbp), %eax
	movl	%eax, -336(%rbp)
	movq	img, %rax
	cmpl	$0, 72400(%rax)
	jne	.LBB32_67
# %bb.52:                               # %if.then152
	movl	-64(%rbp), %eax
	addl	$0, %eax
	movl	%eax, -84(%rbp)
.LBB32_53:                              # %for.cond
                                        # =>This Loop Header: Depth=1
                                        #     Child Loop BB32_55 Depth 2
	movl	-84(%rbp), %eax
	movl	-64(%rbp), %ecx
	addl	$2, %ecx
	cmpl	%ecx, %eax
	jge	.LBB32_66
# %bb.54:                               # %for.body
                                        #   in Loop: Header=BB32_53 Depth=1
	movl	$0, -56(%rbp)
.LBB32_55:                              # %for.cond156
                                        #   Parent Loop BB32_53 Depth=1
                                        # =>  This Inner Loop Header: Depth=2
	movl	-56(%rbp), %eax
	movslq	-84(%rbp), %rcx
	cmpl	listXsize(,%rcx,4), %eax
	jge	.LBB32_64
# %bb.56:                               # %for.body161
                                        #   in Loop: Header=BB32_55 Depth=2
	movslq	-84(%rbp), %rax
	movq	listX(,%rax,8), %rax
	movslq	-56(%rbp), %rcx
	movq	(%rax,%rcx,8), %rax
	movl	$0, 6408(%rax)
	movq	img, %rax
	cmpl	$1, 28(%rax)
	jne	.LBB32_59
# %bb.57:                               # %land.lhs.true168
                                        #   in Loop: Header=BB32_55 Depth=2
	movq	img, %rax
	movl	28(%rax), %eax
	movslq	-84(%rbp), %rcx
	movq	listX(,%rcx,8), %rcx
	movslq	-56(%rbp), %rdx
	movq	(%rcx,%rdx,8), %rcx
	cmpl	(%rcx), %eax
	je	.LBB32_59
# %bb.58:                               # %if.then177
                                        #   in Loop: Header=BB32_55 Depth=2
	movslq	-84(%rbp), %rax
	movq	listX(,%rax,8), %rax
	movslq	-56(%rbp), %rcx
	movq	(%rax,%rcx,8), %rax
	movl	$-2, 6408(%rax)
.LBB32_59:                              # %if.end183
                                        #   in Loop: Header=BB32_55 Depth=2
	movq	img, %rax
	cmpl	$2, 28(%rax)
	jne	.LBB32_62
# %bb.60:                               # %land.lhs.true187
                                        #   in Loop: Header=BB32_55 Depth=2
	movq	img, %rax
	movl	28(%rax), %eax
	movslq	-84(%rbp), %rcx
	movq	listX(,%rcx,8), %rcx
	movslq	-56(%rbp), %rdx
	movq	(%rcx,%rdx,8), %rcx
	cmpl	(%rcx), %eax
	je	.LBB32_62
# %bb.61:                               # %if.then196
                                        #   in Loop: Header=BB32_55 Depth=2
	movslq	-84(%rbp), %rax
	movq	listX(,%rax,8), %rax
	movslq	-56(%rbp), %rcx
	movq	(%rax,%rcx,8), %rax
	movl	$2, 6408(%rax)
.LBB32_62:                              # %if.end202
                                        #   in Loop: Header=BB32_55 Depth=2
	jmp	.LBB32_63
.LBB32_63:                              # %for.inc
                                        #   in Loop: Header=BB32_55 Depth=2
	movl	-56(%rbp), %eax
	addl	$1, %eax
	movl	%eax, -56(%rbp)
	jmp	.LBB32_55
.LBB32_64:                              # %for.end
                                        #   in Loop: Header=BB32_53 Depth=1
	jmp	.LBB32_65
.LBB32_65:                              # %for.inc203
                                        #   in Loop: Header=BB32_53 Depth=1
	movl	-84(%rbp), %eax
	addl	$1, %eax
	movl	%eax, -84(%rbp)
	jmp	.LBB32_53
.LBB32_66:                              # %for.end205
	jmp	.LBB32_93
.LBB32_67:                              # %if.else206
	cmpl	$0, -288(%rbp)
	je	.LBB32_83
# %bb.68:                               # %if.then208
	movl	-64(%rbp), %eax
	addl	$0, %eax
	movl	%eax, -84(%rbp)
.LBB32_69:                              # %for.cond210
                                        # =>This Loop Header: Depth=1
                                        #     Child Loop BB32_71 Depth 2
	movl	-84(%rbp), %eax
	movl	-64(%rbp), %ecx
	addl	$2, %ecx
	cmpl	%ecx, %eax
	jge	.LBB32_82
# %bb.70:                               # %for.body214
                                        #   in Loop: Header=BB32_69 Depth=1
	movl	$0, -56(%rbp)
.LBB32_71:                              # %for.cond215
                                        #   Parent Loop BB32_69 Depth=1
                                        # =>  This Inner Loop Header: Depth=2
	movl	-56(%rbp), %eax
	movslq	-84(%rbp), %rcx
	cmpl	listXsize(,%rcx,4), %eax
	jge	.LBB32_80
# %bb.72:                               # %for.body220
                                        #   in Loop: Header=BB32_71 Depth=2
	movslq	-84(%rbp), %rax
	movq	listX(,%rax,8), %rax
	movslq	-56(%rbp), %rcx
	movq	(%rax,%rcx,8), %rax
	movl	$0, 6408(%rax)
	movq	img, %rax
	movl	12(%rax), %eax
	cltd
	movl	$2, %ecx
	idivl	%ecx
	cmpl	$0, %edx
	jne	.LBB32_75
# %bb.73:                               # %land.lhs.true230
                                        #   in Loop: Header=BB32_71 Depth=2
	movslq	-84(%rbp), %rax
	movq	listX(,%rax,8), %rax
	movslq	-56(%rbp), %rcx
	movq	(%rax,%rcx,8), %rax
	cmpl	$2, (%rax)
	jne	.LBB32_75
# %bb.74:                               # %if.then238
                                        #   in Loop: Header=BB32_71 Depth=2
	movslq	-84(%rbp), %rax
	movq	listX(,%rax,8), %rax
	movslq	-56(%rbp), %rcx
	movq	(%rax,%rcx,8), %rax
	movl	$-2, 6408(%rax)
.LBB32_75:                              # %if.end244
                                        #   in Loop: Header=BB32_71 Depth=2
	movq	img, %rax
	movl	12(%rax), %eax
	cltd
	movl	$2, %ecx
	idivl	%ecx
	cmpl	$1, %edx
	jne	.LBB32_78
# %bb.76:                               # %land.lhs.true249
                                        #   in Loop: Header=BB32_71 Depth=2
	movslq	-84(%rbp), %rax
	movq	listX(,%rax,8), %rax
	movslq	-56(%rbp), %rcx
	movq	(%rax,%rcx,8), %rax
	cmpl	$1, (%rax)
	jne	.LBB32_78
# %bb.77:                               # %if.then257
                                        #   in Loop: Header=BB32_71 Depth=2
	movslq	-84(%rbp), %rax
	movq	listX(,%rax,8), %rax
	movslq	-56(%rbp), %rcx
	movq	(%rax,%rcx,8), %rax
	movl	$2, 6408(%rax)
.LBB32_78:                              # %if.end263
                                        #   in Loop: Header=BB32_71 Depth=2
	jmp	.LBB32_79
.LBB32_79:                              # %for.inc264
                                        #   in Loop: Header=BB32_71 Depth=2
	movl	-56(%rbp), %eax
	addl	$1, %eax
	movl	%eax, -56(%rbp)
	jmp	.LBB32_71
.LBB32_80:                              # %for.end266
                                        #   in Loop: Header=BB32_69 Depth=1
	jmp	.LBB32_81
.LBB32_81:                              # %for.inc267
                                        #   in Loop: Header=BB32_69 Depth=1
	movl	-84(%rbp), %eax
	addl	$1, %eax
	movl	%eax, -84(%rbp)
	jmp	.LBB32_69
.LBB32_82:                              # %for.end269
	jmp	.LBB32_92
.LBB32_83:                              # %if.else270
	movl	-64(%rbp), %eax
	addl	$0, %eax
	movl	%eax, -84(%rbp)
.LBB32_84:                              # %for.cond272
                                        # =>This Loop Header: Depth=1
                                        #     Child Loop BB32_86 Depth 2
	movl	-84(%rbp), %eax
	movl	-64(%rbp), %ecx
	addl	$2, %ecx
	cmpl	%ecx, %eax
	jge	.LBB32_91
# %bb.85:                               # %for.body276
                                        #   in Loop: Header=BB32_84 Depth=1
	movl	$0, -56(%rbp)
.LBB32_86:                              # %for.cond277
                                        #   Parent Loop BB32_84 Depth=1
                                        # =>  This Inner Loop Header: Depth=2
	movl	-56(%rbp), %eax
	movslq	-84(%rbp), %rcx
	cmpl	listXsize(,%rcx,4), %eax
	jge	.LBB32_89
# %bb.87:                               # %for.body282
                                        #   in Loop: Header=BB32_86 Depth=2
	movslq	-84(%rbp), %rax
	movq	listX(,%rax,8), %rax
	movslq	-56(%rbp), %rcx
	movq	(%rax,%rcx,8), %rax
	movl	$0, 6408(%rax)
# %bb.88:                               # %for.inc288
                                        #   in Loop: Header=BB32_86 Depth=2
	movl	-56(%rbp), %eax
	addl	$1, %eax
	movl	%eax, -56(%rbp)
	jmp	.LBB32_86
.LBB32_89:                              # %for.end290
                                        #   in Loop: Header=BB32_84 Depth=1
	jmp	.LBB32_90
.LBB32_90:                              # %for.inc291
                                        #   in Loop: Header=BB32_84 Depth=1
	movl	-84(%rbp), %eax
	addl	$1, %eax
	movl	%eax, -84(%rbp)
	jmp	.LBB32_84
.LBB32_91:                              # %for.end293
	jmp	.LBB32_92
.LBB32_92:                              # %if.end294
	jmp	.LBB32_93
.LBB32_93:                              # %if.end295
	movq	input, %rax
	cmpl	$0, 2464(%rax)
	je	.LBB32_162
# %bb.94:                               # %if.then298
	vmovsd	.LCPI32_1(%rip), %xmm0  # xmm0 = mem[0],zero
	movq	img, %rax
	vcvtsi2sdl	40(%rax), %xmm0, %xmm1
	vsubsd	%xmm0, %xmm1, %xmm0
	vmovsd	%xmm0, -200(%rbp)
	movq	input, %rax
	cmpl	$0, 3332(%rax)
	je	.LBB32_100
# %bb.95:                               # %if.then303
	movq	img, %rax
	cmpl	$1, 24(%rax)
	jne	.LBB32_98
# %bb.96:                               # %land.lhs.true307
	movq	img, %rax
	cmpl	$0, 72496(%rax)
	je	.LBB32_98
# %bb.97:                               # %if.then310
	vmovsd	.LCPI32_5(%rip), %xmm0  # xmm0 = mem[0],zero
	vmovsd	.LCPI32_6(%rip), %xmm1  # xmm1 = mem[0],zero
	movq	input, %rax
	vmovsd	3376(%rax), %xmm2       # xmm2 = mem[0],zero
	vmovsd	%xmm2, -456(%rbp)       # 8-byte Spill
	movq	img, %rax
	vcvtsi2sdl	72676(%rax), %xmm0, %xmm2
	vmovsd	-200(%rbp), %xmm3       # xmm3 = mem[0],zero
	vdivsd	%xmm1, %xmm3, %xmm1
	vaddsd	%xmm1, %xmm2, %xmm1
	callq	pow
	vmulsd	-456(%rbp), %xmm0, %xmm0 # 8-byte Folded Reload
	vmovsd	%xmm0, -160(%rbp)
	jmp	.LBB32_99
.LBB32_98:                              # %if.else315
	vmovsd	.LCPI32_5(%rip), %xmm0  # xmm0 = mem[0],zero
	vmovsd	.LCPI32_6(%rip), %xmm1  # xmm1 = mem[0],zero
	movq	input, %rax
	movq	img, %rcx
	movslq	24(%rcx), %rcx
	vmovsd	3336(%rax,%rcx,8), %xmm2 # xmm2 = mem[0],zero
	vmovsd	%xmm2, -464(%rbp)       # 8-byte Spill
	movq	img, %rax
	vcvtsi2sdl	72676(%rax), %xmm0, %xmm2
	vmovsd	-200(%rbp), %xmm3       # xmm3 = mem[0],zero
	vdivsd	%xmm1, %xmm3, %xmm1
	vaddsd	%xmm1, %xmm2, %xmm1
	callq	pow
	vmulsd	-464(%rbp), %xmm0, %xmm0 # 8-byte Folded Reload
	vmovsd	%xmm0, -160(%rbp)
.LBB32_99:                              # %if.end326
	jmp	.LBB32_159
.LBB32_100:                             # %if.else327
	movq	img, %rax
	cmpl	$1, 24(%rax)
	jne	.LBB32_103
# %bb.101:                              # %land.lhs.true331
	movq	img, %rax
	cmpl	$0, 72496(%rax)
	jne	.LBB32_103
# %bb.102:                              # %cond.true335
	vmovsd	.LCPI32_2(%rip), %xmm0  # xmm0 = mem[0],zero
	jmp	.LBB32_104
.LBB32_103:                             # %cond.false336
	vmovsd	.LCPI32_2(%rip), %xmm0  # xmm0 = mem[0],zero
	vmovsd	.LCPI32_3(%rip), %xmm1  # xmm1 = mem[0],zero
	movq	input, %rax
	vcvtsi2sdl	20(%rax), %xmm0, %xmm2
	vmulsd	%xmm2, %xmm1, %xmm1
	vsubsd	%xmm1, %xmm0, %xmm0
.LBB32_104:                             # %cond.end340
	vmovsd	%xmm0, -472(%rbp)
	movq	input, %rax
	cmpl	$0, 1236(%rax)
	jle	.LBB32_130
# %bb.105:                              # %if.then344
	vmovsd	.LCPI32_5(%rip), %xmm0  # xmm0 = mem[0],zero
	vmovsd	.LCPI32_6(%rip), %xmm1  # xmm1 = mem[0],zero
	movq	img, %rax
	vcvtsi2sdl	72676(%rax), %xmm0, %xmm2
	vmovsd	-200(%rbp), %xmm3       # xmm3 = mem[0],zero
	vdivsd	%xmm1, %xmm3, %xmm1
	vaddsd	%xmm1, %xmm2, %xmm1
	callq	pow
	vmovsd	.LCPI32_9(%rip), %xmm1  # xmm1 = mem[0],zero
	vmulsd	%xmm0, %xmm1, %xmm0
	cmpl	$0, -108(%rbp)
	je	.LBB32_116
# %bb.106:                              # %cond.true352
	vmovsd	.LCPI32_8(%rip), %xmm1  # xmm1 = mem[0],zero
	vmovsd	.LCPI32_10(%rip), %xmm2 # xmm2 = mem[0],zero
	vmovsd	-200(%rbp), %xmm3       # xmm3 = mem[0],zero
	vdivsd	%xmm2, %xmm3, %xmm2
	vucomisd	%xmm1, %xmm2
	jbe	.LBB32_108
# %bb.107:                              # %cond.true356
	vmovsd	.LCPI32_8(%rip), %xmm1  # xmm1 = mem[0],zero
	jmp	.LBB32_109
.LBB32_108:                             # %cond.false357
	vmovsd	.LCPI32_10(%rip), %xmm1 # xmm1 = mem[0],zero
	vmovsd	-200(%rbp), %xmm2       # xmm2 = mem[0],zero
	vdivsd	%xmm1, %xmm2, %xmm1
.LBB32_109:                             # %cond.end359
	vmovsd	.LCPI32_5(%rip), %xmm2  # xmm2 = mem[0],zero
	vucomisd	%xmm1, %xmm2
	jbe	.LBB32_111
# %bb.110:                              # %cond.true363
	vmovsd	.LCPI32_5(%rip), %xmm1  # xmm1 = mem[0],zero
	jmp	.LBB32_115
.LBB32_111:                             # %cond.false364
	vmovsd	.LCPI32_8(%rip), %xmm1  # xmm1 = mem[0],zero
	vmovsd	.LCPI32_10(%rip), %xmm2 # xmm2 = mem[0],zero
	vmovsd	-200(%rbp), %xmm3       # xmm3 = mem[0],zero
	vdivsd	%xmm2, %xmm3, %xmm2
	vucomisd	%xmm1, %xmm2
	jbe	.LBB32_113
# %bb.112:                              # %cond.true368
	vmovsd	.LCPI32_8(%rip), %xmm1  # xmm1 = mem[0],zero
	jmp	.LBB32_114
.LBB32_113:                             # %cond.false369
	vmovsd	.LCPI32_10(%rip), %xmm1 # xmm1 = mem[0],zero
	vmovsd	-200(%rbp), %xmm2       # xmm2 = mem[0],zero
	vdivsd	%xmm1, %xmm2, %xmm1
.LBB32_114:                             # %cond.end371
.LBB32_115:                             # %cond.end373
	jmp	.LBB32_129
.LBB32_116:                             # %cond.false375
	cmpl	$0, -300(%rbp)
	je	.LBB32_127
# %bb.117:                              # %cond.true377
	vmovsd	.LCPI32_6(%rip), %xmm1  # xmm1 = mem[0],zero
	vmovsd	.LCPI32_1(%rip), %xmm2  # xmm2 = mem[0],zero
	vmovsd	-200(%rbp), %xmm3       # xmm3 = mem[0],zero
	vdivsd	%xmm2, %xmm3, %xmm2
	vucomisd	%xmm1, %xmm2
	jbe	.LBB32_119
# %bb.118:                              # %cond.true381
	vmovsd	.LCPI32_6(%rip), %xmm1  # xmm1 = mem[0],zero
	jmp	.LBB32_120
.LBB32_119:                             # %cond.false382
	vmovsd	.LCPI32_1(%rip), %xmm1  # xmm1 = mem[0],zero
	vmovsd	-200(%rbp), %xmm2       # xmm2 = mem[0],zero
	vdivsd	%xmm1, %xmm2, %xmm1
.LBB32_120:                             # %cond.end384
	vmovsd	.LCPI32_7(%rip), %xmm2  # xmm2 = mem[0],zero
	vucomisd	%xmm1, %xmm2
	jbe	.LBB32_122
# %bb.121:                              # %cond.true388
	vmovsd	.LCPI32_7(%rip), %xmm1  # xmm1 = mem[0],zero
	jmp	.LBB32_126
.LBB32_122:                             # %cond.false389
	vmovsd	.LCPI32_6(%rip), %xmm1  # xmm1 = mem[0],zero
	vmovsd	.LCPI32_1(%rip), %xmm2  # xmm2 = mem[0],zero
	vmovsd	-200(%rbp), %xmm3       # xmm3 = mem[0],zero
	vdivsd	%xmm2, %xmm3, %xmm2
	vucomisd	%xmm1, %xmm2
	jbe	.LBB32_124
# %bb.123:                              # %cond.true393
	vmovsd	.LCPI32_6(%rip), %xmm1  # xmm1 = mem[0],zero
	jmp	.LBB32_125
.LBB32_124:                             # %cond.false394
	vmovsd	.LCPI32_1(%rip), %xmm1  # xmm1 = mem[0],zero
	vmovsd	-200(%rbp), %xmm2       # xmm2 = mem[0],zero
	vdivsd	%xmm1, %xmm2, %xmm1
.LBB32_125:                             # %cond.end396
.LBB32_126:                             # %cond.end398
	jmp	.LBB32_128
.LBB32_127:                             # %cond.false400
	vmovsd	.LCPI32_2(%rip), %xmm1  # xmm1 = mem[0],zero
	jmp	.LBB32_128
.LBB32_128:                             # %cond.end401
.LBB32_129:                             # %cond.end403
	vmulsd	%xmm1, %xmm0, %xmm0
	vmovsd	%xmm0, -160(%rbp)
	jmp	.LBB32_146
.LBB32_130:                             # %if.else406
	vmovsd	.LCPI32_5(%rip), %xmm0  # xmm0 = mem[0],zero
	vmovsd	.LCPI32_6(%rip), %xmm1  # xmm1 = mem[0],zero
	movq	img, %rax
	vcvtsi2sdl	72676(%rax), %xmm0, %xmm2
	vmovsd	-200(%rbp), %xmm3       # xmm3 = mem[0],zero
	vdivsd	%xmm1, %xmm3, %xmm1
	vaddsd	%xmm1, %xmm2, %xmm1
	callq	pow
	vmovsd	.LCPI32_4(%rip), %xmm1  # xmm1 = mem[0],zero
	vmulsd	%xmm0, %xmm1, %xmm0
	cmpl	$0, -108(%rbp)
	je	.LBB32_132
# %bb.131:                              # %cond.true414
	vmovsd	.LCPI32_8(%rip), %xmm1  # xmm1 = mem[0],zero
	jmp	.LBB32_145
.LBB32_132:                             # %cond.false415
	cmpl	$0, -300(%rbp)
	je	.LBB32_143
# %bb.133:                              # %cond.true417
	vmovsd	.LCPI32_6(%rip), %xmm1  # xmm1 = mem[0],zero
	vmovsd	.LCPI32_1(%rip), %xmm2  # xmm2 = mem[0],zero
	vmovsd	-200(%rbp), %xmm3       # xmm3 = mem[0],zero
	vdivsd	%xmm2, %xmm3, %xmm2
	vucomisd	%xmm1, %xmm2
	jbe	.LBB32_135
# %bb.134:                              # %cond.true421
	vmovsd	.LCPI32_6(%rip), %xmm1  # xmm1 = mem[0],zero
	jmp	.LBB32_136
.LBB32_135:                             # %cond.false422
	vmovsd	.LCPI32_1(%rip), %xmm1  # xmm1 = mem[0],zero
	vmovsd	-200(%rbp), %xmm2       # xmm2 = mem[0],zero
	vdivsd	%xmm1, %xmm2, %xmm1
.LBB32_136:                             # %cond.end424
	vmovsd	.LCPI32_7(%rip), %xmm2  # xmm2 = mem[0],zero
	vucomisd	%xmm1, %xmm2
	jbe	.LBB32_138
# %bb.137:                              # %cond.true428
	vmovsd	.LCPI32_7(%rip), %xmm1  # xmm1 = mem[0],zero
	jmp	.LBB32_142
.LBB32_138:                             # %cond.false429
	vmovsd	.LCPI32_6(%rip), %xmm1  # xmm1 = mem[0],zero
	vmovsd	.LCPI32_1(%rip), %xmm2  # xmm2 = mem[0],zero
	vmovsd	-200(%rbp), %xmm3       # xmm3 = mem[0],zero
	vdivsd	%xmm2, %xmm3, %xmm2
	vucomisd	%xmm1, %xmm2
	jbe	.LBB32_140
# %bb.139:                              # %cond.true433
	vmovsd	.LCPI32_6(%rip), %xmm1  # xmm1 = mem[0],zero
	jmp	.LBB32_141
.LBB32_140:                             # %cond.false434
	vmovsd	.LCPI32_1(%rip), %xmm1  # xmm1 = mem[0],zero
	vmovsd	-200(%rbp), %xmm2       # xmm2 = mem[0],zero
	vdivsd	%xmm1, %xmm2, %xmm1
.LBB32_141:                             # %cond.end436
.LBB32_142:                             # %cond.end438
	jmp	.LBB32_144
.LBB32_143:                             # %cond.false440
	vmovsd	.LCPI32_2(%rip), %xmm1  # xmm1 = mem[0],zero
	jmp	.LBB32_144
.LBB32_144:                             # %cond.end441
.LBB32_145:                             # %cond.end443
	vmulsd	%xmm1, %xmm0, %xmm0
	vmovsd	%xmm0, -160(%rbp)
.LBB32_146:                             # %if.end446
	movq	input, %rax
	cmpl	$2, 1320(%rax)
	jne	.LBB32_154
# %bb.147:                              # %if.then449
	movq	img, %rax
	cmpl	$1, 24(%rax)
	jne	.LBB32_153
# %bb.148:                              # %land.lhs.true453
	movq	img, %rax
	cmpl	$0, 72496(%rax)
	je	.LBB32_153
# %bb.149:                              # %if.then456
	vmovsd	.LCPI32_12(%rip), %xmm0 # xmm0 = mem[0],zero
	vmovsd	.LCPI32_13(%rip), %xmm1 # xmm1 = mem[0],zero
	movq	gop_structure, %rax
	movq	img, %rcx
	movl	71908(%rcx), %ecx
	subl	$1, %ecx
	movslq	%ecx, %rcx
	imulq	$24, %rcx, %rcx
	addq	%rcx, %rax
	vcvtsi2sdl	16(%rax), %xmm0, %xmm2
	vmulsd	%xmm2, %xmm1, %xmm1
	vucomisd	%xmm0, %xmm1
	jbe	.LBB32_151
# %bb.150:                              # %cond.true464
	vmovsd	.LCPI32_12(%rip), %xmm0 # xmm0 = mem[0],zero
	jmp	.LBB32_152
.LBB32_151:                             # %cond.false465
	vmovsd	.LCPI32_13(%rip), %xmm0 # xmm0 = mem[0],zero
	movq	gop_structure, %rax
	movq	img, %rcx
	movl	71908(%rcx), %ecx
	subl	$1, %ecx
	movslq	%ecx, %rcx
	imulq	$24, %rcx, %rcx
	addq	%rcx, %rax
	vcvtsi2sdl	16(%rax), %xmm0, %xmm1
	vmulsd	%xmm1, %xmm0, %xmm0
.LBB32_152:                             # %cond.end473
	vmovsd	.LCPI32_2(%rip), %xmm1  # xmm1 = mem[0],zero
	vsubsd	%xmm0, %xmm1, %xmm0
	vmulsd	-160(%rbp), %xmm0, %xmm0
	vmovsd	%xmm0, -160(%rbp)
.LBB32_153:                             # %if.end477
	jmp	.LBB32_158
.LBB32_154:                             # %if.else478
	movq	img, %rax
	cmpl	$1, 24(%rax)
	jne	.LBB32_157
# %bb.155:                              # %land.lhs.true482
	movq	img, %rax
	cmpl	$0, 72496(%rax)
	je	.LBB32_157
# %bb.156:                              # %if.then485
	vmovsd	.LCPI32_11(%rip), %xmm0 # xmm0 = mem[0],zero
	vmulsd	-160(%rbp), %xmm0, %xmm0
	vmovsd	%xmm0, -160(%rbp)
.LBB32_157:                             # %if.end487
	jmp	.LBB32_158
.LBB32_158:                             # %if.end488
	vmovsd	-472(%rbp), %xmm0       # xmm0 = mem[0],zero
	vmulsd	-160(%rbp), %xmm0, %xmm0
	vmovsd	%xmm0, -160(%rbp)
.LBB32_159:                             # %if.end490
	movq	input, %rax
	cmpl	$0, 28(%rax)
	je	.LBB32_161
# %bb.160:                              # %if.then492
	vmovsd	.LCPI32_14(%rip), %xmm0 # xmm0 = mem[0],zero
	vmulsd	-160(%rbp), %xmm0, %xmm0
	vmovsd	%xmm0, -160(%rbp)
.LBB32_161:                             # %if.end494
	vmovsd	-160(%rbp), %xmm0       # xmm0 = mem[0],zero
	callq	sqrt
	vmovsd	%xmm0, -168(%rbp)
	jmp	.LBB32_166
.LBB32_162:                             # %if.else496
	xorl	%eax, %eax
	movq	img, %rcx
	movl	40(%rcx), %ecx
	subl	$12, %ecx
	cmpl	%ecx, %eax
	jle	.LBB32_164
# %bb.163:                              # %cond.true501
	xorl	%eax, %eax
	jmp	.LBB32_165
.LBB32_164:                             # %cond.false502
	movq	img, %rax
	movl	40(%rax), %eax
	subl	$12, %eax
.LBB32_165:                             # %cond.end505
	cltq
	vcvtsi2sdl	QP2QUANT(,%rax,4), %xmm0, %xmm0
	vmovsd	%xmm0, -168(%rbp)
	vmovsd	%xmm0, -160(%rbp)
.LBB32_166:                             # %if.end510
	vmovsd	.LCPI32_15(%rip), %xmm0 # xmm0 = mem[0],zero
	vmovsd	.LCPI32_16(%rip), %xmm1 # xmm1 = mem[0],zero
	vmulsd	-168(%rbp), %xmm1, %xmm1
	vaddsd	%xmm0, %xmm1, %xmm0
	vcvttsd2si	%xmm0, %eax
	movl	%eax, -96(%rbp)
	movl	$0, -32(%rbp)
.LBB32_167:                             # %for.cond514
                                        # =>This Inner Loop Header: Depth=1
	cmpl	$15, -32(%rbp)
	jge	.LBB32_170
# %bb.168:                              # %for.body517
                                        #   in Loop: Header=BB32_167 Depth=1
	movq	img, %rax
	movslq	-32(%rbp), %rcx
	movw	$0, 71952(%rax,%rcx,2)
# %bb.169:                              # %for.inc520
                                        #   in Loop: Header=BB32_167 Depth=1
	movl	-32(%rbp), %eax
	addl	$1, %eax
	movl	%eax, -32(%rbp)
	jmp	.LBB32_167
.LBB32_170:                             # %for.end522
	movl	$0, -256(%rbp)
.LBB32_171:                             # %for.cond523
                                        # =>This Loop Header: Depth=1
                                        #     Child Loop BB32_181 Depth 2
                                        #       Child Loop BB32_184 Depth 3
                                        #         Child Loop BB32_190 Depth 4
                                        #         Child Loop BB32_210 Depth 4
                                        #         Child Loop BB32_300 Depth 4
                                        #           Child Loop BB32_302 Depth 5
                                        #         Child Loop BB32_309 Depth 4
                                        #           Child Loop BB32_311 Depth 5
                                        #         Child Loop BB32_326 Depth 4
                                        #           Child Loop BB32_328 Depth 5
                                        #         Child Loop BB32_335 Depth 4
                                        #           Child Loop BB32_337 Depth 5
                                        #         Child Loop BB32_355 Depth 4
                                        #           Child Loop BB32_357 Depth 5
                                        #         Child Loop BB32_374 Depth 4
                                        #           Child Loop BB32_376 Depth 5
                                        #     Child Loop BB32_416 Depth 2
                                        #       Child Loop BB32_418 Depth 3
                                        #         Child Loop BB32_445 Depth 4
                                        #         Child Loop BB32_464 Depth 4
                                        #           Child Loop BB32_466 Depth 5
                                        #         Child Loop BB32_473 Depth 4
                                        #         Child Loop BB32_508 Depth 4
                                        #           Child Loop BB32_510 Depth 5
                                        #         Child Loop BB32_532 Depth 4
                                        #           Child Loop BB32_534 Depth 5
                                        #             Child Loop BB32_536 Depth 6
                                        #         Child Loop BB32_544 Depth 4
                                        #           Child Loop BB32_546 Depth 5
                                        #       Child Loop BB32_569 Depth 3
                                        #         Child Loop BB32_571 Depth 4
                                        #           Child Loop BB32_573 Depth 5
                                        #       Child Loop BB32_581 Depth 3
                                        #         Child Loop BB32_583 Depth 4
                                        #     Child Loop BB32_601 Depth 2
                                        #       Child Loop BB32_603 Depth 3
                                        #         Child Loop BB32_614 Depth 4
                                        #         Child Loop BB32_633 Depth 4
                                        #           Child Loop BB32_635 Depth 5
                                        #         Child Loop BB32_642 Depth 4
                                        #         Child Loop BB32_677 Depth 4
                                        #           Child Loop BB32_679 Depth 5
                                        #         Child Loop BB32_701 Depth 4
                                        #           Child Loop BB32_703 Depth 5
                                        #             Child Loop BB32_705 Depth 6
                                        #         Child Loop BB32_713 Depth 4
                                        #           Child Loop BB32_715 Depth 5
                                        #         Child Loop BB32_723 Depth 4
                                        #           Child Loop BB32_725 Depth 5
                                        #       Child Loop BB32_745 Depth 3
                                        #         Child Loop BB32_747 Depth 4
                                        #           Child Loop BB32_749 Depth 5
                                        #       Child Loop BB32_757 Depth 3
                                        #         Child Loop BB32_759 Depth 4
                                        #       Child Loop BB32_766 Depth 3
                                        #         Child Loop BB32_768 Depth 4
                                        #       Child Loop BB32_778 Depth 3
                                        #         Child Loop BB32_780 Depth 4
                                        #       Child Loop BB32_786 Depth 3
                                        #       Child Loop BB32_791 Depth 3
                                        #         Child Loop BB32_793 Depth 4
                                        #     Child Loop BB32_803 Depth 2
                                        #       Child Loop BB32_805 Depth 3
                                        #     Child Loop BB32_835 Depth 2
                                        #       Child Loop BB32_853 Depth 3
                                        #         Child Loop BB32_908 Depth 4
                                        #           Child Loop BB32_911 Depth 5
                                        #             Child Loop BB32_913 Depth 6
                                        #           Child Loop BB32_920 Depth 5
                                        #             Child Loop BB32_922 Depth 6
                                        #         Child Loop BB32_955 Depth 4
                                        #           Child Loop BB32_957 Depth 5
                                        #     Child Loop BB32_981 Depth 2
                                        #       Child Loop BB32_1014 Depth 3
                                        #         Child Loop BB32_1017 Depth 4
                                        #           Child Loop BB32_1019 Depth 5
                                        #         Child Loop BB32_1026 Depth 4
                                        #           Child Loop BB32_1028 Depth 5
                                        #       Child Loop BB32_1061 Depth 3
                                        #         Child Loop BB32_1063 Depth 4
                                        #     Child Loop BB32_1113 Depth 2
                                        #       Child Loop BB32_1115 Depth 3
                                        #     Child Loop BB32_1127 Depth 2
                                        #       Child Loop BB32_1129 Depth 3
                                        #         Child Loop BB32_1131 Depth 4
                                        #     Child Loop BB32_1141 Depth 2
                                        #       Child Loop BB32_1143 Depth 3
                                        #     Child Loop BB32_1152 Depth 2
                                        #       Child Loop BB32_1154 Depth 3
                                        #     Child Loop BB32_1160 Depth 2
                                        #       Child Loop BB32_1162 Depth 3
                                        #     Child Loop BB32_1174 Depth 2
                                        #       Child Loop BB32_1176 Depth 3
                                        #         Child Loop BB32_1178 Depth 4
                                        #     Child Loop BB32_1189 Depth 2
                                        #       Child Loop BB32_1191 Depth 3
                                        #     Child Loop BB32_1202 Depth 2
                                        #       Child Loop BB32_1204 Depth 3
                                        #     Child Loop BB32_1211 Depth 2
                                        #       Child Loop BB32_1213 Depth 3
                                        #     Child Loop BB32_1221 Depth 2
                                        #       Child Loop BB32_1223 Depth 3
                                        #     Child Loop BB32_1229 Depth 2
                                        #       Child Loop BB32_1231 Depth 3
                                        #     Child Loop BB32_1237 Depth 2
                                        #       Child Loop BB32_1239 Depth 3
                                        #     Child Loop BB32_1245 Depth 2
                                        #       Child Loop BB32_1247 Depth 3
	movl	-256(%rbp), %eax
	cmpl	-312(%rbp), %eax
	jge	.LBB32_1291
# %bb.172:                              # %for.body526
                                        #   in Loop: Header=BB32_171 Depth=1
	cmpl	$2, -312(%rbp)
	jne	.LBB32_177
# %bb.173:                              # %if.then529
                                        #   in Loop: Header=BB32_171 Depth=1
	cmpl	$0, -256(%rbp)
	jne	.LBB32_175
# %bb.174:                              # %if.then532
                                        #   in Loop: Header=BB32_171 Depth=1
	movq	input, %rax
	movl	$1, 2464(%rax)
	jmp	.LBB32_176
.LBB32_175:                             # %if.else534
                                        #   in Loop: Header=BB32_171 Depth=1
	movq	input, %rax
	movl	$2, 2464(%rax)
.LBB32_176:                             # %if.end536
                                        #   in Loop: Header=BB32_171 Depth=1
	jmp	.LBB32_177
.LBB32_177:                             # %if.end537
                                        #   in Loop: Header=BB32_171 Depth=1
	movq	-48(%rbp), %rax
	movl	$0, 524(%rax)
	cmpl	$0, -136(%rbp)
	jne	.LBB32_831
# %bb.178:                              # %if.then539
                                        #   in Loop: Header=BB32_171 Depth=1
	cmpl	$0, -108(%rbp)
	je	.LBB32_180
# %bb.179:                              # %if.then541
                                        #   in Loop: Header=BB32_171 Depth=1
	movb	$0, %al
	callq	Get_Direct_Motion_Vectors
.LBB32_180:                             # %if.end542
                                        #   in Loop: Header=BB32_171 Depth=1
	movl	$2147483647, -112(%rbp) # imm = 0x7FFFFFFF
	movl	$1, best_mode
	movl	$1, -32(%rbp)
.LBB32_181:                             # %for.cond543
                                        #   Parent Loop BB32_171 Depth=1
                                        # =>  This Loop Header: Depth=2
                                        #       Child Loop BB32_184 Depth 3
                                        #         Child Loop BB32_190 Depth 4
                                        #         Child Loop BB32_210 Depth 4
                                        #         Child Loop BB32_300 Depth 4
                                        #           Child Loop BB32_302 Depth 5
                                        #         Child Loop BB32_309 Depth 4
                                        #           Child Loop BB32_311 Depth 5
                                        #         Child Loop BB32_326 Depth 4
                                        #           Child Loop BB32_328 Depth 5
                                        #         Child Loop BB32_335 Depth 4
                                        #           Child Loop BB32_337 Depth 5
                                        #         Child Loop BB32_355 Depth 4
                                        #           Child Loop BB32_357 Depth 5
                                        #         Child Loop BB32_374 Depth 4
                                        #           Child Loop BB32_376 Depth 5
	cmpl	$4, -32(%rbp)
	jge	.LBB32_413
# %bb.182:                              # %for.body546
                                        #   in Loop: Header=BB32_181 Depth=2
	movl	$0, bi_pred_me
	movq	img, %rax
	movslq	-32(%rbp), %rcx
	movw	$0, 71952(%rax,%rcx,2)
	movslq	-32(%rbp), %rax
	cmpl	$0, -384(%rbp,%rax,4)
	je	.LBB32_411
# %bb.183:                              # %if.then553
                                        #   in Loop: Header=BB32_181 Depth=2
	movl	$0, -60(%rbp)
	movl	$0, -28(%rbp)
.LBB32_184:                             # %for.cond554
                                        #   Parent Loop BB32_171 Depth=1
                                        #     Parent Loop BB32_181 Depth=2
                                        # =>    This Loop Header: Depth=3
                                        #         Child Loop BB32_190 Depth 4
                                        #         Child Loop BB32_210 Depth 4
                                        #         Child Loop BB32_300 Depth 4
                                        #           Child Loop BB32_302 Depth 5
                                        #         Child Loop BB32_309 Depth 4
                                        #           Child Loop BB32_311 Depth 5
                                        #         Child Loop BB32_326 Depth 4
                                        #           Child Loop BB32_328 Depth 5
                                        #         Child Loop BB32_335 Depth 4
                                        #           Child Loop BB32_337 Depth 5
                                        #         Child Loop BB32_355 Depth 4
                                        #           Child Loop BB32_357 Depth 5
                                        #         Child Loop BB32_374 Depth 4
                                        #           Child Loop BB32_376 Depth 5
	movl	-28(%rbp), %eax
	movl	-32(%rbp), %ecx
	cmpl	$1, %ecx
	movl	$1, %ecx
	movl	$2, %edx
	cmovel	%ecx, %edx
	cmpl	%edx, %eax
	jge	.LBB32_404
# %bb.185:                              # %for.body560
                                        #   in Loop: Header=BB32_184 Depth=3
	movl	-32(%rbp), %edi
	movl	-28(%rbp), %esi
	vmovsd	-168(%rbp), %xmm0       # xmm0 = mem[0],zero
	callq	PartitionMotionSearch
	xorl	%ecx, %ecx
	cmpl	$1, -28(%rbp)
	jne	.LBB32_187
# %bb.186:                              # %land.rhs563
                                        #   in Loop: Header=BB32_184 Depth=3
	cmpl	$2, -32(%rbp)
	sete	%cl
.LBB32_187:                             # %land.end566
                                        #   in Loop: Header=BB32_184 Depth=3
	xorl	%eax, %eax
	xorl	%edx, %edx
	testb	$1, %cl
	movl	$2, %ecx
	cmovnel	%ecx, %edx
	movl	%edx, -24(%rbp)
	cmpl	$1, -28(%rbp)
	jne	.LBB32_189
# %bb.188:                              # %land.rhs571
                                        #   in Loop: Header=BB32_184 Depth=3
	cmpl	$3, -32(%rbp)
	sete	%al
.LBB32_189:                             # %land.end574
                                        #   in Loop: Header=BB32_184 Depth=3
	xorl	%ecx, %ecx
	testb	$1, %al
	movl	$2, %eax
	cmovnel	%eax, %ecx
	movl	%ecx, -20(%rbp)
	movl	-208(%rbp), %eax
	movl	%eax, -68(%rbp)
	movw	$0, -34(%rbp)
.LBB32_190:                             # %for.cond577
                                        #   Parent Loop BB32_171 Depth=1
                                        #     Parent Loop BB32_181 Depth=2
                                        #       Parent Loop BB32_184 Depth=3
                                        # =>      This Inner Loop Header: Depth=4
	movswl	-34(%rbp), %eax
	movl	-64(%rbp), %ecx
	addl	$0, %ecx
	movslq	%ecx, %rcx
	cmpl	listXsize(,%rcx,4), %eax
	jge	.LBB32_208
# %bb.191:                              # %for.body584
                                        #   in Loop: Header=BB32_190 Depth=4
	cmpl	$0, -280(%rbp)
	je	.LBB32_194
# %bb.192:                              # %lor.lhs.false586
                                        #   in Loop: Header=BB32_190 Depth=4
	movswl	-34(%rbp), %eax
	cmpl	$0, %eax
	je	.LBB32_194
# %bb.193:                              # %lor.lhs.false590
                                        #   in Loop: Header=BB32_190 Depth=4
	movl	-28(%rbp), %edi
	movswl	-34(%rbp), %edx
	movl	-32(%rbp), %ecx
	xorl	%esi, %esi
	callq	CheckReliabilityOfRef
	cmpl	$0, %eax
	je	.LBB32_206
.LBB32_194:                             # %if.then594
                                        #   in Loop: Header=BB32_190 Depth=4
	movq	input, %rax
	cmpl	$0, 2464(%rax)
	je	.LBB32_199
# %bb.195:                              # %cond.true597
                                        #   in Loop: Header=BB32_190 Depth=4
	movl	-96(%rbp), %eax
	movl	-64(%rbp), %ecx
	addl	$0, %ecx
	movslq	%ecx, %rcx
	cmpl	$1, listXsize(,%rcx,4)
	jg	.LBB32_197
# %bb.196:                              # %cond.true603
                                        #   in Loop: Header=BB32_190 Depth=4
	xorl	%ecx, %ecx
	jmp	.LBB32_198
.LBB32_197:                             # %cond.false604
                                        #   in Loop: Header=BB32_190 Depth=4
	movq	refbits, %rcx
	movswq	-34(%rbp), %rdx
	movl	(%rcx,%rdx,4), %ecx
.LBB32_198:                             # %cond.end607
                                        #   in Loop: Header=BB32_190 Depth=4
	imull	%ecx, %eax
	sarl	$16, %eax
	jmp	.LBB32_203
.LBB32_199:                             # %cond.false610
                                        #   in Loop: Header=BB32_190 Depth=4
	vmovsd	.LCPI32_5(%rip), %xmm0  # xmm0 = mem[0],zero
	vmulsd	-168(%rbp), %xmm0, %xmm0
	movswl	-34(%rbp), %eax
	cmpl	$1, %eax
	jge	.LBB32_201
# %bb.200:                              # %cond.true615
                                        #   in Loop: Header=BB32_190 Depth=4
	movswl	-34(%rbp), %eax
	jmp	.LBB32_202
.LBB32_201:                             # %cond.false617
                                        #   in Loop: Header=BB32_190 Depth=4
	movl	$1, %eax
	jmp	.LBB32_202
.LBB32_202:                             # %cond.end618
                                        #   in Loop: Header=BB32_190 Depth=4
	vcvtsi2sd	%eax, %xmm0, %xmm1
	vmulsd	%xmm1, %xmm0, %xmm0
	vcvttsd2si	%xmm0, %eax
.LBB32_203:                             # %cond.end623
                                        #   in Loop: Header=BB32_190 Depth=4
	movl	%eax, -72(%rbp)
	movq	motion_cost, %rax
	movslq	-32(%rbp), %rcx
	movq	(%rax,%rcx,8), %rax
	movq	(%rax), %rax
	movswq	-34(%rbp), %rcx
	movq	(%rax,%rcx,8), %rax
	movslq	-28(%rbp), %rcx
	movl	(%rax,%rcx,4), %eax
	addl	-72(%rbp), %eax
	movl	%eax, -72(%rbp)
	movl	-72(%rbp), %eax
	cmpl	-68(%rbp), %eax
	jge	.LBB32_205
# %bb.204:                              # %if.then635
                                        #   in Loop: Header=BB32_190 Depth=4
	movl	-72(%rbp), %eax
	movl	%eax, -68(%rbp)
	movw	-34(%rbp), %ax
	movw	%ax, -36(%rbp)
.LBB32_205:                             # %if.end636
                                        #   in Loop: Header=BB32_190 Depth=4
	jmp	.LBB32_206
.LBB32_206:                             # %if.end637
                                        #   in Loop: Header=BB32_190 Depth=4
	jmp	.LBB32_207
.LBB32_207:                             # %for.inc638
                                        #   in Loop: Header=BB32_190 Depth=4
	movw	-34(%rbp), %ax
	addw	$1, %ax
	movw	%ax, -34(%rbp)
	jmp	.LBB32_190
.LBB32_208:                             # %for.end640
                                        #   in Loop: Header=BB32_184 Depth=3
	cmpl	$0, -108(%rbp)
	je	.LBB32_296
# %bb.209:                              # %if.then642
                                        #   in Loop: Header=BB32_184 Depth=3
	movl	-208(%rbp), %eax
	movl	%eax, -76(%rbp)
	movw	$0, -34(%rbp)
.LBB32_210:                             # %for.cond643
                                        #   Parent Loop BB32_171 Depth=1
                                        #     Parent Loop BB32_181 Depth=2
                                        #       Parent Loop BB32_184 Depth=3
                                        # =>      This Inner Loop Header: Depth=4
	movswl	-34(%rbp), %eax
	movl	-64(%rbp), %ecx
	addl	$1, %ecx
	movslq	%ecx, %rcx
	cmpl	listXsize(,%rcx,4), %eax
	jge	.LBB32_224
# %bb.211:                              # %for.body650
                                        #   in Loop: Header=BB32_210 Depth=4
	movq	input, %rax
	cmpl	$0, 2464(%rax)
	je	.LBB32_216
# %bb.212:                              # %cond.true653
                                        #   in Loop: Header=BB32_210 Depth=4
	movl	-96(%rbp), %eax
	movl	-64(%rbp), %ecx
	addl	$1, %ecx
	movslq	%ecx, %rcx
	cmpl	$1, listXsize(,%rcx,4)
	jg	.LBB32_214
# %bb.213:                              # %cond.true659
                                        #   in Loop: Header=BB32_210 Depth=4
	xorl	%ecx, %ecx
	jmp	.LBB32_215
.LBB32_214:                             # %cond.false660
                                        #   in Loop: Header=BB32_210 Depth=4
	movq	refbits, %rcx
	movswq	-34(%rbp), %rdx
	movl	(%rcx,%rdx,4), %ecx
.LBB32_215:                             # %cond.end663
                                        #   in Loop: Header=BB32_210 Depth=4
	imull	%ecx, %eax
	sarl	$16, %eax
	jmp	.LBB32_220
.LBB32_216:                             # %cond.false667
                                        #   in Loop: Header=BB32_210 Depth=4
	vmovsd	.LCPI32_5(%rip), %xmm0  # xmm0 = mem[0],zero
	vmulsd	-168(%rbp), %xmm0, %xmm0
	movswl	-34(%rbp), %eax
	cmpl	$1, %eax
	jge	.LBB32_218
# %bb.217:                              # %cond.true672
                                        #   in Loop: Header=BB32_210 Depth=4
	movswl	-34(%rbp), %eax
	jmp	.LBB32_219
.LBB32_218:                             # %cond.false674
                                        #   in Loop: Header=BB32_210 Depth=4
	movl	$1, %eax
	jmp	.LBB32_219
.LBB32_219:                             # %cond.end675
                                        #   in Loop: Header=BB32_210 Depth=4
	vcvtsi2sd	%eax, %xmm0, %xmm1
	vmulsd	%xmm1, %xmm0, %xmm0
	vcvttsd2si	%xmm0, %eax
.LBB32_220:                             # %cond.end680
                                        #   in Loop: Header=BB32_210 Depth=4
	movl	%eax, -72(%rbp)
	movq	motion_cost, %rax
	movslq	-32(%rbp), %rcx
	movq	(%rax,%rcx,8), %rax
	movq	8(%rax), %rax
	movswq	-34(%rbp), %rcx
	movq	(%rax,%rcx,8), %rax
	movslq	-28(%rbp), %rcx
	movl	(%rax,%rcx,4), %eax
	addl	-72(%rbp), %eax
	movl	%eax, -72(%rbp)
	movl	-72(%rbp), %eax
	cmpl	-76(%rbp), %eax
	jge	.LBB32_222
# %bb.221:                              # %if.then692
                                        #   in Loop: Header=BB32_210 Depth=4
	movl	-72(%rbp), %eax
	movl	%eax, -76(%rbp)
	movw	-34(%rbp), %ax
	movw	%ax, -38(%rbp)
.LBB32_222:                             # %if.end693
                                        #   in Loop: Header=BB32_210 Depth=4
	jmp	.LBB32_223
.LBB32_223:                             # %for.inc694
                                        #   in Loop: Header=BB32_210 Depth=4
	movw	-34(%rbp), %ax
	addw	$1, %ax
	movw	%ax, -34(%rbp)
	jmp	.LBB32_210
.LBB32_224:                             # %for.end696
                                        #   in Loop: Header=BB32_184 Depth=3
	movq	input, %rax
	cmpl	$0, 2464(%rax)
	je	.LBB32_232
# %bb.225:                              # %cond.true699
                                        #   in Loop: Header=BB32_184 Depth=3
	movl	-96(%rbp), %eax
	movl	-64(%rbp), %ecx
	addl	$0, %ecx
	movslq	%ecx, %rcx
	cmpl	$1, listXsize(,%rcx,4)
	jg	.LBB32_227
# %bb.226:                              # %cond.true705
                                        #   in Loop: Header=BB32_184 Depth=3
	xorl	%ecx, %ecx
	jmp	.LBB32_228
.LBB32_227:                             # %cond.false706
                                        #   in Loop: Header=BB32_184 Depth=3
	movq	refbits, %rcx
	movswq	-36(%rbp), %rdx
	movl	(%rcx,%rdx,4), %ecx
.LBB32_228:                             # %cond.end709
                                        #   in Loop: Header=BB32_184 Depth=3
	imull	%ecx, %eax
	sarl	$16, %eax
	movl	-96(%rbp), %ecx
	movl	-64(%rbp), %edx
	addl	$1, %edx
	movslq	%edx, %rdx
	cmpl	$1, listXsize(,%rdx,4)
	jg	.LBB32_230
# %bb.229:                              # %cond.true718
                                        #   in Loop: Header=BB32_184 Depth=3
	xorl	%edx, %edx
	jmp	.LBB32_231
.LBB32_230:                             # %cond.false719
                                        #   in Loop: Header=BB32_184 Depth=3
	movq	refbits, %rdx
	movl	(%rdx), %edx
.LBB32_231:                             # %cond.end721
                                        #   in Loop: Header=BB32_184 Depth=3
	imull	%edx, %ecx
	sarl	$16, %ecx
	addl	%ecx, %eax
	jmp	.LBB32_236
.LBB32_232:                             # %cond.false726
                                        #   in Loop: Header=BB32_184 Depth=3
	vmovsd	.LCPI32_5(%rip), %xmm0  # xmm0 = mem[0],zero
	vmulsd	-168(%rbp), %xmm0, %xmm0
	movswl	-36(%rbp), %eax
	cmpl	$1, %eax
	jge	.LBB32_234
# %bb.233:                              # %cond.true731
                                        #   in Loop: Header=BB32_184 Depth=3
	movswl	-36(%rbp), %eax
	jmp	.LBB32_235
.LBB32_234:                             # %cond.false733
                                        #   in Loop: Header=BB32_184 Depth=3
	movl	$1, %eax
	jmp	.LBB32_235
.LBB32_235:                             # %cond.end734
                                        #   in Loop: Header=BB32_184 Depth=3
	vcvtsi2sd	%eax, %xmm0, %xmm1
	vmulsd	%xmm1, %xmm0, %xmm0
	vcvttsd2si	%xmm0, %eax
.LBB32_236:                             # %cond.end739
                                        #   in Loop: Header=BB32_184 Depth=3
	movl	%eax, -88(%rbp)
	movl	-32(%rbp), %edi
	movl	-28(%rbp), %esi
	movw	-36(%rbp), %ax
	movl	-96(%rbp), %r8d
	movswl	%ax, %edx
	xorl	%ecx, %ecx
	callq	BIDPartitionCost
	addl	-88(%rbp), %eax
	movl	%eax, -88(%rbp)
	cmpl	$1, -32(%rbp)
	jne	.LBB32_258
# %bb.237:                              # %land.lhs.true745
                                        #   in Loop: Header=BB32_184 Depth=3
	movq	img, %rax
	cmpl	$1, 24(%rax)
	jne	.LBB32_258
# %bb.238:                              # %land.lhs.true749
                                        #   in Loop: Header=BB32_184 Depth=3
	movq	input, %rax
	cmpl	$0, 1256(%rax)
	je	.LBB32_258
# %bb.239:                              # %if.then751
                                        #   in Loop: Header=BB32_184 Depth=3
	movq	input, %rax
	cmpl	$0, 2464(%rax)
	je	.LBB32_247
# %bb.240:                              # %cond.true754
                                        #   in Loop: Header=BB32_184 Depth=3
	movl	-96(%rbp), %eax
	movl	-64(%rbp), %ecx
	addl	$0, %ecx
	movslq	%ecx, %rcx
	cmpl	$1, listXsize(,%rcx,4)
	jg	.LBB32_242
# %bb.241:                              # %cond.true760
                                        #   in Loop: Header=BB32_184 Depth=3
	xorl	%ecx, %ecx
	jmp	.LBB32_243
.LBB32_242:                             # %cond.false761
                                        #   in Loop: Header=BB32_184 Depth=3
	movq	refbits, %rcx
	movl	(%rcx), %ecx
.LBB32_243:                             # %cond.end763
                                        #   in Loop: Header=BB32_184 Depth=3
	imull	%ecx, %eax
	sarl	$16, %eax
	movl	-96(%rbp), %ecx
	movl	-64(%rbp), %edx
	addl	$1, %edx
	movslq	%edx, %rdx
	cmpl	$1, listXsize(,%rdx,4)
	jg	.LBB32_245
# %bb.244:                              # %cond.true772
                                        #   in Loop: Header=BB32_184 Depth=3
	xorl	%edx, %edx
	jmp	.LBB32_246
.LBB32_245:                             # %cond.false773
                                        #   in Loop: Header=BB32_184 Depth=3
	movq	refbits, %rdx
	movl	(%rdx), %edx
.LBB32_246:                             # %cond.end775
                                        #   in Loop: Header=BB32_184 Depth=3
	imull	%edx, %ecx
	sarl	$16, %ecx
	addl	%ecx, %eax
	jmp	.LBB32_248
.LBB32_247:                             # %cond.false780
                                        #   in Loop: Header=BB32_184 Depth=3
	vmovsd	.LCPI32_5(%rip), %xmm0  # xmm0 = mem[0],zero
	vmulsd	-168(%rbp), %xmm0, %xmm0
	vxorps	%xmm1, %xmm1, %xmm1
	vmulsd	%xmm1, %xmm0, %xmm0
	vcvttsd2si	%xmm0, %eax
.LBB32_248:                             # %cond.end784
                                        #   in Loop: Header=BB32_184 Depth=3
	movl	%eax, -148(%rbp)
	movl	-32(%rbp), %edi
	movl	-28(%rbp), %esi
	movl	-96(%rbp), %r8d
	xorl	%edx, %edx
	xorl	%ecx, %ecx
	xorl	%r9d, %r9d
	callq	BPredPartitionCost
	addl	-148(%rbp), %eax
	movl	%eax, -148(%rbp)
	movq	input, %rax
	cmpl	$0, 2464(%rax)
	je	.LBB32_256
# %bb.249:                              # %cond.true790
                                        #   in Loop: Header=BB32_184 Depth=3
	movl	-96(%rbp), %eax
	movl	-64(%rbp), %ecx
	addl	$0, %ecx
	movslq	%ecx, %rcx
	cmpl	$1, listXsize(,%rcx,4)
	jg	.LBB32_251
# %bb.250:                              # %cond.true796
                                        #   in Loop: Header=BB32_184 Depth=3
	xorl	%ecx, %ecx
	jmp	.LBB32_252
.LBB32_251:                             # %cond.false797
                                        #   in Loop: Header=BB32_184 Depth=3
	movq	refbits, %rcx
	movl	(%rcx), %ecx
.LBB32_252:                             # %cond.end799
                                        #   in Loop: Header=BB32_184 Depth=3
	imull	%ecx, %eax
	sarl	$16, %eax
	movl	-96(%rbp), %ecx
	movl	-64(%rbp), %edx
	addl	$1, %edx
	movslq	%edx, %rdx
	cmpl	$1, listXsize(,%rdx,4)
	jg	.LBB32_254
# %bb.253:                              # %cond.true808
                                        #   in Loop: Header=BB32_184 Depth=3
	xorl	%edx, %edx
	jmp	.LBB32_255
.LBB32_254:                             # %cond.false809
                                        #   in Loop: Header=BB32_184 Depth=3
	movq	refbits, %rdx
	movl	(%rdx), %edx
.LBB32_255:                             # %cond.end811
                                        #   in Loop: Header=BB32_184 Depth=3
	imull	%edx, %ecx
	sarl	$16, %ecx
	addl	%ecx, %eax
	jmp	.LBB32_257
.LBB32_256:                             # %cond.false816
                                        #   in Loop: Header=BB32_184 Depth=3
	vmovsd	.LCPI32_5(%rip), %xmm0  # xmm0 = mem[0],zero
	vmulsd	-168(%rbp), %xmm0, %xmm0
	vxorps	%xmm1, %xmm1, %xmm1
	vmulsd	%xmm1, %xmm0, %xmm0
	vcvttsd2si	%xmm0, %eax
.LBB32_257:                             # %cond.end820
                                        #   in Loop: Header=BB32_184 Depth=3
	movl	%eax, -176(%rbp)
	movl	-32(%rbp), %edi
	movl	-28(%rbp), %esi
	movl	-96(%rbp), %r8d
	xorl	%edx, %edx
	xorl	%ecx, %ecx
	movl	$1, %r9d
	callq	BPredPartitionCost
	addl	-176(%rbp), %eax
	movl	%eax, -176(%rbp)
	jmp	.LBB32_259
.LBB32_258:                             # %if.else824
                                        #   in Loop: Header=BB32_184 Depth=3
	movl	$2147483647, -148(%rbp) # imm = 0x7FFFFFFF
	movl	$2147483647, -176(%rbp) # imm = 0x7FFFFFFF
.LBB32_259:                             # %if.end825
                                        #   in Loop: Header=BB32_184 Depth=3
	movq	input, %rax
	cmpl	$0, 1256(%rax)
	je	.LBB32_286
# %bb.260:                              # %land.lhs.true828
                                        #   in Loop: Header=BB32_184 Depth=3
	cmpl	$1, -32(%rbp)
	jne	.LBB32_286
# %bb.261:                              # %if.then831
                                        #   in Loop: Header=BB32_184 Depth=3
	movl	-68(%rbp), %eax
	cmpl	-76(%rbp), %eax
	jg	.LBB32_266
# %bb.262:                              # %land.lhs.true834
                                        #   in Loop: Header=BB32_184 Depth=3
	movl	-68(%rbp), %eax
	cmpl	-88(%rbp), %eax
	jg	.LBB32_266
# %bb.263:                              # %land.lhs.true837
                                        #   in Loop: Header=BB32_184 Depth=3
	movl	-68(%rbp), %eax
	cmpl	-148(%rbp), %eax
	jge	.LBB32_266
# %bb.264:                              # %land.lhs.true840
                                        #   in Loop: Header=BB32_184 Depth=3
	movl	-68(%rbp), %eax
	cmpl	-176(%rbp), %eax
	jge	.LBB32_266
# %bb.265:                              # %if.then843
                                        #   in Loop: Header=BB32_184 Depth=3
	movw	$0, -50(%rbp)
	movw	$0, -38(%rbp)
	movl	-68(%rbp), %eax
	addl	-60(%rbp), %eax
	movl	%eax, -60(%rbp)
	jmp	.LBB32_285
.LBB32_266:                             # %if.else845
                                        #   in Loop: Header=BB32_184 Depth=3
	movl	-76(%rbp), %eax
	cmpl	-68(%rbp), %eax
	jg	.LBB32_271
# %bb.267:                              # %land.lhs.true848
                                        #   in Loop: Header=BB32_184 Depth=3
	movl	-76(%rbp), %eax
	cmpl	-88(%rbp), %eax
	jg	.LBB32_271
# %bb.268:                              # %land.lhs.true851
                                        #   in Loop: Header=BB32_184 Depth=3
	movl	-76(%rbp), %eax
	cmpl	-148(%rbp), %eax
	jge	.LBB32_271
# %bb.269:                              # %land.lhs.true854
                                        #   in Loop: Header=BB32_184 Depth=3
	movl	-76(%rbp), %eax
	cmpl	-176(%rbp), %eax
	jge	.LBB32_271
# %bb.270:                              # %if.then857
                                        #   in Loop: Header=BB32_184 Depth=3
	movw	$1, -50(%rbp)
	movl	-76(%rbp), %eax
	addl	-60(%rbp), %eax
	movl	%eax, -60(%rbp)
	movw	$0, -36(%rbp)
	jmp	.LBB32_284
.LBB32_271:                             # %if.else859
                                        #   in Loop: Header=BB32_184 Depth=3
	movl	-88(%rbp), %eax
	cmpl	-68(%rbp), %eax
	jg	.LBB32_276
# %bb.272:                              # %land.lhs.true862
                                        #   in Loop: Header=BB32_184 Depth=3
	movl	-88(%rbp), %eax
	cmpl	-76(%rbp), %eax
	jg	.LBB32_276
# %bb.273:                              # %land.lhs.true865
                                        #   in Loop: Header=BB32_184 Depth=3
	movl	-88(%rbp), %eax
	cmpl	-148(%rbp), %eax
	jge	.LBB32_276
# %bb.274:                              # %land.lhs.true868
                                        #   in Loop: Header=BB32_184 Depth=3
	movl	-88(%rbp), %eax
	cmpl	-176(%rbp), %eax
	jge	.LBB32_276
# %bb.275:                              # %if.then871
                                        #   in Loop: Header=BB32_184 Depth=3
	movw	$2, -50(%rbp)
	movl	-88(%rbp), %eax
	addl	-60(%rbp), %eax
	movl	%eax, -60(%rbp)
	movl	$0, bi_pred_me
	movq	img, %rax
	movslq	-32(%rbp), %rcx
	movw	$0, 71952(%rax,%rcx,2)
	movw	$0, -38(%rbp)
	jmp	.LBB32_283
.LBB32_276:                             # %if.else876
                                        #   in Loop: Header=BB32_184 Depth=3
	movl	-148(%rbp), %eax
	cmpl	-68(%rbp), %eax
	jg	.LBB32_281
# %bb.277:                              # %land.lhs.true879
                                        #   in Loop: Header=BB32_184 Depth=3
	movl	-148(%rbp), %eax
	cmpl	-76(%rbp), %eax
	jg	.LBB32_281
# %bb.278:                              # %land.lhs.true882
                                        #   in Loop: Header=BB32_184 Depth=3
	movl	-148(%rbp), %eax
	cmpl	-88(%rbp), %eax
	jg	.LBB32_281
# %bb.279:                              # %land.lhs.true885
                                        #   in Loop: Header=BB32_184 Depth=3
	movl	-148(%rbp), %eax
	cmpl	-176(%rbp), %eax
	jg	.LBB32_281
# %bb.280:                              # %if.then888
                                        #   in Loop: Header=BB32_184 Depth=3
	movw	$2, -50(%rbp)
	movw	$0, -38(%rbp)
	movw	$0, -36(%rbp)
	movl	-148(%rbp), %eax
	addl	-60(%rbp), %eax
	movl	%eax, -60(%rbp)
	movl	$1, bi_pred_me
	movq	img, %rax
	movslq	-32(%rbp), %rcx
	movw	$1, 71952(%rax,%rcx,2)
	jmp	.LBB32_282
.LBB32_281:                             # %if.else893
                                        #   in Loop: Header=BB32_184 Depth=3
	movw	$0, -38(%rbp)
	movw	$0, -36(%rbp)
	movw	$2, -50(%rbp)
	movl	-176(%rbp), %eax
	addl	-60(%rbp), %eax
	movl	%eax, -60(%rbp)
	movl	$2, bi_pred_me
	movq	img, %rax
	movslq	-32(%rbp), %rcx
	movw	$2, 71952(%rax,%rcx,2)
.LBB32_282:                             # %if.end898
                                        #   in Loop: Header=BB32_184 Depth=3
	jmp	.LBB32_283
.LBB32_283:                             # %if.end899
                                        #   in Loop: Header=BB32_184 Depth=3
	jmp	.LBB32_284
.LBB32_284:                             # %if.end900
                                        #   in Loop: Header=BB32_184 Depth=3
	jmp	.LBB32_285
.LBB32_285:                             # %if.end901
                                        #   in Loop: Header=BB32_184 Depth=3
	jmp	.LBB32_295
.LBB32_286:                             # %if.else902
                                        #   in Loop: Header=BB32_184 Depth=3
	movl	-68(%rbp), %eax
	cmpl	-76(%rbp), %eax
	jg	.LBB32_289
# %bb.287:                              # %land.lhs.true905
                                        #   in Loop: Header=BB32_184 Depth=3
	movl	-68(%rbp), %eax
	cmpl	-88(%rbp), %eax
	jg	.LBB32_289
# %bb.288:                              # %if.then908
                                        #   in Loop: Header=BB32_184 Depth=3
	movw	$0, -50(%rbp)
	movw	$0, -38(%rbp)
	movl	-68(%rbp), %eax
	addl	-60(%rbp), %eax
	movl	%eax, -60(%rbp)
	jmp	.LBB32_294
.LBB32_289:                             # %if.else910
                                        #   in Loop: Header=BB32_184 Depth=3
	movl	-76(%rbp), %eax
	cmpl	-68(%rbp), %eax
	jg	.LBB32_292
# %bb.290:                              # %land.lhs.true913
                                        #   in Loop: Header=BB32_184 Depth=3
	movl	-76(%rbp), %eax
	cmpl	-88(%rbp), %eax
	jg	.LBB32_292
# %bb.291:                              # %if.then916
                                        #   in Loop: Header=BB32_184 Depth=3
	movw	$1, -50(%rbp)
	movl	-76(%rbp), %eax
	addl	-60(%rbp), %eax
	movl	%eax, -60(%rbp)
	movw	$0, -36(%rbp)
	jmp	.LBB32_293
.LBB32_292:                             # %if.else918
                                        #   in Loop: Header=BB32_184 Depth=3
	movw	$2, -50(%rbp)
	movl	-88(%rbp), %eax
	addl	-60(%rbp), %eax
	movl	%eax, -60(%rbp)
	movw	$0, -38(%rbp)
.LBB32_293:                             # %if.end920
                                        #   in Loop: Header=BB32_184 Depth=3
	jmp	.LBB32_294
.LBB32_294:                             # %if.end921
                                        #   in Loop: Header=BB32_184 Depth=3
	jmp	.LBB32_295
.LBB32_295:                             # %if.end922
                                        #   in Loop: Header=BB32_184 Depth=3
	jmp	.LBB32_297
.LBB32_296:                             # %if.else923
                                        #   in Loop: Header=BB32_184 Depth=3
	movw	$0, -50(%rbp)
	movl	-68(%rbp), %eax
	addl	-60(%rbp), %eax
	movl	%eax, -60(%rbp)
.LBB32_297:                             # %if.end925
                                        #   in Loop: Header=BB32_184 Depth=3
	cmpl	$1, -32(%rbp)
	jne	.LBB32_353
# %bb.298:                              # %if.then928
                                        #   in Loop: Header=BB32_184 Depth=3
	movswl	-50(%rbp), %eax
	cmpl	$1, %eax
	jne	.LBB32_308
# %bb.299:                              # %if.then932
                                        #   in Loop: Header=BB32_184 Depth=3
	movl	$0, -24(%rbp)
.LBB32_300:                             # %for.cond933
                                        #   Parent Loop BB32_171 Depth=1
                                        #     Parent Loop BB32_181 Depth=2
                                        #       Parent Loop BB32_184 Depth=3
                                        # =>      This Loop Header: Depth=4
                                        #           Child Loop BB32_302 Depth 5
	cmpl	$4, -24(%rbp)
	jge	.LBB32_307
# %bb.301:                              # %for.body936
                                        #   in Loop: Header=BB32_300 Depth=4
	movl	$0, -20(%rbp)
.LBB32_302:                             # %for.cond937
                                        #   Parent Loop BB32_171 Depth=1
                                        #     Parent Loop BB32_181 Depth=2
                                        #       Parent Loop BB32_184 Depth=3
                                        #         Parent Loop BB32_300 Depth=4
                                        # =>        This Inner Loop Header: Depth=5
	cmpl	$4, -20(%rbp)
	jge	.LBB32_305
# %bb.303:                              # %for.body940
                                        #   in Loop: Header=BB32_302 Depth=5
	movq	enc_picture, %rax
	movq	6480(%rax), %rax
	movq	(%rax), %rax
	movq	img, %rcx
	movl	144(%rcx), %ecx
	movl	-28(%rbp), %edx
	andl	$1, %edx
	shll	$1, %edx
	addl	%edx, %ecx
	addl	-20(%rbp), %ecx
	movslq	%ecx, %rcx
	movq	(%rax,%rcx,8), %rax
	movq	img, %rcx
	movl	148(%rcx), %ecx
	movl	-28(%rbp), %edx
	andl	$2, %edx
	addl	%edx, %ecx
	addl	-24(%rbp), %ecx
	movslq	%ecx, %rcx
	movw	$-1, (%rax,%rcx,2)
	movq	enc_picture, %rax
	movq	6488(%rax), %rax
	movq	(%rax), %rax
	movq	img, %rcx
	movl	144(%rcx), %ecx
	movl	-28(%rbp), %edx
	andl	$1, %edx
	shll	$1, %edx
	addl	%edx, %ecx
	addl	-20(%rbp), %ecx
	movslq	%ecx, %rcx
	movq	(%rax,%rcx,8), %rax
	movq	img, %rcx
	movl	148(%rcx), %ecx
	movl	-28(%rbp), %edx
	andl	$2, %edx
	addl	%edx, %ecx
	addl	-24(%rbp), %ecx
	movslq	%ecx, %rcx
	movq	$-1, (%rax,%rcx,8)
	movq	enc_picture, %rax
	movq	6504(%rax), %rax
	movq	(%rax), %rax
	movq	img, %rcx
	movl	144(%rcx), %ecx
	movl	-28(%rbp), %edx
	andl	$1, %edx
	shll	$1, %edx
	addl	%edx, %ecx
	addl	-20(%rbp), %ecx
	movslq	%ecx, %rcx
	movq	(%rax,%rcx,8), %rax
	movq	img, %rcx
	movl	148(%rcx), %ecx
	movl	-28(%rbp), %edx
	andl	$2, %edx
	addl	%edx, %ecx
	addl	-24(%rbp), %ecx
	movslq	%ecx, %rcx
	movq	(%rax,%rcx,8), %rax
	movw	$0, (%rax)
	movq	enc_picture, %rax
	movq	6504(%rax), %rax
	movq	(%rax), %rax
	movq	img, %rcx
	movl	144(%rcx), %ecx
	movl	-28(%rbp), %edx
	andl	$1, %edx
	shll	$1, %edx
	addl	%edx, %ecx
	addl	-20(%rbp), %ecx
	movslq	%ecx, %rcx
	movq	(%rax,%rcx,8), %rax
	movq	img, %rcx
	movl	148(%rcx), %ecx
	movl	-28(%rbp), %edx
	andl	$2, %edx
	addl	%edx, %ecx
	addl	-24(%rbp), %ecx
	movslq	%ecx, %rcx
	movq	(%rax,%rcx,8), %rax
	movw	$0, 2(%rax)
# %bb.304:                              # %for.inc997
                                        #   in Loop: Header=BB32_302 Depth=5
	movl	-20(%rbp), %eax
	addl	$1, %eax
	movl	%eax, -20(%rbp)
	jmp	.LBB32_302
.LBB32_305:                             # %for.end999
                                        #   in Loop: Header=BB32_300 Depth=4
	jmp	.LBB32_306
.LBB32_306:                             # %for.inc1000
                                        #   in Loop: Header=BB32_300 Depth=4
	movl	-24(%rbp), %eax
	addl	$1, %eax
	movl	%eax, -24(%rbp)
	jmp	.LBB32_300
.LBB32_307:                             # %for.end1002
                                        #   in Loop: Header=BB32_184 Depth=3
	jmp	.LBB32_323
.LBB32_308:                             # %if.else1003
                                        #   in Loop: Header=BB32_184 Depth=3
	movl	$0, -24(%rbp)
.LBB32_309:                             # %for.cond1004
                                        #   Parent Loop BB32_171 Depth=1
                                        #     Parent Loop BB32_181 Depth=2
                                        #       Parent Loop BB32_184 Depth=3
                                        # =>      This Loop Header: Depth=4
                                        #           Child Loop BB32_311 Depth 5
	cmpl	$4, -24(%rbp)
	jge	.LBB32_322
# %bb.310:                              # %for.body1007
                                        #   in Loop: Header=BB32_309 Depth=4
	movl	$0, -20(%rbp)
.LBB32_311:                             # %for.cond1008
                                        #   Parent Loop BB32_171 Depth=1
                                        #     Parent Loop BB32_181 Depth=2
                                        #       Parent Loop BB32_184 Depth=3
                                        #         Parent Loop BB32_309 Depth=4
                                        # =>        This Inner Loop Header: Depth=5
	cmpl	$4, -20(%rbp)
	jge	.LBB32_320
# %bb.312:                              # %for.body1011
                                        #   in Loop: Header=BB32_311 Depth=5
	movq	img, %rax
	movslq	-32(%rbp), %rcx
	cmpw	$0, 71952(%rax,%rcx,2)
	je	.LBB32_317
# %bb.313:                              # %if.then1016
                                        #   in Loop: Header=BB32_311 Depth=5
	movq	img, %rax
	movslq	-32(%rbp), %rcx
	movswl	71952(%rax,%rcx,2), %eax
	cmpl	$1, %eax
	jne	.LBB32_315
# %bb.314:                              # %cond.true1023
                                        #   in Loop: Header=BB32_311 Depth=5
	movq	img, %rax
	movq	71936(%rax), %rax
	jmp	.LBB32_316
.LBB32_315:                             # %cond.false1024
                                        #   in Loop: Header=BB32_311 Depth=5
	movq	img, %rax
	movq	71944(%rax), %rax
.LBB32_316:                             # %cond.end1025
                                        #   in Loop: Header=BB32_311 Depth=5
	movq	%rax, -432(%rbp)
	movq	enc_picture, %rax
	movq	6480(%rax), %rax
	movq	(%rax), %rax
	movq	img, %rcx
	movl	144(%rcx), %ecx
	movl	-28(%rbp), %edx
	andl	$1, %edx
	shll	$1, %edx
	addl	%edx, %ecx
	addl	-20(%rbp), %ecx
	movslq	%ecx, %rcx
	movq	(%rax,%rcx,8), %rax
	movq	img, %rcx
	movl	148(%rcx), %ecx
	movl	-28(%rbp), %edx
	andl	$2, %edx
	addl	%edx, %ecx
	addl	-24(%rbp), %ecx
	movslq	%ecx, %rcx
	movw	$0, (%rax,%rcx,2)
	movq	enc_picture, %rax
	addq	$24, %rax
	movl	-64(%rbp), %ecx
	addl	$0, %ecx
	movslq	%ecx, %rcx
	imulq	$264, %rcx, %rcx        # imm = 0x108
	addq	%rcx, %rax
	movq	(%rax), %rax
	movq	enc_picture, %rcx
	movq	6488(%rcx), %rcx
	movq	(%rcx), %rcx
	movq	img, %rdx
	movl	144(%rdx), %edx
	movl	-28(%rbp), %esi
	andl	$1, %esi
	shll	$1, %esi
	addl	%esi, %edx
	addl	-20(%rbp), %edx
	movslq	%edx, %rdx
	movq	(%rcx,%rdx,8), %rcx
	movq	img, %rdx
	movl	148(%rdx), %edx
	movl	-28(%rbp), %esi
	andl	$2, %esi
	addl	%esi, %edx
	addl	-24(%rbp), %edx
	movslq	%edx, %rdx
	movq	%rax, (%rcx,%rdx,8)
	movq	-432(%rbp), %rax
	movslq	-20(%rbp), %rcx
	movq	(%rax,%rcx,8), %rax
	movslq	-24(%rbp), %rcx
	movq	(%rax,%rcx,8), %rax
	movq	(%rax), %rax
	movq	(%rax), %rax
	movslq	-32(%rbp), %rcx
	movq	(%rax,%rcx,8), %rax
	movw	(%rax), %ax
	movq	enc_picture, %rcx
	movq	6504(%rcx), %rcx
	movq	(%rcx), %rcx
	movq	img, %rdx
	movl	144(%rdx), %edx
	movl	-28(%rbp), %esi
	andl	$1, %esi
	shll	$1, %esi
	addl	%esi, %edx
	addl	-20(%rbp), %edx
	movslq	%edx, %rdx
	movq	(%rcx,%rdx,8), %rcx
	movq	img, %rdx
	movl	148(%rdx), %edx
	movl	-28(%rbp), %esi
	andl	$2, %esi
	addl	%esi, %edx
	addl	-24(%rbp), %edx
	movslq	%edx, %rdx
	movq	(%rcx,%rdx,8), %rcx
	movw	%ax, (%rcx)
	movq	-432(%rbp), %rax
	movslq	-20(%rbp), %rcx
	movq	(%rax,%rcx,8), %rax
	movslq	-24(%rbp), %rcx
	movq	(%rax,%rcx,8), %rax
	movq	(%rax), %rax
	movq	(%rax), %rax
	movslq	-32(%rbp), %rcx
	movq	(%rax,%rcx,8), %rax
	movw	2(%rax), %ax
	movq	enc_picture, %rcx
	movq	6504(%rcx), %rcx
	movq	(%rcx), %rcx
	movq	img, %rdx
	movl	144(%rdx), %edx
	movl	-28(%rbp), %esi
	andl	$1, %esi
	shll	$1, %esi
	addl	%esi, %edx
	addl	-20(%rbp), %edx
	movslq	%edx, %rdx
	movq	(%rcx,%rdx,8), %rcx
	movq	img, %rdx
	movl	148(%rdx), %edx
	movl	-28(%rbp), %esi
	andl	$2, %esi
	addl	%esi, %edx
	addl	-24(%rbp), %edx
	movslq	%edx, %rdx
	movq	(%rcx,%rdx,8), %rcx
	movw	%ax, 2(%rcx)
	jmp	.LBB32_318
.LBB32_317:                             # %if.else1111
                                        #   in Loop: Header=BB32_311 Depth=5
	movw	-36(%rbp), %ax
	movq	enc_picture, %rcx
	movq	6480(%rcx), %rcx
	movq	(%rcx), %rcx
	movq	img, %rdx
	movl	144(%rdx), %edx
	movl	-28(%rbp), %esi
	andl	$1, %esi
	shll	$1, %esi
	addl	%esi, %edx
	addl	-20(%rbp), %edx
	movslq	%edx, %rdx
	movq	(%rcx,%rdx,8), %rcx
	movq	img, %rdx
	movl	148(%rdx), %edx
	movl	-28(%rbp), %esi
	andl	$2, %esi
	addl	%esi, %edx
	addl	-24(%rbp), %edx
	movslq	%edx, %rdx
	movw	%ax, (%rcx,%rdx,2)
	movq	enc_picture, %rax
	addq	$24, %rax
	movl	-64(%rbp), %ecx
	addl	$0, %ecx
	movslq	%ecx, %rcx
	imulq	$264, %rcx, %rcx        # imm = 0x108
	addq	%rcx, %rax
	movq	enc_picture, %rcx
	movq	6480(%rcx), %rcx
	movq	(%rcx), %rcx
	movq	img, %rdx
	movl	144(%rdx), %edx
	movl	-28(%rbp), %esi
	andl	$1, %esi
	shll	$1, %esi
	addl	%esi, %edx
	addl	-20(%rbp), %edx
	movslq	%edx, %rdx
	movq	(%rcx,%rdx,8), %rcx
	movq	img, %rdx
	movl	148(%rdx), %edx
	movl	-28(%rbp), %esi
	andl	$2, %esi
	addl	%esi, %edx
	addl	-24(%rbp), %edx
	movslq	%edx, %rdx
	movswq	(%rcx,%rdx,2), %rcx
	movq	(%rax,%rcx,8), %rax
	movq	enc_picture, %rcx
	movq	6488(%rcx), %rcx
	movq	(%rcx), %rcx
	movq	img, %rdx
	movl	144(%rdx), %edx
	movl	-28(%rbp), %esi
	andl	$1, %esi
	shll	$1, %esi
	addl	%esi, %edx
	addl	-20(%rbp), %edx
	movslq	%edx, %rdx
	movq	(%rcx,%rdx,8), %rcx
	movq	img, %rdx
	movl	148(%rdx), %edx
	movl	-28(%rbp), %esi
	andl	$2, %esi
	addl	%esi, %edx
	addl	-24(%rbp), %edx
	movslq	%edx, %rdx
	movq	%rax, (%rcx,%rdx,8)
	movq	img, %rax
	movq	71928(%rax), %rax
	movslq	-20(%rbp), %rcx
	movq	(%rax,%rcx,8), %rax
	movslq	-24(%rbp), %rcx
	movq	(%rax,%rcx,8), %rax
	movq	(%rax), %rax
	movswq	-36(%rbp), %rcx
	movq	(%rax,%rcx,8), %rax
	movslq	-32(%rbp), %rcx
	movq	(%rax,%rcx,8), %rax
	movw	(%rax), %ax
	movq	enc_picture, %rcx
	movq	6504(%rcx), %rcx
	movq	(%rcx), %rcx
	movq	img, %rdx
	movl	144(%rdx), %edx
	movl	-28(%rbp), %esi
	andl	$1, %esi
	shll	$1, %esi
	addl	%esi, %edx
	addl	-20(%rbp), %edx
	movslq	%edx, %rdx
	movq	(%rcx,%rdx,8), %rcx
	movq	img, %rdx
	movl	148(%rdx), %edx
	movl	-28(%rbp), %esi
	andl	$2, %esi
	addl	%esi, %edx
	addl	-24(%rbp), %edx
	movslq	%edx, %rdx
	movq	(%rcx,%rdx,8), %rcx
	movw	%ax, (%rcx)
	movq	img, %rax
	movq	71928(%rax), %rax
	movslq	-20(%rbp), %rcx
	movq	(%rax,%rcx,8), %rax
	movslq	-24(%rbp), %rcx
	movq	(%rax,%rcx,8), %rax
	movq	(%rax), %rax
	movswq	-36(%rbp), %rcx
	movq	(%rax,%rcx,8), %rax
	movslq	-32(%rbp), %rcx
	movq	(%rax,%rcx,8), %rax
	movw	2(%rax), %ax
	movq	enc_picture, %rcx
	movq	6504(%rcx), %rcx
	movq	(%rcx), %rcx
	movq	img, %rdx
	movl	144(%rdx), %edx
	movl	-28(%rbp), %esi
	andl	$1, %esi
	shll	$1, %esi
	addl	%esi, %edx
	addl	-20(%rbp), %edx
	movslq	%edx, %rdx
	movq	(%rcx,%rdx,8), %rcx
	movq	img, %rdx
	movl	148(%rdx), %edx
	movl	-28(%rbp), %esi
	andl	$2, %esi
	addl	%esi, %edx
	addl	-24(%rbp), %edx
	movslq	%edx, %rdx
	movq	(%rcx,%rdx,8), %rcx
	movw	%ax, 2(%rcx)
.LBB32_318:                             # %if.end1217
                                        #   in Loop: Header=BB32_311 Depth=5
	jmp	.LBB32_319
.LBB32_319:                             # %for.inc1218
                                        #   in Loop: Header=BB32_311 Depth=5
	movl	-20(%rbp), %eax
	addl	$1, %eax
	movl	%eax, -20(%rbp)
	jmp	.LBB32_311
.LBB32_320:                             # %for.end1220
                                        #   in Loop: Header=BB32_309 Depth=4
	jmp	.LBB32_321
.LBB32_321:                             # %for.inc1221
                                        #   in Loop: Header=BB32_309 Depth=4
	movl	-24(%rbp), %eax
	addl	$1, %eax
	movl	%eax, -24(%rbp)
	jmp	.LBB32_309
.LBB32_322:                             # %for.end1223
                                        #   in Loop: Header=BB32_184 Depth=3
	jmp	.LBB32_323
.LBB32_323:                             # %if.end1224
                                        #   in Loop: Header=BB32_184 Depth=3
	cmpl	$0, -108(%rbp)
	je	.LBB32_352
# %bb.324:                              # %if.then1226
                                        #   in Loop: Header=BB32_184 Depth=3
	movswl	-50(%rbp), %eax
	cmpl	$0, %eax
	jne	.LBB32_334
# %bb.325:                              # %if.then1230
                                        #   in Loop: Header=BB32_184 Depth=3
	movl	$0, -24(%rbp)
.LBB32_326:                             # %for.cond1231
                                        #   Parent Loop BB32_171 Depth=1
                                        #     Parent Loop BB32_181 Depth=2
                                        #       Parent Loop BB32_184 Depth=3
                                        # =>      This Loop Header: Depth=4
                                        #           Child Loop BB32_328 Depth 5
	cmpl	$4, -24(%rbp)
	jge	.LBB32_333
# %bb.327:                              # %for.body1234
                                        #   in Loop: Header=BB32_326 Depth=4
	movl	$0, -20(%rbp)
.LBB32_328:                             # %for.cond1235
                                        #   Parent Loop BB32_171 Depth=1
                                        #     Parent Loop BB32_181 Depth=2
                                        #       Parent Loop BB32_184 Depth=3
                                        #         Parent Loop BB32_326 Depth=4
                                        # =>        This Inner Loop Header: Depth=5
	cmpl	$4, -20(%rbp)
	jge	.LBB32_331
# %bb.329:                              # %for.body1238
                                        #   in Loop: Header=BB32_328 Depth=5
	movq	enc_picture, %rax
	movq	6480(%rax), %rax
	movq	8(%rax), %rax
	movq	img, %rcx
	movl	144(%rcx), %ecx
	movl	-28(%rbp), %edx
	andl	$1, %edx
	shll	$1, %edx
	addl	%edx, %ecx
	addl	-20(%rbp), %ecx
	movslq	%ecx, %rcx
	movq	(%rax,%rcx,8), %rax
	movq	img, %rcx
	movl	148(%rcx), %ecx
	movl	-28(%rbp), %edx
	andl	$2, %edx
	addl	%edx, %ecx
	addl	-24(%rbp), %ecx
	movslq	%ecx, %rcx
	movw	$-1, (%rax,%rcx,2)
	movq	enc_picture, %rax
	movq	6488(%rax), %rax
	movq	8(%rax), %rax
	movq	img, %rcx
	movl	144(%rcx), %ecx
	movl	-28(%rbp), %edx
	andl	$1, %edx
	shll	$1, %edx
	addl	%edx, %ecx
	addl	-20(%rbp), %ecx
	movslq	%ecx, %rcx
	movq	(%rax,%rcx,8), %rax
	movq	img, %rcx
	movl	148(%rcx), %ecx
	movl	-28(%rbp), %edx
	andl	$2, %edx
	addl	%edx, %ecx
	addl	-24(%rbp), %ecx
	movslq	%ecx, %rcx
	movq	$-1, (%rax,%rcx,8)
	movq	enc_picture, %rax
	movq	6504(%rax), %rax
	movq	8(%rax), %rax
	movq	img, %rcx
	movl	144(%rcx), %ecx
	movl	-28(%rbp), %edx
	andl	$1, %edx
	shll	$1, %edx
	addl	%edx, %ecx
	addl	-20(%rbp), %ecx
	movslq	%ecx, %rcx
	movq	(%rax,%rcx,8), %rax
	movq	img, %rcx
	movl	148(%rcx), %ecx
	movl	-28(%rbp), %edx
	andl	$2, %edx
	addl	%edx, %ecx
	addl	-24(%rbp), %ecx
	movslq	%ecx, %rcx
	movq	(%rax,%rcx,8), %rax
	movw	$0, (%rax)
	movq	enc_picture, %rax
	movq	6504(%rax), %rax
	movq	8(%rax), %rax
	movq	img, %rcx
	movl	144(%rcx), %ecx
	movl	-28(%rbp), %edx
	andl	$1, %edx
	shll	$1, %edx
	addl	%edx, %ecx
	addl	-20(%rbp), %ecx
	movslq	%ecx, %rcx
	movq	(%rax,%rcx,8), %rax
	movq	img, %rcx
	movl	148(%rcx), %ecx
	movl	-28(%rbp), %edx
	andl	$2, %edx
	addl	%edx, %ecx
	addl	-24(%rbp), %ecx
	movslq	%ecx, %rcx
	movq	(%rax,%rcx,8), %rax
	movw	$0, 2(%rax)
# %bb.330:                              # %for.inc1301
                                        #   in Loop: Header=BB32_328 Depth=5
	movl	-20(%rbp), %eax
	addl	$1, %eax
	movl	%eax, -20(%rbp)
	jmp	.LBB32_328
.LBB32_331:                             # %for.end1303
                                        #   in Loop: Header=BB32_326 Depth=4
	jmp	.LBB32_332
.LBB32_332:                             # %for.inc1304
                                        #   in Loop: Header=BB32_326 Depth=4
	movl	-24(%rbp), %eax
	addl	$1, %eax
	movl	%eax, -24(%rbp)
	jmp	.LBB32_326
.LBB32_333:                             # %for.end1306
                                        #   in Loop: Header=BB32_184 Depth=3
	jmp	.LBB32_351
.LBB32_334:                             # %if.else1307
                                        #   in Loop: Header=BB32_184 Depth=3
	movl	$0, -24(%rbp)
.LBB32_335:                             # %for.cond1308
                                        #   Parent Loop BB32_171 Depth=1
                                        #     Parent Loop BB32_181 Depth=2
                                        #       Parent Loop BB32_184 Depth=3
                                        # =>      This Loop Header: Depth=4
                                        #           Child Loop BB32_337 Depth 5
	cmpl	$4, -24(%rbp)
	jge	.LBB32_350
# %bb.336:                              # %for.body1311
                                        #   in Loop: Header=BB32_335 Depth=4
	movl	$0, -20(%rbp)
.LBB32_337:                             # %for.cond1312
                                        #   Parent Loop BB32_171 Depth=1
                                        #     Parent Loop BB32_181 Depth=2
                                        #       Parent Loop BB32_184 Depth=3
                                        #         Parent Loop BB32_335 Depth=4
                                        # =>        This Inner Loop Header: Depth=5
	cmpl	$4, -20(%rbp)
	jge	.LBB32_348
# %bb.338:                              # %for.body1315
                                        #   in Loop: Header=BB32_337 Depth=5
	movq	img, %rax
	movslq	-32(%rbp), %rcx
	cmpw	$0, 71952(%rax,%rcx,2)
	je	.LBB32_343
# %bb.339:                              # %if.then1320
                                        #   in Loop: Header=BB32_337 Depth=5
	movq	img, %rax
	movslq	-32(%rbp), %rcx
	movswl	71952(%rax,%rcx,2), %eax
	cmpl	$1, %eax
	jne	.LBB32_341
# %bb.340:                              # %cond.true1328
                                        #   in Loop: Header=BB32_337 Depth=5
	movq	img, %rax
	movq	71936(%rax), %rax
	jmp	.LBB32_342
.LBB32_341:                             # %cond.false1330
                                        #   in Loop: Header=BB32_337 Depth=5
	movq	img, %rax
	movq	71944(%rax), %rax
.LBB32_342:                             # %cond.end1332
                                        #   in Loop: Header=BB32_337 Depth=5
	movq	%rax, -440(%rbp)
	movq	enc_picture, %rax
	movq	6480(%rax), %rax
	movq	8(%rax), %rax
	movq	img, %rcx
	movl	144(%rcx), %ecx
	movl	-28(%rbp), %edx
	andl	$1, %edx
	shll	$1, %edx
	addl	%edx, %ecx
	addl	-20(%rbp), %ecx
	movslq	%ecx, %rcx
	movq	(%rax,%rcx,8), %rax
	movq	img, %rcx
	movl	148(%rcx), %ecx
	movl	-28(%rbp), %edx
	andl	$2, %edx
	addl	%edx, %ecx
	addl	-24(%rbp), %ecx
	movslq	%ecx, %rcx
	movw	$0, (%rax,%rcx,2)
	movq	enc_picture, %rax
	addq	$24, %rax
	movl	-64(%rbp), %ecx
	addl	$1, %ecx
	movslq	%ecx, %rcx
	imulq	$264, %rcx, %rcx        # imm = 0x108
	addq	%rcx, %rax
	movq	(%rax), %rax
	movq	enc_picture, %rcx
	movq	6488(%rcx), %rcx
	movq	8(%rcx), %rcx
	movq	img, %rdx
	movl	144(%rdx), %edx
	movl	-28(%rbp), %esi
	andl	$1, %esi
	shll	$1, %esi
	addl	%esi, %edx
	addl	-20(%rbp), %edx
	movslq	%edx, %rdx
	movq	(%rcx,%rdx,8), %rcx
	movq	img, %rdx
	movl	148(%rdx), %edx
	movl	-28(%rbp), %esi
	andl	$2, %esi
	addl	%esi, %edx
	addl	-24(%rbp), %edx
	movslq	%edx, %rdx
	movq	%rax, (%rcx,%rdx,8)
	movq	-440(%rbp), %rax
	movslq	-20(%rbp), %rcx
	movq	(%rax,%rcx,8), %rax
	movslq	-24(%rbp), %rcx
	movq	(%rax,%rcx,8), %rax
	movq	8(%rax), %rax
	movq	(%rax), %rax
	movslq	-32(%rbp), %rcx
	movq	(%rax,%rcx,8), %rax
	movw	(%rax), %ax
	movq	enc_picture, %rcx
	movq	6504(%rcx), %rcx
	movq	8(%rcx), %rcx
	movq	img, %rdx
	movl	144(%rdx), %edx
	movl	-28(%rbp), %esi
	andl	$1, %esi
	shll	$1, %esi
	addl	%esi, %edx
	addl	-20(%rbp), %edx
	movslq	%edx, %rdx
	movq	(%rcx,%rdx,8), %rcx
	movq	img, %rdx
	movl	148(%rdx), %edx
	movl	-28(%rbp), %esi
	andl	$2, %esi
	addl	%esi, %edx
	addl	-24(%rbp), %edx
	movslq	%edx, %rdx
	movq	(%rcx,%rdx,8), %rcx
	movw	%ax, (%rcx)
	movq	-440(%rbp), %rax
	movslq	-20(%rbp), %rcx
	movq	(%rax,%rcx,8), %rax
	movslq	-24(%rbp), %rcx
	movq	(%rax,%rcx,8), %rax
	movq	8(%rax), %rax
	movq	(%rax), %rax
	movslq	-32(%rbp), %rcx
	movq	(%rax,%rcx,8), %rax
	movw	2(%rax), %ax
	movq	enc_picture, %rcx
	movq	6504(%rcx), %rcx
	movq	8(%rcx), %rcx
	movq	img, %rdx
	movl	144(%rdx), %edx
	movl	-28(%rbp), %esi
	andl	$1, %esi
	shll	$1, %esi
	addl	%esi, %edx
	addl	-20(%rbp), %edx
	movslq	%edx, %rdx
	movq	(%rcx,%rdx,8), %rcx
	movq	img, %rdx
	movl	148(%rdx), %edx
	movl	-28(%rbp), %esi
	andl	$2, %esi
	addl	%esi, %edx
	addl	-24(%rbp), %edx
	movslq	%edx, %rdx
	movq	(%rcx,%rdx,8), %rcx
	movw	%ax, 2(%rcx)
	jmp	.LBB32_346
.LBB32_343:                             # %if.else1419
                                        #   in Loop: Header=BB32_337 Depth=5
	movw	-38(%rbp), %ax
	movq	enc_picture, %rcx
	movq	6480(%rcx), %rcx
	movq	8(%rcx), %rcx
	movq	img, %rdx
	movl	144(%rdx), %edx
	movl	-28(%rbp), %esi
	andl	$1, %esi
	shll	$1, %esi
	addl	%esi, %edx
	addl	-20(%rbp), %edx
	movslq	%edx, %rdx
	movq	(%rcx,%rdx,8), %rcx
	movq	img, %rdx
	movl	148(%rdx), %edx
	movl	-28(%rbp), %esi
	andl	$2, %esi
	addl	%esi, %edx
	addl	-24(%rbp), %edx
	movslq	%edx, %rdx
	movw	%ax, (%rcx,%rdx,2)
	movq	enc_picture, %rax
	addq	$24, %rax
	movl	-64(%rbp), %ecx
	addl	$1, %ecx
	movslq	%ecx, %rcx
	imulq	$264, %rcx, %rcx        # imm = 0x108
	addq	%rcx, %rax
	movq	enc_picture, %rcx
	movq	6480(%rcx), %rcx
	movq	8(%rcx), %rcx
	movq	img, %rdx
	movl	144(%rdx), %edx
	movl	-28(%rbp), %esi
	andl	$1, %esi
	shll	$1, %esi
	addl	%esi, %edx
	addl	-20(%rbp), %edx
	movslq	%edx, %rdx
	movq	(%rcx,%rdx,8), %rcx
	movq	img, %rdx
	movl	148(%rdx), %edx
	movl	-28(%rbp), %esi
	andl	$2, %esi
	addl	%esi, %edx
	addl	-24(%rbp), %edx
	movslq	%edx, %rdx
	movswq	(%rcx,%rdx,2), %rcx
	movq	(%rax,%rcx,8), %rax
	movq	enc_picture, %rcx
	movq	6488(%rcx), %rcx
	movq	8(%rcx), %rcx
	movq	img, %rdx
	movl	144(%rdx), %edx
	movl	-28(%rbp), %esi
	andl	$1, %esi
	shll	$1, %esi
	addl	%esi, %edx
	addl	-20(%rbp), %edx
	movslq	%edx, %rdx
	movq	(%rcx,%rdx,8), %rcx
	movq	img, %rdx
	movl	148(%rdx), %edx
	movl	-28(%rbp), %esi
	andl	$2, %esi
	addl	%esi, %edx
	addl	-24(%rbp), %edx
	movslq	%edx, %rdx
	movq	%rax, (%rcx,%rdx,8)
	movswl	-38(%rbp), %eax
	cmpl	$0, %eax
	jl	.LBB32_345
# %bb.344:                              # %if.then1474
                                        #   in Loop: Header=BB32_337 Depth=5
	movq	img, %rax
	movq	71928(%rax), %rax
	movslq	-20(%rbp), %rcx
	movq	(%rax,%rcx,8), %rax
	movslq	-24(%rbp), %rcx
	movq	(%rax,%rcx,8), %rax
	movq	8(%rax), %rax
	movswq	-38(%rbp), %rcx
	movq	(%rax,%rcx,8), %rax
	movslq	-32(%rbp), %rcx
	movq	(%rax,%rcx,8), %rax
	movw	(%rax), %ax
	movq	enc_picture, %rcx
	movq	6504(%rcx), %rcx
	movq	8(%rcx), %rcx
	movq	img, %rdx
	movl	144(%rdx), %edx
	movl	-28(%rbp), %esi
	andl	$1, %esi
	shll	$1, %esi
	addl	%esi, %edx
	addl	-20(%rbp), %edx
	movslq	%edx, %rdx
	movq	(%rcx,%rdx,8), %rcx
	movq	img, %rdx
	movl	148(%rdx), %edx
	movl	-28(%rbp), %esi
	andl	$2, %esi
	addl	%esi, %edx
	addl	-24(%rbp), %edx
	movslq	%edx, %rdx
	movq	(%rcx,%rdx,8), %rcx
	movw	%ax, (%rcx)
	movq	img, %rax
	movq	71928(%rax), %rax
	movslq	-20(%rbp), %rcx
	movq	(%rax,%rcx,8), %rax
	movslq	-24(%rbp), %rcx
	movq	(%rax,%rcx,8), %rax
	movq	8(%rax), %rax
	movswq	-38(%rbp), %rcx
	movq	(%rax,%rcx,8), %rax
	movslq	-32(%rbp), %rcx
	movq	(%rax,%rcx,8), %rax
	movw	2(%rax), %ax
	movq	enc_picture, %rcx
	movq	6504(%rcx), %rcx
	movq	8(%rcx), %rcx
	movq	img, %rdx
	movl	144(%rdx), %edx
	movl	-28(%rbp), %esi
	andl	$1, %esi
	shll	$1, %esi
	addl	%esi, %edx
	addl	-20(%rbp), %edx
	movslq	%edx, %rdx
	movq	(%rcx,%rdx,8), %rcx
	movq	img, %rdx
	movl	148(%rdx), %edx
	movl	-28(%rbp), %esi
	andl	$2, %esi
	addl	%esi, %edx
	addl	-24(%rbp), %edx
	movslq	%edx, %rdx
	movq	(%rcx,%rdx,8), %rcx
	movw	%ax, 2(%rcx)
.LBB32_345:                             # %if.end1529
                                        #   in Loop: Header=BB32_337 Depth=5
	jmp	.LBB32_346
.LBB32_346:                             # %if.end1530
                                        #   in Loop: Header=BB32_337 Depth=5
	jmp	.LBB32_347
.LBB32_347:                             # %for.inc1531
                                        #   in Loop: Header=BB32_337 Depth=5
	movl	-20(%rbp), %eax
	addl	$1, %eax
	movl	%eax, -20(%rbp)
	jmp	.LBB32_337
.LBB32_348:                             # %for.end1533
                                        #   in Loop: Header=BB32_335 Depth=4
	jmp	.LBB32_349
.LBB32_349:                             # %for.inc1534
                                        #   in Loop: Header=BB32_335 Depth=4
	movl	-24(%rbp), %eax
	addl	$1, %eax
	movl	%eax, -24(%rbp)
	jmp	.LBB32_335
.LBB32_350:                             # %for.end1536
                                        #   in Loop: Header=BB32_184 Depth=3
	jmp	.LBB32_351
.LBB32_351:                             # %if.end1537
                                        #   in Loop: Header=BB32_184 Depth=3
	jmp	.LBB32_352
.LBB32_352:                             # %if.end1538
                                        #   in Loop: Header=BB32_184 Depth=3
	jmp	.LBB32_393
.LBB32_353:                             # %if.else1539
                                        #   in Loop: Header=BB32_184 Depth=3
	cmpl	$2, -32(%rbp)
	jne	.LBB32_373
# %bb.354:                              # %if.then1542
                                        #   in Loop: Header=BB32_184 Depth=3
	movq	img, %rax
	movl	148(%rax), %eax
	movl	-28(%rbp), %ecx
	shll	$1, %ecx
	addl	%ecx, %eax
	movl	%eax, -116(%rbp)
	movl	$0, -24(%rbp)
.LBB32_355:                             # %for.cond1546
                                        #   Parent Loop BB32_171 Depth=1
                                        #     Parent Loop BB32_181 Depth=2
                                        #       Parent Loop BB32_184 Depth=3
                                        # =>      This Loop Header: Depth=4
                                        #           Child Loop BB32_357 Depth 5
	cmpl	$2, -24(%rbp)
	jge	.LBB32_372
# %bb.356:                              # %for.body1549
                                        #   in Loop: Header=BB32_355 Depth=4
	movl	$0, -20(%rbp)
.LBB32_357:                             # %for.cond1550
                                        #   Parent Loop BB32_171 Depth=1
                                        #     Parent Loop BB32_181 Depth=2
                                        #       Parent Loop BB32_184 Depth=3
                                        #         Parent Loop BB32_355 Depth=4
                                        # =>        This Inner Loop Header: Depth=5
	cmpl	$4, -20(%rbp)
	jge	.LBB32_370
# %bb.358:                              # %for.body1553
                                        #   in Loop: Header=BB32_357 Depth=5
	movswl	-50(%rbp), %eax
	cmpl	$1, %eax
	jne	.LBB32_360
# %bb.359:                              # %if.then1557
                                        #   in Loop: Header=BB32_357 Depth=5
	movq	enc_picture, %rax
	movq	6480(%rax), %rax
	movq	(%rax), %rax
	movq	img, %rcx
	movl	144(%rcx), %ecx
	addl	-20(%rbp), %ecx
	movslq	%ecx, %rcx
	movq	(%rax,%rcx,8), %rax
	movl	-116(%rbp), %ecx
	addl	-24(%rbp), %ecx
	movslq	%ecx, %rcx
	movw	$-1, (%rax,%rcx,2)
	movq	enc_picture, %rax
	movq	6488(%rax), %rax
	movq	(%rax), %rax
	movq	img, %rcx
	movl	144(%rcx), %ecx
	addl	-20(%rbp), %ecx
	movslq	%ecx, %rcx
	movq	(%rax,%rcx,8), %rax
	movl	-116(%rbp), %ecx
	addl	-24(%rbp), %ecx
	movslq	%ecx, %rcx
	movq	$-1, (%rax,%rcx,8)
	movq	enc_picture, %rax
	movq	6504(%rax), %rax
	movq	(%rax), %rax
	movq	img, %rcx
	movl	144(%rcx), %ecx
	addl	-20(%rbp), %ecx
	movslq	%ecx, %rcx
	movq	(%rax,%rcx,8), %rax
	movl	-116(%rbp), %ecx
	addl	-24(%rbp), %ecx
	movslq	%ecx, %rcx
	movq	(%rax,%rcx,8), %rax
	movw	$0, (%rax)
	movq	enc_picture, %rax
	movq	6504(%rax), %rax
	movq	(%rax), %rax
	movq	img, %rcx
	movl	144(%rcx), %ecx
	addl	-20(%rbp), %ecx
	movslq	%ecx, %rcx
	movq	(%rax,%rcx,8), %rax
	movl	-116(%rbp), %ecx
	addl	-24(%rbp), %ecx
	movslq	%ecx, %rcx
	movq	(%rax,%rcx,8), %rax
	movw	$0, 2(%rax)
	jmp	.LBB32_361
.LBB32_360:                             # %if.else1596
                                        #   in Loop: Header=BB32_357 Depth=5
	movw	-36(%rbp), %ax
	movq	enc_picture, %rcx
	movq	6480(%rcx), %rcx
	movq	(%rcx), %rcx
	movq	img, %rdx
	movl	144(%rdx), %edx
	addl	-20(%rbp), %edx
	movslq	%edx, %rdx
	movq	(%rcx,%rdx,8), %rcx
	movl	-116(%rbp), %edx
	addl	-24(%rbp), %edx
	movslq	%edx, %rdx
	movw	%ax, (%rcx,%rdx,2)
	movq	enc_picture, %rax
	addq	$24, %rax
	movl	-64(%rbp), %ecx
	addl	$0, %ecx
	movslq	%ecx, %rcx
	imulq	$264, %rcx, %rcx        # imm = 0x108
	addq	%rcx, %rax
	movq	enc_picture, %rcx
	movq	6480(%rcx), %rcx
	movq	(%rcx), %rcx
	movq	img, %rdx
	movl	144(%rdx), %edx
	addl	-20(%rbp), %edx
	movslq	%edx, %rdx
	movq	(%rcx,%rdx,8), %rcx
	movl	-116(%rbp), %edx
	addl	-24(%rbp), %edx
	movslq	%edx, %rdx
	movswq	(%rcx,%rdx,2), %rcx
	movq	(%rax,%rcx,8), %rax
	movq	enc_picture, %rcx
	movq	6488(%rcx), %rcx
	movq	(%rcx), %rcx
	movq	img, %rdx
	movl	144(%rdx), %edx
	addl	-20(%rbp), %edx
	movslq	%edx, %rdx
	movq	(%rcx,%rdx,8), %rcx
	movl	-116(%rbp), %edx
	addl	-24(%rbp), %edx
	movslq	%edx, %rdx
	movq	%rax, (%rcx,%rdx,8)
	movq	img, %rax
	movq	71928(%rax), %rax
	movslq	-20(%rbp), %rcx
	movq	(%rax,%rcx,8), %rax
	movl	-24(%rbp), %ecx
	movl	-28(%rbp), %edx
	shll	$1, %edx
	addl	%edx, %ecx
	movslq	%ecx, %rcx
	movq	(%rax,%rcx,8), %rax
	movq	(%rax), %rax
	movswq	-36(%rbp), %rcx
	movq	(%rax,%rcx,8), %rax
	movslq	-32(%rbp), %rcx
	movq	(%rax,%rcx,8), %rax
	movw	(%rax), %ax
	movq	enc_picture, %rcx
	movq	6504(%rcx), %rcx
	movq	(%rcx), %rcx
	movq	img, %rdx
	movl	144(%rdx), %edx
	addl	-20(%rbp), %edx
	movslq	%edx, %rdx
	movq	(%rcx,%rdx,8), %rcx
	movl	-116(%rbp), %edx
	addl	-24(%rbp), %edx
	movslq	%edx, %rdx
	movq	(%rcx,%rdx,8), %rcx
	movw	%ax, (%rcx)
	movq	img, %rax
	movq	71928(%rax), %rax
	movslq	-20(%rbp), %rcx
	movq	(%rax,%rcx,8), %rax
	movl	-24(%rbp), %ecx
	movl	-28(%rbp), %edx
	shll	$1, %edx
	addl	%edx, %ecx
	movslq	%ecx, %rcx
	movq	(%rax,%rcx,8), %rax
	movq	(%rax), %rax
	movswq	-36(%rbp), %rcx
	movq	(%rax,%rcx,8), %rax
	movslq	-32(%rbp), %rcx
	movq	(%rax,%rcx,8), %rax
	movw	2(%rax), %ax
	movq	enc_picture, %rcx
	movq	6504(%rcx), %rcx
	movq	(%rcx), %rcx
	movq	img, %rdx
	movl	144(%rdx), %edx
	addl	-20(%rbp), %edx
	movslq	%edx, %rdx
	movq	(%rcx,%rdx,8), %rcx
	movl	-116(%rbp), %edx
	addl	-24(%rbp), %edx
	movslq	%edx, %rdx
	movq	(%rcx,%rdx,8), %rcx
	movw	%ax, 2(%rcx)
.LBB32_361:                             # %if.end1676
                                        #   in Loop: Header=BB32_357 Depth=5
	cmpl	$0, -108(%rbp)
	je	.LBB32_368
# %bb.362:                              # %if.then1678
                                        #   in Loop: Header=BB32_357 Depth=5
	movswl	-50(%rbp), %eax
	cmpl	$0, %eax
	jne	.LBB32_364
# %bb.363:                              # %if.then1682
                                        #   in Loop: Header=BB32_357 Depth=5
	movq	enc_picture, %rax
	movq	6480(%rax), %rax
	movq	8(%rax), %rax
	movq	img, %rcx
	movl	144(%rcx), %ecx
	addl	-20(%rbp), %ecx
	movslq	%ecx, %rcx
	movq	(%rax,%rcx,8), %rax
	movl	-116(%rbp), %ecx
	addl	-24(%rbp), %ecx
	movslq	%ecx, %rcx
	movw	$-1, (%rax,%rcx,2)
	movq	enc_picture, %rax
	movq	6488(%rax), %rax
	movq	8(%rax), %rax
	movq	img, %rcx
	movl	144(%rcx), %ecx
	addl	-20(%rbp), %ecx
	movslq	%ecx, %rcx
	movq	(%rax,%rcx,8), %rax
	movl	-116(%rbp), %ecx
	addl	-24(%rbp), %ecx
	movslq	%ecx, %rcx
	movq	$-1, (%rax,%rcx,8)
	movq	enc_picture, %rax
	movq	6504(%rax), %rax
	movq	8(%rax), %rax
	movq	img, %rcx
	movl	144(%rcx), %ecx
	addl	-20(%rbp), %ecx
	movslq	%ecx, %rcx
	movq	(%rax,%rcx,8), %rax
	movl	-116(%rbp), %ecx
	addl	-24(%rbp), %ecx
	movslq	%ecx, %rcx
	movq	(%rax,%rcx,8), %rax
	movw	$0, (%rax)
	movq	enc_picture, %rax
	movq	6504(%rax), %rax
	movq	8(%rax), %rax
	movq	img, %rcx
	movl	144(%rcx), %ecx
	addl	-20(%rbp), %ecx
	movslq	%ecx, %rcx
	movq	(%rax,%rcx,8), %rax
	movl	-116(%rbp), %ecx
	addl	-24(%rbp), %ecx
	movslq	%ecx, %rcx
	movq	(%rax,%rcx,8), %rax
	movw	$0, 2(%rax)
	jmp	.LBB32_367
.LBB32_364:                             # %if.else1721
                                        #   in Loop: Header=BB32_357 Depth=5
	movw	-38(%rbp), %ax
	movq	enc_picture, %rcx
	movq	6480(%rcx), %rcx
	movq	8(%rcx), %rcx
	movq	img, %rdx
	movl	144(%rdx), %edx
	addl	-20(%rbp), %edx
	movslq	%edx, %rdx
	movq	(%rcx,%rdx,8), %rcx
	movl	-116(%rbp), %edx
	addl	-24(%rbp), %edx
	movslq	%edx, %rdx
	movw	%ax, (%rcx,%rdx,2)
	movq	enc_picture, %rax
	addq	$24, %rax
	movl	-64(%rbp), %ecx
	addl	$1, %ecx
	movslq	%ecx, %rcx
	imulq	$264, %rcx, %rcx        # imm = 0x108
	addq	%rcx, %rax
	movq	enc_picture, %rcx
	movq	6480(%rcx), %rcx
	movq	8(%rcx), %rcx
	movq	img, %rdx
	movl	144(%rdx), %edx
	addl	-20(%rbp), %edx
	movslq	%edx, %rdx
	movq	(%rcx,%rdx,8), %rcx
	movl	-116(%rbp), %edx
	addl	-24(%rbp), %edx
	movslq	%edx, %rdx
	movswq	(%rcx,%rdx,2), %rcx
	movq	(%rax,%rcx,8), %rax
	movq	enc_picture, %rcx
	movq	6488(%rcx), %rcx
	movq	8(%rcx), %rcx
	movq	img, %rdx
	movl	144(%rdx), %edx
	addl	-20(%rbp), %edx
	movslq	%edx, %rdx
	movq	(%rcx,%rdx,8), %rcx
	movl	-116(%rbp), %edx
	addl	-24(%rbp), %edx
	movslq	%edx, %rdx
	movq	%rax, (%rcx,%rdx,8)
	movswl	-38(%rbp), %eax
	cmpl	$0, %eax
	jl	.LBB32_366
# %bb.365:                              # %if.then1758
                                        #   in Loop: Header=BB32_357 Depth=5
	movq	img, %rax
	movq	71928(%rax), %rax
	movslq	-20(%rbp), %rcx
	movq	(%rax,%rcx,8), %rax
	movl	-28(%rbp), %ecx
	shll	$1, %ecx
	addl	-24(%rbp), %ecx
	movslq	%ecx, %rcx
	movq	(%rax,%rcx,8), %rax
	movq	8(%rax), %rax
	movswq	-38(%rbp), %rcx
	movq	(%rax,%rcx,8), %rax
	movslq	-32(%rbp), %rcx
	movq	(%rax,%rcx,8), %rax
	movw	(%rax), %ax
	movq	enc_picture, %rcx
	movq	6504(%rcx), %rcx
	movq	8(%rcx), %rcx
	movq	img, %rdx
	movl	144(%rdx), %edx
	addl	-20(%rbp), %edx
	movslq	%edx, %rdx
	movq	(%rcx,%rdx,8), %rcx
	movl	-116(%rbp), %edx
	addl	-24(%rbp), %edx
	movslq	%edx, %rdx
	movq	(%rcx,%rdx,8), %rcx
	movw	%ax, (%rcx)
	movq	img, %rax
	movq	71928(%rax), %rax
	movslq	-20(%rbp), %rcx
	movq	(%rax,%rcx,8), %rax
	movl	-28(%rbp), %ecx
	shll	$1, %ecx
	addl	-24(%rbp), %ecx
	movslq	%ecx, %rcx
	movq	(%rax,%rcx,8), %rax
	movq	8(%rax), %rax
	movswq	-38(%rbp), %rcx
	movq	(%rax,%rcx,8), %rax
	movslq	-32(%rbp), %rcx
	movq	(%rax,%rcx,8), %rax
	movw	2(%rax), %ax
	movq	enc_picture, %rcx
	movq	6504(%rcx), %rcx
	movq	8(%rcx), %rcx
	movq	img, %rdx
	movl	144(%rdx), %edx
	addl	-20(%rbp), %edx
	movslq	%edx, %rdx
	movq	(%rcx,%rdx,8), %rcx
	movl	-116(%rbp), %edx
	addl	-24(%rbp), %edx
	movslq	%edx, %rdx
	movq	(%rcx,%rdx,8), %rcx
	movw	%ax, 2(%rcx)
.LBB32_366:                             # %if.end1805
                                        #   in Loop: Header=BB32_357 Depth=5
	jmp	.LBB32_367
.LBB32_367:                             # %if.end1806
                                        #   in Loop: Header=BB32_357 Depth=5
	jmp	.LBB32_368
.LBB32_368:                             # %if.end1807
                                        #   in Loop: Header=BB32_357 Depth=5
	jmp	.LBB32_369
.LBB32_369:                             # %for.inc1808
                                        #   in Loop: Header=BB32_357 Depth=5
	movl	-20(%rbp), %eax
	addl	$1, %eax
	movl	%eax, -20(%rbp)
	jmp	.LBB32_357
.LBB32_370:                             # %for.end1810
                                        #   in Loop: Header=BB32_355 Depth=4
	jmp	.LBB32_371
.LBB32_371:                             # %for.inc1811
                                        #   in Loop: Header=BB32_355 Depth=4
	movl	-24(%rbp), %eax
	addl	$1, %eax
	movl	%eax, -24(%rbp)
	jmp	.LBB32_355
.LBB32_372:                             # %for.end1813
                                        #   in Loop: Header=BB32_184 Depth=3
	jmp	.LBB32_392
.LBB32_373:                             # %if.else1814
                                        #   in Loop: Header=BB32_184 Depth=3
	movq	img, %rax
	movl	144(%rax), %eax
	movl	-28(%rbp), %ecx
	shll	$1, %ecx
	addl	%ecx, %eax
	movl	%eax, -120(%rbp)
	movl	$0, -24(%rbp)
.LBB32_374:                             # %for.cond1818
                                        #   Parent Loop BB32_171 Depth=1
                                        #     Parent Loop BB32_181 Depth=2
                                        #       Parent Loop BB32_184 Depth=3
                                        # =>      This Loop Header: Depth=4
                                        #           Child Loop BB32_376 Depth 5
	cmpl	$4, -24(%rbp)
	jge	.LBB32_391
# %bb.375:                              # %for.body1821
                                        #   in Loop: Header=BB32_374 Depth=4
	movl	$0, -20(%rbp)
.LBB32_376:                             # %for.cond1822
                                        #   Parent Loop BB32_171 Depth=1
                                        #     Parent Loop BB32_181 Depth=2
                                        #       Parent Loop BB32_184 Depth=3
                                        #         Parent Loop BB32_374 Depth=4
                                        # =>        This Inner Loop Header: Depth=5
	cmpl	$2, -20(%rbp)
	jge	.LBB32_389
# %bb.377:                              # %for.body1825
                                        #   in Loop: Header=BB32_376 Depth=5
	movswl	-50(%rbp), %eax
	cmpl	$1, %eax
	jne	.LBB32_379
# %bb.378:                              # %if.then1829
                                        #   in Loop: Header=BB32_376 Depth=5
	movq	enc_picture, %rax
	movq	6480(%rax), %rax
	movq	(%rax), %rax
	movl	-120(%rbp), %ecx
	addl	-20(%rbp), %ecx
	movslq	%ecx, %rcx
	movq	(%rax,%rcx,8), %rax
	movq	img, %rcx
	movl	148(%rcx), %ecx
	addl	-24(%rbp), %ecx
	movslq	%ecx, %rcx
	movw	$-1, (%rax,%rcx,2)
	movq	enc_picture, %rax
	movq	6488(%rax), %rax
	movq	(%rax), %rax
	movl	-120(%rbp), %ecx
	addl	-20(%rbp), %ecx
	movslq	%ecx, %rcx
	movq	(%rax,%rcx,8), %rax
	movq	img, %rcx
	movl	148(%rcx), %ecx
	addl	-24(%rbp), %ecx
	movslq	%ecx, %rcx
	movq	$-1, (%rax,%rcx,8)
	movq	enc_picture, %rax
	movq	6504(%rax), %rax
	movq	(%rax), %rax
	movl	-120(%rbp), %ecx
	addl	-20(%rbp), %ecx
	movslq	%ecx, %rcx
	movq	(%rax,%rcx,8), %rax
	movq	img, %rcx
	movl	148(%rcx), %ecx
	addl	-24(%rbp), %ecx
	movslq	%ecx, %rcx
	movq	(%rax,%rcx,8), %rax
	movw	$0, (%rax)
	movq	enc_picture, %rax
	movq	6504(%rax), %rax
	movq	(%rax), %rax
	movl	-120(%rbp), %ecx
	addl	-20(%rbp), %ecx
	movslq	%ecx, %rcx
	movq	(%rax,%rcx,8), %rax
	movq	img, %rcx
	movl	148(%rcx), %ecx
	addl	-24(%rbp), %ecx
	movslq	%ecx, %rcx
	movq	(%rax,%rcx,8), %rax
	movw	$0, 2(%rax)
	jmp	.LBB32_380
.LBB32_379:                             # %if.else1868
                                        #   in Loop: Header=BB32_376 Depth=5
	movw	-36(%rbp), %ax
	movq	enc_picture, %rcx
	movq	6480(%rcx), %rcx
	movq	(%rcx), %rcx
	movl	-120(%rbp), %edx
	addl	-20(%rbp), %edx
	movslq	%edx, %rdx
	movq	(%rcx,%rdx,8), %rcx
	movq	img, %rdx
	movl	148(%rdx), %edx
	addl	-24(%rbp), %edx
	movslq	%edx, %rdx
	movw	%ax, (%rcx,%rdx,2)
	movq	enc_picture, %rax
	addq	$24, %rax
	movl	-64(%rbp), %ecx
	addl	$0, %ecx
	movslq	%ecx, %rcx
	imulq	$264, %rcx, %rcx        # imm = 0x108
	addq	%rcx, %rax
	movq	enc_picture, %rcx
	movq	6480(%rcx), %rcx
	movq	(%rcx), %rcx
	movl	-120(%rbp), %edx
	addl	-20(%rbp), %edx
	movslq	%edx, %rdx
	movq	(%rcx,%rdx,8), %rcx
	movq	img, %rdx
	movl	148(%rdx), %edx
	addl	-24(%rbp), %edx
	movslq	%edx, %rdx
	movswq	(%rcx,%rdx,2), %rcx
	movq	(%rax,%rcx,8), %rax
	movq	enc_picture, %rcx
	movq	6488(%rcx), %rcx
	movq	(%rcx), %rcx
	movl	-120(%rbp), %edx
	addl	-20(%rbp), %edx
	movslq	%edx, %rdx
	movq	(%rcx,%rdx,8), %rcx
	movq	img, %rdx
	movl	148(%rdx), %edx
	addl	-24(%rbp), %edx
	movslq	%edx, %rdx
	movq	%rax, (%rcx,%rdx,8)
	movq	img, %rax
	movq	71928(%rax), %rax
	movl	-28(%rbp), %ecx
	shll	$1, %ecx
	addl	-20(%rbp), %ecx
	movslq	%ecx, %rcx
	movq	(%rax,%rcx,8), %rax
	movslq	-24(%rbp), %rcx
	movq	(%rax,%rcx,8), %rax
	movq	(%rax), %rax
	movswq	-36(%rbp), %rcx
	movq	(%rax,%rcx,8), %rax
	movslq	-32(%rbp), %rcx
	movq	(%rax,%rcx,8), %rax
	movw	(%rax), %ax
	movq	enc_picture, %rcx
	movq	6504(%rcx), %rcx
	movq	(%rcx), %rcx
	movl	-120(%rbp), %edx
	addl	-20(%rbp), %edx
	movslq	%edx, %rdx
	movq	(%rcx,%rdx,8), %rcx
	movq	img, %rdx
	movl	148(%rdx), %edx
	addl	-24(%rbp), %edx
	movslq	%edx, %rdx
	movq	(%rcx,%rdx,8), %rcx
	movw	%ax, (%rcx)
	movq	img, %rax
	movq	71928(%rax), %rax
	movl	-28(%rbp), %ecx
	shll	$1, %ecx
	addl	-20(%rbp), %ecx
	movslq	%ecx, %rcx
	movq	(%rax,%rcx,8), %rax
	movslq	-24(%rbp), %rcx
	movq	(%rax,%rcx,8), %rax
	movq	(%rax), %rax
	movswq	-36(%rbp), %rcx
	movq	(%rax,%rcx,8), %rax
	movslq	-32(%rbp), %rcx
	movq	(%rax,%rcx,8), %rax
	movw	2(%rax), %ax
	movq	enc_picture, %rcx
	movq	6504(%rcx), %rcx
	movq	(%rcx), %rcx
	movl	-120(%rbp), %edx
	addl	-20(%rbp), %edx
	movslq	%edx, %rdx
	movq	(%rcx,%rdx,8), %rcx
	movq	img, %rdx
	movl	148(%rdx), %edx
	addl	-24(%rbp), %edx
	movslq	%edx, %rdx
	movq	(%rcx,%rdx,8), %rcx
	movw	%ax, 2(%rcx)
.LBB32_380:                             # %if.end1948
                                        #   in Loop: Header=BB32_376 Depth=5
	cmpl	$0, -108(%rbp)
	je	.LBB32_387
# %bb.381:                              # %if.then1950
                                        #   in Loop: Header=BB32_376 Depth=5
	movswl	-50(%rbp), %eax
	cmpl	$0, %eax
	jne	.LBB32_383
# %bb.382:                              # %if.then1954
                                        #   in Loop: Header=BB32_376 Depth=5
	movq	enc_picture, %rax
	movq	6480(%rax), %rax
	movq	8(%rax), %rax
	movl	-120(%rbp), %ecx
	addl	-20(%rbp), %ecx
	movslq	%ecx, %rcx
	movq	(%rax,%rcx,8), %rax
	movq	img, %rcx
	movl	148(%rcx), %ecx
	addl	-24(%rbp), %ecx
	movslq	%ecx, %rcx
	movw	$-1, (%rax,%rcx,2)
	movq	enc_picture, %rax
	movq	6488(%rax), %rax
	movq	8(%rax), %rax
	movl	-120(%rbp), %ecx
	addl	-20(%rbp), %ecx
	movslq	%ecx, %rcx
	movq	(%rax,%rcx,8), %rax
	movq	img, %rcx
	movl	148(%rcx), %ecx
	addl	-24(%rbp), %ecx
	movslq	%ecx, %rcx
	movq	$-1, (%rax,%rcx,8)
	movq	enc_picture, %rax
	movq	6504(%rax), %rax
	movq	8(%rax), %rax
	movl	-120(%rbp), %ecx
	addl	-20(%rbp), %ecx
	movslq	%ecx, %rcx
	movq	(%rax,%rcx,8), %rax
	movq	img, %rcx
	movl	148(%rcx), %ecx
	addl	-24(%rbp), %ecx
	movslq	%ecx, %rcx
	movq	(%rax,%rcx,8), %rax
	movw	$0, (%rax)
	movq	enc_picture, %rax
	movq	6504(%rax), %rax
	movq	8(%rax), %rax
	movl	-120(%rbp), %ecx
	addl	-20(%rbp), %ecx
	movslq	%ecx, %rcx
	movq	(%rax,%rcx,8), %rax
	movq	img, %rcx
	movl	148(%rcx), %ecx
	addl	-24(%rbp), %ecx
	movslq	%ecx, %rcx
	movq	(%rax,%rcx,8), %rax
	movw	$0, 2(%rax)
	jmp	.LBB32_386
.LBB32_383:                             # %if.else1993
                                        #   in Loop: Header=BB32_376 Depth=5
	movw	-38(%rbp), %ax
	movq	enc_picture, %rcx
	movq	6480(%rcx), %rcx
	movq	8(%rcx), %rcx
	movl	-120(%rbp), %edx
	addl	-20(%rbp), %edx
	movslq	%edx, %rdx
	movq	(%rcx,%rdx,8), %rcx
	movq	img, %rdx
	movl	148(%rdx), %edx
	addl	-24(%rbp), %edx
	movslq	%edx, %rdx
	movw	%ax, (%rcx,%rdx,2)
	movq	enc_picture, %rax
	addq	$24, %rax
	movl	-64(%rbp), %ecx
	addl	$1, %ecx
	movslq	%ecx, %rcx
	imulq	$264, %rcx, %rcx        # imm = 0x108
	addq	%rcx, %rax
	movq	enc_picture, %rcx
	movq	6480(%rcx), %rcx
	movq	8(%rcx), %rcx
	movl	-120(%rbp), %edx
	addl	-20(%rbp), %edx
	movslq	%edx, %rdx
	movq	(%rcx,%rdx,8), %rcx
	movq	img, %rdx
	movl	148(%rdx), %edx
	addl	-24(%rbp), %edx
	movslq	%edx, %rdx
	movswq	(%rcx,%rdx,2), %rcx
	movq	(%rax,%rcx,8), %rax
	movq	enc_picture, %rcx
	movq	6488(%rcx), %rcx
	movq	8(%rcx), %rcx
	movl	-120(%rbp), %edx
	addl	-20(%rbp), %edx
	movslq	%edx, %rdx
	movq	(%rcx,%rdx,8), %rcx
	movq	img, %rdx
	movl	148(%rdx), %edx
	addl	-24(%rbp), %edx
	movslq	%edx, %rdx
	movq	%rax, (%rcx,%rdx,8)
	movswl	-38(%rbp), %eax
	cmpl	$0, %eax
	jl	.LBB32_385
# %bb.384:                              # %if.then2030
                                        #   in Loop: Header=BB32_376 Depth=5
	movq	img, %rax
	movq	71928(%rax), %rax
	movl	-28(%rbp), %ecx
	shll	$1, %ecx
	addl	-20(%rbp), %ecx
	movslq	%ecx, %rcx
	movq	(%rax,%rcx,8), %rax
	movslq	-24(%rbp), %rcx
	movq	(%rax,%rcx,8), %rax
	movq	8(%rax), %rax
	movswq	-38(%rbp), %rcx
	movq	(%rax,%rcx,8), %rax
	movslq	-32(%rbp), %rcx
	movq	(%rax,%rcx,8), %rax
	movw	(%rax), %ax
	movq	enc_picture, %rcx
	movq	6504(%rcx), %rcx
	movq	8(%rcx), %rcx
	movl	-120(%rbp), %edx
	addl	-20(%rbp), %edx
	movslq	%edx, %rdx
	movq	(%rcx,%rdx,8), %rcx
	movq	img, %rdx
	movl	148(%rdx), %edx
	addl	-24(%rbp), %edx
	movslq	%edx, %rdx
	movq	(%rcx,%rdx,8), %rcx
	movw	%ax, (%rcx)
	movq	img, %rax
	movq	71928(%rax), %rax
	movl	-28(%rbp), %ecx
	shll	$1, %ecx
	addl	-20(%rbp), %ecx
	movslq	%ecx, %rcx
	movq	(%rax,%rcx,8), %rax
	movslq	-24(%rbp), %rcx
	movq	(%rax,%rcx,8), %rax
	movq	8(%rax), %rax
	movswq	-38(%rbp), %rcx
	movq	(%rax,%rcx,8), %rax
	movslq	-32(%rbp), %rcx
	movq	(%rax,%rcx,8), %rax
	movw	2(%rax), %ax
	movq	enc_picture, %rcx
	movq	6504(%rcx), %rcx
	movq	8(%rcx), %rcx
	movl	-120(%rbp), %edx
	addl	-20(%rbp), %edx
	movslq	%edx, %rdx
	movq	(%rcx,%rdx,8), %rcx
	movq	img, %rdx
	movl	148(%rdx), %edx
	addl	-24(%rbp), %edx
	movslq	%edx, %rdx
	movq	(%rcx,%rdx,8), %rcx
	movw	%ax, 2(%rcx)
.LBB32_385:                             # %if.end2077
                                        #   in Loop: Header=BB32_376 Depth=5
	jmp	.LBB32_386
.LBB32_386:                             # %if.end2078
                                        #   in Loop: Header=BB32_376 Depth=5
	jmp	.LBB32_387
.LBB32_387:                             # %if.end2079
                                        #   in Loop: Header=BB32_376 Depth=5
	jmp	.LBB32_388
.LBB32_388:                             # %for.inc2080
                                        #   in Loop: Header=BB32_376 Depth=5
	movl	-20(%rbp), %eax
	addl	$1, %eax
	movl	%eax, -20(%rbp)
	jmp	.LBB32_376
.LBB32_389:                             # %for.end2082
                                        #   in Loop: Header=BB32_374 Depth=4
	jmp	.LBB32_390
.LBB32_390:                             # %for.inc2083
                                        #   in Loop: Header=BB32_374 Depth=4
	movl	-24(%rbp), %eax
	addl	$1, %eax
	movl	%eax, -24(%rbp)
	jmp	.LBB32_374
.LBB32_391:                             # %for.end2085
                                        #   in Loop: Header=BB32_184 Depth=3
	jmp	.LBB32_392
.LBB32_392:                             # %if.end2086
                                        #   in Loop: Header=BB32_184 Depth=3
	jmp	.LBB32_393
.LBB32_393:                             # %if.end2087
                                        #   in Loop: Header=BB32_184 Depth=3
	cmpl	$3, -32(%rbp)
	jne	.LBB32_395
# %bb.394:                              # %if.then2090
                                        #   in Loop: Header=BB32_184 Depth=3
	movw	-36(%rbp), %ax
	movl	-28(%rbp), %ecx
	addl	$2, %ecx
	movslq	%ecx, %rcx
	movw	%ax, best8x8fwref+24(,%rcx,2)
	movslq	-28(%rbp), %rcx
	movw	%ax, best8x8fwref+24(,%rcx,2)
	movw	-50(%rbp), %ax
	movl	-28(%rbp), %ecx
	addl	$2, %ecx
	movslq	%ecx, %rcx
	movw	%ax, best8x8pdir+24(,%rcx,2)
	movslq	-28(%rbp), %rcx
	movw	%ax, best8x8pdir+24(,%rcx,2)
	movw	-38(%rbp), %ax
	movl	-28(%rbp), %ecx
	addl	$2, %ecx
	movslq	%ecx, %rcx
	movw	%ax, best8x8bwref+24(,%rcx,2)
	movslq	-28(%rbp), %rcx
	movw	%ax, best8x8bwref+24(,%rcx,2)
	jmp	.LBB32_399
.LBB32_395:                             # %if.else2106
                                        #   in Loop: Header=BB32_184 Depth=3
	cmpl	$2, -32(%rbp)
	jne	.LBB32_397
# %bb.396:                              # %if.then2109
                                        #   in Loop: Header=BB32_184 Depth=3
	movw	-36(%rbp), %ax
	movl	-28(%rbp), %ecx
	shll	$1, %ecx
	addl	$1, %ecx
	movslq	%ecx, %rcx
	movw	%ax, best8x8fwref+16(,%rcx,2)
	movl	-28(%rbp), %ecx
	shll	$1, %ecx
	movslq	%ecx, %rcx
	movw	%ax, best8x8fwref+16(,%rcx,2)
	movw	-50(%rbp), %ax
	movl	-28(%rbp), %ecx
	shll	$1, %ecx
	addl	$1, %ecx
	movslq	%ecx, %rcx
	movw	%ax, best8x8pdir+16(,%rcx,2)
	movl	-28(%rbp), %ecx
	shll	$1, %ecx
	movslq	%ecx, %rcx
	movw	%ax, best8x8pdir+16(,%rcx,2)
	movw	-38(%rbp), %ax
	movl	-28(%rbp), %ecx
	shll	$1, %ecx
	addl	$1, %ecx
	movslq	%ecx, %rcx
	movw	%ax, best8x8bwref+16(,%rcx,2)
	movl	-28(%rbp), %ecx
	shll	$1, %ecx
	movslq	%ecx, %rcx
	movw	%ax, best8x8bwref+16(,%rcx,2)
	jmp	.LBB32_398
.LBB32_397:                             # %if.else2131
                                        #   in Loop: Header=BB32_184 Depth=3
	movw	-36(%rbp), %ax
	movw	%ax, best8x8fwref+14
	movw	%ax, best8x8fwref+12
	movw	%ax, best8x8fwref+10
	movw	%ax, best8x8fwref+8
	movw	-50(%rbp), %ax
	movw	%ax, best8x8pdir+14
	movw	%ax, best8x8pdir+12
	movw	%ax, best8x8pdir+10
	movw	%ax, best8x8pdir+8
	movw	-38(%rbp), %ax
	movw	%ax, best8x8bwref+14
	movw	%ax, best8x8bwref+12
	movw	%ax, best8x8bwref+10
	movw	%ax, best8x8bwref+8
.LBB32_398:                             # %if.end2132
                                        #   in Loop: Header=BB32_184 Depth=3
	jmp	.LBB32_399
.LBB32_399:                             # %if.end2133
                                        #   in Loop: Header=BB32_184 Depth=3
	cmpl	$1, -32(%rbp)
	jle	.LBB32_402
# %bb.400:                              # %land.lhs.true2136
                                        #   in Loop: Header=BB32_184 Depth=3
	cmpl	$0, -28(%rbp)
	jne	.LBB32_402
# %bb.401:                              # %if.then2139
                                        #   in Loop: Header=BB32_184 Depth=3
	movl	-28(%rbp), %edi
	movl	-32(%rbp), %esi
	movswl	-50(%rbp), %edx
	movswl	-36(%rbp), %ecx
	movswl	-38(%rbp), %r8d
	callq	SetRefAndMotionVectors
.LBB32_402:                             # %if.end2143
                                        #   in Loop: Header=BB32_184 Depth=3
	jmp	.LBB32_403
.LBB32_403:                             # %for.inc2144
                                        #   in Loop: Header=BB32_184 Depth=3
	movl	-28(%rbp), %eax
	addl	$1, %eax
	movl	%eax, -28(%rbp)
	jmp	.LBB32_184
.LBB32_404:                             # %for.end2146
                                        #   in Loop: Header=BB32_181 Depth=2
	movq	input, %rax
	cmpl	$0, 2464(%rax)
	jne	.LBB32_408
# %bb.405:                              # %if.then2149
                                        #   in Loop: Header=BB32_181 Depth=2
	movq	-48(%rbp), %rax
	movl	$0, 572(%rax)
	movq	input, %rax
	cmpl	$0, 3220(%rax)
	je	.LBB32_407
# %bb.406:                              # %if.then2152
                                        #   in Loop: Header=BB32_181 Depth=2
	movl	-32(%rbp), %edi
	callq	SetModesAndRefframeForBlocks
	movl	$4294967295, %edi       # imm = 0xFFFFFFFF
	leaq	-60(%rbp), %rsi
	callq	TransformDecision
	movq	-48(%rbp), %rcx
	movl	%eax, 572(%rcx)
.LBB32_407:                             # %if.end2155
                                        #   in Loop: Header=BB32_181 Depth=2
	jmp	.LBB32_408
.LBB32_408:                             # %if.end2156
                                        #   in Loop: Header=BB32_181 Depth=2
	movl	-60(%rbp), %eax
	cmpl	-112(%rbp), %eax
	jge	.LBB32_410
# %bb.409:                              # %if.then2159
                                        #   in Loop: Header=BB32_181 Depth=2
	movl	-32(%rbp), %eax
	movl	%eax, best_mode
	movl	-60(%rbp), %eax
	movl	%eax, -112(%rbp)
	movq	-48(%rbp), %rax
	movl	572(%rax), %eax
	movl	%eax, -320(%rbp)
.LBB32_410:                             # %if.end2161
                                        #   in Loop: Header=BB32_181 Depth=2
	jmp	.LBB32_411
.LBB32_411:                             # %if.end2162
                                        #   in Loop: Header=BB32_181 Depth=2
	jmp	.LBB32_412
.LBB32_412:                             # %for.inc2163
                                        #   in Loop: Header=BB32_181 Depth=2
	movl	-32(%rbp), %eax
	addl	$1, %eax
	movl	%eax, -32(%rbp)
	jmp	.LBB32_181
.LBB32_413:                             # %for.end2165
                                        #   in Loop: Header=BB32_171 Depth=1
	cmpl	$0, -352(%rbp)
	je	.LBB32_826
# %bb.414:                              # %if.then2168
                                        #   in Loop: Header=BB32_171 Depth=1
	movl	$0, -144(%rbp)
	movl	$2147483647, cost8_8x8ts # imm = 0x7FFFFFFF
	movq	cs_mb, %rdi
	callq	store_coding_state
	movq	-48(%rbp), %rax
	movl	$-1, 568(%rax)
	movq	input, %rax
	cmpl	$0, 3220(%rax)
	je	.LBB32_599
# %bb.415:                              # %if.then2171
                                        #   in Loop: Header=BB32_171 Depth=1
	movl	$0, cnt_nonz_8x8
	movl	$0, cbp_blk8x8
	movl	$0, cbp8x8
	movl	$0, -140(%rbp)
	movl	$0, -28(%rbp)
.LBB32_416:                             # %for.cond2172
                                        #   Parent Loop BB32_171 Depth=1
                                        # =>  This Loop Header: Depth=2
                                        #       Child Loop BB32_418 Depth 3
                                        #         Child Loop BB32_445 Depth 4
                                        #         Child Loop BB32_464 Depth 4
                                        #           Child Loop BB32_466 Depth 5
                                        #         Child Loop BB32_473 Depth 4
                                        #         Child Loop BB32_508 Depth 4
                                        #           Child Loop BB32_510 Depth 5
                                        #         Child Loop BB32_532 Depth 4
                                        #           Child Loop BB32_534 Depth 5
                                        #             Child Loop BB32_536 Depth 6
                                        #         Child Loop BB32_544 Depth 4
                                        #           Child Loop BB32_546 Depth 5
                                        #       Child Loop BB32_569 Depth 3
                                        #         Child Loop BB32_571 Depth 4
                                        #           Child Loop BB32_573 Depth 5
                                        #       Child Loop BB32_581 Depth 3
                                        #         Child Loop BB32_583 Depth 4
	cmpl	$4, -28(%rbp)
	jge	.LBB32_598
# %bb.417:                              # %for.body2175
                                        #   in Loop: Header=BB32_416 Depth=2
	xorl	%ecx, %ecx
	vmovsd	.LCPI32_0(%rip), %xmm0  # xmm0 = mem[0],zero
	movl	-28(%rbp), %eax
	cltd
	movl	$2, %esi
	idivl	%esi
	shll	$3, %eax
	movl	%eax, -104(%rbp)
	movl	-104(%rbp), %eax
	sarl	$2, %eax
	movl	%eax, -404(%rbp)
	movl	-28(%rbp), %eax
	cltd
	idivl	%esi
	shll	$3, %edx
	movl	%edx, -92(%rbp)
	movl	-92(%rbp), %eax
	sarl	$2, %eax
	movl	%eax, -408(%rbp)
	movq	-48(%rbp), %rax
	movl	$1, 572(%rax)
	movl	$2147483647, -172(%rbp) # imm = 0x7FFFFFFF
	vmovsd	%xmm0, -240(%rbp)
	movl	-108(%rbp), %eax
	cmpl	$0, %eax
	movl	$1, %eax
	cmovnel	%ecx, %eax
	movl	%eax, -80(%rbp)
.LBB32_418:                             # %for.cond2184
                                        #   Parent Loop BB32_171 Depth=1
                                        #     Parent Loop BB32_416 Depth=2
                                        # =>    This Loop Header: Depth=3
                                        #         Child Loop BB32_445 Depth 4
                                        #         Child Loop BB32_464 Depth 4
                                        #           Child Loop BB32_466 Depth 5
                                        #         Child Loop BB32_473 Depth 4
                                        #         Child Loop BB32_508 Depth 4
                                        #           Child Loop BB32_510 Depth 5
                                        #         Child Loop BB32_532 Depth 4
                                        #           Child Loop BB32_534 Depth 5
                                        #             Child Loop BB32_536 Depth 6
                                        #         Child Loop BB32_544 Depth 4
                                        #           Child Loop BB32_546 Depth 5
	cmpl	$2, -80(%rbp)
	jge	.LBB32_559
# %bb.419:                              # %for.body2187
                                        #   in Loop: Header=BB32_418 Depth=3
	movslq	-80(%rbp), %rax
	movl	encode_one_macroblock.b8_mode_table(,%rax,4), %eax
	movl	%eax, -32(%rbp)
	movslq	-32(%rbp), %rax
	cmpl	$0, -384(%rbp,%rax,4)
	je	.LBB32_421
# %bb.420:                              # %land.lhs.true2193
                                        #   in Loop: Header=BB32_418 Depth=3
	cmpl	$0, -32(%rbp)
	jne	.LBB32_423
.LBB32_421:                             # %lor.lhs.false2196
                                        #   in Loop: Header=BB32_418 Depth=3
	cmpl	$0, -32(%rbp)
	jne	.LBB32_557
# %bb.422:                              # %land.lhs.true2199
                                        #   in Loop: Header=BB32_418 Depth=3
	movq	active_sps, %rax
	cmpl	$0, 1156(%rax)
	je	.LBB32_557
.LBB32_423:                             # %if.then2201
                                        #   in Loop: Header=BB32_418 Depth=3
	movq	$0, -248(%rbp)
	cmpl	$0, -32(%rbp)
	jne	.LBB32_444
# %bb.424:                              # %if.then2204
                                        #   in Loop: Header=BB32_418 Depth=3
	movq	input, %rax
	cmpl	$0, 2464(%rax)
	jne	.LBB32_443
# %bb.425:                              # %if.then2207
                                        #   in Loop: Header=BB32_418 Depth=3
	movl	$0, -212(%rbp)
	movl	$0, -224(%rbp)
	movl	-28(%rbp), %edi
	leaq	-224(%rbp), %rsi
	callq	Get_Direct_Cost8x8
	movl	%eax, -212(%rbp)
	cmpl	$2147483647, -212(%rbp) # imm = 0x7FFFFFFF
	je	.LBB32_427
# %bb.426:                              # %lor.lhs.false2211
                                        #   in Loop: Header=BB32_418 Depth=3
	cmpl	$2147483647, -140(%rbp) # imm = 0x7FFFFFFF
	jne	.LBB32_428
.LBB32_427:                             # %if.then2214
                                        #   in Loop: Header=BB32_418 Depth=3
	movl	$2147483647, -140(%rbp) # imm = 0x7FFFFFFF
	movl	$2147483647, -204(%rbp) # imm = 0x7FFFFFFF
	jmp	.LBB32_429
.LBB32_428:                             # %if.else2215
                                        #   in Loop: Header=BB32_418 Depth=3
	movl	-212(%rbp), %eax
	addl	-140(%rbp), %eax
	movl	%eax, -140(%rbp)
	movl	-224(%rbp), %eax
	addl	-204(%rbp), %eax
	movl	%eax, -204(%rbp)
.LBB32_429:                             # %if.end2218
                                        #   in Loop: Header=BB32_418 Depth=3
	movq	input(%rip), %rax
	movl	3220(%rax), %eax
	movl	%eax, %ecx
	subl	$1, %ecx
	je	.LBB32_431
	jmp	.LBB32_430
.LBB32_430:                             # %if.end2218
                                        #   in Loop: Header=BB32_418 Depth=3
	subl	$2, %eax
	je	.LBB32_438
	jmp	.LBB32_439
.LBB32_431:                             # %sw.bb
                                        #   in Loop: Header=BB32_418 Depth=3
	movl	-224(%rbp), %eax
	cmpl	-212(%rbp), %eax
	jl	.LBB32_435
# %bb.432:                              # %lor.lhs.false2222
                                        #   in Loop: Header=BB32_418 Depth=3
	cmpl	$0, -364(%rbp)
	je	.LBB32_435
# %bb.433:                              # %land.lhs.true2225
                                        #   in Loop: Header=BB32_418 Depth=3
	cmpl	$0, -360(%rbp)
	je	.LBB32_435
# %bb.434:                              # %land.lhs.true2228
                                        #   in Loop: Header=BB32_418 Depth=3
	cmpl	$0, -356(%rbp)
	jne	.LBB32_436
.LBB32_435:                             # %if.then2231
                                        #   in Loop: Header=BB32_418 Depth=3
	movl	-224(%rbp), %eax
	movl	%eax, -60(%rbp)
	jmp	.LBB32_437
.LBB32_436:                             # %if.else2232
                                        #   in Loop: Header=BB32_418 Depth=3
	movl	-212(%rbp), %eax
	movl	%eax, -60(%rbp)
.LBB32_437:                             # %if.end2233
                                        #   in Loop: Header=BB32_418 Depth=3
	jmp	.LBB32_440
.LBB32_438:                             # %sw.bb2234
                                        #   in Loop: Header=BB32_418 Depth=3
	movl	-224(%rbp), %eax
	movl	%eax, -60(%rbp)
	jmp	.LBB32_440
.LBB32_439:                             # %sw.default
                                        #   in Loop: Header=BB32_418 Depth=3
	movl	-212(%rbp), %eax
	movl	%eax, -60(%rbp)
.LBB32_440:                             # %sw.epilog
                                        #   in Loop: Header=BB32_418 Depth=3
	movq	input, %rax
	cmpl	$2, 3220(%rax)
	jne	.LBB32_442
# %bb.441:                              # %if.then2238
                                        #   in Loop: Header=BB32_418 Depth=3
	movl	-172(%rbp), %eax
	addl	$1, %eax
	movl	%eax, -60(%rbp)
.LBB32_442:                             # %if.end2240
                                        #   in Loop: Header=BB32_418 Depth=3
	movl	-264(%rbp), %eax
	addl	$1, %eax
	movl	%eax, -264(%rbp)
.LBB32_443:                             # %if.end2242
                                        #   in Loop: Header=BB32_418 Depth=3
	movq	direct_ref_idx, %rax
	movq	(%rax), %rax
	movq	img, %rcx
	movl	144(%rcx), %ecx
	movl	-28(%rbp), %edx
	andl	$1, %edx
	shll	$1, %edx
	addl	%edx, %ecx
	movslq	%ecx, %rcx
	movq	(%rax,%rcx,8), %rax
	movq	img, %rcx
	movl	148(%rcx), %ecx
	movl	-28(%rbp), %edx
	andl	$2, %edx
	addl	%edx, %ecx
	movslq	%ecx, %rcx
	movw	(%rax,%rcx,2), %ax
	movw	%ax, -36(%rbp)
	movq	direct_ref_idx, %rax
	movq	8(%rax), %rax
	movq	img, %rcx
	movl	144(%rcx), %ecx
	movl	-28(%rbp), %edx
	andl	$1, %edx
	shll	$1, %edx
	addl	%edx, %ecx
	movslq	%ecx, %rcx
	movq	(%rax,%rcx,8), %rax
	movq	img, %rcx
	movl	148(%rcx), %ecx
	movl	-28(%rbp), %edx
	andl	$2, %edx
	addl	%edx, %ecx
	movslq	%ecx, %rcx
	movw	(%rax,%rcx,2), %ax
	movw	%ax, -38(%rbp)
	movq	direct_pdir, %rax
	movq	img, %rcx
	movl	144(%rcx), %ecx
	movl	-28(%rbp), %edx
	andl	$1, %edx
	shll	$1, %edx
	addl	%edx, %ecx
	movslq	%ecx, %rcx
	movq	(%rax,%rcx,8), %rax
	movq	img, %rcx
	movl	148(%rcx), %ecx
	movl	-28(%rbp), %edx
	andl	$2, %edx
	addl	%edx, %ecx
	movslq	%ecx, %rcx
	movw	(%rax,%rcx,2), %ax
	movw	%ax, -50(%rbp)
	jmp	.LBB32_518
.LBB32_444:                             # %if.else2278
                                        #   in Loop: Header=BB32_418 Depth=3
	movl	-32(%rbp), %edi
	movl	-28(%rbp), %esi
	vmovsd	-168(%rbp), %xmm0       # xmm0 = mem[0],zero
	callq	PartitionMotionSearch
	movl	-208(%rbp), %eax
	movl	%eax, -68(%rbp)
	movw	$0, -34(%rbp)
.LBB32_445:                             # %for.cond2279
                                        #   Parent Loop BB32_171 Depth=1
                                        #     Parent Loop BB32_416 Depth=2
                                        #       Parent Loop BB32_418 Depth=3
                                        # =>      This Inner Loop Header: Depth=4
	movswl	-34(%rbp), %eax
	movl	-64(%rbp), %ecx
	addl	$0, %ecx
	movslq	%ecx, %rcx
	cmpl	listXsize(,%rcx,4), %eax
	jge	.LBB32_463
# %bb.446:                              # %for.body2286
                                        #   in Loop: Header=BB32_445 Depth=4
	cmpl	$0, -280(%rbp)
	je	.LBB32_449
# %bb.447:                              # %lor.lhs.false2288
                                        #   in Loop: Header=BB32_445 Depth=4
	movswl	-34(%rbp), %eax
	cmpl	$0, %eax
	je	.LBB32_449
# %bb.448:                              # %lor.lhs.false2292
                                        #   in Loop: Header=BB32_445 Depth=4
	movl	-28(%rbp), %edi
	movswl	-34(%rbp), %edx
	movl	-32(%rbp), %ecx
	xorl	%esi, %esi
	callq	CheckReliabilityOfRef
	cmpl	$0, %eax
	je	.LBB32_461
.LBB32_449:                             # %if.then2296
                                        #   in Loop: Header=BB32_445 Depth=4
	movq	input, %rax
	cmpl	$0, 2464(%rax)
	je	.LBB32_454
# %bb.450:                              # %cond.true2299
                                        #   in Loop: Header=BB32_445 Depth=4
	movl	-96(%rbp), %eax
	movl	-64(%rbp), %ecx
	addl	$0, %ecx
	movslq	%ecx, %rcx
	cmpl	$1, listXsize(,%rcx,4)
	jg	.LBB32_452
# %bb.451:                              # %cond.true2305
                                        #   in Loop: Header=BB32_445 Depth=4
	xorl	%ecx, %ecx
	jmp	.LBB32_453
.LBB32_452:                             # %cond.false2306
                                        #   in Loop: Header=BB32_445 Depth=4
	movq	refbits, %rcx
	movswq	-34(%rbp), %rdx
	movl	(%rcx,%rdx,4), %ecx
.LBB32_453:                             # %cond.end2309
                                        #   in Loop: Header=BB32_445 Depth=4
	imull	%ecx, %eax
	sarl	$16, %eax
	jmp	.LBB32_458
.LBB32_454:                             # %cond.false2313
                                        #   in Loop: Header=BB32_445 Depth=4
	vmovsd	.LCPI32_5(%rip), %xmm0  # xmm0 = mem[0],zero
	vmulsd	-168(%rbp), %xmm0, %xmm0
	movswl	-34(%rbp), %eax
	cmpl	$1, %eax
	jge	.LBB32_456
# %bb.455:                              # %cond.true2318
                                        #   in Loop: Header=BB32_445 Depth=4
	movswl	-34(%rbp), %eax
	jmp	.LBB32_457
.LBB32_456:                             # %cond.false2320
                                        #   in Loop: Header=BB32_445 Depth=4
	movl	$1, %eax
	jmp	.LBB32_457
.LBB32_457:                             # %cond.end2321
                                        #   in Loop: Header=BB32_445 Depth=4
	vcvtsi2sd	%eax, %xmm0, %xmm1
	vmulsd	%xmm1, %xmm0, %xmm0
	vcvttsd2si	%xmm0, %eax
.LBB32_458:                             # %cond.end2326
                                        #   in Loop: Header=BB32_445 Depth=4
	movl	%eax, -72(%rbp)
	movq	motion_cost, %rax
	movslq	-32(%rbp), %rcx
	movq	(%rax,%rcx,8), %rax
	movq	(%rax), %rax
	movswq	-34(%rbp), %rcx
	movq	(%rax,%rcx,8), %rax
	movslq	-28(%rbp), %rcx
	movl	(%rax,%rcx,4), %eax
	addl	-72(%rbp), %eax
	movl	%eax, -72(%rbp)
	movl	-72(%rbp), %eax
	cmpl	-68(%rbp), %eax
	jge	.LBB32_460
# %bb.459:                              # %if.then2338
                                        #   in Loop: Header=BB32_445 Depth=4
	movl	-72(%rbp), %eax
	movl	%eax, -68(%rbp)
	movw	-34(%rbp), %ax
	movw	%ax, -36(%rbp)
.LBB32_460:                             # %if.end2339
                                        #   in Loop: Header=BB32_445 Depth=4
	jmp	.LBB32_461
.LBB32_461:                             # %if.end2340
                                        #   in Loop: Header=BB32_445 Depth=4
	jmp	.LBB32_462
.LBB32_462:                             # %for.inc2341
                                        #   in Loop: Header=BB32_445 Depth=4
	movw	-34(%rbp), %ax
	addw	$1, %ax
	movw	%ax, -34(%rbp)
	jmp	.LBB32_445
.LBB32_463:                             # %for.end2343
                                        #   in Loop: Header=BB32_418 Depth=3
	movl	$0, -24(%rbp)
.LBB32_464:                             # %for.cond2344
                                        #   Parent Loop BB32_171 Depth=1
                                        #     Parent Loop BB32_416 Depth=2
                                        #       Parent Loop BB32_418 Depth=3
                                        # =>      This Loop Header: Depth=4
                                        #           Child Loop BB32_466 Depth 5
	cmpl	$2, -24(%rbp)
	jge	.LBB32_471
# %bb.465:                              # %for.body2347
                                        #   in Loop: Header=BB32_464 Depth=4
	movl	$0, -20(%rbp)
.LBB32_466:                             # %for.cond2348
                                        #   Parent Loop BB32_171 Depth=1
                                        #     Parent Loop BB32_416 Depth=2
                                        #       Parent Loop BB32_418 Depth=3
                                        #         Parent Loop BB32_464 Depth=4
                                        # =>        This Inner Loop Header: Depth=5
	cmpl	$2, -20(%rbp)
	jge	.LBB32_469
# %bb.467:                              # %for.body2351
                                        #   in Loop: Header=BB32_466 Depth=5
	movw	-36(%rbp), %ax
	movq	enc_picture, %rcx
	movq	6480(%rcx), %rcx
	movq	(%rcx), %rcx
	movq	img, %rdx
	movl	144(%rdx), %edx
	movl	-28(%rbp), %esi
	andl	$1, %esi
	shll	$1, %esi
	addl	%esi, %edx
	addl	-20(%rbp), %edx
	movslq	%edx, %rdx
	movq	(%rcx,%rdx,8), %rcx
	movq	img, %rdx
	movl	148(%rdx), %edx
	movl	-28(%rbp), %esi
	andl	$2, %esi
	addl	%esi, %edx
	addl	-24(%rbp), %edx
	movslq	%edx, %rdx
	movw	%ax, (%rcx,%rdx,2)
	movq	enc_picture, %rax
	addq	$24, %rax
	movl	-64(%rbp), %ecx
	addl	$0, %ecx
	movslq	%ecx, %rcx
	imulq	$264, %rcx, %rcx        # imm = 0x108
	addq	%rcx, %rax
	movq	enc_picture, %rcx
	movq	6480(%rcx), %rcx
	movq	(%rcx), %rcx
	movq	img, %rdx
	movl	144(%rdx), %edx
	movl	-28(%rbp), %esi
	andl	$1, %esi
	shll	$1, %esi
	addl	%esi, %edx
	addl	-20(%rbp), %edx
	movslq	%edx, %rdx
	movq	(%rcx,%rdx,8), %rcx
	movq	img, %rdx
	movl	148(%rdx), %edx
	movl	-28(%rbp), %esi
	andl	$2, %esi
	addl	%esi, %edx
	addl	-24(%rbp), %edx
	movslq	%edx, %rdx
	movswq	(%rcx,%rdx,2), %rcx
	movq	(%rax,%rcx,8), %rax
	movq	enc_picture, %rcx
	movq	6488(%rcx), %rcx
	movq	(%rcx), %rcx
	movq	img, %rdx
	movl	144(%rdx), %edx
	movl	-28(%rbp), %esi
	andl	$1, %esi
	shll	$1, %esi
	addl	%esi, %edx
	addl	-20(%rbp), %edx
	movslq	%edx, %rdx
	movq	(%rcx,%rdx,8), %rcx
	movq	img, %rdx
	movl	148(%rdx), %edx
	movl	-28(%rbp), %esi
	andl	$2, %esi
	addl	%esi, %edx
	addl	-24(%rbp), %edx
	movslq	%edx, %rdx
	movq	%rax, (%rcx,%rdx,8)
# %bb.468:                              # %for.inc2403
                                        #   in Loop: Header=BB32_466 Depth=5
	movl	-20(%rbp), %eax
	addl	$1, %eax
	movl	%eax, -20(%rbp)
	jmp	.LBB32_466
.LBB32_469:                             # %for.end2405
                                        #   in Loop: Header=BB32_464 Depth=4
	jmp	.LBB32_470
.LBB32_470:                             # %for.inc2406
                                        #   in Loop: Header=BB32_464 Depth=4
	movl	-24(%rbp), %eax
	addl	$1, %eax
	movl	%eax, -24(%rbp)
	jmp	.LBB32_464
.LBB32_471:                             # %for.end2408
                                        #   in Loop: Header=BB32_418 Depth=3
	cmpl	$0, -108(%rbp)
	je	.LBB32_516
# %bb.472:                              # %if.then2410
                                        #   in Loop: Header=BB32_418 Depth=3
	movl	-208(%rbp), %eax
	movl	%eax, -76(%rbp)
	movw	$0, -34(%rbp)
.LBB32_473:                             # %for.cond2411
                                        #   Parent Loop BB32_171 Depth=1
                                        #     Parent Loop BB32_416 Depth=2
                                        #       Parent Loop BB32_418 Depth=3
                                        # =>      This Inner Loop Header: Depth=4
	movswl	-34(%rbp), %eax
	movl	-64(%rbp), %ecx
	addl	$1, %ecx
	movslq	%ecx, %rcx
	cmpl	listXsize(,%rcx,4), %eax
	jge	.LBB32_487
# %bb.474:                              # %for.body2418
                                        #   in Loop: Header=BB32_473 Depth=4
	movq	input, %rax
	cmpl	$0, 2464(%rax)
	je	.LBB32_479
# %bb.475:                              # %cond.true2421
                                        #   in Loop: Header=BB32_473 Depth=4
	movl	-96(%rbp), %eax
	movl	-64(%rbp), %ecx
	addl	$1, %ecx
	movslq	%ecx, %rcx
	cmpl	$1, listXsize(,%rcx,4)
	jg	.LBB32_477
# %bb.476:                              # %cond.true2427
                                        #   in Loop: Header=BB32_473 Depth=4
	xorl	%ecx, %ecx
	jmp	.LBB32_478
.LBB32_477:                             # %cond.false2428
                                        #   in Loop: Header=BB32_473 Depth=4
	movq	refbits, %rcx
	movswq	-34(%rbp), %rdx
	movl	(%rcx,%rdx,4), %ecx
.LBB32_478:                             # %cond.end2431
                                        #   in Loop: Header=BB32_473 Depth=4
	imull	%ecx, %eax
	sarl	$16, %eax
	jmp	.LBB32_483
.LBB32_479:                             # %cond.false2435
                                        #   in Loop: Header=BB32_473 Depth=4
	vmovsd	.LCPI32_5(%rip), %xmm0  # xmm0 = mem[0],zero
	vmulsd	-168(%rbp), %xmm0, %xmm0
	movswl	-34(%rbp), %eax
	cmpl	$1, %eax
	jge	.LBB32_481
# %bb.480:                              # %cond.true2440
                                        #   in Loop: Header=BB32_473 Depth=4
	movswl	-34(%rbp), %eax
	jmp	.LBB32_482
.LBB32_481:                             # %cond.false2442
                                        #   in Loop: Header=BB32_473 Depth=4
	movl	$1, %eax
	jmp	.LBB32_482
.LBB32_482:                             # %cond.end2443
                                        #   in Loop: Header=BB32_473 Depth=4
	vcvtsi2sd	%eax, %xmm0, %xmm1
	vmulsd	%xmm1, %xmm0, %xmm0
	vcvttsd2si	%xmm0, %eax
.LBB32_483:                             # %cond.end2448
                                        #   in Loop: Header=BB32_473 Depth=4
	movl	%eax, -72(%rbp)
	movq	motion_cost, %rax
	movslq	-32(%rbp), %rcx
	movq	(%rax,%rcx,8), %rax
	movq	8(%rax), %rax
	movswq	-34(%rbp), %rcx
	movq	(%rax,%rcx,8), %rax
	movslq	-28(%rbp), %rcx
	movl	(%rax,%rcx,4), %eax
	addl	-72(%rbp), %eax
	movl	%eax, -72(%rbp)
	movl	-72(%rbp), %eax
	cmpl	-76(%rbp), %eax
	jge	.LBB32_485
# %bb.484:                              # %if.then2460
                                        #   in Loop: Header=BB32_473 Depth=4
	movl	-72(%rbp), %eax
	movl	%eax, -76(%rbp)
	movw	-34(%rbp), %ax
	movw	%ax, -38(%rbp)
.LBB32_485:                             # %if.end2461
                                        #   in Loop: Header=BB32_473 Depth=4
	jmp	.LBB32_486
.LBB32_486:                             # %for.inc2462
                                        #   in Loop: Header=BB32_473 Depth=4
	movw	-34(%rbp), %ax
	addw	$1, %ax
	movw	%ax, -34(%rbp)
	jmp	.LBB32_473
.LBB32_487:                             # %for.end2464
                                        #   in Loop: Header=BB32_418 Depth=3
	movq	input, %rax
	cmpl	$0, 2464(%rax)
	je	.LBB32_495
# %bb.488:                              # %cond.true2467
                                        #   in Loop: Header=BB32_418 Depth=3
	movl	-96(%rbp), %eax
	movl	-64(%rbp), %ecx
	addl	$0, %ecx
	movslq	%ecx, %rcx
	cmpl	$1, listXsize(,%rcx,4)
	jg	.LBB32_490
# %bb.489:                              # %cond.true2473
                                        #   in Loop: Header=BB32_418 Depth=3
	xorl	%ecx, %ecx
	jmp	.LBB32_491
.LBB32_490:                             # %cond.false2474
                                        #   in Loop: Header=BB32_418 Depth=3
	movq	refbits, %rcx
	movswq	-36(%rbp), %rdx
	movl	(%rcx,%rdx,4), %ecx
.LBB32_491:                             # %cond.end2477
                                        #   in Loop: Header=BB32_418 Depth=3
	imull	%ecx, %eax
	sarl	$16, %eax
	movl	-96(%rbp), %ecx
	movl	-64(%rbp), %edx
	addl	$1, %edx
	movslq	%edx, %rdx
	cmpl	$1, listXsize(,%rdx,4)
	jg	.LBB32_493
# %bb.492:                              # %cond.true2486
                                        #   in Loop: Header=BB32_418 Depth=3
	xorl	%edx, %edx
	jmp	.LBB32_494
.LBB32_493:                             # %cond.false2487
                                        #   in Loop: Header=BB32_418 Depth=3
	movq	refbits, %rdx
	movl	(%rdx), %edx
.LBB32_494:                             # %cond.end2489
                                        #   in Loop: Header=BB32_418 Depth=3
	imull	%edx, %ecx
	sarl	$16, %ecx
	addl	%ecx, %eax
	jmp	.LBB32_499
.LBB32_495:                             # %cond.false2494
                                        #   in Loop: Header=BB32_418 Depth=3
	vmovsd	.LCPI32_5(%rip), %xmm0  # xmm0 = mem[0],zero
	vmulsd	-168(%rbp), %xmm0, %xmm0
	movswl	-36(%rbp), %eax
	cmpl	$1, %eax
	jge	.LBB32_497
# %bb.496:                              # %cond.true2499
                                        #   in Loop: Header=BB32_418 Depth=3
	movswl	-36(%rbp), %eax
	jmp	.LBB32_498
.LBB32_497:                             # %cond.false2501
                                        #   in Loop: Header=BB32_418 Depth=3
	movl	$1, %eax
	jmp	.LBB32_498
.LBB32_498:                             # %cond.end2502
                                        #   in Loop: Header=BB32_418 Depth=3
	vcvtsi2sd	%eax, %xmm0, %xmm1
	vmulsd	%xmm1, %xmm0, %xmm0
	vcvttsd2si	%xmm0, %eax
.LBB32_499:                             # %cond.end2507
                                        #   in Loop: Header=BB32_418 Depth=3
	movl	%eax, -88(%rbp)
	movl	-32(%rbp), %edi
	movl	-28(%rbp), %esi
	movw	-36(%rbp), %ax
	movl	-96(%rbp), %r8d
	movswl	%ax, %edx
	xorl	%ecx, %ecx
	callq	BIDPartitionCost
	addl	-88(%rbp), %eax
	movl	%eax, -88(%rbp)
	movl	-68(%rbp), %eax
	cmpl	-76(%rbp), %eax
	jg	.LBB32_502
# %bb.500:                              # %land.lhs.true2513
                                        #   in Loop: Header=BB32_418 Depth=3
	movl	-68(%rbp), %eax
	cmpl	-88(%rbp), %eax
	jg	.LBB32_502
# %bb.501:                              # %if.then2516
                                        #   in Loop: Header=BB32_418 Depth=3
	movw	$0, -50(%rbp)
	movl	-68(%rbp), %eax
	movl	%eax, -60(%rbp)
	movw	$-1, -38(%rbp)
	jmp	.LBB32_507
.LBB32_502:                             # %if.else2517
                                        #   in Loop: Header=BB32_418 Depth=3
	movl	-76(%rbp), %eax
	cmpl	-68(%rbp), %eax
	jg	.LBB32_505
# %bb.503:                              # %land.lhs.true2520
                                        #   in Loop: Header=BB32_418 Depth=3
	movl	-76(%rbp), %eax
	cmpl	-88(%rbp), %eax
	jg	.LBB32_505
# %bb.504:                              # %if.then2523
                                        #   in Loop: Header=BB32_418 Depth=3
	movw	$1, -50(%rbp)
	movl	-76(%rbp), %eax
	movl	%eax, -60(%rbp)
	movw	$-1, -36(%rbp)
	jmp	.LBB32_506
.LBB32_505:                             # %if.else2524
                                        #   in Loop: Header=BB32_418 Depth=3
	movw	$2, -50(%rbp)
	movl	-88(%rbp), %eax
	movl	%eax, -60(%rbp)
	movw	$0, -38(%rbp)
.LBB32_506:                             # %if.end2525
                                        #   in Loop: Header=BB32_418 Depth=3
	jmp	.LBB32_507
.LBB32_507:                             # %if.end2526
                                        #   in Loop: Header=BB32_418 Depth=3
	movl	$0, -24(%rbp)
.LBB32_508:                             # %for.cond2527
                                        #   Parent Loop BB32_171 Depth=1
                                        #     Parent Loop BB32_416 Depth=2
                                        #       Parent Loop BB32_418 Depth=3
                                        # =>      This Loop Header: Depth=4
                                        #           Child Loop BB32_510 Depth 5
	cmpl	$2, -24(%rbp)
	jge	.LBB32_515
# %bb.509:                              # %for.body2530
                                        #   in Loop: Header=BB32_508 Depth=4
	movl	$0, -20(%rbp)
.LBB32_510:                             # %for.cond2531
                                        #   Parent Loop BB32_171 Depth=1
                                        #     Parent Loop BB32_416 Depth=2
                                        #       Parent Loop BB32_418 Depth=3
                                        #         Parent Loop BB32_508 Depth=4
                                        # =>        This Inner Loop Header: Depth=5
	cmpl	$2, -20(%rbp)
	jge	.LBB32_513
# %bb.511:                              # %for.body2534
                                        #   in Loop: Header=BB32_510 Depth=5
	movw	-36(%rbp), %ax
	movq	enc_picture, %rcx
	movq	6480(%rcx), %rcx
	movq	(%rcx), %rcx
	movq	img, %rdx
	movl	144(%rdx), %edx
	movl	-28(%rbp), %esi
	andl	$1, %esi
	shll	$1, %esi
	addl	%esi, %edx
	addl	-20(%rbp), %edx
	movslq	%edx, %rdx
	movq	(%rcx,%rdx,8), %rcx
	movq	img, %rdx
	movl	148(%rdx), %edx
	movl	-28(%rbp), %esi
	andl	$2, %esi
	addl	%esi, %edx
	addl	-24(%rbp), %edx
	movslq	%edx, %rdx
	movw	%ax, (%rcx,%rdx,2)
	movw	-38(%rbp), %ax
	movq	enc_picture, %rcx
	movq	6480(%rcx), %rcx
	movq	8(%rcx), %rcx
	movq	img, %rdx
	movl	144(%rdx), %edx
	movl	-28(%rbp), %esi
	andl	$1, %esi
	shll	$1, %esi
	addl	%esi, %edx
	addl	-20(%rbp), %edx
	movslq	%edx, %rdx
	movq	(%rcx,%rdx,8), %rcx
	movq	img, %rdx
	movl	148(%rdx), %edx
	movl	-28(%rbp), %esi
	andl	$2, %esi
	addl	%esi, %edx
	addl	-24(%rbp), %edx
	movslq	%edx, %rdx
	movw	%ax, (%rcx,%rdx,2)
# %bb.512:                              # %for.inc2565
                                        #   in Loop: Header=BB32_510 Depth=5
	movl	-20(%rbp), %eax
	addl	$1, %eax
	movl	%eax, -20(%rbp)
	jmp	.LBB32_510
.LBB32_513:                             # %for.end2567
                                        #   in Loop: Header=BB32_508 Depth=4
	jmp	.LBB32_514
.LBB32_514:                             # %for.inc2568
                                        #   in Loop: Header=BB32_508 Depth=4
	movl	-24(%rbp), %eax
	addl	$1, %eax
	movl	%eax, -24(%rbp)
	jmp	.LBB32_508
.LBB32_515:                             # %for.end2570
                                        #   in Loop: Header=BB32_418 Depth=3
	jmp	.LBB32_517
.LBB32_516:                             # %if.else2571
                                        #   in Loop: Header=BB32_418 Depth=3
	movw	$0, -50(%rbp)
	movl	-68(%rbp), %eax
	movl	%eax, -60(%rbp)
.LBB32_517:                             # %if.end2572
                                        #   in Loop: Header=BB32_418 Depth=3
	jmp	.LBB32_518
.LBB32_518:                             # %if.end2573
                                        #   in Loop: Header=BB32_418 Depth=3
	movq	cs_cm, %rdi
	callq	store_coding_state
	movq	input, %rax
	cmpl	$0, 2464(%rax)
	je	.LBB32_520
# %bb.519:                              # %if.then2576
                                        #   in Loop: Header=BB32_418 Depth=3
	vmovsd	-160(%rbp), %xmm0       # xmm0 = mem[0],zero
	movl	-28(%rbp), %edx
	movl	-32(%rbp), %ecx
	movw	-50(%rbp), %ax
	movw	-36(%rbp), %bx
	leaq	-272(%rbp), %rdi
	leaq	-248(%rbp), %rsi
	movswl	%ax, %r8d
	movswl	%bx, %r9d
	movswl	-38(%rbp), %eax
	movl	%eax, (%rsp)
	callq	RDCost_for_8x8blocks
	vmovsd	%xmm0, -296(%rbp)
	jmp	.LBB32_526
.LBB32_520:                             # %if.else2578
                                        #   in Loop: Header=BB32_418 Depth=3
	cmpl	$2147483647, -60(%rbp)  # imm = 0x7FFFFFFF
	je	.LBB32_525
# %bb.521:                              # %if.then2581
                                        #   in Loop: Header=BB32_418 Depth=3
	xorl	%eax, %eax
	movl	-96(%rbp), %ebx
	movl	-64(%rbp), %ecx
	movswl	-50(%rbp), %edx
	cmpl	$1, %edx
	movl	$1, %edx
	cmovll	%eax, %edx
	addl	%edx, %ecx
	movslq	%ecx, %rax
	cmpl	$1, listXsize(,%rax,4)
	jg	.LBB32_523
# %bb.522:                              # %cond.true2591
                                        #   in Loop: Header=BB32_418 Depth=3
	xorl	%eax, %eax
	jmp	.LBB32_524
.LBB32_523:                             # %cond.false2592
