	.text
	.file	"refbuf.c"
	.globl	PutPel_14               # -- Begin function PutPel_14
	.p2align	4, 0x90
	.type	PutPel_14,@function
PutPel_14:                              # @PutPel_14
	.cfi_startproc
# %bb.0:                                # %rand_bb
	pushq	%rbp
	.cfi_def_cfa_offset 16
	.cfi_offset %rbp, -16
	movq	%rsp, %rbp
	.cfi_def_cfa_register %rbp
	pushq	%r15
	pushq	%r14
	pushq	%r12
	pushq	%rbx
	.cfi_offset %rbx, -48
	.cfi_offset %r12, -40
	.cfi_offset %r14, -32
	.cfi_offset %r15, -24
	movl	%ecx, %r14d
	movl	%edx, %r15d
	movl	%esi, %r12d
	movq	%rdi, %rbx
	callq	get_rand
	cmpl	$0, %eax
	jne	.LBB0_17
# %bb.1:                                # %func_PutPel_14.14
	movq	%rbx, %rdi
	movl	%r12d, %esi
	movl	%r15d, %edx
	movzwl	%r14w, %ecx
	callq	PutPel_14.14
	popq	%rbx
	popq	%r12
	popq	%r14
	popq	%r15
	popq	%rbp
	.cfi_def_cfa %rsp, 8
	retq
.LBB0_2:                                # %func_PutPel_14.16
	.cfi_def_cfa %rbp, 16
	movq	%rbx, %rdi
	movl	%r12d, %esi
	movl	%r15d, %edx
	movzwl	%r14w, %ecx
	callq	PutPel_14.16
	popq	%rbx
	popq	%r12
	popq	%r14
	popq	%r15
	popq	%rbp
	.cfi_def_cfa %rsp, 8
	retq
.LBB0_3:                                # %func_PutPel_14.33
	.cfi_def_cfa %rbp, 16
	movq	%rbx, %rdi
	movl	%r12d, %esi
	movl	%r15d, %edx
	movzwl	%r14w, %ecx
	callq	PutPel_14.33
	popq	%rbx
	popq	%r12
	popq	%r14
	popq	%r15
	popq	%rbp
	.cfi_def_cfa %rsp, 8
	retq
.LBB0_4:                                # %func_PutPel_14.38
	.cfi_def_cfa %rbp, 16
	movq	%rbx, %rdi
	movl	%r12d, %esi
	movl	%r15d, %edx
	movzwl	%r14w, %ecx
	callq	PutPel_14.38
	popq	%rbx
	popq	%r12
	popq	%r14
	popq	%r15
	popq	%rbp
	.cfi_def_cfa %rsp, 8
	retq
.LBB0_5:                                # %func_PutPel_14.51
	.cfi_def_cfa %rbp, 16
	movq	%rbx, %rdi
	movl	%r12d, %esi
	movl	%r15d, %edx
	movzwl	%r14w, %ecx
	callq	PutPel_14.51
	popq	%rbx
	popq	%r12
	popq	%r14
	popq	%r15
	popq	%rbp
	.cfi_def_cfa %rsp, 8
	retq
.LBB0_6:                                # %func_PutPel_14.53
	.cfi_def_cfa %rbp, 16
	movq	%rbx, %rdi
	movl	%r12d, %esi
	movl	%r15d, %edx
	movzwl	%r14w, %ecx
	callq	PutPel_14.53
	popq	%rbx
	popq	%r12
	popq	%r14
	popq	%r15
	popq	%rbp
	.cfi_def_cfa %rsp, 8
	retq
.LBB0_7:                                # %func_PutPel_14.67
	.cfi_def_cfa %rbp, 16
	movq	%rbx, %rdi
	movl	%r12d, %esi
	movl	%r15d, %edx
	movzwl	%r14w, %ecx
	callq	PutPel_14.67
	popq	%rbx
	popq	%r12
	popq	%r14
	popq	%r15
	popq	%rbp
	.cfi_def_cfa %rsp, 8
	retq
.LBB0_8:                                # %func_PutPel_14.78
	.cfi_def_cfa %rbp, 16
	movq	%rbx, %rdi
	movl	%r12d, %esi
	movl	%r15d, %edx
	movzwl	%r14w, %ecx
	callq	PutPel_14.78
	popq	%rbx
	popq	%r12
	popq	%r14
	popq	%r15
	popq	%rbp
	.cfi_def_cfa %rsp, 8
	retq
.LBB0_9:                                # %func_PutPel_14.80
	.cfi_def_cfa %rbp, 16
	movq	%rbx, %rdi
	movl	%r12d, %esi
	movl	%r15d, %edx
	movzwl	%r14w, %ecx
	callq	PutPel_14.80
	popq	%rbx
	popq	%r12
	popq	%r14
	popq	%r15
	popq	%rbp
	.cfi_def_cfa %rsp, 8
	retq
.LBB0_10:                               # %func_PutPel_14.100
	.cfi_def_cfa %rbp, 16
	movq	%rbx, %rdi
	movl	%r12d, %esi
	movl	%r15d, %edx
	movzwl	%r14w, %ecx
	callq	PutPel_14.100
	popq	%rbx
	popq	%r12
	popq	%r14
	popq	%r15
	popq	%rbp
	.cfi_def_cfa %rsp, 8
	retq
.LBB0_11:                               # %func_PutPel_14.105
	.cfi_def_cfa %rbp, 16
	movq	%rbx, %rdi
	movl	%r12d, %esi
	movl	%r15d, %edx
	movzwl	%r14w, %ecx
	callq	PutPel_14.105
	popq	%rbx
	popq	%r12
	popq	%r14
	popq	%r15
	popq	%rbp
	.cfi_def_cfa %rsp, 8
	retq
.LBB0_12:                               # %func_PutPel_14.106
	.cfi_def_cfa %rbp, 16
	movq	%rbx, %rdi
	movl	%r12d, %esi
	movl	%r15d, %edx
	movzwl	%r14w, %ecx
	callq	PutPel_14.106
	popq	%rbx
	popq	%r12
	popq	%r14
	popq	%r15
	popq	%rbp
	.cfi_def_cfa %rsp, 8
	retq
.LBB0_13:                               # %func_PutPel_14.107
	.cfi_def_cfa %rbp, 16
	movq	%rbx, %rdi
	movl	%r12d, %esi
	movl	%r15d, %edx
	movzwl	%r14w, %ecx
	callq	PutPel_14.107
	popq	%rbx
	popq	%r12
	popq	%r14
	popq	%r15
	popq	%rbp
	.cfi_def_cfa %rsp, 8
	retq
.LBB0_14:                               # %func_PutPel_14.113
	.cfi_def_cfa %rbp, 16
	movq	%rbx, %rdi
	movl	%r12d, %esi
	movl	%r15d, %edx
	movzwl	%r14w, %ecx
	callq	PutPel_14.113
	popq	%rbx
	popq	%r12
	popq	%r14
	popq	%r15
	popq	%rbp
	.cfi_def_cfa %rsp, 8
	retq
.LBB0_15:                               # %func_PutPel_14.117
	.cfi_def_cfa %rbp, 16
	movq	%rbx, %rdi
	movl	%r12d, %esi
	movl	%r15d, %edx
	movzwl	%r14w, %ecx
	callq	PutPel_14.117
	popq	%rbx
	popq	%r12
	popq	%r14
	popq	%r15
	popq	%rbp
	.cfi_def_cfa %rsp, 8
	retq
.LBB0_16:                               # %func_PutPel_14.127
	.cfi_def_cfa %rbp, 16
	movq	%rbx, %rdi
	movl	%r12d, %esi
	movl	%r15d, %edx
	movzwl	%r14w, %ecx
	callq	PutPel_14.127
	popq	%rbx
	popq	%r12
	popq	%r14
	popq	%r15
	popq	%rbp
	.cfi_def_cfa %rsp, 8
	retq
.LBB0_17:                               # %ctrl0
	.cfi_def_cfa %rbp, 16
	cmpl	$1, %eax
	je	.LBB0_2
# %bb.18:                               # %ctrl1
	cmpl	$2, %eax
	je	.LBB0_3
# %bb.19:                               # %ctrl2
	cmpl	$3, %eax
	je	.LBB0_4
# %bb.20:                               # %ctrl3
	cmpl	$4, %eax
	je	.LBB0_5
# %bb.21:                               # %ctrl4
	cmpl	$5, %eax
	je	.LBB0_6
# %bb.22:                               # %ctrl5
	cmpl	$6, %eax
	je	.LBB0_7
# %bb.23:                               # %ctrl6
	cmpl	$7, %eax
	je	.LBB0_8
# %bb.24:                               # %ctrl7
	cmpl	$8, %eax
	je	.LBB0_9
# %bb.25:                               # %ctrl8
	cmpl	$9, %eax
	je	.LBB0_10
# %bb.26:                               # %ctrl9
	cmpl	$10, %eax
	je	.LBB0_11
# %bb.27:                               # %ctrl10
	cmpl	$11, %eax
	je	.LBB0_12
# %bb.28:                               # %ctrl11
	cmpl	$12, %eax
	je	.LBB0_13
# %bb.29:                               # %ctrl12
	cmpl	$13, %eax
	je	.LBB0_14
# %bb.30:                               # %ctrl13
	cmpl	$14, %eax
	je	.LBB0_15
	jmp	.LBB0_16
.Lfunc_end0:
	.size	PutPel_14, .Lfunc_end0-PutPel_14
	.cfi_endproc
                                        # -- End function
	.globl	PutPel_11               # -- Begin function PutPel_11
	.p2align	4, 0x90
	.type	PutPel_11,@function
PutPel_11:                              # @PutPel_11
	.cfi_startproc
# %bb.0:                                # %rand_bb
	pushq	%rbp
	.cfi_def_cfa_offset 16
	.cfi_offset %rbp, -16
	movq	%rsp, %rbp
	.cfi_def_cfa_register %rbp
	pushq	%r15
	pushq	%r14
	pushq	%r13
	pushq	%r12
	pushq	%rbx
	pushq	%rax
	.cfi_offset %rbx, -56
	.cfi_offset %r12, -48
	.cfi_offset %r13, -40
	.cfi_offset %r14, -32
	.cfi_offset %r15, -24
	movl	%r8d, %r14d
	movl	%ecx, %r15d
	movl	%edx, %r12d
	movl	%esi, %r13d
	movq	%rdi, %rbx
	callq	get_rand
	cmpl	$0, %eax
	jne	.LBB1_17
# %bb.1:                                # %func_PutPel_11.2
	movq	%rbx, %rdi
	movl	%r13d, %esi
	movl	%r12d, %edx
	movzwl	%r15w, %ecx
	movl	%r14d, %r8d
	callq	PutPel_11.2
	addq	$8, %rsp
	popq	%rbx
	popq	%r12
	popq	%r13
	popq	%r14
	popq	%r15
	popq	%rbp
	.cfi_def_cfa %rsp, 8
	retq
.LBB1_2:                                # %func_PutPel_11.22
	.cfi_def_cfa %rbp, 16
	movq	%rbx, %rdi
	movl	%r13d, %esi
	movl	%r12d, %edx
	movzwl	%r15w, %ecx
	movl	%r14d, %r8d
	callq	PutPel_11.22
	addq	$8, %rsp
	popq	%rbx
	popq	%r12
	popq	%r13
	popq	%r14
	popq	%r15
	popq	%rbp
	.cfi_def_cfa %rsp, 8
	retq
.LBB1_3:                                # %func_PutPel_11.27
	.cfi_def_cfa %rbp, 16
	movq	%rbx, %rdi
	movl	%r13d, %esi
	movl	%r12d, %edx
	movzwl	%r15w, %ecx
	movl	%r14d, %r8d
	callq	PutPel_11.27
	addq	$8, %rsp
	popq	%rbx
	popq	%r12
	popq	%r13
	popq	%r14
	popq	%r15
	popq	%rbp
	.cfi_def_cfa %rsp, 8
	retq
.LBB1_4:                                # %func_PutPel_11.44
	.cfi_def_cfa %rbp, 16
	movq	%rbx, %rdi
	movl	%r13d, %esi
	movl	%r12d, %edx
	movzwl	%r15w, %ecx
	movl	%r14d, %r8d
	callq	PutPel_11.44
	addq	$8, %rsp
	popq	%rbx
	popq	%r12
	popq	%r13
	popq	%r14
	popq	%r15
	popq	%rbp
	.cfi_def_cfa %rsp, 8
	retq
.LBB1_5:                                # %func_PutPel_11.47
	.cfi_def_cfa %rbp, 16
	movq	%rbx, %rdi
	movl	%r13d, %esi
	movl	%r12d, %edx
	movzwl	%r15w, %ecx
	movl	%r14d, %r8d
	callq	PutPel_11.47
	addq	$8, %rsp
	popq	%rbx
	popq	%r12
	popq	%r13
	popq	%r14
	popq	%r15
	popq	%rbp
	.cfi_def_cfa %rsp, 8
	retq
.LBB1_6:                                # %func_PutPel_11.65
	.cfi_def_cfa %rbp, 16
	movq	%rbx, %rdi
	movl	%r13d, %esi
	movl	%r12d, %edx
	movzwl	%r15w, %ecx
	movl	%r14d, %r8d
	callq	PutPel_11.65
	addq	$8, %rsp
	popq	%rbx
	popq	%r12
	popq	%r13
	popq	%r14
	popq	%r15
	popq	%rbp
	.cfi_def_cfa %rsp, 8
	retq
.LBB1_7:                                # %func_PutPel_11.71
	.cfi_def_cfa %rbp, 16
	movq	%rbx, %rdi
	movl	%r13d, %esi
	movl	%r12d, %edx
	movzwl	%r15w, %ecx
	movl	%r14d, %r8d
	callq	PutPel_11.71
	addq	$8, %rsp
	popq	%rbx
	popq	%r12
	popq	%r13
	popq	%r14
	popq	%r15
	popq	%rbp
	.cfi_def_cfa %rsp, 8
	retq
.LBB1_8:                                # %func_PutPel_11.77
	.cfi_def_cfa %rbp, 16
	movq	%rbx, %rdi
	movl	%r13d, %esi
	movl	%r12d, %edx
	movzwl	%r15w, %ecx
	movl	%r14d, %r8d
	callq	PutPel_11.77
	addq	$8, %rsp
	popq	%rbx
	popq	%r12
	popq	%r13
	popq	%r14
	popq	%r15
	popq	%rbp
	.cfi_def_cfa %rsp, 8
	retq
.LBB1_9:                                # %func_PutPel_11.81
	.cfi_def_cfa %rbp, 16
	movq	%rbx, %rdi
	movl	%r13d, %esi
	movl	%r12d, %edx
	movzwl	%r15w, %ecx
	movl	%r14d, %r8d
	callq	PutPel_11.81
	addq	$8, %rsp
	popq	%rbx
	popq	%r12
	popq	%r13
	popq	%r14
	popq	%r15
	popq	%rbp
	.cfi_def_cfa %rsp, 8
	retq
.LBB1_10:                               # %func_PutPel_11.86
	.cfi_def_cfa %rbp, 16
	movq	%rbx, %rdi
	movl	%r13d, %esi
	movl	%r12d, %edx
	movzwl	%r15w, %ecx
	movl	%r14d, %r8d
	callq	PutPel_11.86
	addq	$8, %rsp
	popq	%rbx
	popq	%r12
	popq	%r13
	popq	%r14
	popq	%r15
	popq	%rbp
	.cfi_def_cfa %rsp, 8
	retq
.LBB1_11:                               # %func_PutPel_11.101
	.cfi_def_cfa %rbp, 16
	movq	%rbx, %rdi
	movl	%r13d, %esi
	movl	%r12d, %edx
	movzwl	%r15w, %ecx
	movl	%r14d, %r8d
	callq	PutPel_11.101
	addq	$8, %rsp
	popq	%rbx
	popq	%r12
	popq	%r13
	popq	%r14
	popq	%r15
	popq	%rbp
	.cfi_def_cfa %rsp, 8
	retq
.LBB1_12:                               # %func_PutPel_11.102
	.cfi_def_cfa %rbp, 16
	movq	%rbx, %rdi
	movl	%r13d, %esi
	movl	%r12d, %edx
	movzwl	%r15w, %ecx
	movl	%r14d, %r8d
	callq	PutPel_11.102
	addq	$8, %rsp
	popq	%rbx
	popq	%r12
	popq	%r13
	popq	%r14
	popq	%r15
	popq	%rbp
	.cfi_def_cfa %rsp, 8
	retq
.LBB1_13:                               # %func_PutPel_11.103
	.cfi_def_cfa %rbp, 16
	movq	%rbx, %rdi
	movl	%r13d, %esi
	movl	%r12d, %edx
	movzwl	%r15w, %ecx
	movl	%r14d, %r8d
	callq	PutPel_11.103
	addq	$8, %rsp
	popq	%rbx
	popq	%r12
	popq	%r13
	popq	%r14
	popq	%r15
	popq	%rbp
	.cfi_def_cfa %rsp, 8
	retq
.LBB1_14:                               # %func_PutPel_11.118
	.cfi_def_cfa %rbp, 16
	movq	%rbx, %rdi
	movl	%r13d, %esi
	movl	%r12d, %edx
	movzwl	%r15w, %ecx
	movl	%r14d, %r8d
	callq	PutPel_11.118
	addq	$8, %rsp
	popq	%rbx
	popq	%r12
	popq	%r13
	popq	%r14
	popq	%r15
	popq	%rbp
	.cfi_def_cfa %rsp, 8
	retq
.LBB1_15:                               # %func_PutPel_11.119
	.cfi_def_cfa %rbp, 16
	movq	%rbx, %rdi
	movl	%r13d, %esi
	movl	%r12d, %edx
	movzwl	%r15w, %ecx
	movl	%r14d, %r8d
	callq	PutPel_11.119
	addq	$8, %rsp
	popq	%rbx
	popq	%r12
	popq	%r13
	popq	%r14
	popq	%r15
	popq	%rbp
	.cfi_def_cfa %rsp, 8
	retq
.LBB1_16:                               # %func_PutPel_11.120
	.cfi_def_cfa %rbp, 16
	movq	%rbx, %rdi
	movl	%r13d, %esi
	movl	%r12d, %edx
	movzwl	%r15w, %ecx
	movl	%r14d, %r8d
	callq	PutPel_11.120
	addq	$8, %rsp
	popq	%rbx
	popq	%r12
	popq	%r13
	popq	%r14
	popq	%r15
	popq	%rbp
	.cfi_def_cfa %rsp, 8
	retq
.LBB1_17:                               # %ctrl0
	.cfi_def_cfa %rbp, 16
	cmpl	$1, %eax
	je	.LBB1_2
# %bb.18:                               # %ctrl1
	cmpl	$2, %eax
	je	.LBB1_3
# %bb.19:                               # %ctrl2
	cmpl	$3, %eax
	je	.LBB1_4
# %bb.20:                               # %ctrl3
	cmpl	$4, %eax
	je	.LBB1_5
# %bb.21:                               # %ctrl4
	cmpl	$5, %eax
	je	.LBB1_6
# %bb.22:                               # %ctrl5
	cmpl	$6, %eax
	je	.LBB1_7
# %bb.23:                               # %ctrl6
	cmpl	$7, %eax
	je	.LBB1_8
# %bb.24:                               # %ctrl7
	cmpl	$8, %eax
	je	.LBB1_9
# %bb.25:                               # %ctrl8
	cmpl	$9, %eax
	je	.LBB1_10
# %bb.26:                               # %ctrl9
	cmpl	$10, %eax
	je	.LBB1_11
# %bb.27:                               # %ctrl10
	cmpl	$11, %eax
	je	.LBB1_12
# %bb.28:                               # %ctrl11
	cmpl	$12, %eax
	je	.LBB1_13
# %bb.29:                               # %ctrl12
	cmpl	$13, %eax
	je	.LBB1_14
# %bb.30:                               # %ctrl13
	cmpl	$14, %eax
	je	.LBB1_15
	jmp	.LBB1_16
.Lfunc_end1:
	.size	PutPel_11, .Lfunc_end1-PutPel_11
	.cfi_endproc
                                        # -- End function
	.globl	FastLine16Y_11          # -- Begin function FastLine16Y_11
	.p2align	4, 0x90
	.type	FastLine16Y_11,@function
FastLine16Y_11:                         # @FastLine16Y_11
	.cfi_startproc
# %bb.0:                                # %rand_bb
	pushq	%rbp
	.cfi_def_cfa_offset 16
	.cfi_offset %rbp, -16
	movq	%rsp, %rbp
	.cfi_def_cfa_register %rbp
	pushq	%r15
	pushq	%r14
	pushq	%r13
	pushq	%r12
	pushq	%rbx
	pushq	%rax
	.cfi_offset %rbx, -56
	.cfi_offset %r12, -48
	.cfi_offset %r13, -40
	.cfi_offset %r14, -32
	.cfi_offset %r15, -24
	movl	%r8d, %r14d
	movl	%ecx, %r15d
	movl	%edx, %r12d
	movl	%esi, %r13d
	movq	%rdi, %rbx
	callq	get_rand
	cmpl	$0, %eax
	jne	.LBB2_17
# %bb.1:                                # %func_FastLine16Y_11.8
	movq	%rbx, %rdi
	movl	%r13d, %esi
	movl	%r12d, %edx
	movl	%r15d, %ecx
	movl	%r14d, %r8d
	callq	FastLine16Y_11.8
	addq	$8, %rsp
	popq	%rbx
	popq	%r12
	popq	%r13
	popq	%r14
	popq	%r15
	popq	%rbp
	.cfi_def_cfa %rsp, 8
	retq
.LBB2_2:                                # %func_FastLine16Y_11.10
	.cfi_def_cfa %rbp, 16
	movq	%rbx, %rdi
	movl	%r13d, %esi
	movl	%r12d, %edx
	movl	%r15d, %ecx
	movl	%r14d, %r8d
	callq	FastLine16Y_11.10
	addq	$8, %rsp
	popq	%rbx
	popq	%r12
	popq	%r13
	popq	%r14
	popq	%r15
	popq	%rbp
	.cfi_def_cfa %rsp, 8
	retq
.LBB2_3:                                # %func_FastLine16Y_11.26
	.cfi_def_cfa %rbp, 16
	movq	%rbx, %rdi
	movl	%r13d, %esi
	movl	%r12d, %edx
	movl	%r15d, %ecx
	movl	%r14d, %r8d
	callq	FastLine16Y_11.26
	addq	$8, %rsp
	popq	%rbx
	popq	%r12
	popq	%r13
	popq	%r14
	popq	%r15
	popq	%rbp
	.cfi_def_cfa %rsp, 8
	retq
.LBB2_4:                                # %func_FastLine16Y_11.40
	.cfi_def_cfa %rbp, 16
	movq	%rbx, %rdi
	movl	%r13d, %esi
	movl	%r12d, %edx
	movl	%r15d, %ecx
	movl	%r14d, %r8d
	callq	FastLine16Y_11.40
	addq	$8, %rsp
	popq	%rbx
	popq	%r12
	popq	%r13
	popq	%r14
	popq	%r15
	popq	%rbp
	.cfi_def_cfa %rsp, 8
	retq
.LBB2_5:                                # %func_FastLine16Y_11.41
	.cfi_def_cfa %rbp, 16
	movq	%rbx, %rdi
	movl	%r13d, %esi
	movl	%r12d, %edx
	movl	%r15d, %ecx
	movl	%r14d, %r8d
	callq	FastLine16Y_11.41
	addq	$8, %rsp
	popq	%rbx
	popq	%r12
	popq	%r13
	popq	%r14
	popq	%r15
	popq	%rbp
	.cfi_def_cfa %rsp, 8
	retq
.LBB2_6:                                # %func_FastLine16Y_11.43
	.cfi_def_cfa %rbp, 16
	movq	%rbx, %rdi
	movl	%r13d, %esi
	movl	%r12d, %edx
	movl	%r15d, %ecx
	movl	%r14d, %r8d
	callq	FastLine16Y_11.43
	addq	$8, %rsp
	popq	%rbx
	popq	%r12
	popq	%r13
	popq	%r14
	popq	%r15
	popq	%rbp
	.cfi_def_cfa %rsp, 8
	retq
.LBB2_7:                                # %func_FastLine16Y_11.55
	.cfi_def_cfa %rbp, 16
	movq	%rbx, %rdi
	movl	%r13d, %esi
	movl	%r12d, %edx
	movl	%r15d, %ecx
	movl	%r14d, %r8d
	callq	FastLine16Y_11.55
	addq	$8, %rsp
	popq	%rbx
	popq	%r12
	popq	%r13
	popq	%r14
	popq	%r15
	popq	%rbp
	.cfi_def_cfa %rsp, 8
	retq
.LBB2_8:                                # %func_FastLine16Y_11.61
	.cfi_def_cfa %rbp, 16
	movq	%rbx, %rdi
	movl	%r13d, %esi
	movl	%r12d, %edx
	movl	%r15d, %ecx
	movl	%r14d, %r8d
	callq	FastLine16Y_11.61
	addq	$8, %rsp
	popq	%rbx
	popq	%r12
	popq	%r13
	popq	%r14
	popq	%r15
	popq	%rbp
	.cfi_def_cfa %rsp, 8
	retq
.LBB2_9:                                # %func_FastLine16Y_11.64
	.cfi_def_cfa %rbp, 16
	movq	%rbx, %rdi
	movl	%r13d, %esi
	movl	%r12d, %edx
	movl	%r15d, %ecx
	movl	%r14d, %r8d
	callq	FastLine16Y_11.64
	addq	$8, %rsp
	popq	%rbx
	popq	%r12
	popq	%r13
	popq	%r14
	popq	%r15
	popq	%rbp
	.cfi_def_cfa %rsp, 8
	retq
.LBB2_10:                               # %func_FastLine16Y_11.66
	.cfi_def_cfa %rbp, 16
	movq	%rbx, %rdi
	movl	%r13d, %esi
	movl	%r12d, %edx
	movl	%r15d, %ecx
	movl	%r14d, %r8d
	callq	FastLine16Y_11.66
	addq	$8, %rsp
	popq	%rbx
	popq	%r12
	popq	%r13
	popq	%r14
	popq	%r15
	popq	%rbp
	.cfi_def_cfa %rsp, 8
	retq
.LBB2_11:                               # %func_FastLine16Y_11.69
	.cfi_def_cfa %rbp, 16
	movq	%rbx, %rdi
	movl	%r13d, %esi
	movl	%r12d, %edx
	movl	%r15d, %ecx
	movl	%r14d, %r8d
	callq	FastLine16Y_11.69
	addq	$8, %rsp
	popq	%rbx
	popq	%r12
	popq	%r13
	popq	%r14
	popq	%r15
	popq	%rbp
	.cfi_def_cfa %rsp, 8
	retq
.LBB2_12:                               # %func_FastLine16Y_11.88
	.cfi_def_cfa %rbp, 16
	movq	%rbx, %rdi
	movl	%r13d, %esi
	movl	%r12d, %edx
	movl	%r15d, %ecx
	movl	%r14d, %r8d
	callq	FastLine16Y_11.88
	addq	$8, %rsp
	popq	%rbx
	popq	%r12
	popq	%r13
	popq	%r14
	popq	%r15
	popq	%rbp
	.cfi_def_cfa %rsp, 8
	retq
.LBB2_13:                               # %func_FastLine16Y_11.90
	.cfi_def_cfa %rbp, 16
	movq	%rbx, %rdi
	movl	%r13d, %esi
	movl	%r12d, %edx
	movl	%r15d, %ecx
	movl	%r14d, %r8d
	callq	FastLine16Y_11.90
	addq	$8, %rsp
	popq	%rbx
	popq	%r12
	popq	%r13
	popq	%r14
	popq	%r15
	popq	%rbp
	.cfi_def_cfa %rsp, 8
	retq
.LBB2_14:                               # %func_FastLine16Y_11.99
	.cfi_def_cfa %rbp, 16
	movq	%rbx, %rdi
	movl	%r13d, %esi
	movl	%r12d, %edx
	movl	%r15d, %ecx
	movl	%r14d, %r8d
	callq	FastLine16Y_11.99
	addq	$8, %rsp
	popq	%rbx
	popq	%r12
	popq	%r13
	popq	%r14
	popq	%r15
	popq	%rbp
	.cfi_def_cfa %rsp, 8
	retq
.LBB2_15:                               # %func_FastLine16Y_11.115
	.cfi_def_cfa %rbp, 16
	movq	%rbx, %rdi
	movl	%r13d, %esi
	movl	%r12d, %edx
	movl	%r15d, %ecx
	movl	%r14d, %r8d
	callq	FastLine16Y_11.115
	addq	$8, %rsp
	popq	%rbx
	popq	%r12
	popq	%r13
	popq	%r14
	popq	%r15
	popq	%rbp
	.cfi_def_cfa %rsp, 8
	retq
.LBB2_16:                               # %func_FastLine16Y_11.116
	.cfi_def_cfa %rbp, 16
	movq	%rbx, %rdi
	movl	%r13d, %esi
	movl	%r12d, %edx
	movl	%r15d, %ecx
	movl	%r14d, %r8d
	callq	FastLine16Y_11.116
	addq	$8, %rsp
	popq	%rbx
	popq	%r12
	popq	%r13
	popq	%r14
	popq	%r15
	popq	%rbp
	.cfi_def_cfa %rsp, 8
	retq
.LBB2_17:                               # %ctrl0
	.cfi_def_cfa %rbp, 16
	cmpl	$1, %eax
	je	.LBB2_2
# %bb.18:                               # %ctrl1
	cmpl	$2, %eax
	je	.LBB2_3
# %bb.19:                               # %ctrl2
	cmpl	$3, %eax
	je	.LBB2_4
# %bb.20:                               # %ctrl3
	cmpl	$4, %eax
	je	.LBB2_5
# %bb.21:                               # %ctrl4
	cmpl	$5, %eax
	je	.LBB2_6
# %bb.22:                               # %ctrl5
	cmpl	$6, %eax
	je	.LBB2_7
# %bb.23:                               # %ctrl6
	cmpl	$7, %eax
	je	.LBB2_8
# %bb.24:                               # %ctrl7
	cmpl	$8, %eax
	je	.LBB2_9
# %bb.25:                               # %ctrl8
	cmpl	$9, %eax
	je	.LBB2_10
# %bb.26:                               # %ctrl9
	cmpl	$10, %eax
	je	.LBB2_11
# %bb.27:                               # %ctrl10
	cmpl	$11, %eax
	je	.LBB2_12
# %bb.28:                               # %ctrl11
	cmpl	$12, %eax
	je	.LBB2_13
# %bb.29:                               # %ctrl12
	cmpl	$13, %eax
	je	.LBB2_14
# %bb.30:                               # %ctrl13
	cmpl	$14, %eax
	je	.LBB2_15
	jmp	.LBB2_16
.Lfunc_end2:
	.size	FastLine16Y_11, .Lfunc_end2-FastLine16Y_11
	.cfi_endproc
                                        # -- End function
	.globl	UMVLine16Y_11           # -- Begin function UMVLine16Y_11
	.p2align	4, 0x90
	.type	UMVLine16Y_11,@function
UMVLine16Y_11:                          # @UMVLine16Y_11
	.cfi_startproc
# %bb.0:                                # %rand_bb
	pushq	%rbp
	.cfi_def_cfa_offset 16
	.cfi_offset %rbp, -16
	movq	%rsp, %rbp
	.cfi_def_cfa_register %rbp
	pushq	%r15
	pushq	%r14
	pushq	%r13
	pushq	%r12
	pushq	%rbx
	pushq	%rax
	.cfi_offset %rbx, -56
	.cfi_offset %r12, -48
	.cfi_offset %r13, -40
	.cfi_offset %r14, -32
	.cfi_offset %r15, -24
	movl	%r8d, %r14d
	movl	%ecx, %r15d
	movl	%edx, %r12d
	movl	%esi, %r13d
	movq	%rdi, %rbx
	callq	get_rand
	cmpl	$0, %eax
	jne	.LBB3_17
# %bb.1:                                # %func_UMVLine16Y_11.7
	movq	%rbx, %rdi
	movl	%r13d, %esi
	movl	%r12d, %edx
	movl	%r15d, %ecx
	movl	%r14d, %r8d
	callq	UMVLine16Y_11.7
	addq	$8, %rsp
	popq	%rbx
	popq	%r12
	popq	%r13
	popq	%r14
	popq	%r15
	popq	%rbp
	.cfi_def_cfa %rsp, 8
	retq
.LBB3_2:                                # %func_UMVLine16Y_11.48
	.cfi_def_cfa %rbp, 16
	movq	%rbx, %rdi
	movl	%r13d, %esi
	movl	%r12d, %edx
	movl	%r15d, %ecx
	movl	%r14d, %r8d
	callq	UMVLine16Y_11.48
	addq	$8, %rsp
	popq	%rbx
	popq	%r12
	popq	%r13
	popq	%r14
	popq	%r15
	popq	%rbp
	.cfi_def_cfa %rsp, 8
	retq
.LBB3_3:                                # %func_UMVLine16Y_11.58
	.cfi_def_cfa %rbp, 16
	movq	%rbx, %rdi
	movl	%r13d, %esi
	movl	%r12d, %edx
	movl	%r15d, %ecx
	movl	%r14d, %r8d
	callq	UMVLine16Y_11.58
	addq	$8, %rsp
	popq	%rbx
	popq	%r12
	popq	%r13
	popq	%r14
	popq	%r15
	popq	%rbp
	.cfi_def_cfa %rsp, 8
	retq
.LBB3_4:                                # %func_UMVLine16Y_11.62
	.cfi_def_cfa %rbp, 16
	movq	%rbx, %rdi
	movl	%r13d, %esi
	movl	%r12d, %edx
	movl	%r15d, %ecx
	movl	%r14d, %r8d
	callq	UMVLine16Y_11.62
	addq	$8, %rsp
	popq	%rbx
	popq	%r12
	popq	%r13
	popq	%r14
	popq	%r15
	popq	%rbp
	.cfi_def_cfa %rsp, 8
	retq
.LBB3_5:                                # %func_UMVLine16Y_11.74
	.cfi_def_cfa %rbp, 16
	movq	%rbx, %rdi
	movl	%r13d, %esi
	movl	%r12d, %edx
	movl	%r15d, %ecx
	movl	%r14d, %r8d
	callq	UMVLine16Y_11.74
	addq	$8, %rsp
	popq	%rbx
	popq	%r12
	popq	%r13
	popq	%r14
	popq	%r15
	popq	%rbp
	.cfi_def_cfa %rsp, 8
	retq
.LBB3_6:                                # %func_UMVLine16Y_11.98
	.cfi_def_cfa %rbp, 16
	movq	%rbx, %rdi
	movl	%r13d, %esi
	movl	%r12d, %edx
	movl	%r15d, %ecx
	movl	%r14d, %r8d
	callq	UMVLine16Y_11.98
	addq	$8, %rsp
	popq	%rbx
	popq	%r12
	popq	%r13
	popq	%r14
	popq	%r15
	popq	%rbp
	.cfi_def_cfa %rsp, 8
	retq
.LBB3_7:                                # %func_UMVLine16Y_11.111
	.cfi_def_cfa %rbp, 16
	movq	%rbx, %rdi
	movl	%r13d, %esi
	movl	%r12d, %edx
	movl	%r15d, %ecx
	movl	%r14d, %r8d
	callq	UMVLine16Y_11.111
	addq	$8, %rsp
	popq	%rbx
	popq	%r12
	popq	%r13
	popq	%r14
	popq	%r15
	popq	%rbp
	.cfi_def_cfa %rsp, 8
	retq
.LBB3_8:                                # %func_UMVLine16Y_11.112
	.cfi_def_cfa %rbp, 16
	movq	%rbx, %rdi
	movl	%r13d, %esi
	movl	%r12d, %edx
	movl	%r15d, %ecx
	movl	%r14d, %r8d
	callq	UMVLine16Y_11.112
	addq	$8, %rsp
	popq	%rbx
	popq	%r12
	popq	%r13
	popq	%r14
	popq	%r15
	popq	%rbp
	.cfi_def_cfa %rsp, 8
	retq
.LBB3_9:                                # %func_UMVLine16Y_11.114
	.cfi_def_cfa %rbp, 16
	movq	%rbx, %rdi
	movl	%r13d, %esi
	movl	%r12d, %edx
	movl	%r15d, %ecx
	movl	%r14d, %r8d
	callq	UMVLine16Y_11.114
	addq	$8, %rsp
	popq	%rbx
	popq	%r12
	popq	%r13
	popq	%r14
	popq	%r15
	popq	%rbp
	.cfi_def_cfa %rsp, 8
	retq
.LBB3_10:                               # %func_UMVLine16Y_11.121
	.cfi_def_cfa %rbp, 16
	movq	%rbx, %rdi
	movl	%r13d, %esi
	movl	%r12d, %edx
	movl	%r15d, %ecx
	movl	%r14d, %r8d
	callq	UMVLine16Y_11.121
	addq	$8, %rsp
	popq	%rbx
	popq	%r12
	popq	%r13
	popq	%r14
	popq	%r15
	popq	%rbp
	.cfi_def_cfa %rsp, 8
	retq
.LBB3_11:                               # %func_UMVLine16Y_11.122
	.cfi_def_cfa %rbp, 16
	movq	%rbx, %rdi
	movl	%r13d, %esi
	movl	%r12d, %edx
	movl	%r15d, %ecx
	movl	%r14d, %r8d
	callq	UMVLine16Y_11.122
	addq	$8, %rsp
	popq	%rbx
	popq	%r12
	popq	%r13
	popq	%r14
	popq	%r15
	popq	%rbp
	.cfi_def_cfa %rsp, 8
	retq
.LBB3_12:                               # %func_UMVLine16Y_11.123
	.cfi_def_cfa %rbp, 16
	movq	%rbx, %rdi
	movl	%r13d, %esi
	movl	%r12d, %edx
	movl	%r15d, %ecx
	movl	%r14d, %r8d
	callq	UMVLine16Y_11.123
	addq	$8, %rsp
	popq	%rbx
	popq	%r12
	popq	%r13
	popq	%r14
	popq	%r15
	popq	%rbp
	.cfi_def_cfa %rsp, 8
	retq
.LBB3_13:                               # %func_UMVLine16Y_11.124
	.cfi_def_cfa %rbp, 16
	movq	%rbx, %rdi
	movl	%r13d, %esi
	movl	%r12d, %edx
	movl	%r15d, %ecx
	movl	%r14d, %r8d
	callq	UMVLine16Y_11.124
	addq	$8, %rsp
	popq	%rbx
	popq	%r12
	popq	%r13
	popq	%r14
	popq	%r15
	popq	%rbp
	.cfi_def_cfa %rsp, 8
	retq
.LBB3_14:                               # %func_UMVLine16Y_11.125
	.cfi_def_cfa %rbp, 16
	movq	%rbx, %rdi
	movl	%r13d, %esi
	movl	%r12d, %edx
	movl	%r15d, %ecx
	movl	%r14d, %r8d
	callq	UMVLine16Y_11.125
	addq	$8, %rsp
	popq	%rbx
	popq	%r12
	popq	%r13
	popq	%r14
	popq	%r15
	popq	%rbp
	.cfi_def_cfa %rsp, 8
	retq
.LBB3_15:                               # %func_UMVLine16Y_11.126
	.cfi_def_cfa %rbp, 16
	movq	%rbx, %rdi
	movl	%r13d, %esi
	movl	%r12d, %edx
	movl	%r15d, %ecx
	movl	%r14d, %r8d
	callq	UMVLine16Y_11.126
	addq	$8, %rsp
	popq	%rbx
	popq	%r12
	popq	%r13
	popq	%r14
	popq	%r15
	popq	%rbp
	.cfi_def_cfa %rsp, 8
	retq
.LBB3_16:                               # %func_UMVLine16Y_11.128
	.cfi_def_cfa %rbp, 16
	movq	%rbx, %rdi
	movl	%r13d, %esi
	movl	%r12d, %edx
	movl	%r15d, %ecx
	movl	%r14d, %r8d
	callq	UMVLine16Y_11.128
	addq	$8, %rsp
	popq	%rbx
	popq	%r12
	popq	%r13
	popq	%r14
	popq	%r15
	popq	%rbp
	.cfi_def_cfa %rsp, 8
	retq
.LBB3_17:                               # %ctrl0
	.cfi_def_cfa %rbp, 16
	cmpl	$1, %eax
	je	.LBB3_2
# %bb.18:                               # %ctrl1
	cmpl	$2, %eax
	je	.LBB3_3
# %bb.19:                               # %ctrl2
	cmpl	$3, %eax
	je	.LBB3_4
# %bb.20:                               # %ctrl3
	cmpl	$4, %eax
	je	.LBB3_5
# %bb.21:                               # %ctrl4
	cmpl	$5, %eax
	je	.LBB3_6
# %bb.22:                               # %ctrl5
	cmpl	$6, %eax
	je	.LBB3_7
# %bb.23:                               # %ctrl6
	cmpl	$7, %eax
	je	.LBB3_8
# %bb.24:                               # %ctrl7
	cmpl	$8, %eax
	je	.LBB3_9
# %bb.25:                               # %ctrl8
	cmpl	$9, %eax
	je	.LBB3_10
# %bb.26:                               # %ctrl9
	cmpl	$10, %eax
	je	.LBB3_11
# %bb.27:                               # %ctrl10
	cmpl	$11, %eax
	je	.LBB3_12
# %bb.28:                               # %ctrl11
	cmpl	$12, %eax
	je	.LBB3_13
# %bb.29:                               # %ctrl12
	cmpl	$13, %eax
	je	.LBB3_14
# %bb.30:                               # %ctrl13
	cmpl	$14, %eax
	je	.LBB3_15
	jmp	.LBB3_16
.Lfunc_end3:
	.size	UMVLine16Y_11, .Lfunc_end3-UMVLine16Y_11
	.cfi_endproc
                                        # -- End function
	.globl	FastLineX               # -- Begin function FastLineX
	.p2align	4, 0x90
	.type	FastLineX,@function
FastLineX:                              # @FastLineX
	.cfi_startproc
# %bb.0:                                # %rand_bb
	pushq	%rbp
	.cfi_def_cfa_offset 16
	.cfi_offset %rbp, -16
	movq	%rsp, %rbp
	.cfi_def_cfa_register %rbp
	pushq	%r15
	pushq	%r14
	pushq	%r13
	pushq	%r12
	pushq	%rbx
	pushq	%rax
	.cfi_offset %rbx, -56
	.cfi_offset %r12, -48
	.cfi_offset %r13, -40
	.cfi_offset %r14, -32
	.cfi_offset %r15, -24
	movl	%r9d, -44(%rbp)         # 4-byte Spill
	movl	%r8d, %r12d
	movl	%ecx, %r13d
	movl	%edx, %ebx
	movq	%rsi, %r14
	movl	%edi, %r15d
	callq	get_rand
	cmpl	$0, %eax
	jne	.LBB4_17
# %bb.1:                                # %func_FastLineX.15
	movl	%r15d, %edi
	movq	%r14, %rsi
	movl	%ebx, %edx
	movl	%r13d, %ecx
	movl	%r12d, %r8d
	movl	-44(%rbp), %r9d         # 4-byte Reload
	callq	FastLineX.15
	addq	$8, %rsp
	popq	%rbx
	popq	%r12
	popq	%r13
	popq	%r14
	popq	%r15
	popq	%rbp
	.cfi_def_cfa %rsp, 8
	retq
.LBB4_2:                                # %func_FastLineX.17
	.cfi_def_cfa %rbp, 16
	movl	%r13d, %ecx
	movl	%r11d, %r8d
	movl	%r10d, %r9d
	callq	FastLineX.17
	addq	$8, %rsp
	popq	%rbx
	popq	%r12
	popq	%r13
	popq	%r14
	popq	%r15
	popq	%rbp
	.cfi_def_cfa %rsp, 8
	retq
.LBB4_3:                                # %func_FastLineX.20
	.cfi_def_cfa %rbp, 16
	movl	%ebx, %edi
	movq	%r14, %rsi
	movl	%r12d, %edx
	movl	%r15d, %ecx
	callq	FastLineX.20
	addq	$8, %rsp
	popq	%rbx
	popq	%r12
	popq	%r13
	popq	%r14
	popq	%r15
	popq	%rbp
	.cfi_def_cfa %rsp, 8
	retq
.LBB4_4:                                # %func_FastLineX.49
	.cfi_def_cfa %rbp, 16
	movl	%ebx, %edi
	movq	%r14, %rsi
	movl	%r12d, %edx
	movl	%r15d, %ecx
	callq	FastLineX.49
	addq	$8, %rsp
	popq	%rbx
	popq	%r12
	popq	%r13
	popq	%r14
	popq	%r15
	popq	%rbp
	.cfi_def_cfa %rsp, 8
	retq
.LBB4_5:                                # %func_FastLineX.52
	.cfi_def_cfa %rbp, 16
	movl	%ebx, %edi
	movq	%r14, %rsi
	movl	%r12d, %edx
	movl	%r15d, %ecx
	callq	FastLineX.52
	addq	$8, %rsp
	popq	%rbx
	popq	%r12
	popq	%r13
	popq	%r14
	popq	%r15
	popq	%rbp
	.cfi_def_cfa %rsp, 8
	retq
.LBB4_6:                                # %func_FastLineX.59
	.cfi_def_cfa %rbp, 16
	movl	%ebx, %edi
	movq	%r14, %rsi
	movl	%r12d, %edx
	movl	%r15d, %ecx
	callq	FastLineX.59
	addq	$8, %rsp
	popq	%rbx
	popq	%r12
	popq	%r13
	popq	%r14
	popq	%r15
	popq	%rbp
	.cfi_def_cfa %rsp, 8
	retq
.LBB4_7:                                # %func_FastLineX.72
	.cfi_def_cfa %rbp, 16
	movl	%ebx, %edi
	movq	%r14, %rsi
	movl	%r12d, %edx
	movl	%r15d, %ecx
	callq	FastLineX.72
	addq	$8, %rsp
	popq	%rbx
	popq	%r12
	popq	%r13
	popq	%r14
	popq	%r15
	popq	%rbp
	.cfi_def_cfa %rsp, 8
	retq
.LBB4_8:                                # %func_FastLineX.83
	.cfi_def_cfa %rbp, 16
	movl	%ebx, %edi
	movq	%r14, %rsi
	movl	%r12d, %edx
	movl	%r15d, %ecx
	callq	FastLineX.83
	addq	$8, %rsp
	popq	%rbx
	popq	%r12
	popq	%r13
	popq	%r14
	popq	%r15
	popq	%rbp
	.cfi_def_cfa %rsp, 8
	retq
.LBB4_9:                                # %func_FastLineX.87
	.cfi_def_cfa %rbp, 16
	movl	%ebx, %edi
	movq	%r14, %rsi
	movl	%r12d, %edx
	movl	%r15d, %ecx
	callq	FastLineX.87
	addq	$8, %rsp
	popq	%rbx
	popq	%r12
	popq	%r13
	popq	%r14
	popq	%r15
	popq	%rbp
	.cfi_def_cfa %rsp, 8
	retq
.LBB4_10:                               # %func_FastLineX.89
	.cfi_def_cfa %rbp, 16
	movl	%ebx, %edi
	movq	%r14, %rsi
	movl	%r12d, %edx
	movl	%r15d, %ecx
	callq	FastLineX.89
	addq	$8, %rsp
	popq	%rbx
	popq	%r12
	popq	%r13
	popq	%r14
	popq	%r15
	popq	%rbp
	.cfi_def_cfa %rsp, 8
	retq
.LBB4_11:                               # %func_FastLineX.91
	.cfi_def_cfa %rbp, 16
	movl	%ebx, %edi
	movq	%r14, %rsi
	movl	%r12d, %edx
	movl	%r15d, %ecx
	callq	FastLineX.91
	addq	$8, %rsp
	popq	%rbx
	popq	%r12
	popq	%r13
	popq	%r14
	popq	%r15
	popq	%rbp
	.cfi_def_cfa %rsp, 8
	retq
.LBB4_12:                               # %func_FastLineX.93
	.cfi_def_cfa %rbp, 16
	movl	%ebx, %edi
	movq	%r14, %rsi
	movl	%r12d, %edx
	movl	%r15d, %ecx
	callq	FastLineX.93
	addq	$8, %rsp
	popq	%rbx
	popq	%r12
	popq	%r13
	popq	%r14
	popq	%r15
	popq	%rbp
	.cfi_def_cfa %rsp, 8
	retq
.LBB4_13:                               # %func_FastLineX.94
	.cfi_def_cfa %rbp, 16
	movl	%ebx, %edi
	movq	%r14, %rsi
	movl	%r12d, %edx
	movl	%r15d, %ecx
	callq	FastLineX.94
	addq	$8, %rsp
	popq	%rbx
	popq	%r12
	popq	%r13
	popq	%r14
	popq	%r15
	popq	%rbp
	.cfi_def_cfa %rsp, 8
	retq
.LBB4_14:                               # %func_FastLineX.95
	.cfi_def_cfa %rbp, 16
	movl	%ebx, %edi
	movq	%r14, %rsi
	movl	%r12d, %edx
	movl	%r15d, %ecx
	callq	FastLineX.95
	addq	$8, %rsp
	popq	%rbx
	popq	%r12
	popq	%r13
	popq	%r14
	popq	%r15
	popq	%rbp
	.cfi_def_cfa %rsp, 8
	retq
.LBB4_15:                               # %func_FastLineX.96
	.cfi_def_cfa %rbp, 16
	movl	%r13d, %ecx
	movl	%r11d, %r8d
	movl	%r10d, %r9d
	callq	FastLineX.96
	addq	$8, %rsp
	popq	%rbx
	popq	%r12
	popq	%r13
	popq	%r14
	popq	%r15
	popq	%rbp
	.cfi_def_cfa %rsp, 8
	retq
.LBB4_16:                               # %func_FastLineX.109
	.cfi_def_cfa %rbp, 16
	movl	%r13d, %ecx
	movl	%r11d, %r8d
	movl	%r10d, %r9d
	callq	FastLineX.109
	addq	$8, %rsp
	popq	%rbx
	popq	%r12
	popq	%r13
	popq	%r14
	popq	%r15
	popq	%rbp
	.cfi_def_cfa %rsp, 8
	retq
.LBB4_17:                               # %ctrl0
	.cfi_def_cfa %rbp, 16
	movl	%r15d, %edi
	movq	%r14, %rsi
	movl	%ebx, %edx
	movl	%r12d, %r11d
	movl	-44(%rbp), %r10d        # 4-byte Reload
	cmpl	$1, %eax
	je	.LBB4_2
# %bb.18:                               # %ctrl1
	cmpl	$2, %eax
	movl	%r10d, %r9d
	movl	%r11d, %r8d
	movl	%r13d, %r15d
	movl	%edx, %r12d
	movq	%rsi, %r14
	movl	%edi, %ebx
	je	.LBB4_3
# %bb.19:                               # %ctrl2
	cmpl	$3, %eax
	je	.LBB4_4
# %bb.20:                               # %ctrl3
	cmpl	$4, %eax
	je	.LBB4_5
# %bb.21:                               # %ctrl4
	cmpl	$5, %eax
	je	.LBB4_6
# %bb.22:                               # %ctrl5
	cmpl	$6, %eax
	je	.LBB4_7
# %bb.23:                               # %ctrl6
	cmpl	$7, %eax
	je	.LBB4_8
# %bb.24:                               # %ctrl7
	cmpl	$8, %eax
	je	.LBB4_9
# %bb.25:                               # %ctrl8
	cmpl	$9, %eax
	je	.LBB4_10
# %bb.26:                               # %ctrl9
	cmpl	$10, %eax
	je	.LBB4_11
# %bb.27:                               # %ctrl10
	cmpl	$11, %eax
	je	.LBB4_12
# %bb.28:                               # %ctrl11
	cmpl	$12, %eax
	je	.LBB4_13
# %bb.29:                               # %ctrl12
	cmpl	$13, %eax
	je	.LBB4_14
# %bb.30:                               # %ctrl13
	cmpl	$14, %eax
	je	.LBB4_15
	jmp	.LBB4_16
.Lfunc_end4:
	.size	FastLineX, .Lfunc_end4-FastLineX
	.cfi_endproc
                                        # -- End function
	.globl	UMVLineX                # -- Begin function UMVLineX
	.p2align	4, 0x90
	.type	UMVLineX,@function
UMVLineX:                               # @UMVLineX
	.cfi_startproc
# %bb.0:                                # %rand_bb
	pushq	%rbp
	.cfi_def_cfa_offset 16
	.cfi_offset %rbp, -16
	movq	%rsp, %rbp
	.cfi_def_cfa_register %rbp
	pushq	%r15
	pushq	%r14
	pushq	%r13
	pushq	%r12
	pushq	%rbx
	pushq	%rax
	.cfi_offset %rbx, -56
	.cfi_offset %r12, -48
	.cfi_offset %r13, -40
	.cfi_offset %r14, -32
	.cfi_offset %r15, -24
	movl	%r9d, -44(%rbp)         # 4-byte Spill
	movl	%r8d, %r12d
	movl	%ecx, %r13d
	movl	%edx, %ebx
	movq	%rsi, %r14
	movl	%edi, %r15d
	callq	get_rand
	cmpl	$0, %eax
	jne	.LBB5_17
# %bb.1:                                # %func_UMVLineX.5
	movl	%r15d, %edi
	movq	%r14, %rsi
	movl	%ebx, %edx
	movl	%r13d, %ecx
	movl	%r12d, %r8d
	movl	-44(%rbp), %r9d         # 4-byte Reload
	callq	UMVLineX.5
	addq	$8, %rsp
	popq	%rbx
	popq	%r12
	popq	%r13
	popq	%r14
	popq	%r15
	popq	%rbp
	.cfi_def_cfa %rsp, 8
	retq
.LBB5_2:                                # %func_UMVLineX.9
	.cfi_def_cfa %rbp, 16
	movl	%r13d, %ecx
	movl	%r11d, %r8d
	movl	%r10d, %r9d
	callq	UMVLineX.9
	addq	$8, %rsp
	popq	%rbx
	popq	%r12
	popq	%r13
	popq	%r14
	popq	%r15
	popq	%rbp
	.cfi_def_cfa %rsp, 8
	retq
.LBB5_3:                                # %func_UMVLineX.23
	.cfi_def_cfa %rbp, 16
	movl	%ebx, %edi
	movq	%r14, %rsi
	movl	%r12d, %edx
	movl	%r15d, %ecx
	callq	UMVLineX.23
	addq	$8, %rsp
	popq	%rbx
	popq	%r12
	popq	%r13
	popq	%r14
	popq	%r15
	popq	%rbp
	.cfi_def_cfa %rsp, 8
	retq
.LBB5_4:                                # %func_UMVLineX.25
	.cfi_def_cfa %rbp, 16
	movl	%ebx, %edi
	movq	%r14, %rsi
	movl	%r12d, %edx
	movl	%r15d, %ecx
	callq	UMVLineX.25
	addq	$8, %rsp
	popq	%rbx
	popq	%r12
	popq	%r13
	popq	%r14
	popq	%r15
	popq	%rbp
	.cfi_def_cfa %rsp, 8
	retq
.LBB5_5:                                # %func_UMVLineX.35
	.cfi_def_cfa %rbp, 16
	movl	%ebx, %edi
	movq	%r14, %rsi
	movl	%r12d, %edx
	movl	%r15d, %ecx
	callq	UMVLineX.35
	addq	$8, %rsp
	popq	%rbx
	popq	%r12
	popq	%r13
	popq	%r14
	popq	%r15
	popq	%rbp
	.cfi_def_cfa %rsp, 8
	retq
.LBB5_6:                                # %func_UMVLineX.36
	.cfi_def_cfa %rbp, 16
	movl	%ebx, %edi
	movq	%r14, %rsi
	movl	%r12d, %edx
	movl	%r15d, %ecx
	callq	UMVLineX.36
	addq	$8, %rsp
	popq	%rbx
	popq	%r12
	popq	%r13
	popq	%r14
	popq	%r15
	popq	%rbp
	.cfi_def_cfa %rsp, 8
	retq
.LBB5_7:                                # %func_UMVLineX.37
	.cfi_def_cfa %rbp, 16
	movl	%ebx, %edi
	movq	%r14, %rsi
	movl	%r12d, %edx
	movl	%r15d, %ecx
	callq	UMVLineX.37
	addq	$8, %rsp
	popq	%rbx
	popq	%r12
	popq	%r13
	popq	%r14
	popq	%r15
	popq	%rbp
	.cfi_def_cfa %rsp, 8
	retq
.LBB5_8:                                # %func_UMVLineX.54
	.cfi_def_cfa %rbp, 16
	movl	%ebx, %edi
	movq	%r14, %rsi
	movl	%r12d, %edx
	movl	%r15d, %ecx
	callq	UMVLineX.54
	addq	$8, %rsp
	popq	%rbx
	popq	%r12
	popq	%r13
	popq	%r14
	popq	%r15
	popq	%rbp
	.cfi_def_cfa %rsp, 8
	retq
.LBB5_9:                                # %func_UMVLineX.63
	.cfi_def_cfa %rbp, 16
	movl	%ebx, %edi
	movq	%r14, %rsi
	movl	%r12d, %edx
	movl	%r15d, %ecx
	callq	UMVLineX.63
	addq	$8, %rsp
	popq	%rbx
	popq	%r12
	popq	%r13
	popq	%r14
	popq	%r15
	popq	%rbp
	.cfi_def_cfa %rsp, 8
	retq
.LBB5_10:                               # %func_UMVLineX.76
	.cfi_def_cfa %rbp, 16
	movl	%ebx, %edi
	movq	%r14, %rsi
	movl	%r12d, %edx
	movl	%r15d, %ecx
	callq	UMVLineX.76
	addq	$8, %rsp
	popq	%rbx
	popq	%r12
	popq	%r13
	popq	%r14
	popq	%r15
	popq	%rbp
	.cfi_def_cfa %rsp, 8
	retq
.LBB5_11:                               # %func_UMVLineX.79
	.cfi_def_cfa %rbp, 16
	movl	%ebx, %edi
	movq	%r14, %rsi
	movl	%r12d, %edx
	movl	%r15d, %ecx
	callq	UMVLineX.79
	addq	$8, %rsp
	popq	%rbx
	popq	%r12
	popq	%r13
	popq	%r14
	popq	%r15
	popq	%rbp
	.cfi_def_cfa %rsp, 8
	retq
.LBB5_12:                               # %func_UMVLineX.84
	.cfi_def_cfa %rbp, 16
	movl	%ebx, %edi
	movq	%r14, %rsi
	movl	%r12d, %edx
	movl	%r15d, %ecx
	callq	UMVLineX.84
	addq	$8, %rsp
	popq	%rbx
	popq	%r12
	popq	%r13
	popq	%r14
	popq	%r15
	popq	%rbp
	.cfi_def_cfa %rsp, 8
	retq
.LBB5_13:                               # %func_UMVLineX.85
	.cfi_def_cfa %rbp, 16
	movl	%ebx, %edi
	movq	%r14, %rsi
	movl	%r12d, %edx
	movl	%r15d, %ecx
	callq	UMVLineX.85
	addq	$8, %rsp
	popq	%rbx
	popq	%r12
	popq	%r13
	popq	%r14
	popq	%r15
	popq	%rbp
	.cfi_def_cfa %rsp, 8
	retq
.LBB5_14:                               # %func_UMVLineX.92
	.cfi_def_cfa %rbp, 16
	movl	%ebx, %edi
	movq	%r14, %rsi
	movl	%r12d, %edx
	movl	%r15d, %ecx
	callq	UMVLineX.92
	addq	$8, %rsp
	popq	%rbx
	popq	%r12
	popq	%r13
	popq	%r14
	popq	%r15
	popq	%rbp
	.cfi_def_cfa %rsp, 8
	retq
.LBB5_15:                               # %func_UMVLineX.97
	.cfi_def_cfa %rbp, 16
	movl	%r13d, %ecx
	movl	%r11d, %r8d
	movl	%r10d, %r9d
	callq	UMVLineX.97
	addq	$8, %rsp
	popq	%rbx
	popq	%r12
	popq	%r13
	popq	%r14
	popq	%r15
	popq	%rbp
	.cfi_def_cfa %rsp, 8
	retq
.LBB5_16:                               # %func_UMVLineX.110
	.cfi_def_cfa %rbp, 16
	movl	%r13d, %ecx
	movl	%r11d, %r8d
	movl	%r10d, %r9d
	callq	UMVLineX.110
	addq	$8, %rsp
	popq	%rbx
	popq	%r12
	popq	%r13
	popq	%r14
	popq	%r15
	popq	%rbp
	.cfi_def_cfa %rsp, 8
	retq
.LBB5_17:                               # %ctrl0
	.cfi_def_cfa %rbp, 16
	movl	%r15d, %edi
	movq	%r14, %rsi
	movl	%ebx, %edx
	movl	%r12d, %r11d
	movl	-44(%rbp), %r10d        # 4-byte Reload
	cmpl	$1, %eax
	je	.LBB5_2
# %bb.18:                               # %ctrl1
	cmpl	$2, %eax
	movl	%r10d, %r9d
	movl	%r11d, %r8d
	movl	%r13d, %r15d
	movl	%edx, %r12d
	movq	%rsi, %r14
	movl	%edi, %ebx
	je	.LBB5_3
# %bb.19:                               # %ctrl2
	cmpl	$3, %eax
	je	.LBB5_4
# %bb.20:                               # %ctrl3
	cmpl	$4, %eax
	je	.LBB5_5
# %bb.21:                               # %ctrl4
	cmpl	$5, %eax
	je	.LBB5_6
# %bb.22:                               # %ctrl5
	cmpl	$6, %eax
	je	.LBB5_7
# %bb.23:                               # %ctrl6
	cmpl	$7, %eax
	je	.LBB5_8
# %bb.24:                               # %ctrl7
	cmpl	$8, %eax
	je	.LBB5_9
# %bb.25:                               # %ctrl8
	cmpl	$9, %eax
	je	.LBB5_10
# %bb.26:                               # %ctrl9
	cmpl	$10, %eax
	je	.LBB5_11
# %bb.27:                               # %ctrl10
	cmpl	$11, %eax
	je	.LBB5_12
# %bb.28:                               # %ctrl11
	cmpl	$12, %eax
	je	.LBB5_13
# %bb.29:                               # %ctrl12
	cmpl	$13, %eax
	je	.LBB5_14
# %bb.30:                               # %ctrl13
	cmpl	$14, %eax
	je	.LBB5_15
	jmp	.LBB5_16
.Lfunc_end5:
	.size	UMVLineX, .Lfunc_end5-UMVLineX
	.cfi_endproc
                                        # -- End function
	.globl	UMVPelY_14              # -- Begin function UMVPelY_14
	.p2align	4, 0x90
	.type	UMVPelY_14,@function
UMVPelY_14:                             # @UMVPelY_14
	.cfi_startproc
# %bb.0:                                # %rand_bb
	pushq	%rbp
	.cfi_def_cfa_offset 16
	.cfi_offset %rbp, -16
	movq	%rsp, %rbp
	.cfi_def_cfa_register %rbp
	pushq	%r15
	pushq	%r14
	pushq	%r13
	pushq	%r12
	pushq	%rbx
	pushq	%rax
	.cfi_offset %rbx, -56
	.cfi_offset %r12, -48
	.cfi_offset %r13, -40
	.cfi_offset %r14, -32
	.cfi_offset %r15, -24
	movl	%r8d, %r14d
	movl	%ecx, %r15d
	movl	%edx, %r12d
	movl	%esi, %r13d
	movq	%rdi, %rbx
	callq	get_rand
	cmpl	$0, %eax
	jne	.LBB6_17
# %bb.1:                                # %func_UMVPelY_14.4
	movq	%rbx, %rdi
	movl	%r13d, %esi
	movl	%r12d, %edx
	movl	%r15d, %ecx
	movl	%r14d, %r8d
	callq	UMVPelY_14.4
	movzwl	%ax, %eax
	addq	$8, %rsp
	popq	%rbx
	popq	%r12
	popq	%r13
	popq	%r14
	popq	%r15
	popq	%rbp
	.cfi_def_cfa %rsp, 8
	retq
.LBB6_2:                                # %func_UMVPelY_14.18
	.cfi_def_cfa %rbp, 16
	movq	%rbx, %rdi
	movl	%r13d, %esi
	movl	%r12d, %edx
	movl	%r15d, %ecx
	movl	%r14d, %r8d
	callq	UMVPelY_14.18
	movzwl	%ax, %eax
	addq	$8, %rsp
	popq	%rbx
	popq	%r12
	popq	%r13
	popq	%r14
	popq	%r15
	popq	%rbp
	.cfi_def_cfa %rsp, 8
	retq
.LBB6_3:                                # %func_UMVPelY_14.19
	.cfi_def_cfa %rbp, 16
	movq	%rbx, %rdi
	movl	%r13d, %esi
	movl	%r12d, %edx
	movl	%r15d, %ecx
	movl	%r14d, %r8d
	callq	UMVPelY_14.19
	movzwl	%ax, %eax
	addq	$8, %rsp
	popq	%rbx
	popq	%r12
	popq	%r13
	popq	%r14
	popq	%r15
	popq	%rbp
	.cfi_def_cfa %rsp, 8
	retq
.LBB6_4:                                # %func_UMVPelY_14.24
	.cfi_def_cfa %rbp, 16
	movq	%rbx, %rdi
	movl	%r13d, %esi
	movl	%r12d, %edx
	movl	%r15d, %ecx
	movl	%r14d, %r8d
	callq	UMVPelY_14.24
	movzwl	%ax, %eax
	addq	$8, %rsp
	popq	%rbx
	popq	%r12
	popq	%r13
	popq	%r14
	popq	%r15
	popq	%rbp
	.cfi_def_cfa %rsp, 8
	retq
.LBB6_5:                                # %func_UMVPelY_14.28
	.cfi_def_cfa %rbp, 16
	movq	%rbx, %rdi
	movl	%r13d, %esi
	movl	%r12d, %edx
	movl	%r15d, %ecx
	movl	%r14d, %r8d
	callq	UMVPelY_14.28
	movzwl	%ax, %eax
	addq	$8, %rsp
	popq	%rbx
	popq	%r12
	popq	%r13
	popq	%r14
	popq	%r15
	popq	%rbp
	.cfi_def_cfa %rsp, 8
	retq
.LBB6_6:                                # %func_UMVPelY_14.32
	.cfi_def_cfa %rbp, 16
	movq	%rbx, %rdi
	movl	%r13d, %esi
	movl	%r12d, %edx
	movl	%r15d, %ecx
	movl	%r14d, %r8d
	callq	UMVPelY_14.32
	movzwl	%ax, %eax
	addq	$8, %rsp
	popq	%rbx
	popq	%r12
	popq	%r13
	popq	%r14
	popq	%r15
	popq	%rbp
	.cfi_def_cfa %rsp, 8
	retq
.LBB6_7:                                # %func_UMVPelY_14.34
	.cfi_def_cfa %rbp, 16
	movq	%rbx, %rdi
	movl	%r13d, %esi
	movl	%r12d, %edx
	movl	%r15d, %ecx
	movl	%r14d, %r8d
	callq	UMVPelY_14.34
	movzwl	%ax, %eax
	addq	$8, %rsp
	popq	%rbx
	popq	%r12
	popq	%r13
	popq	%r14
	popq	%r15
	popq	%rbp
	.cfi_def_cfa %rsp, 8
	retq
.LBB6_8:                                # %func_UMVPelY_14.42
	.cfi_def_cfa %rbp, 16
	movq	%rbx, %rdi
	movl	%r13d, %esi
	movl	%r12d, %edx
	movl	%r15d, %ecx
	movl	%r14d, %r8d
	callq	UMVPelY_14.42
	movzwl	%ax, %eax
	addq	$8, %rsp
	popq	%rbx
	popq	%r12
	popq	%r13
	popq	%r14
	popq	%r15
	popq	%rbp
	.cfi_def_cfa %rsp, 8
	retq
.LBB6_9:                                # %func_UMVPelY_14.46
	.cfi_def_cfa %rbp, 16
	movq	%rbx, %rdi
	movl	%r13d, %esi
	movl	%r12d, %edx
	movl	%r15d, %ecx
	movl	%r14d, %r8d
	callq	UMVPelY_14.46
	movzwl	%ax, %eax
	addq	$8, %rsp
	popq	%rbx
	popq	%r12
	popq	%r13
	popq	%r14
	popq	%r15
	popq	%rbp
	.cfi_def_cfa %rsp, 8
	retq
.LBB6_10:                               # %func_UMVPelY_14.56
	.cfi_def_cfa %rbp, 16
	movq	%rbx, %rdi
	movl	%r13d, %esi
	movl	%r12d, %edx
	movl	%r15d, %ecx
	movl	%r14d, %r8d
	callq	UMVPelY_14.56
	movzwl	%ax, %eax
	addq	$8, %rsp
	popq	%rbx
	popq	%r12
	popq	%r13
	popq	%r14
	popq	%r15
	popq	%rbp
	.cfi_def_cfa %rsp, 8
	retq
.LBB6_11:                               # %func_UMVPelY_14.68
	.cfi_def_cfa %rbp, 16
	movq	%rbx, %rdi
	movl	%r13d, %esi
	movl	%r12d, %edx
	movl	%r15d, %ecx
	movl	%r14d, %r8d
	callq	UMVPelY_14.68
	movzwl	%ax, %eax
	addq	$8, %rsp
	popq	%rbx
	popq	%r12
	popq	%r13
	popq	%r14
	popq	%r15
	popq	%rbp
	.cfi_def_cfa %rsp, 8
	retq
.LBB6_12:                               # %func_UMVPelY_14.73
	.cfi_def_cfa %rbp, 16
	movq	%rbx, %rdi
	movl	%r13d, %esi
	movl	%r12d, %edx
	movl	%r15d, %ecx
	movl	%r14d, %r8d
	callq	UMVPelY_14.73
	movzwl	%ax, %eax
	addq	$8, %rsp
	popq	%rbx
	popq	%r12
	popq	%r13
	popq	%r14
	popq	%r15
	popq	%rbp
	.cfi_def_cfa %rsp, 8
	retq
.LBB6_13:                               # %func_UMVPelY_14.75
	.cfi_def_cfa %rbp, 16
	movq	%rbx, %rdi
	movl	%r13d, %esi
	movl	%r12d, %edx
	movl	%r15d, %ecx
	movl	%r14d, %r8d
	callq	UMVPelY_14.75
	movzwl	%ax, %eax
	addq	$8, %rsp
	popq	%rbx
	popq	%r12
	popq	%r13
	popq	%r14
	popq	%r15
	popq	%rbp
	.cfi_def_cfa %rsp, 8
	retq
.LBB6_14:                               # %func_UMVPelY_14.82
	.cfi_def_cfa %rbp, 16
	movq	%rbx, %rdi
	movl	%r13d, %esi
	movl	%r12d, %edx
	movl	%r15d, %ecx
	movl	%r14d, %r8d
	callq	UMVPelY_14.82
	movzwl	%ax, %eax
	addq	$8, %rsp
	popq	%rbx
	popq	%r12
	popq	%r13
	popq	%r14
	popq	%r15
	popq	%rbp
	.cfi_def_cfa %rsp, 8
	retq
.LBB6_15:                               # %func_UMVPelY_14.104
	.cfi_def_cfa %rbp, 16
	movq	%rbx, %rdi
	movl	%r13d, %esi
	movl	%r12d, %edx
	movl	%r15d, %ecx
	movl	%r14d, %r8d
	callq	UMVPelY_14.104
	movzwl	%ax, %eax
	addq	$8, %rsp
	popq	%rbx
	popq	%r12
	popq	%r13
	popq	%r14
	popq	%r15
	popq	%rbp
	.cfi_def_cfa %rsp, 8
	retq
.LBB6_16:                               # %func_UMVPelY_14.108
	.cfi_def_cfa %rbp, 16
	movq	%rbx, %rdi
	movl	%r13d, %esi
	movl	%r12d, %edx
	movl	%r15d, %ecx
	movl	%r14d, %r8d
	callq	UMVPelY_14.108
	movzwl	%ax, %eax
	addq	$8, %rsp
	popq	%rbx
	popq	%r12
	popq	%r13
	popq	%r14
	popq	%r15
	popq	%rbp
	.cfi_def_cfa %rsp, 8
	retq
.LBB6_17:                               # %ctrl0
	.cfi_def_cfa %rbp, 16
	cmpl	$1, %eax
	je	.LBB6_2
# %bb.18:                               # %ctrl1
	cmpl	$2, %eax
	je	.LBB6_3
# %bb.19:                               # %ctrl2
	cmpl	$3, %eax
	je	.LBB6_4
# %bb.20:                               # %ctrl3
	cmpl	$4, %eax
	je	.LBB6_5
# %bb.21:                               # %ctrl4
	cmpl	$5, %eax
	je	.LBB6_6
# %bb.22:                               # %ctrl5
	cmpl	$6, %eax
	je	.LBB6_7
# %bb.23:                               # %ctrl6
	cmpl	$7, %eax
	je	.LBB6_8
# %bb.24:                               # %ctrl7
	cmpl	$8, %eax
	je	.LBB6_9
# %bb.25:                               # %ctrl8
	cmpl	$9, %eax
	je	.LBB6_10
# %bb.26:                               # %ctrl9
	cmpl	$10, %eax
	je	.LBB6_11
# %bb.27:                               # %ctrl10
	cmpl	$11, %eax
	je	.LBB6_12
# %bb.28:                               # %ctrl11
	cmpl	$12, %eax
	je	.LBB6_13
# %bb.29:                               # %ctrl12
	cmpl	$13, %eax
	je	.LBB6_14
# %bb.30:                               # %ctrl13
	cmpl	$14, %eax
	je	.LBB6_15
	jmp	.LBB6_16
.Lfunc_end6:
	.size	UMVPelY_14, .Lfunc_end6-UMVPelY_14
	.cfi_endproc
                                        # -- End function
	.globl	FastPelY_14             # -- Begin function FastPelY_14
	.p2align	4, 0x90
	.type	FastPelY_14,@function
FastPelY_14:                            # @FastPelY_14
	.cfi_startproc
# %bb.0:                                # %rand_bb
	pushq	%rbp
	.cfi_def_cfa_offset 16
	.cfi_offset %rbp, -16
	movq	%rsp, %rbp
	.cfi_def_cfa_register %rbp
	pushq	%r15
	pushq	%r14
	pushq	%r13
	pushq	%r12
	pushq	%rbx
	pushq	%rax
	.cfi_offset %rbx, -56
	.cfi_offset %r12, -48
	.cfi_offset %r13, -40
	.cfi_offset %r14, -32
	.cfi_offset %r15, -24
	movl	%r8d, %r14d
	movl	%ecx, %r15d
	movl	%edx, %r12d
	movl	%esi, %r13d
	movq	%rdi, %rbx
	callq	get_rand
	cmpl	$0, %eax
	jne	.LBB7_17
# %bb.1:                                # %func_FastPelY_14.1
	movq	%rbx, %rdi
	movl	%r13d, %esi
	movl	%r12d, %edx
	movl	%r15d, %ecx
	movl	%r14d, %r8d
	callq	FastPelY_14.1
	movzwl	%ax, %eax
	addq	$8, %rsp
	popq	%rbx
	popq	%r12
	popq	%r13
	popq	%r14
	popq	%r15
	popq	%rbp
	.cfi_def_cfa %rsp, 8
	retq
.LBB7_2:                                # %func_FastPelY_14.3
	.cfi_def_cfa %rbp, 16
	movq	%rbx, %rdi
	movl	%r13d, %esi
	movl	%r12d, %edx
	movl	%r15d, %ecx
	movl	%r14d, %r8d
	callq	FastPelY_14.3
	movzwl	%ax, %eax
	addq	$8, %rsp
	popq	%rbx
	popq	%r12
	popq	%r13
	popq	%r14
	popq	%r15
	popq	%rbp
	.cfi_def_cfa %rsp, 8
	retq
.LBB7_3:                                # %func_FastPelY_14.6
	.cfi_def_cfa %rbp, 16
	movq	%rbx, %rdi
	movl	%r13d, %esi
	movl	%r12d, %edx
	movl	%r15d, %ecx
	movl	%r14d, %r8d
	callq	FastPelY_14.6
	movzwl	%ax, %eax
	addq	$8, %rsp
	popq	%rbx
	popq	%r12
	popq	%r13
	popq	%r14
	popq	%r15
	popq	%rbp
	.cfi_def_cfa %rsp, 8
	retq
.LBB7_4:                                # %func_FastPelY_14.11
	.cfi_def_cfa %rbp, 16
	movq	%rbx, %rdi
	movl	%r13d, %esi
	movl	%r12d, %edx
	movl	%r15d, %ecx
	movl	%r14d, %r8d
	callq	FastPelY_14.11
	movzwl	%ax, %eax
	addq	$8, %rsp
	popq	%rbx
	popq	%r12
	popq	%r13
	popq	%r14
	popq	%r15
	popq	%rbp
	.cfi_def_cfa %rsp, 8
	retq
.LBB7_5:                                # %func_FastPelY_14.12
	.cfi_def_cfa %rbp, 16
	movq	%rbx, %rdi
	movl	%r13d, %esi
	movl	%r12d, %edx
	movl	%r15d, %ecx
	movl	%r14d, %r8d
	callq	FastPelY_14.12
	movzwl	%ax, %eax
	addq	$8, %rsp
	popq	%rbx
	popq	%r12
	popq	%r13
	popq	%r14
	popq	%r15
	popq	%rbp
	.cfi_def_cfa %rsp, 8
	retq
.LBB7_6:                                # %func_FastPelY_14.13
	.cfi_def_cfa %rbp, 16
	movq	%rbx, %rdi
	movl	%r13d, %esi
	movl	%r12d, %edx
	movl	%r15d, %ecx
	movl	%r14d, %r8d
	callq	FastPelY_14.13
	movzwl	%ax, %eax
	addq	$8, %rsp
	popq	%rbx
	popq	%r12
	popq	%r13
	popq	%r14
	popq	%r15
	popq	%rbp
	.cfi_def_cfa %rsp, 8
	retq
.LBB7_7:                                # %func_FastPelY_14.21
	.cfi_def_cfa %rbp, 16
	movq	%rbx, %rdi
	movl	%r13d, %esi
	movl	%r12d, %edx
	movl	%r15d, %ecx
	movl	%r14d, %r8d
	callq	FastPelY_14.21
	movzwl	%ax, %eax
	addq	$8, %rsp
	popq	%rbx
	popq	%r12
	popq	%r13
	popq	%r14
	popq	%r15
	popq	%rbp
	.cfi_def_cfa %rsp, 8
	retq
.LBB7_8:                                # %func_FastPelY_14.29
	.cfi_def_cfa %rbp, 16
	movq	%rbx, %rdi
	movl	%r13d, %esi
	movl	%r12d, %edx
	movl	%r15d, %ecx
	movl	%r14d, %r8d
	callq	FastPelY_14.29
	movzwl	%ax, %eax
	addq	$8, %rsp
	popq	%rbx
	popq	%r12
	popq	%r13
	popq	%r14
	popq	%r15
	popq	%rbp
	.cfi_def_cfa %rsp, 8
	retq
.LBB7_9:                                # %func_FastPelY_14.30
	.cfi_def_cfa %rbp, 16
	movq	%rbx, %rdi
	movl	%r13d, %esi
	movl	%r12d, %edx
	movl	%r15d, %ecx
	movl	%r14d, %r8d
	callq	FastPelY_14.30
	movzwl	%ax, %eax
	addq	$8, %rsp
	popq	%rbx
	popq	%r12
	popq	%r13
	popq	%r14
	popq	%r15
	popq	%rbp
	.cfi_def_cfa %rsp, 8
	retq
.LBB7_10:                               # %func_FastPelY_14.31
	.cfi_def_cfa %rbp, 16
	movq	%rbx, %rdi
	movl	%r13d, %esi
	movl	%r12d, %edx
	movl	%r15d, %ecx
	movl	%r14d, %r8d
	callq	FastPelY_14.31
	movzwl	%ax, %eax
	addq	$8, %rsp
	popq	%rbx
	popq	%r12
	popq	%r13
	popq	%r14
	popq	%r15
	popq	%rbp
	.cfi_def_cfa %rsp, 8
	retq
.LBB7_11:                               # %func_FastPelY_14.39
	.cfi_def_cfa %rbp, 16
	movq	%rbx, %rdi
	movl	%r13d, %esi
	movl	%r12d, %edx
	movl	%r15d, %ecx
	movl	%r14d, %r8d
	callq	FastPelY_14.39
	movzwl	%ax, %eax
	addq	$8, %rsp
	popq	%rbx
	popq	%r12
	popq	%r13
	popq	%r14
	popq	%r15
	popq	%rbp
	.cfi_def_cfa %rsp, 8
	retq
.LBB7_12:                               # %func_FastPelY_14.45
	.cfi_def_cfa %rbp, 16
	movq	%rbx, %rdi
	movl	%r13d, %esi
	movl	%r12d, %edx
	movl	%r15d, %ecx
	movl	%r14d, %r8d
	callq	FastPelY_14.45
	movzwl	%ax, %eax
	addq	$8, %rsp
	popq	%rbx
	popq	%r12
	popq	%r13
	popq	%r14
	popq	%r15
	popq	%rbp
	.cfi_def_cfa %rsp, 8
	retq
.LBB7_13:                               # %func_FastPelY_14.50
	.cfi_def_cfa %rbp, 16
	movq	%rbx, %rdi
	movl	%r13d, %esi
	movl	%r12d, %edx
	movl	%r15d, %ecx
	movl	%r14d, %r8d
	callq	FastPelY_14.50
	movzwl	%ax, %eax
	addq	$8, %rsp
	popq	%rbx
	popq	%r12
	popq	%r13
	popq	%r14
	popq	%r15
	popq	%rbp
	.cfi_def_cfa %rsp, 8
	retq
.LBB7_14:                               # %func_FastPelY_14.57
	.cfi_def_cfa %rbp, 16
	movq	%rbx, %rdi
	movl	%r13d, %esi
	movl	%r12d, %edx
	movl	%r15d, %ecx
	movl	%r14d, %r8d
	callq	FastPelY_14.57
	movzwl	%ax, %eax
	addq	$8, %rsp
	popq	%rbx
	popq	%r12
	popq	%r13
	popq	%r14
	popq	%r15
	popq	%rbp
	.cfi_def_cfa %rsp, 8
	retq
.LBB7_15:                               # %func_FastPelY_14.60
	.cfi_def_cfa %rbp, 16
	movq	%rbx, %rdi
	movl	%r13d, %esi
	movl	%r12d, %edx
	movl	%r15d, %ecx
	movl	%r14d, %r8d
	callq	FastPelY_14.60
	movzwl	%ax, %eax
	addq	$8, %rsp
	popq	%rbx
	popq	%r12
	popq	%r13
	popq	%r14
	popq	%r15
	popq	%rbp
	.cfi_def_cfa %rsp, 8
	retq
.LBB7_16:                               # %func_FastPelY_14.70
	.cfi_def_cfa %rbp, 16
	movq	%rbx, %rdi
	movl	%r13d, %esi
	movl	%r12d, %edx
	movl	%r15d, %ecx
	movl	%r14d, %r8d
	callq	FastPelY_14.70
	movzwl	%ax, %eax
	addq	$8, %rsp
	popq	%rbx
	popq	%r12
	popq	%r13
	popq	%r14
	popq	%r15
	popq	%rbp
	.cfi_def_cfa %rsp, 8
	retq
.LBB7_17:                               # %ctrl0
	.cfi_def_cfa %rbp, 16
	cmpl	$1, %eax
	je	.LBB7_2
# %bb.18:                               # %ctrl1
	cmpl	$2, %eax
	je	.LBB7_3
# %bb.19:                               # %ctrl2
	cmpl	$3, %eax
	je	.LBB7_4
# %bb.20:                               # %ctrl3
	cmpl	$4, %eax
	je	.LBB7_5
# %bb.21:                               # %ctrl4
	cmpl	$5, %eax
	je	.LBB7_6
# %bb.22:                               # %ctrl5
	cmpl	$6, %eax
	je	.LBB7_7
# %bb.23:                               # %ctrl6
	cmpl	$7, %eax
	je	.LBB7_8
# %bb.24:                               # %ctrl7
	cmpl	$8, %eax
	je	.LBB7_9
# %bb.25:                               # %ctrl8
	cmpl	$9, %eax
	je	.LBB7_10
# %bb.26:                               # %ctrl9
	cmpl	$10, %eax
	je	.LBB7_11
# %bb.27:                               # %ctrl10
	cmpl	$11, %eax
	je	.LBB7_12
# %bb.28:                               # %ctrl11
	cmpl	$12, %eax
	je	.LBB7_13
# %bb.29:                               # %ctrl12
	cmpl	$13, %eax
	je	.LBB7_14
# %bb.30:                               # %ctrl13
	cmpl	$14, %eax
	je	.LBB7_15
	jmp	.LBB7_16
.Lfunc_end7:
	.size	FastPelY_14, .Lfunc_end7-FastPelY_14
	.cfi_endproc
                                        # -- End function
	.globl	FastPelY_14.1           # -- Begin function FastPelY_14.1
	.p2align	4, 0x90
	.type	FastPelY_14.1,@function
FastPelY_14.1:                          # @FastPelY_14.1
	.cfi_startproc
# %bb.0:                                # %entry
	pushq	%rbp
	.cfi_def_cfa_offset 16
	.cfi_offset %rbp, -16
	movq	%rsp, %rbp
	.cfi_def_cfa_register %rbp
	pushq	%rbx
	subq	$40, %rsp
	.cfi_offset %rbx, -24
	movl	$227610644, -12(%rbp)   # imm = 0xD911014
	movq	%rdi, -32(%rbp)
	movl	%esi, -16(%rbp)
	movl	%edx, -20(%rbp)
	movl	%ecx, -36(%rbp)
	movl	%r8d, -40(%rbp)
	movq	-32(%rbp), %rax
	movl	-16(%rbp), %ecx
	addl	$16, %ecx
	movslq	%ecx, %rcx
	movq	(%rax,%rcx,8), %rax
	movl	-20(%rbp), %ecx
	addl	$16, %ecx
	movslq	%ecx, %rcx
	movw	(%rax,%rcx,2), %bx
	cmpl	$227610644, -12(%rbp)   # imm = 0xD911014
	jne	.LBB8_2
.LBB8_1:
	movzwl	%bx, %eax
	addq	$40, %rsp
	popq	%rbx
	popq	%rbp
	.cfi_def_cfa %rsp, 8
	retq
.LBB8_2:                                # %func_exit
	.cfi_def_cfa %rbp, 16
	callq	detect_breach
	jmp	.LBB8_1
.Lfunc_end8:
	.size	FastPelY_14.1, .Lfunc_end8-FastPelY_14.1
	.cfi_endproc
                                        # -- End function
	.globl	PutPel_11.2             # -- Begin function PutPel_11.2
	.p2align	4, 0x90
	.type	PutPel_11.2,@function
PutPel_11.2:                            # @PutPel_11.2
	.cfi_startproc
# %bb.0:                                # %entry
	pushq	%rbp
	.cfi_def_cfa_offset 16
	.cfi_offset %rbp, -16
	movq	%rsp, %rbp
	.cfi_def_cfa_register %rbp
	subq	$32, %rsp
	movl	$1298314696, -12(%rbp)  # imm = 0x4D62B5C8
	movq	%rdi, -32(%rbp)
	movl	%esi, -8(%rbp)
	movl	%edx, -16(%rbp)
	movw	%cx, -2(%rbp)
	movl	%r8d, -20(%rbp)
	movw	-2(%rbp), %ax
	movq	-32(%rbp), %rcx
	movl	-8(%rbp), %edx
	imull	-20(%rbp), %edx
	addl	-16(%rbp), %edx
	movslq	%edx, %rdx
	movw	%ax, (%rcx,%rdx,2)
	cmpl	$1298314696, -12(%rbp)  # imm = 0x4D62B5C8
	jne	.LBB9_2
.LBB9_1:
	addq	$32, %rsp
	popq	%rbp
	.cfi_def_cfa %rsp, 8
	retq
.LBB9_2:                                # %func_exit
	.cfi_def_cfa %rbp, 16
	callq	detect_breach
	jmp	.LBB9_1
.Lfunc_end9:
	.size	PutPel_11.2, .Lfunc_end9-PutPel_11.2
	.cfi_endproc
                                        # -- End function
	.globl	FastPelY_14.3           # -- Begin function FastPelY_14.3
	.p2align	4, 0x90
	.type	FastPelY_14.3,@function
FastPelY_14.3:                          # @FastPelY_14.3
	.cfi_startproc
# %bb.0:                                # %entry
	pushq	%rbp
	.cfi_def_cfa_offset 16
	.cfi_offset %rbp, -16
	movq	%rsp, %rbp
	.cfi_def_cfa_register %rbp
	pushq	%rbx
	subq	$40, %rsp
	.cfi_offset %rbx, -24
	movl	$1189089619, -16(%rbp)  # imm = 0x46E01153
	movq	%rdi, -32(%rbp)
	movl	%esi, -20(%rbp)
	movl	%edx, -12(%rbp)
	movl	%ecx, -36(%rbp)
	movl	%r8d, -40(%rbp)
	movq	-32(%rbp), %rax
	movl	-20(%rbp), %ecx
	addl	$16, %ecx
	movslq	%ecx, %rcx
	movq	(%rax,%rcx,8), %rax
	movl	-12(%rbp), %ecx
	addl	$16, %ecx
	movslq	%ecx, %rcx
	movw	(%rax,%rcx,2), %bx
	cmpl	$1189089619, -16(%rbp)  # imm = 0x46E01153
	jne	.LBB10_2
.LBB10_1:
	movzwl	%bx, %eax
	addq	$40, %rsp
	popq	%rbx
	popq	%rbp
	.cfi_def_cfa %rsp, 8
	retq
.LBB10_2:                               # %func_exit
	.cfi_def_cfa %rbp, 16
	callq	detect_breach
	jmp	.LBB10_1
.Lfunc_end10:
	.size	FastPelY_14.3, .Lfunc_end10-FastPelY_14.3
	.cfi_endproc
                                        # -- End function
	.globl	UMVPelY_14.4            # -- Begin function UMVPelY_14.4
	.p2align	4, 0x90
	.type	UMVPelY_14.4,@function
UMVPelY_14.4:                           # @UMVPelY_14.4
	.cfi_startproc
# %bb.0:                                # %entry
	pushq	%rbp
	.cfi_def_cfa_offset 16
	.cfi_offset %rbp, -16
	movq	%rsp, %rbp
	.cfi_def_cfa_register %rbp
	pushq	%rbx
	subq	$40, %rsp
	.cfi_offset %rbx, -24
	movl	$1365592657, -48(%rbp)  # imm = 0x51654A51
	movq	%rdi, -32(%rbp)
	movl	%esi, -16(%rbp)
	movl	%edx, -20(%rbp)
	movl	%ecx, -40(%rbp)
	movl	%r8d, -44(%rbp)
	movl	-44(%rbp), %eax
	addl	$8, %eax
	subl	$1, %eax
	shll	$2, %eax
	movl	%eax, -36(%rbp)
	movl	-40(%rbp), %eax
	addl	$8, %eax
	subl	$1, %eax
	shll	$2, %eax
	movl	%eax, -24(%rbp)
	movl	-20(%rbp), %eax
	addl	$16, %eax
	movl	%eax, -20(%rbp)
	movl	-16(%rbp), %eax
	addl	$16, %eax
	movl	%eax, -16(%rbp)
	cmpl	$0, -20(%rbp)
	jge	.LBB11_6
# %bb.1:                                # %if.then
	cmpl	$0, -16(%rbp)
	jge	.LBB11_3
# %bb.2:                                # %if.then7
	movq	-32(%rbp), %rax
	movl	-16(%rbp), %ecx
	andl	$3, %ecx
	movslq	%ecx, %rcx
	movq	(%rax,%rcx,8), %rax
	movl	-20(%rbp), %ecx
	andl	$3, %ecx
	movslq	%ecx, %rcx
	movw	(%rax,%rcx,2), %ax
	movw	%ax, -10(%rbp)
	jmp	.LBB11_17
.LBB11_3:                               # %if.end
	movl	-16(%rbp), %eax
	cmpl	-24(%rbp), %eax
	jle	.LBB11_5
# %bb.4:                                # %if.then12
	movq	-32(%rbp), %rax
	movl	-24(%rbp), %ecx
	movl	-16(%rbp), %edx
	andl	$3, %edx
	addl	%edx, %ecx
	movslq	%ecx, %rcx
	movq	(%rax,%rcx,8), %rax
	movl	-20(%rbp), %ecx
	andl	$3, %ecx
	movslq	%ecx, %rcx
	movw	(%rax,%rcx,2), %ax
	movw	%ax, -10(%rbp)
	jmp	.LBB11_17
.LBB11_5:                               # %if.end20
	movq	-32(%rbp), %rax
	movslq	-16(%rbp), %rcx
	movq	(%rax,%rcx,8), %rax
	movl	-20(%rbp), %ecx
	andl	$3, %ecx
	movslq	%ecx, %rcx
	movw	(%rax,%rcx,2), %ax
	movw	%ax, -10(%rbp)
	jmp	.LBB11_17
.LBB11_6:                               # %if.end26
	movl	-20(%rbp), %eax
	cmpl	-36(%rbp), %eax
	jle	.LBB11_12
# %bb.7:                                # %if.then28
	cmpl	$0, -16(%rbp)
	jge	.LBB11_9
# %bb.8:                                # %if.then30
	movq	-32(%rbp), %rax
	movl	-16(%rbp), %ecx
	andl	$3, %ecx
	movslq	%ecx, %rcx
	movq	(%rax,%rcx,8), %rax
	movl	-36(%rbp), %ecx
	movl	-20(%rbp), %edx
	andl	$3, %edx
	addl	%edx, %ecx
	movslq	%ecx, %rcx
	movw	(%rax,%rcx,2), %ax
	movw	%ax, -10(%rbp)
	jmp	.LBB11_17
.LBB11_9:                               # %if.end38
	movl	-16(%rbp), %eax
	cmpl	-24(%rbp), %eax
	jle	.LBB11_11
# %bb.10:                               # %if.then40
	movq	-32(%rbp), %rax
	movl	-24(%rbp), %ecx
	movl	-16(%rbp), %edx
	andl	$3, %edx
	addl	%edx, %ecx
	movslq	%ecx, %rcx
	movq	(%rax,%rcx,8), %rax
	movl	-36(%rbp), %ecx
	movl	-20(%rbp), %edx
	andl	$3, %edx
	addl	%edx, %ecx
	movslq	%ecx, %rcx
	movw	(%rax,%rcx,2), %ax
	movw	%ax, -10(%rbp)
	jmp	.LBB11_17
.LBB11_11:                              # %if.end49
	movq	-32(%rbp), %rax
	movslq	-16(%rbp), %rcx
	movq	(%rax,%rcx,8), %rax
	movl	-36(%rbp), %ecx
	movl	-20(%rbp), %edx
	andl	$3, %edx
	addl	%edx, %ecx
	movslq	%ecx, %rcx
	movw	(%rax,%rcx,2), %ax
	movw	%ax, -10(%rbp)
	jmp	.LBB11_17
.LBB11_12:                              # %if.end56
	cmpl	$0, -16(%rbp)
	jge	.LBB11_14
# %bb.13:                               # %if.then58
	movq	-32(%rbp), %rax
	movl	-16(%rbp), %ecx
	andl	$3, %ecx
	movslq	%ecx, %rcx
	movq	(%rax,%rcx,8), %rax
	movslq	-20(%rbp), %rcx
	movw	(%rax,%rcx,2), %ax
	movw	%ax, -10(%rbp)
	jmp	.LBB11_17
.LBB11_14:                              # %if.end64
	movl	-16(%rbp), %eax
	cmpl	-24(%rbp), %eax
	jle	.LBB11_16
# %bb.15:                               # %if.then66
	movq	-32(%rbp), %rax
	movl	-24(%rbp), %ecx
	movl	-16(%rbp), %edx
	andl	$3, %edx
	addl	%edx, %ecx
	movslq	%ecx, %rcx
	movq	(%rax,%rcx,8), %rax
	movslq	-20(%rbp), %rcx
	movw	(%rax,%rcx,2), %ax
	movw	%ax, -10(%rbp)
	jmp	.LBB11_17
.LBB11_16:                              # %if.end73
	movq	-32(%rbp), %rax
	movslq	-16(%rbp), %rcx
	movq	(%rax,%rcx,8), %rax
	movslq	-20(%rbp), %rcx
	movw	(%rax,%rcx,2), %ax
	movw	%ax, -10(%rbp)
.LBB11_17:                              # %return
	movw	-10(%rbp), %bx
	cmpl	$1365592657, -48(%rbp)  # imm = 0x51654A51
	jne	.LBB11_19
.LBB11_18:
	movzwl	%bx, %eax
	addq	$40, %rsp
	popq	%rbx
	popq	%rbp
	.cfi_def_cfa %rsp, 8
	retq
.LBB11_19:                              # %func_exit
	.cfi_def_cfa %rbp, 16
	callq	detect_breach
	jmp	.LBB11_18
.Lfunc_end11:
	.size	UMVPelY_14.4, .Lfunc_end11-UMVPelY_14.4
	.cfi_endproc
                                        # -- End function
	.globl	UMVLineX.5              # -- Begin function UMVLineX.5
	.p2align	4, 0x90
	.type	UMVLineX.5,@function
UMVLineX.5:                             # @UMVLineX.5
	.cfi_startproc
# %bb.0:                                # %entry
	pushq	%rbp
	.cfi_def_cfa_offset 16
	.cfi_offset %rbp, -16
	movq	%rsp, %rbp
	.cfi_def_cfa_register %rbp
	pushq	%rbx
	subq	$72, %rsp
	.cfi_offset %rbx, -24
	movl	$409503115, -52(%rbp)   # imm = 0x1868858B
	movl	%edi, -28(%rbp)
	movq	%rsi, -72(%rbp)
	movl	%edx, -36(%rbp)
	movl	%ecx, -16(%rbp)
	movl	%r8d, -32(%rbp)
	movl	%r9d, -24(%rbp)
	movq	-72(%rbp), %rax
	movl	-32(%rbp), %ecx
	subl	$1, %ecx
	cmpl	-36(%rbp), %ecx
	jge	.LBB12_2
# %bb.1:                                # %cond.true
	movl	-32(%rbp), %ecx
	subl	$1, %ecx
	jmp	.LBB12_3
.LBB12_2:                               # %cond.false
	movl	-36(%rbp), %ecx
.LBB12_3:                               # %cond.end
	xorl	%edx, %edx
	cmpl	%ecx, %edx
	jle	.LBB12_5
# %bb.4:                                # %cond.true3
	xorl	%ecx, %ecx
	jmp	.LBB12_9
.LBB12_5:                               # %cond.false4
	movl	-32(%rbp), %ecx
	subl	$1, %ecx
	cmpl	-36(%rbp), %ecx
	jge	.LBB12_7
# %bb.6:                                # %cond.true7
	movl	-32(%rbp), %ecx
	subl	$1, %ecx
	jmp	.LBB12_8
.LBB12_7:                               # %cond.false9
	movl	-36(%rbp), %ecx
.LBB12_8:                               # %cond.end10
.LBB12_9:                               # %cond.end12
	imull	-24(%rbp), %ecx
	movslq	%ecx, %rcx
	shlq	$1, %rcx
	addq	%rcx, %rax
	movq	%rax, -48(%rbp)
	cmpl	$0, -16(%rbp)
	jge	.LBB12_22
# %bb.10:                               # %if.then
	xorl	%eax, %eax
	movl	-16(%rbp), %ecx
	addl	-28(%rbp), %ecx
	cmpl	%ecx, %eax
	jge	.LBB12_12
# %bb.11:                               # %cond.true16
	xorl	%eax, %eax
	jmp	.LBB12_13
.LBB12_12:                              # %cond.false17
	movl	-16(%rbp), %eax
	addl	-28(%rbp), %eax
.LBB12_13:                              # %cond.end19
	movl	%eax, -20(%rbp)
	movl	-16(%rbp), %eax
	movl	%eax, -12(%rbp)
.LBB12_14:                              # %for.cond
                                        # =>This Inner Loop Header: Depth=1
	movl	-12(%rbp), %eax
	cmpl	-20(%rbp), %eax
	jge	.LBB12_17
# %bb.15:                               # %for.body
                                        #   in Loop: Header=BB12_14 Depth=1
	movq	-48(%rbp), %rax
	movw	(%rax), %ax
	movl	-12(%rbp), %ecx
	subl	-16(%rbp), %ecx
	movslq	%ecx, %rcx
	movw	%ax, line(,%rcx,2)
# %bb.16:                               # %for.inc
                                        #   in Loop: Header=BB12_14 Depth=1
	movl	-12(%rbp), %eax
	addl	$1, %eax
	movl	%eax, -12(%rbp)
	jmp	.LBB12_14
.LBB12_17:                              # %for.end
	movl	-16(%rbp), %eax
	addl	-28(%rbp), %eax
	movl	%eax, -20(%rbp)
	movl	$0, -12(%rbp)
.LBB12_18:                              # %for.cond25
                                        # =>This Inner Loop Header: Depth=1
	movl	-12(%rbp), %eax
	cmpl	-20(%rbp), %eax
	jge	.LBB12_21
# %bb.19:                               # %for.body27
                                        #   in Loop: Header=BB12_18 Depth=1
	movq	-48(%rbp), %rax
	movslq	-12(%rbp), %rcx
	movw	(%rax,%rcx,2), %ax
	movl	-12(%rbp), %ecx
	subl	-16(%rbp), %ecx
	movslq	%ecx, %rcx
	movw	%ax, line(,%rcx,2)
# %bb.20:                               # %for.inc33
                                        #   in Loop: Header=BB12_18 Depth=1
	movl	-12(%rbp), %eax
	addl	$1, %eax
	movl	%eax, -12(%rbp)
	jmp	.LBB12_18
.LBB12_21:                              # %for.end35
	jmp	.LBB12_37
.LBB12_22:                              # %if.else
	movl	-16(%rbp), %eax
	movl	-24(%rbp), %ecx
	subl	-28(%rbp), %ecx
	cmpl	%ecx, %eax
	jle	.LBB12_35
# %bb.23:                               # %if.then38
	movl	-24(%rbp), %eax
	movl	%eax, -20(%rbp)
	movl	-16(%rbp), %eax
	movl	%eax, -12(%rbp)
.LBB12_24:                              # %for.cond39
                                        # =>This Inner Loop Header: Depth=1
	movl	-12(%rbp), %eax
	cmpl	-20(%rbp), %eax
	jge	.LBB12_27
# %bb.25:                               # %for.body41
                                        #   in Loop: Header=BB12_24 Depth=1
	movq	-48(%rbp), %rax
	movslq	-12(%rbp), %rcx
	movw	(%rax,%rcx,2), %ax
	movl	-12(%rbp), %ecx
	subl	-16(%rbp), %ecx
	movslq	%ecx, %rcx
	movw	%ax, line(,%rcx,2)
# %bb.26:                               # %for.inc47
                                        #   in Loop: Header=BB12_24 Depth=1
	movl	-12(%rbp), %eax
	addl	$1, %eax
	movl	%eax, -12(%rbp)
	jmp	.LBB12_24
.LBB12_27:                              # %for.end49
	movl	-16(%rbp), %eax
	addl	-28(%rbp), %eax
	movl	%eax, -20(%rbp)
	movl	-24(%rbp), %eax
	cmpl	-16(%rbp), %eax
	jle	.LBB12_29
# %bb.28:                               # %cond.true52
	movl	-24(%rbp), %eax
	jmp	.LBB12_30
.LBB12_29:                              # %cond.false53
	movl	-16(%rbp), %eax
.LBB12_30:                              # %cond.end54
	movl	%eax, -12(%rbp)
.LBB12_31:                              # %for.cond56
                                        # =>This Inner Loop Header: Depth=1
	movl	-12(%rbp), %eax
	cmpl	-20(%rbp), %eax
	jge	.LBB12_34
# %bb.32:                               # %for.body58
                                        #   in Loop: Header=BB12_31 Depth=1
	movq	-48(%rbp), %rax
	movl	-24(%rbp), %ecx
	subl	$1, %ecx
	movslq	%ecx, %rcx
	movw	(%rax,%rcx,2), %ax
	movl	-12(%rbp), %ecx
	subl	-16(%rbp), %ecx
	movslq	%ecx, %rcx
	movw	%ax, line(,%rcx,2)
# %bb.33:                               # %for.inc65
                                        #   in Loop: Header=BB12_31 Depth=1
	movl	-12(%rbp), %eax
	addl	$1, %eax
	movl	%eax, -12(%rbp)
	jmp	.LBB12_31
.LBB12_34:                              # %for.end67
	jmp	.LBB12_36
.LBB12_35:                              # %if.else68
	movq	-48(%rbp), %rax
	movslq	-16(%rbp), %rcx
	shlq	$1, %rcx
	addq	%rcx, %rax
	movq	%rax, -64(%rbp)
	jmp	.LBB12_38
.LBB12_36:                              # %if.end
	jmp	.LBB12_37
.LBB12_37:                              # %if.end71
	movabsq	$line, %rax
	movq	%rax, -64(%rbp)
.LBB12_38:                              # %return
	movq	-64(%rbp), %rbx
	cmpl	$409503115, -52(%rbp)   # imm = 0x1868858B
	jne	.LBB12_40
.LBB12_39:
	movq	%rbx, %rax
	addq	$72, %rsp
	popq	%rbx
	popq	%rbp
	.cfi_def_cfa %rsp, 8
	retq
.LBB12_40:                              # %func_exit
	.cfi_def_cfa %rbp, 16
	callq	detect_breach
	jmp	.LBB12_39
.Lfunc_end12:
	.size	UMVLineX.5, .Lfunc_end12-UMVLineX.5
	.cfi_endproc
                                        # -- End function
	.globl	FastPelY_14.6           # -- Begin function FastPelY_14.6
	.p2align	4, 0x90
	.type	FastPelY_14.6,@function
FastPelY_14.6:                          # @FastPelY_14.6
	.cfi_startproc
# %bb.0:                                # %entry
	pushq	%rbp
	.cfi_def_cfa_offset 16
	.cfi_offset %rbp, -16
	movq	%rsp, %rbp
	.cfi_def_cfa_register %rbp
	pushq	%rbx
	subq	$40, %rsp
	.cfi_offset %rbx, -24
	movl	$1079074647, -16(%rbp)  # imm = 0x40515F57
	movq	%rdi, -32(%rbp)
	movl	%esi, -20(%rbp)
	movl	%edx, -12(%rbp)
	movl	%ecx, -36(%rbp)
	movl	%r8d, -40(%rbp)
	movq	-32(%rbp), %rax
	movl	-20(%rbp), %ecx
	addl	$16, %ecx
	movslq	%ecx, %rcx
	movq	(%rax,%rcx,8), %rax
	movl	-12(%rbp), %ecx
	addl	$16, %ecx
	movslq	%ecx, %rcx
	movw	(%rax,%rcx,2), %bx
	cmpl	$1079074647, -16(%rbp)  # imm = 0x40515F57
	jne	.LBB13_2
.LBB13_1:
	movzwl	%bx, %eax
	addq	$40, %rsp
	popq	%rbx
	popq	%rbp
	.cfi_def_cfa %rsp, 8
	retq
.LBB13_2:                               # %func_exit
	.cfi_def_cfa %rbp, 16
	callq	detect_breach
	jmp	.LBB13_1
.Lfunc_end13:
	.size	FastPelY_14.6, .Lfunc_end13-FastPelY_14.6
	.cfi_endproc
                                        # -- End function
	.globl	UMVLine16Y_11.7         # -- Begin function UMVLine16Y_11.7
	.p2align	4, 0x90
	.type	UMVLine16Y_11.7,@function
UMVLine16Y_11.7:                        # @UMVLine16Y_11.7
	.cfi_startproc
# %bb.0:                                # %entry
	pushq	%rbp
	.cfi_def_cfa_offset 16
	.cfi_offset %rbp, -16
	movq	%rsp, %rbp
	.cfi_def_cfa_register %rbp
	pushq	%rbx
	subq	$56, %rsp
	.cfi_offset %rbx, -24
	movl	$617232841, -44(%rbp)   # imm = 0x24CA39C9
	movq	%rdi, -64(%rbp)
	movl	%esi, -32(%rbp)
	movl	%edx, -16(%rbp)
	movl	%ecx, -28(%rbp)
	movl	%r8d, -24(%rbp)
	movq	-64(%rbp), %rax
	movl	-28(%rbp), %ecx
	subl	$1, %ecx
	cmpl	-32(%rbp), %ecx
	jge	.LBB14_2
# %bb.1:                                # %cond.true
	movl	-28(%rbp), %ecx
	subl	$1, %ecx
	jmp	.LBB14_3
.LBB14_2:                               # %cond.false
	movl	-32(%rbp), %ecx
.LBB14_3:                               # %cond.end
	xorl	%edx, %edx
	cmpl	%ecx, %edx
	jle	.LBB14_5
# %bb.4:                                # %cond.true3
	xorl	%ecx, %ecx
	jmp	.LBB14_9
.LBB14_5:                               # %cond.false4
	movl	-28(%rbp), %ecx
	subl	$1, %ecx
	cmpl	-32(%rbp), %ecx
	jge	.LBB14_7
# %bb.6:                                # %cond.true7
	movl	-28(%rbp), %ecx
	subl	$1, %ecx
	jmp	.LBB14_8
.LBB14_7:                               # %cond.false9
	movl	-32(%rbp), %ecx
.LBB14_8:                               # %cond.end10
.LBB14_9:                               # %cond.end12
	imull	-24(%rbp), %ecx
	movslq	%ecx, %rcx
	shlq	$1, %rcx
	addq	%rcx, %rax
	movq	%rax, -40(%rbp)
	cmpl	$0, -16(%rbp)
	jge	.LBB14_22
# %bb.10:                               # %if.then
	xorl	%eax, %eax
	movl	-16(%rbp), %ecx
	addl	$16, %ecx
	cmpl	%ecx, %eax
	jge	.LBB14_12
# %bb.11:                               # %cond.true16
	xorl	%eax, %eax
	jmp	.LBB14_13
.LBB14_12:                              # %cond.false17
	movl	-16(%rbp), %eax
	addl	$16, %eax
.LBB14_13:                              # %cond.end19
	movl	%eax, -20(%rbp)
	movl	-16(%rbp), %eax
	movl	%eax, -12(%rbp)
.LBB14_14:                              # %for.cond
                                        # =>This Inner Loop Header: Depth=1
	movl	-12(%rbp), %eax
	cmpl	-20(%rbp), %eax
	jge	.LBB14_17
# %bb.15:                               # %for.body
                                        #   in Loop: Header=BB14_14 Depth=1
	movq	-40(%rbp), %rax
	movw	(%rax), %ax
	movl	-12(%rbp), %ecx
	subl	-16(%rbp), %ecx
	movslq	%ecx, %rcx
	movw	%ax, line(,%rcx,2)
# %bb.16:                               # %for.inc
                                        #   in Loop: Header=BB14_14 Depth=1
	movl	-12(%rbp), %eax
	addl	$1, %eax
	movl	%eax, -12(%rbp)
	jmp	.LBB14_14
.LBB14_17:                              # %for.end
	movl	-16(%rbp), %eax
	addl	$16, %eax
	movl	%eax, -20(%rbp)
	movl	$0, -12(%rbp)
.LBB14_18:                              # %for.cond27
                                        # =>This Inner Loop Header: Depth=1
	movl	-12(%rbp), %eax
	cmpl	-20(%rbp), %eax
	jge	.LBB14_21
# %bb.19:                               # %for.body29
                                        #   in Loop: Header=BB14_18 Depth=1
	movq	-40(%rbp), %rax
	movslq	-12(%rbp), %rcx
	movw	(%rax,%rcx,2), %ax
	movl	-12(%rbp), %ecx
	subl	-16(%rbp), %ecx
	movslq	%ecx, %rcx
	movw	%ax, line(,%rcx,2)
# %bb.20:                               # %for.inc35
                                        #   in Loop: Header=BB14_18 Depth=1
	movl	-12(%rbp), %eax
	addl	$1, %eax
	movl	%eax, -12(%rbp)
	jmp	.LBB14_18
.LBB14_21:                              # %for.end37
	jmp	.LBB14_37
.LBB14_22:                              # %if.else
	movl	-16(%rbp), %eax
	movl	-24(%rbp), %ecx
	subl	$16, %ecx
	cmpl	%ecx, %eax
	jle	.LBB14_35
# %bb.23:                               # %if.then40
	movl	-24(%rbp), %eax
	movl	%eax, -20(%rbp)
	movl	-16(%rbp), %eax
	movl	%eax, -12(%rbp)
.LBB14_24:                              # %for.cond41
                                        # =>This Inner Loop Header: Depth=1
	movl	-12(%rbp), %eax
	cmpl	-20(%rbp), %eax
	jge	.LBB14_27
# %bb.25:                               # %for.body43
                                        #   in Loop: Header=BB14_24 Depth=1
	movq	-40(%rbp), %rax
	movslq	-12(%rbp), %rcx
	movw	(%rax,%rcx,2), %ax
	movl	-12(%rbp), %ecx
	subl	-16(%rbp), %ecx
	movslq	%ecx, %rcx
	movw	%ax, line(,%rcx,2)
# %bb.26:                               # %for.inc49
                                        #   in Loop: Header=BB14_24 Depth=1
	movl	-12(%rbp), %eax
	addl	$1, %eax
	movl	%eax, -12(%rbp)
	jmp	.LBB14_24
.LBB14_27:                              # %for.end51
	movl	-16(%rbp), %eax
	addl	$16, %eax
	movl	%eax, -20(%rbp)
	movl	-24(%rbp), %eax
	cmpl	-16(%rbp), %eax
	jle	.LBB14_29
# %bb.28:                               # %cond.true54
	movl	-24(%rbp), %eax
	jmp	.LBB14_30
.LBB14_29:                              # %cond.false55
	movl	-16(%rbp), %eax
.LBB14_30:                              # %cond.end56
	movl	%eax, -12(%rbp)
.LBB14_31:                              # %for.cond58
                                        # =>This Inner Loop Header: Depth=1
	movl	-12(%rbp), %eax
	cmpl	-20(%rbp), %eax
	jge	.LBB14_34
# %bb.32:                               # %for.body60
                                        #   in Loop: Header=BB14_31 Depth=1
	movq	-40(%rbp), %rax
	movl	-24(%rbp), %ecx
	subl	$1, %ecx
	movslq	%ecx, %rcx
	movw	(%rax,%rcx,2), %ax
	movl	-12(%rbp), %ecx
	subl	-16(%rbp), %ecx
	movslq	%ecx, %rcx
	movw	%ax, line(,%rcx,2)
# %bb.33:                               # %for.inc67
                                        #   in Loop: Header=BB14_31 Depth=1
	movl	-12(%rbp), %eax
	addl	$1, %eax
	movl	%eax, -12(%rbp)
	jmp	.LBB14_31
.LBB14_34:                              # %for.end69
	jmp	.LBB14_36
.LBB14_35:                              # %if.else70
	movq	-40(%rbp), %rax
	movslq	-16(%rbp), %rcx
	shlq	$1, %rcx
	addq	%rcx, %rax
	movq	%rax, -56(%rbp)
	jmp	.LBB14_38
.LBB14_36:                              # %if.end
	jmp	.LBB14_37
.LBB14_37:                              # %if.end73
	movabsq	$line, %rax
	movq	%rax, -56(%rbp)
.LBB14_38:                              # %return
	movq	-56(%rbp), %rbx
	cmpl	$617232841, -44(%rbp)   # imm = 0x24CA39C9
	jne	.LBB14_40
.LBB14_39:
	movq	%rbx, %rax
	addq	$56, %rsp
	popq	%rbx
	popq	%rbp
	.cfi_def_cfa %rsp, 8
	retq
.LBB14_40:                              # %func_exit
	.cfi_def_cfa %rbp, 16
	callq	detect_breach
	jmp	.LBB14_39
.Lfunc_end14:
	.size	UMVLine16Y_11.7, .Lfunc_end14-UMVLine16Y_11.7
	.cfi_endproc
                                        # -- End function
	.globl	FastLine16Y_11.8        # -- Begin function FastLine16Y_11.8
	.p2align	4, 0x90
	.type	FastLine16Y_11.8,@function
FastLine16Y_11.8:                       # @FastLine16Y_11.8
	.cfi_startproc
# %bb.0:                                # %entry
	pushq	%rbp
	.cfi_def_cfa_offset 16
	.cfi_offset %rbp, -16
	movq	%rsp, %rbp
	.cfi_def_cfa_register %rbp
	pushq	%rbx
	subq	$40, %rsp
	.cfi_offset %rbx, -24
	movl	$239408492, -12(%rbp)   # imm = 0xE45156C
	movq	%rdi, -32(%rbp)
	movl	%esi, -24(%rbp)
	movl	%edx, -20(%rbp)
	movl	%ecx, -36(%rbp)
	movl	%r8d, -16(%rbp)
	movq	-32(%rbp), %rbx
	movl	-24(%rbp), %eax
	imull	-16(%rbp), %eax
	addl	-20(%rbp), %eax
	cltq
	shlq	$1, %rax
	addq	%rax, %rbx
	cmpl	$239408492, -12(%rbp)   # imm = 0xE45156C
	jne	.LBB15_2
.LBB15_1:
	movq	%rbx, %rax
	addq	$40, %rsp
	popq	%rbx
	popq	%rbp
	.cfi_def_cfa %rsp, 8
	retq
.LBB15_2:                               # %func_exit
	.cfi_def_cfa %rbp, 16
	callq	detect_breach
	jmp	.LBB15_1
.Lfunc_end15:
	.size	FastLine16Y_11.8, .Lfunc_end15-FastLine16Y_11.8
	.cfi_endproc
                                        # -- End function
	.globl	UMVLineX.9              # -- Begin function UMVLineX.9
	.p2align	4, 0x90
	.type	UMVLineX.9,@function
UMVLineX.9:                             # @UMVLineX.9
	.cfi_startproc
# %bb.0:                                # %entry
	pushq	%rbp
	.cfi_def_cfa_offset 16
	.cfi_offset %rbp, -16
	movq	%rsp, %rbp
	.cfi_def_cfa_register %rbp
	pushq	%rbx
	subq	$72, %rsp
	.cfi_offset %rbx, -24
	movl	$1617583747, -52(%rbp)  # imm = 0x606A5E83
	movl	%edi, -28(%rbp)
	movq	%rsi, -72(%rbp)
	movl	%edx, -32(%rbp)
	movl	%ecx, -16(%rbp)
	movl	%r8d, -36(%rbp)
	movl	%r9d, -24(%rbp)
	movq	-72(%rbp), %rax
	movl	-36(%rbp), %ecx
	subl	$1, %ecx
	cmpl	-32(%rbp), %ecx
	jge	.LBB16_2
# %bb.1:                                # %cond.true
	movl	-36(%rbp), %ecx
	subl	$1, %ecx
	jmp	.LBB16_3
.LBB16_2:                               # %cond.false
	movl	-32(%rbp), %ecx
.LBB16_3:                               # %cond.end
	xorl	%edx, %edx
	cmpl	%ecx, %edx
	jle	.LBB16_5
# %bb.4:                                # %cond.true3
	xorl	%ecx, %ecx
	jmp	.LBB16_9
.LBB16_5:                               # %cond.false4
	movl	-36(%rbp), %ecx
	subl	$1, %ecx
	cmpl	-32(%rbp), %ecx
	jge	.LBB16_7
# %bb.6:                                # %cond.true7
	movl	-36(%rbp), %ecx
	subl	$1, %ecx
	jmp	.LBB16_8
.LBB16_7:                               # %cond.false9
	movl	-32(%rbp), %ecx
.LBB16_8:                               # %cond.end10
.LBB16_9:                               # %cond.end12
	imull	-24(%rbp), %ecx
	movslq	%ecx, %rcx
	shlq	$1, %rcx
	addq	%rcx, %rax
	movq	%rax, -48(%rbp)
	cmpl	$0, -16(%rbp)
	jge	.LBB16_22
# %bb.10:                               # %if.then
	xorl	%eax, %eax
	movl	-16(%rbp), %ecx
	addl	-28(%rbp), %ecx
	cmpl	%ecx, %eax
	jge	.LBB16_12
# %bb.11:                               # %cond.true16
	xorl	%eax, %eax
	jmp	.LBB16_13
.LBB16_12:                              # %cond.false17
	movl	-16(%rbp), %eax
	addl	-28(%rbp), %eax
.LBB16_13:                              # %cond.end19
	movl	%eax, -20(%rbp)
	movl	-16(%rbp), %eax
	movl	%eax, -12(%rbp)
.LBB16_14:                              # %for.cond
                                        # =>This Inner Loop Header: Depth=1
	movl	-12(%rbp), %eax
	cmpl	-20(%rbp), %eax
	jge	.LBB16_17
# %bb.15:                               # %for.body
                                        #   in Loop: Header=BB16_14 Depth=1
	movq	-48(%rbp), %rax
	movw	(%rax), %ax
	movl	-12(%rbp), %ecx
	subl	-16(%rbp), %ecx
	movslq	%ecx, %rcx
	movw	%ax, line(,%rcx,2)
# %bb.16:                               # %for.inc
                                        #   in Loop: Header=BB16_14 Depth=1
	movl	-12(%rbp), %eax
	addl	$1, %eax
	movl	%eax, -12(%rbp)
	jmp	.LBB16_14
.LBB16_17:                              # %for.end
	movl	-16(%rbp), %eax
	addl	-28(%rbp), %eax
	movl	%eax, -20(%rbp)
	movl	$0, -12(%rbp)
.LBB16_18:                              # %for.cond25
                                        # =>This Inner Loop Header: Depth=1
	movl	-12(%rbp), %eax
	cmpl	-20(%rbp), %eax
	jge	.LBB16_21
# %bb.19:                               # %for.body27
                                        #   in Loop: Header=BB16_18 Depth=1
	movq	-48(%rbp), %rax
	movslq	-12(%rbp), %rcx
	movw	(%rax,%rcx,2), %ax
	movl	-12(%rbp), %ecx
	subl	-16(%rbp), %ecx
	movslq	%ecx, %rcx
	movw	%ax, line(,%rcx,2)
# %bb.20:                               # %for.inc33
                                        #   in Loop: Header=BB16_18 Depth=1
	movl	-12(%rbp), %eax
	addl	$1, %eax
	movl	%eax, -12(%rbp)
	jmp	.LBB16_18
.LBB16_21:                              # %for.end35
	jmp	.LBB16_37
.LBB16_22:                              # %if.else
	movl	-16(%rbp), %eax
	movl	-24(%rbp), %ecx
	subl	-28(%rbp), %ecx
	cmpl	%ecx, %eax
	jle	.LBB16_35
# %bb.23:                               # %if.then38
	movl	-24(%rbp), %eax
	movl	%eax, -20(%rbp)
	movl	-16(%rbp), %eax
	movl	%eax, -12(%rbp)
.LBB16_24:                              # %for.cond39
                                        # =>This Inner Loop Header: Depth=1
	movl	-12(%rbp), %eax
	cmpl	-20(%rbp), %eax
	jge	.LBB16_27
# %bb.25:                               # %for.body41
                                        #   in Loop: Header=BB16_24 Depth=1
	movq	-48(%rbp), %rax
	movslq	-12(%rbp), %rcx
	movw	(%rax,%rcx,2), %ax
	movl	-12(%rbp), %ecx
	subl	-16(%rbp), %ecx
	movslq	%ecx, %rcx
	movw	%ax, line(,%rcx,2)
# %bb.26:                               # %for.inc47
                                        #   in Loop: Header=BB16_24 Depth=1
	movl	-12(%rbp), %eax
	addl	$1, %eax
	movl	%eax, -12(%rbp)
	jmp	.LBB16_24
.LBB16_27:                              # %for.end49
	movl	-16(%rbp), %eax
	addl	-28(%rbp), %eax
	movl	%eax, -20(%rbp)
	movl	-24(%rbp), %eax
	cmpl	-16(%rbp), %eax
	jle	.LBB16_29
# %bb.28:                               # %cond.true52
	movl	-24(%rbp), %eax
	jmp	.LBB16_30
.LBB16_29:                              # %cond.false53
	movl	-16(%rbp), %eax
.LBB16_30:                              # %cond.end54
	movl	%eax, -12(%rbp)
.LBB16_31:                              # %for.cond56
                                        # =>This Inner Loop Header: Depth=1
	movl	-12(%rbp), %eax
	cmpl	-20(%rbp), %eax
	jge	.LBB16_34
# %bb.32:                               # %for.body58
                                        #   in Loop: Header=BB16_31 Depth=1
	movq	-48(%rbp), %rax
	movl	-24(%rbp), %ecx
	subl	$1, %ecx
	movslq	%ecx, %rcx
	movw	(%rax,%rcx,2), %ax
	movl	-12(%rbp), %ecx
	subl	-16(%rbp), %ecx
	movslq	%ecx, %rcx
	movw	%ax, line(,%rcx,2)
# %bb.33:                               # %for.inc65
                                        #   in Loop: Header=BB16_31 Depth=1
	movl	-12(%rbp), %eax
	addl	$1, %eax
	movl	%eax, -12(%rbp)
	jmp	.LBB16_31
.LBB16_34:                              # %for.end67
	jmp	.LBB16_36
.LBB16_35:                              # %if.else68
	movq	-48(%rbp), %rax
	movslq	-16(%rbp), %rcx
	shlq	$1, %rcx
	addq	%rcx, %rax
	movq	%rax, -64(%rbp)
	jmp	.LBB16_38
.LBB16_36:                              # %if.end
	jmp	.LBB16_37
.LBB16_37:                              # %if.end71
	movabsq	$line, %rax
	movq	%rax, -64(%rbp)
.LBB16_38:                              # %return
	movq	-64(%rbp), %rbx
	cmpl	$1617583747, -52(%rbp)  # imm = 0x606A5E83
	jne	.LBB16_40
.LBB16_39:
	movq	%rbx, %rax
	addq	$72, %rsp
	popq	%rbx
	popq	%rbp
	.cfi_def_cfa %rsp, 8
	retq
.LBB16_40:                              # %func_exit
	.cfi_def_cfa %rbp, 16
	callq	detect_breach
	jmp	.LBB16_39
.Lfunc_end16:
	.size	UMVLineX.9, .Lfunc_end16-UMVLineX.9
	.cfi_endproc
                                        # -- End function
	.globl	FastLine16Y_11.10       # -- Begin function FastLine16Y_11.10
	.p2align	4, 0x90
	.type	FastLine16Y_11.10,@function
FastLine16Y_11.10:                      # @FastLine16Y_11.10
	.cfi_startproc
# %bb.0:                                # %entry
	pushq	%rbp
	.cfi_def_cfa_offset 16
	.cfi_offset %rbp, -16
	movq	%rsp, %rbp
	.cfi_def_cfa_register %rbp
	pushq	%rbx
	subq	$40, %rsp
	.cfi_offset %rbx, -24
	movl	$51995917, -20(%rbp)    # imm = 0x319650D
	movq	%rdi, -32(%rbp)
	movl	%esi, -16(%rbp)
	movl	%edx, -24(%rbp)
	movl	%ecx, -36(%rbp)
	movl	%r8d, -12(%rbp)
	movq	-32(%rbp), %rbx
	movl	-16(%rbp), %eax
	imull	-12(%rbp), %eax
	addl	-24(%rbp), %eax
	cltq
	shlq	$1, %rax
	addq	%rax, %rbx
	cmpl	$51995917, -20(%rbp)    # imm = 0x319650D
	jne	.LBB17_2
.LBB17_1:
	movq	%rbx, %rax
	addq	$40, %rsp
	popq	%rbx
	popq	%rbp
	.cfi_def_cfa %rsp, 8
	retq
.LBB17_2:                               # %func_exit
	.cfi_def_cfa %rbp, 16
	callq	detect_breach
	jmp	.LBB17_1
.Lfunc_end17:
	.size	FastLine16Y_11.10, .Lfunc_end17-FastLine16Y_11.10
	.cfi_endproc
                                        # -- End function
	.globl	FastPelY_14.11          # -- Begin function FastPelY_14.11
	.p2align	4, 0x90
	.type	FastPelY_14.11,@function
FastPelY_14.11:                         # @FastPelY_14.11
	.cfi_startproc
# %bb.0:                                # %entry
	pushq	%rbp
	.cfi_def_cfa_offset 16
	.cfi_offset %rbp, -16
	movq	%rsp, %rbp
	.cfi_def_cfa_register %rbp
	pushq	%rbx
	subq	$40, %rsp
	.cfi_offset %rbx, -24
	movl	$1613818437, -16(%rbp)  # imm = 0x6030EA45
	movq	%rdi, -32(%rbp)
	movl	%esi, -20(%rbp)
	movl	%edx, -12(%rbp)
	movl	%ecx, -36(%rbp)
	movl	%r8d, -40(%rbp)
	movq	-32(%rbp), %rax
	movl	-20(%rbp), %ecx
	addl	$16, %ecx
	movslq	%ecx, %rcx
	movq	(%rax,%rcx,8), %rax
	movl	-12(%rbp), %ecx
	addl	$16, %ecx
	movslq	%ecx, %rcx
	movw	(%rax,%rcx,2), %bx
	cmpl	$1613818437, -16(%rbp)  # imm = 0x6030EA45
	jne	.LBB18_2
.LBB18_1:
	movzwl	%bx, %eax
	addq	$40, %rsp
	popq	%rbx
	popq	%rbp
	.cfi_def_cfa %rsp, 8
	retq
.LBB18_2:                               # %func_exit
	.cfi_def_cfa %rbp, 16
	callq	detect_breach
	jmp	.LBB18_1
.Lfunc_end18:
	.size	FastPelY_14.11, .Lfunc_end18-FastPelY_14.11
	.cfi_endproc
                                        # -- End function
	.globl	FastPelY_14.12          # -- Begin function FastPelY_14.12
	.p2align	4, 0x90
	.type	FastPelY_14.12,@function
FastPelY_14.12:                         # @FastPelY_14.12
	.cfi_startproc
# %bb.0:                                # %entry
	pushq	%rbp
	.cfi_def_cfa_offset 16
	.cfi_offset %rbp, -16
	movq	%rsp, %rbp
	.cfi_def_cfa_register %rbp
	pushq	%rbx
	subq	$40, %rsp
	.cfi_offset %rbx, -24
	movl	$1064337461, -16(%rbp)  # imm = 0x3F708035
	movq	%rdi, -32(%rbp)
	movl	%esi, -20(%rbp)
	movl	%edx, -12(%rbp)
	movl	%ecx, -40(%rbp)
	movl	%r8d, -36(%rbp)
	movq	-32(%rbp), %rax
	movl	-20(%rbp), %ecx
	addl	$16, %ecx
	movslq	%ecx, %rcx
	movq	(%rax,%rcx,8), %rax
	movl	-12(%rbp), %ecx
	addl	$16, %ecx
	movslq	%ecx, %rcx
	movw	(%rax,%rcx,2), %bx
	cmpl	$1064337461, -16(%rbp)  # imm = 0x3F708035
	jne	.LBB19_2
.LBB19_1:
	movzwl	%bx, %eax
	addq	$40, %rsp
	popq	%rbx
	popq	%rbp
	.cfi_def_cfa %rsp, 8
	retq
.LBB19_2:                               # %func_exit
	.cfi_def_cfa %rbp, 16
	callq	detect_breach
	jmp	.LBB19_1
.Lfunc_end19:
	.size	FastPelY_14.12, .Lfunc_end19-FastPelY_14.12
	.cfi_endproc
                                        # -- End function
	.globl	FastPelY_14.13          # -- Begin function FastPelY_14.13
	.p2align	4, 0x90
	.type	FastPelY_14.13,@function
FastPelY_14.13:                         # @FastPelY_14.13
	.cfi_startproc
# %bb.0:                                # %entry
	pushq	%rbp
	.cfi_def_cfa_offset 16
	.cfi_offset %rbp, -16
	movq	%rsp, %rbp
	.cfi_def_cfa_register %rbp
	pushq	%rbx
	subq	$40, %rsp
	.cfi_offset %rbx, -24
	movl	$1600981664, -16(%rbp)  # imm = 0x5F6D0AA0
	movq	%rdi, -32(%rbp)
	movl	%esi, -20(%rbp)
	movl	%edx, -12(%rbp)
	movl	%ecx, -36(%rbp)
	movl	%r8d, -40(%rbp)
	movq	-32(%rbp), %rax
	movl	-20(%rbp), %ecx
	addl	$16, %ecx
	movslq	%ecx, %rcx
	movq	(%rax,%rcx,8), %rax
	movl	-12(%rbp), %ecx
	addl	$16, %ecx
	movslq	%ecx, %rcx
	movw	(%rax,%rcx,2), %bx
	cmpl	$1600981664, -16(%rbp)  # imm = 0x5F6D0AA0
	jne	.LBB20_2
.LBB20_1:
	movzwl	%bx, %eax
	addq	$40, %rsp
	popq	%rbx
	popq	%rbp
	.cfi_def_cfa %rsp, 8
	retq
.LBB20_2:                               # %func_exit
	.cfi_def_cfa %rbp, 16
	callq	detect_breach
	jmp	.LBB20_1
.Lfunc_end20:
	.size	FastPelY_14.13, .Lfunc_end20-FastPelY_14.13
	.cfi_endproc
                                        # -- End function
	.globl	PutPel_14.14            # -- Begin function PutPel_14.14
	.p2align	4, 0x90
	.type	PutPel_14.14,@function
PutPel_14.14:                           # @PutPel_14.14
	.cfi_startproc
# %bb.0:                                # %entry
	pushq	%rbp
	.cfi_def_cfa_offset 16
	.cfi_offset %rbp, -16
	movq	%rsp, %rbp
	.cfi_def_cfa_register %rbp
	subq	$32, %rsp
	movl	$807869399, -16(%rbp)   # imm = 0x30271BD7
	movq	%rdi, -24(%rbp)
	movl	%esi, -8(%rbp)
	movl	%edx, -12(%rbp)
	movw	%cx, -2(%rbp)
	movw	-2(%rbp), %ax
	movq	-24(%rbp), %rcx
	movl	-8(%rbp), %edx
	addl	$16, %edx
	movslq	%edx, %rdx
	movq	(%rcx,%rdx,8), %rcx
	movl	-12(%rbp), %edx
	addl	$16, %edx
	movslq	%edx, %rdx
	movw	%ax, (%rcx,%rdx,2)
	cmpl	$807869399, -16(%rbp)   # imm = 0x30271BD7
	jne	.LBB21_2
.LBB21_1:
	addq	$32, %rsp
	popq	%rbp
	.cfi_def_cfa %rsp, 8
	retq
.LBB21_2:                               # %func_exit
	.cfi_def_cfa %rbp, 16
	callq	detect_breach
	jmp	.LBB21_1
.Lfunc_end21:
	.size	PutPel_14.14, .Lfunc_end21-PutPel_14.14
	.cfi_endproc
                                        # -- End function
	.globl	FastLineX.15            # -- Begin function FastLineX.15
	.p2align	4, 0x90
	.type	FastLineX.15,@function
FastLineX.15:                           # @FastLineX.15
	.cfi_startproc
# %bb.0:                                # %entry
	pushq	%rbp
	.cfi_def_cfa_offset 16
	.cfi_offset %rbp, -16
	movq	%rsp, %rbp
	.cfi_def_cfa_register %rbp
	pushq	%rbx
	subq	$40, %rsp
	.cfi_offset %rbx, -24
	movl	$1265527421, -20(%rbp)  # imm = 0x4B6E6A7D
	movl	%edi, -36(%rbp)
	movq	%rsi, -32(%rbp)
	movl	%edx, -24(%rbp)
	movl	%ecx, -16(%rbp)
	movl	%r8d, -40(%rbp)
	movl	%r9d, -12(%rbp)
	movq	-32(%rbp), %rbx
	movl	-24(%rbp), %eax
	imull	-12(%rbp), %eax
	cltq
	shlq	$1, %rax
	addq	%rax, %rbx
	movslq	-16(%rbp), %rax
	shlq	$1, %rax
	addq	%rax, %rbx
	cmpl	$1265527421, -20(%rbp)  # imm = 0x4B6E6A7D
	jne	.LBB22_2
.LBB22_1:
	movq	%rbx, %rax
	addq	$40, %rsp
	popq	%rbx
	popq	%rbp
	.cfi_def_cfa %rsp, 8
	retq
.LBB22_2:                               # %func_exit
	.cfi_def_cfa %rbp, 16
	callq	detect_breach
	jmp	.LBB22_1
.Lfunc_end22:
	.size	FastLineX.15, .Lfunc_end22-FastLineX.15
	.cfi_endproc
                                        # -- End function
	.globl	PutPel_14.16            # -- Begin function PutPel_14.16
	.p2align	4, 0x90
	.type	PutPel_14.16,@function
PutPel_14.16:                           # @PutPel_14.16
	.cfi_startproc
# %bb.0:                                # %entry
	pushq	%rbp
	.cfi_def_cfa_offset 16
	.cfi_offset %rbp, -16
	movq	%rsp, %rbp
	.cfi_def_cfa_register %rbp
	subq	$32, %rsp
	movl	$1520535768, -12(%rbp)  # imm = 0x5AA188D8
	movq	%rdi, -24(%rbp)
	movl	%esi, -16(%rbp)
	movl	%edx, -8(%rbp)
	movw	%cx, -2(%rbp)
	movw	-2(%rbp), %ax
	movq	-24(%rbp), %rcx
	movl	-16(%rbp), %edx
	addl	$16, %edx
	movslq	%edx, %rdx
	movq	(%rcx,%rdx,8), %rcx
	movl	-8(%rbp), %edx
	addl	$16, %edx
	movslq	%edx, %rdx
	movw	%ax, (%rcx,%rdx,2)
	cmpl	$1520535768, -12(%rbp)  # imm = 0x5AA188D8
	jne	.LBB23_2
.LBB23_1:
	addq	$32, %rsp
	popq	%rbp
	.cfi_def_cfa %rsp, 8
	retq
.LBB23_2:                               # %func_exit
	.cfi_def_cfa %rbp, 16
	callq	detect_breach
	jmp	.LBB23_1
.Lfunc_end23:
	.size	PutPel_14.16, .Lfunc_end23-PutPel_14.16
	.cfi_endproc
                                        # -- End function
	.globl	FastLineX.17            # -- Begin function FastLineX.17
	.p2align	4, 0x90
	.type	FastLineX.17,@function
FastLineX.17:                           # @FastLineX.17
	.cfi_startproc
# %bb.0:                                # %entry
	pushq	%rbp
	.cfi_def_cfa_offset 16
	.cfi_offset %rbp, -16
	movq	%rsp, %rbp
	.cfi_def_cfa_register %rbp
	pushq	%rbx
	subq	$40, %rsp
	.cfi_offset %rbx, -24
	movl	$14243567, -24(%rbp)    # imm = 0xD956EF
	movl	%edi, -40(%rbp)
	movq	%rsi, -32(%rbp)
	movl	%edx, -12(%rbp)
	movl	%ecx, -16(%rbp)
	movl	%r8d, -36(%rbp)
	movl	%r9d, -20(%rbp)
	movq	-32(%rbp), %rbx
	movl	-12(%rbp), %eax
	imull	-20(%rbp), %eax
	cltq
	shlq	$1, %rax
	addq	%rax, %rbx
	movslq	-16(%rbp), %rax
	shlq	$1, %rax
	addq	%rax, %rbx
	cmpl	$14243567, -24(%rbp)    # imm = 0xD956EF
	jne	.LBB24_2
.LBB24_1:
	movq	%rbx, %rax
	addq	$40, %rsp
	popq	%rbx
	popq	%rbp
	.cfi_def_cfa %rsp, 8
	retq
.LBB24_2:                               # %func_exit
	.cfi_def_cfa %rbp, 16
	callq	detect_breach
	jmp	.LBB24_1
.Lfunc_end24:
	.size	FastLineX.17, .Lfunc_end24-FastLineX.17
	.cfi_endproc
                                        # -- End function
	.globl	UMVPelY_14.18           # -- Begin function UMVPelY_14.18
	.p2align	4, 0x90
	.type	UMVPelY_14.18,@function
UMVPelY_14.18:                          # @UMVPelY_14.18
	.cfi_startproc
# %bb.0:                                # %entry
	pushq	%rbp
	.cfi_def_cfa_offset 16
	.cfi_offset %rbp, -16
	movq	%rsp, %rbp
	.cfi_def_cfa_register %rbp
	pushq	%rbx
	subq	$40, %rsp
	.cfi_offset %rbx, -24
	movl	$1171347559, -44(%rbp)  # imm = 0x45D15867
	movq	%rdi, -32(%rbp)
	movl	%esi, -16(%rbp)
	movl	%edx, -20(%rbp)
	movl	%ecx, -40(%rbp)
	movl	%r8d, -48(%rbp)
	movl	-48(%rbp), %eax
	addl	$8, %eax
	subl	$1, %eax
	shll	$2, %eax
	movl	%eax, -36(%rbp)
	movl	-40(%rbp), %eax
	addl	$8, %eax
	subl	$1, %eax
	shll	$2, %eax
	movl	%eax, -24(%rbp)
	movl	-20(%rbp), %eax
	addl	$16, %eax
	movl	%eax, -20(%rbp)
	movl	-16(%rbp), %eax
	addl	$16, %eax
	movl	%eax, -16(%rbp)
	cmpl	$0, -20(%rbp)
	jge	.LBB25_6
# %bb.1:                                # %if.then
	cmpl	$0, -16(%rbp)
	jge	.LBB25_3
# %bb.2:                                # %if.then7
	movq	-32(%rbp), %rax
	movl	-16(%rbp), %ecx
	andl	$3, %ecx
	movslq	%ecx, %rcx
	movq	(%rax,%rcx,8), %rax
	movl	-20(%rbp), %ecx
	andl	$3, %ecx
	movslq	%ecx, %rcx
	movw	(%rax,%rcx,2), %ax
	movw	%ax, -10(%rbp)
	jmp	.LBB25_17
.LBB25_3:                               # %if.end
	movl	-16(%rbp), %eax
	cmpl	-24(%rbp), %eax
	jle	.LBB25_5
# %bb.4:                                # %if.then12
	movq	-32(%rbp), %rax
	movl	-24(%rbp), %ecx
	movl	-16(%rbp), %edx
	andl	$3, %edx
	addl	%edx, %ecx
	movslq	%ecx, %rcx
	movq	(%rax,%rcx,8), %rax
	movl	-20(%rbp), %ecx
	andl	$3, %ecx
	movslq	%ecx, %rcx
	movw	(%rax,%rcx,2), %ax
	movw	%ax, -10(%rbp)
	jmp	.LBB25_17
.LBB25_5:                               # %if.end20
	movq	-32(%rbp), %rax
	movslq	-16(%rbp), %rcx
	movq	(%rax,%rcx,8), %rax
	movl	-20(%rbp), %ecx
	andl	$3, %ecx
	movslq	%ecx, %rcx
	movw	(%rax,%rcx,2), %ax
	movw	%ax, -10(%rbp)
	jmp	.LBB25_17
.LBB25_6:                               # %if.end26
	movl	-20(%rbp), %eax
	cmpl	-36(%rbp), %eax
	jle	.LBB25_12
# %bb.7:                                # %if.then28
	cmpl	$0, -16(%rbp)
	jge	.LBB25_9
# %bb.8:                                # %if.then30
	movq	-32(%rbp), %rax
	movl	-16(%rbp), %ecx
	andl	$3, %ecx
	movslq	%ecx, %rcx
	movq	(%rax,%rcx,8), %rax
	movl	-36(%rbp), %ecx
	movl	-20(%rbp), %edx
	andl	$3, %edx
	addl	%edx, %ecx
	movslq	%ecx, %rcx
	movw	(%rax,%rcx,2), %ax
	movw	%ax, -10(%rbp)
	jmp	.LBB25_17
.LBB25_9:                               # %if.end38
	movl	-16(%rbp), %eax
	cmpl	-24(%rbp), %eax
	jle	.LBB25_11
# %bb.10:                               # %if.then40
	movq	-32(%rbp), %rax
	movl	-24(%rbp), %ecx
	movl	-16(%rbp), %edx
	andl	$3, %edx
	addl	%edx, %ecx
	movslq	%ecx, %rcx
	movq	(%rax,%rcx,8), %rax
	movl	-36(%rbp), %ecx
	movl	-20(%rbp), %edx
	andl	$3, %edx
	addl	%edx, %ecx
	movslq	%ecx, %rcx
	movw	(%rax,%rcx,2), %ax
	movw	%ax, -10(%rbp)
	jmp	.LBB25_17
.LBB25_11:                              # %if.end49
	movq	-32(%rbp), %rax
	movslq	-16(%rbp), %rcx
	movq	(%rax,%rcx,8), %rax
	movl	-36(%rbp), %ecx
	movl	-20(%rbp), %edx
	andl	$3, %edx
	addl	%edx, %ecx
	movslq	%ecx, %rcx
	movw	(%rax,%rcx,2), %ax
	movw	%ax, -10(%rbp)
	jmp	.LBB25_17
.LBB25_12:                              # %if.end56
	cmpl	$0, -16(%rbp)
	jge	.LBB25_14
# %bb.13:                               # %if.then58
	movq	-32(%rbp), %rax
	movl	-16(%rbp), %ecx
	andl	$3, %ecx
	movslq	%ecx, %rcx
	movq	(%rax,%rcx,8), %rax
	movslq	-20(%rbp), %rcx
	movw	(%rax,%rcx,2), %ax
	movw	%ax, -10(%rbp)
	jmp	.LBB25_17
.LBB25_14:                              # %if.end64
	movl	-16(%rbp), %eax
	cmpl	-24(%rbp), %eax
	jle	.LBB25_16
# %bb.15:                               # %if.then66
	movq	-32(%rbp), %rax
	movl	-24(%rbp), %ecx
	movl	-16(%rbp), %edx
	andl	$3, %edx
	addl	%edx, %ecx
	movslq	%ecx, %rcx
	movq	(%rax,%rcx,8), %rax
	movslq	-20(%rbp), %rcx
	movw	(%rax,%rcx,2), %ax
	movw	%ax, -10(%rbp)
	jmp	.LBB25_17
.LBB25_16:                              # %if.end73
	movq	-32(%rbp), %rax
	movslq	-16(%rbp), %rcx
	movq	(%rax,%rcx,8), %rax
	movslq	-20(%rbp), %rcx
	movw	(%rax,%rcx,2), %ax
	movw	%ax, -10(%rbp)
.LBB25_17:                              # %return
	movw	-10(%rbp), %bx
	cmpl	$1171347559, -44(%rbp)  # imm = 0x45D15867
	jne	.LBB25_19
.LBB25_18:
	movzwl	%bx, %eax
	addq	$40, %rsp
	popq	%rbx
	popq	%rbp
	.cfi_def_cfa %rsp, 8
	retq
.LBB25_19:                              # %func_exit
	.cfi_def_cfa %rbp, 16
	callq	detect_breach
	jmp	.LBB25_18
.Lfunc_end25:
	.size	UMVPelY_14.18, .Lfunc_end25-UMVPelY_14.18
	.cfi_endproc
                                        # -- End function
	.globl	UMVPelY_14.19           # -- Begin function UMVPelY_14.19
	.p2align	4, 0x90
	.type	UMVPelY_14.19,@function
UMVPelY_14.19:                          # @UMVPelY_14.19
	.cfi_startproc
# %bb.0:                                # %entry
	pushq	%rbp
	.cfi_def_cfa_offset 16
	.cfi_offset %rbp, -16
	movq	%rsp, %rbp
	.cfi_def_cfa_register %rbp
	pushq	%rbx
	subq	$40, %rsp
	.cfi_offset %rbx, -24
	movl	$2078478367, -44(%rbp)  # imm = 0x7BE3101F
	movq	%rdi, -32(%rbp)
	movl	%esi, -16(%rbp)
	movl	%edx, -20(%rbp)
	movl	%ecx, -40(%rbp)
	movl	%r8d, -48(%rbp)
	movl	-48(%rbp), %eax
	addl	$8, %eax
	subl	$1, %eax
	shll	$2, %eax
	movl	%eax, -36(%rbp)
	movl	-40(%rbp), %eax
	addl	$8, %eax
	subl	$1, %eax
	shll	$2, %eax
	movl	%eax, -24(%rbp)
	movl	-20(%rbp), %eax
	addl	$16, %eax
	movl	%eax, -20(%rbp)
	movl	-16(%rbp), %eax
	addl	$16, %eax
	movl	%eax, -16(%rbp)
	cmpl	$0, -20(%rbp)
	jge	.LBB26_6
# %bb.1:                                # %if.then
	cmpl	$0, -16(%rbp)
	jge	.LBB26_3
# %bb.2:                                # %if.then7
	movq	-32(%rbp), %rax
	movl	-16(%rbp), %ecx
	andl	$3, %ecx
	movslq	%ecx, %rcx
	movq	(%rax,%rcx,8), %rax
	movl	-20(%rbp), %ecx
	andl	$3, %ecx
	movslq	%ecx, %rcx
	movw	(%rax,%rcx,2), %ax
	movw	%ax, -10(%rbp)
	jmp	.LBB26_17
.LBB26_3:                               # %if.end
	movl	-16(%rbp), %eax
	cmpl	-24(%rbp), %eax
	jle	.LBB26_5
# %bb.4:                                # %if.then12
	movq	-32(%rbp), %rax
	movl	-24(%rbp), %ecx
	movl	-16(%rbp), %edx
	andl	$3, %edx
	addl	%edx, %ecx
	movslq	%ecx, %rcx
	movq	(%rax,%rcx,8), %rax
	movl	-20(%rbp), %ecx
	andl	$3, %ecx
	movslq	%ecx, %rcx
	movw	(%rax,%rcx,2), %ax
	movw	%ax, -10(%rbp)
	jmp	.LBB26_17
.LBB26_5:                               # %if.end20
	movq	-32(%rbp), %rax
	movslq	-16(%rbp), %rcx
	movq	(%rax,%rcx,8), %rax
	movl	-20(%rbp), %ecx
	andl	$3, %ecx
	movslq	%ecx, %rcx
	movw	(%rax,%rcx,2), %ax
	movw	%ax, -10(%rbp)
	jmp	.LBB26_17
.LBB26_6:                               # %if.end26
	movl	-20(%rbp), %eax
	cmpl	-36(%rbp), %eax
	jle	.LBB26_12
# %bb.7:                                # %if.then28
	cmpl	$0, -16(%rbp)
	jge	.LBB26_9
# %bb.8:                                # %if.then30
	movq	-32(%rbp), %rax
	movl	-16(%rbp), %ecx
	andl	$3, %ecx
	movslq	%ecx, %rcx
	movq	(%rax,%rcx,8), %rax
	movl	-36(%rbp), %ecx
	movl	-20(%rbp), %edx
	andl	$3, %edx
	addl	%edx, %ecx
	movslq	%ecx, %rcx
	movw	(%rax,%rcx,2), %ax
	movw	%ax, -10(%rbp)
	jmp	.LBB26_17
.LBB26_9:                               # %if.end38
	movl	-16(%rbp), %eax
	cmpl	-24(%rbp), %eax
	jle	.LBB26_11
# %bb.10:                               # %if.then40
	movq	-32(%rbp), %rax
	movl	-24(%rbp), %ecx
	movl	-16(%rbp), %edx
	andl	$3, %edx
	addl	%edx, %ecx
	movslq	%ecx, %rcx
	movq	(%rax,%rcx,8), %rax
	movl	-36(%rbp), %ecx
	movl	-20(%rbp), %edx
	andl	$3, %edx
	addl	%edx, %ecx
	movslq	%ecx, %rcx
	movw	(%rax,%rcx,2), %ax
	movw	%ax, -10(%rbp)
	jmp	.LBB26_17
.LBB26_11:                              # %if.end49
	movq	-32(%rbp), %rax
	movslq	-16(%rbp), %rcx
	movq	(%rax,%rcx,8), %rax
	movl	-36(%rbp), %ecx
	movl	-20(%rbp), %edx
	andl	$3, %edx
	addl	%edx, %ecx
	movslq	%ecx, %rcx
	movw	(%rax,%rcx,2), %ax
	movw	%ax, -10(%rbp)
	jmp	.LBB26_17
.LBB26_12:                              # %if.end56
	cmpl	$0, -16(%rbp)
	jge	.LBB26_14
# %bb.13:                               # %if.then58
	movq	-32(%rbp), %rax
	movl	-16(%rbp), %ecx
	andl	$3, %ecx
	movslq	%ecx, %rcx
	movq	(%rax,%rcx,8), %rax
	movslq	-20(%rbp), %rcx
	movw	(%rax,%rcx,2), %ax
	movw	%ax, -10(%rbp)
	jmp	.LBB26_17
.LBB26_14:                              # %if.end64
	movl	-16(%rbp), %eax
	cmpl	-24(%rbp), %eax
	jle	.LBB26_16
# %bb.15:                               # %if.then66
	movq	-32(%rbp), %rax
	movl	-24(%rbp), %ecx
	movl	-16(%rbp), %edx
	andl	$3, %edx
	addl	%edx, %ecx
	movslq	%ecx, %rcx
	movq	(%rax,%rcx,8), %rax
	movslq	-20(%rbp), %rcx
	movw	(%rax,%rcx,2), %ax
	movw	%ax, -10(%rbp)
	jmp	.LBB26_17
.LBB26_16:                              # %if.end73
	movq	-32(%rbp), %rax
	movslq	-16(%rbp), %rcx
	movq	(%rax,%rcx,8), %rax
	movslq	-20(%rbp), %rcx
	movw	(%rax,%rcx,2), %ax
	movw	%ax, -10(%rbp)
.LBB26_17:                              # %return
	movw	-10(%rbp), %bx
	cmpl	$2078478367, -44(%rbp)  # imm = 0x7BE3101F
	jne	.LBB26_19
.LBB26_18:
	movzwl	%bx, %eax
	addq	$40, %rsp
	popq	%rbx
	popq	%rbp
	.cfi_def_cfa %rsp, 8
	retq
.LBB26_19:                              # %func_exit
	.cfi_def_cfa %rbp, 16
	callq	detect_breach
	jmp	.LBB26_18
.Lfunc_end26:
	.size	UMVPelY_14.19, .Lfunc_end26-UMVPelY_14.19
	.cfi_endproc
                                        # -- End function
	.globl	FastLineX.20            # -- Begin function FastLineX.20
	.p2align	4, 0x90
	.type	FastLineX.20,@function
FastLineX.20:                           # @FastLineX.20
	.cfi_startproc
# %bb.0:                                # %entry
	pushq	%rbp
	.cfi_def_cfa_offset 16
	.cfi_offset %rbp, -16
	movq	%rsp, %rbp
	.cfi_def_cfa_register %rbp
	pushq	%rbx
	subq	$40, %rsp
	.cfi_offset %rbx, -24
	movl	$16494927, -24(%rbp)    # imm = 0xFBB14F
	movl	%edi, -36(%rbp)
	movq	%rsi, -32(%rbp)
	movl	%edx, -12(%rbp)
	movl	%ecx, -20(%rbp)
	movl	%r8d, -40(%rbp)
	movl	%r9d, -16(%rbp)
	movq	-32(%rbp), %rbx
	movl	-12(%rbp), %eax
	imull	-16(%rbp), %eax
	cltq
	shlq	$1, %rax
	addq	%rax, %rbx
	movslq	-20(%rbp), %rax
	shlq	$1, %rax
	addq	%rax, %rbx
	cmpl	$16494927, -24(%rbp)    # imm = 0xFBB14F
	jne	.LBB27_2
.LBB27_1:
	movq	%rbx, %rax
	addq	$40, %rsp
	popq	%rbx
	popq	%rbp
	.cfi_def_cfa %rsp, 8
	retq
.LBB27_2:                               # %func_exit
	.cfi_def_cfa %rbp, 16
	callq	detect_breach
	jmp	.LBB27_1
.Lfunc_end27:
	.size	FastLineX.20, .Lfunc_end27-FastLineX.20
	.cfi_endproc
                                        # -- End function
	.globl	FastPelY_14.21          # -- Begin function FastPelY_14.21
	.p2align	4, 0x90
	.type	FastPelY_14.21,@function
FastPelY_14.21:                         # @FastPelY_14.21
	.cfi_startproc
# %bb.0:                                # %entry
	pushq	%rbp
	.cfi_def_cfa_offset 16
	.cfi_offset %rbp, -16
	movq	%rsp, %rbp
	.cfi_def_cfa_register %rbp
	pushq	%rbx
	subq	$40, %rsp
	.cfi_offset %rbx, -24
	movl	$195441041, -16(%rbp)   # imm = 0xBA63191
	movq	%rdi, -32(%rbp)
	movl	%esi, -12(%rbp)
	movl	%edx, -20(%rbp)
	movl	%ecx, -36(%rbp)
	movl	%r8d, -40(%rbp)
	movq	-32(%rbp), %rax
	movl	-12(%rbp), %ecx
	addl	$16, %ecx
	movslq	%ecx, %rcx
	movq	(%rax,%rcx,8), %rax
	movl	-20(%rbp), %ecx
	addl	$16, %ecx
	movslq	%ecx, %rcx
	movw	(%rax,%rcx,2), %bx
	cmpl	$195441041, -16(%rbp)   # imm = 0xBA63191
	jne	.LBB28_2
.LBB28_1:
	movzwl	%bx, %eax
	addq	$40, %rsp
	popq	%rbx
	popq	%rbp
	.cfi_def_cfa %rsp, 8
	retq
.LBB28_2:                               # %func_exit
	.cfi_def_cfa %rbp, 16
	callq	detect_breach
	jmp	.LBB28_1
.Lfunc_end28:
	.size	FastPelY_14.21, .Lfunc_end28-FastPelY_14.21
	.cfi_endproc
                                        # -- End function
	.globl	PutPel_11.22            # -- Begin function PutPel_11.22
	.p2align	4, 0x90
	.type	PutPel_11.22,@function
PutPel_11.22:                           # @PutPel_11.22
	.cfi_startproc
# %bb.0:                                # %entry
	pushq	%rbp
	.cfi_def_cfa_offset 16
	.cfi_offset %rbp, -16
	movq	%rsp, %rbp
	.cfi_def_cfa_register %rbp
	subq	$32, %rsp
	movl	$2076876114, -20(%rbp)  # imm = 0x7BCA9D52
	movq	%rdi, -32(%rbp)
	movl	%esi, -12(%rbp)
	movl	%edx, -8(%rbp)
	movw	%cx, -2(%rbp)
	movl	%r8d, -16(%rbp)
	movw	-2(%rbp), %ax
	movq	-32(%rbp), %rcx
	movl	-12(%rbp), %edx
	imull	-16(%rbp), %edx
	addl	-8(%rbp), %edx
	movslq	%edx, %rdx
	movw	%ax, (%rcx,%rdx,2)
	cmpl	$2076876114, -20(%rbp)  # imm = 0x7BCA9D52
	jne	.LBB29_2
.LBB29_1:
	addq	$32, %rsp
	popq	%rbp
	.cfi_def_cfa %rsp, 8
	retq
.LBB29_2:                               # %func_exit
	.cfi_def_cfa %rbp, 16
	callq	detect_breach
	jmp	.LBB29_1
.Lfunc_end29:
	.size	PutPel_11.22, .Lfunc_end29-PutPel_11.22
	.cfi_endproc
                                        # -- End function
	.globl	UMVLineX.23             # -- Begin function UMVLineX.23
	.p2align	4, 0x90
	.type	UMVLineX.23,@function
UMVLineX.23:                            # @UMVLineX.23
	.cfi_startproc
# %bb.0:                                # %entry
	pushq	%rbp
	.cfi_def_cfa_offset 16
	.cfi_offset %rbp, -16
	movq	%rsp, %rbp
	.cfi_def_cfa_register %rbp
	pushq	%rbx
	subq	$72, %rsp
	.cfi_offset %rbx, -24
	movl	$1698168514, -52(%rbp)  # imm = 0x6537FEC2
	movl	%edi, -28(%rbp)
	movq	%rsi, -72(%rbp)
	movl	%edx, -36(%rbp)
	movl	%ecx, -16(%rbp)
	movl	%r8d, -32(%rbp)
	movl	%r9d, -24(%rbp)
	movq	-72(%rbp), %rax
	movl	-32(%rbp), %ecx
	subl	$1, %ecx
	cmpl	-36(%rbp), %ecx
	jge	.LBB30_2
# %bb.1:                                # %cond.true
	movl	-32(%rbp), %ecx
	subl	$1, %ecx
	jmp	.LBB30_3
.LBB30_2:                               # %cond.false
	movl	-36(%rbp), %ecx
.LBB30_3:                               # %cond.end
	xorl	%edx, %edx
	cmpl	%ecx, %edx
	jle	.LBB30_5
# %bb.4:                                # %cond.true3
	xorl	%ecx, %ecx
	jmp	.LBB30_9
.LBB30_5:                               # %cond.false4
	movl	-32(%rbp), %ecx
	subl	$1, %ecx
	cmpl	-36(%rbp), %ecx
	jge	.LBB30_7
# %bb.6:                                # %cond.true7
	movl	-32(%rbp), %ecx
	subl	$1, %ecx
	jmp	.LBB30_8
.LBB30_7:                               # %cond.false9
	movl	-36(%rbp), %ecx
.LBB30_8:                               # %cond.end10
.LBB30_9:                               # %cond.end12
	imull	-24(%rbp), %ecx
	movslq	%ecx, %rcx
	shlq	$1, %rcx
	addq	%rcx, %rax
	movq	%rax, -48(%rbp)
	cmpl	$0, -16(%rbp)
	jge	.LBB30_22
# %bb.10:                               # %if.then
	xorl	%eax, %eax
	movl	-16(%rbp), %ecx
	addl	-28(%rbp), %ecx
	cmpl	%ecx, %eax
	jge	.LBB30_12
# %bb.11:                               # %cond.true16
	xorl	%eax, %eax
	jmp	.LBB30_13
.LBB30_12:                              # %cond.false17
	movl	-16(%rbp), %eax
	addl	-28(%rbp), %eax
.LBB30_13:                              # %cond.end19
	movl	%eax, -20(%rbp)
	movl	-16(%rbp), %eax
	movl	%eax, -12(%rbp)
.LBB30_14:                              # %for.cond
                                        # =>This Inner Loop Header: Depth=1
	movl	-12(%rbp), %eax
	cmpl	-20(%rbp), %eax
	jge	.LBB30_17
# %bb.15:                               # %for.body
                                        #   in Loop: Header=BB30_14 Depth=1
	movq	-48(%rbp), %rax
	movw	(%rax), %ax
	movl	-12(%rbp), %ecx
	subl	-16(%rbp), %ecx
	movslq	%ecx, %rcx
	movw	%ax, line(,%rcx,2)
# %bb.16:                               # %for.inc
                                        #   in Loop: Header=BB30_14 Depth=1
	movl	-12(%rbp), %eax
	addl	$1, %eax
	movl	%eax, -12(%rbp)
	jmp	.LBB30_14
.LBB30_17:                              # %for.end
	movl	-16(%rbp), %eax
	addl	-28(%rbp), %eax
	movl	%eax, -20(%rbp)
	movl	$0, -12(%rbp)
.LBB30_18:                              # %for.cond25
                                        # =>This Inner Loop Header: Depth=1
	movl	-12(%rbp), %eax
	cmpl	-20(%rbp), %eax
	jge	.LBB30_21
# %bb.19:                               # %for.body27
                                        #   in Loop: Header=BB30_18 Depth=1
	movq	-48(%rbp), %rax
	movslq	-12(%rbp), %rcx
	movw	(%rax,%rcx,2), %ax
	movl	-12(%rbp), %ecx
	subl	-16(%rbp), %ecx
	movslq	%ecx, %rcx
	movw	%ax, line(,%rcx,2)
# %bb.20:                               # %for.inc33
                                        #   in Loop: Header=BB30_18 Depth=1
	movl	-12(%rbp), %eax
	addl	$1, %eax
	movl	%eax, -12(%rbp)
	jmp	.LBB30_18
.LBB30_21:                              # %for.end35
	jmp	.LBB30_37
.LBB30_22:                              # %if.else
	movl	-16(%rbp), %eax
	movl	-24(%rbp), %ecx
	subl	-28(%rbp), %ecx
	cmpl	%ecx, %eax
	jle	.LBB30_35
# %bb.23:                               # %if.then38
	movl	-24(%rbp), %eax
	movl	%eax, -20(%rbp)
	movl	-16(%rbp), %eax
	movl	%eax, -12(%rbp)
.LBB30_24:                              # %for.cond39
                                        # =>This Inner Loop Header: Depth=1
	movl	-12(%rbp), %eax
	cmpl	-20(%rbp), %eax
	jge	.LBB30_27
# %bb.25:                               # %for.body41
                                        #   in Loop: Header=BB30_24 Depth=1
	movq	-48(%rbp), %rax
	movslq	-12(%rbp), %rcx
	movw	(%rax,%rcx,2), %ax
	movl	-12(%rbp), %ecx
	subl	-16(%rbp), %ecx
	movslq	%ecx, %rcx
	movw	%ax, line(,%rcx,2)
# %bb.26:                               # %for.inc47
                                        #   in Loop: Header=BB30_24 Depth=1
	movl	-12(%rbp), %eax
	addl	$1, %eax
	movl	%eax, -12(%rbp)
	jmp	.LBB30_24
.LBB30_27:                              # %for.end49
	movl	-16(%rbp), %eax
	addl	-28(%rbp), %eax
	movl	%eax, -20(%rbp)
	movl	-24(%rbp), %eax
	cmpl	-16(%rbp), %eax
	jle	.LBB30_29
# %bb.28:                               # %cond.true52
	movl	-24(%rbp), %eax
	jmp	.LBB30_30
.LBB30_29:                              # %cond.false53
	movl	-16(%rbp), %eax
.LBB30_30:                              # %cond.end54
	movl	%eax, -12(%rbp)
.LBB30_31:                              # %for.cond56
                                        # =>This Inner Loop Header: Depth=1
	movl	-12(%rbp), %eax
	cmpl	-20(%rbp), %eax
	jge	.LBB30_34
# %bb.32:                               # %for.body58
                                        #   in Loop: Header=BB30_31 Depth=1
	movq	-48(%rbp), %rax
	movl	-24(%rbp), %ecx
	subl	$1, %ecx
	movslq	%ecx, %rcx
	movw	(%rax,%rcx,2), %ax
	movl	-12(%rbp), %ecx
	subl	-16(%rbp), %ecx
	movslq	%ecx, %rcx
	movw	%ax, line(,%rcx,2)
# %bb.33:                               # %for.inc65
                                        #   in Loop: Header=BB30_31 Depth=1
	movl	-12(%rbp), %eax
	addl	$1, %eax
	movl	%eax, -12(%rbp)
	jmp	.LBB30_31
.LBB30_34:                              # %for.end67
	jmp	.LBB30_36
.LBB30_35:                              # %if.else68
	movq	-48(%rbp), %rax
	movslq	-16(%rbp), %rcx
	shlq	$1, %rcx
	addq	%rcx, %rax
	movq	%rax, -64(%rbp)
	jmp	.LBB30_38
.LBB30_36:                              # %if.end
	jmp	.LBB30_37
.LBB30_37:                              # %if.end71
	movabsq	$line, %rax
	movq	%rax, -64(%rbp)
.LBB30_38:                              # %return
	movq	-64(%rbp), %rbx
	cmpl	$1698168514, -52(%rbp)  # imm = 0x6537FEC2
	jne	.LBB30_40
.LBB30_39:
	movq	%rbx, %rax
	addq	$72, %rsp
	popq	%rbx
	popq	%rbp
	.cfi_def_cfa %rsp, 8
	retq
.LBB30_40:                              # %func_exit
	.cfi_def_cfa %rbp, 16
	callq	detect_breach
	jmp	.LBB30_39
.Lfunc_end30:
	.size	UMVLineX.23, .Lfunc_end30-UMVLineX.23
	.cfi_endproc
                                        # -- End function
	.globl	UMVPelY_14.24           # -- Begin function UMVPelY_14.24
	.p2align	4, 0x90
	.type	UMVPelY_14.24,@function
UMVPelY_14.24:                          # @UMVPelY_14.24
	.cfi_startproc
# %bb.0:                                # %entry
	pushq	%rbp
	.cfi_def_cfa_offset 16
	.cfi_offset %rbp, -16
	movq	%rsp, %rbp
	.cfi_def_cfa_register %rbp
	pushq	%rbx
	subq	$40, %rsp
	.cfi_offset %rbx, -24
	movl	$1968637510, -48(%rbp)  # imm = 0x75570646
	movq	%rdi, -32(%rbp)
	movl	%esi, -16(%rbp)
	movl	%edx, -20(%rbp)
	movl	%ecx, -44(%rbp)
	movl	%r8d, -40(%rbp)
	movl	-40(%rbp), %eax
	addl	$8, %eax
	subl	$1, %eax
	shll	$2, %eax
	movl	%eax, -36(%rbp)
	movl	-44(%rbp), %eax
	addl	$8, %eax
	subl	$1, %eax
	shll	$2, %eax
	movl	%eax, -24(%rbp)
	movl	-20(%rbp), %eax
	addl	$16, %eax
	movl	%eax, -20(%rbp)
	movl	-16(%rbp), %eax
	addl	$16, %eax
	movl	%eax, -16(%rbp)
	cmpl	$0, -20(%rbp)
	jge	.LBB31_6
# %bb.1:                                # %if.then
	cmpl	$0, -16(%rbp)
	jge	.LBB31_3
# %bb.2:                                # %if.then7
	movq	-32(%rbp), %rax
	movl	-16(%rbp), %ecx
	andl	$3, %ecx
	movslq	%ecx, %rcx
	movq	(%rax,%rcx,8), %rax
	movl	-20(%rbp), %ecx
	andl	$3, %ecx
	movslq	%ecx, %rcx
	movw	(%rax,%rcx,2), %ax
	movw	%ax, -10(%rbp)
	jmp	.LBB31_17
.LBB31_3:                               # %if.end
	movl	-16(%rbp), %eax
	cmpl	-24(%rbp), %eax
	jle	.LBB31_5
# %bb.4:                                # %if.then12
	movq	-32(%rbp), %rax
	movl	-24(%rbp), %ecx
	movl	-16(%rbp), %edx
	andl	$3, %edx
	addl	%edx, %ecx
	movslq	%ecx, %rcx
	movq	(%rax,%rcx,8), %rax
	movl	-20(%rbp), %ecx
	andl	$3, %ecx
	movslq	%ecx, %rcx
	movw	(%rax,%rcx,2), %ax
	movw	%ax, -10(%rbp)
	jmp	.LBB31_17
.LBB31_5:                               # %if.end20
	movq	-32(%rbp), %rax
	movslq	-16(%rbp), %rcx
	movq	(%rax,%rcx,8), %rax
	movl	-20(%rbp), %ecx
	andl	$3, %ecx
	movslq	%ecx, %rcx
	movw	(%rax,%rcx,2), %ax
	movw	%ax, -10(%rbp)
	jmp	.LBB31_17
.LBB31_6:                               # %if.end26
	movl	-20(%rbp), %eax
	cmpl	-36(%rbp), %eax
	jle	.LBB31_12
# %bb.7:                                # %if.then28
	cmpl	$0, -16(%rbp)
	jge	.LBB31_9
# %bb.8:                                # %if.then30
	movq	-32(%rbp), %rax
	movl	-16(%rbp), %ecx
	andl	$3, %ecx
	movslq	%ecx, %rcx
	movq	(%rax,%rcx,8), %rax
	movl	-36(%rbp), %ecx
	movl	-20(%rbp), %edx
	andl	$3, %edx
	addl	%edx, %ecx
	movslq	%ecx, %rcx
	movw	(%rax,%rcx,2), %ax
	movw	%ax, -10(%rbp)
	jmp	.LBB31_17
.LBB31_9:                               # %if.end38
	movl	-16(%rbp), %eax
	cmpl	-24(%rbp), %eax
	jle	.LBB31_11
# %bb.10:                               # %if.then40
	movq	-32(%rbp), %rax
	movl	-24(%rbp), %ecx
	movl	-16(%rbp), %edx
	andl	$3, %edx
	addl	%edx, %ecx
	movslq	%ecx, %rcx
	movq	(%rax,%rcx,8), %rax
	movl	-36(%rbp), %ecx
	movl	-20(%rbp), %edx
	andl	$3, %edx
	addl	%edx, %ecx
	movslq	%ecx, %rcx
	movw	(%rax,%rcx,2), %ax
	movw	%ax, -10(%rbp)
	jmp	.LBB31_17
.LBB31_11:                              # %if.end49
	movq	-32(%rbp), %rax
	movslq	-16(%rbp), %rcx
	movq	(%rax,%rcx,8), %rax
	movl	-36(%rbp), %ecx
	movl	-20(%rbp), %edx
	andl	$3, %edx
	addl	%edx, %ecx
	movslq	%ecx, %rcx
	movw	(%rax,%rcx,2), %ax
	movw	%ax, -10(%rbp)
	jmp	.LBB31_17
.LBB31_12:                              # %if.end56
	cmpl	$0, -16(%rbp)
	jge	.LBB31_14
# %bb.13:                               # %if.then58
	movq	-32(%rbp), %rax
	movl	-16(%rbp), %ecx
	andl	$3, %ecx
	movslq	%ecx, %rcx
	movq	(%rax,%rcx,8), %rax
	movslq	-20(%rbp), %rcx
	movw	(%rax,%rcx,2), %ax
	movw	%ax, -10(%rbp)
	jmp	.LBB31_17
.LBB31_14:                              # %if.end64
	movl	-16(%rbp), %eax
	cmpl	-24(%rbp), %eax
	jle	.LBB31_16
# %bb.15:                               # %if.then66
	movq	-32(%rbp), %rax
	movl	-24(%rbp), %ecx
	movl	-16(%rbp), %edx
	andl	$3, %edx
	addl	%edx, %ecx
	movslq	%ecx, %rcx
	movq	(%rax,%rcx,8), %rax
	movslq	-20(%rbp), %rcx
	movw	(%rax,%rcx,2), %ax
	movw	%ax, -10(%rbp)
	jmp	.LBB31_17
.LBB31_16:                              # %if.end73
	movq	-32(%rbp), %rax
	movslq	-16(%rbp), %rcx
	movq	(%rax,%rcx,8), %rax
	movslq	-20(%rbp), %rcx
	movw	(%rax,%rcx,2), %ax
	movw	%ax, -10(%rbp)
.LBB31_17:                              # %return
	movw	-10(%rbp), %bx
	cmpl	$1968637510, -48(%rbp)  # imm = 0x75570646
	jne	.LBB31_19
.LBB31_18:
	movzwl	%bx, %eax
	addq	$40, %rsp
	popq	%rbx
	popq	%rbp
	.cfi_def_cfa %rsp, 8
	retq
.LBB31_19:                              # %func_exit
	.cfi_def_cfa %rbp, 16
	callq	detect_breach
	jmp	.LBB31_18
.Lfunc_end31:
	.size	UMVPelY_14.24, .Lfunc_end31-UMVPelY_14.24
	.cfi_endproc
                                        # -- End function
	.globl	UMVLineX.25             # -- Begin function UMVLineX.25
	.p2align	4, 0x90
	.type	UMVLineX.25,@function
UMVLineX.25:                            # @UMVLineX.25
	.cfi_startproc
# %bb.0:                                # %entry
	pushq	%rbp
	.cfi_def_cfa_offset 16
	.cfi_offset %rbp, -16
	movq	%rsp, %rbp
	.cfi_def_cfa_register %rbp
	pushq	%rbx
	subq	$72, %rsp
	.cfi_offset %rbx, -24
	movl	$1926580763, -52(%rbp)  # imm = 0x72D54A1B
	movl	%edi, -28(%rbp)
	movq	%rsi, -72(%rbp)
	movl	%edx, -32(%rbp)
	movl	%ecx, -16(%rbp)
	movl	%r8d, -36(%rbp)
	movl	%r9d, -24(%rbp)
	movq	-72(%rbp), %rax
	movl	-36(%rbp), %ecx
	subl	$1, %ecx
	cmpl	-32(%rbp), %ecx
	jge	.LBB32_2
# %bb.1:                                # %cond.true
	movl	-36(%rbp), %ecx
	subl	$1, %ecx
	jmp	.LBB32_3
.LBB32_2:                               # %cond.false
	movl	-32(%rbp), %ecx
.LBB32_3:                               # %cond.end
	xorl	%edx, %edx
	cmpl	%ecx, %edx
	jle	.LBB32_5
# %bb.4:                                # %cond.true3
	xorl	%ecx, %ecx
	jmp	.LBB32_9
.LBB32_5:                               # %cond.false4
	movl	-36(%rbp), %ecx
	subl	$1, %ecx
	cmpl	-32(%rbp), %ecx
	jge	.LBB32_7
# %bb.6:                                # %cond.true7
	movl	-36(%rbp), %ecx
	subl	$1, %ecx
	jmp	.LBB32_8
.LBB32_7:                               # %cond.false9
	movl	-32(%rbp), %ecx
.LBB32_8:                               # %cond.end10
.LBB32_9:                               # %cond.end12
	imull	-24(%rbp), %ecx
	movslq	%ecx, %rcx
	shlq	$1, %rcx
	addq	%rcx, %rax
	movq	%rax, -48(%rbp)
	cmpl	$0, -16(%rbp)
	jge	.LBB32_22
# %bb.10:                               # %if.then
	xorl	%eax, %eax
	movl	-16(%rbp), %ecx
	addl	-28(%rbp), %ecx
	cmpl	%ecx, %eax
	jge	.LBB32_12
# %bb.11:                               # %cond.true16
	xorl	%eax, %eax
	jmp	.LBB32_13
.LBB32_12:                              # %cond.false17
	movl	-16(%rbp), %eax
	addl	-28(%rbp), %eax
.LBB32_13:                              # %cond.end19
	movl	%eax, -20(%rbp)
	movl	-16(%rbp), %eax
	movl	%eax, -12(%rbp)
.LBB32_14:                              # %for.cond
                                        # =>This Inner Loop Header: Depth=1
	movl	-12(%rbp), %eax
	cmpl	-20(%rbp), %eax
	jge	.LBB32_17
# %bb.15:                               # %for.body
                                        #   in Loop: Header=BB32_14 Depth=1
	movq	-48(%rbp), %rax
	movw	(%rax), %ax
	movl	-12(%rbp), %ecx
	subl	-16(%rbp), %ecx
	movslq	%ecx, %rcx
	movw	%ax, line(,%rcx,2)
# %bb.16:                               # %for.inc
                                        #   in Loop: Header=BB32_14 Depth=1
	movl	-12(%rbp), %eax
	addl	$1, %eax
	movl	%eax, -12(%rbp)
	jmp	.LBB32_14
.LBB32_17:                              # %for.end
	movl	-16(%rbp), %eax
	addl	-28(%rbp), %eax
	movl	%eax, -20(%rbp)
	movl	$0, -12(%rbp)
.LBB32_18:                              # %for.cond25
                                        # =>This Inner Loop Header: Depth=1
	movl	-12(%rbp), %eax
	cmpl	-20(%rbp), %eax
	jge	.LBB32_21
# %bb.19:                               # %for.body27
                                        #   in Loop: Header=BB32_18 Depth=1
	movq	-48(%rbp), %rax
	movslq	-12(%rbp), %rcx
	movw	(%rax,%rcx,2), %ax
	movl	-12(%rbp), %ecx
	subl	-16(%rbp), %ecx
	movslq	%ecx, %rcx
	movw	%ax, line(,%rcx,2)
# %bb.20:                               # %for.inc33
                                        #   in Loop: Header=BB32_18 Depth=1
	movl	-12(%rbp), %eax
	addl	$1, %eax
	movl	%eax, -12(%rbp)
	jmp	.LBB32_18
.LBB32_21:                              # %for.end35
	jmp	.LBB32_37
.LBB32_22:                              # %if.else
	movl	-16(%rbp), %eax
	movl	-24(%rbp), %ecx
	subl	-28(%rbp), %ecx
	cmpl	%ecx, %eax
	jle	.LBB32_35
# %bb.23:                               # %if.then38
	movl	-24(%rbp), %eax
	movl	%eax, -20(%rbp)
	movl	-16(%rbp), %eax
	movl	%eax, -12(%rbp)
.LBB32_24:                              # %for.cond39
                                        # =>This Inner Loop Header: Depth=1
	movl	-12(%rbp), %eax
	cmpl	-20(%rbp), %eax
	jge	.LBB32_27
# %bb.25:                               # %for.body41
                                        #   in Loop: Header=BB32_24 Depth=1
	movq	-48(%rbp), %rax
	movslq	-12(%rbp), %rcx
	movw	(%rax,%rcx,2), %ax
	movl	-12(%rbp), %ecx
	subl	-16(%rbp), %ecx
	movslq	%ecx, %rcx
	movw	%ax, line(,%rcx,2)
# %bb.26:                               # %for.inc47
                                        #   in Loop: Header=BB32_24 Depth=1
	movl	-12(%rbp), %eax
	addl	$1, %eax
	movl	%eax, -12(%rbp)
	jmp	.LBB32_24
.LBB32_27:                              # %for.end49
	movl	-16(%rbp), %eax
	addl	-28(%rbp), %eax
	movl	%eax, -20(%rbp)
	movl	-24(%rbp), %eax
	cmpl	-16(%rbp), %eax
	jle	.LBB32_29
# %bb.28:                               # %cond.true52
	movl	-24(%rbp), %eax
	jmp	.LBB32_30
.LBB32_29:                              # %cond.false53
	movl	-16(%rbp), %eax
.LBB32_30:                              # %cond.end54
	movl	%eax, -12(%rbp)
.LBB32_31:                              # %for.cond56
                                        # =>This Inner Loop Header: Depth=1
	movl	-12(%rbp), %eax
	cmpl	-20(%rbp), %eax
	jge	.LBB32_34
# %bb.32:                               # %for.body58
                                        #   in Loop: Header=BB32_31 Depth=1
	movq	-48(%rbp), %rax
	movl	-24(%rbp), %ecx
	subl	$1, %ecx
	movslq	%ecx, %rcx
	movw	(%rax,%rcx,2), %ax
	movl	-12(%rbp), %ecx
	subl	-16(%rbp), %ecx
	movslq	%ecx, %rcx
	movw	%ax, line(,%rcx,2)
# %bb.33:                               # %for.inc65
                                        #   in Loop: Header=BB32_31 Depth=1
	movl	-12(%rbp), %eax
	addl	$1, %eax
	movl	%eax, -12(%rbp)
	jmp	.LBB32_31
.LBB32_34:                              # %for.end67
	jmp	.LBB32_36
.LBB32_35:                              # %if.else68
	movq	-48(%rbp), %rax
	movslq	-16(%rbp), %rcx
	shlq	$1, %rcx
	addq	%rcx, %rax
	movq	%rax, -64(%rbp)
	jmp	.LBB32_38
.LBB32_36:                              # %if.end
	jmp	.LBB32_37
.LBB32_37:                              # %if.end71
	movabsq	$line, %rax
	movq	%rax, -64(%rbp)
.LBB32_38:                              # %return
	movq	-64(%rbp), %rbx
	cmpl	$1926580763, -52(%rbp)  # imm = 0x72D54A1B
	jne	.LBB32_40
.LBB32_39:
	movq	%rbx, %rax
	addq	$72, %rsp
	popq	%rbx
	popq	%rbp
	.cfi_def_cfa %rsp, 8
	retq
.LBB32_40:                              # %func_exit
	.cfi_def_cfa %rbp, 16
	callq	detect_breach
	jmp	.LBB32_39
.Lfunc_end32:
	.size	UMVLineX.25, .Lfunc_end32-UMVLineX.25
	.cfi_endproc
                                        # -- End function
	.globl	FastLine16Y_11.26       # -- Begin function FastLine16Y_11.26
	.p2align	4, 0x90
	.type	FastLine16Y_11.26,@function
FastLine16Y_11.26:                      # @FastLine16Y_11.26
	.cfi_startproc
# %bb.0:                                # %entry
	pushq	%rbp
	.cfi_def_cfa_offset 16
	.cfi_offset %rbp, -16
	movq	%rsp, %rbp
	.cfi_def_cfa_register %rbp
	pushq	%rbx
	subq	$40, %rsp
	.cfi_offset %rbx, -24
	movl	$1681791351, -24(%rbp)  # imm = 0x643E1977
	movq	%rdi, -32(%rbp)
	movl	%esi, -16(%rbp)
	movl	%edx, -20(%rbp)
	movl	%ecx, -36(%rbp)
	movl	%r8d, -12(%rbp)
	movq	-32(%rbp), %rbx
	movl	-16(%rbp), %eax
	imull	-12(%rbp), %eax
	addl	-20(%rbp), %eax
	cltq
	shlq	$1, %rax
	addq	%rax, %rbx
	cmpl	$1681791351, -24(%rbp)  # imm = 0x643E1977
	jne	.LBB33_2
.LBB33_1:
	movq	%rbx, %rax
	addq	$40, %rsp
	popq	%rbx
	popq	%rbp
	.cfi_def_cfa %rsp, 8
	retq
.LBB33_2:                               # %func_exit
	.cfi_def_cfa %rbp, 16
	callq	detect_breach
	jmp	.LBB33_1
.Lfunc_end33:
	.size	FastLine16Y_11.26, .Lfunc_end33-FastLine16Y_11.26
	.cfi_endproc
                                        # -- End function
	.globl	PutPel_11.27            # -- Begin function PutPel_11.27
	.p2align	4, 0x90
	.type	PutPel_11.27,@function
PutPel_11.27:                           # @PutPel_11.27
	.cfi_startproc
# %bb.0:                                # %entry
	pushq	%rbp
	.cfi_def_cfa_offset 16
	.cfi_offset %rbp, -16
	movq	%rsp, %rbp
	.cfi_def_cfa_register %rbp
	subq	$32, %rsp
	movl	$72972875, -20(%rbp)    # imm = 0x4597A4B
	movq	%rdi, -32(%rbp)
	movl	%esi, -16(%rbp)
	movl	%edx, -12(%rbp)
	movw	%cx, -2(%rbp)
	movl	%r8d, -8(%rbp)
	movw	-2(%rbp), %ax
	movq	-32(%rbp), %rcx
	movl	-16(%rbp), %edx
	imull	-8(%rbp), %edx
	addl	-12(%rbp), %edx
	movslq	%edx, %rdx
	movw	%ax, (%rcx,%rdx,2)
	cmpl	$72972875, -20(%rbp)    # imm = 0x4597A4B
	jne	.LBB34_2
.LBB34_1:
	addq	$32, %rsp
	popq	%rbp
	.cfi_def_cfa %rsp, 8
	retq
.LBB34_2:                               # %func_exit
	.cfi_def_cfa %rbp, 16
	callq	detect_breach
	jmp	.LBB34_1
.Lfunc_end34:
	.size	PutPel_11.27, .Lfunc_end34-PutPel_11.27
	.cfi_endproc
                                        # -- End function
	.globl	UMVPelY_14.28           # -- Begin function UMVPelY_14.28
	.p2align	4, 0x90
	.type	UMVPelY_14.28,@function
UMVPelY_14.28:                          # @UMVPelY_14.28
	.cfi_startproc
# %bb.0:                                # %entry
	pushq	%rbp
	.cfi_def_cfa_offset 16
	.cfi_offset %rbp, -16
	movq	%rsp, %rbp
	.cfi_def_cfa_register %rbp
	pushq	%rbx
	subq	$40, %rsp
	.cfi_offset %rbx, -24
	movl	$249018799, -44(%rbp)   # imm = 0xED7B9AF
	movq	%rdi, -32(%rbp)
	movl	%esi, -16(%rbp)
	movl	%edx, -20(%rbp)
	movl	%ecx, -48(%rbp)
	movl	%r8d, -40(%rbp)
	movl	-40(%rbp), %eax
	addl	$8, %eax
	subl	$1, %eax
	shll	$2, %eax
	movl	%eax, -36(%rbp)
	movl	-48(%rbp), %eax
	addl	$8, %eax
	subl	$1, %eax
	shll	$2, %eax
	movl	%eax, -24(%rbp)
	movl	-20(%rbp), %eax
	addl	$16, %eax
	movl	%eax, -20(%rbp)
	movl	-16(%rbp), %eax
	addl	$16, %eax
	movl	%eax, -16(%rbp)
	cmpl	$0, -20(%rbp)
	jge	.LBB35_6
# %bb.1:                                # %if.then
	cmpl	$0, -16(%rbp)
	jge	.LBB35_3
# %bb.2:                                # %if.then7
	movq	-32(%rbp), %rax
	movl	-16(%rbp), %ecx
	andl	$3, %ecx
	movslq	%ecx, %rcx
	movq	(%rax,%rcx,8), %rax
	movl	-20(%rbp), %ecx
	andl	$3, %ecx
	movslq	%ecx, %rcx
	movw	(%rax,%rcx,2), %ax
	movw	%ax, -10(%rbp)
	jmp	.LBB35_17
.LBB35_3:                               # %if.end
	movl	-16(%rbp), %eax
	cmpl	-24(%rbp), %eax
	jle	.LBB35_5
# %bb.4:                                # %if.then12
	movq	-32(%rbp), %rax
	movl	-24(%rbp), %ecx
	movl	-16(%rbp), %edx
	andl	$3, %edx
	addl	%edx, %ecx
	movslq	%ecx, %rcx
	movq	(%rax,%rcx,8), %rax
	movl	-20(%rbp), %ecx
	andl	$3, %ecx
	movslq	%ecx, %rcx
	movw	(%rax,%rcx,2), %ax
	movw	%ax, -10(%rbp)
	jmp	.LBB35_17
.LBB35_5:                               # %if.end20
	movq	-32(%rbp), %rax
	movslq	-16(%rbp), %rcx
	movq	(%rax,%rcx,8), %rax
	movl	-20(%rbp), %ecx
	andl	$3, %ecx
	movslq	%ecx, %rcx
	movw	(%rax,%rcx,2), %ax
	movw	%ax, -10(%rbp)
	jmp	.LBB35_17
.LBB35_6:                               # %if.end26
	movl	-20(%rbp), %eax
	cmpl	-36(%rbp), %eax
	jle	.LBB35_12
# %bb.7:                                # %if.then28
	cmpl	$0, -16(%rbp)
	jge	.LBB35_9
# %bb.8:                                # %if.then30
	movq	-32(%rbp), %rax
	movl	-16(%rbp), %ecx
	andl	$3, %ecx
	movslq	%ecx, %rcx
	movq	(%rax,%rcx,8), %rax
	movl	-36(%rbp), %ecx
	movl	-20(%rbp), %edx
	andl	$3, %edx
	addl	%edx, %ecx
	movslq	%ecx, %rcx
	movw	(%rax,%rcx,2), %ax
	movw	%ax, -10(%rbp)
	jmp	.LBB35_17
.LBB35_9:                               # %if.end38
	movl	-16(%rbp), %eax
	cmpl	-24(%rbp), %eax
	jle	.LBB35_11
# %bb.10:                               # %if.then40
	movq	-32(%rbp), %rax
	movl	-24(%rbp), %ecx
	movl	-16(%rbp), %edx
	andl	$3, %edx
	addl	%edx, %ecx
	movslq	%ecx, %rcx
	movq	(%rax,%rcx,8), %rax
	movl	-36(%rbp), %ecx
	movl	-20(%rbp), %edx
	andl	$3, %edx
	addl	%edx, %ecx
	movslq	%ecx, %rcx
	movw	(%rax,%rcx,2), %ax
	movw	%ax, -10(%rbp)
	jmp	.LBB35_17
.LBB35_11:                              # %if.end49
	movq	-32(%rbp), %rax
	movslq	-16(%rbp), %rcx
	movq	(%rax,%rcx,8), %rax
	movl	-36(%rbp), %ecx
	movl	-20(%rbp), %edx
	andl	$3, %edx
	addl	%edx, %ecx
	movslq	%ecx, %rcx
	movw	(%rax,%rcx,2), %ax
	movw	%ax, -10(%rbp)
	jmp	.LBB35_17
.LBB35_12:                              # %if.end56
	cmpl	$0, -16(%rbp)
	jge	.LBB35_14
# %bb.13:                               # %if.then58
	movq	-32(%rbp), %rax
	movl	-16(%rbp), %ecx
	andl	$3, %ecx
	movslq	%ecx, %rcx
	movq	(%rax,%rcx,8), %rax
	movslq	-20(%rbp), %rcx
	movw	(%rax,%rcx,2), %ax
	movw	%ax, -10(%rbp)
	jmp	.LBB35_17
.LBB35_14:                              # %if.end64
	movl	-16(%rbp), %eax
	cmpl	-24(%rbp), %eax
	jle	.LBB35_16
# %bb.15:                               # %if.then66
	movq	-32(%rbp), %rax
	movl	-24(%rbp), %ecx
	movl	-16(%rbp), %edx
	andl	$3, %edx
	addl	%edx, %ecx
	movslq	%ecx, %rcx
	movq	(%rax,%rcx,8), %rax
	movslq	-20(%rbp), %rcx
	movw	(%rax,%rcx,2), %ax
	movw	%ax, -10(%rbp)
	jmp	.LBB35_17
.LBB35_16:                              # %if.end73
	movq	-32(%rbp), %rax
	movslq	-16(%rbp), %rcx
	movq	(%rax,%rcx,8), %rax
	movslq	-20(%rbp), %rcx
	movw	(%rax,%rcx,2), %ax
	movw	%ax, -10(%rbp)
.LBB35_17:                              # %return
	movw	-10(%rbp), %bx
	cmpl	$249018799, -44(%rbp)   # imm = 0xED7B9AF
	jne	.LBB35_19
.LBB35_18:
	movzwl	%bx, %eax
	addq	$40, %rsp
	popq	%rbx
	popq	%rbp
	.cfi_def_cfa %rsp, 8
	retq
.LBB35_19:                              # %func_exit
	.cfi_def_cfa %rbp, 16
	callq	detect_breach
	jmp	.LBB35_18
.Lfunc_end35:
	.size	UMVPelY_14.28, .Lfunc_end35-UMVPelY_14.28
	.cfi_endproc
                                        # -- End function
	.globl	FastPelY_14.29          # -- Begin function FastPelY_14.29
	.p2align	4, 0x90
	.type	FastPelY_14.29,@function
FastPelY_14.29:                         # @FastPelY_14.29
	.cfi_startproc
# %bb.0:                                # %entry
	pushq	%rbp
	.cfi_def_cfa_offset 16
	.cfi_offset %rbp, -16
	movq	%rsp, %rbp
	.cfi_def_cfa_register %rbp
	pushq	%rbx
	subq	$40, %rsp
	.cfi_offset %rbx, -24
	movl	$1952841073, -20(%rbp)  # imm = 0x7465FD71
	movq	%rdi, -32(%rbp)
	movl	%esi, -16(%rbp)
	movl	%edx, -12(%rbp)
	movl	%ecx, -40(%rbp)
	movl	%r8d, -36(%rbp)
	movq	-32(%rbp), %rax
	movl	-16(%rbp), %ecx
	addl	$16, %ecx
	movslq	%ecx, %rcx
	movq	(%rax,%rcx,8), %rax
	movl	-12(%rbp), %ecx
	addl	$16, %ecx
	movslq	%ecx, %rcx
	movw	(%rax,%rcx,2), %bx
	cmpl	$1952841073, -20(%rbp)  # imm = 0x7465FD71
	jne	.LBB36_2
.LBB36_1:
	movzwl	%bx, %eax
	addq	$40, %rsp
	popq	%rbx
	popq	%rbp
	.cfi_def_cfa %rsp, 8
	retq
.LBB36_2:                               # %func_exit
	.cfi_def_cfa %rbp, 16
	callq	detect_breach
	jmp	.LBB36_1
.Lfunc_end36:
	.size	FastPelY_14.29, .Lfunc_end36-FastPelY_14.29
	.cfi_endproc
                                        # -- End function
	.globl	FastPelY_14.30          # -- Begin function FastPelY_14.30
	.p2align	4, 0x90
	.type	FastPelY_14.30,@function
FastPelY_14.30:                         # @FastPelY_14.30
	.cfi_startproc
# %bb.0:                                # %entry
	pushq	%rbp
	.cfi_def_cfa_offset 16
	.cfi_offset %rbp, -16
	movq	%rsp, %rbp
	.cfi_def_cfa_register %rbp
	pushq	%rbx
	subq	$40, %rsp
	.cfi_offset %rbx, -24
	movl	$204327707, -20(%rbp)   # imm = 0xC2DCB1B
	movq	%rdi, -32(%rbp)
	movl	%esi, -16(%rbp)
	movl	%edx, -12(%rbp)
	movl	%ecx, -40(%rbp)
	movl	%r8d, -36(%rbp)
	movq	-32(%rbp), %rax
	movl	-16(%rbp), %ecx
	addl	$16, %ecx
	movslq	%ecx, %rcx
	movq	(%rax,%rcx,8), %rax
	movl	-12(%rbp), %ecx
	addl	$16, %ecx
	movslq	%ecx, %rcx
	movw	(%rax,%rcx,2), %bx
	cmpl	$204327707, -20(%rbp)   # imm = 0xC2DCB1B
	jne	.LBB37_2
.LBB37_1:
	movzwl	%bx, %eax
	addq	$40, %rsp
	popq	%rbx
	popq	%rbp
	.cfi_def_cfa %rsp, 8
	retq
.LBB37_2:                               # %func_exit
	.cfi_def_cfa %rbp, 16
	callq	detect_breach
	jmp	.LBB37_1
.Lfunc_end37:
	.size	FastPelY_14.30, .Lfunc_end37-FastPelY_14.30
	.cfi_endproc
                                        # -- End function
	.globl	FastPelY_14.31          # -- Begin function FastPelY_14.31
	.p2align	4, 0x90
	.type	FastPelY_14.31,@function
FastPelY_14.31:                         # @FastPelY_14.31
	.cfi_startproc
# %bb.0:                                # %entry
	pushq	%rbp
	.cfi_def_cfa_offset 16
	.cfi_offset %rbp, -16
	movq	%rsp, %rbp
	.cfi_def_cfa_register %rbp
	pushq	%rbx
	subq	$40, %rsp
	.cfi_offset %rbx, -24
	movl	$625476619, -20(%rbp)   # imm = 0x2548040B
	movq	%rdi, -32(%rbp)
	movl	%esi, -12(%rbp)
	movl	%edx, -16(%rbp)
	movl	%ecx, -40(%rbp)
	movl	%r8d, -36(%rbp)
	movq	-32(%rbp), %rax
	movl	-12(%rbp), %ecx
	addl	$16, %ecx
	movslq	%ecx, %rcx
	movq	(%rax,%rcx,8), %rax
	movl	-16(%rbp), %ecx
	addl	$16, %ecx
	movslq	%ecx, %rcx
	movw	(%rax,%rcx,2), %bx
	cmpl	$625476619, -20(%rbp)   # imm = 0x2548040B
	jne	.LBB38_2
.LBB38_1:
	movzwl	%bx, %eax
	addq	$40, %rsp
	popq	%rbx
	popq	%rbp
	.cfi_def_cfa %rsp, 8
	retq
.LBB38_2:                               # %func_exit
	.cfi_def_cfa %rbp, 16
	callq	detect_breach
	jmp	.LBB38_1
.Lfunc_end38:
	.size	FastPelY_14.31, .Lfunc_end38-FastPelY_14.31
	.cfi_endproc
                                        # -- End function
	.globl	UMVPelY_14.32           # -- Begin function UMVPelY_14.32
	.p2align	4, 0x90
	.type	UMVPelY_14.32,@function
UMVPelY_14.32:                          # @UMVPelY_14.32
	.cfi_startproc
# %bb.0:                                # %entry
	pushq	%rbp
	.cfi_def_cfa_offset 16
	.cfi_offset %rbp, -16
	movq	%rsp, %rbp
	.cfi_def_cfa_register %rbp
	pushq	%rbx
	subq	$40, %rsp
	.cfi_offset %rbx, -24
	movl	$1470631747, -44(%rbp)  # imm = 0x57A80F43
	movq	%rdi, -32(%rbp)
	movl	%esi, -16(%rbp)
	movl	%edx, -20(%rbp)
	movl	%ecx, -40(%rbp)
	movl	%r8d, -48(%rbp)
	movl	-48(%rbp), %eax
	addl	$8, %eax
	subl	$1, %eax
	shll	$2, %eax
	movl	%eax, -36(%rbp)
	movl	-40(%rbp), %eax
	addl	$8, %eax
	subl	$1, %eax
	shll	$2, %eax
	movl	%eax, -24(%rbp)
	movl	-20(%rbp), %eax
	addl	$16, %eax
	movl	%eax, -20(%rbp)
	movl	-16(%rbp), %eax
	addl	$16, %eax
	movl	%eax, -16(%rbp)
	cmpl	$0, -20(%rbp)
	jge	.LBB39_6
# %bb.1:                                # %if.then
	cmpl	$0, -16(%rbp)
	jge	.LBB39_3
# %bb.2:                                # %if.then7
	movq	-32(%rbp), %rax
	movl	-16(%rbp), %ecx
	andl	$3, %ecx
	movslq	%ecx, %rcx
	movq	(%rax,%rcx,8), %rax
	movl	-20(%rbp), %ecx
	andl	$3, %ecx
	movslq	%ecx, %rcx
	movw	(%rax,%rcx,2), %ax
	movw	%ax, -10(%rbp)
	jmp	.LBB39_17
.LBB39_3:                               # %if.end
	movl	-16(%rbp), %eax
	cmpl	-24(%rbp), %eax
	jle	.LBB39_5
# %bb.4:                                # %if.then12
	movq	-32(%rbp), %rax
	movl	-24(%rbp), %ecx
	movl	-16(%rbp), %edx
	andl	$3, %edx
	addl	%edx, %ecx
	movslq	%ecx, %rcx
	movq	(%rax,%rcx,8), %rax
	movl	-20(%rbp), %ecx
	andl	$3, %ecx
	movslq	%ecx, %rcx
	movw	(%rax,%rcx,2), %ax
	movw	%ax, -10(%rbp)
	jmp	.LBB39_17
.LBB39_5:                               # %if.end20
	movq	-32(%rbp), %rax
	movslq	-16(%rbp), %rcx
	movq	(%rax,%rcx,8), %rax
	movl	-20(%rbp), %ecx
	andl	$3, %ecx
	movslq	%ecx, %rcx
	movw	(%rax,%rcx,2), %ax
	movw	%ax, -10(%rbp)
	jmp	.LBB39_17
.LBB39_6:                               # %if.end26
	movl	-20(%rbp), %eax
	cmpl	-36(%rbp), %eax
	jle	.LBB39_12
# %bb.7:                                # %if.then28
	cmpl	$0, -16(%rbp)
	jge	.LBB39_9
# %bb.8:                                # %if.then30
	movq	-32(%rbp), %rax
	movl	-16(%rbp), %ecx
	andl	$3, %ecx
	movslq	%ecx, %rcx
	movq	(%rax,%rcx,8), %rax
	movl	-36(%rbp), %ecx
	movl	-20(%rbp), %edx
	andl	$3, %edx
	addl	%edx, %ecx
	movslq	%ecx, %rcx
	movw	(%rax,%rcx,2), %ax
	movw	%ax, -10(%rbp)
	jmp	.LBB39_17
.LBB39_9:                               # %if.end38
	movl	-16(%rbp), %eax
	cmpl	-24(%rbp), %eax
	jle	.LBB39_11
# %bb.10:                               # %if.then40
	movq	-32(%rbp), %rax
	movl	-24(%rbp), %ecx
	movl	-16(%rbp), %edx
	andl	$3, %edx
	addl	%edx, %ecx
	movslq	%ecx, %rcx
	movq	(%rax,%rcx,8), %rax
	movl	-36(%rbp), %ecx
	movl	-20(%rbp), %edx
	andl	$3, %edx
	addl	%edx, %ecx
	movslq	%ecx, %rcx
	movw	(%rax,%rcx,2), %ax
	movw	%ax, -10(%rbp)
	jmp	.LBB39_17
.LBB39_11:                              # %if.end49
	movq	-32(%rbp), %rax
	movslq	-16(%rbp), %rcx
	movq	(%rax,%rcx,8), %rax
	movl	-36(%rbp), %ecx
	movl	-20(%rbp), %edx
	andl	$3, %edx
	addl	%edx, %ecx
	movslq	%ecx, %rcx
	movw	(%rax,%rcx,2), %ax
	movw	%ax, -10(%rbp)
	jmp	.LBB39_17
.LBB39_12:                              # %if.end56
	cmpl	$0, -16(%rbp)
	jge	.LBB39_14
# %bb.13:                               # %if.then58
	movq	-32(%rbp), %rax
	movl	-16(%rbp), %ecx
	andl	$3, %ecx
	movslq	%ecx, %rcx
	movq	(%rax,%rcx,8), %rax
	movslq	-20(%rbp), %rcx
	movw	(%rax,%rcx,2), %ax
	movw	%ax, -10(%rbp)
	jmp	.LBB39_17
.LBB39_14:                              # %if.end64
	movl	-16(%rbp), %eax
	cmpl	-24(%rbp), %eax
	jle	.LBB39_16
# %bb.15:                               # %if.then66
	movq	-32(%rbp), %rax
	movl	-24(%rbp), %ecx
	movl	-16(%rbp), %edx
	andl	$3, %edx
	addl	%edx, %ecx
	movslq	%ecx, %rcx
	movq	(%rax,%rcx,8), %rax
	movslq	-20(%rbp), %rcx
	movw	(%rax,%rcx,2), %ax
	movw	%ax, -10(%rbp)
	jmp	.LBB39_17
.LBB39_16:                              # %if.end73
	movq	-32(%rbp), %rax
	movslq	-16(%rbp), %rcx
	movq	(%rax,%rcx,8), %rax
	movslq	-20(%rbp), %rcx
	movw	(%rax,%rcx,2), %ax
	movw	%ax, -10(%rbp)
.LBB39_17:                              # %return
	movw	-10(%rbp), %bx
	cmpl	$1470631747, -44(%rbp)  # imm = 0x57A80F43
	jne	.LBB39_19
.LBB39_18:
	movzwl	%bx, %eax
	addq	$40, %rsp
	popq	%rbx
	popq	%rbp
	.cfi_def_cfa %rsp, 8
	retq
.LBB39_19:                              # %func_exit
	.cfi_def_cfa %rbp, 16
	callq	detect_breach
	jmp	.LBB39_18
.Lfunc_end39:
	.size	UMVPelY_14.32, .Lfunc_end39-UMVPelY_14.32
	.cfi_endproc
                                        # -- End function
	.globl	PutPel_14.33            # -- Begin function PutPel_14.33
	.p2align	4, 0x90
	.type	PutPel_14.33,@function
PutPel_14.33:                           # @PutPel_14.33
	.cfi_startproc
# %bb.0:                                # %entry
	pushq	%rbp
	.cfi_def_cfa_offset 16
	.cfi_offset %rbp, -16
	movq	%rsp, %rbp
	.cfi_def_cfa_register %rbp
	subq	$32, %rsp
	movl	$1513225314, -12(%rbp)  # imm = 0x5A31FC62
	movq	%rdi, -24(%rbp)
	movl	%esi, -16(%rbp)
	movl	%edx, -8(%rbp)
	movw	%cx, -2(%rbp)
	movw	-2(%rbp), %ax
	movq	-24(%rbp), %rcx
	movl	-16(%rbp), %edx
	addl	$16, %edx
	movslq	%edx, %rdx
	movq	(%rcx,%rdx,8), %rcx
	movl	-8(%rbp), %edx
	addl	$16, %edx
	movslq	%edx, %rdx
	movw	%ax, (%rcx,%rdx,2)
	cmpl	$1513225314, -12(%rbp)  # imm = 0x5A31FC62
	jne	.LBB40_2
.LBB40_1:
	addq	$32, %rsp
	popq	%rbp
	.cfi_def_cfa %rsp, 8
	retq
.LBB40_2:                               # %func_exit
	.cfi_def_cfa %rbp, 16
	callq	detect_breach
	jmp	.LBB40_1
.Lfunc_end40:
	.size	PutPel_14.33, .Lfunc_end40-PutPel_14.33
	.cfi_endproc
                                        # -- End function
	.globl	UMVPelY_14.34           # -- Begin function UMVPelY_14.34
	.p2align	4, 0x90
	.type	UMVPelY_14.34,@function
UMVPelY_14.34:                          # @UMVPelY_14.34
	.cfi_startproc
# %bb.0:                                # %entry
	pushq	%rbp
	.cfi_def_cfa_offset 16
	.cfi_offset %rbp, -16
	movq	%rsp, %rbp
	.cfi_def_cfa_register %rbp
	pushq	%rbx
	subq	$40, %rsp
	.cfi_offset %rbx, -24
	movl	$269553024, -48(%rbp)   # imm = 0x10110D80
	movq	%rdi, -32(%rbp)
	movl	%esi, -16(%rbp)
	movl	%edx, -20(%rbp)
	movl	%ecx, -44(%rbp)
	movl	%r8d, -40(%rbp)
	movl	-40(%rbp), %eax
	addl	$8, %eax
	subl	$1, %eax
	shll	$2, %eax
	movl	%eax, -36(%rbp)
	movl	-44(%rbp), %eax
	addl	$8, %eax
	subl	$1, %eax
	shll	$2, %eax
	movl	%eax, -24(%rbp)
	movl	-20(%rbp), %eax
	addl	$16, %eax
	movl	%eax, -20(%rbp)
	movl	-16(%rbp), %eax
	addl	$16, %eax
	movl	%eax, -16(%rbp)
	cmpl	$0, -20(%rbp)
	jge	.LBB41_6
# %bb.1:                                # %if.then
	cmpl	$0, -16(%rbp)
	jge	.LBB41_3
# %bb.2:                                # %if.then7
	movq	-32(%rbp), %rax
	movl	-16(%rbp), %ecx
	andl	$3, %ecx
	movslq	%ecx, %rcx
	movq	(%rax,%rcx,8), %rax
	movl	-20(%rbp), %ecx
	andl	$3, %ecx
	movslq	%ecx, %rcx
	movw	(%rax,%rcx,2), %ax
	movw	%ax, -10(%rbp)
	jmp	.LBB41_17
.LBB41_3:                               # %if.end
	movl	-16(%rbp), %eax
	cmpl	-24(%rbp), %eax
	jle	.LBB41_5
# %bb.4:                                # %if.then12
	movq	-32(%rbp), %rax
	movl	-24(%rbp), %ecx
	movl	-16(%rbp), %edx
	andl	$3, %edx
	addl	%edx, %ecx
	movslq	%ecx, %rcx
	movq	(%rax,%rcx,8), %rax
	movl	-20(%rbp), %ecx
	andl	$3, %ecx
	movslq	%ecx, %rcx
	movw	(%rax,%rcx,2), %ax
	movw	%ax, -10(%rbp)
	jmp	.LBB41_17
.LBB41_5:                               # %if.end20
	movq	-32(%rbp), %rax
	movslq	-16(%rbp), %rcx
	movq	(%rax,%rcx,8), %rax
	movl	-20(%rbp), %ecx
	andl	$3, %ecx
	movslq	%ecx, %rcx
	movw	(%rax,%rcx,2), %ax
	movw	%ax, -10(%rbp)
	jmp	.LBB41_17
.LBB41_6:                               # %if.end26
	movl	-20(%rbp), %eax
	cmpl	-36(%rbp), %eax
	jle	.LBB41_12
# %bb.7:                                # %if.then28
	cmpl	$0, -16(%rbp)
	jge	.LBB41_9
# %bb.8:                                # %if.then30
	movq	-32(%rbp), %rax
	movl	-16(%rbp), %ecx
	andl	$3, %ecx
	movslq	%ecx, %rcx
	movq	(%rax,%rcx,8), %rax
	movl	-36(%rbp), %ecx
	movl	-20(%rbp), %edx
	andl	$3, %edx
	addl	%edx, %ecx
	movslq	%ecx, %rcx
	movw	(%rax,%rcx,2), %ax
	movw	%ax, -10(%rbp)
	jmp	.LBB41_17
.LBB41_9:                               # %if.end38
	movl	-16(%rbp), %eax
	cmpl	-24(%rbp), %eax
	jle	.LBB41_11
# %bb.10:                               # %if.then40
	movq	-32(%rbp), %rax
	movl	-24(%rbp), %ecx
	movl	-16(%rbp), %edx
	andl	$3, %edx
	addl	%edx, %ecx
	movslq	%ecx, %rcx
	movq	(%rax,%rcx,8), %rax
	movl	-36(%rbp), %ecx
	movl	-20(%rbp), %edx
	andl	$3, %edx
	addl	%edx, %ecx
	movslq	%ecx, %rcx
	movw	(%rax,%rcx,2), %ax
	movw	%ax, -10(%rbp)
	jmp	.LBB41_17
.LBB41_11:                              # %if.end49
	movq	-32(%rbp), %rax
	movslq	-16(%rbp), %rcx
	movq	(%rax,%rcx,8), %rax
	movl	-36(%rbp), %ecx
	movl	-20(%rbp), %edx
	andl	$3, %edx
	addl	%edx, %ecx
	movslq	%ecx, %rcx
	movw	(%rax,%rcx,2), %ax
	movw	%ax, -10(%rbp)
	jmp	.LBB41_17
.LBB41_12:                              # %if.end56
	cmpl	$0, -16(%rbp)
	jge	.LBB41_14
# %bb.13:                               # %if.then58
	movq	-32(%rbp), %rax
	movl	-16(%rbp), %ecx
	andl	$3, %ecx
	movslq	%ecx, %rcx
	movq	(%rax,%rcx,8), %rax
	movslq	-20(%rbp), %rcx
	movw	(%rax,%rcx,2), %ax
	movw	%ax, -10(%rbp)
	jmp	.LBB41_17
.LBB41_14:                              # %if.end64
	movl	-16(%rbp), %eax
	cmpl	-24(%rbp), %eax
	jle	.LBB41_16
# %bb.15:                               # %if.then66
	movq	-32(%rbp), %rax
	movl	-24(%rbp), %ecx
	movl	-16(%rbp), %edx
	andl	$3, %edx
	addl	%edx, %ecx
	movslq	%ecx, %rcx
	movq	(%rax,%rcx,8), %rax
	movslq	-20(%rbp), %rcx
	movw	(%rax,%rcx,2), %ax
	movw	%ax, -10(%rbp)
	jmp	.LBB41_17
.LBB41_16:                              # %if.end73
	movq	-32(%rbp), %rax
	movslq	-16(%rbp), %rcx
	movq	(%rax,%rcx,8), %rax
	movslq	-20(%rbp), %rcx
	movw	(%rax,%rcx,2), %ax
	movw	%ax, -10(%rbp)
.LBB41_17:                              # %return
	movw	-10(%rbp), %bx
	cmpl	$269553024, -48(%rbp)   # imm = 0x10110D80
	jne	.LBB41_19
.LBB41_18:
	movzwl	%bx, %eax
	addq	$40, %rsp
	popq	%rbx
	popq	%rbp
	.cfi_def_cfa %rsp, 8
	retq
.LBB41_19:                              # %func_exit
	.cfi_def_cfa %rbp, 16
	callq	detect_breach
	jmp	.LBB41_18
.Lfunc_end41:
	.size	UMVPelY_14.34, .Lfunc_end41-UMVPelY_14.34
	.cfi_endproc
                                        # -- End function
	.globl	UMVLineX.35             # -- Begin function UMVLineX.35
	.p2align	4, 0x90
	.type	UMVLineX.35,@function
UMVLineX.35:                            # @UMVLineX.35
	.cfi_startproc
# %bb.0:                                # %entry
	pushq	%rbp
	.cfi_def_cfa_offset 16
	.cfi_offset %rbp, -16
	movq	%rsp, %rbp
	.cfi_def_cfa_register %rbp
	pushq	%rbx
	subq	$72, %rsp
	.cfi_offset %rbx, -24
	movl	$1473482207, -52(%rbp)  # imm = 0x57D38DDF
	movl	%edi, -28(%rbp)
	movq	%rsi, -72(%rbp)
	movl	%edx, -36(%rbp)
	movl	%ecx, -16(%rbp)
	movl	%r8d, -32(%rbp)
	movl	%r9d, -24(%rbp)
	movq	-72(%rbp), %rax
	movl	-32(%rbp), %ecx
	subl	$1, %ecx
	cmpl	-36(%rbp), %ecx
	jge	.LBB42_2
# %bb.1:                                # %cond.true
	movl	-32(%rbp), %ecx
	subl	$1, %ecx
	jmp	.LBB42_3
.LBB42_2:                               # %cond.false
	movl	-36(%rbp), %ecx
.LBB42_3:                               # %cond.end
	xorl	%edx, %edx
	cmpl	%ecx, %edx
	jle	.LBB42_5
# %bb.4:                                # %cond.true3
	xorl	%ecx, %ecx
	jmp	.LBB42_9
.LBB42_5:                               # %cond.false4
	movl	-32(%rbp), %ecx
	subl	$1, %ecx
	cmpl	-36(%rbp), %ecx
	jge	.LBB42_7
# %bb.6:                                # %cond.true7
	movl	-32(%rbp), %ecx
	subl	$1, %ecx
	jmp	.LBB42_8
.LBB42_7:                               # %cond.false9
	movl	-36(%rbp), %ecx
.LBB42_8:                               # %cond.end10
.LBB42_9:                               # %cond.end12
	imull	-24(%rbp), %ecx
	movslq	%ecx, %rcx
	shlq	$1, %rcx
	addq	%rcx, %rax
	movq	%rax, -48(%rbp)
	cmpl	$0, -16(%rbp)
	jge	.LBB42_22
# %bb.10:                               # %if.then
	xorl	%eax, %eax
	movl	-16(%rbp), %ecx
	addl	-28(%rbp), %ecx
	cmpl	%ecx, %eax
	jge	.LBB42_12
# %bb.11:                               # %cond.true16
	xorl	%eax, %eax
	jmp	.LBB42_13
.LBB42_12:                              # %cond.false17
	movl	-16(%rbp), %eax
	addl	-28(%rbp), %eax
.LBB42_13:                              # %cond.end19
	movl	%eax, -20(%rbp)
	movl	-16(%rbp), %eax
	movl	%eax, -12(%rbp)
.LBB42_14:                              # %for.cond
                                        # =>This Inner Loop Header: Depth=1
	movl	-12(%rbp), %eax
	cmpl	-20(%rbp), %eax
	jge	.LBB42_17
# %bb.15:                               # %for.body
                                        #   in Loop: Header=BB42_14 Depth=1
	movq	-48(%rbp), %rax
	movw	(%rax), %ax
	movl	-12(%rbp), %ecx
	subl	-16(%rbp), %ecx
	movslq	%ecx, %rcx
	movw	%ax, line(,%rcx,2)
# %bb.16:                               # %for.inc
                                        #   in Loop: Header=BB42_14 Depth=1
	movl	-12(%rbp), %eax
	addl	$1, %eax
	movl	%eax, -12(%rbp)
	jmp	.LBB42_14
.LBB42_17:                              # %for.end
	movl	-16(%rbp), %eax
	addl	-28(%rbp), %eax
	movl	%eax, -20(%rbp)
	movl	$0, -12(%rbp)
.LBB42_18:                              # %for.cond25
                                        # =>This Inner Loop Header: Depth=1
	movl	-12(%rbp), %eax
	cmpl	-20(%rbp), %eax
	jge	.LBB42_21
# %bb.19:                               # %for.body27
                                        #   in Loop: Header=BB42_18 Depth=1
	movq	-48(%rbp), %rax
	movslq	-12(%rbp), %rcx
	movw	(%rax,%rcx,2), %ax
	movl	-12(%rbp), %ecx
	subl	-16(%rbp), %ecx
	movslq	%ecx, %rcx
	movw	%ax, line(,%rcx,2)
# %bb.20:                               # %for.inc33
                                        #   in Loop: Header=BB42_18 Depth=1
	movl	-12(%rbp), %eax
	addl	$1, %eax
	movl	%eax, -12(%rbp)
	jmp	.LBB42_18
.LBB42_21:                              # %for.end35
	jmp	.LBB42_37
.LBB42_22:                              # %if.else
	movl	-16(%rbp), %eax
	movl	-24(%rbp), %ecx
	subl	-28(%rbp), %ecx
	cmpl	%ecx, %eax
	jle	.LBB42_35
# %bb.23:                               # %if.then38
	movl	-24(%rbp), %eax
	movl	%eax, -20(%rbp)
	movl	-16(%rbp), %eax
	movl	%eax, -12(%rbp)
.LBB42_24:                              # %for.cond39
                                        # =>This Inner Loop Header: Depth=1
	movl	-12(%rbp), %eax
	cmpl	-20(%rbp), %eax
	jge	.LBB42_27
# %bb.25:                               # %for.body41
                                        #   in Loop: Header=BB42_24 Depth=1
	movq	-48(%rbp), %rax
	movslq	-12(%rbp), %rcx
	movw	(%rax,%rcx,2), %ax
	movl	-12(%rbp), %ecx
	subl	-16(%rbp), %ecx
	movslq	%ecx, %rcx
	movw	%ax, line(,%rcx,2)
# %bb.26:                               # %for.inc47
                                        #   in Loop: Header=BB42_24 Depth=1
	movl	-12(%rbp), %eax
	addl	$1, %eax
	movl	%eax, -12(%rbp)
	jmp	.LBB42_24
.LBB42_27:                              # %for.end49
	movl	-16(%rbp), %eax
	addl	-28(%rbp), %eax
	movl	%eax, -20(%rbp)
	movl	-24(%rbp), %eax
	cmpl	-16(%rbp), %eax
	jle	.LBB42_29
# %bb.28:                               # %cond.true52
	movl	-24(%rbp), %eax
	jmp	.LBB42_30
.LBB42_29:                              # %cond.false53
	movl	-16(%rbp), %eax
.LBB42_30:                              # %cond.end54
	movl	%eax, -12(%rbp)
.LBB42_31:                              # %for.cond56
                                        # =>This Inner Loop Header: Depth=1
	movl	-12(%rbp), %eax
	cmpl	-20(%rbp), %eax
	jge	.LBB42_34
# %bb.32:                               # %for.body58
                                        #   in Loop: Header=BB42_31 Depth=1
	movq	-48(%rbp), %rax
	movl	-24(%rbp), %ecx
	subl	$1, %ecx
	movslq	%ecx, %rcx
	movw	(%rax,%rcx,2), %ax
	movl	-12(%rbp), %ecx
	subl	-16(%rbp), %ecx
	movslq	%ecx, %rcx
	movw	%ax, line(,%rcx,2)
# %bb.33:                               # %for.inc65
                                        #   in Loop: Header=BB42_31 Depth=1
	movl	-12(%rbp), %eax
	addl	$1, %eax
	movl	%eax, -12(%rbp)
	jmp	.LBB42_31
.LBB42_34:                              # %for.end67
	jmp	.LBB42_36
.LBB42_35:                              # %if.else68
	movq	-48(%rbp), %rax
	movslq	-16(%rbp), %rcx
	shlq	$1, %rcx
	addq	%rcx, %rax
	movq	%rax, -64(%rbp)
	jmp	.LBB42_38
.LBB42_36:                              # %if.end
	jmp	.LBB42_37
.LBB42_37:                              # %if.end71
	movabsq	$line, %rax
	movq	%rax, -64(%rbp)
.LBB42_38:                              # %return
	movq	-64(%rbp), %rbx
	cmpl	$1473482207, -52(%rbp)  # imm = 0x57D38DDF
	jne	.LBB42_40
.LBB42_39:
	movq	%rbx, %rax
	addq	$72, %rsp
	popq	%rbx
	popq	%rbp
	.cfi_def_cfa %rsp, 8
	retq
.LBB42_40:                              # %func_exit
	.cfi_def_cfa %rbp, 16
	callq	detect_breach
	jmp	.LBB42_39
.Lfunc_end42:
	.size	UMVLineX.35, .Lfunc_end42-UMVLineX.35
	.cfi_endproc
                                        # -- End function
	.globl	UMVLineX.36             # -- Begin function UMVLineX.36
	.p2align	4, 0x90
	.type	UMVLineX.36,@function
UMVLineX.36:                            # @UMVLineX.36
	.cfi_startproc
# %bb.0:                                # %entry
	pushq	%rbp
	.cfi_def_cfa_offset 16
	.cfi_offset %rbp, -16
	movq	%rsp, %rbp
	.cfi_def_cfa_register %rbp
	pushq	%rbx
	subq	$72, %rsp
	.cfi_offset %rbx, -24
	movl	$1166291517, -52(%rbp)  # imm = 0x4584323D
	movl	%edi, -28(%rbp)
	movq	%rsi, -72(%rbp)
	movl	%edx, -36(%rbp)
	movl	%ecx, -16(%rbp)
	movl	%r8d, -32(%rbp)
	movl	%r9d, -24(%rbp)
	movq	-72(%rbp), %rax
	movl	-32(%rbp), %ecx
	subl	$1, %ecx
	cmpl	-36(%rbp), %ecx
	jge	.LBB43_2
# %bb.1:                                # %cond.true
	movl	-32(%rbp), %ecx
	subl	$1, %ecx
	jmp	.LBB43_3
.LBB43_2:                               # %cond.false
	movl	-36(%rbp), %ecx
.LBB43_3:                               # %cond.end
	xorl	%edx, %edx
	cmpl	%ecx, %edx
	jle	.LBB43_5
# %bb.4:                                # %cond.true3
	xorl	%ecx, %ecx
	jmp	.LBB43_9
.LBB43_5:                               # %cond.false4
	movl	-32(%rbp), %ecx
	subl	$1, %ecx
	cmpl	-36(%rbp), %ecx
	jge	.LBB43_7
# %bb.6:                                # %cond.true7
	movl	-32(%rbp), %ecx
	subl	$1, %ecx
	jmp	.LBB43_8
.LBB43_7:                               # %cond.false9
	movl	-36(%rbp), %ecx
.LBB43_8:                               # %cond.end10
.LBB43_9:                               # %cond.end12
	imull	-24(%rbp), %ecx
	movslq	%ecx, %rcx
	shlq	$1, %rcx
	addq	%rcx, %rax
	movq	%rax, -48(%rbp)
	cmpl	$0, -16(%rbp)
	jge	.LBB43_22
# %bb.10:                               # %if.then
	xorl	%eax, %eax
	movl	-16(%rbp), %ecx
	addl	-28(%rbp), %ecx
	cmpl	%ecx, %eax
	jge	.LBB43_12
# %bb.11:                               # %cond.true16
	xorl	%eax, %eax
	jmp	.LBB43_13
.LBB43_12:                              # %cond.false17
	movl	-16(%rbp), %eax
	addl	-28(%rbp), %eax
.LBB43_13:                              # %cond.end19
	movl	%eax, -20(%rbp)
	movl	-16(%rbp), %eax
	movl	%eax, -12(%rbp)
.LBB43_14:                              # %for.cond
                                        # =>This Inner Loop Header: Depth=1
	movl	-12(%rbp), %eax
	cmpl	-20(%rbp), %eax
	jge	.LBB43_17
# %bb.15:                               # %for.body
                                        #   in Loop: Header=BB43_14 Depth=1
	movq	-48(%rbp), %rax
	movw	(%rax), %ax
	movl	-12(%rbp), %ecx
	subl	-16(%rbp), %ecx
	movslq	%ecx, %rcx
	movw	%ax, line(,%rcx,2)
# %bb.16:                               # %for.inc
                                        #   in Loop: Header=BB43_14 Depth=1
	movl	-12(%rbp), %eax
	addl	$1, %eax
	movl	%eax, -12(%rbp)
	jmp	.LBB43_14
.LBB43_17:                              # %for.end
	movl	-16(%rbp), %eax
	addl	-28(%rbp), %eax
	movl	%eax, -20(%rbp)
	movl	$0, -12(%rbp)
.LBB43_18:                              # %for.cond25
                                        # =>This Inner Loop Header: Depth=1
	movl	-12(%rbp), %eax
	cmpl	-20(%rbp), %eax
	jge	.LBB43_21
# %bb.19:                               # %for.body27
                                        #   in Loop: Header=BB43_18 Depth=1
	movq	-48(%rbp), %rax
	movslq	-12(%rbp), %rcx
	movw	(%rax,%rcx,2), %ax
	movl	-12(%rbp), %ecx
	subl	-16(%rbp), %ecx
	movslq	%ecx, %rcx
	movw	%ax, line(,%rcx,2)
# %bb.20:                               # %for.inc33
                                        #   in Loop: Header=BB43_18 Depth=1
	movl	-12(%rbp), %eax
	addl	$1, %eax
	movl	%eax, -12(%rbp)
	jmp	.LBB43_18
.LBB43_21:                              # %for.end35
	jmp	.LBB43_37
.LBB43_22:                              # %if.else
	movl	-16(%rbp), %eax
	movl	-24(%rbp), %ecx
	subl	-28(%rbp), %ecx
	cmpl	%ecx, %eax
	jle	.LBB43_35
# %bb.23:                               # %if.then38
	movl	-24(%rbp), %eax
	movl	%eax, -20(%rbp)
	movl	-16(%rbp), %eax
	movl	%eax, -12(%rbp)
.LBB43_24:                              # %for.cond39
                                        # =>This Inner Loop Header: Depth=1
	movl	-12(%rbp), %eax
	cmpl	-20(%rbp), %eax
	jge	.LBB43_27
# %bb.25:                               # %for.body41
                                        #   in Loop: Header=BB43_24 Depth=1
	movq	-48(%rbp), %rax
	movslq	-12(%rbp), %rcx
	movw	(%rax,%rcx,2), %ax
	movl	-12(%rbp), %ecx
	subl	-16(%rbp), %ecx
	movslq	%ecx, %rcx
	movw	%ax, line(,%rcx,2)
# %bb.26:                               # %for.inc47
                                        #   in Loop: Header=BB43_24 Depth=1
	movl	-12(%rbp), %eax
	addl	$1, %eax
	movl	%eax, -12(%rbp)
	jmp	.LBB43_24
.LBB43_27:                              # %for.end49
	movl	-16(%rbp), %eax
	addl	-28(%rbp), %eax
	movl	%eax, -20(%rbp)
	movl	-24(%rbp), %eax
	cmpl	-16(%rbp), %eax
	jle	.LBB43_29
# %bb.28:                               # %cond.true52
	movl	-24(%rbp), %eax
	jmp	.LBB43_30
.LBB43_29:                              # %cond.false53
	movl	-16(%rbp), %eax
.LBB43_30:                              # %cond.end54
	movl	%eax, -12(%rbp)
.LBB43_31:                              # %for.cond56
                                        # =>This Inner Loop Header: Depth=1
	movl	-12(%rbp), %eax
	cmpl	-20(%rbp), %eax
	jge	.LBB43_34
# %bb.32:                               # %for.body58
                                        #   in Loop: Header=BB43_31 Depth=1
	movq	-48(%rbp), %rax
	movl	-24(%rbp), %ecx
	subl	$1, %ecx
	movslq	%ecx, %rcx
	movw	(%rax,%rcx,2), %ax
	movl	-12(%rbp), %ecx
	subl	-16(%rbp), %ecx
	movslq	%ecx, %rcx
	movw	%ax, line(,%rcx,2)
# %bb.33:                               # %for.inc65
                                        #   in Loop: Header=BB43_31 Depth=1
	movl	-12(%rbp), %eax
	addl	$1, %eax
	movl	%eax, -12(%rbp)
	jmp	.LBB43_31
.LBB43_34:                              # %for.end67
	jmp	.LBB43_36
.LBB43_35:                              # %if.else68
	movq	-48(%rbp), %rax
	movslq	-16(%rbp), %rcx
	shlq	$1, %rcx
	addq	%rcx, %rax
	movq	%rax, -64(%rbp)
	jmp	.LBB43_38
.LBB43_36:                              # %if.end
	jmp	.LBB43_37
.LBB43_37:                              # %if.end71
	movabsq	$line, %rax
	movq	%rax, -64(%rbp)
.LBB43_38:                              # %return
	movq	-64(%rbp), %rbx
	cmpl	$1166291517, -52(%rbp)  # imm = 0x4584323D
	jne	.LBB43_40
.LBB43_39:
	movq	%rbx, %rax
	addq	$72, %rsp
	popq	%rbx
	popq	%rbp
	.cfi_def_cfa %rsp, 8
	retq
.LBB43_40:                              # %func_exit
	.cfi_def_cfa %rbp, 16
	callq	detect_breach
	jmp	.LBB43_39
.Lfunc_end43:
	.size	UMVLineX.36, .Lfunc_end43-UMVLineX.36
	.cfi_endproc
                                        # -- End function
	.globl	UMVLineX.37             # -- Begin function UMVLineX.37
	.p2align	4, 0x90
	.type	UMVLineX.37,@function
UMVLineX.37:                            # @UMVLineX.37
	.cfi_startproc
# %bb.0:                                # %entry
	pushq	%rbp
	.cfi_def_cfa_offset 16
	.cfi_offset %rbp, -16
	movq	%rsp, %rbp
	.cfi_def_cfa_register %rbp
	pushq	%rbx
	subq	$72, %rsp
	.cfi_offset %rbx, -24
	movl	$2068782013, -52(%rbp)  # imm = 0x7B4F1BBD
	movl	%edi, -28(%rbp)
	movq	%rsi, -72(%rbp)
	movl	%edx, -32(%rbp)
	movl	%ecx, -16(%rbp)
	movl	%r8d, -36(%rbp)
	movl	%r9d, -24(%rbp)
	movq	-72(%rbp), %rax
	movl	-36(%rbp), %ecx
	subl	$1, %ecx
	cmpl	-32(%rbp), %ecx
	jge	.LBB44_2
# %bb.1:                                # %cond.true
	movl	-36(%rbp), %ecx
	subl	$1, %ecx
	jmp	.LBB44_3
.LBB44_2:                               # %cond.false
	movl	-32(%rbp), %ecx
.LBB44_3:                               # %cond.end
	xorl	%edx, %edx
	cmpl	%ecx, %edx
	jle	.LBB44_5
# %bb.4:                                # %cond.true3
	xorl	%ecx, %ecx
	jmp	.LBB44_9
.LBB44_5:                               # %cond.false4
	movl	-36(%rbp), %ecx
	subl	$1, %ecx
	cmpl	-32(%rbp), %ecx
	jge	.LBB44_7
# %bb.6:                                # %cond.true7
	movl	-36(%rbp), %ecx
	subl	$1, %ecx
	jmp	.LBB44_8
.LBB44_7:                               # %cond.false9
	movl	-32(%rbp), %ecx
.LBB44_8:                               # %cond.end10
.LBB44_9:                               # %cond.end12
	imull	-24(%rbp), %ecx
	movslq	%ecx, %rcx
	shlq	$1, %rcx
	addq	%rcx, %rax
	movq	%rax, -48(%rbp)
	cmpl	$0, -16(%rbp)
	jge	.LBB44_22
# %bb.10:                               # %if.then
	xorl	%eax, %eax
	movl	-16(%rbp), %ecx
	addl	-28(%rbp), %ecx
	cmpl	%ecx, %eax
	jge	.LBB44_12
# %bb.11:                               # %cond.true16
	xorl	%eax, %eax
	jmp	.LBB44_13
.LBB44_12:                              # %cond.false17
	movl	-16(%rbp), %eax
	addl	-28(%rbp), %eax
.LBB44_13:                              # %cond.end19
	movl	%eax, -20(%rbp)
	movl	-16(%rbp), %eax
	movl	%eax, -12(%rbp)
.LBB44_14:                              # %for.cond
                                        # =>This Inner Loop Header: Depth=1
	movl	-12(%rbp), %eax
	cmpl	-20(%rbp), %eax
	jge	.LBB44_17
# %bb.15:                               # %for.body
                                        #   in Loop: Header=BB44_14 Depth=1
	movq	-48(%rbp), %rax
	movw	(%rax), %ax
	movl	-12(%rbp), %ecx
	subl	-16(%rbp), %ecx
	movslq	%ecx, %rcx
	movw	%ax, line(,%rcx,2)
# %bb.16:                               # %for.inc
                                        #   in Loop: Header=BB44_14 Depth=1
	movl	-12(%rbp), %eax
	addl	$1, %eax
	movl	%eax, -12(%rbp)
	jmp	.LBB44_14
.LBB44_17:                              # %for.end
	movl	-16(%rbp), %eax
	addl	-28(%rbp), %eax
	movl	%eax, -20(%rbp)
	movl	$0, -12(%rbp)
.LBB44_18:                              # %for.cond25
                                        # =>This Inner Loop Header: Depth=1
	movl	-12(%rbp), %eax
	cmpl	-20(%rbp), %eax
	jge	.LBB44_21
# %bb.19:                               # %for.body27
                                        #   in Loop: Header=BB44_18 Depth=1
	movq	-48(%rbp), %rax
	movslq	-12(%rbp), %rcx
	movw	(%rax,%rcx,2), %ax
	movl	-12(%rbp), %ecx
	subl	-16(%rbp), %ecx
	movslq	%ecx, %rcx
	movw	%ax, line(,%rcx,2)
# %bb.20:                               # %for.inc33
                                        #   in Loop: Header=BB44_18 Depth=1
	movl	-12(%rbp), %eax
	addl	$1, %eax
	movl	%eax, -12(%rbp)
	jmp	.LBB44_18
.LBB44_21:                              # %for.end35
	jmp	.LBB44_37
.LBB44_22:                              # %if.else
	movl	-16(%rbp), %eax
	movl	-24(%rbp), %ecx
	subl	-28(%rbp), %ecx
	cmpl	%ecx, %eax
	jle	.LBB44_35
# %bb.23:                               # %if.then38
	movl	-24(%rbp), %eax
	movl	%eax, -20(%rbp)
	movl	-16(%rbp), %eax
	movl	%eax, -12(%rbp)
.LBB44_24:                              # %for.cond39
                                        # =>This Inner Loop Header: Depth=1
	movl	-12(%rbp), %eax
	cmpl	-20(%rbp), %eax
	jge	.LBB44_27
# %bb.25:                               # %for.body41
                                        #   in Loop: Header=BB44_24 Depth=1
	movq	-48(%rbp), %rax
	movslq	-12(%rbp), %rcx
	movw	(%rax,%rcx,2), %ax
	movl	-12(%rbp), %ecx
	subl	-16(%rbp), %ecx
	movslq	%ecx, %rcx
	movw	%ax, line(,%rcx,2)
# %bb.26:                               # %for.inc47
                                        #   in Loop: Header=BB44_24 Depth=1
	movl	-12(%rbp), %eax
	addl	$1, %eax
	movl	%eax, -12(%rbp)
	jmp	.LBB44_24
.LBB44_27:                              # %for.end49
	movl	-16(%rbp), %eax
	addl	-28(%rbp), %eax
	movl	%eax, -20(%rbp)
	movl	-24(%rbp), %eax
	cmpl	-16(%rbp), %eax
	jle	.LBB44_29
# %bb.28:                               # %cond.true52
	movl	-24(%rbp), %eax
	jmp	.LBB44_30
.LBB44_29:                              # %cond.false53
	movl	-16(%rbp), %eax
.LBB44_30:                              # %cond.end54
	movl	%eax, -12(%rbp)
.LBB44_31:                              # %for.cond56
                                        # =>This Inner Loop Header: Depth=1
	movl	-12(%rbp), %eax
	cmpl	-20(%rbp), %eax
	jge	.LBB44_34
# %bb.32:                               # %for.body58
                                        #   in Loop: Header=BB44_31 Depth=1
	movq	-48(%rbp), %rax
	movl	-24(%rbp), %ecx
	subl	$1, %ecx
	movslq	%ecx, %rcx
	movw	(%rax,%rcx,2), %ax
	movl	-12(%rbp), %ecx
	subl	-16(%rbp), %ecx
	movslq	%ecx, %rcx
	movw	%ax, line(,%rcx,2)
# %bb.33:                               # %for.inc65
                                        #   in Loop: Header=BB44_31 Depth=1
	movl	-12(%rbp), %eax
	addl	$1, %eax
	movl	%eax, -12(%rbp)
	jmp	.LBB44_31
.LBB44_34:                              # %for.end67
	jmp	.LBB44_36
.LBB44_35:                              # %if.else68
	movq	-48(%rbp), %rax
	movslq	-16(%rbp), %rcx
	shlq	$1, %rcx
	addq	%rcx, %rax
	movq	%rax, -64(%rbp)
	jmp	.LBB44_38
.LBB44_36:                              # %if.end
	jmp	.LBB44_37
.LBB44_37:                              # %if.end71
	movabsq	$line, %rax
	movq	%rax, -64(%rbp)
.LBB44_38:                              # %return
	movq	-64(%rbp), %rbx
	cmpl	$2068782013, -52(%rbp)  # imm = 0x7B4F1BBD
	jne	.LBB44_40
.LBB44_39:
	movq	%rbx, %rax
	addq	$72, %rsp
	popq	%rbx
	popq	%rbp
	.cfi_def_cfa %rsp, 8
	retq
.LBB44_40:                              # %func_exit
	.cfi_def_cfa %rbp, 16
	callq	detect_breach
	jmp	.LBB44_39
.Lfunc_end44:
	.size	UMVLineX.37, .Lfunc_end44-UMVLineX.37
	.cfi_endproc
                                        # -- End function
	.globl	PutPel_14.38            # -- Begin function PutPel_14.38
	.p2align	4, 0x90
	.type	PutPel_14.38,@function
PutPel_14.38:                           # @PutPel_14.38
	.cfi_startproc
# %bb.0:                                # %entry
	pushq	%rbp
	.cfi_def_cfa_offset 16
	.cfi_offset %rbp, -16
	movq	%rsp, %rbp
	.cfi_def_cfa_register %rbp
	subq	$32, %rsp
	movl	$343809710, -12(%rbp)   # imm = 0x147E1EAE
	movq	%rdi, -24(%rbp)
	movl	%esi, -16(%rbp)
	movl	%edx, -8(%rbp)
	movw	%cx, -2(%rbp)
	movw	-2(%rbp), %ax
	movq	-24(%rbp), %rcx
	movl	-16(%rbp), %edx
	addl	$16, %edx
	movslq	%edx, %rdx
	movq	(%rcx,%rdx,8), %rcx
	movl	-8(%rbp), %edx
	addl	$16, %edx
	movslq	%edx, %rdx
	movw	%ax, (%rcx,%rdx,2)
	cmpl	$343809710, -12(%rbp)   # imm = 0x147E1EAE
	jne	.LBB45_2
.LBB45_1:
	addq	$32, %rsp
	popq	%rbp
	.cfi_def_cfa %rsp, 8
	retq
.LBB45_2:                               # %func_exit
	.cfi_def_cfa %rbp, 16
	callq	detect_breach
	jmp	.LBB45_1
.Lfunc_end45:
	.size	PutPel_14.38, .Lfunc_end45-PutPel_14.38
	.cfi_endproc
                                        # -- End function
	.globl	FastPelY_14.39          # -- Begin function FastPelY_14.39
	.p2align	4, 0x90
	.type	FastPelY_14.39,@function
FastPelY_14.39:                         # @FastPelY_14.39
	.cfi_startproc
# %bb.0:                                # %entry
	pushq	%rbp
	.cfi_def_cfa_offset 16
	.cfi_offset %rbp, -16
	movq	%rsp, %rbp
	.cfi_def_cfa_register %rbp
	pushq	%rbx
	subq	$40, %rsp
	.cfi_offset %rbx, -24
	movl	$683800853, -20(%rbp)   # imm = 0x28C1F915
	movq	%rdi, -32(%rbp)
	movl	%esi, -16(%rbp)
	movl	%edx, -12(%rbp)
	movl	%ecx, -36(%rbp)
	movl	%r8d, -40(%rbp)
	movq	-32(%rbp), %rax
	movl	-16(%rbp), %ecx
	addl	$16, %ecx
	movslq	%ecx, %rcx
	movq	(%rax,%rcx,8), %rax
	movl	-12(%rbp), %ecx
	addl	$16, %ecx
	movslq	%ecx, %rcx
	movw	(%rax,%rcx,2), %bx
	cmpl	$683800853, -20(%rbp)   # imm = 0x28C1F915
	jne	.LBB46_2
.LBB46_1:
	movzwl	%bx, %eax
	addq	$40, %rsp
	popq	%rbx
	popq	%rbp
	.cfi_def_cfa %rsp, 8
	retq
.LBB46_2:                               # %func_exit
	.cfi_def_cfa %rbp, 16
	callq	detect_breach
	jmp	.LBB46_1
.Lfunc_end46:
	.size	FastPelY_14.39, .Lfunc_end46-FastPelY_14.39
	.cfi_endproc
                                        # -- End function
	.globl	FastLine16Y_11.40       # -- Begin function FastLine16Y_11.40
	.p2align	4, 0x90
	.type	FastLine16Y_11.40,@function
FastLine16Y_11.40:                      # @FastLine16Y_11.40
	.cfi_startproc
# %bb.0:                                # %entry
	pushq	%rbp
	.cfi_def_cfa_offset 16
	.cfi_offset %rbp, -16
	movq	%rsp, %rbp
	.cfi_def_cfa_register %rbp
	pushq	%rbx
	subq	$40, %rsp
	.cfi_offset %rbx, -24
	movl	$1229296519, -20(%rbp)  # imm = 0x49459387
	movq	%rdi, -32(%rbp)
	movl	%esi, -12(%rbp)
	movl	%edx, -24(%rbp)
	movl	%ecx, -36(%rbp)
	movl	%r8d, -16(%rbp)
	movq	-32(%rbp), %rbx
	movl	-12(%rbp), %eax
	imull	-16(%rbp), %eax
	addl	-24(%rbp), %eax
	cltq
	shlq	$1, %rax
	addq	%rax, %rbx
	cmpl	$1229296519, -20(%rbp)  # imm = 0x49459387
	jne	.LBB47_2
.LBB47_1:
	movq	%rbx, %rax
	addq	$40, %rsp
	popq	%rbx
	popq	%rbp
	.cfi_def_cfa %rsp, 8
	retq
.LBB47_2:                               # %func_exit
	.cfi_def_cfa %rbp, 16
	callq	detect_breach
	jmp	.LBB47_1
.Lfunc_end47:
	.size	FastLine16Y_11.40, .Lfunc_end47-FastLine16Y_11.40
	.cfi_endproc
                                        # -- End function
	.globl	FastLine16Y_11.41       # -- Begin function FastLine16Y_11.41
	.p2align	4, 0x90
	.type	FastLine16Y_11.41,@function
FastLine16Y_11.41:                      # @FastLine16Y_11.41
	.cfi_startproc
# %bb.0:                                # %entry
	pushq	%rbp
	.cfi_def_cfa_offset 16
	.cfi_offset %rbp, -16
	movq	%rsp, %rbp
	.cfi_def_cfa_register %rbp
	pushq	%rbx
	subq	$40, %rsp
	.cfi_offset %rbx, -24
	movl	$1498592055, -24(%rbp)  # imm = 0x5952B337
	movq	%rdi, -32(%rbp)
	movl	%esi, -20(%rbp)
	movl	%edx, -12(%rbp)
	movl	%ecx, -36(%rbp)
	movl	%r8d, -16(%rbp)
	movq	-32(%rbp), %rbx
	movl	-20(%rbp), %eax
	imull	-16(%rbp), %eax
	addl	-12(%rbp), %eax
	cltq
	shlq	$1, %rax
	addq	%rax, %rbx
	cmpl	$1498592055, -24(%rbp)  # imm = 0x5952B337
	jne	.LBB48_2
.LBB48_1:
	movq	%rbx, %rax
	addq	$40, %rsp
	popq	%rbx
	popq	%rbp
	.cfi_def_cfa %rsp, 8
	retq
.LBB48_2:                               # %func_exit
	.cfi_def_cfa %rbp, 16
	callq	detect_breach
	jmp	.LBB48_1
.Lfunc_end48:
	.size	FastLine16Y_11.41, .Lfunc_end48-FastLine16Y_11.41
	.cfi_endproc
                                        # -- End function
	.globl	UMVPelY_14.42           # -- Begin function UMVPelY_14.42
	.p2align	4, 0x90
	.type	UMVPelY_14.42,@function
UMVPelY_14.42:                          # @UMVPelY_14.42
	.cfi_startproc
# %bb.0:                                # %entry
	pushq	%rbp
	.cfi_def_cfa_offset 16
	.cfi_offset %rbp, -16
	movq	%rsp, %rbp
	.cfi_def_cfa_register %rbp
	pushq	%rbx
	subq	$40, %rsp
	.cfi_offset %rbx, -24
	movl	$1664345538, -48(%rbp)  # imm = 0x6333E5C2
	movq	%rdi, -32(%rbp)
	movl	%esi, -16(%rbp)
	movl	%edx, -20(%rbp)
	movl	%ecx, -40(%rbp)
	movl	%r8d, -44(%rbp)
	movl	-44(%rbp), %eax
	addl	$8, %eax
	subl	$1, %eax
	shll	$2, %eax
	movl	%eax, -36(%rbp)
	movl	-40(%rbp), %eax
	addl	$8, %eax
	subl	$1, %eax
	shll	$2, %eax
	movl	%eax, -24(%rbp)
	movl	-20(%rbp), %eax
	addl	$16, %eax
	movl	%eax, -20(%rbp)
	movl	-16(%rbp), %eax
	addl	$16, %eax
	movl	%eax, -16(%rbp)
	cmpl	$0, -20(%rbp)
	jge	.LBB49_6
# %bb.1:                                # %if.then
	cmpl	$0, -16(%rbp)
	jge	.LBB49_3
# %bb.2:                                # %if.then7
	movq	-32(%rbp), %rax
	movl	-16(%rbp), %ecx
	andl	$3, %ecx
	movslq	%ecx, %rcx
	movq	(%rax,%rcx,8), %rax
	movl	-20(%rbp), %ecx
	andl	$3, %ecx
	movslq	%ecx, %rcx
	movw	(%rax,%rcx,2), %ax
	movw	%ax, -10(%rbp)
	jmp	.LBB49_17
.LBB49_3:                               # %if.end
	movl	-16(%rbp), %eax
	cmpl	-24(%rbp), %eax
	jle	.LBB49_5
# %bb.4:                                # %if.then12
	movq	-32(%rbp), %rax
	movl	-24(%rbp), %ecx
	movl	-16(%rbp), %edx
	andl	$3, %edx
	addl	%edx, %ecx
	movslq	%ecx, %rcx
	movq	(%rax,%rcx,8), %rax
	movl	-20(%rbp), %ecx
	andl	$3, %ecx
	movslq	%ecx, %rcx
	movw	(%rax,%rcx,2), %ax
	movw	%ax, -10(%rbp)
	jmp	.LBB49_17
.LBB49_5:                               # %if.end20
	movq	-32(%rbp), %rax
	movslq	-16(%rbp), %rcx
	movq	(%rax,%rcx,8), %rax
	movl	-20(%rbp), %ecx
	andl	$3, %ecx
	movslq	%ecx, %rcx
	movw	(%rax,%rcx,2), %ax
	movw	%ax, -10(%rbp)
	jmp	.LBB49_17
.LBB49_6:                               # %if.end26
	movl	-20(%rbp), %eax
	cmpl	-36(%rbp), %eax
	jle	.LBB49_12
# %bb.7:                                # %if.then28
	cmpl	$0, -16(%rbp)
	jge	.LBB49_9
# %bb.8:                                # %if.then30
	movq	-32(%rbp), %rax
	movl	-16(%rbp), %ecx
	andl	$3, %ecx
	movslq	%ecx, %rcx
	movq	(%rax,%rcx,8), %rax
	movl	-36(%rbp), %ecx
	movl	-20(%rbp), %edx
	andl	$3, %edx
	addl	%edx, %ecx
	movslq	%ecx, %rcx
	movw	(%rax,%rcx,2), %ax
	movw	%ax, -10(%rbp)
	jmp	.LBB49_17
.LBB49_9:                               # %if.end38
	movl	-16(%rbp), %eax
	cmpl	-24(%rbp), %eax
	jle	.LBB49_11
# %bb.10:                               # %if.then40
	movq	-32(%rbp), %rax
	movl	-24(%rbp), %ecx
	movl	-16(%rbp), %edx
	andl	$3, %edx
	addl	%edx, %ecx
	movslq	%ecx, %rcx
	movq	(%rax,%rcx,8), %rax
	movl	-36(%rbp), %ecx
	movl	-20(%rbp), %edx
	andl	$3, %edx
	addl	%edx, %ecx
	movslq	%ecx, %rcx
	movw	(%rax,%rcx,2), %ax
	movw	%ax, -10(%rbp)
	jmp	.LBB49_17
.LBB49_11:                              # %if.end49
	movq	-32(%rbp), %rax
	movslq	-16(%rbp), %rcx
	movq	(%rax,%rcx,8), %rax
	movl	-36(%rbp), %ecx
	movl	-20(%rbp), %edx
	andl	$3, %edx
	addl	%edx, %ecx
	movslq	%ecx, %rcx
	movw	(%rax,%rcx,2), %ax
	movw	%ax, -10(%rbp)
	jmp	.LBB49_17
.LBB49_12:                              # %if.end56
	cmpl	$0, -16(%rbp)
	jge	.LBB49_14
# %bb.13:                               # %if.then58
	movq	-32(%rbp), %rax
	movl	-16(%rbp), %ecx
	andl	$3, %ecx
	movslq	%ecx, %rcx
	movq	(%rax,%rcx,8), %rax
	movslq	-20(%rbp), %rcx
	movw	(%rax,%rcx,2), %ax
	movw	%ax, -10(%rbp)
	jmp	.LBB49_17
.LBB49_14:                              # %if.end64
	movl	-16(%rbp), %eax
	cmpl	-24(%rbp), %eax
	jle	.LBB49_16
# %bb.15:                               # %if.then66
	movq	-32(%rbp), %rax
	movl	-24(%rbp), %ecx
	movl	-16(%rbp), %edx
	andl	$3, %edx
	addl	%edx, %ecx
	movslq	%ecx, %rcx
	movq	(%rax,%rcx,8), %rax
	movslq	-20(%rbp), %rcx
	movw	(%rax,%rcx,2), %ax
	movw	%ax, -10(%rbp)
	jmp	.LBB49_17
.LBB49_16:                              # %if.end73
	movq	-32(%rbp), %rax
	movslq	-16(%rbp), %rcx
	movq	(%rax,%rcx,8), %rax
	movslq	-20(%rbp), %rcx
	movw	(%rax,%rcx,2), %ax
	movw	%ax, -10(%rbp)
.LBB49_17:                              # %return
	movw	-10(%rbp), %bx
	cmpl	$1664345538, -48(%rbp)  # imm = 0x6333E5C2
	jne	.LBB49_19
.LBB49_18:
	movzwl	%bx, %eax
	addq	$40, %rsp
	popq	%rbx
	popq	%rbp
	.cfi_def_cfa %rsp, 8
	retq
.LBB49_19:                              # %func_exit
	.cfi_def_cfa %rbp, 16
	callq	detect_breach
	jmp	.LBB49_18
.Lfunc_end49:
	.size	UMVPelY_14.42, .Lfunc_end49-UMVPelY_14.42
	.cfi_endproc
                                        # -- End function
	.globl	FastLine16Y_11.43       # -- Begin function FastLine16Y_11.43
	.p2align	4, 0x90
	.type	FastLine16Y_11.43,@function
FastLine16Y_11.43:                      # @FastLine16Y_11.43
	.cfi_startproc
# %bb.0:                                # %entry
	pushq	%rbp
	.cfi_def_cfa_offset 16
	.cfi_offset %rbp, -16
	movq	%rsp, %rbp
	.cfi_def_cfa_register %rbp
	pushq	%rbx
	subq	$40, %rsp
	.cfi_offset %rbx, -24
	movl	$539253101, -20(%rbp)   # imm = 0x2024596D
	movq	%rdi, -32(%rbp)
	movl	%esi, -16(%rbp)
	movl	%edx, -12(%rbp)
	movl	%ecx, -36(%rbp)
	movl	%r8d, -24(%rbp)
	movq	-32(%rbp), %rbx
	movl	-16(%rbp), %eax
	imull	-24(%rbp), %eax
	addl	-12(%rbp), %eax
	cltq
	shlq	$1, %rax
	addq	%rax, %rbx
	cmpl	$539253101, -20(%rbp)   # imm = 0x2024596D
	jne	.LBB50_2
.LBB50_1:
	movq	%rbx, %rax
	addq	$40, %rsp
	popq	%rbx
	popq	%rbp
	.cfi_def_cfa %rsp, 8
	retq
.LBB50_2:                               # %func_exit
	.cfi_def_cfa %rbp, 16
	callq	detect_breach
	jmp	.LBB50_1
.Lfunc_end50:
	.size	FastLine16Y_11.43, .Lfunc_end50-FastLine16Y_11.43
	.cfi_endproc
                                        # -- End function
	.globl	PutPel_11.44            # -- Begin function PutPel_11.44
	.p2align	4, 0x90
	.type	PutPel_11.44,@function
PutPel_11.44:                           # @PutPel_11.44
	.cfi_startproc
# %bb.0:                                # %entry
	pushq	%rbp
	.cfi_def_cfa_offset 16
	.cfi_offset %rbp, -16
	movq	%rsp, %rbp
	.cfi_def_cfa_register %rbp
	subq	$32, %rsp
	movl	$602656330, -16(%rbp)   # imm = 0x23EBCE4A
	movq	%rdi, -32(%rbp)
	movl	%esi, -8(%rbp)
	movl	%edx, -12(%rbp)
	movw	%cx, -2(%rbp)
	movl	%r8d, -20(%rbp)
	movw	-2(%rbp), %ax
	movq	-32(%rbp), %rcx
	movl	-8(%rbp), %edx
	imull	-20(%rbp), %edx
	addl	-12(%rbp), %edx
	movslq	%edx, %rdx
	movw	%ax, (%rcx,%rdx,2)
	cmpl	$602656330, -16(%rbp)   # imm = 0x23EBCE4A
	jne	.LBB51_2
.LBB51_1:
	addq	$32, %rsp
	popq	%rbp
	.cfi_def_cfa %rsp, 8
	retq
.LBB51_2:                               # %func_exit
	.cfi_def_cfa %rbp, 16
	callq	detect_breach
	jmp	.LBB51_1
.Lfunc_end51:
	.size	PutPel_11.44, .Lfunc_end51-PutPel_11.44
	.cfi_endproc
                                        # -- End function
	.globl	FastPelY_14.45          # -- Begin function FastPelY_14.45
	.p2align	4, 0x90
	.type	FastPelY_14.45,@function
FastPelY_14.45:                         # @FastPelY_14.45
	.cfi_startproc
# %bb.0:                                # %entry
	pushq	%rbp
	.cfi_def_cfa_offset 16
	.cfi_offset %rbp, -16
	movq	%rsp, %rbp
	.cfi_def_cfa_register %rbp
	pushq	%rbx
	subq	$40, %rsp
	.cfi_offset %rbx, -24
	movl	$340770692, -16(%rbp)   # imm = 0x144FBF84
	movq	%rdi, -32(%rbp)
	movl	%esi, -20(%rbp)
	movl	%edx, -12(%rbp)
	movl	%ecx, -36(%rbp)
	movl	%r8d, -40(%rbp)
	movq	-32(%rbp), %rax
	movl	-20(%rbp), %ecx
	addl	$16, %ecx
	movslq	%ecx, %rcx
	movq	(%rax,%rcx,8), %rax
	movl	-12(%rbp), %ecx
	addl	$16, %ecx
	movslq	%ecx, %rcx
	movw	(%rax,%rcx,2), %bx
	cmpl	$340770692, -16(%rbp)   # imm = 0x144FBF84
	jne	.LBB52_2
.LBB52_1:
	movzwl	%bx, %eax
	addq	$40, %rsp
	popq	%rbx
	popq	%rbp
	.cfi_def_cfa %rsp, 8
	retq
.LBB52_2:                               # %func_exit
	.cfi_def_cfa %rbp, 16
	callq	detect_breach
	jmp	.LBB52_1
.Lfunc_end52:
	.size	FastPelY_14.45, .Lfunc_end52-FastPelY_14.45
	.cfi_endproc
                                        # -- End function
	.globl	UMVPelY_14.46           # -- Begin function UMVPelY_14.46
	.p2align	4, 0x90
	.type	UMVPelY_14.46,@function
UMVPelY_14.46:                          # @UMVPelY_14.46
	.cfi_startproc
# %bb.0:                                # %entry
	pushq	%rbp
	.cfi_def_cfa_offset 16
	.cfi_offset %rbp, -16
	movq	%rsp, %rbp
	.cfi_def_cfa_register %rbp
	pushq	%rbx
	subq	$40, %rsp
	.cfi_offset %rbx, -24
	movl	$1798321060, -44(%rbp)  # imm = 0x6B3033A4
	movq	%rdi, -32(%rbp)
	movl	%esi, -16(%rbp)
	movl	%edx, -20(%rbp)
	movl	%ecx, -40(%rbp)
	movl	%r8d, -48(%rbp)
	movl	-48(%rbp), %eax
	addl	$8, %eax
	subl	$1, %eax
	shll	$2, %eax
	movl	%eax, -36(%rbp)
	movl	-40(%rbp), %eax
	addl	$8, %eax
	subl	$1, %eax
	shll	$2, %eax
	movl	%eax, -24(%rbp)
	movl	-20(%rbp), %eax
	addl	$16, %eax
	movl	%eax, -20(%rbp)
	movl	-16(%rbp), %eax
	addl	$16, %eax
	movl	%eax, -16(%rbp)
	cmpl	$0, -20(%rbp)
	jge	.LBB53_6
# %bb.1:                                # %if.then
	cmpl	$0, -16(%rbp)
	jge	.LBB53_3
# %bb.2:                                # %if.then7
	movq	-32(%rbp), %rax
	movl	-16(%rbp), %ecx
	andl	$3, %ecx
	movslq	%ecx, %rcx
	movq	(%rax,%rcx,8), %rax
	movl	-20(%rbp), %ecx
	andl	$3, %ecx
	movslq	%ecx, %rcx
	movw	(%rax,%rcx,2), %ax
	movw	%ax, -10(%rbp)
	jmp	.LBB53_17
.LBB53_3:                               # %if.end
	movl	-16(%rbp), %eax
	cmpl	-24(%rbp), %eax
	jle	.LBB53_5
# %bb.4:                                # %if.then12
	movq	-32(%rbp), %rax
	movl	-24(%rbp), %ecx
	movl	-16(%rbp), %edx
	andl	$3, %edx
	addl	%edx, %ecx
	movslq	%ecx, %rcx
	movq	(%rax,%rcx,8), %rax
	movl	-20(%rbp), %ecx
	andl	$3, %ecx
	movslq	%ecx, %rcx
	movw	(%rax,%rcx,2), %ax
	movw	%ax, -10(%rbp)
	jmp	.LBB53_17
.LBB53_5:                               # %if.end20
	movq	-32(%rbp), %rax
	movslq	-16(%rbp), %rcx
	movq	(%rax,%rcx,8), %rax
	movl	-20(%rbp), %ecx
	andl	$3, %ecx
	movslq	%ecx, %rcx
	movw	(%rax,%rcx,2), %ax
	movw	%ax, -10(%rbp)
	jmp	.LBB53_17
.LBB53_6:                               # %if.end26
	movl	-20(%rbp), %eax
	cmpl	-36(%rbp), %eax
	jle	.LBB53_12
# %bb.7:                                # %if.then28
	cmpl	$0, -16(%rbp)
	jge	.LBB53_9
# %bb.8:                                # %if.then30
	movq	-32(%rbp), %rax
	movl	-16(%rbp), %ecx
	andl	$3, %ecx
	movslq	%ecx, %rcx
	movq	(%rax,%rcx,8), %rax
	movl	-36(%rbp), %ecx
	movl	-20(%rbp), %edx
	andl	$3, %edx
	addl	%edx, %ecx
	movslq	%ecx, %rcx
	movw	(%rax,%rcx,2), %ax
	movw	%ax, -10(%rbp)
	jmp	.LBB53_17
.LBB53_9:                               # %if.end38
	movl	-16(%rbp), %eax
	cmpl	-24(%rbp), %eax
	jle	.LBB53_11
# %bb.10:                               # %if.then40
	movq	-32(%rbp), %rax
	movl	-24(%rbp), %ecx
	movl	-16(%rbp), %edx
	andl	$3, %edx
	addl	%edx, %ecx
	movslq	%ecx, %rcx
	movq	(%rax,%rcx,8), %rax
	movl	-36(%rbp), %ecx
	movl	-20(%rbp), %edx
	andl	$3, %edx
	addl	%edx, %ecx
	movslq	%ecx, %rcx
	movw	(%rax,%rcx,2), %ax
	movw	%ax, -10(%rbp)
	jmp	.LBB53_17
.LBB53_11:                              # %if.end49
	movq	-32(%rbp), %rax
	movslq	-16(%rbp), %rcx
	movq	(%rax,%rcx,8), %rax
	movl	-36(%rbp), %ecx
	movl	-20(%rbp), %edx
	andl	$3, %edx
	addl	%edx, %ecx
	movslq	%ecx, %rcx
	movw	(%rax,%rcx,2), %ax
	movw	%ax, -10(%rbp)
	jmp	.LBB53_17
.LBB53_12:                              # %if.end56
	cmpl	$0, -16(%rbp)
	jge	.LBB53_14
# %bb.13:                               # %if.then58
	movq	-32(%rbp), %rax
	movl	-16(%rbp), %ecx
	andl	$3, %ecx
	movslq	%ecx, %rcx
	movq	(%rax,%rcx,8), %rax
	movslq	-20(%rbp), %rcx
	movw	(%rax,%rcx,2), %ax
	movw	%ax, -10(%rbp)
	jmp	.LBB53_17
.LBB53_14:                              # %if.end64
	movl	-16(%rbp), %eax
	cmpl	-24(%rbp), %eax
	jle	.LBB53_16
# %bb.15:                               # %if.then66
	movq	-32(%rbp), %rax
	movl	-24(%rbp), %ecx
	movl	-16(%rbp), %edx
	andl	$3, %edx
	addl	%edx, %ecx
	movslq	%ecx, %rcx
	movq	(%rax,%rcx,8), %rax
	movslq	-20(%rbp), %rcx
	movw	(%rax,%rcx,2), %ax
	movw	%ax, -10(%rbp)
	jmp	.LBB53_17
.LBB53_16:                              # %if.end73
	movq	-32(%rbp), %rax
	movslq	-16(%rbp), %rcx
	movq	(%rax,%rcx,8), %rax
	movslq	-20(%rbp), %rcx
	movw	(%rax,%rcx,2), %ax
	movw	%ax, -10(%rbp)
.LBB53_17:                              # %return
	movw	-10(%rbp), %bx
	cmpl	$1798321060, -44(%rbp)  # imm = 0x6B3033A4
	jne	.LBB53_19
.LBB53_18:
	movzwl	%bx, %eax
	addq	$40, %rsp
	popq	%rbx
	popq	%rbp
	.cfi_def_cfa %rsp, 8
	retq
.LBB53_19:                              # %func_exit
	.cfi_def_cfa %rbp, 16
	callq	detect_breach
	jmp	.LBB53_18
.Lfunc_end53:
	.size	UMVPelY_14.46, .Lfunc_end53-UMVPelY_14.46
	.cfi_endproc
                                        # -- End function
	.globl	PutPel_11.47            # -- Begin function PutPel_11.47
	.p2align	4, 0x90
	.type	PutPel_11.47,@function
PutPel_11.47:                           # @PutPel_11.47
	.cfi_startproc
# %bb.0:                                # %entry
	pushq	%rbp
	.cfi_def_cfa_offset 16
	.cfi_offset %rbp, -16
	movq	%rsp, %rbp
	.cfi_def_cfa_register %rbp
	subq	$32, %rsp
	movl	$935228234, -16(%rbp)   # imm = 0x37BE734A
	movq	%rdi, -32(%rbp)
	movl	%esi, -20(%rbp)
	movl	%edx, -12(%rbp)
	movw	%cx, -2(%rbp)
	movl	%r8d, -8(%rbp)
	movw	-2(%rbp), %ax
	movq	-32(%rbp), %rcx
	movl	-20(%rbp), %edx
	imull	-8(%rbp), %edx
	addl	-12(%rbp), %edx
	movslq	%edx, %rdx
	movw	%ax, (%rcx,%rdx,2)
	cmpl	$935228234, -16(%rbp)   # imm = 0x37BE734A
	jne	.LBB54_2
.LBB54_1:
	addq	$32, %rsp
	popq	%rbp
	.cfi_def_cfa %rsp, 8
	retq
.LBB54_2:                               # %func_exit
	.cfi_def_cfa %rbp, 16
	callq	detect_breach
	jmp	.LBB54_1
.Lfunc_end54:
	.size	PutPel_11.47, .Lfunc_end54-PutPel_11.47
	.cfi_endproc
                                        # -- End function
	.globl	UMVLine16Y_11.48        # -- Begin function UMVLine16Y_11.48
	.p2align	4, 0x90
	.type	UMVLine16Y_11.48,@function
UMVLine16Y_11.48:                       # @UMVLine16Y_11.48
	.cfi_startproc
# %bb.0:                                # %entry
	pushq	%rbp
	.cfi_def_cfa_offset 16
	.cfi_offset %rbp, -16
	movq	%rsp, %rbp
	.cfi_def_cfa_register %rbp
	pushq	%rbx
	subq	$56, %rsp
	.cfi_offset %rbx, -24
	movl	$1791609470, -44(%rbp)  # imm = 0x6AC9CA7E
	movq	%rdi, -64(%rbp)
	movl	%esi, -28(%rbp)
	movl	%edx, -16(%rbp)
	movl	%ecx, -32(%rbp)
	movl	%r8d, -24(%rbp)
	movq	-64(%rbp), %rax
	movl	-32(%rbp), %ecx
	subl	$1, %ecx
	cmpl	-28(%rbp), %ecx
	jge	.LBB55_2
# %bb.1:                                # %cond.true
	movl	-32(%rbp), %ecx
	subl	$1, %ecx
	jmp	.LBB55_3
.LBB55_2:                               # %cond.false
	movl	-28(%rbp), %ecx
.LBB55_3:                               # %cond.end
	xorl	%edx, %edx
	cmpl	%ecx, %edx
	jle	.LBB55_5
# %bb.4:                                # %cond.true3
	xorl	%ecx, %ecx
	jmp	.LBB55_9
.LBB55_5:                               # %cond.false4
	movl	-32(%rbp), %ecx
	subl	$1, %ecx
	cmpl	-28(%rbp), %ecx
	jge	.LBB55_7
# %bb.6:                                # %cond.true7
	movl	-32(%rbp), %ecx
	subl	$1, %ecx
	jmp	.LBB55_8
.LBB55_7:                               # %cond.false9
	movl	-28(%rbp), %ecx
.LBB55_8:                               # %cond.end10
.LBB55_9:                               # %cond.end12
	imull	-24(%rbp), %ecx
	movslq	%ecx, %rcx
	shlq	$1, %rcx
	addq	%rcx, %rax
	movq	%rax, -40(%rbp)
	cmpl	$0, -16(%rbp)
	jge	.LBB55_22
# %bb.10:                               # %if.then
	xorl	%eax, %eax
	movl	-16(%rbp), %ecx
	addl	$16, %ecx
	cmpl	%ecx, %eax
	jge	.LBB55_12
# %bb.11:                               # %cond.true16
	xorl	%eax, %eax
	jmp	.LBB55_13
.LBB55_12:                              # %cond.false17
	movl	-16(%rbp), %eax
	addl	$16, %eax
.LBB55_13:                              # %cond.end19
	movl	%eax, -20(%rbp)
	movl	-16(%rbp), %eax
	movl	%eax, -12(%rbp)
.LBB55_14:                              # %for.cond
                                        # =>This Inner Loop Header: Depth=1
	movl	-12(%rbp), %eax
	cmpl	-20(%rbp), %eax
	jge	.LBB55_17
# %bb.15:                               # %for.body
                                        #   in Loop: Header=BB55_14 Depth=1
	movq	-40(%rbp), %rax
	movw	(%rax), %ax
	movl	-12(%rbp), %ecx
	subl	-16(%rbp), %ecx
	movslq	%ecx, %rcx
	movw	%ax, line(,%rcx,2)
# %bb.16:                               # %for.inc
                                        #   in Loop: Header=BB55_14 Depth=1
	movl	-12(%rbp), %eax
	addl	$1, %eax
	movl	%eax, -12(%rbp)
	jmp	.LBB55_14
.LBB55_17:                              # %for.end
	movl	-16(%rbp), %eax
	addl	$16, %eax
	movl	%eax, -20(%rbp)
	movl	$0, -12(%rbp)
.LBB55_18:                              # %for.cond27
                                        # =>This Inner Loop Header: Depth=1
	movl	-12(%rbp), %eax
	cmpl	-20(%rbp), %eax
	jge	.LBB55_21
# %bb.19:                               # %for.body29
                                        #   in Loop: Header=BB55_18 Depth=1
	movq	-40(%rbp), %rax
	movslq	-12(%rbp), %rcx
	movw	(%rax,%rcx,2), %ax
	movl	-12(%rbp), %ecx
	subl	-16(%rbp), %ecx
	movslq	%ecx, %rcx
	movw	%ax, line(,%rcx,2)
# %bb.20:                               # %for.inc35
                                        #   in Loop: Header=BB55_18 Depth=1
	movl	-12(%rbp), %eax
	addl	$1, %eax
	movl	%eax, -12(%rbp)
	jmp	.LBB55_18
.LBB55_21:                              # %for.end37
	jmp	.LBB55_37
.LBB55_22:                              # %if.else
	movl	-16(%rbp), %eax
	movl	-24(%rbp), %ecx
	subl	$16, %ecx
	cmpl	%ecx, %eax
	jle	.LBB55_35
# %bb.23:                               # %if.then40
	movl	-24(%rbp), %eax
	movl	%eax, -20(%rbp)
	movl	-16(%rbp), %eax
	movl	%eax, -12(%rbp)
.LBB55_24:                              # %for.cond41
                                        # =>This Inner Loop Header: Depth=1
	movl	-12(%rbp), %eax
	cmpl	-20(%rbp), %eax
	jge	.LBB55_27
# %bb.25:                               # %for.body43
                                        #   in Loop: Header=BB55_24 Depth=1
	movq	-40(%rbp), %rax
	movslq	-12(%rbp), %rcx
	movw	(%rax,%rcx,2), %ax
	movl	-12(%rbp), %ecx
	subl	-16(%rbp), %ecx
	movslq	%ecx, %rcx
	movw	%ax, line(,%rcx,2)
# %bb.26:                               # %for.inc49
                                        #   in Loop: Header=BB55_24 Depth=1
	movl	-12(%rbp), %eax
	addl	$1, %eax
	movl	%eax, -12(%rbp)
	jmp	.LBB55_24
.LBB55_27:                              # %for.end51
	movl	-16(%rbp), %eax
	addl	$16, %eax
	movl	%eax, -20(%rbp)
	movl	-24(%rbp), %eax
	cmpl	-16(%rbp), %eax
	jle	.LBB55_29
# %bb.28:                               # %cond.true54
	movl	-24(%rbp), %eax
	jmp	.LBB55_30
.LBB55_29:                              # %cond.false55
	movl	-16(%rbp), %eax
.LBB55_30:                              # %cond.end56
	movl	%eax, -12(%rbp)
.LBB55_31:                              # %for.cond58
                                        # =>This Inner Loop Header: Depth=1
	movl	-12(%rbp), %eax
	cmpl	-20(%rbp), %eax
	jge	.LBB55_34
# %bb.32:                               # %for.body60
                                        #   in Loop: Header=BB55_31 Depth=1
	movq	-40(%rbp), %rax
	movl	-24(%rbp), %ecx
	subl	$1, %ecx
	movslq	%ecx, %rcx
	movw	(%rax,%rcx,2), %ax
	movl	-12(%rbp), %ecx
	subl	-16(%rbp), %ecx
	movslq	%ecx, %rcx
	movw	%ax, line(,%rcx,2)
# %bb.33:                               # %for.inc67
                                        #   in Loop: Header=BB55_31 Depth=1
	movl	-12(%rbp), %eax
	addl	$1, %eax
	movl	%eax, -12(%rbp)
	jmp	.LBB55_31
.LBB55_34:                              # %for.end69
	jmp	.LBB55_36
.LBB55_35:                              # %if.else70
	movq	-40(%rbp), %rax
	movslq	-16(%rbp), %rcx
	shlq	$1, %rcx
	addq	%rcx, %rax
	movq	%rax, -56(%rbp)
	jmp	.LBB55_38
.LBB55_36:                              # %if.end
	jmp	.LBB55_37
.LBB55_37:                              # %if.end73
	movabsq	$line, %rax
	movq	%rax, -56(%rbp)
.LBB55_38:                              # %return
	movq	-56(%rbp), %rbx
	cmpl	$1791609470, -44(%rbp)  # imm = 0x6AC9CA7E
	jne	.LBB55_40
.LBB55_39:
	movq	%rbx, %rax
	addq	$56, %rsp
	popq	%rbx
	popq	%rbp
	.cfi_def_cfa %rsp, 8
	retq
.LBB55_40:                              # %func_exit
	.cfi_def_cfa %rbp, 16
	callq	detect_breach
	jmp	.LBB55_39
.Lfunc_end55:
	.size	UMVLine16Y_11.48, .Lfunc_end55-UMVLine16Y_11.48
	.cfi_endproc
                                        # -- End function
	.globl	FastLineX.49            # -- Begin function FastLineX.49
	.p2align	4, 0x90
	.type	FastLineX.49,@function
FastLineX.49:                           # @FastLineX.49
	.cfi_startproc
# %bb.0:                                # %entry
	pushq	%rbp
	.cfi_def_cfa_offset 16
	.cfi_offset %rbp, -16
	movq	%rsp, %rbp
	.cfi_def_cfa_register %rbp
	pushq	%rbx
	subq	$40, %rsp
	.cfi_offset %rbx, -24
	movl	$955258307, -20(%rbp)   # imm = 0x38F015C3
	movl	%edi, -36(%rbp)
	movq	%rsi, -32(%rbp)
	movl	%edx, -24(%rbp)
	movl	%ecx, -16(%rbp)
	movl	%r8d, -40(%rbp)
	movl	%r9d, -12(%rbp)
	movq	-32(%rbp), %rbx
	movl	-24(%rbp), %eax
	imull	-12(%rbp), %eax
	cltq
	shlq	$1, %rax
	addq	%rax, %rbx
	movslq	-16(%rbp), %rax
	shlq	$1, %rax
	addq	%rax, %rbx
	cmpl	$955258307, -20(%rbp)   # imm = 0x38F015C3
	jne	.LBB56_2
.LBB56_1:
	movq	%rbx, %rax
	addq	$40, %rsp
	popq	%rbx
	popq	%rbp
	.cfi_def_cfa %rsp, 8
	retq
.LBB56_2:                               # %func_exit
	.cfi_def_cfa %rbp, 16
	callq	detect_breach
	jmp	.LBB56_1
.Lfunc_end56:
	.size	FastLineX.49, .Lfunc_end56-FastLineX.49
	.cfi_endproc
                                        # -- End function
	.globl	FastPelY_14.50          # -- Begin function FastPelY_14.50
	.p2align	4, 0x90
	.type	FastPelY_14.50,@function
FastPelY_14.50:                         # @FastPelY_14.50
	.cfi_startproc
# %bb.0:                                # %entry
	pushq	%rbp
	.cfi_def_cfa_offset 16
	.cfi_offset %rbp, -16
	movq	%rsp, %rbp
	.cfi_def_cfa_register %rbp
	pushq	%rbx
	subq	$40, %rsp
	.cfi_offset %rbx, -24
	movl	$1920931295, -20(%rbp)  # imm = 0x727F15DF
	movq	%rdi, -32(%rbp)
	movl	%esi, -16(%rbp)
	movl	%edx, -12(%rbp)
	movl	%ecx, -36(%rbp)
	movl	%r8d, -40(%rbp)
	movq	-32(%rbp), %rax
	movl	-16(%rbp), %ecx
	addl	$16, %ecx
	movslq	%ecx, %rcx
	movq	(%rax,%rcx,8), %rax
	movl	-12(%rbp), %ecx
	addl	$16, %ecx
	movslq	%ecx, %rcx
	movw	(%rax,%rcx,2), %bx
	cmpl	$1920931295, -20(%rbp)  # imm = 0x727F15DF
	jne	.LBB57_2
.LBB57_1:
	movzwl	%bx, %eax
	addq	$40, %rsp
	popq	%rbx
	popq	%rbp
	.cfi_def_cfa %rsp, 8
	retq
.LBB57_2:                               # %func_exit
	.cfi_def_cfa %rbp, 16
	callq	detect_breach
	jmp	.LBB57_1
.Lfunc_end57:
	.size	FastPelY_14.50, .Lfunc_end57-FastPelY_14.50
	.cfi_endproc
                                        # -- End function
	.globl	PutPel_14.51            # -- Begin function PutPel_14.51
	.p2align	4, 0x90
	.type	PutPel_14.51,@function
PutPel_14.51:                           # @PutPel_14.51
	.cfi_startproc
# %bb.0:                                # %entry
	pushq	%rbp
	.cfi_def_cfa_offset 16
	.cfi_offset %rbp, -16
	movq	%rsp, %rbp
	.cfi_def_cfa_register %rbp
	subq	$32, %rsp
	movl	$1195846639, -16(%rbp)  # imm = 0x47472BEF
	movq	%rdi, -24(%rbp)
	movl	%esi, -8(%rbp)
	movl	%edx, -12(%rbp)
	movw	%cx, -2(%rbp)
	movw	-2(%rbp), %ax
	movq	-24(%rbp), %rcx
	movl	-8(%rbp), %edx
	addl	$16, %edx
	movslq	%edx, %rdx
	movq	(%rcx,%rdx,8), %rcx
	movl	-12(%rbp), %edx
	addl	$16, %edx
	movslq	%edx, %rdx
	movw	%ax, (%rcx,%rdx,2)
	cmpl	$1195846639, -16(%rbp)  # imm = 0x47472BEF
	jne	.LBB58_2
.LBB58_1:
	addq	$32, %rsp
	popq	%rbp
	.cfi_def_cfa %rsp, 8
	retq
.LBB58_2:                               # %func_exit
	.cfi_def_cfa %rbp, 16
	callq	detect_breach
	jmp	.LBB58_1
.Lfunc_end58:
	.size	PutPel_14.51, .Lfunc_end58-PutPel_14.51
	.cfi_endproc
                                        # -- End function
	.globl	FastLineX.52            # -- Begin function FastLineX.52
	.p2align	4, 0x90
	.type	FastLineX.52,@function
FastLineX.52:                           # @FastLineX.52
	.cfi_startproc
# %bb.0:                                # %entry
	pushq	%rbp
	.cfi_def_cfa_offset 16
	.cfi_offset %rbp, -16
	movq	%rsp, %rbp
	.cfi_def_cfa_register %rbp
	pushq	%rbx
	subq	$40, %rsp
	.cfi_offset %rbx, -24
	movl	$187525199, -24(%rbp)   # imm = 0xB2D684F
	movl	%edi, -36(%rbp)
	movq	%rsi, -32(%rbp)
	movl	%edx, -16(%rbp)
	movl	%ecx, -20(%rbp)
	movl	%r8d, -40(%rbp)
	movl	%r9d, -12(%rbp)
	movq	-32(%rbp), %rbx
	movl	-16(%rbp), %eax
	imull	-12(%rbp), %eax
	cltq
	shlq	$1, %rax
	addq	%rax, %rbx
	movslq	-20(%rbp), %rax
	shlq	$1, %rax
	addq	%rax, %rbx
	cmpl	$187525199, -24(%rbp)   # imm = 0xB2D684F
	jne	.LBB59_2
.LBB59_1:
	movq	%rbx, %rax
	addq	$40, %rsp
	popq	%rbx
	popq	%rbp
	.cfi_def_cfa %rsp, 8
	retq
.LBB59_2:                               # %func_exit
	.cfi_def_cfa %rbp, 16
	callq	detect_breach
	jmp	.LBB59_1
.Lfunc_end59:
	.size	FastLineX.52, .Lfunc_end59-FastLineX.52
	.cfi_endproc
                                        # -- End function
	.globl	PutPel_14.53            # -- Begin function PutPel_14.53
	.p2align	4, 0x90
	.type	PutPel_14.53,@function
PutPel_14.53:                           # @PutPel_14.53
	.cfi_startproc
# %bb.0:                                # %entry
	pushq	%rbp
	.cfi_def_cfa_offset 16
	.cfi_offset %rbp, -16
	movq	%rsp, %rbp
	.cfi_def_cfa_register %rbp
	subq	$32, %rsp
	movl	$1032045431, -16(%rbp)  # imm = 0x3D83C377
	movq	%rdi, -24(%rbp)
	movl	%esi, -8(%rbp)
	movl	%edx, -12(%rbp)
	movw	%cx, -2(%rbp)
	movw	-2(%rbp), %ax
	movq	-24(%rbp), %rcx
	movl	-8(%rbp), %edx
	addl	$16, %edx
	movslq	%edx, %rdx
	movq	(%rcx,%rdx,8), %rcx
	movl	-12(%rbp), %edx
	addl	$16, %edx
	movslq	%edx, %rdx
	movw	%ax, (%rcx,%rdx,2)
	cmpl	$1032045431, -16(%rbp)  # imm = 0x3D83C377
	jne	.LBB60_2
.LBB60_1:
	addq	$32, %rsp
	popq	%rbp
	.cfi_def_cfa %rsp, 8
	retq
.LBB60_2:                               # %func_exit
	.cfi_def_cfa %rbp, 16
	callq	detect_breach
	jmp	.LBB60_1
.Lfunc_end60:
	.size	PutPel_14.53, .Lfunc_end60-PutPel_14.53
	.cfi_endproc
                                        # -- End function
	.globl	UMVLineX.54             # -- Begin function UMVLineX.54
	.p2align	4, 0x90
	.type	UMVLineX.54,@function
UMVLineX.54:                            # @UMVLineX.54
	.cfi_startproc
# %bb.0:                                # %entry
	pushq	%rbp
	.cfi_def_cfa_offset 16
	.cfi_offset %rbp, -16
	movq	%rsp, %rbp
	.cfi_def_cfa_register %rbp
	pushq	%rbx
	subq	$72, %rsp
	.cfi_offset %rbx, -24
	movl	$118739022, -52(%rbp)   # imm = 0x713D04E
	movl	%edi, -28(%rbp)
	movq	%rsi, -72(%rbp)
	movl	%edx, -36(%rbp)
	movl	%ecx, -16(%rbp)
	movl	%r8d, -32(%rbp)
	movl	%r9d, -24(%rbp)
	movq	-72(%rbp), %rax
	movl	-32(%rbp), %ecx
	subl	$1, %ecx
	cmpl	-36(%rbp), %ecx
	jge	.LBB61_2
# %bb.1:                                # %cond.true
	movl	-32(%rbp), %ecx
	subl	$1, %ecx
	jmp	.LBB61_3
.LBB61_2:                               # %cond.false
	movl	-36(%rbp), %ecx
.LBB61_3:                               # %cond.end
	xorl	%edx, %edx
	cmpl	%ecx, %edx
	jle	.LBB61_5
# %bb.4:                                # %cond.true3
	xorl	%ecx, %ecx
	jmp	.LBB61_9
.LBB61_5:                               # %cond.false4
	movl	-32(%rbp), %ecx
	subl	$1, %ecx
	cmpl	-36(%rbp), %ecx
	jge	.LBB61_7
# %bb.6:                                # %cond.true7
	movl	-32(%rbp), %ecx
	subl	$1, %ecx
	jmp	.LBB61_8
.LBB61_7:                               # %cond.false9
	movl	-36(%rbp), %ecx
.LBB61_8:                               # %cond.end10
.LBB61_9:                               # %cond.end12
	imull	-24(%rbp), %ecx
	movslq	%ecx, %rcx
	shlq	$1, %rcx
	addq	%rcx, %rax
	movq	%rax, -48(%rbp)
	cmpl	$0, -16(%rbp)
	jge	.LBB61_22
# %bb.10:                               # %if.then
	xorl	%eax, %eax
	movl	-16(%rbp), %ecx
	addl	-28(%rbp), %ecx
	cmpl	%ecx, %eax
	jge	.LBB61_12
# %bb.11:                               # %cond.true16
	xorl	%eax, %eax
	jmp	.LBB61_13
.LBB61_12:                              # %cond.false17
	movl	-16(%rbp), %eax
	addl	-28(%rbp), %eax
.LBB61_13:                              # %cond.end19
	movl	%eax, -20(%rbp)
	movl	-16(%rbp), %eax
	movl	%eax, -12(%rbp)
.LBB61_14:                              # %for.cond
                                        # =>This Inner Loop Header: Depth=1
	movl	-12(%rbp), %eax
	cmpl	-20(%rbp), %eax
	jge	.LBB61_17
# %bb.15:                               # %for.body
                                        #   in Loop: Header=BB61_14 Depth=1
	movq	-48(%rbp), %rax
	movw	(%rax), %ax
	movl	-12(%rbp), %ecx
	subl	-16(%rbp), %ecx
	movslq	%ecx, %rcx
	movw	%ax, line(,%rcx,2)
# %bb.16:                               # %for.inc
                                        #   in Loop: Header=BB61_14 Depth=1
	movl	-12(%rbp), %eax
	addl	$1, %eax
	movl	%eax, -12(%rbp)
	jmp	.LBB61_14
.LBB61_17:                              # %for.end
	movl	-16(%rbp), %eax
	addl	-28(%rbp), %eax
	movl	%eax, -20(%rbp)
	movl	$0, -12(%rbp)
.LBB61_18:                              # %for.cond25
                                        # =>This Inner Loop Header: Depth=1
	movl	-12(%rbp), %eax
	cmpl	-20(%rbp), %eax
	jge	.LBB61_21
# %bb.19:                               # %for.body27
                                        #   in Loop: Header=BB61_18 Depth=1
	movq	-48(%rbp), %rax
	movslq	-12(%rbp), %rcx
	movw	(%rax,%rcx,2), %ax
	movl	-12(%rbp), %ecx
	subl	-16(%rbp), %ecx
	movslq	%ecx, %rcx
	movw	%ax, line(,%rcx,2)
# %bb.20:                               # %for.inc33
                                        #   in Loop: Header=BB61_18 Depth=1
	movl	-12(%rbp), %eax
	addl	$1, %eax
	movl	%eax, -12(%rbp)
	jmp	.LBB61_18
.LBB61_21:                              # %for.end35
	jmp	.LBB61_37
.LBB61_22:                              # %if.else
	movl	-16(%rbp), %eax
	movl	-24(%rbp), %ecx
	subl	-28(%rbp), %ecx
	cmpl	%ecx, %eax
	jle	.LBB61_35
# %bb.23:                               # %if.then38
	movl	-24(%rbp), %eax
	movl	%eax, -20(%rbp)
	movl	-16(%rbp), %eax
	movl	%eax, -12(%rbp)
.LBB61_24:                              # %for.cond39
                                        # =>This Inner Loop Header: Depth=1
	movl	-12(%rbp), %eax
	cmpl	-20(%rbp), %eax
	jge	.LBB61_27
# %bb.25:                               # %for.body41
                                        #   in Loop: Header=BB61_24 Depth=1
	movq	-48(%rbp), %rax
	movslq	-12(%rbp), %rcx
	movw	(%rax,%rcx,2), %ax
	movl	-12(%rbp), %ecx
	subl	-16(%rbp), %ecx
	movslq	%ecx, %rcx
	movw	%ax, line(,%rcx,2)
# %bb.26:                               # %for.inc47
                                        #   in Loop: Header=BB61_24 Depth=1
	movl	-12(%rbp), %eax
	addl	$1, %eax
	movl	%eax, -12(%rbp)
	jmp	.LBB61_24
.LBB61_27:                              # %for.end49
	movl	-16(%rbp), %eax
	addl	-28(%rbp), %eax
	movl	%eax, -20(%rbp)
	movl	-24(%rbp), %eax
	cmpl	-16(%rbp), %eax
	jle	.LBB61_29
# %bb.28:                               # %cond.true52
	movl	-24(%rbp), %eax
	jmp	.LBB61_30
.LBB61_29:                              # %cond.false53
	movl	-16(%rbp), %eax
.LBB61_30:                              # %cond.end54
	movl	%eax, -12(%rbp)
.LBB61_31:                              # %for.cond56
                                        # =>This Inner Loop Header: Depth=1
	movl	-12(%rbp), %eax
	cmpl	-20(%rbp), %eax
	jge	.LBB61_34
# %bb.32:                               # %for.body58
                                        #   in Loop: Header=BB61_31 Depth=1
	movq	-48(%rbp), %rax
	movl	-24(%rbp), %ecx
	subl	$1, %ecx
	movslq	%ecx, %rcx
	movw	(%rax,%rcx,2), %ax
	movl	-12(%rbp), %ecx
	subl	-16(%rbp), %ecx
	movslq	%ecx, %rcx
	movw	%ax, line(,%rcx,2)
# %bb.33:                               # %for.inc65
                                        #   in Loop: Header=BB61_31 Depth=1
	movl	-12(%rbp), %eax
	addl	$1, %eax
	movl	%eax, -12(%rbp)
	jmp	.LBB61_31
.LBB61_34:                              # %for.end67
	jmp	.LBB61_36
.LBB61_35:                              # %if.else68
	movq	-48(%rbp), %rax
	movslq	-16(%rbp), %rcx
	shlq	$1, %rcx
	addq	%rcx, %rax
	movq	%rax, -64(%rbp)
	jmp	.LBB61_38
.LBB61_36:                              # %if.end
	jmp	.LBB61_37
.LBB61_37:                              # %if.end71
	movabsq	$line, %rax
	movq	%rax, -64(%rbp)
.LBB61_38:                              # %return
	movq	-64(%rbp), %rbx
	cmpl	$118739022, -52(%rbp)   # imm = 0x713D04E
	jne	.LBB61_40
.LBB61_39:
	movq	%rbx, %rax
	addq	$72, %rsp
	popq	%rbx
	popq	%rbp
	.cfi_def_cfa %rsp, 8
	retq
.LBB61_40:                              # %func_exit
	.cfi_def_cfa %rbp, 16
	callq	detect_breach
	jmp	.LBB61_39
.Lfunc_end61:
	.size	UMVLineX.54, .Lfunc_end61-UMVLineX.54
	.cfi_endproc
                                        # -- End function
	.globl	FastLine16Y_11.55       # -- Begin function FastLine16Y_11.55
	.p2align	4, 0x90
	.type	FastLine16Y_11.55,@function
FastLine16Y_11.55:                      # @FastLine16Y_11.55
	.cfi_startproc
# %bb.0:                                # %entry
	pushq	%rbp
	.cfi_def_cfa_offset 16
	.cfi_offset %rbp, -16
	movq	%rsp, %rbp
	.cfi_def_cfa_register %rbp
	pushq	%rbx
	subq	$40, %rsp
	.cfi_offset %rbx, -24
	movl	$2120331732, -20(%rbp)  # imm = 0x7E61B1D4
	movq	%rdi, -32(%rbp)
	movl	%esi, -16(%rbp)
	movl	%edx, -12(%rbp)
	movl	%ecx, -36(%rbp)
	movl	%r8d, -24(%rbp)
	movq	-32(%rbp), %rbx
	movl	-16(%rbp), %eax
	imull	-24(%rbp), %eax
	addl	-12(%rbp), %eax
	cltq
	shlq	$1, %rax
	addq	%rax, %rbx
	cmpl	$2120331732, -20(%rbp)  # imm = 0x7E61B1D4
	jne	.LBB62_2
.LBB62_1:
	movq	%rbx, %rax
	addq	$40, %rsp
	popq	%rbx
	popq	%rbp
	.cfi_def_cfa %rsp, 8
	retq
.LBB62_2:                               # %func_exit
	.cfi_def_cfa %rbp, 16
	callq	detect_breach
	jmp	.LBB62_1
.Lfunc_end62:
	.size	FastLine16Y_11.55, .Lfunc_end62-FastLine16Y_11.55
	.cfi_endproc
                                        # -- End function
	.globl	UMVPelY_14.56           # -- Begin function UMVPelY_14.56
	.p2align	4, 0x90
	.type	UMVPelY_14.56,@function
UMVPelY_14.56:                          # @UMVPelY_14.56
	.cfi_startproc
# %bb.0:                                # %entry
	pushq	%rbp
	.cfi_def_cfa_offset 16
	.cfi_offset %rbp, -16
	movq	%rsp, %rbp
	.cfi_def_cfa_register %rbp
	pushq	%rbx
	subq	$40, %rsp
	.cfi_offset %rbx, -24
	movl	$570810730, -44(%rbp)   # imm = 0x2205E16A
	movq	%rdi, -32(%rbp)
	movl	%esi, -16(%rbp)
	movl	%edx, -20(%rbp)
	movl	%ecx, -40(%rbp)
	movl	%r8d, -48(%rbp)
	movl	-48(%rbp), %eax
	addl	$8, %eax
	subl	$1, %eax
	shll	$2, %eax
	movl	%eax, -36(%rbp)
	movl	-40(%rbp), %eax
	addl	$8, %eax
	subl	$1, %eax
	shll	$2, %eax
	movl	%eax, -24(%rbp)
	movl	-20(%rbp), %eax
	addl	$16, %eax
	movl	%eax, -20(%rbp)
	movl	-16(%rbp), %eax
	addl	$16, %eax
	movl	%eax, -16(%rbp)
	cmpl	$0, -20(%rbp)
	jge	.LBB63_6
# %bb.1:                                # %if.then
	cmpl	$0, -16(%rbp)
	jge	.LBB63_3
# %bb.2:                                # %if.then7
	movq	-32(%rbp), %rax
	movl	-16(%rbp), %ecx
	andl	$3, %ecx
	movslq	%ecx, %rcx
	movq	(%rax,%rcx,8), %rax
	movl	-20(%rbp), %ecx
	andl	$3, %ecx
	movslq	%ecx, %rcx
	movw	(%rax,%rcx,2), %ax
	movw	%ax, -10(%rbp)
	jmp	.LBB63_17
.LBB63_3:                               # %if.end
	movl	-16(%rbp), %eax
	cmpl	-24(%rbp), %eax
	jle	.LBB63_5
# %bb.4:                                # %if.then12
	movq	-32(%rbp), %rax
	movl	-24(%rbp), %ecx
	movl	-16(%rbp), %edx
	andl	$3, %edx
	addl	%edx, %ecx
	movslq	%ecx, %rcx
	movq	(%rax,%rcx,8), %rax
	movl	-20(%rbp), %ecx
	andl	$3, %ecx
	movslq	%ecx, %rcx
	movw	(%rax,%rcx,2), %ax
	movw	%ax, -10(%rbp)
	jmp	.LBB63_17
.LBB63_5:                               # %if.end20
	movq	-32(%rbp), %rax
	movslq	-16(%rbp), %rcx
	movq	(%rax,%rcx,8), %rax
	movl	-20(%rbp), %ecx
	andl	$3, %ecx
	movslq	%ecx, %rcx
	movw	(%rax,%rcx,2), %ax
	movw	%ax, -10(%rbp)
	jmp	.LBB63_17
.LBB63_6:                               # %if.end26
	movl	-20(%rbp), %eax
	cmpl	-36(%rbp), %eax
	jle	.LBB63_12
# %bb.7:                                # %if.then28
	cmpl	$0, -16(%rbp)
	jge	.LBB63_9
# %bb.8:                                # %if.then30
	movq	-32(%rbp), %rax
	movl	-16(%rbp), %ecx
	andl	$3, %ecx
	movslq	%ecx, %rcx
	movq	(%rax,%rcx,8), %rax
	movl	-36(%rbp), %ecx
	movl	-20(%rbp), %edx
	andl	$3, %edx
	addl	%edx, %ecx
	movslq	%ecx, %rcx
	movw	(%rax,%rcx,2), %ax
	movw	%ax, -10(%rbp)
	jmp	.LBB63_17
.LBB63_9:                               # %if.end38
	movl	-16(%rbp), %eax
	cmpl	-24(%rbp), %eax
	jle	.LBB63_11
# %bb.10:                               # %if.then40
	movq	-32(%rbp), %rax
	movl	-24(%rbp), %ecx
	movl	-16(%rbp), %edx
	andl	$3, %edx
	addl	%edx, %ecx
	movslq	%ecx, %rcx
	movq	(%rax,%rcx,8), %rax
	movl	-36(%rbp), %ecx
	movl	-20(%rbp), %edx
	andl	$3, %edx
	addl	%edx, %ecx
	movslq	%ecx, %rcx
	movw	(%rax,%rcx,2), %ax
	movw	%ax, -10(%rbp)
	jmp	.LBB63_17
.LBB63_11:                              # %if.end49
	movq	-32(%rbp), %rax
	movslq	-16(%rbp), %rcx
	movq	(%rax,%rcx,8), %rax
	movl	-36(%rbp), %ecx
	movl	-20(%rbp), %edx
	andl	$3, %edx
	addl	%edx, %ecx
	movslq	%ecx, %rcx
	movw	(%rax,%rcx,2), %ax
	movw	%ax, -10(%rbp)
	jmp	.LBB63_17
.LBB63_12:                              # %if.end56
	cmpl	$0, -16(%rbp)
	jge	.LBB63_14
# %bb.13:                               # %if.then58
	movq	-32(%rbp), %rax
	movl	-16(%rbp), %ecx
	andl	$3, %ecx
	movslq	%ecx, %rcx
	movq	(%rax,%rcx,8), %rax
	movslq	-20(%rbp), %rcx
	movw	(%rax,%rcx,2), %ax
	movw	%ax, -10(%rbp)
	jmp	.LBB63_17
.LBB63_14:                              # %if.end64
	movl	-16(%rbp), %eax
	cmpl	-24(%rbp), %eax
	jle	.LBB63_16
# %bb.15:                               # %if.then66
	movq	-32(%rbp), %rax
	movl	-24(%rbp), %ecx
	movl	-16(%rbp), %edx
	andl	$3, %edx
	addl	%edx, %ecx
	movslq	%ecx, %rcx
	movq	(%rax,%rcx,8), %rax
	movslq	-20(%rbp), %rcx
	movw	(%rax,%rcx,2), %ax
	movw	%ax, -10(%rbp)
	jmp	.LBB63_17
.LBB63_16:                              # %if.end73
	movq	-32(%rbp), %rax
	movslq	-16(%rbp), %rcx
	movq	(%rax,%rcx,8), %rax
	movslq	-20(%rbp), %rcx
	movw	(%rax,%rcx,2), %ax
	movw	%ax, -10(%rbp)
.LBB63_17:                              # %return
	movw	-10(%rbp), %bx
	cmpl	$570810730, -44(%rbp)   # imm = 0x2205E16A
	jne	.LBB63_19
.LBB63_18:
	movzwl	%bx, %eax
	addq	$40, %rsp
	popq	%rbx
	popq	%rbp
	.cfi_def_cfa %rsp, 8
	retq
.LBB63_19:                              # %func_exit
	.cfi_def_cfa %rbp, 16
	callq	detect_breach
	jmp	.LBB63_18
.Lfunc_end63:
	.size	UMVPelY_14.56, .Lfunc_end63-UMVPelY_14.56
	.cfi_endproc
                                        # -- End function
	.globl	FastPelY_14.57          # -- Begin function FastPelY_14.57
	.p2align	4, 0x90
	.type	FastPelY_14.57,@function
FastPelY_14.57:                         # @FastPelY_14.57
	.cfi_startproc
# %bb.0:                                # %entry
	pushq	%rbp
	.cfi_def_cfa_offset 16
	.cfi_offset %rbp, -16
	movq	%rsp, %rbp
	.cfi_def_cfa_register %rbp
	pushq	%rbx
	subq	$40, %rsp
	.cfi_offset %rbx, -24
	movl	$1507393576, -16(%rbp)  # imm = 0x59D90028
	movq	%rdi, -32(%rbp)
	movl	%esi, -12(%rbp)
	movl	%edx, -20(%rbp)
	movl	%ecx, -36(%rbp)
	movl	%r8d, -40(%rbp)
	movq	-32(%rbp), %rax
	movl	-12(%rbp), %ecx
	addl	$16, %ecx
	movslq	%ecx, %rcx
	movq	(%rax,%rcx,8), %rax
	movl	-20(%rbp), %ecx
	addl	$16, %ecx
	movslq	%ecx, %rcx
	movw	(%rax,%rcx,2), %bx
	cmpl	$1507393576, -16(%rbp)  # imm = 0x59D90028
	jne	.LBB64_2
.LBB64_1:
	movzwl	%bx, %eax
	addq	$40, %rsp
	popq	%rbx
	popq	%rbp
	.cfi_def_cfa %rsp, 8
	retq
.LBB64_2:                               # %func_exit
	.cfi_def_cfa %rbp, 16
	callq	detect_breach
	jmp	.LBB64_1
.Lfunc_end64:
	.size	FastPelY_14.57, .Lfunc_end64-FastPelY_14.57
	.cfi_endproc
                                        # -- End function
	.globl	UMVLine16Y_11.58        # -- Begin function UMVLine16Y_11.58
	.p2align	4, 0x90
	.type	UMVLine16Y_11.58,@function
UMVLine16Y_11.58:                       # @UMVLine16Y_11.58
	.cfi_startproc
# %bb.0:                                # %entry
	pushq	%rbp
	.cfi_def_cfa_offset 16
	.cfi_offset %rbp, -16
	movq	%rsp, %rbp
	.cfi_def_cfa_register %rbp
	pushq	%rbx
	subq	$56, %rsp
	.cfi_offset %rbx, -24
	movl	$2065990591, -44(%rbp)  # imm = 0x7B2483BF
	movq	%rdi, -64(%rbp)
	movl	%esi, -28(%rbp)
	movl	%edx, -16(%rbp)
	movl	%ecx, -32(%rbp)
	movl	%r8d, -24(%rbp)
	movq	-64(%rbp), %rax
	movl	-32(%rbp), %ecx
	subl	$1, %ecx
	cmpl	-28(%rbp), %ecx
	jge	.LBB65_2
# %bb.1:                                # %cond.true
	movl	-32(%rbp), %ecx
	subl	$1, %ecx
	jmp	.LBB65_3
.LBB65_2:                               # %cond.false
	movl	-28(%rbp), %ecx
.LBB65_3:                               # %cond.end
	xorl	%edx, %edx
	cmpl	%ecx, %edx
	jle	.LBB65_5
# %bb.4:                                # %cond.true3
	xorl	%ecx, %ecx
	jmp	.LBB65_9
.LBB65_5:                               # %cond.false4
	movl	-32(%rbp), %ecx
	subl	$1, %ecx
	cmpl	-28(%rbp), %ecx
	jge	.LBB65_7
# %bb.6:                                # %cond.true7
	movl	-32(%rbp), %ecx
	subl	$1, %ecx
	jmp	.LBB65_8
.LBB65_7:                               # %cond.false9
	movl	-28(%rbp), %ecx
.LBB65_8:                               # %cond.end10
.LBB65_9:                               # %cond.end12
	imull	-24(%rbp), %ecx
	movslq	%ecx, %rcx
	shlq	$1, %rcx
	addq	%rcx, %rax
	movq	%rax, -40(%rbp)
	cmpl	$0, -16(%rbp)
	jge	.LBB65_22
# %bb.10:                               # %if.then
	xorl	%eax, %eax
	movl	-16(%rbp), %ecx
	addl	$16, %ecx
	cmpl	%ecx, %eax
	jge	.LBB65_12
# %bb.11:                               # %cond.true16
	xorl	%eax, %eax
	jmp	.LBB65_13
.LBB65_12:                              # %cond.false17
	movl	-16(%rbp), %eax
	addl	$16, %eax
.LBB65_13:                              # %cond.end19
	movl	%eax, -20(%rbp)
	movl	-16(%rbp), %eax
	movl	%eax, -12(%rbp)
.LBB65_14:                              # %for.cond
                                        # =>This Inner Loop Header: Depth=1
	movl	-12(%rbp), %eax
	cmpl	-20(%rbp), %eax
	jge	.LBB65_17
# %bb.15:                               # %for.body
                                        #   in Loop: Header=BB65_14 Depth=1
	movq	-40(%rbp), %rax
	movw	(%rax), %ax
	movl	-12(%rbp), %ecx
	subl	-16(%rbp), %ecx
	movslq	%ecx, %rcx
	movw	%ax, line(,%rcx,2)
# %bb.16:                               # %for.inc
                                        #   in Loop: Header=BB65_14 Depth=1
	movl	-12(%rbp), %eax
	addl	$1, %eax
	movl	%eax, -12(%rbp)
	jmp	.LBB65_14
.LBB65_17:                              # %for.end
	movl	-16(%rbp), %eax
	addl	$16, %eax
	movl	%eax, -20(%rbp)
	movl	$0, -12(%rbp)
.LBB65_18:                              # %for.cond27
                                        # =>This Inner Loop Header: Depth=1
	movl	-12(%rbp), %eax
	cmpl	-20(%rbp), %eax
	jge	.LBB65_21
# %bb.19:                               # %for.body29
                                        #   in Loop: Header=BB65_18 Depth=1
	movq	-40(%rbp), %rax
	movslq	-12(%rbp), %rcx
	movw	(%rax,%rcx,2), %ax
	movl	-12(%rbp), %ecx
	subl	-16(%rbp), %ecx
	movslq	%ecx, %rcx
	movw	%ax, line(,%rcx,2)
# %bb.20:                               # %for.inc35
                                        #   in Loop: Header=BB65_18 Depth=1
	movl	-12(%rbp), %eax
	addl	$1, %eax
	movl	%eax, -12(%rbp)
	jmp	.LBB65_18
.LBB65_21:                              # %for.end37
	jmp	.LBB65_37
.LBB65_22:                              # %if.else
	movl	-16(%rbp), %eax
	movl	-24(%rbp), %ecx
	subl	$16, %ecx
	cmpl	%ecx, %eax
	jle	.LBB65_35
# %bb.23:                               # %if.then40
	movl	-24(%rbp), %eax
	movl	%eax, -20(%rbp)
	movl	-16(%rbp), %eax
	movl	%eax, -12(%rbp)
.LBB65_24:                              # %for.cond41
                                        # =>This Inner Loop Header: Depth=1
	movl	-12(%rbp), %eax
	cmpl	-20(%rbp), %eax
	jge	.LBB65_27
# %bb.25:                               # %for.body43
                                        #   in Loop: Header=BB65_24 Depth=1
	movq	-40(%rbp), %rax
	movslq	-12(%rbp), %rcx
	movw	(%rax,%rcx,2), %ax
	movl	-12(%rbp), %ecx
	subl	-16(%rbp), %ecx
	movslq	%ecx, %rcx
	movw	%ax, line(,%rcx,2)
# %bb.26:                               # %for.inc49
                                        #   in Loop: Header=BB65_24 Depth=1
	movl	-12(%rbp), %eax
	addl	$1, %eax
	movl	%eax, -12(%rbp)
	jmp	.LBB65_24
.LBB65_27:                              # %for.end51
	movl	-16(%rbp), %eax
	addl	$16, %eax
	movl	%eax, -20(%rbp)
	movl	-24(%rbp), %eax
	cmpl	-16(%rbp), %eax
	jle	.LBB65_29
# %bb.28:                               # %cond.true54
	movl	-24(%rbp), %eax
	jmp	.LBB65_30
.LBB65_29:                              # %cond.false55
	movl	-16(%rbp), %eax
.LBB65_30:                              # %cond.end56
	movl	%eax, -12(%rbp)
.LBB65_31:                              # %for.cond58
                                        # =>This Inner Loop Header: Depth=1
	movl	-12(%rbp), %eax
	cmpl	-20(%rbp), %eax
	jge	.LBB65_34
# %bb.32:                               # %for.body60
                                        #   in Loop: Header=BB65_31 Depth=1
	movq	-40(%rbp), %rax
	movl	-24(%rbp), %ecx
	subl	$1, %ecx
	movslq	%ecx, %rcx
	movw	(%rax,%rcx,2), %ax
	movl	-12(%rbp), %ecx
	subl	-16(%rbp), %ecx
	movslq	%ecx, %rcx
	movw	%ax, line(,%rcx,2)
# %bb.33:                               # %for.inc67
                                        #   in Loop: Header=BB65_31 Depth=1
	movl	-12(%rbp), %eax
	addl	$1, %eax
	movl	%eax, -12(%rbp)
	jmp	.LBB65_31
.LBB65_34:                              # %for.end69
	jmp	.LBB65_36
.LBB65_35:                              # %if.else70
	movq	-40(%rbp), %rax
	movslq	-16(%rbp), %rcx
	shlq	$1, %rcx
	addq	%rcx, %rax
	movq	%rax, -56(%rbp)
	jmp	.LBB65_38
.LBB65_36:                              # %if.end
	jmp	.LBB65_37
.LBB65_37:                              # %if.end73
	movabsq	$line, %rax
	movq	%rax, -56(%rbp)
.LBB65_38:                              # %return
	movq	-56(%rbp), %rbx
	cmpl	$2065990591, -44(%rbp)  # imm = 0x7B2483BF
	jne	.LBB65_40
.LBB65_39:
	movq	%rbx, %rax
	addq	$56, %rsp
	popq	%rbx
	popq	%rbp
	.cfi_def_cfa %rsp, 8
	retq
.LBB65_40:                              # %func_exit
	.cfi_def_cfa %rbp, 16
	callq	detect_breach
	jmp	.LBB65_39
.Lfunc_end65:
	.size	UMVLine16Y_11.58, .Lfunc_end65-UMVLine16Y_11.58
	.cfi_endproc
                                        # -- End function
	.globl	FastLineX.59            # -- Begin function FastLineX.59
	.p2align	4, 0x90
	.type	FastLineX.59,@function
FastLineX.59:                           # @FastLineX.59
	.cfi_startproc
# %bb.0:                                # %entry
	pushq	%rbp
	.cfi_def_cfa_offset 16
	.cfi_offset %rbp, -16
	movq	%rsp, %rbp
	.cfi_def_cfa_register %rbp
	pushq	%rbx
	subq	$40, %rsp
	.cfi_offset %rbx, -24
	movl	$2133629828, -24(%rbp)  # imm = 0x7F2C9B84
	movl	%edi, -40(%rbp)
	movq	%rsi, -32(%rbp)
	movl	%edx, -12(%rbp)
	movl	%ecx, -20(%rbp)
	movl	%r8d, -36(%rbp)
	movl	%r9d, -16(%rbp)
	movq	-32(%rbp), %rbx
	movl	-12(%rbp), %eax
	imull	-16(%rbp), %eax
	cltq
	shlq	$1, %rax
	addq	%rax, %rbx
	movslq	-20(%rbp), %rax
	shlq	$1, %rax
	addq	%rax, %rbx
	cmpl	$2133629828, -24(%rbp)  # imm = 0x7F2C9B84
	jne	.LBB66_2
.LBB66_1:
	movq	%rbx, %rax
	addq	$40, %rsp
	popq	%rbx
	popq	%rbp
	.cfi_def_cfa %rsp, 8
	retq
.LBB66_2:                               # %func_exit
	.cfi_def_cfa %rbp, 16
	callq	detect_breach
	jmp	.LBB66_1
.Lfunc_end66:
	.size	FastLineX.59, .Lfunc_end66-FastLineX.59
	.cfi_endproc
                                        # -- End function
	.globl	FastPelY_14.60          # -- Begin function FastPelY_14.60
	.p2align	4, 0x90
	.type	FastPelY_14.60,@function
FastPelY_14.60:                         # @FastPelY_14.60
	.cfi_startproc
# %bb.0:                                # %entry
	pushq	%rbp
	.cfi_def_cfa_offset 16
	.cfi_offset %rbp, -16
	movq	%rsp, %rbp
	.cfi_def_cfa_register %rbp
	pushq	%rbx
	subq	$40, %rsp
	.cfi_offset %rbx, -24
	movl	$780814207, -16(%rbp)   # imm = 0x2E8A477F
	movq	%rdi, -32(%rbp)
	movl	%esi, -12(%rbp)
	movl	%edx, -20(%rbp)
	movl	%ecx, -36(%rbp)
	movl	%r8d, -40(%rbp)
	movq	-32(%rbp), %rax
	movl	-12(%rbp), %ecx
	addl	$16, %ecx
	movslq	%ecx, %rcx
	movq	(%rax,%rcx,8), %rax
	movl	-20(%rbp), %ecx
	addl	$16, %ecx
	movslq	%ecx, %rcx
	movw	(%rax,%rcx,2), %bx
	cmpl	$780814207, -16(%rbp)   # imm = 0x2E8A477F
	jne	.LBB67_2
.LBB67_1:
	movzwl	%bx, %eax
	addq	$40, %rsp
	popq	%rbx
	popq	%rbp
	.cfi_def_cfa %rsp, 8
	retq
.LBB67_2:                               # %func_exit
	.cfi_def_cfa %rbp, 16
	callq	detect_breach
	jmp	.LBB67_1
.Lfunc_end67:
	.size	FastPelY_14.60, .Lfunc_end67-FastPelY_14.60
	.cfi_endproc
                                        # -- End function
	.globl	FastLine16Y_11.61       # -- Begin function FastLine16Y_11.61
	.p2align	4, 0x90
	.type	FastLine16Y_11.61,@function
FastLine16Y_11.61:                      # @FastLine16Y_11.61
	.cfi_startproc
# %bb.0:                                # %entry
	pushq	%rbp
	.cfi_def_cfa_offset 16
	.cfi_offset %rbp, -16
	movq	%rsp, %rbp
	.cfi_def_cfa_register %rbp
	pushq	%rbx
	subq	$40, %rsp
	.cfi_offset %rbx, -24
	movl	$1664709459, -16(%rbp)  # imm = 0x63397353
	movq	%rdi, -32(%rbp)
	movl	%esi, -20(%rbp)
	movl	%edx, -12(%rbp)
	movl	%ecx, -36(%rbp)
	movl	%r8d, -24(%rbp)
	movq	-32(%rbp), %rbx
	movl	-20(%rbp), %eax
	imull	-24(%rbp), %eax
	addl	-12(%rbp), %eax
	cltq
	shlq	$1, %rax
	addq	%rax, %rbx
	cmpl	$1664709459, -16(%rbp)  # imm = 0x63397353
	jne	.LBB68_2
.LBB68_1:
	movq	%rbx, %rax
	addq	$40, %rsp
	popq	%rbx
	popq	%rbp
	.cfi_def_cfa %rsp, 8
	retq
.LBB68_2:                               # %func_exit
	.cfi_def_cfa %rbp, 16
	callq	detect_breach
	jmp	.LBB68_1
.Lfunc_end68:
	.size	FastLine16Y_11.61, .Lfunc_end68-FastLine16Y_11.61
	.cfi_endproc
                                        # -- End function
	.globl	UMVLine16Y_11.62        # -- Begin function UMVLine16Y_11.62
	.p2align	4, 0x90
	.type	UMVLine16Y_11.62,@function
UMVLine16Y_11.62:                       # @UMVLine16Y_11.62
	.cfi_startproc
# %bb.0:                                # %entry
	pushq	%rbp
	.cfi_def_cfa_offset 16
	.cfi_offset %rbp, -16
	movq	%rsp, %rbp
	.cfi_def_cfa_register %rbp
	pushq	%rbx
	subq	$56, %rsp
	.cfi_offset %rbx, -24
	movl	$1209283679, -44(%rbp)  # imm = 0x4814345F
	movq	%rdi, -64(%rbp)
	movl	%esi, -32(%rbp)
	movl	%edx, -16(%rbp)
	movl	%ecx, -28(%rbp)
	movl	%r8d, -24(%rbp)
	movq	-64(%rbp), %rax
	movl	-28(%rbp), %ecx
	subl	$1, %ecx
	cmpl	-32(%rbp), %ecx
	jge	.LBB69_2
# %bb.1:                                # %cond.true
	movl	-28(%rbp), %ecx
	subl	$1, %ecx
	jmp	.LBB69_3
.LBB69_2:                               # %cond.false
	movl	-32(%rbp), %ecx
.LBB69_3:                               # %cond.end
	xorl	%edx, %edx
	cmpl	%ecx, %edx
	jle	.LBB69_5
# %bb.4:                                # %cond.true3
	xorl	%ecx, %ecx
	jmp	.LBB69_9
.LBB69_5:                               # %cond.false4
	movl	-28(%rbp), %ecx
	subl	$1, %ecx
	cmpl	-32(%rbp), %ecx
	jge	.LBB69_7
# %bb.6:                                # %cond.true7
	movl	-28(%rbp), %ecx
	subl	$1, %ecx
	jmp	.LBB69_8
.LBB69_7:                               # %cond.false9
	movl	-32(%rbp), %ecx
.LBB69_8:                               # %cond.end10
.LBB69_9:                               # %cond.end12
	imull	-24(%rbp), %ecx
	movslq	%ecx, %rcx
	shlq	$1, %rcx
	addq	%rcx, %rax
	movq	%rax, -40(%rbp)
	cmpl	$0, -16(%rbp)
	jge	.LBB69_22
# %bb.10:                               # %if.then
	xorl	%eax, %eax
	movl	-16(%rbp), %ecx
	addl	$16, %ecx
	cmpl	%ecx, %eax
	jge	.LBB69_12
# %bb.11:                               # %cond.true16
	xorl	%eax, %eax
	jmp	.LBB69_13
.LBB69_12:                              # %cond.false17
	movl	-16(%rbp), %eax
	addl	$16, %eax
.LBB69_13:                              # %cond.end19
	movl	%eax, -20(%rbp)
	movl	-16(%rbp), %eax
	movl	%eax, -12(%rbp)
.LBB69_14:                              # %for.cond
                                        # =>This Inner Loop Header: Depth=1
	movl	-12(%rbp), %eax
	cmpl	-20(%rbp), %eax
	jge	.LBB69_17
# %bb.15:                               # %for.body
                                        #   in Loop: Header=BB69_14 Depth=1
	movq	-40(%rbp), %rax
	movw	(%rax), %ax
	movl	-12(%rbp), %ecx
	subl	-16(%rbp), %ecx
	movslq	%ecx, %rcx
	movw	%ax, line(,%rcx,2)
# %bb.16:                               # %for.inc
                                        #   in Loop: Header=BB69_14 Depth=1
	movl	-12(%rbp), %eax
	addl	$1, %eax
	movl	%eax, -12(%rbp)
	jmp	.LBB69_14
.LBB69_17:                              # %for.end
	movl	-16(%rbp), %eax
	addl	$16, %eax
	movl	%eax, -20(%rbp)
	movl	$0, -12(%rbp)
.LBB69_18:                              # %for.cond27
                                        # =>This Inner Loop Header: Depth=1
	movl	-12(%rbp), %eax
	cmpl	-20(%rbp), %eax
	jge	.LBB69_21
# %bb.19:                               # %for.body29
                                        #   in Loop: Header=BB69_18 Depth=1
	movq	-40(%rbp), %rax
	movslq	-12(%rbp), %rcx
	movw	(%rax,%rcx,2), %ax
	movl	-12(%rbp), %ecx
	subl	-16(%rbp), %ecx
	movslq	%ecx, %rcx
	movw	%ax, line(,%rcx,2)
# %bb.20:                               # %for.inc35
                                        #   in Loop: Header=BB69_18 Depth=1
	movl	-12(%rbp), %eax
	addl	$1, %eax
	movl	%eax, -12(%rbp)
	jmp	.LBB69_18
.LBB69_21:                              # %for.end37
	jmp	.LBB69_37
.LBB69_22:                              # %if.else
	movl	-16(%rbp), %eax
	movl	-24(%rbp), %ecx
	subl	$16, %ecx
	cmpl	%ecx, %eax
	jle	.LBB69_35
# %bb.23:                               # %if.then40
	movl	-24(%rbp), %eax
	movl	%eax, -20(%rbp)
	movl	-16(%rbp), %eax
	movl	%eax, -12(%rbp)
.LBB69_24:                              # %for.cond41
                                        # =>This Inner Loop Header: Depth=1
	movl	-12(%rbp), %eax
	cmpl	-20(%rbp), %eax
	jge	.LBB69_27
# %bb.25:                               # %for.body43
                                        #   in Loop: Header=BB69_24 Depth=1
	movq	-40(%rbp), %rax
	movslq	-12(%rbp), %rcx
	movw	(%rax,%rcx,2), %ax
	movl	-12(%rbp), %ecx
	subl	-16(%rbp), %ecx
	movslq	%ecx, %rcx
	movw	%ax, line(,%rcx,2)
# %bb.26:                               # %for.inc49
                                        #   in Loop: Header=BB69_24 Depth=1
	movl	-12(%rbp), %eax
	addl	$1, %eax
	movl	%eax, -12(%rbp)
	jmp	.LBB69_24
.LBB69_27:                              # %for.end51
	movl	-16(%rbp), %eax
	addl	$16, %eax
	movl	%eax, -20(%rbp)
	movl	-24(%rbp), %eax
	cmpl	-16(%rbp), %eax
	jle	.LBB69_29
# %bb.28:                               # %cond.true54
	movl	-24(%rbp), %eax
	jmp	.LBB69_30
.LBB69_29:                              # %cond.false55
	movl	-16(%rbp), %eax
.LBB69_30:                              # %cond.end56
	movl	%eax, -12(%rbp)
.LBB69_31:                              # %for.cond58
                                        # =>This Inner Loop Header: Depth=1
	movl	-12(%rbp), %eax
	cmpl	-20(%rbp), %eax
	jge	.LBB69_34
# %bb.32:                               # %for.body60
                                        #   in Loop: Header=BB69_31 Depth=1
	movq	-40(%rbp), %rax
	movl	-24(%rbp), %ecx
	subl	$1, %ecx
	movslq	%ecx, %rcx
	movw	(%rax,%rcx,2), %ax
	movl	-12(%rbp), %ecx
	subl	-16(%rbp), %ecx
	movslq	%ecx, %rcx
	movw	%ax, line(,%rcx,2)
# %bb.33:                               # %for.inc67
                                        #   in Loop: Header=BB69_31 Depth=1
	movl	-12(%rbp), %eax
	addl	$1, %eax
	movl	%eax, -12(%rbp)
	jmp	.LBB69_31
.LBB69_34:                              # %for.end69
	jmp	.LBB69_36
.LBB69_35:                              # %if.else70
	movq	-40(%rbp), %rax
	movslq	-16(%rbp), %rcx
	shlq	$1, %rcx
	addq	%rcx, %rax
	movq	%rax, -56(%rbp)
	jmp	.LBB69_38
.LBB69_36:                              # %if.end
	jmp	.LBB69_37
.LBB69_37:                              # %if.end73
	movabsq	$line, %rax
	movq	%rax, -56(%rbp)
.LBB69_38:                              # %return
	movq	-56(%rbp), %rbx
	cmpl	$1209283679, -44(%rbp)  # imm = 0x4814345F
	jne	.LBB69_40
.LBB69_39:
	movq	%rbx, %rax
	addq	$56, %rsp
	popq	%rbx
	popq	%rbp
	.cfi_def_cfa %rsp, 8
	retq
.LBB69_40:                              # %func_exit
	.cfi_def_cfa %rbp, 16
	callq	detect_breach
	jmp	.LBB69_39
.Lfunc_end69:
	.size	UMVLine16Y_11.62, .Lfunc_end69-UMVLine16Y_11.62
	.cfi_endproc
                                        # -- End function
	.globl	UMVLineX.63             # -- Begin function UMVLineX.63
	.p2align	4, 0x90
	.type	UMVLineX.63,@function
UMVLineX.63:                            # @UMVLineX.63
	.cfi_startproc
# %bb.0:                                # %entry
	pushq	%rbp
	.cfi_def_cfa_offset 16
	.cfi_offset %rbp, -16
	movq	%rsp, %rbp
	.cfi_def_cfa_register %rbp
	pushq	%rbx
	subq	$72, %rsp
	.cfi_offset %rbx, -24
	movl	$1462394712, -52(%rbp)  # imm = 0x572A5F58
	movl	%edi, -28(%rbp)
	movq	%rsi, -72(%rbp)
	movl	%edx, -36(%rbp)
	movl	%ecx, -16(%rbp)
	movl	%r8d, -32(%rbp)
	movl	%r9d, -24(%rbp)
	movq	-72(%rbp), %rax
	movl	-32(%rbp), %ecx
	subl	$1, %ecx
	cmpl	-36(%rbp), %ecx
	jge	.LBB70_2
# %bb.1:                                # %cond.true
	movl	-32(%rbp), %ecx
	subl	$1, %ecx
	jmp	.LBB70_3
.LBB70_2:                               # %cond.false
	movl	-36(%rbp), %ecx
.LBB70_3:                               # %cond.end
	xorl	%edx, %edx
	cmpl	%ecx, %edx
	jle	.LBB70_5
# %bb.4:                                # %cond.true3
	xorl	%ecx, %ecx
	jmp	.LBB70_9
.LBB70_5:                               # %cond.false4
	movl	-32(%rbp), %ecx
	subl	$1, %ecx
	cmpl	-36(%rbp), %ecx
	jge	.LBB70_7
# %bb.6:                                # %cond.true7
	movl	-32(%rbp), %ecx
	subl	$1, %ecx
	jmp	.LBB70_8
.LBB70_7:                               # %cond.false9
	movl	-36(%rbp), %ecx
.LBB70_8:                               # %cond.end10
.LBB70_9:                               # %cond.end12
	imull	-24(%rbp), %ecx
	movslq	%ecx, %rcx
	shlq	$1, %rcx
	addq	%rcx, %rax
	movq	%rax, -48(%rbp)
	cmpl	$0, -16(%rbp)
	jge	.LBB70_22
# %bb.10:                               # %if.then
	xorl	%eax, %eax
	movl	-16(%rbp), %ecx
	addl	-28(%rbp), %ecx
	cmpl	%ecx, %eax
	jge	.LBB70_12
# %bb.11:                               # %cond.true16
	xorl	%eax, %eax
	jmp	.LBB70_13
.LBB70_12:                              # %cond.false17
	movl	-16(%rbp), %eax
	addl	-28(%rbp), %eax
.LBB70_13:                              # %cond.end19
	movl	%eax, -20(%rbp)
	movl	-16(%rbp), %eax
	movl	%eax, -12(%rbp)
.LBB70_14:                              # %for.cond
                                        # =>This Inner Loop Header: Depth=1
	movl	-12(%rbp), %eax
	cmpl	-20(%rbp), %eax
	jge	.LBB70_17
# %bb.15:                               # %for.body
                                        #   in Loop: Header=BB70_14 Depth=1
	movq	-48(%rbp), %rax
	movw	(%rax), %ax
	movl	-12(%rbp), %ecx
	subl	-16(%rbp), %ecx
	movslq	%ecx, %rcx
	movw	%ax, line(,%rcx,2)
# %bb.16:                               # %for.inc
                                        #   in Loop: Header=BB70_14 Depth=1
	movl	-12(%rbp), %eax
	addl	$1, %eax
	movl	%eax, -12(%rbp)
	jmp	.LBB70_14
.LBB70_17:                              # %for.end
	movl	-16(%rbp), %eax
	addl	-28(%rbp), %eax
	movl	%eax, -20(%rbp)
	movl	$0, -12(%rbp)
.LBB70_18:                              # %for.cond25
                                        # =>This Inner Loop Header: Depth=1
	movl	-12(%rbp), %eax
	cmpl	-20(%rbp), %eax
	jge	.LBB70_21
# %bb.19:                               # %for.body27
                                        #   in Loop: Header=BB70_18 Depth=1
	movq	-48(%rbp), %rax
	movslq	-12(%rbp), %rcx
	movw	(%rax,%rcx,2), %ax
	movl	-12(%rbp), %ecx
	subl	-16(%rbp), %ecx
	movslq	%ecx, %rcx
	movw	%ax, line(,%rcx,2)
# %bb.20:                               # %for.inc33
                                        #   in Loop: Header=BB70_18 Depth=1
	movl	-12(%rbp), %eax
	addl	$1, %eax
	movl	%eax, -12(%rbp)
	jmp	.LBB70_18
.LBB70_21:                              # %for.end35
	jmp	.LBB70_37
.LBB70_22:                              # %if.else
	movl	-16(%rbp), %eax
	movl	-24(%rbp), %ecx
	subl	-28(%rbp), %ecx
	cmpl	%ecx, %eax
	jle	.LBB70_35
# %bb.23:                               # %if.then38
	movl	-24(%rbp), %eax
	movl	%eax, -20(%rbp)
	movl	-16(%rbp), %eax
	movl	%eax, -12(%rbp)
.LBB70_24:                              # %for.cond39
                                        # =>This Inner Loop Header: Depth=1
	movl	-12(%rbp), %eax
	cmpl	-20(%rbp), %eax
	jge	.LBB70_27
# %bb.25:                               # %for.body41
                                        #   in Loop: Header=BB70_24 Depth=1
	movq	-48(%rbp), %rax
	movslq	-12(%rbp), %rcx
	movw	(%rax,%rcx,2), %ax
	movl	-12(%rbp), %ecx
	subl	-16(%rbp), %ecx
	movslq	%ecx, %rcx
	movw	%ax, line(,%rcx,2)
# %bb.26:                               # %for.inc47
                                        #   in Loop: Header=BB70_24 Depth=1
	movl	-12(%rbp), %eax
	addl	$1, %eax
	movl	%eax, -12(%rbp)
	jmp	.LBB70_24
.LBB70_27:                              # %for.end49
	movl	-16(%rbp), %eax
	addl	-28(%rbp), %eax
	movl	%eax, -20(%rbp)
	movl	-24(%rbp), %eax
	cmpl	-16(%rbp), %eax
	jle	.LBB70_29
# %bb.28:                               # %cond.true52
	movl	-24(%rbp), %eax
	jmp	.LBB70_30
.LBB70_29:                              # %cond.false53
	movl	-16(%rbp), %eax
.LBB70_30:                              # %cond.end54
	movl	%eax, -12(%rbp)
.LBB70_31:                              # %for.cond56
                                        # =>This Inner Loop Header: Depth=1
	movl	-12(%rbp), %eax
	cmpl	-20(%rbp), %eax
	jge	.LBB70_34
# %bb.32:                               # %for.body58
                                        #   in Loop: Header=BB70_31 Depth=1
	movq	-48(%rbp), %rax
	movl	-24(%rbp), %ecx
	subl	$1, %ecx
	movslq	%ecx, %rcx
	movw	(%rax,%rcx,2), %ax
	movl	-12(%rbp), %ecx
	subl	-16(%rbp), %ecx
	movslq	%ecx, %rcx
	movw	%ax, line(,%rcx,2)
# %bb.33:                               # %for.inc65
                                        #   in Loop: Header=BB70_31 Depth=1
	movl	-12(%rbp), %eax
	addl	$1, %eax
	movl	%eax, -12(%rbp)
	jmp	.LBB70_31
.LBB70_34:                              # %for.end67
	jmp	.LBB70_36
.LBB70_35:                              # %if.else68
	movq	-48(%rbp), %rax
	movslq	-16(%rbp), %rcx
	shlq	$1, %rcx
	addq	%rcx, %rax
	movq	%rax, -64(%rbp)
	jmp	.LBB70_38
.LBB70_36:                              # %if.end
	jmp	.LBB70_37
.LBB70_37:                              # %if.end71
	movabsq	$line, %rax
	movq	%rax, -64(%rbp)
.LBB70_38:                              # %return
	movq	-64(%rbp), %rbx
	cmpl	$1462394712, -52(%rbp)  # imm = 0x572A5F58
	jne	.LBB70_40
.LBB70_39:
	movq	%rbx, %rax
	addq	$72, %rsp
	popq	%rbx
	popq	%rbp
	.cfi_def_cfa %rsp, 8
	retq
.LBB70_40:                              # %func_exit
	.cfi_def_cfa %rbp, 16
	callq	detect_breach
	jmp	.LBB70_39
.Lfunc_end70:
	.size	UMVLineX.63, .Lfunc_end70-UMVLineX.63
	.cfi_endproc
                                        # -- End function
	.globl	FastLine16Y_11.64       # -- Begin function FastLine16Y_11.64
	.p2align	4, 0x90
	.type	FastLine16Y_11.64,@function
FastLine16Y_11.64:                      # @FastLine16Y_11.64
	.cfi_startproc
# %bb.0:                                # %entry
	pushq	%rbp
	.cfi_def_cfa_offset 16
	.cfi_offset %rbp, -16
	movq	%rsp, %rbp
	.cfi_def_cfa_register %rbp
	pushq	%rbx
	subq	$40, %rsp
	.cfi_offset %rbx, -24
	movl	$567275931, -16(%rbp)   # imm = 0x21CFF19B
	movq	%rdi, -32(%rbp)
	movl	%esi, -24(%rbp)
	movl	%edx, -20(%rbp)
	movl	%ecx, -36(%rbp)
	movl	%r8d, -12(%rbp)
	movq	-32(%rbp), %rbx
	movl	-24(%rbp), %eax
	imull	-12(%rbp), %eax
	addl	-20(%rbp), %eax
	cltq
	shlq	$1, %rax
	addq	%rax, %rbx
	cmpl	$567275931, -16(%rbp)   # imm = 0x21CFF19B
	jne	.LBB71_2
.LBB71_1:
	movq	%rbx, %rax
	addq	$40, %rsp
	popq	%rbx
	popq	%rbp
	.cfi_def_cfa %rsp, 8
	retq
.LBB71_2:                               # %func_exit
	.cfi_def_cfa %rbp, 16
	callq	detect_breach
	jmp	.LBB71_1
.Lfunc_end71:
	.size	FastLine16Y_11.64, .Lfunc_end71-FastLine16Y_11.64
	.cfi_endproc
                                        # -- End function
	.globl	PutPel_11.65            # -- Begin function PutPel_11.65
	.p2align	4, 0x90
	.type	PutPel_11.65,@function
PutPel_11.65:                           # @PutPel_11.65
	.cfi_startproc
# %bb.0:                                # %entry
	pushq	%rbp
	.cfi_def_cfa_offset 16
	.cfi_offset %rbp, -16
	movq	%rsp, %rbp
	.cfi_def_cfa_register %rbp
	subq	$32, %rsp
	movl	$962811689, -16(%rbp)   # imm = 0x39635729
	movq	%rdi, -32(%rbp)
	movl	%esi, -20(%rbp)
	movl	%edx, -8(%rbp)
	movw	%cx, -2(%rbp)
	movl	%r8d, -12(%rbp)
	movw	-2(%rbp), %ax
	movq	-32(%rbp), %rcx
	movl	-20(%rbp), %edx
	imull	-12(%rbp), %edx
	addl	-8(%rbp), %edx
	movslq	%edx, %rdx
	movw	%ax, (%rcx,%rdx,2)
	cmpl	$962811689, -16(%rbp)   # imm = 0x39635729
	jne	.LBB72_2
.LBB72_1:
	addq	$32, %rsp
	popq	%rbp
	.cfi_def_cfa %rsp, 8
	retq
.LBB72_2:                               # %func_exit
	.cfi_def_cfa %rbp, 16
	callq	detect_breach
	jmp	.LBB72_1
.Lfunc_end72:
	.size	PutPel_11.65, .Lfunc_end72-PutPel_11.65
	.cfi_endproc
                                        # -- End function
	.globl	FastLine16Y_11.66       # -- Begin function FastLine16Y_11.66
	.p2align	4, 0x90
	.type	FastLine16Y_11.66,@function
FastLine16Y_11.66:                      # @FastLine16Y_11.66
	.cfi_startproc
# %bb.0:                                # %entry
	pushq	%rbp
	.cfi_def_cfa_offset 16
	.cfi_offset %rbp, -16
	movq	%rsp, %rbp
	.cfi_def_cfa_register %rbp
	pushq	%rbx
	subq	$40, %rsp
	.cfi_offset %rbx, -24
	movl	$279688630, -20(%rbp)   # imm = 0x10ABB5B6
	movq	%rdi, -32(%rbp)
	movl	%esi, -16(%rbp)
	movl	%edx, -24(%rbp)
	movl	%ecx, -36(%rbp)
	movl	%r8d, -12(%rbp)
	movq	-32(%rbp), %rbx
	movl	-16(%rbp), %eax
	imull	-12(%rbp), %eax
	addl	-24(%rbp), %eax
	cltq
	shlq	$1, %rax
	addq	%rax, %rbx
	cmpl	$279688630, -20(%rbp)   # imm = 0x10ABB5B6
	jne	.LBB73_2
.LBB73_1:
	movq	%rbx, %rax
	addq	$40, %rsp
	popq	%rbx
	popq	%rbp
	.cfi_def_cfa %rsp, 8
	retq
.LBB73_2:                               # %func_exit
	.cfi_def_cfa %rbp, 16
	callq	detect_breach
	jmp	.LBB73_1
.Lfunc_end73:
	.size	FastLine16Y_11.66, .Lfunc_end73-FastLine16Y_11.66
	.cfi_endproc
                                        # -- End function
	.globl	PutPel_14.67            # -- Begin function PutPel_14.67
	.p2align	4, 0x90
	.type	PutPel_14.67,@function
PutPel_14.67:                           # @PutPel_14.67
	.cfi_startproc
# %bb.0:                                # %entry
	pushq	%rbp
	.cfi_def_cfa_offset 16
	.cfi_offset %rbp, -16
	movq	%rsp, %rbp
	.cfi_def_cfa_register %rbp
	subq	$32, %rsp
	movl	$1111906297, -12(%rbp)  # imm = 0x424657F9
	movq	%rdi, -24(%rbp)
	movl	%esi, -8(%rbp)
	movl	%edx, -16(%rbp)
	movw	%cx, -2(%rbp)
	movw	-2(%rbp), %ax
	movq	-24(%rbp), %rcx
	movl	-8(%rbp), %edx
	addl	$16, %edx
	movslq	%edx, %rdx
	movq	(%rcx,%rdx,8), %rcx
	movl	-16(%rbp), %edx
	addl	$16, %edx
	movslq	%edx, %rdx
	movw	%ax, (%rcx,%rdx,2)
	cmpl	$1111906297, -12(%rbp)  # imm = 0x424657F9
	jne	.LBB74_2
.LBB74_1:
	addq	$32, %rsp
	popq	%rbp
	.cfi_def_cfa %rsp, 8
	retq
.LBB74_2:                               # %func_exit
	.cfi_def_cfa %rbp, 16
	callq	detect_breach
	jmp	.LBB74_1
.Lfunc_end74:
	.size	PutPel_14.67, .Lfunc_end74-PutPel_14.67
	.cfi_endproc
                                        # -- End function
	.globl	UMVPelY_14.68           # -- Begin function UMVPelY_14.68
	.p2align	4, 0x90
	.type	UMVPelY_14.68,@function
UMVPelY_14.68:                          # @UMVPelY_14.68
	.cfi_startproc
# %bb.0:                                # %entry
	pushq	%rbp
	.cfi_def_cfa_offset 16
	.cfi_offset %rbp, -16
	movq	%rsp, %rbp
	.cfi_def_cfa_register %rbp
	pushq	%rbx
	subq	$40, %rsp
	.cfi_offset %rbx, -24
	movl	$1389747761, -44(%rbp)  # imm = 0x52D5DE31
	movq	%rdi, -32(%rbp)
	movl	%esi, -16(%rbp)
	movl	%edx, -20(%rbp)
	movl	%ecx, -40(%rbp)
	movl	%r8d, -48(%rbp)
	movl	-48(%rbp), %eax
	addl	$8, %eax
	subl	$1, %eax
	shll	$2, %eax
	movl	%eax, -36(%rbp)
	movl	-40(%rbp), %eax
	addl	$8, %eax
	subl	$1, %eax
	shll	$2, %eax
	movl	%eax, -24(%rbp)
	movl	-20(%rbp), %eax
	addl	$16, %eax
	movl	%eax, -20(%rbp)
	movl	-16(%rbp), %eax
	addl	$16, %eax
	movl	%eax, -16(%rbp)
	cmpl	$0, -20(%rbp)
	jge	.LBB75_6
# %bb.1:                                # %if.then
	cmpl	$0, -16(%rbp)
	jge	.LBB75_3
# %bb.2:                                # %if.then7
	movq	-32(%rbp), %rax
	movl	-16(%rbp), %ecx
	andl	$3, %ecx
	movslq	%ecx, %rcx
	movq	(%rax,%rcx,8), %rax
	movl	-20(%rbp), %ecx
	andl	$3, %ecx
	movslq	%ecx, %rcx
	movw	(%rax,%rcx,2), %ax
	movw	%ax, -10(%rbp)
	jmp	.LBB75_17
.LBB75_3:                               # %if.end
	movl	-16(%rbp), %eax
	cmpl	-24(%rbp), %eax
	jle	.LBB75_5
# %bb.4:                                # %if.then12
	movq	-32(%rbp), %rax
	movl	-24(%rbp), %ecx
	movl	-16(%rbp), %edx
	andl	$3, %edx
	addl	%edx, %ecx
	movslq	%ecx, %rcx
	movq	(%rax,%rcx,8), %rax
	movl	-20(%rbp), %ecx
	andl	$3, %ecx
	movslq	%ecx, %rcx
	movw	(%rax,%rcx,2), %ax
	movw	%ax, -10(%rbp)
	jmp	.LBB75_17
.LBB75_5:                               # %if.end20
	movq	-32(%rbp), %rax
	movslq	-16(%rbp), %rcx
	movq	(%rax,%rcx,8), %rax
	movl	-20(%rbp), %ecx
	andl	$3, %ecx
	movslq	%ecx, %rcx
	movw	(%rax,%rcx,2), %ax
	movw	%ax, -10(%rbp)
	jmp	.LBB75_17
.LBB75_6:                               # %if.end26
	movl	-20(%rbp), %eax
	cmpl	-36(%rbp), %eax
	jle	.LBB75_12
# %bb.7:                                # %if.then28
	cmpl	$0, -16(%rbp)
	jge	.LBB75_9
# %bb.8:                                # %if.then30
	movq	-32(%rbp), %rax
	movl	-16(%rbp), %ecx
	andl	$3, %ecx
	movslq	%ecx, %rcx
	movq	(%rax,%rcx,8), %rax
	movl	-36(%rbp), %ecx
	movl	-20(%rbp), %edx
	andl	$3, %edx
	addl	%edx, %ecx
	movslq	%ecx, %rcx
	movw	(%rax,%rcx,2), %ax
	movw	%ax, -10(%rbp)
	jmp	.LBB75_17
.LBB75_9:                               # %if.end38
	movl	-16(%rbp), %eax
	cmpl	-24(%rbp), %eax
	jle	.LBB75_11
# %bb.10:                               # %if.then40
	movq	-32(%rbp), %rax
	movl	-24(%rbp), %ecx
	movl	-16(%rbp), %edx
	andl	$3, %edx
	addl	%edx, %ecx
	movslq	%ecx, %rcx
	movq	(%rax,%rcx,8), %rax
	movl	-36(%rbp), %ecx
	movl	-20(%rbp), %edx
	andl	$3, %edx
	addl	%edx, %ecx
	movslq	%ecx, %rcx
	movw	(%rax,%rcx,2), %ax
	movw	%ax, -10(%rbp)
	jmp	.LBB75_17
.LBB75_11:                              # %if.end49
	movq	-32(%rbp), %rax
	movslq	-16(%rbp), %rcx
	movq	(%rax,%rcx,8), %rax
	movl	-36(%rbp), %ecx
	movl	-20(%rbp), %edx
	andl	$3, %edx
	addl	%edx, %ecx
	movslq	%ecx, %rcx
	movw	(%rax,%rcx,2), %ax
	movw	%ax, -10(%rbp)
	jmp	.LBB75_17
.LBB75_12:                              # %if.end56
	cmpl	$0, -16(%rbp)
	jge	.LBB75_14
# %bb.13:                               # %if.then58
	movq	-32(%rbp), %rax
	movl	-16(%rbp), %ecx
	andl	$3, %ecx
	movslq	%ecx, %rcx
	movq	(%rax,%rcx,8), %rax
	movslq	-20(%rbp), %rcx
	movw	(%rax,%rcx,2), %ax
	movw	%ax, -10(%rbp)
	jmp	.LBB75_17
.LBB75_14:                              # %if.end64
	movl	-16(%rbp), %eax
	cmpl	-24(%rbp), %eax
	jle	.LBB75_16
# %bb.15:                               # %if.then66
	movq	-32(%rbp), %rax
	movl	-24(%rbp), %ecx
	movl	-16(%rbp), %edx
	andl	$3, %edx
	addl	%edx, %ecx
	movslq	%ecx, %rcx
	movq	(%rax,%rcx,8), %rax
	movslq	-20(%rbp), %rcx
	movw	(%rax,%rcx,2), %ax
	movw	%ax, -10(%rbp)
	jmp	.LBB75_17
.LBB75_16:                              # %if.end73
	movq	-32(%rbp), %rax
	movslq	-16(%rbp), %rcx
	movq	(%rax,%rcx,8), %rax
	movslq	-20(%rbp), %rcx
	movw	(%rax,%rcx,2), %ax
	movw	%ax, -10(%rbp)
.LBB75_17:                              # %return
	movw	-10(%rbp), %bx
	cmpl	$1389747761, -44(%rbp)  # imm = 0x52D5DE31
	jne	.LBB75_19
.LBB75_18:
	movzwl	%bx, %eax
	addq	$40, %rsp
	popq	%rbx
	popq	%rbp
	.cfi_def_cfa %rsp, 8
	retq
.LBB75_19:                              # %func_exit
	.cfi_def_cfa %rbp, 16
	callq	detect_breach
	jmp	.LBB75_18
.Lfunc_end75:
	.size	UMVPelY_14.68, .Lfunc_end75-UMVPelY_14.68
	.cfi_endproc
                                        # -- End function
	.globl	FastLine16Y_11.69       # -- Begin function FastLine16Y_11.69
	.p2align	4, 0x90
	.type	FastLine16Y_11.69,@function
FastLine16Y_11.69:                      # @FastLine16Y_11.69
	.cfi_startproc
# %bb.0:                                # %entry
	pushq	%rbp
	.cfi_def_cfa_offset 16
	.cfi_offset %rbp, -16
	movq	%rsp, %rbp
	.cfi_def_cfa_register %rbp
	pushq	%rbx
	subq	$40, %rsp
	.cfi_offset %rbx, -24
	movl	$2133307483, -16(%rbp)  # imm = 0x7F27B05B
	movq	%rdi, -32(%rbp)
	movl	%esi, -24(%rbp)
	movl	%edx, -20(%rbp)
	movl	%ecx, -36(%rbp)
	movl	%r8d, -12(%rbp)
	movq	-32(%rbp), %rbx
	movl	-24(%rbp), %eax
	imull	-12(%rbp), %eax
	addl	-20(%rbp), %eax
	cltq
	shlq	$1, %rax
	addq	%rax, %rbx
	cmpl	$2133307483, -16(%rbp)  # imm = 0x7F27B05B
	jne	.LBB76_2
.LBB76_1:
	movq	%rbx, %rax
	addq	$40, %rsp
	popq	%rbx
	popq	%rbp
	.cfi_def_cfa %rsp, 8
	retq
.LBB76_2:                               # %func_exit
	.cfi_def_cfa %rbp, 16
	callq	detect_breach
	jmp	.LBB76_1
.Lfunc_end76:
	.size	FastLine16Y_11.69, .Lfunc_end76-FastLine16Y_11.69
	.cfi_endproc
                                        # -- End function
	.globl	FastPelY_14.70          # -- Begin function FastPelY_14.70
	.p2align	4, 0x90
	.type	FastPelY_14.70,@function
FastPelY_14.70:                         # @FastPelY_14.70
	.cfi_startproc
# %bb.0:                                # %entry
	pushq	%rbp
	.cfi_def_cfa_offset 16
	.cfi_offset %rbp, -16
	movq	%rsp, %rbp
	.cfi_def_cfa_register %rbp
	pushq	%rbx
	subq	$40, %rsp
	.cfi_offset %rbx, -24
	movl	$2125671476, -20(%rbp)  # imm = 0x7EB32C34
	movq	%rdi, -32(%rbp)
	movl	%esi, -12(%rbp)
	movl	%edx, -16(%rbp)
	movl	%ecx, -36(%rbp)
	movl	%r8d, -40(%rbp)
	movq	-32(%rbp), %rax
	movl	-12(%rbp), %ecx
	addl	$16, %ecx
	movslq	%ecx, %rcx
	movq	(%rax,%rcx,8), %rax
	movl	-16(%rbp), %ecx
	addl	$16, %ecx
	movslq	%ecx, %rcx
	movw	(%rax,%rcx,2), %bx
	cmpl	$2125671476, -20(%rbp)  # imm = 0x7EB32C34
	jne	.LBB77_2
.LBB77_1:
	movzwl	%bx, %eax
	addq	$40, %rsp
	popq	%rbx
	popq	%rbp
	.cfi_def_cfa %rsp, 8
	retq
.LBB77_2:                               # %func_exit
	.cfi_def_cfa %rbp, 16
	callq	detect_breach
	jmp	.LBB77_1
.Lfunc_end77:
	.size	FastPelY_14.70, .Lfunc_end77-FastPelY_14.70
	.cfi_endproc
                                        # -- End function
	.globl	PutPel_11.71            # -- Begin function PutPel_11.71
	.p2align	4, 0x90
	.type	PutPel_11.71,@function
PutPel_11.71:                           # @PutPel_11.71
	.cfi_startproc
# %bb.0:                                # %entry
	pushq	%rbp
	.cfi_def_cfa_offset 16
	.cfi_offset %rbp, -16
	movq	%rsp, %rbp
	.cfi_def_cfa_register %rbp
	subq	$32, %rsp
	movl	$2032150559, -8(%rbp)   # imm = 0x7920281F
	movq	%rdi, -32(%rbp)
	movl	%esi, -16(%rbp)
	movl	%edx, -12(%rbp)
	movw	%cx, -2(%rbp)
	movl	%r8d, -20(%rbp)
	movw	-2(%rbp), %ax
	movq	-32(%rbp), %rcx
	movl	-16(%rbp), %edx
	imull	-20(%rbp), %edx
	addl	-12(%rbp), %edx
	movslq	%edx, %rdx
	movw	%ax, (%rcx,%rdx,2)
	cmpl	$2032150559, -8(%rbp)   # imm = 0x7920281F
	jne	.LBB78_2
.LBB78_1:
	addq	$32, %rsp
	popq	%rbp
	.cfi_def_cfa %rsp, 8
	retq
.LBB78_2:                               # %func_exit
	.cfi_def_cfa %rbp, 16
	callq	detect_breach
	jmp	.LBB78_1
.Lfunc_end78:
	.size	PutPel_11.71, .Lfunc_end78-PutPel_11.71
	.cfi_endproc
                                        # -- End function
	.globl	FastLineX.72            # -- Begin function FastLineX.72
	.p2align	4, 0x90
	.type	FastLineX.72,@function
FastLineX.72:                           # @FastLineX.72
	.cfi_startproc
# %bb.0:                                # %entry
	pushq	%rbp
	.cfi_def_cfa_offset 16
	.cfi_offset %rbp, -16
	movq	%rsp, %rbp
	.cfi_def_cfa_register %rbp
	pushq	%rbx
	subq	$40, %rsp
	.cfi_offset %rbx, -24
	movl	$785919418, -20(%rbp)   # imm = 0x2ED82DBA
	movl	%edi, -40(%rbp)
	movq	%rsi, -32(%rbp)
	movl	%edx, -16(%rbp)
	movl	%ecx, -24(%rbp)
	movl	%r8d, -36(%rbp)
	movl	%r9d, -12(%rbp)
	movq	-32(%rbp), %rbx
	movl	-16(%rbp), %eax
	imull	-12(%rbp), %eax
	cltq
	shlq	$1, %rax
	addq	%rax, %rbx
	movslq	-24(%rbp), %rax
	shlq	$1, %rax
	addq	%rax, %rbx
	cmpl	$785919418, -20(%rbp)   # imm = 0x2ED82DBA
	jne	.LBB79_2
.LBB79_1:
	movq	%rbx, %rax
	addq	$40, %rsp
	popq	%rbx
	popq	%rbp
	.cfi_def_cfa %rsp, 8
	retq
.LBB79_2:                               # %func_exit
	.cfi_def_cfa %rbp, 16
	callq	detect_breach
	jmp	.LBB79_1
.Lfunc_end79:
	.size	FastLineX.72, .Lfunc_end79-FastLineX.72
	.cfi_endproc
                                        # -- End function
	.globl	UMVPelY_14.73           # -- Begin function UMVPelY_14.73
	.p2align	4, 0x90
	.type	UMVPelY_14.73,@function
UMVPelY_14.73:                          # @UMVPelY_14.73
	.cfi_startproc
# %bb.0:                                # %entry
	pushq	%rbp
	.cfi_def_cfa_offset 16
	.cfi_offset %rbp, -16
	movq	%rsp, %rbp
	.cfi_def_cfa_register %rbp
	pushq	%rbx
	subq	$40, %rsp
	.cfi_offset %rbx, -24
	movl	$1350619184, -40(%rbp)  # imm = 0x5080D030
	movq	%rdi, -32(%rbp)
	movl	%esi, -16(%rbp)
	movl	%edx, -20(%rbp)
	movl	%ecx, -48(%rbp)
	movl	%r8d, -44(%rbp)
	movl	-44(%rbp), %eax
	addl	$8, %eax
	subl	$1, %eax
	shll	$2, %eax
	movl	%eax, -36(%rbp)
	movl	-48(%rbp), %eax
	addl	$8, %eax
	subl	$1, %eax
	shll	$2, %eax
	movl	%eax, -24(%rbp)
	movl	-20(%rbp), %eax
	addl	$16, %eax
	movl	%eax, -20(%rbp)
	movl	-16(%rbp), %eax
	addl	$16, %eax
	movl	%eax, -16(%rbp)
	cmpl	$0, -20(%rbp)
	jge	.LBB80_6
# %bb.1:                                # %if.then
	cmpl	$0, -16(%rbp)
	jge	.LBB80_3
# %bb.2:                                # %if.then7
	movq	-32(%rbp), %rax
	movl	-16(%rbp), %ecx
	andl	$3, %ecx
	movslq	%ecx, %rcx
	movq	(%rax,%rcx,8), %rax
	movl	-20(%rbp), %ecx
	andl	$3, %ecx
	movslq	%ecx, %rcx
	movw	(%rax,%rcx,2), %ax
	movw	%ax, -10(%rbp)
	jmp	.LBB80_17
.LBB80_3:                               # %if.end
	movl	-16(%rbp), %eax
	cmpl	-24(%rbp), %eax
	jle	.LBB80_5
# %bb.4:                                # %if.then12
	movq	-32(%rbp), %rax
	movl	-24(%rbp), %ecx
	movl	-16(%rbp), %edx
	andl	$3, %edx
	addl	%edx, %ecx
	movslq	%ecx, %rcx
	movq	(%rax,%rcx,8), %rax
	movl	-20(%rbp), %ecx
	andl	$3, %ecx
	movslq	%ecx, %rcx
	movw	(%rax,%rcx,2), %ax
	movw	%ax, -10(%rbp)
	jmp	.LBB80_17
.LBB80_5:                               # %if.end20
	movq	-32(%rbp), %rax
	movslq	-16(%rbp), %rcx
	movq	(%rax,%rcx,8), %rax
	movl	-20(%rbp), %ecx
	andl	$3, %ecx
	movslq	%ecx, %rcx
	movw	(%rax,%rcx,2), %ax
	movw	%ax, -10(%rbp)
	jmp	.LBB80_17
.LBB80_6:                               # %if.end26
	movl	-20(%rbp), %eax
	cmpl	-36(%rbp), %eax
	jle	.LBB80_12
# %bb.7:                                # %if.then28
	cmpl	$0, -16(%rbp)
	jge	.LBB80_9
# %bb.8:                                # %if.then30
	movq	-32(%rbp), %rax
	movl	-16(%rbp), %ecx
	andl	$3, %ecx
	movslq	%ecx, %rcx
	movq	(%rax,%rcx,8), %rax
	movl	-36(%rbp), %ecx
	movl	-20(%rbp), %edx
	andl	$3, %edx
	addl	%edx, %ecx
	movslq	%ecx, %rcx
	movw	(%rax,%rcx,2), %ax
	movw	%ax, -10(%rbp)
	jmp	.LBB80_17
.LBB80_9:                               # %if.end38
	movl	-16(%rbp), %eax
	cmpl	-24(%rbp), %eax
	jle	.LBB80_11
# %bb.10:                               # %if.then40
	movq	-32(%rbp), %rax
	movl	-24(%rbp), %ecx
	movl	-16(%rbp), %edx
	andl	$3, %edx
	addl	%edx, %ecx
	movslq	%ecx, %rcx
	movq	(%rax,%rcx,8), %rax
	movl	-36(%rbp), %ecx
	movl	-20(%rbp), %edx
	andl	$3, %edx
	addl	%edx, %ecx
	movslq	%ecx, %rcx
	movw	(%rax,%rcx,2), %ax
	movw	%ax, -10(%rbp)
	jmp	.LBB80_17
.LBB80_11:                              # %if.end49
	movq	-32(%rbp), %rax
	movslq	-16(%rbp), %rcx
	movq	(%rax,%rcx,8), %rax
	movl	-36(%rbp), %ecx
	movl	-20(%rbp), %edx
	andl	$3, %edx
	addl	%edx, %ecx
	movslq	%ecx, %rcx
	movw	(%rax,%rcx,2), %ax
	movw	%ax, -10(%rbp)
	jmp	.LBB80_17
.LBB80_12:                              # %if.end56
	cmpl	$0, -16(%rbp)
	jge	.LBB80_14
# %bb.13:                               # %if.then58
	movq	-32(%rbp), %rax
	movl	-16(%rbp), %ecx
	andl	$3, %ecx
	movslq	%ecx, %rcx
	movq	(%rax,%rcx,8), %rax
	movslq	-20(%rbp), %rcx
	movw	(%rax,%rcx,2), %ax
	movw	%ax, -10(%rbp)
	jmp	.LBB80_17
.LBB80_14:                              # %if.end64
	movl	-16(%rbp), %eax
	cmpl	-24(%rbp), %eax
	jle	.LBB80_16
# %bb.15:                               # %if.then66
	movq	-32(%rbp), %rax
	movl	-24(%rbp), %ecx
	movl	-16(%rbp), %edx
	andl	$3, %edx
	addl	%edx, %ecx
	movslq	%ecx, %rcx
	movq	(%rax,%rcx,8), %rax
	movslq	-20(%rbp), %rcx
	movw	(%rax,%rcx,2), %ax
	movw	%ax, -10(%rbp)
	jmp	.LBB80_17
.LBB80_16:                              # %if.end73
	movq	-32(%rbp), %rax
	movslq	-16(%rbp), %rcx
	movq	(%rax,%rcx,8), %rax
	movslq	-20(%rbp), %rcx
	movw	(%rax,%rcx,2), %ax
	movw	%ax, -10(%rbp)
.LBB80_17:                              # %return
	movw	-10(%rbp), %bx
	cmpl	$1350619184, -40(%rbp)  # imm = 0x5080D030
	jne	.LBB80_19
.LBB80_18:
	movzwl	%bx, %eax
	addq	$40, %rsp
	popq	%rbx
	popq	%rbp
	.cfi_def_cfa %rsp, 8
	retq
.LBB80_19:                              # %func_exit
	.cfi_def_cfa %rbp, 16
	callq	detect_breach
	jmp	.LBB80_18
.Lfunc_end80:
	.size	UMVPelY_14.73, .Lfunc_end80-UMVPelY_14.73
	.cfi_endproc
                                        # -- End function
	.globl	UMVLine16Y_11.74        # -- Begin function UMVLine16Y_11.74
	.p2align	4, 0x90
	.type	UMVLine16Y_11.74,@function
UMVLine16Y_11.74:                       # @UMVLine16Y_11.74
	.cfi_startproc
# %bb.0:                                # %entry
	pushq	%rbp
	.cfi_def_cfa_offset 16
	.cfi_offset %rbp, -16
	movq	%rsp, %rbp
	.cfi_def_cfa_register %rbp
	pushq	%rbx
	subq	$56, %rsp
	.cfi_offset %rbx, -24
	movl	$18604952, -44(%rbp)    # imm = 0x11BE398
	movq	%rdi, -64(%rbp)
	movl	%esi, -32(%rbp)
	movl	%edx, -16(%rbp)
	movl	%ecx, -28(%rbp)
	movl	%r8d, -24(%rbp)
	movq	-64(%rbp), %rax
	movl	-28(%rbp), %ecx
	subl	$1, %ecx
	cmpl	-32(%rbp), %ecx
	jge	.LBB81_2
# %bb.1:                                # %cond.true
	movl	-28(%rbp), %ecx
	subl	$1, %ecx
	jmp	.LBB81_3
.LBB81_2:                               # %cond.false
	movl	-32(%rbp), %ecx
.LBB81_3:                               # %cond.end
	xorl	%edx, %edx
	cmpl	%ecx, %edx
	jle	.LBB81_5
# %bb.4:                                # %cond.true3
	xorl	%ecx, %ecx
	jmp	.LBB81_9
.LBB81_5:                               # %cond.false4
	movl	-28(%rbp), %ecx
	subl	$1, %ecx
	cmpl	-32(%rbp), %ecx
	jge	.LBB81_7
# %bb.6:                                # %cond.true7
	movl	-28(%rbp), %ecx
	subl	$1, %ecx
	jmp	.LBB81_8
.LBB81_7:                               # %cond.false9
	movl	-32(%rbp), %ecx
.LBB81_8:                               # %cond.end10
.LBB81_9:                               # %cond.end12
	imull	-24(%rbp), %ecx
	movslq	%ecx, %rcx
	shlq	$1, %rcx
	addq	%rcx, %rax
	movq	%rax, -40(%rbp)
	cmpl	$0, -16(%rbp)
	jge	.LBB81_22
# %bb.10:                               # %if.then
	xorl	%eax, %eax
	movl	-16(%rbp), %ecx
	addl	$16, %ecx
	cmpl	%ecx, %eax
	jge	.LBB81_12
# %bb.11:                               # %cond.true16
	xorl	%eax, %eax
	jmp	.LBB81_13
.LBB81_12:                              # %cond.false17
	movl	-16(%rbp), %eax
	addl	$16, %eax
.LBB81_13:                              # %cond.end19
	movl	%eax, -20(%rbp)
	movl	-16(%rbp), %eax
	movl	%eax, -12(%rbp)
.LBB81_14:                              # %for.cond
                                        # =>This Inner Loop Header: Depth=1
	movl	-12(%rbp), %eax
	cmpl	-20(%rbp), %eax
	jge	.LBB81_17
# %bb.15:                               # %for.body
                                        #   in Loop: Header=BB81_14 Depth=1
	movq	-40(%rbp), %rax
	movw	(%rax), %ax
	movl	-12(%rbp), %ecx
	subl	-16(%rbp), %ecx
	movslq	%ecx, %rcx
	movw	%ax, line(,%rcx,2)
# %bb.16:                               # %for.inc
                                        #   in Loop: Header=BB81_14 Depth=1
	movl	-12(%rbp), %eax
	addl	$1, %eax
	movl	%eax, -12(%rbp)
	jmp	.LBB81_14
.LBB81_17:                              # %for.end
	movl	-16(%rbp), %eax
	addl	$16, %eax
	movl	%eax, -20(%rbp)
	movl	$0, -12(%rbp)
.LBB81_18:                              # %for.cond27
                                        # =>This Inner Loop Header: Depth=1
	movl	-12(%rbp), %eax
	cmpl	-20(%rbp), %eax
	jge	.LBB81_21
# %bb.19:                               # %for.body29
                                        #   in Loop: Header=BB81_18 Depth=1
	movq	-40(%rbp), %rax
	movslq	-12(%rbp), %rcx
	movw	(%rax,%rcx,2), %ax
	movl	-12(%rbp), %ecx
	subl	-16(%rbp), %ecx
	movslq	%ecx, %rcx
	movw	%ax, line(,%rcx,2)
# %bb.20:                               # %for.inc35
                                        #   in Loop: Header=BB81_18 Depth=1
	movl	-12(%rbp), %eax
	addl	$1, %eax
	movl	%eax, -12(%rbp)
	jmp	.LBB81_18
.LBB81_21:                              # %for.end37
	jmp	.LBB81_37
.LBB81_22:                              # %if.else
	movl	-16(%rbp), %eax
	movl	-24(%rbp), %ecx
	subl	$16, %ecx
	cmpl	%ecx, %eax
	jle	.LBB81_35
