	.text
	.file	"refbuf.c"
	.globl	PutPel_14               # -- Begin function PutPel_14
	.p2align	4, 0x90
	.type	PutPel_14,@function
PutPel_14:                              # @PutPel_14
	.cfi_startproc
# %bb.0:                                # %rand_bb
	pushq	%rbp
	.cfi_def_cfa_offset 16
	.cfi_offset %rbp, -16
	movq	%rsp, %rbp
	.cfi_def_cfa_register %rbp
	pushq	%r15
	pushq	%r14
	pushq	%r12
	pushq	%rbx
	.cfi_offset %rbx, -48
	.cfi_offset %r12, -40
	.cfi_offset %r14, -32
	.cfi_offset %r15, -24
	movl	%ecx, %r14d
	movl	%edx, %r15d
	movl	%esi, %r12d
	movq	%rdi, %rbx
	callq	get_urand
	cmpl	$0, %eax
	jne	.LBB0_17
# %bb.1:                                # %func_PutPel_14.5
	movq	%rbx, %rdi
	movl	%r12d, %esi
	movl	%r15d, %edx
	movzwl	%r14w, %ecx
	callq	PutPel_14.5
	popq	%rbx
	popq	%r12
	popq	%r14
	popq	%r15
	popq	%rbp
	.cfi_def_cfa %rsp, 8
	retq
.LBB0_2:                                # %func_PutPel_14.6
	.cfi_def_cfa %rbp, 16
	movq	%rbx, %rdi
	movl	%r12d, %esi
	movl	%r15d, %edx
	movzwl	%r14w, %ecx
	callq	PutPel_14.6
	popq	%rbx
	popq	%r12
	popq	%r14
	popq	%r15
	popq	%rbp
	.cfi_def_cfa %rsp, 8
	retq
.LBB0_3:                                # %func_PutPel_14.15
	.cfi_def_cfa %rbp, 16
	movq	%rbx, %rdi
	movl	%r12d, %esi
	movl	%r15d, %edx
	movzwl	%r14w, %ecx
	callq	PutPel_14.15
	popq	%rbx
	popq	%r12
	popq	%r14
	popq	%r15
	popq	%rbp
	.cfi_def_cfa %rsp, 8
	retq
.LBB0_4:                                # %func_PutPel_14.21
	.cfi_def_cfa %rbp, 16
	movq	%rbx, %rdi
	movl	%r12d, %esi
	movl	%r15d, %edx
	movzwl	%r14w, %ecx
	callq	PutPel_14.21
	popq	%rbx
	popq	%r12
	popq	%r14
	popq	%r15
	popq	%rbp
	.cfi_def_cfa %rsp, 8
	retq
.LBB0_5:                                # %func_PutPel_14.28
	.cfi_def_cfa %rbp, 16
	movq	%rbx, %rdi
	movl	%r12d, %esi
	movl	%r15d, %edx
	movzwl	%r14w, %ecx
	callq	PutPel_14.28
	popq	%rbx
	popq	%r12
	popq	%r14
	popq	%r15
	popq	%rbp
	.cfi_def_cfa %rsp, 8
	retq
.LBB0_6:                                # %func_PutPel_14.29
	.cfi_def_cfa %rbp, 16
	movq	%rbx, %rdi
	movl	%r12d, %esi
	movl	%r15d, %edx
	movzwl	%r14w, %ecx
	callq	PutPel_14.29
	popq	%rbx
	popq	%r12
	popq	%r14
	popq	%r15
	popq	%rbp
	.cfi_def_cfa %rsp, 8
	retq
.LBB0_7:                                # %func_PutPel_14.33
	.cfi_def_cfa %rbp, 16
	movq	%rbx, %rdi
	movl	%r12d, %esi
	movl	%r15d, %edx
	movzwl	%r14w, %ecx
	callq	PutPel_14.33
	popq	%rbx
	popq	%r12
	popq	%r14
	popq	%r15
	popq	%rbp
	.cfi_def_cfa %rsp, 8
	retq
.LBB0_8:                                # %func_PutPel_14.36
	.cfi_def_cfa %rbp, 16
	movq	%rbx, %rdi
	movl	%r12d, %esi
	movl	%r15d, %edx
	movzwl	%r14w, %ecx
	callq	PutPel_14.36
	popq	%rbx
	popq	%r12
	popq	%r14
	popq	%r15
	popq	%rbp
	.cfi_def_cfa %rsp, 8
	retq
.LBB0_9:                                # %func_PutPel_14.48
	.cfi_def_cfa %rbp, 16
	movq	%rbx, %rdi
	movl	%r12d, %esi
	movl	%r15d, %edx
	movzwl	%r14w, %ecx
	callq	PutPel_14.48
	popq	%rbx
	popq	%r12
	popq	%r14
	popq	%r15
	popq	%rbp
	.cfi_def_cfa %rsp, 8
	retq
.LBB0_10:                               # %func_PutPel_14.53
	.cfi_def_cfa %rbp, 16
	movq	%rbx, %rdi
	movl	%r12d, %esi
	movl	%r15d, %edx
	movzwl	%r14w, %ecx
	callq	PutPel_14.53
	popq	%rbx
	popq	%r12
	popq	%r14
	popq	%r15
	popq	%rbp
	.cfi_def_cfa %rsp, 8
	retq
.LBB0_11:                               # %func_PutPel_14.55
	.cfi_def_cfa %rbp, 16
	movq	%rbx, %rdi
	movl	%r12d, %esi
	movl	%r15d, %edx
	movzwl	%r14w, %ecx
	callq	PutPel_14.55
	popq	%rbx
	popq	%r12
	popq	%r14
	popq	%r15
	popq	%rbp
	.cfi_def_cfa %rsp, 8
	retq
.LBB0_12:                               # %func_PutPel_14.70
	.cfi_def_cfa %rbp, 16
	movq	%rbx, %rdi
	movl	%r12d, %esi
	movl	%r15d, %edx
	movzwl	%r14w, %ecx
	callq	PutPel_14.70
	popq	%rbx
	popq	%r12
	popq	%r14
	popq	%r15
	popq	%rbp
	.cfi_def_cfa %rsp, 8
	retq
.LBB0_13:                               # %func_PutPel_14.80
	.cfi_def_cfa %rbp, 16
	movq	%rbx, %rdi
	movl	%r12d, %esi
	movl	%r15d, %edx
	movzwl	%r14w, %ecx
	callq	PutPel_14.80
	popq	%rbx
	popq	%r12
	popq	%r14
	popq	%r15
	popq	%rbp
	.cfi_def_cfa %rsp, 8
	retq
.LBB0_14:                               # %func_PutPel_14.82
	.cfi_def_cfa %rbp, 16
	movq	%rbx, %rdi
	movl	%r12d, %esi
	movl	%r15d, %edx
	movzwl	%r14w, %ecx
	callq	PutPel_14.82
	popq	%rbx
	popq	%r12
	popq	%r14
	popq	%r15
	popq	%rbp
	.cfi_def_cfa %rsp, 8
	retq
.LBB0_15:                               # %func_PutPel_14.93
	.cfi_def_cfa %rbp, 16
	movq	%rbx, %rdi
	movl	%r12d, %esi
	movl	%r15d, %edx
	movzwl	%r14w, %ecx
	callq	PutPel_14.93
	popq	%rbx
	popq	%r12
	popq	%r14
	popq	%r15
	popq	%rbp
	.cfi_def_cfa %rsp, 8
	retq
.LBB0_16:                               # %func_PutPel_14.103
	.cfi_def_cfa %rbp, 16
	movq	%rbx, %rdi
	movl	%r12d, %esi
	movl	%r15d, %edx
	movzwl	%r14w, %ecx
	callq	PutPel_14.103
	popq	%rbx
	popq	%r12
	popq	%r14
	popq	%r15
	popq	%rbp
	.cfi_def_cfa %rsp, 8
	retq
.LBB0_17:                               # %ctrl0
	.cfi_def_cfa %rbp, 16
	cmpl	$1, %eax
	je	.LBB0_2
# %bb.18:                               # %ctrl1
	cmpl	$2, %eax
	je	.LBB0_3
# %bb.19:                               # %ctrl2
	cmpl	$3, %eax
	je	.LBB0_4
# %bb.20:                               # %ctrl3
	cmpl	$4, %eax
	je	.LBB0_5
# %bb.21:                               # %ctrl4
	cmpl	$5, %eax
	je	.LBB0_6
# %bb.22:                               # %ctrl5
	cmpl	$6, %eax
	je	.LBB0_7
# %bb.23:                               # %ctrl6
	cmpl	$7, %eax
	je	.LBB0_8
# %bb.24:                               # %ctrl7
	cmpl	$8, %eax
	je	.LBB0_9
# %bb.25:                               # %ctrl8
	cmpl	$9, %eax
	je	.LBB0_10
# %bb.26:                               # %ctrl9
	cmpl	$10, %eax
	je	.LBB0_11
# %bb.27:                               # %ctrl10
	cmpl	$11, %eax
	je	.LBB0_12
# %bb.28:                               # %ctrl11
	cmpl	$12, %eax
	je	.LBB0_13
# %bb.29:                               # %ctrl12
	cmpl	$13, %eax
	je	.LBB0_14
# %bb.30:                               # %ctrl13
	cmpl	$14, %eax
	je	.LBB0_15
	jmp	.LBB0_16
.Lfunc_end0:
	.size	PutPel_14, .Lfunc_end0-PutPel_14
	.cfi_endproc
                                        # -- End function
	.globl	PutPel_11               # -- Begin function PutPel_11
	.p2align	4, 0x90
	.type	PutPel_11,@function
PutPel_11:                              # @PutPel_11
	.cfi_startproc
# %bb.0:                                # %rand_bb
	pushq	%rbp
	.cfi_def_cfa_offset 16
	.cfi_offset %rbp, -16
	movq	%rsp, %rbp
	.cfi_def_cfa_register %rbp
	pushq	%r15
	pushq	%r14
	pushq	%r13
	pushq	%r12
	pushq	%rbx
	pushq	%rax
	.cfi_offset %rbx, -56
	.cfi_offset %r12, -48
	.cfi_offset %r13, -40
	.cfi_offset %r14, -32
	.cfi_offset %r15, -24
	movl	%r8d, %r14d
	movl	%ecx, %r15d
	movl	%edx, %r12d
	movl	%esi, %r13d
	movq	%rdi, %rbx
	callq	get_urand
	cmpl	$0, %eax
	jne	.LBB1_17
# %bb.1:                                # %func_PutPel_11.16
	movq	%rbx, %rdi
	movl	%r13d, %esi
	movl	%r12d, %edx
	movzwl	%r15w, %ecx
	movl	%r14d, %r8d
	callq	PutPel_11.16
	addq	$8, %rsp
	popq	%rbx
	popq	%r12
	popq	%r13
	popq	%r14
	popq	%r15
	popq	%rbp
	.cfi_def_cfa %rsp, 8
	retq
.LBB1_2:                                # %func_PutPel_11.17
	.cfi_def_cfa %rbp, 16
	movq	%rbx, %rdi
	movl	%r13d, %esi
	movl	%r12d, %edx
	movzwl	%r15w, %ecx
	movl	%r14d, %r8d
	callq	PutPel_11.17
	addq	$8, %rsp
	popq	%rbx
	popq	%r12
	popq	%r13
	popq	%r14
	popq	%r15
	popq	%rbp
	.cfi_def_cfa %rsp, 8
	retq
.LBB1_3:                                # %func_PutPel_11.25
	.cfi_def_cfa %rbp, 16
	movq	%rbx, %rdi
	movl	%r13d, %esi
	movl	%r12d, %edx
	movzwl	%r15w, %ecx
	movl	%r14d, %r8d
	callq	PutPel_11.25
	addq	$8, %rsp
	popq	%rbx
	popq	%r12
	popq	%r13
	popq	%r14
	popq	%r15
	popq	%rbp
	.cfi_def_cfa %rsp, 8
	retq
.LBB1_4:                                # %func_PutPel_11.31
	.cfi_def_cfa %rbp, 16
	movq	%rbx, %rdi
	movl	%r13d, %esi
	movl	%r12d, %edx
	movzwl	%r15w, %ecx
	movl	%r14d, %r8d
	callq	PutPel_11.31
	addq	$8, %rsp
	popq	%rbx
	popq	%r12
	popq	%r13
	popq	%r14
	popq	%r15
	popq	%rbp
	.cfi_def_cfa %rsp, 8
	retq
.LBB1_5:                                # %func_PutPel_11.54
	.cfi_def_cfa %rbp, 16
	movq	%rbx, %rdi
	movl	%r13d, %esi
	movl	%r12d, %edx
	movzwl	%r15w, %ecx
	movl	%r14d, %r8d
	callq	PutPel_11.54
	addq	$8, %rsp
	popq	%rbx
	popq	%r12
	popq	%r13
	popq	%r14
	popq	%r15
	popq	%rbp
	.cfi_def_cfa %rsp, 8
	retq
.LBB1_6:                                # %func_PutPel_11.56
	.cfi_def_cfa %rbp, 16
	movq	%rbx, %rdi
	movl	%r13d, %esi
	movl	%r12d, %edx
	movzwl	%r15w, %ecx
	movl	%r14d, %r8d
	callq	PutPel_11.56
	addq	$8, %rsp
	popq	%rbx
	popq	%r12
	popq	%r13
	popq	%r14
	popq	%r15
	popq	%rbp
	.cfi_def_cfa %rsp, 8
	retq
.LBB1_7:                                # %func_PutPel_11.59
	.cfi_def_cfa %rbp, 16
	movq	%rbx, %rdi
	movl	%r13d, %esi
	movl	%r12d, %edx
	movzwl	%r15w, %ecx
	movl	%r14d, %r8d
	callq	PutPel_11.59
	addq	$8, %rsp
	popq	%rbx
	popq	%r12
	popq	%r13
	popq	%r14
	popq	%r15
	popq	%rbp
	.cfi_def_cfa %rsp, 8
	retq
.LBB1_8:                                # %func_PutPel_11.61
	.cfi_def_cfa %rbp, 16
	movq	%rbx, %rdi
	movl	%r13d, %esi
	movl	%r12d, %edx
	movzwl	%r15w, %ecx
	movl	%r14d, %r8d
	callq	PutPel_11.61
	addq	$8, %rsp
	popq	%rbx
	popq	%r12
	popq	%r13
	popq	%r14
	popq	%r15
	popq	%rbp
	.cfi_def_cfa %rsp, 8
	retq
.LBB1_9:                                # %func_PutPel_11.63
	.cfi_def_cfa %rbp, 16
	movq	%rbx, %rdi
	movl	%r13d, %esi
	movl	%r12d, %edx
	movzwl	%r15w, %ecx
	movl	%r14d, %r8d
	callq	PutPel_11.63
	addq	$8, %rsp
	popq	%rbx
	popq	%r12
	popq	%r13
	popq	%r14
	popq	%r15
	popq	%rbp
	.cfi_def_cfa %rsp, 8
	retq
.LBB1_10:                               # %func_PutPel_11.64
	.cfi_def_cfa %rbp, 16
	movq	%rbx, %rdi
	movl	%r13d, %esi
	movl	%r12d, %edx
	movzwl	%r15w, %ecx
	movl	%r14d, %r8d
	callq	PutPel_11.64
	addq	$8, %rsp
	popq	%rbx
	popq	%r12
	popq	%r13
	popq	%r14
	popq	%r15
	popq	%rbp
	.cfi_def_cfa %rsp, 8
	retq
.LBB1_11:                               # %func_PutPel_11.67
	.cfi_def_cfa %rbp, 16
	movq	%rbx, %rdi
	movl	%r13d, %esi
	movl	%r12d, %edx
	movzwl	%r15w, %ecx
	movl	%r14d, %r8d
	callq	PutPel_11.67
	addq	$8, %rsp
	popq	%rbx
	popq	%r12
	popq	%r13
	popq	%r14
	popq	%r15
	popq	%rbp
	.cfi_def_cfa %rsp, 8
	retq
.LBB1_12:                               # %func_PutPel_11.78
	.cfi_def_cfa %rbp, 16
	movq	%rbx, %rdi
	movl	%r13d, %esi
	movl	%r12d, %edx
	movzwl	%r15w, %ecx
	movl	%r14d, %r8d
	callq	PutPel_11.78
	addq	$8, %rsp
	popq	%rbx
	popq	%r12
	popq	%r13
	popq	%r14
	popq	%r15
	popq	%rbp
	.cfi_def_cfa %rsp, 8
	retq
.LBB1_13:                               # %func_PutPel_11.85
	.cfi_def_cfa %rbp, 16
	movq	%rbx, %rdi
	movl	%r13d, %esi
	movl	%r12d, %edx
	movzwl	%r15w, %ecx
	movl	%r14d, %r8d
	callq	PutPel_11.85
	addq	$8, %rsp
	popq	%rbx
	popq	%r12
	popq	%r13
	popq	%r14
	popq	%r15
	popq	%rbp
	.cfi_def_cfa %rsp, 8
	retq
.LBB1_14:                               # %func_PutPel_11.89
	.cfi_def_cfa %rbp, 16
	movq	%rbx, %rdi
	movl	%r13d, %esi
	movl	%r12d, %edx
	movzwl	%r15w, %ecx
	movl	%r14d, %r8d
	callq	PutPel_11.89
	addq	$8, %rsp
	popq	%rbx
	popq	%r12
	popq	%r13
	popq	%r14
	popq	%r15
	popq	%rbp
	.cfi_def_cfa %rsp, 8
	retq
.LBB1_15:                               # %func_PutPel_11.99
	.cfi_def_cfa %rbp, 16
	movq	%rbx, %rdi
	movl	%r13d, %esi
	movl	%r12d, %edx
	movzwl	%r15w, %ecx
	movl	%r14d, %r8d
	callq	PutPel_11.99
	addq	$8, %rsp
	popq	%rbx
	popq	%r12
	popq	%r13
	popq	%r14
	popq	%r15
	popq	%rbp
	.cfi_def_cfa %rsp, 8
	retq
.LBB1_16:                               # %func_PutPel_11.116
	.cfi_def_cfa %rbp, 16
	movq	%rbx, %rdi
	movl	%r13d, %esi
	movl	%r12d, %edx
	movzwl	%r15w, %ecx
	movl	%r14d, %r8d
	callq	PutPel_11.116
	addq	$8, %rsp
	popq	%rbx
	popq	%r12
	popq	%r13
	popq	%r14
	popq	%r15
	popq	%rbp
	.cfi_def_cfa %rsp, 8
	retq
.LBB1_17:                               # %ctrl0
	.cfi_def_cfa %rbp, 16
	cmpl	$1, %eax
	je	.LBB1_2
# %bb.18:                               # %ctrl1
	cmpl	$2, %eax
	je	.LBB1_3
# %bb.19:                               # %ctrl2
	cmpl	$3, %eax
	je	.LBB1_4
# %bb.20:                               # %ctrl3
	cmpl	$4, %eax
	je	.LBB1_5
# %bb.21:                               # %ctrl4
	cmpl	$5, %eax
	je	.LBB1_6
# %bb.22:                               # %ctrl5
	cmpl	$6, %eax
	je	.LBB1_7
# %bb.23:                               # %ctrl6
	cmpl	$7, %eax
	je	.LBB1_8
# %bb.24:                               # %ctrl7
	cmpl	$8, %eax
	je	.LBB1_9
# %bb.25:                               # %ctrl8
	cmpl	$9, %eax
	je	.LBB1_10
# %bb.26:                               # %ctrl9
	cmpl	$10, %eax
	je	.LBB1_11
# %bb.27:                               # %ctrl10
	cmpl	$11, %eax
	je	.LBB1_12
# %bb.28:                               # %ctrl11
	cmpl	$12, %eax
	je	.LBB1_13
# %bb.29:                               # %ctrl12
	cmpl	$13, %eax
	je	.LBB1_14
# %bb.30:                               # %ctrl13
	cmpl	$14, %eax
	je	.LBB1_15
	jmp	.LBB1_16
.Lfunc_end1:
	.size	PutPel_11, .Lfunc_end1-PutPel_11
	.cfi_endproc
                                        # -- End function
	.globl	FastLine16Y_11          # -- Begin function FastLine16Y_11
	.p2align	4, 0x90
	.type	FastLine16Y_11,@function
FastLine16Y_11:                         # @FastLine16Y_11
	.cfi_startproc
# %bb.0:                                # %rand_bb
	pushq	%rbp
	.cfi_def_cfa_offset 16
	.cfi_offset %rbp, -16
	movq	%rsp, %rbp
	.cfi_def_cfa_register %rbp
	pushq	%r15
	pushq	%r14
	pushq	%r13
	pushq	%r12
	pushq	%rbx
	pushq	%rax
	.cfi_offset %rbx, -56
	.cfi_offset %r12, -48
	.cfi_offset %r13, -40
	.cfi_offset %r14, -32
	.cfi_offset %r15, -24
	movl	%r8d, %r14d
	movl	%ecx, %r15d
	movl	%edx, %r12d
	movl	%esi, %r13d
	movq	%rdi, %rbx
	callq	get_urand
	cmpl	$0, %eax
	jne	.LBB2_17
# %bb.1:                                # %func_FastLine16Y_11.3
	movq	%rbx, %rdi
	movl	%r13d, %esi
	movl	%r12d, %edx
	movl	%r15d, %ecx
	movl	%r14d, %r8d
	callq	FastLine16Y_11.3
	addq	$8, %rsp
	popq	%rbx
	popq	%r12
	popq	%r13
	popq	%r14
	popq	%r15
	popq	%rbp
	.cfi_def_cfa %rsp, 8
	retq
.LBB2_2:                                # %func_FastLine16Y_11.13
	.cfi_def_cfa %rbp, 16
	movq	%rbx, %rdi
	movl	%r13d, %esi
	movl	%r12d, %edx
	movl	%r15d, %ecx
	movl	%r14d, %r8d
	callq	FastLine16Y_11.13
	addq	$8, %rsp
	popq	%rbx
	popq	%r12
	popq	%r13
	popq	%r14
	popq	%r15
	popq	%rbp
	.cfi_def_cfa %rsp, 8
	retq
.LBB2_3:                                # %func_FastLine16Y_11.14
	.cfi_def_cfa %rbp, 16
	movq	%rbx, %rdi
	movl	%r13d, %esi
	movl	%r12d, %edx
	movl	%r15d, %ecx
	movl	%r14d, %r8d
	callq	FastLine16Y_11.14
	addq	$8, %rsp
	popq	%rbx
	popq	%r12
	popq	%r13
	popq	%r14
	popq	%r15
	popq	%rbp
	.cfi_def_cfa %rsp, 8
	retq
.LBB2_4:                                # %func_FastLine16Y_11.41
	.cfi_def_cfa %rbp, 16
	movq	%rbx, %rdi
	movl	%r13d, %esi
	movl	%r12d, %edx
	movl	%r15d, %ecx
	movl	%r14d, %r8d
	callq	FastLine16Y_11.41
	addq	$8, %rsp
	popq	%rbx
	popq	%r12
	popq	%r13
	popq	%r14
	popq	%r15
	popq	%rbp
	.cfi_def_cfa %rsp, 8
	retq
.LBB2_5:                                # %func_FastLine16Y_11.50
	.cfi_def_cfa %rbp, 16
	movq	%rbx, %rdi
	movl	%r13d, %esi
	movl	%r12d, %edx
	movl	%r15d, %ecx
	movl	%r14d, %r8d
	callq	FastLine16Y_11.50
	addq	$8, %rsp
	popq	%rbx
	popq	%r12
	popq	%r13
	popq	%r14
	popq	%r15
	popq	%rbp
	.cfi_def_cfa %rsp, 8
	retq
.LBB2_6:                                # %func_FastLine16Y_11.68
	.cfi_def_cfa %rbp, 16
	movq	%rbx, %rdi
	movl	%r13d, %esi
	movl	%r12d, %edx
	movl	%r15d, %ecx
	movl	%r14d, %r8d
	callq	FastLine16Y_11.68
	addq	$8, %rsp
	popq	%rbx
	popq	%r12
	popq	%r13
	popq	%r14
	popq	%r15
	popq	%rbp
	.cfi_def_cfa %rsp, 8
	retq
.LBB2_7:                                # %func_FastLine16Y_11.71
	.cfi_def_cfa %rbp, 16
	movq	%rbx, %rdi
	movl	%r13d, %esi
	movl	%r12d, %edx
	movl	%r15d, %ecx
	movl	%r14d, %r8d
	callq	FastLine16Y_11.71
	addq	$8, %rsp
	popq	%rbx
	popq	%r12
	popq	%r13
	popq	%r14
	popq	%r15
	popq	%rbp
	.cfi_def_cfa %rsp, 8
	retq
.LBB2_8:                                # %func_FastLine16Y_11.92
	.cfi_def_cfa %rbp, 16
	movq	%rbx, %rdi
	movl	%r13d, %esi
	movl	%r12d, %edx
	movl	%r15d, %ecx
	movl	%r14d, %r8d
	callq	FastLine16Y_11.92
	addq	$8, %rsp
	popq	%rbx
	popq	%r12
	popq	%r13
	popq	%r14
	popq	%r15
	popq	%rbp
	.cfi_def_cfa %rsp, 8
	retq
.LBB2_9:                                # %func_FastLine16Y_11.100
	.cfi_def_cfa %rbp, 16
	movq	%rbx, %rdi
	movl	%r13d, %esi
	movl	%r12d, %edx
	movl	%r15d, %ecx
	movl	%r14d, %r8d
	callq	FastLine16Y_11.100
	addq	$8, %rsp
	popq	%rbx
	popq	%r12
	popq	%r13
	popq	%r14
	popq	%r15
	popq	%rbp
	.cfi_def_cfa %rsp, 8
	retq
.LBB2_10:                               # %func_FastLine16Y_11.104
	.cfi_def_cfa %rbp, 16
	movq	%rbx, %rdi
	movl	%r13d, %esi
	movl	%r12d, %edx
	movl	%r15d, %ecx
	movl	%r14d, %r8d
	callq	FastLine16Y_11.104
	addq	$8, %rsp
	popq	%rbx
	popq	%r12
	popq	%r13
	popq	%r14
	popq	%r15
	popq	%rbp
	.cfi_def_cfa %rsp, 8
	retq
.LBB2_11:                               # %func_FastLine16Y_11.105
	.cfi_def_cfa %rbp, 16
	movq	%rbx, %rdi
	movl	%r13d, %esi
	movl	%r12d, %edx
	movl	%r15d, %ecx
	movl	%r14d, %r8d
	callq	FastLine16Y_11.105
	addq	$8, %rsp
	popq	%rbx
	popq	%r12
	popq	%r13
	popq	%r14
	popq	%r15
	popq	%rbp
	.cfi_def_cfa %rsp, 8
	retq
.LBB2_12:                               # %func_FastLine16Y_11.112
	.cfi_def_cfa %rbp, 16
	movq	%rbx, %rdi
	movl	%r13d, %esi
	movl	%r12d, %edx
	movl	%r15d, %ecx
	movl	%r14d, %r8d
	callq	FastLine16Y_11.112
	addq	$8, %rsp
	popq	%rbx
	popq	%r12
	popq	%r13
	popq	%r14
	popq	%r15
	popq	%rbp
	.cfi_def_cfa %rsp, 8
	retq
.LBB2_13:                               # %func_FastLine16Y_11.119
	.cfi_def_cfa %rbp, 16
	movq	%rbx, %rdi
	movl	%r13d, %esi
	movl	%r12d, %edx
	movl	%r15d, %ecx
	movl	%r14d, %r8d
	callq	FastLine16Y_11.119
	addq	$8, %rsp
	popq	%rbx
	popq	%r12
	popq	%r13
	popq	%r14
	popq	%r15
	popq	%rbp
	.cfi_def_cfa %rsp, 8
	retq
.LBB2_14:                               # %func_FastLine16Y_11.121
	.cfi_def_cfa %rbp, 16
	movq	%rbx, %rdi
	movl	%r13d, %esi
	movl	%r12d, %edx
	movl	%r15d, %ecx
	movl	%r14d, %r8d
	callq	FastLine16Y_11.121
	addq	$8, %rsp
	popq	%rbx
	popq	%r12
	popq	%r13
	popq	%r14
	popq	%r15
	popq	%rbp
	.cfi_def_cfa %rsp, 8
	retq
.LBB2_15:                               # %func_FastLine16Y_11.124
	.cfi_def_cfa %rbp, 16
	movq	%rbx, %rdi
	movl	%r13d, %esi
	movl	%r12d, %edx
	movl	%r15d, %ecx
	movl	%r14d, %r8d
	callq	FastLine16Y_11.124
	addq	$8, %rsp
	popq	%rbx
	popq	%r12
	popq	%r13
	popq	%r14
	popq	%r15
	popq	%rbp
	.cfi_def_cfa %rsp, 8
	retq
.LBB2_16:                               # %func_FastLine16Y_11.126
	.cfi_def_cfa %rbp, 16
	movq	%rbx, %rdi
	movl	%r13d, %esi
	movl	%r12d, %edx
	movl	%r15d, %ecx
	movl	%r14d, %r8d
	callq	FastLine16Y_11.126
	addq	$8, %rsp
	popq	%rbx
	popq	%r12
	popq	%r13
	popq	%r14
	popq	%r15
	popq	%rbp
	.cfi_def_cfa %rsp, 8
	retq
.LBB2_17:                               # %ctrl0
	.cfi_def_cfa %rbp, 16
	cmpl	$1, %eax
	je	.LBB2_2
# %bb.18:                               # %ctrl1
	cmpl	$2, %eax
	je	.LBB2_3
# %bb.19:                               # %ctrl2
	cmpl	$3, %eax
	je	.LBB2_4
# %bb.20:                               # %ctrl3
	cmpl	$4, %eax
	je	.LBB2_5
# %bb.21:                               # %ctrl4
	cmpl	$5, %eax
	je	.LBB2_6
# %bb.22:                               # %ctrl5
	cmpl	$6, %eax
	je	.LBB2_7
# %bb.23:                               # %ctrl6
	cmpl	$7, %eax
	je	.LBB2_8
# %bb.24:                               # %ctrl7
	cmpl	$8, %eax
	je	.LBB2_9
# %bb.25:                               # %ctrl8
	cmpl	$9, %eax
	je	.LBB2_10
# %bb.26:                               # %ctrl9
	cmpl	$10, %eax
	je	.LBB2_11
# %bb.27:                               # %ctrl10
	cmpl	$11, %eax
	je	.LBB2_12
# %bb.28:                               # %ctrl11
	cmpl	$12, %eax
	je	.LBB2_13
# %bb.29:                               # %ctrl12
	cmpl	$13, %eax
	je	.LBB2_14
# %bb.30:                               # %ctrl13
	cmpl	$14, %eax
	je	.LBB2_15
	jmp	.LBB2_16
.Lfunc_end2:
	.size	FastLine16Y_11, .Lfunc_end2-FastLine16Y_11
	.cfi_endproc
                                        # -- End function
	.globl	UMVLine16Y_11           # -- Begin function UMVLine16Y_11
	.p2align	4, 0x90
	.type	UMVLine16Y_11,@function
UMVLine16Y_11:                          # @UMVLine16Y_11
	.cfi_startproc
# %bb.0:                                # %rand_bb
	pushq	%rbp
	.cfi_def_cfa_offset 16
	.cfi_offset %rbp, -16
	movq	%rsp, %rbp
	.cfi_def_cfa_register %rbp
	pushq	%r15
	pushq	%r14
	pushq	%r13
	pushq	%r12
	pushq	%rbx
	pushq	%rax
	.cfi_offset %rbx, -56
	.cfi_offset %r12, -48
	.cfi_offset %r13, -40
	.cfi_offset %r14, -32
	.cfi_offset %r15, -24
	movl	%r8d, %r14d
	movl	%ecx, %r15d
	movl	%edx, %r12d
	movl	%esi, %r13d
	movq	%rdi, %rbx
	callq	get_urand
	cmpl	$0, %eax
	jne	.LBB3_17
# %bb.1:                                # %func_UMVLine16Y_11.1
	movq	%rbx, %rdi
	movl	%r13d, %esi
	movl	%r12d, %edx
	movl	%r15d, %ecx
	movl	%r14d, %r8d
	callq	UMVLine16Y_11.1
	addq	$8, %rsp
	popq	%rbx
	popq	%r12
	popq	%r13
	popq	%r14
	popq	%r15
	popq	%rbp
	.cfi_def_cfa %rsp, 8
	retq
.LBB3_2:                                # %func_UMVLine16Y_11.2
	.cfi_def_cfa %rbp, 16
	movq	%rbx, %rdi
	movl	%r13d, %esi
	movl	%r12d, %edx
	movl	%r15d, %ecx
	movl	%r14d, %r8d
	callq	UMVLine16Y_11.2
	addq	$8, %rsp
	popq	%rbx
	popq	%r12
	popq	%r13
	popq	%r14
	popq	%r15
	popq	%rbp
	.cfi_def_cfa %rsp, 8
	retq
.LBB3_3:                                # %func_UMVLine16Y_11.4
	.cfi_def_cfa %rbp, 16
	movq	%rbx, %rdi
	movl	%r13d, %esi
	movl	%r12d, %edx
	movl	%r15d, %ecx
	movl	%r14d, %r8d
	callq	UMVLine16Y_11.4
	addq	$8, %rsp
	popq	%rbx
	popq	%r12
	popq	%r13
	popq	%r14
	popq	%r15
	popq	%rbp
	.cfi_def_cfa %rsp, 8
	retq
.LBB3_4:                                # %func_UMVLine16Y_11.9
	.cfi_def_cfa %rbp, 16
	movq	%rbx, %rdi
	movl	%r13d, %esi
	movl	%r12d, %edx
	movl	%r15d, %ecx
	movl	%r14d, %r8d
	callq	UMVLine16Y_11.9
	addq	$8, %rsp
	popq	%rbx
	popq	%r12
	popq	%r13
	popq	%r14
	popq	%r15
	popq	%rbp
	.cfi_def_cfa %rsp, 8
	retq
.LBB3_5:                                # %func_UMVLine16Y_11.20
	.cfi_def_cfa %rbp, 16
	movq	%rbx, %rdi
	movl	%r13d, %esi
	movl	%r12d, %edx
	movl	%r15d, %ecx
	movl	%r14d, %r8d
	callq	UMVLine16Y_11.20
	addq	$8, %rsp
	popq	%rbx
	popq	%r12
	popq	%r13
	popq	%r14
	popq	%r15
	popq	%rbp
	.cfi_def_cfa %rsp, 8
	retq
.LBB3_6:                                # %func_UMVLine16Y_11.32
	.cfi_def_cfa %rbp, 16
	movq	%rbx, %rdi
	movl	%r13d, %esi
	movl	%r12d, %edx
	movl	%r15d, %ecx
	movl	%r14d, %r8d
	callq	UMVLine16Y_11.32
	addq	$8, %rsp
	popq	%rbx
	popq	%r12
	popq	%r13
	popq	%r14
	popq	%r15
	popq	%rbp
	.cfi_def_cfa %rsp, 8
	retq
.LBB3_7:                                # %func_UMVLine16Y_11.34
	.cfi_def_cfa %rbp, 16
	movq	%rbx, %rdi
	movl	%r13d, %esi
	movl	%r12d, %edx
	movl	%r15d, %ecx
	movl	%r14d, %r8d
	callq	UMVLine16Y_11.34
	addq	$8, %rsp
	popq	%rbx
	popq	%r12
	popq	%r13
	popq	%r14
	popq	%r15
	popq	%rbp
	.cfi_def_cfa %rsp, 8
	retq
.LBB3_8:                                # %func_UMVLine16Y_11.51
	.cfi_def_cfa %rbp, 16
	movq	%rbx, %rdi
	movl	%r13d, %esi
	movl	%r12d, %edx
	movl	%r15d, %ecx
	movl	%r14d, %r8d
	callq	UMVLine16Y_11.51
	addq	$8, %rsp
	popq	%rbx
	popq	%r12
	popq	%r13
	popq	%r14
	popq	%r15
	popq	%rbp
	.cfi_def_cfa %rsp, 8
	retq
.LBB3_9:                                # %func_UMVLine16Y_11.62
	.cfi_def_cfa %rbp, 16
	movq	%rbx, %rdi
	movl	%r13d, %esi
	movl	%r12d, %edx
	movl	%r15d, %ecx
	movl	%r14d, %r8d
	callq	UMVLine16Y_11.62
	addq	$8, %rsp
	popq	%rbx
	popq	%r12
	popq	%r13
	popq	%r14
	popq	%r15
	popq	%rbp
	.cfi_def_cfa %rsp, 8
	retq
.LBB3_10:                               # %func_UMVLine16Y_11.75
	.cfi_def_cfa %rbp, 16
	movq	%rbx, %rdi
	movl	%r13d, %esi
	movl	%r12d, %edx
	movl	%r15d, %ecx
	movl	%r14d, %r8d
	callq	UMVLine16Y_11.75
	addq	$8, %rsp
	popq	%rbx
	popq	%r12
	popq	%r13
	popq	%r14
	popq	%r15
	popq	%rbp
	.cfi_def_cfa %rsp, 8
	retq
.LBB3_11:                               # %func_UMVLine16Y_11.81
	.cfi_def_cfa %rbp, 16
	movq	%rbx, %rdi
	movl	%r13d, %esi
	movl	%r12d, %edx
	movl	%r15d, %ecx
	movl	%r14d, %r8d
	callq	UMVLine16Y_11.81
	addq	$8, %rsp
	popq	%rbx
	popq	%r12
	popq	%r13
	popq	%r14
	popq	%r15
	popq	%rbp
	.cfi_def_cfa %rsp, 8
	retq
.LBB3_12:                               # %func_UMVLine16Y_11.84
	.cfi_def_cfa %rbp, 16
	movq	%rbx, %rdi
	movl	%r13d, %esi
	movl	%r12d, %edx
	movl	%r15d, %ecx
	movl	%r14d, %r8d
	callq	UMVLine16Y_11.84
	addq	$8, %rsp
	popq	%rbx
	popq	%r12
	popq	%r13
	popq	%r14
	popq	%r15
	popq	%rbp
	.cfi_def_cfa %rsp, 8
	retq
.LBB3_13:                               # %func_UMVLine16Y_11.95
	.cfi_def_cfa %rbp, 16
	movq	%rbx, %rdi
	movl	%r13d, %esi
	movl	%r12d, %edx
	movl	%r15d, %ecx
	movl	%r14d, %r8d
	callq	UMVLine16Y_11.95
	addq	$8, %rsp
	popq	%rbx
	popq	%r12
	popq	%r13
	popq	%r14
	popq	%r15
	popq	%rbp
	.cfi_def_cfa %rsp, 8
	retq
.LBB3_14:                               # %func_UMVLine16Y_11.102
	.cfi_def_cfa %rbp, 16
	movq	%rbx, %rdi
	movl	%r13d, %esi
	movl	%r12d, %edx
	movl	%r15d, %ecx
	movl	%r14d, %r8d
	callq	UMVLine16Y_11.102
	addq	$8, %rsp
	popq	%rbx
	popq	%r12
	popq	%r13
	popq	%r14
	popq	%r15
	popq	%rbp
	.cfi_def_cfa %rsp, 8
	retq
.LBB3_15:                               # %func_UMVLine16Y_11.106
	.cfi_def_cfa %rbp, 16
	movq	%rbx, %rdi
	movl	%r13d, %esi
	movl	%r12d, %edx
	movl	%r15d, %ecx
	movl	%r14d, %r8d
	callq	UMVLine16Y_11.106
	addq	$8, %rsp
	popq	%rbx
	popq	%r12
	popq	%r13
	popq	%r14
	popq	%r15
	popq	%rbp
	.cfi_def_cfa %rsp, 8
	retq
.LBB3_16:                               # %func_UMVLine16Y_11.111
	.cfi_def_cfa %rbp, 16
	movq	%rbx, %rdi
	movl	%r13d, %esi
	movl	%r12d, %edx
	movl	%r15d, %ecx
	movl	%r14d, %r8d
	callq	UMVLine16Y_11.111
	addq	$8, %rsp
	popq	%rbx
	popq	%r12
	popq	%r13
	popq	%r14
	popq	%r15
	popq	%rbp
	.cfi_def_cfa %rsp, 8
	retq
.LBB3_17:                               # %ctrl0
	.cfi_def_cfa %rbp, 16
	cmpl	$1, %eax
	je	.LBB3_2
# %bb.18:                               # %ctrl1
	cmpl	$2, %eax
	je	.LBB3_3
# %bb.19:                               # %ctrl2
	cmpl	$3, %eax
	je	.LBB3_4
# %bb.20:                               # %ctrl3
	cmpl	$4, %eax
	je	.LBB3_5
# %bb.21:                               # %ctrl4
	cmpl	$5, %eax
	je	.LBB3_6
# %bb.22:                               # %ctrl5
	cmpl	$6, %eax
	je	.LBB3_7
# %bb.23:                               # %ctrl6
	cmpl	$7, %eax
	je	.LBB3_8
# %bb.24:                               # %ctrl7
	cmpl	$8, %eax
	je	.LBB3_9
# %bb.25:                               # %ctrl8
	cmpl	$9, %eax
	je	.LBB3_10
# %bb.26:                               # %ctrl9
	cmpl	$10, %eax
	je	.LBB3_11
# %bb.27:                               # %ctrl10
	cmpl	$11, %eax
	je	.LBB3_12
# %bb.28:                               # %ctrl11
	cmpl	$12, %eax
	je	.LBB3_13
# %bb.29:                               # %ctrl12
	cmpl	$13, %eax
	je	.LBB3_14
# %bb.30:                               # %ctrl13
	cmpl	$14, %eax
	je	.LBB3_15
	jmp	.LBB3_16
.Lfunc_end3:
	.size	UMVLine16Y_11, .Lfunc_end3-UMVLine16Y_11
	.cfi_endproc
                                        # -- End function
	.globl	FastLineX               # -- Begin function FastLineX
	.p2align	4, 0x90
	.type	FastLineX,@function
FastLineX:                              # @FastLineX
	.cfi_startproc
# %bb.0:                                # %rand_bb
	pushq	%rbp
	.cfi_def_cfa_offset 16
	.cfi_offset %rbp, -16
	movq	%rsp, %rbp
	.cfi_def_cfa_register %rbp
	pushq	%r15
	pushq	%r14
	pushq	%r13
	pushq	%r12
	pushq	%rbx
	pushq	%rax
	.cfi_offset %rbx, -56
	.cfi_offset %r12, -48
	.cfi_offset %r13, -40
	.cfi_offset %r14, -32
	.cfi_offset %r15, -24
	movl	%r9d, -44(%rbp)         # 4-byte Spill
	movl	%r8d, %r12d
	movl	%ecx, %r13d
	movl	%edx, %ebx
	movq	%rsi, %r14
	movl	%edi, %r15d
	callq	get_urand
	cmpl	$0, %eax
	jne	.LBB4_17
# %bb.1:                                # %func_FastLineX.10
	movl	%r15d, %edi
	movq	%r14, %rsi
	movl	%ebx, %edx
	movl	%r13d, %ecx
	movl	%r12d, %r8d
	movl	-44(%rbp), %r9d         # 4-byte Reload
	callq	FastLineX.10
	addq	$8, %rsp
	popq	%rbx
	popq	%r12
	popq	%r13
	popq	%r14
	popq	%r15
	popq	%rbp
	.cfi_def_cfa %rsp, 8
	retq
.LBB4_2:                                # %func_FastLineX.19
	.cfi_def_cfa %rbp, 16
	movl	%r13d, %ecx
	movl	%r11d, %r8d
	movl	%r10d, %r9d
	callq	FastLineX.19
	addq	$8, %rsp
	popq	%rbx
	popq	%r12
	popq	%r13
	popq	%r14
	popq	%r15
	popq	%rbp
	.cfi_def_cfa %rsp, 8
	retq
.LBB4_3:                                # %func_FastLineX.24
	.cfi_def_cfa %rbp, 16
	movl	%ebx, %edi
	movq	%r14, %rsi
	movl	%r12d, %edx
	movl	%r15d, %ecx
	callq	FastLineX.24
	addq	$8, %rsp
	popq	%rbx
	popq	%r12
	popq	%r13
	popq	%r14
	popq	%r15
	popq	%rbp
	.cfi_def_cfa %rsp, 8
	retq
.LBB4_4:                                # %func_FastLineX.27
	.cfi_def_cfa %rbp, 16
	movl	%ebx, %edi
	movq	%r14, %rsi
	movl	%r12d, %edx
	movl	%r15d, %ecx
	callq	FastLineX.27
	addq	$8, %rsp
	popq	%rbx
	popq	%r12
	popq	%r13
	popq	%r14
	popq	%r15
	popq	%rbp
	.cfi_def_cfa %rsp, 8
	retq
.LBB4_5:                                # %func_FastLineX.30
	.cfi_def_cfa %rbp, 16
	movl	%ebx, %edi
	movq	%r14, %rsi
	movl	%r12d, %edx
	movl	%r15d, %ecx
	callq	FastLineX.30
	addq	$8, %rsp
	popq	%rbx
	popq	%r12
	popq	%r13
	popq	%r14
	popq	%r15
	popq	%rbp
	.cfi_def_cfa %rsp, 8
	retq
.LBB4_6:                                # %func_FastLineX.37
	.cfi_def_cfa %rbp, 16
	movl	%ebx, %edi
	movq	%r14, %rsi
	movl	%r12d, %edx
	movl	%r15d, %ecx
	callq	FastLineX.37
	addq	$8, %rsp
	popq	%rbx
	popq	%r12
	popq	%r13
	popq	%r14
	popq	%r15
	popq	%rbp
	.cfi_def_cfa %rsp, 8
	retq
.LBB4_7:                                # %func_FastLineX.44
	.cfi_def_cfa %rbp, 16
	movl	%ebx, %edi
	movq	%r14, %rsi
	movl	%r12d, %edx
	movl	%r15d, %ecx
	callq	FastLineX.44
	addq	$8, %rsp
	popq	%rbx
	popq	%r12
	popq	%r13
	popq	%r14
	popq	%r15
	popq	%rbp
	.cfi_def_cfa %rsp, 8
	retq
.LBB4_8:                                # %func_FastLineX.49
	.cfi_def_cfa %rbp, 16
	movl	%ebx, %edi
	movq	%r14, %rsi
	movl	%r12d, %edx
	movl	%r15d, %ecx
	callq	FastLineX.49
	addq	$8, %rsp
	popq	%rbx
	popq	%r12
	popq	%r13
	popq	%r14
	popq	%r15
	popq	%rbp
	.cfi_def_cfa %rsp, 8
	retq
.LBB4_9:                                # %func_FastLineX.52
	.cfi_def_cfa %rbp, 16
	movl	%ebx, %edi
	movq	%r14, %rsi
	movl	%r12d, %edx
	movl	%r15d, %ecx
	callq	FastLineX.52
	addq	$8, %rsp
	popq	%rbx
	popq	%r12
	popq	%r13
	popq	%r14
	popq	%r15
	popq	%rbp
	.cfi_def_cfa %rsp, 8
	retq
.LBB4_10:                               # %func_FastLineX.58
	.cfi_def_cfa %rbp, 16
	movl	%ebx, %edi
	movq	%r14, %rsi
	movl	%r12d, %edx
	movl	%r15d, %ecx
	callq	FastLineX.58
	addq	$8, %rsp
	popq	%rbx
	popq	%r12
	popq	%r13
	popq	%r14
	popq	%r15
	popq	%rbp
	.cfi_def_cfa %rsp, 8
	retq
.LBB4_11:                               # %func_FastLineX.69
	.cfi_def_cfa %rbp, 16
	movl	%ebx, %edi
	movq	%r14, %rsi
	movl	%r12d, %edx
	movl	%r15d, %ecx
	callq	FastLineX.69
	addq	$8, %rsp
	popq	%rbx
	popq	%r12
	popq	%r13
	popq	%r14
	popq	%r15
	popq	%rbp
	.cfi_def_cfa %rsp, 8
	retq
.LBB4_12:                               # %func_FastLineX.76
	.cfi_def_cfa %rbp, 16
	movl	%ebx, %edi
	movq	%r14, %rsi
	movl	%r12d, %edx
	movl	%r15d, %ecx
	callq	FastLineX.76
	addq	$8, %rsp
	popq	%rbx
	popq	%r12
	popq	%r13
	popq	%r14
	popq	%r15
	popq	%rbp
	.cfi_def_cfa %rsp, 8
	retq
.LBB4_13:                               # %func_FastLineX.77
	.cfi_def_cfa %rbp, 16
	movl	%ebx, %edi
	movq	%r14, %rsi
	movl	%r12d, %edx
	movl	%r15d, %ecx
	callq	FastLineX.77
	addq	$8, %rsp
	popq	%rbx
	popq	%r12
	popq	%r13
	popq	%r14
	popq	%r15
	popq	%rbp
	.cfi_def_cfa %rsp, 8
	retq
.LBB4_14:                               # %func_FastLineX.83
	.cfi_def_cfa %rbp, 16
	movl	%ebx, %edi
	movq	%r14, %rsi
	movl	%r12d, %edx
	movl	%r15d, %ecx
	callq	FastLineX.83
	addq	$8, %rsp
	popq	%rbx
	popq	%r12
	popq	%r13
	popq	%r14
	popq	%r15
	popq	%rbp
	.cfi_def_cfa %rsp, 8
	retq
.LBB4_15:                               # %func_FastLineX.87
	.cfi_def_cfa %rbp, 16
	movl	%r13d, %ecx
	movl	%r11d, %r8d
	movl	%r10d, %r9d
	callq	FastLineX.87
	addq	$8, %rsp
	popq	%rbx
	popq	%r12
	popq	%r13
	popq	%r14
	popq	%r15
	popq	%rbp
	.cfi_def_cfa %rsp, 8
	retq
.LBB4_16:                               # %func_FastLineX.98
	.cfi_def_cfa %rbp, 16
	movl	%r13d, %ecx
	movl	%r11d, %r8d
	movl	%r10d, %r9d
	callq	FastLineX.98
	addq	$8, %rsp
	popq	%rbx
	popq	%r12
	popq	%r13
	popq	%r14
	popq	%r15
	popq	%rbp
	.cfi_def_cfa %rsp, 8
	retq
.LBB4_17:                               # %ctrl0
	.cfi_def_cfa %rbp, 16
	movl	%r15d, %edi
	movq	%r14, %rsi
	movl	%ebx, %edx
	movl	%r12d, %r11d
	movl	-44(%rbp), %r10d        # 4-byte Reload
	cmpl	$1, %eax
	je	.LBB4_2
# %bb.18:                               # %ctrl1
	cmpl	$2, %eax
	movl	%r10d, %r9d
	movl	%r11d, %r8d
	movl	%r13d, %r15d
	movl	%edx, %r12d
	movq	%rsi, %r14
	movl	%edi, %ebx
	je	.LBB4_3
# %bb.19:                               # %ctrl2
	cmpl	$3, %eax
	je	.LBB4_4
# %bb.20:                               # %ctrl3
	cmpl	$4, %eax
	je	.LBB4_5
# %bb.21:                               # %ctrl4
	cmpl	$5, %eax
	je	.LBB4_6
# %bb.22:                               # %ctrl5
	cmpl	$6, %eax
	je	.LBB4_7
# %bb.23:                               # %ctrl6
	cmpl	$7, %eax
	je	.LBB4_8
# %bb.24:                               # %ctrl7
	cmpl	$8, %eax
	je	.LBB4_9
# %bb.25:                               # %ctrl8
	cmpl	$9, %eax
	je	.LBB4_10
# %bb.26:                               # %ctrl9
	cmpl	$10, %eax
	je	.LBB4_11
# %bb.27:                               # %ctrl10
	cmpl	$11, %eax
	je	.LBB4_12
# %bb.28:                               # %ctrl11
	cmpl	$12, %eax
	je	.LBB4_13
# %bb.29:                               # %ctrl12
	cmpl	$13, %eax
	je	.LBB4_14
# %bb.30:                               # %ctrl13
	cmpl	$14, %eax
	je	.LBB4_15
	jmp	.LBB4_16
.Lfunc_end4:
	.size	FastLineX, .Lfunc_end4-FastLineX
	.cfi_endproc
                                        # -- End function
	.globl	UMVLineX                # -- Begin function UMVLineX
	.p2align	4, 0x90
	.type	UMVLineX,@function
UMVLineX:                               # @UMVLineX
	.cfi_startproc
# %bb.0:                                # %rand_bb
	pushq	%rbp
	.cfi_def_cfa_offset 16
	.cfi_offset %rbp, -16
	movq	%rsp, %rbp
	.cfi_def_cfa_register %rbp
	pushq	%r15
	pushq	%r14
	pushq	%r13
	pushq	%r12
	pushq	%rbx
	pushq	%rax
	.cfi_offset %rbx, -56
	.cfi_offset %r12, -48
	.cfi_offset %r13, -40
	.cfi_offset %r14, -32
	.cfi_offset %r15, -24
	movl	%r9d, -44(%rbp)         # 4-byte Spill
	movl	%r8d, %r12d
	movl	%ecx, %r13d
	movl	%edx, %ebx
	movq	%rsi, %r14
	movl	%edi, %r15d
	callq	get_urand
	cmpl	$0, %eax
	jne	.LBB5_17
# %bb.1:                                # %func_UMVLineX.11
	movl	%r15d, %edi
	movq	%r14, %rsi
	movl	%ebx, %edx
	movl	%r13d, %ecx
	movl	%r12d, %r8d
	movl	-44(%rbp), %r9d         # 4-byte Reload
	callq	UMVLineX.11
	addq	$8, %rsp
	popq	%rbx
	popq	%r12
	popq	%r13
	popq	%r14
	popq	%r15
	popq	%rbp
	.cfi_def_cfa %rsp, 8
	retq
.LBB5_2:                                # %func_UMVLineX.12
	.cfi_def_cfa %rbp, 16
	movl	%r13d, %ecx
	movl	%r11d, %r8d
	movl	%r10d, %r9d
	callq	UMVLineX.12
	addq	$8, %rsp
	popq	%rbx
	popq	%r12
	popq	%r13
	popq	%r14
	popq	%r15
	popq	%rbp
	.cfi_def_cfa %rsp, 8
	retq
.LBB5_3:                                # %func_UMVLineX.23
	.cfi_def_cfa %rbp, 16
	movl	%ebx, %edi
	movq	%r14, %rsi
	movl	%r12d, %edx
	movl	%r15d, %ecx
	callq	UMVLineX.23
	addq	$8, %rsp
	popq	%rbx
	popq	%r12
	popq	%r13
	popq	%r14
	popq	%r15
	popq	%rbp
	.cfi_def_cfa %rsp, 8
	retq
.LBB5_4:                                # %func_UMVLineX.26
	.cfi_def_cfa %rbp, 16
	movl	%ebx, %edi
	movq	%r14, %rsi
	movl	%r12d, %edx
	movl	%r15d, %ecx
	callq	UMVLineX.26
	addq	$8, %rsp
	popq	%rbx
	popq	%r12
	popq	%r13
	popq	%r14
	popq	%r15
	popq	%rbp
	.cfi_def_cfa %rsp, 8
	retq
.LBB5_5:                                # %func_UMVLineX.38
	.cfi_def_cfa %rbp, 16
	movl	%ebx, %edi
	movq	%r14, %rsi
	movl	%r12d, %edx
	movl	%r15d, %ecx
	callq	UMVLineX.38
	addq	$8, %rsp
	popq	%rbx
	popq	%r12
	popq	%r13
	popq	%r14
	popq	%r15
	popq	%rbp
	.cfi_def_cfa %rsp, 8
	retq
.LBB5_6:                                # %func_UMVLineX.42
	.cfi_def_cfa %rbp, 16
	movl	%ebx, %edi
	movq	%r14, %rsi
	movl	%r12d, %edx
	movl	%r15d, %ecx
	callq	UMVLineX.42
	addq	$8, %rsp
	popq	%rbx
	popq	%r12
	popq	%r13
	popq	%r14
	popq	%r15
	popq	%rbp
	.cfi_def_cfa %rsp, 8
	retq
.LBB5_7:                                # %func_UMVLineX.43
	.cfi_def_cfa %rbp, 16
	movl	%ebx, %edi
	movq	%r14, %rsi
	movl	%r12d, %edx
	movl	%r15d, %ecx
	callq	UMVLineX.43
	addq	$8, %rsp
	popq	%rbx
	popq	%r12
	popq	%r13
	popq	%r14
	popq	%r15
	popq	%rbp
	.cfi_def_cfa %rsp, 8
	retq
.LBB5_8:                                # %func_UMVLineX.46
	.cfi_def_cfa %rbp, 16
	movl	%ebx, %edi
	movq	%r14, %rsi
	movl	%r12d, %edx
	movl	%r15d, %ecx
	callq	UMVLineX.46
	addq	$8, %rsp
	popq	%rbx
	popq	%r12
	popq	%r13
	popq	%r14
	popq	%r15
	popq	%rbp
	.cfi_def_cfa %rsp, 8
	retq
.LBB5_9:                                # %func_UMVLineX.73
	.cfi_def_cfa %rbp, 16
	movl	%ebx, %edi
	movq	%r14, %rsi
	movl	%r12d, %edx
	movl	%r15d, %ecx
	callq	UMVLineX.73
	addq	$8, %rsp
	popq	%rbx
	popq	%r12
	popq	%r13
	popq	%r14
	popq	%r15
	popq	%rbp
	.cfi_def_cfa %rsp, 8
	retq
.LBB5_10:                               # %func_UMVLineX.79
	.cfi_def_cfa %rbp, 16
	movl	%ebx, %edi
	movq	%r14, %rsi
	movl	%r12d, %edx
	movl	%r15d, %ecx
	callq	UMVLineX.79
	addq	$8, %rsp
	popq	%rbx
	popq	%r12
	popq	%r13
	popq	%r14
	popq	%r15
	popq	%rbp
	.cfi_def_cfa %rsp, 8
	retq
.LBB5_11:                               # %func_UMVLineX.86
	.cfi_def_cfa %rbp, 16
	movl	%ebx, %edi
	movq	%r14, %rsi
	movl	%r12d, %edx
	movl	%r15d, %ecx
	callq	UMVLineX.86
	addq	$8, %rsp
	popq	%rbx
	popq	%r12
	popq	%r13
	popq	%r14
	popq	%r15
	popq	%rbp
	.cfi_def_cfa %rsp, 8
	retq
.LBB5_12:                               # %func_UMVLineX.90
	.cfi_def_cfa %rbp, 16
	movl	%ebx, %edi
	movq	%r14, %rsi
	movl	%r12d, %edx
	movl	%r15d, %ecx
	callq	UMVLineX.90
	addq	$8, %rsp
	popq	%rbx
	popq	%r12
	popq	%r13
	popq	%r14
	popq	%r15
	popq	%rbp
	.cfi_def_cfa %rsp, 8
	retq
.LBB5_13:                               # %func_UMVLineX.91
	.cfi_def_cfa %rbp, 16
	movl	%ebx, %edi
	movq	%r14, %rsi
	movl	%r12d, %edx
	movl	%r15d, %ecx
	callq	UMVLineX.91
	addq	$8, %rsp
	popq	%rbx
	popq	%r12
	popq	%r13
	popq	%r14
	popq	%r15
	popq	%rbp
	.cfi_def_cfa %rsp, 8
	retq
.LBB5_14:                               # %func_UMVLineX.97
	.cfi_def_cfa %rbp, 16
	movl	%ebx, %edi
	movq	%r14, %rsi
	movl	%r12d, %edx
	movl	%r15d, %ecx
	callq	UMVLineX.97
	addq	$8, %rsp
	popq	%rbx
	popq	%r12
	popq	%r13
	popq	%r14
	popq	%r15
	popq	%rbp
	.cfi_def_cfa %rsp, 8
	retq
.LBB5_15:                               # %func_UMVLineX.101
	.cfi_def_cfa %rbp, 16
	movl	%r13d, %ecx
	movl	%r11d, %r8d
	movl	%r10d, %r9d
	callq	UMVLineX.101
	addq	$8, %rsp
	popq	%rbx
	popq	%r12
	popq	%r13
	popq	%r14
	popq	%r15
	popq	%rbp
	.cfi_def_cfa %rsp, 8
	retq
.LBB5_16:                               # %func_UMVLineX.115
	.cfi_def_cfa %rbp, 16
	movl	%r13d, %ecx
	movl	%r11d, %r8d
	movl	%r10d, %r9d
	callq	UMVLineX.115
	addq	$8, %rsp
	popq	%rbx
	popq	%r12
	popq	%r13
	popq	%r14
	popq	%r15
	popq	%rbp
	.cfi_def_cfa %rsp, 8
	retq
.LBB5_17:                               # %ctrl0
	.cfi_def_cfa %rbp, 16
	movl	%r15d, %edi
	movq	%r14, %rsi
	movl	%ebx, %edx
	movl	%r12d, %r11d
	movl	-44(%rbp), %r10d        # 4-byte Reload
	cmpl	$1, %eax
	je	.LBB5_2
# %bb.18:                               # %ctrl1
	cmpl	$2, %eax
	movl	%r10d, %r9d
	movl	%r11d, %r8d
	movl	%r13d, %r15d
	movl	%edx, %r12d
	movq	%rsi, %r14
	movl	%edi, %ebx
	je	.LBB5_3
# %bb.19:                               # %ctrl2
	cmpl	$3, %eax
	je	.LBB5_4
# %bb.20:                               # %ctrl3
	cmpl	$4, %eax
	je	.LBB5_5
# %bb.21:                               # %ctrl4
	cmpl	$5, %eax
	je	.LBB5_6
# %bb.22:                               # %ctrl5
	cmpl	$6, %eax
	je	.LBB5_7
# %bb.23:                               # %ctrl6
	cmpl	$7, %eax
	je	.LBB5_8
# %bb.24:                               # %ctrl7
	cmpl	$8, %eax
	je	.LBB5_9
# %bb.25:                               # %ctrl8
	cmpl	$9, %eax
	je	.LBB5_10
# %bb.26:                               # %ctrl9
	cmpl	$10, %eax
	je	.LBB5_11
# %bb.27:                               # %ctrl10
	cmpl	$11, %eax
	je	.LBB5_12
# %bb.28:                               # %ctrl11
	cmpl	$12, %eax
	je	.LBB5_13
# %bb.29:                               # %ctrl12
	cmpl	$13, %eax
	je	.LBB5_14
# %bb.30:                               # %ctrl13
	cmpl	$14, %eax
	je	.LBB5_15
	jmp	.LBB5_16
.Lfunc_end5:
	.size	UMVLineX, .Lfunc_end5-UMVLineX
	.cfi_endproc
                                        # -- End function
	.globl	UMVPelY_14              # -- Begin function UMVPelY_14
	.p2align	4, 0x90
	.type	UMVPelY_14,@function
UMVPelY_14:                             # @UMVPelY_14
	.cfi_startproc
# %bb.0:                                # %rand_bb
	pushq	%rbp
	.cfi_def_cfa_offset 16
	.cfi_offset %rbp, -16
	movq	%rsp, %rbp
	.cfi_def_cfa_register %rbp
	pushq	%r15
	pushq	%r14
	pushq	%r13
	pushq	%r12
	pushq	%rbx
	pushq	%rax
	.cfi_offset %rbx, -56
	.cfi_offset %r12, -48
	.cfi_offset %r13, -40
	.cfi_offset %r14, -32
	.cfi_offset %r15, -24
	movl	%r8d, %r14d
	movl	%ecx, %r15d
	movl	%edx, %r12d
	movl	%esi, %r13d
	movq	%rdi, %rbx
	callq	get_urand
	cmpl	$0, %eax
	jne	.LBB6_17
# %bb.1:                                # %func_UMVPelY_14.22
	movq	%rbx, %rdi
	movl	%r13d, %esi
	movl	%r12d, %edx
	movl	%r15d, %ecx
	movl	%r14d, %r8d
	callq	UMVPelY_14.22
	movzwl	%ax, %eax
	addq	$8, %rsp
	popq	%rbx
	popq	%r12
	popq	%r13
	popq	%r14
	popq	%r15
	popq	%rbp
	.cfi_def_cfa %rsp, 8
	retq
.LBB6_2:                                # %func_UMVPelY_14.35
	.cfi_def_cfa %rbp, 16
	movq	%rbx, %rdi
	movl	%r13d, %esi
	movl	%r12d, %edx
	movl	%r15d, %ecx
	movl	%r14d, %r8d
	callq	UMVPelY_14.35
	movzwl	%ax, %eax
	addq	$8, %rsp
	popq	%rbx
	popq	%r12
	popq	%r13
	popq	%r14
	popq	%r15
	popq	%rbp
	.cfi_def_cfa %rsp, 8
	retq
.LBB6_3:                                # %func_UMVPelY_14.47
	.cfi_def_cfa %rbp, 16
	movq	%rbx, %rdi
	movl	%r13d, %esi
	movl	%r12d, %edx
	movl	%r15d, %ecx
	movl	%r14d, %r8d
	callq	UMVPelY_14.47
	movzwl	%ax, %eax
	addq	$8, %rsp
	popq	%rbx
	popq	%r12
	popq	%r13
	popq	%r14
	popq	%r15
	popq	%rbp
	.cfi_def_cfa %rsp, 8
	retq
.LBB6_4:                                # %func_UMVPelY_14.57
	.cfi_def_cfa %rbp, 16
	movq	%rbx, %rdi
	movl	%r13d, %esi
	movl	%r12d, %edx
	movl	%r15d, %ecx
	movl	%r14d, %r8d
	callq	UMVPelY_14.57
	movzwl	%ax, %eax
	addq	$8, %rsp
	popq	%rbx
	popq	%r12
	popq	%r13
	popq	%r14
	popq	%r15
	popq	%rbp
	.cfi_def_cfa %rsp, 8
	retq
.LBB6_5:                                # %func_UMVPelY_14.60
	.cfi_def_cfa %rbp, 16
	movq	%rbx, %rdi
	movl	%r13d, %esi
	movl	%r12d, %edx
	movl	%r15d, %ecx
	movl	%r14d, %r8d
	callq	UMVPelY_14.60
	movzwl	%ax, %eax
	addq	$8, %rsp
	popq	%rbx
	popq	%r12
	popq	%r13
	popq	%r14
	popq	%r15
	popq	%rbp
	.cfi_def_cfa %rsp, 8
	retq
.LBB6_6:                                # %func_UMVPelY_14.65
	.cfi_def_cfa %rbp, 16
	movq	%rbx, %rdi
	movl	%r13d, %esi
	movl	%r12d, %edx
	movl	%r15d, %ecx
	movl	%r14d, %r8d
	callq	UMVPelY_14.65
	movzwl	%ax, %eax
	addq	$8, %rsp
	popq	%rbx
	popq	%r12
	popq	%r13
	popq	%r14
	popq	%r15
	popq	%rbp
	.cfi_def_cfa %rsp, 8
	retq
.LBB6_7:                                # %func_UMVPelY_14.72
	.cfi_def_cfa %rbp, 16
	movq	%rbx, %rdi
	movl	%r13d, %esi
	movl	%r12d, %edx
	movl	%r15d, %ecx
	movl	%r14d, %r8d
	callq	UMVPelY_14.72
	movzwl	%ax, %eax
	addq	$8, %rsp
	popq	%rbx
	popq	%r12
	popq	%r13
	popq	%r14
	popq	%r15
	popq	%rbp
	.cfi_def_cfa %rsp, 8
	retq
.LBB6_8:                                # %func_UMVPelY_14.94
	.cfi_def_cfa %rbp, 16
	movq	%rbx, %rdi
	movl	%r13d, %esi
	movl	%r12d, %edx
	movl	%r15d, %ecx
	movl	%r14d, %r8d
	callq	UMVPelY_14.94
	movzwl	%ax, %eax
	addq	$8, %rsp
	popq	%rbx
	popq	%r12
	popq	%r13
	popq	%r14
	popq	%r15
	popq	%rbp
	.cfi_def_cfa %rsp, 8
	retq
.LBB6_9:                                # %func_UMVPelY_14.108
	.cfi_def_cfa %rbp, 16
	movq	%rbx, %rdi
	movl	%r13d, %esi
	movl	%r12d, %edx
	movl	%r15d, %ecx
	movl	%r14d, %r8d
	callq	UMVPelY_14.108
	movzwl	%ax, %eax
	addq	$8, %rsp
	popq	%rbx
	popq	%r12
	popq	%r13
	popq	%r14
	popq	%r15
	popq	%rbp
	.cfi_def_cfa %rsp, 8
	retq
.LBB6_10:                               # %func_UMVPelY_14.109
	.cfi_def_cfa %rbp, 16
	movq	%rbx, %rdi
	movl	%r13d, %esi
	movl	%r12d, %edx
	movl	%r15d, %ecx
	movl	%r14d, %r8d
	callq	UMVPelY_14.109
	movzwl	%ax, %eax
	addq	$8, %rsp
	popq	%rbx
	popq	%r12
	popq	%r13
	popq	%r14
	popq	%r15
	popq	%rbp
	.cfi_def_cfa %rsp, 8
	retq
.LBB6_11:                               # %func_UMVPelY_14.113
	.cfi_def_cfa %rbp, 16
	movq	%rbx, %rdi
	movl	%r13d, %esi
	movl	%r12d, %edx
	movl	%r15d, %ecx
	movl	%r14d, %r8d
	callq	UMVPelY_14.113
	movzwl	%ax, %eax
	addq	$8, %rsp
	popq	%rbx
	popq	%r12
	popq	%r13
	popq	%r14
	popq	%r15
	popq	%rbp
	.cfi_def_cfa %rsp, 8
	retq
.LBB6_12:                               # %func_UMVPelY_14.114
	.cfi_def_cfa %rbp, 16
	movq	%rbx, %rdi
	movl	%r13d, %esi
	movl	%r12d, %edx
	movl	%r15d, %ecx
	movl	%r14d, %r8d
	callq	UMVPelY_14.114
	movzwl	%ax, %eax
	addq	$8, %rsp
	popq	%rbx
	popq	%r12
	popq	%r13
	popq	%r14
	popq	%r15
	popq	%rbp
	.cfi_def_cfa %rsp, 8
	retq
.LBB6_13:                               # %func_UMVPelY_14.120
	.cfi_def_cfa %rbp, 16
	movq	%rbx, %rdi
	movl	%r13d, %esi
	movl	%r12d, %edx
	movl	%r15d, %ecx
	movl	%r14d, %r8d
	callq	UMVPelY_14.120
	movzwl	%ax, %eax
	addq	$8, %rsp
	popq	%rbx
	popq	%r12
	popq	%r13
	popq	%r14
	popq	%r15
	popq	%rbp
	.cfi_def_cfa %rsp, 8
	retq
.LBB6_14:                               # %func_UMVPelY_14.122
	.cfi_def_cfa %rbp, 16
	movq	%rbx, %rdi
	movl	%r13d, %esi
	movl	%r12d, %edx
	movl	%r15d, %ecx
	movl	%r14d, %r8d
	callq	UMVPelY_14.122
	movzwl	%ax, %eax
	addq	$8, %rsp
	popq	%rbx
	popq	%r12
	popq	%r13
	popq	%r14
	popq	%r15
	popq	%rbp
	.cfi_def_cfa %rsp, 8
	retq
.LBB6_15:                               # %func_UMVPelY_14.123
	.cfi_def_cfa %rbp, 16
	movq	%rbx, %rdi
	movl	%r13d, %esi
	movl	%r12d, %edx
	movl	%r15d, %ecx
	movl	%r14d, %r8d
	callq	UMVPelY_14.123
	movzwl	%ax, %eax
	addq	$8, %rsp
	popq	%rbx
	popq	%r12
	popq	%r13
	popq	%r14
	popq	%r15
	popq	%rbp
	.cfi_def_cfa %rsp, 8
	retq
.LBB6_16:                               # %func_UMVPelY_14.125
	.cfi_def_cfa %rbp, 16
	movq	%rbx, %rdi
	movl	%r13d, %esi
	movl	%r12d, %edx
	movl	%r15d, %ecx
	movl	%r14d, %r8d
	callq	UMVPelY_14.125
	movzwl	%ax, %eax
	addq	$8, %rsp
	popq	%rbx
	popq	%r12
	popq	%r13
	popq	%r14
	popq	%r15
	popq	%rbp
	.cfi_def_cfa %rsp, 8
	retq
.LBB6_17:                               # %ctrl0
	.cfi_def_cfa %rbp, 16
	cmpl	$1, %eax
	je	.LBB6_2
# %bb.18:                               # %ctrl1
	cmpl	$2, %eax
	je	.LBB6_3
# %bb.19:                               # %ctrl2
	cmpl	$3, %eax
	je	.LBB6_4
# %bb.20:                               # %ctrl3
	cmpl	$4, %eax
	je	.LBB6_5
# %bb.21:                               # %ctrl4
	cmpl	$5, %eax
	je	.LBB6_6
# %bb.22:                               # %ctrl5
	cmpl	$6, %eax
	je	.LBB6_7
# %bb.23:                               # %ctrl6
	cmpl	$7, %eax
	je	.LBB6_8
# %bb.24:                               # %ctrl7
	cmpl	$8, %eax
	je	.LBB6_9
# %bb.25:                               # %ctrl8
	cmpl	$9, %eax
	je	.LBB6_10
# %bb.26:                               # %ctrl9
	cmpl	$10, %eax
	je	.LBB6_11
# %bb.27:                               # %ctrl10
	cmpl	$11, %eax
	je	.LBB6_12
# %bb.28:                               # %ctrl11
	cmpl	$12, %eax
	je	.LBB6_13
# %bb.29:                               # %ctrl12
	cmpl	$13, %eax
	je	.LBB6_14
# %bb.30:                               # %ctrl13
	cmpl	$14, %eax
	je	.LBB6_15
	jmp	.LBB6_16
.Lfunc_end6:
	.size	UMVPelY_14, .Lfunc_end6-UMVPelY_14
	.cfi_endproc
                                        # -- End function
	.globl	FastPelY_14             # -- Begin function FastPelY_14
	.p2align	4, 0x90
	.type	FastPelY_14,@function
FastPelY_14:                            # @FastPelY_14
	.cfi_startproc
# %bb.0:                                # %rand_bb
	pushq	%rbp
	.cfi_def_cfa_offset 16
	.cfi_offset %rbp, -16
	movq	%rsp, %rbp
	.cfi_def_cfa_register %rbp
	pushq	%r15
	pushq	%r14
	pushq	%r13
	pushq	%r12
	pushq	%rbx
	pushq	%rax
	.cfi_offset %rbx, -56
	.cfi_offset %r12, -48
	.cfi_offset %r13, -40
	.cfi_offset %r14, -32
	.cfi_offset %r15, -24
	movl	%r8d, %r14d
	movl	%ecx, %r15d
	movl	%edx, %r12d
	movl	%esi, %r13d
	movq	%rdi, %rbx
	callq	get_urand
	cmpl	$0, %eax
	jne	.LBB7_17
# %bb.1:                                # %func_FastPelY_14.7
	movq	%rbx, %rdi
	movl	%r13d, %esi
	movl	%r12d, %edx
	movl	%r15d, %ecx
	movl	%r14d, %r8d
	callq	FastPelY_14.7
	movzwl	%ax, %eax
	addq	$8, %rsp
	popq	%rbx
	popq	%r12
	popq	%r13
	popq	%r14
	popq	%r15
	popq	%rbp
	.cfi_def_cfa %rsp, 8
	retq
.LBB7_2:                                # %func_FastPelY_14.8
	.cfi_def_cfa %rbp, 16
	movq	%rbx, %rdi
	movl	%r13d, %esi
	movl	%r12d, %edx
	movl	%r15d, %ecx
	movl	%r14d, %r8d
	callq	FastPelY_14.8
	movzwl	%ax, %eax
	addq	$8, %rsp
	popq	%rbx
	popq	%r12
	popq	%r13
	popq	%r14
	popq	%r15
	popq	%rbp
	.cfi_def_cfa %rsp, 8
	retq
.LBB7_3:                                # %func_FastPelY_14.18
	.cfi_def_cfa %rbp, 16
	movq	%rbx, %rdi
	movl	%r13d, %esi
	movl	%r12d, %edx
	movl	%r15d, %ecx
	movl	%r14d, %r8d
	callq	FastPelY_14.18
	movzwl	%ax, %eax
	addq	$8, %rsp
	popq	%rbx
	popq	%r12
	popq	%r13
	popq	%r14
	popq	%r15
	popq	%rbp
	.cfi_def_cfa %rsp, 8
	retq
.LBB7_4:                                # %func_FastPelY_14.39
	.cfi_def_cfa %rbp, 16
	movq	%rbx, %rdi
	movl	%r13d, %esi
	movl	%r12d, %edx
	movl	%r15d, %ecx
	movl	%r14d, %r8d
	callq	FastPelY_14.39
	movzwl	%ax, %eax
	addq	$8, %rsp
	popq	%rbx
	popq	%r12
	popq	%r13
	popq	%r14
	popq	%r15
	popq	%rbp
	.cfi_def_cfa %rsp, 8
	retq
.LBB7_5:                                # %func_FastPelY_14.40
	.cfi_def_cfa %rbp, 16
	movq	%rbx, %rdi
	movl	%r13d, %esi
	movl	%r12d, %edx
	movl	%r15d, %ecx
	movl	%r14d, %r8d
	callq	FastPelY_14.40
	movzwl	%ax, %eax
	addq	$8, %rsp
	popq	%rbx
	popq	%r12
	popq	%r13
	popq	%r14
	popq	%r15
	popq	%rbp
	.cfi_def_cfa %rsp, 8
	retq
.LBB7_6:                                # %func_FastPelY_14.45
	.cfi_def_cfa %rbp, 16
	movq	%rbx, %rdi
	movl	%r13d, %esi
	movl	%r12d, %edx
	movl	%r15d, %ecx
	movl	%r14d, %r8d
	callq	FastPelY_14.45
	movzwl	%ax, %eax
	addq	$8, %rsp
	popq	%rbx
	popq	%r12
	popq	%r13
	popq	%r14
	popq	%r15
	popq	%rbp
	.cfi_def_cfa %rsp, 8
	retq
.LBB7_7:                                # %func_FastPelY_14.66
	.cfi_def_cfa %rbp, 16
	movq	%rbx, %rdi
	movl	%r13d, %esi
	movl	%r12d, %edx
	movl	%r15d, %ecx
	movl	%r14d, %r8d
	callq	FastPelY_14.66
	movzwl	%ax, %eax
	addq	$8, %rsp
	popq	%rbx
	popq	%r12
	popq	%r13
	popq	%r14
	popq	%r15
	popq	%rbp
	.cfi_def_cfa %rsp, 8
	retq
.LBB7_8:                                # %func_FastPelY_14.74
	.cfi_def_cfa %rbp, 16
	movq	%rbx, %rdi
	movl	%r13d, %esi
	movl	%r12d, %edx
	movl	%r15d, %ecx
	movl	%r14d, %r8d
	callq	FastPelY_14.74
	movzwl	%ax, %eax
	addq	$8, %rsp
	popq	%rbx
	popq	%r12
	popq	%r13
	popq	%r14
	popq	%r15
	popq	%rbp
	.cfi_def_cfa %rsp, 8
	retq
.LBB7_9:                                # %func_FastPelY_14.88
	.cfi_def_cfa %rbp, 16
	movq	%rbx, %rdi
	movl	%r13d, %esi
	movl	%r12d, %edx
	movl	%r15d, %ecx
	movl	%r14d, %r8d
	callq	FastPelY_14.88
	movzwl	%ax, %eax
	addq	$8, %rsp
	popq	%rbx
	popq	%r12
	popq	%r13
	popq	%r14
	popq	%r15
	popq	%rbp
	.cfi_def_cfa %rsp, 8
	retq
.LBB7_10:                               # %func_FastPelY_14.96
	.cfi_def_cfa %rbp, 16
	movq	%rbx, %rdi
	movl	%r13d, %esi
	movl	%r12d, %edx
	movl	%r15d, %ecx
	movl	%r14d, %r8d
	callq	FastPelY_14.96
	movzwl	%ax, %eax
	addq	$8, %rsp
	popq	%rbx
	popq	%r12
	popq	%r13
	popq	%r14
	popq	%r15
	popq	%rbp
	.cfi_def_cfa %rsp, 8
	retq
.LBB7_11:                               # %func_FastPelY_14.107
	.cfi_def_cfa %rbp, 16
	movq	%rbx, %rdi
	movl	%r13d, %esi
	movl	%r12d, %edx
	movl	%r15d, %ecx
	movl	%r14d, %r8d
	callq	FastPelY_14.107
	movzwl	%ax, %eax
	addq	$8, %rsp
	popq	%rbx
	popq	%r12
	popq	%r13
	popq	%r14
	popq	%r15
	popq	%rbp
	.cfi_def_cfa %rsp, 8
	retq
.LBB7_12:                               # %func_FastPelY_14.110
	.cfi_def_cfa %rbp, 16
	movq	%rbx, %rdi
	movl	%r13d, %esi
	movl	%r12d, %edx
	movl	%r15d, %ecx
	movl	%r14d, %r8d
	callq	FastPelY_14.110
	movzwl	%ax, %eax
	addq	$8, %rsp
	popq	%rbx
	popq	%r12
	popq	%r13
	popq	%r14
	popq	%r15
	popq	%rbp
	.cfi_def_cfa %rsp, 8
	retq
.LBB7_13:                               # %func_FastPelY_14.117
	.cfi_def_cfa %rbp, 16
	movq	%rbx, %rdi
	movl	%r13d, %esi
	movl	%r12d, %edx
	movl	%r15d, %ecx
	movl	%r14d, %r8d
	callq	FastPelY_14.117
	movzwl	%ax, %eax
	addq	$8, %rsp
	popq	%rbx
	popq	%r12
	popq	%r13
	popq	%r14
	popq	%r15
	popq	%rbp
	.cfi_def_cfa %rsp, 8
	retq
.LBB7_14:                               # %func_FastPelY_14.118
	.cfi_def_cfa %rbp, 16
	movq	%rbx, %rdi
	movl	%r13d, %esi
	movl	%r12d, %edx
	movl	%r15d, %ecx
	movl	%r14d, %r8d
	callq	FastPelY_14.118
	movzwl	%ax, %eax
	addq	$8, %rsp
	popq	%rbx
	popq	%r12
	popq	%r13
	popq	%r14
	popq	%r15
	popq	%rbp
	.cfi_def_cfa %rsp, 8
	retq
.LBB7_15:                               # %func_FastPelY_14.127
	.cfi_def_cfa %rbp, 16
	movq	%rbx, %rdi
	movl	%r13d, %esi
	movl	%r12d, %edx
	movl	%r15d, %ecx
	movl	%r14d, %r8d
	callq	FastPelY_14.127
	movzwl	%ax, %eax
	addq	$8, %rsp
	popq	%rbx
	popq	%r12
	popq	%r13
	popq	%r14
	popq	%r15
	popq	%rbp
	.cfi_def_cfa %rsp, 8
	retq
.LBB7_16:                               # %func_FastPelY_14.128
	.cfi_def_cfa %rbp, 16
	movq	%rbx, %rdi
	movl	%r13d, %esi
	movl	%r12d, %edx
	movl	%r15d, %ecx
	movl	%r14d, %r8d
	callq	FastPelY_14.128
	movzwl	%ax, %eax
	addq	$8, %rsp
	popq	%rbx
	popq	%r12
	popq	%r13
	popq	%r14
	popq	%r15
	popq	%rbp
	.cfi_def_cfa %rsp, 8
	retq
.LBB7_17:                               # %ctrl0
	.cfi_def_cfa %rbp, 16
	cmpl	$1, %eax
	je	.LBB7_2
# %bb.18:                               # %ctrl1
	cmpl	$2, %eax
	je	.LBB7_3
# %bb.19:                               # %ctrl2
	cmpl	$3, %eax
	je	.LBB7_4
# %bb.20:                               # %ctrl3
	cmpl	$4, %eax
	je	.LBB7_5
# %bb.21:                               # %ctrl4
	cmpl	$5, %eax
	je	.LBB7_6
# %bb.22:                               # %ctrl5
	cmpl	$6, %eax
	je	.LBB7_7
# %bb.23:                               # %ctrl6
	cmpl	$7, %eax
	je	.LBB7_8
# %bb.24:                               # %ctrl7
	cmpl	$8, %eax
	je	.LBB7_9
# %bb.25:                               # %ctrl8
	cmpl	$9, %eax
	je	.LBB7_10
# %bb.26:                               # %ctrl9
	cmpl	$10, %eax
	je	.LBB7_11
# %bb.27:                               # %ctrl10
	cmpl	$11, %eax
	je	.LBB7_12
# %bb.28:                               # %ctrl11
	cmpl	$12, %eax
	je	.LBB7_13
# %bb.29:                               # %ctrl12
	cmpl	$13, %eax
	je	.LBB7_14
# %bb.30:                               # %ctrl13
	cmpl	$14, %eax
	je	.LBB7_15
	jmp	.LBB7_16
.Lfunc_end7:
	.size	FastPelY_14, .Lfunc_end7-FastPelY_14
	.cfi_endproc
                                        # -- End function
	.globl	UMVLine16Y_11.1         # -- Begin function UMVLine16Y_11.1
	.p2align	4, 0x90
	.type	UMVLine16Y_11.1,@function
UMVLine16Y_11.1:                        # @UMVLine16Y_11.1
	.cfi_startproc
# %bb.0:                                # %entry
	pushq	%rbp
	.cfi_def_cfa_offset 16
	.cfi_offset %rbp, -16
	movq	%rsp, %rbp
	.cfi_def_cfa_register %rbp
	pushq	%rbx
	subq	$56, %rsp
	.cfi_offset %rbx, -24
	movl	$733215144, -44(%rbp)   # imm = 0x2BB3F9A8
	movq	%rdi, -64(%rbp)
	movl	%esi, -32(%rbp)
	movl	%edx, -16(%rbp)
	movl	%ecx, -28(%rbp)
	movl	%r8d, -24(%rbp)
	movq	-64(%rbp), %rax
	movl	-28(%rbp), %ecx
	subl	$1, %ecx
	cmpl	-32(%rbp), %ecx
	jge	.LBB8_2
# %bb.1:                                # %cond.true
	movl	-28(%rbp), %ecx
	subl	$1, %ecx
	jmp	.LBB8_3
.LBB8_2:                                # %cond.false
	movl	-32(%rbp), %ecx
.LBB8_3:                                # %cond.end
	xorl	%edx, %edx
	cmpl	%ecx, %edx
	jle	.LBB8_5
# %bb.4:                                # %cond.true3
	xorl	%ecx, %ecx
	jmp	.LBB8_9
.LBB8_5:                                # %cond.false4
	movl	-28(%rbp), %ecx
	subl	$1, %ecx
	cmpl	-32(%rbp), %ecx
	jge	.LBB8_7
# %bb.6:                                # %cond.true7
	movl	-28(%rbp), %ecx
	subl	$1, %ecx
	jmp	.LBB8_8
.LBB8_7:                                # %cond.false9
	movl	-32(%rbp), %ecx
.LBB8_8:                                # %cond.end10
.LBB8_9:                                # %cond.end12
	imull	-24(%rbp), %ecx
	movslq	%ecx, %rcx
	shlq	$1, %rcx
	addq	%rcx, %rax
	movq	%rax, -40(%rbp)
	cmpl	$0, -16(%rbp)
	jge	.LBB8_22
# %bb.10:                               # %if.then
	xorl	%eax, %eax
	movl	-16(%rbp), %ecx
	addl	$16, %ecx
	cmpl	%ecx, %eax
	jge	.LBB8_12
# %bb.11:                               # %cond.true16
	xorl	%eax, %eax
	jmp	.LBB8_13
.LBB8_12:                               # %cond.false17
	movl	-16(%rbp), %eax
	addl	$16, %eax
.LBB8_13:                               # %cond.end19
	movl	%eax, -20(%rbp)
	movl	-16(%rbp), %eax
	movl	%eax, -12(%rbp)
.LBB8_14:                               # %for.cond
                                        # =>This Inner Loop Header: Depth=1
	movl	-12(%rbp), %eax
	cmpl	-20(%rbp), %eax
	jge	.LBB8_17
# %bb.15:                               # %for.body
                                        #   in Loop: Header=BB8_14 Depth=1
	movq	-40(%rbp), %rax
	movw	(%rax), %ax
	movl	-12(%rbp), %ecx
	subl	-16(%rbp), %ecx
	movslq	%ecx, %rcx
	movw	%ax, line(,%rcx,2)
# %bb.16:                               # %for.inc
                                        #   in Loop: Header=BB8_14 Depth=1
	movl	-12(%rbp), %eax
	addl	$1, %eax
	movl	%eax, -12(%rbp)
	jmp	.LBB8_14
.LBB8_17:                               # %for.end
	movl	-16(%rbp), %eax
	addl	$16, %eax
	movl	%eax, -20(%rbp)
	movl	$0, -12(%rbp)
.LBB8_18:                               # %for.cond27
                                        # =>This Inner Loop Header: Depth=1
	movl	-12(%rbp), %eax
	cmpl	-20(%rbp), %eax
	jge	.LBB8_21
# %bb.19:                               # %for.body29
                                        #   in Loop: Header=BB8_18 Depth=1
	movq	-40(%rbp), %rax
	movslq	-12(%rbp), %rcx
	movw	(%rax,%rcx,2), %ax
	movl	-12(%rbp), %ecx
	subl	-16(%rbp), %ecx
	movslq	%ecx, %rcx
	movw	%ax, line(,%rcx,2)
# %bb.20:                               # %for.inc35
                                        #   in Loop: Header=BB8_18 Depth=1
	movl	-12(%rbp), %eax
	addl	$1, %eax
	movl	%eax, -12(%rbp)
	jmp	.LBB8_18
.LBB8_21:                               # %for.end37
	jmp	.LBB8_37
.LBB8_22:                               # %if.else
	movl	-16(%rbp), %eax
	movl	-24(%rbp), %ecx
	subl	$16, %ecx
	cmpl	%ecx, %eax
	jle	.LBB8_35
# %bb.23:                               # %if.then40
	movl	-24(%rbp), %eax
	movl	%eax, -20(%rbp)
	movl	-16(%rbp), %eax
	movl	%eax, -12(%rbp)
.LBB8_24:                               # %for.cond41
                                        # =>This Inner Loop Header: Depth=1
	movl	-12(%rbp), %eax
	cmpl	-20(%rbp), %eax
	jge	.LBB8_27
# %bb.25:                               # %for.body43
                                        #   in Loop: Header=BB8_24 Depth=1
	movq	-40(%rbp), %rax
	movslq	-12(%rbp), %rcx
	movw	(%rax,%rcx,2), %ax
	movl	-12(%rbp), %ecx
	subl	-16(%rbp), %ecx
	movslq	%ecx, %rcx
	movw	%ax, line(,%rcx,2)
# %bb.26:                               # %for.inc49
                                        #   in Loop: Header=BB8_24 Depth=1
	movl	-12(%rbp), %eax
	addl	$1, %eax
	movl	%eax, -12(%rbp)
	jmp	.LBB8_24
.LBB8_27:                               # %for.end51
	movl	-16(%rbp), %eax
	addl	$16, %eax
	movl	%eax, -20(%rbp)
	movl	-24(%rbp), %eax
	cmpl	-16(%rbp), %eax
	jle	.LBB8_29
# %bb.28:                               # %cond.true54
	movl	-24(%rbp), %eax
	jmp	.LBB8_30
.LBB8_29:                               # %cond.false55
	movl	-16(%rbp), %eax
.LBB8_30:                               # %cond.end56
	movl	%eax, -12(%rbp)
.LBB8_31:                               # %for.cond58
                                        # =>This Inner Loop Header: Depth=1
	movl	-12(%rbp), %eax
	cmpl	-20(%rbp), %eax
	jge	.LBB8_34
# %bb.32:                               # %for.body60
                                        #   in Loop: Header=BB8_31 Depth=1
	movq	-40(%rbp), %rax
	movl	-24(%rbp), %ecx
	subl	$1, %ecx
	movslq	%ecx, %rcx
	movw	(%rax,%rcx,2), %ax
	movl	-12(%rbp), %ecx
	subl	-16(%rbp), %ecx
	movslq	%ecx, %rcx
	movw	%ax, line(,%rcx,2)
# %bb.33:                               # %for.inc67
                                        #   in Loop: Header=BB8_31 Depth=1
	movl	-12(%rbp), %eax
	addl	$1, %eax
	movl	%eax, -12(%rbp)
	jmp	.LBB8_31
.LBB8_34:                               # %for.end69
	jmp	.LBB8_36
.LBB8_35:                               # %if.else70
	movq	-40(%rbp), %rax
	movslq	-16(%rbp), %rcx
	shlq	$1, %rcx
	addq	%rcx, %rax
	movq	%rax, -56(%rbp)
	jmp	.LBB8_38
.LBB8_36:                               # %if.end
	jmp	.LBB8_37
.LBB8_37:                               # %if.end73
	movabsq	$line, %rax
	movq	%rax, -56(%rbp)
.LBB8_38:                               # %return
	movq	-56(%rbp), %rbx
	cmpl	$733215144, -44(%rbp)   # imm = 0x2BB3F9A8
	jne	.LBB8_40
.LBB8_39:
	movq	%rbx, %rax
	addq	$56, %rsp
	popq	%rbx
	popq	%rbp
	.cfi_def_cfa %rsp, 8
	retq
.LBB8_40:                               # %func_exit
	.cfi_def_cfa %rbp, 16
	callq	detect_breach
	jmp	.LBB8_39
.Lfunc_end8:
	.size	UMVLine16Y_11.1, .Lfunc_end8-UMVLine16Y_11.1
	.cfi_endproc
                                        # -- End function
	.globl	UMVLine16Y_11.2         # -- Begin function UMVLine16Y_11.2
	.p2align	4, 0x90
	.type	UMVLine16Y_11.2,@function
UMVLine16Y_11.2:                        # @UMVLine16Y_11.2
	.cfi_startproc
# %bb.0:                                # %entry
	pushq	%rbp
	.cfi_def_cfa_offset 16
	.cfi_offset %rbp, -16
	movq	%rsp, %rbp
	.cfi_def_cfa_register %rbp
	pushq	%rbx
	subq	$56, %rsp
	.cfi_offset %rbx, -24
	movl	$1552536238, -44(%rbp)  # imm = 0x5C89D2AE
	movq	%rdi, -64(%rbp)
	movl	%esi, -28(%rbp)
	movl	%edx, -16(%rbp)
	movl	%ecx, -32(%rbp)
	movl	%r8d, -24(%rbp)
	movq	-64(%rbp), %rax
	movl	-32(%rbp), %ecx
	subl	$1, %ecx
	cmpl	-28(%rbp), %ecx
	jge	.LBB9_2
# %bb.1:                                # %cond.true
	movl	-32(%rbp), %ecx
	subl	$1, %ecx
	jmp	.LBB9_3
.LBB9_2:                                # %cond.false
	movl	-28(%rbp), %ecx
.LBB9_3:                                # %cond.end
	xorl	%edx, %edx
	cmpl	%ecx, %edx
	jle	.LBB9_5
# %bb.4:                                # %cond.true3
	xorl	%ecx, %ecx
	jmp	.LBB9_9
.LBB9_5:                                # %cond.false4
	movl	-32(%rbp), %ecx
	subl	$1, %ecx
	cmpl	-28(%rbp), %ecx
	jge	.LBB9_7
# %bb.6:                                # %cond.true7
	movl	-32(%rbp), %ecx
	subl	$1, %ecx
	jmp	.LBB9_8
.LBB9_7:                                # %cond.false9
	movl	-28(%rbp), %ecx
.LBB9_8:                                # %cond.end10
.LBB9_9:                                # %cond.end12
	imull	-24(%rbp), %ecx
	movslq	%ecx, %rcx
	shlq	$1, %rcx
	addq	%rcx, %rax
	movq	%rax, -40(%rbp)
	cmpl	$0, -16(%rbp)
	jge	.LBB9_22
# %bb.10:                               # %if.then
	xorl	%eax, %eax
	movl	-16(%rbp), %ecx
	addl	$16, %ecx
	cmpl	%ecx, %eax
	jge	.LBB9_12
# %bb.11:                               # %cond.true16
	xorl	%eax, %eax
	jmp	.LBB9_13
.LBB9_12:                               # %cond.false17
	movl	-16(%rbp), %eax
	addl	$16, %eax
.LBB9_13:                               # %cond.end19
	movl	%eax, -20(%rbp)
	movl	-16(%rbp), %eax
	movl	%eax, -12(%rbp)
.LBB9_14:                               # %for.cond
                                        # =>This Inner Loop Header: Depth=1
	movl	-12(%rbp), %eax
	cmpl	-20(%rbp), %eax
	jge	.LBB9_17
# %bb.15:                               # %for.body
                                        #   in Loop: Header=BB9_14 Depth=1
	movq	-40(%rbp), %rax
	movw	(%rax), %ax
	movl	-12(%rbp), %ecx
	subl	-16(%rbp), %ecx
	movslq	%ecx, %rcx
	movw	%ax, line(,%rcx,2)
# %bb.16:                               # %for.inc
                                        #   in Loop: Header=BB9_14 Depth=1
	movl	-12(%rbp), %eax
	addl	$1, %eax
	movl	%eax, -12(%rbp)
	jmp	.LBB9_14
.LBB9_17:                               # %for.end
	movl	-16(%rbp), %eax
	addl	$16, %eax
	movl	%eax, -20(%rbp)
	movl	$0, -12(%rbp)
.LBB9_18:                               # %for.cond27
                                        # =>This Inner Loop Header: Depth=1
	movl	-12(%rbp), %eax
	cmpl	-20(%rbp), %eax
	jge	.LBB9_21
# %bb.19:                               # %for.body29
                                        #   in Loop: Header=BB9_18 Depth=1
	movq	-40(%rbp), %rax
	movslq	-12(%rbp), %rcx
	movw	(%rax,%rcx,2), %ax
	movl	-12(%rbp), %ecx
	subl	-16(%rbp), %ecx
	movslq	%ecx, %rcx
	movw	%ax, line(,%rcx,2)
# %bb.20:                               # %for.inc35
                                        #   in Loop: Header=BB9_18 Depth=1
	movl	-12(%rbp), %eax
	addl	$1, %eax
	movl	%eax, -12(%rbp)
	jmp	.LBB9_18
.LBB9_21:                               # %for.end37
	jmp	.LBB9_37
.LBB9_22:                               # %if.else
	movl	-16(%rbp), %eax
	movl	-24(%rbp), %ecx
	subl	$16, %ecx
	cmpl	%ecx, %eax
	jle	.LBB9_35
# %bb.23:                               # %if.then40
	movl	-24(%rbp), %eax
	movl	%eax, -20(%rbp)
	movl	-16(%rbp), %eax
	movl	%eax, -12(%rbp)
.LBB9_24:                               # %for.cond41
                                        # =>This Inner Loop Header: Depth=1
	movl	-12(%rbp), %eax
	cmpl	-20(%rbp), %eax
	jge	.LBB9_27
# %bb.25:                               # %for.body43
                                        #   in Loop: Header=BB9_24 Depth=1
	movq	-40(%rbp), %rax
	movslq	-12(%rbp), %rcx
	movw	(%rax,%rcx,2), %ax
	movl	-12(%rbp), %ecx
	subl	-16(%rbp), %ecx
	movslq	%ecx, %rcx
	movw	%ax, line(,%rcx,2)
# %bb.26:                               # %for.inc49
                                        #   in Loop: Header=BB9_24 Depth=1
	movl	-12(%rbp), %eax
	addl	$1, %eax
	movl	%eax, -12(%rbp)
	jmp	.LBB9_24
.LBB9_27:                               # %for.end51
	movl	-16(%rbp), %eax
	addl	$16, %eax
	movl	%eax, -20(%rbp)
	movl	-24(%rbp), %eax
	cmpl	-16(%rbp), %eax
	jle	.LBB9_29
# %bb.28:                               # %cond.true54
	movl	-24(%rbp), %eax
	jmp	.LBB9_30
.LBB9_29:                               # %cond.false55
	movl	-16(%rbp), %eax
.LBB9_30:                               # %cond.end56
	movl	%eax, -12(%rbp)
.LBB9_31:                               # %for.cond58
                                        # =>This Inner Loop Header: Depth=1
	movl	-12(%rbp), %eax
	cmpl	-20(%rbp), %eax
	jge	.LBB9_34
# %bb.32:                               # %for.body60
                                        #   in Loop: Header=BB9_31 Depth=1
	movq	-40(%rbp), %rax
	movl	-24(%rbp), %ecx
	subl	$1, %ecx
	movslq	%ecx, %rcx
	movw	(%rax,%rcx,2), %ax
	movl	-12(%rbp), %ecx
	subl	-16(%rbp), %ecx
	movslq	%ecx, %rcx
	movw	%ax, line(,%rcx,2)
# %bb.33:                               # %for.inc67
                                        #   in Loop: Header=BB9_31 Depth=1
	movl	-12(%rbp), %eax
	addl	$1, %eax
	movl	%eax, -12(%rbp)
	jmp	.LBB9_31
.LBB9_34:                               # %for.end69
	jmp	.LBB9_36
.LBB9_35:                               # %if.else70
	movq	-40(%rbp), %rax
	movslq	-16(%rbp), %rcx
	shlq	$1, %rcx
	addq	%rcx, %rax
	movq	%rax, -56(%rbp)
	jmp	.LBB9_38
.LBB9_36:                               # %if.end
	jmp	.LBB9_37
.LBB9_37:                               # %if.end73
	movabsq	$line, %rax
	movq	%rax, -56(%rbp)
.LBB9_38:                               # %return
	movq	-56(%rbp), %rbx
	cmpl	$1552536238, -44(%rbp)  # imm = 0x5C89D2AE
	jne	.LBB9_40
.LBB9_39:
	movq	%rbx, %rax
	addq	$56, %rsp
	popq	%rbx
	popq	%rbp
	.cfi_def_cfa %rsp, 8
	retq
.LBB9_40:                               # %func_exit
	.cfi_def_cfa %rbp, 16
	callq	detect_breach
	jmp	.LBB9_39
.Lfunc_end9:
	.size	UMVLine16Y_11.2, .Lfunc_end9-UMVLine16Y_11.2
	.cfi_endproc
                                        # -- End function
	.globl	FastLine16Y_11.3        # -- Begin function FastLine16Y_11.3
	.p2align	4, 0x90
	.type	FastLine16Y_11.3,@function
FastLine16Y_11.3:                       # @FastLine16Y_11.3
	.cfi_startproc
# %bb.0:                                # %entry
	pushq	%rbp
	.cfi_def_cfa_offset 16
	.cfi_offset %rbp, -16
	movq	%rsp, %rbp
	.cfi_def_cfa_register %rbp
	pushq	%rbx
	subq	$40, %rsp
	.cfi_offset %rbx, -24
	movl	$182501579, -24(%rbp)   # imm = 0xAE0C0CB
	movq	%rdi, -32(%rbp)
	movl	%esi, -20(%rbp)
	movl	%edx, -16(%rbp)
	movl	%ecx, -36(%rbp)
	movl	%r8d, -12(%rbp)
	movq	-32(%rbp), %rbx
	movl	-20(%rbp), %eax
	imull	-12(%rbp), %eax
	addl	-16(%rbp), %eax
	cltq
	shlq	$1, %rax
	addq	%rax, %rbx
	cmpl	$182501579, -24(%rbp)   # imm = 0xAE0C0CB
	jne	.LBB10_2
.LBB10_1:
	movq	%rbx, %rax
	addq	$40, %rsp
	popq	%rbx
	popq	%rbp
	.cfi_def_cfa %rsp, 8
	retq
.LBB10_2:                               # %func_exit
	.cfi_def_cfa %rbp, 16
	callq	detect_breach
	jmp	.LBB10_1
.Lfunc_end10:
	.size	FastLine16Y_11.3, .Lfunc_end10-FastLine16Y_11.3
	.cfi_endproc
                                        # -- End function
	.globl	UMVLine16Y_11.4         # -- Begin function UMVLine16Y_11.4
	.p2align	4, 0x90
	.type	UMVLine16Y_11.4,@function
UMVLine16Y_11.4:                        # @UMVLine16Y_11.4
	.cfi_startproc
# %bb.0:                                # %entry
	pushq	%rbp
	.cfi_def_cfa_offset 16
	.cfi_offset %rbp, -16
	movq	%rsp, %rbp
	.cfi_def_cfa_register %rbp
	pushq	%rbx
	subq	$56, %rsp
	.cfi_offset %rbx, -24
	movl	$1726415057, -44(%rbp)  # imm = 0x66E700D1
	movq	%rdi, -64(%rbp)
	movl	%esi, -32(%rbp)
	movl	%edx, -16(%rbp)
	movl	%ecx, -28(%rbp)
	movl	%r8d, -24(%rbp)
	movq	-64(%rbp), %rax
	movl	-28(%rbp), %ecx
	subl	$1, %ecx
	cmpl	-32(%rbp), %ecx
	jge	.LBB11_2
# %bb.1:                                # %cond.true
	movl	-28(%rbp), %ecx
	subl	$1, %ecx
	jmp	.LBB11_3
.LBB11_2:                               # %cond.false
	movl	-32(%rbp), %ecx
.LBB11_3:                               # %cond.end
	xorl	%edx, %edx
	cmpl	%ecx, %edx
	jle	.LBB11_5
# %bb.4:                                # %cond.true3
	xorl	%ecx, %ecx
	jmp	.LBB11_9
.LBB11_5:                               # %cond.false4
	movl	-28(%rbp), %ecx
	subl	$1, %ecx
	cmpl	-32(%rbp), %ecx
	jge	.LBB11_7
# %bb.6:                                # %cond.true7
	movl	-28(%rbp), %ecx
	subl	$1, %ecx
	jmp	.LBB11_8
.LBB11_7:                               # %cond.false9
	movl	-32(%rbp), %ecx
.LBB11_8:                               # %cond.end10
.LBB11_9:                               # %cond.end12
	imull	-24(%rbp), %ecx
	movslq	%ecx, %rcx
	shlq	$1, %rcx
	addq	%rcx, %rax
	movq	%rax, -40(%rbp)
	cmpl	$0, -16(%rbp)
	jge	.LBB11_22
# %bb.10:                               # %if.then
	xorl	%eax, %eax
	movl	-16(%rbp), %ecx
	addl	$16, %ecx
	cmpl	%ecx, %eax
	jge	.LBB11_12
# %bb.11:                               # %cond.true16
	xorl	%eax, %eax
	jmp	.LBB11_13
.LBB11_12:                              # %cond.false17
	movl	-16(%rbp), %eax
	addl	$16, %eax
.LBB11_13:                              # %cond.end19
	movl	%eax, -20(%rbp)
	movl	-16(%rbp), %eax
	movl	%eax, -12(%rbp)
.LBB11_14:                              # %for.cond
                                        # =>This Inner Loop Header: Depth=1
	movl	-12(%rbp), %eax
	cmpl	-20(%rbp), %eax
	jge	.LBB11_17
# %bb.15:                               # %for.body
                                        #   in Loop: Header=BB11_14 Depth=1
	movq	-40(%rbp), %rax
	movw	(%rax), %ax
	movl	-12(%rbp), %ecx
	subl	-16(%rbp), %ecx
	movslq	%ecx, %rcx
	movw	%ax, line(,%rcx,2)
# %bb.16:                               # %for.inc
                                        #   in Loop: Header=BB11_14 Depth=1
	movl	-12(%rbp), %eax
	addl	$1, %eax
	movl	%eax, -12(%rbp)
	jmp	.LBB11_14
.LBB11_17:                              # %for.end
	movl	-16(%rbp), %eax
	addl	$16, %eax
	movl	%eax, -20(%rbp)
	movl	$0, -12(%rbp)
.LBB11_18:                              # %for.cond27
                                        # =>This Inner Loop Header: Depth=1
	movl	-12(%rbp), %eax
	cmpl	-20(%rbp), %eax
	jge	.LBB11_21
# %bb.19:                               # %for.body29
                                        #   in Loop: Header=BB11_18 Depth=1
	movq	-40(%rbp), %rax
	movslq	-12(%rbp), %rcx
	movw	(%rax,%rcx,2), %ax
	movl	-12(%rbp), %ecx
	subl	-16(%rbp), %ecx
	movslq	%ecx, %rcx
	movw	%ax, line(,%rcx,2)
# %bb.20:                               # %for.inc35
                                        #   in Loop: Header=BB11_18 Depth=1
	movl	-12(%rbp), %eax
	addl	$1, %eax
	movl	%eax, -12(%rbp)
	jmp	.LBB11_18
.LBB11_21:                              # %for.end37
	jmp	.LBB11_37
.LBB11_22:                              # %if.else
	movl	-16(%rbp), %eax
	movl	-24(%rbp), %ecx
	subl	$16, %ecx
	cmpl	%ecx, %eax
	jle	.LBB11_35
# %bb.23:                               # %if.then40
	movl	-24(%rbp), %eax
	movl	%eax, -20(%rbp)
	movl	-16(%rbp), %eax
	movl	%eax, -12(%rbp)
.LBB11_24:                              # %for.cond41
                                        # =>This Inner Loop Header: Depth=1
	movl	-12(%rbp), %eax
	cmpl	-20(%rbp), %eax
	jge	.LBB11_27
# %bb.25:                               # %for.body43
                                        #   in Loop: Header=BB11_24 Depth=1
	movq	-40(%rbp), %rax
	movslq	-12(%rbp), %rcx
	movw	(%rax,%rcx,2), %ax
	movl	-12(%rbp), %ecx
	subl	-16(%rbp), %ecx
	movslq	%ecx, %rcx
	movw	%ax, line(,%rcx,2)
# %bb.26:                               # %for.inc49
                                        #   in Loop: Header=BB11_24 Depth=1
	movl	-12(%rbp), %eax
	addl	$1, %eax
	movl	%eax, -12(%rbp)
	jmp	.LBB11_24
.LBB11_27:                              # %for.end51
	movl	-16(%rbp), %eax
	addl	$16, %eax
	movl	%eax, -20(%rbp)
	movl	-24(%rbp), %eax
	cmpl	-16(%rbp), %eax
	jle	.LBB11_29
# %bb.28:                               # %cond.true54
	movl	-24(%rbp), %eax
	jmp	.LBB11_30
.LBB11_29:                              # %cond.false55
	movl	-16(%rbp), %eax
.LBB11_30:                              # %cond.end56
	movl	%eax, -12(%rbp)
.LBB11_31:                              # %for.cond58
                                        # =>This Inner Loop Header: Depth=1
	movl	-12(%rbp), %eax
	cmpl	-20(%rbp), %eax
	jge	.LBB11_34
# %bb.32:                               # %for.body60
                                        #   in Loop: Header=BB11_31 Depth=1
	movq	-40(%rbp), %rax
	movl	-24(%rbp), %ecx
	subl	$1, %ecx
	movslq	%ecx, %rcx
	movw	(%rax,%rcx,2), %ax
	movl	-12(%rbp), %ecx
	subl	-16(%rbp), %ecx
	movslq	%ecx, %rcx
	movw	%ax, line(,%rcx,2)
# %bb.33:                               # %for.inc67
                                        #   in Loop: Header=BB11_31 Depth=1
	movl	-12(%rbp), %eax
	addl	$1, %eax
	movl	%eax, -12(%rbp)
	jmp	.LBB11_31
.LBB11_34:                              # %for.end69
	jmp	.LBB11_36
.LBB11_35:                              # %if.else70
	movq	-40(%rbp), %rax
	movslq	-16(%rbp), %rcx
	shlq	$1, %rcx
	addq	%rcx, %rax
	movq	%rax, -56(%rbp)
	jmp	.LBB11_38
.LBB11_36:                              # %if.end
	jmp	.LBB11_37
.LBB11_37:                              # %if.end73
	movabsq	$line, %rax
	movq	%rax, -56(%rbp)
.LBB11_38:                              # %return
	movq	-56(%rbp), %rbx
	cmpl	$1726415057, -44(%rbp)  # imm = 0x66E700D1
	jne	.LBB11_40
.LBB11_39:
	movq	%rbx, %rax
	addq	$56, %rsp
	popq	%rbx
	popq	%rbp
	.cfi_def_cfa %rsp, 8
	retq
.LBB11_40:                              # %func_exit
	.cfi_def_cfa %rbp, 16
	callq	detect_breach
	jmp	.LBB11_39
.Lfunc_end11:
	.size	UMVLine16Y_11.4, .Lfunc_end11-UMVLine16Y_11.4
	.cfi_endproc
                                        # -- End function
	.globl	PutPel_14.5             # -- Begin function PutPel_14.5
	.p2align	4, 0x90
	.type	PutPel_14.5,@function
PutPel_14.5:                            # @PutPel_14.5
	.cfi_startproc
# %bb.0:                                # %entry
	pushq	%rbp
	.cfi_def_cfa_offset 16
	.cfi_offset %rbp, -16
	movq	%rsp, %rbp
	.cfi_def_cfa_register %rbp
	subq	$32, %rsp
	movl	$360940953, -8(%rbp)    # imm = 0x15838599
	movq	%rdi, -24(%rbp)
	movl	%esi, -12(%rbp)
	movl	%edx, -16(%rbp)
	movw	%cx, -2(%rbp)
	movw	-2(%rbp), %ax
	movq	-24(%rbp), %rcx
	movl	-12(%rbp), %edx
	addl	$16, %edx
	movslq	%edx, %rdx
	movq	(%rcx,%rdx,8), %rcx
	movl	-16(%rbp), %edx
	addl	$16, %edx
	movslq	%edx, %rdx
	movw	%ax, (%rcx,%rdx,2)
	cmpl	$360940953, -8(%rbp)    # imm = 0x15838599
	jne	.LBB12_2
.LBB12_1:
	addq	$32, %rsp
	popq	%rbp
	.cfi_def_cfa %rsp, 8
	retq
.LBB12_2:                               # %func_exit
	.cfi_def_cfa %rbp, 16
	callq	detect_breach
	jmp	.LBB12_1
.Lfunc_end12:
	.size	PutPel_14.5, .Lfunc_end12-PutPel_14.5
	.cfi_endproc
                                        # -- End function
	.globl	PutPel_14.6             # -- Begin function PutPel_14.6
	.p2align	4, 0x90
	.type	PutPel_14.6,@function
PutPel_14.6:                            # @PutPel_14.6
	.cfi_startproc
# %bb.0:                                # %entry
	pushq	%rbp
	.cfi_def_cfa_offset 16
	.cfi_offset %rbp, -16
	movq	%rsp, %rbp
	.cfi_def_cfa_register %rbp
	subq	$32, %rsp
	movl	$639015289, -16(%rbp)   # imm = 0x26169979
	movq	%rdi, -24(%rbp)
	movl	%esi, -12(%rbp)
	movl	%edx, -8(%rbp)
	movw	%cx, -2(%rbp)
	movw	-2(%rbp), %ax
	movq	-24(%rbp), %rcx
	movl	-12(%rbp), %edx
	addl	$16, %edx
	movslq	%edx, %rdx
	movq	(%rcx,%rdx,8), %rcx
	movl	-8(%rbp), %edx
	addl	$16, %edx
	movslq	%edx, %rdx
	movw	%ax, (%rcx,%rdx,2)
	cmpl	$639015289, -16(%rbp)   # imm = 0x26169979
	jne	.LBB13_2
.LBB13_1:
	addq	$32, %rsp
	popq	%rbp
	.cfi_def_cfa %rsp, 8
	retq
.LBB13_2:                               # %func_exit
	.cfi_def_cfa %rbp, 16
	callq	detect_breach
	jmp	.LBB13_1
.Lfunc_end13:
	.size	PutPel_14.6, .Lfunc_end13-PutPel_14.6
	.cfi_endproc
                                        # -- End function
	.globl	FastPelY_14.7           # -- Begin function FastPelY_14.7
	.p2align	4, 0x90
	.type	FastPelY_14.7,@function
FastPelY_14.7:                          # @FastPelY_14.7
	.cfi_startproc
# %bb.0:                                # %entry
	pushq	%rbp
	.cfi_def_cfa_offset 16
	.cfi_offset %rbp, -16
	movq	%rsp, %rbp
	.cfi_def_cfa_register %rbp
	pushq	%rbx
	subq	$40, %rsp
	.cfi_offset %rbx, -24
	movl	$1789800742, -20(%rbp)  # imm = 0x6AAE3126
	movq	%rdi, -32(%rbp)
	movl	%esi, -16(%rbp)
	movl	%edx, -12(%rbp)
	movl	%ecx, -36(%rbp)
	movl	%r8d, -40(%rbp)
	movq	-32(%rbp), %rax
	movl	-16(%rbp), %ecx
	addl	$16, %ecx
	movslq	%ecx, %rcx
	movq	(%rax,%rcx,8), %rax
	movl	-12(%rbp), %ecx
	addl	$16, %ecx
	movslq	%ecx, %rcx
	movw	(%rax,%rcx,2), %bx
	cmpl	$1789800742, -20(%rbp)  # imm = 0x6AAE3126
	jne	.LBB14_2
.LBB14_1:
	movzwl	%bx, %eax
	addq	$40, %rsp
	popq	%rbx
	popq	%rbp
	.cfi_def_cfa %rsp, 8
	retq
.LBB14_2:                               # %func_exit
	.cfi_def_cfa %rbp, 16
	callq	detect_breach
	jmp	.LBB14_1
.Lfunc_end14:
	.size	FastPelY_14.7, .Lfunc_end14-FastPelY_14.7
	.cfi_endproc
                                        # -- End function
	.globl	FastPelY_14.8           # -- Begin function FastPelY_14.8
	.p2align	4, 0x90
	.type	FastPelY_14.8,@function
FastPelY_14.8:                          # @FastPelY_14.8
	.cfi_startproc
# %bb.0:                                # %entry
	pushq	%rbp
	.cfi_def_cfa_offset 16
	.cfi_offset %rbp, -16
	movq	%rsp, %rbp
	.cfi_def_cfa_register %rbp
	pushq	%rbx
	subq	$40, %rsp
	.cfi_offset %rbx, -24
	movl	$1322926437, -12(%rbp)  # imm = 0x4EDA4165
	movq	%rdi, -32(%rbp)
	movl	%esi, -20(%rbp)
	movl	%edx, -16(%rbp)
	movl	%ecx, -40(%rbp)
	movl	%r8d, -36(%rbp)
	movq	-32(%rbp), %rax
	movl	-20(%rbp), %ecx
	addl	$16, %ecx
	movslq	%ecx, %rcx
	movq	(%rax,%rcx,8), %rax
	movl	-16(%rbp), %ecx
	addl	$16, %ecx
	movslq	%ecx, %rcx
	movw	(%rax,%rcx,2), %bx
	cmpl	$1322926437, -12(%rbp)  # imm = 0x4EDA4165
	jne	.LBB15_2
.LBB15_1:
	movzwl	%bx, %eax
	addq	$40, %rsp
	popq	%rbx
	popq	%rbp
	.cfi_def_cfa %rsp, 8
	retq
.LBB15_2:                               # %func_exit
	.cfi_def_cfa %rbp, 16
	callq	detect_breach
	jmp	.LBB15_1
.Lfunc_end15:
	.size	FastPelY_14.8, .Lfunc_end15-FastPelY_14.8
	.cfi_endproc
                                        # -- End function
	.globl	UMVLine16Y_11.9         # -- Begin function UMVLine16Y_11.9
	.p2align	4, 0x90
	.type	UMVLine16Y_11.9,@function
UMVLine16Y_11.9:                        # @UMVLine16Y_11.9
	.cfi_startproc
# %bb.0:                                # %entry
	pushq	%rbp
	.cfi_def_cfa_offset 16
	.cfi_offset %rbp, -16
	movq	%rsp, %rbp
	.cfi_def_cfa_register %rbp
	pushq	%rbx
	subq	$56, %rsp
	.cfi_offset %rbx, -24
	movl	$1951645983, -44(%rbp)  # imm = 0x7453C11F
	movq	%rdi, -64(%rbp)
	movl	%esi, -32(%rbp)
	movl	%edx, -16(%rbp)
	movl	%ecx, -28(%rbp)
	movl	%r8d, -24(%rbp)
	movq	-64(%rbp), %rax
	movl	-28(%rbp), %ecx
	subl	$1, %ecx
	cmpl	-32(%rbp), %ecx
	jge	.LBB16_2
# %bb.1:                                # %cond.true
	movl	-28(%rbp), %ecx
	subl	$1, %ecx
	jmp	.LBB16_3
.LBB16_2:                               # %cond.false
	movl	-32(%rbp), %ecx
.LBB16_3:                               # %cond.end
	xorl	%edx, %edx
	cmpl	%ecx, %edx
	jle	.LBB16_5
# %bb.4:                                # %cond.true3
	xorl	%ecx, %ecx
	jmp	.LBB16_9
.LBB16_5:                               # %cond.false4
	movl	-28(%rbp), %ecx
	subl	$1, %ecx
	cmpl	-32(%rbp), %ecx
	jge	.LBB16_7
# %bb.6:                                # %cond.true7
	movl	-28(%rbp), %ecx
	subl	$1, %ecx
	jmp	.LBB16_8
.LBB16_7:                               # %cond.false9
	movl	-32(%rbp), %ecx
.LBB16_8:                               # %cond.end10
.LBB16_9:                               # %cond.end12
	imull	-24(%rbp), %ecx
	movslq	%ecx, %rcx
	shlq	$1, %rcx
	addq	%rcx, %rax
	movq	%rax, -40(%rbp)
	cmpl	$0, -16(%rbp)
	jge	.LBB16_22
# %bb.10:                               # %if.then
	xorl	%eax, %eax
	movl	-16(%rbp), %ecx
	addl	$16, %ecx
	cmpl	%ecx, %eax
	jge	.LBB16_12
# %bb.11:                               # %cond.true16
	xorl	%eax, %eax
	jmp	.LBB16_13
.LBB16_12:                              # %cond.false17
	movl	-16(%rbp), %eax
	addl	$16, %eax
.LBB16_13:                              # %cond.end19
	movl	%eax, -20(%rbp)
	movl	-16(%rbp), %eax
	movl	%eax, -12(%rbp)
.LBB16_14:                              # %for.cond
                                        # =>This Inner Loop Header: Depth=1
	movl	-12(%rbp), %eax
	cmpl	-20(%rbp), %eax
	jge	.LBB16_17
# %bb.15:                               # %for.body
                                        #   in Loop: Header=BB16_14 Depth=1
	movq	-40(%rbp), %rax
	movw	(%rax), %ax
	movl	-12(%rbp), %ecx
	subl	-16(%rbp), %ecx
	movslq	%ecx, %rcx
	movw	%ax, line(,%rcx,2)
# %bb.16:                               # %for.inc
                                        #   in Loop: Header=BB16_14 Depth=1
	movl	-12(%rbp), %eax
	addl	$1, %eax
	movl	%eax, -12(%rbp)
	jmp	.LBB16_14
.LBB16_17:                              # %for.end
	movl	-16(%rbp), %eax
	addl	$16, %eax
	movl	%eax, -20(%rbp)
	movl	$0, -12(%rbp)
.LBB16_18:                              # %for.cond27
                                        # =>This Inner Loop Header: Depth=1
	movl	-12(%rbp), %eax
	cmpl	-20(%rbp), %eax
	jge	.LBB16_21
# %bb.19:                               # %for.body29
                                        #   in Loop: Header=BB16_18 Depth=1
	movq	-40(%rbp), %rax
	movslq	-12(%rbp), %rcx
	movw	(%rax,%rcx,2), %ax
	movl	-12(%rbp), %ecx
	subl	-16(%rbp), %ecx
	movslq	%ecx, %rcx
	movw	%ax, line(,%rcx,2)
# %bb.20:                               # %for.inc35
                                        #   in Loop: Header=BB16_18 Depth=1
	movl	-12(%rbp), %eax
	addl	$1, %eax
	movl	%eax, -12(%rbp)
	jmp	.LBB16_18
.LBB16_21:                              # %for.end37
	jmp	.LBB16_37
.LBB16_22:                              # %if.else
	movl	-16(%rbp), %eax
	movl	-24(%rbp), %ecx
	subl	$16, %ecx
	cmpl	%ecx, %eax
	jle	.LBB16_35
# %bb.23:                               # %if.then40
	movl	-24(%rbp), %eax
	movl	%eax, -20(%rbp)
	movl	-16(%rbp), %eax
	movl	%eax, -12(%rbp)
.LBB16_24:                              # %for.cond41
                                        # =>This Inner Loop Header: Depth=1
	movl	-12(%rbp), %eax
	cmpl	-20(%rbp), %eax
	jge	.LBB16_27
# %bb.25:                               # %for.body43
                                        #   in Loop: Header=BB16_24 Depth=1
	movq	-40(%rbp), %rax
	movslq	-12(%rbp), %rcx
	movw	(%rax,%rcx,2), %ax
	movl	-12(%rbp), %ecx
	subl	-16(%rbp), %ecx
	movslq	%ecx, %rcx
	movw	%ax, line(,%rcx,2)
# %bb.26:                               # %for.inc49
                                        #   in Loop: Header=BB16_24 Depth=1
	movl	-12(%rbp), %eax
	addl	$1, %eax
	movl	%eax, -12(%rbp)
	jmp	.LBB16_24
.LBB16_27:                              # %for.end51
	movl	-16(%rbp), %eax
	addl	$16, %eax
	movl	%eax, -20(%rbp)
	movl	-24(%rbp), %eax
	cmpl	-16(%rbp), %eax
	jle	.LBB16_29
# %bb.28:                               # %cond.true54
	movl	-24(%rbp), %eax
	jmp	.LBB16_30
.LBB16_29:                              # %cond.false55
	movl	-16(%rbp), %eax
.LBB16_30:                              # %cond.end56
	movl	%eax, -12(%rbp)
.LBB16_31:                              # %for.cond58
                                        # =>This Inner Loop Header: Depth=1
	movl	-12(%rbp), %eax
	cmpl	-20(%rbp), %eax
	jge	.LBB16_34
# %bb.32:                               # %for.body60
                                        #   in Loop: Header=BB16_31 Depth=1
	movq	-40(%rbp), %rax
	movl	-24(%rbp), %ecx
	subl	$1, %ecx
	movslq	%ecx, %rcx
	movw	(%rax,%rcx,2), %ax
	movl	-12(%rbp), %ecx
	subl	-16(%rbp), %ecx
	movslq	%ecx, %rcx
	movw	%ax, line(,%rcx,2)
# %bb.33:                               # %for.inc67
                                        #   in Loop: Header=BB16_31 Depth=1
	movl	-12(%rbp), %eax
	addl	$1, %eax
	movl	%eax, -12(%rbp)
	jmp	.LBB16_31
.LBB16_34:                              # %for.end69
	jmp	.LBB16_36
.LBB16_35:                              # %if.else70
	movq	-40(%rbp), %rax
	movslq	-16(%rbp), %rcx
	shlq	$1, %rcx
	addq	%rcx, %rax
	movq	%rax, -56(%rbp)
	jmp	.LBB16_38
.LBB16_36:                              # %if.end
	jmp	.LBB16_37
.LBB16_37:                              # %if.end73
	movabsq	$line, %rax
	movq	%rax, -56(%rbp)
.LBB16_38:                              # %return
	movq	-56(%rbp), %rbx
	cmpl	$1951645983, -44(%rbp)  # imm = 0x7453C11F
	jne	.LBB16_40
.LBB16_39:
	movq	%rbx, %rax
	addq	$56, %rsp
	popq	%rbx
	popq	%rbp
	.cfi_def_cfa %rsp, 8
	retq
.LBB16_40:                              # %func_exit
	.cfi_def_cfa %rbp, 16
	callq	detect_breach
	jmp	.LBB16_39
.Lfunc_end16:
	.size	UMVLine16Y_11.9, .Lfunc_end16-UMVLine16Y_11.9
	.cfi_endproc
                                        # -- End function
	.globl	FastLineX.10            # -- Begin function FastLineX.10
	.p2align	4, 0x90
	.type	FastLineX.10,@function
FastLineX.10:                           # @FastLineX.10
	.cfi_startproc
# %bb.0:                                # %entry
	pushq	%rbp
	.cfi_def_cfa_offset 16
	.cfi_offset %rbp, -16
	movq	%rsp, %rbp
	.cfi_def_cfa_register %rbp
	pushq	%rbx
	subq	$40, %rsp
	.cfi_offset %rbx, -24
	movl	$744066822, -12(%rbp)   # imm = 0x2C598F06
	movl	%edi, -36(%rbp)
	movq	%rsi, -32(%rbp)
	movl	%edx, -24(%rbp)
	movl	%ecx, -20(%rbp)
	movl	%r8d, -40(%rbp)
	movl	%r9d, -16(%rbp)
	movq	-32(%rbp), %rbx
	movl	-24(%rbp), %eax
	imull	-16(%rbp), %eax
	cltq
	shlq	$1, %rax
	addq	%rax, %rbx
	movslq	-20(%rbp), %rax
	shlq	$1, %rax
	addq	%rax, %rbx
	cmpl	$744066822, -12(%rbp)   # imm = 0x2C598F06
	jne	.LBB17_2
.LBB17_1:
	movq	%rbx, %rax
	addq	$40, %rsp
	popq	%rbx
	popq	%rbp
	.cfi_def_cfa %rsp, 8
	retq
.LBB17_2:                               # %func_exit
	.cfi_def_cfa %rbp, 16
	callq	detect_breach
	jmp	.LBB17_1
.Lfunc_end17:
	.size	FastLineX.10, .Lfunc_end17-FastLineX.10
	.cfi_endproc
                                        # -- End function
	.globl	UMVLineX.11             # -- Begin function UMVLineX.11
	.p2align	4, 0x90
	.type	UMVLineX.11,@function
UMVLineX.11:                            # @UMVLineX.11
	.cfi_startproc
# %bb.0:                                # %entry
	pushq	%rbp
	.cfi_def_cfa_offset 16
	.cfi_offset %rbp, -16
	movq	%rsp, %rbp
	.cfi_def_cfa_register %rbp
	pushq	%rbx
	subq	$72, %rsp
	.cfi_offset %rbx, -24
	movl	$1517065195, -52(%rbp)  # imm = 0x5A6C93EB
	movl	%edi, -28(%rbp)
	movq	%rsi, -72(%rbp)
	movl	%edx, -32(%rbp)
	movl	%ecx, -16(%rbp)
	movl	%r8d, -36(%rbp)
	movl	%r9d, -24(%rbp)
	movq	-72(%rbp), %rax
	movl	-36(%rbp), %ecx
	subl	$1, %ecx
	cmpl	-32(%rbp), %ecx
	jge	.LBB18_2
# %bb.1:                                # %cond.true
	movl	-36(%rbp), %ecx
	subl	$1, %ecx
	jmp	.LBB18_3
.LBB18_2:                               # %cond.false
	movl	-32(%rbp), %ecx
.LBB18_3:                               # %cond.end
	xorl	%edx, %edx
	cmpl	%ecx, %edx
	jle	.LBB18_5
# %bb.4:                                # %cond.true3
	xorl	%ecx, %ecx
	jmp	.LBB18_9
.LBB18_5:                               # %cond.false4
	movl	-36(%rbp), %ecx
	subl	$1, %ecx
	cmpl	-32(%rbp), %ecx
	jge	.LBB18_7
# %bb.6:                                # %cond.true7
	movl	-36(%rbp), %ecx
	subl	$1, %ecx
	jmp	.LBB18_8
.LBB18_7:                               # %cond.false9
	movl	-32(%rbp), %ecx
.LBB18_8:                               # %cond.end10
.LBB18_9:                               # %cond.end12
	imull	-24(%rbp), %ecx
	movslq	%ecx, %rcx
	shlq	$1, %rcx
	addq	%rcx, %rax
	movq	%rax, -48(%rbp)
	cmpl	$0, -16(%rbp)
	jge	.LBB18_22
# %bb.10:                               # %if.then
	xorl	%eax, %eax
	movl	-16(%rbp), %ecx
	addl	-28(%rbp), %ecx
	cmpl	%ecx, %eax
	jge	.LBB18_12
# %bb.11:                               # %cond.true16
	xorl	%eax, %eax
	jmp	.LBB18_13
.LBB18_12:                              # %cond.false17
	movl	-16(%rbp), %eax
	addl	-28(%rbp), %eax
.LBB18_13:                              # %cond.end19
	movl	%eax, -20(%rbp)
	movl	-16(%rbp), %eax
	movl	%eax, -12(%rbp)
.LBB18_14:                              # %for.cond
                                        # =>This Inner Loop Header: Depth=1
	movl	-12(%rbp), %eax
	cmpl	-20(%rbp), %eax
	jge	.LBB18_17
# %bb.15:                               # %for.body
                                        #   in Loop: Header=BB18_14 Depth=1
	movq	-48(%rbp), %rax
	movw	(%rax), %ax
	movl	-12(%rbp), %ecx
	subl	-16(%rbp), %ecx
	movslq	%ecx, %rcx
	movw	%ax, line(,%rcx,2)
# %bb.16:                               # %for.inc
                                        #   in Loop: Header=BB18_14 Depth=1
	movl	-12(%rbp), %eax
	addl	$1, %eax
	movl	%eax, -12(%rbp)
	jmp	.LBB18_14
.LBB18_17:                              # %for.end
	movl	-16(%rbp), %eax
	addl	-28(%rbp), %eax
	movl	%eax, -20(%rbp)
	movl	$0, -12(%rbp)
.LBB18_18:                              # %for.cond25
                                        # =>This Inner Loop Header: Depth=1
	movl	-12(%rbp), %eax
	cmpl	-20(%rbp), %eax
	jge	.LBB18_21
# %bb.19:                               # %for.body27
                                        #   in Loop: Header=BB18_18 Depth=1
	movq	-48(%rbp), %rax
	movslq	-12(%rbp), %rcx
	movw	(%rax,%rcx,2), %ax
	movl	-12(%rbp), %ecx
	subl	-16(%rbp), %ecx
	movslq	%ecx, %rcx
	movw	%ax, line(,%rcx,2)
# %bb.20:                               # %for.inc33
                                        #   in Loop: Header=BB18_18 Depth=1
	movl	-12(%rbp), %eax
	addl	$1, %eax
	movl	%eax, -12(%rbp)
	jmp	.LBB18_18
.LBB18_21:                              # %for.end35
	jmp	.LBB18_37
.LBB18_22:                              # %if.else
	movl	-16(%rbp), %eax
	movl	-24(%rbp), %ecx
	subl	-28(%rbp), %ecx
	cmpl	%ecx, %eax
	jle	.LBB18_35
# %bb.23:                               # %if.then38
	movl	-24(%rbp), %eax
	movl	%eax, -20(%rbp)
	movl	-16(%rbp), %eax
	movl	%eax, -12(%rbp)
.LBB18_24:                              # %for.cond39
                                        # =>This Inner Loop Header: Depth=1
	movl	-12(%rbp), %eax
	cmpl	-20(%rbp), %eax
	jge	.LBB18_27
# %bb.25:                               # %for.body41
                                        #   in Loop: Header=BB18_24 Depth=1
	movq	-48(%rbp), %rax
	movslq	-12(%rbp), %rcx
	movw	(%rax,%rcx,2), %ax
	movl	-12(%rbp), %ecx
	subl	-16(%rbp), %ecx
	movslq	%ecx, %rcx
	movw	%ax, line(,%rcx,2)
# %bb.26:                               # %for.inc47
                                        #   in Loop: Header=BB18_24 Depth=1
	movl	-12(%rbp), %eax
	addl	$1, %eax
	movl	%eax, -12(%rbp)
	jmp	.LBB18_24
.LBB18_27:                              # %for.end49
	movl	-16(%rbp), %eax
	addl	-28(%rbp), %eax
	movl	%eax, -20(%rbp)
	movl	-24(%rbp), %eax
	cmpl	-16(%rbp), %eax
	jle	.LBB18_29
# %bb.28:                               # %cond.true52
	movl	-24(%rbp), %eax
	jmp	.LBB18_30
.LBB18_29:                              # %cond.false53
	movl	-16(%rbp), %eax
.LBB18_30:                              # %cond.end54
	movl	%eax, -12(%rbp)
.LBB18_31:                              # %for.cond56
                                        # =>This Inner Loop Header: Depth=1
	movl	-12(%rbp), %eax
	cmpl	-20(%rbp), %eax
	jge	.LBB18_34
# %bb.32:                               # %for.body58
                                        #   in Loop: Header=BB18_31 Depth=1
	movq	-48(%rbp), %rax
	movl	-24(%rbp), %ecx
	subl	$1, %ecx
	movslq	%ecx, %rcx
	movw	(%rax,%rcx,2), %ax
	movl	-12(%rbp), %ecx
	subl	-16(%rbp), %ecx
	movslq	%ecx, %rcx
	movw	%ax, line(,%rcx,2)
# %bb.33:                               # %for.inc65
                                        #   in Loop: Header=BB18_31 Depth=1
	movl	-12(%rbp), %eax
	addl	$1, %eax
	movl	%eax, -12(%rbp)
	jmp	.LBB18_31
.LBB18_34:                              # %for.end67
	jmp	.LBB18_36
.LBB18_35:                              # %if.else68
	movq	-48(%rbp), %rax
	movslq	-16(%rbp), %rcx
	shlq	$1, %rcx
	addq	%rcx, %rax
	movq	%rax, -64(%rbp)
	jmp	.LBB18_38
.LBB18_36:                              # %if.end
	jmp	.LBB18_37
.LBB18_37:                              # %if.end71
	movabsq	$line, %rax
	movq	%rax, -64(%rbp)
.LBB18_38:                              # %return
	movq	-64(%rbp), %rbx
	cmpl	$1517065195, -52(%rbp)  # imm = 0x5A6C93EB
	jne	.LBB18_40
.LBB18_39:
	movq	%rbx, %rax
	addq	$72, %rsp
	popq	%rbx
	popq	%rbp
	.cfi_def_cfa %rsp, 8
	retq
.LBB18_40:                              # %func_exit
	.cfi_def_cfa %rbp, 16
	callq	detect_breach
	jmp	.LBB18_39
.Lfunc_end18:
	.size	UMVLineX.11, .Lfunc_end18-UMVLineX.11
	.cfi_endproc
                                        # -- End function
	.globl	UMVLineX.12             # -- Begin function UMVLineX.12
	.p2align	4, 0x90
	.type	UMVLineX.12,@function
UMVLineX.12:                            # @UMVLineX.12
	.cfi_startproc
# %bb.0:                                # %entry
	pushq	%rbp
	.cfi_def_cfa_offset 16
	.cfi_offset %rbp, -16
	movq	%rsp, %rbp
	.cfi_def_cfa_register %rbp
	pushq	%rbx
	subq	$72, %rsp
	.cfi_offset %rbx, -24
	movl	$2000791204, -52(%rbp)  # imm = 0x7741A6A4
	movl	%edi, -28(%rbp)
	movq	%rsi, -72(%rbp)
	movl	%edx, -36(%rbp)
	movl	%ecx, -16(%rbp)
	movl	%r8d, -32(%rbp)
	movl	%r9d, -24(%rbp)
	movq	-72(%rbp), %rax
	movl	-32(%rbp), %ecx
	subl	$1, %ecx
	cmpl	-36(%rbp), %ecx
	jge	.LBB19_2
# %bb.1:                                # %cond.true
	movl	-32(%rbp), %ecx
	subl	$1, %ecx
	jmp	.LBB19_3
.LBB19_2:                               # %cond.false
	movl	-36(%rbp), %ecx
.LBB19_3:                               # %cond.end
	xorl	%edx, %edx
	cmpl	%ecx, %edx
	jle	.LBB19_5
# %bb.4:                                # %cond.true3
	xorl	%ecx, %ecx
	jmp	.LBB19_9
.LBB19_5:                               # %cond.false4
	movl	-32(%rbp), %ecx
	subl	$1, %ecx
	cmpl	-36(%rbp), %ecx
	jge	.LBB19_7
# %bb.6:                                # %cond.true7
	movl	-32(%rbp), %ecx
	subl	$1, %ecx
	jmp	.LBB19_8
.LBB19_7:                               # %cond.false9
	movl	-36(%rbp), %ecx
.LBB19_8:                               # %cond.end10
.LBB19_9:                               # %cond.end12
	imull	-24(%rbp), %ecx
	movslq	%ecx, %rcx
	shlq	$1, %rcx
	addq	%rcx, %rax
	movq	%rax, -48(%rbp)
	cmpl	$0, -16(%rbp)
	jge	.LBB19_22
# %bb.10:                               # %if.then
	xorl	%eax, %eax
	movl	-16(%rbp), %ecx
	addl	-28(%rbp), %ecx
	cmpl	%ecx, %eax
	jge	.LBB19_12
# %bb.11:                               # %cond.true16
	xorl	%eax, %eax
	jmp	.LBB19_13
.LBB19_12:                              # %cond.false17
	movl	-16(%rbp), %eax
	addl	-28(%rbp), %eax
.LBB19_13:                              # %cond.end19
	movl	%eax, -20(%rbp)
	movl	-16(%rbp), %eax
	movl	%eax, -12(%rbp)
.LBB19_14:                              # %for.cond
                                        # =>This Inner Loop Header: Depth=1
	movl	-12(%rbp), %eax
	cmpl	-20(%rbp), %eax
	jge	.LBB19_17
# %bb.15:                               # %for.body
                                        #   in Loop: Header=BB19_14 Depth=1
	movq	-48(%rbp), %rax
	movw	(%rax), %ax
	movl	-12(%rbp), %ecx
	subl	-16(%rbp), %ecx
	movslq	%ecx, %rcx
	movw	%ax, line(,%rcx,2)
# %bb.16:                               # %for.inc
                                        #   in Loop: Header=BB19_14 Depth=1
	movl	-12(%rbp), %eax
	addl	$1, %eax
	movl	%eax, -12(%rbp)
	jmp	.LBB19_14
.LBB19_17:                              # %for.end
	movl	-16(%rbp), %eax
	addl	-28(%rbp), %eax
	movl	%eax, -20(%rbp)
	movl	$0, -12(%rbp)
.LBB19_18:                              # %for.cond25
                                        # =>This Inner Loop Header: Depth=1
	movl	-12(%rbp), %eax
	cmpl	-20(%rbp), %eax
	jge	.LBB19_21
# %bb.19:                               # %for.body27
                                        #   in Loop: Header=BB19_18 Depth=1
	movq	-48(%rbp), %rax
	movslq	-12(%rbp), %rcx
	movw	(%rax,%rcx,2), %ax
	movl	-12(%rbp), %ecx
	subl	-16(%rbp), %ecx
	movslq	%ecx, %rcx
	movw	%ax, line(,%rcx,2)
# %bb.20:                               # %for.inc33
                                        #   in Loop: Header=BB19_18 Depth=1
	movl	-12(%rbp), %eax
	addl	$1, %eax
	movl	%eax, -12(%rbp)
	jmp	.LBB19_18
.LBB19_21:                              # %for.end35
	jmp	.LBB19_37
.LBB19_22:                              # %if.else
	movl	-16(%rbp), %eax
	movl	-24(%rbp), %ecx
	subl	-28(%rbp), %ecx
	cmpl	%ecx, %eax
	jle	.LBB19_35
# %bb.23:                               # %if.then38
	movl	-24(%rbp), %eax
	movl	%eax, -20(%rbp)
	movl	-16(%rbp), %eax
	movl	%eax, -12(%rbp)
.LBB19_24:                              # %for.cond39
                                        # =>This Inner Loop Header: Depth=1
	movl	-12(%rbp), %eax
	cmpl	-20(%rbp), %eax
	jge	.LBB19_27
# %bb.25:                               # %for.body41
                                        #   in Loop: Header=BB19_24 Depth=1
	movq	-48(%rbp), %rax
	movslq	-12(%rbp), %rcx
	movw	(%rax,%rcx,2), %ax
	movl	-12(%rbp), %ecx
	subl	-16(%rbp), %ecx
	movslq	%ecx, %rcx
	movw	%ax, line(,%rcx,2)
# %bb.26:                               # %for.inc47
                                        #   in Loop: Header=BB19_24 Depth=1
	movl	-12(%rbp), %eax
	addl	$1, %eax
	movl	%eax, -12(%rbp)
	jmp	.LBB19_24
.LBB19_27:                              # %for.end49
	movl	-16(%rbp), %eax
	addl	-28(%rbp), %eax
	movl	%eax, -20(%rbp)
	movl	-24(%rbp), %eax
	cmpl	-16(%rbp), %eax
	jle	.LBB19_29
# %bb.28:                               # %cond.true52
	movl	-24(%rbp), %eax
	jmp	.LBB19_30
.LBB19_29:                              # %cond.false53
	movl	-16(%rbp), %eax
.LBB19_30:                              # %cond.end54
	movl	%eax, -12(%rbp)
.LBB19_31:                              # %for.cond56
                                        # =>This Inner Loop Header: Depth=1
	movl	-12(%rbp), %eax
	cmpl	-20(%rbp), %eax
	jge	.LBB19_34
# %bb.32:                               # %for.body58
                                        #   in Loop: Header=BB19_31 Depth=1
	movq	-48(%rbp), %rax
	movl	-24(%rbp), %ecx
	subl	$1, %ecx
	movslq	%ecx, %rcx
	movw	(%rax,%rcx,2), %ax
	movl	-12(%rbp), %ecx
	subl	-16(%rbp), %ecx
	movslq	%ecx, %rcx
	movw	%ax, line(,%rcx,2)
# %bb.33:                               # %for.inc65
                                        #   in Loop: Header=BB19_31 Depth=1
	movl	-12(%rbp), %eax
	addl	$1, %eax
	movl	%eax, -12(%rbp)
	jmp	.LBB19_31
.LBB19_34:                              # %for.end67
	jmp	.LBB19_36
.LBB19_35:                              # %if.else68
	movq	-48(%rbp), %rax
	movslq	-16(%rbp), %rcx
	shlq	$1, %rcx
	addq	%rcx, %rax
	movq	%rax, -64(%rbp)
	jmp	.LBB19_38
.LBB19_36:                              # %if.end
	jmp	.LBB19_37
.LBB19_37:                              # %if.end71
	movabsq	$line, %rax
	movq	%rax, -64(%rbp)
.LBB19_38:                              # %return
	movq	-64(%rbp), %rbx
	cmpl	$2000791204, -52(%rbp)  # imm = 0x7741A6A4
	jne	.LBB19_40
.LBB19_39:
	movq	%rbx, %rax
	addq	$72, %rsp
	popq	%rbx
	popq	%rbp
	.cfi_def_cfa %rsp, 8
	retq
.LBB19_40:                              # %func_exit
	.cfi_def_cfa %rbp, 16
	callq	detect_breach
	jmp	.LBB19_39
.Lfunc_end19:
	.size	UMVLineX.12, .Lfunc_end19-UMVLineX.12
	.cfi_endproc
                                        # -- End function
	.globl	FastLine16Y_11.13       # -- Begin function FastLine16Y_11.13
	.p2align	4, 0x90
	.type	FastLine16Y_11.13,@function
FastLine16Y_11.13:                      # @FastLine16Y_11.13
	.cfi_startproc
# %bb.0:                                # %entry
	pushq	%rbp
	.cfi_def_cfa_offset 16
	.cfi_offset %rbp, -16
	movq	%rsp, %rbp
	.cfi_def_cfa_register %rbp
	pushq	%rbx
	subq	$40, %rsp
	.cfi_offset %rbx, -24
	movl	$670254178, -24(%rbp)   # imm = 0x27F34462
	movq	%rdi, -32(%rbp)
	movl	%esi, -20(%rbp)
	movl	%edx, -12(%rbp)
	movl	%ecx, -36(%rbp)
	movl	%r8d, -16(%rbp)
	movq	-32(%rbp), %rbx
	movl	-20(%rbp), %eax
	imull	-16(%rbp), %eax
	addl	-12(%rbp), %eax
	cltq
	shlq	$1, %rax
	addq	%rax, %rbx
	cmpl	$670254178, -24(%rbp)   # imm = 0x27F34462
	jne	.LBB20_2
.LBB20_1:
	movq	%rbx, %rax
	addq	$40, %rsp
	popq	%rbx
	popq	%rbp
	.cfi_def_cfa %rsp, 8
	retq
.LBB20_2:                               # %func_exit
	.cfi_def_cfa %rbp, 16
	callq	detect_breach
	jmp	.LBB20_1
.Lfunc_end20:
	.size	FastLine16Y_11.13, .Lfunc_end20-FastLine16Y_11.13
	.cfi_endproc
                                        # -- End function
	.globl	FastLine16Y_11.14       # -- Begin function FastLine16Y_11.14
	.p2align	4, 0x90
	.type	FastLine16Y_11.14,@function
FastLine16Y_11.14:                      # @FastLine16Y_11.14
	.cfi_startproc
# %bb.0:                                # %entry
	pushq	%rbp
	.cfi_def_cfa_offset 16
	.cfi_offset %rbp, -16
	movq	%rsp, %rbp
	.cfi_def_cfa_register %rbp
	pushq	%rbx
	subq	$40, %rsp
	.cfi_offset %rbx, -24
	movl	$1131288964, -16(%rbp)  # imm = 0x436E1984
	movq	%rdi, -32(%rbp)
	movl	%esi, -20(%rbp)
	movl	%edx, -24(%rbp)
	movl	%ecx, -36(%rbp)
	movl	%r8d, -12(%rbp)
	movq	-32(%rbp), %rbx
	movl	-20(%rbp), %eax
	imull	-12(%rbp), %eax
	addl	-24(%rbp), %eax
	cltq
	shlq	$1, %rax
	addq	%rax, %rbx
	cmpl	$1131288964, -16(%rbp)  # imm = 0x436E1984
	jne	.LBB21_2
.LBB21_1:
	movq	%rbx, %rax
	addq	$40, %rsp
	popq	%rbx
	popq	%rbp
	.cfi_def_cfa %rsp, 8
	retq
.LBB21_2:                               # %func_exit
	.cfi_def_cfa %rbp, 16
	callq	detect_breach
	jmp	.LBB21_1
.Lfunc_end21:
	.size	FastLine16Y_11.14, .Lfunc_end21-FastLine16Y_11.14
	.cfi_endproc
                                        # -- End function
	.globl	PutPel_14.15            # -- Begin function PutPel_14.15
	.p2align	4, 0x90
	.type	PutPel_14.15,@function
PutPel_14.15:                           # @PutPel_14.15
	.cfi_startproc
# %bb.0:                                # %entry
	pushq	%rbp
	.cfi_def_cfa_offset 16
	.cfi_offset %rbp, -16
	movq	%rsp, %rbp
	.cfi_def_cfa_register %rbp
	subq	$32, %rsp
	movl	$521499072, -12(%rbp)   # imm = 0x1F1571C0
	movq	%rdi, -24(%rbp)
	movl	%esi, -16(%rbp)
	movl	%edx, -8(%rbp)
	movw	%cx, -2(%rbp)
	movw	-2(%rbp), %ax
	movq	-24(%rbp), %rcx
	movl	-16(%rbp), %edx
	addl	$16, %edx
	movslq	%edx, %rdx
	movq	(%rcx,%rdx,8), %rcx
	movl	-8(%rbp), %edx
	addl	$16, %edx
	movslq	%edx, %rdx
	movw	%ax, (%rcx,%rdx,2)
	cmpl	$521499072, -12(%rbp)   # imm = 0x1F1571C0
	jne	.LBB22_2
.LBB22_1:
	addq	$32, %rsp
	popq	%rbp
	.cfi_def_cfa %rsp, 8
	retq
.LBB22_2:                               # %func_exit
	.cfi_def_cfa %rbp, 16
	callq	detect_breach
	jmp	.LBB22_1
.Lfunc_end22:
	.size	PutPel_14.15, .Lfunc_end22-PutPel_14.15
	.cfi_endproc
                                        # -- End function
	.globl	PutPel_11.16            # -- Begin function PutPel_11.16
	.p2align	4, 0x90
	.type	PutPel_11.16,@function
PutPel_11.16:                           # @PutPel_11.16
	.cfi_startproc
# %bb.0:                                # %entry
	pushq	%rbp
	.cfi_def_cfa_offset 16
	.cfi_offset %rbp, -16
	movq	%rsp, %rbp
	.cfi_def_cfa_register %rbp
	subq	$32, %rsp
	movl	$149946609, -8(%rbp)    # imm = 0x8F000F1
	movq	%rdi, -32(%rbp)
	movl	%esi, -16(%rbp)
	movl	%edx, -12(%rbp)
	movw	%cx, -2(%rbp)
	movl	%r8d, -20(%rbp)
	movw	-2(%rbp), %ax
	movq	-32(%rbp), %rcx
	movl	-16(%rbp), %edx
	imull	-20(%rbp), %edx
	addl	-12(%rbp), %edx
	movslq	%edx, %rdx
	movw	%ax, (%rcx,%rdx,2)
	cmpl	$149946609, -8(%rbp)    # imm = 0x8F000F1
	jne	.LBB23_2
.LBB23_1:
	addq	$32, %rsp
	popq	%rbp
	.cfi_def_cfa %rsp, 8
	retq
.LBB23_2:                               # %func_exit
	.cfi_def_cfa %rbp, 16
	callq	detect_breach
	jmp	.LBB23_1
.Lfunc_end23:
	.size	PutPel_11.16, .Lfunc_end23-PutPel_11.16
	.cfi_endproc
                                        # -- End function
	.globl	PutPel_11.17            # -- Begin function PutPel_11.17
	.p2align	4, 0x90
	.type	PutPel_11.17,@function
PutPel_11.17:                           # @PutPel_11.17
	.cfi_startproc
# %bb.0:                                # %entry
	pushq	%rbp
	.cfi_def_cfa_offset 16
	.cfi_offset %rbp, -16
	movq	%rsp, %rbp
	.cfi_def_cfa_register %rbp
	subq	$32, %rsp
	movl	$762961202, -12(%rbp)   # imm = 0x2D79DD32
	movq	%rdi, -32(%rbp)
	movl	%esi, -8(%rbp)
	movl	%edx, -16(%rbp)
	movw	%cx, -2(%rbp)
	movl	%r8d, -20(%rbp)
	movw	-2(%rbp), %ax
	movq	-32(%rbp), %rcx
	movl	-8(%rbp), %edx
	imull	-20(%rbp), %edx
	addl	-16(%rbp), %edx
	movslq	%edx, %rdx
	movw	%ax, (%rcx,%rdx,2)
	cmpl	$762961202, -12(%rbp)   # imm = 0x2D79DD32
	jne	.LBB24_2
.LBB24_1:
	addq	$32, %rsp
	popq	%rbp
	.cfi_def_cfa %rsp, 8
	retq
.LBB24_2:                               # %func_exit
	.cfi_def_cfa %rbp, 16
	callq	detect_breach
	jmp	.LBB24_1
.Lfunc_end24:
	.size	PutPel_11.17, .Lfunc_end24-PutPel_11.17
	.cfi_endproc
                                        # -- End function
	.globl	FastPelY_14.18          # -- Begin function FastPelY_14.18
	.p2align	4, 0x90
	.type	FastPelY_14.18,@function
FastPelY_14.18:                         # @FastPelY_14.18
	.cfi_startproc
# %bb.0:                                # %entry
	pushq	%rbp
	.cfi_def_cfa_offset 16
	.cfi_offset %rbp, -16
	movq	%rsp, %rbp
	.cfi_def_cfa_register %rbp
	pushq	%rbx
	subq	$40, %rsp
	.cfi_offset %rbx, -24
	movl	$923297031, -20(%rbp)   # imm = 0x37086507
	movq	%rdi, -32(%rbp)
	movl	%esi, -12(%rbp)
	movl	%edx, -16(%rbp)
	movl	%ecx, -40(%rbp)
	movl	%r8d, -36(%rbp)
	movq	-32(%rbp), %rax
	movl	-12(%rbp), %ecx
	addl	$16, %ecx
	movslq	%ecx, %rcx
	movq	(%rax,%rcx,8), %rax
	movl	-16(%rbp), %ecx
	addl	$16, %ecx
	movslq	%ecx, %rcx
	movw	(%rax,%rcx,2), %bx
	cmpl	$923297031, -20(%rbp)   # imm = 0x37086507
	jne	.LBB25_2
.LBB25_1:
	movzwl	%bx, %eax
	addq	$40, %rsp
	popq	%rbx
	popq	%rbp
	.cfi_def_cfa %rsp, 8
	retq
.LBB25_2:                               # %func_exit
	.cfi_def_cfa %rbp, 16
	callq	detect_breach
	jmp	.LBB25_1
.Lfunc_end25:
	.size	FastPelY_14.18, .Lfunc_end25-FastPelY_14.18
	.cfi_endproc
                                        # -- End function
	.globl	FastLineX.19            # -- Begin function FastLineX.19
	.p2align	4, 0x90
	.type	FastLineX.19,@function
FastLineX.19:                           # @FastLineX.19
	.cfi_startproc
# %bb.0:                                # %entry
	pushq	%rbp
	.cfi_def_cfa_offset 16
	.cfi_offset %rbp, -16
	movq	%rsp, %rbp
	.cfi_def_cfa_register %rbp
	pushq	%rbx
	subq	$40, %rsp
	.cfi_offset %rbx, -24
	movl	$2025264772, -20(%rbp)  # imm = 0x78B71684
	movl	%edi, -36(%rbp)
	movq	%rsi, -32(%rbp)
	movl	%edx, -12(%rbp)
	movl	%ecx, -16(%rbp)
	movl	%r8d, -40(%rbp)
	movl	%r9d, -24(%rbp)
	movq	-32(%rbp), %rbx
	movl	-12(%rbp), %eax
	imull	-24(%rbp), %eax
	cltq
	shlq	$1, %rax
	addq	%rax, %rbx
	movslq	-16(%rbp), %rax
	shlq	$1, %rax
	addq	%rax, %rbx
	cmpl	$2025264772, -20(%rbp)  # imm = 0x78B71684
	jne	.LBB26_2
.LBB26_1:
	movq	%rbx, %rax
	addq	$40, %rsp
	popq	%rbx
	popq	%rbp
	.cfi_def_cfa %rsp, 8
	retq
.LBB26_2:                               # %func_exit
	.cfi_def_cfa %rbp, 16
	callq	detect_breach
	jmp	.LBB26_1
.Lfunc_end26:
	.size	FastLineX.19, .Lfunc_end26-FastLineX.19
	.cfi_endproc
                                        # -- End function
	.globl	UMVLine16Y_11.20        # -- Begin function UMVLine16Y_11.20
	.p2align	4, 0x90
	.type	UMVLine16Y_11.20,@function
UMVLine16Y_11.20:                       # @UMVLine16Y_11.20
	.cfi_startproc
# %bb.0:                                # %entry
	pushq	%rbp
	.cfi_def_cfa_offset 16
	.cfi_offset %rbp, -16
	movq	%rsp, %rbp
	.cfi_def_cfa_register %rbp
	pushq	%rbx
	subq	$56, %rsp
	.cfi_offset %rbx, -24
	movl	$1399760064, -44(%rbp)  # imm = 0x536EA4C0
	movq	%rdi, -64(%rbp)
	movl	%esi, -28(%rbp)
	movl	%edx, -16(%rbp)
	movl	%ecx, -32(%rbp)
	movl	%r8d, -24(%rbp)
	movq	-64(%rbp), %rax
	movl	-32(%rbp), %ecx
	subl	$1, %ecx
	cmpl	-28(%rbp), %ecx
	jge	.LBB27_2
# %bb.1:                                # %cond.true
	movl	-32(%rbp), %ecx
	subl	$1, %ecx
	jmp	.LBB27_3
.LBB27_2:                               # %cond.false
	movl	-28(%rbp), %ecx
.LBB27_3:                               # %cond.end
	xorl	%edx, %edx
	cmpl	%ecx, %edx
	jle	.LBB27_5
# %bb.4:                                # %cond.true3
	xorl	%ecx, %ecx
	jmp	.LBB27_9
.LBB27_5:                               # %cond.false4
	movl	-32(%rbp), %ecx
	subl	$1, %ecx
	cmpl	-28(%rbp), %ecx
	jge	.LBB27_7
# %bb.6:                                # %cond.true7
	movl	-32(%rbp), %ecx
	subl	$1, %ecx
	jmp	.LBB27_8
.LBB27_7:                               # %cond.false9
	movl	-28(%rbp), %ecx
.LBB27_8:                               # %cond.end10
.LBB27_9:                               # %cond.end12
	imull	-24(%rbp), %ecx
	movslq	%ecx, %rcx
	shlq	$1, %rcx
	addq	%rcx, %rax
	movq	%rax, -40(%rbp)
	cmpl	$0, -16(%rbp)
	jge	.LBB27_22
# %bb.10:                               # %if.then
	xorl	%eax, %eax
	movl	-16(%rbp), %ecx
	addl	$16, %ecx
	cmpl	%ecx, %eax
	jge	.LBB27_12
# %bb.11:                               # %cond.true16
	xorl	%eax, %eax
	jmp	.LBB27_13
.LBB27_12:                              # %cond.false17
	movl	-16(%rbp), %eax
	addl	$16, %eax
.LBB27_13:                              # %cond.end19
	movl	%eax, -20(%rbp)
	movl	-16(%rbp), %eax
	movl	%eax, -12(%rbp)
.LBB27_14:                              # %for.cond
                                        # =>This Inner Loop Header: Depth=1
	movl	-12(%rbp), %eax
	cmpl	-20(%rbp), %eax
	jge	.LBB27_17
# %bb.15:                               # %for.body
                                        #   in Loop: Header=BB27_14 Depth=1
	movq	-40(%rbp), %rax
	movw	(%rax), %ax
	movl	-12(%rbp), %ecx
	subl	-16(%rbp), %ecx
	movslq	%ecx, %rcx
	movw	%ax, line(,%rcx,2)
# %bb.16:                               # %for.inc
                                        #   in Loop: Header=BB27_14 Depth=1
	movl	-12(%rbp), %eax
	addl	$1, %eax
	movl	%eax, -12(%rbp)
	jmp	.LBB27_14
.LBB27_17:                              # %for.end
	movl	-16(%rbp), %eax
	addl	$16, %eax
	movl	%eax, -20(%rbp)
	movl	$0, -12(%rbp)
.LBB27_18:                              # %for.cond27
                                        # =>This Inner Loop Header: Depth=1
	movl	-12(%rbp), %eax
	cmpl	-20(%rbp), %eax
	jge	.LBB27_21
# %bb.19:                               # %for.body29
                                        #   in Loop: Header=BB27_18 Depth=1
	movq	-40(%rbp), %rax
	movslq	-12(%rbp), %rcx
	movw	(%rax,%rcx,2), %ax
	movl	-12(%rbp), %ecx
	subl	-16(%rbp), %ecx
	movslq	%ecx, %rcx
	movw	%ax, line(,%rcx,2)
# %bb.20:                               # %for.inc35
                                        #   in Loop: Header=BB27_18 Depth=1
	movl	-12(%rbp), %eax
	addl	$1, %eax
	movl	%eax, -12(%rbp)
	jmp	.LBB27_18
.LBB27_21:                              # %for.end37
	jmp	.LBB27_37
.LBB27_22:                              # %if.else
	movl	-16(%rbp), %eax
	movl	-24(%rbp), %ecx
	subl	$16, %ecx
	cmpl	%ecx, %eax
	jle	.LBB27_35
# %bb.23:                               # %if.then40
	movl	-24(%rbp), %eax
	movl	%eax, -20(%rbp)
	movl	-16(%rbp), %eax
	movl	%eax, -12(%rbp)
.LBB27_24:                              # %for.cond41
                                        # =>This Inner Loop Header: Depth=1
	movl	-12(%rbp), %eax
	cmpl	-20(%rbp), %eax
	jge	.LBB27_27
# %bb.25:                               # %for.body43
                                        #   in Loop: Header=BB27_24 Depth=1
	movq	-40(%rbp), %rax
	movslq	-12(%rbp), %rcx
	movw	(%rax,%rcx,2), %ax
	movl	-12(%rbp), %ecx
	subl	-16(%rbp), %ecx
	movslq	%ecx, %rcx
	movw	%ax, line(,%rcx,2)
# %bb.26:                               # %for.inc49
                                        #   in Loop: Header=BB27_24 Depth=1
	movl	-12(%rbp), %eax
	addl	$1, %eax
	movl	%eax, -12(%rbp)
	jmp	.LBB27_24
.LBB27_27:                              # %for.end51
	movl	-16(%rbp), %eax
	addl	$16, %eax
	movl	%eax, -20(%rbp)
	movl	-24(%rbp), %eax
	cmpl	-16(%rbp), %eax
	jle	.LBB27_29
# %bb.28:                               # %cond.true54
	movl	-24(%rbp), %eax
	jmp	.LBB27_30
.LBB27_29:                              # %cond.false55
	movl	-16(%rbp), %eax
.LBB27_30:                              # %cond.end56
	movl	%eax, -12(%rbp)
.LBB27_31:                              # %for.cond58
                                        # =>This Inner Loop Header: Depth=1
	movl	-12(%rbp), %eax
	cmpl	-20(%rbp), %eax
	jge	.LBB27_34
# %bb.32:                               # %for.body60
                                        #   in Loop: Header=BB27_31 Depth=1
	movq	-40(%rbp), %rax
	movl	-24(%rbp), %ecx
	subl	$1, %ecx
	movslq	%ecx, %rcx
	movw	(%rax,%rcx,2), %ax
	movl	-12(%rbp), %ecx
	subl	-16(%rbp), %ecx
	movslq	%ecx, %rcx
	movw	%ax, line(,%rcx,2)
# %bb.33:                               # %for.inc67
                                        #   in Loop: Header=BB27_31 Depth=1
	movl	-12(%rbp), %eax
	addl	$1, %eax
	movl	%eax, -12(%rbp)
	jmp	.LBB27_31
.LBB27_34:                              # %for.end69
	jmp	.LBB27_36
.LBB27_35:                              # %if.else70
	movq	-40(%rbp), %rax
	movslq	-16(%rbp), %rcx
	shlq	$1, %rcx
	addq	%rcx, %rax
	movq	%rax, -56(%rbp)
	jmp	.LBB27_38
.LBB27_36:                              # %if.end
	jmp	.LBB27_37
.LBB27_37:                              # %if.end73
	movabsq	$line, %rax
	movq	%rax, -56(%rbp)
.LBB27_38:                              # %return
	movq	-56(%rbp), %rbx
	cmpl	$1399760064, -44(%rbp)  # imm = 0x536EA4C0
	jne	.LBB27_40
.LBB27_39:
	movq	%rbx, %rax
	addq	$56, %rsp
	popq	%rbx
	popq	%rbp
	.cfi_def_cfa %rsp, 8
	retq
.LBB27_40:                              # %func_exit
	.cfi_def_cfa %rbp, 16
	callq	detect_breach
	jmp	.LBB27_39
.Lfunc_end27:
	.size	UMVLine16Y_11.20, .Lfunc_end27-UMVLine16Y_11.20
	.cfi_endproc
                                        # -- End function
	.globl	PutPel_14.21            # -- Begin function PutPel_14.21
	.p2align	4, 0x90
	.type	PutPel_14.21,@function
PutPel_14.21:                           # @PutPel_14.21
	.cfi_startproc
# %bb.0:                                # %entry
	pushq	%rbp
	.cfi_def_cfa_offset 16
	.cfi_offset %rbp, -16
	movq	%rsp, %rbp
	.cfi_def_cfa_register %rbp
	subq	$32, %rsp
	movl	$1527422222, -8(%rbp)   # imm = 0x5B0A9D0E
	movq	%rdi, -24(%rbp)
	movl	%esi, -12(%rbp)
	movl	%edx, -16(%rbp)
	movw	%cx, -2(%rbp)
	movw	-2(%rbp), %ax
	movq	-24(%rbp), %rcx
	movl	-12(%rbp), %edx
	addl	$16, %edx
	movslq	%edx, %rdx
	movq	(%rcx,%rdx,8), %rcx
	movl	-16(%rbp), %edx
	addl	$16, %edx
	movslq	%edx, %rdx
	movw	%ax, (%rcx,%rdx,2)
	cmpl	$1527422222, -8(%rbp)   # imm = 0x5B0A9D0E
	jne	.LBB28_2
.LBB28_1:
	addq	$32, %rsp
	popq	%rbp
	.cfi_def_cfa %rsp, 8
	retq
.LBB28_2:                               # %func_exit
	.cfi_def_cfa %rbp, 16
	callq	detect_breach
	jmp	.LBB28_1
.Lfunc_end28:
	.size	PutPel_14.21, .Lfunc_end28-PutPel_14.21
	.cfi_endproc
                                        # -- End function
	.globl	UMVPelY_14.22           # -- Begin function UMVPelY_14.22
	.p2align	4, 0x90
	.type	UMVPelY_14.22,@function
UMVPelY_14.22:                          # @UMVPelY_14.22
	.cfi_startproc
# %bb.0:                                # %entry
	pushq	%rbp
	.cfi_def_cfa_offset 16
	.cfi_offset %rbp, -16
	movq	%rsp, %rbp
	.cfi_def_cfa_register %rbp
	pushq	%rbx
	subq	$40, %rsp
	.cfi_offset %rbx, -24
	movl	$444542433, -40(%rbp)   # imm = 0x1A7F2DE1
	movq	%rdi, -32(%rbp)
	movl	%esi, -16(%rbp)
	movl	%edx, -20(%rbp)
	movl	%ecx, -44(%rbp)
	movl	%r8d, -48(%rbp)
	movl	-48(%rbp), %eax
	addl	$8, %eax
	subl	$1, %eax
	shll	$2, %eax
	movl	%eax, -36(%rbp)
	movl	-44(%rbp), %eax
	addl	$8, %eax
	subl	$1, %eax
	shll	$2, %eax
	movl	%eax, -24(%rbp)
	movl	-20(%rbp), %eax
	addl	$16, %eax
	movl	%eax, -20(%rbp)
	movl	-16(%rbp), %eax
	addl	$16, %eax
	movl	%eax, -16(%rbp)
	cmpl	$0, -20(%rbp)
	jge	.LBB29_6
# %bb.1:                                # %if.then
	cmpl	$0, -16(%rbp)
	jge	.LBB29_3
# %bb.2:                                # %if.then7
	movq	-32(%rbp), %rax
	movl	-16(%rbp), %ecx
	andl	$3, %ecx
	movslq	%ecx, %rcx
	movq	(%rax,%rcx,8), %rax
	movl	-20(%rbp), %ecx
	andl	$3, %ecx
	movslq	%ecx, %rcx
	movw	(%rax,%rcx,2), %ax
	movw	%ax, -10(%rbp)
	jmp	.LBB29_17
.LBB29_3:                               # %if.end
	movl	-16(%rbp), %eax
	cmpl	-24(%rbp), %eax
	jle	.LBB29_5
# %bb.4:                                # %if.then12
	movq	-32(%rbp), %rax
	movl	-24(%rbp), %ecx
	movl	-16(%rbp), %edx
	andl	$3, %edx
	addl	%edx, %ecx
	movslq	%ecx, %rcx
	movq	(%rax,%rcx,8), %rax
	movl	-20(%rbp), %ecx
	andl	$3, %ecx
	movslq	%ecx, %rcx
	movw	(%rax,%rcx,2), %ax
	movw	%ax, -10(%rbp)
	jmp	.LBB29_17
.LBB29_5:                               # %if.end20
	movq	-32(%rbp), %rax
	movslq	-16(%rbp), %rcx
	movq	(%rax,%rcx,8), %rax
	movl	-20(%rbp), %ecx
	andl	$3, %ecx
	movslq	%ecx, %rcx
	movw	(%rax,%rcx,2), %ax
	movw	%ax, -10(%rbp)
	jmp	.LBB29_17
.LBB29_6:                               # %if.end26
	movl	-20(%rbp), %eax
	cmpl	-36(%rbp), %eax
	jle	.LBB29_12
# %bb.7:                                # %if.then28
	cmpl	$0, -16(%rbp)
	jge	.LBB29_9
# %bb.8:                                # %if.then30
	movq	-32(%rbp), %rax
	movl	-16(%rbp), %ecx
	andl	$3, %ecx
	movslq	%ecx, %rcx
	movq	(%rax,%rcx,8), %rax
	movl	-36(%rbp), %ecx
	movl	-20(%rbp), %edx
	andl	$3, %edx
	addl	%edx, %ecx
	movslq	%ecx, %rcx
	movw	(%rax,%rcx,2), %ax
	movw	%ax, -10(%rbp)
	jmp	.LBB29_17
.LBB29_9:                               # %if.end38
	movl	-16(%rbp), %eax
	cmpl	-24(%rbp), %eax
	jle	.LBB29_11
# %bb.10:                               # %if.then40
	movq	-32(%rbp), %rax
	movl	-24(%rbp), %ecx
	movl	-16(%rbp), %edx
	andl	$3, %edx
	addl	%edx, %ecx
	movslq	%ecx, %rcx
	movq	(%rax,%rcx,8), %rax
	movl	-36(%rbp), %ecx
	movl	-20(%rbp), %edx
	andl	$3, %edx
	addl	%edx, %ecx
	movslq	%ecx, %rcx
	movw	(%rax,%rcx,2), %ax
	movw	%ax, -10(%rbp)
	jmp	.LBB29_17
.LBB29_11:                              # %if.end49
	movq	-32(%rbp), %rax
	movslq	-16(%rbp), %rcx
	movq	(%rax,%rcx,8), %rax
	movl	-36(%rbp), %ecx
	movl	-20(%rbp), %edx
	andl	$3, %edx
	addl	%edx, %ecx
	movslq	%ecx, %rcx
	movw	(%rax,%rcx,2), %ax
	movw	%ax, -10(%rbp)
	jmp	.LBB29_17
.LBB29_12:                              # %if.end56
	cmpl	$0, -16(%rbp)
	jge	.LBB29_14
# %bb.13:                               # %if.then58
	movq	-32(%rbp), %rax
	movl	-16(%rbp), %ecx
	andl	$3, %ecx
	movslq	%ecx, %rcx
	movq	(%rax,%rcx,8), %rax
	movslq	-20(%rbp), %rcx
	movw	(%rax,%rcx,2), %ax
	movw	%ax, -10(%rbp)
	jmp	.LBB29_17
.LBB29_14:                              # %if.end64
	movl	-16(%rbp), %eax
	cmpl	-24(%rbp), %eax
	jle	.LBB29_16
# %bb.15:                               # %if.then66
	movq	-32(%rbp), %rax
	movl	-24(%rbp), %ecx
	movl	-16(%rbp), %edx
	andl	$3, %edx
	addl	%edx, %ecx
	movslq	%ecx, %rcx
	movq	(%rax,%rcx,8), %rax
	movslq	-20(%rbp), %rcx
	movw	(%rax,%rcx,2), %ax
	movw	%ax, -10(%rbp)
	jmp	.LBB29_17
.LBB29_16:                              # %if.end73
	movq	-32(%rbp), %rax
	movslq	-16(%rbp), %rcx
	movq	(%rax,%rcx,8), %rax
	movslq	-20(%rbp), %rcx
	movw	(%rax,%rcx,2), %ax
	movw	%ax, -10(%rbp)
.LBB29_17:                              # %return
	movw	-10(%rbp), %bx
	cmpl	$444542433, -40(%rbp)   # imm = 0x1A7F2DE1
	jne	.LBB29_19
.LBB29_18:
	movzwl	%bx, %eax
	addq	$40, %rsp
	popq	%rbx
	popq	%rbp
	.cfi_def_cfa %rsp, 8
	retq
.LBB29_19:                              # %func_exit
	.cfi_def_cfa %rbp, 16
	callq	detect_breach
	jmp	.LBB29_18
.Lfunc_end29:
	.size	UMVPelY_14.22, .Lfunc_end29-UMVPelY_14.22
	.cfi_endproc
                                        # -- End function
	.globl	UMVLineX.23             # -- Begin function UMVLineX.23
	.p2align	4, 0x90
	.type	UMVLineX.23,@function
UMVLineX.23:                            # @UMVLineX.23
	.cfi_startproc
# %bb.0:                                # %entry
	pushq	%rbp
	.cfi_def_cfa_offset 16
	.cfi_offset %rbp, -16
	movq	%rsp, %rbp
	.cfi_def_cfa_register %rbp
	pushq	%rbx
	subq	$72, %rsp
	.cfi_offset %rbx, -24
	movl	$334302018, -52(%rbp)   # imm = 0x13ED0B42
	movl	%edi, -28(%rbp)
	movq	%rsi, -72(%rbp)
	movl	%edx, -32(%rbp)
	movl	%ecx, -16(%rbp)
	movl	%r8d, -36(%rbp)
	movl	%r9d, -24(%rbp)
	movq	-72(%rbp), %rax
	movl	-36(%rbp), %ecx
	subl	$1, %ecx
	cmpl	-32(%rbp), %ecx
	jge	.LBB30_2
# %bb.1:                                # %cond.true
	movl	-36(%rbp), %ecx
	subl	$1, %ecx
	jmp	.LBB30_3
.LBB30_2:                               # %cond.false
	movl	-32(%rbp), %ecx
.LBB30_3:                               # %cond.end
	xorl	%edx, %edx
	cmpl	%ecx, %edx
	jle	.LBB30_5
# %bb.4:                                # %cond.true3
	xorl	%ecx, %ecx
	jmp	.LBB30_9
.LBB30_5:                               # %cond.false4
	movl	-36(%rbp), %ecx
	subl	$1, %ecx
	cmpl	-32(%rbp), %ecx
	jge	.LBB30_7
# %bb.6:                                # %cond.true7
	movl	-36(%rbp), %ecx
	subl	$1, %ecx
	jmp	.LBB30_8
.LBB30_7:                               # %cond.false9
	movl	-32(%rbp), %ecx
.LBB30_8:                               # %cond.end10
.LBB30_9:                               # %cond.end12
	imull	-24(%rbp), %ecx
	movslq	%ecx, %rcx
	shlq	$1, %rcx
	addq	%rcx, %rax
	movq	%rax, -48(%rbp)
	cmpl	$0, -16(%rbp)
	jge	.LBB30_22
# %bb.10:                               # %if.then
	xorl	%eax, %eax
	movl	-16(%rbp), %ecx
	addl	-28(%rbp), %ecx
	cmpl	%ecx, %eax
	jge	.LBB30_12
# %bb.11:                               # %cond.true16
	xorl	%eax, %eax
	jmp	.LBB30_13
.LBB30_12:                              # %cond.false17
	movl	-16(%rbp), %eax
	addl	-28(%rbp), %eax
.LBB30_13:                              # %cond.end19
	movl	%eax, -20(%rbp)
	movl	-16(%rbp), %eax
	movl	%eax, -12(%rbp)
.LBB30_14:                              # %for.cond
                                        # =>This Inner Loop Header: Depth=1
	movl	-12(%rbp), %eax
	cmpl	-20(%rbp), %eax
	jge	.LBB30_17
# %bb.15:                               # %for.body
                                        #   in Loop: Header=BB30_14 Depth=1
	movq	-48(%rbp), %rax
	movw	(%rax), %ax
	movl	-12(%rbp), %ecx
	subl	-16(%rbp), %ecx
	movslq	%ecx, %rcx
	movw	%ax, line(,%rcx,2)
# %bb.16:                               # %for.inc
                                        #   in Loop: Header=BB30_14 Depth=1
	movl	-12(%rbp), %eax
	addl	$1, %eax
	movl	%eax, -12(%rbp)
	jmp	.LBB30_14
.LBB30_17:                              # %for.end
	movl	-16(%rbp), %eax
	addl	-28(%rbp), %eax
	movl	%eax, -20(%rbp)
	movl	$0, -12(%rbp)
.LBB30_18:                              # %for.cond25
                                        # =>This Inner Loop Header: Depth=1
	movl	-12(%rbp), %eax
	cmpl	-20(%rbp), %eax
	jge	.LBB30_21
# %bb.19:                               # %for.body27
                                        #   in Loop: Header=BB30_18 Depth=1
	movq	-48(%rbp), %rax
	movslq	-12(%rbp), %rcx
	movw	(%rax,%rcx,2), %ax
	movl	-12(%rbp), %ecx
	subl	-16(%rbp), %ecx
	movslq	%ecx, %rcx
	movw	%ax, line(,%rcx,2)
# %bb.20:                               # %for.inc33
                                        #   in Loop: Header=BB30_18 Depth=1
	movl	-12(%rbp), %eax
	addl	$1, %eax
	movl	%eax, -12(%rbp)
	jmp	.LBB30_18
.LBB30_21:                              # %for.end35
	jmp	.LBB30_37
.LBB30_22:                              # %if.else
	movl	-16(%rbp), %eax
	movl	-24(%rbp), %ecx
	subl	-28(%rbp), %ecx
	cmpl	%ecx, %eax
	jle	.LBB30_35
# %bb.23:                               # %if.then38
	movl	-24(%rbp), %eax
	movl	%eax, -20(%rbp)
	movl	-16(%rbp), %eax
	movl	%eax, -12(%rbp)
.LBB30_24:                              # %for.cond39
                                        # =>This Inner Loop Header: Depth=1
	movl	-12(%rbp), %eax
	cmpl	-20(%rbp), %eax
	jge	.LBB30_27
# %bb.25:                               # %for.body41
                                        #   in Loop: Header=BB30_24 Depth=1
	movq	-48(%rbp), %rax
	movslq	-12(%rbp), %rcx
	movw	(%rax,%rcx,2), %ax
	movl	-12(%rbp), %ecx
	subl	-16(%rbp), %ecx
	movslq	%ecx, %rcx
	movw	%ax, line(,%rcx,2)
# %bb.26:                               # %for.inc47
                                        #   in Loop: Header=BB30_24 Depth=1
	movl	-12(%rbp), %eax
	addl	$1, %eax
	movl	%eax, -12(%rbp)
	jmp	.LBB30_24
.LBB30_27:                              # %for.end49
	movl	-16(%rbp), %eax
	addl	-28(%rbp), %eax
	movl	%eax, -20(%rbp)
	movl	-24(%rbp), %eax
	cmpl	-16(%rbp), %eax
	jle	.LBB30_29
# %bb.28:                               # %cond.true52
	movl	-24(%rbp), %eax
	jmp	.LBB30_30
.LBB30_29:                              # %cond.false53
	movl	-16(%rbp), %eax
.LBB30_30:                              # %cond.end54
	movl	%eax, -12(%rbp)
.LBB30_31:                              # %for.cond56
                                        # =>This Inner Loop Header: Depth=1
	movl	-12(%rbp), %eax
	cmpl	-20(%rbp), %eax
	jge	.LBB30_34
# %bb.32:                               # %for.body58
                                        #   in Loop: Header=BB30_31 Depth=1
	movq	-48(%rbp), %rax
	movl	-24(%rbp), %ecx
	subl	$1, %ecx
	movslq	%ecx, %rcx
	movw	(%rax,%rcx,2), %ax
	movl	-12(%rbp), %ecx
	subl	-16(%rbp), %ecx
	movslq	%ecx, %rcx
	movw	%ax, line(,%rcx,2)
# %bb.33:                               # %for.inc65
                                        #   in Loop: Header=BB30_31 Depth=1
	movl	-12(%rbp), %eax
	addl	$1, %eax
	movl	%eax, -12(%rbp)
	jmp	.LBB30_31
.LBB30_34:                              # %for.end67
	jmp	.LBB30_36
.LBB30_35:                              # %if.else68
	movq	-48(%rbp), %rax
	movslq	-16(%rbp), %rcx
	shlq	$1, %rcx
	addq	%rcx, %rax
	movq	%rax, -64(%rbp)
	jmp	.LBB30_38
.LBB30_36:                              # %if.end
	jmp	.LBB30_37
.LBB30_37:                              # %if.end71
	movabsq	$line, %rax
	movq	%rax, -64(%rbp)
.LBB30_38:                              # %return
	movq	-64(%rbp), %rbx
	cmpl	$334302018, -52(%rbp)   # imm = 0x13ED0B42
	jne	.LBB30_40
.LBB30_39:
	movq	%rbx, %rax
	addq	$72, %rsp
	popq	%rbx
	popq	%rbp
	.cfi_def_cfa %rsp, 8
	retq
.LBB30_40:                              # %func_exit
	.cfi_def_cfa %rbp, 16
	callq	detect_breach
	jmp	.LBB30_39
.Lfunc_end30:
	.size	UMVLineX.23, .Lfunc_end30-UMVLineX.23
	.cfi_endproc
                                        # -- End function
	.globl	FastLineX.24            # -- Begin function FastLineX.24
	.p2align	4, 0x90
	.type	FastLineX.24,@function
FastLineX.24:                           # @FastLineX.24
	.cfi_startproc
# %bb.0:                                # %entry
	pushq	%rbp
	.cfi_def_cfa_offset 16
	.cfi_offset %rbp, -16
	movq	%rsp, %rbp
	.cfi_def_cfa_register %rbp
	pushq	%rbx
	subq	$40, %rsp
	.cfi_offset %rbx, -24
	movl	$1853082679, -20(%rbp)  # imm = 0x6E73CC37
	movl	%edi, -36(%rbp)
	movq	%rsi, -32(%rbp)
	movl	%edx, -12(%rbp)
	movl	%ecx, -24(%rbp)
	movl	%r8d, -40(%rbp)
	movl	%r9d, -16(%rbp)
	movq	-32(%rbp), %rbx
	movl	-12(%rbp), %eax
	imull	-16(%rbp), %eax
	cltq
	shlq	$1, %rax
	addq	%rax, %rbx
	movslq	-24(%rbp), %rax
	shlq	$1, %rax
	addq	%rax, %rbx
	cmpl	$1853082679, -20(%rbp)  # imm = 0x6E73CC37
	jne	.LBB31_2
.LBB31_1:
	movq	%rbx, %rax
	addq	$40, %rsp
	popq	%rbx
	popq	%rbp
	.cfi_def_cfa %rsp, 8
	retq
.LBB31_2:                               # %func_exit
	.cfi_def_cfa %rbp, 16
	callq	detect_breach
	jmp	.LBB31_1
.Lfunc_end31:
	.size	FastLineX.24, .Lfunc_end31-FastLineX.24
	.cfi_endproc
                                        # -- End function
	.globl	PutPel_11.25            # -- Begin function PutPel_11.25
	.p2align	4, 0x90
	.type	PutPel_11.25,@function
PutPel_11.25:                           # @PutPel_11.25
	.cfi_startproc
# %bb.0:                                # %entry
	pushq	%rbp
	.cfi_def_cfa_offset 16
	.cfi_offset %rbp, -16
	movq	%rsp, %rbp
	.cfi_def_cfa_register %rbp
	subq	$32, %rsp
	movl	$353625103, -8(%rbp)    # imm = 0x1513E40F
	movq	%rdi, -32(%rbp)
	movl	%esi, -20(%rbp)
	movl	%edx, -12(%rbp)
	movw	%cx, -2(%rbp)
	movl	%r8d, -16(%rbp)
	movw	-2(%rbp), %ax
	movq	-32(%rbp), %rcx
	movl	-20(%rbp), %edx
	imull	-16(%rbp), %edx
	addl	-12(%rbp), %edx
	movslq	%edx, %rdx
	movw	%ax, (%rcx,%rdx,2)
	cmpl	$353625103, -8(%rbp)    # imm = 0x1513E40F
	jne	.LBB32_2
.LBB32_1:
	addq	$32, %rsp
	popq	%rbp
	.cfi_def_cfa %rsp, 8
	retq
.LBB32_2:                               # %func_exit
	.cfi_def_cfa %rbp, 16
	callq	detect_breach
	jmp	.LBB32_1
.Lfunc_end32:
	.size	PutPel_11.25, .Lfunc_end32-PutPel_11.25
	.cfi_endproc
                                        # -- End function
	.globl	UMVLineX.26             # -- Begin function UMVLineX.26
	.p2align	4, 0x90
	.type	UMVLineX.26,@function
UMVLineX.26:                            # @UMVLineX.26
	.cfi_startproc
# %bb.0:                                # %entry
	pushq	%rbp
	.cfi_def_cfa_offset 16
	.cfi_offset %rbp, -16
	movq	%rsp, %rbp
	.cfi_def_cfa_register %rbp
	pushq	%rbx
	subq	$72, %rsp
	.cfi_offset %rbx, -24
	movl	$1163514526, -52(%rbp)  # imm = 0x4559D29E
	movl	%edi, -28(%rbp)
	movq	%rsi, -72(%rbp)
	movl	%edx, -36(%rbp)
	movl	%ecx, -16(%rbp)
	movl	%r8d, -32(%rbp)
	movl	%r9d, -24(%rbp)
	movq	-72(%rbp), %rax
	movl	-32(%rbp), %ecx
	subl	$1, %ecx
	cmpl	-36(%rbp), %ecx
	jge	.LBB33_2
# %bb.1:                                # %cond.true
	movl	-32(%rbp), %ecx
	subl	$1, %ecx
	jmp	.LBB33_3
.LBB33_2:                               # %cond.false
	movl	-36(%rbp), %ecx
.LBB33_3:                               # %cond.end
	xorl	%edx, %edx
	cmpl	%ecx, %edx
	jle	.LBB33_5
# %bb.4:                                # %cond.true3
	xorl	%ecx, %ecx
	jmp	.LBB33_9
.LBB33_5:                               # %cond.false4
	movl	-32(%rbp), %ecx
	subl	$1, %ecx
	cmpl	-36(%rbp), %ecx
	jge	.LBB33_7
# %bb.6:                                # %cond.true7
	movl	-32(%rbp), %ecx
	subl	$1, %ecx
	jmp	.LBB33_8
.LBB33_7:                               # %cond.false9
	movl	-36(%rbp), %ecx
.LBB33_8:                               # %cond.end10
.LBB33_9:                               # %cond.end12
	imull	-24(%rbp), %ecx
	movslq	%ecx, %rcx
	shlq	$1, %rcx
	addq	%rcx, %rax
	movq	%rax, -48(%rbp)
	cmpl	$0, -16(%rbp)
	jge	.LBB33_22
# %bb.10:                               # %if.then
	xorl	%eax, %eax
	movl	-16(%rbp), %ecx
	addl	-28(%rbp), %ecx
	cmpl	%ecx, %eax
	jge	.LBB33_12
# %bb.11:                               # %cond.true16
	xorl	%eax, %eax
	jmp	.LBB33_13
.LBB33_12:                              # %cond.false17
	movl	-16(%rbp), %eax
	addl	-28(%rbp), %eax
.LBB33_13:                              # %cond.end19
	movl	%eax, -20(%rbp)
	movl	-16(%rbp), %eax
	movl	%eax, -12(%rbp)
.LBB33_14:                              # %for.cond
                                        # =>This Inner Loop Header: Depth=1
	movl	-12(%rbp), %eax
	cmpl	-20(%rbp), %eax
	jge	.LBB33_17
# %bb.15:                               # %for.body
                                        #   in Loop: Header=BB33_14 Depth=1
	movq	-48(%rbp), %rax
	movw	(%rax), %ax
	movl	-12(%rbp), %ecx
	subl	-16(%rbp), %ecx
	movslq	%ecx, %rcx
	movw	%ax, line(,%rcx,2)
# %bb.16:                               # %for.inc
                                        #   in Loop: Header=BB33_14 Depth=1
	movl	-12(%rbp), %eax
	addl	$1, %eax
	movl	%eax, -12(%rbp)
	jmp	.LBB33_14
.LBB33_17:                              # %for.end
	movl	-16(%rbp), %eax
	addl	-28(%rbp), %eax
	movl	%eax, -20(%rbp)
	movl	$0, -12(%rbp)
.LBB33_18:                              # %for.cond25
                                        # =>This Inner Loop Header: Depth=1
	movl	-12(%rbp), %eax
	cmpl	-20(%rbp), %eax
	jge	.LBB33_21
# %bb.19:                               # %for.body27
                                        #   in Loop: Header=BB33_18 Depth=1
	movq	-48(%rbp), %rax
	movslq	-12(%rbp), %rcx
	movw	(%rax,%rcx,2), %ax
	movl	-12(%rbp), %ecx
	subl	-16(%rbp), %ecx
	movslq	%ecx, %rcx
	movw	%ax, line(,%rcx,2)
# %bb.20:                               # %for.inc33
                                        #   in Loop: Header=BB33_18 Depth=1
	movl	-12(%rbp), %eax
	addl	$1, %eax
	movl	%eax, -12(%rbp)
	jmp	.LBB33_18
.LBB33_21:                              # %for.end35
	jmp	.LBB33_37
.LBB33_22:                              # %if.else
	movl	-16(%rbp), %eax
	movl	-24(%rbp), %ecx
	subl	-28(%rbp), %ecx
	cmpl	%ecx, %eax
	jle	.LBB33_35
# %bb.23:                               # %if.then38
	movl	-24(%rbp), %eax
	movl	%eax, -20(%rbp)
	movl	-16(%rbp), %eax
	movl	%eax, -12(%rbp)
.LBB33_24:                              # %for.cond39
                                        # =>This Inner Loop Header: Depth=1
	movl	-12(%rbp), %eax
	cmpl	-20(%rbp), %eax
	jge	.LBB33_27
# %bb.25:                               # %for.body41
                                        #   in Loop: Header=BB33_24 Depth=1
	movq	-48(%rbp), %rax
	movslq	-12(%rbp), %rcx
	movw	(%rax,%rcx,2), %ax
	movl	-12(%rbp), %ecx
	subl	-16(%rbp), %ecx
	movslq	%ecx, %rcx
	movw	%ax, line(,%rcx,2)
# %bb.26:                               # %for.inc47
                                        #   in Loop: Header=BB33_24 Depth=1
	movl	-12(%rbp), %eax
	addl	$1, %eax
	movl	%eax, -12(%rbp)
	jmp	.LBB33_24
.LBB33_27:                              # %for.end49
	movl	-16(%rbp), %eax
	addl	-28(%rbp), %eax
	movl	%eax, -20(%rbp)
	movl	-24(%rbp), %eax
	cmpl	-16(%rbp), %eax
	jle	.LBB33_29
# %bb.28:                               # %cond.true52
	movl	-24(%rbp), %eax
	jmp	.LBB33_30
.LBB33_29:                              # %cond.false53
	movl	-16(%rbp), %eax
.LBB33_30:                              # %cond.end54
	movl	%eax, -12(%rbp)
.LBB33_31:                              # %for.cond56
                                        # =>This Inner Loop Header: Depth=1
	movl	-12(%rbp), %eax
	cmpl	-20(%rbp), %eax
	jge	.LBB33_34
# %bb.32:                               # %for.body58
                                        #   in Loop: Header=BB33_31 Depth=1
	movq	-48(%rbp), %rax
	movl	-24(%rbp), %ecx
	subl	$1, %ecx
	movslq	%ecx, %rcx
	movw	(%rax,%rcx,2), %ax
	movl	-12(%rbp), %ecx
	subl	-16(%rbp), %ecx
	movslq	%ecx, %rcx
	movw	%ax, line(,%rcx,2)
# %bb.33:                               # %for.inc65
                                        #   in Loop: Header=BB33_31 Depth=1
	movl	-12(%rbp), %eax
	addl	$1, %eax
	movl	%eax, -12(%rbp)
	jmp	.LBB33_31
.LBB33_34:                              # %for.end67
	jmp	.LBB33_36
.LBB33_35:                              # %if.else68
	movq	-48(%rbp), %rax
	movslq	-16(%rbp), %rcx
	shlq	$1, %rcx
	addq	%rcx, %rax
	movq	%rax, -64(%rbp)
	jmp	.LBB33_38
.LBB33_36:                              # %if.end
	jmp	.LBB33_37
.LBB33_37:                              # %if.end71
	movabsq	$line, %rax
	movq	%rax, -64(%rbp)
.LBB33_38:                              # %return
	movq	-64(%rbp), %rbx
	cmpl	$1163514526, -52(%rbp)  # imm = 0x4559D29E
	jne	.LBB33_40
.LBB33_39:
	movq	%rbx, %rax
	addq	$72, %rsp
	popq	%rbx
	popq	%rbp
	.cfi_def_cfa %rsp, 8
	retq
.LBB33_40:                              # %func_exit
	.cfi_def_cfa %rbp, 16
	callq	detect_breach
	jmp	.LBB33_39
.Lfunc_end33:
	.size	UMVLineX.26, .Lfunc_end33-UMVLineX.26
	.cfi_endproc
                                        # -- End function
	.globl	FastLineX.27            # -- Begin function FastLineX.27
	.p2align	4, 0x90
	.type	FastLineX.27,@function
FastLineX.27:                           # @FastLineX.27
	.cfi_startproc
# %bb.0:                                # %entry
	pushq	%rbp
	.cfi_def_cfa_offset 16
	.cfi_offset %rbp, -16
	movq	%rsp, %rbp
	.cfi_def_cfa_register %rbp
	pushq	%rbx
	subq	$40, %rsp
	.cfi_offset %rbx, -24
	movl	$483713926, -16(%rbp)   # imm = 0x1CD4E386
	movl	%edi, -40(%rbp)
	movq	%rsi, -32(%rbp)
	movl	%edx, -12(%rbp)
	movl	%ecx, -20(%rbp)
	movl	%r8d, -36(%rbp)
	movl	%r9d, -24(%rbp)
	movq	-32(%rbp), %rbx
	movl	-12(%rbp), %eax
	imull	-24(%rbp), %eax
	cltq
	shlq	$1, %rax
	addq	%rax, %rbx
	movslq	-20(%rbp), %rax
	shlq	$1, %rax
	addq	%rax, %rbx
	cmpl	$483713926, -16(%rbp)   # imm = 0x1CD4E386
	jne	.LBB34_2
.LBB34_1:
	movq	%rbx, %rax
	addq	$40, %rsp
	popq	%rbx
	popq	%rbp
	.cfi_def_cfa %rsp, 8
	retq
.LBB34_2:                               # %func_exit
	.cfi_def_cfa %rbp, 16
	callq	detect_breach
	jmp	.LBB34_1
.Lfunc_end34:
	.size	FastLineX.27, .Lfunc_end34-FastLineX.27
	.cfi_endproc
                                        # -- End function
	.globl	PutPel_14.28            # -- Begin function PutPel_14.28
	.p2align	4, 0x90
	.type	PutPel_14.28,@function
PutPel_14.28:                           # @PutPel_14.28
	.cfi_startproc
# %bb.0:                                # %entry
	pushq	%rbp
	.cfi_def_cfa_offset 16
	.cfi_offset %rbp, -16
	movq	%rsp, %rbp
	.cfi_def_cfa_register %rbp
	subq	$32, %rsp
	movl	$1131316620, -12(%rbp)  # imm = 0x436E858C
	movq	%rdi, -24(%rbp)
	movl	%esi, -8(%rbp)
	movl	%edx, -16(%rbp)
	movw	%cx, -2(%rbp)
	movw	-2(%rbp), %ax
	movq	-24(%rbp), %rcx
	movl	-8(%rbp), %edx
	addl	$16, %edx
	movslq	%edx, %rdx
	movq	(%rcx,%rdx,8), %rcx
	movl	-16(%rbp), %edx
	addl	$16, %edx
	movslq	%edx, %rdx
	movw	%ax, (%rcx,%rdx,2)
	cmpl	$1131316620, -12(%rbp)  # imm = 0x436E858C
	jne	.LBB35_2
.LBB35_1:
	addq	$32, %rsp
	popq	%rbp
	.cfi_def_cfa %rsp, 8
	retq
.LBB35_2:                               # %func_exit
	.cfi_def_cfa %rbp, 16
	callq	detect_breach
	jmp	.LBB35_1
.Lfunc_end35:
	.size	PutPel_14.28, .Lfunc_end35-PutPel_14.28
	.cfi_endproc
                                        # -- End function
	.globl	PutPel_14.29            # -- Begin function PutPel_14.29
	.p2align	4, 0x90
	.type	PutPel_14.29,@function
PutPel_14.29:                           # @PutPel_14.29
	.cfi_startproc
# %bb.0:                                # %entry
	pushq	%rbp
	.cfi_def_cfa_offset 16
	.cfi_offset %rbp, -16
	movq	%rsp, %rbp
	.cfi_def_cfa_register %rbp
	subq	$32, %rsp
	movl	$1760459044, -16(%rbp)  # imm = 0x68EE7924
	movq	%rdi, -24(%rbp)
	movl	%esi, -8(%rbp)
	movl	%edx, -12(%rbp)
	movw	%cx, -2(%rbp)
	movw	-2(%rbp), %ax
	movq	-24(%rbp), %rcx
	movl	-8(%rbp), %edx
	addl	$16, %edx
	movslq	%edx, %rdx
	movq	(%rcx,%rdx,8), %rcx
	movl	-12(%rbp), %edx
	addl	$16, %edx
	movslq	%edx, %rdx
	movw	%ax, (%rcx,%rdx,2)
	cmpl	$1760459044, -16(%rbp)  # imm = 0x68EE7924
	jne	.LBB36_2
.LBB36_1:
	addq	$32, %rsp
	popq	%rbp
	.cfi_def_cfa %rsp, 8
	retq
.LBB36_2:                               # %func_exit
	.cfi_def_cfa %rbp, 16
	callq	detect_breach
	jmp	.LBB36_1
.Lfunc_end36:
	.size	PutPel_14.29, .Lfunc_end36-PutPel_14.29
	.cfi_endproc
                                        # -- End function
	.globl	FastLineX.30            # -- Begin function FastLineX.30
	.p2align	4, 0x90
	.type	FastLineX.30,@function
FastLineX.30:                           # @FastLineX.30
	.cfi_startproc
# %bb.0:                                # %entry
	pushq	%rbp
	.cfi_def_cfa_offset 16
	.cfi_offset %rbp, -16
	movq	%rsp, %rbp
	.cfi_def_cfa_register %rbp
	pushq	%rbx
	subq	$40, %rsp
	.cfi_offset %rbx, -24
	movl	$993135840, -16(%rbp)   # imm = 0x3B320CE0
	movl	%edi, -40(%rbp)
	movq	%rsi, -32(%rbp)
	movl	%edx, -20(%rbp)
	movl	%ecx, -24(%rbp)
	movl	%r8d, -36(%rbp)
	movl	%r9d, -12(%rbp)
	movq	-32(%rbp), %rbx
	movl	-20(%rbp), %eax
	imull	-12(%rbp), %eax
	cltq
	shlq	$1, %rax
	addq	%rax, %rbx
	movslq	-24(%rbp), %rax
	shlq	$1, %rax
	addq	%rax, %rbx
	cmpl	$993135840, -16(%rbp)   # imm = 0x3B320CE0
	jne	.LBB37_2
.LBB37_1:
	movq	%rbx, %rax
	addq	$40, %rsp
	popq	%rbx
	popq	%rbp
	.cfi_def_cfa %rsp, 8
	retq
.LBB37_2:                               # %func_exit
	.cfi_def_cfa %rbp, 16
	callq	detect_breach
	jmp	.LBB37_1
.Lfunc_end37:
	.size	FastLineX.30, .Lfunc_end37-FastLineX.30
	.cfi_endproc
                                        # -- End function
	.globl	PutPel_11.31            # -- Begin function PutPel_11.31
	.p2align	4, 0x90
	.type	PutPel_11.31,@function
PutPel_11.31:                           # @PutPel_11.31
	.cfi_startproc
# %bb.0:                                # %entry
	pushq	%rbp
	.cfi_def_cfa_offset 16
	.cfi_offset %rbp, -16
	movq	%rsp, %rbp
	.cfi_def_cfa_register %rbp
	subq	$32, %rsp
	movl	$1342242208, -20(%rbp)  # imm = 0x5000FDA0
	movq	%rdi, -32(%rbp)
	movl	%esi, -8(%rbp)
	movl	%edx, -16(%rbp)
	movw	%cx, -2(%rbp)
	movl	%r8d, -12(%rbp)
	movw	-2(%rbp), %ax
	movq	-32(%rbp), %rcx
	movl	-8(%rbp), %edx
	imull	-12(%rbp), %edx
	addl	-16(%rbp), %edx
	movslq	%edx, %rdx
	movw	%ax, (%rcx,%rdx,2)
	cmpl	$1342242208, -20(%rbp)  # imm = 0x5000FDA0
	jne	.LBB38_2
.LBB38_1:
	addq	$32, %rsp
	popq	%rbp
	.cfi_def_cfa %rsp, 8
	retq
.LBB38_2:                               # %func_exit
	.cfi_def_cfa %rbp, 16
	callq	detect_breach
	jmp	.LBB38_1
.Lfunc_end38:
	.size	PutPel_11.31, .Lfunc_end38-PutPel_11.31
	.cfi_endproc
                                        # -- End function
	.globl	UMVLine16Y_11.32        # -- Begin function UMVLine16Y_11.32
	.p2align	4, 0x90
	.type	UMVLine16Y_11.32,@function
UMVLine16Y_11.32:                       # @UMVLine16Y_11.32
	.cfi_startproc
# %bb.0:                                # %entry
	pushq	%rbp
	.cfi_def_cfa_offset 16
	.cfi_offset %rbp, -16
	movq	%rsp, %rbp
	.cfi_def_cfa_register %rbp
	pushq	%rbx
	subq	$56, %rsp
	.cfi_offset %rbx, -24
	movl	$1259722644, -44(%rbp)  # imm = 0x4B15D794
	movq	%rdi, -64(%rbp)
	movl	%esi, -28(%rbp)
	movl	%edx, -16(%rbp)
	movl	%ecx, -32(%rbp)
	movl	%r8d, -24(%rbp)
	movq	-64(%rbp), %rax
	movl	-32(%rbp), %ecx
	subl	$1, %ecx
	cmpl	-28(%rbp), %ecx
	jge	.LBB39_2
# %bb.1:                                # %cond.true
	movl	-32(%rbp), %ecx
	subl	$1, %ecx
	jmp	.LBB39_3
.LBB39_2:                               # %cond.false
	movl	-28(%rbp), %ecx
.LBB39_3:                               # %cond.end
	xorl	%edx, %edx
	cmpl	%ecx, %edx
	jle	.LBB39_5
# %bb.4:                                # %cond.true3
	xorl	%ecx, %ecx
	jmp	.LBB39_9
.LBB39_5:                               # %cond.false4
	movl	-32(%rbp), %ecx
	subl	$1, %ecx
	cmpl	-28(%rbp), %ecx
	jge	.LBB39_7
# %bb.6:                                # %cond.true7
	movl	-32(%rbp), %ecx
	subl	$1, %ecx
	jmp	.LBB39_8
.LBB39_7:                               # %cond.false9
	movl	-28(%rbp), %ecx
.LBB39_8:                               # %cond.end10
.LBB39_9:                               # %cond.end12
	imull	-24(%rbp), %ecx
	movslq	%ecx, %rcx
	shlq	$1, %rcx
	addq	%rcx, %rax
	movq	%rax, -40(%rbp)
	cmpl	$0, -16(%rbp)
	jge	.LBB39_22
# %bb.10:                               # %if.then
	xorl	%eax, %eax
	movl	-16(%rbp), %ecx
	addl	$16, %ecx
	cmpl	%ecx, %eax
	jge	.LBB39_12
# %bb.11:                               # %cond.true16
	xorl	%eax, %eax
	jmp	.LBB39_13
.LBB39_12:                              # %cond.false17
	movl	-16(%rbp), %eax
	addl	$16, %eax
.LBB39_13:                              # %cond.end19
	movl	%eax, -20(%rbp)
	movl	-16(%rbp), %eax
	movl	%eax, -12(%rbp)
.LBB39_14:                              # %for.cond
                                        # =>This Inner Loop Header: Depth=1
	movl	-12(%rbp), %eax
	cmpl	-20(%rbp), %eax
	jge	.LBB39_17
# %bb.15:                               # %for.body
                                        #   in Loop: Header=BB39_14 Depth=1
	movq	-40(%rbp), %rax
	movw	(%rax), %ax
	movl	-12(%rbp), %ecx
	subl	-16(%rbp), %ecx
	movslq	%ecx, %rcx
	movw	%ax, line(,%rcx,2)
# %bb.16:                               # %for.inc
                                        #   in Loop: Header=BB39_14 Depth=1
	movl	-12(%rbp), %eax
	addl	$1, %eax
	movl	%eax, -12(%rbp)
	jmp	.LBB39_14
.LBB39_17:                              # %for.end
	movl	-16(%rbp), %eax
	addl	$16, %eax
	movl	%eax, -20(%rbp)
	movl	$0, -12(%rbp)
.LBB39_18:                              # %for.cond27
                                        # =>This Inner Loop Header: Depth=1
	movl	-12(%rbp), %eax
	cmpl	-20(%rbp), %eax
	jge	.LBB39_21
# %bb.19:                               # %for.body29
                                        #   in Loop: Header=BB39_18 Depth=1
	movq	-40(%rbp), %rax
	movslq	-12(%rbp), %rcx
	movw	(%rax,%rcx,2), %ax
	movl	-12(%rbp), %ecx
	subl	-16(%rbp), %ecx
	movslq	%ecx, %rcx
	movw	%ax, line(,%rcx,2)
# %bb.20:                               # %for.inc35
                                        #   in Loop: Header=BB39_18 Depth=1
	movl	-12(%rbp), %eax
	addl	$1, %eax
	movl	%eax, -12(%rbp)
	jmp	.LBB39_18
.LBB39_21:                              # %for.end37
	jmp	.LBB39_37
.LBB39_22:                              # %if.else
	movl	-16(%rbp), %eax
	movl	-24(%rbp), %ecx
	subl	$16, %ecx
	cmpl	%ecx, %eax
	jle	.LBB39_35
# %bb.23:                               # %if.then40
	movl	-24(%rbp), %eax
	movl	%eax, -20(%rbp)
	movl	-16(%rbp), %eax
	movl	%eax, -12(%rbp)
.LBB39_24:                              # %for.cond41
                                        # =>This Inner Loop Header: Depth=1
	movl	-12(%rbp), %eax
	cmpl	-20(%rbp), %eax
	jge	.LBB39_27
# %bb.25:                               # %for.body43
                                        #   in Loop: Header=BB39_24 Depth=1
	movq	-40(%rbp), %rax
	movslq	-12(%rbp), %rcx
	movw	(%rax,%rcx,2), %ax
	movl	-12(%rbp), %ecx
	subl	-16(%rbp), %ecx
	movslq	%ecx, %rcx
	movw	%ax, line(,%rcx,2)
# %bb.26:                               # %for.inc49
                                        #   in Loop: Header=BB39_24 Depth=1
	movl	-12(%rbp), %eax
	addl	$1, %eax
	movl	%eax, -12(%rbp)
	jmp	.LBB39_24
.LBB39_27:                              # %for.end51
	movl	-16(%rbp), %eax
	addl	$16, %eax
	movl	%eax, -20(%rbp)
	movl	-24(%rbp), %eax
	cmpl	-16(%rbp), %eax
	jle	.LBB39_29
# %bb.28:                               # %cond.true54
	movl	-24(%rbp), %eax
	jmp	.LBB39_30
.LBB39_29:                              # %cond.false55
	movl	-16(%rbp), %eax
.LBB39_30:                              # %cond.end56
	movl	%eax, -12(%rbp)
.LBB39_31:                              # %for.cond58
                                        # =>This Inner Loop Header: Depth=1
	movl	-12(%rbp), %eax
	cmpl	-20(%rbp), %eax
	jge	.LBB39_34
# %bb.32:                               # %for.body60
                                        #   in Loop: Header=BB39_31 Depth=1
	movq	-40(%rbp), %rax
	movl	-24(%rbp), %ecx
	subl	$1, %ecx
	movslq	%ecx, %rcx
	movw	(%rax,%rcx,2), %ax
	movl	-12(%rbp), %ecx
	subl	-16(%rbp), %ecx
	movslq	%ecx, %rcx
	movw	%ax, line(,%rcx,2)
# %bb.33:                               # %for.inc67
                                        #   in Loop: Header=BB39_31 Depth=1
	movl	-12(%rbp), %eax
	addl	$1, %eax
	movl	%eax, -12(%rbp)
	jmp	.LBB39_31
.LBB39_34:                              # %for.end69
	jmp	.LBB39_36
.LBB39_35:                              # %if.else70
	movq	-40(%rbp), %rax
	movslq	-16(%rbp), %rcx
	shlq	$1, %rcx
	addq	%rcx, %rax
	movq	%rax, -56(%rbp)
	jmp	.LBB39_38
.LBB39_36:                              # %if.end
	jmp	.LBB39_37
.LBB39_37:                              # %if.end73
	movabsq	$line, %rax
	movq	%rax, -56(%rbp)
.LBB39_38:                              # %return
	movq	-56(%rbp), %rbx
	cmpl	$1259722644, -44(%rbp)  # imm = 0x4B15D794
	jne	.LBB39_40
.LBB39_39:
	movq	%rbx, %rax
	addq	$56, %rsp
	popq	%rbx
	popq	%rbp
	.cfi_def_cfa %rsp, 8
	retq
.LBB39_40:                              # %func_exit
	.cfi_def_cfa %rbp, 16
	callq	detect_breach
	jmp	.LBB39_39
.Lfunc_end39:
	.size	UMVLine16Y_11.32, .Lfunc_end39-UMVLine16Y_11.32
	.cfi_endproc
                                        # -- End function
	.globl	PutPel_14.33            # -- Begin function PutPel_14.33
	.p2align	4, 0x90
	.type	PutPel_14.33,@function
PutPel_14.33:                           # @PutPel_14.33
	.cfi_startproc
# %bb.0:                                # %entry
	pushq	%rbp
	.cfi_def_cfa_offset 16
	.cfi_offset %rbp, -16
	movq	%rsp, %rbp
	.cfi_def_cfa_register %rbp
	subq	$32, %rsp
	movl	$1930796852, -8(%rbp)   # imm = 0x73159F34
	movq	%rdi, -24(%rbp)
	movl	%esi, -16(%rbp)
	movl	%edx, -12(%rbp)
	movw	%cx, -2(%rbp)
	movw	-2(%rbp), %ax
	movq	-24(%rbp), %rcx
	movl	-16(%rbp), %edx
	addl	$16, %edx
	movslq	%edx, %rdx
	movq	(%rcx,%rdx,8), %rcx
	movl	-12(%rbp), %edx
	addl	$16, %edx
	movslq	%edx, %rdx
	movw	%ax, (%rcx,%rdx,2)
	cmpl	$1930796852, -8(%rbp)   # imm = 0x73159F34
	jne	.LBB40_2
.LBB40_1:
	addq	$32, %rsp
	popq	%rbp
	.cfi_def_cfa %rsp, 8
	retq
.LBB40_2:                               # %func_exit
	.cfi_def_cfa %rbp, 16
	callq	detect_breach
	jmp	.LBB40_1
.Lfunc_end40:
	.size	PutPel_14.33, .Lfunc_end40-PutPel_14.33
	.cfi_endproc
                                        # -- End function
	.globl	UMVLine16Y_11.34        # -- Begin function UMVLine16Y_11.34
	.p2align	4, 0x90
	.type	UMVLine16Y_11.34,@function
UMVLine16Y_11.34:                       # @UMVLine16Y_11.34
	.cfi_startproc
# %bb.0:                                # %entry
	pushq	%rbp
	.cfi_def_cfa_offset 16
	.cfi_offset %rbp, -16
	movq	%rsp, %rbp
	.cfi_def_cfa_register %rbp
	pushq	%rbx
	subq	$56, %rsp
	.cfi_offset %rbx, -24
	movl	$874630749, -44(%rbp)   # imm = 0x3421CE5D
	movq	%rdi, -64(%rbp)
	movl	%esi, -28(%rbp)
	movl	%edx, -16(%rbp)
	movl	%ecx, -32(%rbp)
	movl	%r8d, -24(%rbp)
	movq	-64(%rbp), %rax
	movl	-32(%rbp), %ecx
	subl	$1, %ecx
	cmpl	-28(%rbp), %ecx
	jge	.LBB41_2
# %bb.1:                                # %cond.true
	movl	-32(%rbp), %ecx
	subl	$1, %ecx
	jmp	.LBB41_3
.LBB41_2:                               # %cond.false
	movl	-28(%rbp), %ecx
.LBB41_3:                               # %cond.end
	xorl	%edx, %edx
	cmpl	%ecx, %edx
	jle	.LBB41_5
# %bb.4:                                # %cond.true3
	xorl	%ecx, %ecx
	jmp	.LBB41_9
.LBB41_5:                               # %cond.false4
	movl	-32(%rbp), %ecx
	subl	$1, %ecx
	cmpl	-28(%rbp), %ecx
	jge	.LBB41_7
# %bb.6:                                # %cond.true7
	movl	-32(%rbp), %ecx
	subl	$1, %ecx
	jmp	.LBB41_8
.LBB41_7:                               # %cond.false9
	movl	-28(%rbp), %ecx
.LBB41_8:                               # %cond.end10
.LBB41_9:                               # %cond.end12
	imull	-24(%rbp), %ecx
	movslq	%ecx, %rcx
	shlq	$1, %rcx
	addq	%rcx, %rax
	movq	%rax, -40(%rbp)
	cmpl	$0, -16(%rbp)
	jge	.LBB41_22
# %bb.10:                               # %if.then
	xorl	%eax, %eax
	movl	-16(%rbp), %ecx
	addl	$16, %ecx
	cmpl	%ecx, %eax
	jge	.LBB41_12
# %bb.11:                               # %cond.true16
	xorl	%eax, %eax
	jmp	.LBB41_13
.LBB41_12:                              # %cond.false17
	movl	-16(%rbp), %eax
	addl	$16, %eax
.LBB41_13:                              # %cond.end19
	movl	%eax, -20(%rbp)
	movl	-16(%rbp), %eax
	movl	%eax, -12(%rbp)
.LBB41_14:                              # %for.cond
                                        # =>This Inner Loop Header: Depth=1
	movl	-12(%rbp), %eax
	cmpl	-20(%rbp), %eax
	jge	.LBB41_17
# %bb.15:                               # %for.body
                                        #   in Loop: Header=BB41_14 Depth=1
	movq	-40(%rbp), %rax
	movw	(%rax), %ax
	movl	-12(%rbp), %ecx
	subl	-16(%rbp), %ecx
	movslq	%ecx, %rcx
	movw	%ax, line(,%rcx,2)
# %bb.16:                               # %for.inc
                                        #   in Loop: Header=BB41_14 Depth=1
	movl	-12(%rbp), %eax
	addl	$1, %eax
	movl	%eax, -12(%rbp)
	jmp	.LBB41_14
.LBB41_17:                              # %for.end
	movl	-16(%rbp), %eax
	addl	$16, %eax
	movl	%eax, -20(%rbp)
	movl	$0, -12(%rbp)
.LBB41_18:                              # %for.cond27
                                        # =>This Inner Loop Header: Depth=1
	movl	-12(%rbp), %eax
	cmpl	-20(%rbp), %eax
	jge	.LBB41_21
# %bb.19:                               # %for.body29
                                        #   in Loop: Header=BB41_18 Depth=1
	movq	-40(%rbp), %rax
	movslq	-12(%rbp), %rcx
	movw	(%rax,%rcx,2), %ax
	movl	-12(%rbp), %ecx
	subl	-16(%rbp), %ecx
	movslq	%ecx, %rcx
	movw	%ax, line(,%rcx,2)
# %bb.20:                               # %for.inc35
                                        #   in Loop: Header=BB41_18 Depth=1
	movl	-12(%rbp), %eax
	addl	$1, %eax
	movl	%eax, -12(%rbp)
	jmp	.LBB41_18
.LBB41_21:                              # %for.end37
	jmp	.LBB41_37
.LBB41_22:                              # %if.else
	movl	-16(%rbp), %eax
	movl	-24(%rbp), %ecx
	subl	$16, %ecx
	cmpl	%ecx, %eax
	jle	.LBB41_35
# %bb.23:                               # %if.then40
	movl	-24(%rbp), %eax
	movl	%eax, -20(%rbp)
	movl	-16(%rbp), %eax
	movl	%eax, -12(%rbp)
.LBB41_24:                              # %for.cond41
                                        # =>This Inner Loop Header: Depth=1
	movl	-12(%rbp), %eax
	cmpl	-20(%rbp), %eax
	jge	.LBB41_27
# %bb.25:                               # %for.body43
                                        #   in Loop: Header=BB41_24 Depth=1
	movq	-40(%rbp), %rax
	movslq	-12(%rbp), %rcx
	movw	(%rax,%rcx,2), %ax
	movl	-12(%rbp), %ecx
	subl	-16(%rbp), %ecx
	movslq	%ecx, %rcx
	movw	%ax, line(,%rcx,2)
# %bb.26:                               # %for.inc49
                                        #   in Loop: Header=BB41_24 Depth=1
	movl	-12(%rbp), %eax
	addl	$1, %eax
	movl	%eax, -12(%rbp)
	jmp	.LBB41_24
.LBB41_27:                              # %for.end51
	movl	-16(%rbp), %eax
	addl	$16, %eax
	movl	%eax, -20(%rbp)
	movl	-24(%rbp), %eax
	cmpl	-16(%rbp), %eax
	jle	.LBB41_29
# %bb.28:                               # %cond.true54
	movl	-24(%rbp), %eax
	jmp	.LBB41_30
.LBB41_29:                              # %cond.false55
	movl	-16(%rbp), %eax
.LBB41_30:                              # %cond.end56
	movl	%eax, -12(%rbp)
.LBB41_31:                              # %for.cond58
                                        # =>This Inner Loop Header: Depth=1
	movl	-12(%rbp), %eax
	cmpl	-20(%rbp), %eax
	jge	.LBB41_34
# %bb.32:                               # %for.body60
                                        #   in Loop: Header=BB41_31 Depth=1
	movq	-40(%rbp), %rax
	movl	-24(%rbp), %ecx
	subl	$1, %ecx
	movslq	%ecx, %rcx
	movw	(%rax,%rcx,2), %ax
	movl	-12(%rbp), %ecx
	subl	-16(%rbp), %ecx
	movslq	%ecx, %rcx
	movw	%ax, line(,%rcx,2)
# %bb.33:                               # %for.inc67
                                        #   in Loop: Header=BB41_31 Depth=1
	movl	-12(%rbp), %eax
	addl	$1, %eax
	movl	%eax, -12(%rbp)
	jmp	.LBB41_31
.LBB41_34:                              # %for.end69
	jmp	.LBB41_36
.LBB41_35:                              # %if.else70
	movq	-40(%rbp), %rax
	movslq	-16(%rbp), %rcx
	shlq	$1, %rcx
	addq	%rcx, %rax
	movq	%rax, -56(%rbp)
	jmp	.LBB41_38
.LBB41_36:                              # %if.end
	jmp	.LBB41_37
.LBB41_37:                              # %if.end73
	movabsq	$line, %rax
	movq	%rax, -56(%rbp)
.LBB41_38:                              # %return
	movq	-56(%rbp), %rbx
	cmpl	$874630749, -44(%rbp)   # imm = 0x3421CE5D
	jne	.LBB41_40
.LBB41_39:
	movq	%rbx, %rax
	addq	$56, %rsp
	popq	%rbx
	popq	%rbp
	.cfi_def_cfa %rsp, 8
	retq
.LBB41_40:                              # %func_exit
	.cfi_def_cfa %rbp, 16
	callq	detect_breach
	jmp	.LBB41_39
.Lfunc_end41:
	.size	UMVLine16Y_11.34, .Lfunc_end41-UMVLine16Y_11.34
	.cfi_endproc
                                        # -- End function
	.globl	UMVPelY_14.35           # -- Begin function UMVPelY_14.35
	.p2align	4, 0x90
	.type	UMVPelY_14.35,@function
UMVPelY_14.35:                          # @UMVPelY_14.35
	.cfi_startproc
# %bb.0:                                # %entry
	pushq	%rbp
	.cfi_def_cfa_offset 16
	.cfi_offset %rbp, -16
	movq	%rsp, %rbp
	.cfi_def_cfa_register %rbp
	pushq	%rbx
	subq	$40, %rsp
	.cfi_offset %rbx, -24
	movl	$559928336, -48(%rbp)   # imm = 0x215FD410
	movq	%rdi, -32(%rbp)
	movl	%esi, -16(%rbp)
	movl	%edx, -20(%rbp)
	movl	%ecx, -40(%rbp)
	movl	%r8d, -44(%rbp)
	movl	-44(%rbp), %eax
	addl	$8, %eax
	subl	$1, %eax
	shll	$2, %eax
	movl	%eax, -36(%rbp)
	movl	-40(%rbp), %eax
	addl	$8, %eax
	subl	$1, %eax
	shll	$2, %eax
	movl	%eax, -24(%rbp)
	movl	-20(%rbp), %eax
	addl	$16, %eax
	movl	%eax, -20(%rbp)
	movl	-16(%rbp), %eax
	addl	$16, %eax
	movl	%eax, -16(%rbp)
	cmpl	$0, -20(%rbp)
	jge	.LBB42_6
# %bb.1:                                # %if.then
	cmpl	$0, -16(%rbp)
	jge	.LBB42_3
# %bb.2:                                # %if.then7
	movq	-32(%rbp), %rax
	movl	-16(%rbp), %ecx
	andl	$3, %ecx
	movslq	%ecx, %rcx
	movq	(%rax,%rcx,8), %rax
	movl	-20(%rbp), %ecx
	andl	$3, %ecx
	movslq	%ecx, %rcx
	movw	(%rax,%rcx,2), %ax
	movw	%ax, -10(%rbp)
	jmp	.LBB42_17
.LBB42_3:                               # %if.end
	movl	-16(%rbp), %eax
	cmpl	-24(%rbp), %eax
	jle	.LBB42_5
# %bb.4:                                # %if.then12
	movq	-32(%rbp), %rax
	movl	-24(%rbp), %ecx
	movl	-16(%rbp), %edx
	andl	$3, %edx
	addl	%edx, %ecx
	movslq	%ecx, %rcx
	movq	(%rax,%rcx,8), %rax
	movl	-20(%rbp), %ecx
	andl	$3, %ecx
	movslq	%ecx, %rcx
	movw	(%rax,%rcx,2), %ax
	movw	%ax, -10(%rbp)
	jmp	.LBB42_17
.LBB42_5:                               # %if.end20
	movq	-32(%rbp), %rax
	movslq	-16(%rbp), %rcx
	movq	(%rax,%rcx,8), %rax
	movl	-20(%rbp), %ecx
	andl	$3, %ecx
	movslq	%ecx, %rcx
	movw	(%rax,%rcx,2), %ax
	movw	%ax, -10(%rbp)
	jmp	.LBB42_17
.LBB42_6:                               # %if.end26
	movl	-20(%rbp), %eax
	cmpl	-36(%rbp), %eax
	jle	.LBB42_12
# %bb.7:                                # %if.then28
	cmpl	$0, -16(%rbp)
	jge	.LBB42_9
# %bb.8:                                # %if.then30
	movq	-32(%rbp), %rax
	movl	-16(%rbp), %ecx
	andl	$3, %ecx
	movslq	%ecx, %rcx
	movq	(%rax,%rcx,8), %rax
	movl	-36(%rbp), %ecx
	movl	-20(%rbp), %edx
	andl	$3, %edx
	addl	%edx, %ecx
	movslq	%ecx, %rcx
	movw	(%rax,%rcx,2), %ax
	movw	%ax, -10(%rbp)
	jmp	.LBB42_17
.LBB42_9:                               # %if.end38
	movl	-16(%rbp), %eax
	cmpl	-24(%rbp), %eax
	jle	.LBB42_11
# %bb.10:                               # %if.then40
	movq	-32(%rbp), %rax
	movl	-24(%rbp), %ecx
	movl	-16(%rbp), %edx
	andl	$3, %edx
	addl	%edx, %ecx
	movslq	%ecx, %rcx
	movq	(%rax,%rcx,8), %rax
	movl	-36(%rbp), %ecx
	movl	-20(%rbp), %edx
	andl	$3, %edx
	addl	%edx, %ecx
	movslq	%ecx, %rcx
	movw	(%rax,%rcx,2), %ax
	movw	%ax, -10(%rbp)
	jmp	.LBB42_17
.LBB42_11:                              # %if.end49
	movq	-32(%rbp), %rax
	movslq	-16(%rbp), %rcx
	movq	(%rax,%rcx,8), %rax
	movl	-36(%rbp), %ecx
	movl	-20(%rbp), %edx
	andl	$3, %edx
	addl	%edx, %ecx
	movslq	%ecx, %rcx
	movw	(%rax,%rcx,2), %ax
	movw	%ax, -10(%rbp)
	jmp	.LBB42_17
.LBB42_12:                              # %if.end56
	cmpl	$0, -16(%rbp)
	jge	.LBB42_14
# %bb.13:                               # %if.then58
	movq	-32(%rbp), %rax
	movl	-16(%rbp), %ecx
	andl	$3, %ecx
	movslq	%ecx, %rcx
	movq	(%rax,%rcx,8), %rax
	movslq	-20(%rbp), %rcx
	movw	(%rax,%rcx,2), %ax
	movw	%ax, -10(%rbp)
	jmp	.LBB42_17
.LBB42_14:                              # %if.end64
	movl	-16(%rbp), %eax
	cmpl	-24(%rbp), %eax
	jle	.LBB42_16
# %bb.15:                               # %if.then66
	movq	-32(%rbp), %rax
	movl	-24(%rbp), %ecx
	movl	-16(%rbp), %edx
	andl	$3, %edx
	addl	%edx, %ecx
	movslq	%ecx, %rcx
	movq	(%rax,%rcx,8), %rax
	movslq	-20(%rbp), %rcx
	movw	(%rax,%rcx,2), %ax
	movw	%ax, -10(%rbp)
	jmp	.LBB42_17
.LBB42_16:                              # %if.end73
	movq	-32(%rbp), %rax
	movslq	-16(%rbp), %rcx
	movq	(%rax,%rcx,8), %rax
	movslq	-20(%rbp), %rcx
	movw	(%rax,%rcx,2), %ax
	movw	%ax, -10(%rbp)
.LBB42_17:                              # %return
	movw	-10(%rbp), %bx
	cmpl	$559928336, -48(%rbp)   # imm = 0x215FD410
	jne	.LBB42_19
.LBB42_18:
	movzwl	%bx, %eax
	addq	$40, %rsp
	popq	%rbx
	popq	%rbp
	.cfi_def_cfa %rsp, 8
	retq
.LBB42_19:                              # %func_exit
	.cfi_def_cfa %rbp, 16
	callq	detect_breach
	jmp	.LBB42_18
.Lfunc_end42:
	.size	UMVPelY_14.35, .Lfunc_end42-UMVPelY_14.35
	.cfi_endproc
                                        # -- End function
	.globl	PutPel_14.36            # -- Begin function PutPel_14.36
	.p2align	4, 0x90
	.type	PutPel_14.36,@function
PutPel_14.36:                           # @PutPel_14.36
	.cfi_startproc
# %bb.0:                                # %entry
	pushq	%rbp
	.cfi_def_cfa_offset 16
	.cfi_offset %rbp, -16
	movq	%rsp, %rbp
	.cfi_def_cfa_register %rbp
	subq	$32, %rsp
	movl	$1337689150, -12(%rbp)  # imm = 0x4FBB843E
	movq	%rdi, -24(%rbp)
	movl	%esi, -16(%rbp)
	movl	%edx, -8(%rbp)
	movw	%cx, -2(%rbp)
	movw	-2(%rbp), %ax
	movq	-24(%rbp), %rcx
	movl	-16(%rbp), %edx
	addl	$16, %edx
	movslq	%edx, %rdx
	movq	(%rcx,%rdx,8), %rcx
	movl	-8(%rbp), %edx
	addl	$16, %edx
	movslq	%edx, %rdx
	movw	%ax, (%rcx,%rdx,2)
	cmpl	$1337689150, -12(%rbp)  # imm = 0x4FBB843E
	jne	.LBB43_2
.LBB43_1:
	addq	$32, %rsp
	popq	%rbp
	.cfi_def_cfa %rsp, 8
	retq
.LBB43_2:                               # %func_exit
	.cfi_def_cfa %rbp, 16
	callq	detect_breach
	jmp	.LBB43_1
.Lfunc_end43:
	.size	PutPel_14.36, .Lfunc_end43-PutPel_14.36
	.cfi_endproc
                                        # -- End function
	.globl	FastLineX.37            # -- Begin function FastLineX.37
	.p2align	4, 0x90
	.type	FastLineX.37,@function
FastLineX.37:                           # @FastLineX.37
	.cfi_startproc
# %bb.0:                                # %entry
	pushq	%rbp
	.cfi_def_cfa_offset 16
	.cfi_offset %rbp, -16
	movq	%rsp, %rbp
	.cfi_def_cfa_register %rbp
	pushq	%rbx
	subq	$40, %rsp
	.cfi_offset %rbx, -24
	movl	$854658783, -20(%rbp)   # imm = 0x32F10EDF
	movl	%edi, -36(%rbp)
	movq	%rsi, -32(%rbp)
	movl	%edx, -16(%rbp)
	movl	%ecx, -24(%rbp)
	movl	%r8d, -40(%rbp)
	movl	%r9d, -12(%rbp)
	movq	-32(%rbp), %rbx
	movl	-16(%rbp), %eax
	imull	-12(%rbp), %eax
	cltq
	shlq	$1, %rax
	addq	%rax, %rbx
	movslq	-24(%rbp), %rax
	shlq	$1, %rax
	addq	%rax, %rbx
	cmpl	$854658783, -20(%rbp)   # imm = 0x32F10EDF
	jne	.LBB44_2
.LBB44_1:
	movq	%rbx, %rax
	addq	$40, %rsp
	popq	%rbx
	popq	%rbp
	.cfi_def_cfa %rsp, 8
	retq
.LBB44_2:                               # %func_exit
	.cfi_def_cfa %rbp, 16
	callq	detect_breach
	jmp	.LBB44_1
.Lfunc_end44:
	.size	FastLineX.37, .Lfunc_end44-FastLineX.37
	.cfi_endproc
                                        # -- End function
	.globl	UMVLineX.38             # -- Begin function UMVLineX.38
	.p2align	4, 0x90
	.type	UMVLineX.38,@function
UMVLineX.38:                            # @UMVLineX.38
	.cfi_startproc
# %bb.0:                                # %entry
	pushq	%rbp
	.cfi_def_cfa_offset 16
	.cfi_offset %rbp, -16
	movq	%rsp, %rbp
	.cfi_def_cfa_register %rbp
	pushq	%rbx
	subq	$72, %rsp
	.cfi_offset %rbx, -24
	movl	$2144054803, -52(%rbp)  # imm = 0x7FCBAE13
	movl	%edi, -28(%rbp)
	movq	%rsi, -72(%rbp)
	movl	%edx, -36(%rbp)
	movl	%ecx, -16(%rbp)
	movl	%r8d, -32(%rbp)
	movl	%r9d, -24(%rbp)
	movq	-72(%rbp), %rax
	movl	-32(%rbp), %ecx
	subl	$1, %ecx
	cmpl	-36(%rbp), %ecx
	jge	.LBB45_2
# %bb.1:                                # %cond.true
	movl	-32(%rbp), %ecx
	subl	$1, %ecx
	jmp	.LBB45_3
.LBB45_2:                               # %cond.false
	movl	-36(%rbp), %ecx
.LBB45_3:                               # %cond.end
	xorl	%edx, %edx
	cmpl	%ecx, %edx
	jle	.LBB45_5
# %bb.4:                                # %cond.true3
	xorl	%ecx, %ecx
	jmp	.LBB45_9
.LBB45_5:                               # %cond.false4
	movl	-32(%rbp), %ecx
	subl	$1, %ecx
	cmpl	-36(%rbp), %ecx
	jge	.LBB45_7
# %bb.6:                                # %cond.true7
	movl	-32(%rbp), %ecx
	subl	$1, %ecx
	jmp	.LBB45_8
.LBB45_7:                               # %cond.false9
	movl	-36(%rbp), %ecx
.LBB45_8:                               # %cond.end10
.LBB45_9:                               # %cond.end12
	imull	-24(%rbp), %ecx
	movslq	%ecx, %rcx
	shlq	$1, %rcx
	addq	%rcx, %rax
	movq	%rax, -48(%rbp)
	cmpl	$0, -16(%rbp)
	jge	.LBB45_22
# %bb.10:                               # %if.then
	xorl	%eax, %eax
	movl	-16(%rbp), %ecx
	addl	-28(%rbp), %ecx
	cmpl	%ecx, %eax
	jge	.LBB45_12
# %bb.11:                               # %cond.true16
	xorl	%eax, %eax
	jmp	.LBB45_13
.LBB45_12:                              # %cond.false17
	movl	-16(%rbp), %eax
	addl	-28(%rbp), %eax
.LBB45_13:                              # %cond.end19
	movl	%eax, -20(%rbp)
	movl	-16(%rbp), %eax
	movl	%eax, -12(%rbp)
.LBB45_14:                              # %for.cond
                                        # =>This Inner Loop Header: Depth=1
	movl	-12(%rbp), %eax
	cmpl	-20(%rbp), %eax
	jge	.LBB45_17
# %bb.15:                               # %for.body
                                        #   in Loop: Header=BB45_14 Depth=1
	movq	-48(%rbp), %rax
	movw	(%rax), %ax
	movl	-12(%rbp), %ecx
	subl	-16(%rbp), %ecx
	movslq	%ecx, %rcx
	movw	%ax, line(,%rcx,2)
# %bb.16:                               # %for.inc
                                        #   in Loop: Header=BB45_14 Depth=1
	movl	-12(%rbp), %eax
	addl	$1, %eax
	movl	%eax, -12(%rbp)
	jmp	.LBB45_14
.LBB45_17:                              # %for.end
	movl	-16(%rbp), %eax
	addl	-28(%rbp), %eax
	movl	%eax, -20(%rbp)
	movl	$0, -12(%rbp)
.LBB45_18:                              # %for.cond25
                                        # =>This Inner Loop Header: Depth=1
	movl	-12(%rbp), %eax
	cmpl	-20(%rbp), %eax
	jge	.LBB45_21
# %bb.19:                               # %for.body27
                                        #   in Loop: Header=BB45_18 Depth=1
	movq	-48(%rbp), %rax
	movslq	-12(%rbp), %rcx
	movw	(%rax,%rcx,2), %ax
	movl	-12(%rbp), %ecx
	subl	-16(%rbp), %ecx
	movslq	%ecx, %rcx
	movw	%ax, line(,%rcx,2)
# %bb.20:                               # %for.inc33
                                        #   in Loop: Header=BB45_18 Depth=1
	movl	-12(%rbp), %eax
	addl	$1, %eax
	movl	%eax, -12(%rbp)
	jmp	.LBB45_18
.LBB45_21:                              # %for.end35
	jmp	.LBB45_37
.LBB45_22:                              # %if.else
	movl	-16(%rbp), %eax
	movl	-24(%rbp), %ecx
	subl	-28(%rbp), %ecx
	cmpl	%ecx, %eax
	jle	.LBB45_35
# %bb.23:                               # %if.then38
	movl	-24(%rbp), %eax
	movl	%eax, -20(%rbp)
	movl	-16(%rbp), %eax
	movl	%eax, -12(%rbp)
.LBB45_24:                              # %for.cond39
                                        # =>This Inner Loop Header: Depth=1
	movl	-12(%rbp), %eax
	cmpl	-20(%rbp), %eax
	jge	.LBB45_27
# %bb.25:                               # %for.body41
                                        #   in Loop: Header=BB45_24 Depth=1
	movq	-48(%rbp), %rax
	movslq	-12(%rbp), %rcx
	movw	(%rax,%rcx,2), %ax
	movl	-12(%rbp), %ecx
	subl	-16(%rbp), %ecx
	movslq	%ecx, %rcx
	movw	%ax, line(,%rcx,2)
# %bb.26:                               # %for.inc47
                                        #   in Loop: Header=BB45_24 Depth=1
	movl	-12(%rbp), %eax
	addl	$1, %eax
	movl	%eax, -12(%rbp)
	jmp	.LBB45_24
.LBB45_27:                              # %for.end49
	movl	-16(%rbp), %eax
	addl	-28(%rbp), %eax
	movl	%eax, -20(%rbp)
	movl	-24(%rbp), %eax
	cmpl	-16(%rbp), %eax
	jle	.LBB45_29
# %bb.28:                               # %cond.true52
	movl	-24(%rbp), %eax
	jmp	.LBB45_30
.LBB45_29:                              # %cond.false53
	movl	-16(%rbp), %eax
.LBB45_30:                              # %cond.end54
	movl	%eax, -12(%rbp)
.LBB45_31:                              # %for.cond56
                                        # =>This Inner Loop Header: Depth=1
	movl	-12(%rbp), %eax
	cmpl	-20(%rbp), %eax
	jge	.LBB45_34
# %bb.32:                               # %for.body58
                                        #   in Loop: Header=BB45_31 Depth=1
	movq	-48(%rbp), %rax
	movl	-24(%rbp), %ecx
	subl	$1, %ecx
	movslq	%ecx, %rcx
	movw	(%rax,%rcx,2), %ax
	movl	-12(%rbp), %ecx
	subl	-16(%rbp), %ecx
	movslq	%ecx, %rcx
	movw	%ax, line(,%rcx,2)
# %bb.33:                               # %for.inc65
                                        #   in Loop: Header=BB45_31 Depth=1
	movl	-12(%rbp), %eax
	addl	$1, %eax
	movl	%eax, -12(%rbp)
	jmp	.LBB45_31
.LBB45_34:                              # %for.end67
	jmp	.LBB45_36
.LBB45_35:                              # %if.else68
	movq	-48(%rbp), %rax
	movslq	-16(%rbp), %rcx
	shlq	$1, %rcx
	addq	%rcx, %rax
	movq	%rax, -64(%rbp)
	jmp	.LBB45_38
.LBB45_36:                              # %if.end
	jmp	.LBB45_37
.LBB45_37:                              # %if.end71
	movabsq	$line, %rax
	movq	%rax, -64(%rbp)
.LBB45_38:                              # %return
	movq	-64(%rbp), %rbx
	cmpl	$2144054803, -52(%rbp)  # imm = 0x7FCBAE13
	jne	.LBB45_40
.LBB45_39:
	movq	%rbx, %rax
	addq	$72, %rsp
	popq	%rbx
	popq	%rbp
	.cfi_def_cfa %rsp, 8
	retq
.LBB45_40:                              # %func_exit
	.cfi_def_cfa %rbp, 16
	callq	detect_breach
	jmp	.LBB45_39
.Lfunc_end45:
	.size	UMVLineX.38, .Lfunc_end45-UMVLineX.38
	.cfi_endproc
                                        # -- End function
	.globl	FastPelY_14.39          # -- Begin function FastPelY_14.39
	.p2align	4, 0x90
	.type	FastPelY_14.39,@function
FastPelY_14.39:                         # @FastPelY_14.39
	.cfi_startproc
# %bb.0:                                # %entry
	pushq	%rbp
	.cfi_def_cfa_offset 16
	.cfi_offset %rbp, -16
	movq	%rsp, %rbp
	.cfi_def_cfa_register %rbp
	pushq	%rbx
	subq	$40, %rsp
	.cfi_offset %rbx, -24
	movl	$1571201540, -16(%rbp)  # imm = 0x5DA6A204
	movq	%rdi, -32(%rbp)
	movl	%esi, -20(%rbp)
	movl	%edx, -12(%rbp)
	movl	%ecx, -36(%rbp)
	movl	%r8d, -40(%rbp)
	movq	-32(%rbp), %rax
	movl	-20(%rbp), %ecx
	addl	$16, %ecx
	movslq	%ecx, %rcx
	movq	(%rax,%rcx,8), %rax
	movl	-12(%rbp), %ecx
	addl	$16, %ecx
	movslq	%ecx, %rcx
	movw	(%rax,%rcx,2), %bx
	cmpl	$1571201540, -16(%rbp)  # imm = 0x5DA6A204
	jne	.LBB46_2
.LBB46_1:
	movzwl	%bx, %eax
	addq	$40, %rsp
	popq	%rbx
	popq	%rbp
	.cfi_def_cfa %rsp, 8
	retq
.LBB46_2:                               # %func_exit
	.cfi_def_cfa %rbp, 16
	callq	detect_breach
	jmp	.LBB46_1
.Lfunc_end46:
	.size	FastPelY_14.39, .Lfunc_end46-FastPelY_14.39
	.cfi_endproc
                                        # -- End function
	.globl	FastPelY_14.40          # -- Begin function FastPelY_14.40
	.p2align	4, 0x90
	.type	FastPelY_14.40,@function
FastPelY_14.40:                         # @FastPelY_14.40
	.cfi_startproc
# %bb.0:                                # %entry
	pushq	%rbp
	.cfi_def_cfa_offset 16
	.cfi_offset %rbp, -16
	movq	%rsp, %rbp
	.cfi_def_cfa_register %rbp
	pushq	%rbx
	subq	$40, %rsp
	.cfi_offset %rbx, -24
	movl	$1302818233, -20(%rbp)  # imm = 0x4DA76DB9
	movq	%rdi, -32(%rbp)
	movl	%esi, -12(%rbp)
	movl	%edx, -16(%rbp)
	movl	%ecx, -40(%rbp)
	movl	%r8d, -36(%rbp)
	movq	-32(%rbp), %rax
	movl	-12(%rbp), %ecx
	addl	$16, %ecx
	movslq	%ecx, %rcx
	movq	(%rax,%rcx,8), %rax
	movl	-16(%rbp), %ecx
	addl	$16, %ecx
	movslq	%ecx, %rcx
	movw	(%rax,%rcx,2), %bx
	cmpl	$1302818233, -20(%rbp)  # imm = 0x4DA76DB9
	jne	.LBB47_2
.LBB47_1:
	movzwl	%bx, %eax
	addq	$40, %rsp
	popq	%rbx
	popq	%rbp
	.cfi_def_cfa %rsp, 8
	retq
.LBB47_2:                               # %func_exit
	.cfi_def_cfa %rbp, 16
	callq	detect_breach
	jmp	.LBB47_1
.Lfunc_end47:
	.size	FastPelY_14.40, .Lfunc_end47-FastPelY_14.40
	.cfi_endproc
                                        # -- End function
	.globl	FastLine16Y_11.41       # -- Begin function FastLine16Y_11.41
	.p2align	4, 0x90
	.type	FastLine16Y_11.41,@function
FastLine16Y_11.41:                      # @FastLine16Y_11.41
	.cfi_startproc
# %bb.0:                                # %entry
	pushq	%rbp
	.cfi_def_cfa_offset 16
	.cfi_offset %rbp, -16
	movq	%rsp, %rbp
	.cfi_def_cfa_register %rbp
	pushq	%rbx
	subq	$40, %rsp
	.cfi_offset %rbx, -24
	movl	$575443849, -20(%rbp)   # imm = 0x224C9389
	movq	%rdi, -32(%rbp)
	movl	%esi, -16(%rbp)
	movl	%edx, -24(%rbp)
	movl	%ecx, -36(%rbp)
	movl	%r8d, -12(%rbp)
	movq	-32(%rbp), %rbx
	movl	-16(%rbp), %eax
	imull	-12(%rbp), %eax
	addl	-24(%rbp), %eax
	cltq
	shlq	$1, %rax
	addq	%rax, %rbx
	cmpl	$575443849, -20(%rbp)   # imm = 0x224C9389
	jne	.LBB48_2
.LBB48_1:
	movq	%rbx, %rax
	addq	$40, %rsp
	popq	%rbx
	popq	%rbp
	.cfi_def_cfa %rsp, 8
	retq
.LBB48_2:                               # %func_exit
	.cfi_def_cfa %rbp, 16
	callq	detect_breach
	jmp	.LBB48_1
.Lfunc_end48:
	.size	FastLine16Y_11.41, .Lfunc_end48-FastLine16Y_11.41
	.cfi_endproc
                                        # -- End function
	.globl	UMVLineX.42             # -- Begin function UMVLineX.42
	.p2align	4, 0x90
	.type	UMVLineX.42,@function
UMVLineX.42:                            # @UMVLineX.42
	.cfi_startproc
# %bb.0:                                # %entry
	pushq	%rbp
	.cfi_def_cfa_offset 16
	.cfi_offset %rbp, -16
	movq	%rsp, %rbp
	.cfi_def_cfa_register %rbp
	pushq	%rbx
	subq	$72, %rsp
	.cfi_offset %rbx, -24
	movl	$1863961790, -52(%rbp)  # imm = 0x6F19CCBE
	movl	%edi, -28(%rbp)
	movq	%rsi, -72(%rbp)
	movl	%edx, -36(%rbp)
	movl	%ecx, -16(%rbp)
	movl	%r8d, -32(%rbp)
	movl	%r9d, -24(%rbp)
	movq	-72(%rbp), %rax
	movl	-32(%rbp), %ecx
	subl	$1, %ecx
	cmpl	-36(%rbp), %ecx
	jge	.LBB49_2
# %bb.1:                                # %cond.true
	movl	-32(%rbp), %ecx
	subl	$1, %ecx
	jmp	.LBB49_3
.LBB49_2:                               # %cond.false
	movl	-36(%rbp), %ecx
.LBB49_3:                               # %cond.end
	xorl	%edx, %edx
	cmpl	%ecx, %edx
	jle	.LBB49_5
# %bb.4:                                # %cond.true3
	xorl	%ecx, %ecx
	jmp	.LBB49_9
.LBB49_5:                               # %cond.false4
	movl	-32(%rbp), %ecx
	subl	$1, %ecx
	cmpl	-36(%rbp), %ecx
	jge	.LBB49_7
# %bb.6:                                # %cond.true7
	movl	-32(%rbp), %ecx
	subl	$1, %ecx
	jmp	.LBB49_8
.LBB49_7:                               # %cond.false9
	movl	-36(%rbp), %ecx
.LBB49_8:                               # %cond.end10
.LBB49_9:                               # %cond.end12
	imull	-24(%rbp), %ecx
	movslq	%ecx, %rcx
	shlq	$1, %rcx
	addq	%rcx, %rax
	movq	%rax, -48(%rbp)
	cmpl	$0, -16(%rbp)
	jge	.LBB49_22
# %bb.10:                               # %if.then
	xorl	%eax, %eax
	movl	-16(%rbp), %ecx
	addl	-28(%rbp), %ecx
	cmpl	%ecx, %eax
	jge	.LBB49_12
# %bb.11:                               # %cond.true16
	xorl	%eax, %eax
	jmp	.LBB49_13
.LBB49_12:                              # %cond.false17
	movl	-16(%rbp), %eax
	addl	-28(%rbp), %eax
.LBB49_13:                              # %cond.end19
	movl	%eax, -20(%rbp)
	movl	-16(%rbp), %eax
	movl	%eax, -12(%rbp)
.LBB49_14:                              # %for.cond
                                        # =>This Inner Loop Header: Depth=1
	movl	-12(%rbp), %eax
	cmpl	-20(%rbp), %eax
	jge	.LBB49_17
# %bb.15:                               # %for.body
                                        #   in Loop: Header=BB49_14 Depth=1
	movq	-48(%rbp), %rax
	movw	(%rax), %ax
	movl	-12(%rbp), %ecx
	subl	-16(%rbp), %ecx
	movslq	%ecx, %rcx
	movw	%ax, line(,%rcx,2)
# %bb.16:                               # %for.inc
                                        #   in Loop: Header=BB49_14 Depth=1
	movl	-12(%rbp), %eax
	addl	$1, %eax
	movl	%eax, -12(%rbp)
	jmp	.LBB49_14
.LBB49_17:                              # %for.end
	movl	-16(%rbp), %eax
	addl	-28(%rbp), %eax
	movl	%eax, -20(%rbp)
	movl	$0, -12(%rbp)
.LBB49_18:                              # %for.cond25
                                        # =>This Inner Loop Header: Depth=1
	movl	-12(%rbp), %eax
	cmpl	-20(%rbp), %eax
	jge	.LBB49_21
# %bb.19:                               # %for.body27
                                        #   in Loop: Header=BB49_18 Depth=1
	movq	-48(%rbp), %rax
	movslq	-12(%rbp), %rcx
	movw	(%rax,%rcx,2), %ax
	movl	-12(%rbp), %ecx
	subl	-16(%rbp), %ecx
	movslq	%ecx, %rcx
	movw	%ax, line(,%rcx,2)
# %bb.20:                               # %for.inc33
                                        #   in Loop: Header=BB49_18 Depth=1
	movl	-12(%rbp), %eax
	addl	$1, %eax
	movl	%eax, -12(%rbp)
	jmp	.LBB49_18
.LBB49_21:                              # %for.end35
	jmp	.LBB49_37
.LBB49_22:                              # %if.else
	movl	-16(%rbp), %eax
	movl	-24(%rbp), %ecx
	subl	-28(%rbp), %ecx
	cmpl	%ecx, %eax
	jle	.LBB49_35
# %bb.23:                               # %if.then38
	movl	-24(%rbp), %eax
	movl	%eax, -20(%rbp)
	movl	-16(%rbp), %eax
	movl	%eax, -12(%rbp)
.LBB49_24:                              # %for.cond39
                                        # =>This Inner Loop Header: Depth=1
	movl	-12(%rbp), %eax
	cmpl	-20(%rbp), %eax
	jge	.LBB49_27
# %bb.25:                               # %for.body41
                                        #   in Loop: Header=BB49_24 Depth=1
	movq	-48(%rbp), %rax
	movslq	-12(%rbp), %rcx
	movw	(%rax,%rcx,2), %ax
	movl	-12(%rbp), %ecx
	subl	-16(%rbp), %ecx
	movslq	%ecx, %rcx
	movw	%ax, line(,%rcx,2)
# %bb.26:                               # %for.inc47
                                        #   in Loop: Header=BB49_24 Depth=1
	movl	-12(%rbp), %eax
	addl	$1, %eax
	movl	%eax, -12(%rbp)
	jmp	.LBB49_24
.LBB49_27:                              # %for.end49
	movl	-16(%rbp), %eax
	addl	-28(%rbp), %eax
	movl	%eax, -20(%rbp)
	movl	-24(%rbp), %eax
	cmpl	-16(%rbp), %eax
	jle	.LBB49_29
# %bb.28:                               # %cond.true52
	movl	-24(%rbp), %eax
	jmp	.LBB49_30
.LBB49_29:                              # %cond.false53
	movl	-16(%rbp), %eax
.LBB49_30:                              # %cond.end54
	movl	%eax, -12(%rbp)
.LBB49_31:                              # %for.cond56
                                        # =>This Inner Loop Header: Depth=1
	movl	-12(%rbp), %eax
	cmpl	-20(%rbp), %eax
	jge	.LBB49_34
# %bb.32:                               # %for.body58
                                        #   in Loop: Header=BB49_31 Depth=1
	movq	-48(%rbp), %rax
	movl	-24(%rbp), %ecx
	subl	$1, %ecx
	movslq	%ecx, %rcx
	movw	(%rax,%rcx,2), %ax
	movl	-12(%rbp), %ecx
	subl	-16(%rbp), %ecx
	movslq	%ecx, %rcx
	movw	%ax, line(,%rcx,2)
# %bb.33:                               # %for.inc65
                                        #   in Loop: Header=BB49_31 Depth=1
	movl	-12(%rbp), %eax
	addl	$1, %eax
	movl	%eax, -12(%rbp)
	jmp	.LBB49_31
.LBB49_34:                              # %for.end67
	jmp	.LBB49_36
.LBB49_35:                              # %if.else68
	movq	-48(%rbp), %rax
	movslq	-16(%rbp), %rcx
	shlq	$1, %rcx
	addq	%rcx, %rax
	movq	%rax, -64(%rbp)
	jmp	.LBB49_38
.LBB49_36:                              # %if.end
	jmp	.LBB49_37
.LBB49_37:                              # %if.end71
	movabsq	$line, %rax
	movq	%rax, -64(%rbp)
.LBB49_38:                              # %return
	movq	-64(%rbp), %rbx
	cmpl	$1863961790, -52(%rbp)  # imm = 0x6F19CCBE
	jne	.LBB49_40
.LBB49_39:
	movq	%rbx, %rax
	addq	$72, %rsp
	popq	%rbx
	popq	%rbp
	.cfi_def_cfa %rsp, 8
	retq
.LBB49_40:                              # %func_exit
	.cfi_def_cfa %rbp, 16
	callq	detect_breach
	jmp	.LBB49_39
.Lfunc_end49:
	.size	UMVLineX.42, .Lfunc_end49-UMVLineX.42
	.cfi_endproc
                                        # -- End function
	.globl	UMVLineX.43             # -- Begin function UMVLineX.43
	.p2align	4, 0x90
	.type	UMVLineX.43,@function
UMVLineX.43:                            # @UMVLineX.43
	.cfi_startproc
# %bb.0:                                # %entry
	pushq	%rbp
	.cfi_def_cfa_offset 16
	.cfi_offset %rbp, -16
	movq	%rsp, %rbp
	.cfi_def_cfa_register %rbp
	pushq	%rbx
	subq	$72, %rsp
	.cfi_offset %rbx, -24
	movl	$607401250, -52(%rbp)   # imm = 0x24343522
	movl	%edi, -28(%rbp)
	movq	%rsi, -72(%rbp)
	movl	%edx, -36(%rbp)
	movl	%ecx, -16(%rbp)
	movl	%r8d, -32(%rbp)
	movl	%r9d, -24(%rbp)
	movq	-72(%rbp), %rax
	movl	-32(%rbp), %ecx
	subl	$1, %ecx
	cmpl	-36(%rbp), %ecx
	jge	.LBB50_2
# %bb.1:                                # %cond.true
	movl	-32(%rbp), %ecx
	subl	$1, %ecx
	jmp	.LBB50_3
.LBB50_2:                               # %cond.false
	movl	-36(%rbp), %ecx
.LBB50_3:                               # %cond.end
	xorl	%edx, %edx
	cmpl	%ecx, %edx
	jle	.LBB50_5
# %bb.4:                                # %cond.true3
	xorl	%ecx, %ecx
	jmp	.LBB50_9
.LBB50_5:                               # %cond.false4
	movl	-32(%rbp), %ecx
	subl	$1, %ecx
	cmpl	-36(%rbp), %ecx
	jge	.LBB50_7
# %bb.6:                                # %cond.true7
	movl	-32(%rbp), %ecx
	subl	$1, %ecx
	jmp	.LBB50_8
.LBB50_7:                               # %cond.false9
	movl	-36(%rbp), %ecx
.LBB50_8:                               # %cond.end10
.LBB50_9:                               # %cond.end12
	imull	-24(%rbp), %ecx
	movslq	%ecx, %rcx
	shlq	$1, %rcx
	addq	%rcx, %rax
	movq	%rax, -48(%rbp)
	cmpl	$0, -16(%rbp)
	jge	.LBB50_22
# %bb.10:                               # %if.then
	xorl	%eax, %eax
	movl	-16(%rbp), %ecx
	addl	-28(%rbp), %ecx
	cmpl	%ecx, %eax
	jge	.LBB50_12
# %bb.11:                               # %cond.true16
	xorl	%eax, %eax
	jmp	.LBB50_13
.LBB50_12:                              # %cond.false17
	movl	-16(%rbp), %eax
	addl	-28(%rbp), %eax
.LBB50_13:                              # %cond.end19
	movl	%eax, -20(%rbp)
	movl	-16(%rbp), %eax
	movl	%eax, -12(%rbp)
.LBB50_14:                              # %for.cond
                                        # =>This Inner Loop Header: Depth=1
	movl	-12(%rbp), %eax
	cmpl	-20(%rbp), %eax
	jge	.LBB50_17
# %bb.15:                               # %for.body
                                        #   in Loop: Header=BB50_14 Depth=1
	movq	-48(%rbp), %rax
	movw	(%rax), %ax
	movl	-12(%rbp), %ecx
	subl	-16(%rbp), %ecx
	movslq	%ecx, %rcx
	movw	%ax, line(,%rcx,2)
# %bb.16:                               # %for.inc
                                        #   in Loop: Header=BB50_14 Depth=1
	movl	-12(%rbp), %eax
	addl	$1, %eax
	movl	%eax, -12(%rbp)
	jmp	.LBB50_14
.LBB50_17:                              # %for.end
	movl	-16(%rbp), %eax
	addl	-28(%rbp), %eax
	movl	%eax, -20(%rbp)
	movl	$0, -12(%rbp)
.LBB50_18:                              # %for.cond25
                                        # =>This Inner Loop Header: Depth=1
	movl	-12(%rbp), %eax
	cmpl	-20(%rbp), %eax
	jge	.LBB50_21
# %bb.19:                               # %for.body27
                                        #   in Loop: Header=BB50_18 Depth=1
	movq	-48(%rbp), %rax
	movslq	-12(%rbp), %rcx
	movw	(%rax,%rcx,2), %ax
	movl	-12(%rbp), %ecx
	subl	-16(%rbp), %ecx
	movslq	%ecx, %rcx
	movw	%ax, line(,%rcx,2)
# %bb.20:                               # %for.inc33
                                        #   in Loop: Header=BB50_18 Depth=1
	movl	-12(%rbp), %eax
	addl	$1, %eax
	movl	%eax, -12(%rbp)
	jmp	.LBB50_18
.LBB50_21:                              # %for.end35
	jmp	.LBB50_37
.LBB50_22:                              # %if.else
	movl	-16(%rbp), %eax
	movl	-24(%rbp), %ecx
	subl	-28(%rbp), %ecx
	cmpl	%ecx, %eax
	jle	.LBB50_35
# %bb.23:                               # %if.then38
	movl	-24(%rbp), %eax
	movl	%eax, -20(%rbp)
	movl	-16(%rbp), %eax
	movl	%eax, -12(%rbp)
.LBB50_24:                              # %for.cond39
                                        # =>This Inner Loop Header: Depth=1
	movl	-12(%rbp), %eax
	cmpl	-20(%rbp), %eax
	jge	.LBB50_27
# %bb.25:                               # %for.body41
                                        #   in Loop: Header=BB50_24 Depth=1
	movq	-48(%rbp), %rax
	movslq	-12(%rbp), %rcx
	movw	(%rax,%rcx,2), %ax
	movl	-12(%rbp), %ecx
	subl	-16(%rbp), %ecx
	movslq	%ecx, %rcx
	movw	%ax, line(,%rcx,2)
# %bb.26:                               # %for.inc47
                                        #   in Loop: Header=BB50_24 Depth=1
	movl	-12(%rbp), %eax
	addl	$1, %eax
	movl	%eax, -12(%rbp)
	jmp	.LBB50_24
.LBB50_27:                              # %for.end49
	movl	-16(%rbp), %eax
	addl	-28(%rbp), %eax
	movl	%eax, -20(%rbp)
	movl	-24(%rbp), %eax
	cmpl	-16(%rbp), %eax
	jle	.LBB50_29
# %bb.28:                               # %cond.true52
	movl	-24(%rbp), %eax
	jmp	.LBB50_30
.LBB50_29:                              # %cond.false53
	movl	-16(%rbp), %eax
.LBB50_30:                              # %cond.end54
	movl	%eax, -12(%rbp)
.LBB50_31:                              # %for.cond56
                                        # =>This Inner Loop Header: Depth=1
	movl	-12(%rbp), %eax
	cmpl	-20(%rbp), %eax
	jge	.LBB50_34
# %bb.32:                               # %for.body58
                                        #   in Loop: Header=BB50_31 Depth=1
	movq	-48(%rbp), %rax
	movl	-24(%rbp), %ecx
	subl	$1, %ecx
	movslq	%ecx, %rcx
	movw	(%rax,%rcx,2), %ax
	movl	-12(%rbp), %ecx
	subl	-16(%rbp), %ecx
	movslq	%ecx, %rcx
	movw	%ax, line(,%rcx,2)
# %bb.33:                               # %for.inc65
                                        #   in Loop: Header=BB50_31 Depth=1
	movl	-12(%rbp), %eax
	addl	$1, %eax
	movl	%eax, -12(%rbp)
	jmp	.LBB50_31
.LBB50_34:                              # %for.end67
	jmp	.LBB50_36
.LBB50_35:                              # %if.else68
	movq	-48(%rbp), %rax
	movslq	-16(%rbp), %rcx
	shlq	$1, %rcx
	addq	%rcx, %rax
	movq	%rax, -64(%rbp)
	jmp	.LBB50_38
.LBB50_36:                              # %if.end
	jmp	.LBB50_37
.LBB50_37:                              # %if.end71
	movabsq	$line, %rax
	movq	%rax, -64(%rbp)
.LBB50_38:                              # %return
	movq	-64(%rbp), %rbx
	cmpl	$607401250, -52(%rbp)   # imm = 0x24343522
	jne	.LBB50_40
.LBB50_39:
	movq	%rbx, %rax
	addq	$72, %rsp
	popq	%rbx
	popq	%rbp
	.cfi_def_cfa %rsp, 8
	retq
.LBB50_40:                              # %func_exit
	.cfi_def_cfa %rbp, 16
	callq	detect_breach
	jmp	.LBB50_39
.Lfunc_end50:
	.size	UMVLineX.43, .Lfunc_end50-UMVLineX.43
	.cfi_endproc
                                        # -- End function
	.globl	FastLineX.44            # -- Begin function FastLineX.44
	.p2align	4, 0x90
	.type	FastLineX.44,@function
FastLineX.44:                           # @FastLineX.44
	.cfi_startproc
# %bb.0:                                # %entry
	pushq	%rbp
	.cfi_def_cfa_offset 16
	.cfi_offset %rbp, -16
	movq	%rsp, %rbp
	.cfi_def_cfa_register %rbp
	pushq	%rbx
	subq	$40, %rsp
	.cfi_offset %rbx, -24
	movl	$122022411, -20(%rbp)   # imm = 0x745EA0B
	movl	%edi, -40(%rbp)
	movq	%rsi, -32(%rbp)
	movl	%edx, -16(%rbp)
	movl	%ecx, -24(%rbp)
	movl	%r8d, -36(%rbp)
	movl	%r9d, -12(%rbp)
	movq	-32(%rbp), %rbx
	movl	-16(%rbp), %eax
	imull	-12(%rbp), %eax
	cltq
	shlq	$1, %rax
	addq	%rax, %rbx
	movslq	-24(%rbp), %rax
	shlq	$1, %rax
	addq	%rax, %rbx
	cmpl	$122022411, -20(%rbp)   # imm = 0x745EA0B
	jne	.LBB51_2
.LBB51_1:
	movq	%rbx, %rax
	addq	$40, %rsp
	popq	%rbx
	popq	%rbp
	.cfi_def_cfa %rsp, 8
	retq
.LBB51_2:                               # %func_exit
	.cfi_def_cfa %rbp, 16
	callq	detect_breach
	jmp	.LBB51_1
.Lfunc_end51:
	.size	FastLineX.44, .Lfunc_end51-FastLineX.44
	.cfi_endproc
                                        # -- End function
	.globl	FastPelY_14.45          # -- Begin function FastPelY_14.45
	.p2align	4, 0x90
	.type	FastPelY_14.45,@function
FastPelY_14.45:                         # @FastPelY_14.45
	.cfi_startproc
# %bb.0:                                # %entry
	pushq	%rbp
	.cfi_def_cfa_offset 16
	.cfi_offset %rbp, -16
	movq	%rsp, %rbp
	.cfi_def_cfa_register %rbp
	pushq	%rbx
	subq	$40, %rsp
	.cfi_offset %rbx, -24
	movl	$1014570021, -20(%rbp)  # imm = 0x3C791C25
	movq	%rdi, -32(%rbp)
	movl	%esi, -16(%rbp)
	movl	%edx, -12(%rbp)
	movl	%ecx, -40(%rbp)
	movl	%r8d, -36(%rbp)
	movq	-32(%rbp), %rax
	movl	-16(%rbp), %ecx
	addl	$16, %ecx
	movslq	%ecx, %rcx
	movq	(%rax,%rcx,8), %rax
	movl	-12(%rbp), %ecx
	addl	$16, %ecx
	movslq	%ecx, %rcx
	movw	(%rax,%rcx,2), %bx
	cmpl	$1014570021, -20(%rbp)  # imm = 0x3C791C25
	jne	.LBB52_2
.LBB52_1:
	movzwl	%bx, %eax
	addq	$40, %rsp
	popq	%rbx
	popq	%rbp
	.cfi_def_cfa %rsp, 8
	retq
.LBB52_2:                               # %func_exit
	.cfi_def_cfa %rbp, 16
	callq	detect_breach
	jmp	.LBB52_1
.Lfunc_end52:
	.size	FastPelY_14.45, .Lfunc_end52-FastPelY_14.45
	.cfi_endproc
                                        # -- End function
	.globl	UMVLineX.46             # -- Begin function UMVLineX.46
	.p2align	4, 0x90
	.type	UMVLineX.46,@function
UMVLineX.46:                            # @UMVLineX.46
	.cfi_startproc
# %bb.0:                                # %entry
	pushq	%rbp
	.cfi_def_cfa_offset 16
	.cfi_offset %rbp, -16
	movq	%rsp, %rbp
	.cfi_def_cfa_register %rbp
	pushq	%rbx
	subq	$72, %rsp
	.cfi_offset %rbx, -24
	movl	$1619721142, -52(%rbp)  # imm = 0x608AFBB6
	movl	%edi, -28(%rbp)
	movq	%rsi, -72(%rbp)
	movl	%edx, -36(%rbp)
	movl	%ecx, -16(%rbp)
	movl	%r8d, -32(%rbp)
	movl	%r9d, -24(%rbp)
	movq	-72(%rbp), %rax
	movl	-32(%rbp), %ecx
	subl	$1, %ecx
	cmpl	-36(%rbp), %ecx
	jge	.LBB53_2
# %bb.1:                                # %cond.true
	movl	-32(%rbp), %ecx
	subl	$1, %ecx
	jmp	.LBB53_3
.LBB53_2:                               # %cond.false
	movl	-36(%rbp), %ecx
.LBB53_3:                               # %cond.end
	xorl	%edx, %edx
	cmpl	%ecx, %edx
	jle	.LBB53_5
# %bb.4:                                # %cond.true3
	xorl	%ecx, %ecx
	jmp	.LBB53_9
.LBB53_5:                               # %cond.false4
	movl	-32(%rbp), %ecx
	subl	$1, %ecx
	cmpl	-36(%rbp), %ecx
	jge	.LBB53_7
# %bb.6:                                # %cond.true7
	movl	-32(%rbp), %ecx
	subl	$1, %ecx
	jmp	.LBB53_8
.LBB53_7:                               # %cond.false9
	movl	-36(%rbp), %ecx
.LBB53_8:                               # %cond.end10
.LBB53_9:                               # %cond.end12
	imull	-24(%rbp), %ecx
	movslq	%ecx, %rcx
	shlq	$1, %rcx
	addq	%rcx, %rax
	movq	%rax, -48(%rbp)
	cmpl	$0, -16(%rbp)
	jge	.LBB53_22
# %bb.10:                               # %if.then
	xorl	%eax, %eax
	movl	-16(%rbp), %ecx
	addl	-28(%rbp), %ecx
	cmpl	%ecx, %eax
	jge	.LBB53_12
# %bb.11:                               # %cond.true16
	xorl	%eax, %eax
	jmp	.LBB53_13
.LBB53_12:                              # %cond.false17
	movl	-16(%rbp), %eax
	addl	-28(%rbp), %eax
.LBB53_13:                              # %cond.end19
	movl	%eax, -20(%rbp)
	movl	-16(%rbp), %eax
	movl	%eax, -12(%rbp)
.LBB53_14:                              # %for.cond
                                        # =>This Inner Loop Header: Depth=1
	movl	-12(%rbp), %eax
	cmpl	-20(%rbp), %eax
	jge	.LBB53_17
# %bb.15:                               # %for.body
                                        #   in Loop: Header=BB53_14 Depth=1
	movq	-48(%rbp), %rax
	movw	(%rax), %ax
	movl	-12(%rbp), %ecx
	subl	-16(%rbp), %ecx
	movslq	%ecx, %rcx
	movw	%ax, line(,%rcx,2)
# %bb.16:                               # %for.inc
                                        #   in Loop: Header=BB53_14 Depth=1
	movl	-12(%rbp), %eax
	addl	$1, %eax
	movl	%eax, -12(%rbp)
	jmp	.LBB53_14
.LBB53_17:                              # %for.end
	movl	-16(%rbp), %eax
	addl	-28(%rbp), %eax
	movl	%eax, -20(%rbp)
	movl	$0, -12(%rbp)
.LBB53_18:                              # %for.cond25
                                        # =>This Inner Loop Header: Depth=1
	movl	-12(%rbp), %eax
	cmpl	-20(%rbp), %eax
	jge	.LBB53_21
# %bb.19:                               # %for.body27
                                        #   in Loop: Header=BB53_18 Depth=1
	movq	-48(%rbp), %rax
	movslq	-12(%rbp), %rcx
	movw	(%rax,%rcx,2), %ax
	movl	-12(%rbp), %ecx
	subl	-16(%rbp), %ecx
	movslq	%ecx, %rcx
	movw	%ax, line(,%rcx,2)
# %bb.20:                               # %for.inc33
                                        #   in Loop: Header=BB53_18 Depth=1
	movl	-12(%rbp), %eax
	addl	$1, %eax
	movl	%eax, -12(%rbp)
	jmp	.LBB53_18
.LBB53_21:                              # %for.end35
	jmp	.LBB53_37
.LBB53_22:                              # %if.else
	movl	-16(%rbp), %eax
	movl	-24(%rbp), %ecx
	subl	-28(%rbp), %ecx
	cmpl	%ecx, %eax
	jle	.LBB53_35
# %bb.23:                               # %if.then38
	movl	-24(%rbp), %eax
	movl	%eax, -20(%rbp)
	movl	-16(%rbp), %eax
	movl	%eax, -12(%rbp)
.LBB53_24:                              # %for.cond39
                                        # =>This Inner Loop Header: Depth=1
	movl	-12(%rbp), %eax
	cmpl	-20(%rbp), %eax
	jge	.LBB53_27
# %bb.25:                               # %for.body41
                                        #   in Loop: Header=BB53_24 Depth=1
	movq	-48(%rbp), %rax
	movslq	-12(%rbp), %rcx
	movw	(%rax,%rcx,2), %ax
	movl	-12(%rbp), %ecx
	subl	-16(%rbp), %ecx
	movslq	%ecx, %rcx
	movw	%ax, line(,%rcx,2)
# %bb.26:                               # %for.inc47
                                        #   in Loop: Header=BB53_24 Depth=1
	movl	-12(%rbp), %eax
	addl	$1, %eax
	movl	%eax, -12(%rbp)
	jmp	.LBB53_24
.LBB53_27:                              # %for.end49
	movl	-16(%rbp), %eax
	addl	-28(%rbp), %eax
	movl	%eax, -20(%rbp)
	movl	-24(%rbp), %eax
	cmpl	-16(%rbp), %eax
	jle	.LBB53_29
# %bb.28:                               # %cond.true52
	movl	-24(%rbp), %eax
	jmp	.LBB53_30
.LBB53_29:                              # %cond.false53
	movl	-16(%rbp), %eax
.LBB53_30:                              # %cond.end54
	movl	%eax, -12(%rbp)
.LBB53_31:                              # %for.cond56
                                        # =>This Inner Loop Header: Depth=1
	movl	-12(%rbp), %eax
	cmpl	-20(%rbp), %eax
	jge	.LBB53_34
# %bb.32:                               # %for.body58
                                        #   in Loop: Header=BB53_31 Depth=1
	movq	-48(%rbp), %rax
	movl	-24(%rbp), %ecx
	subl	$1, %ecx
	movslq	%ecx, %rcx
	movw	(%rax,%rcx,2), %ax
	movl	-12(%rbp), %ecx
	subl	-16(%rbp), %ecx
	movslq	%ecx, %rcx
	movw	%ax, line(,%rcx,2)
# %bb.33:                               # %for.inc65
                                        #   in Loop: Header=BB53_31 Depth=1
	movl	-12(%rbp), %eax
	addl	$1, %eax
	movl	%eax, -12(%rbp)
	jmp	.LBB53_31
.LBB53_34:                              # %for.end67
	jmp	.LBB53_36
.LBB53_35:                              # %if.else68
	movq	-48(%rbp), %rax
	movslq	-16(%rbp), %rcx
	shlq	$1, %rcx
	addq	%rcx, %rax
	movq	%rax, -64(%rbp)
	jmp	.LBB53_38
.LBB53_36:                              # %if.end
	jmp	.LBB53_37
.LBB53_37:                              # %if.end71
	movabsq	$line, %rax
	movq	%rax, -64(%rbp)
.LBB53_38:                              # %return
	movq	-64(%rbp), %rbx
	cmpl	$1619721142, -52(%rbp)  # imm = 0x608AFBB6
	jne	.LBB53_40
.LBB53_39:
	movq	%rbx, %rax
	addq	$72, %rsp
	popq	%rbx
	popq	%rbp
	.cfi_def_cfa %rsp, 8
	retq
.LBB53_40:                              # %func_exit
	.cfi_def_cfa %rbp, 16
	callq	detect_breach
	jmp	.LBB53_39
.Lfunc_end53:
	.size	UMVLineX.46, .Lfunc_end53-UMVLineX.46
	.cfi_endproc
                                        # -- End function
	.globl	UMVPelY_14.47           # -- Begin function UMVPelY_14.47
	.p2align	4, 0x90
	.type	UMVPelY_14.47,@function
UMVPelY_14.47:                          # @UMVPelY_14.47
	.cfi_startproc
# %bb.0:                                # %entry
	pushq	%rbp
	.cfi_def_cfa_offset 16
	.cfi_offset %rbp, -16
	movq	%rsp, %rbp
	.cfi_def_cfa_register %rbp
	pushq	%rbx
	subq	$40, %rsp
	.cfi_offset %rbx, -24
	movl	$598852156, -40(%rbp)   # imm = 0x23B1C23C
	movq	%rdi, -32(%rbp)
	movl	%esi, -16(%rbp)
	movl	%edx, -20(%rbp)
	movl	%ecx, -48(%rbp)
	movl	%r8d, -44(%rbp)
	movl	-44(%rbp), %eax
	addl	$8, %eax
	subl	$1, %eax
	shll	$2, %eax
	movl	%eax, -36(%rbp)
	movl	-48(%rbp), %eax
	addl	$8, %eax
	subl	$1, %eax
	shll	$2, %eax
	movl	%eax, -24(%rbp)
	movl	-20(%rbp), %eax
	addl	$16, %eax
	movl	%eax, -20(%rbp)
	movl	-16(%rbp), %eax
	addl	$16, %eax
	movl	%eax, -16(%rbp)
	cmpl	$0, -20(%rbp)
	jge	.LBB54_6
# %bb.1:                                # %if.then
	cmpl	$0, -16(%rbp)
	jge	.LBB54_3
# %bb.2:                                # %if.then7
	movq	-32(%rbp), %rax
	movl	-16(%rbp), %ecx
	andl	$3, %ecx
	movslq	%ecx, %rcx
	movq	(%rax,%rcx,8), %rax
	movl	-20(%rbp), %ecx
	andl	$3, %ecx
	movslq	%ecx, %rcx
	movw	(%rax,%rcx,2), %ax
	movw	%ax, -10(%rbp)
	jmp	.LBB54_17
.LBB54_3:                               # %if.end
	movl	-16(%rbp), %eax
	cmpl	-24(%rbp), %eax
	jle	.LBB54_5
# %bb.4:                                # %if.then12
	movq	-32(%rbp), %rax
	movl	-24(%rbp), %ecx
	movl	-16(%rbp), %edx
	andl	$3, %edx
	addl	%edx, %ecx
	movslq	%ecx, %rcx
	movq	(%rax,%rcx,8), %rax
	movl	-20(%rbp), %ecx
	andl	$3, %ecx
	movslq	%ecx, %rcx
	movw	(%rax,%rcx,2), %ax
	movw	%ax, -10(%rbp)
	jmp	.LBB54_17
.LBB54_5:                               # %if.end20
	movq	-32(%rbp), %rax
	movslq	-16(%rbp), %rcx
	movq	(%rax,%rcx,8), %rax
	movl	-20(%rbp), %ecx
	andl	$3, %ecx
	movslq	%ecx, %rcx
	movw	(%rax,%rcx,2), %ax
	movw	%ax, -10(%rbp)
	jmp	.LBB54_17
.LBB54_6:                               # %if.end26
	movl	-20(%rbp), %eax
	cmpl	-36(%rbp), %eax
	jle	.LBB54_12
# %bb.7:                                # %if.then28
	cmpl	$0, -16(%rbp)
	jge	.LBB54_9
# %bb.8:                                # %if.then30
	movq	-32(%rbp), %rax
	movl	-16(%rbp), %ecx
	andl	$3, %ecx
	movslq	%ecx, %rcx
	movq	(%rax,%rcx,8), %rax
	movl	-36(%rbp), %ecx
	movl	-20(%rbp), %edx
	andl	$3, %edx
	addl	%edx, %ecx
	movslq	%ecx, %rcx
	movw	(%rax,%rcx,2), %ax
	movw	%ax, -10(%rbp)
	jmp	.LBB54_17
.LBB54_9:                               # %if.end38
	movl	-16(%rbp), %eax
	cmpl	-24(%rbp), %eax
	jle	.LBB54_11
# %bb.10:                               # %if.then40
	movq	-32(%rbp), %rax
	movl	-24(%rbp), %ecx
	movl	-16(%rbp), %edx
	andl	$3, %edx
	addl	%edx, %ecx
	movslq	%ecx, %rcx
	movq	(%rax,%rcx,8), %rax
	movl	-36(%rbp), %ecx
	movl	-20(%rbp), %edx
	andl	$3, %edx
	addl	%edx, %ecx
	movslq	%ecx, %rcx
	movw	(%rax,%rcx,2), %ax
	movw	%ax, -10(%rbp)
	jmp	.LBB54_17
.LBB54_11:                              # %if.end49
	movq	-32(%rbp), %rax
	movslq	-16(%rbp), %rcx
	movq	(%rax,%rcx,8), %rax
	movl	-36(%rbp), %ecx
	movl	-20(%rbp), %edx
	andl	$3, %edx
	addl	%edx, %ecx
	movslq	%ecx, %rcx
	movw	(%rax,%rcx,2), %ax
	movw	%ax, -10(%rbp)
	jmp	.LBB54_17
.LBB54_12:                              # %if.end56
	cmpl	$0, -16(%rbp)
	jge	.LBB54_14
# %bb.13:                               # %if.then58
	movq	-32(%rbp), %rax
	movl	-16(%rbp), %ecx
	andl	$3, %ecx
	movslq	%ecx, %rcx
	movq	(%rax,%rcx,8), %rax
	movslq	-20(%rbp), %rcx
	movw	(%rax,%rcx,2), %ax
	movw	%ax, -10(%rbp)
	jmp	.LBB54_17
.LBB54_14:                              # %if.end64
	movl	-16(%rbp), %eax
	cmpl	-24(%rbp), %eax
	jle	.LBB54_16
# %bb.15:                               # %if.then66
	movq	-32(%rbp), %rax
	movl	-24(%rbp), %ecx
	movl	-16(%rbp), %edx
	andl	$3, %edx
	addl	%edx, %ecx
	movslq	%ecx, %rcx
	movq	(%rax,%rcx,8), %rax
	movslq	-20(%rbp), %rcx
	movw	(%rax,%rcx,2), %ax
	movw	%ax, -10(%rbp)
	jmp	.LBB54_17
.LBB54_16:                              # %if.end73
	movq	-32(%rbp), %rax
	movslq	-16(%rbp), %rcx
	movq	(%rax,%rcx,8), %rax
	movslq	-20(%rbp), %rcx
	movw	(%rax,%rcx,2), %ax
	movw	%ax, -10(%rbp)
.LBB54_17:                              # %return
	movw	-10(%rbp), %bx
	cmpl	$598852156, -40(%rbp)   # imm = 0x23B1C23C
	jne	.LBB54_19
.LBB54_18:
	movzwl	%bx, %eax
	addq	$40, %rsp
	popq	%rbx
	popq	%rbp
	.cfi_def_cfa %rsp, 8
	retq
.LBB54_19:                              # %func_exit
	.cfi_def_cfa %rbp, 16
	callq	detect_breach
	jmp	.LBB54_18
.Lfunc_end54:
	.size	UMVPelY_14.47, .Lfunc_end54-UMVPelY_14.47
	.cfi_endproc
                                        # -- End function
	.globl	PutPel_14.48            # -- Begin function PutPel_14.48
	.p2align	4, 0x90
	.type	PutPel_14.48,@function
PutPel_14.48:                           # @PutPel_14.48
	.cfi_startproc
# %bb.0:                                # %entry
	pushq	%rbp
	.cfi_def_cfa_offset 16
	.cfi_offset %rbp, -16
	movq	%rsp, %rbp
	.cfi_def_cfa_register %rbp
	subq	$32, %rsp
	movl	$479242725, -16(%rbp)   # imm = 0x1C90A9E5
	movq	%rdi, -24(%rbp)
	movl	%esi, -8(%rbp)
	movl	%edx, -12(%rbp)
	movw	%cx, -2(%rbp)
	movw	-2(%rbp), %ax
	movq	-24(%rbp), %rcx
	movl	-8(%rbp), %edx
	addl	$16, %edx
	movslq	%edx, %rdx
	movq	(%rcx,%rdx,8), %rcx
	movl	-12(%rbp), %edx
	addl	$16, %edx
	movslq	%edx, %rdx
	movw	%ax, (%rcx,%rdx,2)
	cmpl	$479242725, -16(%rbp)   # imm = 0x1C90A9E5
	jne	.LBB55_2
.LBB55_1:
	addq	$32, %rsp
	popq	%rbp
	.cfi_def_cfa %rsp, 8
	retq
.LBB55_2:                               # %func_exit
	.cfi_def_cfa %rbp, 16
	callq	detect_breach
	jmp	.LBB55_1
.Lfunc_end55:
	.size	PutPel_14.48, .Lfunc_end55-PutPel_14.48
	.cfi_endproc
                                        # -- End function
	.globl	FastLineX.49            # -- Begin function FastLineX.49
	.p2align	4, 0x90
	.type	FastLineX.49,@function
FastLineX.49:                           # @FastLineX.49
	.cfi_startproc
# %bb.0:                                # %entry
	pushq	%rbp
	.cfi_def_cfa_offset 16
	.cfi_offset %rbp, -16
	movq	%rsp, %rbp
	.cfi_def_cfa_register %rbp
	pushq	%rbx
	subq	$40, %rsp
	.cfi_offset %rbx, -24
	movl	$1725077226, -24(%rbp)  # imm = 0x66D296EA
	movl	%edi, -40(%rbp)
	movq	%rsi, -32(%rbp)
	movl	%edx, -12(%rbp)
	movl	%ecx, -16(%rbp)
	movl	%r8d, -36(%rbp)
	movl	%r9d, -20(%rbp)
	movq	-32(%rbp), %rbx
	movl	-12(%rbp), %eax
	imull	-20(%rbp), %eax
	cltq
	shlq	$1, %rax
	addq	%rax, %rbx
	movslq	-16(%rbp), %rax
	shlq	$1, %rax
	addq	%rax, %rbx
	cmpl	$1725077226, -24(%rbp)  # imm = 0x66D296EA
	jne	.LBB56_2
.LBB56_1:
	movq	%rbx, %rax
	addq	$40, %rsp
	popq	%rbx
	popq	%rbp
	.cfi_def_cfa %rsp, 8
	retq
.LBB56_2:                               # %func_exit
	.cfi_def_cfa %rbp, 16
	callq	detect_breach
	jmp	.LBB56_1
.Lfunc_end56:
	.size	FastLineX.49, .Lfunc_end56-FastLineX.49
	.cfi_endproc
                                        # -- End function
	.globl	FastLine16Y_11.50       # -- Begin function FastLine16Y_11.50
	.p2align	4, 0x90
	.type	FastLine16Y_11.50,@function
FastLine16Y_11.50:                      # @FastLine16Y_11.50
	.cfi_startproc
# %bb.0:                                # %entry
	pushq	%rbp
	.cfi_def_cfa_offset 16
	.cfi_offset %rbp, -16
	movq	%rsp, %rbp
	.cfi_def_cfa_register %rbp
	pushq	%rbx
	subq	$40, %rsp
	.cfi_offset %rbx, -24
	movl	$1725285475, -24(%rbp)  # imm = 0x66D5C463
	movq	%rdi, -32(%rbp)
	movl	%esi, -12(%rbp)
	movl	%edx, -16(%rbp)
	movl	%ecx, -36(%rbp)
	movl	%r8d, -20(%rbp)
	movq	-32(%rbp), %rbx
	movl	-12(%rbp), %eax
	imull	-20(%rbp), %eax
	addl	-16(%rbp), %eax
	cltq
	shlq	$1, %rax
	addq	%rax, %rbx
	cmpl	$1725285475, -24(%rbp)  # imm = 0x66D5C463
	jne	.LBB57_2
.LBB57_1:
	movq	%rbx, %rax
	addq	$40, %rsp
	popq	%rbx
	popq	%rbp
	.cfi_def_cfa %rsp, 8
	retq
.LBB57_2:                               # %func_exit
	.cfi_def_cfa %rbp, 16
	callq	detect_breach
	jmp	.LBB57_1
.Lfunc_end57:
	.size	FastLine16Y_11.50, .Lfunc_end57-FastLine16Y_11.50
	.cfi_endproc
                                        # -- End function
	.globl	UMVLine16Y_11.51        # -- Begin function UMVLine16Y_11.51
	.p2align	4, 0x90
	.type	UMVLine16Y_11.51,@function
UMVLine16Y_11.51:                       # @UMVLine16Y_11.51
	.cfi_startproc
# %bb.0:                                # %entry
	pushq	%rbp
	.cfi_def_cfa_offset 16
	.cfi_offset %rbp, -16
	movq	%rsp, %rbp
	.cfi_def_cfa_register %rbp
	pushq	%rbx
	subq	$56, %rsp
	.cfi_offset %rbx, -24
	movl	$2027549282, -44(%rbp)  # imm = 0x78D9F262
	movq	%rdi, -64(%rbp)
	movl	%esi, -28(%rbp)
	movl	%edx, -16(%rbp)
	movl	%ecx, -32(%rbp)
	movl	%r8d, -24(%rbp)
	movq	-64(%rbp), %rax
	movl	-32(%rbp), %ecx
	subl	$1, %ecx
	cmpl	-28(%rbp), %ecx
	jge	.LBB58_2
# %bb.1:                                # %cond.true
	movl	-32(%rbp), %ecx
	subl	$1, %ecx
	jmp	.LBB58_3
.LBB58_2:                               # %cond.false
	movl	-28(%rbp), %ecx
.LBB58_3:                               # %cond.end
	xorl	%edx, %edx
	cmpl	%ecx, %edx
	jle	.LBB58_5
# %bb.4:                                # %cond.true3
	xorl	%ecx, %ecx
	jmp	.LBB58_9
.LBB58_5:                               # %cond.false4
	movl	-32(%rbp), %ecx
	subl	$1, %ecx
	cmpl	-28(%rbp), %ecx
	jge	.LBB58_7
# %bb.6:                                # %cond.true7
	movl	-32(%rbp), %ecx
	subl	$1, %ecx
	jmp	.LBB58_8
.LBB58_7:                               # %cond.false9
	movl	-28(%rbp), %ecx
.LBB58_8:                               # %cond.end10
.LBB58_9:                               # %cond.end12
	imull	-24(%rbp), %ecx
	movslq	%ecx, %rcx
	shlq	$1, %rcx
	addq	%rcx, %rax
	movq	%rax, -40(%rbp)
	cmpl	$0, -16(%rbp)
	jge	.LBB58_22
# %bb.10:                               # %if.then
	xorl	%eax, %eax
	movl	-16(%rbp), %ecx
	addl	$16, %ecx
	cmpl	%ecx, %eax
	jge	.LBB58_12
# %bb.11:                               # %cond.true16
	xorl	%eax, %eax
	jmp	.LBB58_13
.LBB58_12:                              # %cond.false17
	movl	-16(%rbp), %eax
	addl	$16, %eax
.LBB58_13:                              # %cond.end19
	movl	%eax, -20(%rbp)
	movl	-16(%rbp), %eax
	movl	%eax, -12(%rbp)
.LBB58_14:                              # %for.cond
                                        # =>This Inner Loop Header: Depth=1
	movl	-12(%rbp), %eax
	cmpl	-20(%rbp), %eax
	jge	.LBB58_17
# %bb.15:                               # %for.body
                                        #   in Loop: Header=BB58_14 Depth=1
	movq	-40(%rbp), %rax
	movw	(%rax), %ax
	movl	-12(%rbp), %ecx
	subl	-16(%rbp), %ecx
	movslq	%ecx, %rcx
	movw	%ax, line(,%rcx,2)
# %bb.16:                               # %for.inc
                                        #   in Loop: Header=BB58_14 Depth=1
	movl	-12(%rbp), %eax
	addl	$1, %eax
	movl	%eax, -12(%rbp)
	jmp	.LBB58_14
.LBB58_17:                              # %for.end
	movl	-16(%rbp), %eax
	addl	$16, %eax
	movl	%eax, -20(%rbp)
	movl	$0, -12(%rbp)
.LBB58_18:                              # %for.cond27
                                        # =>This Inner Loop Header: Depth=1
	movl	-12(%rbp), %eax
	cmpl	-20(%rbp), %eax
	jge	.LBB58_21
# %bb.19:                               # %for.body29
                                        #   in Loop: Header=BB58_18 Depth=1
	movq	-40(%rbp), %rax
	movslq	-12(%rbp), %rcx
	movw	(%rax,%rcx,2), %ax
	movl	-12(%rbp), %ecx
	subl	-16(%rbp), %ecx
	movslq	%ecx, %rcx
	movw	%ax, line(,%rcx,2)
# %bb.20:                               # %for.inc35
                                        #   in Loop: Header=BB58_18 Depth=1
	movl	-12(%rbp), %eax
	addl	$1, %eax
	movl	%eax, -12(%rbp)
	jmp	.LBB58_18
.LBB58_21:                              # %for.end37
	jmp	.LBB58_37
.LBB58_22:                              # %if.else
	movl	-16(%rbp), %eax
	movl	-24(%rbp), %ecx
	subl	$16, %ecx
	cmpl	%ecx, %eax
	jle	.LBB58_35
# %bb.23:                               # %if.then40
	movl	-24(%rbp), %eax
	movl	%eax, -20(%rbp)
	movl	-16(%rbp), %eax
	movl	%eax, -12(%rbp)
.LBB58_24:                              # %for.cond41
                                        # =>This Inner Loop Header: Depth=1
	movl	-12(%rbp), %eax
	cmpl	-20(%rbp), %eax
	jge	.LBB58_27
# %bb.25:                               # %for.body43
                                        #   in Loop: Header=BB58_24 Depth=1
	movq	-40(%rbp), %rax
	movslq	-12(%rbp), %rcx
	movw	(%rax,%rcx,2), %ax
	movl	-12(%rbp), %ecx
	subl	-16(%rbp), %ecx
	movslq	%ecx, %rcx
	movw	%ax, line(,%rcx,2)
# %bb.26:                               # %for.inc49
                                        #   in Loop: Header=BB58_24 Depth=1
	movl	-12(%rbp), %eax
	addl	$1, %eax
	movl	%eax, -12(%rbp)
	jmp	.LBB58_24
.LBB58_27:                              # %for.end51
	movl	-16(%rbp), %eax
	addl	$16, %eax
	movl	%eax, -20(%rbp)
	movl	-24(%rbp), %eax
	cmpl	-16(%rbp), %eax
	jle	.LBB58_29
# %bb.28:                               # %cond.true54
	movl	-24(%rbp), %eax
	jmp	.LBB58_30
.LBB58_29:                              # %cond.false55
	movl	-16(%rbp), %eax
.LBB58_30:                              # %cond.end56
	movl	%eax, -12(%rbp)
.LBB58_31:                              # %for.cond58
                                        # =>This Inner Loop Header: Depth=1
	movl	-12(%rbp), %eax
	cmpl	-20(%rbp), %eax
	jge	.LBB58_34
# %bb.32:                               # %for.body60
                                        #   in Loop: Header=BB58_31 Depth=1
	movq	-40(%rbp), %rax
	movl	-24(%rbp), %ecx
	subl	$1, %ecx
	movslq	%ecx, %rcx
	movw	(%rax,%rcx,2), %ax
	movl	-12(%rbp), %ecx
	subl	-16(%rbp), %ecx
	movslq	%ecx, %rcx
	movw	%ax, line(,%rcx,2)
# %bb.33:                               # %for.inc67
                                        #   in Loop: Header=BB58_31 Depth=1
	movl	-12(%rbp), %eax
	addl	$1, %eax
	movl	%eax, -12(%rbp)
	jmp	.LBB58_31
.LBB58_34:                              # %for.end69
	jmp	.LBB58_36
.LBB58_35:                              # %if.else70
	movq	-40(%rbp), %rax
	movslq	-16(%rbp), %rcx
	shlq	$1, %rcx
	addq	%rcx, %rax
	movq	%rax, -56(%rbp)
	jmp	.LBB58_38
.LBB58_36:                              # %if.end
	jmp	.LBB58_37
.LBB58_37:                              # %if.end73
	movabsq	$line, %rax
	movq	%rax, -56(%rbp)
.LBB58_38:                              # %return
	movq	-56(%rbp), %rbx
	cmpl	$2027549282, -44(%rbp)  # imm = 0x78D9F262
	jne	.LBB58_40
.LBB58_39:
	movq	%rbx, %rax
	addq	$56, %rsp
	popq	%rbx
	popq	%rbp
	.cfi_def_cfa %rsp, 8
	retq
.LBB58_40:                              # %func_exit
	.cfi_def_cfa %rbp, 16
	callq	detect_breach
	jmp	.LBB58_39
.Lfunc_end58:
	.size	UMVLine16Y_11.51, .Lfunc_end58-UMVLine16Y_11.51
	.cfi_endproc
                                        # -- End function
	.globl	FastLineX.52            # -- Begin function FastLineX.52
	.p2align	4, 0x90
	.type	FastLineX.52,@function
FastLineX.52:                           # @FastLineX.52
	.cfi_startproc
# %bb.0:                                # %entry
	pushq	%rbp
	.cfi_def_cfa_offset 16
	.cfi_offset %rbp, -16
	movq	%rsp, %rbp
	.cfi_def_cfa_register %rbp
	pushq	%rbx
	subq	$40, %rsp
	.cfi_offset %rbx, -24
	movl	$1584268345, -16(%rbp)  # imm = 0x5E6E0439
	movl	%edi, -40(%rbp)
	movq	%rsi, -32(%rbp)
	movl	%edx, -20(%rbp)
	movl	%ecx, -12(%rbp)
	movl	%r8d, -36(%rbp)
	movl	%r9d, -24(%rbp)
	movq	-32(%rbp), %rbx
	movl	-20(%rbp), %eax
	imull	-24(%rbp), %eax
	cltq
	shlq	$1, %rax
	addq	%rax, %rbx
	movslq	-12(%rbp), %rax
	shlq	$1, %rax
	addq	%rax, %rbx
	cmpl	$1584268345, -16(%rbp)  # imm = 0x5E6E0439
	jne	.LBB59_2
.LBB59_1:
	movq	%rbx, %rax
	addq	$40, %rsp
	popq	%rbx
	popq	%rbp
	.cfi_def_cfa %rsp, 8
	retq
.LBB59_2:                               # %func_exit
	.cfi_def_cfa %rbp, 16
	callq	detect_breach
	jmp	.LBB59_1
.Lfunc_end59:
	.size	FastLineX.52, .Lfunc_end59-FastLineX.52
	.cfi_endproc
                                        # -- End function
	.globl	PutPel_14.53            # -- Begin function PutPel_14.53
	.p2align	4, 0x90
	.type	PutPel_14.53,@function
PutPel_14.53:                           # @PutPel_14.53
	.cfi_startproc
# %bb.0:                                # %entry
	pushq	%rbp
	.cfi_def_cfa_offset 16
	.cfi_offset %rbp, -16
	movq	%rsp, %rbp
	.cfi_def_cfa_register %rbp
	subq	$32, %rsp
	movl	$34344855, -12(%rbp)    # imm = 0x20C0F97
	movq	%rdi, -24(%rbp)
	movl	%esi, -8(%rbp)
	movl	%edx, -16(%rbp)
	movw	%cx, -2(%rbp)
	movw	-2(%rbp), %ax
	movq	-24(%rbp), %rcx
	movl	-8(%rbp), %edx
	addl	$16, %edx
	movslq	%edx, %rdx
	movq	(%rcx,%rdx,8), %rcx
	movl	-16(%rbp), %edx
	addl	$16, %edx
	movslq	%edx, %rdx
	movw	%ax, (%rcx,%rdx,2)
	cmpl	$34344855, -12(%rbp)    # imm = 0x20C0F97
	jne	.LBB60_2
.LBB60_1:
	addq	$32, %rsp
	popq	%rbp
	.cfi_def_cfa %rsp, 8
	retq
.LBB60_2:                               # %func_exit
	.cfi_def_cfa %rbp, 16
	callq	detect_breach
	jmp	.LBB60_1
.Lfunc_end60:
	.size	PutPel_14.53, .Lfunc_end60-PutPel_14.53
	.cfi_endproc
                                        # -- End function
	.globl	PutPel_11.54            # -- Begin function PutPel_11.54
	.p2align	4, 0x90
	.type	PutPel_11.54,@function
PutPel_11.54:                           # @PutPel_11.54
	.cfi_startproc
# %bb.0:                                # %entry
	pushq	%rbp
	.cfi_def_cfa_offset 16
	.cfi_offset %rbp, -16
	movq	%rsp, %rbp
	.cfi_def_cfa_register %rbp
	subq	$32, %rsp
	movl	$179703009, -12(%rbp)   # imm = 0xAB60CE1
	movq	%rdi, -32(%rbp)
	movl	%esi, -8(%rbp)
	movl	%edx, -16(%rbp)
	movw	%cx, -2(%rbp)
	movl	%r8d, -20(%rbp)
	movw	-2(%rbp), %ax
	movq	-32(%rbp), %rcx
	movl	-8(%rbp), %edx
	imull	-20(%rbp), %edx
	addl	-16(%rbp), %edx
	movslq	%edx, %rdx
	movw	%ax, (%rcx,%rdx,2)
	cmpl	$179703009, -12(%rbp)   # imm = 0xAB60CE1
	jne	.LBB61_2
.LBB61_1:
	addq	$32, %rsp
	popq	%rbp
	.cfi_def_cfa %rsp, 8
	retq
.LBB61_2:                               # %func_exit
	.cfi_def_cfa %rbp, 16
	callq	detect_breach
	jmp	.LBB61_1
.Lfunc_end61:
	.size	PutPel_11.54, .Lfunc_end61-PutPel_11.54
	.cfi_endproc
                                        # -- End function
	.globl	PutPel_14.55            # -- Begin function PutPel_14.55
	.p2align	4, 0x90
	.type	PutPel_14.55,@function
PutPel_14.55:                           # @PutPel_14.55
	.cfi_startproc
# %bb.0:                                # %entry
	pushq	%rbp
	.cfi_def_cfa_offset 16
	.cfi_offset %rbp, -16
	movq	%rsp, %rbp
	.cfi_def_cfa_register %rbp
	subq	$32, %rsp
	movl	$1980726768, -12(%rbp)  # imm = 0x760F7DF0
	movq	%rdi, -24(%rbp)
	movl	%esi, -16(%rbp)
	movl	%edx, -8(%rbp)
	movw	%cx, -2(%rbp)
	movw	-2(%rbp), %ax
	movq	-24(%rbp), %rcx
	movl	-16(%rbp), %edx
	addl	$16, %edx
	movslq	%edx, %rdx
	movq	(%rcx,%rdx,8), %rcx
	movl	-8(%rbp), %edx
	addl	$16, %edx
	movslq	%edx, %rdx
	movw	%ax, (%rcx,%rdx,2)
	cmpl	$1980726768, -12(%rbp)  # imm = 0x760F7DF0
	jne	.LBB62_2
.LBB62_1:
	addq	$32, %rsp
	popq	%rbp
	.cfi_def_cfa %rsp, 8
	retq
.LBB62_2:                               # %func_exit
	.cfi_def_cfa %rbp, 16
	callq	detect_breach
	jmp	.LBB62_1
.Lfunc_end62:
	.size	PutPel_14.55, .Lfunc_end62-PutPel_14.55
	.cfi_endproc
                                        # -- End function
	.globl	PutPel_11.56            # -- Begin function PutPel_11.56
	.p2align	4, 0x90
	.type	PutPel_11.56,@function
PutPel_11.56:                           # @PutPel_11.56
	.cfi_startproc
# %bb.0:                                # %entry
	pushq	%rbp
	.cfi_def_cfa_offset 16
	.cfi_offset %rbp, -16
	movq	%rsp, %rbp
	.cfi_def_cfa_register %rbp
	subq	$32, %rsp
	movl	$1309758691, -12(%rbp)  # imm = 0x4E1154E3
	movq	%rdi, -32(%rbp)
	movl	%esi, -16(%rbp)
	movl	%edx, -20(%rbp)
	movw	%cx, -2(%rbp)
	movl	%r8d, -8(%rbp)
	movw	-2(%rbp), %ax
	movq	-32(%rbp), %rcx
	movl	-16(%rbp), %edx
	imull	-8(%rbp), %edx
	addl	-20(%rbp), %edx
	movslq	%edx, %rdx
	movw	%ax, (%rcx,%rdx,2)
	cmpl	$1309758691, -12(%rbp)  # imm = 0x4E1154E3
	jne	.LBB63_2
.LBB63_1:
	addq	$32, %rsp
	popq	%rbp
	.cfi_def_cfa %rsp, 8
	retq
.LBB63_2:                               # %func_exit
	.cfi_def_cfa %rbp, 16
	callq	detect_breach
	jmp	.LBB63_1
.Lfunc_end63:
	.size	PutPel_11.56, .Lfunc_end63-PutPel_11.56
	.cfi_endproc
                                        # -- End function
	.globl	UMVPelY_14.57           # -- Begin function UMVPelY_14.57
	.p2align	4, 0x90
	.type	UMVPelY_14.57,@function
UMVPelY_14.57:                          # @UMVPelY_14.57
	.cfi_startproc
# %bb.0:                                # %entry
	pushq	%rbp
	.cfi_def_cfa_offset 16
	.cfi_offset %rbp, -16
	movq	%rsp, %rbp
	.cfi_def_cfa_register %rbp
	pushq	%rbx
	subq	$40, %rsp
	.cfi_offset %rbx, -24
	movl	$839697061, -40(%rbp)   # imm = 0x320CC2A5
	movq	%rdi, -32(%rbp)
	movl	%esi, -16(%rbp)
	movl	%edx, -20(%rbp)
	movl	%ecx, -44(%rbp)
	movl	%r8d, -48(%rbp)
	movl	-48(%rbp), %eax
	addl	$8, %eax
	subl	$1, %eax
	shll	$2, %eax
	movl	%eax, -36(%rbp)
	movl	-44(%rbp), %eax
	addl	$8, %eax
	subl	$1, %eax
	shll	$2, %eax
	movl	%eax, -24(%rbp)
	movl	-20(%rbp), %eax
	addl	$16, %eax
	movl	%eax, -20(%rbp)
	movl	-16(%rbp), %eax
	addl	$16, %eax
	movl	%eax, -16(%rbp)
	cmpl	$0, -20(%rbp)
	jge	.LBB64_6
# %bb.1:                                # %if.then
	cmpl	$0, -16(%rbp)
	jge	.LBB64_3
# %bb.2:                                # %if.then7
	movq	-32(%rbp), %rax
	movl	-16(%rbp), %ecx
	andl	$3, %ecx
	movslq	%ecx, %rcx
	movq	(%rax,%rcx,8), %rax
	movl	-20(%rbp), %ecx
	andl	$3, %ecx
	movslq	%ecx, %rcx
	movw	(%rax,%rcx,2), %ax
	movw	%ax, -10(%rbp)
	jmp	.LBB64_17
.LBB64_3:                               # %if.end
	movl	-16(%rbp), %eax
	cmpl	-24(%rbp), %eax
	jle	.LBB64_5
# %bb.4:                                # %if.then12
	movq	-32(%rbp), %rax
	movl	-24(%rbp), %ecx
	movl	-16(%rbp), %edx
	andl	$3, %edx
	addl	%edx, %ecx
	movslq	%ecx, %rcx
	movq	(%rax,%rcx,8), %rax
	movl	-20(%rbp), %ecx
	andl	$3, %ecx
	movslq	%ecx, %rcx
	movw	(%rax,%rcx,2), %ax
	movw	%ax, -10(%rbp)
	jmp	.LBB64_17
.LBB64_5:                               # %if.end20
	movq	-32(%rbp), %rax
	movslq	-16(%rbp), %rcx
	movq	(%rax,%rcx,8), %rax
	movl	-20(%rbp), %ecx
	andl	$3, %ecx
	movslq	%ecx, %rcx
	movw	(%rax,%rcx,2), %ax
	movw	%ax, -10(%rbp)
	jmp	.LBB64_17
.LBB64_6:                               # %if.end26
	movl	-20(%rbp), %eax
	cmpl	-36(%rbp), %eax
	jle	.LBB64_12
# %bb.7:                                # %if.then28
	cmpl	$0, -16(%rbp)
	jge	.LBB64_9
# %bb.8:                                # %if.then30
	movq	-32(%rbp), %rax
	movl	-16(%rbp), %ecx
	andl	$3, %ecx
	movslq	%ecx, %rcx
	movq	(%rax,%rcx,8), %rax
	movl	-36(%rbp), %ecx
	movl	-20(%rbp), %edx
	andl	$3, %edx
	addl	%edx, %ecx
	movslq	%ecx, %rcx
	movw	(%rax,%rcx,2), %ax
	movw	%ax, -10(%rbp)
	jmp	.LBB64_17
.LBB64_9:                               # %if.end38
	movl	-16(%rbp), %eax
	cmpl	-24(%rbp), %eax
	jle	.LBB64_11
# %bb.10:                               # %if.then40
	movq	-32(%rbp), %rax
	movl	-24(%rbp), %ecx
	movl	-16(%rbp), %edx
	andl	$3, %edx
	addl	%edx, %ecx
	movslq	%ecx, %rcx
	movq	(%rax,%rcx,8), %rax
	movl	-36(%rbp), %ecx
	movl	-20(%rbp), %edx
	andl	$3, %edx
	addl	%edx, %ecx
	movslq	%ecx, %rcx
	movw	(%rax,%rcx,2), %ax
	movw	%ax, -10(%rbp)
	jmp	.LBB64_17
.LBB64_11:                              # %if.end49
	movq	-32(%rbp), %rax
	movslq	-16(%rbp), %rcx
	movq	(%rax,%rcx,8), %rax
	movl	-36(%rbp), %ecx
	movl	-20(%rbp), %edx
	andl	$3, %edx
	addl	%edx, %ecx
	movslq	%ecx, %rcx
	movw	(%rax,%rcx,2), %ax
	movw	%ax, -10(%rbp)
	jmp	.LBB64_17
.LBB64_12:                              # %if.end56
	cmpl	$0, -16(%rbp)
	jge	.LBB64_14
# %bb.13:                               # %if.then58
	movq	-32(%rbp), %rax
	movl	-16(%rbp), %ecx
	andl	$3, %ecx
	movslq	%ecx, %rcx
	movq	(%rax,%rcx,8), %rax
	movslq	-20(%rbp), %rcx
	movw	(%rax,%rcx,2), %ax
	movw	%ax, -10(%rbp)
	jmp	.LBB64_17
.LBB64_14:                              # %if.end64
	movl	-16(%rbp), %eax
	cmpl	-24(%rbp), %eax
	jle	.LBB64_16
# %bb.15:                               # %if.then66
	movq	-32(%rbp), %rax
	movl	-24(%rbp), %ecx
	movl	-16(%rbp), %edx
	andl	$3, %edx
	addl	%edx, %ecx
	movslq	%ecx, %rcx
	movq	(%rax,%rcx,8), %rax
	movslq	-20(%rbp), %rcx
	movw	(%rax,%rcx,2), %ax
	movw	%ax, -10(%rbp)
	jmp	.LBB64_17
.LBB64_16:                              # %if.end73
	movq	-32(%rbp), %rax
	movslq	-16(%rbp), %rcx
	movq	(%rax,%rcx,8), %rax
	movslq	-20(%rbp), %rcx
	movw	(%rax,%rcx,2), %ax
	movw	%ax, -10(%rbp)
.LBB64_17:                              # %return
	movw	-10(%rbp), %bx
	cmpl	$839697061, -40(%rbp)   # imm = 0x320CC2A5
	jne	.LBB64_19
.LBB64_18:
	movzwl	%bx, %eax
	addq	$40, %rsp
	popq	%rbx
	popq	%rbp
	.cfi_def_cfa %rsp, 8
	retq
.LBB64_19:                              # %func_exit
	.cfi_def_cfa %rbp, 16
	callq	detect_breach
	jmp	.LBB64_18
.Lfunc_end64:
	.size	UMVPelY_14.57, .Lfunc_end64-UMVPelY_14.57
	.cfi_endproc
                                        # -- End function
	.globl	FastLineX.58            # -- Begin function FastLineX.58
	.p2align	4, 0x90
	.type	FastLineX.58,@function
FastLineX.58:                           # @FastLineX.58
	.cfi_startproc
# %bb.0:                                # %entry
	pushq	%rbp
	.cfi_def_cfa_offset 16
	.cfi_offset %rbp, -16
	movq	%rsp, %rbp
	.cfi_def_cfa_register %rbp
	pushq	%rbx
	subq	$40, %rsp
	.cfi_offset %rbx, -24
	movl	$1396694121, -20(%rbp)  # imm = 0x533FDC69
	movl	%edi, -36(%rbp)
	movq	%rsi, -32(%rbp)
	movl	%edx, -24(%rbp)
	movl	%ecx, -16(%rbp)
	movl	%r8d, -40(%rbp)
	movl	%r9d, -12(%rbp)
	movq	-32(%rbp), %rbx
	movl	-24(%rbp), %eax
	imull	-12(%rbp), %eax
	cltq
	shlq	$1, %rax
	addq	%rax, %rbx
	movslq	-16(%rbp), %rax
	shlq	$1, %rax
	addq	%rax, %rbx
	cmpl	$1396694121, -20(%rbp)  # imm = 0x533FDC69
	jne	.LBB65_2
.LBB65_1:
	movq	%rbx, %rax
	addq	$40, %rsp
	popq	%rbx
	popq	%rbp
	.cfi_def_cfa %rsp, 8
	retq
.LBB65_2:                               # %func_exit
	.cfi_def_cfa %rbp, 16
	callq	detect_breach
	jmp	.LBB65_1
.Lfunc_end65:
	.size	FastLineX.58, .Lfunc_end65-FastLineX.58
	.cfi_endproc
                                        # -- End function
	.globl	PutPel_11.59            # -- Begin function PutPel_11.59
	.p2align	4, 0x90
	.type	PutPel_11.59,@function
PutPel_11.59:                           # @PutPel_11.59
	.cfi_startproc
# %bb.0:                                # %entry
	pushq	%rbp
	.cfi_def_cfa_offset 16
	.cfi_offset %rbp, -16
	movq	%rsp, %rbp
	.cfi_def_cfa_register %rbp
	subq	$32, %rsp
	movl	$1310872508, -12(%rbp)  # imm = 0x4E2253BC
	movq	%rdi, -32(%rbp)
	movl	%esi, -16(%rbp)
	movl	%edx, -8(%rbp)
	movw	%cx, -2(%rbp)
	movl	%r8d, -20(%rbp)
	movw	-2(%rbp), %ax
	movq	-32(%rbp), %rcx
	movl	-16(%rbp), %edx
	imull	-20(%rbp), %edx
	addl	-8(%rbp), %edx
	movslq	%edx, %rdx
	movw	%ax, (%rcx,%rdx,2)
	cmpl	$1310872508, -12(%rbp)  # imm = 0x4E2253BC
	jne	.LBB66_2
.LBB66_1:
	addq	$32, %rsp
	popq	%rbp
	.cfi_def_cfa %rsp, 8
	retq
.LBB66_2:                               # %func_exit
	.cfi_def_cfa %rbp, 16
	callq	detect_breach
	jmp	.LBB66_1
.Lfunc_end66:
	.size	PutPel_11.59, .Lfunc_end66-PutPel_11.59
	.cfi_endproc
                                        # -- End function
	.globl	UMVPelY_14.60           # -- Begin function UMVPelY_14.60
	.p2align	4, 0x90
	.type	UMVPelY_14.60,@function
UMVPelY_14.60:                          # @UMVPelY_14.60
	.cfi_startproc
# %bb.0:                                # %entry
	pushq	%rbp
	.cfi_def_cfa_offset 16
	.cfi_offset %rbp, -16
	movq	%rsp, %rbp
	.cfi_def_cfa_register %rbp
	pushq	%rbx
	subq	$40, %rsp
	.cfi_offset %rbx, -24
	movl	$1134384043, -48(%rbp)  # imm = 0x439D53AB
	movq	%rdi, -32(%rbp)
	movl	%esi, -16(%rbp)
	movl	%edx, -20(%rbp)
	movl	%ecx, -44(%rbp)
	movl	%r8d, -40(%rbp)
	movl	-40(%rbp), %eax
	addl	$8, %eax
	subl	$1, %eax
	shll	$2, %eax
	movl	%eax, -36(%rbp)
	movl	-44(%rbp), %eax
	addl	$8, %eax
	subl	$1, %eax
	shll	$2, %eax
	movl	%eax, -24(%rbp)
	movl	-20(%rbp), %eax
	addl	$16, %eax
	movl	%eax, -20(%rbp)
	movl	-16(%rbp), %eax
	addl	$16, %eax
	movl	%eax, -16(%rbp)
	cmpl	$0, -20(%rbp)
	jge	.LBB67_6
# %bb.1:                                # %if.then
	cmpl	$0, -16(%rbp)
	jge	.LBB67_3
# %bb.2:                                # %if.then7
	movq	-32(%rbp), %rax
	movl	-16(%rbp), %ecx
	andl	$3, %ecx
	movslq	%ecx, %rcx
	movq	(%rax,%rcx,8), %rax
	movl	-20(%rbp), %ecx
	andl	$3, %ecx
	movslq	%ecx, %rcx
	movw	(%rax,%rcx,2), %ax
	movw	%ax, -10(%rbp)
	jmp	.LBB67_17
.LBB67_3:                               # %if.end
	movl	-16(%rbp), %eax
	cmpl	-24(%rbp), %eax
	jle	.LBB67_5
# %bb.4:                                # %if.then12
	movq	-32(%rbp), %rax
	movl	-24(%rbp), %ecx
	movl	-16(%rbp), %edx
	andl	$3, %edx
	addl	%edx, %ecx
	movslq	%ecx, %rcx
	movq	(%rax,%rcx,8), %rax
	movl	-20(%rbp), %ecx
	andl	$3, %ecx
	movslq	%ecx, %rcx
	movw	(%rax,%rcx,2), %ax
	movw	%ax, -10(%rbp)
	jmp	.LBB67_17
.LBB67_5:                               # %if.end20
	movq	-32(%rbp), %rax
	movslq	-16(%rbp), %rcx
	movq	(%rax,%rcx,8), %rax
	movl	-20(%rbp), %ecx
	andl	$3, %ecx
	movslq	%ecx, %rcx
	movw	(%rax,%rcx,2), %ax
	movw	%ax, -10(%rbp)
	jmp	.LBB67_17
.LBB67_6:                               # %if.end26
	movl	-20(%rbp), %eax
	cmpl	-36(%rbp), %eax
	jle	.LBB67_12
# %bb.7:                                # %if.then28
	cmpl	$0, -16(%rbp)
	jge	.LBB67_9
# %bb.8:                                # %if.then30
	movq	-32(%rbp), %rax
	movl	-16(%rbp), %ecx
	andl	$3, %ecx
	movslq	%ecx, %rcx
	movq	(%rax,%rcx,8), %rax
	movl	-36(%rbp), %ecx
	movl	-20(%rbp), %edx
	andl	$3, %edx
	addl	%edx, %ecx
	movslq	%ecx, %rcx
	movw	(%rax,%rcx,2), %ax
	movw	%ax, -10(%rbp)
	jmp	.LBB67_17
.LBB67_9:                               # %if.end38
	movl	-16(%rbp), %eax
	cmpl	-24(%rbp), %eax
	jle	.LBB67_11
# %bb.10:                               # %if.then40
	movq	-32(%rbp), %rax
	movl	-24(%rbp), %ecx
	movl	-16(%rbp), %edx
	andl	$3, %edx
	addl	%edx, %ecx
	movslq	%ecx, %rcx
	movq	(%rax,%rcx,8), %rax
	movl	-36(%rbp), %ecx
	movl	-20(%rbp), %edx
	andl	$3, %edx
	addl	%edx, %ecx
	movslq	%ecx, %rcx
	movw	(%rax,%rcx,2), %ax
	movw	%ax, -10(%rbp)
	jmp	.LBB67_17
.LBB67_11:                              # %if.end49
	movq	-32(%rbp), %rax
	movslq	-16(%rbp), %rcx
	movq	(%rax,%rcx,8), %rax
	movl	-36(%rbp), %ecx
	movl	-20(%rbp), %edx
	andl	$3, %edx
	addl	%edx, %ecx
	movslq	%ecx, %rcx
	movw	(%rax,%rcx,2), %ax
	movw	%ax, -10(%rbp)
	jmp	.LBB67_17
.LBB67_12:                              # %if.end56
	cmpl	$0, -16(%rbp)
	jge	.LBB67_14
# %bb.13:                               # %if.then58
	movq	-32(%rbp), %rax
	movl	-16(%rbp), %ecx
	andl	$3, %ecx
	movslq	%ecx, %rcx
	movq	(%rax,%rcx,8), %rax
	movslq	-20(%rbp), %rcx
	movw	(%rax,%rcx,2), %ax
	movw	%ax, -10(%rbp)
	jmp	.LBB67_17
.LBB67_14:                              # %if.end64
	movl	-16(%rbp), %eax
	cmpl	-24(%rbp), %eax
	jle	.LBB67_16
# %bb.15:                               # %if.then66
	movq	-32(%rbp), %rax
	movl	-24(%rbp), %ecx
	movl	-16(%rbp), %edx
	andl	$3, %edx
	addl	%edx, %ecx
	movslq	%ecx, %rcx
	movq	(%rax,%rcx,8), %rax
	movslq	-20(%rbp), %rcx
	movw	(%rax,%rcx,2), %ax
	movw	%ax, -10(%rbp)
	jmp	.LBB67_17
.LBB67_16:                              # %if.end73
	movq	-32(%rbp), %rax
	movslq	-16(%rbp), %rcx
	movq	(%rax,%rcx,8), %rax
	movslq	-20(%rbp), %rcx
	movw	(%rax,%rcx,2), %ax
	movw	%ax, -10(%rbp)
.LBB67_17:                              # %return
	movw	-10(%rbp), %bx
	cmpl	$1134384043, -48(%rbp)  # imm = 0x439D53AB
	jne	.LBB67_19
.LBB67_18:
	movzwl	%bx, %eax
	addq	$40, %rsp
	popq	%rbx
	popq	%rbp
	.cfi_def_cfa %rsp, 8
	retq
.LBB67_19:                              # %func_exit
	.cfi_def_cfa %rbp, 16
	callq	detect_breach
	jmp	.LBB67_18
.Lfunc_end67:
	.size	UMVPelY_14.60, .Lfunc_end67-UMVPelY_14.60
	.cfi_endproc
                                        # -- End function
	.globl	PutPel_11.61            # -- Begin function PutPel_11.61
	.p2align	4, 0x90
	.type	PutPel_11.61,@function
PutPel_11.61:                           # @PutPel_11.61
	.cfi_startproc
# %bb.0:                                # %entry
	pushq	%rbp
	.cfi_def_cfa_offset 16
	.cfi_offset %rbp, -16
	movq	%rsp, %rbp
	.cfi_def_cfa_register %rbp
	subq	$32, %rsp
	movl	$361134775, -16(%rbp)   # imm = 0x15867AB7
	movq	%rdi, -32(%rbp)
	movl	%esi, -20(%rbp)
	movl	%edx, -8(%rbp)
	movw	%cx, -2(%rbp)
	movl	%r8d, -12(%rbp)
	movw	-2(%rbp), %ax
	movq	-32(%rbp), %rcx
	movl	-20(%rbp), %edx
	imull	-12(%rbp), %edx
	addl	-8(%rbp), %edx
	movslq	%edx, %rdx
	movw	%ax, (%rcx,%rdx,2)
	cmpl	$361134775, -16(%rbp)   # imm = 0x15867AB7
	jne	.LBB68_2
.LBB68_1:
	addq	$32, %rsp
	popq	%rbp
	.cfi_def_cfa %rsp, 8
	retq
.LBB68_2:                               # %func_exit
	.cfi_def_cfa %rbp, 16
	callq	detect_breach
	jmp	.LBB68_1
.Lfunc_end68:
	.size	PutPel_11.61, .Lfunc_end68-PutPel_11.61
	.cfi_endproc
                                        # -- End function
	.globl	UMVLine16Y_11.62        # -- Begin function UMVLine16Y_11.62
	.p2align	4, 0x90
	.type	UMVLine16Y_11.62,@function
UMVLine16Y_11.62:                       # @UMVLine16Y_11.62
	.cfi_startproc
# %bb.0:                                # %entry
	pushq	%rbp
	.cfi_def_cfa_offset 16
	.cfi_offset %rbp, -16
	movq	%rsp, %rbp
	.cfi_def_cfa_register %rbp
	pushq	%rbx
	subq	$56, %rsp
	.cfi_offset %rbx, -24
	movl	$1536560605, -44(%rbp)  # imm = 0x5B960DDD
	movq	%rdi, -64(%rbp)
	movl	%esi, -28(%rbp)
	movl	%edx, -16(%rbp)
	movl	%ecx, -32(%rbp)
	movl	%r8d, -24(%rbp)
	movq	-64(%rbp), %rax
	movl	-32(%rbp), %ecx
	subl	$1, %ecx
	cmpl	-28(%rbp), %ecx
	jge	.LBB69_2
# %bb.1:                                # %cond.true
	movl	-32(%rbp), %ecx
	subl	$1, %ecx
	jmp	.LBB69_3
.LBB69_2:                               # %cond.false
	movl	-28(%rbp), %ecx
.LBB69_3:                               # %cond.end
	xorl	%edx, %edx
	cmpl	%ecx, %edx
	jle	.LBB69_5
# %bb.4:                                # %cond.true3
	xorl	%ecx, %ecx
	jmp	.LBB69_9
.LBB69_5:                               # %cond.false4
	movl	-32(%rbp), %ecx
	subl	$1, %ecx
	cmpl	-28(%rbp), %ecx
	jge	.LBB69_7
# %bb.6:                                # %cond.true7
	movl	-32(%rbp), %ecx
	subl	$1, %ecx
	jmp	.LBB69_8
.LBB69_7:                               # %cond.false9
	movl	-28(%rbp), %ecx
.LBB69_8:                               # %cond.end10
.LBB69_9:                               # %cond.end12
	imull	-24(%rbp), %ecx
	movslq	%ecx, %rcx
	shlq	$1, %rcx
	addq	%rcx, %rax
	movq	%rax, -40(%rbp)
	cmpl	$0, -16(%rbp)
	jge	.LBB69_22
# %bb.10:                               # %if.then
	xorl	%eax, %eax
	movl	-16(%rbp), %ecx
	addl	$16, %ecx
	cmpl	%ecx, %eax
	jge	.LBB69_12
# %bb.11:                               # %cond.true16
	xorl	%eax, %eax
	jmp	.LBB69_13
.LBB69_12:                              # %cond.false17
	movl	-16(%rbp), %eax
	addl	$16, %eax
.LBB69_13:                              # %cond.end19
	movl	%eax, -20(%rbp)
	movl	-16(%rbp), %eax
	movl	%eax, -12(%rbp)
.LBB69_14:                              # %for.cond
                                        # =>This Inner Loop Header: Depth=1
	movl	-12(%rbp), %eax
	cmpl	-20(%rbp), %eax
	jge	.LBB69_17
# %bb.15:                               # %for.body
                                        #   in Loop: Header=BB69_14 Depth=1
	movq	-40(%rbp), %rax
	movw	(%rax), %ax
	movl	-12(%rbp), %ecx
	subl	-16(%rbp), %ecx
	movslq	%ecx, %rcx
	movw	%ax, line(,%rcx,2)
# %bb.16:                               # %for.inc
                                        #   in Loop: Header=BB69_14 Depth=1
	movl	-12(%rbp), %eax
	addl	$1, %eax
	movl	%eax, -12(%rbp)
	jmp	.LBB69_14
.LBB69_17:                              # %for.end
	movl	-16(%rbp), %eax
	addl	$16, %eax
	movl	%eax, -20(%rbp)
	movl	$0, -12(%rbp)
.LBB69_18:                              # %for.cond27
                                        # =>This Inner Loop Header: Depth=1
	movl	-12(%rbp), %eax
	cmpl	-20(%rbp), %eax
	jge	.LBB69_21
# %bb.19:                               # %for.body29
                                        #   in Loop: Header=BB69_18 Depth=1
	movq	-40(%rbp), %rax
	movslq	-12(%rbp), %rcx
	movw	(%rax,%rcx,2), %ax
	movl	-12(%rbp), %ecx
	subl	-16(%rbp), %ecx
	movslq	%ecx, %rcx
	movw	%ax, line(,%rcx,2)
# %bb.20:                               # %for.inc35
                                        #   in Loop: Header=BB69_18 Depth=1
	movl	-12(%rbp), %eax
	addl	$1, %eax
	movl	%eax, -12(%rbp)
	jmp	.LBB69_18
.LBB69_21:                              # %for.end37
	jmp	.LBB69_37
.LBB69_22:                              # %if.else
	movl	-16(%rbp), %eax
	movl	-24(%rbp), %ecx
	subl	$16, %ecx
	cmpl	%ecx, %eax
	jle	.LBB69_35
# %bb.23:                               # %if.then40
	movl	-24(%rbp), %eax
	movl	%eax, -20(%rbp)
	movl	-16(%rbp), %eax
	movl	%eax, -12(%rbp)
.LBB69_24:                              # %for.cond41
                                        # =>This Inner Loop Header: Depth=1
	movl	-12(%rbp), %eax
	cmpl	-20(%rbp), %eax
	jge	.LBB69_27
# %bb.25:                               # %for.body43
                                        #   in Loop: Header=BB69_24 Depth=1
	movq	-40(%rbp), %rax
	movslq	-12(%rbp), %rcx
	movw	(%rax,%rcx,2), %ax
	movl	-12(%rbp), %ecx
	subl	-16(%rbp), %ecx
	movslq	%ecx, %rcx
	movw	%ax, line(,%rcx,2)
# %bb.26:                               # %for.inc49
                                        #   in Loop: Header=BB69_24 Depth=1
	movl	-12(%rbp), %eax
	addl	$1, %eax
	movl	%eax, -12(%rbp)
	jmp	.LBB69_24
.LBB69_27:                              # %for.end51
	movl	-16(%rbp), %eax
	addl	$16, %eax
	movl	%eax, -20(%rbp)
	movl	-24(%rbp), %eax
	cmpl	-16(%rbp), %eax
	jle	.LBB69_29
# %bb.28:                               # %cond.true54
	movl	-24(%rbp), %eax
	jmp	.LBB69_30
.LBB69_29:                              # %cond.false55
	movl	-16(%rbp), %eax
.LBB69_30:                              # %cond.end56
	movl	%eax, -12(%rbp)
.LBB69_31:                              # %for.cond58
                                        # =>This Inner Loop Header: Depth=1
	movl	-12(%rbp), %eax
	cmpl	-20(%rbp), %eax
	jge	.LBB69_34
# %bb.32:                               # %for.body60
                                        #   in Loop: Header=BB69_31 Depth=1
	movq	-40(%rbp), %rax
	movl	-24(%rbp), %ecx
	subl	$1, %ecx
	movslq	%ecx, %rcx
	movw	(%rax,%rcx,2), %ax
	movl	-12(%rbp), %ecx
	subl	-16(%rbp), %ecx
	movslq	%ecx, %rcx
	movw	%ax, line(,%rcx,2)
# %bb.33:                               # %for.inc67
                                        #   in Loop: Header=BB69_31 Depth=1
	movl	-12(%rbp), %eax
	addl	$1, %eax
	movl	%eax, -12(%rbp)
	jmp	.LBB69_31
.LBB69_34:                              # %for.end69
	jmp	.LBB69_36
.LBB69_35:                              # %if.else70
	movq	-40(%rbp), %rax
	movslq	-16(%rbp), %rcx
	shlq	$1, %rcx
	addq	%rcx, %rax
	movq	%rax, -56(%rbp)
	jmp	.LBB69_38
.LBB69_36:                              # %if.end
	jmp	.LBB69_37
.LBB69_37:                              # %if.end73
	movabsq	$line, %rax
	movq	%rax, -56(%rbp)
.LBB69_38:                              # %return
	movq	-56(%rbp), %rbx
	cmpl	$1536560605, -44(%rbp)  # imm = 0x5B960DDD
	jne	.LBB69_40
.LBB69_39:
	movq	%rbx, %rax
	addq	$56, %rsp
	popq	%rbx
	popq	%rbp
	.cfi_def_cfa %rsp, 8
	retq
.LBB69_40:                              # %func_exit
	.cfi_def_cfa %rbp, 16
	callq	detect_breach
	jmp	.LBB69_39
.Lfunc_end69:
	.size	UMVLine16Y_11.62, .Lfunc_end69-UMVLine16Y_11.62
	.cfi_endproc
                                        # -- End function
	.globl	PutPel_11.63            # -- Begin function PutPel_11.63
	.p2align	4, 0x90
	.type	PutPel_11.63,@function
PutPel_11.63:                           # @PutPel_11.63
	.cfi_startproc
# %bb.0:                                # %entry
	pushq	%rbp
	.cfi_def_cfa_offset 16
	.cfi_offset %rbp, -16
	movq	%rsp, %rbp
	.cfi_def_cfa_register %rbp
	subq	$32, %rsp
	movl	$1822987318, -16(%rbp)  # imm = 0x6CA89436
	movq	%rdi, -32(%rbp)
	movl	%esi, -12(%rbp)
	movl	%edx, -8(%rbp)
	movw	%cx, -2(%rbp)
	movl	%r8d, -20(%rbp)
	movw	-2(%rbp), %ax
	movq	-32(%rbp), %rcx
	movl	-12(%rbp), %edx
	imull	-20(%rbp), %edx
	addl	-8(%rbp), %edx
	movslq	%edx, %rdx
	movw	%ax, (%rcx,%rdx,2)
	cmpl	$1822987318, -16(%rbp)  # imm = 0x6CA89436
	jne	.LBB70_2
.LBB70_1:
	addq	$32, %rsp
	popq	%rbp
	.cfi_def_cfa %rsp, 8
	retq
.LBB70_2:                               # %func_exit
	.cfi_def_cfa %rbp, 16
	callq	detect_breach
	jmp	.LBB70_1
.Lfunc_end70:
	.size	PutPel_11.63, .Lfunc_end70-PutPel_11.63
	.cfi_endproc
                                        # -- End function
	.globl	PutPel_11.64            # -- Begin function PutPel_11.64
	.p2align	4, 0x90
	.type	PutPel_11.64,@function
PutPel_11.64:                           # @PutPel_11.64
	.cfi_startproc
# %bb.0:                                # %entry
	pushq	%rbp
	.cfi_def_cfa_offset 16
	.cfi_offset %rbp, -16
	movq	%rsp, %rbp
	.cfi_def_cfa_register %rbp
	subq	$32, %rsp
	movl	$525921761, -8(%rbp)    # imm = 0x1F58EDE1
	movq	%rdi, -32(%rbp)
	movl	%esi, -16(%rbp)
	movl	%edx, -20(%rbp)
	movw	%cx, -2(%rbp)
	movl	%r8d, -12(%rbp)
	movw	-2(%rbp), %ax
	movq	-32(%rbp), %rcx
	movl	-16(%rbp), %edx
	imull	-12(%rbp), %edx
	addl	-20(%rbp), %edx
	movslq	%edx, %rdx
	movw	%ax, (%rcx,%rdx,2)
	cmpl	$525921761, -8(%rbp)    # imm = 0x1F58EDE1
	jne	.LBB71_2
.LBB71_1:
	addq	$32, %rsp
	popq	%rbp
	.cfi_def_cfa %rsp, 8
	retq
.LBB71_2:                               # %func_exit
	.cfi_def_cfa %rbp, 16
	callq	detect_breach
	jmp	.LBB71_1
.Lfunc_end71:
	.size	PutPel_11.64, .Lfunc_end71-PutPel_11.64
	.cfi_endproc
                                        # -- End function
	.globl	UMVPelY_14.65           # -- Begin function UMVPelY_14.65
	.p2align	4, 0x90
	.type	UMVPelY_14.65,@function
UMVPelY_14.65:                          # @UMVPelY_14.65
	.cfi_startproc
# %bb.0:                                # %entry
	pushq	%rbp
	.cfi_def_cfa_offset 16
	.cfi_offset %rbp, -16
	movq	%rsp, %rbp
	.cfi_def_cfa_register %rbp
	pushq	%rbx
	subq	$40, %rsp
	.cfi_offset %rbx, -24
	movl	$1613770738, -48(%rbp)  # imm = 0x60302FF2
	movq	%rdi, -32(%rbp)
	movl	%esi, -16(%rbp)
	movl	%edx, -20(%rbp)
	movl	%ecx, -40(%rbp)
	movl	%r8d, -44(%rbp)
	movl	-44(%rbp), %eax
	addl	$8, %eax
	subl	$1, %eax
	shll	$2, %eax
	movl	%eax, -36(%rbp)
	movl	-40(%rbp), %eax
	addl	$8, %eax
	subl	$1, %eax
	shll	$2, %eax
	movl	%eax, -24(%rbp)
	movl	-20(%rbp), %eax
	addl	$16, %eax
	movl	%eax, -20(%rbp)
	movl	-16(%rbp), %eax
	addl	$16, %eax
	movl	%eax, -16(%rbp)
	cmpl	$0, -20(%rbp)
	jge	.LBB72_6
# %bb.1:                                # %if.then
	cmpl	$0, -16(%rbp)
	jge	.LBB72_3
# %bb.2:                                # %if.then7
	movq	-32(%rbp), %rax
	movl	-16(%rbp), %ecx
	andl	$3, %ecx
	movslq	%ecx, %rcx
	movq	(%rax,%rcx,8), %rax
	movl	-20(%rbp), %ecx
	andl	$3, %ecx
	movslq	%ecx, %rcx
	movw	(%rax,%rcx,2), %ax
	movw	%ax, -10(%rbp)
	jmp	.LBB72_17
.LBB72_3:                               # %if.end
	movl	-16(%rbp), %eax
	cmpl	-24(%rbp), %eax
	jle	.LBB72_5
# %bb.4:                                # %if.then12
	movq	-32(%rbp), %rax
	movl	-24(%rbp), %ecx
	movl	-16(%rbp), %edx
	andl	$3, %edx
	addl	%edx, %ecx
	movslq	%ecx, %rcx
	movq	(%rax,%rcx,8), %rax
	movl	-20(%rbp), %ecx
	andl	$3, %ecx
	movslq	%ecx, %rcx
	movw	(%rax,%rcx,2), %ax
	movw	%ax, -10(%rbp)
	jmp	.LBB72_17
.LBB72_5:                               # %if.end20
	movq	-32(%rbp), %rax
	movslq	-16(%rbp), %rcx
	movq	(%rax,%rcx,8), %rax
	movl	-20(%rbp), %ecx
	andl	$3, %ecx
	movslq	%ecx, %rcx
	movw	(%rax,%rcx,2), %ax
	movw	%ax, -10(%rbp)
	jmp	.LBB72_17
.LBB72_6:                               # %if.end26
	movl	-20(%rbp), %eax
	cmpl	-36(%rbp), %eax
	jle	.LBB72_12
# %bb.7:                                # %if.then28
	cmpl	$0, -16(%rbp)
	jge	.LBB72_9
# %bb.8:                                # %if.then30
	movq	-32(%rbp), %rax
	movl	-16(%rbp), %ecx
	andl	$3, %ecx
	movslq	%ecx, %rcx
	movq	(%rax,%rcx,8), %rax
	movl	-36(%rbp), %ecx
	movl	-20(%rbp), %edx
	andl	$3, %edx
	addl	%edx, %ecx
	movslq	%ecx, %rcx
	movw	(%rax,%rcx,2), %ax
	movw	%ax, -10(%rbp)
	jmp	.LBB72_17
.LBB72_9:                               # %if.end38
	movl	-16(%rbp), %eax
	cmpl	-24(%rbp), %eax
	jle	.LBB72_11
# %bb.10:                               # %if.then40
	movq	-32(%rbp), %rax
	movl	-24(%rbp), %ecx
	movl	-16(%rbp), %edx
	andl	$3, %edx
	addl	%edx, %ecx
	movslq	%ecx, %rcx
	movq	(%rax,%rcx,8), %rax
	movl	-36(%rbp), %ecx
	movl	-20(%rbp), %edx
	andl	$3, %edx
	addl	%edx, %ecx
	movslq	%ecx, %rcx
	movw	(%rax,%rcx,2), %ax
	movw	%ax, -10(%rbp)
	jmp	.LBB72_17
.LBB72_11:                              # %if.end49
	movq	-32(%rbp), %rax
	movslq	-16(%rbp), %rcx
	movq	(%rax,%rcx,8), %rax
	movl	-36(%rbp), %ecx
	movl	-20(%rbp), %edx
	andl	$3, %edx
	addl	%edx, %ecx
	movslq	%ecx, %rcx
	movw	(%rax,%rcx,2), %ax
	movw	%ax, -10(%rbp)
	jmp	.LBB72_17
.LBB72_12:                              # %if.end56
	cmpl	$0, -16(%rbp)
	jge	.LBB72_14
# %bb.13:                               # %if.then58
	movq	-32(%rbp), %rax
	movl	-16(%rbp), %ecx
	andl	$3, %ecx
	movslq	%ecx, %rcx
	movq	(%rax,%rcx,8), %rax
	movslq	-20(%rbp), %rcx
	movw	(%rax,%rcx,2), %ax
	movw	%ax, -10(%rbp)
	jmp	.LBB72_17
.LBB72_14:                              # %if.end64
	movl	-16(%rbp), %eax
	cmpl	-24(%rbp), %eax
	jle	.LBB72_16
# %bb.15:                               # %if.then66
	movq	-32(%rbp), %rax
	movl	-24(%rbp), %ecx
	movl	-16(%rbp), %edx
	andl	$3, %edx
	addl	%edx, %ecx
	movslq	%ecx, %rcx
	movq	(%rax,%rcx,8), %rax
	movslq	-20(%rbp), %rcx
	movw	(%rax,%rcx,2), %ax
	movw	%ax, -10(%rbp)
	jmp	.LBB72_17
.LBB72_16:                              # %if.end73
	movq	-32(%rbp), %rax
	movslq	-16(%rbp), %rcx
	movq	(%rax,%rcx,8), %rax
	movslq	-20(%rbp), %rcx
	movw	(%rax,%rcx,2), %ax
	movw	%ax, -10(%rbp)
.LBB72_17:                              # %return
	movw	-10(%rbp), %bx
	cmpl	$1613770738, -48(%rbp)  # imm = 0x60302FF2
	jne	.LBB72_19
.LBB72_18:
	movzwl	%bx, %eax
	addq	$40, %rsp
	popq	%rbx
	popq	%rbp
	.cfi_def_cfa %rsp, 8
	retq
.LBB72_19:                              # %func_exit
	.cfi_def_cfa %rbp, 16
	callq	detect_breach
	jmp	.LBB72_18
.Lfunc_end72:
	.size	UMVPelY_14.65, .Lfunc_end72-UMVPelY_14.65
	.cfi_endproc
                                        # -- End function
	.globl	FastPelY_14.66          # -- Begin function FastPelY_14.66
	.p2align	4, 0x90
	.type	FastPelY_14.66,@function
FastPelY_14.66:                         # @FastPelY_14.66
	.cfi_startproc
# %bb.0:                                # %entry
	pushq	%rbp
	.cfi_def_cfa_offset 16
	.cfi_offset %rbp, -16
	movq	%rsp, %rbp
	.cfi_def_cfa_register %rbp
	pushq	%rbx
	subq	$40, %rsp
	.cfi_offset %rbx, -24
	movl	$434601069, -20(%rbp)   # imm = 0x19E77C6D
	movq	%rdi, -32(%rbp)
	movl	%esi, -12(%rbp)
	movl	%edx, -16(%rbp)
	movl	%ecx, -36(%rbp)
	movl	%r8d, -40(%rbp)
	movq	-32(%rbp), %rax
	movl	-12(%rbp), %ecx
	addl	$16, %ecx
	movslq	%ecx, %rcx
	movq	(%rax,%rcx,8), %rax
	movl	-16(%rbp), %ecx
	addl	$16, %ecx
	movslq	%ecx, %rcx
	movw	(%rax,%rcx,2), %bx
	cmpl	$434601069, -20(%rbp)   # imm = 0x19E77C6D
	jne	.LBB73_2
.LBB73_1:
	movzwl	%bx, %eax
	addq	$40, %rsp
	popq	%rbx
	popq	%rbp
	.cfi_def_cfa %rsp, 8
	retq
.LBB73_2:                               # %func_exit
	.cfi_def_cfa %rbp, 16
	callq	detect_breach
	jmp	.LBB73_1
.Lfunc_end73:
	.size	FastPelY_14.66, .Lfunc_end73-FastPelY_14.66
	.cfi_endproc
                                        # -- End function
	.globl	PutPel_11.67            # -- Begin function PutPel_11.67
	.p2align	4, 0x90
	.type	PutPel_11.67,@function
PutPel_11.67:                           # @PutPel_11.67
	.cfi_startproc
# %bb.0:                                # %entry
	pushq	%rbp
	.cfi_def_cfa_offset 16
	.cfi_offset %rbp, -16
	movq	%rsp, %rbp
	.cfi_def_cfa_register %rbp
	subq	$32, %rsp
	movl	$126096981, -20(%rbp)   # imm = 0x7841655
	movq	%rdi, -32(%rbp)
	movl	%esi, -12(%rbp)
	movl	%edx, -16(%rbp)
	movw	%cx, -2(%rbp)
	movl	%r8d, -8(%rbp)
	movw	-2(%rbp), %ax
	movq	-32(%rbp), %rcx
	movl	-12(%rbp), %edx
	imull	-8(%rbp), %edx
	addl	-16(%rbp), %edx
	movslq	%edx, %rdx
	movw	%ax, (%rcx,%rdx,2)
	cmpl	$126096981, -20(%rbp)   # imm = 0x7841655
	jne	.LBB74_2
.LBB74_1:
	addq	$32, %rsp
	popq	%rbp
	.cfi_def_cfa %rsp, 8
	retq
.LBB74_2:                               # %func_exit
	.cfi_def_cfa %rbp, 16
	callq	detect_breach
	jmp	.LBB74_1
.Lfunc_end74:
	.size	PutPel_11.67, .Lfunc_end74-PutPel_11.67
	.cfi_endproc
                                        # -- End function
	.globl	FastLine16Y_11.68       # -- Begin function FastLine16Y_11.68
	.p2align	4, 0x90
	.type	FastLine16Y_11.68,@function
FastLine16Y_11.68:                      # @FastLine16Y_11.68
	.cfi_startproc
# %bb.0:                                # %entry
	pushq	%rbp
	.cfi_def_cfa_offset 16
	.cfi_offset %rbp, -16
	movq	%rsp, %rbp
	.cfi_def_cfa_register %rbp
	pushq	%rbx
	subq	$40, %rsp
	.cfi_offset %rbx, -24
	movl	$1037822396, -24(%rbp)  # imm = 0x3DDBE9BC
	movq	%rdi, -32(%rbp)
	movl	%esi, -16(%rbp)
	movl	%edx, -12(%rbp)
	movl	%ecx, -36(%rbp)
	movl	%r8d, -20(%rbp)
	movq	-32(%rbp), %rbx
	movl	-16(%rbp), %eax
	imull	-20(%rbp), %eax
	addl	-12(%rbp), %eax
	cltq
	shlq	$1, %rax
	addq	%rax, %rbx
	cmpl	$1037822396, -24(%rbp)  # imm = 0x3DDBE9BC
	jne	.LBB75_2
.LBB75_1:
	movq	%rbx, %rax
	addq	$40, %rsp
	popq	%rbx
	popq	%rbp
	.cfi_def_cfa %rsp, 8
	retq
.LBB75_2:                               # %func_exit
	.cfi_def_cfa %rbp, 16
	callq	detect_breach
	jmp	.LBB75_1
.Lfunc_end75:
	.size	FastLine16Y_11.68, .Lfunc_end75-FastLine16Y_11.68
	.cfi_endproc
                                        # -- End function
	.globl	FastLineX.69            # -- Begin function FastLineX.69
	.p2align	4, 0x90
	.type	FastLineX.69,@function
FastLineX.69:                           # @FastLineX.69
	.cfi_startproc
# %bb.0:                                # %entry
	pushq	%rbp
	.cfi_def_cfa_offset 16
	.cfi_offset %rbp, -16
	movq	%rsp, %rbp
	.cfi_def_cfa_register %rbp
	pushq	%rbx
	subq	$40, %rsp
	.cfi_offset %rbx, -24
	movl	$101227092, -16(%rbp)   # imm = 0x6089A54
	movl	%edi, -36(%rbp)
	movq	%rsi, -32(%rbp)
	movl	%edx, -12(%rbp)
	movl	%ecx, -20(%rbp)
	movl	%r8d, -40(%rbp)
	movl	%r9d, -24(%rbp)
	movq	-32(%rbp), %rbx
	movl	-12(%rbp), %eax
	imull	-24(%rbp), %eax
	cltq
	shlq	$1, %rax
	addq	%rax, %rbx
	movslq	-20(%rbp), %rax
	shlq	$1, %rax
	addq	%rax, %rbx
	cmpl	$101227092, -16(%rbp)   # imm = 0x6089A54
	jne	.LBB76_2
.LBB76_1:
	movq	%rbx, %rax
	addq	$40, %rsp
	popq	%rbx
	popq	%rbp
	.cfi_def_cfa %rsp, 8
	retq
.LBB76_2:                               # %func_exit
	.cfi_def_cfa %rbp, 16
	callq	detect_breach
	jmp	.LBB76_1
.Lfunc_end76:
	.size	FastLineX.69, .Lfunc_end76-FastLineX.69
	.cfi_endproc
                                        # -- End function
	.globl	PutPel_14.70            # -- Begin function PutPel_14.70
	.p2align	4, 0x90
	.type	PutPel_14.70,@function
PutPel_14.70:                           # @PutPel_14.70
	.cfi_startproc
# %bb.0:                                # %entry
	pushq	%rbp
	.cfi_def_cfa_offset 16
	.cfi_offset %rbp, -16
	movq	%rsp, %rbp
	.cfi_def_cfa_register %rbp
	subq	$32, %rsp
	movl	$1898773546, -16(%rbp)  # imm = 0x712CFC2A
	movq	%rdi, -24(%rbp)
	movl	%esi, -8(%rbp)
	movl	%edx, -12(%rbp)
	movw	%cx, -2(%rbp)
	movw	-2(%rbp), %ax
	movq	-24(%rbp), %rcx
	movl	-8(%rbp), %edx
	addl	$16, %edx
	movslq	%edx, %rdx
	movq	(%rcx,%rdx,8), %rcx
	movl	-12(%rbp), %edx
	addl	$16, %edx
	movslq	%edx, %rdx
	movw	%ax, (%rcx,%rdx,2)
	cmpl	$1898773546, -16(%rbp)  # imm = 0x712CFC2A
	jne	.LBB77_2
.LBB77_1:
	addq	$32, %rsp
	popq	%rbp
	.cfi_def_cfa %rsp, 8
	retq
.LBB77_2:                               # %func_exit
	.cfi_def_cfa %rbp, 16
	callq	detect_breach
	jmp	.LBB77_1
.Lfunc_end77:
	.size	PutPel_14.70, .Lfunc_end77-PutPel_14.70
	.cfi_endproc
                                        # -- End function
	.globl	FastLine16Y_11.71       # -- Begin function FastLine16Y_11.71
	.p2align	4, 0x90
	.type	FastLine16Y_11.71,@function
FastLine16Y_11.71:                      # @FastLine16Y_11.71
	.cfi_startproc
# %bb.0:                                # %entry
	pushq	%rbp
	.cfi_def_cfa_offset 16
	.cfi_offset %rbp, -16
	movq	%rsp, %rbp
	.cfi_def_cfa_register %rbp
	pushq	%rbx
	subq	$40, %rsp
	.cfi_offset %rbx, -24
	movl	$205675112, -16(%rbp)   # imm = 0xC425A68
	movq	%rdi, -32(%rbp)
	movl	%esi, -24(%rbp)
	movl	%edx, -12(%rbp)
	movl	%ecx, -36(%rbp)
	movl	%r8d, -20(%rbp)
	movq	-32(%rbp), %rbx
	movl	-24(%rbp), %eax
	imull	-20(%rbp), %eax
	addl	-12(%rbp), %eax
	cltq
	shlq	$1, %rax
	addq	%rax, %rbx
	cmpl	$205675112, -16(%rbp)   # imm = 0xC425A68
	jne	.LBB78_2
.LBB78_1:
	movq	%rbx, %rax
	addq	$40, %rsp
	popq	%rbx
	popq	%rbp
	.cfi_def_cfa %rsp, 8
	retq
.LBB78_2:                               # %func_exit
	.cfi_def_cfa %rbp, 16
	callq	detect_breach
	jmp	.LBB78_1
.Lfunc_end78:
	.size	FastLine16Y_11.71, .Lfunc_end78-FastLine16Y_11.71
	.cfi_endproc
                                        # -- End function
	.globl	UMVPelY_14.72           # -- Begin function UMVPelY_14.72
	.p2align	4, 0x90
	.type	UMVPelY_14.72,@function
UMVPelY_14.72:                          # @UMVPelY_14.72
	.cfi_startproc
# %bb.0:                                # %entry
	pushq	%rbp
	.cfi_def_cfa_offset 16
	.cfi_offset %rbp, -16
	movq	%rsp, %rbp
	.cfi_def_cfa_register %rbp
	pushq	%rbx
	subq	$40, %rsp
	.cfi_offset %rbx, -24
	movl	$1431645700, -48(%rbp)  # imm = 0x55552E04
	movq	%rdi, -32(%rbp)
	movl	%esi, -16(%rbp)
	movl	%edx, -20(%rbp)
	movl	%ecx, -44(%rbp)
	movl	%r8d, -40(%rbp)
	movl	-40(%rbp), %eax
	addl	$8, %eax
	subl	$1, %eax
	shll	$2, %eax
	movl	%eax, -36(%rbp)
	movl	-44(%rbp), %eax
	addl	$8, %eax
	subl	$1, %eax
	shll	$2, %eax
	movl	%eax, -24(%rbp)
	movl	-20(%rbp), %eax
	addl	$16, %eax
	movl	%eax, -20(%rbp)
	movl	-16(%rbp), %eax
	addl	$16, %eax
	movl	%eax, -16(%rbp)
	cmpl	$0, -20(%rbp)
	jge	.LBB79_6
# %bb.1:                                # %if.then
	cmpl	$0, -16(%rbp)
	jge	.LBB79_3
# %bb.2:                                # %if.then7
	movq	-32(%rbp), %rax
	movl	-16(%rbp), %ecx
	andl	$3, %ecx
	movslq	%ecx, %rcx
	movq	(%rax,%rcx,8), %rax
	movl	-20(%rbp), %ecx
	andl	$3, %ecx
	movslq	%ecx, %rcx
	movw	(%rax,%rcx,2), %ax
	movw	%ax, -10(%rbp)
	jmp	.LBB79_17
.LBB79_3:                               # %if.end
	movl	-16(%rbp), %eax
	cmpl	-24(%rbp), %eax
	jle	.LBB79_5
# %bb.4:                                # %if.then12
	movq	-32(%rbp), %rax
	movl	-24(%rbp), %ecx
	movl	-16(%rbp), %edx
	andl	$3, %edx
	addl	%edx, %ecx
	movslq	%ecx, %rcx
	movq	(%rax,%rcx,8), %rax
	movl	-20(%rbp), %ecx
	andl	$3, %ecx
	movslq	%ecx, %rcx
	movw	(%rax,%rcx,2), %ax
	movw	%ax, -10(%rbp)
	jmp	.LBB79_17
.LBB79_5:                               # %if.end20
	movq	-32(%rbp), %rax
	movslq	-16(%rbp), %rcx
	movq	(%rax,%rcx,8), %rax
	movl	-20(%rbp), %ecx
	andl	$3, %ecx
	movslq	%ecx, %rcx
	movw	(%rax,%rcx,2), %ax
	movw	%ax, -10(%rbp)
	jmp	.LBB79_17
.LBB79_6:                               # %if.end26
	movl	-20(%rbp), %eax
	cmpl	-36(%rbp), %eax
	jle	.LBB79_12
# %bb.7:                                # %if.then28
	cmpl	$0, -16(%rbp)
	jge	.LBB79_9
# %bb.8:                                # %if.then30
	movq	-32(%rbp), %rax
	movl	-16(%rbp), %ecx
	andl	$3, %ecx
	movslq	%ecx, %rcx
	movq	(%rax,%rcx,8), %rax
	movl	-36(%rbp), %ecx
	movl	-20(%rbp), %edx
	andl	$3, %edx
	addl	%edx, %ecx
	movslq	%ecx, %rcx
	movw	(%rax,%rcx,2), %ax
	movw	%ax, -10(%rbp)
	jmp	.LBB79_17
.LBB79_9:                               # %if.end38
	movl	-16(%rbp), %eax
	cmpl	-24(%rbp), %eax
	jle	.LBB79_11
# %bb.10:                               # %if.then40
	movq	-32(%rbp), %rax
	movl	-24(%rbp), %ecx
	movl	-16(%rbp), %edx
	andl	$3, %edx
	addl	%edx, %ecx
	movslq	%ecx, %rcx
	movq	(%rax,%rcx,8), %rax
	movl	-36(%rbp), %ecx
	movl	-20(%rbp), %edx
	andl	$3, %edx
	addl	%edx, %ecx
	movslq	%ecx, %rcx
	movw	(%rax,%rcx,2), %ax
	movw	%ax, -10(%rbp)
	jmp	.LBB79_17
.LBB79_11:                              # %if.end49
	movq	-32(%rbp), %rax
	movslq	-16(%rbp), %rcx
	movq	(%rax,%rcx,8), %rax
	movl	-36(%rbp), %ecx
	movl	-20(%rbp), %edx
	andl	$3, %edx
	addl	%edx, %ecx
	movslq	%ecx, %rcx
	movw	(%rax,%rcx,2), %ax
	movw	%ax, -10(%rbp)
	jmp	.LBB79_17
.LBB79_12:                              # %if.end56
	cmpl	$0, -16(%rbp)
	jge	.LBB79_14
# %bb.13:                               # %if.then58
	movq	-32(%rbp), %rax
	movl	-16(%rbp), %ecx
	andl	$3, %ecx
	movslq	%ecx, %rcx
	movq	(%rax,%rcx,8), %rax
	movslq	-20(%rbp), %rcx
	movw	(%rax,%rcx,2), %ax
	movw	%ax, -10(%rbp)
	jmp	.LBB79_17
.LBB79_14:                              # %if.end64
	movl	-16(%rbp), %eax
	cmpl	-24(%rbp), %eax
	jle	.LBB79_16
# %bb.15:                               # %if.then66
	movq	-32(%rbp), %rax
	movl	-24(%rbp), %ecx
	movl	-16(%rbp), %edx
	andl	$3, %edx
	addl	%edx, %ecx
	movslq	%ecx, %rcx
	movq	(%rax,%rcx,8), %rax
	movslq	-20(%rbp), %rcx
	movw	(%rax,%rcx,2), %ax
	movw	%ax, -10(%rbp)
	jmp	.LBB79_17
.LBB79_16:                              # %if.end73
	movq	-32(%rbp), %rax
	movslq	-16(%rbp), %rcx
	movq	(%rax,%rcx,8), %rax
	movslq	-20(%rbp), %rcx
	movw	(%rax,%rcx,2), %ax
	movw	%ax, -10(%rbp)
.LBB79_17:                              # %return
	movw	-10(%rbp), %bx
	cmpl	$1431645700, -48(%rbp)  # imm = 0x55552E04
	jne	.LBB79_19
.LBB79_18:
	movzwl	%bx, %eax
	addq	$40, %rsp
	popq	%rbx
	popq	%rbp
	.cfi_def_cfa %rsp, 8
	retq
.LBB79_19:                              # %func_exit
	.cfi_def_cfa %rbp, 16
	callq	detect_breach
	jmp	.LBB79_18
.Lfunc_end79:
	.size	UMVPelY_14.72, .Lfunc_end79-UMVPelY_14.72
	.cfi_endproc
                                        # -- End function
	.globl	UMVLineX.73             # -- Begin function UMVLineX.73
	.p2align	4, 0x90
	.type	UMVLineX.73,@function
UMVLineX.73:                            # @UMVLineX.73
	.cfi_startproc
# %bb.0:                                # %entry
	pushq	%rbp
	.cfi_def_cfa_offset 16
	.cfi_offset %rbp, -16
	movq	%rsp, %rbp
	.cfi_def_cfa_register %rbp
	pushq	%rbx
	subq	$72, %rsp
	.cfi_offset %rbx, -24
	movl	$304773063, -52(%rbp)   # imm = 0x122A77C7
	movl	%edi, -28(%rbp)
	movq	%rsi, -72(%rbp)
	movl	%edx, -32(%rbp)
	movl	%ecx, -16(%rbp)
	movl	%r8d, -36(%rbp)
	movl	%r9d, -24(%rbp)
	movq	-72(%rbp), %rax
	movl	-36(%rbp), %ecx
	subl	$1, %ecx
	cmpl	-32(%rbp), %ecx
	jge	.LBB80_2
# %bb.1:                                # %cond.true
	movl	-36(%rbp), %ecx
	subl	$1, %ecx
	jmp	.LBB80_3
.LBB80_2:                               # %cond.false
	movl	-32(%rbp), %ecx
.LBB80_3:                               # %cond.end
	xorl	%edx, %edx
	cmpl	%ecx, %edx
	jle	.LBB80_5
# %bb.4:                                # %cond.true3
	xorl	%ecx, %ecx
	jmp	.LBB80_9
.LBB80_5:                               # %cond.false4
	movl	-36(%rbp), %ecx
	subl	$1, %ecx
	cmpl	-32(%rbp), %ecx
	jge	.LBB80_7
