	.text
	.file	"sei.c"
	.globl	InitSEIMessages         # -- Begin function InitSEIMessages
	.p2align	4, 0x90
	.type	InitSEIMessages,@function
InitSEIMessages:                        # @InitSEIMessages
	.cfi_startproc
# %bb.0:                                # %entry
	pushq	%rbp
	.cfi_def_cfa_offset 16
	.cfi_offset %rbp, -16
	movq	%rsp, %rbp
	.cfi_def_cfa_register %rbp
	subq	$16, %rsp
	movl	$0, -4(%rbp)
.LBB0_1:                                # %for.cond
                                        # =>This Inner Loop Header: Depth=1
	cmpl	$2, -4(%rbp)
	jge	.LBB0_6
# %bb.2:                                # %for.body
                                        #   in Loop: Header=BB0_1 Depth=1
	movl	$65496, %edi            # imm = 0xFFD8
	callq	malloc
	movslq	-4(%rbp), %rcx
	imulq	$24, %rcx, %rcx
	movabsq	$sei_message, %rdx
	movq	%rdx, %rsi
	addq	%rcx, %rsi
	movq	%rax, 16(%rsi)
	movslq	-4(%rbp), %rax
	imulq	$24, %rax, %rax
	addq	%rax, %rdx
	cmpq	$0, 16(%rdx)
	jne	.LBB0_4
# %bb.3:                                # %if.then
                                        #   in Loop: Header=BB0_1 Depth=1
	movabsq	$.L.str, %rdi
	callq	no_mem_exit
.LBB0_4:                                # %if.end
                                        #   in Loop: Header=BB0_1 Depth=1
	movslq	-4(%rbp), %rax
	imulq	$24, %rax, %rax
	movabsq	$sei_message, %rcx
	addq	%rax, %rcx
	movb	$5, 8(%rcx)
	movl	-4(%rbp), %edi
	callq	clear_sei_message
# %bb.5:                                # %for.inc
                                        #   in Loop: Header=BB0_1 Depth=1
	movl	-4(%rbp), %eax
	addl	$1, %eax
	movl	%eax, -4(%rbp)
	jmp	.LBB0_1
.LBB0_6:                                # %for.end
	movq	$0, seiSparePicturePayload+16
	callq	InitSparePicture
	callq	InitSubseqChar
	movq	input, %rax
	cmpl	$0, 2912(%rax)
	je	.LBB0_8
# %bb.7:                                # %if.then8
	callq	InitSubseqLayerInfo
.LBB0_8:                                # %if.end9
	callq	InitSceneInformation
	callq	InitPanScanRectInfo
	callq	InitUser_data_unregistered
	callq	InitUser_data_registered_itu_t_t35
	callq	InitRandomAccess
	addq	$16, %rsp
	popq	%rbp
	.cfi_def_cfa %rsp, 8
	retq
.Lfunc_end0:
	.size	InitSEIMessages, .Lfunc_end0-InitSEIMessages
	.cfi_endproc
                                        # -- End function
	.globl	clear_sei_message       # -- Begin function clear_sei_message
	.p2align	4, 0x90
	.type	clear_sei_message,@function
clear_sei_message:                      # @clear_sei_message
	.cfi_startproc
# %bb.0:                                # %entry
	pushq	%rbp
	.cfi_def_cfa_offset 16
	.cfi_offset %rbp, -16
	movq	%rsp, %rbp
	.cfi_def_cfa_register %rbp
	pushq	%rbx
	pushq	%rax
	.cfi_offset %rbx, -24
	movl	%edi, -12(%rbp)
	movslq	-12(%rbp), %rax
	imulq	$24, %rax, %rax
	movabsq	$sei_message, %rbx
	movq	%rbx, %rcx
	addq	%rax, %rcx
	movq	16(%rcx), %rdi
	xorl	%esi, %esi
	movl	$65496, %edx            # imm = 0xFFD8
	callq	memset
	movslq	-12(%rbp), %rax
	imulq	$24, %rax, %rax
	movq	%rbx, %rcx
	addq	%rax, %rcx
	movl	$0, 4(%rcx)
	movslq	-12(%rbp), %rax
	imulq	$24, %rax, %rax
	addq	%rax, %rbx
	movl	$0, (%rbx)
	addq	$8, %rsp
	popq	%rbx
	popq	%rbp
	.cfi_def_cfa %rsp, 8
	retq
.Lfunc_end1:
	.size	clear_sei_message, .Lfunc_end1-clear_sei_message
	.cfi_endproc
                                        # -- End function
	.globl	CloseSEIMessages        # -- Begin function CloseSEIMessages
	.p2align	4, 0x90
	.type	CloseSEIMessages,@function
CloseSEIMessages:                       # @CloseSEIMessages
	.cfi_startproc
# %bb.0:                                # %entry
	pushq	%rbp
	.cfi_def_cfa_offset 16
	.cfi_offset %rbp, -16
	movq	%rsp, %rbp
	.cfi_def_cfa_register %rbp
	subq	$16, %rsp
	movq	input, %rax
	cmpl	$0, 2912(%rax)
	je	.LBB2_2
# %bb.1:                                # %if.then
	callq	CloseSubseqLayerInfo
.LBB2_2:                                # %if.end
	callq	CloseSubseqChar
	callq	CloseSparePicture
	callq	CloseSceneInformation
	callq	ClosePanScanRectInfo
	callq	CloseUser_data_unregistered
	callq	CloseUser_data_registered_itu_t_t35
	callq	CloseRandomAccess
	movl	$0, -4(%rbp)
.LBB2_3:                                # %for.cond
                                        # =>This Inner Loop Header: Depth=1
	cmpl	$2, -4(%rbp)
	jge	.LBB2_8
# %bb.4:                                # %for.body
                                        #   in Loop: Header=BB2_3 Depth=1
	movslq	-4(%rbp), %rax
	imulq	$24, %rax, %rax
	movabsq	$sei_message, %rcx
	addq	%rax, %rcx
	cmpq	$0, 16(%rcx)
	je	.LBB2_6
# %bb.5:                                # %if.then2
                                        #   in Loop: Header=BB2_3 Depth=1
	movslq	-4(%rbp), %rax
	imulq	$24, %rax, %rax
	movabsq	$sei_message, %rcx
	addq	%rax, %rcx
	movq	16(%rcx), %rdi
	callq	free
.LBB2_6:                                # %if.end6
                                        #   in Loop: Header=BB2_3 Depth=1
	movslq	-4(%rbp), %rax
	imulq	$24, %rax, %rax
	movabsq	$sei_message, %rcx
	addq	%rax, %rcx
	movq	$0, 16(%rcx)
# %bb.7:                                # %for.inc
                                        #   in Loop: Header=BB2_3 Depth=1
	movl	-4(%rbp), %eax
	addl	$1, %eax
	movl	%eax, -4(%rbp)
	jmp	.LBB2_3
.LBB2_8:                                # %for.end
	addq	$16, %rsp
	popq	%rbp
	.cfi_def_cfa %rsp, 8
	retq
.Lfunc_end2:
	.size	CloseSEIMessages, .Lfunc_end2-CloseSEIMessages
	.cfi_endproc
                                        # -- End function
	.globl	HaveAggregationSEI      # -- Begin function HaveAggregationSEI
	.p2align	4, 0x90
	.type	HaveAggregationSEI,@function
HaveAggregationSEI:                     # @HaveAggregationSEI
	.cfi_startproc
# %bb.0:                                # %entry
	pushq	%rbp
	.cfi_def_cfa_offset 16
	.cfi_offset %rbp, -16
	movq	%rsp, %rbp
	.cfi_def_cfa_register %rbp
	cmpl	$0, sei_message+24
	je	.LBB3_3
# %bb.1:                                # %land.lhs.true
	movq	img, %rax
	cmpl	$1, 24(%rax)
	je	.LBB3_3
# %bb.2:                                # %if.then
	movl	$1, -4(%rbp)
	jmp	.LBB3_21
.LBB3_3:                                # %if.end
	cmpl	$0, seiHasSubseqInfo
	je	.LBB3_5
# %bb.4:                                # %if.then2
	movl	$1, -4(%rbp)
	jmp	.LBB3_21
.LBB3_5:                                # %if.end3
	cmpl	$0, seiHasSubseqLayerInfo
	je	.LBB3_8
# %bb.6:                                # %land.lhs.true5
	movq	img, %rax
	cmpl	$0, (%rax)
	jne	.LBB3_8
# %bb.7:                                # %if.then7
	movl	$1, -4(%rbp)
	jmp	.LBB3_21
.LBB3_8:                                # %if.end8
	cmpl	$0, seiHasSubseqChar
	je	.LBB3_10
# %bb.9:                                # %if.then10
	movl	$1, -4(%rbp)
	jmp	.LBB3_21
.LBB3_10:                               # %if.end11
	cmpl	$0, seiHasSceneInformation
	je	.LBB3_12
# %bb.11:                               # %if.then13
	movl	$1, -4(%rbp)
	jmp	.LBB3_21
.LBB3_12:                               # %if.end14
	cmpl	$0, seiHasPanScanRectInfo
	je	.LBB3_14
# %bb.13:                               # %if.then16
	movl	$1, -4(%rbp)
	jmp	.LBB3_21
.LBB3_14:                               # %if.end17
	cmpl	$0, seiHasUser_data_unregistered_info
	je	.LBB3_16
# %bb.15:                               # %if.then19
	movl	$1, -4(%rbp)
	jmp	.LBB3_21
.LBB3_16:                               # %if.end20
	cmpl	$0, seiHasUser_data_registered_itu_t_t35_info
	je	.LBB3_18
# %bb.17:                               # %if.then22
	movl	$1, -4(%rbp)
	jmp	.LBB3_21
.LBB3_18:                               # %if.end23
	cmpl	$0, seiHasRandomAccess_info
	je	.LBB3_20
# %bb.19:                               # %if.then25
	movl	$1, -4(%rbp)
	jmp	.LBB3_21
.LBB3_20:                               # %if.end26
	movl	$0, -4(%rbp)
.LBB3_21:                               # %return
	movl	-4(%rbp), %eax
	popq	%rbp
	.cfi_def_cfa %rsp, 8
	retq
.Lfunc_end3:
	.size	HaveAggregationSEI, .Lfunc_end3-HaveAggregationSEI
	.cfi_endproc
                                        # -- End function
	.globl	write_sei_message       # -- Begin function write_sei_message
	.p2align	4, 0x90
	.type	write_sei_message,@function
write_sei_message:                      # @write_sei_message
	.cfi_startproc
# %bb.0:                                # %rand_bb
	pushq	%rbp
	.cfi_def_cfa_offset 16
	.cfi_offset %rbp, -16
	movq	%rsp, %rbp
	.cfi_def_cfa_register %rbp
	pushq	%r15
	pushq	%r14
	pushq	%r12
	pushq	%rbx
	.cfi_offset %rbx, -48
	.cfi_offset %r12, -40
	.cfi_offset %r14, -32
	.cfi_offset %r15, -24
	movl	%ecx, %r14d
	movl	%edx, %r15d
	movq	%rsi, %r12
	movl	%edi, %ebx
	callq	get_urand
	cmpl	$0, %eax
	jne	.LBB4_17
# %bb.1:                                # %func_write_sei_message.10
	movl	%ebx, %edi
	movq	%r12, %rsi
	movl	%r15d, %edx
	movl	%r14d, %ecx
	callq	write_sei_message.10
	popq	%rbx
	popq	%r12
	popq	%r14
	popq	%r15
	popq	%rbp
	.cfi_def_cfa %rsp, 8
	retq
.LBB4_2:                                # %func_write_sei_message.15
	.cfi_def_cfa %rbp, 16
	movl	%ebx, %edi
	movq	%r12, %rsi
	movl	%r15d, %edx
	movl	%r14d, %ecx
	callq	write_sei_message.15
	popq	%rbx
	popq	%r12
	popq	%r14
	popq	%r15
	popq	%rbp
	.cfi_def_cfa %rsp, 8
	retq
.LBB4_3:                                # %func_write_sei_message.26
	.cfi_def_cfa %rbp, 16
	movl	%ebx, %edi
	movq	%r12, %rsi
	movl	%r15d, %edx
	movl	%r14d, %ecx
	callq	write_sei_message.26
	popq	%rbx
	popq	%r12
	popq	%r14
	popq	%r15
	popq	%rbp
	.cfi_def_cfa %rsp, 8
	retq
.LBB4_4:                                # %func_write_sei_message.34
	.cfi_def_cfa %rbp, 16
	movl	%ebx, %edi
	movq	%r12, %rsi
	movl	%r15d, %edx
	movl	%r14d, %ecx
	callq	write_sei_message.34
	popq	%rbx
	popq	%r12
	popq	%r14
	popq	%r15
	popq	%rbp
	.cfi_def_cfa %rsp, 8
	retq
.LBB4_5:                                # %func_write_sei_message.44
	.cfi_def_cfa %rbp, 16
	movl	%ebx, %edi
	movq	%r12, %rsi
	movl	%r15d, %edx
	movl	%r14d, %ecx
	callq	write_sei_message.44
	popq	%rbx
	popq	%r12
	popq	%r14
	popq	%r15
	popq	%rbp
	.cfi_def_cfa %rsp, 8
	retq
.LBB4_6:                                # %func_write_sei_message.52
	.cfi_def_cfa %rbp, 16
	movl	%ebx, %edi
	movq	%r12, %rsi
	movl	%r15d, %edx
	movl	%r14d, %ecx
	callq	write_sei_message.52
	popq	%rbx
	popq	%r12
	popq	%r14
	popq	%r15
	popq	%rbp
	.cfi_def_cfa %rsp, 8
	retq
.LBB4_7:                                # %func_write_sei_message.58
	.cfi_def_cfa %rbp, 16
	movl	%ebx, %edi
	movq	%r12, %rsi
	movl	%r15d, %edx
	movl	%r14d, %ecx
	callq	write_sei_message.58
	popq	%rbx
	popq	%r12
	popq	%r14
	popq	%r15
	popq	%rbp
	.cfi_def_cfa %rsp, 8
	retq
.LBB4_8:                                # %func_write_sei_message.63
	.cfi_def_cfa %rbp, 16
	movl	%ebx, %edi
	movq	%r12, %rsi
	movl	%r15d, %edx
	movl	%r14d, %ecx
	callq	write_sei_message.63
	popq	%rbx
	popq	%r12
	popq	%r14
	popq	%r15
	popq	%rbp
	.cfi_def_cfa %rsp, 8
	retq
.LBB4_9:                                # %func_write_sei_message.75
	.cfi_def_cfa %rbp, 16
	movl	%ebx, %edi
	movq	%r12, %rsi
	movl	%r15d, %edx
	movl	%r14d, %ecx
	callq	write_sei_message.75
	popq	%rbx
	popq	%r12
	popq	%r14
	popq	%r15
	popq	%rbp
	.cfi_def_cfa %rsp, 8
	retq
.LBB4_10:                               # %func_write_sei_message.76
	.cfi_def_cfa %rbp, 16
	movl	%ebx, %edi
	movq	%r12, %rsi
	movl	%r15d, %edx
	movl	%r14d, %ecx
	callq	write_sei_message.76
	popq	%rbx
	popq	%r12
	popq	%r14
	popq	%r15
	popq	%rbp
	.cfi_def_cfa %rsp, 8
	retq
.LBB4_11:                               # %func_write_sei_message.77
	.cfi_def_cfa %rbp, 16
	movl	%ebx, %edi
	movq	%r12, %rsi
	movl	%r15d, %edx
	movl	%r14d, %ecx
	callq	write_sei_message.77
	popq	%rbx
	popq	%r12
	popq	%r14
	popq	%r15
	popq	%rbp
	.cfi_def_cfa %rsp, 8
	retq
.LBB4_12:                               # %func_write_sei_message.87
	.cfi_def_cfa %rbp, 16
	movl	%ebx, %edi
	movq	%r12, %rsi
	movl	%r15d, %edx
	movl	%r14d, %ecx
	callq	write_sei_message.87
	popq	%rbx
	popq	%r12
	popq	%r14
	popq	%r15
	popq	%rbp
	.cfi_def_cfa %rsp, 8
	retq
.LBB4_13:                               # %func_write_sei_message.90
	.cfi_def_cfa %rbp, 16
	movl	%ebx, %edi
	movq	%r12, %rsi
	movl	%r15d, %edx
	movl	%r14d, %ecx
	callq	write_sei_message.90
	popq	%rbx
	popq	%r12
	popq	%r14
	popq	%r15
	popq	%rbp
	.cfi_def_cfa %rsp, 8
	retq
.LBB4_14:                               # %func_write_sei_message.97
	.cfi_def_cfa %rbp, 16
	movl	%ebx, %edi
	movq	%r12, %rsi
	movl	%r15d, %edx
	movl	%r14d, %ecx
	callq	write_sei_message.97
	popq	%rbx
	popq	%r12
	popq	%r14
	popq	%r15
	popq	%rbp
	.cfi_def_cfa %rsp, 8
	retq
.LBB4_15:                               # %func_write_sei_message.101
	.cfi_def_cfa %rbp, 16
	movl	%ebx, %edi
	movq	%r12, %rsi
	movl	%r15d, %edx
	movl	%r14d, %ecx
	callq	write_sei_message.101
	popq	%rbx
	popq	%r12
	popq	%r14
	popq	%r15
	popq	%rbp
	.cfi_def_cfa %rsp, 8
	retq
.LBB4_16:                               # %func_write_sei_message.124
	.cfi_def_cfa %rbp, 16
	movl	%ebx, %edi
	movq	%r12, %rsi
	movl	%r15d, %edx
	movl	%r14d, %ecx
	callq	write_sei_message.124
	popq	%rbx
	popq	%r12
	popq	%r14
	popq	%r15
	popq	%rbp
	.cfi_def_cfa %rsp, 8
	retq
.LBB4_17:                               # %ctrl0
	.cfi_def_cfa %rbp, 16
	cmpl	$1, %eax
	je	.LBB4_2
# %bb.18:                               # %ctrl1
	cmpl	$2, %eax
	je	.LBB4_3
# %bb.19:                               # %ctrl2
	cmpl	$3, %eax
	je	.LBB4_4
# %bb.20:                               # %ctrl3
	cmpl	$4, %eax
	je	.LBB4_5
# %bb.21:                               # %ctrl4
	cmpl	$5, %eax
	je	.LBB4_6
# %bb.22:                               # %ctrl5
	cmpl	$6, %eax
	je	.LBB4_7
# %bb.23:                               # %ctrl6
	cmpl	$7, %eax
	je	.LBB4_8
# %bb.24:                               # %ctrl7
	cmpl	$8, %eax
	je	.LBB4_9
# %bb.25:                               # %ctrl8
	cmpl	$9, %eax
	je	.LBB4_10
# %bb.26:                               # %ctrl9
	cmpl	$10, %eax
	je	.LBB4_11
# %bb.27:                               # %ctrl10
	cmpl	$11, %eax
	je	.LBB4_12
# %bb.28:                               # %ctrl11
	cmpl	$12, %eax
	je	.LBB4_13
# %bb.29:                               # %ctrl12
	cmpl	$13, %eax
	je	.LBB4_14
# %bb.30:                               # %ctrl13
	cmpl	$14, %eax
	je	.LBB4_15
	jmp	.LBB4_16
.Lfunc_end4:
	.size	write_sei_message, .Lfunc_end4-write_sei_message
	.cfi_endproc
                                        # -- End function
	.globl	finalize_sei_message    # -- Begin function finalize_sei_message
	.p2align	4, 0x90
	.type	finalize_sei_message,@function
finalize_sei_message:                   # @finalize_sei_message
	.cfi_startproc
# %bb.0:                                # %rand_bb
	pushq	%rbp
	.cfi_def_cfa_offset 16
	.cfi_offset %rbp, -16
	movq	%rsp, %rbp
	.cfi_def_cfa_register %rbp
	pushq	%rbx
	pushq	%rax
	.cfi_offset %rbx, -24
	movl	%edi, %ebx
	callq	get_urand
	cmpl	$0, %eax
	jne	.LBB5_2
# %bb.1:                                # %func_finalize_sei_message.1
	movl	%ebx, %edi
	callq	finalize_sei_message.1
	addq	$8, %rsp
	popq	%rbx
	popq	%rbp
	.cfi_def_cfa %rsp, 8
	retq
.LBB5_2:                                # %func_finalize_sei_message.21
	.cfi_def_cfa %rbp, 16
	movl	%ebx, %edi
	callq	finalize_sei_message.21
	addq	$8, %rsp
	popq	%rbx
	popq	%rbp
	.cfi_def_cfa %rsp, 8
	retq
.Lfunc_end5:
	.size	finalize_sei_message, .Lfunc_end5-finalize_sei_message
	.cfi_endproc
                                        # -- End function
	.globl	AppendTmpbits2Buf       # -- Begin function AppendTmpbits2Buf
	.p2align	4, 0x90
	.type	AppendTmpbits2Buf,@function
AppendTmpbits2Buf:                      # @AppendTmpbits2Buf
	.cfi_startproc
# %bb.0:                                # %rand_bb
	pushq	%rbp
	.cfi_def_cfa_offset 16
	.cfi_offset %rbp, -16
	movq	%rsp, %rbp
	.cfi_def_cfa_register %rbp
	pushq	%r14
	pushq	%rbx
	.cfi_offset %rbx, -32
	.cfi_offset %r14, -24
	movq	%rsi, %r14
	movq	%rdi, %rbx
	callq	get_urand
	cmpl	$0, %eax
	jne	.LBB6_17
# %bb.1:                                # %func_AppendTmpbits2Buf.6
	movq	%rbx, %rdi
	movq	%r14, %rsi
	callq	AppendTmpbits2Buf.6
	popq	%rbx
	popq	%r14
	popq	%rbp
	.cfi_def_cfa %rsp, 8
	retq
.LBB6_2:                                # %func_AppendTmpbits2Buf.24
	.cfi_def_cfa %rbp, 16
	movq	%rbx, %rdi
	movq	%r14, %rsi
	callq	AppendTmpbits2Buf.24
	popq	%rbx
	popq	%r14
	popq	%rbp
	.cfi_def_cfa %rsp, 8
	retq
.LBB6_3:                                # %func_AppendTmpbits2Buf.32
	.cfi_def_cfa %rbp, 16
	movq	%rbx, %rdi
	movq	%r14, %rsi
	callq	AppendTmpbits2Buf.32
	popq	%rbx
	popq	%r14
	popq	%rbp
	.cfi_def_cfa %rsp, 8
	retq
.LBB6_4:                                # %func_AppendTmpbits2Buf.40
	.cfi_def_cfa %rbp, 16
	movq	%rbx, %rdi
	movq	%r14, %rsi
	callq	AppendTmpbits2Buf.40
	popq	%rbx
	popq	%r14
	popq	%rbp
	.cfi_def_cfa %rsp, 8
	retq
.LBB6_5:                                # %func_AppendTmpbits2Buf.43
	.cfi_def_cfa %rbp, 16
	movq	%rbx, %rdi
	movq	%r14, %rsi
	callq	AppendTmpbits2Buf.43
	popq	%rbx
	popq	%r14
	popq	%rbp
	.cfi_def_cfa %rsp, 8
	retq
.LBB6_6:                                # %func_AppendTmpbits2Buf.73
	.cfi_def_cfa %rbp, 16
	movq	%rbx, %rdi
	movq	%r14, %rsi
	callq	AppendTmpbits2Buf.73
	popq	%rbx
	popq	%r14
	popq	%rbp
	.cfi_def_cfa %rsp, 8
	retq
.LBB6_7:                                # %func_AppendTmpbits2Buf.83
	.cfi_def_cfa %rbp, 16
	movq	%rbx, %rdi
	movq	%r14, %rsi
	callq	AppendTmpbits2Buf.83
	popq	%rbx
	popq	%r14
	popq	%rbp
	.cfi_def_cfa %rsp, 8
	retq
.LBB6_8:                                # %func_AppendTmpbits2Buf.88
	.cfi_def_cfa %rbp, 16
	movq	%rbx, %rdi
	movq	%r14, %rsi
	callq	AppendTmpbits2Buf.88
	popq	%rbx
	popq	%r14
	popq	%rbp
	.cfi_def_cfa %rsp, 8
	retq
.LBB6_9:                                # %func_AppendTmpbits2Buf.89
	.cfi_def_cfa %rbp, 16
	movq	%rbx, %rdi
	movq	%r14, %rsi
	callq	AppendTmpbits2Buf.89
	popq	%rbx
	popq	%r14
	popq	%rbp
	.cfi_def_cfa %rsp, 8
	retq
.LBB6_10:                               # %func_AppendTmpbits2Buf.96
	.cfi_def_cfa %rbp, 16
	movq	%rbx, %rdi
	movq	%r14, %rsi
	callq	AppendTmpbits2Buf.96
	popq	%rbx
	popq	%r14
	popq	%rbp
	.cfi_def_cfa %rsp, 8
	retq
.LBB6_11:                               # %func_AppendTmpbits2Buf.98
	.cfi_def_cfa %rbp, 16
	movq	%rbx, %rdi
	movq	%r14, %rsi
	callq	AppendTmpbits2Buf.98
	popq	%rbx
	popq	%r14
	popq	%rbp
	.cfi_def_cfa %rsp, 8
	retq
.LBB6_12:                               # %func_AppendTmpbits2Buf.105
	.cfi_def_cfa %rbp, 16
	movq	%rbx, %rdi
	movq	%r14, %rsi
	callq	AppendTmpbits2Buf.105
	popq	%rbx
	popq	%r14
	popq	%rbp
	.cfi_def_cfa %rsp, 8
	retq
.LBB6_13:                               # %func_AppendTmpbits2Buf.106
	.cfi_def_cfa %rbp, 16
	movq	%rbx, %rdi
	movq	%r14, %rsi
	callq	AppendTmpbits2Buf.106
	popq	%rbx
	popq	%r14
	popq	%rbp
	.cfi_def_cfa %rsp, 8
	retq
.LBB6_14:                               # %func_AppendTmpbits2Buf.114
	.cfi_def_cfa %rbp, 16
	movq	%rbx, %rdi
	movq	%r14, %rsi
	callq	AppendTmpbits2Buf.114
	popq	%rbx
	popq	%r14
	popq	%rbp
	.cfi_def_cfa %rsp, 8
	retq
.LBB6_15:                               # %func_AppendTmpbits2Buf.117
	.cfi_def_cfa %rbp, 16
	movq	%rbx, %rdi
	movq	%r14, %rsi
	callq	AppendTmpbits2Buf.117
	popq	%rbx
	popq	%r14
	popq	%rbp
	.cfi_def_cfa %rsp, 8
	retq
.LBB6_16:                               # %func_AppendTmpbits2Buf.127
	.cfi_def_cfa %rbp, 16
	movq	%rbx, %rdi
	movq	%r14, %rsi
	callq	AppendTmpbits2Buf.127
	popq	%rbx
	popq	%r14
	popq	%rbp
	.cfi_def_cfa %rsp, 8
	retq
.LBB6_17:                               # %ctrl0
	.cfi_def_cfa %rbp, 16
	cmpl	$1, %eax
	je	.LBB6_2
# %bb.18:                               # %ctrl1
	cmpl	$2, %eax
	je	.LBB6_3
# %bb.19:                               # %ctrl2
	cmpl	$3, %eax
	je	.LBB6_4
# %bb.20:                               # %ctrl3
	cmpl	$4, %eax
	je	.LBB6_5
# %bb.21:                               # %ctrl4
	cmpl	$5, %eax
	je	.LBB6_6
# %bb.22:                               # %ctrl5
	cmpl	$6, %eax
	je	.LBB6_7
# %bb.23:                               # %ctrl6
	cmpl	$7, %eax
	je	.LBB6_8
# %bb.24:                               # %ctrl7
	cmpl	$8, %eax
	je	.LBB6_9
# %bb.25:                               # %ctrl8
	cmpl	$9, %eax
	je	.LBB6_10
# %bb.26:                               # %ctrl9
	cmpl	$10, %eax
	je	.LBB6_11
# %bb.27:                               # %ctrl10
	cmpl	$11, %eax
	je	.LBB6_12
# %bb.28:                               # %ctrl11
	cmpl	$12, %eax
	je	.LBB6_13
# %bb.29:                               # %ctrl12
	cmpl	$13, %eax
	je	.LBB6_14
# %bb.30:                               # %ctrl13
	cmpl	$14, %eax
	je	.LBB6_15
	jmp	.LBB6_16
.Lfunc_end6:
	.size	AppendTmpbits2Buf, .Lfunc_end6-AppendTmpbits2Buf
	.cfi_endproc
                                        # -- End function
	.globl	InitSparePicture        # -- Begin function InitSparePicture
	.p2align	4, 0x90
	.type	InitSparePicture,@function
InitSparePicture:                       # @InitSparePicture
	.cfi_startproc
# %bb.0:                                # %entry
	pushq	%rbp
	.cfi_def_cfa_offset 16
	.cfi_offset %rbp, -16
	movq	%rsp, %rbp
	.cfi_def_cfa_register %rbp
	cmpq	$0, seiSparePicturePayload+16
	je	.LBB7_2
# %bb.1:                                # %if.then
	callq	CloseSparePicture
.LBB7_2:                                # %if.end
	movl	$48, %edi
	callq	malloc
	movq	%rax, seiSparePicturePayload+16
	cmpq	$0, seiSparePicturePayload+16
	jne	.LBB7_4
# %bb.3:                                # %if.then2
	movabsq	$.L.str.1, %rdi
	callq	no_mem_exit
.LBB7_4:                                # %if.end3
	movl	$65496, %edi            # imm = 0xFFD8
	callq	malloc
	movq	seiSparePicturePayload+16, %rcx
	movq	%rax, 32(%rcx)
	movq	seiSparePicturePayload+16, %rax
	cmpq	$0, 32(%rax)
	jne	.LBB7_6
# %bb.5:                                # %if.then7
	movabsq	$.L.str.2, %rdi
	callq	no_mem_exit
.LBB7_6:                                # %if.end8
	movq	seiSparePicturePayload+16, %rax
	movq	32(%rax), %rdi
	xorl	%esi, %esi
	movl	$65496, %edx            # imm = 0xFFD8
	callq	memset
	movl	$0, seiSparePicturePayload+4
	movl	$0, seiSparePicturePayload
	movq	seiSparePicturePayload+16, %rax
	movl	$8, 4(%rax)
	movq	seiSparePicturePayload+16, %rax
	movl	$0, (%rax)
	movq	seiSparePicturePayload+16, %rax
	movb	$0, 8(%rax)
	popq	%rbp
	.cfi_def_cfa %rsp, 8
	retq
.Lfunc_end7:
	.size	InitSparePicture, .Lfunc_end7-InitSparePicture
	.cfi_endproc
                                        # -- End function
	.globl	CloseSparePicture       # -- Begin function CloseSparePicture
	.p2align	4, 0x90
	.type	CloseSparePicture,@function
CloseSparePicture:                      # @CloseSparePicture
	.cfi_startproc
# %bb.0:                                # %entry
	pushq	%rbp
	.cfi_def_cfa_offset 16
	.cfi_offset %rbp, -16
	movq	%rsp, %rbp
	.cfi_def_cfa_register %rbp
	movq	seiSparePicturePayload+16, %rax
	cmpq	$0, 32(%rax)
	je	.LBB8_2
# %bb.1:                                # %if.then
	movq	seiSparePicturePayload+16, %rax
	movq	32(%rax), %rdi
	callq	free
.LBB8_2:                                # %if.end
	movq	seiSparePicturePayload+16, %rax
	movq	$0, 32(%rax)
	cmpq	$0, seiSparePicturePayload+16
	je	.LBB8_4
# %bb.3:                                # %if.then4
	movq	seiSparePicturePayload+16, %rdi
	callq	free
.LBB8_4:                                # %if.end5
	movq	$0, seiSparePicturePayload+16
	movl	$0, seiSparePicturePayload+4
	movl	$0, seiSparePicturePayload
	popq	%rbp
	.cfi_def_cfa %rsp, 8
	retq
.Lfunc_end8:
	.size	CloseSparePicture, .Lfunc_end8-CloseSparePicture
	.cfi_endproc
                                        # -- End function
	.globl	CalculateSparePicture   # -- Begin function CalculateSparePicture
	.p2align	4, 0x90
	.type	CalculateSparePicture,@function
CalculateSparePicture:                  # @CalculateSparePicture
	.cfi_startproc
# %bb.0:                                # %entry
	pushq	%rbp
	.cfi_def_cfa_offset 16
	.cfi_offset %rbp, -16
	movq	%rsp, %rbp
	.cfi_def_cfa_register %rbp
	popq	%rbp
	.cfi_def_cfa %rsp, 8
	retq
.Lfunc_end9:
	.size	CalculateSparePicture, .Lfunc_end9-CalculateSparePicture
	.cfi_endproc
                                        # -- End function
	.globl	ComposeSparePictureMessage # -- Begin function ComposeSparePictureMessage
	.p2align	4, 0x90
	.type	ComposeSparePictureMessage,@function
ComposeSparePictureMessage:             # @ComposeSparePictureMessage
	.cfi_startproc
# %bb.0:                                # %rand_bb
	pushq	%rbp
	.cfi_def_cfa_offset 16
	.cfi_offset %rbp, -16
	movq	%rsp, %rbp
	.cfi_def_cfa_register %rbp
	pushq	%r15
	pushq	%r14
	pushq	%rbx
	pushq	%rax
	.cfi_offset %rbx, -40
	.cfi_offset %r14, -32
	.cfi_offset %r15, -24
	movq	%rdx, %r14
	movl	%esi, %r15d
	movl	%edi, %ebx
	callq	get_urand
	cmpl	$0, %eax
	jne	.LBB10_17
# %bb.1:                                # %func_ComposeSparePictureMessage.3
	movl	%ebx, %edi
	movl	%r15d, %esi
	movq	%r14, %rdx
	callq	ComposeSparePictureMessage.3
	addq	$8, %rsp
	popq	%rbx
	popq	%r14
	popq	%r15
	popq	%rbp
	.cfi_def_cfa %rsp, 8
	retq
.LBB10_2:                               # %func_ComposeSparePictureMessage.17
	.cfi_def_cfa %rbp, 16
	movl	%ebx, %edi
	movl	%r15d, %esi
	movq	%r14, %rdx
	callq	ComposeSparePictureMessage.17
	addq	$8, %rsp
	popq	%rbx
	popq	%r14
	popq	%r15
	popq	%rbp
	.cfi_def_cfa %rsp, 8
	retq
.LBB10_3:                               # %func_ComposeSparePictureMessage.65
	.cfi_def_cfa %rbp, 16
	movl	%ebx, %edi
	movl	%r15d, %esi
	movq	%r14, %rdx
	callq	ComposeSparePictureMessage.65
	addq	$8, %rsp
	popq	%rbx
	popq	%r14
	popq	%r15
	popq	%rbp
	.cfi_def_cfa %rsp, 8
	retq
.LBB10_4:                               # %func_ComposeSparePictureMessage.74
	.cfi_def_cfa %rbp, 16
	movl	%ebx, %edi
	movl	%r15d, %esi
	movq	%r14, %rdx
	callq	ComposeSparePictureMessage.74
	addq	$8, %rsp
	popq	%rbx
	popq	%r14
	popq	%r15
	popq	%rbp
	.cfi_def_cfa %rsp, 8
	retq
.LBB10_5:                               # %func_ComposeSparePictureMessage.84
	.cfi_def_cfa %rbp, 16
	movl	%ebx, %edi
	movl	%r15d, %esi
	movq	%r14, %rdx
	callq	ComposeSparePictureMessage.84
	addq	$8, %rsp
	popq	%rbx
	popq	%r14
	popq	%r15
	popq	%rbp
	.cfi_def_cfa %rsp, 8
	retq
.LBB10_6:                               # %func_ComposeSparePictureMessage.91
	.cfi_def_cfa %rbp, 16
	movl	%ebx, %edi
	movl	%r15d, %esi
	movq	%r14, %rdx
	callq	ComposeSparePictureMessage.91
	addq	$8, %rsp
	popq	%rbx
	popq	%r14
	popq	%r15
	popq	%rbp
	.cfi_def_cfa %rsp, 8
	retq
.LBB10_7:                               # %func_ComposeSparePictureMessage.133
	.cfi_def_cfa %rbp, 16
	movl	%ebx, %edi
	movl	%r15d, %esi
	movq	%r14, %rdx
	callq	ComposeSparePictureMessage.133
	addq	$8, %rsp
	popq	%rbx
	popq	%r14
	popq	%r15
	popq	%rbp
	.cfi_def_cfa %rsp, 8
	retq
.LBB10_8:                               # %func_ComposeSparePictureMessage.139
	.cfi_def_cfa %rbp, 16
	movl	%ebx, %edi
	movl	%r15d, %esi
	movq	%r14, %rdx
	callq	ComposeSparePictureMessage.139
	addq	$8, %rsp
	popq	%rbx
	popq	%r14
	popq	%r15
	popq	%rbp
	.cfi_def_cfa %rsp, 8
	retq
.LBB10_9:                               # %func_ComposeSparePictureMessage.140
	.cfi_def_cfa %rbp, 16
	movl	%ebx, %edi
	movl	%r15d, %esi
	movq	%r14, %rdx
	callq	ComposeSparePictureMessage.140
	addq	$8, %rsp
	popq	%rbx
	popq	%r14
	popq	%r15
	popq	%rbp
	.cfi_def_cfa %rsp, 8
	retq
.LBB10_10:                              # %func_ComposeSparePictureMessage.141
	.cfi_def_cfa %rbp, 16
	movl	%ebx, %edi
	movl	%r15d, %esi
	movq	%r14, %rdx
	callq	ComposeSparePictureMessage.141
	addq	$8, %rsp
	popq	%rbx
	popq	%r14
	popq	%r15
	popq	%rbp
	.cfi_def_cfa %rsp, 8
	retq
.LBB10_11:                              # %func_ComposeSparePictureMessage.142
	.cfi_def_cfa %rbp, 16
	movl	%ebx, %edi
	movl	%r15d, %esi
	movq	%r14, %rdx
	callq	ComposeSparePictureMessage.142
	addq	$8, %rsp
	popq	%rbx
	popq	%r14
	popq	%r15
	popq	%rbp
	.cfi_def_cfa %rsp, 8
	retq
.LBB10_12:                              # %func_ComposeSparePictureMessage.144
	.cfi_def_cfa %rbp, 16
	movl	%ebx, %edi
	movl	%r15d, %esi
	movq	%r14, %rdx
	callq	ComposeSparePictureMessage.144
	addq	$8, %rsp
	popq	%rbx
	popq	%r14
	popq	%r15
	popq	%rbp
	.cfi_def_cfa %rsp, 8
	retq
.LBB10_13:                              # %func_ComposeSparePictureMessage.145
	.cfi_def_cfa %rbp, 16
	movl	%ebx, %edi
	movl	%r15d, %esi
	movq	%r14, %rdx
	callq	ComposeSparePictureMessage.145
	addq	$8, %rsp
	popq	%rbx
	popq	%r14
	popq	%r15
	popq	%rbp
	.cfi_def_cfa %rsp, 8
	retq
.LBB10_14:                              # %func_ComposeSparePictureMessage.146
	.cfi_def_cfa %rbp, 16
	movl	%ebx, %edi
	movl	%r15d, %esi
	movq	%r14, %rdx
	callq	ComposeSparePictureMessage.146
	addq	$8, %rsp
	popq	%rbx
	popq	%r14
	popq	%r15
	popq	%rbp
	.cfi_def_cfa %rsp, 8
	retq
.LBB10_15:                              # %func_ComposeSparePictureMessage.147
	.cfi_def_cfa %rbp, 16
	movl	%ebx, %edi
	movl	%r15d, %esi
	movq	%r14, %rdx
	callq	ComposeSparePictureMessage.147
	addq	$8, %rsp
	popq	%rbx
	popq	%r14
	popq	%r15
	popq	%rbp
	.cfi_def_cfa %rsp, 8
	retq
.LBB10_16:                              # %func_ComposeSparePictureMessage.149
	.cfi_def_cfa %rbp, 16
	movl	%ebx, %edi
	movl	%r15d, %esi
	movq	%r14, %rdx
	callq	ComposeSparePictureMessage.149
	addq	$8, %rsp
	popq	%rbx
	popq	%r14
	popq	%r15
	popq	%rbp
	.cfi_def_cfa %rsp, 8
	retq
.LBB10_17:                              # %ctrl0
	.cfi_def_cfa %rbp, 16
	cmpl	$1, %eax
	je	.LBB10_2
# %bb.18:                               # %ctrl1
	cmpl	$2, %eax
	je	.LBB10_3
# %bb.19:                               # %ctrl2
	cmpl	$3, %eax
	je	.LBB10_4
# %bb.20:                               # %ctrl3
	cmpl	$4, %eax
	je	.LBB10_5
# %bb.21:                               # %ctrl4
	cmpl	$5, %eax
	je	.LBB10_6
# %bb.22:                               # %ctrl5
	cmpl	$6, %eax
	je	.LBB10_7
# %bb.23:                               # %ctrl6
	cmpl	$7, %eax
	je	.LBB10_8
# %bb.24:                               # %ctrl7
	cmpl	$8, %eax
	je	.LBB10_9
# %bb.25:                               # %ctrl8
	cmpl	$9, %eax
	je	.LBB10_10
# %bb.26:                               # %ctrl9
	cmpl	$10, %eax
	je	.LBB10_11
# %bb.27:                               # %ctrl10
	cmpl	$11, %eax
	je	.LBB10_12
# %bb.28:                               # %ctrl11
	cmpl	$12, %eax
	je	.LBB10_13
# %bb.29:                               # %ctrl12
	cmpl	$13, %eax
	je	.LBB10_14
# %bb.30:                               # %ctrl13
	cmpl	$14, %eax
	je	.LBB10_15
	jmp	.LBB10_16
.Lfunc_end10:
	.size	ComposeSparePictureMessage, .Lfunc_end10-ComposeSparePictureMessage
	.cfi_endproc
                                        # -- End function
	.globl	CompressSpareMBMap      # -- Begin function CompressSpareMBMap
	.p2align	4, 0x90
	.type	CompressSpareMBMap,@function
CompressSpareMBMap:                     # @CompressSpareMBMap
	.cfi_startproc
# %bb.0:                                # %rand_bb
	pushq	%rbp
	.cfi_def_cfa_offset 16
	.cfi_offset %rbp, -16
	movq	%rsp, %rbp
	.cfi_def_cfa_register %rbp
	pushq	%r14
	pushq	%rbx
	.cfi_offset %rbx, -32
	.cfi_offset %r14, -24
	movq	%rsi, %r14
	movq	%rdi, %rbx
	callq	get_urand
	cmpl	$0, %eax
	jne	.LBB11_17
# %bb.1:                                # %func_CompressSpareMBMap.54
	movq	%rbx, %rdi
	movq	%r14, %rsi
	callq	CompressSpareMBMap.54
	popq	%rbx
	popq	%r14
	popq	%rbp
	.cfi_def_cfa %rsp, 8
	retq
.LBB11_2:                               # %func_CompressSpareMBMap.67
	.cfi_def_cfa %rbp, 16
	movq	%rbx, %rdi
	movq	%r14, %rsi
	callq	CompressSpareMBMap.67
	popq	%rbx
	popq	%r14
	popq	%rbp
	.cfi_def_cfa %rsp, 8
	retq
.LBB11_3:                               # %func_CompressSpareMBMap.82
	.cfi_def_cfa %rbp, 16
	movq	%rbx, %rdi
	movq	%r14, %rsi
	callq	CompressSpareMBMap.82
	popq	%rbx
	popq	%r14
	popq	%rbp
	.cfi_def_cfa %rsp, 8
	retq
.LBB11_4:                               # %func_CompressSpareMBMap.95
	.cfi_def_cfa %rbp, 16
	movq	%rbx, %rdi
	movq	%r14, %rsi
	callq	CompressSpareMBMap.95
	popq	%rbx
	popq	%r14
	popq	%rbp
	.cfi_def_cfa %rsp, 8
	retq
.LBB11_5:                               # %func_CompressSpareMBMap.99
	.cfi_def_cfa %rbp, 16
	movq	%rbx, %rdi
	movq	%r14, %rsi
	callq	CompressSpareMBMap.99
	popq	%rbx
	popq	%r14
	popq	%rbp
	.cfi_def_cfa %rsp, 8
	retq
.LBB11_6:                               # %func_CompressSpareMBMap.100
	.cfi_def_cfa %rbp, 16
	movq	%rbx, %rdi
	movq	%r14, %rsi
	callq	CompressSpareMBMap.100
	popq	%rbx
	popq	%r14
	popq	%rbp
	.cfi_def_cfa %rsp, 8
	retq
.LBB11_7:                               # %func_CompressSpareMBMap.110
	.cfi_def_cfa %rbp, 16
	movq	%rbx, %rdi
	movq	%r14, %rsi
	callq	CompressSpareMBMap.110
	popq	%rbx
	popq	%r14
	popq	%rbp
	.cfi_def_cfa %rsp, 8
	retq
.LBB11_8:                               # %func_CompressSpareMBMap.113
	.cfi_def_cfa %rbp, 16
	movq	%rbx, %rdi
	movq	%r14, %rsi
	callq	CompressSpareMBMap.113
	popq	%rbx
	popq	%r14
	popq	%rbp
	.cfi_def_cfa %rsp, 8
	retq
.LBB11_9:                               # %func_CompressSpareMBMap.115
	.cfi_def_cfa %rbp, 16
	movq	%rbx, %rdi
	movq	%r14, %rsi
	callq	CompressSpareMBMap.115
	popq	%rbx
	popq	%r14
	popq	%rbp
	.cfi_def_cfa %rsp, 8
	retq
.LBB11_10:                              # %func_CompressSpareMBMap.116
	.cfi_def_cfa %rbp, 16
	movq	%rbx, %rdi
	movq	%r14, %rsi
	callq	CompressSpareMBMap.116
	popq	%rbx
	popq	%r14
	popq	%rbp
	.cfi_def_cfa %rsp, 8
	retq
.LBB11_11:                              # %func_CompressSpareMBMap.138
	.cfi_def_cfa %rbp, 16
	movq	%rbx, %rdi
	movq	%r14, %rsi
	callq	CompressSpareMBMap.138
	popq	%rbx
	popq	%r14
	popq	%rbp
	.cfi_def_cfa %rsp, 8
	retq
.LBB11_12:                              # %func_CompressSpareMBMap.143
	.cfi_def_cfa %rbp, 16
	movq	%rbx, %rdi
	movq	%r14, %rsi
	callq	CompressSpareMBMap.143
	popq	%rbx
	popq	%r14
	popq	%rbp
	.cfi_def_cfa %rsp, 8
	retq
.LBB11_13:                              # %func_CompressSpareMBMap.148
	.cfi_def_cfa %rbp, 16
	movq	%rbx, %rdi
	movq	%r14, %rsi
	callq	CompressSpareMBMap.148
	popq	%rbx
	popq	%r14
	popq	%rbp
	.cfi_def_cfa %rsp, 8
	retq
.LBB11_14:                              # %func_CompressSpareMBMap.150
	.cfi_def_cfa %rbp, 16
	movq	%rbx, %rdi
	movq	%r14, %rsi
	callq	CompressSpareMBMap.150
	popq	%rbx
	popq	%r14
	popq	%rbp
	.cfi_def_cfa %rsp, 8
	retq
.LBB11_15:                              # %func_CompressSpareMBMap.151
	.cfi_def_cfa %rbp, 16
	movq	%rbx, %rdi
	movq	%r14, %rsi
	callq	CompressSpareMBMap.151
	popq	%rbx
	popq	%r14
	popq	%rbp
	.cfi_def_cfa %rsp, 8
	retq
.LBB11_16:                              # %func_CompressSpareMBMap.152
	.cfi_def_cfa %rbp, 16
	movq	%rbx, %rdi
	movq	%r14, %rsi
	callq	CompressSpareMBMap.152
	popq	%rbx
	popq	%r14
	popq	%rbp
	.cfi_def_cfa %rsp, 8
	retq
.LBB11_17:                              # %ctrl0
	.cfi_def_cfa %rbp, 16
	cmpl	$1, %eax
	je	.LBB11_2
# %bb.18:                               # %ctrl1
	cmpl	$2, %eax
	je	.LBB11_3
# %bb.19:                               # %ctrl2
	cmpl	$3, %eax
	je	.LBB11_4
# %bb.20:                               # %ctrl3
	cmpl	$4, %eax
	je	.LBB11_5
# %bb.21:                               # %ctrl4
	cmpl	$5, %eax
	je	.LBB11_6
# %bb.22:                               # %ctrl5
	cmpl	$6, %eax
	je	.LBB11_7
# %bb.23:                               # %ctrl6
	cmpl	$7, %eax
	je	.LBB11_8
# %bb.24:                               # %ctrl7
	cmpl	$8, %eax
	je	.LBB11_9
# %bb.25:                               # %ctrl8
	cmpl	$9, %eax
	je	.LBB11_10
# %bb.26:                               # %ctrl9
	cmpl	$10, %eax
	je	.LBB11_11
# %bb.27:                               # %ctrl10
	cmpl	$11, %eax
	je	.LBB11_12
# %bb.28:                               # %ctrl11
	cmpl	$12, %eax
	je	.LBB11_13
# %bb.29:                               # %ctrl12
	cmpl	$13, %eax
	je	.LBB11_14
# %bb.30:                               # %ctrl13
	cmpl	$14, %eax
	je	.LBB11_15
	jmp	.LBB11_16
.Lfunc_end11:
	.size	CompressSpareMBMap, .Lfunc_end11-CompressSpareMBMap
	.cfi_endproc
                                        # -- End function
	.globl	FinalizeSpareMBMap      # -- Begin function FinalizeSpareMBMap
	.p2align	4, 0x90
	.type	FinalizeSpareMBMap,@function
FinalizeSpareMBMap:                     # @FinalizeSpareMBMap
	.cfi_startproc
# %bb.0:                                # %rand_bb
	pushq	%rbp
	.cfi_def_cfa_offset 16
	.cfi_offset %rbp, -16
	movq	%rsp, %rbp
	.cfi_def_cfa_register %rbp
	callq	get_urand
	cmpl	$0, %eax
	jne	.LBB12_17
# %bb.1:                                # %func_FinalizeSpareMBMap.14
	callq	FinalizeSpareMBMap.14
	popq	%rbp
	.cfi_def_cfa %rsp, 8
	retq
.LBB12_2:                               # %func_FinalizeSpareMBMap.29
	.cfi_def_cfa %rbp, 16
	callq	FinalizeSpareMBMap.29
	popq	%rbp
	.cfi_def_cfa %rsp, 8
	retq
.LBB12_3:                               # %func_FinalizeSpareMBMap.33
	.cfi_def_cfa %rbp, 16
	callq	FinalizeSpareMBMap.33
	popq	%rbp
	.cfi_def_cfa %rsp, 8
	retq
.LBB12_4:                               # %func_FinalizeSpareMBMap.49
	.cfi_def_cfa %rbp, 16
	callq	FinalizeSpareMBMap.49
	popq	%rbp
	.cfi_def_cfa %rsp, 8
	retq
.LBB12_5:                               # %func_FinalizeSpareMBMap.59
	.cfi_def_cfa %rbp, 16
	callq	FinalizeSpareMBMap.59
	popq	%rbp
	.cfi_def_cfa %rsp, 8
	retq
.LBB12_6:                               # %func_FinalizeSpareMBMap.62
	.cfi_def_cfa %rbp, 16
	callq	FinalizeSpareMBMap.62
	popq	%rbp
	.cfi_def_cfa %rsp, 8
	retq
.LBB12_7:                               # %func_FinalizeSpareMBMap.70
	.cfi_def_cfa %rbp, 16
	callq	FinalizeSpareMBMap.70
	popq	%rbp
	.cfi_def_cfa %rsp, 8
	retq
.LBB12_8:                               # %func_FinalizeSpareMBMap.71
	.cfi_def_cfa %rbp, 16
	callq	FinalizeSpareMBMap.71
	popq	%rbp
	.cfi_def_cfa %rsp, 8
	retq
.LBB12_9:                               # %func_FinalizeSpareMBMap.72
	.cfi_def_cfa %rbp, 16
	callq	FinalizeSpareMBMap.72
	popq	%rbp
	.cfi_def_cfa %rsp, 8
	retq
.LBB12_10:                              # %func_FinalizeSpareMBMap.85
	.cfi_def_cfa %rbp, 16
	callq	FinalizeSpareMBMap.85
	popq	%rbp
	.cfi_def_cfa %rsp, 8
	retq
.LBB12_11:                              # %func_FinalizeSpareMBMap.92
	.cfi_def_cfa %rbp, 16
	callq	FinalizeSpareMBMap.92
	popq	%rbp
	.cfi_def_cfa %rsp, 8
	retq
.LBB12_12:                              # %func_FinalizeSpareMBMap.102
	.cfi_def_cfa %rbp, 16
	callq	FinalizeSpareMBMap.102
	popq	%rbp
	.cfi_def_cfa %rsp, 8
	retq
.LBB12_13:                              # %func_FinalizeSpareMBMap.103
	.cfi_def_cfa %rbp, 16
	callq	FinalizeSpareMBMap.103
	popq	%rbp
	.cfi_def_cfa %rsp, 8
	retq
.LBB12_14:                              # %func_FinalizeSpareMBMap.119
	.cfi_def_cfa %rbp, 16
	callq	FinalizeSpareMBMap.119
	popq	%rbp
	.cfi_def_cfa %rsp, 8
	retq
.LBB12_15:                              # %func_FinalizeSpareMBMap.120
	.cfi_def_cfa %rbp, 16
	callq	FinalizeSpareMBMap.120
	popq	%rbp
	.cfi_def_cfa %rsp, 8
	retq
.LBB12_16:                              # %func_FinalizeSpareMBMap.121
	.cfi_def_cfa %rbp, 16
	callq	FinalizeSpareMBMap.121
	popq	%rbp
	.cfi_def_cfa %rsp, 8
	retq
.LBB12_17:                              # %ctrl0
	.cfi_def_cfa %rbp, 16
	cmpl	$1, %eax
	je	.LBB12_2
# %bb.18:                               # %ctrl1
	cmpl	$2, %eax
	je	.LBB12_3
# %bb.19:                               # %ctrl2
	cmpl	$3, %eax
	je	.LBB12_4
# %bb.20:                               # %ctrl3
	cmpl	$4, %eax
	je	.LBB12_5
# %bb.21:                               # %ctrl4
	cmpl	$5, %eax
	je	.LBB12_6
# %bb.22:                               # %ctrl5
	cmpl	$6, %eax
	je	.LBB12_7
# %bb.23:                               # %ctrl6
	cmpl	$7, %eax
	je	.LBB12_8
# %bb.24:                               # %ctrl7
	cmpl	$8, %eax
	je	.LBB12_9
# %bb.25:                               # %ctrl8
	cmpl	$9, %eax
	je	.LBB12_10
# %bb.26:                               # %ctrl9
	cmpl	$10, %eax
	je	.LBB12_11
# %bb.27:                               # %ctrl10
	cmpl	$11, %eax
	je	.LBB12_12
# %bb.28:                               # %ctrl11
	cmpl	$12, %eax
	je	.LBB12_13
# %bb.29:                               # %ctrl12
	cmpl	$13, %eax
	je	.LBB12_14
# %bb.30:                               # %ctrl13
	cmpl	$14, %eax
	je	.LBB12_15
	jmp	.LBB12_16
.Lfunc_end12:
	.size	FinalizeSpareMBMap, .Lfunc_end12-FinalizeSpareMBMap
	.cfi_endproc
                                        # -- End function
	.globl	InitSubseqInfo          # -- Begin function InitSubseqInfo
	.p2align	4, 0x90
	.type	InitSubseqInfo,@function
InitSubseqInfo:                         # @InitSubseqInfo
	.cfi_startproc
# %bb.0:                                # %entry
	pushq	%rbp
	.cfi_def_cfa_offset 16
	.cfi_offset %rbp, -16
	movq	%rsp, %rbp
	.cfi_def_cfa_register %rbp
	subq	$16, %rsp
	movl	%edi, -4(%rbp)
	movl	$1, seiHasSubseqInfo
	movl	-4(%rbp), %eax
	movslq	-4(%rbp), %rcx
	shlq	$5, %rcx
	movabsq	$seiSubseqInfo, %rdx
	movq	%rdx, %rsi
	addq	%rcx, %rsi
	movl	%eax, (%rsi)
	movw	InitSubseqInfo.id, %ax
	movw	%ax, %cx
	addw	$1, %cx
	movw	%cx, InitSubseqInfo.id
	movzwl	%ax, %eax
	movslq	-4(%rbp), %rcx
	shlq	$5, %rcx
	movq	%rdx, %rsi
	addq	%rcx, %rsi
	movl	%eax, 4(%rsi)
	movslq	-4(%rbp), %rax
	shlq	$5, %rax
	movq	%rdx, %rcx
	addq	%rax, %rcx
	movl	$0, 8(%rcx)
	movslq	-4(%rbp), %rax
	shlq	$5, %rax
	movq	%rdx, %rcx
	addq	%rax, %rcx
	movl	$-1, 12(%rcx)
	movslq	-4(%rbp), %rax
	shlq	$5, %rax
	addq	%rax, %rdx
	movl	$0, 16(%rdx)
	movl	$48, %edi
	callq	malloc
	movslq	-4(%rbp), %rcx
	shlq	$5, %rcx
	movabsq	$seiSubseqInfo, %rdx
	movq	%rdx, %rsi
	addq	%rcx, %rsi
	movq	%rax, 24(%rsi)
	movslq	-4(%rbp), %rax
	shlq	$5, %rax
	addq	%rax, %rdx
	cmpq	$0, 24(%rdx)
	jne	.LBB13_2
# %bb.1:                                # %if.then
	movabsq	$.L.str.5, %rdi
	callq	no_mem_exit
.LBB13_2:                               # %if.end
	movl	$65496, %edi            # imm = 0xFFD8
	callq	malloc
	movslq	-4(%rbp), %rcx
	shlq	$5, %rcx
	movabsq	$seiSubseqInfo, %rdx
	movq	%rdx, %rsi
	addq	%rcx, %rsi
	movq	24(%rsi), %rcx
	movq	%rax, 32(%rcx)
	movslq	-4(%rbp), %rax
	shlq	$5, %rax
	addq	%rax, %rdx
	movq	24(%rdx), %rax
	cmpq	$0, 32(%rax)
	jne	.LBB13_4
# %bb.3:                                # %if.then25
	movabsq	$.L.str.6, %rdi
	callq	no_mem_exit
.LBB13_4:                               # %if.end26
	movslq	-4(%rbp), %rax
	shlq	$5, %rax
	movabsq	$seiSubseqInfo, %rcx
	movq	%rcx, %rdx
	addq	%rax, %rdx
	movq	24(%rdx), %rax
	movl	$8, 4(%rax)
	movslq	-4(%rbp), %rax
	shlq	$5, %rax
	movq	%rcx, %rdx
	addq	%rax, %rdx
	movq	24(%rdx), %rax
	movl	$0, (%rax)
	movslq	-4(%rbp), %rax
	shlq	$5, %rax
	movq	%rcx, %rdx
	addq	%rax, %rdx
	movq	24(%rdx), %rax
	movb	$0, 8(%rax)
	movslq	-4(%rbp), %rax
	shlq	$5, %rax
	addq	%rax, %rcx
	movq	24(%rcx), %rax
	movq	32(%rax), %rdi
	xorl	%esi, %esi
	movl	$65496, %edx            # imm = 0xFFD8
	callq	memset
	addq	$16, %rsp
	popq	%rbp
	.cfi_def_cfa %rsp, 8
	retq
.Lfunc_end13:
	.size	InitSubseqInfo, .Lfunc_end13-InitSubseqInfo
	.cfi_endproc
                                        # -- End function
	.globl	UpdateSubseqInfo        # -- Begin function UpdateSubseqInfo
	.p2align	4, 0x90
	.type	UpdateSubseqInfo,@function
UpdateSubseqInfo:                       # @UpdateSubseqInfo
	.cfi_startproc
# %bb.0:                                # %entry
	pushq	%rbp
	.cfi_def_cfa_offset 16
	.cfi_offset %rbp, -16
	movq	%rsp, %rbp
	.cfi_def_cfa_register %rbp
	movl	%edi, -4(%rbp)
	movq	img, %rax
	cmpl	$1, 24(%rax)
	je	.LBB14_2
# %bb.1:                                # %if.then
	movslq	-4(%rbp), %rax
	shlq	$5, %rax
	movabsq	$seiSubseqInfo, %rcx
	movq	%rcx, %rdx
	addq	%rax, %rdx
	movl	12(%rdx), %eax
	addl	$1, %eax
	movl	%eax, 12(%rdx)
	movslq	-4(%rbp), %rax
	shlq	$5, %rax
	movq	%rcx, %rdx
	addq	%rax, %rdx
	movl	12(%rdx), %eax
	andl	$255, %eax
	movslq	-4(%rbp), %rdx
	shlq	$5, %rdx
	addq	%rdx, %rcx
	movl	%eax, 12(%rcx)
.LBB14_2:                               # %if.end
	cmpl	$0, -4(%rbp)
	jne	.LBB14_7
# %bb.3:                                # %if.then8
	movq	img, %rax
	movl	(%rax), %eax
	movq	input, %rcx
	movl	8(%rcx), %ecx
	subl	$1, %ecx
	cmpl	%ecx, %eax
	jne	.LBB14_5
# %bb.4:                                # %if.then10
	movslq	-4(%rbp), %rax
	shlq	$5, %rax
	movabsq	$seiSubseqInfo, %rcx
	addq	%rax, %rcx
	movl	$1, 8(%rcx)
	jmp	.LBB14_6
.LBB14_5:                               # %if.else
	movslq	-4(%rbp), %rax
	shlq	$5, %rax
	movabsq	$seiSubseqInfo, %rcx
	addq	%rax, %rcx
	movl	$0, 8(%rcx)
.LBB14_6:                               # %if.end16
	jmp	.LBB14_7
.LBB14_7:                               # %if.end17
	cmpl	$1, -4(%rbp)
	jne	.LBB14_16
# %bb.8:                                # %if.then19
	movq	img, %rax
	movl	(%rax), %eax
	subl	start_frame_no_in_this_IGOP, %eax
	movq	input, %rcx
	movl	2912(%rcx), %ecx
	addl	$1, %ecx
	cltd
	idivl	%ecx
	cmpl	$0, %edx
	jne	.LBB14_11
# %bb.9:                                # %land.lhs.true
	movq	input, %rax
	cmpl	$0, 1236(%rax)
	je	.LBB14_11
# %bb.10:                               # %land.lhs.true25
	movq	img, %rax
	movl	(%rax), %eax
	subl	start_frame_no_in_this_IGOP, %eax
	cmpl	$0, %eax
	jg	.LBB14_13
.LBB14_11:                              # %lor.lhs.false
	movq	img, %rax
	movl	(%rax), %eax
	subl	start_frame_no_in_this_IGOP, %eax
	movq	input, %rcx
	movl	2912(%rcx), %ecx
	addl	$1, %ecx
	cltd
	idivl	%ecx
	movq	input, %rax
	cmpl	2912(%rax), %edx
	jne	.LBB14_14
# %bb.12:                               # %land.lhs.true36
	movq	input, %rax
	cmpl	$0, 1236(%rax)
	jne	.LBB14_14
.LBB14_13:                              # %if.then39
	movslq	-4(%rbp), %rax
	shlq	$5, %rax
	movabsq	$seiSubseqInfo, %rcx
	addq	%rax, %rcx
	movl	$1, 8(%rcx)
	jmp	.LBB14_15
.LBB14_14:                              # %if.else43
	movslq	-4(%rbp), %rax
	shlq	$5, %rax
	movabsq	$seiSubseqInfo, %rcx
	addq	%rax, %rcx
	movl	$0, 8(%rcx)
.LBB14_15:                              # %if.end47
	jmp	.LBB14_16
.LBB14_16:                              # %if.end48
	popq	%rbp
	.cfi_def_cfa %rsp, 8
	retq
.Lfunc_end14:
	.size	UpdateSubseqInfo, .Lfunc_end14-UpdateSubseqInfo
	.cfi_endproc
                                        # -- End function
	.globl	FinalizeSubseqInfo      # -- Begin function FinalizeSubseqInfo
	.p2align	4, 0x90
	.type	FinalizeSubseqInfo,@function
FinalizeSubseqInfo:                     # @FinalizeSubseqInfo
	.cfi_startproc
# %bb.0:                                # %rand_bb
	pushq	%rbp
	.cfi_def_cfa_offset 16
	.cfi_offset %rbp, -16
	movq	%rsp, %rbp
	.cfi_def_cfa_register %rbp
	pushq	%rbx
	pushq	%rax
	.cfi_offset %rbx, -24
	movl	%edi, %ebx
	callq	get_urand
	cmpl	$0, %eax
	jne	.LBB15_7
# %bb.1:                                # %func_FinalizeSubseqInfo.2
	movl	%ebx, %edi
	callq	FinalizeSubseqInfo.2
	addq	$8, %rsp
	popq	%rbx
	popq	%rbp
	.cfi_def_cfa %rsp, 8
	retq
.LBB15_2:                               # %func_FinalizeSubseqInfo.4
	.cfi_def_cfa %rbp, 16
	movl	%ebx, %edi
	callq	FinalizeSubseqInfo.4
	addq	$8, %rsp
	popq	%rbx
	popq	%rbp
	.cfi_def_cfa %rsp, 8
	retq
.LBB15_3:                               # %func_FinalizeSubseqInfo.8
	.cfi_def_cfa %rbp, 16
	movl	%ebx, %edi
	callq	FinalizeSubseqInfo.8
	addq	$8, %rsp
	popq	%rbx
	popq	%rbp
	.cfi_def_cfa %rsp, 8
	retq
.LBB15_4:                               # %func_FinalizeSubseqInfo.9
	.cfi_def_cfa %rbp, 16
	movl	%ebx, %edi
	callq	FinalizeSubseqInfo.9
	addq	$8, %rsp
	popq	%rbx
	popq	%rbp
	.cfi_def_cfa %rsp, 8
	retq
.LBB15_5:                               # %func_FinalizeSubseqInfo.36
	.cfi_def_cfa %rbp, 16
	movl	%ebx, %edi
	callq	FinalizeSubseqInfo.36
	addq	$8, %rsp
	popq	%rbx
	popq	%rbp
	.cfi_def_cfa %rsp, 8
	retq
.LBB15_6:                               # %func_FinalizeSubseqInfo.37
	.cfi_def_cfa %rbp, 16
	movl	%ebx, %edi
	callq	FinalizeSubseqInfo.37
	addq	$8, %rsp
	popq	%rbx
	popq	%rbp
	.cfi_def_cfa %rsp, 8
	retq
.LBB15_7:                               # %ctrl0
	.cfi_def_cfa %rbp, 16
	cmpl	$1, %eax
	je	.LBB15_2
# %bb.8:                                # %ctrl1
	cmpl	$2, %eax
	je	.LBB15_3
# %bb.9:                                # %ctrl2
	cmpl	$3, %eax
	je	.LBB15_4
# %bb.10:                               # %ctrl3
	cmpl	$4, %eax
	je	.LBB15_5
	jmp	.LBB15_6
.Lfunc_end15:
	.size	FinalizeSubseqInfo, .Lfunc_end15-FinalizeSubseqInfo
	.cfi_endproc
                                        # -- End function
	.globl	ClearSubseqInfoPayload  # -- Begin function ClearSubseqInfoPayload
	.p2align	4, 0x90
	.type	ClearSubseqInfoPayload,@function
ClearSubseqInfoPayload:                 # @ClearSubseqInfoPayload
	.cfi_startproc
# %bb.0:                                # %entry
	pushq	%rbp
	.cfi_def_cfa_offset 16
	.cfi_offset %rbp, -16
	movq	%rsp, %rbp
	.cfi_def_cfa_register %rbp
	pushq	%rbx
	pushq	%rax
	.cfi_offset %rbx, -24
	movl	%edi, -12(%rbp)
	movslq	-12(%rbp), %rax
	shlq	$5, %rax
	movabsq	$seiSubseqInfo, %rbx
	movq	%rbx, %rcx
	addq	%rax, %rcx
	movq	24(%rcx), %rax
	movl	$8, 4(%rax)
	movslq	-12(%rbp), %rax
	shlq	$5, %rax
	movq	%rbx, %rcx
	addq	%rax, %rcx
	movq	24(%rcx), %rax
	movl	$0, (%rax)
	movslq	-12(%rbp), %rax
	shlq	$5, %rax
	movq	%rbx, %rcx
	addq	%rax, %rcx
	movq	24(%rcx), %rax
	movb	$0, 8(%rax)
	movslq	-12(%rbp), %rax
	shlq	$5, %rax
	movq	%rbx, %rcx
	addq	%rax, %rcx
	movq	24(%rcx), %rax
	movq	32(%rax), %rdi
	xorl	%esi, %esi
	movl	$65496, %edx            # imm = 0xFFD8
	callq	memset
	movslq	-12(%rbp), %rax
	shlq	$5, %rax
	addq	%rax, %rbx
	movl	$0, 16(%rbx)
	addq	$8, %rsp
	popq	%rbx
	popq	%rbp
	.cfi_def_cfa %rsp, 8
	retq
.Lfunc_end16:
	.size	ClearSubseqInfoPayload, .Lfunc_end16-ClearSubseqInfoPayload
	.cfi_endproc
                                        # -- End function
	.globl	CloseSubseqInfo         # -- Begin function CloseSubseqInfo
	.p2align	4, 0x90
	.type	CloseSubseqInfo,@function
CloseSubseqInfo:                        # @CloseSubseqInfo
	.cfi_startproc
# %bb.0:                                # %entry
	pushq	%rbp
	.cfi_def_cfa_offset 16
	.cfi_offset %rbp, -16
	movq	%rsp, %rbp
	.cfi_def_cfa_register %rbp
	subq	$16, %rsp
	movl	%edi, -4(%rbp)
	movslq	-4(%rbp), %rax
	shlq	$5, %rax
	movabsq	$seiSubseqInfo, %rcx
	movq	%rcx, %rdx
	addq	%rax, %rdx
	movl	$-1, 12(%rdx)
	movslq	-4(%rbp), %rax
	shlq	$5, %rax
	movq	%rcx, %rdx
	addq	%rax, %rdx
	movl	$0, 16(%rdx)
	movslq	-4(%rbp), %rax
	shlq	$5, %rax
	addq	%rax, %rcx
	movq	24(%rcx), %rax
	movq	32(%rax), %rdi
	callq	free
	movslq	-4(%rbp), %rax
	shlq	$5, %rax
	movabsq	$seiSubseqInfo, %rcx
	addq	%rax, %rcx
	movq	24(%rcx), %rdi
	callq	free
	addq	$16, %rsp
	popq	%rbp
	.cfi_def_cfa %rsp, 8
	retq
.Lfunc_end17:
	.size	CloseSubseqInfo, .Lfunc_end17-CloseSubseqInfo
	.cfi_endproc
                                        # -- End function
	.globl	InitSubseqLayerInfo     # -- Begin function InitSubseqLayerInfo
	.p2align	4, 0x90
	.type	InitSubseqLayerInfo,@function
InitSubseqLayerInfo:                    # @InitSubseqLayerInfo
	.cfi_startproc
# %bb.0:                                # %entry
	pushq	%rbp
	.cfi_def_cfa_offset 16
	.cfi_offset %rbp, -16
	movq	%rsp, %rbp
	.cfi_def_cfa_register %rbp
	movl	$1, seiHasSubseqLayerInfo
	movl	$0, seiSubseqLayerInfo+16
	movl	$0, -4(%rbp)
.LBB18_1:                               # %for.cond
                                        # =>This Inner Loop Header: Depth=1
	cmpl	$2, -4(%rbp)
	jge	.LBB18_4
# %bb.2:                                # %for.body
                                        #   in Loop: Header=BB18_1 Depth=1
	movslq	-4(%rbp), %rax
	movw	$0, seiSubseqLayerInfo(,%rax,2)
	movslq	-4(%rbp), %rax
	movw	$0, seiSubseqLayerInfo+4(,%rax,2)
	movl	seiSubseqLayerInfo+16, %eax
	addl	$1, %eax
	movl	%eax, seiSubseqLayerInfo+16
# %bb.3:                                # %for.inc
                                        #   in Loop: Header=BB18_1 Depth=1
	movl	-4(%rbp), %eax
	addl	$1, %eax
	movl	%eax, -4(%rbp)
	jmp	.LBB18_1
.LBB18_4:                               # %for.end
	popq	%rbp
	.cfi_def_cfa %rsp, 8
	retq
.Lfunc_end18:
	.size	InitSubseqLayerInfo, .Lfunc_end18-InitSubseqLayerInfo
	.cfi_endproc
                                        # -- End function
	.globl	CloseSubseqLayerInfo    # -- Begin function CloseSubseqLayerInfo
	.p2align	4, 0x90
	.type	CloseSubseqLayerInfo,@function
CloseSubseqLayerInfo:                   # @CloseSubseqLayerInfo
	.cfi_startproc
# %bb.0:                                # %entry
	pushq	%rbp
	.cfi_def_cfa_offset 16
	.cfi_offset %rbp, -16
	movq	%rsp, %rbp
	.cfi_def_cfa_register %rbp
	popq	%rbp
	.cfi_def_cfa %rsp, 8
	retq
.Lfunc_end19:
	.size	CloseSubseqLayerInfo, .Lfunc_end19-CloseSubseqLayerInfo
	.cfi_endproc
                                        # -- End function
	.globl	FinalizeSubseqLayerInfo # -- Begin function FinalizeSubseqLayerInfo
	.p2align	4, 0x90
	.type	FinalizeSubseqLayerInfo,@function
FinalizeSubseqLayerInfo:                # @FinalizeSubseqLayerInfo
	.cfi_startproc
# %bb.0:                                # %rand_bb
	pushq	%rbp
	.cfi_def_cfa_offset 16
	.cfi_offset %rbp, -16
	movq	%rsp, %rbp
	.cfi_def_cfa_register %rbp
	callq	get_urand
	cmpl	$0, %eax
	jne	.LBB20_2
# %bb.1:                                # %func_FinalizeSubseqLayerInfo.38
	callq	FinalizeSubseqLayerInfo.38
	popq	%rbp
	.cfi_def_cfa %rsp, 8
	retq
.LBB20_2:                               # %func_FinalizeSubseqLayerInfo.45
	.cfi_def_cfa %rbp, 16
	callq	FinalizeSubseqLayerInfo.45
	popq	%rbp
	.cfi_def_cfa %rsp, 8
	retq
.Lfunc_end20:
	.size	FinalizeSubseqLayerInfo, .Lfunc_end20-FinalizeSubseqLayerInfo
	.cfi_endproc
                                        # -- End function
	.globl	InitSubseqChar          # -- Begin function InitSubseqChar
	.p2align	4, 0x90
	.type	InitSubseqChar,@function
InitSubseqChar:                         # @InitSubseqChar
	.cfi_startproc
# %bb.0:                                # %entry
	pushq	%rbp
	.cfi_def_cfa_offset 16
	.cfi_offset %rbp, -16
	movq	%rsp, %rbp
	.cfi_def_cfa_register %rbp
	movl	$48, %edi
	callq	malloc
	movq	%rax, seiSubseqChar+72
	cmpq	$0, seiSubseqChar+72
	jne	.LBB21_2
# %bb.1:                                # %if.then
	movabsq	$.L.str.7, %rdi
	callq	no_mem_exit
.LBB21_2:                               # %if.end
	movl	$65496, %edi            # imm = 0xFFD8
	callq	malloc
	movq	seiSubseqChar+72, %rcx
	movq	%rax, 32(%rcx)
	movq	seiSubseqChar+72, %rax
	cmpq	$0, 32(%rax)
	jne	.LBB21_4
# %bb.3:                                # %if.then4
	movabsq	$.L.str.8, %rdi
	callq	no_mem_exit
.LBB21_4:                               # %if.end5
	callq	ClearSubseqCharPayload
	movq	img, %rax
	movl	72384(%rax), %eax
	movl	%eax, seiSubseqChar
	movq	img, %rax
	movslq	72384(%rax), %rax
	shlq	$5, %rax
	movabsq	$seiSubseqInfo, %rcx
	addq	%rax, %rcx
	movl	4(%rcx), %eax
	movl	%eax, seiSubseqChar+4
	movl	$0, seiSubseqChar+8
	movl	$0, seiSubseqChar+16
	movl	$0, seiSubseqChar+28
	popq	%rbp
	.cfi_def_cfa %rsp, 8
	retq
.Lfunc_end21:
	.size	InitSubseqChar, .Lfunc_end21-InitSubseqChar
	.cfi_endproc
                                        # -- End function
	.globl	ClearSubseqCharPayload  # -- Begin function ClearSubseqCharPayload
	.p2align	4, 0x90
	.type	ClearSubseqCharPayload,@function
ClearSubseqCharPayload:                 # @ClearSubseqCharPayload
	.cfi_startproc
# %bb.0:                                # %entry
	pushq	%rbp
	.cfi_def_cfa_offset 16
	.cfi_offset %rbp, -16
	movq	%rsp, %rbp
	.cfi_def_cfa_register %rbp
	movq	seiSubseqChar+72, %rax
	movq	32(%rax), %rdi
	xorl	%esi, %esi
	movl	$65496, %edx            # imm = 0xFFD8
	callq	memset
	movq	seiSubseqChar+72, %rax
	movl	$8, 4(%rax)
	movq	seiSubseqChar+72, %rax
	movl	$0, (%rax)
	movq	seiSubseqChar+72, %rax
	movb	$0, 8(%rax)
	movl	$0, seiSubseqChar+80
	movl	$0, seiHasSubseqChar
	popq	%rbp
	.cfi_def_cfa %rsp, 8
	retq
.Lfunc_end22:
	.size	ClearSubseqCharPayload, .Lfunc_end22-ClearSubseqCharPayload
	.cfi_endproc
                                        # -- End function
	.globl	UpdateSubseqChar        # -- Begin function UpdateSubseqChar
	.p2align	4, 0x90
	.type	UpdateSubseqChar,@function
UpdateSubseqChar:                       # @UpdateSubseqChar
	.cfi_startproc
# %bb.0:                                # %entry
	pushq	%rbp
	.cfi_def_cfa_offset 16
	.cfi_offset %rbp, -16
	movq	%rsp, %rbp
	.cfi_def_cfa_register %rbp
	movq	img, %rax
	movl	72384(%rax), %eax
	movl	%eax, seiSubseqChar
	movq	img, %rax
	movslq	72384(%rax), %rax
	shlq	$5, %rax
	movabsq	$seiSubseqInfo, %rcx
	addq	%rax, %rcx
	movl	4(%rcx), %eax
	movl	%eax, seiSubseqChar+4
	movl	$0, seiSubseqChar+8
	movl	$0, seiSubseqChar+16
	movl	$100, seiSubseqChar+20
	movl	$30, seiSubseqChar+24
	movl	$0, seiSubseqChar+28
	movl	$1, seiSubseqChar+32
	movl	$2, seiSubseqChar+52
	movl	$3, seiSubseqChar+36
	movl	$4, seiSubseqChar+56
	movl	$1, seiHasSubseqChar
	popq	%rbp
	.cfi_def_cfa %rsp, 8
	retq
.Lfunc_end23:
	.size	UpdateSubseqChar, .Lfunc_end23-UpdateSubseqChar
	.cfi_endproc
                                        # -- End function
	.globl	FinalizeSubseqChar      # -- Begin function FinalizeSubseqChar
	.p2align	4, 0x90
	.type	FinalizeSubseqChar,@function
FinalizeSubseqChar:                     # @FinalizeSubseqChar
	.cfi_startproc
# %bb.0:                                # %rand_bb
	pushq	%rbp
	.cfi_def_cfa_offset 16
	.cfi_offset %rbp, -16
	movq	%rsp, %rbp
	.cfi_def_cfa_register %rbp
	callq	get_urand
	cmpl	$0, %eax
	jne	.LBB24_7
# %bb.1:                                # %func_FinalizeSubseqChar.18
	callq	FinalizeSubseqChar.18
	popq	%rbp
	.cfi_def_cfa %rsp, 8
	retq
.LBB24_2:                               # %func_FinalizeSubseqChar.50
	.cfi_def_cfa %rbp, 16
	callq	FinalizeSubseqChar.50
	popq	%rbp
	.cfi_def_cfa %rsp, 8
	retq
.LBB24_3:                               # %func_FinalizeSubseqChar.53
	.cfi_def_cfa %rbp, 16
	callq	FinalizeSubseqChar.53
	popq	%rbp
	.cfi_def_cfa %rsp, 8
	retq
.LBB24_4:                               # %func_FinalizeSubseqChar.66
	.cfi_def_cfa %rbp, 16
	callq	FinalizeSubseqChar.66
	popq	%rbp
	.cfi_def_cfa %rsp, 8
	retq
.LBB24_5:                               # %func_FinalizeSubseqChar.125
	.cfi_def_cfa %rbp, 16
	callq	FinalizeSubseqChar.125
	popq	%rbp
	.cfi_def_cfa %rsp, 8
	retq
.LBB24_6:                               # %func_FinalizeSubseqChar.132
	.cfi_def_cfa %rbp, 16
	callq	FinalizeSubseqChar.132
	popq	%rbp
	.cfi_def_cfa %rsp, 8
	retq
.LBB24_7:                               # %ctrl0
	.cfi_def_cfa %rbp, 16
	cmpl	$1, %eax
	je	.LBB24_2
# %bb.8:                                # %ctrl1
	cmpl	$2, %eax
	je	.LBB24_3
# %bb.9:                                # %ctrl2
	cmpl	$3, %eax
	je	.LBB24_4
# %bb.10:                               # %ctrl3
	cmpl	$4, %eax
	je	.LBB24_5
	jmp	.LBB24_6
.Lfunc_end24:
	.size	FinalizeSubseqChar, .Lfunc_end24-FinalizeSubseqChar
	.cfi_endproc
                                        # -- End function
	.globl	CloseSubseqChar         # -- Begin function CloseSubseqChar
	.p2align	4, 0x90
	.type	CloseSubseqChar,@function
CloseSubseqChar:                        # @CloseSubseqChar
	.cfi_startproc
# %bb.0:                                # %entry
	pushq	%rbp
	.cfi_def_cfa_offset 16
	.cfi_offset %rbp, -16
	movq	%rsp, %rbp
	.cfi_def_cfa_register %rbp
	cmpq	$0, seiSubseqChar+72
	je	.LBB25_2
# %bb.1:                                # %if.then
	movq	seiSubseqChar+72, %rax
	movq	32(%rax), %rdi
	callq	free
	movq	seiSubseqChar+72, %rdi
	callq	free
.LBB25_2:                               # %if.end
	movq	$0, seiSubseqChar+72
	popq	%rbp
	.cfi_def_cfa %rsp, 8
	retq
.Lfunc_end25:
	.size	CloseSubseqChar, .Lfunc_end25-CloseSubseqChar
	.cfi_endproc
                                        # -- End function
	.globl	InitSceneInformation    # -- Begin function InitSceneInformation
	.p2align	4, 0x90
	.type	InitSceneInformation,@function
InitSceneInformation:                   # @InitSceneInformation
	.cfi_startproc
# %bb.0:                                # %entry
	pushq	%rbp
	.cfi_def_cfa_offset 16
	.cfi_offset %rbp, -16
	movq	%rsp, %rbp
	.cfi_def_cfa_register %rbp
	movl	$1, seiHasSceneInformation
	movl	$0, seiSceneInformation
	movl	$0, seiSceneInformation+4
	movl	$-1, seiSceneInformation+8
	movl	$48, %edi
	callq	malloc
	movq	%rax, seiSceneInformation+16
	cmpq	$0, seiSceneInformation+16
	jne	.LBB26_2
# %bb.1:                                # %if.then
	movabsq	$.L.str.9, %rdi
	callq	no_mem_exit
.LBB26_2:                               # %if.end
	movl	$65496, %edi            # imm = 0xFFD8
	callq	malloc
	movq	seiSceneInformation+16, %rcx
	movq	%rax, 32(%rcx)
	movq	seiSceneInformation+16, %rax
	cmpq	$0, 32(%rax)
	jne	.LBB26_4
# %bb.3:                                # %if.then4
	movabsq	$.L.str.10, %rdi
	callq	no_mem_exit
.LBB26_4:                               # %if.end5
	movq	seiSceneInformation+16, %rax
	movl	$8, 4(%rax)
	movq	seiSceneInformation+16, %rax
	movl	$0, (%rax)
	movq	seiSceneInformation+16, %rax
	movb	$0, 8(%rax)
	movq	seiSceneInformation+16, %rax
	movq	32(%rax), %rdi
	xorl	%esi, %esi
	movl	$65496, %edx            # imm = 0xFFD8
	callq	memset
	popq	%rbp
	.cfi_def_cfa %rsp, 8
	retq
.Lfunc_end26:
	.size	InitSceneInformation, .Lfunc_end26-InitSceneInformation
	.cfi_endproc
                                        # -- End function
	.globl	CloseSceneInformation   # -- Begin function CloseSceneInformation
	.p2align	4, 0x90
	.type	CloseSceneInformation,@function
CloseSceneInformation:                  # @CloseSceneInformation
	.cfi_startproc
# %bb.0:                                # %entry
	pushq	%rbp
	.cfi_def_cfa_offset 16
	.cfi_offset %rbp, -16
	movq	%rsp, %rbp
	.cfi_def_cfa_register %rbp
	cmpq	$0, seiSceneInformation+16
	je	.LBB27_2
# %bb.1:                                # %if.then
	movq	seiSceneInformation+16, %rax
	movq	32(%rax), %rdi
	callq	free
	movq	seiSceneInformation+16, %rdi
	callq	free
.LBB27_2:                               # %if.end
	movq	$0, seiSceneInformation+16
	popq	%rbp
	.cfi_def_cfa %rsp, 8
	retq
.Lfunc_end27:
	.size	CloseSceneInformation, .Lfunc_end27-CloseSceneInformation
	.cfi_endproc
                                        # -- End function
	.globl	FinalizeSceneInformation # -- Begin function FinalizeSceneInformation
	.p2align	4, 0x90
	.type	FinalizeSceneInformation,@function
FinalizeSceneInformation:               # @FinalizeSceneInformation
	.cfi_startproc
# %bb.0:                                # %rand_bb
	pushq	%rbp
	.cfi_def_cfa_offset 16
	.cfi_offset %rbp, -16
	movq	%rsp, %rbp
	.cfi_def_cfa_register %rbp
	callq	get_urand
	cmpl	$0, %eax
	jne	.LBB28_2
# %bb.1:                                # %func_FinalizeSceneInformation.11
	callq	FinalizeSceneInformation.11
	popq	%rbp
	.cfi_def_cfa %rsp, 8
	retq
.LBB28_2:                               # %func_FinalizeSceneInformation.47
	.cfi_def_cfa %rbp, 16
	callq	FinalizeSceneInformation.47
	popq	%rbp
	.cfi_def_cfa %rsp, 8
	retq
.Lfunc_end28:
	.size	FinalizeSceneInformation, .Lfunc_end28-FinalizeSceneInformation
	.cfi_endproc
                                        # -- End function
	.globl	UpdateSceneInformation  # -- Begin function UpdateSceneInformation
	.p2align	4, 0x90
	.type	UpdateSceneInformation,@function
UpdateSceneInformation:                 # @UpdateSceneInformation
	.cfi_startproc
# %bb.0:                                # %rand_bb
	pushq	%rbp
	.cfi_def_cfa_offset 16
	.cfi_offset %rbp, -16
	movq	%rsp, %rbp
	.cfi_def_cfa_register %rbp
	pushq	%r15
	pushq	%r14
	pushq	%r12
	pushq	%rbx
	.cfi_offset %rbx, -48
	.cfi_offset %r12, -40
	.cfi_offset %r14, -32
	.cfi_offset %r15, -24
	movl	%ecx, %r14d
	movl	%edx, %r15d
	movl	%esi, %r12d
	movl	%edi, %ebx
	callq	get_urand
	cmpl	$0, %eax
	jne	.LBB29_17
# %bb.1:                                # %func_UpdateSceneInformation.7
	movl	%ebx, %edi
	movl	%r12d, %esi
	movl	%r15d, %edx
	movl	%r14d, %ecx
	callq	UpdateSceneInformation.7
	popq	%rbx
	popq	%r12
	popq	%r14
	popq	%r15
	popq	%rbp
	.cfi_def_cfa %rsp, 8
	retq
.LBB29_2:                               # %func_UpdateSceneInformation.22
	.cfi_def_cfa %rbp, 16
	movl	%ebx, %edi
	movl	%r12d, %esi
	movl	%r15d, %edx
	movl	%r14d, %ecx
	callq	UpdateSceneInformation.22
	popq	%rbx
	popq	%r12
	popq	%r14
	popq	%r15
	popq	%rbp
	.cfi_def_cfa %rsp, 8
	retq
.LBB29_3:                               # %func_UpdateSceneInformation.25
	.cfi_def_cfa %rbp, 16
	movl	%ebx, %edi
	movl	%r12d, %esi
	movl	%r15d, %edx
	movl	%r14d, %ecx
	callq	UpdateSceneInformation.25
	popq	%rbx
	popq	%r12
	popq	%r14
	popq	%r15
	popq	%rbp
	.cfi_def_cfa %rsp, 8
	retq
.LBB29_4:                               # %func_UpdateSceneInformation.27
	.cfi_def_cfa %rbp, 16
	movl	%ebx, %edi
	movl	%r12d, %esi
	movl	%r15d, %edx
	movl	%r14d, %ecx
	callq	UpdateSceneInformation.27
	popq	%rbx
	popq	%r12
	popq	%r14
	popq	%r15
	popq	%rbp
	.cfi_def_cfa %rsp, 8
	retq
.LBB29_5:                               # %func_UpdateSceneInformation.35
	.cfi_def_cfa %rbp, 16
	movl	%ebx, %edi
	movl	%r12d, %esi
	movl	%r15d, %edx
	movl	%r14d, %ecx
	callq	UpdateSceneInformation.35
	popq	%rbx
	popq	%r12
	popq	%r14
	popq	%r15
	popq	%rbp
	.cfi_def_cfa %rsp, 8
	retq
.LBB29_6:                               # %func_UpdateSceneInformation.48
	.cfi_def_cfa %rbp, 16
	movl	%ebx, %edi
	movl	%r12d, %esi
	movl	%r15d, %edx
	movl	%r14d, %ecx
	callq	UpdateSceneInformation.48
	popq	%rbx
	popq	%r12
	popq	%r14
	popq	%r15
	popq	%rbp
	.cfi_def_cfa %rsp, 8
	retq
.LBB29_7:                               # %func_UpdateSceneInformation.51
	.cfi_def_cfa %rbp, 16
	movl	%ebx, %edi
	movl	%r12d, %esi
	movl	%r15d, %edx
	movl	%r14d, %ecx
	callq	UpdateSceneInformation.51
	popq	%rbx
	popq	%r12
	popq	%r14
	popq	%r15
	popq	%rbp
	.cfi_def_cfa %rsp, 8
	retq
.LBB29_8:                               # %func_UpdateSceneInformation.79
	.cfi_def_cfa %rbp, 16
	movl	%ebx, %edi
	movl	%r12d, %esi
	movl	%r15d, %edx
	movl	%r14d, %ecx
	callq	UpdateSceneInformation.79
	popq	%rbx
	popq	%r12
	popq	%r14
	popq	%r15
	popq	%rbp
	.cfi_def_cfa %rsp, 8
	retq
.LBB29_9:                               # %func_UpdateSceneInformation.81
	.cfi_def_cfa %rbp, 16
	movl	%ebx, %edi
	movl	%r12d, %esi
	movl	%r15d, %edx
	movl	%r14d, %ecx
	callq	UpdateSceneInformation.81
	popq	%rbx
	popq	%r12
	popq	%r14
	popq	%r15
	popq	%rbp
	.cfi_def_cfa %rsp, 8
	retq
.LBB29_10:                              # %func_UpdateSceneInformation.107
	.cfi_def_cfa %rbp, 16
	movl	%ebx, %edi
	movl	%r12d, %esi
	movl	%r15d, %edx
	movl	%r14d, %ecx
	callq	UpdateSceneInformation.107
	popq	%rbx
	popq	%r12
	popq	%r14
	popq	%r15
	popq	%rbp
	.cfi_def_cfa %rsp, 8
	retq
.LBB29_11:                              # %func_UpdateSceneInformation.109
	.cfi_def_cfa %rbp, 16
	movl	%ebx, %edi
	movl	%r12d, %esi
	movl	%r15d, %edx
	movl	%r14d, %ecx
	callq	UpdateSceneInformation.109
	popq	%rbx
	popq	%r12
	popq	%r14
	popq	%r15
	popq	%rbp
	.cfi_def_cfa %rsp, 8
	retq
.LBB29_12:                              # %func_UpdateSceneInformation.111
	.cfi_def_cfa %rbp, 16
	movl	%ebx, %edi
	movl	%r12d, %esi
	movl	%r15d, %edx
	movl	%r14d, %ecx
	callq	UpdateSceneInformation.111
	popq	%rbx
	popq	%r12
	popq	%r14
	popq	%r15
	popq	%rbp
	.cfi_def_cfa %rsp, 8
	retq
.LBB29_13:                              # %func_UpdateSceneInformation.126
	.cfi_def_cfa %rbp, 16
	movl	%ebx, %edi
	movl	%r12d, %esi
	movl	%r15d, %edx
	movl	%r14d, %ecx
	callq	UpdateSceneInformation.126
	popq	%rbx
	popq	%r12
	popq	%r14
	popq	%r15
	popq	%rbp
	.cfi_def_cfa %rsp, 8
	retq
.LBB29_14:                              # %func_UpdateSceneInformation.128
	.cfi_def_cfa %rbp, 16
	movl	%ebx, %edi
	movl	%r12d, %esi
	movl	%r15d, %edx
	movl	%r14d, %ecx
	callq	UpdateSceneInformation.128
	popq	%rbx
	popq	%r12
	popq	%r14
	popq	%r15
	popq	%rbp
	.cfi_def_cfa %rsp, 8
	retq
.LBB29_15:                              # %func_UpdateSceneInformation.131
	.cfi_def_cfa %rbp, 16
	movl	%ebx, %edi
	movl	%r12d, %esi
	movl	%r15d, %edx
	movl	%r14d, %ecx
	callq	UpdateSceneInformation.131
	popq	%rbx
	popq	%r12
	popq	%r14
	popq	%r15
	popq	%rbp
	.cfi_def_cfa %rsp, 8
	retq
.LBB29_16:                              # %func_UpdateSceneInformation.136
	.cfi_def_cfa %rbp, 16
	movl	%ebx, %edi
	movl	%r12d, %esi
	movl	%r15d, %edx
	movl	%r14d, %ecx
	callq	UpdateSceneInformation.136
	popq	%rbx
	popq	%r12
	popq	%r14
	popq	%r15
	popq	%rbp
	.cfi_def_cfa %rsp, 8
	retq
.LBB29_17:                              # %ctrl0
	.cfi_def_cfa %rbp, 16
	cmpl	$1, %eax
	je	.LBB29_2
# %bb.18:                               # %ctrl1
	cmpl	$2, %eax
	je	.LBB29_3
# %bb.19:                               # %ctrl2
	cmpl	$3, %eax
	je	.LBB29_4
# %bb.20:                               # %ctrl3
	cmpl	$4, %eax
	je	.LBB29_5
# %bb.21:                               # %ctrl4
	cmpl	$5, %eax
	je	.LBB29_6
# %bb.22:                               # %ctrl5
	cmpl	$6, %eax
	je	.LBB29_7
# %bb.23:                               # %ctrl6
	cmpl	$7, %eax
	je	.LBB29_8
# %bb.24:                               # %ctrl7
	cmpl	$8, %eax
	je	.LBB29_9
# %bb.25:                               # %ctrl8
	cmpl	$9, %eax
	je	.LBB29_10
# %bb.26:                               # %ctrl9
	cmpl	$10, %eax
	je	.LBB29_11
# %bb.27:                               # %ctrl10
	cmpl	$11, %eax
	je	.LBB29_12
# %bb.28:                               # %ctrl11
	cmpl	$12, %eax
	je	.LBB29_13
# %bb.29:                               # %ctrl12
	cmpl	$13, %eax
	je	.LBB29_14
# %bb.30:                               # %ctrl13
	cmpl	$14, %eax
	je	.LBB29_15
	jmp	.LBB29_16
.Lfunc_end29:
	.size	UpdateSceneInformation, .Lfunc_end29-UpdateSceneInformation
	.cfi_endproc
                                        # -- End function
	.globl	InitPanScanRectInfo     # -- Begin function InitPanScanRectInfo
	.p2align	4, 0x90
	.type	InitPanScanRectInfo,@function
InitPanScanRectInfo:                    # @InitPanScanRectInfo
	.cfi_startproc
# %bb.0:                                # %entry
	pushq	%rbp
	.cfi_def_cfa_offset 16
	.cfi_offset %rbp, -16
	movq	%rsp, %rbp
	.cfi_def_cfa_register %rbp
	movl	$48, %edi
	callq	malloc
	movq	%rax, seiPanScanRectInfo+24
	cmpq	$0, seiPanScanRectInfo+24
	jne	.LBB30_2
# %bb.1:                                # %if.then
	movabsq	$.L.str.11, %rdi
	callq	no_mem_exit
.LBB30_2:                               # %if.end
	movl	$65496, %edi            # imm = 0xFFD8
	callq	malloc
	movq	seiPanScanRectInfo+24, %rcx
	movq	%rax, 32(%rcx)
	movq	seiPanScanRectInfo+24, %rax
	cmpq	$0, 32(%rax)
	jne	.LBB30_4
# %bb.3:                                # %if.then4
	movabsq	$.L.str.12, %rdi
	callq	no_mem_exit
.LBB30_4:                               # %if.end5
	callq	ClearPanScanRectInfoPayload
	movl	$0, seiPanScanRectInfo+4
	movl	$0, seiPanScanRectInfo+8
	movl	$0, seiPanScanRectInfo+12
	movl	$0, seiPanScanRectInfo+16
	popq	%rbp
	.cfi_def_cfa %rsp, 8
	retq
.Lfunc_end30:
	.size	InitPanScanRectInfo, .Lfunc_end30-InitPanScanRectInfo
	.cfi_endproc
                                        # -- End function
	.globl	ClearPanScanRectInfoPayload # -- Begin function ClearPanScanRectInfoPayload
	.p2align	4, 0x90
	.type	ClearPanScanRectInfoPayload,@function
ClearPanScanRectInfoPayload:            # @ClearPanScanRectInfoPayload
	.cfi_startproc
# %bb.0:                                # %entry
	pushq	%rbp
	.cfi_def_cfa_offset 16
	.cfi_offset %rbp, -16
	movq	%rsp, %rbp
	.cfi_def_cfa_register %rbp
	movq	seiPanScanRectInfo+24, %rax
	movq	32(%rax), %rdi
	xorl	%esi, %esi
	movl	$65496, %edx            # imm = 0xFFD8
	callq	memset
	movq	seiPanScanRectInfo+24, %rax
	movl	$8, 4(%rax)
	movq	seiPanScanRectInfo+24, %rax
	movl	$0, (%rax)
	movq	seiPanScanRectInfo+24, %rax
	movb	$0, 8(%rax)
	movl	$0, seiPanScanRectInfo+32
	movl	$1, seiHasPanScanRectInfo
	popq	%rbp
	.cfi_def_cfa %rsp, 8
	retq
.Lfunc_end31:
	.size	ClearPanScanRectInfoPayload, .Lfunc_end31-ClearPanScanRectInfoPayload
	.cfi_endproc
                                        # -- End function
	.globl	UpdatePanScanRectInfo   # -- Begin function UpdatePanScanRectInfo
	.p2align	4, 0x90
	.type	UpdatePanScanRectInfo,@function
UpdatePanScanRectInfo:                  # @UpdatePanScanRectInfo
	.cfi_startproc
# %bb.0:                                # %entry
	pushq	%rbp
	.cfi_def_cfa_offset 16
	.cfi_offset %rbp, -16
	movq	%rsp, %rbp
	.cfi_def_cfa_register %rbp
	movl	$3, seiPanScanRectInfo
	movl	$10, seiPanScanRectInfo+4
	movl	$40, seiPanScanRectInfo+8
	movl	$20, seiPanScanRectInfo+12
	movl	$32, seiPanScanRectInfo+16
	movl	$1, seiHasPanScanRectInfo
	popq	%rbp
	.cfi_def_cfa %rsp, 8
	retq
.Lfunc_end32:
	.size	UpdatePanScanRectInfo, .Lfunc_end32-UpdatePanScanRectInfo
	.cfi_endproc
                                        # -- End function
	.globl	FinalizePanScanRectInfo # -- Begin function FinalizePanScanRectInfo
	.p2align	4, 0x90
	.type	FinalizePanScanRectInfo,@function
FinalizePanScanRectInfo:                # @FinalizePanScanRectInfo
	.cfi_startproc
# %bb.0:                                # %rand_bb
	pushq	%rbp
	.cfi_def_cfa_offset 16
	.cfi_offset %rbp, -16
	movq	%rsp, %rbp
	.cfi_def_cfa_register %rbp
	callq	get_urand
	cmpl	$0, %eax
	jne	.LBB33_2
# %bb.1:                                # %func_FinalizePanScanRectInfo.19
	callq	FinalizePanScanRectInfo.19
	popq	%rbp
	.cfi_def_cfa %rsp, 8
	retq
.LBB33_2:                               # %func_FinalizePanScanRectInfo.20
	.cfi_def_cfa %rbp, 16
	callq	FinalizePanScanRectInfo.20
	popq	%rbp
	.cfi_def_cfa %rsp, 8
	retq
.Lfunc_end33:
	.size	FinalizePanScanRectInfo, .Lfunc_end33-FinalizePanScanRectInfo
	.cfi_endproc
                                        # -- End function
	.globl	ClosePanScanRectInfo    # -- Begin function ClosePanScanRectInfo
	.p2align	4, 0x90
	.type	ClosePanScanRectInfo,@function
ClosePanScanRectInfo:                   # @ClosePanScanRectInfo
	.cfi_startproc
# %bb.0:                                # %entry
	pushq	%rbp
	.cfi_def_cfa_offset 16
	.cfi_offset %rbp, -16
	movq	%rsp, %rbp
	.cfi_def_cfa_register %rbp
	cmpq	$0, seiPanScanRectInfo+24
	je	.LBB34_2
# %bb.1:                                # %if.then
	movq	seiPanScanRectInfo+24, %rax
	movq	32(%rax), %rdi
	callq	free
	movq	seiPanScanRectInfo+24, %rdi
	callq	free
.LBB34_2:                               # %if.end
	movq	$0, seiPanScanRectInfo+24
	popq	%rbp
	.cfi_def_cfa %rsp, 8
	retq
.Lfunc_end34:
	.size	ClosePanScanRectInfo, .Lfunc_end34-ClosePanScanRectInfo
	.cfi_endproc
                                        # -- End function
	.globl	InitUser_data_unregistered # -- Begin function InitUser_data_unregistered
	.p2align	4, 0x90
	.type	InitUser_data_unregistered,@function
InitUser_data_unregistered:             # @InitUser_data_unregistered
	.cfi_startproc
# %bb.0:                                # %entry
	pushq	%rbp
	.cfi_def_cfa_offset 16
	.cfi_offset %rbp, -16
	movq	%rsp, %rbp
	.cfi_def_cfa_register %rbp
	movl	$48, %edi
	callq	malloc
	movq	%rax, seiUser_data_unregistered+16
	cmpq	$0, seiUser_data_unregistered+16
	jne	.LBB35_2
# %bb.1:                                # %if.then
	movabsq	$.L.str.13, %rdi
	callq	no_mem_exit
.LBB35_2:                               # %if.end
	movl	$65496, %edi            # imm = 0xFFD8
	callq	malloc
	movq	seiUser_data_unregistered+16, %rcx
	movq	%rax, 32(%rcx)
	movq	seiUser_data_unregistered+16, %rax
	cmpq	$0, 32(%rax)
	jne	.LBB35_4
# %bb.3:                                # %if.then4
	movabsq	$.L.str.14, %rdi
	callq	no_mem_exit
.LBB35_4:                               # %if.end5
	movl	$65496, %edi            # imm = 0xFFD8
	callq	malloc
	movq	%rax, seiUser_data_unregistered
	cmpq	$0, seiUser_data_unregistered
	jne	.LBB35_6
# %bb.5:                                # %if.then8
	movabsq	$.L.str.15, %rdi
	callq	no_mem_exit
.LBB35_6:                               # %if.end9
	callq	ClearUser_data_unregistered
	popq	%rbp
	.cfi_def_cfa %rsp, 8
	retq
.Lfunc_end35:
	.size	InitUser_data_unregistered, .Lfunc_end35-InitUser_data_unregistered
	.cfi_endproc
                                        # -- End function
	.globl	ClearUser_data_unregistered # -- Begin function ClearUser_data_unregistered
	.p2align	4, 0x90
	.type	ClearUser_data_unregistered,@function
ClearUser_data_unregistered:            # @ClearUser_data_unregistered
	.cfi_startproc
# %bb.0:                                # %entry
	pushq	%rbp
	.cfi_def_cfa_offset 16
	.cfi_offset %rbp, -16
	movq	%rsp, %rbp
	.cfi_def_cfa_register %rbp
	movq	seiUser_data_unregistered+16, %rax
	movq	32(%rax), %rdi
	xorl	%esi, %esi
	movl	$65496, %edx            # imm = 0xFFD8
	callq	memset
	movq	seiUser_data_unregistered+16, %rax
	movl	$8, 4(%rax)
	movq	seiUser_data_unregistered+16, %rax
	movl	$0, (%rax)
	movq	seiUser_data_unregistered+16, %rax
	movb	$0, 8(%rax)
	movl	$0, seiUser_data_unregistered+24
	movq	seiUser_data_unregistered, %rdi
	xorl	%esi, %esi
	movl	$65496, %edx            # imm = 0xFFD8
	callq	memset
	movl	$0, seiUser_data_unregistered+8
	movl	$1, seiHasUser_data_unregistered_info
	popq	%rbp
	.cfi_def_cfa %rsp, 8
	retq
.Lfunc_end36:
	.size	ClearUser_data_unregistered, .Lfunc_end36-ClearUser_data_unregistered
	.cfi_endproc
                                        # -- End function
	.globl	UpdateUser_data_unregistered # -- Begin function UpdateUser_data_unregistered
	.p2align	4, 0x90
	.type	UpdateUser_data_unregistered,@function
UpdateUser_data_unregistered:           # @UpdateUser_data_unregistered
	.cfi_startproc
# %bb.0:                                # %rand_bb
	pushq	%rbp
	.cfi_def_cfa_offset 16
	.cfi_offset %rbp, -16
	movq	%rsp, %rbp
	.cfi_def_cfa_register %rbp
	callq	get_urand
	cmpl	$0, %eax
	jne	.LBB37_7
# %bb.1:                                # %func_UpdateUser_data_unregistered.12
	callq	UpdateUser_data_unregistered.12
	popq	%rbp
	.cfi_def_cfa %rsp, 8
	retq
.LBB37_2:                               # %func_UpdateUser_data_unregistered.42
	.cfi_def_cfa %rbp, 16
	callq	UpdateUser_data_unregistered.42
	popq	%rbp
	.cfi_def_cfa %rsp, 8
	retq
.LBB37_3:                               # %func_UpdateUser_data_unregistered.46
	.cfi_def_cfa %rbp, 16
	callq	UpdateUser_data_unregistered.46
	popq	%rbp
	.cfi_def_cfa %rsp, 8
	retq
.LBB37_4:                               # %func_UpdateUser_data_unregistered.56
	.cfi_def_cfa %rbp, 16
	callq	UpdateUser_data_unregistered.56
	popq	%rbp
	.cfi_def_cfa %rsp, 8
	retq
.LBB37_5:                               # %func_UpdateUser_data_unregistered.57
	.cfi_def_cfa %rbp, 16
	callq	UpdateUser_data_unregistered.57
	popq	%rbp
	.cfi_def_cfa %rsp, 8
	retq
.LBB37_6:                               # %func_UpdateUser_data_unregistered.60
	.cfi_def_cfa %rbp, 16
	callq	UpdateUser_data_unregistered.60
	popq	%rbp
	.cfi_def_cfa %rsp, 8
	retq
.LBB37_7:                               # %ctrl0
	.cfi_def_cfa %rbp, 16
	cmpl	$1, %eax
	je	.LBB37_2
# %bb.8:                                # %ctrl1
	cmpl	$2, %eax
	je	.LBB37_3
# %bb.9:                                # %ctrl2
	cmpl	$3, %eax
	je	.LBB37_4
# %bb.10:                               # %ctrl3
	cmpl	$4, %eax
	je	.LBB37_5
	jmp	.LBB37_6
.Lfunc_end37:
	.size	UpdateUser_data_unregistered, .Lfunc_end37-UpdateUser_data_unregistered
	.cfi_endproc
                                        # -- End function
	.globl	FinalizeUser_data_unregistered # -- Begin function FinalizeUser_data_unregistered
	.p2align	4, 0x90
	.type	FinalizeUser_data_unregistered,@function
FinalizeUser_data_unregistered:         # @FinalizeUser_data_unregistered
	.cfi_startproc
# %bb.0:                                # %rand_bb
	pushq	%rbp
	.cfi_def_cfa_offset 16
	.cfi_offset %rbp, -16
	movq	%rsp, %rbp
	.cfi_def_cfa_register %rbp
	callq	get_urand
	cmpl	$0, %eax
	jne	.LBB38_7
# %bb.1:                                # %func_FinalizeUser_data_unregistered.16
	callq	FinalizeUser_data_unregistered.16
	popq	%rbp
	.cfi_def_cfa %rsp, 8
	retq
.LBB38_2:                               # %func_FinalizeUser_data_unregistered.30
	.cfi_def_cfa %rbp, 16
	callq	FinalizeUser_data_unregistered.30
	popq	%rbp
	.cfi_def_cfa %rsp, 8
	retq
.LBB38_3:                               # %func_FinalizeUser_data_unregistered.41
	.cfi_def_cfa %rbp, 16
	callq	FinalizeUser_data_unregistered.41
	popq	%rbp
	.cfi_def_cfa %rsp, 8
	retq
.LBB38_4:                               # %func_FinalizeUser_data_unregistered.78
	.cfi_def_cfa %rbp, 16
	callq	FinalizeUser_data_unregistered.78
	popq	%rbp
	.cfi_def_cfa %rsp, 8
	retq
.LBB38_5:                               # %func_FinalizeUser_data_unregistered.93
	.cfi_def_cfa %rbp, 16
	callq	FinalizeUser_data_unregistered.93
	popq	%rbp
	.cfi_def_cfa %rsp, 8
	retq
.LBB38_6:                               # %func_FinalizeUser_data_unregistered.94
	.cfi_def_cfa %rbp, 16
	callq	FinalizeUser_data_unregistered.94
	popq	%rbp
	.cfi_def_cfa %rsp, 8
	retq
.LBB38_7:                               # %ctrl0
	.cfi_def_cfa %rbp, 16
	cmpl	$1, %eax
	je	.LBB38_2
# %bb.8:                                # %ctrl1
	cmpl	$2, %eax
	je	.LBB38_3
# %bb.9:                                # %ctrl2
	cmpl	$3, %eax
	je	.LBB38_4
# %bb.10:                               # %ctrl3
	cmpl	$4, %eax
	je	.LBB38_5
	jmp	.LBB38_6
.Lfunc_end38:
	.size	FinalizeUser_data_unregistered, .Lfunc_end38-FinalizeUser_data_unregistered
	.cfi_endproc
                                        # -- End function
	.globl	CloseUser_data_unregistered # -- Begin function CloseUser_data_unregistered
	.p2align	4, 0x90
	.type	CloseUser_data_unregistered,@function
CloseUser_data_unregistered:            # @CloseUser_data_unregistered
	.cfi_startproc
# %bb.0:                                # %entry
	pushq	%rbp
	.cfi_def_cfa_offset 16
	.cfi_offset %rbp, -16
	movq	%rsp, %rbp
	.cfi_def_cfa_register %rbp
	cmpq	$0, seiUser_data_unregistered+16
	je	.LBB39_2
# %bb.1:                                # %if.then
	movq	seiUser_data_unregistered+16, %rax
	movq	32(%rax), %rdi
	callq	free
	movq	seiUser_data_unregistered+16, %rdi
	callq	free
.LBB39_2:                               # %if.end
	movq	$0, seiUser_data_unregistered+16
	cmpq	$0, seiUser_data_unregistered
	je	.LBB39_4
# %bb.3:                                # %if.then2
	movq	seiUser_data_unregistered, %rdi
	callq	free
.LBB39_4:                               # %if.end3
	popq	%rbp
	.cfi_def_cfa %rsp, 8
	retq
.Lfunc_end39:
	.size	CloseUser_data_unregistered, .Lfunc_end39-CloseUser_data_unregistered
	.cfi_endproc
                                        # -- End function
	.globl	InitUser_data_registered_itu_t_t35 # -- Begin function InitUser_data_registered_itu_t_t35
	.p2align	4, 0x90
	.type	InitUser_data_registered_itu_t_t35,@function
InitUser_data_registered_itu_t_t35:     # @InitUser_data_registered_itu_t_t35
	.cfi_startproc
# %bb.0:                                # %entry
	pushq	%rbp
	.cfi_def_cfa_offset 16
	.cfi_offset %rbp, -16
	movq	%rsp, %rbp
	.cfi_def_cfa_register %rbp
	movl	$48, %edi
	callq	malloc
	movq	%rax, seiUser_data_registered_itu_t_t35+24
	cmpq	$0, seiUser_data_registered_itu_t_t35+24
	jne	.LBB40_2
# %bb.1:                                # %if.then
	movabsq	$.L.str.16, %rdi
	callq	no_mem_exit
.LBB40_2:                               # %if.end
	movl	$65496, %edi            # imm = 0xFFD8
	callq	malloc
	movq	seiUser_data_registered_itu_t_t35+24, %rcx
	movq	%rax, 32(%rcx)
	movq	seiUser_data_registered_itu_t_t35+24, %rax
	cmpq	$0, 32(%rax)
	jne	.LBB40_4
# %bb.3:                                # %if.then4
	movabsq	$.L.str.17, %rdi
	callq	no_mem_exit
.LBB40_4:                               # %if.end5
	movl	$65496, %edi            # imm = 0xFFD8
	callq	malloc
	movq	%rax, seiUser_data_registered_itu_t_t35
	cmpq	$0, seiUser_data_registered_itu_t_t35+24
	jne	.LBB40_6
# %bb.5:                                # %if.then8
	movabsq	$.L.str.18, %rdi
	callq	no_mem_exit
.LBB40_6:                               # %if.end9
	callq	ClearUser_data_registered_itu_t_t35
	popq	%rbp
	.cfi_def_cfa %rsp, 8
	retq
.Lfunc_end40:
	.size	InitUser_data_registered_itu_t_t35, .Lfunc_end40-InitUser_data_registered_itu_t_t35
	.cfi_endproc
                                        # -- End function
	.globl	ClearUser_data_registered_itu_t_t35 # -- Begin function ClearUser_data_registered_itu_t_t35
	.p2align	4, 0x90
	.type	ClearUser_data_registered_itu_t_t35,@function
ClearUser_data_registered_itu_t_t35:    # @ClearUser_data_registered_itu_t_t35
	.cfi_startproc
# %bb.0:                                # %entry
	pushq	%rbp
	.cfi_def_cfa_offset 16
	.cfi_offset %rbp, -16
	movq	%rsp, %rbp
	.cfi_def_cfa_register %rbp
	movq	seiUser_data_registered_itu_t_t35+24, %rax
	movq	32(%rax), %rdi
	xorl	%esi, %esi
	movl	$65496, %edx            # imm = 0xFFD8
	callq	memset
	movq	seiUser_data_registered_itu_t_t35+24, %rax
	movl	$8, 4(%rax)
	movq	seiUser_data_registered_itu_t_t35+24, %rax
	movl	$0, (%rax)
	movq	seiUser_data_registered_itu_t_t35+24, %rax
	movb	$0, 8(%rax)
	movl	$0, seiUser_data_registered_itu_t_t35+32
	movq	seiUser_data_registered_itu_t_t35, %rdi
	xorl	%esi, %esi
	movl	$65496, %edx            # imm = 0xFFD8
	callq	memset
	movl	$0, seiUser_data_registered_itu_t_t35+8
	movl	$0, seiUser_data_registered_itu_t_t35+12
	movl	$0, seiUser_data_registered_itu_t_t35+16
	movl	$1, seiHasUser_data_registered_itu_t_t35_info
	popq	%rbp
	.cfi_def_cfa %rsp, 8
	retq
.Lfunc_end41:
	.size	ClearUser_data_registered_itu_t_t35, .Lfunc_end41-ClearUser_data_registered_itu_t_t35
	.cfi_endproc
                                        # -- End function
	.globl	UpdateUser_data_registered_itu_t_t35 # -- Begin function UpdateUser_data_registered_itu_t_t35
	.p2align	4, 0x90
	.type	UpdateUser_data_registered_itu_t_t35,@function
UpdateUser_data_registered_itu_t_t35:   # @UpdateUser_data_registered_itu_t_t35
	.cfi_startproc
# %bb.0:                                # %rand_bb
	pushq	%rbp
	.cfi_def_cfa_offset 16
	.cfi_offset %rbp, -16
	movq	%rsp, %rbp
	.cfi_def_cfa_register %rbp
	callq	get_urand
	cmpl	$0, %eax
	jne	.LBB42_17
# %bb.1:                                # %func_UpdateUser_data_registered_itu_t_t35.61
	callq	UpdateUser_data_registered_itu_t_t35.61
	popq	%rbp
	.cfi_def_cfa %rsp, 8
	retq
.LBB42_2:                               # %func_UpdateUser_data_registered_itu_t_t35.68
	.cfi_def_cfa %rbp, 16
	callq	UpdateUser_data_registered_itu_t_t35.68
	popq	%rbp
	.cfi_def_cfa %rsp, 8
	retq
.LBB42_3:                               # %func_UpdateUser_data_registered_itu_t_t35.69
	.cfi_def_cfa %rbp, 16
	callq	UpdateUser_data_registered_itu_t_t35.69
	popq	%rbp
	.cfi_def_cfa %rsp, 8
	retq
.LBB42_4:                               # %func_UpdateUser_data_registered_itu_t_t35.80
	.cfi_def_cfa %rbp, 16
	callq	UpdateUser_data_registered_itu_t_t35.80
	popq	%rbp
	.cfi_def_cfa %rsp, 8
	retq
.LBB42_5:                               # %func_UpdateUser_data_registered_itu_t_t35.86
	.cfi_def_cfa %rbp, 16
	callq	UpdateUser_data_registered_itu_t_t35.86
	popq	%rbp
	.cfi_def_cfa %rsp, 8
	retq
.LBB42_6:                               # %func_UpdateUser_data_registered_itu_t_t35.104
	.cfi_def_cfa %rbp, 16
	callq	UpdateUser_data_registered_itu_t_t35.104
	popq	%rbp
	.cfi_def_cfa %rsp, 8
	retq
.LBB42_7:                               # %func_UpdateUser_data_registered_itu_t_t35.108
	.cfi_def_cfa %rbp, 16
	callq	UpdateUser_data_registered_itu_t_t35.108
	popq	%rbp
	.cfi_def_cfa %rsp, 8
	retq
.LBB42_8:                               # %func_UpdateUser_data_registered_itu_t_t35.112
	.cfi_def_cfa %rbp, 16
	callq	UpdateUser_data_registered_itu_t_t35.112
	popq	%rbp
	.cfi_def_cfa %rsp, 8
	retq
.LBB42_9:                               # %func_UpdateUser_data_registered_itu_t_t35.118
	.cfi_def_cfa %rbp, 16
	callq	UpdateUser_data_registered_itu_t_t35.118
	popq	%rbp
	.cfi_def_cfa %rsp, 8
	retq
.LBB42_10:                              # %func_UpdateUser_data_registered_itu_t_t35.122
	.cfi_def_cfa %rbp, 16
	callq	UpdateUser_data_registered_itu_t_t35.122
	popq	%rbp
	.cfi_def_cfa %rsp, 8
	retq
.LBB42_11:                              # %func_UpdateUser_data_registered_itu_t_t35.123
	.cfi_def_cfa %rbp, 16
	callq	UpdateUser_data_registered_itu_t_t35.123
	popq	%rbp
	.cfi_def_cfa %rsp, 8
	retq
.LBB42_12:                              # %func_UpdateUser_data_registered_itu_t_t35.129
	.cfi_def_cfa %rbp, 16
	callq	UpdateUser_data_registered_itu_t_t35.129
	popq	%rbp
	.cfi_def_cfa %rsp, 8
	retq
.LBB42_13:                              # %func_UpdateUser_data_registered_itu_t_t35.130
	.cfi_def_cfa %rbp, 16
	callq	UpdateUser_data_registered_itu_t_t35.130
	popq	%rbp
	.cfi_def_cfa %rsp, 8
	retq
.LBB42_14:                              # %func_UpdateUser_data_registered_itu_t_t35.134
	.cfi_def_cfa %rbp, 16
	callq	UpdateUser_data_registered_itu_t_t35.134
	popq	%rbp
	.cfi_def_cfa %rsp, 8
	retq
.LBB42_15:                              # %func_UpdateUser_data_registered_itu_t_t35.135
	.cfi_def_cfa %rbp, 16
	callq	UpdateUser_data_registered_itu_t_t35.135
	popq	%rbp
	.cfi_def_cfa %rsp, 8
	retq
.LBB42_16:                              # %func_UpdateUser_data_registered_itu_t_t35.137
	.cfi_def_cfa %rbp, 16
	callq	UpdateUser_data_registered_itu_t_t35.137
	popq	%rbp
	.cfi_def_cfa %rsp, 8
	retq
.LBB42_17:                              # %ctrl0
	.cfi_def_cfa %rbp, 16
	cmpl	$1, %eax
	je	.LBB42_2
# %bb.18:                               # %ctrl1
	cmpl	$2, %eax
	je	.LBB42_3
# %bb.19:                               # %ctrl2
	cmpl	$3, %eax
	je	.LBB42_4
# %bb.20:                               # %ctrl3
	cmpl	$4, %eax
	je	.LBB42_5
# %bb.21:                               # %ctrl4
	cmpl	$5, %eax
	je	.LBB42_6
# %bb.22:                               # %ctrl5
	cmpl	$6, %eax
	je	.LBB42_7
# %bb.23:                               # %ctrl6
	cmpl	$7, %eax
	je	.LBB42_8
# %bb.24:                               # %ctrl7
	cmpl	$8, %eax
	je	.LBB42_9
# %bb.25:                               # %ctrl8
	cmpl	$9, %eax
	je	.LBB42_10
# %bb.26:                               # %ctrl9
	cmpl	$10, %eax
	je	.LBB42_11
# %bb.27:                               # %ctrl10
	cmpl	$11, %eax
	je	.LBB42_12
# %bb.28:                               # %ctrl11
	cmpl	$12, %eax
	je	.LBB42_13
# %bb.29:                               # %ctrl12
	cmpl	$13, %eax
	je	.LBB42_14
# %bb.30:                               # %ctrl13
	cmpl	$14, %eax
	je	.LBB42_15
	jmp	.LBB42_16
.Lfunc_end42:
	.size	UpdateUser_data_registered_itu_t_t35, .Lfunc_end42-UpdateUser_data_registered_itu_t_t35
	.cfi_endproc
                                        # -- End function
	.globl	FinalizeUser_data_registered_itu_t_t35 # -- Begin function FinalizeUser_data_registered_itu_t_t35
	.p2align	4, 0x90
	.type	FinalizeUser_data_registered_itu_t_t35,@function
FinalizeUser_data_registered_itu_t_t35: # @FinalizeUser_data_registered_itu_t_t35
	.cfi_startproc
# %bb.0:                                # %rand_bb
	pushq	%rbp
	.cfi_def_cfa_offset 16
	.cfi_offset %rbp, -16
	movq	%rsp, %rbp
	.cfi_def_cfa_register %rbp
	callq	get_urand
	cmpl	$0, %eax
	jne	.LBB43_7
# %bb.1:                                # %func_FinalizeUser_data_registered_itu_t_t35.5
	callq	FinalizeUser_data_registered_itu_t_t35.5
	popq	%rbp
	.cfi_def_cfa %rsp, 8
	retq
.LBB43_2:                               # %func_FinalizeUser_data_registered_itu_t_t35.13
	.cfi_def_cfa %rbp, 16
	callq	FinalizeUser_data_registered_itu_t_t35.13
	popq	%rbp
	.cfi_def_cfa %rsp, 8
	retq
.LBB43_3:                               # %func_FinalizeUser_data_registered_itu_t_t35.28
	.cfi_def_cfa %rbp, 16
	callq	FinalizeUser_data_registered_itu_t_t35.28
	popq	%rbp
	.cfi_def_cfa %rsp, 8
	retq
.LBB43_4:                               # %func_FinalizeUser_data_registered_itu_t_t35.39
	.cfi_def_cfa %rbp, 16
	callq	FinalizeUser_data_registered_itu_t_t35.39
	popq	%rbp
	.cfi_def_cfa %rsp, 8
	retq
.LBB43_5:                               # %func_FinalizeUser_data_registered_itu_t_t35.55
	.cfi_def_cfa %rbp, 16
	callq	FinalizeUser_data_registered_itu_t_t35.55
	popq	%rbp
	.cfi_def_cfa %rsp, 8
	retq
.LBB43_6:                               # %func_FinalizeUser_data_registered_itu_t_t35.64
	.cfi_def_cfa %rbp, 16
	callq	FinalizeUser_data_registered_itu_t_t35.64
	popq	%rbp
	.cfi_def_cfa %rsp, 8
	retq
.LBB43_7:                               # %ctrl0
	.cfi_def_cfa %rbp, 16
	cmpl	$1, %eax
	je	.LBB43_2
# %bb.8:                                # %ctrl1
	cmpl	$2, %eax
	je	.LBB43_3
# %bb.9:                                # %ctrl2
	cmpl	$3, %eax
	je	.LBB43_4
# %bb.10:                               # %ctrl3
	cmpl	$4, %eax
	je	.LBB43_5
	jmp	.LBB43_6
.Lfunc_end43:
	.size	FinalizeUser_data_registered_itu_t_t35, .Lfunc_end43-FinalizeUser_data_registered_itu_t_t35
	.cfi_endproc
                                        # -- End function
	.globl	CloseUser_data_registered_itu_t_t35 # -- Begin function CloseUser_data_registered_itu_t_t35
	.p2align	4, 0x90
	.type	CloseUser_data_registered_itu_t_t35,@function
CloseUser_data_registered_itu_t_t35:    # @CloseUser_data_registered_itu_t_t35
	.cfi_startproc
# %bb.0:                                # %entry
	pushq	%rbp
	.cfi_def_cfa_offset 16
	.cfi_offset %rbp, -16
	movq	%rsp, %rbp
	.cfi_def_cfa_register %rbp
	cmpq	$0, seiUser_data_registered_itu_t_t35+24
	je	.LBB44_2
# %bb.1:                                # %if.then
	movq	seiUser_data_registered_itu_t_t35+24, %rax
	movq	32(%rax), %rdi
	callq	free
	movq	seiUser_data_registered_itu_t_t35+24, %rdi
	callq	free
.LBB44_2:                               # %if.end
	movq	$0, seiUser_data_registered_itu_t_t35+24
	cmpq	$0, seiUser_data_registered_itu_t_t35
	je	.LBB44_4
# %bb.3:                                # %if.then2
	movq	seiUser_data_registered_itu_t_t35, %rdi
	callq	free
.LBB44_4:                               # %if.end3
	popq	%rbp
	.cfi_def_cfa %rsp, 8
	retq
.Lfunc_end44:
	.size	CloseUser_data_registered_itu_t_t35, .Lfunc_end44-CloseUser_data_registered_itu_t_t35
	.cfi_endproc
                                        # -- End function
	.globl	InitRandomAccess        # -- Begin function InitRandomAccess
	.p2align	4, 0x90
	.type	InitRandomAccess,@function
InitRandomAccess:                       # @InitRandomAccess
	.cfi_startproc
# %bb.0:                                # %entry
	pushq	%rbp
	.cfi_def_cfa_offset 16
	.cfi_offset %rbp, -16
	movq	%rsp, %rbp
	.cfi_def_cfa_register %rbp
	movl	$48, %edi
	callq	malloc
	movq	%rax, seiRandomAccess+8
	cmpq	$0, seiRandomAccess+8
	jne	.LBB45_2
# %bb.1:                                # %if.then
	movabsq	$.L.str.19, %rdi
	callq	no_mem_exit
.LBB45_2:                               # %if.end
	movl	$65496, %edi            # imm = 0xFFD8
	callq	malloc
	movq	seiRandomAccess+8, %rcx
	movq	%rax, 32(%rcx)
	movq	seiRandomAccess+8, %rax
	cmpq	$0, 32(%rax)
	jne	.LBB45_4
# %bb.3:                                # %if.then4
	movabsq	$.L.str.20, %rdi
	callq	no_mem_exit
.LBB45_4:                               # %if.end5
	callq	ClearRandomAccess
	popq	%rbp
	.cfi_def_cfa %rsp, 8
	retq
.Lfunc_end45:
	.size	InitRandomAccess, .Lfunc_end45-InitRandomAccess
	.cfi_endproc
                                        # -- End function
	.globl	ClearRandomAccess       # -- Begin function ClearRandomAccess
	.p2align	4, 0x90
	.type	ClearRandomAccess,@function
ClearRandomAccess:                      # @ClearRandomAccess
	.cfi_startproc
# %bb.0:                                # %entry
	pushq	%rbp
	.cfi_def_cfa_offset 16
	.cfi_offset %rbp, -16
	movq	%rsp, %rbp
	.cfi_def_cfa_register %rbp
	movq	seiRandomAccess+8, %rax
	movq	32(%rax), %rdi
	xorl	%esi, %esi
	movl	$65496, %edx            # imm = 0xFFD8
	callq	memset
	movq	seiRandomAccess+8, %rax
	movl	$8, 4(%rax)
	movq	seiRandomAccess+8, %rax
	movl	$0, (%rax)
	movq	seiRandomAccess+8, %rax
	movb	$0, 8(%rax)
	movl	$0, seiRandomAccess+16
	movb	$0, seiRandomAccess
	movb	$0, seiRandomAccess+2
	movb	$0, seiRandomAccess+1
	movl	$0, seiHasRandomAccess_info
	popq	%rbp
	.cfi_def_cfa %rsp, 8
	retq
.Lfunc_end46:
	.size	ClearRandomAccess, .Lfunc_end46-ClearRandomAccess
	.cfi_endproc
                                        # -- End function
	.globl	UpdateRandomAccess      # -- Begin function UpdateRandomAccess
	.p2align	4, 0x90
	.type	UpdateRandomAccess,@function
UpdateRandomAccess:                     # @UpdateRandomAccess
	.cfi_startproc
# %bb.0:                                # %entry
	pushq	%rbp
	.cfi_def_cfa_offset 16
	.cfi_offset %rbp, -16
	movq	%rsp, %rbp
	.cfi_def_cfa_register %rbp
	movq	img, %rax
	cmpl	$2, 24(%rax)
	jne	.LBB47_2
# %bb.1:                                # %if.then
	movb	$0, seiRandomAccess
	movb	$1, seiRandomAccess+1
	movb	$0, seiRandomAccess+2
	movl	$1, seiHasRandomAccess_info
	jmp	.LBB47_3
.LBB47_2:                               # %if.else
	movl	$0, seiHasRandomAccess_info
.LBB47_3:                               # %if.end
	popq	%rbp
	.cfi_def_cfa %rsp, 8
	retq
.Lfunc_end47:
	.size	UpdateRandomAccess, .Lfunc_end47-UpdateRandomAccess
	.cfi_endproc
                                        # -- End function
	.globl	FinalizeRandomAccess    # -- Begin function FinalizeRandomAccess
	.p2align	4, 0x90
	.type	FinalizeRandomAccess,@function
FinalizeRandomAccess:                   # @FinalizeRandomAccess
	.cfi_startproc
# %bb.0:                                # %rand_bb
	pushq	%rbp
	.cfi_def_cfa_offset 16
	.cfi_offset %rbp, -16
	movq	%rsp, %rbp
	.cfi_def_cfa_register %rbp
	callq	get_urand
	cmpl	$0, %eax
	jne	.LBB48_2
# %bb.1:                                # %func_FinalizeRandomAccess.23
	callq	FinalizeRandomAccess.23
	popq	%rbp
	.cfi_def_cfa %rsp, 8
	retq
.LBB48_2:                               # %func_FinalizeRandomAccess.31
	.cfi_def_cfa %rbp, 16
	callq	FinalizeRandomAccess.31
	popq	%rbp
	.cfi_def_cfa %rsp, 8
	retq
.Lfunc_end48:
	.size	FinalizeRandomAccess, .Lfunc_end48-FinalizeRandomAccess
	.cfi_endproc
                                        # -- End function
	.globl	CloseRandomAccess       # -- Begin function CloseRandomAccess
	.p2align	4, 0x90
	.type	CloseRandomAccess,@function
CloseRandomAccess:                      # @CloseRandomAccess
	.cfi_startproc
# %bb.0:                                # %entry
	pushq	%rbp
	.cfi_def_cfa_offset 16
	.cfi_offset %rbp, -16
	movq	%rsp, %rbp
	.cfi_def_cfa_register %rbp
	cmpq	$0, seiRandomAccess+8
	je	.LBB49_2
# %bb.1:                                # %if.then
	movq	seiRandomAccess+8, %rax
	movq	32(%rax), %rdi
	callq	free
	movq	seiRandomAccess+8, %rdi
	callq	free
.LBB49_2:                               # %if.end
	movq	$0, seiRandomAccess+8
	popq	%rbp
	.cfi_def_cfa %rsp, 8
	retq
.Lfunc_end49:
	.size	CloseRandomAccess, .Lfunc_end49-CloseRandomAccess
	.cfi_endproc
                                        # -- End function
	.globl	finalize_sei_message.1  # -- Begin function finalize_sei_message.1
	.p2align	4, 0x90
	.type	finalize_sei_message.1,@function
finalize_sei_message.1:                 # @finalize_sei_message.1
	.cfi_startproc
# %bb.0:                                # %entry
	pushq	%rbp
	.cfi_def_cfa_offset 16
	.cfi_offset %rbp, -16
	movq	%rsp, %rbp
	.cfi_def_cfa_register %rbp
	subq	$16, %rsp
	movl	$26801169, -12(%rbp)    # imm = 0x198F411
	movl	%edi, -4(%rbp)
	movslq	-4(%rbp), %rax
	imulq	$24, %rax, %rax
	movabsq	$sei_message, %rcx
	movq	%rcx, %rdx
	addq	%rax, %rdx
	movl	4(%rdx), %eax
	movl	%eax, -8(%rbp)
	movslq	-4(%rbp), %rax
	imulq	$24, %rax, %rax
	movq	%rcx, %rdx
	addq	%rax, %rdx
	movq	16(%rdx), %rax
	movslq	-8(%rbp), %rdx
	movb	$-128, (%rax,%rdx)
	movslq	-4(%rbp), %rax
	imulq	$24, %rax, %rax
	movq	%rcx, %rdx
	addq	%rax, %rdx
	movl	4(%rdx), %eax
	addl	$1, %eax
	movl	%eax, 4(%rdx)
	movslq	-4(%rbp), %rax
	imulq	$24, %rax, %rax
	addq	%rax, %rcx
	movl	$1, (%rcx)
	cmpl	$26801169, -12(%rbp)    # imm = 0x198F411
	jne	.LBB50_2
.LBB50_1:
	addq	$16, %rsp
	popq	%rbp
	.cfi_def_cfa %rsp, 8
	retq
.LBB50_2:                               # %func_exit
	.cfi_def_cfa %rbp, 16
	callq	detect_breach
	jmp	.LBB50_1
.Lfunc_end50:
	.size	finalize_sei_message.1, .Lfunc_end50-finalize_sei_message.1
	.cfi_endproc
                                        # -- End function
	.globl	FinalizeSubseqInfo.2    # -- Begin function FinalizeSubseqInfo.2
	.p2align	4, 0x90
	.type	FinalizeSubseqInfo.2,@function
FinalizeSubseqInfo.2:                   # @FinalizeSubseqInfo.2
	.cfi_startproc
# %bb.0:                                # %entry
	pushq	%rbp
	.cfi_def_cfa_offset 16
	.cfi_offset %rbp, -16
	movq	%rsp, %rbp
	.cfi_def_cfa_register %rbp
	subq	$64, %rsp
	movl	$1576900828, -16(%rbp)  # imm = 0x5DFD98DC
	movl	%edi, -12(%rbp)
	movslq	-12(%rbp), %rax
	shlq	$5, %rax
	movabsq	$seiSubseqInfo, %rcx
	movq	%rcx, %rdx
	addq	%rax, %rdx
	movq	24(%rdx), %rax
	movq	%rax, -8(%rbp)
	movl	$0, -64(%rbp)
	movabsq	$ue_linfo, %rax
	movq	%rax, -32(%rbp)
	movslq	-12(%rbp), %rax
	shlq	$5, %rax
	addq	%rax, %rcx
	movl	(%rcx), %eax
	movl	%eax, -60(%rbp)
	movq	-8(%rbp), %rsi
	leaq	-64(%rbp), %rdi
	callq	writeSyntaxElement2Buf_UVLC
	movslq	-12(%rbp), %rax
	shlq	$5, %rax
	movabsq	$seiSubseqInfo, %rcx
	addq	%rax, %rcx
	movl	4(%rcx), %eax
	movl	%eax, -60(%rbp)
	movq	-8(%rbp), %rsi
	leaq	-64(%rbp), %rdi
	callq	writeSyntaxElement2Buf_UVLC
	movslq	-12(%rbp), %rax
	shlq	$5, %rax
	movabsq	$seiSubseqInfo, %rcx
	addq	%rax, %rcx
	movl	8(%rcx), %eax
	movl	%eax, -44(%rbp)
	movl	$1, -52(%rbp)
	movq	-8(%rbp), %rsi
	leaq	-64(%rbp), %rdi
	callq	writeSyntaxElement2Buf_Fixed
	movslq	-12(%rbp), %rax
	shlq	$5, %rax
	movabsq	$seiSubseqInfo, %rcx
	addq	%rax, %rcx
	movl	12(%rcx), %eax
	movl	%eax, -60(%rbp)
	movq	-8(%rbp), %rsi
	leaq	-64(%rbp), %rdi
	callq	writeSyntaxElement2Buf_UVLC
	movq	-8(%rbp), %rax
	cmpl	$8, 4(%rax)
	je	.LBB51_4
# %bb.1:                                # %if.then
	movq	-8(%rbp), %rax
	movzbl	8(%rax), %ecx
	shll	$1, %ecx
	movb	%cl, 8(%rax)
	movq	-8(%rbp), %rax
	movzbl	8(%rax), %ecx
	orl	$1, %ecx
	movb	%cl, 8(%rax)
	movq	-8(%rbp), %rax
	movl	4(%rax), %ecx
	addl	$-1, %ecx
	movl	%ecx, 4(%rax)
	movq	-8(%rbp), %rax
	cmpl	$0, 4(%rax)
	je	.LBB51_3
# %bb.2:                                # %if.then22
	movq	-8(%rbp), %rax
	movl	4(%rax), %ecx
	movq	-8(%rbp), %rax
	movzbl	8(%rax), %edx
                                        # kill: def $cl killed $ecx
	shll	%cl, %edx
	movb	%dl, 8(%rax)
.LBB51_3:                               # %if.end
	movq	-8(%rbp), %rax
	movl	$8, 4(%rax)
	movq	-8(%rbp), %rax
	movb	8(%rax), %al
	movq	-8(%rbp), %rcx
	movq	32(%rcx), %rcx
	movq	-8(%rbp), %rdx
	movl	(%rdx), %esi
	movl	%esi, %edi
	addl	$1, %edi
	movl	%edi, (%rdx)
	movslq	%esi, %rdx
	movb	%al, (%rcx,%rdx)
	movq	-8(%rbp), %rax
	movb	$0, 8(%rax)
.LBB51_4:                               # %if.end33
	movq	-8(%rbp), %rax
	movl	(%rax), %eax
	movslq	-12(%rbp), %rcx
	shlq	$5, %rcx
	movabsq	$seiSubseqInfo, %rdx
	addq	%rcx, %rdx
	movl	%eax, 16(%rdx)
	cmpl	$1576900828, -16(%rbp)  # imm = 0x5DFD98DC
	jne	.LBB51_6
.LBB51_5:
	addq	$64, %rsp
	popq	%rbp
	.cfi_def_cfa %rsp, 8
	retq
.LBB51_6:                               # %func_exit
	.cfi_def_cfa %rbp, 16
	callq	detect_breach
	jmp	.LBB51_5
.Lfunc_end51:
	.size	FinalizeSubseqInfo.2, .Lfunc_end51-FinalizeSubseqInfo.2
	.cfi_endproc
                                        # -- End function
	.globl	ComposeSparePictureMessage.3 # -- Begin function ComposeSparePictureMessage.3
	.p2align	4, 0x90
	.type	ComposeSparePictureMessage.3,@function
ComposeSparePictureMessage.3:           # @ComposeSparePictureMessage.3
	.cfi_startproc
# %bb.0:                                # %entry
	pushq	%rbp
	.cfi_def_cfa_offset 16
	.cfi_offset %rbp, -16
	movq	%rsp, %rbp
	.cfi_def_cfa_register %rbp
	subq	$80, %rsp
	movl	$1314868134, -16(%rbp)  # imm = 0x4E5F4BA6
	movl	%edi, -12(%rbp)
	movl	%esi, -20(%rbp)
	movq	%rdx, -32(%rbp)
	movq	seiSparePicturePayload+16, %rax
	movq	%rax, -8(%rbp)
	movl	$0, -80(%rbp)
	movabsq	$ue_linfo, %rax
	movq	%rax, -48(%rbp)
	movl	-12(%rbp), %eax
	movl	%eax, -76(%rbp)
	movq	-8(%rbp), %rsi
	leaq	-80(%rbp), %rdi
	callq	writeSyntaxElement2Buf_UVLC
	movl	-20(%rbp), %eax
	movl	%eax, -76(%rbp)
	movq	-8(%rbp), %rsi
	leaq	-80(%rbp), %rdi
	callq	writeSyntaxElement2Buf_UVLC
	movq	-8(%rbp), %rdi
	movq	-32(%rbp), %rsi
	callq	AppendTmpbits2Buf
	cmpl	$1314868134, -16(%rbp)  # imm = 0x4E5F4BA6
	jne	.LBB52_2
.LBB52_1:
	addq	$80, %rsp
	popq	%rbp
	.cfi_def_cfa %rsp, 8
	retq
.LBB52_2:                               # %func_exit
	.cfi_def_cfa %rbp, 16
	callq	detect_breach
	jmp	.LBB52_1
.Lfunc_end52:
	.size	ComposeSparePictureMessage.3, .Lfunc_end52-ComposeSparePictureMessage.3
	.cfi_endproc
                                        # -- End function
	.globl	FinalizeSubseqInfo.4    # -- Begin function FinalizeSubseqInfo.4
	.p2align	4, 0x90
	.type	FinalizeSubseqInfo.4,@function
FinalizeSubseqInfo.4:                   # @FinalizeSubseqInfo.4
	.cfi_startproc
# %bb.0:                                # %entry
	pushq	%rbp
	.cfi_def_cfa_offset 16
	.cfi_offset %rbp, -16
	movq	%rsp, %rbp
	.cfi_def_cfa_register %rbp
	subq	$64, %rsp
	movl	$890573265, -16(%rbp)   # imm = 0x351511D1
	movl	%edi, -12(%rbp)
	movslq	-12(%rbp), %rax
	shlq	$5, %rax
	movabsq	$seiSubseqInfo, %rcx
	movq	%rcx, %rdx
	addq	%rax, %rdx
	movq	24(%rdx), %rax
	movq	%rax, -8(%rbp)
	movl	$0, -64(%rbp)
	movabsq	$ue_linfo, %rax
	movq	%rax, -32(%rbp)
	movslq	-12(%rbp), %rax
	shlq	$5, %rax
	addq	%rax, %rcx
	movl	(%rcx), %eax
	movl	%eax, -60(%rbp)
	movq	-8(%rbp), %rsi
	leaq	-64(%rbp), %rdi
	callq	writeSyntaxElement2Buf_UVLC
	movslq	-12(%rbp), %rax
	shlq	$5, %rax
	movabsq	$seiSubseqInfo, %rcx
	addq	%rax, %rcx
	movl	4(%rcx), %eax
	movl	%eax, -60(%rbp)
	movq	-8(%rbp), %rsi
	leaq	-64(%rbp), %rdi
	callq	writeSyntaxElement2Buf_UVLC
	movslq	-12(%rbp), %rax
	shlq	$5, %rax
	movabsq	$seiSubseqInfo, %rcx
	addq	%rax, %rcx
	movl	8(%rcx), %eax
	movl	%eax, -44(%rbp)
	movl	$1, -52(%rbp)
	movq	-8(%rbp), %rsi
	leaq	-64(%rbp), %rdi
	callq	writeSyntaxElement2Buf_Fixed
	movslq	-12(%rbp), %rax
	shlq	$5, %rax
	movabsq	$seiSubseqInfo, %rcx
	addq	%rax, %rcx
	movl	12(%rcx), %eax
	movl	%eax, -60(%rbp)
	movq	-8(%rbp), %rsi
	leaq	-64(%rbp), %rdi
	callq	writeSyntaxElement2Buf_UVLC
	movq	-8(%rbp), %rax
	cmpl	$8, 4(%rax)
	je	.LBB53_4
# %bb.1:                                # %if.then
	movq	-8(%rbp), %rax
	movzbl	8(%rax), %ecx
	shll	$1, %ecx
	movb	%cl, 8(%rax)
	movq	-8(%rbp), %rax
	movzbl	8(%rax), %ecx
	orl	$1, %ecx
	movb	%cl, 8(%rax)
	movq	-8(%rbp), %rax
	movl	4(%rax), %ecx
	addl	$-1, %ecx
	movl	%ecx, 4(%rax)
	movq	-8(%rbp), %rax
	cmpl	$0, 4(%rax)
	je	.LBB53_3
# %bb.2:                                # %if.then22
	movq	-8(%rbp), %rax
	movl	4(%rax), %ecx
	movq	-8(%rbp), %rax
	movzbl	8(%rax), %edx
                                        # kill: def $cl killed $ecx
	shll	%cl, %edx
	movb	%dl, 8(%rax)
.LBB53_3:                               # %if.end
	movq	-8(%rbp), %rax
	movl	$8, 4(%rax)
	movq	-8(%rbp), %rax
	movb	8(%rax), %al
	movq	-8(%rbp), %rcx
	movq	32(%rcx), %rcx
	movq	-8(%rbp), %rdx
	movl	(%rdx), %esi
	movl	%esi, %edi
	addl	$1, %edi
	movl	%edi, (%rdx)
	movslq	%esi, %rdx
	movb	%al, (%rcx,%rdx)
	movq	-8(%rbp), %rax
	movb	$0, 8(%rax)
.LBB53_4:                               # %if.end33
	movq	-8(%rbp), %rax
	movl	(%rax), %eax
	movslq	-12(%rbp), %rcx
	shlq	$5, %rcx
	movabsq	$seiSubseqInfo, %rdx
	addq	%rcx, %rdx
	movl	%eax, 16(%rdx)
	cmpl	$890573265, -16(%rbp)   # imm = 0x351511D1
	jne	.LBB53_6
.LBB53_5:
	addq	$64, %rsp
	popq	%rbp
	.cfi_def_cfa %rsp, 8
	retq
.LBB53_6:                               # %func_exit
	.cfi_def_cfa %rbp, 16
	callq	detect_breach
	jmp	.LBB53_5
.Lfunc_end53:
	.size	FinalizeSubseqInfo.4, .Lfunc_end53-FinalizeSubseqInfo.4
	.cfi_endproc
                                        # -- End function
	.globl	FinalizeUser_data_registered_itu_t_t35.5 # -- Begin function FinalizeUser_data_registered_itu_t_t35.5
	.p2align	4, 0x90
	.type	FinalizeUser_data_registered_itu_t_t35.5,@function
FinalizeUser_data_registered_itu_t_t35.5: # @FinalizeUser_data_registered_itu_t_t35.5
	.cfi_startproc
# %bb.0:                                # %entry
	pushq	%rbp
	.cfi_def_cfa_offset 16
	.cfi_offset %rbp, -16
	movq	%rsp, %rbp
	.cfi_def_cfa_register %rbp
	subq	$64, %rsp
	movl	$1471387224, -16(%rbp)  # imm = 0x57B39658
	movq	seiUser_data_registered_itu_t_t35+24, %rax
	movq	%rax, -8(%rbp)
	movl	$0, -64(%rbp)
	movabsq	$ue_linfo, %rax
	movq	%rax, -32(%rbp)
	movl	seiUser_data_registered_itu_t_t35+12, %eax
	movl	%eax, -44(%rbp)
	movl	$8, -52(%rbp)
	movq	-8(%rbp), %rsi
	leaq	-64(%rbp), %rdi
	callq	writeSyntaxElement2Buf_Fixed
	cmpl	$255, seiUser_data_registered_itu_t_t35+12
	jne	.LBB54_2
# %bb.1:                                # %if.then
	movl	seiUser_data_registered_itu_t_t35+16, %eax
	movl	%eax, -44(%rbp)
	movl	$8, -52(%rbp)
	movq	-8(%rbp), %rsi
	leaq	-64(%rbp), %rdi
	callq	writeSyntaxElement2Buf_Fixed
.LBB54_2:                               # %if.end
	movl	$0, -12(%rbp)
.LBB54_3:                               # %for.cond
                                        # =>This Inner Loop Header: Depth=1
	movl	-12(%rbp), %eax
	cmpl	seiUser_data_registered_itu_t_t35+8, %eax
	jge	.LBB54_6
# %bb.4:                                # %for.body
                                        #   in Loop: Header=BB54_3 Depth=1
	movq	seiUser_data_registered_itu_t_t35, %rax
	movslq	-12(%rbp), %rcx
	movsbl	(%rax,%rcx), %eax
	movl	%eax, -44(%rbp)
	movl	$8, -52(%rbp)
	movq	-8(%rbp), %rsi
	leaq	-64(%rbp), %rdi
	callq	writeSyntaxElement2Buf_Fixed
# %bb.5:                                # %for.inc
                                        #   in Loop: Header=BB54_3 Depth=1
	movl	-12(%rbp), %eax
	addl	$1, %eax
	movl	%eax, -12(%rbp)
	jmp	.LBB54_3
.LBB54_6:                               # %for.end
	movq	-8(%rbp), %rax
	cmpl	$8, 4(%rax)
	je	.LBB54_10
# %bb.7:                                # %if.then10
	movq	-8(%rbp), %rax
	movzbl	8(%rax), %ecx
	shll	$1, %ecx
	movb	%cl, 8(%rax)
	movq	-8(%rbp), %rax
	movzbl	8(%rax), %ecx
	orl	$1, %ecx
	movb	%cl, 8(%rax)
	movq	-8(%rbp), %rax
	movl	4(%rax), %ecx
	addl	$-1, %ecx
	movl	%ecx, 4(%rax)
	movq	-8(%rbp), %rax
	cmpl	$0, 4(%rax)
	je	.LBB54_9
# %bb.8:                                # %if.then20
	movq	-8(%rbp), %rax
	movl	4(%rax), %ecx
	movq	-8(%rbp), %rax
	movzbl	8(%rax), %edx
                                        # kill: def $cl killed $ecx
	shll	%cl, %edx
	movb	%dl, 8(%rax)
.LBB54_9:                               # %if.end26
	movq	-8(%rbp), %rax
	movl	$8, 4(%rax)
	movq	-8(%rbp), %rax
	movb	8(%rax), %al
	movq	-8(%rbp), %rcx
	movq	32(%rcx), %rcx
	movq	-8(%rbp), %rdx
	movl	(%rdx), %esi
	movl	%esi, %edi
	addl	$1, %edi
	movl	%edi, (%rdx)
	movslq	%esi, %rdx
	movb	%al, (%rcx,%rdx)
	movq	-8(%rbp), %rax
	movb	$0, 8(%rax)
.LBB54_10:                              # %if.end33
	movq	-8(%rbp), %rax
	movl	(%rax), %eax
	movl	%eax, seiUser_data_registered_itu_t_t35+32
	cmpl	$1471387224, -16(%rbp)  # imm = 0x57B39658
	jne	.LBB54_12
.LBB54_11:
	addq	$64, %rsp
	popq	%rbp
	.cfi_def_cfa %rsp, 8
	retq
.LBB54_12:                              # %func_exit
	.cfi_def_cfa %rbp, 16
	callq	detect_breach
	jmp	.LBB54_11
.Lfunc_end54:
	.size	FinalizeUser_data_registered_itu_t_t35.5, .Lfunc_end54-FinalizeUser_data_registered_itu_t_t35.5
	.cfi_endproc
                                        # -- End function
	.globl	AppendTmpbits2Buf.6     # -- Begin function AppendTmpbits2Buf.6
	.p2align	4, 0x90
	.type	AppendTmpbits2Buf.6,@function
AppendTmpbits2Buf.6:                    # @AppendTmpbits2Buf.6
	.cfi_startproc
# %bb.0:                                # %entry
	pushq	%rbp
	.cfi_def_cfa_offset 16
	.cfi_offset %rbp, -16
	movq	%rsp, %rbp
	.cfi_def_cfa_register %rbp
	subq	$48, %rsp
	movl	$1041681939, -44(%rbp)  # imm = 0x3E16CE13
	movq	%rdi, -16(%rbp)
	movq	%rsi, -40(%rbp)
	movl	$0, -24(%rbp)
.LBB55_1:                               # %for.cond
                                        # =>This Loop Header: Depth=1
                                        #     Child Loop BB55_3 Depth 2
	movl	-24(%rbp), %eax
	movq	-40(%rbp), %rcx
	cmpl	(%rcx), %eax
	jge	.LBB55_12
# %bb.2:                                # %for.body
                                        #   in Loop: Header=BB55_1 Depth=1
	movb	$-128, -1(%rbp)
	movl	$0, -20(%rbp)
.LBB55_3:                               # %for.cond1
                                        #   Parent Loop BB55_1 Depth=1
                                        # =>  This Inner Loop Header: Depth=2
	cmpl	$8, -20(%rbp)
	jge	.LBB55_10
# %bb.4:                                # %for.body3
                                        #   in Loop: Header=BB55_3 Depth=2
	movq	-16(%rbp), %rax
	movzbl	8(%rax), %ecx
	shll	$1, %ecx
	movb	%cl, 8(%rax)
	movq	-40(%rbp), %rax
	movq	32(%rax), %rax
	movslq	-24(%rbp), %rcx
	movzbl	(%rax,%rcx), %eax
	movzbl	-1(%rbp), %ecx
	andl	%ecx, %eax
	cmpl	$0, %eax
	je	.LBB55_6
# %bb.5:                                # %if.then
                                        #   in Loop: Header=BB55_3 Depth=2
	movq	-16(%rbp), %rax
	movzbl	8(%rax), %ecx
	orl	$1, %ecx
	movb	%cl, 8(%rax)
.LBB55_6:                               # %if.end
                                        #   in Loop: Header=BB55_3 Depth=2
	movq	-16(%rbp), %rax
	movl	4(%rax), %ecx
	addl	$-1, %ecx
	movl	%ecx, 4(%rax)
	movzbl	-1(%rbp), %eax
	sarl	$1, %eax
	movb	%al, -1(%rbp)
	movq	-16(%rbp), %rax
	cmpl	$0, 4(%rax)
	jne	.LBB55_8
# %bb.7:                                # %if.then15
                                        #   in Loop: Header=BB55_3 Depth=2
	movq	-16(%rbp), %rax
	movl	$8, 4(%rax)
	movq	-16(%rbp), %rax
	movb	8(%rax), %al
	movq	-16(%rbp), %rcx
	movq	32(%rcx), %rcx
	movq	-16(%rbp), %rdx
	movl	(%rdx), %esi
	movl	%esi, %edi
	addl	$1, %edi
	movl	%edi, (%rdx)
	movslq	%esi, %rdx
	movb	%al, (%rcx,%rdx)
	movq	-16(%rbp), %rax
	movb	$0, 8(%rax)
.LBB55_8:                               # %if.end23
                                        #   in Loop: Header=BB55_3 Depth=2
	jmp	.LBB55_9
.LBB55_9:                               # %for.inc
                                        #   in Loop: Header=BB55_3 Depth=2
	movl	-20(%rbp), %eax
	addl	$1, %eax
	movl	%eax, -20(%rbp)
	jmp	.LBB55_3
.LBB55_10:                              # %for.end
                                        #   in Loop: Header=BB55_1 Depth=1
	jmp	.LBB55_11
.LBB55_11:                              # %for.inc25
                                        #   in Loop: Header=BB55_1 Depth=1
	movl	-24(%rbp), %eax
	addl	$1, %eax
	movl	%eax, -24(%rbp)
	jmp	.LBB55_1
.LBB55_12:                              # %for.end27
	movq	-40(%rbp), %rax
	movl	$8, %ecx
	subl	4(%rax), %ecx
	movl	%ecx, -28(%rbp)
	cmpl	$0, -28(%rbp)
	jle	.LBB55_22
# %bb.13:                               # %if.then31
	movl	-28(%rbp), %ecx
	subl	$1, %ecx
                                        # kill: def $cl killed $ecx
	movl	$1, %eax
	shll	%cl, %eax
	movb	%al, -1(%rbp)
	movl	$0, -20(%rbp)
.LBB55_14:                              # %for.cond35
                                        # =>This Inner Loop Header: Depth=1
	movl	-20(%rbp), %eax
	cmpl	-28(%rbp), %eax
	jge	.LBB55_21
# %bb.15:                               # %for.body38
                                        #   in Loop: Header=BB55_14 Depth=1
	movq	-16(%rbp), %rax
	movzbl	8(%rax), %ecx
	shll	$1, %ecx
	movb	%cl, 8(%rax)
	movq	-40(%rbp), %rax
	movzbl	8(%rax), %eax
	movzbl	-1(%rbp), %ecx
	andl	%ecx, %eax
	cmpl	$0, %eax
	je	.LBB55_17
# %bb.16:                               # %if.then48
                                        #   in Loop: Header=BB55_14 Depth=1
	movq	-16(%rbp), %rax
	movzbl	8(%rax), %ecx
	orl	$1, %ecx
	movb	%cl, 8(%rax)
.LBB55_17:                              # %if.end53
                                        #   in Loop: Header=BB55_14 Depth=1
	movq	-16(%rbp), %rax
	movl	4(%rax), %ecx
	addl	$-1, %ecx
	movl	%ecx, 4(%rax)
	movzbl	-1(%rbp), %eax
	sarl	$1, %eax
	movb	%al, -1(%rbp)
	movq	-16(%rbp), %rax
	cmpl	$0, 4(%rax)
	jne	.LBB55_19
# %bb.18:                               # %if.then62
                                        #   in Loop: Header=BB55_14 Depth=1
	movq	-16(%rbp), %rax
	movl	$8, 4(%rax)
	movq	-16(%rbp), %rax
	movb	8(%rax), %al
	movq	-16(%rbp), %rcx
	movq	32(%rcx), %rcx
	movq	-16(%rbp), %rdx
	movl	(%rdx), %esi
	movl	%esi, %edi
	addl	$1, %edi
	movl	%edi, (%rdx)
	movslq	%esi, %rdx
	movb	%al, (%rcx,%rdx)
	movq	-16(%rbp), %rax
	movb	$0, 8(%rax)
.LBB55_19:                              # %if.end71
                                        #   in Loop: Header=BB55_14 Depth=1
	jmp	.LBB55_20
.LBB55_20:                              # %for.inc72
                                        #   in Loop: Header=BB55_14 Depth=1
	movl	-20(%rbp), %eax
	addl	$1, %eax
	movl	%eax, -20(%rbp)
	jmp	.LBB55_14
.LBB55_21:                              # %for.end74
	jmp	.LBB55_22
.LBB55_22:                              # %if.end75
	cmpl	$1041681939, -44(%rbp)  # imm = 0x3E16CE13
	jne	.LBB55_24
.LBB55_23:
	addq	$48, %rsp
	popq	%rbp
	.cfi_def_cfa %rsp, 8
	retq
.LBB55_24:                              # %func_exit
	.cfi_def_cfa %rbp, 16
	callq	detect_breach
	jmp	.LBB55_23
.Lfunc_end55:
	.size	AppendTmpbits2Buf.6, .Lfunc_end55-AppendTmpbits2Buf.6
	.cfi_endproc
                                        # -- End function
	.globl	UpdateSceneInformation.7 # -- Begin function UpdateSceneInformation.7
	.p2align	4, 0x90
	.type	UpdateSceneInformation.7,@function
UpdateSceneInformation.7:               # @UpdateSceneInformation.7
	.cfi_startproc
# %bb.0:                                # %entry
	pushq	%rbp
	.cfi_def_cfa_offset 16
	.cfi_offset %rbp, -16
	movq	%rsp, %rbp
	.cfi_def_cfa_register %rbp
	subq	$32, %rsp
	movl	$234629350, -12(%rbp)   # imm = 0xDFC28E6
	movl	%edi, -20(%rbp)
	movl	%esi, -16(%rbp)
	movl	%edx, -4(%rbp)
	movl	%ecx, -8(%rbp)
	movl	-20(%rbp), %eax
	movl	%eax, seiHasSceneInformation
	movl	-16(%rbp), %eax
	movl	%eax, seiSceneInformation
	movl	-4(%rbp), %eax
	movl	%eax, seiSceneInformation+4
	cmpl	$3, -4(%rbp)
	jle	.LBB56_2
# %bb.1:                                # %if.then
	movl	-8(%rbp), %eax
	movl	%eax, seiSceneInformation+8
.LBB56_2:                               # %if.end
	cmpl	$234629350, -12(%rbp)   # imm = 0xDFC28E6
	jne	.LBB56_4
.LBB56_3:
	addq	$32, %rsp
	popq	%rbp
	.cfi_def_cfa %rsp, 8
	retq
.LBB56_4:                               # %func_exit
	.cfi_def_cfa %rbp, 16
	callq	detect_breach
	jmp	.LBB56_3
.Lfunc_end56:
	.size	UpdateSceneInformation.7, .Lfunc_end56-UpdateSceneInformation.7
	.cfi_endproc
                                        # -- End function
	.globl	FinalizeSubseqInfo.8    # -- Begin function FinalizeSubseqInfo.8
	.p2align	4, 0x90
	.type	FinalizeSubseqInfo.8,@function
FinalizeSubseqInfo.8:                   # @FinalizeSubseqInfo.8
	.cfi_startproc
# %bb.0:                                # %entry
	pushq	%rbp
	.cfi_def_cfa_offset 16
	.cfi_offset %rbp, -16
	movq	%rsp, %rbp
	.cfi_def_cfa_register %rbp
	subq	$64, %rsp
	movl	$249382791, -16(%rbp)   # imm = 0xEDD4787
	movl	%edi, -12(%rbp)
	movslq	-12(%rbp), %rax
	shlq	$5, %rax
	movabsq	$seiSubseqInfo, %rcx
	movq	%rcx, %rdx
	addq	%rax, %rdx
	movq	24(%rdx), %rax
	movq	%rax, -8(%rbp)
	movl	$0, -64(%rbp)
	movabsq	$ue_linfo, %rax
	movq	%rax, -32(%rbp)
	movslq	-12(%rbp), %rax
	shlq	$5, %rax
	addq	%rax, %rcx
	movl	(%rcx), %eax
	movl	%eax, -60(%rbp)
	movq	-8(%rbp), %rsi
	leaq	-64(%rbp), %rdi
	callq	writeSyntaxElement2Buf_UVLC
	movslq	-12(%rbp), %rax
	shlq	$5, %rax
	movabsq	$seiSubseqInfo, %rcx
	addq	%rax, %rcx
	movl	4(%rcx), %eax
	movl	%eax, -60(%rbp)
	movq	-8(%rbp), %rsi
	leaq	-64(%rbp), %rdi
	callq	writeSyntaxElement2Buf_UVLC
	movslq	-12(%rbp), %rax
	shlq	$5, %rax
	movabsq	$seiSubseqInfo, %rcx
	addq	%rax, %rcx
	movl	8(%rcx), %eax
	movl	%eax, -44(%rbp)
	movl	$1, -52(%rbp)
	movq	-8(%rbp), %rsi
	leaq	-64(%rbp), %rdi
	callq	writeSyntaxElement2Buf_Fixed
	movslq	-12(%rbp), %rax
	shlq	$5, %rax
	movabsq	$seiSubseqInfo, %rcx
	addq	%rax, %rcx
	movl	12(%rcx), %eax
	movl	%eax, -60(%rbp)
	movq	-8(%rbp), %rsi
	leaq	-64(%rbp), %rdi
	callq	writeSyntaxElement2Buf_UVLC
	movq	-8(%rbp), %rax
	cmpl	$8, 4(%rax)
	je	.LBB57_4
# %bb.1:                                # %if.then
	movq	-8(%rbp), %rax
	movzbl	8(%rax), %ecx
	shll	$1, %ecx
	movb	%cl, 8(%rax)
	movq	-8(%rbp), %rax
	movzbl	8(%rax), %ecx
	orl	$1, %ecx
	movb	%cl, 8(%rax)
	movq	-8(%rbp), %rax
	movl	4(%rax), %ecx
	addl	$-1, %ecx
	movl	%ecx, 4(%rax)
	movq	-8(%rbp), %rax
	cmpl	$0, 4(%rax)
	je	.LBB57_3
# %bb.2:                                # %if.then22
	movq	-8(%rbp), %rax
	movl	4(%rax), %ecx
	movq	-8(%rbp), %rax
	movzbl	8(%rax), %edx
                                        # kill: def $cl killed $ecx
	shll	%cl, %edx
	movb	%dl, 8(%rax)
.LBB57_3:                               # %if.end
	movq	-8(%rbp), %rax
	movl	$8, 4(%rax)
	movq	-8(%rbp), %rax
	movb	8(%rax), %al
	movq	-8(%rbp), %rcx
	movq	32(%rcx), %rcx
	movq	-8(%rbp), %rdx
	movl	(%rdx), %esi
	movl	%esi, %edi
	addl	$1, %edi
	movl	%edi, (%rdx)
	movslq	%esi, %rdx
	movb	%al, (%rcx,%rdx)
	movq	-8(%rbp), %rax
	movb	$0, 8(%rax)
.LBB57_4:                               # %if.end33
	movq	-8(%rbp), %rax
	movl	(%rax), %eax
	movslq	-12(%rbp), %rcx
	shlq	$5, %rcx
	movabsq	$seiSubseqInfo, %rdx
	addq	%rcx, %rdx
	movl	%eax, 16(%rdx)
	cmpl	$249382791, -16(%rbp)   # imm = 0xEDD4787
	jne	.LBB57_6
.LBB57_5:
	addq	$64, %rsp
	popq	%rbp
	.cfi_def_cfa %rsp, 8
	retq
.LBB57_6:                               # %func_exit
	.cfi_def_cfa %rbp, 16
	callq	detect_breach
	jmp	.LBB57_5
.Lfunc_end57:
	.size	FinalizeSubseqInfo.8, .Lfunc_end57-FinalizeSubseqInfo.8
	.cfi_endproc
                                        # -- End function
	.globl	FinalizeSubseqInfo.9    # -- Begin function FinalizeSubseqInfo.9
	.p2align	4, 0x90
	.type	FinalizeSubseqInfo.9,@function
FinalizeSubseqInfo.9:                   # @FinalizeSubseqInfo.9
	.cfi_startproc
# %bb.0:                                # %entry
	pushq	%rbp
	.cfi_def_cfa_offset 16
	.cfi_offset %rbp, -16
	movq	%rsp, %rbp
	.cfi_def_cfa_register %rbp
	subq	$64, %rsp
	movl	$1920638262, -16(%rbp)  # imm = 0x727A9D36
	movl	%edi, -12(%rbp)
	movslq	-12(%rbp), %rax
	shlq	$5, %rax
	movabsq	$seiSubseqInfo, %rcx
	movq	%rcx, %rdx
	addq	%rax, %rdx
	movq	24(%rdx), %rax
	movq	%rax, -8(%rbp)
	movl	$0, -64(%rbp)
	movabsq	$ue_linfo, %rax
	movq	%rax, -32(%rbp)
	movslq	-12(%rbp), %rax
	shlq	$5, %rax
	addq	%rax, %rcx
	movl	(%rcx), %eax
	movl	%eax, -60(%rbp)
	movq	-8(%rbp), %rsi
	leaq	-64(%rbp), %rdi
	callq	writeSyntaxElement2Buf_UVLC
	movslq	-12(%rbp), %rax
	shlq	$5, %rax
	movabsq	$seiSubseqInfo, %rcx
	addq	%rax, %rcx
	movl	4(%rcx), %eax
	movl	%eax, -60(%rbp)
	movq	-8(%rbp), %rsi
	leaq	-64(%rbp), %rdi
	callq	writeSyntaxElement2Buf_UVLC
	movslq	-12(%rbp), %rax
	shlq	$5, %rax
	movabsq	$seiSubseqInfo, %rcx
	addq	%rax, %rcx
	movl	8(%rcx), %eax
	movl	%eax, -44(%rbp)
	movl	$1, -52(%rbp)
	movq	-8(%rbp), %rsi
	leaq	-64(%rbp), %rdi
	callq	writeSyntaxElement2Buf_Fixed
	movslq	-12(%rbp), %rax
	shlq	$5, %rax
	movabsq	$seiSubseqInfo, %rcx
	addq	%rax, %rcx
	movl	12(%rcx), %eax
	movl	%eax, -60(%rbp)
	movq	-8(%rbp), %rsi
	leaq	-64(%rbp), %rdi
	callq	writeSyntaxElement2Buf_UVLC
	movq	-8(%rbp), %rax
	cmpl	$8, 4(%rax)
	je	.LBB58_4
# %bb.1:                                # %if.then
	movq	-8(%rbp), %rax
	movzbl	8(%rax), %ecx
	shll	$1, %ecx
	movb	%cl, 8(%rax)
	movq	-8(%rbp), %rax
	movzbl	8(%rax), %ecx
	orl	$1, %ecx
	movb	%cl, 8(%rax)
	movq	-8(%rbp), %rax
	movl	4(%rax), %ecx
	addl	$-1, %ecx
	movl	%ecx, 4(%rax)
	movq	-8(%rbp), %rax
	cmpl	$0, 4(%rax)
	je	.LBB58_3
# %bb.2:                                # %if.then22
	movq	-8(%rbp), %rax
	movl	4(%rax), %ecx
	movq	-8(%rbp), %rax
	movzbl	8(%rax), %edx
                                        # kill: def $cl killed $ecx
	shll	%cl, %edx
	movb	%dl, 8(%rax)
.LBB58_3:                               # %if.end
	movq	-8(%rbp), %rax
	movl	$8, 4(%rax)
	movq	-8(%rbp), %rax
	movb	8(%rax), %al
	movq	-8(%rbp), %rcx
	movq	32(%rcx), %rcx
	movq	-8(%rbp), %rdx
	movl	(%rdx), %esi
	movl	%esi, %edi
	addl	$1, %edi
	movl	%edi, (%rdx)
	movslq	%esi, %rdx
	movb	%al, (%rcx,%rdx)
	movq	-8(%rbp), %rax
	movb	$0, 8(%rax)
.LBB58_4:                               # %if.end33
	movq	-8(%rbp), %rax
	movl	(%rax), %eax
	movslq	-12(%rbp), %rcx
	shlq	$5, %rcx
	movabsq	$seiSubseqInfo, %rdx
	addq	%rcx, %rdx
	movl	%eax, 16(%rdx)
	cmpl	$1920638262, -16(%rbp)  # imm = 0x727A9D36
	jne	.LBB58_6
.LBB58_5:
	addq	$64, %rsp
	popq	%rbp
	.cfi_def_cfa %rsp, 8
	retq
.LBB58_6:                               # %func_exit
	.cfi_def_cfa %rbp, 16
	callq	detect_breach
	jmp	.LBB58_5
.Lfunc_end58:
	.size	FinalizeSubseqInfo.9, .Lfunc_end58-FinalizeSubseqInfo.9
	.cfi_endproc
                                        # -- End function
	.globl	write_sei_message.10    # -- Begin function write_sei_message.10
	.p2align	4, 0x90
	.type	write_sei_message.10,@function
write_sei_message.10:                   # @write_sei_message.10
	.cfi_startproc
# %bb.0:                                # %entry
	pushq	%rbp
	.cfi_def_cfa_offset 16
	.cfi_offset %rbp, -16
	movq	%rsp, %rbp
	.cfi_def_cfa_register %rbp
	pushq	%rbx
	subq	$40, %rsp
	.cfi_offset %rbx, -24
	movl	$545100442, -36(%rbp)   # imm = 0x207D929A
	movl	%edi, -16(%rbp)
	movq	%rsi, -48(%rbp)
	movl	%edx, -28(%rbp)
	movl	%ecx, -32(%rbp)
	movl	-32(%rbp), %eax
	movl	%eax, -24(%rbp)
	movl	-28(%rbp), %eax
	movl	%eax, -20(%rbp)
	movslq	-16(%rbp), %rax
	imulq	$24, %rax, %rax
	movabsq	$sei_message, %rcx
	addq	%rax, %rcx
	movl	4(%rcx), %eax
	movl	%eax, -12(%rbp)
.LBB59_1:                               # %while.cond
                                        # =>This Inner Loop Header: Depth=1
	cmpl	$255, -24(%rbp)
	jle	.LBB59_3
# %bb.2:                                # %while.body
                                        #   in Loop: Header=BB59_1 Depth=1
	movslq	-16(%rbp), %rax
	imulq	$24, %rax, %rax
	movabsq	$sei_message, %rcx
	addq	%rax, %rcx
	movq	16(%rcx), %rax
	movl	-12(%rbp), %ecx
	movl	%ecx, %edx
	addl	$1, %edx
	movl	%edx, -12(%rbp)
	movslq	%ecx, %rcx
	movb	$-1, (%rax,%rcx)
	movl	-24(%rbp), %eax
	subl	$255, %eax
	movl	%eax, -24(%rbp)
	jmp	.LBB59_1
.LBB59_3:                               # %while.end
	movl	-24(%rbp), %eax
	movslq	-16(%rbp), %rcx
	imulq	$24, %rcx, %rcx
	movabsq	$sei_message, %rdx
	addq	%rcx, %rdx
	movq	16(%rdx), %rcx
	movl	-12(%rbp), %edx
	movl	%edx, %esi
	addl	$1, %esi
	movl	%esi, -12(%rbp)
	movslq	%edx, %rdx
	movb	%al, (%rcx,%rdx)
.LBB59_4:                               # %while.cond11
                                        # =>This Inner Loop Header: Depth=1
	cmpl	$255, -20(%rbp)
	jle	.LBB59_6
# %bb.5:                                # %while.body14
                                        #   in Loop: Header=BB59_4 Depth=1
	movslq	-16(%rbp), %rax
	imulq	$24, %rax, %rax
	movabsq	$sei_message, %rcx
	addq	%rax, %rcx
	movq	16(%rcx), %rax
	movl	-12(%rbp), %ecx
	movl	%ecx, %edx
	addl	$1, %edx
	movl	%edx, -12(%rbp)
	movslq	%ecx, %rcx
	movb	$-1, (%rax,%rcx)
	movl	-20(%rbp), %eax
	subl	$255, %eax
	movl	%eax, -20(%rbp)
	jmp	.LBB59_4
.LBB59_6:                               # %while.end22
	movl	-20(%rbp), %eax
	movslq	-16(%rbp), %rcx
	imulq	$24, %rcx, %rcx
	movabsq	$sei_message, %rbx
	movq	%rbx, %rdx
	addq	%rcx, %rdx
	movq	16(%rdx), %rcx
	movl	-12(%rbp), %edx
	movl	%edx, %esi
	addl	$1, %esi
	movl	%esi, -12(%rbp)
	movslq	%edx, %rdx
	movb	%al, (%rcx,%rdx)
	movslq	-16(%rbp), %rax
	imulq	$24, %rax, %rax
	movq	%rbx, %rcx
	addq	%rax, %rcx
	movq	16(%rcx), %rdi
	movslq	-12(%rbp), %rax
	addq	%rax, %rdi
	movq	-48(%rbp), %rsi
	movslq	-28(%rbp), %rdx
	callq	memcpy
	movl	-28(%rbp), %eax
	addl	-12(%rbp), %eax
	movl	%eax, -12(%rbp)
	movl	-12(%rbp), %eax
	movslq	-16(%rbp), %rcx
	imulq	$24, %rcx, %rcx
	addq	%rcx, %rbx
	movl	%eax, 4(%rbx)
	cmpl	$545100442, -36(%rbp)   # imm = 0x207D929A
	jne	.LBB59_8
.LBB59_7:
	addq	$40, %rsp
	popq	%rbx
	popq	%rbp
	.cfi_def_cfa %rsp, 8
	retq
.LBB59_8:                               # %func_exit
	.cfi_def_cfa %rbp, 16
	callq	detect_breach
	jmp	.LBB59_7
.Lfunc_end59:
	.size	write_sei_message.10, .Lfunc_end59-write_sei_message.10
	.cfi_endproc
                                        # -- End function
	.globl	FinalizeSceneInformation.11 # -- Begin function FinalizeSceneInformation.11
	.p2align	4, 0x90
	.type	FinalizeSceneInformation.11,@function
FinalizeSceneInformation.11:            # @FinalizeSceneInformation.11
	.cfi_startproc
# %bb.0:                                # %entry
	pushq	%rbp
	.cfi_def_cfa_offset 16
	.cfi_offset %rbp, -16
	movq	%rsp, %rbp
	.cfi_def_cfa_register %rbp
	subq	$64, %rsp
	movl	$1227736406, -12(%rbp)  # imm = 0x492DC556
	movq	seiSceneInformation+16, %rax
	movq	%rax, -8(%rbp)
	movl	$0, -64(%rbp)
	movabsq	$ue_linfo, %rax
	movq	%rax, -32(%rbp)
	movl	seiSceneInformation, %eax
	movl	%eax, -44(%rbp)
	movl	$8, -52(%rbp)
	movq	-8(%rbp), %rsi
	leaq	-64(%rbp), %rdi
	callq	writeSyntaxElement2Buf_Fixed
	movl	seiSceneInformation+4, %eax
	movl	%eax, -60(%rbp)
	movq	-8(%rbp), %rsi
	leaq	-64(%rbp), %rdi
	callq	writeSyntaxElement2Buf_UVLC
	cmpl	$3, seiSceneInformation+4
	jle	.LBB60_2
# %bb.1:                                # %if.then
	movl	seiSceneInformation+8, %eax
	movl	%eax, -44(%rbp)
	movl	$8, -52(%rbp)
	movq	-8(%rbp), %rsi
	leaq	-64(%rbp), %rdi
	callq	writeSyntaxElement2Buf_Fixed
.LBB60_2:                               # %if.end
	movq	-8(%rbp), %rax
	cmpl	$8, 4(%rax)
	je	.LBB60_6
# %bb.3:                                # %if.then6
	movq	-8(%rbp), %rax
	movzbl	8(%rax), %ecx
	shll	$1, %ecx
	movb	%cl, 8(%rax)
	movq	-8(%rbp), %rax
	movzbl	8(%rax), %ecx
	orl	$1, %ecx
	movb	%cl, 8(%rax)
	movq	-8(%rbp), %rax
	movl	4(%rax), %ecx
	addl	$-1, %ecx
	movl	%ecx, 4(%rax)
	movq	-8(%rbp), %rax
	cmpl	$0, 4(%rax)
	je	.LBB60_5
# %bb.4:                                # %if.then15
	movq	-8(%rbp), %rax
	movl	4(%rax), %ecx
	movq	-8(%rbp), %rax
	movzbl	8(%rax), %edx
                                        # kill: def $cl killed $ecx
	shll	%cl, %edx
	movb	%dl, 8(%rax)
.LBB60_5:                               # %if.end21
	movq	-8(%rbp), %rax
	movl	$8, 4(%rax)
	movq	-8(%rbp), %rax
	movb	8(%rax), %al
	movq	-8(%rbp), %rcx
	movq	32(%rcx), %rcx
	movq	-8(%rbp), %rdx
	movl	(%rdx), %esi
	movl	%esi, %edi
	addl	$1, %edi
	movl	%edi, (%rdx)
	movslq	%esi, %rdx
	movb	%al, (%rcx,%rdx)
	movq	-8(%rbp), %rax
	movb	$0, 8(%rax)
.LBB60_6:                               # %if.end25
	movq	-8(%rbp), %rax
	movl	(%rax), %eax
	movl	%eax, seiSceneInformation+24
	cmpl	$1227736406, -12(%rbp)  # imm = 0x492DC556
	jne	.LBB60_8
.LBB60_7:
	addq	$64, %rsp
	popq	%rbp
	.cfi_def_cfa %rsp, 8
	retq
.LBB60_8:                               # %func_exit
	.cfi_def_cfa %rbp, 16
	callq	detect_breach
	jmp	.LBB60_7
.Lfunc_end60:
	.size	FinalizeSceneInformation.11, .Lfunc_end60-FinalizeSceneInformation.11
	.cfi_endproc
                                        # -- End function
	.globl	UpdateUser_data_unregistered.12 # -- Begin function UpdateUser_data_unregistered.12
	.p2align	4, 0x90
	.type	UpdateUser_data_unregistered.12,@function
UpdateUser_data_unregistered.12:        # @UpdateUser_data_unregistered.12
	.cfi_startproc
# %bb.0:                                # %entry
	pushq	%rbp
	.cfi_def_cfa_offset 16
	.cfi_offset %rbp, -16
	movq	%rsp, %rbp
	.cfi_def_cfa_register %rbp
	subq	$16, %rsp
	movl	$617853367, -16(%rbp)   # imm = 0x24D3B1B7
	movl	$7, -12(%rbp)
	movl	$0, -4(%rbp)
.LBB61_1:                               # %for.cond
                                        # =>This Inner Loop Header: Depth=1
	movl	-4(%rbp), %eax
	cmpl	-12(%rbp), %eax
	jge	.LBB61_13
# %bb.2:                                # %for.body
                                        #   in Loop: Header=BB61_1 Depth=1
	movl	-4(%rbp), %eax
	shll	$2, %eax
	movl	%eax, -8(%rbp)
	cmpl	$255, -8(%rbp)
	jge	.LBB61_4
# %bb.3:                                # %cond.true
                                        #   in Loop: Header=BB61_1 Depth=1
	movl	-8(%rbp), %eax
	jmp	.LBB61_5
.LBB61_4:                               # %cond.false
                                        #   in Loop: Header=BB61_1 Depth=1
	movl	$255, %eax
	jmp	.LBB61_5
.LBB61_5:                               # %cond.end
                                        #   in Loop: Header=BB61_1 Depth=1
	xorl	%ecx, %ecx
	cmpl	%eax, %ecx
	jle	.LBB61_7
# %bb.6:                                # %cond.true3
                                        #   in Loop: Header=BB61_1 Depth=1
	xorl	%eax, %eax
	jmp	.LBB61_11
.LBB61_7:                               # %cond.false4
                                        #   in Loop: Header=BB61_1 Depth=1
	cmpl	$255, -8(%rbp)
	jge	.LBB61_9
# %bb.8:                                # %cond.true6
                                        #   in Loop: Header=BB61_1 Depth=1
	movl	-8(%rbp), %eax
	jmp	.LBB61_10
.LBB61_9:                               # %cond.false7
                                        #   in Loop: Header=BB61_1 Depth=1
	movl	$255, %eax
	jmp	.LBB61_10
.LBB61_10:                              # %cond.end8
                                        #   in Loop: Header=BB61_1 Depth=1
.LBB61_11:                              # %cond.end10
                                        #   in Loop: Header=BB61_1 Depth=1
	movq	seiUser_data_unregistered, %rcx
	movslq	-4(%rbp), %rdx
	movb	%al, (%rcx,%rdx)
# %bb.12:                               # %for.inc
                                        #   in Loop: Header=BB61_1 Depth=1
	movl	-4(%rbp), %eax
	addl	$1, %eax
	movl	%eax, -4(%rbp)
	jmp	.LBB61_1
.LBB61_13:                              # %for.end
	movl	-12(%rbp), %eax
	movl	%eax, seiUser_data_unregistered+8
	cmpl	$617853367, -16(%rbp)   # imm = 0x24D3B1B7
	jne	.LBB61_15
.LBB61_14:
	addq	$16, %rsp
	popq	%rbp
	.cfi_def_cfa %rsp, 8
	retq
.LBB61_15:                              # %func_exit
	.cfi_def_cfa %rbp, 16
	callq	detect_breach
	jmp	.LBB61_14
.Lfunc_end61:
	.size	UpdateUser_data_unregistered.12, .Lfunc_end61-UpdateUser_data_unregistered.12
	.cfi_endproc
                                        # -- End function
	.globl	FinalizeUser_data_registered_itu_t_t35.13 # -- Begin function FinalizeUser_data_registered_itu_t_t35.13
	.p2align	4, 0x90
	.type	FinalizeUser_data_registered_itu_t_t35.13,@function
FinalizeUser_data_registered_itu_t_t35.13: # @FinalizeUser_data_registered_itu_t_t35.13
	.cfi_startproc
# %bb.0:                                # %entry
	pushq	%rbp
	.cfi_def_cfa_offset 16
	.cfi_offset %rbp, -16
	movq	%rsp, %rbp
	.cfi_def_cfa_register %rbp
	subq	$64, %rsp
	movl	$899969657, -16(%rbp)   # imm = 0x35A47279
	movq	seiUser_data_registered_itu_t_t35+24, %rax
	movq	%rax, -8(%rbp)
	movl	$0, -64(%rbp)
	movabsq	$ue_linfo, %rax
	movq	%rax, -32(%rbp)
	movl	seiUser_data_registered_itu_t_t35+12, %eax
	movl	%eax, -44(%rbp)
	movl	$8, -52(%rbp)
	movq	-8(%rbp), %rsi
	leaq	-64(%rbp), %rdi
	callq	writeSyntaxElement2Buf_Fixed
	cmpl	$255, seiUser_data_registered_itu_t_t35+12
	jne	.LBB62_2
# %bb.1:                                # %if.then
	movl	seiUser_data_registered_itu_t_t35+16, %eax
	movl	%eax, -44(%rbp)
	movl	$8, -52(%rbp)
	movq	-8(%rbp), %rsi
	leaq	-64(%rbp), %rdi
	callq	writeSyntaxElement2Buf_Fixed
.LBB62_2:                               # %if.end
	movl	$0, -12(%rbp)
.LBB62_3:                               # %for.cond
                                        # =>This Inner Loop Header: Depth=1
	movl	-12(%rbp), %eax
	cmpl	seiUser_data_registered_itu_t_t35+8, %eax
	jge	.LBB62_6
# %bb.4:                                # %for.body
                                        #   in Loop: Header=BB62_3 Depth=1
	movq	seiUser_data_registered_itu_t_t35, %rax
	movslq	-12(%rbp), %rcx
	movsbl	(%rax,%rcx), %eax
	movl	%eax, -44(%rbp)
	movl	$8, -52(%rbp)
	movq	-8(%rbp), %rsi
	leaq	-64(%rbp), %rdi
	callq	writeSyntaxElement2Buf_Fixed
# %bb.5:                                # %for.inc
                                        #   in Loop: Header=BB62_3 Depth=1
	movl	-12(%rbp), %eax
	addl	$1, %eax
	movl	%eax, -12(%rbp)
	jmp	.LBB62_3
.LBB62_6:                               # %for.end
	movq	-8(%rbp), %rax
	cmpl	$8, 4(%rax)
	je	.LBB62_10
# %bb.7:                                # %if.then10
	movq	-8(%rbp), %rax
	movzbl	8(%rax), %ecx
	shll	$1, %ecx
	movb	%cl, 8(%rax)
	movq	-8(%rbp), %rax
	movzbl	8(%rax), %ecx
	orl	$1, %ecx
	movb	%cl, 8(%rax)
	movq	-8(%rbp), %rax
	movl	4(%rax), %ecx
	addl	$-1, %ecx
	movl	%ecx, 4(%rax)
	movq	-8(%rbp), %rax
	cmpl	$0, 4(%rax)
	je	.LBB62_9
# %bb.8:                                # %if.then20
	movq	-8(%rbp), %rax
	movl	4(%rax), %ecx
	movq	-8(%rbp), %rax
	movzbl	8(%rax), %edx
                                        # kill: def $cl killed $ecx
	shll	%cl, %edx
	movb	%dl, 8(%rax)
.LBB62_9:                               # %if.end26
	movq	-8(%rbp), %rax
	movl	$8, 4(%rax)
	movq	-8(%rbp), %rax
	movb	8(%rax), %al
	movq	-8(%rbp), %rcx
	movq	32(%rcx), %rcx
	movq	-8(%rbp), %rdx
	movl	(%rdx), %esi
	movl	%esi, %edi
	addl	$1, %edi
	movl	%edi, (%rdx)
	movslq	%esi, %rdx
	movb	%al, (%rcx,%rdx)
	movq	-8(%rbp), %rax
	movb	$0, 8(%rax)
.LBB62_10:                              # %if.end33
	movq	-8(%rbp), %rax
	movl	(%rax), %eax
	movl	%eax, seiUser_data_registered_itu_t_t35+32
	cmpl	$899969657, -16(%rbp)   # imm = 0x35A47279
	jne	.LBB62_12
.LBB62_11:
	addq	$64, %rsp
	popq	%rbp
	.cfi_def_cfa %rsp, 8
	retq
.LBB62_12:                              # %func_exit
	.cfi_def_cfa %rbp, 16
	callq	detect_breach
	jmp	.LBB62_11
.Lfunc_end62:
	.size	FinalizeUser_data_registered_itu_t_t35.13, .Lfunc_end62-FinalizeUser_data_registered_itu_t_t35.13
	.cfi_endproc
                                        # -- End function
	.globl	FinalizeSpareMBMap.14   # -- Begin function FinalizeSpareMBMap.14
	.p2align	4, 0x90
	.type	FinalizeSpareMBMap.14,@function
FinalizeSpareMBMap.14:                  # @FinalizeSpareMBMap.14
	.cfi_startproc
# %bb.0:                                # %entry
	pushq	%rbp
	.cfi_def_cfa_offset 16
	.cfi_offset %rbp, -16
	movq	%rsp, %rbp
	.cfi_def_cfa_register %rbp
	subq	$80, %rsp
	movl	$250476920, -28(%rbp)   # imm = 0xEEDF978
	movq	img, %rax
	movl	(%rax), %eax
	cltd
	movl	$256, %ecx              # imm = 0x100
	idivl	%ecx
	movl	%edx, -32(%rbp)
	movl	$0, -80(%rbp)
	movabsq	$ue_linfo, %rax
	movq	%rax, -48(%rbp)
	movq	seiSparePicturePayload+16, %rax
	movq	%rax, -24(%rbp)
	movl	$48, %edi
	callq	malloc
	movq	%rax, -8(%rbp)
	cmpq	$0, -8(%rbp)
	jne	.LBB63_2
# %bb.1:                                # %if.then
	movabsq	$.L.str.3, %rdi
	callq	no_mem_exit
.LBB63_2:                               # %if.end
	movl	$65496, %edi            # imm = 0xFFD8
	callq	malloc
	movq	-8(%rbp), %rcx
	movq	%rax, 32(%rcx)
	movq	-8(%rbp), %rax
	cmpq	$0, 32(%rax)
	jne	.LBB63_4
# %bb.3:                                # %if.then4
	movabsq	$.L.str.4, %rdi
	callq	no_mem_exit
.LBB63_4:                               # %if.end5
	movq	-8(%rbp), %rax
	movl	$8, 4(%rax)
	movq	-8(%rbp), %rax
	movl	$0, (%rax)
	movq	-8(%rbp), %rax
	movb	$0, 8(%rax)
	movq	-8(%rbp), %rax
	movq	32(%rax), %rdi
	xorl	%esi, %esi
	movl	$65496, %edx            # imm = 0xFFD8
	callq	memset
	movl	-32(%rbp), %eax
	subl	seiSparePicturePayload, %eax
	movl	%eax, -12(%rbp)
	cmpl	$0, -12(%rbp)
	jge	.LBB63_6
# %bb.5:                                # %if.then8
	movl	-12(%rbp), %eax
	addl	$256, %eax              # imm = 0x100
	movl	%eax, -12(%rbp)
.LBB63_6:                               # %if.end9
	movl	-12(%rbp), %eax
	movl	%eax, -76(%rbp)
	movq	-8(%rbp), %rsi
	leaq	-80(%rbp), %rdi
	callq	writeSyntaxElement2Buf_UVLC
	movl	seiSparePicturePayload+4, %eax
	subl	$1, %eax
	movl	%eax, -76(%rbp)
	movq	-8(%rbp), %rsi
	leaq	-80(%rbp), %rdi
	callq	writeSyntaxElement2Buf_UVLC
	movq	-8(%rbp), %rdi
	movq	-24(%rbp), %rsi
	callq	AppendTmpbits2Buf
	movq	-8(%rbp), %rax
	cmpl	$8, 4(%rax)
	je	.LBB63_10
# %bb.7:                                # %if.then16
	movq	-8(%rbp), %rax
	movzbl	8(%rax), %ecx
	shll	$1, %ecx
	movb	%cl, 8(%rax)
	movq	-8(%rbp), %rax
	movzbl	8(%rax), %ecx
	orl	$1, %ecx
	movb	%cl, 8(%rax)
	movq	-8(%rbp), %rax
	movl	4(%rax), %ecx
	addl	$-1, %ecx
	movl	%ecx, 4(%rax)
	movq	-8(%rbp), %rax
	cmpl	$0, 4(%rax)
	je	.LBB63_9
# %bb.8:                                # %if.then26
	movq	-8(%rbp), %rax
	movl	4(%rax), %ecx
	movq	-8(%rbp), %rax
	movzbl	8(%rax), %edx
                                        # kill: def $cl killed $ecx
	shll	%cl, %edx
	movb	%dl, 8(%rax)
.LBB63_9:                               # %if.end32
	movq	-8(%rbp), %rax
	movl	$8, 4(%rax)
	movq	-8(%rbp), %rax
	movb	8(%rax), %al
	movq	-8(%rbp), %rcx
	movq	32(%rcx), %rcx
	movq	-8(%rbp), %rdx
	movl	(%rdx), %esi
	movl	%esi, %edi
	addl	$1, %edi
	movl	%edi, (%rdx)
	movslq	%esi, %rdx
	movb	%al, (%rcx,%rdx)
	movq	-8(%rbp), %rax
	movb	$0, 8(%rax)
.LBB63_10:                              # %if.end38
	movq	-8(%rbp), %rax
	movl	(%rax), %eax
	movl	%eax, seiSparePicturePayload+8
	movq	-8(%rbp), %rax
	movq	%rax, seiSparePicturePayload+16
	movq	-24(%rbp), %rax
	movq	32(%rax), %rdi
	callq	free
	movq	-24(%rbp), %rdi
	callq	free
	cmpl	$250476920, -28(%rbp)   # imm = 0xEEDF978
	jne	.LBB63_12
.LBB63_11:
	addq	$80, %rsp
	popq	%rbp
	.cfi_def_cfa %rsp, 8
	retq
.LBB63_12:                              # %func_exit
	.cfi_def_cfa %rbp, 16
	callq	detect_breach
	jmp	.LBB63_11
.Lfunc_end63:
	.size	FinalizeSpareMBMap.14, .Lfunc_end63-FinalizeSpareMBMap.14
	.cfi_endproc
                                        # -- End function
	.globl	write_sei_message.15    # -- Begin function write_sei_message.15
	.p2align	4, 0x90
	.type	write_sei_message.15,@function
write_sei_message.15:                   # @write_sei_message.15
	.cfi_startproc
# %bb.0:                                # %entry
	pushq	%rbp
	.cfi_def_cfa_offset 16
	.cfi_offset %rbp, -16
	movq	%rsp, %rbp
	.cfi_def_cfa_register %rbp
	pushq	%rbx
	subq	$40, %rsp
	.cfi_offset %rbx, -24
	movl	$1242583512, -32(%rbp)  # imm = 0x4A1051D8
	movl	%edi, -16(%rbp)
	movq	%rsi, -48(%rbp)
	movl	%edx, -28(%rbp)
	movl	%ecx, -36(%rbp)
	movl	-36(%rbp), %eax
	movl	%eax, -20(%rbp)
	movl	-28(%rbp), %eax
	movl	%eax, -24(%rbp)
	movslq	-16(%rbp), %rax
	imulq	$24, %rax, %rax
	movabsq	$sei_message, %rcx
	addq	%rax, %rcx
	movl	4(%rcx), %eax
	movl	%eax, -12(%rbp)
.LBB64_1:                               # %while.cond
                                        # =>This Inner Loop Header: Depth=1
	cmpl	$255, -20(%rbp)
	jle	.LBB64_3
# %bb.2:                                # %while.body
                                        #   in Loop: Header=BB64_1 Depth=1
	movslq	-16(%rbp), %rax
	imulq	$24, %rax, %rax
	movabsq	$sei_message, %rcx
	addq	%rax, %rcx
	movq	16(%rcx), %rax
	movl	-12(%rbp), %ecx
	movl	%ecx, %edx
	addl	$1, %edx
	movl	%edx, -12(%rbp)
	movslq	%ecx, %rcx
	movb	$-1, (%rax,%rcx)
	movl	-20(%rbp), %eax
	subl	$255, %eax
	movl	%eax, -20(%rbp)
	jmp	.LBB64_1
.LBB64_3:                               # %while.end
	movl	-20(%rbp), %eax
	movslq	-16(%rbp), %rcx
	imulq	$24, %rcx, %rcx
	movabsq	$sei_message, %rdx
	addq	%rcx, %rdx
	movq	16(%rdx), %rcx
	movl	-12(%rbp), %edx
	movl	%edx, %esi
	addl	$1, %esi
	movl	%esi, -12(%rbp)
	movslq	%edx, %rdx
	movb	%al, (%rcx,%rdx)
.LBB64_4:                               # %while.cond11
                                        # =>This Inner Loop Header: Depth=1
	cmpl	$255, -24(%rbp)
	jle	.LBB64_6
# %bb.5:                                # %while.body14
                                        #   in Loop: Header=BB64_4 Depth=1
	movslq	-16(%rbp), %rax
	imulq	$24, %rax, %rax
	movabsq	$sei_message, %rcx
	addq	%rax, %rcx
	movq	16(%rcx), %rax
	movl	-12(%rbp), %ecx
	movl	%ecx, %edx
	addl	$1, %edx
	movl	%edx, -12(%rbp)
	movslq	%ecx, %rcx
	movb	$-1, (%rax,%rcx)
	movl	-24(%rbp), %eax
	subl	$255, %eax
	movl	%eax, -24(%rbp)
	jmp	.LBB64_4
.LBB64_6:                               # %while.end22
	movl	-24(%rbp), %eax
	movslq	-16(%rbp), %rcx
	imulq	$24, %rcx, %rcx
	movabsq	$sei_message, %rbx
	movq	%rbx, %rdx
	addq	%rcx, %rdx
	movq	16(%rdx), %rcx
	movl	-12(%rbp), %edx
	movl	%edx, %esi
	addl	$1, %esi
	movl	%esi, -12(%rbp)
	movslq	%edx, %rdx
	movb	%al, (%rcx,%rdx)
	movslq	-16(%rbp), %rax
	imulq	$24, %rax, %rax
	movq	%rbx, %rcx
	addq	%rax, %rcx
	movq	16(%rcx), %rdi
	movslq	-12(%rbp), %rax
	addq	%rax, %rdi
	movq	-48(%rbp), %rsi
	movslq	-28(%rbp), %rdx
	callq	memcpy
	movl	-28(%rbp), %eax
	addl	-12(%rbp), %eax
	movl	%eax, -12(%rbp)
	movl	-12(%rbp), %eax
	movslq	-16(%rbp), %rcx
	imulq	$24, %rcx, %rcx
	addq	%rcx, %rbx
	movl	%eax, 4(%rbx)
	cmpl	$1242583512, -32(%rbp)  # imm = 0x4A1051D8
	jne	.LBB64_8
.LBB64_7:
	addq	$40, %rsp
	popq	%rbx
	popq	%rbp
	.cfi_def_cfa %rsp, 8
	retq
.LBB64_8:                               # %func_exit
	.cfi_def_cfa %rbp, 16
	callq	detect_breach
	jmp	.LBB64_7
.Lfunc_end64:
	.size	write_sei_message.15, .Lfunc_end64-write_sei_message.15
	.cfi_endproc
                                        # -- End function
	.globl	FinalizeUser_data_unregistered.16 # -- Begin function FinalizeUser_data_unregistered.16
	.p2align	4, 0x90
	.type	FinalizeUser_data_unregistered.16,@function
FinalizeUser_data_unregistered.16:      # @FinalizeUser_data_unregistered.16
	.cfi_startproc
# %bb.0:                                # %entry
	pushq	%rbp
	.cfi_def_cfa_offset 16
	.cfi_offset %rbp, -16
	movq	%rsp, %rbp
	.cfi_def_cfa_register %rbp
	subq	$64, %rsp
	movl	$1665897524, -16(%rbp)  # imm = 0x634B9434
	movq	seiUser_data_unregistered+16, %rax
	movq	%rax, -8(%rbp)
	movl	$0, -64(%rbp)
	movabsq	$ue_linfo, %rax
	movq	%rax, -32(%rbp)
	movl	$0, -12(%rbp)
.LBB65_1:                               # %for.cond
                                        # =>This Inner Loop Header: Depth=1
	movl	-12(%rbp), %eax
	cmpl	seiUser_data_unregistered+8, %eax
	jge	.LBB65_4
# %bb.2:                                # %for.body
                                        #   in Loop: Header=BB65_1 Depth=1
	movq	seiUser_data_unregistered, %rax
	movslq	-12(%rbp), %rcx
	movsbl	(%rax,%rcx), %eax
	movl	%eax, -44(%rbp)
	movl	$8, -52(%rbp)
	movq	-8(%rbp), %rsi
	leaq	-64(%rbp), %rdi
	callq	writeSyntaxElement2Buf_Fixed
# %bb.3:                                # %for.inc
                                        #   in Loop: Header=BB65_1 Depth=1
	movl	-12(%rbp), %eax
	addl	$1, %eax
	movl	%eax, -12(%rbp)
	jmp	.LBB65_1
.LBB65_4:                               # %for.end
	movq	-8(%rbp), %rax
	cmpl	$8, 4(%rax)
	je	.LBB65_8
# %bb.5:                                # %if.then
	movq	-8(%rbp), %rax
	movzbl	8(%rax), %ecx
	shll	$1, %ecx
	movb	%cl, 8(%rax)
	movq	-8(%rbp), %rax
	movzbl	8(%rax), %ecx
	orl	$1, %ecx
	movb	%cl, 8(%rax)
	movq	-8(%rbp), %rax
	movl	4(%rax), %ecx
	addl	$-1, %ecx
	movl	%ecx, 4(%rax)
	movq	-8(%rbp), %rax
	cmpl	$0, 4(%rax)
	je	.LBB65_7
# %bb.6:                                # %if.then12
	movq	-8(%rbp), %rax
	movl	4(%rax), %ecx
	movq	-8(%rbp), %rax
	movzbl	8(%rax), %edx
                                        # kill: def $cl killed $ecx
	shll	%cl, %edx
	movb	%dl, 8(%rax)
.LBB65_7:                               # %if.end
	movq	-8(%rbp), %rax
	movl	$8, 4(%rax)
	movq	-8(%rbp), %rax
	movb	8(%rax), %al
	movq	-8(%rbp), %rcx
	movq	32(%rcx), %rcx
	movq	-8(%rbp), %rdx
	movl	(%rdx), %esi
	movl	%esi, %edi
	addl	$1, %edi
	movl	%edi, (%rdx)
	movslq	%esi, %rdx
	movb	%al, (%rcx,%rdx)
	movq	-8(%rbp), %rax
	movb	$0, 8(%rax)
.LBB65_8:                               # %if.end24
	movq	-8(%rbp), %rax
	movl	(%rax), %eax
	movl	%eax, seiUser_data_unregistered+24
	cmpl	$1665897524, -16(%rbp)  # imm = 0x634B9434
	jne	.LBB65_10
.LBB65_9:
	addq	$64, %rsp
	popq	%rbp
	.cfi_def_cfa %rsp, 8
	retq
.LBB65_10:                              # %func_exit
	.cfi_def_cfa %rbp, 16
	callq	detect_breach
	jmp	.LBB65_9
.Lfunc_end65:
	.size	FinalizeUser_data_unregistered.16, .Lfunc_end65-FinalizeUser_data_unregistered.16
	.cfi_endproc
                                        # -- End function
	.globl	ComposeSparePictureMessage.17 # -- Begin function ComposeSparePictureMessage.17
	.p2align	4, 0x90
	.type	ComposeSparePictureMessage.17,@function
ComposeSparePictureMessage.17:          # @ComposeSparePictureMessage.17
	.cfi_startproc
# %bb.0:                                # %entry
	pushq	%rbp
	.cfi_def_cfa_offset 16
	.cfi_offset %rbp, -16
	movq	%rsp, %rbp
	.cfi_def_cfa_register %rbp
	subq	$80, %rsp
	movl	$1266361688, -20(%rbp)  # imm = 0x4B7B2558
	movl	%edi, -12(%rbp)
	movl	%esi, -16(%rbp)
	movq	%rdx, -32(%rbp)
	movq	seiSparePicturePayload+16, %rax
	movq	%rax, -8(%rbp)
	movl	$0, -80(%rbp)
	movabsq	$ue_linfo, %rax
	movq	%rax, -48(%rbp)
	movl	-12(%rbp), %eax
	movl	%eax, -76(%rbp)
	movq	-8(%rbp), %rsi
	leaq	-80(%rbp), %rdi
	callq	writeSyntaxElement2Buf_UVLC
	movl	-16(%rbp), %eax
	movl	%eax, -76(%rbp)
	movq	-8(%rbp), %rsi
	leaq	-80(%rbp), %rdi
	callq	writeSyntaxElement2Buf_UVLC
	movq	-8(%rbp), %rdi
	movq	-32(%rbp), %rsi
	callq	AppendTmpbits2Buf
	cmpl	$1266361688, -20(%rbp)  # imm = 0x4B7B2558
	jne	.LBB66_2
.LBB66_1:
	addq	$80, %rsp
	popq	%rbp
	.cfi_def_cfa %rsp, 8
	retq
.LBB66_2:                               # %func_exit
	.cfi_def_cfa %rbp, 16
	callq	detect_breach
	jmp	.LBB66_1
.Lfunc_end66:
	.size	ComposeSparePictureMessage.17, .Lfunc_end66-ComposeSparePictureMessage.17
	.cfi_endproc
                                        # -- End function
	.globl	FinalizeSubseqChar.18   # -- Begin function FinalizeSubseqChar.18
	.p2align	4, 0x90
	.type	FinalizeSubseqChar.18,@function
FinalizeSubseqChar.18:                  # @FinalizeSubseqChar.18
	.cfi_startproc
# %bb.0:                                # %entry
	pushq	%rbp
	.cfi_def_cfa_offset 16
	.cfi_offset %rbp, -16
	movq	%rsp, %rbp
	.cfi_def_cfa_register %rbp
	subq	$80, %rsp
	movl	$1112229707, -68(%rbp)  # imm = 0x424B474B
	movq	seiSubseqChar+72, %rax
	movq	%rax, -8(%rbp)
	movl	$0, -64(%rbp)
	movabsq	$ue_linfo, %rax
	movq	%rax, -32(%rbp)
	movl	seiSubseqChar, %eax
	movl	%eax, -60(%rbp)
	movq	-8(%rbp), %rsi
	leaq	-64(%rbp), %rdi
	callq	writeSyntaxElement2Buf_UVLC
	movl	seiSubseqChar+4, %eax
	movl	%eax, -60(%rbp)
	movq	-8(%rbp), %rsi
	leaq	-64(%rbp), %rdi
	callq	writeSyntaxElement2Buf_UVLC
	movl	seiSubseqChar+8, %eax
	movl	%eax, -44(%rbp)
	movl	$1, -52(%rbp)
	movq	-8(%rbp), %rsi
	leaq	-64(%rbp), %rdi
	callq	writeSyntaxElement2Buf_Fixed
	cmpl	$0, seiSubseqChar+8
	je	.LBB67_2
# %bb.1:                                # %if.then
	movl	seiSubseqChar+12, %eax
	movl	%eax, -44(%rbp)
	movl	$32, -52(%rbp)
	movq	-8(%rbp), %rsi
	leaq	-64(%rbp), %rdi
	callq	writeSyntaxElement2Buf_Fixed
.LBB67_2:                               # %if.end
	movl	seiSubseqChar+16, %eax
	movl	%eax, -44(%rbp)
	movl	$1, -52(%rbp)
	movq	-8(%rbp), %rsi
	leaq	-64(%rbp), %rdi
	callq	writeSyntaxElement2Buf_Fixed
	cmpl	$0, seiSubseqChar+16
	je	.LBB67_4
# %bb.3:                                # %if.then11
	movl	seiSubseqChar+20, %eax
	movl	%eax, -44(%rbp)
	movl	$16, -52(%rbp)
	movq	-8(%rbp), %rsi
	leaq	-64(%rbp), %rdi
	callq	writeSyntaxElement2Buf_Fixed
	movl	seiSubseqChar+24, %eax
	movl	%eax, -44(%rbp)
	movl	$16, -52(%rbp)
	movq	-8(%rbp), %rsi
	leaq	-64(%rbp), %rdi
	callq	writeSyntaxElement2Buf_Fixed
.LBB67_4:                               # %if.end18
	movl	seiSubseqChar+28, %eax
	movl	%eax, -60(%rbp)
	movq	-8(%rbp), %rsi
	leaq	-64(%rbp), %rdi
	callq	writeSyntaxElement2Buf_UVLC
	movl	$0, -12(%rbp)
.LBB67_5:                               # %for.cond
                                        # =>This Inner Loop Header: Depth=1
	movl	-12(%rbp), %eax
	cmpl	seiSubseqChar+28, %eax
	jge	.LBB67_8
# %bb.6:                                # %for.body
                                        #   in Loop: Header=BB67_5 Depth=1
	movslq	-12(%rbp), %rax
	movl	seiSubseqChar+32(,%rax,4), %eax
	movl	%eax, -60(%rbp)
	movq	-8(%rbp), %rsi
	leaq	-64(%rbp), %rdi
	callq	writeSyntaxElement2Buf_UVLC
	movslq	-12(%rbp), %rax
	movl	seiSubseqChar+52(,%rax,4), %eax
	movl	%eax, -60(%rbp)
	movq	-8(%rbp), %rsi
	leaq	-64(%rbp), %rdi
	callq	writeSyntaxElement2Buf_UVLC
# %bb.7:                                # %for.inc
                                        #   in Loop: Header=BB67_5 Depth=1
	movl	-12(%rbp), %eax
	addl	$1, %eax
	movl	%eax, -12(%rbp)
	jmp	.LBB67_5
.LBB67_8:                               # %for.end
	movq	-8(%rbp), %rax
	cmpl	$8, 4(%rax)
	je	.LBB67_12
# %bb.9:                                # %if.then28
	movq	-8(%rbp), %rax
	movzbl	8(%rax), %ecx
	shll	$1, %ecx
	movb	%cl, 8(%rax)
	movq	-8(%rbp), %rax
	movzbl	8(%rax), %ecx
	orl	$1, %ecx
	movb	%cl, 8(%rax)
	movq	-8(%rbp), %rax
	movl	4(%rax), %ecx
	addl	$-1, %ecx
	movl	%ecx, 4(%rax)
	movq	-8(%rbp), %rax
	cmpl	$0, 4(%rax)
	je	.LBB67_11
# %bb.10:                               # %if.then37
	movq	-8(%rbp), %rax
	movl	4(%rax), %ecx
	movq	-8(%rbp), %rax
	movzbl	8(%rax), %edx
                                        # kill: def $cl killed $ecx
	shll	%cl, %edx
	movb	%dl, 8(%rax)
.LBB67_11:                              # %if.end43
	movq	-8(%rbp), %rax
	movl	$8, 4(%rax)
	movq	-8(%rbp), %rax
	movb	8(%rax), %al
	movq	-8(%rbp), %rcx
	movq	32(%rcx), %rcx
	movq	-8(%rbp), %rdx
	movl	(%rdx), %esi
	movl	%esi, %edi
	addl	$1, %edi
	movl	%edi, (%rdx)
	movslq	%esi, %rdx
	movb	%al, (%rcx,%rdx)
	movq	-8(%rbp), %rax
	movb	$0, 8(%rax)
.LBB67_12:                              # %if.end50
	movq	-8(%rbp), %rax
	movl	(%rax), %eax
	movl	%eax, seiSubseqChar+80
	cmpl	$1112229707, -68(%rbp)  # imm = 0x424B474B
	jne	.LBB67_14
.LBB67_13:
	addq	$80, %rsp
	popq	%rbp
	.cfi_def_cfa %rsp, 8
	retq
.LBB67_14:                              # %func_exit
	.cfi_def_cfa %rbp, 16
	callq	detect_breach
	jmp	.LBB67_13
.Lfunc_end67:
	.size	FinalizeSubseqChar.18, .Lfunc_end67-FinalizeSubseqChar.18
	.cfi_endproc
                                        # -- End function
	.globl	FinalizePanScanRectInfo.19 # -- Begin function FinalizePanScanRectInfo.19
	.p2align	4, 0x90
	.type	FinalizePanScanRectInfo.19,@function
FinalizePanScanRectInfo.19:             # @FinalizePanScanRectInfo.19
	.cfi_startproc
# %bb.0:                                # %entry
	pushq	%rbp
	.cfi_def_cfa_offset 16
	.cfi_offset %rbp, -16
	movq	%rsp, %rbp
	.cfi_def_cfa_register %rbp
	subq	$64, %rsp
	movl	$1197476228, -12(%rbp)  # imm = 0x47600984
	movq	seiPanScanRectInfo+24, %rax
	movq	%rax, -8(%rbp)
	movl	$0, -64(%rbp)
	movabsq	$ue_linfo, %rax
	movq	%rax, -32(%rbp)
	movl	seiPanScanRectInfo, %eax
	movl	%eax, -60(%rbp)
	movq	-8(%rbp), %rsi
	leaq	-64(%rbp), %rdi
	callq	writeSyntaxElement2Buf_UVLC
	movl	seiPanScanRectInfo+4, %eax
	movl	%eax, -60(%rbp)
	movq	-8(%rbp), %rsi
	leaq	-64(%rbp), %rdi
	callq	writeSyntaxElement2Buf_UVLC
	movl	seiPanScanRectInfo+8, %eax
	movl	%eax, -60(%rbp)
	movq	-8(%rbp), %rsi
	leaq	-64(%rbp), %rdi
	callq	writeSyntaxElement2Buf_UVLC
	movl	seiPanScanRectInfo+12, %eax
	movl	%eax, -60(%rbp)
	movq	-8(%rbp), %rsi
	leaq	-64(%rbp), %rdi
	callq	writeSyntaxElement2Buf_UVLC
	movl	seiPanScanRectInfo+16, %eax
	movl	%eax, -60(%rbp)
	movq	-8(%rbp), %rsi
	leaq	-64(%rbp), %rdi
	callq	writeSyntaxElement2Buf_UVLC
	movq	-8(%rbp), %rax
	cmpl	$8, 4(%rax)
	je	.LBB68_4
# %bb.1:                                # %if.then
	movq	-8(%rbp), %rax
	movzbl	8(%rax), %ecx
	shll	$1, %ecx
	movb	%cl, 8(%rax)
	movq	-8(%rbp), %rax
	movzbl	8(%rax), %ecx
	orl	$1, %ecx
	movb	%cl, 8(%rax)
	movq	-8(%rbp), %rax
	movl	4(%rax), %ecx
	addl	$-1, %ecx
	movl	%ecx, 4(%rax)
	movq	-8(%rbp), %rax
	cmpl	$0, 4(%rax)
	je	.LBB68_3
# %bb.2:                                # %if.then17
	movq	-8(%rbp), %rax
	movl	4(%rax), %ecx
	movq	-8(%rbp), %rax
	movzbl	8(%rax), %edx
                                        # kill: def $cl killed $ecx
	shll	%cl, %edx
	movb	%dl, 8(%rax)
.LBB68_3:                               # %if.end
	movq	-8(%rbp), %rax
	movl	$8, 4(%rax)
	movq	-8(%rbp), %rax
	movb	8(%rax), %al
	movq	-8(%rbp), %rcx
	movq	32(%rcx), %rcx
	movq	-8(%rbp), %rdx
	movl	(%rdx), %esi
	movl	%esi, %edi
	addl	$1, %edi
	movl	%edi, (%rdx)
	movslq	%esi, %rdx
	movb	%al, (%rcx,%rdx)
	movq	-8(%rbp), %rax
	movb	$0, 8(%rax)
.LBB68_4:                               # %if.end26
	movq	-8(%rbp), %rax
	movl	(%rax), %eax
	movl	%eax, seiPanScanRectInfo+32
	cmpl	$1197476228, -12(%rbp)  # imm = 0x47600984
	jne	.LBB68_6
.LBB68_5:
	addq	$64, %rsp
	popq	%rbp
	.cfi_def_cfa %rsp, 8
	retq
.LBB68_6:                               # %func_exit
	.cfi_def_cfa %rbp, 16
	callq	detect_breach
	jmp	.LBB68_5
.Lfunc_end68:
	.size	FinalizePanScanRectInfo.19, .Lfunc_end68-FinalizePanScanRectInfo.19
	.cfi_endproc
                                        # -- End function
	.globl	FinalizePanScanRectInfo.20 # -- Begin function FinalizePanScanRectInfo.20
	.p2align	4, 0x90
	.type	FinalizePanScanRectInfo.20,@function
FinalizePanScanRectInfo.20:             # @FinalizePanScanRectInfo.20
	.cfi_startproc
# %bb.0:                                # %entry
	pushq	%rbp
	.cfi_def_cfa_offset 16
	.cfi_offset %rbp, -16
	movq	%rsp, %rbp
	.cfi_def_cfa_register %rbp
	subq	$64, %rsp
	movl	$297062941, -12(%rbp)   # imm = 0x11B4D21D
	movq	seiPanScanRectInfo+24, %rax
	movq	%rax, -8(%rbp)
	movl	$0, -64(%rbp)
	movabsq	$ue_linfo, %rax
	movq	%rax, -32(%rbp)
	movl	seiPanScanRectInfo, %eax
	movl	%eax, -60(%rbp)
	movq	-8(%rbp), %rsi
	leaq	-64(%rbp), %rdi
	callq	writeSyntaxElement2Buf_UVLC
	movl	seiPanScanRectInfo+4, %eax
	movl	%eax, -60(%rbp)
	movq	-8(%rbp), %rsi
	leaq	-64(%rbp), %rdi
	callq	writeSyntaxElement2Buf_UVLC
	movl	seiPanScanRectInfo+8, %eax
	movl	%eax, -60(%rbp)
	movq	-8(%rbp), %rsi
	leaq	-64(%rbp), %rdi
	callq	writeSyntaxElement2Buf_UVLC
	movl	seiPanScanRectInfo+12, %eax
	movl	%eax, -60(%rbp)
	movq	-8(%rbp), %rsi
	leaq	-64(%rbp), %rdi
	callq	writeSyntaxElement2Buf_UVLC
	movl	seiPanScanRectInfo+16, %eax
	movl	%eax, -60(%rbp)
	movq	-8(%rbp), %rsi
	leaq	-64(%rbp), %rdi
	callq	writeSyntaxElement2Buf_UVLC
	movq	-8(%rbp), %rax
	cmpl	$8, 4(%rax)
	je	.LBB69_4
# %bb.1:                                # %if.then
	movq	-8(%rbp), %rax
	movzbl	8(%rax), %ecx
	shll	$1, %ecx
	movb	%cl, 8(%rax)
	movq	-8(%rbp), %rax
	movzbl	8(%rax), %ecx
	orl	$1, %ecx
	movb	%cl, 8(%rax)
	movq	-8(%rbp), %rax
	movl	4(%rax), %ecx
	addl	$-1, %ecx
	movl	%ecx, 4(%rax)
	movq	-8(%rbp), %rax
	cmpl	$0, 4(%rax)
	je	.LBB69_3
# %bb.2:                                # %if.then17
	movq	-8(%rbp), %rax
	movl	4(%rax), %ecx
	movq	-8(%rbp), %rax
	movzbl	8(%rax), %edx
                                        # kill: def $cl killed $ecx
	shll	%cl, %edx
	movb	%dl, 8(%rax)
.LBB69_3:                               # %if.end
	movq	-8(%rbp), %rax
	movl	$8, 4(%rax)
	movq	-8(%rbp), %rax
	movb	8(%rax), %al
	movq	-8(%rbp), %rcx
	movq	32(%rcx), %rcx
	movq	-8(%rbp), %rdx
	movl	(%rdx), %esi
	movl	%esi, %edi
	addl	$1, %edi
	movl	%edi, (%rdx)
	movslq	%esi, %rdx
	movb	%al, (%rcx,%rdx)
	movq	-8(%rbp), %rax
	movb	$0, 8(%rax)
.LBB69_4:                               # %if.end26
	movq	-8(%rbp), %rax
	movl	(%rax), %eax
	movl	%eax, seiPanScanRectInfo+32
	cmpl	$297062941, -12(%rbp)   # imm = 0x11B4D21D
	jne	.LBB69_6
.LBB69_5:
	addq	$64, %rsp
	popq	%rbp
	.cfi_def_cfa %rsp, 8
	retq
.LBB69_6:                               # %func_exit
	.cfi_def_cfa %rbp, 16
	callq	detect_breach
	jmp	.LBB69_5
.Lfunc_end69:
	.size	FinalizePanScanRectInfo.20, .Lfunc_end69-FinalizePanScanRectInfo.20
	.cfi_endproc
                                        # -- End function
	.globl	finalize_sei_message.21 # -- Begin function finalize_sei_message.21
	.p2align	4, 0x90
	.type	finalize_sei_message.21,@function
finalize_sei_message.21:                # @finalize_sei_message.21
	.cfi_startproc
# %bb.0:                                # %entry
	pushq	%rbp
	.cfi_def_cfa_offset 16
	.cfi_offset %rbp, -16
	movq	%rsp, %rbp
	.cfi_def_cfa_register %rbp
	subq	$16, %rsp
	movl	$1193627320, -8(%rbp)   # imm = 0x47254EB8
	movl	%edi, -4(%rbp)
	movslq	-4(%rbp), %rax
	imulq	$24, %rax, %rax
	movabsq	$sei_message, %rcx
	movq	%rcx, %rdx
	addq	%rax, %rdx
	movl	4(%rdx), %eax
	movl	%eax, -12(%rbp)
	movslq	-4(%rbp), %rax
	imulq	$24, %rax, %rax
	movq	%rcx, %rdx
	addq	%rax, %rdx
	movq	16(%rdx), %rax
	movslq	-12(%rbp), %rdx
	movb	$-128, (%rax,%rdx)
	movslq	-4(%rbp), %rax
	imulq	$24, %rax, %rax
	movq	%rcx, %rdx
	addq	%rax, %rdx
	movl	4(%rdx), %eax
	addl	$1, %eax
	movl	%eax, 4(%rdx)
	movslq	-4(%rbp), %rax
	imulq	$24, %rax, %rax
	addq	%rax, %rcx
	movl	$1, (%rcx)
	cmpl	$1193627320, -8(%rbp)   # imm = 0x47254EB8
	jne	.LBB70_2
.LBB70_1:
	addq	$16, %rsp
	popq	%rbp
	.cfi_def_cfa %rsp, 8
	retq
.LBB70_2:                               # %func_exit
	.cfi_def_cfa %rbp, 16
	callq	detect_breach
	jmp	.LBB70_1
.Lfunc_end70:
	.size	finalize_sei_message.21, .Lfunc_end70-finalize_sei_message.21
	.cfi_endproc
                                        # -- End function
	.globl	UpdateSceneInformation.22 # -- Begin function UpdateSceneInformation.22
	.p2align	4, 0x90
	.type	UpdateSceneInformation.22,@function
UpdateSceneInformation.22:              # @UpdateSceneInformation.22
	.cfi_startproc
# %bb.0:                                # %entry
	pushq	%rbp
	.cfi_def_cfa_offset 16
	.cfi_offset %rbp, -16
	movq	%rsp, %rbp
	.cfi_def_cfa_register %rbp
	subq	$32, %rsp
	movl	$644103130, -16(%rbp)   # imm = 0x26643BDA
	movl	%edi, -8(%rbp)
	movl	%esi, -12(%rbp)
	movl	%edx, -4(%rbp)
	movl	%ecx, -20(%rbp)
	movl	-8(%rbp), %eax
	movl	%eax, seiHasSceneInformation
	movl	-12(%rbp), %eax
	movl	%eax, seiSceneInformation
	movl	-4(%rbp), %eax
	movl	%eax, seiSceneInformation+4
	cmpl	$3, -4(%rbp)
	jle	.LBB71_2
# %bb.1:                                # %if.then
	movl	-20(%rbp), %eax
	movl	%eax, seiSceneInformation+8
.LBB71_2:                               # %if.end
	cmpl	$644103130, -16(%rbp)   # imm = 0x26643BDA
	jne	.LBB71_4
.LBB71_3:
	addq	$32, %rsp
	popq	%rbp
	.cfi_def_cfa %rsp, 8
	retq
.LBB71_4:                               # %func_exit
	.cfi_def_cfa %rbp, 16
	callq	detect_breach
	jmp	.LBB71_3
.Lfunc_end71:
	.size	UpdateSceneInformation.22, .Lfunc_end71-UpdateSceneInformation.22
	.cfi_endproc
                                        # -- End function
	.globl	FinalizeRandomAccess.23 # -- Begin function FinalizeRandomAccess.23
	.p2align	4, 0x90
	.type	FinalizeRandomAccess.23,@function
FinalizeRandomAccess.23:                # @FinalizeRandomAccess.23
	.cfi_startproc
# %bb.0:                                # %entry
	pushq	%rbp
	.cfi_def_cfa_offset 16
	.cfi_offset %rbp, -16
	movq	%rsp, %rbp
	.cfi_def_cfa_register %rbp
	subq	$64, %rsp
	movl	$1955283694, -12(%rbp)  # imm = 0x748B42EE
	movq	seiRandomAccess+8, %rax
	movq	%rax, -8(%rbp)
	movl	$0, -64(%rbp)
	movabsq	$ue_linfo, %rax
	movq	%rax, -32(%rbp)
	movzbl	seiRandomAccess, %eax
	movl	%eax, -60(%rbp)
	movq	-8(%rbp), %rsi
	leaq	-64(%rbp), %rdi
	callq	writeSyntaxElement2Buf_UVLC
	movzbl	seiRandomAccess+1, %eax
	movl	%eax, -44(%rbp)
	movl	$1, -52(%rbp)
	movq	-8(%rbp), %rsi
	leaq	-64(%rbp), %rdi
	callq	writeSyntaxElement2Buf_Fixed
	movzbl	seiRandomAccess+2, %eax
	movl	%eax, -44(%rbp)
	movl	$1, -52(%rbp)
	movq	-8(%rbp), %rsi
	leaq	-64(%rbp), %rdi
	callq	writeSyntaxElement2Buf_Fixed
	movq	-8(%rbp), %rax
	cmpl	$8, 4(%rax)
	je	.LBB72_4
# %bb.1:                                # %if.then
	movq	-8(%rbp), %rax
	movzbl	8(%rax), %ecx
	shll	$1, %ecx
	movb	%cl, 8(%rax)
	movq	-8(%rbp), %rax
	movzbl	8(%rax), %ecx
	orl	$1, %ecx
	movb	%cl, 8(%rax)
	movq	-8(%rbp), %rax
	movl	4(%rax), %ecx
	addl	$-1, %ecx
	movl	%ecx, 4(%rax)
	movq	-8(%rbp), %rax
	cmpl	$0, 4(%rax)
	je	.LBB72_3
# %bb.2:                                # %if.then17
	movq	-8(%rbp), %rax
	movl	4(%rax), %ecx
	movq	-8(%rbp), %rax
	movzbl	8(%rax), %edx
                                        # kill: def $cl killed $ecx
	shll	%cl, %edx
	movb	%dl, 8(%rax)
.LBB72_3:                               # %if.end
	movq	-8(%rbp), %rax
	movl	$8, 4(%rax)
	movq	-8(%rbp), %rax
	movb	8(%rax), %al
	movq	-8(%rbp), %rcx
	movq	32(%rcx), %rcx
	movq	-8(%rbp), %rdx
	movl	(%rdx), %esi
	movl	%esi, %edi
	addl	$1, %edi
	movl	%edi, (%rdx)
	movslq	%esi, %rdx
	movb	%al, (%rcx,%rdx)
	movq	-8(%rbp), %rax
	movb	$0, 8(%rax)
.LBB72_4:                               # %if.end26
	movq	-8(%rbp), %rax
	movl	(%rax), %eax
	movl	%eax, seiRandomAccess+16
	cmpl	$1955283694, -12(%rbp)  # imm = 0x748B42EE
	jne	.LBB72_6
.LBB72_5:
	addq	$64, %rsp
	popq	%rbp
	.cfi_def_cfa %rsp, 8
	retq
.LBB72_6:                               # %func_exit
	.cfi_def_cfa %rbp, 16
	callq	detect_breach
	jmp	.LBB72_5
.Lfunc_end72:
	.size	FinalizeRandomAccess.23, .Lfunc_end72-FinalizeRandomAccess.23
	.cfi_endproc
                                        # -- End function
	.globl	AppendTmpbits2Buf.24    # -- Begin function AppendTmpbits2Buf.24
	.p2align	4, 0x90
	.type	AppendTmpbits2Buf.24,@function
AppendTmpbits2Buf.24:                   # @AppendTmpbits2Buf.24
	.cfi_startproc
# %bb.0:                                # %entry
	pushq	%rbp
	.cfi_def_cfa_offset 16
	.cfi_offset %rbp, -16
	movq	%rsp, %rbp
	.cfi_def_cfa_register %rbp
	subq	$48, %rsp
	movl	$1553480786, -44(%rbp)  # imm = 0x5C983C52
	movq	%rdi, -16(%rbp)
	movq	%rsi, -40(%rbp)
	movl	$0, -24(%rbp)
.LBB73_1:                               # %for.cond
                                        # =>This Loop Header: Depth=1
                                        #     Child Loop BB73_3 Depth 2
	movl	-24(%rbp), %eax
	movq	-40(%rbp), %rcx
	cmpl	(%rcx), %eax
	jge	.LBB73_12
# %bb.2:                                # %for.body
                                        #   in Loop: Header=BB73_1 Depth=1
	movb	$-128, -1(%rbp)
	movl	$0, -20(%rbp)
.LBB73_3:                               # %for.cond1
                                        #   Parent Loop BB73_1 Depth=1
                                        # =>  This Inner Loop Header: Depth=2
	cmpl	$8, -20(%rbp)
	jge	.LBB73_10
# %bb.4:                                # %for.body3
                                        #   in Loop: Header=BB73_3 Depth=2
	movq	-16(%rbp), %rax
	movzbl	8(%rax), %ecx
	shll	$1, %ecx
	movb	%cl, 8(%rax)
	movq	-40(%rbp), %rax
	movq	32(%rax), %rax
	movslq	-24(%rbp), %rcx
	movzbl	(%rax,%rcx), %eax
	movzbl	-1(%rbp), %ecx
	andl	%ecx, %eax
	cmpl	$0, %eax
	je	.LBB73_6
# %bb.5:                                # %if.then
                                        #   in Loop: Header=BB73_3 Depth=2
	movq	-16(%rbp), %rax
	movzbl	8(%rax), %ecx
	orl	$1, %ecx
	movb	%cl, 8(%rax)
.LBB73_6:                               # %if.end
                                        #   in Loop: Header=BB73_3 Depth=2
	movq	-16(%rbp), %rax
	movl	4(%rax), %ecx
	addl	$-1, %ecx
	movl	%ecx, 4(%rax)
	movzbl	-1(%rbp), %eax
	sarl	$1, %eax
	movb	%al, -1(%rbp)
	movq	-16(%rbp), %rax
	cmpl	$0, 4(%rax)
	jne	.LBB73_8
# %bb.7:                                # %if.then15
                                        #   in Loop: Header=BB73_3 Depth=2
	movq	-16(%rbp), %rax
	movl	$8, 4(%rax)
	movq	-16(%rbp), %rax
	movb	8(%rax), %al
	movq	-16(%rbp), %rcx
	movq	32(%rcx), %rcx
	movq	-16(%rbp), %rdx
	movl	(%rdx), %esi
	movl	%esi, %edi
	addl	$1, %edi
	movl	%edi, (%rdx)
	movslq	%esi, %rdx
	movb	%al, (%rcx,%rdx)
	movq	-16(%rbp), %rax
	movb	$0, 8(%rax)
.LBB73_8:                               # %if.end23
                                        #   in Loop: Header=BB73_3 Depth=2
	jmp	.LBB73_9
.LBB73_9:                               # %for.inc
                                        #   in Loop: Header=BB73_3 Depth=2
	movl	-20(%rbp), %eax
	addl	$1, %eax
	movl	%eax, -20(%rbp)
	jmp	.LBB73_3
.LBB73_10:                              # %for.end
                                        #   in Loop: Header=BB73_1 Depth=1
	jmp	.LBB73_11
.LBB73_11:                              # %for.inc25
                                        #   in Loop: Header=BB73_1 Depth=1
	movl	-24(%rbp), %eax
	addl	$1, %eax
	movl	%eax, -24(%rbp)
	jmp	.LBB73_1
.LBB73_12:                              # %for.end27
	movq	-40(%rbp), %rax
	movl	$8, %ecx
	subl	4(%rax), %ecx
	movl	%ecx, -28(%rbp)
	cmpl	$0, -28(%rbp)
	jle	.LBB73_22
# %bb.13:                               # %if.then31
	movl	-28(%rbp), %ecx
	subl	$1, %ecx
                                        # kill: def $cl killed $ecx
	movl	$1, %eax
	shll	%cl, %eax
	movb	%al, -1(%rbp)
	movl	$0, -20(%rbp)
.LBB73_14:                              # %for.cond35
                                        # =>This Inner Loop Header: Depth=1
	movl	-20(%rbp), %eax
	cmpl	-28(%rbp), %eax
	jge	.LBB73_21
# %bb.15:                               # %for.body38
                                        #   in Loop: Header=BB73_14 Depth=1
	movq	-16(%rbp), %rax
	movzbl	8(%rax), %ecx
	shll	$1, %ecx
	movb	%cl, 8(%rax)
	movq	-40(%rbp), %rax
	movzbl	8(%rax), %eax
	movzbl	-1(%rbp), %ecx
	andl	%ecx, %eax
	cmpl	$0, %eax
	je	.LBB73_17
# %bb.16:                               # %if.then48
                                        #   in Loop: Header=BB73_14 Depth=1
	movq	-16(%rbp), %rax
	movzbl	8(%rax), %ecx
	orl	$1, %ecx
	movb	%cl, 8(%rax)
.LBB73_17:                              # %if.end53
                                        #   in Loop: Header=BB73_14 Depth=1
	movq	-16(%rbp), %rax
	movl	4(%rax), %ecx
	addl	$-1, %ecx
	movl	%ecx, 4(%rax)
	movzbl	-1(%rbp), %eax
	sarl	$1, %eax
	movb	%al, -1(%rbp)
	movq	-16(%rbp), %rax
	cmpl	$0, 4(%rax)
	jne	.LBB73_19
# %bb.18:                               # %if.then62
                                        #   in Loop: Header=BB73_14 Depth=1
	movq	-16(%rbp), %rax
	movl	$8, 4(%rax)
	movq	-16(%rbp), %rax
	movb	8(%rax), %al
	movq	-16(%rbp), %rcx
	movq	32(%rcx), %rcx
	movq	-16(%rbp), %rdx
	movl	(%rdx), %esi
	movl	%esi, %edi
	addl	$1, %edi
	movl	%edi, (%rdx)
	movslq	%esi, %rdx
	movb	%al, (%rcx,%rdx)
	movq	-16(%rbp), %rax
	movb	$0, 8(%rax)
.LBB73_19:                              # %if.end71
                                        #   in Loop: Header=BB73_14 Depth=1
	jmp	.LBB73_20
.LBB73_20:                              # %for.inc72
                                        #   in Loop: Header=BB73_14 Depth=1
	movl	-20(%rbp), %eax
	addl	$1, %eax
	movl	%eax, -20(%rbp)
	jmp	.LBB73_14
.LBB73_21:                              # %for.end74
	jmp	.LBB73_22
.LBB73_22:                              # %if.end75
	cmpl	$1553480786, -44(%rbp)  # imm = 0x5C983C52
	jne	.LBB73_24
.LBB73_23:
	addq	$48, %rsp
	popq	%rbp
	.cfi_def_cfa %rsp, 8
	retq
.LBB73_24:                              # %func_exit
	.cfi_def_cfa %rbp, 16
	callq	detect_breach
	jmp	.LBB73_23
.Lfunc_end73:
	.size	AppendTmpbits2Buf.24, .Lfunc_end73-AppendTmpbits2Buf.24
	.cfi_endproc
                                        # -- End function
	.globl	UpdateSceneInformation.25 # -- Begin function UpdateSceneInformation.25
	.p2align	4, 0x90
	.type	UpdateSceneInformation.25,@function
UpdateSceneInformation.25:              # @UpdateSceneInformation.25
	.cfi_startproc
# %bb.0:                                # %entry
	pushq	%rbp
	.cfi_def_cfa_offset 16
	.cfi_offset %rbp, -16
	movq	%rsp, %rbp
	.cfi_def_cfa_register %rbp
	subq	$32, %rsp
	movl	$1126070519, -20(%rbp)  # imm = 0x431E78F7
	movl	%edi, -12(%rbp)
	movl	%esi, -16(%rbp)
	movl	%edx, -4(%rbp)
	movl	%ecx, -8(%rbp)
	movl	-12(%rbp), %eax
	movl	%eax, seiHasSceneInformation
	movl	-16(%rbp), %eax
	movl	%eax, seiSceneInformation
	movl	-4(%rbp), %eax
	movl	%eax, seiSceneInformation+4
	cmpl	$3, -4(%rbp)
	jle	.LBB74_2
# %bb.1:                                # %if.then
	movl	-8(%rbp), %eax
	movl	%eax, seiSceneInformation+8
.LBB74_2:                               # %if.end
	cmpl	$1126070519, -20(%rbp)  # imm = 0x431E78F7
	jne	.LBB74_4
.LBB74_3:
	addq	$32, %rsp
	popq	%rbp
	.cfi_def_cfa %rsp, 8
	retq
.LBB74_4:                               # %func_exit
	.cfi_def_cfa %rbp, 16
	callq	detect_breach
	jmp	.LBB74_3
.Lfunc_end74:
	.size	UpdateSceneInformation.25, .Lfunc_end74-UpdateSceneInformation.25
	.cfi_endproc
                                        # -- End function
	.globl	write_sei_message.26    # -- Begin function write_sei_message.26
	.p2align	4, 0x90
	.type	write_sei_message.26,@function
write_sei_message.26:                   # @write_sei_message.26
	.cfi_startproc
# %bb.0:                                # %entry
	pushq	%rbp
	.cfi_def_cfa_offset 16
	.cfi_offset %rbp, -16
	movq	%rsp, %rbp
	.cfi_def_cfa_register %rbp
	pushq	%rbx
	subq	$40, %rsp
	.cfi_offset %rbx, -24
	movl	$1181344763, -36(%rbp)  # imm = 0x4669E3FB
	movl	%edi, -16(%rbp)
	movq	%rsi, -48(%rbp)
	movl	%edx, -28(%rbp)
	movl	%ecx, -32(%rbp)
	movl	-32(%rbp), %eax
	movl	%eax, -20(%rbp)
	movl	-28(%rbp), %eax
	movl	%eax, -24(%rbp)
	movslq	-16(%rbp), %rax
	imulq	$24, %rax, %rax
	movabsq	$sei_message, %rcx
	addq	%rax, %rcx
	movl	4(%rcx), %eax
	movl	%eax, -12(%rbp)
.LBB75_1:                               # %while.cond
                                        # =>This Inner Loop Header: Depth=1
	cmpl	$255, -20(%rbp)
	jle	.LBB75_3
# %bb.2:                                # %while.body
                                        #   in Loop: Header=BB75_1 Depth=1
	movslq	-16(%rbp), %rax
	imulq	$24, %rax, %rax
	movabsq	$sei_message, %rcx
	addq	%rax, %rcx
	movq	16(%rcx), %rax
	movl	-12(%rbp), %ecx
	movl	%ecx, %edx
	addl	$1, %edx
	movl	%edx, -12(%rbp)
	movslq	%ecx, %rcx
	movb	$-1, (%rax,%rcx)
	movl	-20(%rbp), %eax
	subl	$255, %eax
	movl	%eax, -20(%rbp)
	jmp	.LBB75_1
.LBB75_3:                               # %while.end
	movl	-20(%rbp), %eax
	movslq	-16(%rbp), %rcx
	imulq	$24, %rcx, %rcx
	movabsq	$sei_message, %rdx
	addq	%rcx, %rdx
	movq	16(%rdx), %rcx
	movl	-12(%rbp), %edx
	movl	%edx, %esi
	addl	$1, %esi
	movl	%esi, -12(%rbp)
	movslq	%edx, %rdx
	movb	%al, (%rcx,%rdx)
.LBB75_4:                               # %while.cond11
                                        # =>This Inner Loop Header: Depth=1
	cmpl	$255, -24(%rbp)
	jle	.LBB75_6
# %bb.5:                                # %while.body14
                                        #   in Loop: Header=BB75_4 Depth=1
	movslq	-16(%rbp), %rax
	imulq	$24, %rax, %rax
	movabsq	$sei_message, %rcx
	addq	%rax, %rcx
	movq	16(%rcx), %rax
	movl	-12(%rbp), %ecx
	movl	%ecx, %edx
	addl	$1, %edx
	movl	%edx, -12(%rbp)
	movslq	%ecx, %rcx
	movb	$-1, (%rax,%rcx)
	movl	-24(%rbp), %eax
	subl	$255, %eax
	movl	%eax, -24(%rbp)
	jmp	.LBB75_4
.LBB75_6:                               # %while.end22
	movl	-24(%rbp), %eax
	movslq	-16(%rbp), %rcx
	imulq	$24, %rcx, %rcx
	movabsq	$sei_message, %rbx
	movq	%rbx, %rdx
	addq	%rcx, %rdx
	movq	16(%rdx), %rcx
	movl	-12(%rbp), %edx
	movl	%edx, %esi
	addl	$1, %esi
	movl	%esi, -12(%rbp)
	movslq	%edx, %rdx
	movb	%al, (%rcx,%rdx)
	movslq	-16(%rbp), %rax
	imulq	$24, %rax, %rax
	movq	%rbx, %rcx
	addq	%rax, %rcx
	movq	16(%rcx), %rdi
	movslq	-12(%rbp), %rax
	addq	%rax, %rdi
	movq	-48(%rbp), %rsi
	movslq	-28(%rbp), %rdx
	callq	memcpy
	movl	-28(%rbp), %eax
	addl	-12(%rbp), %eax
	movl	%eax, -12(%rbp)
	movl	-12(%rbp), %eax
	movslq	-16(%rbp), %rcx
	imulq	$24, %rcx, %rcx
	addq	%rcx, %rbx
	movl	%eax, 4(%rbx)
	cmpl	$1181344763, -36(%rbp)  # imm = 0x4669E3FB
	jne	.LBB75_8
.LBB75_7:
	addq	$40, %rsp
	popq	%rbx
	popq	%rbp
	.cfi_def_cfa %rsp, 8
	retq
.LBB75_8:                               # %func_exit
	.cfi_def_cfa %rbp, 16
	callq	detect_breach
	jmp	.LBB75_7
.Lfunc_end75:
	.size	write_sei_message.26, .Lfunc_end75-write_sei_message.26
	.cfi_endproc
                                        # -- End function
	.globl	UpdateSceneInformation.27 # -- Begin function UpdateSceneInformation.27
	.p2align	4, 0x90
	.type	UpdateSceneInformation.27,@function
UpdateSceneInformation.27:              # @UpdateSceneInformation.27
	.cfi_startproc
# %bb.0:                                # %entry
	pushq	%rbp
	.cfi_def_cfa_offset 16
	.cfi_offset %rbp, -16
	movq	%rsp, %rbp
	.cfi_def_cfa_register %rbp
	subq	$32, %rsp
	movl	$251295148, -20(%rbp)   # imm = 0xEFA75AC
	movl	%edi, -16(%rbp)
	movl	%esi, -8(%rbp)
	movl	%edx, -4(%rbp)
	movl	%ecx, -12(%rbp)
	movl	-16(%rbp), %eax
	movl	%eax, seiHasSceneInformation
	movl	-8(%rbp), %eax
	movl	%eax, seiSceneInformation
	movl	-4(%rbp), %eax
	movl	%eax, seiSceneInformation+4
	cmpl	$3, -4(%rbp)
	jle	.LBB76_2
# %bb.1:                                # %if.then
	movl	-12(%rbp), %eax
	movl	%eax, seiSceneInformation+8
.LBB76_2:                               # %if.end
	cmpl	$251295148, -20(%rbp)   # imm = 0xEFA75AC
	jne	.LBB76_4
.LBB76_3:
	addq	$32, %rsp
	popq	%rbp
	.cfi_def_cfa %rsp, 8
	retq
.LBB76_4:                               # %func_exit
	.cfi_def_cfa %rbp, 16
	callq	detect_breach
	jmp	.LBB76_3
.Lfunc_end76:
	.size	UpdateSceneInformation.27, .Lfunc_end76-UpdateSceneInformation.27
	.cfi_endproc
                                        # -- End function
	.globl	FinalizeUser_data_registered_itu_t_t35.28 # -- Begin function FinalizeUser_data_registered_itu_t_t35.28
	.p2align	4, 0x90
	.type	FinalizeUser_data_registered_itu_t_t35.28,@function
FinalizeUser_data_registered_itu_t_t35.28: # @FinalizeUser_data_registered_itu_t_t35.28
	.cfi_startproc
# %bb.0:                                # %entry
	pushq	%rbp
	.cfi_def_cfa_offset 16
	.cfi_offset %rbp, -16
	movq	%rsp, %rbp
	.cfi_def_cfa_register %rbp
	subq	$64, %rsp
	movl	$479504058, -16(%rbp)   # imm = 0x1C94A6BA
	movq	seiUser_data_registered_itu_t_t35+24, %rax
	movq	%rax, -8(%rbp)
	movl	$0, -64(%rbp)
	movabsq	$ue_linfo, %rax
	movq	%rax, -32(%rbp)
	movl	seiUser_data_registered_itu_t_t35+12, %eax
	movl	%eax, -44(%rbp)
	movl	$8, -52(%rbp)
	movq	-8(%rbp), %rsi
	leaq	-64(%rbp), %rdi
	callq	writeSyntaxElement2Buf_Fixed
	cmpl	$255, seiUser_data_registered_itu_t_t35+12
	jne	.LBB77_2
# %bb.1:                                # %if.then
	movl	seiUser_data_registered_itu_t_t35+16, %eax
	movl	%eax, -44(%rbp)
	movl	$8, -52(%rbp)
	movq	-8(%rbp), %rsi
	leaq	-64(%rbp), %rdi
	callq	writeSyntaxElement2Buf_Fixed
.LBB77_2:                               # %if.end
	movl	$0, -12(%rbp)
.LBB77_3:                               # %for.cond
                                        # =>This Inner Loop Header: Depth=1
	movl	-12(%rbp), %eax
	cmpl	seiUser_data_registered_itu_t_t35+8, %eax
	jge	.LBB77_6
# %bb.4:                                # %for.body
                                        #   in Loop: Header=BB77_3 Depth=1
	movq	seiUser_data_registered_itu_t_t35, %rax
	movslq	-12(%rbp), %rcx
	movsbl	(%rax,%rcx), %eax
	movl	%eax, -44(%rbp)
	movl	$8, -52(%rbp)
	movq	-8(%rbp), %rsi
	leaq	-64(%rbp), %rdi
	callq	writeSyntaxElement2Buf_Fixed
# %bb.5:                                # %for.inc
                                        #   in Loop: Header=BB77_3 Depth=1
	movl	-12(%rbp), %eax
	addl	$1, %eax
	movl	%eax, -12(%rbp)
	jmp	.LBB77_3
.LBB77_6:                               # %for.end
	movq	-8(%rbp), %rax
	cmpl	$8, 4(%rax)
	je	.LBB77_10
# %bb.7:                                # %if.then10
	movq	-8(%rbp), %rax
	movzbl	8(%rax), %ecx
	shll	$1, %ecx
	movb	%cl, 8(%rax)
	movq	-8(%rbp), %rax
	movzbl	8(%rax), %ecx
	orl	$1, %ecx
	movb	%cl, 8(%rax)
	movq	-8(%rbp), %rax
	movl	4(%rax), %ecx
	addl	$-1, %ecx
	movl	%ecx, 4(%rax)
	movq	-8(%rbp), %rax
	cmpl	$0, 4(%rax)
	je	.LBB77_9
# %bb.8:                                # %if.then20
	movq	-8(%rbp), %rax
	movl	4(%rax), %ecx
	movq	-8(%rbp), %rax
	movzbl	8(%rax), %edx
                                        # kill: def $cl killed $ecx
	shll	%cl, %edx
	movb	%dl, 8(%rax)
.LBB77_9:                               # %if.end26
	movq	-8(%rbp), %rax
	movl	$8, 4(%rax)
	movq	-8(%rbp), %rax
	movb	8(%rax), %al
	movq	-8(%rbp), %rcx
	movq	32(%rcx), %rcx
	movq	-8(%rbp), %rdx
	movl	(%rdx), %esi
	movl	%esi, %edi
	addl	$1, %edi
	movl	%edi, (%rdx)
	movslq	%esi, %rdx
	movb	%al, (%rcx,%rdx)
	movq	-8(%rbp), %rax
	movb	$0, 8(%rax)
.LBB77_10:                              # %if.end33
	movq	-8(%rbp), %rax
	movl	(%rax), %eax
	movl	%eax, seiUser_data_registered_itu_t_t35+32
	cmpl	$479504058, -16(%rbp)   # imm = 0x1C94A6BA
	jne	.LBB77_12
.LBB77_11:
	addq	$64, %rsp
	popq	%rbp
	.cfi_def_cfa %rsp, 8
	retq
.LBB77_12:                              # %func_exit
	.cfi_def_cfa %rbp, 16
	callq	detect_breach
	jmp	.LBB77_11
.Lfunc_end77:
	.size	FinalizeUser_data_registered_itu_t_t35.28, .Lfunc_end77-FinalizeUser_data_registered_itu_t_t35.28
	.cfi_endproc
                                        # -- End function
	.globl	FinalizeSpareMBMap.29   # -- Begin function FinalizeSpareMBMap.29
	.p2align	4, 0x90
	.type	FinalizeSpareMBMap.29,@function
FinalizeSpareMBMap.29:                  # @FinalizeSpareMBMap.29
	.cfi_startproc
# %bb.0:                                # %entry
	pushq	%rbp
	.cfi_def_cfa_offset 16
	.cfi_offset %rbp, -16
	movq	%rsp, %rbp
	.cfi_def_cfa_register %rbp
	subq	$80, %rsp
	movl	$1478973228, -32(%rbp)  # imm = 0x5827572C
	movq	img, %rax
	movl	(%rax), %eax
	cltd
	movl	$256, %ecx              # imm = 0x100
	idivl	%ecx
	movl	%edx, -28(%rbp)
	movl	$0, -80(%rbp)
	movabsq	$ue_linfo, %rax
	movq	%rax, -48(%rbp)
	movq	seiSparePicturePayload+16, %rax
	movq	%rax, -24(%rbp)
	movl	$48, %edi
	callq	malloc
	movq	%rax, -8(%rbp)
	cmpq	$0, -8(%rbp)
	jne	.LBB78_2
# %bb.1:                                # %if.then
	movabsq	$.L.str.3, %rdi
	callq	no_mem_exit
.LBB78_2:                               # %if.end
	movl	$65496, %edi            # imm = 0xFFD8
	callq	malloc
	movq	-8(%rbp), %rcx
	movq	%rax, 32(%rcx)
	movq	-8(%rbp), %rax
	cmpq	$0, 32(%rax)
	jne	.LBB78_4
# %bb.3:                                # %if.then4
	movabsq	$.L.str.4, %rdi
	callq	no_mem_exit
.LBB78_4:                               # %if.end5
	movq	-8(%rbp), %rax
	movl	$8, 4(%rax)
	movq	-8(%rbp), %rax
	movl	$0, (%rax)
	movq	-8(%rbp), %rax
	movb	$0, 8(%rax)
	movq	-8(%rbp), %rax
	movq	32(%rax), %rdi
	xorl	%esi, %esi
	movl	$65496, %edx            # imm = 0xFFD8
	callq	memset
	movl	-28(%rbp), %eax
	subl	seiSparePicturePayload, %eax
	movl	%eax, -12(%rbp)
	cmpl	$0, -12(%rbp)
	jge	.LBB78_6
# %bb.5:                                # %if.then8
	movl	-12(%rbp), %eax
	addl	$256, %eax              # imm = 0x100
	movl	%eax, -12(%rbp)
.LBB78_6:                               # %if.end9
	movl	-12(%rbp), %eax
	movl	%eax, -76(%rbp)
	movq	-8(%rbp), %rsi
	leaq	-80(%rbp), %rdi
	callq	writeSyntaxElement2Buf_UVLC
	movl	seiSparePicturePayload+4, %eax
	subl	$1, %eax
	movl	%eax, -76(%rbp)
	movq	-8(%rbp), %rsi
	leaq	-80(%rbp), %rdi
	callq	writeSyntaxElement2Buf_UVLC
	movq	-8(%rbp), %rdi
	movq	-24(%rbp), %rsi
	callq	AppendTmpbits2Buf
	movq	-8(%rbp), %rax
	cmpl	$8, 4(%rax)
	je	.LBB78_10
# %bb.7:                                # %if.then16
	movq	-8(%rbp), %rax
	movzbl	8(%rax), %ecx
	shll	$1, %ecx
	movb	%cl, 8(%rax)
	movq	-8(%rbp), %rax
	movzbl	8(%rax), %ecx
	orl	$1, %ecx
	movb	%cl, 8(%rax)
	movq	-8(%rbp), %rax
	movl	4(%rax), %ecx
	addl	$-1, %ecx
	movl	%ecx, 4(%rax)
	movq	-8(%rbp), %rax
	cmpl	$0, 4(%rax)
	je	.LBB78_9
# %bb.8:                                # %if.then26
	movq	-8(%rbp), %rax
	movl	4(%rax), %ecx
	movq	-8(%rbp), %rax
	movzbl	8(%rax), %edx
                                        # kill: def $cl killed $ecx
	shll	%cl, %edx
	movb	%dl, 8(%rax)
.LBB78_9:                               # %if.end32
	movq	-8(%rbp), %rax
	movl	$8, 4(%rax)
	movq	-8(%rbp), %rax
	movb	8(%rax), %al
	movq	-8(%rbp), %rcx
	movq	32(%rcx), %rcx
	movq	-8(%rbp), %rdx
	movl	(%rdx), %esi
	movl	%esi, %edi
	addl	$1, %edi
	movl	%edi, (%rdx)
	movslq	%esi, %rdx
	movb	%al, (%rcx,%rdx)
	movq	-8(%rbp), %rax
	movb	$0, 8(%rax)
.LBB78_10:                              # %if.end38
	movq	-8(%rbp), %rax
	movl	(%rax), %eax
	movl	%eax, seiSparePicturePayload+8
	movq	-8(%rbp), %rax
	movq	%rax, seiSparePicturePayload+16
	movq	-24(%rbp), %rax
	movq	32(%rax), %rdi
	callq	free
	movq	-24(%rbp), %rdi
	callq	free
	cmpl	$1478973228, -32(%rbp)  # imm = 0x5827572C
	jne	.LBB78_12
.LBB78_11:
	addq	$80, %rsp
	popq	%rbp
	.cfi_def_cfa %rsp, 8
	retq
.LBB78_12:                              # %func_exit
	.cfi_def_cfa %rbp, 16
	callq	detect_breach
	jmp	.LBB78_11
.Lfunc_end78:
	.size	FinalizeSpareMBMap.29, .Lfunc_end78-FinalizeSpareMBMap.29
	.cfi_endproc
                                        # -- End function
	.globl	FinalizeUser_data_unregistered.30 # -- Begin function FinalizeUser_data_unregistered.30
	.p2align	4, 0x90
	.type	FinalizeUser_data_unregistered.30,@function
FinalizeUser_data_unregistered.30:      # @FinalizeUser_data_unregistered.30
	.cfi_startproc
# %bb.0:                                # %entry
	pushq	%rbp
	.cfi_def_cfa_offset 16
	.cfi_offset %rbp, -16
	movq	%rsp, %rbp
	.cfi_def_cfa_register %rbp
	subq	$64, %rsp
	movl	$374715212, -16(%rbp)   # imm = 0x1655B34C
	movq	seiUser_data_unregistered+16, %rax
	movq	%rax, -8(%rbp)
	movl	$0, -64(%rbp)
	movabsq	$ue_linfo, %rax
	movq	%rax, -32(%rbp)
	movl	$0, -12(%rbp)
.LBB79_1:                               # %for.cond
                                        # =>This Inner Loop Header: Depth=1
	movl	-12(%rbp), %eax
	cmpl	seiUser_data_unregistered+8, %eax
	jge	.LBB79_4
# %bb.2:                                # %for.body
                                        #   in Loop: Header=BB79_1 Depth=1
	movq	seiUser_data_unregistered, %rax
	movslq	-12(%rbp), %rcx
	movsbl	(%rax,%rcx), %eax
	movl	%eax, -44(%rbp)
	movl	$8, -52(%rbp)
	movq	-8(%rbp), %rsi
	leaq	-64(%rbp), %rdi
	callq	writeSyntaxElement2Buf_Fixed
# %bb.3:                                # %for.inc
                                        #   in Loop: Header=BB79_1 Depth=1
	movl	-12(%rbp), %eax
	addl	$1, %eax
	movl	%eax, -12(%rbp)
	jmp	.LBB79_1
.LBB79_4:                               # %for.end
	movq	-8(%rbp), %rax
	cmpl	$8, 4(%rax)
	je	.LBB79_8
# %bb.5:                                # %if.then
	movq	-8(%rbp), %rax
	movzbl	8(%rax), %ecx
	shll	$1, %ecx
	movb	%cl, 8(%rax)
	movq	-8(%rbp), %rax
	movzbl	8(%rax), %ecx
	orl	$1, %ecx
	movb	%cl, 8(%rax)
	movq	-8(%rbp), %rax
	movl	4(%rax), %ecx
	addl	$-1, %ecx
	movl	%ecx, 4(%rax)
	movq	-8(%rbp), %rax
	cmpl	$0, 4(%rax)
	je	.LBB79_7
# %bb.6:                                # %if.then12
	movq	-8(%rbp), %rax
	movl	4(%rax), %ecx
	movq	-8(%rbp), %rax
	movzbl	8(%rax), %edx
                                        # kill: def $cl killed $ecx
	shll	%cl, %edx
	movb	%dl, 8(%rax)
.LBB79_7:                               # %if.end
	movq	-8(%rbp), %rax
	movl	$8, 4(%rax)
	movq	-8(%rbp), %rax
	movb	8(%rax), %al
	movq	-8(%rbp), %rcx
	movq	32(%rcx), %rcx
	movq	-8(%rbp), %rdx
	movl	(%rdx), %esi
	movl	%esi, %edi
	addl	$1, %edi
	movl	%edi, (%rdx)
	movslq	%esi, %rdx
	movb	%al, (%rcx,%rdx)
	movq	-8(%rbp), %rax
	movb	$0, 8(%rax)
.LBB79_8:                               # %if.end24
	movq	-8(%rbp), %rax
	movl	(%rax), %eax
	movl	%eax, seiUser_data_unregistered+24
	cmpl	$374715212, -16(%rbp)   # imm = 0x1655B34C
	jne	.LBB79_10
.LBB79_9:
	addq	$64, %rsp
	popq	%rbp
	.cfi_def_cfa %rsp, 8
	retq
.LBB79_10:                              # %func_exit
	.cfi_def_cfa %rbp, 16
	callq	detect_breach
	jmp	.LBB79_9
.Lfunc_end79:
	.size	FinalizeUser_data_unregistered.30, .Lfunc_end79-FinalizeUser_data_unregistered.30
	.cfi_endproc
                                        # -- End function
	.globl	FinalizeRandomAccess.31 # -- Begin function FinalizeRandomAccess.31
	.p2align	4, 0x90
	.type	FinalizeRandomAccess.31,@function
FinalizeRandomAccess.31:                # @FinalizeRandomAccess.31
	.cfi_startproc
# %bb.0:                                # %entry
	pushq	%rbp
	.cfi_def_cfa_offset 16
	.cfi_offset %rbp, -16
	movq	%rsp, %rbp
	.cfi_def_cfa_register %rbp
	subq	$64, %rsp
	movl	$31483673, -12(%rbp)    # imm = 0x1E06719
	movq	seiRandomAccess+8, %rax
	movq	%rax, -8(%rbp)
	movl	$0, -64(%rbp)
	movabsq	$ue_linfo, %rax
	movq	%rax, -32(%rbp)
	movzbl	seiRandomAccess, %eax
	movl	%eax, -60(%rbp)
	movq	-8(%rbp), %rsi
	leaq	-64(%rbp), %rdi
	callq	writeSyntaxElement2Buf_UVLC
	movzbl	seiRandomAccess+1, %eax
	movl	%eax, -44(%rbp)
	movl	$1, -52(%rbp)
	movq	-8(%rbp), %rsi
	leaq	-64(%rbp), %rdi
	callq	writeSyntaxElement2Buf_Fixed
	movzbl	seiRandomAccess+2, %eax
	movl	%eax, -44(%rbp)
	movl	$1, -52(%rbp)
	movq	-8(%rbp), %rsi
	leaq	-64(%rbp), %rdi
	callq	writeSyntaxElement2Buf_Fixed
	movq	-8(%rbp), %rax
	cmpl	$8, 4(%rax)
	je	.LBB80_4
# %bb.1:                                # %if.then
	movq	-8(%rbp), %rax
	movzbl	8(%rax), %ecx
	shll	$1, %ecx
	movb	%cl, 8(%rax)
	movq	-8(%rbp), %rax
	movzbl	8(%rax), %ecx
	orl	$1, %ecx
	movb	%cl, 8(%rax)
	movq	-8(%rbp), %rax
	movl	4(%rax), %ecx
	addl	$-1, %ecx
	movl	%ecx, 4(%rax)
	movq	-8(%rbp), %rax
	cmpl	$0, 4(%rax)
	je	.LBB80_3
# %bb.2:                                # %if.then17
	movq	-8(%rbp), %rax
	movl	4(%rax), %ecx
	movq	-8(%rbp), %rax
	movzbl	8(%rax), %edx
                                        # kill: def $cl killed $ecx
	shll	%cl, %edx
	movb	%dl, 8(%rax)
.LBB80_3:                               # %if.end
	movq	-8(%rbp), %rax
	movl	$8, 4(%rax)
	movq	-8(%rbp), %rax
	movb	8(%rax), %al
	movq	-8(%rbp), %rcx
	movq	32(%rcx), %rcx
	movq	-8(%rbp), %rdx
	movl	(%rdx), %esi
	movl	%esi, %edi
	addl	$1, %edi
	movl	%edi, (%rdx)
	movslq	%esi, %rdx
	movb	%al, (%rcx,%rdx)
	movq	-8(%rbp), %rax
	movb	$0, 8(%rax)
.LBB80_4:                               # %if.end26
	movq	-8(%rbp), %rax
	movl	(%rax), %eax
	movl	%eax, seiRandomAccess+16
	cmpl	$31483673, -12(%rbp)    # imm = 0x1E06719
	jne	.LBB80_6
.LBB80_5:
	addq	$64, %rsp
	popq	%rbp
	.cfi_def_cfa %rsp, 8
	retq
.LBB80_6:                               # %func_exit
	.cfi_def_cfa %rbp, 16
	callq	detect_breach
	jmp	.LBB80_5
.Lfunc_end80:
	.size	FinalizeRandomAccess.31, .Lfunc_end80-FinalizeRandomAccess.31
	.cfi_endproc
                                        # -- End function
	.globl	AppendTmpbits2Buf.32    # -- Begin function AppendTmpbits2Buf.32
	.p2align	4, 0x90
	.type	AppendTmpbits2Buf.32,@function
AppendTmpbits2Buf.32:                   # @AppendTmpbits2Buf.32
	.cfi_startproc
# %bb.0:                                # %entry
	pushq	%rbp
	.cfi_def_cfa_offset 16
	.cfi_offset %rbp, -16
	movq	%rsp, %rbp
	.cfi_def_cfa_register %rbp
	subq	$48, %rsp
	movl	$524826267, -44(%rbp)   # imm = 0x1F48369B
	movq	%rdi, -16(%rbp)
	movq	%rsi, -40(%rbp)
	movl	$0, -24(%rbp)
.LBB81_1:                               # %for.cond
                                        # =>This Loop Header: Depth=1
                                        #     Child Loop BB81_3 Depth 2
	movl	-24(%rbp), %eax
	movq	-40(%rbp), %rcx
	cmpl	(%rcx), %eax
	jge	.LBB81_12
# %bb.2:                                # %for.body
                                        #   in Loop: Header=BB81_1 Depth=1
	movb	$-128, -1(%rbp)
	movl	$0, -20(%rbp)
.LBB81_3:                               # %for.cond1
                                        #   Parent Loop BB81_1 Depth=1
                                        # =>  This Inner Loop Header: Depth=2
	cmpl	$8, -20(%rbp)
	jge	.LBB81_10
# %bb.4:                                # %for.body3
                                        #   in Loop: Header=BB81_3 Depth=2
	movq	-16(%rbp), %rax
	movzbl	8(%rax), %ecx
	shll	$1, %ecx
	movb	%cl, 8(%rax)
	movq	-40(%rbp), %rax
	movq	32(%rax), %rax
	movslq	-24(%rbp), %rcx
	movzbl	(%rax,%rcx), %eax
	movzbl	-1(%rbp), %ecx
	andl	%ecx, %eax
	cmpl	$0, %eax
	je	.LBB81_6
# %bb.5:                                # %if.then
                                        #   in Loop: Header=BB81_3 Depth=2
	movq	-16(%rbp), %rax
	movzbl	8(%rax), %ecx
	orl	$1, %ecx
	movb	%cl, 8(%rax)
.LBB81_6:                               # %if.end
                                        #   in Loop: Header=BB81_3 Depth=2
	movq	-16(%rbp), %rax
	movl	4(%rax), %ecx
	addl	$-1, %ecx
	movl	%ecx, 4(%rax)
	movzbl	-1(%rbp), %eax
	sarl	$1, %eax
	movb	%al, -1(%rbp)
	movq	-16(%rbp), %rax
	cmpl	$0, 4(%rax)
	jne	.LBB81_8
# %bb.7:                                # %if.then15
                                        #   in Loop: Header=BB81_3 Depth=2
	movq	-16(%rbp), %rax
	movl	$8, 4(%rax)
	movq	-16(%rbp), %rax
	movb	8(%rax), %al
	movq	-16(%rbp), %rcx
	movq	32(%rcx), %rcx
	movq	-16(%rbp), %rdx
	movl	(%rdx), %esi
	movl	%esi, %edi
	addl	$1, %edi
	movl	%edi, (%rdx)
	movslq	%esi, %rdx
	movb	%al, (%rcx,%rdx)
	movq	-16(%rbp), %rax
	movb	$0, 8(%rax)
.LBB81_8:                               # %if.end23
                                        #   in Loop: Header=BB81_3 Depth=2
	jmp	.LBB81_9
.LBB81_9:                               # %for.inc
                                        #   in Loop: Header=BB81_3 Depth=2
	movl	-20(%rbp), %eax
	addl	$1, %eax
	movl	%eax, -20(%rbp)
	jmp	.LBB81_3
.LBB81_10:                              # %for.end
                                        #   in Loop: Header=BB81_1 Depth=1
	jmp	.LBB81_11
.LBB81_11:                              # %for.inc25
                                        #   in Loop: Header=BB81_1 Depth=1
	movl	-24(%rbp), %eax
	addl	$1, %eax
	movl	%eax, -24(%rbp)
	jmp	.LBB81_1
.LBB81_12:                              # %for.end27
	movq	-40(%rbp), %rax
	movl	$8, %ecx
	subl	4(%rax), %ecx
	movl	%ecx, -28(%rbp)
	cmpl	$0, -28(%rbp)
	jle	.LBB81_22
# %bb.13:                               # %if.then31
	movl	-28(%rbp), %ecx
	subl	$1, %ecx
                                        # kill: def $cl killed $ecx
	movl	$1, %eax
	shll	%cl, %eax
	movb	%al, -1(%rbp)
	movl	$0, -20(%rbp)
.LBB81_14:                              # %for.cond35
                                        # =>This Inner Loop Header: Depth=1
	movl	-20(%rbp), %eax
	cmpl	-28(%rbp), %eax
	jge	.LBB81_21
# %bb.15:                               # %for.body38
                                        #   in Loop: Header=BB81_14 Depth=1
	movq	-16(%rbp), %rax
	movzbl	8(%rax), %ecx
	shll	$1, %ecx
	movb	%cl, 8(%rax)
	movq	-40(%rbp), %rax
	movzbl	8(%rax), %eax
	movzbl	-1(%rbp), %ecx
	andl	%ecx, %eax
	cmpl	$0, %eax
	je	.LBB81_17
# %bb.16:                               # %if.then48
                                        #   in Loop: Header=BB81_14 Depth=1
	movq	-16(%rbp), %rax
	movzbl	8(%rax), %ecx
	orl	$1, %ecx
	movb	%cl, 8(%rax)
.LBB81_17:                              # %if.end53
                                        #   in Loop: Header=BB81_14 Depth=1
	movq	-16(%rbp), %rax
	movl	4(%rax), %ecx
	addl	$-1, %ecx
	movl	%ecx, 4(%rax)
	movzbl	-1(%rbp), %eax
	sarl	$1, %eax
	movb	%al, -1(%rbp)
	movq	-16(%rbp), %rax
	cmpl	$0, 4(%rax)
	jne	.LBB81_19
# %bb.18:                               # %if.then62
                                        #   in Loop: Header=BB81_14 Depth=1
	movq	-16(%rbp), %rax
	movl	$8, 4(%rax)
	movq	-16(%rbp), %rax
	movb	8(%rax), %al
	movq	-16(%rbp), %rcx
	movq	32(%rcx), %rcx
	movq	-16(%rbp), %rdx
	movl	(%rdx), %esi
	movl	%esi, %edi
	addl	$1, %edi
	movl	%edi, (%rdx)
	movslq	%esi, %rdx
	movb	%al, (%rcx,%rdx)
	movq	-16(%rbp), %rax
	movb	$0, 8(%rax)
.LBB81_19:                              # %if.end71
                                        #   in Loop: Header=BB81_14 Depth=1
	jmp	.LBB81_20
.LBB81_20:                              # %for.inc72
                                        #   in Loop: Header=BB81_14 Depth=1
	movl	-20(%rbp), %eax
	addl	$1, %eax
	movl	%eax, -20(%rbp)
	jmp	.LBB81_14
.LBB81_21:                              # %for.end74
	jmp	.LBB81_22
.LBB81_22:                              # %if.end75
	cmpl	$524826267, -44(%rbp)   # imm = 0x1F48369B
	jne	.LBB81_24
.LBB81_23:
	addq	$48, %rsp
	popq	%rbp
	.cfi_def_cfa %rsp, 8
	retq
.LBB81_24:                              # %func_exit
	.cfi_def_cfa %rbp, 16
	callq	detect_breach
	jmp	.LBB81_23
.Lfunc_end81:
	.size	AppendTmpbits2Buf.32, .Lfunc_end81-AppendTmpbits2Buf.32
	.cfi_endproc
                                        # -- End function
	.globl	FinalizeSpareMBMap.33   # -- Begin function FinalizeSpareMBMap.33
	.p2align	4, 0x90
	.type	FinalizeSpareMBMap.33,@function
FinalizeSpareMBMap.33:                  # @FinalizeSpareMBMap.33
	.cfi_startproc
# %bb.0:                                # %entry
	pushq	%rbp
	.cfi_def_cfa_offset 16
	.cfi_offset %rbp, -16
	movq	%rsp, %rbp
	.cfi_def_cfa_register %rbp
	subq	$80, %rsp
	movl	$969319848, -28(%rbp)   # imm = 0x39C6A5A8
	movq	img, %rax
	movl	(%rax), %eax
	cltd
	movl	$256, %ecx              # imm = 0x100
	idivl	%ecx
	movl	%edx, -32(%rbp)
	movl	$0, -80(%rbp)
	movabsq	$ue_linfo, %rax
	movq	%rax, -48(%rbp)
	movq	seiSparePicturePayload+16, %rax
	movq	%rax, -24(%rbp)
	movl	$48, %edi
	callq	malloc
	movq	%rax, -8(%rbp)
	cmpq	$0, -8(%rbp)
	jne	.LBB82_2
# %bb.1:                                # %if.then
	movabsq	$.L.str.3, %rdi
	callq	no_mem_exit
.LBB82_2:                               # %if.end
	movl	$65496, %edi            # imm = 0xFFD8
	callq	malloc
	movq	-8(%rbp), %rcx
	movq	%rax, 32(%rcx)
	movq	-8(%rbp), %rax
	cmpq	$0, 32(%rax)
	jne	.LBB82_4
# %bb.3:                                # %if.then4
	movabsq	$.L.str.4, %rdi
	callq	no_mem_exit
.LBB82_4:                               # %if.end5
	movq	-8(%rbp), %rax
	movl	$8, 4(%rax)
	movq	-8(%rbp), %rax
	movl	$0, (%rax)
	movq	-8(%rbp), %rax
	movb	$0, 8(%rax)
	movq	-8(%rbp), %rax
	movq	32(%rax), %rdi
	xorl	%esi, %esi
	movl	$65496, %edx            # imm = 0xFFD8
	callq	memset
	movl	-32(%rbp), %eax
	subl	seiSparePicturePayload, %eax
	movl	%eax, -12(%rbp)
	cmpl	$0, -12(%rbp)
	jge	.LBB82_6
# %bb.5:                                # %if.then8
	movl	-12(%rbp), %eax
	addl	$256, %eax              # imm = 0x100
	movl	%eax, -12(%rbp)
.LBB82_6:                               # %if.end9
	movl	-12(%rbp), %eax
	movl	%eax, -76(%rbp)
	movq	-8(%rbp), %rsi
	leaq	-80(%rbp), %rdi
	callq	writeSyntaxElement2Buf_UVLC
	movl	seiSparePicturePayload+4, %eax
	subl	$1, %eax
	movl	%eax, -76(%rbp)
	movq	-8(%rbp), %rsi
	leaq	-80(%rbp), %rdi
	callq	writeSyntaxElement2Buf_UVLC
	movq	-8(%rbp), %rdi
	movq	-24(%rbp), %rsi
	callq	AppendTmpbits2Buf
	movq	-8(%rbp), %rax
	cmpl	$8, 4(%rax)
	je	.LBB82_10
# %bb.7:                                # %if.then16
	movq	-8(%rbp), %rax
	movzbl	8(%rax), %ecx
	shll	$1, %ecx
	movb	%cl, 8(%rax)
	movq	-8(%rbp), %rax
	movzbl	8(%rax), %ecx
	orl	$1, %ecx
	movb	%cl, 8(%rax)
	movq	-8(%rbp), %rax
	movl	4(%rax), %ecx
	addl	$-1, %ecx
	movl	%ecx, 4(%rax)
	movq	-8(%rbp), %rax
	cmpl	$0, 4(%rax)
	je	.LBB82_9
# %bb.8:                                # %if.then26
	movq	-8(%rbp), %rax
	movl	4(%rax), %ecx
	movq	-8(%rbp), %rax
	movzbl	8(%rax), %edx
                                        # kill: def $cl killed $ecx
	shll	%cl, %edx
	movb	%dl, 8(%rax)
.LBB82_9:                               # %if.end32
	movq	-8(%rbp), %rax
	movl	$8, 4(%rax)
	movq	-8(%rbp), %rax
	movb	8(%rax), %al
	movq	-8(%rbp), %rcx
	movq	32(%rcx), %rcx
	movq	-8(%rbp), %rdx
	movl	(%rdx), %esi
	movl	%esi, %edi
	addl	$1, %edi
	movl	%edi, (%rdx)
	movslq	%esi, %rdx
	movb	%al, (%rcx,%rdx)
	movq	-8(%rbp), %rax
	movb	$0, 8(%rax)
.LBB82_10:                              # %if.end38
	movq	-8(%rbp), %rax
	movl	(%rax), %eax
	movl	%eax, seiSparePicturePayload+8
	movq	-8(%rbp), %rax
	movq	%rax, seiSparePicturePayload+16
	movq	-24(%rbp), %rax
	movq	32(%rax), %rdi
	callq	free
	movq	-24(%rbp), %rdi
	callq	free
	cmpl	$969319848, -28(%rbp)   # imm = 0x39C6A5A8
	jne	.LBB82_12
.LBB82_11:
	addq	$80, %rsp
	popq	%rbp
	.cfi_def_cfa %rsp, 8
	retq
.LBB82_12:                              # %func_exit
	.cfi_def_cfa %rbp, 16
	callq	detect_breach
	jmp	.LBB82_11
.Lfunc_end82:
	.size	FinalizeSpareMBMap.33, .Lfunc_end82-FinalizeSpareMBMap.33
	.cfi_endproc
                                        # -- End function
	.globl	write_sei_message.34    # -- Begin function write_sei_message.34
	.p2align	4, 0x90
	.type	write_sei_message.34,@function
write_sei_message.34:                   # @write_sei_message.34
	.cfi_startproc
# %bb.0:                                # %entry
	pushq	%rbp
	.cfi_def_cfa_offset 16
	.cfi_offset %rbp, -16
	movq	%rsp, %rbp
	.cfi_def_cfa_register %rbp
	pushq	%rbx
	subq	$40, %rsp
	.cfi_offset %rbx, -24
	movl	$2054300922, -36(%rbp)  # imm = 0x7A7224FA
	movl	%edi, -16(%rbp)
	movq	%rsi, -48(%rbp)
	movl	%edx, -28(%rbp)
	movl	%ecx, -32(%rbp)
	movl	-32(%rbp), %eax
	movl	%eax, -24(%rbp)
	movl	-28(%rbp), %eax
	movl	%eax, -20(%rbp)
	movslq	-16(%rbp), %rax
	imulq	$24, %rax, %rax
	movabsq	$sei_message, %rcx
	addq	%rax, %rcx
	movl	4(%rcx), %eax
	movl	%eax, -12(%rbp)
.LBB83_1:                               # %while.cond
                                        # =>This Inner Loop Header: Depth=1
	cmpl	$255, -24(%rbp)
	jle	.LBB83_3
# %bb.2:                                # %while.body
                                        #   in Loop: Header=BB83_1 Depth=1
	movslq	-16(%rbp), %rax
	imulq	$24, %rax, %rax
	movabsq	$sei_message, %rcx
	addq	%rax, %rcx
	movq	16(%rcx), %rax
	movl	-12(%rbp), %ecx
	movl	%ecx, %edx
	addl	$1, %edx
	movl	%edx, -12(%rbp)
	movslq	%ecx, %rcx
	movb	$-1, (%rax,%rcx)
	movl	-24(%rbp), %eax
	subl	$255, %eax
	movl	%eax, -24(%rbp)
	jmp	.LBB83_1
.LBB83_3:                               # %while.end
	movl	-24(%rbp), %eax
	movslq	-16(%rbp), %rcx
	imulq	$24, %rcx, %rcx
	movabsq	$sei_message, %rdx
	addq	%rcx, %rdx
	movq	16(%rdx), %rcx
	movl	-12(%rbp), %edx
	movl	%edx, %esi
	addl	$1, %esi
	movl	%esi, -12(%rbp)
	movslq	%edx, %rdx
	movb	%al, (%rcx,%rdx)
.LBB83_4:                               # %while.cond11
                                        # =>This Inner Loop Header: Depth=1
	cmpl	$255, -20(%rbp)
	jle	.LBB83_6
# %bb.5:                                # %while.body14
                                        #   in Loop: Header=BB83_4 Depth=1
	movslq	-16(%rbp), %rax
	imulq	$24, %rax, %rax
	movabsq	$sei_message, %rcx
	addq	%rax, %rcx
	movq	16(%rcx), %rax
	movl	-12(%rbp), %ecx
	movl	%ecx, %edx
	addl	$1, %edx
	movl	%edx, -12(%rbp)
	movslq	%ecx, %rcx
	movb	$-1, (%rax,%rcx)
	movl	-20(%rbp), %eax
	subl	$255, %eax
	movl	%eax, -20(%rbp)
	jmp	.LBB83_4
.LBB83_6:                               # %while.end22
	movl	-20(%rbp), %eax
	movslq	-16(%rbp), %rcx
	imulq	$24, %rcx, %rcx
	movabsq	$sei_message, %rbx
	movq	%rbx, %rdx
	addq	%rcx, %rdx
	movq	16(%rdx), %rcx
	movl	-12(%rbp), %edx
	movl	%edx, %esi
	addl	$1, %esi
	movl	%esi, -12(%rbp)
	movslq	%edx, %rdx
	movb	%al, (%rcx,%rdx)
	movslq	-16(%rbp), %rax
	imulq	$24, %rax, %rax
	movq	%rbx, %rcx
	addq	%rax, %rcx
	movq	16(%rcx), %rdi
	movslq	-12(%rbp), %rax
	addq	%rax, %rdi
	movq	-48(%rbp), %rsi
	movslq	-28(%rbp), %rdx
	callq	memcpy
	movl	-28(%rbp), %eax
	addl	-12(%rbp), %eax
	movl	%eax, -12(%rbp)
	movl	-12(%rbp), %eax
	movslq	-16(%rbp), %rcx
	imulq	$24, %rcx, %rcx
	addq	%rcx, %rbx
	movl	%eax, 4(%rbx)
	cmpl	$2054300922, -36(%rbp)  # imm = 0x7A7224FA
	jne	.LBB83_8
.LBB83_7:
	addq	$40, %rsp
	popq	%rbx
	popq	%rbp
	.cfi_def_cfa %rsp, 8
	retq
.LBB83_8:                               # %func_exit
	.cfi_def_cfa %rbp, 16
	callq	detect_breach
	jmp	.LBB83_7
.Lfunc_end83:
	.size	write_sei_message.34, .Lfunc_end83-write_sei_message.34
	.cfi_endproc
                                        # -- End function
	.globl	UpdateSceneInformation.35 # -- Begin function UpdateSceneInformation.35
	.p2align	4, 0x90
	.type	UpdateSceneInformation.35,@function
UpdateSceneInformation.35:              # @UpdateSceneInformation.35
	.cfi_startproc
# %bb.0:                                # %entry
	pushq	%rbp
	.cfi_def_cfa_offset 16
	.cfi_offset %rbp, -16
	movq	%rsp, %rbp
	.cfi_def_cfa_register %rbp
	subq	$32, %rsp
	movl	$649075051, -20(%rbp)   # imm = 0x26B0196B
	movl	%edi, -8(%rbp)
	movl	%esi, -16(%rbp)
	movl	%edx, -4(%rbp)
	movl	%ecx, -12(%rbp)
	movl	-8(%rbp), %eax
	movl	%eax, seiHasSceneInformation
	movl	-16(%rbp), %eax
	movl	%eax, seiSceneInformation
	movl	-4(%rbp), %eax
	movl	%eax, seiSceneInformation+4
	cmpl	$3, -4(%rbp)
	jle	.LBB84_2
# %bb.1:                                # %if.then
	movl	-12(%rbp), %eax
	movl	%eax, seiSceneInformation+8
.LBB84_2:                               # %if.end
	cmpl	$649075051, -20(%rbp)   # imm = 0x26B0196B
	jne	.LBB84_4
.LBB84_3:
	addq	$32, %rsp
	popq	%rbp
	.cfi_def_cfa %rsp, 8
	retq
.LBB84_4:                               # %func_exit
	.cfi_def_cfa %rbp, 16
	callq	detect_breach
	jmp	.LBB84_3
.Lfunc_end84:
	.size	UpdateSceneInformation.35, .Lfunc_end84-UpdateSceneInformation.35
	.cfi_endproc
                                        # -- End function
	.globl	FinalizeSubseqInfo.36   # -- Begin function FinalizeSubseqInfo.36
	.p2align	4, 0x90
	.type	FinalizeSubseqInfo.36,@function
FinalizeSubseqInfo.36:                  # @FinalizeSubseqInfo.36
	.cfi_startproc
# %bb.0:                                # %entry
	pushq	%rbp
	.cfi_def_cfa_offset 16
	.cfi_offset %rbp, -16
	movq	%rsp, %rbp
	.cfi_def_cfa_register %rbp
	subq	$64, %rsp
	movl	$416002938, -16(%rbp)   # imm = 0x18CBB37A
	movl	%edi, -12(%rbp)
	movslq	-12(%rbp), %rax
	shlq	$5, %rax
	movabsq	$seiSubseqInfo, %rcx
	movq	%rcx, %rdx
	addq	%rax, %rdx
	movq	24(%rdx), %rax
	movq	%rax, -8(%rbp)
	movl	$0, -64(%rbp)
	movabsq	$ue_linfo, %rax
	movq	%rax, -32(%rbp)
	movslq	-12(%rbp), %rax
	shlq	$5, %rax
	addq	%rax, %rcx
	movl	(%rcx), %eax
	movl	%eax, -60(%rbp)
	movq	-8(%rbp), %rsi
	leaq	-64(%rbp), %rdi
	callq	writeSyntaxElement2Buf_UVLC
	movslq	-12(%rbp), %rax
	shlq	$5, %rax
	movabsq	$seiSubseqInfo, %rcx
	addq	%rax, %rcx
	movl	4(%rcx), %eax
	movl	%eax, -60(%rbp)
	movq	-8(%rbp), %rsi
	leaq	-64(%rbp), %rdi
	callq	writeSyntaxElement2Buf_UVLC
	movslq	-12(%rbp), %rax
	shlq	$5, %rax
	movabsq	$seiSubseqInfo, %rcx
	addq	%rax, %rcx
	movl	8(%rcx), %eax
	movl	%eax, -44(%rbp)
	movl	$1, -52(%rbp)
	movq	-8(%rbp), %rsi
	leaq	-64(%rbp), %rdi
	callq	writeSyntaxElement2Buf_Fixed
	movslq	-12(%rbp), %rax
	shlq	$5, %rax
	movabsq	$seiSubseqInfo, %rcx
	addq	%rax, %rcx
	movl	12(%rcx), %eax
	movl	%eax, -60(%rbp)
	movq	-8(%rbp), %rsi
	leaq	-64(%rbp), %rdi
	callq	writeSyntaxElement2Buf_UVLC
	movq	-8(%rbp), %rax
	cmpl	$8, 4(%rax)
	je	.LBB85_4
# %bb.1:                                # %if.then
	movq	-8(%rbp), %rax
	movzbl	8(%rax), %ecx
	shll	$1, %ecx
	movb	%cl, 8(%rax)
	movq	-8(%rbp), %rax
	movzbl	8(%rax), %ecx
	orl	$1, %ecx
	movb	%cl, 8(%rax)
	movq	-8(%rbp), %rax
	movl	4(%rax), %ecx
	addl	$-1, %ecx
	movl	%ecx, 4(%rax)
	movq	-8(%rbp), %rax
	cmpl	$0, 4(%rax)
	je	.LBB85_3
# %bb.2:                                # %if.then22
	movq	-8(%rbp), %rax
	movl	4(%rax), %ecx
	movq	-8(%rbp), %rax
	movzbl	8(%rax), %edx
                                        # kill: def $cl killed $ecx
	shll	%cl, %edx
	movb	%dl, 8(%rax)
.LBB85_3:                               # %if.end
	movq	-8(%rbp), %rax
	movl	$8, 4(%rax)
	movq	-8(%rbp), %rax
	movb	8(%rax), %al
	movq	-8(%rbp), %rcx
	movq	32(%rcx), %rcx
	movq	-8(%rbp), %rdx
	movl	(%rdx), %esi
	movl	%esi, %edi
	addl	$1, %edi
	movl	%edi, (%rdx)
	movslq	%esi, %rdx
	movb	%al, (%rcx,%rdx)
	movq	-8(%rbp), %rax
	movb	$0, 8(%rax)
.LBB85_4:                               # %if.end33
	movq	-8(%rbp), %rax
	movl	(%rax), %eax
	movslq	-12(%rbp), %rcx
	shlq	$5, %rcx
	movabsq	$seiSubseqInfo, %rdx
	addq	%rcx, %rdx
	movl	%eax, 16(%rdx)
	cmpl	$416002938, -16(%rbp)   # imm = 0x18CBB37A
	jne	.LBB85_6
.LBB85_5:
	addq	$64, %rsp
	popq	%rbp
	.cfi_def_cfa %rsp, 8
	retq
.LBB85_6:                               # %func_exit
	.cfi_def_cfa %rbp, 16
	callq	detect_breach
	jmp	.LBB85_5
.Lfunc_end85:
	.size	FinalizeSubseqInfo.36, .Lfunc_end85-FinalizeSubseqInfo.36
	.cfi_endproc
                                        # -- End function
	.globl	FinalizeSubseqInfo.37   # -- Begin function FinalizeSubseqInfo.37
	.p2align	4, 0x90
	.type	FinalizeSubseqInfo.37,@function
FinalizeSubseqInfo.37:                  # @FinalizeSubseqInfo.37
	.cfi_startproc
# %bb.0:                                # %entry
	pushq	%rbp
	.cfi_def_cfa_offset 16
	.cfi_offset %rbp, -16
	movq	%rsp, %rbp
	.cfi_def_cfa_register %rbp
	subq	$64, %rsp
	movl	$1902850340, -16(%rbp)  # imm = 0x716B3124
	movl	%edi, -12(%rbp)
	movslq	-12(%rbp), %rax
	shlq	$5, %rax
	movabsq	$seiSubseqInfo, %rcx
	movq	%rcx, %rdx
	addq	%rax, %rdx
	movq	24(%rdx), %rax
	movq	%rax, -8(%rbp)
	movl	$0, -64(%rbp)
	movabsq	$ue_linfo, %rax
	movq	%rax, -32(%rbp)
	movslq	-12(%rbp), %rax
	shlq	$5, %rax
	addq	%rax, %rcx
	movl	(%rcx), %eax
	movl	%eax, -60(%rbp)
	movq	-8(%rbp), %rsi
	leaq	-64(%rbp), %rdi
	callq	writeSyntaxElement2Buf_UVLC
	movslq	-12(%rbp), %rax
	shlq	$5, %rax
	movabsq	$seiSubseqInfo, %rcx
	addq	%rax, %rcx
	movl	4(%rcx), %eax
	movl	%eax, -60(%rbp)
	movq	-8(%rbp), %rsi
	leaq	-64(%rbp), %rdi
	callq	writeSyntaxElement2Buf_UVLC
	movslq	-12(%rbp), %rax
	shlq	$5, %rax
	movabsq	$seiSubseqInfo, %rcx
	addq	%rax, %rcx
	movl	8(%rcx), %eax
	movl	%eax, -44(%rbp)
	movl	$1, -52(%rbp)
	movq	-8(%rbp), %rsi
	leaq	-64(%rbp), %rdi
	callq	writeSyntaxElement2Buf_Fixed
	movslq	-12(%rbp), %rax
	shlq	$5, %rax
	movabsq	$seiSubseqInfo, %rcx
	addq	%rax, %rcx
	movl	12(%rcx), %eax
	movl	%eax, -60(%rbp)
	movq	-8(%rbp), %rsi
	leaq	-64(%rbp), %rdi
	callq	writeSyntaxElement2Buf_UVLC
	movq	-8(%rbp), %rax
	cmpl	$8, 4(%rax)
	je	.LBB86_4
# %bb.1:                                # %if.then
	movq	-8(%rbp), %rax
	movzbl	8(%rax), %ecx
	shll	$1, %ecx
	movb	%cl, 8(%rax)
	movq	-8(%rbp), %rax
	movzbl	8(%rax), %ecx
	orl	$1, %ecx
	movb	%cl, 8(%rax)
	movq	-8(%rbp), %rax
	movl	4(%rax), %ecx
	addl	$-1, %ecx
	movl	%ecx, 4(%rax)
	movq	-8(%rbp), %rax
	cmpl	$0, 4(%rax)
	je	.LBB86_3
# %bb.2:                                # %if.then22
	movq	-8(%rbp), %rax
	movl	4(%rax), %ecx
	movq	-8(%rbp), %rax
	movzbl	8(%rax), %edx
                                        # kill: def $cl killed $ecx
	shll	%cl, %edx
	movb	%dl, 8(%rax)
.LBB86_3:                               # %if.end
	movq	-8(%rbp), %rax
	movl	$8, 4(%rax)
	movq	-8(%rbp), %rax
	movb	8(%rax), %al
	movq	-8(%rbp), %rcx
	movq	32(%rcx), %rcx
	movq	-8(%rbp), %rdx
	movl	(%rdx), %esi
	movl	%esi, %edi
	addl	$1, %edi
	movl	%edi, (%rdx)
	movslq	%esi, %rdx
	movb	%al, (%rcx,%rdx)
	movq	-8(%rbp), %rax
	movb	$0, 8(%rax)
.LBB86_4:                               # %if.end33
	movq	-8(%rbp), %rax
	movl	(%rax), %eax
	movslq	-12(%rbp), %rcx
	shlq	$5, %rcx
	movabsq	$seiSubseqInfo, %rdx
	addq	%rcx, %rdx
	movl	%eax, 16(%rdx)
	cmpl	$1902850340, -16(%rbp)  # imm = 0x716B3124
	jne	.LBB86_6
.LBB86_5:
	addq	$64, %rsp
	popq	%rbp
	.cfi_def_cfa %rsp, 8
	retq
.LBB86_6:                               # %func_exit
	.cfi_def_cfa %rbp, 16
	callq	detect_breach
	jmp	.LBB86_5
.Lfunc_end86:
	.size	FinalizeSubseqInfo.37, .Lfunc_end86-FinalizeSubseqInfo.37
	.cfi_endproc
                                        # -- End function
	.globl	FinalizeSubseqLayerInfo.38 # -- Begin function FinalizeSubseqLayerInfo.38
	.p2align	4, 0x90
	.type	FinalizeSubseqLayerInfo.38,@function
FinalizeSubseqLayerInfo.38:             # @FinalizeSubseqLayerInfo.38
	.cfi_startproc
# %bb.0:                                # %entry
	pushq	%rbp
	.cfi_def_cfa_offset 16
	.cfi_offset %rbp, -16
	movq	%rsp, %rbp
	.cfi_def_cfa_register %rbp
	subq	$16, %rsp
	movl	$1915283828, -12(%rbp)  # imm = 0x7228E974
	movl	$0, -4(%rbp)
	movl	$0, seiSubseqLayerInfo+20
	movl	$0, -8(%rbp)
.LBB87_1:                               # %for.cond
                                        # =>This Inner Loop Header: Depth=1
	movl	-8(%rbp), %eax
	cmpl	seiSubseqLayerInfo+16, %eax
	jge	.LBB87_4
# %bb.2:                                # %for.body
                                        #   in Loop: Header=BB87_1 Depth=1
	movslq	-8(%rbp), %rax
	movw	seiSubseqLayerInfo(,%rax,2), %ax
	movslq	-4(%rbp), %rcx
	movw	%ax, seiSubseqLayerInfo+8(,%rcx)
	movl	-4(%rbp), %eax
	addl	$2, %eax
	movl	%eax, -4(%rbp)
	movslq	-8(%rbp), %rax
	movw	seiSubseqLayerInfo+4(,%rax,2), %ax
	movslq	-4(%rbp), %rcx
	movw	%ax, seiSubseqLayerInfo+8(,%rcx)
	movl	-4(%rbp), %eax
	addl	$2, %eax
	movl	%eax, -4(%rbp)
	movl	seiSubseqLayerInfo+20, %eax
	addl	$4, %eax
	movl	%eax, seiSubseqLayerInfo+20
# %bb.3:                                # %for.inc
                                        #   in Loop: Header=BB87_1 Depth=1
	movl	-8(%rbp), %eax
	addl	$1, %eax
	movl	%eax, -8(%rbp)
	jmp	.LBB87_1
.LBB87_4:                               # %for.end
	cmpl	$1915283828, -12(%rbp)  # imm = 0x7228E974
	jne	.LBB87_6
.LBB87_5:
	addq	$16, %rsp
	popq	%rbp
	.cfi_def_cfa %rsp, 8
	retq
.LBB87_6:                               # %func_exit
	.cfi_def_cfa %rbp, 16
	callq	detect_breach
	jmp	.LBB87_5
.Lfunc_end87:
	.size	FinalizeSubseqLayerInfo.38, .Lfunc_end87-FinalizeSubseqLayerInfo.38
	.cfi_endproc
                                        # -- End function
	.globl	FinalizeUser_data_registered_itu_t_t35.39 # -- Begin function FinalizeUser_data_registered_itu_t_t35.39
	.p2align	4, 0x90
	.type	FinalizeUser_data_registered_itu_t_t35.39,@function
FinalizeUser_data_registered_itu_t_t35.39: # @FinalizeUser_data_registered_itu_t_t35.39
	.cfi_startproc
# %bb.0:                                # %entry
	pushq	%rbp
	.cfi_def_cfa_offset 16
	.cfi_offset %rbp, -16
	movq	%rsp, %rbp
	.cfi_def_cfa_register %rbp
	subq	$64, %rsp
	movl	$1398452711, -16(%rbp)  # imm = 0x535AB1E7
	movq	seiUser_data_registered_itu_t_t35+24, %rax
	movq	%rax, -8(%rbp)
	movl	$0, -64(%rbp)
	movabsq	$ue_linfo, %rax
	movq	%rax, -32(%rbp)
	movl	seiUser_data_registered_itu_t_t35+12, %eax
	movl	%eax, -44(%rbp)
	movl	$8, -52(%rbp)
	movq	-8(%rbp), %rsi
	leaq	-64(%rbp), %rdi
	callq	writeSyntaxElement2Buf_Fixed
	cmpl	$255, seiUser_data_registered_itu_t_t35+12
	jne	.LBB88_2
# %bb.1:                                # %if.then
	movl	seiUser_data_registered_itu_t_t35+16, %eax
	movl	%eax, -44(%rbp)
	movl	$8, -52(%rbp)
	movq	-8(%rbp), %rsi
	leaq	-64(%rbp), %rdi
	callq	writeSyntaxElement2Buf_Fixed
.LBB88_2:                               # %if.end
	movl	$0, -12(%rbp)
.LBB88_3:                               # %for.cond
                                        # =>This Inner Loop Header: Depth=1
	movl	-12(%rbp), %eax
	cmpl	seiUser_data_registered_itu_t_t35+8, %eax
	jge	.LBB88_6
# %bb.4:                                # %for.body
                                        #   in Loop: Header=BB88_3 Depth=1
	movq	seiUser_data_registered_itu_t_t35, %rax
	movslq	-12(%rbp), %rcx
	movsbl	(%rax,%rcx), %eax
	movl	%eax, -44(%rbp)
	movl	$8, -52(%rbp)
	movq	-8(%rbp), %rsi
	leaq	-64(%rbp), %rdi
	callq	writeSyntaxElement2Buf_Fixed
# %bb.5:                                # %for.inc
                                        #   in Loop: Header=BB88_3 Depth=1
	movl	-12(%rbp), %eax
	addl	$1, %eax
	movl	%eax, -12(%rbp)
	jmp	.LBB88_3
.LBB88_6:                               # %for.end
	movq	-8(%rbp), %rax
	cmpl	$8, 4(%rax)
	je	.LBB88_10
# %bb.7:                                # %if.then10
	movq	-8(%rbp), %rax
	movzbl	8(%rax), %ecx
	shll	$1, %ecx
	movb	%cl, 8(%rax)
	movq	-8(%rbp), %rax
	movzbl	8(%rax), %ecx
	orl	$1, %ecx
	movb	%cl, 8(%rax)
	movq	-8(%rbp), %rax
	movl	4(%rax), %ecx
	addl	$-1, %ecx
	movl	%ecx, 4(%rax)
	movq	-8(%rbp), %rax
	cmpl	$0, 4(%rax)
	je	.LBB88_9
# %bb.8:                                # %if.then20
	movq	-8(%rbp), %rax
	movl	4(%rax), %ecx
	movq	-8(%rbp), %rax
	movzbl	8(%rax), %edx
                                        # kill: def $cl killed $ecx
	shll	%cl, %edx
	movb	%dl, 8(%rax)
.LBB88_9:                               # %if.end26
	movq	-8(%rbp), %rax
	movl	$8, 4(%rax)
	movq	-8(%rbp), %rax
	movb	8(%rax), %al
	movq	-8(%rbp), %rcx
	movq	32(%rcx), %rcx
	movq	-8(%rbp), %rdx
	movl	(%rdx), %esi
	movl	%esi, %edi
	addl	$1, %edi
	movl	%edi, (%rdx)
	movslq	%esi, %rdx
	movb	%al, (%rcx,%rdx)
	movq	-8(%rbp), %rax
	movb	$0, 8(%rax)
.LBB88_10:                              # %if.end33
	movq	-8(%rbp), %rax
	movl	(%rax), %eax
	movl	%eax, seiUser_data_registered_itu_t_t35+32
	cmpl	$1398452711, -16(%rbp)  # imm = 0x535AB1E7
	jne	.LBB88_12
.LBB88_11:
	addq	$64, %rsp
	popq	%rbp
	.cfi_def_cfa %rsp, 8
	retq
.LBB88_12:                              # %func_exit
	.cfi_def_cfa %rbp, 16
	callq	detect_breach
	jmp	.LBB88_11
.Lfunc_end88:
	.size	FinalizeUser_data_registered_itu_t_t35.39, .Lfunc_end88-FinalizeUser_data_registered_itu_t_t35.39
	.cfi_endproc
                                        # -- End function
	.globl	AppendTmpbits2Buf.40    # -- Begin function AppendTmpbits2Buf.40
	.p2align	4, 0x90
	.type	AppendTmpbits2Buf.40,@function
AppendTmpbits2Buf.40:                   # @AppendTmpbits2Buf.40
	.cfi_startproc
# %bb.0:                                # %entry
	pushq	%rbp
	.cfi_def_cfa_offset 16
	.cfi_offset %rbp, -16
	movq	%rsp, %rbp
	.cfi_def_cfa_register %rbp
	subq	$48, %rsp
	movl	$1772909973, -44(%rbp)  # imm = 0x69AC7595
	movq	%rdi, -16(%rbp)
	movq	%rsi, -40(%rbp)
	movl	$0, -24(%rbp)
.LBB89_1:                               # %for.cond
                                        # =>This Loop Header: Depth=1
                                        #     Child Loop BB89_3 Depth 2
	movl	-24(%rbp), %eax
	movq	-40(%rbp), %rcx
	cmpl	(%rcx), %eax
	jge	.LBB89_12
# %bb.2:                                # %for.body
                                        #   in Loop: Header=BB89_1 Depth=1
	movb	$-128, -1(%rbp)
	movl	$0, -20(%rbp)
.LBB89_3:                               # %for.cond1
                                        #   Parent Loop BB89_1 Depth=1
                                        # =>  This Inner Loop Header: Depth=2
	cmpl	$8, -20(%rbp)
	jge	.LBB89_10
# %bb.4:                                # %for.body3
                                        #   in Loop: Header=BB89_3 Depth=2
	movq	-16(%rbp), %rax
	movzbl	8(%rax), %ecx
	shll	$1, %ecx
	movb	%cl, 8(%rax)
	movq	-40(%rbp), %rax
	movq	32(%rax), %rax
	movslq	-24(%rbp), %rcx
	movzbl	(%rax,%rcx), %eax
	movzbl	-1(%rbp), %ecx
	andl	%ecx, %eax
	cmpl	$0, %eax
	je	.LBB89_6
# %bb.5:                                # %if.then
                                        #   in Loop: Header=BB89_3 Depth=2
	movq	-16(%rbp), %rax
	movzbl	8(%rax), %ecx
	orl	$1, %ecx
	movb	%cl, 8(%rax)
.LBB89_6:                               # %if.end
                                        #   in Loop: Header=BB89_3 Depth=2
	movq	-16(%rbp), %rax
	movl	4(%rax), %ecx
	addl	$-1, %ecx
	movl	%ecx, 4(%rax)
	movzbl	-1(%rbp), %eax
	sarl	$1, %eax
	movb	%al, -1(%rbp)
	movq	-16(%rbp), %rax
	cmpl	$0, 4(%rax)
	jne	.LBB89_8
# %bb.7:                                # %if.then15
                                        #   in Loop: Header=BB89_3 Depth=2
	movq	-16(%rbp), %rax
	movl	$8, 4(%rax)
	movq	-16(%rbp), %rax
	movb	8(%rax), %al
	movq	-16(%rbp), %rcx
	movq	32(%rcx), %rcx
	movq	-16(%rbp), %rdx
	movl	(%rdx), %esi
	movl	%esi, %edi
	addl	$1, %edi
	movl	%edi, (%rdx)
	movslq	%esi, %rdx
	movb	%al, (%rcx,%rdx)
	movq	-16(%rbp), %rax
	movb	$0, 8(%rax)
.LBB89_8:                               # %if.end23
                                        #   in Loop: Header=BB89_3 Depth=2
	jmp	.LBB89_9
.LBB89_9:                               # %for.inc
                                        #   in Loop: Header=BB89_3 Depth=2
	movl	-20(%rbp), %eax
	addl	$1, %eax
	movl	%eax, -20(%rbp)
	jmp	.LBB89_3
.LBB89_10:                              # %for.end
                                        #   in Loop: Header=BB89_1 Depth=1
	jmp	.LBB89_11
.LBB89_11:                              # %for.inc25
                                        #   in Loop: Header=BB89_1 Depth=1
	movl	-24(%rbp), %eax
	addl	$1, %eax
	movl	%eax, -24(%rbp)
	jmp	.LBB89_1
.LBB89_12:                              # %for.end27
	movq	-40(%rbp), %rax
	movl	$8, %ecx
	subl	4(%rax), %ecx
	movl	%ecx, -28(%rbp)
	cmpl	$0, -28(%rbp)
	jle	.LBB89_22
# %bb.13:                               # %if.then31
	movl	-28(%rbp), %ecx
	subl	$1, %ecx
                                        # kill: def $cl killed $ecx
	movl	$1, %eax
	shll	%cl, %eax
	movb	%al, -1(%rbp)
	movl	$0, -20(%rbp)
.LBB89_14:                              # %for.cond35
                                        # =>This Inner Loop Header: Depth=1
	movl	-20(%rbp), %eax
	cmpl	-28(%rbp), %eax
	jge	.LBB89_21
# %bb.15:                               # %for.body38
                                        #   in Loop: Header=BB89_14 Depth=1
	movq	-16(%rbp), %rax
	movzbl	8(%rax), %ecx
	shll	$1, %ecx
	movb	%cl, 8(%rax)
	movq	-40(%rbp), %rax
	movzbl	8(%rax), %eax
	movzbl	-1(%rbp), %ecx
	andl	%ecx, %eax
	cmpl	$0, %eax
	je	.LBB89_17
# %bb.16:                               # %if.then48
                                        #   in Loop: Header=BB89_14 Depth=1
	movq	-16(%rbp), %rax
	movzbl	8(%rax), %ecx
	orl	$1, %ecx
	movb	%cl, 8(%rax)
.LBB89_17:                              # %if.end53
                                        #   in Loop: Header=BB89_14 Depth=1
	movq	-16(%rbp), %rax
	movl	4(%rax), %ecx
	addl	$-1, %ecx
	movl	%ecx, 4(%rax)
	movzbl	-1(%rbp), %eax
	sarl	$1, %eax
	movb	%al, -1(%rbp)
	movq	-16(%rbp), %rax
	cmpl	$0, 4(%rax)
	jne	.LBB89_19
# %bb.18:                               # %if.then62
                                        #   in Loop: Header=BB89_14 Depth=1
	movq	-16(%rbp), %rax
	movl	$8, 4(%rax)
	movq	-16(%rbp), %rax
	movb	8(%rax), %al
	movq	-16(%rbp), %rcx
	movq	32(%rcx), %rcx
	movq	-16(%rbp), %rdx
	movl	(%rdx), %esi
	movl	%esi, %edi
	addl	$1, %edi
	movl	%edi, (%rdx)
	movslq	%esi, %rdx
	movb	%al, (%rcx,%rdx)
	movq	-16(%rbp), %rax
	movb	$0, 8(%rax)
.LBB89_19:                              # %if.end71
                                        #   in Loop: Header=BB89_14 Depth=1
	jmp	.LBB89_20
.LBB89_20:                              # %for.inc72
                                        #   in Loop: Header=BB89_14 Depth=1
	movl	-20(%rbp), %eax
	addl	$1, %eax
	movl	%eax, -20(%rbp)
	jmp	.LBB89_14
.LBB89_21:                              # %for.end74
	jmp	.LBB89_22
.LBB89_22:                              # %if.end75
	cmpl	$1772909973, -44(%rbp)  # imm = 0x69AC7595
	jne	.LBB89_24
.LBB89_23:
	addq	$48, %rsp
	popq	%rbp
	.cfi_def_cfa %rsp, 8
	retq
.LBB89_24:                              # %func_exit
	.cfi_def_cfa %rbp, 16
	callq	detect_breach
	jmp	.LBB89_23
.Lfunc_end89:
	.size	AppendTmpbits2Buf.40, .Lfunc_end89-AppendTmpbits2Buf.40
	.cfi_endproc
                                        # -- End function
	.globl	FinalizeUser_data_unregistered.41 # -- Begin function FinalizeUser_data_unregistered.41
	.p2align	4, 0x90
	.type	FinalizeUser_data_unregistered.41,@function
FinalizeUser_data_unregistered.41:      # @FinalizeUser_data_unregistered.41
	.cfi_startproc
# %bb.0:                                # %entry
	pushq	%rbp
	.cfi_def_cfa_offset 16
	.cfi_offset %rbp, -16
	movq	%rsp, %rbp
	.cfi_def_cfa_register %rbp
	subq	$64, %rsp
	movl	$1776291799, -16(%rbp)  # imm = 0x69E00FD7
	movq	seiUser_data_unregistered+16, %rax
	movq	%rax, -8(%rbp)
	movl	$0, -64(%rbp)
	movabsq	$ue_linfo, %rax
	movq	%rax, -32(%rbp)
	movl	$0, -12(%rbp)
.LBB90_1:                               # %for.cond
                                        # =>This Inner Loop Header: Depth=1
	movl	-12(%rbp), %eax
	cmpl	seiUser_data_unregistered+8, %eax
	jge	.LBB90_4
# %bb.2:                                # %for.body
                                        #   in Loop: Header=BB90_1 Depth=1
	movq	seiUser_data_unregistered, %rax
	movslq	-12(%rbp), %rcx
	movsbl	(%rax,%rcx), %eax
	movl	%eax, -44(%rbp)
	movl	$8, -52(%rbp)
	movq	-8(%rbp), %rsi
	leaq	-64(%rbp), %rdi
	callq	writeSyntaxElement2Buf_Fixed
# %bb.3:                                # %for.inc
                                        #   in Loop: Header=BB90_1 Depth=1
	movl	-12(%rbp), %eax
	addl	$1, %eax
	movl	%eax, -12(%rbp)
	jmp	.LBB90_1
.LBB90_4:                               # %for.end
	movq	-8(%rbp), %rax
	cmpl	$8, 4(%rax)
	je	.LBB90_8
# %bb.5:                                # %if.then
	movq	-8(%rbp), %rax
	movzbl	8(%rax), %ecx
	shll	$1, %ecx
	movb	%cl, 8(%rax)
	movq	-8(%rbp), %rax
	movzbl	8(%rax), %ecx
	orl	$1, %ecx
	movb	%cl, 8(%rax)
	movq	-8(%rbp), %rax
	movl	4(%rax), %ecx
	addl	$-1, %ecx
	movl	%ecx, 4(%rax)
	movq	-8(%rbp), %rax
	cmpl	$0, 4(%rax)
	je	.LBB90_7
# %bb.6:                                # %if.then12
	movq	-8(%rbp), %rax
	movl	4(%rax), %ecx
	movq	-8(%rbp), %rax
	movzbl	8(%rax), %edx
                                        # kill: def $cl killed $ecx
	shll	%cl, %edx
	movb	%dl, 8(%rax)
.LBB90_7:                               # %if.end
	movq	-8(%rbp), %rax
	movl	$8, 4(%rax)
	movq	-8(%rbp), %rax
	movb	8(%rax), %al
	movq	-8(%rbp), %rcx
	movq	32(%rcx), %rcx
	movq	-8(%rbp), %rdx
	movl	(%rdx), %esi
	movl	%esi, %edi
	addl	$1, %edi
	movl	%edi, (%rdx)
	movslq	%esi, %rdx
	movb	%al, (%rcx,%rdx)
	movq	-8(%rbp), %rax
	movb	$0, 8(%rax)
.LBB90_8:                               # %if.end24
	movq	-8(%rbp), %rax
	movl	(%rax), %eax
	movl	%eax, seiUser_data_unregistered+24
	cmpl	$1776291799, -16(%rbp)  # imm = 0x69E00FD7
	jne	.LBB90_10
.LBB90_9:
	addq	$64, %rsp
	popq	%rbp
	.cfi_def_cfa %rsp, 8
	retq
.LBB90_10:                              # %func_exit
	.cfi_def_cfa %rbp, 16
	callq	detect_breach
	jmp	.LBB90_9
.Lfunc_end90:
	.size	FinalizeUser_data_unregistered.41, .Lfunc_end90-FinalizeUser_data_unregistered.41
	.cfi_endproc
                                        # -- End function
	.globl	UpdateUser_data_unregistered.42 # -- Begin function UpdateUser_data_unregistered.42
	.p2align	4, 0x90
	.type	UpdateUser_data_unregistered.42,@function
UpdateUser_data_unregistered.42:        # @UpdateUser_data_unregistered.42
	.cfi_startproc
# %bb.0:                                # %entry
	pushq	%rbp
	.cfi_def_cfa_offset 16
	.cfi_offset %rbp, -16
	movq	%rsp, %rbp
	.cfi_def_cfa_register %rbp
	subq	$16, %rsp
	movl	$52220539, -16(%rbp)    # imm = 0x31CD27B
	movl	$7, -12(%rbp)
	movl	$0, -4(%rbp)
.LBB91_1:                               # %for.cond
                                        # =>This Inner Loop Header: Depth=1
	movl	-4(%rbp), %eax
	cmpl	-12(%rbp), %eax
	jge	.LBB91_13
# %bb.2:                                # %for.body
                                        #   in Loop: Header=BB91_1 Depth=1
	movl	-4(%rbp), %eax
	shll	$2, %eax
	movl	%eax, -8(%rbp)
	cmpl	$255, -8(%rbp)
	jge	.LBB91_4
# %bb.3:                                # %cond.true
                                        #   in Loop: Header=BB91_1 Depth=1
	movl	-8(%rbp), %eax
	jmp	.LBB91_5
.LBB91_4:                               # %cond.false
                                        #   in Loop: Header=BB91_1 Depth=1
	movl	$255, %eax
	jmp	.LBB91_5
.LBB91_5:                               # %cond.end
                                        #   in Loop: Header=BB91_1 Depth=1
	xorl	%ecx, %ecx
	cmpl	%eax, %ecx
	jle	.LBB91_7
# %bb.6:                                # %cond.true3
                                        #   in Loop: Header=BB91_1 Depth=1
	xorl	%eax, %eax
	jmp	.LBB91_11
.LBB91_7:                               # %cond.false4
                                        #   in Loop: Header=BB91_1 Depth=1
	cmpl	$255, -8(%rbp)
	jge	.LBB91_9
# %bb.8:                                # %cond.true6
                                        #   in Loop: Header=BB91_1 Depth=1
	movl	-8(%rbp), %eax
	jmp	.LBB91_10
.LBB91_9:                               # %cond.false7
                                        #   in Loop: Header=BB91_1 Depth=1
	movl	$255, %eax
	jmp	.LBB91_10
.LBB91_10:                              # %cond.end8
                                        #   in Loop: Header=BB91_1 Depth=1
.LBB91_11:                              # %cond.end10
                                        #   in Loop: Header=BB91_1 Depth=1
	movq	seiUser_data_unregistered, %rcx
	movslq	-4(%rbp), %rdx
	movb	%al, (%rcx,%rdx)
# %bb.12:                               # %for.inc
                                        #   in Loop: Header=BB91_1 Depth=1
	movl	-4(%rbp), %eax
	addl	$1, %eax
	movl	%eax, -4(%rbp)
	jmp	.LBB91_1
.LBB91_13:                              # %for.end
	movl	-12(%rbp), %eax
	movl	%eax, seiUser_data_unregistered+8
	cmpl	$52220539, -16(%rbp)    # imm = 0x31CD27B
	jne	.LBB91_15
.LBB91_14:
	addq	$16, %rsp
	popq	%rbp
	.cfi_def_cfa %rsp, 8
	retq
.LBB91_15:                              # %func_exit
	.cfi_def_cfa %rbp, 16
	callq	detect_breach
	jmp	.LBB91_14
.Lfunc_end91:
	.size	UpdateUser_data_unregistered.42, .Lfunc_end91-UpdateUser_data_unregistered.42
	.cfi_endproc
                                        # -- End function
	.globl	AppendTmpbits2Buf.43    # -- Begin function AppendTmpbits2Buf.43
	.p2align	4, 0x90
	.type	AppendTmpbits2Buf.43,@function
AppendTmpbits2Buf.43:                   # @AppendTmpbits2Buf.43
	.cfi_startproc
# %bb.0:                                # %entry
	pushq	%rbp
	.cfi_def_cfa_offset 16
	.cfi_offset %rbp, -16
	movq	%rsp, %rbp
	.cfi_def_cfa_register %rbp
	subq	$48, %rsp
	movl	$1710146193, -44(%rbp)  # imm = 0x65EEC291
	movq	%rdi, -16(%rbp)
	movq	%rsi, -40(%rbp)
	movl	$0, -24(%rbp)
.LBB92_1:                               # %for.cond
                                        # =>This Loop Header: Depth=1
                                        #     Child Loop BB92_3 Depth 2
	movl	-24(%rbp), %eax
	movq	-40(%rbp), %rcx
	cmpl	(%rcx), %eax
	jge	.LBB92_12
# %bb.2:                                # %for.body
                                        #   in Loop: Header=BB92_1 Depth=1
	movb	$-128, -1(%rbp)
	movl	$0, -20(%rbp)
.LBB92_3:                               # %for.cond1
                                        #   Parent Loop BB92_1 Depth=1
                                        # =>  This Inner Loop Header: Depth=2
	cmpl	$8, -20(%rbp)
	jge	.LBB92_10
# %bb.4:                                # %for.body3
                                        #   in Loop: Header=BB92_3 Depth=2
	movq	-16(%rbp), %rax
	movzbl	8(%rax), %ecx
	shll	$1, %ecx
	movb	%cl, 8(%rax)
	movq	-40(%rbp), %rax
	movq	32(%rax), %rax
	movslq	-24(%rbp), %rcx
	movzbl	(%rax,%rcx), %eax
	movzbl	-1(%rbp), %ecx
	andl	%ecx, %eax
	cmpl	$0, %eax
	je	.LBB92_6
# %bb.5:                                # %if.then
                                        #   in Loop: Header=BB92_3 Depth=2
	movq	-16(%rbp), %rax
	movzbl	8(%rax), %ecx
	orl	$1, %ecx
	movb	%cl, 8(%rax)
.LBB92_6:                               # %if.end
                                        #   in Loop: Header=BB92_3 Depth=2
	movq	-16(%rbp), %rax
	movl	4(%rax), %ecx
	addl	$-1, %ecx
	movl	%ecx, 4(%rax)
	movzbl	-1(%rbp), %eax
	sarl	$1, %eax
	movb	%al, -1(%rbp)
	movq	-16(%rbp), %rax
	cmpl	$0, 4(%rax)
	jne	.LBB92_8
# %bb.7:                                # %if.then15
                                        #   in Loop: Header=BB92_3 Depth=2
	movq	-16(%rbp), %rax
	movl	$8, 4(%rax)
	movq	-16(%rbp), %rax
	movb	8(%rax), %al
	movq	-16(%rbp), %rcx
	movq	32(%rcx), %rcx
	movq	-16(%rbp), %rdx
	movl	(%rdx), %esi
	movl	%esi, %edi
	addl	$1, %edi
	movl	%edi, (%rdx)
	movslq	%esi, %rdx
	movb	%al, (%rcx,%rdx)
	movq	-16(%rbp), %rax
	movb	$0, 8(%rax)
.LBB92_8:                               # %if.end23
                                        #   in Loop: Header=BB92_3 Depth=2
	jmp	.LBB92_9
.LBB92_9:                               # %for.inc
                                        #   in Loop: Header=BB92_3 Depth=2
	movl	-20(%rbp), %eax
	addl	$1, %eax
	movl	%eax, -20(%rbp)
	jmp	.LBB92_3
.LBB92_10:                              # %for.end
                                        #   in Loop: Header=BB92_1 Depth=1
	jmp	.LBB92_11
.LBB92_11:                              # %for.inc25
                                        #   in Loop: Header=BB92_1 Depth=1
	movl	-24(%rbp), %eax
	addl	$1, %eax
	movl	%eax, -24(%rbp)
	jmp	.LBB92_1
.LBB92_12:                              # %for.end27
	movq	-40(%rbp), %rax
	movl	$8, %ecx
	subl	4(%rax), %ecx
	movl	%ecx, -28(%rbp)
	cmpl	$0, -28(%rbp)
	jle	.LBB92_22
# %bb.13:                               # %if.then31
	movl	-28(%rbp), %ecx
	subl	$1, %ecx
                                        # kill: def $cl killed $ecx
	movl	$1, %eax
	shll	%cl, %eax
	movb	%al, -1(%rbp)
	movl	$0, -20(%rbp)
.LBB92_14:                              # %for.cond35
                                        # =>This Inner Loop Header: Depth=1
	movl	-20(%rbp), %eax
	cmpl	-28(%rbp), %eax
	jge	.LBB92_21
# %bb.15:                               # %for.body38
                                        #   in Loop: Header=BB92_14 Depth=1
	movq	-16(%rbp), %rax
	movzbl	8(%rax), %ecx
	shll	$1, %ecx
	movb	%cl, 8(%rax)
	movq	-40(%rbp), %rax
	movzbl	8(%rax), %eax
	movzbl	-1(%rbp), %ecx
	andl	%ecx, %eax
	cmpl	$0, %eax
	je	.LBB92_17
# %bb.16:                               # %if.then48
                                        #   in Loop: Header=BB92_14 Depth=1
	movq	-16(%rbp), %rax
	movzbl	8(%rax), %ecx
	orl	$1, %ecx
	movb	%cl, 8(%rax)
.LBB92_17:                              # %if.end53
                                        #   in Loop: Header=BB92_14 Depth=1
	movq	-16(%rbp), %rax
	movl	4(%rax), %ecx
	addl	$-1, %ecx
	movl	%ecx, 4(%rax)
	movzbl	-1(%rbp), %eax
	sarl	$1, %eax
	movb	%al, -1(%rbp)
	movq	-16(%rbp), %rax
	cmpl	$0, 4(%rax)
	jne	.LBB92_19
# %bb.18:                               # %if.then62
                                        #   in Loop: Header=BB92_14 Depth=1
	movq	-16(%rbp), %rax
	movl	$8, 4(%rax)
	movq	-16(%rbp), %rax
	movb	8(%rax), %al
	movq	-16(%rbp), %rcx
	movq	32(%rcx), %rcx
	movq	-16(%rbp), %rdx
	movl	(%rdx), %esi
	movl	%esi, %edi
	addl	$1, %edi
	movl	%edi, (%rdx)
	movslq	%esi, %rdx
	movb	%al, (%rcx,%rdx)
	movq	-16(%rbp), %rax
	movb	$0, 8(%rax)
.LBB92_19:                              # %if.end71
                                        #   in Loop: Header=BB92_14 Depth=1
	jmp	.LBB92_20
.LBB92_20:                              # %for.inc72
                                        #   in Loop: Header=BB92_14 Depth=1
	movl	-20(%rbp), %eax
	addl	$1, %eax
	movl	%eax, -20(%rbp)
	jmp	.LBB92_14
.LBB92_21:                              # %for.end74
	jmp	.LBB92_22
.LBB92_22:                              # %if.end75
	cmpl	$1710146193, -44(%rbp)  # imm = 0x65EEC291
	jne	.LBB92_24
.LBB92_23:
	addq	$48, %rsp
	popq	%rbp
	.cfi_def_cfa %rsp, 8
	retq
.LBB92_24:                              # %func_exit
	.cfi_def_cfa %rbp, 16
	callq	detect_breach
	jmp	.LBB92_23
.Lfunc_end92:
	.size	AppendTmpbits2Buf.43, .Lfunc_end92-AppendTmpbits2Buf.43
	.cfi_endproc
                                        # -- End function
	.globl	write_sei_message.44    # -- Begin function write_sei_message.44
	.p2align	4, 0x90
	.type	write_sei_message.44,@function
write_sei_message.44:                   # @write_sei_message.44
	.cfi_startproc
# %bb.0:                                # %entry
	pushq	%rbp
	.cfi_def_cfa_offset 16
	.cfi_offset %rbp, -16
	movq	%rsp, %rbp
	.cfi_def_cfa_register %rbp
	pushq	%rbx
	subq	$40, %rsp
	.cfi_offset %rbx, -24
	movl	$1464093412, -32(%rbp)  # imm = 0x57444AE4
	movl	%edi, -16(%rbp)
	movq	%rsi, -48(%rbp)
	movl	%edx, -28(%rbp)
	movl	%ecx, -36(%rbp)
	movl	-36(%rbp), %eax
	movl	%eax, -24(%rbp)
	movl	-28(%rbp), %eax
	movl	%eax, -20(%rbp)
	movslq	-16(%rbp), %rax
	imulq	$24, %rax, %rax
	movabsq	$sei_message, %rcx
	addq	%rax, %rcx
	movl	4(%rcx), %eax
	movl	%eax, -12(%rbp)
.LBB93_1:                               # %while.cond
                                        # =>This Inner Loop Header: Depth=1
	cmpl	$255, -24(%rbp)
	jle	.LBB93_3
# %bb.2:                                # %while.body
                                        #   in Loop: Header=BB93_1 Depth=1
	movslq	-16(%rbp), %rax
	imulq	$24, %rax, %rax
	movabsq	$sei_message, %rcx
	addq	%rax, %rcx
	movq	16(%rcx), %rax
	movl	-12(%rbp), %ecx
	movl	%ecx, %edx
	addl	$1, %edx
	movl	%edx, -12(%rbp)
	movslq	%ecx, %rcx
	movb	$-1, (%rax,%rcx)
	movl	-24(%rbp), %eax
	subl	$255, %eax
	movl	%eax, -24(%rbp)
	jmp	.LBB93_1
.LBB93_3:                               # %while.end
	movl	-24(%rbp), %eax
	movslq	-16(%rbp), %rcx
	imulq	$24, %rcx, %rcx
	movabsq	$sei_message, %rdx
	addq	%rcx, %rdx
	movq	16(%rdx), %rcx
	movl	-12(%rbp), %edx
	movl	%edx, %esi
	addl	$1, %esi
	movl	%esi, -12(%rbp)
	movslq	%edx, %rdx
	movb	%al, (%rcx,%rdx)
.LBB93_4:                               # %while.cond11
                                        # =>This Inner Loop Header: Depth=1
	cmpl	$255, -20(%rbp)
	jle	.LBB93_6
# %bb.5:                                # %while.body14
                                        #   in Loop: Header=BB93_4 Depth=1
	movslq	-16(%rbp), %rax
	imulq	$24, %rax, %rax
	movabsq	$sei_message, %rcx
	addq	%rax, %rcx
	movq	16(%rcx), %rax
	movl	-12(%rbp), %ecx
	movl	%ecx, %edx
	addl	$1, %edx
	movl	%edx, -12(%rbp)
	movslq	%ecx, %rcx
	movb	$-1, (%rax,%rcx)
	movl	-20(%rbp), %eax
	subl	$255, %eax
	movl	%eax, -20(%rbp)
	jmp	.LBB93_4
.LBB93_6:                               # %while.end22
	movl	-20(%rbp), %eax
	movslq	-16(%rbp), %rcx
	imulq	$24, %rcx, %rcx
	movabsq	$sei_message, %rbx
	movq	%rbx, %rdx
	addq	%rcx, %rdx
	movq	16(%rdx), %rcx
	movl	-12(%rbp), %edx
	movl	%edx, %esi
	addl	$1, %esi
	movl	%esi, -12(%rbp)
	movslq	%edx, %rdx
	movb	%al, (%rcx,%rdx)
	movslq	-16(%rbp), %rax
	imulq	$24, %rax, %rax
	movq	%rbx, %rcx
	addq	%rax, %rcx
	movq	16(%rcx), %rdi
	movslq	-12(%rbp), %rax
	addq	%rax, %rdi
	movq	-48(%rbp), %rsi
	movslq	-28(%rbp), %rdx
	callq	memcpy
	movl	-28(%rbp), %eax
	addl	-12(%rbp), %eax
	movl	%eax, -12(%rbp)
	movl	-12(%rbp), %eax
	movslq	-16(%rbp), %rcx
	imulq	$24, %rcx, %rcx
	addq	%rcx, %rbx
	movl	%eax, 4(%rbx)
	cmpl	$1464093412, -32(%rbp)  # imm = 0x57444AE4
	jne	.LBB93_8
.LBB93_7:
	addq	$40, %rsp
	popq	%rbx
	popq	%rbp
	.cfi_def_cfa %rsp, 8
	retq
.LBB93_8:                               # %func_exit
	.cfi_def_cfa %rbp, 16
	callq	detect_breach
	jmp	.LBB93_7
.Lfunc_end93:
	.size	write_sei_message.44, .Lfunc_end93-write_sei_message.44
	.cfi_endproc
                                        # -- End function
	.globl	FinalizeSubseqLayerInfo.45 # -- Begin function FinalizeSubseqLayerInfo.45
	.p2align	4, 0x90
	.type	FinalizeSubseqLayerInfo.45,@function
FinalizeSubseqLayerInfo.45:             # @FinalizeSubseqLayerInfo.45
	.cfi_startproc
# %bb.0:                                # %entry
	pushq	%rbp
	.cfi_def_cfa_offset 16
	.cfi_offset %rbp, -16
	movq	%rsp, %rbp
	.cfi_def_cfa_register %rbp
	subq	$16, %rsp
	movl	$522664025, -12(%rbp)   # imm = 0x1F273859
	movl	$0, -4(%rbp)
	movl	$0, seiSubseqLayerInfo+20
	movl	$0, -8(%rbp)
.LBB94_1:                               # %for.cond
                                        # =>This Inner Loop Header: Depth=1
	movl	-8(%rbp), %eax
	cmpl	seiSubseqLayerInfo+16, %eax
	jge	.LBB94_4
# %bb.2:                                # %for.body
                                        #   in Loop: Header=BB94_1 Depth=1
	movslq	-8(%rbp), %rax
	movw	seiSubseqLayerInfo(,%rax,2), %ax
	movslq	-4(%rbp), %rcx
	movw	%ax, seiSubseqLayerInfo+8(,%rcx)
	movl	-4(%rbp), %eax
	addl	$2, %eax
	movl	%eax, -4(%rbp)
	movslq	-8(%rbp), %rax
	movw	seiSubseqLayerInfo+4(,%rax,2), %ax
	movslq	-4(%rbp), %rcx
	movw	%ax, seiSubseqLayerInfo+8(,%rcx)
	movl	-4(%rbp), %eax
	addl	$2, %eax
	movl	%eax, -4(%rbp)
	movl	seiSubseqLayerInfo+20, %eax
	addl	$4, %eax
	movl	%eax, seiSubseqLayerInfo+20
# %bb.3:                                # %for.inc
                                        #   in Loop: Header=BB94_1 Depth=1
	movl	-8(%rbp), %eax
	addl	$1, %eax
	movl	%eax, -8(%rbp)
	jmp	.LBB94_1
.LBB94_4:                               # %for.end
	cmpl	$522664025, -12(%rbp)   # imm = 0x1F273859
	jne	.LBB94_6
.LBB94_5:
	addq	$16, %rsp
	popq	%rbp
	.cfi_def_cfa %rsp, 8
	retq
.LBB94_6:                               # %func_exit
	.cfi_def_cfa %rbp, 16
	callq	detect_breach
	jmp	.LBB94_5
.Lfunc_end94:
	.size	FinalizeSubseqLayerInfo.45, .Lfunc_end94-FinalizeSubseqLayerInfo.45
	.cfi_endproc
                                        # -- End function
	.globl	UpdateUser_data_unregistered.46 # -- Begin function UpdateUser_data_unregistered.46
	.p2align	4, 0x90
	.type	UpdateUser_data_unregistered.46,@function
UpdateUser_data_unregistered.46:        # @UpdateUser_data_unregistered.46
	.cfi_startproc
# %bb.0:                                # %entry
	pushq	%rbp
	.cfi_def_cfa_offset 16
	.cfi_offset %rbp, -16
	movq	%rsp, %rbp
	.cfi_def_cfa_register %rbp
	subq	$16, %rsp
	movl	$1226935101, -16(%rbp)  # imm = 0x49218B3D
	movl	$7, -12(%rbp)
	movl	$0, -4(%rbp)
.LBB95_1:                               # %for.cond
                                        # =>This Inner Loop Header: Depth=1
	movl	-4(%rbp), %eax
	cmpl	-12(%rbp), %eax
	jge	.LBB95_13
# %bb.2:                                # %for.body
                                        #   in Loop: Header=BB95_1 Depth=1
	movl	-4(%rbp), %eax
	shll	$2, %eax
	movl	%eax, -8(%rbp)
	cmpl	$255, -8(%rbp)
	jge	.LBB95_4
# %bb.3:                                # %cond.true
                                        #   in Loop: Header=BB95_1 Depth=1
	movl	-8(%rbp), %eax
	jmp	.LBB95_5
.LBB95_4:                               # %cond.false
                                        #   in Loop: Header=BB95_1 Depth=1
	movl	$255, %eax
	jmp	.LBB95_5
.LBB95_5:                               # %cond.end
                                        #   in Loop: Header=BB95_1 Depth=1
	xorl	%ecx, %ecx
	cmpl	%eax, %ecx
	jle	.LBB95_7
# %bb.6:                                # %cond.true3
                                        #   in Loop: Header=BB95_1 Depth=1
	xorl	%eax, %eax
	jmp	.LBB95_11
.LBB95_7:                               # %cond.false4
                                        #   in Loop: Header=BB95_1 Depth=1
	cmpl	$255, -8(%rbp)
	jge	.LBB95_9
# %bb.8:                                # %cond.true6
                                        #   in Loop: Header=BB95_1 Depth=1
	movl	-8(%rbp), %eax
	jmp	.LBB95_10
.LBB95_9:                               # %cond.false7
                                        #   in Loop: Header=BB95_1 Depth=1
	movl	$255, %eax
	jmp	.LBB95_10
.LBB95_10:                              # %cond.end8
                                        #   in Loop: Header=BB95_1 Depth=1
.LBB95_11:                              # %cond.end10
                                        #   in Loop: Header=BB95_1 Depth=1
	movq	seiUser_data_unregistered, %rcx
	movslq	-4(%rbp), %rdx
	movb	%al, (%rcx,%rdx)
# %bb.12:                               # %for.inc
                                        #   in Loop: Header=BB95_1 Depth=1
	movl	-4(%rbp), %eax
	addl	$1, %eax
	movl	%eax, -4(%rbp)
	jmp	.LBB95_1
.LBB95_13:                              # %for.end
	movl	-12(%rbp), %eax
	movl	%eax, seiUser_data_unregistered+8
	cmpl	$1226935101, -16(%rbp)  # imm = 0x49218B3D
	jne	.LBB95_15
.LBB95_14:
	addq	$16, %rsp
	popq	%rbp
	.cfi_def_cfa %rsp, 8
	retq
.LBB95_15:                              # %func_exit
	.cfi_def_cfa %rbp, 16
	callq	detect_breach
	jmp	.LBB95_14
.Lfunc_end95:
	.size	UpdateUser_data_unregistered.46, .Lfunc_end95-UpdateUser_data_unregistered.46
	.cfi_endproc
                                        # -- End function
	.globl	FinalizeSceneInformation.47 # -- Begin function FinalizeSceneInformation.47
	.p2align	4, 0x90
	.type	FinalizeSceneInformation.47,@function
FinalizeSceneInformation.47:            # @FinalizeSceneInformation.47
	.cfi_startproc
# %bb.0:                                # %entry
	pushq	%rbp
	.cfi_def_cfa_offset 16
	.cfi_offset %rbp, -16
	movq	%rsp, %rbp
	.cfi_def_cfa_register %rbp
	subq	$64, %rsp
	movl	$752675746, -12(%rbp)   # imm = 0x2CDCEBA2
	movq	seiSceneInformation+16, %rax
	movq	%rax, -8(%rbp)
	movl	$0, -64(%rbp)
	movabsq	$ue_linfo, %rax
	movq	%rax, -32(%rbp)
	movl	seiSceneInformation, %eax
	movl	%eax, -44(%rbp)
	movl	$8, -52(%rbp)
	movq	-8(%rbp), %rsi
	leaq	-64(%rbp), %rdi
	callq	writeSyntaxElement2Buf_Fixed
	movl	seiSceneInformation+4, %eax
	movl	%eax, -60(%rbp)
	movq	-8(%rbp), %rsi
	leaq	-64(%rbp), %rdi
	callq	writeSyntaxElement2Buf_UVLC
	cmpl	$3, seiSceneInformation+4
	jle	.LBB96_2
# %bb.1:                                # %if.then
	movl	seiSceneInformation+8, %eax
	movl	%eax, -44(%rbp)
	movl	$8, -52(%rbp)
	movq	-8(%rbp), %rsi
	leaq	-64(%rbp), %rdi
	callq	writeSyntaxElement2Buf_Fixed
.LBB96_2:                               # %if.end
	movq	-8(%rbp), %rax
	cmpl	$8, 4(%rax)
	je	.LBB96_6
# %bb.3:                                # %if.then6
	movq	-8(%rbp), %rax
	movzbl	8(%rax), %ecx
	shll	$1, %ecx
	movb	%cl, 8(%rax)
	movq	-8(%rbp), %rax
	movzbl	8(%rax), %ecx
	orl	$1, %ecx
	movb	%cl, 8(%rax)
	movq	-8(%rbp), %rax
	movl	4(%rax), %ecx
	addl	$-1, %ecx
	movl	%ecx, 4(%rax)
	movq	-8(%rbp), %rax
	cmpl	$0, 4(%rax)
	je	.LBB96_5
# %bb.4:                                # %if.then15
	movq	-8(%rbp), %rax
	movl	4(%rax), %ecx
	movq	-8(%rbp), %rax
	movzbl	8(%rax), %edx
                                        # kill: def $cl killed $ecx
	shll	%cl, %edx
	movb	%dl, 8(%rax)
.LBB96_5:                               # %if.end21
	movq	-8(%rbp), %rax
	movl	$8, 4(%rax)
	movq	-8(%rbp), %rax
	movb	8(%rax), %al
	movq	-8(%rbp), %rcx
	movq	32(%rcx), %rcx
	movq	-8(%rbp), %rdx
	movl	(%rdx), %esi
	movl	%esi, %edi
	addl	$1, %edi
	movl	%edi, (%rdx)
	movslq	%esi, %rdx
	movb	%al, (%rcx,%rdx)
	movq	-8(%rbp), %rax
	movb	$0, 8(%rax)
.LBB96_6:                               # %if.end25
	movq	-8(%rbp), %rax
	movl	(%rax), %eax
	movl	%eax, seiSceneInformation+24
	cmpl	$752675746, -12(%rbp)   # imm = 0x2CDCEBA2
	jne	.LBB96_8
.LBB96_7:
	addq	$64, %rsp
	popq	%rbp
	.cfi_def_cfa %rsp, 8
	retq
.LBB96_8:                               # %func_exit
	.cfi_def_cfa %rbp, 16
	callq	detect_breach
	jmp	.LBB96_7
.Lfunc_end96:
	.size	FinalizeSceneInformation.47, .Lfunc_end96-FinalizeSceneInformation.47
	.cfi_endproc
                                        # -- End function
	.globl	UpdateSceneInformation.48 # -- Begin function UpdateSceneInformation.48
	.p2align	4, 0x90
	.type	UpdateSceneInformation.48,@function
UpdateSceneInformation.48:              # @UpdateSceneInformation.48
	.cfi_startproc
# %bb.0:                                # %entry
	pushq	%rbp
	.cfi_def_cfa_offset 16
	.cfi_offset %rbp, -16
	movq	%rsp, %rbp
	.cfi_def_cfa_register %rbp
	subq	$32, %rsp
	movl	$1015960772, -20(%rbp)  # imm = 0x3C8E54C4
	movl	%edi, -12(%rbp)
	movl	%esi, -8(%rbp)
	movl	%edx, -4(%rbp)
	movl	%ecx, -16(%rbp)
	movl	-12(%rbp), %eax
	movl	%eax, seiHasSceneInformation
	movl	-8(%rbp), %eax
	movl	%eax, seiSceneInformation
	movl	-4(%rbp), %eax
	movl	%eax, seiSceneInformation+4
	cmpl	$3, -4(%rbp)
	jle	.LBB97_2
# %bb.1:                                # %if.then
	movl	-16(%rbp), %eax
	movl	%eax, seiSceneInformation+8
.LBB97_2:                               # %if.end
	cmpl	$1015960772, -20(%rbp)  # imm = 0x3C8E54C4
	jne	.LBB97_4
.LBB97_3:
	addq	$32, %rsp
	popq	%rbp
	.cfi_def_cfa %rsp, 8
	retq
.LBB97_4:                               # %func_exit
	.cfi_def_cfa %rbp, 16
	callq	detect_breach
	jmp	.LBB97_3
.Lfunc_end97:
	.size	UpdateSceneInformation.48, .Lfunc_end97-UpdateSceneInformation.48
	.cfi_endproc
                                        # -- End function
	.globl	FinalizeSpareMBMap.49   # -- Begin function FinalizeSpareMBMap.49
	.p2align	4, 0x90
	.type	FinalizeSpareMBMap.49,@function
FinalizeSpareMBMap.49:                  # @FinalizeSpareMBMap.49
	.cfi_startproc
# %bb.0:                                # %entry
	pushq	%rbp
	.cfi_def_cfa_offset 16
	.cfi_offset %rbp, -16
	movq	%rsp, %rbp
	.cfi_def_cfa_register %rbp
	subq	$80, %rsp
	movl	$1181203368, -28(%rbp)  # imm = 0x4667BBA8
	movq	img, %rax
	movl	(%rax), %eax
	cltd
	movl	$256, %ecx              # imm = 0x100
	idivl	%ecx
	movl	%edx, -32(%rbp)
	movl	$0, -80(%rbp)
	movabsq	$ue_linfo, %rax
	movq	%rax, -48(%rbp)
	movq	seiSparePicturePayload+16, %rax
	movq	%rax, -24(%rbp)
	movl	$48, %edi
	callq	malloc
	movq	%rax, -8(%rbp)
	cmpq	$0, -8(%rbp)
	jne	.LBB98_2
# %bb.1:                                # %if.then
	movabsq	$.L.str.3, %rdi
	callq	no_mem_exit
.LBB98_2:                               # %if.end
	movl	$65496, %edi            # imm = 0xFFD8
	callq	malloc
	movq	-8(%rbp), %rcx
	movq	%rax, 32(%rcx)
	movq	-8(%rbp), %rax
	cmpq	$0, 32(%rax)
	jne	.LBB98_4
# %bb.3:                                # %if.then4
	movabsq	$.L.str.4, %rdi
	callq	no_mem_exit
.LBB98_4:                               # %if.end5
	movq	-8(%rbp), %rax
	movl	$8, 4(%rax)
	movq	-8(%rbp), %rax
	movl	$0, (%rax)
	movq	-8(%rbp), %rax
	movb	$0, 8(%rax)
	movq	-8(%rbp), %rax
	movq	32(%rax), %rdi
	xorl	%esi, %esi
	movl	$65496, %edx            # imm = 0xFFD8
	callq	memset
	movl	-32(%rbp), %eax
	subl	seiSparePicturePayload, %eax
	movl	%eax, -12(%rbp)
	cmpl	$0, -12(%rbp)
	jge	.LBB98_6
# %bb.5:                                # %if.then8
	movl	-12(%rbp), %eax
	addl	$256, %eax              # imm = 0x100
	movl	%eax, -12(%rbp)
.LBB98_6:                               # %if.end9
	movl	-12(%rbp), %eax
	movl	%eax, -76(%rbp)
	movq	-8(%rbp), %rsi
	leaq	-80(%rbp), %rdi
	callq	writeSyntaxElement2Buf_UVLC
	movl	seiSparePicturePayload+4, %eax
	subl	$1, %eax
	movl	%eax, -76(%rbp)
	movq	-8(%rbp), %rsi
	leaq	-80(%rbp), %rdi
	callq	writeSyntaxElement2Buf_UVLC
	movq	-8(%rbp), %rdi
	movq	-24(%rbp), %rsi
	callq	AppendTmpbits2Buf
	movq	-8(%rbp), %rax
	cmpl	$8, 4(%rax)
	je	.LBB98_10
# %bb.7:                                # %if.then16
	movq	-8(%rbp), %rax
	movzbl	8(%rax), %ecx
	shll	$1, %ecx
	movb	%cl, 8(%rax)
	movq	-8(%rbp), %rax
	movzbl	8(%rax), %ecx
	orl	$1, %ecx
	movb	%cl, 8(%rax)
	movq	-8(%rbp), %rax
	movl	4(%rax), %ecx
	addl	$-1, %ecx
	movl	%ecx, 4(%rax)
	movq	-8(%rbp), %rax
	cmpl	$0, 4(%rax)
	je	.LBB98_9
# %bb.8:                                # %if.then26
	movq	-8(%rbp), %rax
	movl	4(%rax), %ecx
	movq	-8(%rbp), %rax
	movzbl	8(%rax), %edx
                                        # kill: def $cl killed $ecx
	shll	%cl, %edx
	movb	%dl, 8(%rax)
.LBB98_9:                               # %if.end32
	movq	-8(%rbp), %rax
	movl	$8, 4(%rax)
	movq	-8(%rbp), %rax
	movb	8(%rax), %al
	movq	-8(%rbp), %rcx
	movq	32(%rcx), %rcx
	movq	-8(%rbp), %rdx
	movl	(%rdx), %esi
	movl	%esi, %edi
	addl	$1, %edi
	movl	%edi, (%rdx)
	movslq	%esi, %rdx
	movb	%al, (%rcx,%rdx)
	movq	-8(%rbp), %rax
	movb	$0, 8(%rax)
.LBB98_10:                              # %if.end38
	movq	-8(%rbp), %rax
	movl	(%rax), %eax
	movl	%eax, seiSparePicturePayload+8
	movq	-8(%rbp), %rax
	movq	%rax, seiSparePicturePayload+16
	movq	-24(%rbp), %rax
	movq	32(%rax), %rdi
	callq	free
	movq	-24(%rbp), %rdi
	callq	free
	cmpl	$1181203368, -28(%rbp)  # imm = 0x4667BBA8
	jne	.LBB98_12
.LBB98_11:
	addq	$80, %rsp
	popq	%rbp
	.cfi_def_cfa %rsp, 8
	retq
.LBB98_12:                              # %func_exit
	.cfi_def_cfa %rbp, 16
	callq	detect_breach
	jmp	.LBB98_11
.Lfunc_end98:
	.size	FinalizeSpareMBMap.49, .Lfunc_end98-FinalizeSpareMBMap.49
	.cfi_endproc
                                        # -- End function
	.globl	FinalizeSubseqChar.50   # -- Begin function FinalizeSubseqChar.50
	.p2align	4, 0x90
	.type	FinalizeSubseqChar.50,@function
FinalizeSubseqChar.50:                  # @FinalizeSubseqChar.50
	.cfi_startproc
# %bb.0:                                # %entry
	pushq	%rbp
	.cfi_def_cfa_offset 16
	.cfi_offset %rbp, -16
	movq	%rsp, %rbp
	.cfi_def_cfa_register %rbp
	subq	$80, %rsp
	movl	$110672087, -68(%rbp)   # imm = 0x698B8D7
	movq	seiSubseqChar+72, %rax
	movq	%rax, -8(%rbp)
	movl	$0, -64(%rbp)
	movabsq	$ue_linfo, %rax
	movq	%rax, -32(%rbp)
	movl	seiSubseqChar, %eax
	movl	%eax, -60(%rbp)
	movq	-8(%rbp), %rsi
	leaq	-64(%rbp), %rdi
	callq	writeSyntaxElement2Buf_UVLC
	movl	seiSubseqChar+4, %eax
	movl	%eax, -60(%rbp)
	movq	-8(%rbp), %rsi
	leaq	-64(%rbp), %rdi
	callq	writeSyntaxElement2Buf_UVLC
	movl	seiSubseqChar+8, %eax
	movl	%eax, -44(%rbp)
	movl	$1, -52(%rbp)
	movq	-8(%rbp), %rsi
	leaq	-64(%rbp), %rdi
	callq	writeSyntaxElement2Buf_Fixed
	cmpl	$0, seiSubseqChar+8
	je	.LBB99_2
# %bb.1:                                # %if.then
	movl	seiSubseqChar+12, %eax
	movl	%eax, -44(%rbp)
	movl	$32, -52(%rbp)
	movq	-8(%rbp), %rsi
	leaq	-64(%rbp), %rdi
	callq	writeSyntaxElement2Buf_Fixed
.LBB99_2:                               # %if.end
	movl	seiSubseqChar+16, %eax
	movl	%eax, -44(%rbp)
	movl	$1, -52(%rbp)
	movq	-8(%rbp), %rsi
	leaq	-64(%rbp), %rdi
	callq	writeSyntaxElement2Buf_Fixed
	cmpl	$0, seiSubseqChar+16
	je	.LBB99_4
# %bb.3:                                # %if.then11
	movl	seiSubseqChar+20, %eax
	movl	%eax, -44(%rbp)
	movl	$16, -52(%rbp)
	movq	-8(%rbp), %rsi
	leaq	-64(%rbp), %rdi
	callq	writeSyntaxElement2Buf_Fixed
	movl	seiSubseqChar+24, %eax
	movl	%eax, -44(%rbp)
	movl	$16, -52(%rbp)
	movq	-8(%rbp), %rsi
	leaq	-64(%rbp), %rdi
	callq	writeSyntaxElement2Buf_Fixed
.LBB99_4:                               # %if.end18
	movl	seiSubseqChar+28, %eax
	movl	%eax, -60(%rbp)
	movq	-8(%rbp), %rsi
	leaq	-64(%rbp), %rdi
	callq	writeSyntaxElement2Buf_UVLC
	movl	$0, -12(%rbp)
.LBB99_5:                               # %for.cond
                                        # =>This Inner Loop Header: Depth=1
	movl	-12(%rbp), %eax
	cmpl	seiSubseqChar+28, %eax
	jge	.LBB99_8
# %bb.6:                                # %for.body
                                        #   in Loop: Header=BB99_5 Depth=1
	movslq	-12(%rbp), %rax
	movl	seiSubseqChar+32(,%rax,4), %eax
	movl	%eax, -60(%rbp)
	movq	-8(%rbp), %rsi
	leaq	-64(%rbp), %rdi
	callq	writeSyntaxElement2Buf_UVLC
	movslq	-12(%rbp), %rax
	movl	seiSubseqChar+52(,%rax,4), %eax
	movl	%eax, -60(%rbp)
	movq	-8(%rbp), %rsi
	leaq	-64(%rbp), %rdi
	callq	writeSyntaxElement2Buf_UVLC
# %bb.7:                                # %for.inc
                                        #   in Loop: Header=BB99_5 Depth=1
	movl	-12(%rbp), %eax
	addl	$1, %eax
	movl	%eax, -12(%rbp)
	jmp	.LBB99_5
.LBB99_8:                               # %for.end
	movq	-8(%rbp), %rax
	cmpl	$8, 4(%rax)
	je	.LBB99_12
# %bb.9:                                # %if.then28
	movq	-8(%rbp), %rax
	movzbl	8(%rax), %ecx
	shll	$1, %ecx
	movb	%cl, 8(%rax)
	movq	-8(%rbp), %rax
	movzbl	8(%rax), %ecx
	orl	$1, %ecx
	movb	%cl, 8(%rax)
	movq	-8(%rbp), %rax
	movl	4(%rax), %ecx
	addl	$-1, %ecx
	movl	%ecx, 4(%rax)
	movq	-8(%rbp), %rax
	cmpl	$0, 4(%rax)
	je	.LBB99_11
# %bb.10:                               # %if.then37
	movq	-8(%rbp), %rax
	movl	4(%rax), %ecx
	movq	-8(%rbp), %rax
	movzbl	8(%rax), %edx
                                        # kill: def $cl killed $ecx
	shll	%cl, %edx
	movb	%dl, 8(%rax)
.LBB99_11:                              # %if.end43
	movq	-8(%rbp), %rax
	movl	$8, 4(%rax)
	movq	-8(%rbp), %rax
	movb	8(%rax), %al
	movq	-8(%rbp), %rcx
	movq	32(%rcx), %rcx
	movq	-8(%rbp), %rdx
	movl	(%rdx), %esi
	movl	%esi, %edi
	addl	$1, %edi
	movl	%edi, (%rdx)
	movslq	%esi, %rdx
	movb	%al, (%rcx,%rdx)
	movq	-8(%rbp), %rax
	movb	$0, 8(%rax)
.LBB99_12:                              # %if.end50
	movq	-8(%rbp), %rax
	movl	(%rax), %eax
	movl	%eax, seiSubseqChar+80
	cmpl	$110672087, -68(%rbp)   # imm = 0x698B8D7
	jne	.LBB99_14
.LBB99_13:
	addq	$80, %rsp
	popq	%rbp
	.cfi_def_cfa %rsp, 8
	retq
.LBB99_14:                              # %func_exit
	.cfi_def_cfa %rbp, 16
	callq	detect_breach
	jmp	.LBB99_13
.Lfunc_end99:
	.size	FinalizeSubseqChar.50, .Lfunc_end99-FinalizeSubseqChar.50
	.cfi_endproc
                                        # -- End function
	.globl	UpdateSceneInformation.51 # -- Begin function UpdateSceneInformation.51
	.p2align	4, 0x90
	.type	UpdateSceneInformation.51,@function
UpdateSceneInformation.51:              # @UpdateSceneInformation.51
	.cfi_startproc
